
target/thumbv6m-none-eabi/opt-2/examples/complex_no_dynamic:     file format elf32-littlearm

Sections:
Idx Name          Size      VMA       LMA       File off  Algn
  0 .ARM.exidx    00000010  000100d4  000100d4  000000d4  2**2
                  CONTENTS, ALLOC, LOAD, READONLY, DATA
  1 .text         00006f30  000200e4  000200e4  000000e4  2**2
                  CONTENTS, ALLOC, LOAD, READONLY, CODE
  2 .comment      00000099  00000000  00000000  00007014  2**0
                  CONTENTS, READONLY
  3 .ARM.attributes 00000032  00000000  00000000  000070ad  2**0
                  CONTENTS, READONLY

Disassembly of section .text:

000200e4 <_ZN18complex_no_dynamic3app17h0506e3e0a9629ae8E>:
   200e4:	b5f0      	push	{r4, r5, r6, r7, lr}
   200e6:	af03      	add	r7, sp, #12
   200e8:	b0a1      	sub	sp, #132	@ 0x84
   200ea:	4604      	mov	r4, r0
   200ec:	ad01      	add	r5, sp, #4
   200ee:	261b      	movs	r6, #27
   200f0:	4628      	mov	r0, r5
   200f2:	4632      	mov	r2, r6
   200f4:	f006 ff89 	bl	2700a <__aeabi_memcpy>
   200f8:	a808      	add	r0, sp, #32
   200fa:	2163      	movs	r1, #99	@ 0x63
   200fc:	f006 fdd8 	bl	26cb0 <__aeabi_memclr4>
   20100:	4822      	ldr	r0, [pc, #136]	@ (2018c <_ZN18complex_no_dynamic3app17h0506e3e0a9629ae8E+0xa8>)
   20102:	2103      	movs	r1, #3
   20104:	462a      	mov	r2, r5
   20106:	4633      	mov	r3, r6
   20108:	df04      	svc	4
   2010a:	2802      	cmp	r0, #2
   2010c:	d00e      	beq.n	2012c <_ZN18complex_no_dynamic3app17h0506e3e0a9629ae8E+0x48>
   2010e:	481f      	ldr	r0, [pc, #124]	@ (2018c <_ZN18complex_no_dynamic3app17h0506e3e0a9629ae8E+0xa8>)
   20110:	2103      	movs	r1, #3
   20112:	aa08      	add	r2, sp, #32
   20114:	2363      	movs	r3, #99	@ 0x63
   20116:	df03      	svc	3
   20118:	2802      	cmp	r0, #2
   2011a:	d007      	beq.n	2012c <_ZN18complex_no_dynamic3app17h0506e3e0a9629ae8E+0x48>
   2011c:	481b      	ldr	r0, [pc, #108]	@ (2018c <_ZN18complex_no_dynamic3app17h0506e3e0a9629ae8E+0xa8>)
   2011e:	2103      	movs	r1, #3
   20120:	2500      	movs	r5, #0
   20122:	460a      	mov	r2, r1
   20124:	462b      	mov	r3, r5
   20126:	df02      	svc	2
   20128:	287f      	cmp	r0, #127	@ 0x7f
   2012a:	d811      	bhi.n	20150 <_ZN18complex_no_dynamic3app17h0506e3e0a9629ae8E+0x6c>
   2012c:	2001      	movs	r0, #1
   2012e:	7020      	strb	r0, [r4, #0]
   20130:	6061      	str	r1, [r4, #4]
   20132:	4c16      	ldr	r4, [pc, #88]	@ (2018c <_ZN18complex_no_dynamic3app17h0506e3e0a9629ae8E+0xa8>)
   20134:	2503      	movs	r5, #3
   20136:	2600      	movs	r6, #0
   20138:	4620      	mov	r0, r4
   2013a:	4629      	mov	r1, r5
   2013c:	4632      	mov	r2, r6
   2013e:	4633      	mov	r3, r6
   20140:	df03      	svc	3
   20142:	4620      	mov	r0, r4
   20144:	4629      	mov	r1, r5
   20146:	4632      	mov	r2, r6
   20148:	4633      	mov	r3, r6
   2014a:	df04      	svc	4
   2014c:	b021      	add	sp, #132	@ 0x84
   2014e:	bdf0      	pop	{r4, r5, r6, r7, pc}
   20150:	480e      	ldr	r0, [pc, #56]	@ (2018c <_ZN18complex_no_dynamic3app17h0506e3e0a9629ae8E+0xa8>)
   20152:	2603      	movs	r6, #3
   20154:	4631      	mov	r1, r6
   20156:	462a      	mov	r2, r5
   20158:	462b      	mov	r3, r5
   2015a:	df03      	svc	3
   2015c:	480b      	ldr	r0, [pc, #44]	@ (2018c <_ZN18complex_no_dynamic3app17h0506e3e0a9629ae8E+0xa8>)
   2015e:	4631      	mov	r1, r6
   20160:	462a      	mov	r2, r5
   20162:	462b      	mov	r3, r5
   20164:	df03      	svc	3
   20166:	1c60      	adds	r0, r4, #1
   20168:	a908      	add	r1, sp, #32
   2016a:	2263      	movs	r2, #99	@ 0x63
   2016c:	f006 ff4d 	bl	2700a <__aeabi_memcpy>
   20170:	7025      	strb	r5, [r4, #0]
   20172:	4c06      	ldr	r4, [pc, #24]	@ (2018c <_ZN18complex_no_dynamic3app17h0506e3e0a9629ae8E+0xa8>)
   20174:	4620      	mov	r0, r4
   20176:	4631      	mov	r1, r6
   20178:	462a      	mov	r2, r5
   2017a:	462b      	mov	r3, r5
   2017c:	df03      	svc	3
   2017e:	4620      	mov	r0, r4
   20180:	4631      	mov	r1, r6
   20182:	462a      	mov	r2, r5
   20184:	462b      	mov	r3, r5
   20186:	df04      	svc	4
   20188:	b021      	add	sp, #132	@ 0x84
   2018a:	bdf0      	pop	{r4, r5, r6, r7, pc}
   2018c:	00002548 	.word	0x00002548

00020190 <_ZN18complex_no_dynamic3app17h0552072d6aee1693E>:
   20190:	b5f0      	push	{r4, r5, r6, r7, lr}
   20192:	af03      	add	r7, sp, #12
   20194:	b093      	sub	sp, #76	@ 0x4c
   20196:	4604      	mov	r4, r0
   20198:	ad01      	add	r5, sp, #4
   2019a:	2629      	movs	r6, #41	@ 0x29
   2019c:	4628      	mov	r0, r5
   2019e:	4632      	mov	r2, r6
   201a0:	f006 ff33 	bl	2700a <__aeabi_memcpy>
   201a4:	a80c      	add	r0, sp, #48	@ 0x30
   201a6:	2100      	movs	r1, #0
   201a8:	8301      	strh	r1, [r0, #24]
   201aa:	9111      	str	r1, [sp, #68]	@ 0x44
   201ac:	9110      	str	r1, [sp, #64]	@ 0x40
   201ae:	910f      	str	r1, [sp, #60]	@ 0x3c
   201b0:	910e      	str	r1, [sp, #56]	@ 0x38
   201b2:	910d      	str	r1, [sp, #52]	@ 0x34
   201b4:	910c      	str	r1, [sp, #48]	@ 0x30
   201b6:	4822      	ldr	r0, [pc, #136]	@ (20240 <_ZN18complex_no_dynamic3app17h0552072d6aee1693E+0xb0>)
   201b8:	2105      	movs	r1, #5
   201ba:	462a      	mov	r2, r5
   201bc:	4633      	mov	r3, r6
   201be:	df04      	svc	4
   201c0:	2802      	cmp	r0, #2
   201c2:	d00e      	beq.n	201e2 <_ZN18complex_no_dynamic3app17h0552072d6aee1693E+0x52>
   201c4:	481e      	ldr	r0, [pc, #120]	@ (20240 <_ZN18complex_no_dynamic3app17h0552072d6aee1693E+0xb0>)
   201c6:	2103      	movs	r1, #3
   201c8:	aa0c      	add	r2, sp, #48	@ 0x30
   201ca:	231a      	movs	r3, #26
   201cc:	df03      	svc	3
   201ce:	2802      	cmp	r0, #2
   201d0:	d007      	beq.n	201e2 <_ZN18complex_no_dynamic3app17h0552072d6aee1693E+0x52>
   201d2:	481b      	ldr	r0, [pc, #108]	@ (20240 <_ZN18complex_no_dynamic3app17h0552072d6aee1693E+0xb0>)
   201d4:	2105      	movs	r1, #5
   201d6:	2203      	movs	r2, #3
   201d8:	2500      	movs	r5, #0
   201da:	462b      	mov	r3, r5
   201dc:	df02      	svc	2
   201de:	287f      	cmp	r0, #127	@ 0x7f
   201e0:	d810      	bhi.n	20204 <_ZN18complex_no_dynamic3app17h0552072d6aee1693E+0x74>
   201e2:	2001      	movs	r0, #1
   201e4:	7020      	strb	r0, [r4, #0]
   201e6:	6061      	str	r1, [r4, #4]
   201e8:	4c15      	ldr	r4, [pc, #84]	@ (20240 <_ZN18complex_no_dynamic3app17h0552072d6aee1693E+0xb0>)
   201ea:	2103      	movs	r1, #3
   201ec:	2500      	movs	r5, #0
   201ee:	4620      	mov	r0, r4
   201f0:	462a      	mov	r2, r5
   201f2:	462b      	mov	r3, r5
   201f4:	df03      	svc	3
   201f6:	2105      	movs	r1, #5
   201f8:	4620      	mov	r0, r4
   201fa:	462a      	mov	r2, r5
   201fc:	462b      	mov	r3, r5
   201fe:	df04      	svc	4
   20200:	b013      	add	sp, #76	@ 0x4c
   20202:	bdf0      	pop	{r4, r5, r6, r7, pc}
   20204:	480e      	ldr	r0, [pc, #56]	@ (20240 <_ZN18complex_no_dynamic3app17h0552072d6aee1693E+0xb0>)
   20206:	2603      	movs	r6, #3
   20208:	4631      	mov	r1, r6
   2020a:	462a      	mov	r2, r5
   2020c:	462b      	mov	r3, r5
   2020e:	df03      	svc	3
   20210:	480b      	ldr	r0, [pc, #44]	@ (20240 <_ZN18complex_no_dynamic3app17h0552072d6aee1693E+0xb0>)
   20212:	4631      	mov	r1, r6
   20214:	462a      	mov	r2, r5
   20216:	462b      	mov	r3, r5
   20218:	df03      	svc	3
   2021a:	1c60      	adds	r0, r4, #1
   2021c:	a90c      	add	r1, sp, #48	@ 0x30
   2021e:	221a      	movs	r2, #26
   20220:	f006 fef3 	bl	2700a <__aeabi_memcpy>
   20224:	7025      	strb	r5, [r4, #0]
   20226:	4c06      	ldr	r4, [pc, #24]	@ (20240 <_ZN18complex_no_dynamic3app17h0552072d6aee1693E+0xb0>)
   20228:	4620      	mov	r0, r4
   2022a:	4631      	mov	r1, r6
   2022c:	462a      	mov	r2, r5
   2022e:	462b      	mov	r3, r5
   20230:	df03      	svc	3
   20232:	2105      	movs	r1, #5
   20234:	4620      	mov	r0, r4
   20236:	462a      	mov	r2, r5
   20238:	462b      	mov	r3, r5
   2023a:	df04      	svc	4
   2023c:	b013      	add	sp, #76	@ 0x4c
   2023e:	bdf0      	pop	{r4, r5, r6, r7, pc}
   20240:	00002048 	.word	0x00002048

00020244 <_ZN18complex_no_dynamic3app17h0855e79ed723329cE>:
   20244:	b5f0      	push	{r4, r5, r6, r7, lr}
   20246:	af03      	add	r7, sp, #12
   20248:	b095      	sub	sp, #84	@ 0x54
   2024a:	9000      	str	r0, [sp, #0]
   2024c:	ae01      	add	r6, sp, #4
   2024e:	2421      	movs	r4, #33	@ 0x21
   20250:	4630      	mov	r0, r6
   20252:	4622      	mov	r2, r4
   20254:	f006 fed9 	bl	2700a <__aeabi_memcpy>
   20258:	a80a      	add	r0, sp, #40	@ 0x28
   2025a:	212a      	movs	r1, #42	@ 0x2a
   2025c:	f006 fd28 	bl	26cb0 <__aeabi_memclr4>
   20260:	4823      	ldr	r0, [pc, #140]	@ (202f0 <_ZN18complex_no_dynamic3app17h0855e79ed723329cE+0xac>)
   20262:	2501      	movs	r5, #1
   20264:	4629      	mov	r1, r5
   20266:	4632      	mov	r2, r6
   20268:	4623      	mov	r3, r4
   2026a:	df04      	svc	4
   2026c:	2802      	cmp	r0, #2
   2026e:	d00e      	beq.n	2028e <_ZN18complex_no_dynamic3app17h0855e79ed723329cE+0x4a>
   20270:	481f      	ldr	r0, [pc, #124]	@ (202f0 <_ZN18complex_no_dynamic3app17h0855e79ed723329cE+0xac>)
   20272:	2103      	movs	r1, #3
   20274:	aa0a      	add	r2, sp, #40	@ 0x28
   20276:	232a      	movs	r3, #42	@ 0x2a
   20278:	df03      	svc	3
   2027a:	2802      	cmp	r0, #2
   2027c:	d007      	beq.n	2028e <_ZN18complex_no_dynamic3app17h0855e79ed723329cE+0x4a>
   2027e:	481c      	ldr	r0, [pc, #112]	@ (202f0 <_ZN18complex_no_dynamic3app17h0855e79ed723329cE+0xac>)
   20280:	2101      	movs	r1, #1
   20282:	2203      	movs	r2, #3
   20284:	2600      	movs	r6, #0
   20286:	4633      	mov	r3, r6
   20288:	df02      	svc	2
   2028a:	287f      	cmp	r0, #127	@ 0x7f
   2028c:	d810      	bhi.n	202b0 <_ZN18complex_no_dynamic3app17h0855e79ed723329cE+0x6c>
   2028e:	9800      	ldr	r0, [sp, #0]
   20290:	7005      	strb	r5, [r0, #0]
   20292:	6041      	str	r1, [r0, #4]
   20294:	4c16      	ldr	r4, [pc, #88]	@ (202f0 <_ZN18complex_no_dynamic3app17h0855e79ed723329cE+0xac>)
   20296:	2103      	movs	r1, #3
   20298:	2600      	movs	r6, #0
   2029a:	4620      	mov	r0, r4
   2029c:	4632      	mov	r2, r6
   2029e:	4633      	mov	r3, r6
   202a0:	df03      	svc	3
   202a2:	4620      	mov	r0, r4
   202a4:	4629      	mov	r1, r5
   202a6:	4632      	mov	r2, r6
   202a8:	4633      	mov	r3, r6
   202aa:	df04      	svc	4
   202ac:	b015      	add	sp, #84	@ 0x54
   202ae:	bdf0      	pop	{r4, r5, r6, r7, pc}
   202b0:	4c0f      	ldr	r4, [pc, #60]	@ (202f0 <_ZN18complex_no_dynamic3app17h0855e79ed723329cE+0xac>)
   202b2:	2503      	movs	r5, #3
   202b4:	4620      	mov	r0, r4
   202b6:	4629      	mov	r1, r5
   202b8:	4632      	mov	r2, r6
   202ba:	4633      	mov	r3, r6
   202bc:	df03      	svc	3
   202be:	4620      	mov	r0, r4
   202c0:	4629      	mov	r1, r5
   202c2:	4632      	mov	r2, r6
   202c4:	4633      	mov	r3, r6
   202c6:	df03      	svc	3
   202c8:	9c00      	ldr	r4, [sp, #0]
   202ca:	1c60      	adds	r0, r4, #1
   202cc:	a90a      	add	r1, sp, #40	@ 0x28
   202ce:	222a      	movs	r2, #42	@ 0x2a
   202d0:	f006 fe9b 	bl	2700a <__aeabi_memcpy>
   202d4:	7026      	strb	r6, [r4, #0]
   202d6:	4c06      	ldr	r4, [pc, #24]	@ (202f0 <_ZN18complex_no_dynamic3app17h0855e79ed723329cE+0xac>)
   202d8:	4620      	mov	r0, r4
   202da:	4629      	mov	r1, r5
   202dc:	4632      	mov	r2, r6
   202de:	4633      	mov	r3, r6
   202e0:	df03      	svc	3
   202e2:	2101      	movs	r1, #1
   202e4:	4620      	mov	r0, r4
   202e6:	4632      	mov	r2, r6
   202e8:	4633      	mov	r3, r6
   202ea:	df04      	svc	4
   202ec:	b015      	add	sp, #84	@ 0x54
   202ee:	bdf0      	pop	{r4, r5, r6, r7, pc}
   202f0:	000015f3 	.word	0x000015f3

000202f4 <_ZN18complex_no_dynamic3app17h08bbc9e5a879e820E>:
   202f4:	b5f0      	push	{r4, r5, r6, r7, lr}
   202f6:	af03      	add	r7, sp, #12
   202f8:	b091      	sub	sp, #68	@ 0x44
   202fa:	4604      	mov	r4, r0
   202fc:	ad01      	add	r5, sp, #4
   202fe:	2614      	movs	r6, #20
   20300:	4628      	mov	r0, r5
   20302:	4632      	mov	r2, r6
   20304:	f006 fe81 	bl	2700a <__aeabi_memcpy>
   20308:	a806      	add	r0, sp, #24
   2030a:	212b      	movs	r1, #43	@ 0x2b
   2030c:	f006 fcd0 	bl	26cb0 <__aeabi_memclr4>
   20310:	4822      	ldr	r0, [pc, #136]	@ (2039c <_ZN18complex_no_dynamic3app17h08bbc9e5a879e820E+0xa8>)
   20312:	2108      	movs	r1, #8
   20314:	462a      	mov	r2, r5
   20316:	4633      	mov	r3, r6
   20318:	df04      	svc	4
   2031a:	2802      	cmp	r0, #2
   2031c:	d00e      	beq.n	2033c <_ZN18complex_no_dynamic3app17h08bbc9e5a879e820E+0x48>
   2031e:	481f      	ldr	r0, [pc, #124]	@ (2039c <_ZN18complex_no_dynamic3app17h08bbc9e5a879e820E+0xa8>)
   20320:	2104      	movs	r1, #4
   20322:	aa06      	add	r2, sp, #24
   20324:	232b      	movs	r3, #43	@ 0x2b
   20326:	df03      	svc	3
   20328:	2802      	cmp	r0, #2
   2032a:	d007      	beq.n	2033c <_ZN18complex_no_dynamic3app17h08bbc9e5a879e820E+0x48>
   2032c:	481b      	ldr	r0, [pc, #108]	@ (2039c <_ZN18complex_no_dynamic3app17h08bbc9e5a879e820E+0xa8>)
   2032e:	2108      	movs	r1, #8
   20330:	2204      	movs	r2, #4
   20332:	2500      	movs	r5, #0
   20334:	462b      	mov	r3, r5
   20336:	df02      	svc	2
   20338:	287f      	cmp	r0, #127	@ 0x7f
   2033a:	d810      	bhi.n	2035e <_ZN18complex_no_dynamic3app17h08bbc9e5a879e820E+0x6a>
   2033c:	2001      	movs	r0, #1
   2033e:	7020      	strb	r0, [r4, #0]
   20340:	6061      	str	r1, [r4, #4]
   20342:	4c16      	ldr	r4, [pc, #88]	@ (2039c <_ZN18complex_no_dynamic3app17h08bbc9e5a879e820E+0xa8>)
   20344:	2104      	movs	r1, #4
   20346:	2500      	movs	r5, #0
   20348:	4620      	mov	r0, r4
   2034a:	462a      	mov	r2, r5
   2034c:	462b      	mov	r3, r5
   2034e:	df03      	svc	3
   20350:	2108      	movs	r1, #8
   20352:	4620      	mov	r0, r4
   20354:	462a      	mov	r2, r5
   20356:	462b      	mov	r3, r5
   20358:	df04      	svc	4
   2035a:	b011      	add	sp, #68	@ 0x44
   2035c:	bdf0      	pop	{r4, r5, r6, r7, pc}
   2035e:	480f      	ldr	r0, [pc, #60]	@ (2039c <_ZN18complex_no_dynamic3app17h08bbc9e5a879e820E+0xa8>)
   20360:	2604      	movs	r6, #4
   20362:	4631      	mov	r1, r6
   20364:	462a      	mov	r2, r5
   20366:	462b      	mov	r3, r5
   20368:	df03      	svc	3
   2036a:	480c      	ldr	r0, [pc, #48]	@ (2039c <_ZN18complex_no_dynamic3app17h08bbc9e5a879e820E+0xa8>)
   2036c:	4631      	mov	r1, r6
   2036e:	462a      	mov	r2, r5
   20370:	462b      	mov	r3, r5
   20372:	df03      	svc	3
   20374:	1c60      	adds	r0, r4, #1
   20376:	a906      	add	r1, sp, #24
   20378:	222b      	movs	r2, #43	@ 0x2b
   2037a:	f006 fe46 	bl	2700a <__aeabi_memcpy>
   2037e:	7025      	strb	r5, [r4, #0]
   20380:	4c06      	ldr	r4, [pc, #24]	@ (2039c <_ZN18complex_no_dynamic3app17h08bbc9e5a879e820E+0xa8>)
   20382:	4620      	mov	r0, r4
   20384:	4631      	mov	r1, r6
   20386:	462a      	mov	r2, r5
   20388:	462b      	mov	r3, r5
   2038a:	df03      	svc	3
   2038c:	2108      	movs	r1, #8
   2038e:	4620      	mov	r0, r4
   20390:	462a      	mov	r2, r5
   20392:	462b      	mov	r3, r5
   20394:	df04      	svc	4
   20396:	b011      	add	sp, #68	@ 0x44
   20398:	bdf0      	pop	{r4, r5, r6, r7, pc}
   2039a:	46c0      	nop			@ (mov r8, r8)
   2039c:	0000239f 	.word	0x0000239f

000203a0 <_ZN18complex_no_dynamic3app17h0995f6a190e29cd9E>:
   203a0:	b5f0      	push	{r4, r5, r6, r7, lr}
   203a2:	af03      	add	r7, sp, #12
   203a4:	b095      	sub	sp, #84	@ 0x54
   203a6:	4604      	mov	r4, r0
   203a8:	466d      	mov	r5, sp
   203aa:	263f      	movs	r6, #63	@ 0x3f
   203ac:	4628      	mov	r0, r5
   203ae:	4632      	mov	r2, r6
   203b0:	f006 fe2b 	bl	2700a <__aeabi_memcpy>
   203b4:	a810      	add	r0, sp, #64	@ 0x40
   203b6:	2100      	movs	r1, #0
   203b8:	7401      	strb	r1, [r0, #16]
   203ba:	9113      	str	r1, [sp, #76]	@ 0x4c
   203bc:	9112      	str	r1, [sp, #72]	@ 0x48
   203be:	9111      	str	r1, [sp, #68]	@ 0x44
   203c0:	9110      	str	r1, [sp, #64]	@ 0x40
   203c2:	4822      	ldr	r0, [pc, #136]	@ (2044c <_ZN18complex_no_dynamic3app17h0995f6a190e29cd9E+0xac>)
   203c4:	2104      	movs	r1, #4
   203c6:	462a      	mov	r2, r5
   203c8:	4633      	mov	r3, r6
   203ca:	df04      	svc	4
   203cc:	2802      	cmp	r0, #2
   203ce:	d00e      	beq.n	203ee <_ZN18complex_no_dynamic3app17h0995f6a190e29cd9E+0x4e>
   203d0:	481e      	ldr	r0, [pc, #120]	@ (2044c <_ZN18complex_no_dynamic3app17h0995f6a190e29cd9E+0xac>)
   203d2:	2103      	movs	r1, #3
   203d4:	aa10      	add	r2, sp, #64	@ 0x40
   203d6:	2311      	movs	r3, #17
   203d8:	df03      	svc	3
   203da:	2802      	cmp	r0, #2
   203dc:	d007      	beq.n	203ee <_ZN18complex_no_dynamic3app17h0995f6a190e29cd9E+0x4e>
   203de:	481b      	ldr	r0, [pc, #108]	@ (2044c <_ZN18complex_no_dynamic3app17h0995f6a190e29cd9E+0xac>)
   203e0:	2104      	movs	r1, #4
   203e2:	2203      	movs	r2, #3
   203e4:	2500      	movs	r5, #0
   203e6:	462b      	mov	r3, r5
   203e8:	df02      	svc	2
   203ea:	287f      	cmp	r0, #127	@ 0x7f
   203ec:	d810      	bhi.n	20410 <_ZN18complex_no_dynamic3app17h0995f6a190e29cd9E+0x70>
   203ee:	2001      	movs	r0, #1
   203f0:	7020      	strb	r0, [r4, #0]
   203f2:	6061      	str	r1, [r4, #4]
   203f4:	4c15      	ldr	r4, [pc, #84]	@ (2044c <_ZN18complex_no_dynamic3app17h0995f6a190e29cd9E+0xac>)
   203f6:	2103      	movs	r1, #3
   203f8:	2500      	movs	r5, #0
   203fa:	4620      	mov	r0, r4
   203fc:	462a      	mov	r2, r5
   203fe:	462b      	mov	r3, r5
   20400:	df03      	svc	3
   20402:	2104      	movs	r1, #4
   20404:	4620      	mov	r0, r4
   20406:	462a      	mov	r2, r5
   20408:	462b      	mov	r3, r5
   2040a:	df04      	svc	4
   2040c:	b015      	add	sp, #84	@ 0x54
   2040e:	bdf0      	pop	{r4, r5, r6, r7, pc}
   20410:	480e      	ldr	r0, [pc, #56]	@ (2044c <_ZN18complex_no_dynamic3app17h0995f6a190e29cd9E+0xac>)
   20412:	2603      	movs	r6, #3
   20414:	4631      	mov	r1, r6
   20416:	462a      	mov	r2, r5
   20418:	462b      	mov	r3, r5
   2041a:	df03      	svc	3
   2041c:	480b      	ldr	r0, [pc, #44]	@ (2044c <_ZN18complex_no_dynamic3app17h0995f6a190e29cd9E+0xac>)
   2041e:	4631      	mov	r1, r6
   20420:	462a      	mov	r2, r5
   20422:	462b      	mov	r3, r5
   20424:	df03      	svc	3
   20426:	1c60      	adds	r0, r4, #1
   20428:	a910      	add	r1, sp, #64	@ 0x40
   2042a:	2211      	movs	r2, #17
   2042c:	f006 fded 	bl	2700a <__aeabi_memcpy>
   20430:	7025      	strb	r5, [r4, #0]
   20432:	4c06      	ldr	r4, [pc, #24]	@ (2044c <_ZN18complex_no_dynamic3app17h0995f6a190e29cd9E+0xac>)
   20434:	4620      	mov	r0, r4
   20436:	4631      	mov	r1, r6
   20438:	462a      	mov	r2, r5
   2043a:	462b      	mov	r3, r5
   2043c:	df03      	svc	3
   2043e:	2104      	movs	r1, #4
   20440:	4620      	mov	r0, r4
   20442:	462a      	mov	r2, r5
   20444:	462b      	mov	r3, r5
   20446:	df04      	svc	4
   20448:	b015      	add	sp, #84	@ 0x54
   2044a:	bdf0      	pop	{r4, r5, r6, r7, pc}
   2044c:	000014d7 	.word	0x000014d7

00020450 <_ZN18complex_no_dynamic3app17h0c3afc726379bdc2E>:
   20450:	b5f0      	push	{r4, r5, r6, r7, lr}
   20452:	af03      	add	r7, sp, #12
   20454:	b093      	sub	sp, #76	@ 0x4c
   20456:	4604      	mov	r4, r0
   20458:	ad01      	add	r5, sp, #4
   2045a:	2623      	movs	r6, #35	@ 0x23
   2045c:	4628      	mov	r0, r5
   2045e:	4632      	mov	r2, r6
   20460:	f006 fdd3 	bl	2700a <__aeabi_memcpy>
   20464:	a80a      	add	r0, sp, #40	@ 0x28
   20466:	2124      	movs	r1, #36	@ 0x24
   20468:	f006 fc22 	bl	26cb0 <__aeabi_memclr4>
   2046c:	4822      	ldr	r0, [pc, #136]	@ (204f8 <_ZN18complex_no_dynamic3app17h0c3afc726379bdc2E+0xa8>)
   2046e:	2104      	movs	r1, #4
   20470:	462a      	mov	r2, r5
   20472:	4633      	mov	r3, r6
   20474:	df04      	svc	4
   20476:	2802      	cmp	r0, #2
   20478:	d00e      	beq.n	20498 <_ZN18complex_no_dynamic3app17h0c3afc726379bdc2E+0x48>
   2047a:	481f      	ldr	r0, [pc, #124]	@ (204f8 <_ZN18complex_no_dynamic3app17h0c3afc726379bdc2E+0xa8>)
   2047c:	2108      	movs	r1, #8
   2047e:	aa0a      	add	r2, sp, #40	@ 0x28
   20480:	2324      	movs	r3, #36	@ 0x24
   20482:	df03      	svc	3
   20484:	2802      	cmp	r0, #2
   20486:	d007      	beq.n	20498 <_ZN18complex_no_dynamic3app17h0c3afc726379bdc2E+0x48>
   20488:	481b      	ldr	r0, [pc, #108]	@ (204f8 <_ZN18complex_no_dynamic3app17h0c3afc726379bdc2E+0xa8>)
   2048a:	2104      	movs	r1, #4
   2048c:	2208      	movs	r2, #8
   2048e:	2500      	movs	r5, #0
   20490:	462b      	mov	r3, r5
   20492:	df02      	svc	2
   20494:	287f      	cmp	r0, #127	@ 0x7f
   20496:	d810      	bhi.n	204ba <_ZN18complex_no_dynamic3app17h0c3afc726379bdc2E+0x6a>
   20498:	2001      	movs	r0, #1
   2049a:	7020      	strb	r0, [r4, #0]
   2049c:	6061      	str	r1, [r4, #4]
   2049e:	4c16      	ldr	r4, [pc, #88]	@ (204f8 <_ZN18complex_no_dynamic3app17h0c3afc726379bdc2E+0xa8>)
   204a0:	2108      	movs	r1, #8
   204a2:	2500      	movs	r5, #0
   204a4:	4620      	mov	r0, r4
   204a6:	462a      	mov	r2, r5
   204a8:	462b      	mov	r3, r5
   204aa:	df03      	svc	3
   204ac:	2104      	movs	r1, #4
   204ae:	4620      	mov	r0, r4
   204b0:	462a      	mov	r2, r5
   204b2:	462b      	mov	r3, r5
   204b4:	df04      	svc	4
   204b6:	b013      	add	sp, #76	@ 0x4c
   204b8:	bdf0      	pop	{r4, r5, r6, r7, pc}
   204ba:	480f      	ldr	r0, [pc, #60]	@ (204f8 <_ZN18complex_no_dynamic3app17h0c3afc726379bdc2E+0xa8>)
   204bc:	2608      	movs	r6, #8
   204be:	4631      	mov	r1, r6
   204c0:	462a      	mov	r2, r5
   204c2:	462b      	mov	r3, r5
   204c4:	df03      	svc	3
   204c6:	480c      	ldr	r0, [pc, #48]	@ (204f8 <_ZN18complex_no_dynamic3app17h0c3afc726379bdc2E+0xa8>)
   204c8:	4631      	mov	r1, r6
   204ca:	462a      	mov	r2, r5
   204cc:	462b      	mov	r3, r5
   204ce:	df03      	svc	3
   204d0:	1c60      	adds	r0, r4, #1
   204d2:	a90a      	add	r1, sp, #40	@ 0x28
   204d4:	2224      	movs	r2, #36	@ 0x24
   204d6:	f006 fd98 	bl	2700a <__aeabi_memcpy>
   204da:	7025      	strb	r5, [r4, #0]
   204dc:	4c06      	ldr	r4, [pc, #24]	@ (204f8 <_ZN18complex_no_dynamic3app17h0c3afc726379bdc2E+0xa8>)
   204de:	4620      	mov	r0, r4
   204e0:	4631      	mov	r1, r6
   204e2:	462a      	mov	r2, r5
   204e4:	462b      	mov	r3, r5
   204e6:	df03      	svc	3
   204e8:	2104      	movs	r1, #4
   204ea:	4620      	mov	r0, r4
   204ec:	462a      	mov	r2, r5
   204ee:	462b      	mov	r3, r5
   204f0:	df04      	svc	4
   204f2:	b013      	add	sp, #76	@ 0x4c
   204f4:	bdf0      	pop	{r4, r5, r6, r7, pc}
   204f6:	46c0      	nop			@ (mov r8, r8)
   204f8:	00001bd6 	.word	0x00001bd6

000204fc <_ZN18complex_no_dynamic3app17h0db094074c436824E>:
   204fc:	b5f0      	push	{r4, r5, r6, r7, lr}
   204fe:	af03      	add	r7, sp, #12
   20500:	b095      	sub	sp, #84	@ 0x54
   20502:	4604      	mov	r4, r0
   20504:	466d      	mov	r5, sp
   20506:	2624      	movs	r6, #36	@ 0x24
   20508:	4628      	mov	r0, r5
   2050a:	4632      	mov	r2, r6
   2050c:	f006 fd7d 	bl	2700a <__aeabi_memcpy>
   20510:	a809      	add	r0, sp, #36	@ 0x24
   20512:	212f      	movs	r1, #47	@ 0x2f
   20514:	f006 fbcc 	bl	26cb0 <__aeabi_memclr4>
   20518:	4822      	ldr	r0, [pc, #136]	@ (205a4 <_ZN18complex_no_dynamic3app17h0db094074c436824E+0xa8>)
   2051a:	2106      	movs	r1, #6
   2051c:	462a      	mov	r2, r5
   2051e:	4633      	mov	r3, r6
   20520:	df04      	svc	4
   20522:	2802      	cmp	r0, #2
   20524:	d00e      	beq.n	20544 <_ZN18complex_no_dynamic3app17h0db094074c436824E+0x48>
   20526:	481f      	ldr	r0, [pc, #124]	@ (205a4 <_ZN18complex_no_dynamic3app17h0db094074c436824E+0xa8>)
   20528:	2109      	movs	r1, #9
   2052a:	aa09      	add	r2, sp, #36	@ 0x24
   2052c:	232f      	movs	r3, #47	@ 0x2f
   2052e:	df03      	svc	3
   20530:	2802      	cmp	r0, #2
   20532:	d007      	beq.n	20544 <_ZN18complex_no_dynamic3app17h0db094074c436824E+0x48>
   20534:	481b      	ldr	r0, [pc, #108]	@ (205a4 <_ZN18complex_no_dynamic3app17h0db094074c436824E+0xa8>)
   20536:	2106      	movs	r1, #6
   20538:	2209      	movs	r2, #9
   2053a:	2500      	movs	r5, #0
   2053c:	462b      	mov	r3, r5
   2053e:	df02      	svc	2
   20540:	287f      	cmp	r0, #127	@ 0x7f
   20542:	d810      	bhi.n	20566 <_ZN18complex_no_dynamic3app17h0db094074c436824E+0x6a>
   20544:	2001      	movs	r0, #1
   20546:	7020      	strb	r0, [r4, #0]
   20548:	6061      	str	r1, [r4, #4]
   2054a:	4c16      	ldr	r4, [pc, #88]	@ (205a4 <_ZN18complex_no_dynamic3app17h0db094074c436824E+0xa8>)
   2054c:	2109      	movs	r1, #9
   2054e:	2500      	movs	r5, #0
   20550:	4620      	mov	r0, r4
   20552:	462a      	mov	r2, r5
   20554:	462b      	mov	r3, r5
   20556:	df03      	svc	3
   20558:	2106      	movs	r1, #6
   2055a:	4620      	mov	r0, r4
   2055c:	462a      	mov	r2, r5
   2055e:	462b      	mov	r3, r5
   20560:	df04      	svc	4
   20562:	b015      	add	sp, #84	@ 0x54
   20564:	bdf0      	pop	{r4, r5, r6, r7, pc}
   20566:	480f      	ldr	r0, [pc, #60]	@ (205a4 <_ZN18complex_no_dynamic3app17h0db094074c436824E+0xa8>)
   20568:	2609      	movs	r6, #9
   2056a:	4631      	mov	r1, r6
   2056c:	462a      	mov	r2, r5
   2056e:	462b      	mov	r3, r5
   20570:	df03      	svc	3
   20572:	480c      	ldr	r0, [pc, #48]	@ (205a4 <_ZN18complex_no_dynamic3app17h0db094074c436824E+0xa8>)
   20574:	4631      	mov	r1, r6
   20576:	462a      	mov	r2, r5
   20578:	462b      	mov	r3, r5
   2057a:	df03      	svc	3
   2057c:	1c60      	adds	r0, r4, #1
   2057e:	a909      	add	r1, sp, #36	@ 0x24
   20580:	222f      	movs	r2, #47	@ 0x2f
   20582:	f006 fd42 	bl	2700a <__aeabi_memcpy>
   20586:	7025      	strb	r5, [r4, #0]
   20588:	4c06      	ldr	r4, [pc, #24]	@ (205a4 <_ZN18complex_no_dynamic3app17h0db094074c436824E+0xa8>)
   2058a:	4620      	mov	r0, r4
   2058c:	4631      	mov	r1, r6
   2058e:	462a      	mov	r2, r5
   20590:	462b      	mov	r3, r5
   20592:	df03      	svc	3
   20594:	2106      	movs	r1, #6
   20596:	4620      	mov	r0, r4
   20598:	462a      	mov	r2, r5
   2059a:	462b      	mov	r3, r5
   2059c:	df04      	svc	4
   2059e:	b015      	add	sp, #84	@ 0x54
   205a0:	bdf0      	pop	{r4, r5, r6, r7, pc}
   205a2:	46c0      	nop			@ (mov r8, r8)
   205a4:	00001273 	.word	0x00001273

000205a8 <_ZN18complex_no_dynamic3app17h1823d3e544b4d1ceE>:
   205a8:	b5f0      	push	{r4, r5, r6, r7, lr}
   205aa:	af03      	add	r7, sp, #12
   205ac:	b097      	sub	sp, #92	@ 0x5c
   205ae:	4604      	mov	r4, r0
   205b0:	ad01      	add	r5, sp, #4
   205b2:	2612      	movs	r6, #18
   205b4:	4628      	mov	r0, r5
   205b6:	4632      	mov	r2, r6
   205b8:	f006 fd27 	bl	2700a <__aeabi_memcpy>
   205bc:	a806      	add	r0, sp, #24
   205be:	2144      	movs	r1, #68	@ 0x44
   205c0:	f006 fb76 	bl	26cb0 <__aeabi_memclr4>
   205c4:	4822      	ldr	r0, [pc, #136]	@ (20650 <_ZN18complex_no_dynamic3app17h1823d3e544b4d1ceE+0xa8>)
   205c6:	2102      	movs	r1, #2
   205c8:	462a      	mov	r2, r5
   205ca:	4633      	mov	r3, r6
   205cc:	df04      	svc	4
   205ce:	2802      	cmp	r0, #2
   205d0:	d00e      	beq.n	205f0 <_ZN18complex_no_dynamic3app17h1823d3e544b4d1ceE+0x48>
   205d2:	481f      	ldr	r0, [pc, #124]	@ (20650 <_ZN18complex_no_dynamic3app17h1823d3e544b4d1ceE+0xa8>)
   205d4:	2109      	movs	r1, #9
   205d6:	aa06      	add	r2, sp, #24
   205d8:	2344      	movs	r3, #68	@ 0x44
   205da:	df03      	svc	3
   205dc:	2802      	cmp	r0, #2
   205de:	d007      	beq.n	205f0 <_ZN18complex_no_dynamic3app17h1823d3e544b4d1ceE+0x48>
   205e0:	481b      	ldr	r0, [pc, #108]	@ (20650 <_ZN18complex_no_dynamic3app17h1823d3e544b4d1ceE+0xa8>)
   205e2:	2102      	movs	r1, #2
   205e4:	2209      	movs	r2, #9
   205e6:	2500      	movs	r5, #0
   205e8:	462b      	mov	r3, r5
   205ea:	df02      	svc	2
   205ec:	287f      	cmp	r0, #127	@ 0x7f
   205ee:	d810      	bhi.n	20612 <_ZN18complex_no_dynamic3app17h1823d3e544b4d1ceE+0x6a>
   205f0:	2001      	movs	r0, #1
   205f2:	7020      	strb	r0, [r4, #0]
   205f4:	6061      	str	r1, [r4, #4]
   205f6:	4c16      	ldr	r4, [pc, #88]	@ (20650 <_ZN18complex_no_dynamic3app17h1823d3e544b4d1ceE+0xa8>)
   205f8:	2109      	movs	r1, #9
   205fa:	2500      	movs	r5, #0
   205fc:	4620      	mov	r0, r4
   205fe:	462a      	mov	r2, r5
   20600:	462b      	mov	r3, r5
   20602:	df03      	svc	3
   20604:	2102      	movs	r1, #2
   20606:	4620      	mov	r0, r4
   20608:	462a      	mov	r2, r5
   2060a:	462b      	mov	r3, r5
   2060c:	df04      	svc	4
   2060e:	b017      	add	sp, #92	@ 0x5c
   20610:	bdf0      	pop	{r4, r5, r6, r7, pc}
   20612:	480f      	ldr	r0, [pc, #60]	@ (20650 <_ZN18complex_no_dynamic3app17h1823d3e544b4d1ceE+0xa8>)
   20614:	2609      	movs	r6, #9
   20616:	4631      	mov	r1, r6
   20618:	462a      	mov	r2, r5
   2061a:	462b      	mov	r3, r5
   2061c:	df03      	svc	3
   2061e:	480c      	ldr	r0, [pc, #48]	@ (20650 <_ZN18complex_no_dynamic3app17h1823d3e544b4d1ceE+0xa8>)
   20620:	4631      	mov	r1, r6
   20622:	462a      	mov	r2, r5
   20624:	462b      	mov	r3, r5
   20626:	df03      	svc	3
   20628:	1c60      	adds	r0, r4, #1
   2062a:	a906      	add	r1, sp, #24
   2062c:	2244      	movs	r2, #68	@ 0x44
   2062e:	f006 fcec 	bl	2700a <__aeabi_memcpy>
   20632:	7025      	strb	r5, [r4, #0]
   20634:	4c06      	ldr	r4, [pc, #24]	@ (20650 <_ZN18complex_no_dynamic3app17h1823d3e544b4d1ceE+0xa8>)
   20636:	4620      	mov	r0, r4
   20638:	4631      	mov	r1, r6
   2063a:	462a      	mov	r2, r5
   2063c:	462b      	mov	r3, r5
   2063e:	df03      	svc	3
   20640:	2102      	movs	r1, #2
   20642:	4620      	mov	r0, r4
   20644:	462a      	mov	r2, r5
   20646:	462b      	mov	r3, r5
   20648:	df04      	svc	4
   2064a:	b017      	add	sp, #92	@ 0x5c
   2064c:	bdf0      	pop	{r4, r5, r6, r7, pc}
   2064e:	46c0      	nop			@ (mov r8, r8)
   20650:	00002432 	.word	0x00002432

00020654 <_ZN18complex_no_dynamic3app17h19fa116b13479cc3E>:
   20654:	b5f0      	push	{r4, r5, r6, r7, lr}
   20656:	af03      	add	r7, sp, #12
   20658:	b097      	sub	sp, #92	@ 0x5c
   2065a:	4604      	mov	r4, r0
   2065c:	466d      	mov	r5, sp
   2065e:	263f      	movs	r6, #63	@ 0x3f
   20660:	4628      	mov	r0, r5
   20662:	4632      	mov	r2, r6
   20664:	f006 fcd1 	bl	2700a <__aeabi_memcpy>
   20668:	2000      	movs	r0, #0
   2066a:	9016      	str	r0, [sp, #88]	@ 0x58
   2066c:	9015      	str	r0, [sp, #84]	@ 0x54
   2066e:	9014      	str	r0, [sp, #80]	@ 0x50
   20670:	9013      	str	r0, [sp, #76]	@ 0x4c
   20672:	9012      	str	r0, [sp, #72]	@ 0x48
   20674:	9011      	str	r0, [sp, #68]	@ 0x44
   20676:	9010      	str	r0, [sp, #64]	@ 0x40
   20678:	4822      	ldr	r0, [pc, #136]	@ (20704 <_ZN18complex_no_dynamic3app17h19fa116b13479cc3E+0xb0>)
   2067a:	2105      	movs	r1, #5
   2067c:	462a      	mov	r2, r5
   2067e:	4633      	mov	r3, r6
   20680:	df04      	svc	4
   20682:	2802      	cmp	r0, #2
   20684:	d00e      	beq.n	206a4 <_ZN18complex_no_dynamic3app17h19fa116b13479cc3E+0x50>
   20686:	481f      	ldr	r0, [pc, #124]	@ (20704 <_ZN18complex_no_dynamic3app17h19fa116b13479cc3E+0xb0>)
   20688:	2109      	movs	r1, #9
   2068a:	aa10      	add	r2, sp, #64	@ 0x40
   2068c:	231c      	movs	r3, #28
   2068e:	df03      	svc	3
   20690:	2802      	cmp	r0, #2
   20692:	d007      	beq.n	206a4 <_ZN18complex_no_dynamic3app17h19fa116b13479cc3E+0x50>
   20694:	481b      	ldr	r0, [pc, #108]	@ (20704 <_ZN18complex_no_dynamic3app17h19fa116b13479cc3E+0xb0>)
   20696:	2105      	movs	r1, #5
   20698:	2209      	movs	r2, #9
   2069a:	2500      	movs	r5, #0
   2069c:	462b      	mov	r3, r5
   2069e:	df02      	svc	2
   206a0:	287f      	cmp	r0, #127	@ 0x7f
   206a2:	d810      	bhi.n	206c6 <_ZN18complex_no_dynamic3app17h19fa116b13479cc3E+0x72>
   206a4:	2001      	movs	r0, #1
   206a6:	7020      	strb	r0, [r4, #0]
   206a8:	6061      	str	r1, [r4, #4]
   206aa:	4c16      	ldr	r4, [pc, #88]	@ (20704 <_ZN18complex_no_dynamic3app17h19fa116b13479cc3E+0xb0>)
   206ac:	2109      	movs	r1, #9
   206ae:	2500      	movs	r5, #0
   206b0:	4620      	mov	r0, r4
   206b2:	462a      	mov	r2, r5
   206b4:	462b      	mov	r3, r5
   206b6:	df03      	svc	3
   206b8:	2105      	movs	r1, #5
   206ba:	4620      	mov	r0, r4
   206bc:	462a      	mov	r2, r5
   206be:	462b      	mov	r3, r5
   206c0:	df04      	svc	4
   206c2:	b017      	add	sp, #92	@ 0x5c
   206c4:	bdf0      	pop	{r4, r5, r6, r7, pc}
   206c6:	480f      	ldr	r0, [pc, #60]	@ (20704 <_ZN18complex_no_dynamic3app17h19fa116b13479cc3E+0xb0>)
   206c8:	2609      	movs	r6, #9
   206ca:	4631      	mov	r1, r6
   206cc:	462a      	mov	r2, r5
   206ce:	462b      	mov	r3, r5
   206d0:	df03      	svc	3
   206d2:	480c      	ldr	r0, [pc, #48]	@ (20704 <_ZN18complex_no_dynamic3app17h19fa116b13479cc3E+0xb0>)
   206d4:	4631      	mov	r1, r6
   206d6:	462a      	mov	r2, r5
   206d8:	462b      	mov	r3, r5
   206da:	df03      	svc	3
   206dc:	1c60      	adds	r0, r4, #1
   206de:	a910      	add	r1, sp, #64	@ 0x40
   206e0:	221c      	movs	r2, #28
   206e2:	f006 fc92 	bl	2700a <__aeabi_memcpy>
   206e6:	7025      	strb	r5, [r4, #0]
   206e8:	4c06      	ldr	r4, [pc, #24]	@ (20704 <_ZN18complex_no_dynamic3app17h19fa116b13479cc3E+0xb0>)
   206ea:	4620      	mov	r0, r4
   206ec:	4631      	mov	r1, r6
   206ee:	462a      	mov	r2, r5
   206f0:	462b      	mov	r3, r5
   206f2:	df03      	svc	3
   206f4:	2105      	movs	r1, #5
   206f6:	4620      	mov	r0, r4
   206f8:	462a      	mov	r2, r5
   206fa:	462b      	mov	r3, r5
   206fc:	df04      	svc	4
   206fe:	b017      	add	sp, #92	@ 0x5c
   20700:	bdf0      	pop	{r4, r5, r6, r7, pc}
   20702:	46c0      	nop			@ (mov r8, r8)
   20704:	00001694 	.word	0x00001694

00020708 <_ZN18complex_no_dynamic3app17h1fd08e61e6dd076cE>:
   20708:	b5f0      	push	{r4, r5, r6, r7, lr}
   2070a:	af03      	add	r7, sp, #12
   2070c:	b09f      	sub	sp, #124	@ 0x7c
   2070e:	4604      	mov	r4, r0
   20710:	ad01      	add	r5, sp, #4
   20712:	2635      	movs	r6, #53	@ 0x35
   20714:	4628      	mov	r0, r5
   20716:	4632      	mov	r2, r6
   20718:	f006 fc77 	bl	2700a <__aeabi_memcpy>
   2071c:	a80f      	add	r0, sp, #60	@ 0x3c
   2071e:	213f      	movs	r1, #63	@ 0x3f
   20720:	f006 fac6 	bl	26cb0 <__aeabi_memclr4>
   20724:	4822      	ldr	r0, [pc, #136]	@ (207b0 <_ZN18complex_no_dynamic3app17h1fd08e61e6dd076cE+0xa8>)
   20726:	2100      	movs	r1, #0
   20728:	462a      	mov	r2, r5
   2072a:	4633      	mov	r3, r6
   2072c:	df04      	svc	4
   2072e:	2802      	cmp	r0, #2
   20730:	d00e      	beq.n	20750 <_ZN18complex_no_dynamic3app17h1fd08e61e6dd076cE+0x48>
   20732:	481f      	ldr	r0, [pc, #124]	@ (207b0 <_ZN18complex_no_dynamic3app17h1fd08e61e6dd076cE+0xa8>)
   20734:	2103      	movs	r1, #3
   20736:	aa0f      	add	r2, sp, #60	@ 0x3c
   20738:	233f      	movs	r3, #63	@ 0x3f
   2073a:	df03      	svc	3
   2073c:	2802      	cmp	r0, #2
   2073e:	d007      	beq.n	20750 <_ZN18complex_no_dynamic3app17h1fd08e61e6dd076cE+0x48>
   20740:	481b      	ldr	r0, [pc, #108]	@ (207b0 <_ZN18complex_no_dynamic3app17h1fd08e61e6dd076cE+0xa8>)
   20742:	2203      	movs	r2, #3
   20744:	2500      	movs	r5, #0
   20746:	4629      	mov	r1, r5
   20748:	462b      	mov	r3, r5
   2074a:	df02      	svc	2
   2074c:	287f      	cmp	r0, #127	@ 0x7f
   2074e:	d810      	bhi.n	20772 <_ZN18complex_no_dynamic3app17h1fd08e61e6dd076cE+0x6a>
   20750:	2001      	movs	r0, #1
   20752:	7020      	strb	r0, [r4, #0]
   20754:	6061      	str	r1, [r4, #4]
   20756:	4c16      	ldr	r4, [pc, #88]	@ (207b0 <_ZN18complex_no_dynamic3app17h1fd08e61e6dd076cE+0xa8>)
   20758:	2103      	movs	r1, #3
   2075a:	2500      	movs	r5, #0
   2075c:	4620      	mov	r0, r4
   2075e:	462a      	mov	r2, r5
   20760:	462b      	mov	r3, r5
   20762:	df03      	svc	3
   20764:	4620      	mov	r0, r4
   20766:	4629      	mov	r1, r5
   20768:	462a      	mov	r2, r5
   2076a:	462b      	mov	r3, r5
   2076c:	df04      	svc	4
   2076e:	b01f      	add	sp, #124	@ 0x7c
   20770:	bdf0      	pop	{r4, r5, r6, r7, pc}
   20772:	480f      	ldr	r0, [pc, #60]	@ (207b0 <_ZN18complex_no_dynamic3app17h1fd08e61e6dd076cE+0xa8>)
   20774:	2603      	movs	r6, #3
   20776:	4631      	mov	r1, r6
   20778:	462a      	mov	r2, r5
   2077a:	462b      	mov	r3, r5
   2077c:	df03      	svc	3
   2077e:	480c      	ldr	r0, [pc, #48]	@ (207b0 <_ZN18complex_no_dynamic3app17h1fd08e61e6dd076cE+0xa8>)
   20780:	4631      	mov	r1, r6
   20782:	462a      	mov	r2, r5
   20784:	462b      	mov	r3, r5
   20786:	df03      	svc	3
   20788:	1c60      	adds	r0, r4, #1
   2078a:	a90f      	add	r1, sp, #60	@ 0x3c
   2078c:	223f      	movs	r2, #63	@ 0x3f
   2078e:	f006 fc3c 	bl	2700a <__aeabi_memcpy>
   20792:	7025      	strb	r5, [r4, #0]
   20794:	4c06      	ldr	r4, [pc, #24]	@ (207b0 <_ZN18complex_no_dynamic3app17h1fd08e61e6dd076cE+0xa8>)
   20796:	4620      	mov	r0, r4
   20798:	4631      	mov	r1, r6
   2079a:	462a      	mov	r2, r5
   2079c:	462b      	mov	r3, r5
   2079e:	df03      	svc	3
   207a0:	4620      	mov	r0, r4
   207a2:	4629      	mov	r1, r5
   207a4:	462a      	mov	r2, r5
   207a6:	462b      	mov	r3, r5
   207a8:	df04      	svc	4
   207aa:	b01f      	add	sp, #124	@ 0x7c
   207ac:	bdf0      	pop	{r4, r5, r6, r7, pc}
   207ae:	46c0      	nop			@ (mov r8, r8)
   207b0:	00000e57 	.word	0x00000e57

000207b4 <_ZN18complex_no_dynamic3app17h20e141e4d308ec85E>:
   207b4:	b5f0      	push	{r4, r5, r6, r7, lr}
   207b6:	af03      	add	r7, sp, #12
   207b8:	b0a3      	sub	sp, #140	@ 0x8c
   207ba:	9000      	str	r0, [sp, #0]
   207bc:	ae01      	add	r6, sp, #4
   207be:	242a      	movs	r4, #42	@ 0x2a
   207c0:	4630      	mov	r0, r6
   207c2:	4622      	mov	r2, r4
   207c4:	f006 fc21 	bl	2700a <__aeabi_memcpy>
   207c8:	a80c      	add	r0, sp, #48	@ 0x30
   207ca:	2159      	movs	r1, #89	@ 0x59
   207cc:	f006 fa70 	bl	26cb0 <__aeabi_memclr4>
   207d0:	4823      	ldr	r0, [pc, #140]	@ (20860 <_ZN18complex_no_dynamic3app17h20e141e4d308ec85E+0xac>)
   207d2:	2501      	movs	r5, #1
   207d4:	4629      	mov	r1, r5
   207d6:	4632      	mov	r2, r6
   207d8:	4623      	mov	r3, r4
   207da:	df04      	svc	4
   207dc:	2802      	cmp	r0, #2
   207de:	d00e      	beq.n	207fe <_ZN18complex_no_dynamic3app17h20e141e4d308ec85E+0x4a>
   207e0:	481f      	ldr	r0, [pc, #124]	@ (20860 <_ZN18complex_no_dynamic3app17h20e141e4d308ec85E+0xac>)
   207e2:	2103      	movs	r1, #3
   207e4:	aa0c      	add	r2, sp, #48	@ 0x30
   207e6:	2359      	movs	r3, #89	@ 0x59
   207e8:	df03      	svc	3
   207ea:	2802      	cmp	r0, #2
   207ec:	d007      	beq.n	207fe <_ZN18complex_no_dynamic3app17h20e141e4d308ec85E+0x4a>
   207ee:	481c      	ldr	r0, [pc, #112]	@ (20860 <_ZN18complex_no_dynamic3app17h20e141e4d308ec85E+0xac>)
   207f0:	2101      	movs	r1, #1
   207f2:	2203      	movs	r2, #3
   207f4:	2600      	movs	r6, #0
   207f6:	4633      	mov	r3, r6
   207f8:	df02      	svc	2
   207fa:	287f      	cmp	r0, #127	@ 0x7f
   207fc:	d810      	bhi.n	20820 <_ZN18complex_no_dynamic3app17h20e141e4d308ec85E+0x6c>
   207fe:	9800      	ldr	r0, [sp, #0]
   20800:	7005      	strb	r5, [r0, #0]
   20802:	6041      	str	r1, [r0, #4]
   20804:	4c16      	ldr	r4, [pc, #88]	@ (20860 <_ZN18complex_no_dynamic3app17h20e141e4d308ec85E+0xac>)
   20806:	2103      	movs	r1, #3
   20808:	2600      	movs	r6, #0
   2080a:	4620      	mov	r0, r4
   2080c:	4632      	mov	r2, r6
   2080e:	4633      	mov	r3, r6
   20810:	df03      	svc	3
   20812:	4620      	mov	r0, r4
   20814:	4629      	mov	r1, r5
   20816:	4632      	mov	r2, r6
   20818:	4633      	mov	r3, r6
   2081a:	df04      	svc	4
   2081c:	b023      	add	sp, #140	@ 0x8c
   2081e:	bdf0      	pop	{r4, r5, r6, r7, pc}
   20820:	4c0f      	ldr	r4, [pc, #60]	@ (20860 <_ZN18complex_no_dynamic3app17h20e141e4d308ec85E+0xac>)
   20822:	2503      	movs	r5, #3
   20824:	4620      	mov	r0, r4
   20826:	4629      	mov	r1, r5
   20828:	4632      	mov	r2, r6
   2082a:	4633      	mov	r3, r6
   2082c:	df03      	svc	3
   2082e:	4620      	mov	r0, r4
   20830:	4629      	mov	r1, r5
   20832:	4632      	mov	r2, r6
   20834:	4633      	mov	r3, r6
   20836:	df03      	svc	3
   20838:	9c00      	ldr	r4, [sp, #0]
   2083a:	1c60      	adds	r0, r4, #1
   2083c:	a90c      	add	r1, sp, #48	@ 0x30
   2083e:	2259      	movs	r2, #89	@ 0x59
   20840:	f006 fbe3 	bl	2700a <__aeabi_memcpy>
   20844:	7026      	strb	r6, [r4, #0]
   20846:	4c06      	ldr	r4, [pc, #24]	@ (20860 <_ZN18complex_no_dynamic3app17h20e141e4d308ec85E+0xac>)
   20848:	4620      	mov	r0, r4
   2084a:	4629      	mov	r1, r5
   2084c:	4632      	mov	r2, r6
   2084e:	4633      	mov	r3, r6
   20850:	df03      	svc	3
   20852:	2101      	movs	r1, #1
   20854:	4620      	mov	r0, r4
   20856:	4632      	mov	r2, r6
   20858:	4633      	mov	r3, r6
   2085a:	df04      	svc	4
   2085c:	b023      	add	sp, #140	@ 0x8c
   2085e:	bdf0      	pop	{r4, r5, r6, r7, pc}
   20860:	00000ed2 	.word	0x00000ed2

00020864 <_ZN18complex_no_dynamic3app17h27a0688eaaa0c1a5E>:
   20864:	b5f0      	push	{r4, r5, r6, r7, lr}
   20866:	af03      	add	r7, sp, #12
   20868:	b097      	sub	sp, #92	@ 0x5c
   2086a:	4604      	mov	r4, r0
   2086c:	ad01      	add	r5, sp, #4
   2086e:	2648      	movs	r6, #72	@ 0x48
   20870:	4628      	mov	r0, r5
   20872:	4632      	mov	r2, r6
   20874:	f006 fbc9 	bl	2700a <__aeabi_memcpy>
   20878:	a813      	add	r0, sp, #76	@ 0x4c
   2087a:	2100      	movs	r1, #0
   2087c:	7381      	strb	r1, [r0, #14]
   2087e:	8181      	strh	r1, [r0, #12]
   20880:	9115      	str	r1, [sp, #84]	@ 0x54
   20882:	9114      	str	r1, [sp, #80]	@ 0x50
   20884:	9113      	str	r1, [sp, #76]	@ 0x4c
   20886:	4822      	ldr	r0, [pc, #136]	@ (20910 <_ZN18complex_no_dynamic3app17h27a0688eaaa0c1a5E+0xac>)
   20888:	2108      	movs	r1, #8
   2088a:	462a      	mov	r2, r5
   2088c:	4633      	mov	r3, r6
   2088e:	df04      	svc	4
   20890:	2802      	cmp	r0, #2
   20892:	d00e      	beq.n	208b2 <_ZN18complex_no_dynamic3app17h27a0688eaaa0c1a5E+0x4e>
   20894:	481e      	ldr	r0, [pc, #120]	@ (20910 <_ZN18complex_no_dynamic3app17h27a0688eaaa0c1a5E+0xac>)
   20896:	2109      	movs	r1, #9
   20898:	aa13      	add	r2, sp, #76	@ 0x4c
   2089a:	230f      	movs	r3, #15
   2089c:	df03      	svc	3
   2089e:	2802      	cmp	r0, #2
   208a0:	d007      	beq.n	208b2 <_ZN18complex_no_dynamic3app17h27a0688eaaa0c1a5E+0x4e>
   208a2:	481b      	ldr	r0, [pc, #108]	@ (20910 <_ZN18complex_no_dynamic3app17h27a0688eaaa0c1a5E+0xac>)
   208a4:	2108      	movs	r1, #8
   208a6:	2209      	movs	r2, #9
   208a8:	2500      	movs	r5, #0
   208aa:	462b      	mov	r3, r5
   208ac:	df02      	svc	2
   208ae:	287f      	cmp	r0, #127	@ 0x7f
   208b0:	d810      	bhi.n	208d4 <_ZN18complex_no_dynamic3app17h27a0688eaaa0c1a5E+0x70>
   208b2:	2001      	movs	r0, #1
   208b4:	7020      	strb	r0, [r4, #0]
   208b6:	6061      	str	r1, [r4, #4]
   208b8:	4c15      	ldr	r4, [pc, #84]	@ (20910 <_ZN18complex_no_dynamic3app17h27a0688eaaa0c1a5E+0xac>)
   208ba:	2109      	movs	r1, #9
   208bc:	2500      	movs	r5, #0
   208be:	4620      	mov	r0, r4
   208c0:	462a      	mov	r2, r5
   208c2:	462b      	mov	r3, r5
   208c4:	df03      	svc	3
   208c6:	2108      	movs	r1, #8
   208c8:	4620      	mov	r0, r4
   208ca:	462a      	mov	r2, r5
   208cc:	462b      	mov	r3, r5
   208ce:	df04      	svc	4
   208d0:	b017      	add	sp, #92	@ 0x5c
   208d2:	bdf0      	pop	{r4, r5, r6, r7, pc}
   208d4:	480e      	ldr	r0, [pc, #56]	@ (20910 <_ZN18complex_no_dynamic3app17h27a0688eaaa0c1a5E+0xac>)
   208d6:	2609      	movs	r6, #9
   208d8:	4631      	mov	r1, r6
   208da:	462a      	mov	r2, r5
   208dc:	462b      	mov	r3, r5
   208de:	df03      	svc	3
   208e0:	480b      	ldr	r0, [pc, #44]	@ (20910 <_ZN18complex_no_dynamic3app17h27a0688eaaa0c1a5E+0xac>)
   208e2:	4631      	mov	r1, r6
   208e4:	462a      	mov	r2, r5
   208e6:	462b      	mov	r3, r5
   208e8:	df03      	svc	3
   208ea:	1c60      	adds	r0, r4, #1
   208ec:	a913      	add	r1, sp, #76	@ 0x4c
   208ee:	220f      	movs	r2, #15
   208f0:	f006 fb8b 	bl	2700a <__aeabi_memcpy>
   208f4:	7025      	strb	r5, [r4, #0]
   208f6:	4c06      	ldr	r4, [pc, #24]	@ (20910 <_ZN18complex_no_dynamic3app17h27a0688eaaa0c1a5E+0xac>)
   208f8:	4620      	mov	r0, r4
   208fa:	4631      	mov	r1, r6
   208fc:	462a      	mov	r2, r5
   208fe:	462b      	mov	r3, r5
   20900:	df03      	svc	3
   20902:	2108      	movs	r1, #8
   20904:	4620      	mov	r0, r4
   20906:	462a      	mov	r2, r5
   20908:	462b      	mov	r3, r5
   2090a:	df04      	svc	4
   2090c:	b017      	add	sp, #92	@ 0x5c
   2090e:	bdf0      	pop	{r4, r5, r6, r7, pc}
   20910:	0000111d 	.word	0x0000111d

00020914 <_ZN18complex_no_dynamic3app17h2dc4248f04547cb2E>:
   20914:	b5f0      	push	{r4, r5, r6, r7, lr}
   20916:	af03      	add	r7, sp, #12
   20918:	b09b      	sub	sp, #108	@ 0x6c
   2091a:	4604      	mov	r4, r0
   2091c:	ad01      	add	r5, sp, #4
   2091e:	263c      	movs	r6, #60	@ 0x3c
   20920:	4628      	mov	r0, r5
   20922:	4632      	mov	r2, r6
   20924:	f006 fb71 	bl	2700a <__aeabi_memcpy>
   20928:	a810      	add	r0, sp, #64	@ 0x40
   2092a:	212c      	movs	r1, #44	@ 0x2c
   2092c:	f006 f9c0 	bl	26cb0 <__aeabi_memclr4>
   20930:	4822      	ldr	r0, [pc, #136]	@ (209bc <_ZN18complex_no_dynamic3app17h2dc4248f04547cb2E+0xa8>)
   20932:	2105      	movs	r1, #5
   20934:	462a      	mov	r2, r5
   20936:	4633      	mov	r3, r6
   20938:	df04      	svc	4
   2093a:	2802      	cmp	r0, #2
   2093c:	d00e      	beq.n	2095c <_ZN18complex_no_dynamic3app17h2dc4248f04547cb2E+0x48>
   2093e:	481f      	ldr	r0, [pc, #124]	@ (209bc <_ZN18complex_no_dynamic3app17h2dc4248f04547cb2E+0xa8>)
   20940:	2107      	movs	r1, #7
   20942:	aa10      	add	r2, sp, #64	@ 0x40
   20944:	232c      	movs	r3, #44	@ 0x2c
   20946:	df03      	svc	3
   20948:	2802      	cmp	r0, #2
   2094a:	d007      	beq.n	2095c <_ZN18complex_no_dynamic3app17h2dc4248f04547cb2E+0x48>
   2094c:	481b      	ldr	r0, [pc, #108]	@ (209bc <_ZN18complex_no_dynamic3app17h2dc4248f04547cb2E+0xa8>)
   2094e:	2105      	movs	r1, #5
   20950:	2207      	movs	r2, #7
   20952:	2500      	movs	r5, #0
   20954:	462b      	mov	r3, r5
   20956:	df02      	svc	2
   20958:	287f      	cmp	r0, #127	@ 0x7f
   2095a:	d810      	bhi.n	2097e <_ZN18complex_no_dynamic3app17h2dc4248f04547cb2E+0x6a>
   2095c:	2001      	movs	r0, #1
   2095e:	7020      	strb	r0, [r4, #0]
   20960:	6061      	str	r1, [r4, #4]
   20962:	4c16      	ldr	r4, [pc, #88]	@ (209bc <_ZN18complex_no_dynamic3app17h2dc4248f04547cb2E+0xa8>)
   20964:	2107      	movs	r1, #7
   20966:	2500      	movs	r5, #0
   20968:	4620      	mov	r0, r4
   2096a:	462a      	mov	r2, r5
   2096c:	462b      	mov	r3, r5
   2096e:	df03      	svc	3
   20970:	2105      	movs	r1, #5
   20972:	4620      	mov	r0, r4
   20974:	462a      	mov	r2, r5
   20976:	462b      	mov	r3, r5
   20978:	df04      	svc	4
   2097a:	b01b      	add	sp, #108	@ 0x6c
   2097c:	bdf0      	pop	{r4, r5, r6, r7, pc}
   2097e:	480f      	ldr	r0, [pc, #60]	@ (209bc <_ZN18complex_no_dynamic3app17h2dc4248f04547cb2E+0xa8>)
   20980:	2607      	movs	r6, #7
   20982:	4631      	mov	r1, r6
   20984:	462a      	mov	r2, r5
   20986:	462b      	mov	r3, r5
   20988:	df03      	svc	3
   2098a:	480c      	ldr	r0, [pc, #48]	@ (209bc <_ZN18complex_no_dynamic3app17h2dc4248f04547cb2E+0xa8>)
   2098c:	4631      	mov	r1, r6
   2098e:	462a      	mov	r2, r5
   20990:	462b      	mov	r3, r5
   20992:	df03      	svc	3
   20994:	1c60      	adds	r0, r4, #1
   20996:	a910      	add	r1, sp, #64	@ 0x40
   20998:	222c      	movs	r2, #44	@ 0x2c
   2099a:	f006 fb36 	bl	2700a <__aeabi_memcpy>
   2099e:	7025      	strb	r5, [r4, #0]
   209a0:	4c06      	ldr	r4, [pc, #24]	@ (209bc <_ZN18complex_no_dynamic3app17h2dc4248f04547cb2E+0xa8>)
   209a2:	4620      	mov	r0, r4
   209a4:	4631      	mov	r1, r6
   209a6:	462a      	mov	r2, r5
   209a8:	462b      	mov	r3, r5
   209aa:	df03      	svc	3
   209ac:	2105      	movs	r1, #5
   209ae:	4620      	mov	r0, r4
   209b0:	462a      	mov	r2, r5
   209b2:	462b      	mov	r3, r5
   209b4:	df04      	svc	4
   209b6:	b01b      	add	sp, #108	@ 0x6c
   209b8:	bdf0      	pop	{r4, r5, r6, r7, pc}
   209ba:	46c0      	nop			@ (mov r8, r8)
   209bc:	00001eac 	.word	0x00001eac

000209c0 <_ZN18complex_no_dynamic3app17h2edf87f93ca9f866E>:
   209c0:	b5f0      	push	{r4, r5, r6, r7, lr}
   209c2:	af03      	add	r7, sp, #12
   209c4:	b09d      	sub	sp, #116	@ 0x74
   209c6:	4604      	mov	r4, r0
   209c8:	466d      	mov	r5, sp
   209ca:	265d      	movs	r6, #93	@ 0x5d
   209cc:	4628      	mov	r0, r5
   209ce:	4632      	mov	r2, r6
   209d0:	f006 fb1b 	bl	2700a <__aeabi_memcpy>
   209d4:	a818      	add	r0, sp, #96	@ 0x60
   209d6:	2100      	movs	r1, #0
   209d8:	8201      	strh	r1, [r0, #16]
   209da:	911b      	str	r1, [sp, #108]	@ 0x6c
   209dc:	911a      	str	r1, [sp, #104]	@ 0x68
   209de:	9119      	str	r1, [sp, #100]	@ 0x64
   209e0:	9118      	str	r1, [sp, #96]	@ 0x60
   209e2:	4822      	ldr	r0, [pc, #136]	@ (20a6c <_ZN18complex_no_dynamic3app17h2edf87f93ca9f866E+0xac>)
   209e4:	462a      	mov	r2, r5
   209e6:	4633      	mov	r3, r6
   209e8:	df04      	svc	4
   209ea:	2802      	cmp	r0, #2
   209ec:	d00e      	beq.n	20a0c <_ZN18complex_no_dynamic3app17h2edf87f93ca9f866E+0x4c>
   209ee:	481f      	ldr	r0, [pc, #124]	@ (20a6c <_ZN18complex_no_dynamic3app17h2edf87f93ca9f866E+0xac>)
   209f0:	2102      	movs	r1, #2
   209f2:	aa18      	add	r2, sp, #96	@ 0x60
   209f4:	2312      	movs	r3, #18
   209f6:	df03      	svc	3
   209f8:	2802      	cmp	r0, #2
   209fa:	d007      	beq.n	20a0c <_ZN18complex_no_dynamic3app17h2edf87f93ca9f866E+0x4c>
   209fc:	481b      	ldr	r0, [pc, #108]	@ (20a6c <_ZN18complex_no_dynamic3app17h2edf87f93ca9f866E+0xac>)
   209fe:	2202      	movs	r2, #2
   20a00:	2500      	movs	r5, #0
   20a02:	4629      	mov	r1, r5
   20a04:	462b      	mov	r3, r5
   20a06:	df02      	svc	2
   20a08:	287f      	cmp	r0, #127	@ 0x7f
   20a0a:	d810      	bhi.n	20a2e <_ZN18complex_no_dynamic3app17h2edf87f93ca9f866E+0x6e>
   20a0c:	2001      	movs	r0, #1
   20a0e:	7020      	strb	r0, [r4, #0]
   20a10:	6061      	str	r1, [r4, #4]
   20a12:	4c16      	ldr	r4, [pc, #88]	@ (20a6c <_ZN18complex_no_dynamic3app17h2edf87f93ca9f866E+0xac>)
   20a14:	2102      	movs	r1, #2
   20a16:	2500      	movs	r5, #0
   20a18:	4620      	mov	r0, r4
   20a1a:	462a      	mov	r2, r5
   20a1c:	462b      	mov	r3, r5
   20a1e:	df03      	svc	3
   20a20:	4620      	mov	r0, r4
   20a22:	4629      	mov	r1, r5
   20a24:	462a      	mov	r2, r5
   20a26:	462b      	mov	r3, r5
   20a28:	df04      	svc	4
   20a2a:	b01d      	add	sp, #116	@ 0x74
   20a2c:	bdf0      	pop	{r4, r5, r6, r7, pc}
   20a2e:	480f      	ldr	r0, [pc, #60]	@ (20a6c <_ZN18complex_no_dynamic3app17h2edf87f93ca9f866E+0xac>)
   20a30:	2602      	movs	r6, #2
   20a32:	4631      	mov	r1, r6
   20a34:	462a      	mov	r2, r5
   20a36:	462b      	mov	r3, r5
   20a38:	df03      	svc	3
   20a3a:	480c      	ldr	r0, [pc, #48]	@ (20a6c <_ZN18complex_no_dynamic3app17h2edf87f93ca9f866E+0xac>)
   20a3c:	4631      	mov	r1, r6
   20a3e:	462a      	mov	r2, r5
   20a40:	462b      	mov	r3, r5
   20a42:	df03      	svc	3
   20a44:	1c60      	adds	r0, r4, #1
   20a46:	a918      	add	r1, sp, #96	@ 0x60
   20a48:	2212      	movs	r2, #18
   20a4a:	f006 fade 	bl	2700a <__aeabi_memcpy>
   20a4e:	7025      	strb	r5, [r4, #0]
   20a50:	4c06      	ldr	r4, [pc, #24]	@ (20a6c <_ZN18complex_no_dynamic3app17h2edf87f93ca9f866E+0xac>)
   20a52:	4620      	mov	r0, r4
   20a54:	4631      	mov	r1, r6
   20a56:	462a      	mov	r2, r5
   20a58:	462b      	mov	r3, r5
   20a5a:	df03      	svc	3
   20a5c:	4620      	mov	r0, r4
   20a5e:	4629      	mov	r1, r5
   20a60:	462a      	mov	r2, r5
   20a62:	462b      	mov	r3, r5
   20a64:	df04      	svc	4
   20a66:	b01d      	add	sp, #116	@ 0x74
   20a68:	bdf0      	pop	{r4, r5, r6, r7, pc}
   20a6a:	46c0      	nop			@ (mov r8, r8)
   20a6c:	000015f1 	.word	0x000015f1

00020a70 <_ZN18complex_no_dynamic3app17h3932fb2df8f4c7c7E>:
   20a70:	b5f0      	push	{r4, r5, r6, r7, lr}
   20a72:	af03      	add	r7, sp, #12
   20a74:	b09f      	sub	sp, #124	@ 0x7c
   20a76:	4604      	mov	r4, r0
   20a78:	466d      	mov	r5, sp
   20a7a:	2627      	movs	r6, #39	@ 0x27
   20a7c:	4628      	mov	r0, r5
   20a7e:	4632      	mov	r2, r6
   20a80:	f006 fac3 	bl	2700a <__aeabi_memcpy>
   20a84:	a80a      	add	r0, sp, #40	@ 0x28
   20a86:	2151      	movs	r1, #81	@ 0x51
   20a88:	f006 f912 	bl	26cb0 <__aeabi_memclr4>
   20a8c:	4822      	ldr	r0, [pc, #136]	@ (20b18 <_ZN18complex_no_dynamic3app17h3932fb2df8f4c7c7E+0xa8>)
   20a8e:	2100      	movs	r1, #0
   20a90:	462a      	mov	r2, r5
   20a92:	4633      	mov	r3, r6
   20a94:	df04      	svc	4
   20a96:	2802      	cmp	r0, #2
   20a98:	d00e      	beq.n	20ab8 <_ZN18complex_no_dynamic3app17h3932fb2df8f4c7c7E+0x48>
   20a9a:	481f      	ldr	r0, [pc, #124]	@ (20b18 <_ZN18complex_no_dynamic3app17h3932fb2df8f4c7c7E+0xa8>)
   20a9c:	2104      	movs	r1, #4
   20a9e:	aa0a      	add	r2, sp, #40	@ 0x28
   20aa0:	2351      	movs	r3, #81	@ 0x51
   20aa2:	df03      	svc	3
   20aa4:	2802      	cmp	r0, #2
   20aa6:	d007      	beq.n	20ab8 <_ZN18complex_no_dynamic3app17h3932fb2df8f4c7c7E+0x48>
   20aa8:	481b      	ldr	r0, [pc, #108]	@ (20b18 <_ZN18complex_no_dynamic3app17h3932fb2df8f4c7c7E+0xa8>)
   20aaa:	2204      	movs	r2, #4
   20aac:	2500      	movs	r5, #0
   20aae:	4629      	mov	r1, r5
   20ab0:	462b      	mov	r3, r5
   20ab2:	df02      	svc	2
   20ab4:	287f      	cmp	r0, #127	@ 0x7f
   20ab6:	d810      	bhi.n	20ada <_ZN18complex_no_dynamic3app17h3932fb2df8f4c7c7E+0x6a>
   20ab8:	2001      	movs	r0, #1
   20aba:	7020      	strb	r0, [r4, #0]
   20abc:	6061      	str	r1, [r4, #4]
   20abe:	4c16      	ldr	r4, [pc, #88]	@ (20b18 <_ZN18complex_no_dynamic3app17h3932fb2df8f4c7c7E+0xa8>)
   20ac0:	2104      	movs	r1, #4
   20ac2:	2500      	movs	r5, #0
   20ac4:	4620      	mov	r0, r4
   20ac6:	462a      	mov	r2, r5
   20ac8:	462b      	mov	r3, r5
   20aca:	df03      	svc	3
   20acc:	4620      	mov	r0, r4
   20ace:	4629      	mov	r1, r5
   20ad0:	462a      	mov	r2, r5
   20ad2:	462b      	mov	r3, r5
   20ad4:	df04      	svc	4
   20ad6:	b01f      	add	sp, #124	@ 0x7c
   20ad8:	bdf0      	pop	{r4, r5, r6, r7, pc}
   20ada:	480f      	ldr	r0, [pc, #60]	@ (20b18 <_ZN18complex_no_dynamic3app17h3932fb2df8f4c7c7E+0xa8>)
   20adc:	2604      	movs	r6, #4
   20ade:	4631      	mov	r1, r6
   20ae0:	462a      	mov	r2, r5
   20ae2:	462b      	mov	r3, r5
   20ae4:	df03      	svc	3
   20ae6:	480c      	ldr	r0, [pc, #48]	@ (20b18 <_ZN18complex_no_dynamic3app17h3932fb2df8f4c7c7E+0xa8>)
   20ae8:	4631      	mov	r1, r6
   20aea:	462a      	mov	r2, r5
   20aec:	462b      	mov	r3, r5
   20aee:	df03      	svc	3
   20af0:	1c60      	adds	r0, r4, #1
   20af2:	a90a      	add	r1, sp, #40	@ 0x28
   20af4:	2251      	movs	r2, #81	@ 0x51
   20af6:	f006 fa88 	bl	2700a <__aeabi_memcpy>
   20afa:	7025      	strb	r5, [r4, #0]
   20afc:	4c06      	ldr	r4, [pc, #24]	@ (20b18 <_ZN18complex_no_dynamic3app17h3932fb2df8f4c7c7E+0xa8>)
   20afe:	4620      	mov	r0, r4
   20b00:	4631      	mov	r1, r6
   20b02:	462a      	mov	r2, r5
   20b04:	462b      	mov	r3, r5
   20b06:	df03      	svc	3
   20b08:	4620      	mov	r0, r4
   20b0a:	4629      	mov	r1, r5
   20b0c:	462a      	mov	r2, r5
   20b0e:	462b      	mov	r3, r5
   20b10:	df04      	svc	4
   20b12:	b01f      	add	sp, #124	@ 0x7c
   20b14:	bdf0      	pop	{r4, r5, r6, r7, pc}
   20b16:	46c0      	nop			@ (mov r8, r8)
   20b18:	00000a36 	.word	0x00000a36

00020b1c <_ZN18complex_no_dynamic3app17h3ea8a481e84b1984E>:
   20b1c:	b5f0      	push	{r4, r5, r6, r7, lr}
   20b1e:	af03      	add	r7, sp, #12
   20b20:	b099      	sub	sp, #100	@ 0x64
   20b22:	9001      	str	r0, [sp, #4]
   20b24:	ae02      	add	r6, sp, #8
   20b26:	2441      	movs	r4, #65	@ 0x41
   20b28:	4630      	mov	r0, r6
   20b2a:	4622      	mov	r2, r4
   20b2c:	f006 fa6d 	bl	2700a <__aeabi_memcpy>
   20b30:	2000      	movs	r0, #0
   20b32:	9018      	str	r0, [sp, #96]	@ 0x60
   20b34:	9017      	str	r0, [sp, #92]	@ 0x5c
   20b36:	9016      	str	r0, [sp, #88]	@ 0x58
   20b38:	9015      	str	r0, [sp, #84]	@ 0x54
   20b3a:	9014      	str	r0, [sp, #80]	@ 0x50
   20b3c:	9013      	str	r0, [sp, #76]	@ 0x4c
   20b3e:	4824      	ldr	r0, [pc, #144]	@ (20bd0 <_ZN18complex_no_dynamic3app17h3ea8a481e84b1984E+0xb4>)
   20b40:	2501      	movs	r5, #1
   20b42:	4629      	mov	r1, r5
   20b44:	4632      	mov	r2, r6
   20b46:	4623      	mov	r3, r4
   20b48:	df04      	svc	4
   20b4a:	2802      	cmp	r0, #2
   20b4c:	d00e      	beq.n	20b6c <_ZN18complex_no_dynamic3app17h3ea8a481e84b1984E+0x50>
   20b4e:	4820      	ldr	r0, [pc, #128]	@ (20bd0 <_ZN18complex_no_dynamic3app17h3ea8a481e84b1984E+0xb4>)
   20b50:	2109      	movs	r1, #9
   20b52:	aa13      	add	r2, sp, #76	@ 0x4c
   20b54:	2318      	movs	r3, #24
   20b56:	df03      	svc	3
   20b58:	2802      	cmp	r0, #2
   20b5a:	d007      	beq.n	20b6c <_ZN18complex_no_dynamic3app17h3ea8a481e84b1984E+0x50>
   20b5c:	481c      	ldr	r0, [pc, #112]	@ (20bd0 <_ZN18complex_no_dynamic3app17h3ea8a481e84b1984E+0xb4>)
   20b5e:	2101      	movs	r1, #1
   20b60:	2209      	movs	r2, #9
   20b62:	2600      	movs	r6, #0
   20b64:	4633      	mov	r3, r6
   20b66:	df02      	svc	2
   20b68:	287f      	cmp	r0, #127	@ 0x7f
   20b6a:	d810      	bhi.n	20b8e <_ZN18complex_no_dynamic3app17h3ea8a481e84b1984E+0x72>
   20b6c:	9801      	ldr	r0, [sp, #4]
   20b6e:	7005      	strb	r5, [r0, #0]
   20b70:	6041      	str	r1, [r0, #4]
   20b72:	4c17      	ldr	r4, [pc, #92]	@ (20bd0 <_ZN18complex_no_dynamic3app17h3ea8a481e84b1984E+0xb4>)
   20b74:	2109      	movs	r1, #9
   20b76:	2600      	movs	r6, #0
   20b78:	4620      	mov	r0, r4
   20b7a:	4632      	mov	r2, r6
   20b7c:	4633      	mov	r3, r6
   20b7e:	df03      	svc	3
   20b80:	4620      	mov	r0, r4
   20b82:	4629      	mov	r1, r5
   20b84:	4632      	mov	r2, r6
   20b86:	4633      	mov	r3, r6
   20b88:	df04      	svc	4
   20b8a:	b019      	add	sp, #100	@ 0x64
   20b8c:	bdf0      	pop	{r4, r5, r6, r7, pc}
   20b8e:	4c10      	ldr	r4, [pc, #64]	@ (20bd0 <_ZN18complex_no_dynamic3app17h3ea8a481e84b1984E+0xb4>)
   20b90:	2509      	movs	r5, #9
   20b92:	4620      	mov	r0, r4
   20b94:	4629      	mov	r1, r5
   20b96:	4632      	mov	r2, r6
   20b98:	4633      	mov	r3, r6
   20b9a:	df03      	svc	3
   20b9c:	4620      	mov	r0, r4
   20b9e:	4629      	mov	r1, r5
   20ba0:	4632      	mov	r2, r6
   20ba2:	4633      	mov	r3, r6
   20ba4:	df03      	svc	3
   20ba6:	9c01      	ldr	r4, [sp, #4]
   20ba8:	1c60      	adds	r0, r4, #1
   20baa:	a913      	add	r1, sp, #76	@ 0x4c
   20bac:	2218      	movs	r2, #24
   20bae:	f006 fa2c 	bl	2700a <__aeabi_memcpy>
   20bb2:	7026      	strb	r6, [r4, #0]
   20bb4:	4c06      	ldr	r4, [pc, #24]	@ (20bd0 <_ZN18complex_no_dynamic3app17h3ea8a481e84b1984E+0xb4>)
   20bb6:	4620      	mov	r0, r4
   20bb8:	4629      	mov	r1, r5
   20bba:	4632      	mov	r2, r6
   20bbc:	4633      	mov	r3, r6
   20bbe:	df03      	svc	3
   20bc0:	2101      	movs	r1, #1
   20bc2:	4620      	mov	r0, r4
   20bc4:	4632      	mov	r2, r6
   20bc6:	4633      	mov	r3, r6
   20bc8:	df04      	svc	4
   20bca:	b019      	add	sp, #100	@ 0x64
   20bcc:	bdf0      	pop	{r4, r5, r6, r7, pc}
   20bce:	46c0      	nop			@ (mov r8, r8)
   20bd0:	00002156 	.word	0x00002156

00020bd4 <_ZN18complex_no_dynamic3app17h40cd3ae4decf28b1E>:
   20bd4:	b5f0      	push	{r4, r5, r6, r7, lr}
   20bd6:	af03      	add	r7, sp, #12
   20bd8:	b09d      	sub	sp, #116	@ 0x74
   20bda:	9001      	str	r0, [sp, #4]
   20bdc:	ae02      	add	r6, sp, #8
   20bde:	2450      	movs	r4, #80	@ 0x50
   20be0:	4630      	mov	r0, r6
   20be2:	4622      	mov	r2, r4
   20be4:	f006 fa11 	bl	2700a <__aeabi_memcpy>
   20be8:	a816      	add	r0, sp, #88	@ 0x58
   20bea:	2100      	movs	r1, #0
   20bec:	7681      	strb	r1, [r0, #26]
   20bee:	8301      	strh	r1, [r0, #24]
   20bf0:	911b      	str	r1, [sp, #108]	@ 0x6c
   20bf2:	911a      	str	r1, [sp, #104]	@ 0x68
   20bf4:	9119      	str	r1, [sp, #100]	@ 0x64
   20bf6:	9118      	str	r1, [sp, #96]	@ 0x60
   20bf8:	9117      	str	r1, [sp, #92]	@ 0x5c
   20bfa:	9116      	str	r1, [sp, #88]	@ 0x58
   20bfc:	4823      	ldr	r0, [pc, #140]	@ (20c8c <_ZN18complex_no_dynamic3app17h40cd3ae4decf28b1E+0xb8>)
   20bfe:	2501      	movs	r5, #1
   20c00:	4629      	mov	r1, r5
   20c02:	4632      	mov	r2, r6
   20c04:	4623      	mov	r3, r4
   20c06:	df04      	svc	4
   20c08:	2802      	cmp	r0, #2
   20c0a:	d00e      	beq.n	20c2a <_ZN18complex_no_dynamic3app17h40cd3ae4decf28b1E+0x56>
   20c0c:	481f      	ldr	r0, [pc, #124]	@ (20c8c <_ZN18complex_no_dynamic3app17h40cd3ae4decf28b1E+0xb8>)
   20c0e:	2102      	movs	r1, #2
   20c10:	aa16      	add	r2, sp, #88	@ 0x58
   20c12:	231b      	movs	r3, #27
   20c14:	df03      	svc	3
   20c16:	2802      	cmp	r0, #2
   20c18:	d007      	beq.n	20c2a <_ZN18complex_no_dynamic3app17h40cd3ae4decf28b1E+0x56>
   20c1a:	481c      	ldr	r0, [pc, #112]	@ (20c8c <_ZN18complex_no_dynamic3app17h40cd3ae4decf28b1E+0xb8>)
   20c1c:	2101      	movs	r1, #1
   20c1e:	2202      	movs	r2, #2
   20c20:	2600      	movs	r6, #0
   20c22:	4633      	mov	r3, r6
   20c24:	df02      	svc	2
   20c26:	287f      	cmp	r0, #127	@ 0x7f
   20c28:	d810      	bhi.n	20c4c <_ZN18complex_no_dynamic3app17h40cd3ae4decf28b1E+0x78>
   20c2a:	9801      	ldr	r0, [sp, #4]
   20c2c:	7005      	strb	r5, [r0, #0]
   20c2e:	6041      	str	r1, [r0, #4]
   20c30:	4c16      	ldr	r4, [pc, #88]	@ (20c8c <_ZN18complex_no_dynamic3app17h40cd3ae4decf28b1E+0xb8>)
   20c32:	2102      	movs	r1, #2
   20c34:	2600      	movs	r6, #0
   20c36:	4620      	mov	r0, r4
   20c38:	4632      	mov	r2, r6
   20c3a:	4633      	mov	r3, r6
   20c3c:	df03      	svc	3
   20c3e:	4620      	mov	r0, r4
   20c40:	4629      	mov	r1, r5
   20c42:	4632      	mov	r2, r6
   20c44:	4633      	mov	r3, r6
   20c46:	df04      	svc	4
   20c48:	b01d      	add	sp, #116	@ 0x74
   20c4a:	bdf0      	pop	{r4, r5, r6, r7, pc}
   20c4c:	4c0f      	ldr	r4, [pc, #60]	@ (20c8c <_ZN18complex_no_dynamic3app17h40cd3ae4decf28b1E+0xb8>)
   20c4e:	2502      	movs	r5, #2
   20c50:	4620      	mov	r0, r4
   20c52:	4629      	mov	r1, r5
   20c54:	4632      	mov	r2, r6
   20c56:	4633      	mov	r3, r6
   20c58:	df03      	svc	3
   20c5a:	4620      	mov	r0, r4
   20c5c:	4629      	mov	r1, r5
   20c5e:	4632      	mov	r2, r6
   20c60:	4633      	mov	r3, r6
   20c62:	df03      	svc	3
   20c64:	9c01      	ldr	r4, [sp, #4]
   20c66:	1c60      	adds	r0, r4, #1
   20c68:	a916      	add	r1, sp, #88	@ 0x58
   20c6a:	221b      	movs	r2, #27
   20c6c:	f006 f9cd 	bl	2700a <__aeabi_memcpy>
   20c70:	7026      	strb	r6, [r4, #0]
   20c72:	4c06      	ldr	r4, [pc, #24]	@ (20c8c <_ZN18complex_no_dynamic3app17h40cd3ae4decf28b1E+0xb8>)
   20c74:	4620      	mov	r0, r4
   20c76:	4629      	mov	r1, r5
   20c78:	4632      	mov	r2, r6
   20c7a:	4633      	mov	r3, r6
   20c7c:	df03      	svc	3
   20c7e:	2101      	movs	r1, #1
   20c80:	4620      	mov	r0, r4
   20c82:	4632      	mov	r2, r6
   20c84:	4633      	mov	r3, r6
   20c86:	df04      	svc	4
   20c88:	b01d      	add	sp, #116	@ 0x74
   20c8a:	bdf0      	pop	{r4, r5, r6, r7, pc}
   20c8c:	000003d9 	.word	0x000003d9

00020c90 <_ZN18complex_no_dynamic3app17h41108e2e0145e032E>:
   20c90:	b5f0      	push	{r4, r5, r6, r7, lr}
   20c92:	af03      	add	r7, sp, #12
   20c94:	b093      	sub	sp, #76	@ 0x4c
   20c96:	4604      	mov	r4, r0
   20c98:	ad01      	add	r5, sp, #4
   20c9a:	2627      	movs	r6, #39	@ 0x27
   20c9c:	4628      	mov	r0, r5
   20c9e:	4632      	mov	r2, r6
   20ca0:	f006 f9b3 	bl	2700a <__aeabi_memcpy>
   20ca4:	a80b      	add	r0, sp, #44	@ 0x2c
   20ca6:	2100      	movs	r1, #0
   20ca8:	8381      	strh	r1, [r0, #28]
   20caa:	9111      	str	r1, [sp, #68]	@ 0x44
   20cac:	9110      	str	r1, [sp, #64]	@ 0x40
   20cae:	910f      	str	r1, [sp, #60]	@ 0x3c
   20cb0:	910e      	str	r1, [sp, #56]	@ 0x38
   20cb2:	910d      	str	r1, [sp, #52]	@ 0x34
   20cb4:	910c      	str	r1, [sp, #48]	@ 0x30
   20cb6:	910b      	str	r1, [sp, #44]	@ 0x2c
   20cb8:	4822      	ldr	r0, [pc, #136]	@ (20d44 <_ZN18complex_no_dynamic3app17h41108e2e0145e032E+0xb4>)
   20cba:	2103      	movs	r1, #3
   20cbc:	462a      	mov	r2, r5
   20cbe:	4633      	mov	r3, r6
   20cc0:	df04      	svc	4
   20cc2:	2802      	cmp	r0, #2
   20cc4:	d00e      	beq.n	20ce4 <_ZN18complex_no_dynamic3app17h41108e2e0145e032E+0x54>
   20cc6:	481f      	ldr	r0, [pc, #124]	@ (20d44 <_ZN18complex_no_dynamic3app17h41108e2e0145e032E+0xb4>)
   20cc8:	2103      	movs	r1, #3
   20cca:	aa0b      	add	r2, sp, #44	@ 0x2c
   20ccc:	231e      	movs	r3, #30
   20cce:	df03      	svc	3
   20cd0:	2802      	cmp	r0, #2
   20cd2:	d007      	beq.n	20ce4 <_ZN18complex_no_dynamic3app17h41108e2e0145e032E+0x54>
   20cd4:	481b      	ldr	r0, [pc, #108]	@ (20d44 <_ZN18complex_no_dynamic3app17h41108e2e0145e032E+0xb4>)
   20cd6:	2103      	movs	r1, #3
   20cd8:	2500      	movs	r5, #0
   20cda:	460a      	mov	r2, r1
   20cdc:	462b      	mov	r3, r5
   20cde:	df02      	svc	2
   20ce0:	287f      	cmp	r0, #127	@ 0x7f
   20ce2:	d811      	bhi.n	20d08 <_ZN18complex_no_dynamic3app17h41108e2e0145e032E+0x78>
   20ce4:	2001      	movs	r0, #1
   20ce6:	7020      	strb	r0, [r4, #0]
   20ce8:	6061      	str	r1, [r4, #4]
   20cea:	4c16      	ldr	r4, [pc, #88]	@ (20d44 <_ZN18complex_no_dynamic3app17h41108e2e0145e032E+0xb4>)
   20cec:	2503      	movs	r5, #3
   20cee:	2600      	movs	r6, #0
   20cf0:	4620      	mov	r0, r4
   20cf2:	4629      	mov	r1, r5
   20cf4:	4632      	mov	r2, r6
   20cf6:	4633      	mov	r3, r6
   20cf8:	df03      	svc	3
   20cfa:	4620      	mov	r0, r4
   20cfc:	4629      	mov	r1, r5
   20cfe:	4632      	mov	r2, r6
   20d00:	4633      	mov	r3, r6
   20d02:	df04      	svc	4
   20d04:	b013      	add	sp, #76	@ 0x4c
   20d06:	bdf0      	pop	{r4, r5, r6, r7, pc}
   20d08:	480e      	ldr	r0, [pc, #56]	@ (20d44 <_ZN18complex_no_dynamic3app17h41108e2e0145e032E+0xb4>)
   20d0a:	2603      	movs	r6, #3
   20d0c:	4631      	mov	r1, r6
   20d0e:	462a      	mov	r2, r5
   20d10:	462b      	mov	r3, r5
   20d12:	df03      	svc	3
   20d14:	480b      	ldr	r0, [pc, #44]	@ (20d44 <_ZN18complex_no_dynamic3app17h41108e2e0145e032E+0xb4>)
   20d16:	4631      	mov	r1, r6
   20d18:	462a      	mov	r2, r5
   20d1a:	462b      	mov	r3, r5
   20d1c:	df03      	svc	3
   20d1e:	1c60      	adds	r0, r4, #1
   20d20:	a90b      	add	r1, sp, #44	@ 0x2c
   20d22:	221e      	movs	r2, #30
   20d24:	f006 f971 	bl	2700a <__aeabi_memcpy>
   20d28:	7025      	strb	r5, [r4, #0]
   20d2a:	4c06      	ldr	r4, [pc, #24]	@ (20d44 <_ZN18complex_no_dynamic3app17h41108e2e0145e032E+0xb4>)
   20d2c:	4620      	mov	r0, r4
   20d2e:	4631      	mov	r1, r6
   20d30:	462a      	mov	r2, r5
   20d32:	462b      	mov	r3, r5
   20d34:	df03      	svc	3
   20d36:	4620      	mov	r0, r4
   20d38:	4631      	mov	r1, r6
   20d3a:	462a      	mov	r2, r5
   20d3c:	462b      	mov	r3, r5
   20d3e:	df04      	svc	4
   20d40:	b013      	add	sp, #76	@ 0x4c
   20d42:	bdf0      	pop	{r4, r5, r6, r7, pc}
   20d44:	000010e2 	.word	0x000010e2

00020d48 <_ZN18complex_no_dynamic3app17h43f6f86d9ca045a7E>:
   20d48:	b5f0      	push	{r4, r5, r6, r7, lr}
   20d4a:	af03      	add	r7, sp, #12
   20d4c:	b0a3      	sub	sp, #140	@ 0x8c
   20d4e:	4604      	mov	r4, r0
   20d50:	ad01      	add	r5, sp, #4
   20d52:	264f      	movs	r6, #79	@ 0x4f
   20d54:	4628      	mov	r0, r5
   20d56:	4632      	mov	r2, r6
   20d58:	f006 f957 	bl	2700a <__aeabi_memcpy>
   20d5c:	a815      	add	r0, sp, #84	@ 0x54
   20d5e:	2135      	movs	r1, #53	@ 0x35
   20d60:	f005 ffa6 	bl	26cb0 <__aeabi_memclr4>
   20d64:	4822      	ldr	r0, [pc, #136]	@ (20df0 <_ZN18complex_no_dynamic3app17h43f6f86d9ca045a7E+0xa8>)
   20d66:	2107      	movs	r1, #7
   20d68:	462a      	mov	r2, r5
   20d6a:	4633      	mov	r3, r6
   20d6c:	df04      	svc	4
   20d6e:	2802      	cmp	r0, #2
   20d70:	d00e      	beq.n	20d90 <_ZN18complex_no_dynamic3app17h43f6f86d9ca045a7E+0x48>
   20d72:	481f      	ldr	r0, [pc, #124]	@ (20df0 <_ZN18complex_no_dynamic3app17h43f6f86d9ca045a7E+0xa8>)
   20d74:	2101      	movs	r1, #1
   20d76:	aa15      	add	r2, sp, #84	@ 0x54
   20d78:	2335      	movs	r3, #53	@ 0x35
   20d7a:	df03      	svc	3
   20d7c:	2802      	cmp	r0, #2
   20d7e:	d007      	beq.n	20d90 <_ZN18complex_no_dynamic3app17h43f6f86d9ca045a7E+0x48>
   20d80:	481b      	ldr	r0, [pc, #108]	@ (20df0 <_ZN18complex_no_dynamic3app17h43f6f86d9ca045a7E+0xa8>)
   20d82:	2107      	movs	r1, #7
   20d84:	2201      	movs	r2, #1
   20d86:	2500      	movs	r5, #0
   20d88:	462b      	mov	r3, r5
   20d8a:	df02      	svc	2
   20d8c:	287f      	cmp	r0, #127	@ 0x7f
   20d8e:	d810      	bhi.n	20db2 <_ZN18complex_no_dynamic3app17h43f6f86d9ca045a7E+0x6a>
   20d90:	2201      	movs	r2, #1
   20d92:	7022      	strb	r2, [r4, #0]
   20d94:	6061      	str	r1, [r4, #4]
   20d96:	4c16      	ldr	r4, [pc, #88]	@ (20df0 <_ZN18complex_no_dynamic3app17h43f6f86d9ca045a7E+0xa8>)
   20d98:	2500      	movs	r5, #0
   20d9a:	4620      	mov	r0, r4
   20d9c:	4611      	mov	r1, r2
   20d9e:	462a      	mov	r2, r5
   20da0:	462b      	mov	r3, r5
   20da2:	df03      	svc	3
   20da4:	2107      	movs	r1, #7
   20da6:	4620      	mov	r0, r4
   20da8:	462a      	mov	r2, r5
   20daa:	462b      	mov	r3, r5
   20dac:	df04      	svc	4
   20dae:	b023      	add	sp, #140	@ 0x8c
   20db0:	bdf0      	pop	{r4, r5, r6, r7, pc}
   20db2:	480f      	ldr	r0, [pc, #60]	@ (20df0 <_ZN18complex_no_dynamic3app17h43f6f86d9ca045a7E+0xa8>)
   20db4:	2601      	movs	r6, #1
   20db6:	4631      	mov	r1, r6
   20db8:	462a      	mov	r2, r5
   20dba:	462b      	mov	r3, r5
   20dbc:	df03      	svc	3
   20dbe:	480c      	ldr	r0, [pc, #48]	@ (20df0 <_ZN18complex_no_dynamic3app17h43f6f86d9ca045a7E+0xa8>)
   20dc0:	4631      	mov	r1, r6
   20dc2:	462a      	mov	r2, r5
   20dc4:	462b      	mov	r3, r5
   20dc6:	df03      	svc	3
   20dc8:	1c60      	adds	r0, r4, #1
   20dca:	a915      	add	r1, sp, #84	@ 0x54
   20dcc:	2235      	movs	r2, #53	@ 0x35
   20dce:	f006 f91c 	bl	2700a <__aeabi_memcpy>
   20dd2:	7025      	strb	r5, [r4, #0]
   20dd4:	4c06      	ldr	r4, [pc, #24]	@ (20df0 <_ZN18complex_no_dynamic3app17h43f6f86d9ca045a7E+0xa8>)
   20dd6:	4620      	mov	r0, r4
   20dd8:	4631      	mov	r1, r6
   20dda:	462a      	mov	r2, r5
   20ddc:	462b      	mov	r3, r5
   20dde:	df03      	svc	3
   20de0:	2107      	movs	r1, #7
   20de2:	4620      	mov	r0, r4
   20de4:	462a      	mov	r2, r5
   20de6:	462b      	mov	r3, r5
   20de8:	df04      	svc	4
   20dea:	b023      	add	sp, #140	@ 0x8c
   20dec:	bdf0      	pop	{r4, r5, r6, r7, pc}
   20dee:	46c0      	nop			@ (mov r8, r8)
   20df0:	000016d7 	.word	0x000016d7

00020df4 <_ZN18complex_no_dynamic3app17h46ad2f77d8e322b8E>:
   20df4:	b5f0      	push	{r4, r5, r6, r7, lr}
   20df6:	af03      	add	r7, sp, #12
   20df8:	b09b      	sub	sp, #108	@ 0x6c
   20dfa:	4604      	mov	r4, r0
   20dfc:	466d      	mov	r5, sp
   20dfe:	261a      	movs	r6, #26
   20e00:	4628      	mov	r0, r5
   20e02:	4632      	mov	r2, r6
   20e04:	f006 f901 	bl	2700a <__aeabi_memcpy>
   20e08:	a807      	add	r0, sp, #28
   20e0a:	2150      	movs	r1, #80	@ 0x50
   20e0c:	f005 ff50 	bl	26cb0 <__aeabi_memclr4>
   20e10:	4822      	ldr	r0, [pc, #136]	@ (20e9c <_ZN18complex_no_dynamic3app17h46ad2f77d8e322b8E+0xa8>)
   20e12:	2107      	movs	r1, #7
   20e14:	462a      	mov	r2, r5
   20e16:	4633      	mov	r3, r6
   20e18:	df04      	svc	4
   20e1a:	2802      	cmp	r0, #2
   20e1c:	d00e      	beq.n	20e3c <_ZN18complex_no_dynamic3app17h46ad2f77d8e322b8E+0x48>
   20e1e:	481f      	ldr	r0, [pc, #124]	@ (20e9c <_ZN18complex_no_dynamic3app17h46ad2f77d8e322b8E+0xa8>)
   20e20:	2104      	movs	r1, #4
   20e22:	aa07      	add	r2, sp, #28
   20e24:	2350      	movs	r3, #80	@ 0x50
   20e26:	df03      	svc	3
   20e28:	2802      	cmp	r0, #2
   20e2a:	d007      	beq.n	20e3c <_ZN18complex_no_dynamic3app17h46ad2f77d8e322b8E+0x48>
   20e2c:	481b      	ldr	r0, [pc, #108]	@ (20e9c <_ZN18complex_no_dynamic3app17h46ad2f77d8e322b8E+0xa8>)
   20e2e:	2107      	movs	r1, #7
   20e30:	2204      	movs	r2, #4
   20e32:	2500      	movs	r5, #0
   20e34:	462b      	mov	r3, r5
   20e36:	df02      	svc	2
   20e38:	287f      	cmp	r0, #127	@ 0x7f
   20e3a:	d810      	bhi.n	20e5e <_ZN18complex_no_dynamic3app17h46ad2f77d8e322b8E+0x6a>
   20e3c:	2001      	movs	r0, #1
   20e3e:	7020      	strb	r0, [r4, #0]
   20e40:	6061      	str	r1, [r4, #4]
   20e42:	4c16      	ldr	r4, [pc, #88]	@ (20e9c <_ZN18complex_no_dynamic3app17h46ad2f77d8e322b8E+0xa8>)
   20e44:	2104      	movs	r1, #4
   20e46:	2500      	movs	r5, #0
   20e48:	4620      	mov	r0, r4
   20e4a:	462a      	mov	r2, r5
   20e4c:	462b      	mov	r3, r5
   20e4e:	df03      	svc	3
   20e50:	2107      	movs	r1, #7
   20e52:	4620      	mov	r0, r4
   20e54:	462a      	mov	r2, r5
   20e56:	462b      	mov	r3, r5
   20e58:	df04      	svc	4
   20e5a:	b01b      	add	sp, #108	@ 0x6c
   20e5c:	bdf0      	pop	{r4, r5, r6, r7, pc}
   20e5e:	480f      	ldr	r0, [pc, #60]	@ (20e9c <_ZN18complex_no_dynamic3app17h46ad2f77d8e322b8E+0xa8>)
   20e60:	2604      	movs	r6, #4
   20e62:	4631      	mov	r1, r6
   20e64:	462a      	mov	r2, r5
   20e66:	462b      	mov	r3, r5
   20e68:	df03      	svc	3
   20e6a:	480c      	ldr	r0, [pc, #48]	@ (20e9c <_ZN18complex_no_dynamic3app17h46ad2f77d8e322b8E+0xa8>)
   20e6c:	4631      	mov	r1, r6
   20e6e:	462a      	mov	r2, r5
   20e70:	462b      	mov	r3, r5
   20e72:	df03      	svc	3
   20e74:	1c60      	adds	r0, r4, #1
   20e76:	a907      	add	r1, sp, #28
   20e78:	2250      	movs	r2, #80	@ 0x50
   20e7a:	f006 f8c6 	bl	2700a <__aeabi_memcpy>
   20e7e:	7025      	strb	r5, [r4, #0]
   20e80:	4c06      	ldr	r4, [pc, #24]	@ (20e9c <_ZN18complex_no_dynamic3app17h46ad2f77d8e322b8E+0xa8>)
   20e82:	4620      	mov	r0, r4
   20e84:	4631      	mov	r1, r6
   20e86:	462a      	mov	r2, r5
   20e88:	462b      	mov	r3, r5
   20e8a:	df03      	svc	3
   20e8c:	2107      	movs	r1, #7
   20e8e:	4620      	mov	r0, r4
   20e90:	462a      	mov	r2, r5
   20e92:	462b      	mov	r3, r5
   20e94:	df04      	svc	4
   20e96:	b01b      	add	sp, #108	@ 0x6c
   20e98:	bdf0      	pop	{r4, r5, r6, r7, pc}
   20e9a:	46c0      	nop			@ (mov r8, r8)
   20e9c:	00000aee 	.word	0x00000aee

00020ea0 <_ZN18complex_no_dynamic3app17h4f148bd816ec2dc3E>:
   20ea0:	b5f0      	push	{r4, r5, r6, r7, lr}
   20ea2:	af03      	add	r7, sp, #12
   20ea4:	b095      	sub	sp, #84	@ 0x54
   20ea6:	4604      	mov	r4, r0
   20ea8:	ad01      	add	r5, sp, #4
   20eaa:	2623      	movs	r6, #35	@ 0x23
   20eac:	4628      	mov	r0, r5
   20eae:	4632      	mov	r2, r6
   20eb0:	f006 f8ab 	bl	2700a <__aeabi_memcpy>
   20eb4:	a80a      	add	r0, sp, #40	@ 0x28
   20eb6:	212b      	movs	r1, #43	@ 0x2b
   20eb8:	f005 fefa 	bl	26cb0 <__aeabi_memclr4>
   20ebc:	4821      	ldr	r0, [pc, #132]	@ (20f44 <_ZN18complex_no_dynamic3app17h4f148bd816ec2dc3E+0xa4>)
   20ebe:	2102      	movs	r1, #2
   20ec0:	462a      	mov	r2, r5
   20ec2:	4633      	mov	r3, r6
   20ec4:	df04      	svc	4
   20ec6:	2802      	cmp	r0, #2
   20ec8:	d00e      	beq.n	20ee8 <_ZN18complex_no_dynamic3app17h4f148bd816ec2dc3E+0x48>
   20eca:	481e      	ldr	r0, [pc, #120]	@ (20f44 <_ZN18complex_no_dynamic3app17h4f148bd816ec2dc3E+0xa4>)
   20ecc:	2100      	movs	r1, #0
   20ece:	aa0a      	add	r2, sp, #40	@ 0x28
   20ed0:	232b      	movs	r3, #43	@ 0x2b
   20ed2:	df03      	svc	3
   20ed4:	2802      	cmp	r0, #2
   20ed6:	d007      	beq.n	20ee8 <_ZN18complex_no_dynamic3app17h4f148bd816ec2dc3E+0x48>
   20ed8:	481a      	ldr	r0, [pc, #104]	@ (20f44 <_ZN18complex_no_dynamic3app17h4f148bd816ec2dc3E+0xa4>)
   20eda:	2102      	movs	r1, #2
   20edc:	2500      	movs	r5, #0
   20ede:	462a      	mov	r2, r5
   20ee0:	462b      	mov	r3, r5
   20ee2:	df02      	svc	2
   20ee4:	287f      	cmp	r0, #127	@ 0x7f
   20ee6:	d810      	bhi.n	20f0a <_ZN18complex_no_dynamic3app17h4f148bd816ec2dc3E+0x6a>
   20ee8:	2001      	movs	r0, #1
   20eea:	7020      	strb	r0, [r4, #0]
   20eec:	6061      	str	r1, [r4, #4]
   20eee:	4c15      	ldr	r4, [pc, #84]	@ (20f44 <_ZN18complex_no_dynamic3app17h4f148bd816ec2dc3E+0xa4>)
   20ef0:	2500      	movs	r5, #0
   20ef2:	4620      	mov	r0, r4
   20ef4:	4629      	mov	r1, r5
   20ef6:	462a      	mov	r2, r5
   20ef8:	462b      	mov	r3, r5
   20efa:	df03      	svc	3
   20efc:	2102      	movs	r1, #2
   20efe:	4620      	mov	r0, r4
   20f00:	462a      	mov	r2, r5
   20f02:	462b      	mov	r3, r5
   20f04:	df04      	svc	4
   20f06:	b015      	add	sp, #84	@ 0x54
   20f08:	bdf0      	pop	{r4, r5, r6, r7, pc}
   20f0a:	4e0e      	ldr	r6, [pc, #56]	@ (20f44 <_ZN18complex_no_dynamic3app17h4f148bd816ec2dc3E+0xa4>)
   20f0c:	4630      	mov	r0, r6
   20f0e:	4629      	mov	r1, r5
   20f10:	462a      	mov	r2, r5
   20f12:	462b      	mov	r3, r5
   20f14:	df03      	svc	3
   20f16:	4630      	mov	r0, r6
   20f18:	4629      	mov	r1, r5
   20f1a:	462a      	mov	r2, r5
   20f1c:	462b      	mov	r3, r5
   20f1e:	df03      	svc	3
   20f20:	1c60      	adds	r0, r4, #1
   20f22:	a90a      	add	r1, sp, #40	@ 0x28
   20f24:	222b      	movs	r2, #43	@ 0x2b
   20f26:	f006 f870 	bl	2700a <__aeabi_memcpy>
   20f2a:	7025      	strb	r5, [r4, #0]
   20f2c:	4630      	mov	r0, r6
   20f2e:	4629      	mov	r1, r5
   20f30:	462a      	mov	r2, r5
   20f32:	462b      	mov	r3, r5
   20f34:	df03      	svc	3
   20f36:	2102      	movs	r1, #2
   20f38:	4630      	mov	r0, r6
   20f3a:	462a      	mov	r2, r5
   20f3c:	462b      	mov	r3, r5
   20f3e:	df04      	svc	4
   20f40:	b015      	add	sp, #84	@ 0x54
   20f42:	bdf0      	pop	{r4, r5, r6, r7, pc}
   20f44:	00000d5d 	.word	0x00000d5d

00020f48 <_ZN18complex_no_dynamic3app17h50256c4159bb93baE>:
   20f48:	b5f0      	push	{r4, r5, r6, r7, lr}
   20f4a:	af03      	add	r7, sp, #12
   20f4c:	b099      	sub	sp, #100	@ 0x64
   20f4e:	4604      	mov	r4, r0
   20f50:	466d      	mov	r5, sp
   20f52:	263b      	movs	r6, #59	@ 0x3b
   20f54:	4628      	mov	r0, r5
   20f56:	4632      	mov	r2, r6
   20f58:	f006 f857 	bl	2700a <__aeabi_memcpy>
   20f5c:	a80f      	add	r0, sp, #60	@ 0x3c
   20f5e:	2127      	movs	r1, #39	@ 0x27
   20f60:	f005 fea6 	bl	26cb0 <__aeabi_memclr4>
   20f64:	4822      	ldr	r0, [pc, #136]	@ (20ff0 <_ZN18complex_no_dynamic3app17h50256c4159bb93baE+0xa8>)
   20f66:	2105      	movs	r1, #5
   20f68:	462a      	mov	r2, r5
   20f6a:	4633      	mov	r3, r6
   20f6c:	df04      	svc	4
   20f6e:	2802      	cmp	r0, #2
   20f70:	d00e      	beq.n	20f90 <_ZN18complex_no_dynamic3app17h50256c4159bb93baE+0x48>
   20f72:	481f      	ldr	r0, [pc, #124]	@ (20ff0 <_ZN18complex_no_dynamic3app17h50256c4159bb93baE+0xa8>)
   20f74:	2103      	movs	r1, #3
   20f76:	aa0f      	add	r2, sp, #60	@ 0x3c
   20f78:	2327      	movs	r3, #39	@ 0x27
   20f7a:	df03      	svc	3
   20f7c:	2802      	cmp	r0, #2
   20f7e:	d007      	beq.n	20f90 <_ZN18complex_no_dynamic3app17h50256c4159bb93baE+0x48>
   20f80:	481b      	ldr	r0, [pc, #108]	@ (20ff0 <_ZN18complex_no_dynamic3app17h50256c4159bb93baE+0xa8>)
   20f82:	2105      	movs	r1, #5
   20f84:	2203      	movs	r2, #3
   20f86:	2500      	movs	r5, #0
   20f88:	462b      	mov	r3, r5
   20f8a:	df02      	svc	2
   20f8c:	287f      	cmp	r0, #127	@ 0x7f
   20f8e:	d810      	bhi.n	20fb2 <_ZN18complex_no_dynamic3app17h50256c4159bb93baE+0x6a>
   20f90:	2001      	movs	r0, #1
   20f92:	7020      	strb	r0, [r4, #0]
   20f94:	6061      	str	r1, [r4, #4]
   20f96:	4c16      	ldr	r4, [pc, #88]	@ (20ff0 <_ZN18complex_no_dynamic3app17h50256c4159bb93baE+0xa8>)
   20f98:	2103      	movs	r1, #3
   20f9a:	2500      	movs	r5, #0
   20f9c:	4620      	mov	r0, r4
   20f9e:	462a      	mov	r2, r5
   20fa0:	462b      	mov	r3, r5
   20fa2:	df03      	svc	3
   20fa4:	2105      	movs	r1, #5
   20fa6:	4620      	mov	r0, r4
   20fa8:	462a      	mov	r2, r5
   20faa:	462b      	mov	r3, r5
   20fac:	df04      	svc	4
   20fae:	b019      	add	sp, #100	@ 0x64
   20fb0:	bdf0      	pop	{r4, r5, r6, r7, pc}
   20fb2:	480f      	ldr	r0, [pc, #60]	@ (20ff0 <_ZN18complex_no_dynamic3app17h50256c4159bb93baE+0xa8>)
   20fb4:	2603      	movs	r6, #3
   20fb6:	4631      	mov	r1, r6
   20fb8:	462a      	mov	r2, r5
   20fba:	462b      	mov	r3, r5
   20fbc:	df03      	svc	3
   20fbe:	480c      	ldr	r0, [pc, #48]	@ (20ff0 <_ZN18complex_no_dynamic3app17h50256c4159bb93baE+0xa8>)
   20fc0:	4631      	mov	r1, r6
   20fc2:	462a      	mov	r2, r5
   20fc4:	462b      	mov	r3, r5
   20fc6:	df03      	svc	3
   20fc8:	1c60      	adds	r0, r4, #1
   20fca:	a90f      	add	r1, sp, #60	@ 0x3c
   20fcc:	2227      	movs	r2, #39	@ 0x27
   20fce:	f006 f81c 	bl	2700a <__aeabi_memcpy>
   20fd2:	7025      	strb	r5, [r4, #0]
   20fd4:	4c06      	ldr	r4, [pc, #24]	@ (20ff0 <_ZN18complex_no_dynamic3app17h50256c4159bb93baE+0xa8>)
   20fd6:	4620      	mov	r0, r4
   20fd8:	4631      	mov	r1, r6
   20fda:	462a      	mov	r2, r5
   20fdc:	462b      	mov	r3, r5
   20fde:	df03      	svc	3
   20fe0:	2105      	movs	r1, #5
   20fe2:	4620      	mov	r0, r4
   20fe4:	462a      	mov	r2, r5
   20fe6:	462b      	mov	r3, r5
   20fe8:	df04      	svc	4
   20fea:	b019      	add	sp, #100	@ 0x64
   20fec:	bdf0      	pop	{r4, r5, r6, r7, pc}
   20fee:	46c0      	nop			@ (mov r8, r8)
   20ff0:	00000bd3 	.word	0x00000bd3

00020ff4 <_ZN18complex_no_dynamic3app17h5077d15cff5c24cdE>:
   20ff4:	b5f0      	push	{r4, r5, r6, r7, lr}
   20ff6:	af03      	add	r7, sp, #12
   20ff8:	b08f      	sub	sp, #60	@ 0x3c
   20ffa:	4604      	mov	r4, r0
   20ffc:	466d      	mov	r5, sp
   20ffe:	262b      	movs	r6, #43	@ 0x2b
   21000:	4628      	mov	r0, r5
   21002:	4632      	mov	r2, r6
   21004:	f006 f801 	bl	2700a <__aeabi_memcpy>
   21008:	a80b      	add	r0, sp, #44	@ 0x2c
   2100a:	2100      	movs	r1, #0
   2100c:	7301      	strb	r1, [r0, #12]
   2100e:	910d      	str	r1, [sp, #52]	@ 0x34
   21010:	910c      	str	r1, [sp, #48]	@ 0x30
   21012:	910b      	str	r1, [sp, #44]	@ 0x2c
   21014:	4821      	ldr	r0, [pc, #132]	@ (2109c <_ZN18complex_no_dynamic3app17h5077d15cff5c24cdE+0xa8>)
   21016:	2106      	movs	r1, #6
   21018:	462a      	mov	r2, r5
   2101a:	4633      	mov	r3, r6
   2101c:	df04      	svc	4
   2101e:	2802      	cmp	r0, #2
   21020:	d00e      	beq.n	21040 <_ZN18complex_no_dynamic3app17h5077d15cff5c24cdE+0x4c>
   21022:	481e      	ldr	r0, [pc, #120]	@ (2109c <_ZN18complex_no_dynamic3app17h5077d15cff5c24cdE+0xa8>)
   21024:	2100      	movs	r1, #0
   21026:	aa0b      	add	r2, sp, #44	@ 0x2c
   21028:	230d      	movs	r3, #13
   2102a:	df03      	svc	3
   2102c:	2802      	cmp	r0, #2
   2102e:	d007      	beq.n	21040 <_ZN18complex_no_dynamic3app17h5077d15cff5c24cdE+0x4c>
   21030:	481a      	ldr	r0, [pc, #104]	@ (2109c <_ZN18complex_no_dynamic3app17h5077d15cff5c24cdE+0xa8>)
   21032:	2106      	movs	r1, #6
   21034:	2500      	movs	r5, #0
   21036:	462a      	mov	r2, r5
   21038:	462b      	mov	r3, r5
   2103a:	df02      	svc	2
   2103c:	287f      	cmp	r0, #127	@ 0x7f
   2103e:	d810      	bhi.n	21062 <_ZN18complex_no_dynamic3app17h5077d15cff5c24cdE+0x6e>
   21040:	2001      	movs	r0, #1
   21042:	7020      	strb	r0, [r4, #0]
   21044:	6061      	str	r1, [r4, #4]
   21046:	4c15      	ldr	r4, [pc, #84]	@ (2109c <_ZN18complex_no_dynamic3app17h5077d15cff5c24cdE+0xa8>)
   21048:	2500      	movs	r5, #0
   2104a:	4620      	mov	r0, r4
   2104c:	4629      	mov	r1, r5
   2104e:	462a      	mov	r2, r5
   21050:	462b      	mov	r3, r5
   21052:	df03      	svc	3
   21054:	2106      	movs	r1, #6
   21056:	4620      	mov	r0, r4
   21058:	462a      	mov	r2, r5
   2105a:	462b      	mov	r3, r5
   2105c:	df04      	svc	4
   2105e:	b00f      	add	sp, #60	@ 0x3c
   21060:	bdf0      	pop	{r4, r5, r6, r7, pc}
   21062:	4e0e      	ldr	r6, [pc, #56]	@ (2109c <_ZN18complex_no_dynamic3app17h5077d15cff5c24cdE+0xa8>)
   21064:	4630      	mov	r0, r6
   21066:	4629      	mov	r1, r5
   21068:	462a      	mov	r2, r5
   2106a:	462b      	mov	r3, r5
   2106c:	df03      	svc	3
   2106e:	4630      	mov	r0, r6
   21070:	4629      	mov	r1, r5
   21072:	462a      	mov	r2, r5
   21074:	462b      	mov	r3, r5
   21076:	df03      	svc	3
   21078:	1c60      	adds	r0, r4, #1
   2107a:	a90b      	add	r1, sp, #44	@ 0x2c
   2107c:	220d      	movs	r2, #13
   2107e:	f005 ffc4 	bl	2700a <__aeabi_memcpy>
   21082:	7025      	strb	r5, [r4, #0]
   21084:	4630      	mov	r0, r6
   21086:	4629      	mov	r1, r5
   21088:	462a      	mov	r2, r5
   2108a:	462b      	mov	r3, r5
   2108c:	df03      	svc	3
   2108e:	2106      	movs	r1, #6
   21090:	4630      	mov	r0, r6
   21092:	462a      	mov	r2, r5
   21094:	462b      	mov	r3, r5
   21096:	df04      	svc	4
   21098:	b00f      	add	sp, #60	@ 0x3c
   2109a:	bdf0      	pop	{r4, r5, r6, r7, pc}
   2109c:	00001465 	.word	0x00001465

000210a0 <_ZN18complex_no_dynamic3app17h5497072b93726c9dE>:
   210a0:	b5f0      	push	{r4, r5, r6, r7, lr}
   210a2:	af03      	add	r7, sp, #12
   210a4:	b093      	sub	sp, #76	@ 0x4c
   210a6:	4604      	mov	r4, r0
   210a8:	7b08      	ldrb	r0, [r1, #12]
   210aa:	7b4a      	ldrb	r2, [r1, #13]
   210ac:	0212      	lsls	r2, r2, #8
   210ae:	1810      	adds	r0, r2, r0
   210b0:	7b8a      	ldrb	r2, [r1, #14]
   210b2:	0412      	lsls	r2, r2, #16
   210b4:	7bcb      	ldrb	r3, [r1, #15]
   210b6:	061b      	lsls	r3, r3, #24
   210b8:	189a      	adds	r2, r3, r2
   210ba:	1810      	adds	r0, r2, r0
   210bc:	9004      	str	r0, [sp, #16]
   210be:	7a08      	ldrb	r0, [r1, #8]
   210c0:	7a4a      	ldrb	r2, [r1, #9]
   210c2:	0212      	lsls	r2, r2, #8
   210c4:	1810      	adds	r0, r2, r0
   210c6:	7a8a      	ldrb	r2, [r1, #10]
   210c8:	0412      	lsls	r2, r2, #16
   210ca:	7acb      	ldrb	r3, [r1, #11]
   210cc:	061b      	lsls	r3, r3, #24
   210ce:	189a      	adds	r2, r3, r2
   210d0:	1810      	adds	r0, r2, r0
   210d2:	9003      	str	r0, [sp, #12]
   210d4:	7908      	ldrb	r0, [r1, #4]
   210d6:	794a      	ldrb	r2, [r1, #5]
   210d8:	0212      	lsls	r2, r2, #8
   210da:	1810      	adds	r0, r2, r0
   210dc:	798a      	ldrb	r2, [r1, #6]
   210de:	0412      	lsls	r2, r2, #16
   210e0:	79cb      	ldrb	r3, [r1, #7]
   210e2:	061b      	lsls	r3, r3, #24
   210e4:	189a      	adds	r2, r3, r2
   210e6:	1810      	adds	r0, r2, r0
   210e8:	9002      	str	r0, [sp, #8]
   210ea:	7808      	ldrb	r0, [r1, #0]
   210ec:	784a      	ldrb	r2, [r1, #1]
   210ee:	0212      	lsls	r2, r2, #8
   210f0:	1810      	adds	r0, r2, r0
   210f2:	788a      	ldrb	r2, [r1, #2]
   210f4:	0412      	lsls	r2, r2, #16
   210f6:	78c9      	ldrb	r1, [r1, #3]
   210f8:	0609      	lsls	r1, r1, #24
   210fa:	1889      	adds	r1, r1, r2
   210fc:	1808      	adds	r0, r1, r0
   210fe:	9001      	str	r0, [sp, #4]
   21100:	a805      	add	r0, sp, #20
   21102:	2136      	movs	r1, #54	@ 0x36
   21104:	f005 fdd4 	bl	26cb0 <__aeabi_memclr4>
   21108:	4822      	ldr	r0, [pc, #136]	@ (21194 <_ZN18complex_no_dynamic3app17h5497072b93726c9dE+0xf4>)
   2110a:	2501      	movs	r5, #1
   2110c:	aa01      	add	r2, sp, #4
   2110e:	2310      	movs	r3, #16
   21110:	4629      	mov	r1, r5
   21112:	df04      	svc	4
   21114:	2802      	cmp	r0, #2
   21116:	d00e      	beq.n	21136 <_ZN18complex_no_dynamic3app17h5497072b93726c9dE+0x96>
   21118:	481e      	ldr	r0, [pc, #120]	@ (21194 <_ZN18complex_no_dynamic3app17h5497072b93726c9dE+0xf4>)
   2111a:	2107      	movs	r1, #7
   2111c:	aa05      	add	r2, sp, #20
   2111e:	2336      	movs	r3, #54	@ 0x36
   21120:	df03      	svc	3
   21122:	2802      	cmp	r0, #2
   21124:	d007      	beq.n	21136 <_ZN18complex_no_dynamic3app17h5497072b93726c9dE+0x96>
   21126:	481b      	ldr	r0, [pc, #108]	@ (21194 <_ZN18complex_no_dynamic3app17h5497072b93726c9dE+0xf4>)
   21128:	2101      	movs	r1, #1
   2112a:	2207      	movs	r2, #7
   2112c:	2600      	movs	r6, #0
   2112e:	4633      	mov	r3, r6
   21130:	df02      	svc	2
   21132:	287f      	cmp	r0, #127	@ 0x7f
   21134:	d80f      	bhi.n	21156 <_ZN18complex_no_dynamic3app17h5497072b93726c9dE+0xb6>
   21136:	7025      	strb	r5, [r4, #0]
   21138:	6061      	str	r1, [r4, #4]
   2113a:	4c16      	ldr	r4, [pc, #88]	@ (21194 <_ZN18complex_no_dynamic3app17h5497072b93726c9dE+0xf4>)
   2113c:	2107      	movs	r1, #7
   2113e:	2600      	movs	r6, #0
   21140:	4620      	mov	r0, r4
   21142:	4632      	mov	r2, r6
   21144:	4633      	mov	r3, r6
   21146:	df03      	svc	3
   21148:	4620      	mov	r0, r4
   2114a:	4629      	mov	r1, r5
   2114c:	4632      	mov	r2, r6
   2114e:	4633      	mov	r3, r6
   21150:	df04      	svc	4
   21152:	b013      	add	sp, #76	@ 0x4c
   21154:	bdf0      	pop	{r4, r5, r6, r7, pc}
   21156:	480f      	ldr	r0, [pc, #60]	@ (21194 <_ZN18complex_no_dynamic3app17h5497072b93726c9dE+0xf4>)
   21158:	2507      	movs	r5, #7
   2115a:	4629      	mov	r1, r5
   2115c:	4632      	mov	r2, r6
   2115e:	4633      	mov	r3, r6
   21160:	df03      	svc	3
   21162:	480c      	ldr	r0, [pc, #48]	@ (21194 <_ZN18complex_no_dynamic3app17h5497072b93726c9dE+0xf4>)
   21164:	4629      	mov	r1, r5
   21166:	4632      	mov	r2, r6
   21168:	4633      	mov	r3, r6
   2116a:	df03      	svc	3
   2116c:	1c60      	adds	r0, r4, #1
   2116e:	a905      	add	r1, sp, #20
   21170:	2236      	movs	r2, #54	@ 0x36
   21172:	f005 ff4a 	bl	2700a <__aeabi_memcpy>
   21176:	7026      	strb	r6, [r4, #0]
   21178:	4c06      	ldr	r4, [pc, #24]	@ (21194 <_ZN18complex_no_dynamic3app17h5497072b93726c9dE+0xf4>)
   2117a:	4620      	mov	r0, r4
   2117c:	4629      	mov	r1, r5
   2117e:	4632      	mov	r2, r6
   21180:	4633      	mov	r3, r6
   21182:	df03      	svc	3
   21184:	2101      	movs	r1, #1
   21186:	4620      	mov	r0, r4
   21188:	4632      	mov	r2, r6
   2118a:	4633      	mov	r3, r6
   2118c:	df04      	svc	4
   2118e:	b013      	add	sp, #76	@ 0x4c
   21190:	bdf0      	pop	{r4, r5, r6, r7, pc}
   21192:	46c0      	nop			@ (mov r8, r8)
   21194:	00001989 	.word	0x00001989

00021198 <_ZN18complex_no_dynamic3app17h57ee5913bea08d70E>:
   21198:	b5f0      	push	{r4, r5, r6, r7, lr}
   2119a:	af03      	add	r7, sp, #12
   2119c:	b0a7      	sub	sp, #156	@ 0x9c
   2119e:	4604      	mov	r4, r0
   211a0:	466d      	mov	r5, sp
   211a2:	263a      	movs	r6, #58	@ 0x3a
   211a4:	4628      	mov	r0, r5
   211a6:	4632      	mov	r2, r6
   211a8:	f005 ff2f 	bl	2700a <__aeabi_memcpy>
   211ac:	a80f      	add	r0, sp, #60	@ 0x3c
   211ae:	215d      	movs	r1, #93	@ 0x5d
   211b0:	f005 fd7e 	bl	26cb0 <__aeabi_memclr4>
   211b4:	4822      	ldr	r0, [pc, #136]	@ (21240 <_ZN18complex_no_dynamic3app17h57ee5913bea08d70E+0xa8>)
   211b6:	2100      	movs	r1, #0
   211b8:	462a      	mov	r2, r5
   211ba:	4633      	mov	r3, r6
   211bc:	df04      	svc	4
   211be:	2802      	cmp	r0, #2
   211c0:	d00e      	beq.n	211e0 <_ZN18complex_no_dynamic3app17h57ee5913bea08d70E+0x48>
   211c2:	481f      	ldr	r0, [pc, #124]	@ (21240 <_ZN18complex_no_dynamic3app17h57ee5913bea08d70E+0xa8>)
   211c4:	2105      	movs	r1, #5
   211c6:	aa0f      	add	r2, sp, #60	@ 0x3c
   211c8:	235d      	movs	r3, #93	@ 0x5d
   211ca:	df03      	svc	3
   211cc:	2802      	cmp	r0, #2
   211ce:	d007      	beq.n	211e0 <_ZN18complex_no_dynamic3app17h57ee5913bea08d70E+0x48>
   211d0:	481b      	ldr	r0, [pc, #108]	@ (21240 <_ZN18complex_no_dynamic3app17h57ee5913bea08d70E+0xa8>)
   211d2:	2205      	movs	r2, #5
   211d4:	2500      	movs	r5, #0
   211d6:	4629      	mov	r1, r5
   211d8:	462b      	mov	r3, r5
   211da:	df02      	svc	2
   211dc:	287f      	cmp	r0, #127	@ 0x7f
   211de:	d810      	bhi.n	21202 <_ZN18complex_no_dynamic3app17h57ee5913bea08d70E+0x6a>
   211e0:	2001      	movs	r0, #1
   211e2:	7020      	strb	r0, [r4, #0]
   211e4:	6061      	str	r1, [r4, #4]
   211e6:	4c16      	ldr	r4, [pc, #88]	@ (21240 <_ZN18complex_no_dynamic3app17h57ee5913bea08d70E+0xa8>)
   211e8:	2105      	movs	r1, #5
   211ea:	2500      	movs	r5, #0
   211ec:	4620      	mov	r0, r4
   211ee:	462a      	mov	r2, r5
   211f0:	462b      	mov	r3, r5
   211f2:	df03      	svc	3
   211f4:	4620      	mov	r0, r4
   211f6:	4629      	mov	r1, r5
   211f8:	462a      	mov	r2, r5
   211fa:	462b      	mov	r3, r5
   211fc:	df04      	svc	4
   211fe:	b027      	add	sp, #156	@ 0x9c
   21200:	bdf0      	pop	{r4, r5, r6, r7, pc}
   21202:	480f      	ldr	r0, [pc, #60]	@ (21240 <_ZN18complex_no_dynamic3app17h57ee5913bea08d70E+0xa8>)
   21204:	2605      	movs	r6, #5
   21206:	4631      	mov	r1, r6
   21208:	462a      	mov	r2, r5
   2120a:	462b      	mov	r3, r5
   2120c:	df03      	svc	3
   2120e:	480c      	ldr	r0, [pc, #48]	@ (21240 <_ZN18complex_no_dynamic3app17h57ee5913bea08d70E+0xa8>)
   21210:	4631      	mov	r1, r6
   21212:	462a      	mov	r2, r5
   21214:	462b      	mov	r3, r5
   21216:	df03      	svc	3
   21218:	1c60      	adds	r0, r4, #1
   2121a:	a90f      	add	r1, sp, #60	@ 0x3c
   2121c:	225d      	movs	r2, #93	@ 0x5d
   2121e:	f005 fef4 	bl	2700a <__aeabi_memcpy>
   21222:	7025      	strb	r5, [r4, #0]
   21224:	4c06      	ldr	r4, [pc, #24]	@ (21240 <_ZN18complex_no_dynamic3app17h57ee5913bea08d70E+0xa8>)
   21226:	4620      	mov	r0, r4
   21228:	4631      	mov	r1, r6
   2122a:	462a      	mov	r2, r5
   2122c:	462b      	mov	r3, r5
   2122e:	df03      	svc	3
   21230:	4620      	mov	r0, r4
   21232:	4629      	mov	r1, r5
   21234:	462a      	mov	r2, r5
   21236:	462b      	mov	r3, r5
   21238:	df04      	svc	4
   2123a:	b027      	add	sp, #156	@ 0x9c
   2123c:	bdf0      	pop	{r4, r5, r6, r7, pc}
   2123e:	46c0      	nop			@ (mov r8, r8)
   21240:	000014a4 	.word	0x000014a4

00021244 <_ZN18complex_no_dynamic3app17h58807fcf14a3e62cE>:
   21244:	b5f0      	push	{r4, r5, r6, r7, lr}
   21246:	af03      	add	r7, sp, #12
   21248:	b09d      	sub	sp, #116	@ 0x74
   2124a:	4604      	mov	r4, r0
   2124c:	466d      	mov	r5, sp
   2124e:	263c      	movs	r6, #60	@ 0x3c
   21250:	4628      	mov	r0, r5
   21252:	4632      	mov	r2, r6
   21254:	f005 fed9 	bl	2700a <__aeabi_memcpy>
   21258:	a80f      	add	r0, sp, #60	@ 0x3c
   2125a:	2138      	movs	r1, #56	@ 0x38
   2125c:	f005 fd28 	bl	26cb0 <__aeabi_memclr4>
   21260:	4822      	ldr	r0, [pc, #136]	@ (212ec <_ZN18complex_no_dynamic3app17h58807fcf14a3e62cE+0xa8>)
   21262:	2103      	movs	r1, #3
   21264:	462a      	mov	r2, r5
   21266:	4633      	mov	r3, r6
   21268:	df04      	svc	4
   2126a:	2802      	cmp	r0, #2
   2126c:	d00e      	beq.n	2128c <_ZN18complex_no_dynamic3app17h58807fcf14a3e62cE+0x48>
   2126e:	481f      	ldr	r0, [pc, #124]	@ (212ec <_ZN18complex_no_dynamic3app17h58807fcf14a3e62cE+0xa8>)
   21270:	2103      	movs	r1, #3
   21272:	aa0f      	add	r2, sp, #60	@ 0x3c
   21274:	2338      	movs	r3, #56	@ 0x38
   21276:	df03      	svc	3
   21278:	2802      	cmp	r0, #2
   2127a:	d007      	beq.n	2128c <_ZN18complex_no_dynamic3app17h58807fcf14a3e62cE+0x48>
   2127c:	481b      	ldr	r0, [pc, #108]	@ (212ec <_ZN18complex_no_dynamic3app17h58807fcf14a3e62cE+0xa8>)
   2127e:	2103      	movs	r1, #3
   21280:	2500      	movs	r5, #0
   21282:	460a      	mov	r2, r1
   21284:	462b      	mov	r3, r5
   21286:	df02      	svc	2
   21288:	287f      	cmp	r0, #127	@ 0x7f
   2128a:	d811      	bhi.n	212b0 <_ZN18complex_no_dynamic3app17h58807fcf14a3e62cE+0x6c>
   2128c:	2001      	movs	r0, #1
   2128e:	7020      	strb	r0, [r4, #0]
   21290:	6061      	str	r1, [r4, #4]
   21292:	4c16      	ldr	r4, [pc, #88]	@ (212ec <_ZN18complex_no_dynamic3app17h58807fcf14a3e62cE+0xa8>)
   21294:	2503      	movs	r5, #3
   21296:	2600      	movs	r6, #0
   21298:	4620      	mov	r0, r4
   2129a:	4629      	mov	r1, r5
   2129c:	4632      	mov	r2, r6
   2129e:	4633      	mov	r3, r6
   212a0:	df03      	svc	3
   212a2:	4620      	mov	r0, r4
   212a4:	4629      	mov	r1, r5
   212a6:	4632      	mov	r2, r6
   212a8:	4633      	mov	r3, r6
   212aa:	df04      	svc	4
   212ac:	b01d      	add	sp, #116	@ 0x74
   212ae:	bdf0      	pop	{r4, r5, r6, r7, pc}
   212b0:	480e      	ldr	r0, [pc, #56]	@ (212ec <_ZN18complex_no_dynamic3app17h58807fcf14a3e62cE+0xa8>)
   212b2:	2603      	movs	r6, #3
   212b4:	4631      	mov	r1, r6
   212b6:	462a      	mov	r2, r5
   212b8:	462b      	mov	r3, r5
   212ba:	df03      	svc	3
   212bc:	480b      	ldr	r0, [pc, #44]	@ (212ec <_ZN18complex_no_dynamic3app17h58807fcf14a3e62cE+0xa8>)
   212be:	4631      	mov	r1, r6
   212c0:	462a      	mov	r2, r5
   212c2:	462b      	mov	r3, r5
   212c4:	df03      	svc	3
   212c6:	1c60      	adds	r0, r4, #1
   212c8:	a90f      	add	r1, sp, #60	@ 0x3c
   212ca:	2238      	movs	r2, #56	@ 0x38
   212cc:	f005 fe9d 	bl	2700a <__aeabi_memcpy>
   212d0:	7025      	strb	r5, [r4, #0]
   212d2:	4c06      	ldr	r4, [pc, #24]	@ (212ec <_ZN18complex_no_dynamic3app17h58807fcf14a3e62cE+0xa8>)
   212d4:	4620      	mov	r0, r4
   212d6:	4631      	mov	r1, r6
   212d8:	462a      	mov	r2, r5
   212da:	462b      	mov	r3, r5
   212dc:	df03      	svc	3
   212de:	4620      	mov	r0, r4
   212e0:	4631      	mov	r1, r6
   212e2:	462a      	mov	r2, r5
   212e4:	462b      	mov	r3, r5
   212e6:	df04      	svc	4
   212e8:	b01d      	add	sp, #116	@ 0x74
   212ea:	bdf0      	pop	{r4, r5, r6, r7, pc}
   212ec:	00001d19 	.word	0x00001d19

000212f0 <_ZN18complex_no_dynamic3app17h5c540980c716429aE>:
   212f0:	b5f0      	push	{r4, r5, r6, r7, lr}
   212f2:	af03      	add	r7, sp, #12
   212f4:	b091      	sub	sp, #68	@ 0x44
   212f6:	4604      	mov	r4, r0
   212f8:	466d      	mov	r5, sp
   212fa:	261e      	movs	r6, #30
   212fc:	4628      	mov	r0, r5
   212fe:	4632      	mov	r2, r6
   21300:	f005 fe83 	bl	2700a <__aeabi_memcpy>
   21304:	a808      	add	r0, sp, #32
   21306:	2121      	movs	r1, #33	@ 0x21
   21308:	f005 fcd2 	bl	26cb0 <__aeabi_memclr4>
   2130c:	4822      	ldr	r0, [pc, #136]	@ (21398 <_ZN18complex_no_dynamic3app17h5c540980c716429aE+0xa8>)
   2130e:	2106      	movs	r1, #6
   21310:	462a      	mov	r2, r5
   21312:	4633      	mov	r3, r6
   21314:	df04      	svc	4
   21316:	2802      	cmp	r0, #2
   21318:	d00e      	beq.n	21338 <_ZN18complex_no_dynamic3app17h5c540980c716429aE+0x48>
   2131a:	481f      	ldr	r0, [pc, #124]	@ (21398 <_ZN18complex_no_dynamic3app17h5c540980c716429aE+0xa8>)
   2131c:	2109      	movs	r1, #9
   2131e:	aa08      	add	r2, sp, #32
   21320:	2321      	movs	r3, #33	@ 0x21
   21322:	df03      	svc	3
   21324:	2802      	cmp	r0, #2
   21326:	d007      	beq.n	21338 <_ZN18complex_no_dynamic3app17h5c540980c716429aE+0x48>
   21328:	481b      	ldr	r0, [pc, #108]	@ (21398 <_ZN18complex_no_dynamic3app17h5c540980c716429aE+0xa8>)
   2132a:	2106      	movs	r1, #6
   2132c:	2209      	movs	r2, #9
   2132e:	2500      	movs	r5, #0
   21330:	462b      	mov	r3, r5
   21332:	df02      	svc	2
   21334:	287f      	cmp	r0, #127	@ 0x7f
   21336:	d810      	bhi.n	2135a <_ZN18complex_no_dynamic3app17h5c540980c716429aE+0x6a>
   21338:	2001      	movs	r0, #1
   2133a:	7020      	strb	r0, [r4, #0]
   2133c:	6061      	str	r1, [r4, #4]
   2133e:	4c16      	ldr	r4, [pc, #88]	@ (21398 <_ZN18complex_no_dynamic3app17h5c540980c716429aE+0xa8>)
   21340:	2109      	movs	r1, #9
   21342:	2500      	movs	r5, #0
   21344:	4620      	mov	r0, r4
   21346:	462a      	mov	r2, r5
   21348:	462b      	mov	r3, r5
   2134a:	df03      	svc	3
   2134c:	2106      	movs	r1, #6
   2134e:	4620      	mov	r0, r4
   21350:	462a      	mov	r2, r5
   21352:	462b      	mov	r3, r5
   21354:	df04      	svc	4
   21356:	b011      	add	sp, #68	@ 0x44
   21358:	bdf0      	pop	{r4, r5, r6, r7, pc}
   2135a:	480f      	ldr	r0, [pc, #60]	@ (21398 <_ZN18complex_no_dynamic3app17h5c540980c716429aE+0xa8>)
   2135c:	2609      	movs	r6, #9
   2135e:	4631      	mov	r1, r6
   21360:	462a      	mov	r2, r5
   21362:	462b      	mov	r3, r5
   21364:	df03      	svc	3
   21366:	480c      	ldr	r0, [pc, #48]	@ (21398 <_ZN18complex_no_dynamic3app17h5c540980c716429aE+0xa8>)
   21368:	4631      	mov	r1, r6
   2136a:	462a      	mov	r2, r5
   2136c:	462b      	mov	r3, r5
   2136e:	df03      	svc	3
   21370:	1c60      	adds	r0, r4, #1
   21372:	a908      	add	r1, sp, #32
   21374:	2221      	movs	r2, #33	@ 0x21
   21376:	f005 fe48 	bl	2700a <__aeabi_memcpy>
   2137a:	7025      	strb	r5, [r4, #0]
   2137c:	4c06      	ldr	r4, [pc, #24]	@ (21398 <_ZN18complex_no_dynamic3app17h5c540980c716429aE+0xa8>)
   2137e:	4620      	mov	r0, r4
   21380:	4631      	mov	r1, r6
   21382:	462a      	mov	r2, r5
   21384:	462b      	mov	r3, r5
   21386:	df03      	svc	3
   21388:	2106      	movs	r1, #6
   2138a:	4620      	mov	r0, r4
   2138c:	462a      	mov	r2, r5
   2138e:	462b      	mov	r3, r5
   21390:	df04      	svc	4
   21392:	b011      	add	sp, #68	@ 0x44
   21394:	bdf0      	pop	{r4, r5, r6, r7, pc}
   21396:	46c0      	nop			@ (mov r8, r8)
   21398:	000019b5 	.word	0x000019b5

0002139c <_ZN18complex_no_dynamic3app17h60f0dae30b7881e6E>:
   2139c:	b5f0      	push	{r4, r5, r6, r7, lr}
   2139e:	af03      	add	r7, sp, #12
   213a0:	b097      	sub	sp, #92	@ 0x5c
   213a2:	4604      	mov	r4, r0
   213a4:	ad01      	add	r5, sp, #4
   213a6:	260f      	movs	r6, #15
   213a8:	4628      	mov	r0, r5
   213aa:	4632      	mov	r2, r6
   213ac:	f005 fe2d 	bl	2700a <__aeabi_memcpy>
   213b0:	a805      	add	r0, sp, #20
   213b2:	2146      	movs	r1, #70	@ 0x46
   213b4:	f005 fc7c 	bl	26cb0 <__aeabi_memclr4>
   213b8:	4822      	ldr	r0, [pc, #136]	@ (21444 <_ZN18complex_no_dynamic3app17h60f0dae30b7881e6E+0xa8>)
   213ba:	2109      	movs	r1, #9
   213bc:	462a      	mov	r2, r5
   213be:	4633      	mov	r3, r6
   213c0:	df04      	svc	4
   213c2:	2802      	cmp	r0, #2
   213c4:	d00e      	beq.n	213e4 <_ZN18complex_no_dynamic3app17h60f0dae30b7881e6E+0x48>
   213c6:	481f      	ldr	r0, [pc, #124]	@ (21444 <_ZN18complex_no_dynamic3app17h60f0dae30b7881e6E+0xa8>)
   213c8:	2102      	movs	r1, #2
   213ca:	aa05      	add	r2, sp, #20
   213cc:	2346      	movs	r3, #70	@ 0x46
   213ce:	df03      	svc	3
   213d0:	2802      	cmp	r0, #2
   213d2:	d007      	beq.n	213e4 <_ZN18complex_no_dynamic3app17h60f0dae30b7881e6E+0x48>
   213d4:	481b      	ldr	r0, [pc, #108]	@ (21444 <_ZN18complex_no_dynamic3app17h60f0dae30b7881e6E+0xa8>)
   213d6:	2109      	movs	r1, #9
   213d8:	2202      	movs	r2, #2
   213da:	2500      	movs	r5, #0
   213dc:	462b      	mov	r3, r5
   213de:	df02      	svc	2
   213e0:	287f      	cmp	r0, #127	@ 0x7f
   213e2:	d810      	bhi.n	21406 <_ZN18complex_no_dynamic3app17h60f0dae30b7881e6E+0x6a>
   213e4:	2001      	movs	r0, #1
   213e6:	7020      	strb	r0, [r4, #0]
   213e8:	6061      	str	r1, [r4, #4]
   213ea:	4c16      	ldr	r4, [pc, #88]	@ (21444 <_ZN18complex_no_dynamic3app17h60f0dae30b7881e6E+0xa8>)
   213ec:	2102      	movs	r1, #2
   213ee:	2500      	movs	r5, #0
   213f0:	4620      	mov	r0, r4
   213f2:	462a      	mov	r2, r5
   213f4:	462b      	mov	r3, r5
   213f6:	df03      	svc	3
   213f8:	2109      	movs	r1, #9
   213fa:	4620      	mov	r0, r4
   213fc:	462a      	mov	r2, r5
   213fe:	462b      	mov	r3, r5
   21400:	df04      	svc	4
   21402:	b017      	add	sp, #92	@ 0x5c
   21404:	bdf0      	pop	{r4, r5, r6, r7, pc}
   21406:	480f      	ldr	r0, [pc, #60]	@ (21444 <_ZN18complex_no_dynamic3app17h60f0dae30b7881e6E+0xa8>)
   21408:	2602      	movs	r6, #2
   2140a:	4631      	mov	r1, r6
   2140c:	462a      	mov	r2, r5
   2140e:	462b      	mov	r3, r5
   21410:	df03      	svc	3
   21412:	480c      	ldr	r0, [pc, #48]	@ (21444 <_ZN18complex_no_dynamic3app17h60f0dae30b7881e6E+0xa8>)
   21414:	4631      	mov	r1, r6
   21416:	462a      	mov	r2, r5
   21418:	462b      	mov	r3, r5
   2141a:	df03      	svc	3
   2141c:	1c60      	adds	r0, r4, #1
   2141e:	a905      	add	r1, sp, #20
   21420:	2246      	movs	r2, #70	@ 0x46
   21422:	f005 fdf2 	bl	2700a <__aeabi_memcpy>
   21426:	7025      	strb	r5, [r4, #0]
   21428:	4c06      	ldr	r4, [pc, #24]	@ (21444 <_ZN18complex_no_dynamic3app17h60f0dae30b7881e6E+0xa8>)
   2142a:	4620      	mov	r0, r4
   2142c:	4631      	mov	r1, r6
   2142e:	462a      	mov	r2, r5
   21430:	462b      	mov	r3, r5
   21432:	df03      	svc	3
   21434:	2109      	movs	r1, #9
   21436:	4620      	mov	r0, r4
   21438:	462a      	mov	r2, r5
   2143a:	462b      	mov	r3, r5
   2143c:	df04      	svc	4
   2143e:	b017      	add	sp, #92	@ 0x5c
   21440:	bdf0      	pop	{r4, r5, r6, r7, pc}
   21442:	46c0      	nop			@ (mov r8, r8)
   21444:	00001d7e 	.word	0x00001d7e

00021448 <_ZN18complex_no_dynamic3app17h624d71fa697c2d76E>:
   21448:	b5f0      	push	{r4, r5, r6, r7, lr}
   2144a:	af03      	add	r7, sp, #12
   2144c:	b09b      	sub	sp, #108	@ 0x6c
   2144e:	4604      	mov	r4, r0
   21450:	ad01      	add	r5, sp, #4
   21452:	2644      	movs	r6, #68	@ 0x44
   21454:	4628      	mov	r0, r5
   21456:	4632      	mov	r2, r6
   21458:	f005 fdd7 	bl	2700a <__aeabi_memcpy>
   2145c:	a812      	add	r0, sp, #72	@ 0x48
   2145e:	2123      	movs	r1, #35	@ 0x23
   21460:	f005 fc26 	bl	26cb0 <__aeabi_memclr4>
   21464:	4822      	ldr	r0, [pc, #136]	@ (214f0 <_ZN18complex_no_dynamic3app17h624d71fa697c2d76E+0xa8>)
   21466:	2106      	movs	r1, #6
   21468:	462a      	mov	r2, r5
   2146a:	4633      	mov	r3, r6
   2146c:	df04      	svc	4
   2146e:	2802      	cmp	r0, #2
   21470:	d00e      	beq.n	21490 <_ZN18complex_no_dynamic3app17h624d71fa697c2d76E+0x48>
   21472:	481f      	ldr	r0, [pc, #124]	@ (214f0 <_ZN18complex_no_dynamic3app17h624d71fa697c2d76E+0xa8>)
   21474:	2103      	movs	r1, #3
   21476:	aa12      	add	r2, sp, #72	@ 0x48
   21478:	2323      	movs	r3, #35	@ 0x23
   2147a:	df03      	svc	3
   2147c:	2802      	cmp	r0, #2
   2147e:	d007      	beq.n	21490 <_ZN18complex_no_dynamic3app17h624d71fa697c2d76E+0x48>
   21480:	481b      	ldr	r0, [pc, #108]	@ (214f0 <_ZN18complex_no_dynamic3app17h624d71fa697c2d76E+0xa8>)
   21482:	2106      	movs	r1, #6
   21484:	2203      	movs	r2, #3
   21486:	2500      	movs	r5, #0
   21488:	462b      	mov	r3, r5
   2148a:	df02      	svc	2
   2148c:	287f      	cmp	r0, #127	@ 0x7f
   2148e:	d810      	bhi.n	214b2 <_ZN18complex_no_dynamic3app17h624d71fa697c2d76E+0x6a>
   21490:	2001      	movs	r0, #1
   21492:	7020      	strb	r0, [r4, #0]
   21494:	6061      	str	r1, [r4, #4]
   21496:	4c16      	ldr	r4, [pc, #88]	@ (214f0 <_ZN18complex_no_dynamic3app17h624d71fa697c2d76E+0xa8>)
   21498:	2103      	movs	r1, #3
   2149a:	2500      	movs	r5, #0
   2149c:	4620      	mov	r0, r4
   2149e:	462a      	mov	r2, r5
   214a0:	462b      	mov	r3, r5
   214a2:	df03      	svc	3
   214a4:	2106      	movs	r1, #6
   214a6:	4620      	mov	r0, r4
   214a8:	462a      	mov	r2, r5
   214aa:	462b      	mov	r3, r5
   214ac:	df04      	svc	4
   214ae:	b01b      	add	sp, #108	@ 0x6c
   214b0:	bdf0      	pop	{r4, r5, r6, r7, pc}
   214b2:	480f      	ldr	r0, [pc, #60]	@ (214f0 <_ZN18complex_no_dynamic3app17h624d71fa697c2d76E+0xa8>)
   214b4:	2603      	movs	r6, #3
   214b6:	4631      	mov	r1, r6
   214b8:	462a      	mov	r2, r5
   214ba:	462b      	mov	r3, r5
   214bc:	df03      	svc	3
   214be:	480c      	ldr	r0, [pc, #48]	@ (214f0 <_ZN18complex_no_dynamic3app17h624d71fa697c2d76E+0xa8>)
   214c0:	4631      	mov	r1, r6
   214c2:	462a      	mov	r2, r5
   214c4:	462b      	mov	r3, r5
   214c6:	df03      	svc	3
   214c8:	1c60      	adds	r0, r4, #1
   214ca:	a912      	add	r1, sp, #72	@ 0x48
   214cc:	2223      	movs	r2, #35	@ 0x23
   214ce:	f005 fd9c 	bl	2700a <__aeabi_memcpy>
   214d2:	7025      	strb	r5, [r4, #0]
   214d4:	4c06      	ldr	r4, [pc, #24]	@ (214f0 <_ZN18complex_no_dynamic3app17h624d71fa697c2d76E+0xa8>)
   214d6:	4620      	mov	r0, r4
   214d8:	4631      	mov	r1, r6
   214da:	462a      	mov	r2, r5
   214dc:	462b      	mov	r3, r5
   214de:	df03      	svc	3
   214e0:	2106      	movs	r1, #6
   214e2:	4620      	mov	r0, r4
   214e4:	462a      	mov	r2, r5
   214e6:	462b      	mov	r3, r5
   214e8:	df04      	svc	4
   214ea:	b01b      	add	sp, #108	@ 0x6c
   214ec:	bdf0      	pop	{r4, r5, r6, r7, pc}
   214ee:	46c0      	nop			@ (mov r8, r8)
   214f0:	000009bf 	.word	0x000009bf

000214f4 <_ZN18complex_no_dynamic3app17h639940da187a6c3bE>:
   214f4:	b5f0      	push	{r4, r5, r6, r7, lr}
   214f6:	af03      	add	r7, sp, #12
   214f8:	b0a5      	sub	sp, #148	@ 0x94
   214fa:	4604      	mov	r4, r0
   214fc:	ad01      	add	r5, sp, #4
   214fe:	2663      	movs	r6, #99	@ 0x63
   21500:	4628      	mov	r0, r5
   21502:	4632      	mov	r2, r6
   21504:	f005 fd81 	bl	2700a <__aeabi_memcpy>
   21508:	a81a      	add	r0, sp, #104	@ 0x68
   2150a:	212c      	movs	r1, #44	@ 0x2c
   2150c:	f005 fbd0 	bl	26cb0 <__aeabi_memclr4>
   21510:	2018      	movs	r0, #24
   21512:	2105      	movs	r1, #5
   21514:	462a      	mov	r2, r5
   21516:	4633      	mov	r3, r6
   21518:	df04      	svc	4
   2151a:	2802      	cmp	r0, #2
   2151c:	d00e      	beq.n	2153c <_ZN18complex_no_dynamic3app17h639940da187a6c3bE+0x48>
   2151e:	2018      	movs	r0, #24
   21520:	2103      	movs	r1, #3
   21522:	aa1a      	add	r2, sp, #104	@ 0x68
   21524:	232c      	movs	r3, #44	@ 0x2c
   21526:	df03      	svc	3
   21528:	2802      	cmp	r0, #2
   2152a:	d007      	beq.n	2153c <_ZN18complex_no_dynamic3app17h639940da187a6c3bE+0x48>
   2152c:	2018      	movs	r0, #24
   2152e:	2105      	movs	r1, #5
   21530:	2203      	movs	r2, #3
   21532:	2500      	movs	r5, #0
   21534:	462b      	mov	r3, r5
   21536:	df02      	svc	2
   21538:	287f      	cmp	r0, #127	@ 0x7f
   2153a:	d810      	bhi.n	2155e <_ZN18complex_no_dynamic3app17h639940da187a6c3bE+0x6a>
   2153c:	2001      	movs	r0, #1
   2153e:	7020      	strb	r0, [r4, #0]
   21540:	6061      	str	r1, [r4, #4]
   21542:	2418      	movs	r4, #24
   21544:	2103      	movs	r1, #3
   21546:	2500      	movs	r5, #0
   21548:	4620      	mov	r0, r4
   2154a:	462a      	mov	r2, r5
   2154c:	462b      	mov	r3, r5
   2154e:	df03      	svc	3
   21550:	2105      	movs	r1, #5
   21552:	4620      	mov	r0, r4
   21554:	462a      	mov	r2, r5
   21556:	462b      	mov	r3, r5
   21558:	df04      	svc	4
   2155a:	b025      	add	sp, #148	@ 0x94
   2155c:	bdf0      	pop	{r4, r5, r6, r7, pc}
   2155e:	2018      	movs	r0, #24
   21560:	9000      	str	r0, [sp, #0]
   21562:	2603      	movs	r6, #3
   21564:	4631      	mov	r1, r6
   21566:	462a      	mov	r2, r5
   21568:	462b      	mov	r3, r5
   2156a:	df03      	svc	3
   2156c:	9800      	ldr	r0, [sp, #0]
   2156e:	4631      	mov	r1, r6
   21570:	462a      	mov	r2, r5
   21572:	462b      	mov	r3, r5
   21574:	df03      	svc	3
   21576:	1c60      	adds	r0, r4, #1
   21578:	a91a      	add	r1, sp, #104	@ 0x68
   2157a:	222c      	movs	r2, #44	@ 0x2c
   2157c:	f005 fd45 	bl	2700a <__aeabi_memcpy>
   21580:	7025      	strb	r5, [r4, #0]
   21582:	9c00      	ldr	r4, [sp, #0]
   21584:	4620      	mov	r0, r4
   21586:	4631      	mov	r1, r6
   21588:	462a      	mov	r2, r5
   2158a:	462b      	mov	r3, r5
   2158c:	df03      	svc	3
   2158e:	2105      	movs	r1, #5
   21590:	4620      	mov	r0, r4
   21592:	462a      	mov	r2, r5
   21594:	462b      	mov	r3, r5
   21596:	df04      	svc	4
   21598:	b025      	add	sp, #148	@ 0x94
   2159a:	bdf0      	pop	{r4, r5, r6, r7, pc}

0002159c <_ZN18complex_no_dynamic3app17h64f57409c895c4d5E>:
   2159c:	b5f0      	push	{r4, r5, r6, r7, lr}
   2159e:	af03      	add	r7, sp, #12
   215a0:	b099      	sub	sp, #100	@ 0x64
   215a2:	4604      	mov	r4, r0
   215a4:	466d      	mov	r5, sp
   215a6:	2611      	movs	r6, #17
   215a8:	4628      	mov	r0, r5
   215aa:	4632      	mov	r2, r6
   215ac:	f005 fd2d 	bl	2700a <__aeabi_memcpy>
   215b0:	a805      	add	r0, sp, #20
   215b2:	2150      	movs	r1, #80	@ 0x50
   215b4:	f005 fb7c 	bl	26cb0 <__aeabi_memclr4>
   215b8:	4822      	ldr	r0, [pc, #136]	@ (21644 <_ZN18complex_no_dynamic3app17h64f57409c895c4d5E+0xa8>)
   215ba:	2106      	movs	r1, #6
   215bc:	462a      	mov	r2, r5
   215be:	4633      	mov	r3, r6
   215c0:	df04      	svc	4
   215c2:	2802      	cmp	r0, #2
   215c4:	d00e      	beq.n	215e4 <_ZN18complex_no_dynamic3app17h64f57409c895c4d5E+0x48>
   215c6:	481f      	ldr	r0, [pc, #124]	@ (21644 <_ZN18complex_no_dynamic3app17h64f57409c895c4d5E+0xa8>)
   215c8:	2105      	movs	r1, #5
   215ca:	aa05      	add	r2, sp, #20
   215cc:	2350      	movs	r3, #80	@ 0x50
   215ce:	df03      	svc	3
   215d0:	2802      	cmp	r0, #2
   215d2:	d007      	beq.n	215e4 <_ZN18complex_no_dynamic3app17h64f57409c895c4d5E+0x48>
   215d4:	481b      	ldr	r0, [pc, #108]	@ (21644 <_ZN18complex_no_dynamic3app17h64f57409c895c4d5E+0xa8>)
   215d6:	2106      	movs	r1, #6
   215d8:	2205      	movs	r2, #5
   215da:	2500      	movs	r5, #0
   215dc:	462b      	mov	r3, r5
   215de:	df02      	svc	2
   215e0:	287f      	cmp	r0, #127	@ 0x7f
   215e2:	d810      	bhi.n	21606 <_ZN18complex_no_dynamic3app17h64f57409c895c4d5E+0x6a>
   215e4:	2001      	movs	r0, #1
   215e6:	7020      	strb	r0, [r4, #0]
   215e8:	6061      	str	r1, [r4, #4]
   215ea:	4c16      	ldr	r4, [pc, #88]	@ (21644 <_ZN18complex_no_dynamic3app17h64f57409c895c4d5E+0xa8>)
   215ec:	2105      	movs	r1, #5
   215ee:	2500      	movs	r5, #0
   215f0:	4620      	mov	r0, r4
   215f2:	462a      	mov	r2, r5
   215f4:	462b      	mov	r3, r5
   215f6:	df03      	svc	3
   215f8:	2106      	movs	r1, #6
   215fa:	4620      	mov	r0, r4
   215fc:	462a      	mov	r2, r5
   215fe:	462b      	mov	r3, r5
   21600:	df04      	svc	4
   21602:	b019      	add	sp, #100	@ 0x64
   21604:	bdf0      	pop	{r4, r5, r6, r7, pc}
   21606:	480f      	ldr	r0, [pc, #60]	@ (21644 <_ZN18complex_no_dynamic3app17h64f57409c895c4d5E+0xa8>)
   21608:	2605      	movs	r6, #5
   2160a:	4631      	mov	r1, r6
   2160c:	462a      	mov	r2, r5
   2160e:	462b      	mov	r3, r5
   21610:	df03      	svc	3
   21612:	480c      	ldr	r0, [pc, #48]	@ (21644 <_ZN18complex_no_dynamic3app17h64f57409c895c4d5E+0xa8>)
   21614:	4631      	mov	r1, r6
   21616:	462a      	mov	r2, r5
   21618:	462b      	mov	r3, r5
   2161a:	df03      	svc	3
   2161c:	1c60      	adds	r0, r4, #1
   2161e:	a905      	add	r1, sp, #20
   21620:	2250      	movs	r2, #80	@ 0x50
   21622:	f005 fcf2 	bl	2700a <__aeabi_memcpy>
   21626:	7025      	strb	r5, [r4, #0]
   21628:	4c06      	ldr	r4, [pc, #24]	@ (21644 <_ZN18complex_no_dynamic3app17h64f57409c895c4d5E+0xa8>)
   2162a:	4620      	mov	r0, r4
   2162c:	4631      	mov	r1, r6
   2162e:	462a      	mov	r2, r5
   21630:	462b      	mov	r3, r5
   21632:	df03      	svc	3
   21634:	2106      	movs	r1, #6
   21636:	4620      	mov	r0, r4
   21638:	462a      	mov	r2, r5
   2163a:	462b      	mov	r3, r5
   2163c:	df04      	svc	4
   2163e:	b019      	add	sp, #100	@ 0x64
   21640:	bdf0      	pop	{r4, r5, r6, r7, pc}
   21642:	46c0      	nop			@ (mov r8, r8)
   21644:	00001aa9 	.word	0x00001aa9

00021648 <_ZN18complex_no_dynamic3app17h65b28e225a62d60dE>:
   21648:	b5f0      	push	{r4, r5, r6, r7, lr}
   2164a:	af03      	add	r7, sp, #12
   2164c:	b09f      	sub	sp, #124	@ 0x7c
   2164e:	4604      	mov	r4, r0
   21650:	ad01      	add	r5, sp, #4
   21652:	2622      	movs	r6, #34	@ 0x22
   21654:	4628      	mov	r0, r5
   21656:	4632      	mov	r2, r6
   21658:	f005 fcd7 	bl	2700a <__aeabi_memcpy>
   2165c:	a80a      	add	r0, sp, #40	@ 0x28
   2165e:	2151      	movs	r1, #81	@ 0x51
   21660:	f005 fb26 	bl	26cb0 <__aeabi_memclr4>
   21664:	4822      	ldr	r0, [pc, #136]	@ (216f0 <_ZN18complex_no_dynamic3app17h65b28e225a62d60dE+0xa8>)
   21666:	2109      	movs	r1, #9
   21668:	462a      	mov	r2, r5
   2166a:	4633      	mov	r3, r6
   2166c:	df04      	svc	4
   2166e:	2802      	cmp	r0, #2
   21670:	d00e      	beq.n	21690 <_ZN18complex_no_dynamic3app17h65b28e225a62d60dE+0x48>
   21672:	481f      	ldr	r0, [pc, #124]	@ (216f0 <_ZN18complex_no_dynamic3app17h65b28e225a62d60dE+0xa8>)
   21674:	2109      	movs	r1, #9
   21676:	aa0a      	add	r2, sp, #40	@ 0x28
   21678:	2351      	movs	r3, #81	@ 0x51
   2167a:	df03      	svc	3
   2167c:	2802      	cmp	r0, #2
   2167e:	d007      	beq.n	21690 <_ZN18complex_no_dynamic3app17h65b28e225a62d60dE+0x48>
   21680:	481b      	ldr	r0, [pc, #108]	@ (216f0 <_ZN18complex_no_dynamic3app17h65b28e225a62d60dE+0xa8>)
   21682:	2109      	movs	r1, #9
   21684:	2500      	movs	r5, #0
   21686:	460a      	mov	r2, r1
   21688:	462b      	mov	r3, r5
   2168a:	df02      	svc	2
   2168c:	287f      	cmp	r0, #127	@ 0x7f
   2168e:	d811      	bhi.n	216b4 <_ZN18complex_no_dynamic3app17h65b28e225a62d60dE+0x6c>
   21690:	2001      	movs	r0, #1
   21692:	7020      	strb	r0, [r4, #0]
   21694:	6061      	str	r1, [r4, #4]
   21696:	4c16      	ldr	r4, [pc, #88]	@ (216f0 <_ZN18complex_no_dynamic3app17h65b28e225a62d60dE+0xa8>)
   21698:	2509      	movs	r5, #9
   2169a:	2600      	movs	r6, #0
   2169c:	4620      	mov	r0, r4
   2169e:	4629      	mov	r1, r5
   216a0:	4632      	mov	r2, r6
   216a2:	4633      	mov	r3, r6
   216a4:	df03      	svc	3
   216a6:	4620      	mov	r0, r4
   216a8:	4629      	mov	r1, r5
   216aa:	4632      	mov	r2, r6
   216ac:	4633      	mov	r3, r6
   216ae:	df04      	svc	4
   216b0:	b01f      	add	sp, #124	@ 0x7c
   216b2:	bdf0      	pop	{r4, r5, r6, r7, pc}
   216b4:	480e      	ldr	r0, [pc, #56]	@ (216f0 <_ZN18complex_no_dynamic3app17h65b28e225a62d60dE+0xa8>)
   216b6:	2609      	movs	r6, #9
   216b8:	4631      	mov	r1, r6
   216ba:	462a      	mov	r2, r5
   216bc:	462b      	mov	r3, r5
   216be:	df03      	svc	3
   216c0:	480b      	ldr	r0, [pc, #44]	@ (216f0 <_ZN18complex_no_dynamic3app17h65b28e225a62d60dE+0xa8>)
   216c2:	4631      	mov	r1, r6
   216c4:	462a      	mov	r2, r5
   216c6:	462b      	mov	r3, r5
   216c8:	df03      	svc	3
   216ca:	1c60      	adds	r0, r4, #1
   216cc:	a90a      	add	r1, sp, #40	@ 0x28
   216ce:	2251      	movs	r2, #81	@ 0x51
   216d0:	f005 fc9b 	bl	2700a <__aeabi_memcpy>
   216d4:	7025      	strb	r5, [r4, #0]
   216d6:	4c06      	ldr	r4, [pc, #24]	@ (216f0 <_ZN18complex_no_dynamic3app17h65b28e225a62d60dE+0xa8>)
   216d8:	4620      	mov	r0, r4
   216da:	4631      	mov	r1, r6
   216dc:	462a      	mov	r2, r5
   216de:	462b      	mov	r3, r5
   216e0:	df03      	svc	3
   216e2:	4620      	mov	r0, r4
   216e4:	4631      	mov	r1, r6
   216e6:	462a      	mov	r2, r5
   216e8:	462b      	mov	r3, r5
   216ea:	df04      	svc	4
   216ec:	b01f      	add	sp, #124	@ 0x7c
   216ee:	bdf0      	pop	{r4, r5, r6, r7, pc}
   216f0:	0000055e 	.word	0x0000055e

000216f4 <_ZN18complex_no_dynamic3app17h662a6afe932d21d0E>:
   216f4:	b5f0      	push	{r4, r5, r6, r7, lr}
   216f6:	af03      	add	r7, sp, #12
   216f8:	b0a3      	sub	sp, #140	@ 0x8c
   216fa:	4604      	mov	r4, r0
   216fc:	466d      	mov	r5, sp
   216fe:	2655      	movs	r6, #85	@ 0x55
   21700:	4628      	mov	r0, r5
   21702:	4632      	mov	r2, r6
   21704:	f005 fc81 	bl	2700a <__aeabi_memcpy>
   21708:	a816      	add	r0, sp, #88	@ 0x58
   2170a:	2132      	movs	r1, #50	@ 0x32
   2170c:	f005 fad0 	bl	26cb0 <__aeabi_memclr4>
   21710:	4822      	ldr	r0, [pc, #136]	@ (2179c <_ZN18complex_no_dynamic3app17h662a6afe932d21d0E+0xa8>)
   21712:	2108      	movs	r1, #8
   21714:	462a      	mov	r2, r5
   21716:	4633      	mov	r3, r6
   21718:	df04      	svc	4
   2171a:	2802      	cmp	r0, #2
   2171c:	d00e      	beq.n	2173c <_ZN18complex_no_dynamic3app17h662a6afe932d21d0E+0x48>
   2171e:	481f      	ldr	r0, [pc, #124]	@ (2179c <_ZN18complex_no_dynamic3app17h662a6afe932d21d0E+0xa8>)
   21720:	2108      	movs	r1, #8
   21722:	aa16      	add	r2, sp, #88	@ 0x58
   21724:	2332      	movs	r3, #50	@ 0x32
   21726:	df03      	svc	3
   21728:	2802      	cmp	r0, #2
   2172a:	d007      	beq.n	2173c <_ZN18complex_no_dynamic3app17h662a6afe932d21d0E+0x48>
   2172c:	481b      	ldr	r0, [pc, #108]	@ (2179c <_ZN18complex_no_dynamic3app17h662a6afe932d21d0E+0xa8>)
   2172e:	2108      	movs	r1, #8
   21730:	2500      	movs	r5, #0
   21732:	460a      	mov	r2, r1
   21734:	462b      	mov	r3, r5
   21736:	df02      	svc	2
   21738:	287f      	cmp	r0, #127	@ 0x7f
   2173a:	d811      	bhi.n	21760 <_ZN18complex_no_dynamic3app17h662a6afe932d21d0E+0x6c>
   2173c:	2001      	movs	r0, #1
   2173e:	7020      	strb	r0, [r4, #0]
   21740:	6061      	str	r1, [r4, #4]
   21742:	4c16      	ldr	r4, [pc, #88]	@ (2179c <_ZN18complex_no_dynamic3app17h662a6afe932d21d0E+0xa8>)
   21744:	2508      	movs	r5, #8
   21746:	2600      	movs	r6, #0
   21748:	4620      	mov	r0, r4
   2174a:	4629      	mov	r1, r5
   2174c:	4632      	mov	r2, r6
   2174e:	4633      	mov	r3, r6
   21750:	df03      	svc	3
   21752:	4620      	mov	r0, r4
   21754:	4629      	mov	r1, r5
   21756:	4632      	mov	r2, r6
   21758:	4633      	mov	r3, r6
   2175a:	df04      	svc	4
   2175c:	b023      	add	sp, #140	@ 0x8c
   2175e:	bdf0      	pop	{r4, r5, r6, r7, pc}
   21760:	480e      	ldr	r0, [pc, #56]	@ (2179c <_ZN18complex_no_dynamic3app17h662a6afe932d21d0E+0xa8>)
   21762:	2608      	movs	r6, #8
   21764:	4631      	mov	r1, r6
   21766:	462a      	mov	r2, r5
   21768:	462b      	mov	r3, r5
   2176a:	df03      	svc	3
   2176c:	480b      	ldr	r0, [pc, #44]	@ (2179c <_ZN18complex_no_dynamic3app17h662a6afe932d21d0E+0xa8>)
   2176e:	4631      	mov	r1, r6
   21770:	462a      	mov	r2, r5
   21772:	462b      	mov	r3, r5
   21774:	df03      	svc	3
   21776:	1c60      	adds	r0, r4, #1
   21778:	a916      	add	r1, sp, #88	@ 0x58
   2177a:	2232      	movs	r2, #50	@ 0x32
   2177c:	f005 fc45 	bl	2700a <__aeabi_memcpy>
   21780:	7025      	strb	r5, [r4, #0]
   21782:	4c06      	ldr	r4, [pc, #24]	@ (2179c <_ZN18complex_no_dynamic3app17h662a6afe932d21d0E+0xa8>)
   21784:	4620      	mov	r0, r4
   21786:	4631      	mov	r1, r6
   21788:	462a      	mov	r2, r5
   2178a:	462b      	mov	r3, r5
   2178c:	df03      	svc	3
   2178e:	4620      	mov	r0, r4
   21790:	4631      	mov	r1, r6
   21792:	462a      	mov	r2, r5
   21794:	462b      	mov	r3, r5
   21796:	df04      	svc	4
   21798:	b023      	add	sp, #140	@ 0x8c
   2179a:	bdf0      	pop	{r4, r5, r6, r7, pc}
   2179c:	00002095 	.word	0x00002095

000217a0 <_ZN18complex_no_dynamic3app17h6884e3f4edc36089E>:
   217a0:	b5f0      	push	{r4, r5, r6, r7, lr}
   217a2:	af03      	add	r7, sp, #12
   217a4:	b0af      	sub	sp, #188	@ 0xbc
   217a6:	9001      	str	r0, [sp, #4]
   217a8:	ae02      	add	r6, sp, #8
   217aa:	244f      	movs	r4, #79	@ 0x4f
   217ac:	4630      	mov	r0, r6
   217ae:	4622      	mov	r2, r4
   217b0:	f005 fc2b 	bl	2700a <__aeabi_memcpy>
   217b4:	a816      	add	r0, sp, #88	@ 0x58
   217b6:	2161      	movs	r1, #97	@ 0x61
   217b8:	f005 fa7a 	bl	26cb0 <__aeabi_memclr4>
   217bc:	20db      	movs	r0, #219	@ 0xdb
   217be:	0045      	lsls	r5, r0, #1
   217c0:	2102      	movs	r1, #2
   217c2:	4628      	mov	r0, r5
   217c4:	4632      	mov	r2, r6
   217c6:	4623      	mov	r3, r4
   217c8:	df04      	svc	4
   217ca:	2802      	cmp	r0, #2
   217cc:	d00e      	beq.n	217ec <_ZN18complex_no_dynamic3app17h6884e3f4edc36089E+0x4c>
   217ce:	2108      	movs	r1, #8
   217d0:	aa16      	add	r2, sp, #88	@ 0x58
   217d2:	2361      	movs	r3, #97	@ 0x61
   217d4:	4628      	mov	r0, r5
   217d6:	df03      	svc	3
   217d8:	2802      	cmp	r0, #2
   217da:	d007      	beq.n	217ec <_ZN18complex_no_dynamic3app17h6884e3f4edc36089E+0x4c>
   217dc:	2102      	movs	r1, #2
   217de:	2208      	movs	r2, #8
   217e0:	2600      	movs	r6, #0
   217e2:	4628      	mov	r0, r5
   217e4:	4633      	mov	r3, r6
   217e6:	df02      	svc	2
   217e8:	287f      	cmp	r0, #127	@ 0x7f
   217ea:	d810      	bhi.n	2180e <_ZN18complex_no_dynamic3app17h6884e3f4edc36089E+0x6e>
   217ec:	2001      	movs	r0, #1
   217ee:	9a01      	ldr	r2, [sp, #4]
   217f0:	7010      	strb	r0, [r2, #0]
   217f2:	6051      	str	r1, [r2, #4]
   217f4:	2108      	movs	r1, #8
   217f6:	2400      	movs	r4, #0
   217f8:	4628      	mov	r0, r5
   217fa:	4622      	mov	r2, r4
   217fc:	4623      	mov	r3, r4
   217fe:	df03      	svc	3
   21800:	2102      	movs	r1, #2
   21802:	4628      	mov	r0, r5
   21804:	4622      	mov	r2, r4
   21806:	4623      	mov	r3, r4
   21808:	df04      	svc	4
   2180a:	b02f      	add	sp, #188	@ 0xbc
   2180c:	bdf0      	pop	{r4, r5, r6, r7, pc}
   2180e:	2408      	movs	r4, #8
   21810:	9400      	str	r4, [sp, #0]
   21812:	4628      	mov	r0, r5
   21814:	4621      	mov	r1, r4
   21816:	4632      	mov	r2, r6
   21818:	4633      	mov	r3, r6
   2181a:	df03      	svc	3
   2181c:	4628      	mov	r0, r5
   2181e:	4621      	mov	r1, r4
   21820:	4632      	mov	r2, r6
   21822:	4633      	mov	r3, r6
   21824:	df03      	svc	3
   21826:	9c01      	ldr	r4, [sp, #4]
   21828:	1c60      	adds	r0, r4, #1
   2182a:	a916      	add	r1, sp, #88	@ 0x58
   2182c:	2261      	movs	r2, #97	@ 0x61
   2182e:	f005 fbec 	bl	2700a <__aeabi_memcpy>
   21832:	7026      	strb	r6, [r4, #0]
   21834:	4628      	mov	r0, r5
   21836:	9900      	ldr	r1, [sp, #0]
   21838:	4632      	mov	r2, r6
   2183a:	4633      	mov	r3, r6
   2183c:	df03      	svc	3
   2183e:	2102      	movs	r1, #2
   21840:	4628      	mov	r0, r5
   21842:	4632      	mov	r2, r6
   21844:	4633      	mov	r3, r6
   21846:	df04      	svc	4
   21848:	b02f      	add	sp, #188	@ 0xbc
   2184a:	bdf0      	pop	{r4, r5, r6, r7, pc}

0002184c <_ZN18complex_no_dynamic3app17h6ad37ca408903647E>:
   2184c:	b5f0      	push	{r4, r5, r6, r7, lr}
   2184e:	af03      	add	r7, sp, #12
   21850:	b09d      	sub	sp, #116	@ 0x74
   21852:	4604      	mov	r4, r0
   21854:	ad01      	add	r5, sp, #4
   21856:	263c      	movs	r6, #60	@ 0x3c
   21858:	4628      	mov	r0, r5
   2185a:	4632      	mov	r2, r6
   2185c:	f005 fbd5 	bl	2700a <__aeabi_memcpy>
   21860:	a810      	add	r0, sp, #64	@ 0x40
   21862:	2132      	movs	r1, #50	@ 0x32
   21864:	f005 fa24 	bl	26cb0 <__aeabi_memclr4>
   21868:	4822      	ldr	r0, [pc, #136]	@ (218f4 <_ZN18complex_no_dynamic3app17h6ad37ca408903647E+0xa8>)
   2186a:	2106      	movs	r1, #6
   2186c:	462a      	mov	r2, r5
   2186e:	4633      	mov	r3, r6
   21870:	df04      	svc	4
   21872:	2802      	cmp	r0, #2
   21874:	d00e      	beq.n	21894 <_ZN18complex_no_dynamic3app17h6ad37ca408903647E+0x48>
   21876:	481f      	ldr	r0, [pc, #124]	@ (218f4 <_ZN18complex_no_dynamic3app17h6ad37ca408903647E+0xa8>)
   21878:	2108      	movs	r1, #8
   2187a:	aa10      	add	r2, sp, #64	@ 0x40
   2187c:	2332      	movs	r3, #50	@ 0x32
   2187e:	df03      	svc	3
   21880:	2802      	cmp	r0, #2
   21882:	d007      	beq.n	21894 <_ZN18complex_no_dynamic3app17h6ad37ca408903647E+0x48>
   21884:	481b      	ldr	r0, [pc, #108]	@ (218f4 <_ZN18complex_no_dynamic3app17h6ad37ca408903647E+0xa8>)
   21886:	2106      	movs	r1, #6
   21888:	2208      	movs	r2, #8
   2188a:	2500      	movs	r5, #0
   2188c:	462b      	mov	r3, r5
   2188e:	df02      	svc	2
   21890:	287f      	cmp	r0, #127	@ 0x7f
   21892:	d810      	bhi.n	218b6 <_ZN18complex_no_dynamic3app17h6ad37ca408903647E+0x6a>
   21894:	2001      	movs	r0, #1
   21896:	7020      	strb	r0, [r4, #0]
   21898:	6061      	str	r1, [r4, #4]
   2189a:	4c16      	ldr	r4, [pc, #88]	@ (218f4 <_ZN18complex_no_dynamic3app17h6ad37ca408903647E+0xa8>)
   2189c:	2108      	movs	r1, #8
   2189e:	2500      	movs	r5, #0
   218a0:	4620      	mov	r0, r4
   218a2:	462a      	mov	r2, r5
   218a4:	462b      	mov	r3, r5
   218a6:	df03      	svc	3
   218a8:	2106      	movs	r1, #6
   218aa:	4620      	mov	r0, r4
   218ac:	462a      	mov	r2, r5
   218ae:	462b      	mov	r3, r5
   218b0:	df04      	svc	4
   218b2:	b01d      	add	sp, #116	@ 0x74
   218b4:	bdf0      	pop	{r4, r5, r6, r7, pc}
   218b6:	480f      	ldr	r0, [pc, #60]	@ (218f4 <_ZN18complex_no_dynamic3app17h6ad37ca408903647E+0xa8>)
   218b8:	2608      	movs	r6, #8
   218ba:	4631      	mov	r1, r6
   218bc:	462a      	mov	r2, r5
   218be:	462b      	mov	r3, r5
   218c0:	df03      	svc	3
   218c2:	480c      	ldr	r0, [pc, #48]	@ (218f4 <_ZN18complex_no_dynamic3app17h6ad37ca408903647E+0xa8>)
   218c4:	4631      	mov	r1, r6
   218c6:	462a      	mov	r2, r5
   218c8:	462b      	mov	r3, r5
   218ca:	df03      	svc	3
   218cc:	1c60      	adds	r0, r4, #1
   218ce:	a910      	add	r1, sp, #64	@ 0x40
   218d0:	2232      	movs	r2, #50	@ 0x32
   218d2:	f005 fb9a 	bl	2700a <__aeabi_memcpy>
   218d6:	7025      	strb	r5, [r4, #0]
   218d8:	4c06      	ldr	r4, [pc, #24]	@ (218f4 <_ZN18complex_no_dynamic3app17h6ad37ca408903647E+0xa8>)
   218da:	4620      	mov	r0, r4
   218dc:	4631      	mov	r1, r6
   218de:	462a      	mov	r2, r5
   218e0:	462b      	mov	r3, r5
   218e2:	df03      	svc	3
   218e4:	2106      	movs	r1, #6
   218e6:	4620      	mov	r0, r4
   218e8:	462a      	mov	r2, r5
   218ea:	462b      	mov	r3, r5
   218ec:	df04      	svc	4
   218ee:	b01d      	add	sp, #116	@ 0x74
   218f0:	bdf0      	pop	{r4, r5, r6, r7, pc}
   218f2:	46c0      	nop			@ (mov r8, r8)
   218f4:	00001b1e 	.word	0x00001b1e

000218f8 <_ZN18complex_no_dynamic3app17h6b6ce324fb950163E>:
   218f8:	b5f0      	push	{r4, r5, r6, r7, lr}
   218fa:	af03      	add	r7, sp, #12
   218fc:	b08f      	sub	sp, #60	@ 0x3c
   218fe:	4604      	mov	r4, r0
   21900:	ad01      	add	r5, sp, #4
   21902:	2618      	movs	r6, #24
   21904:	4628      	mov	r0, r5
   21906:	4632      	mov	r2, r6
   21908:	f005 fb7f 	bl	2700a <__aeabi_memcpy>
   2190c:	a807      	add	r0, sp, #28
   2190e:	2100      	movs	r1, #0
   21910:	8381      	strh	r1, [r0, #28]
   21912:	910d      	str	r1, [sp, #52]	@ 0x34
   21914:	910c      	str	r1, [sp, #48]	@ 0x30
   21916:	910b      	str	r1, [sp, #44]	@ 0x2c
   21918:	910a      	str	r1, [sp, #40]	@ 0x28
   2191a:	9109      	str	r1, [sp, #36]	@ 0x24
   2191c:	9108      	str	r1, [sp, #32]
   2191e:	9107      	str	r1, [sp, #28]
   21920:	4822      	ldr	r0, [pc, #136]	@ (219ac <_ZN18complex_no_dynamic3app17h6b6ce324fb950163E+0xb4>)
   21922:	2109      	movs	r1, #9
   21924:	462a      	mov	r2, r5
   21926:	4633      	mov	r3, r6
   21928:	df04      	svc	4
   2192a:	2802      	cmp	r0, #2
   2192c:	d00e      	beq.n	2194c <_ZN18complex_no_dynamic3app17h6b6ce324fb950163E+0x54>
   2192e:	481f      	ldr	r0, [pc, #124]	@ (219ac <_ZN18complex_no_dynamic3app17h6b6ce324fb950163E+0xb4>)
   21930:	2105      	movs	r1, #5
   21932:	aa07      	add	r2, sp, #28
   21934:	231e      	movs	r3, #30
   21936:	df03      	svc	3
   21938:	2802      	cmp	r0, #2
   2193a:	d007      	beq.n	2194c <_ZN18complex_no_dynamic3app17h6b6ce324fb950163E+0x54>
   2193c:	481b      	ldr	r0, [pc, #108]	@ (219ac <_ZN18complex_no_dynamic3app17h6b6ce324fb950163E+0xb4>)
   2193e:	2109      	movs	r1, #9
   21940:	2205      	movs	r2, #5
   21942:	2500      	movs	r5, #0
   21944:	462b      	mov	r3, r5
   21946:	df02      	svc	2
   21948:	287f      	cmp	r0, #127	@ 0x7f
   2194a:	d810      	bhi.n	2196e <_ZN18complex_no_dynamic3app17h6b6ce324fb950163E+0x76>
   2194c:	2001      	movs	r0, #1
   2194e:	7020      	strb	r0, [r4, #0]
   21950:	6061      	str	r1, [r4, #4]
   21952:	4c16      	ldr	r4, [pc, #88]	@ (219ac <_ZN18complex_no_dynamic3app17h6b6ce324fb950163E+0xb4>)
   21954:	2105      	movs	r1, #5
   21956:	2500      	movs	r5, #0
   21958:	4620      	mov	r0, r4
   2195a:	462a      	mov	r2, r5
   2195c:	462b      	mov	r3, r5
   2195e:	df03      	svc	3
   21960:	2109      	movs	r1, #9
   21962:	4620      	mov	r0, r4
   21964:	462a      	mov	r2, r5
   21966:	462b      	mov	r3, r5
   21968:	df04      	svc	4
   2196a:	b00f      	add	sp, #60	@ 0x3c
   2196c:	bdf0      	pop	{r4, r5, r6, r7, pc}
   2196e:	480f      	ldr	r0, [pc, #60]	@ (219ac <_ZN18complex_no_dynamic3app17h6b6ce324fb950163E+0xb4>)
   21970:	2605      	movs	r6, #5
   21972:	4631      	mov	r1, r6
   21974:	462a      	mov	r2, r5
   21976:	462b      	mov	r3, r5
   21978:	df03      	svc	3
   2197a:	480c      	ldr	r0, [pc, #48]	@ (219ac <_ZN18complex_no_dynamic3app17h6b6ce324fb950163E+0xb4>)
   2197c:	4631      	mov	r1, r6
   2197e:	462a      	mov	r2, r5
   21980:	462b      	mov	r3, r5
   21982:	df03      	svc	3
   21984:	1c60      	adds	r0, r4, #1
   21986:	a907      	add	r1, sp, #28
   21988:	221e      	movs	r2, #30
   2198a:	f005 fb3e 	bl	2700a <__aeabi_memcpy>
   2198e:	7025      	strb	r5, [r4, #0]
   21990:	4c06      	ldr	r4, [pc, #24]	@ (219ac <_ZN18complex_no_dynamic3app17h6b6ce324fb950163E+0xb4>)
   21992:	4620      	mov	r0, r4
   21994:	4631      	mov	r1, r6
   21996:	462a      	mov	r2, r5
   21998:	462b      	mov	r3, r5
   2199a:	df03      	svc	3
   2199c:	2109      	movs	r1, #9
   2199e:	4620      	mov	r0, r4
   219a0:	462a      	mov	r2, r5
   219a2:	462b      	mov	r3, r5
   219a4:	df04      	svc	4
   219a6:	b00f      	add	sp, #60	@ 0x3c
   219a8:	bdf0      	pop	{r4, r5, r6, r7, pc}
   219aa:	46c0      	nop			@ (mov r8, r8)
   219ac:	00000cbb 	.word	0x00000cbb

000219b0 <_ZN18complex_no_dynamic3app17h6cf773f5c310c178E>:
   219b0:	b5f0      	push	{r4, r5, r6, r7, lr}
   219b2:	af03      	add	r7, sp, #12
   219b4:	b089      	sub	sp, #36	@ 0x24
   219b6:	4604      	mov	r4, r0
   219b8:	466d      	mov	r5, sp
   219ba:	260f      	movs	r6, #15
   219bc:	4628      	mov	r0, r5
   219be:	4632      	mov	r2, r6
   219c0:	f005 fb23 	bl	2700a <__aeabi_memcpy>
   219c4:	a804      	add	r0, sp, #16
   219c6:	2100      	movs	r1, #0
   219c8:	7481      	strb	r1, [r0, #18]
   219ca:	8201      	strh	r1, [r0, #16]
   219cc:	9107      	str	r1, [sp, #28]
   219ce:	9106      	str	r1, [sp, #24]
   219d0:	9105      	str	r1, [sp, #20]
   219d2:	9104      	str	r1, [sp, #16]
   219d4:	4821      	ldr	r0, [pc, #132]	@ (21a5c <_ZN18complex_no_dynamic3app17h6cf773f5c310c178E+0xac>)
   219d6:	2103      	movs	r1, #3
   219d8:	462a      	mov	r2, r5
   219da:	4633      	mov	r3, r6
   219dc:	df04      	svc	4
   219de:	2802      	cmp	r0, #2
   219e0:	d00e      	beq.n	21a00 <_ZN18complex_no_dynamic3app17h6cf773f5c310c178E+0x50>
   219e2:	481e      	ldr	r0, [pc, #120]	@ (21a5c <_ZN18complex_no_dynamic3app17h6cf773f5c310c178E+0xac>)
   219e4:	2100      	movs	r1, #0
   219e6:	aa04      	add	r2, sp, #16
   219e8:	2313      	movs	r3, #19
   219ea:	df03      	svc	3
   219ec:	2802      	cmp	r0, #2
   219ee:	d007      	beq.n	21a00 <_ZN18complex_no_dynamic3app17h6cf773f5c310c178E+0x50>
   219f0:	481a      	ldr	r0, [pc, #104]	@ (21a5c <_ZN18complex_no_dynamic3app17h6cf773f5c310c178E+0xac>)
   219f2:	2103      	movs	r1, #3
   219f4:	2500      	movs	r5, #0
   219f6:	462a      	mov	r2, r5
   219f8:	462b      	mov	r3, r5
   219fa:	df02      	svc	2
   219fc:	287f      	cmp	r0, #127	@ 0x7f
   219fe:	d810      	bhi.n	21a22 <_ZN18complex_no_dynamic3app17h6cf773f5c310c178E+0x72>
   21a00:	2001      	movs	r0, #1
   21a02:	7020      	strb	r0, [r4, #0]
   21a04:	6061      	str	r1, [r4, #4]
   21a06:	4c15      	ldr	r4, [pc, #84]	@ (21a5c <_ZN18complex_no_dynamic3app17h6cf773f5c310c178E+0xac>)
   21a08:	2500      	movs	r5, #0
   21a0a:	4620      	mov	r0, r4
   21a0c:	4629      	mov	r1, r5
   21a0e:	462a      	mov	r2, r5
   21a10:	462b      	mov	r3, r5
   21a12:	df03      	svc	3
   21a14:	2103      	movs	r1, #3
   21a16:	4620      	mov	r0, r4
   21a18:	462a      	mov	r2, r5
   21a1a:	462b      	mov	r3, r5
   21a1c:	df04      	svc	4
   21a1e:	b009      	add	sp, #36	@ 0x24
   21a20:	bdf0      	pop	{r4, r5, r6, r7, pc}
   21a22:	4e0e      	ldr	r6, [pc, #56]	@ (21a5c <_ZN18complex_no_dynamic3app17h6cf773f5c310c178E+0xac>)
   21a24:	4630      	mov	r0, r6
   21a26:	4629      	mov	r1, r5
   21a28:	462a      	mov	r2, r5
   21a2a:	462b      	mov	r3, r5
   21a2c:	df03      	svc	3
   21a2e:	4630      	mov	r0, r6
   21a30:	4629      	mov	r1, r5
   21a32:	462a      	mov	r2, r5
   21a34:	462b      	mov	r3, r5
   21a36:	df03      	svc	3
   21a38:	1c60      	adds	r0, r4, #1
   21a3a:	a904      	add	r1, sp, #16
   21a3c:	2213      	movs	r2, #19
   21a3e:	f005 fae4 	bl	2700a <__aeabi_memcpy>
   21a42:	7025      	strb	r5, [r4, #0]
   21a44:	4630      	mov	r0, r6
   21a46:	4629      	mov	r1, r5
   21a48:	462a      	mov	r2, r5
   21a4a:	462b      	mov	r3, r5
   21a4c:	df03      	svc	3
   21a4e:	2103      	movs	r1, #3
   21a50:	4630      	mov	r0, r6
   21a52:	462a      	mov	r2, r5
   21a54:	462b      	mov	r3, r5
   21a56:	df04      	svc	4
   21a58:	b009      	add	sp, #36	@ 0x24
   21a5a:	bdf0      	pop	{r4, r5, r6, r7, pc}
   21a5c:	00001e4b 	.word	0x00001e4b

00021a60 <_ZN18complex_no_dynamic3app17h6e88ccb4ee4ff325E>:
   21a60:	b5f0      	push	{r4, r5, r6, r7, lr}
   21a62:	af03      	add	r7, sp, #12
   21a64:	b0af      	sub	sp, #188	@ 0xbc
   21a66:	4604      	mov	r4, r0
   21a68:	ad01      	add	r5, sp, #4
   21a6a:	265e      	movs	r6, #94	@ 0x5e
   21a6c:	4628      	mov	r0, r5
   21a6e:	4632      	mov	r2, r6
   21a70:	f005 facb 	bl	2700a <__aeabi_memcpy>
   21a74:	a819      	add	r0, sp, #100	@ 0x64
   21a76:	2155      	movs	r1, #85	@ 0x55
   21a78:	f005 f91a 	bl	26cb0 <__aeabi_memclr4>
   21a7c:	4822      	ldr	r0, [pc, #136]	@ (21b08 <_ZN18complex_no_dynamic3app17h6e88ccb4ee4ff325E+0xa8>)
   21a7e:	2107      	movs	r1, #7
   21a80:	462a      	mov	r2, r5
   21a82:	4633      	mov	r3, r6
   21a84:	df04      	svc	4
   21a86:	2802      	cmp	r0, #2
   21a88:	d00e      	beq.n	21aa8 <_ZN18complex_no_dynamic3app17h6e88ccb4ee4ff325E+0x48>
   21a8a:	481f      	ldr	r0, [pc, #124]	@ (21b08 <_ZN18complex_no_dynamic3app17h6e88ccb4ee4ff325E+0xa8>)
   21a8c:	2103      	movs	r1, #3
   21a8e:	aa19      	add	r2, sp, #100	@ 0x64
   21a90:	2355      	movs	r3, #85	@ 0x55
   21a92:	df03      	svc	3
   21a94:	2802      	cmp	r0, #2
   21a96:	d007      	beq.n	21aa8 <_ZN18complex_no_dynamic3app17h6e88ccb4ee4ff325E+0x48>
   21a98:	481b      	ldr	r0, [pc, #108]	@ (21b08 <_ZN18complex_no_dynamic3app17h6e88ccb4ee4ff325E+0xa8>)
   21a9a:	2107      	movs	r1, #7
   21a9c:	2203      	movs	r2, #3
   21a9e:	2500      	movs	r5, #0
   21aa0:	462b      	mov	r3, r5
   21aa2:	df02      	svc	2
   21aa4:	287f      	cmp	r0, #127	@ 0x7f
   21aa6:	d810      	bhi.n	21aca <_ZN18complex_no_dynamic3app17h6e88ccb4ee4ff325E+0x6a>
   21aa8:	2001      	movs	r0, #1
   21aaa:	7020      	strb	r0, [r4, #0]
   21aac:	6061      	str	r1, [r4, #4]
   21aae:	4c16      	ldr	r4, [pc, #88]	@ (21b08 <_ZN18complex_no_dynamic3app17h6e88ccb4ee4ff325E+0xa8>)
   21ab0:	2103      	movs	r1, #3
   21ab2:	2500      	movs	r5, #0
   21ab4:	4620      	mov	r0, r4
   21ab6:	462a      	mov	r2, r5
   21ab8:	462b      	mov	r3, r5
   21aba:	df03      	svc	3
   21abc:	2107      	movs	r1, #7
   21abe:	4620      	mov	r0, r4
   21ac0:	462a      	mov	r2, r5
   21ac2:	462b      	mov	r3, r5
   21ac4:	df04      	svc	4
   21ac6:	b02f      	add	sp, #188	@ 0xbc
   21ac8:	bdf0      	pop	{r4, r5, r6, r7, pc}
   21aca:	480f      	ldr	r0, [pc, #60]	@ (21b08 <_ZN18complex_no_dynamic3app17h6e88ccb4ee4ff325E+0xa8>)
   21acc:	2603      	movs	r6, #3
   21ace:	4631      	mov	r1, r6
   21ad0:	462a      	mov	r2, r5
   21ad2:	462b      	mov	r3, r5
   21ad4:	df03      	svc	3
   21ad6:	480c      	ldr	r0, [pc, #48]	@ (21b08 <_ZN18complex_no_dynamic3app17h6e88ccb4ee4ff325E+0xa8>)
   21ad8:	4631      	mov	r1, r6
   21ada:	462a      	mov	r2, r5
   21adc:	462b      	mov	r3, r5
   21ade:	df03      	svc	3
   21ae0:	1c60      	adds	r0, r4, #1
   21ae2:	a919      	add	r1, sp, #100	@ 0x64
   21ae4:	2255      	movs	r2, #85	@ 0x55
   21ae6:	f005 fa90 	bl	2700a <__aeabi_memcpy>
   21aea:	7025      	strb	r5, [r4, #0]
   21aec:	4c06      	ldr	r4, [pc, #24]	@ (21b08 <_ZN18complex_no_dynamic3app17h6e88ccb4ee4ff325E+0xa8>)
   21aee:	4620      	mov	r0, r4
   21af0:	4631      	mov	r1, r6
   21af2:	462a      	mov	r2, r5
   21af4:	462b      	mov	r3, r5
   21af6:	df03      	svc	3
   21af8:	2107      	movs	r1, #7
   21afa:	4620      	mov	r0, r4
   21afc:	462a      	mov	r2, r5
   21afe:	462b      	mov	r3, r5
   21b00:	df04      	svc	4
   21b02:	b02f      	add	sp, #188	@ 0xbc
   21b04:	bdf0      	pop	{r4, r5, r6, r7, pc}
   21b06:	46c0      	nop			@ (mov r8, r8)
   21b08:	0000178a 	.word	0x0000178a

00021b0c <_ZN18complex_no_dynamic3app17h728349c28cc4eb83E>:
   21b0c:	b5f0      	push	{r4, r5, r6, r7, lr}
   21b0e:	af03      	add	r7, sp, #12
   21b10:	b0a3      	sub	sp, #140	@ 0x8c
   21b12:	4604      	mov	r4, r0
   21b14:	466d      	mov	r5, sp
   21b16:	2663      	movs	r6, #99	@ 0x63
   21b18:	4628      	mov	r0, r5
   21b1a:	4632      	mov	r2, r6
   21b1c:	f005 fa75 	bl	2700a <__aeabi_memcpy>
   21b20:	a819      	add	r0, sp, #100	@ 0x64
   21b22:	2127      	movs	r1, #39	@ 0x27
   21b24:	f005 f8c4 	bl	26cb0 <__aeabi_memclr4>
   21b28:	4821      	ldr	r0, [pc, #132]	@ (21bb0 <_ZN18complex_no_dynamic3app17h728349c28cc4eb83E+0xa4>)
   21b2a:	2107      	movs	r1, #7
   21b2c:	462a      	mov	r2, r5
   21b2e:	4633      	mov	r3, r6
   21b30:	df04      	svc	4
   21b32:	2802      	cmp	r0, #2
   21b34:	d00e      	beq.n	21b54 <_ZN18complex_no_dynamic3app17h728349c28cc4eb83E+0x48>
   21b36:	481e      	ldr	r0, [pc, #120]	@ (21bb0 <_ZN18complex_no_dynamic3app17h728349c28cc4eb83E+0xa4>)
   21b38:	2100      	movs	r1, #0
   21b3a:	aa19      	add	r2, sp, #100	@ 0x64
   21b3c:	2327      	movs	r3, #39	@ 0x27
   21b3e:	df03      	svc	3
   21b40:	2802      	cmp	r0, #2
   21b42:	d007      	beq.n	21b54 <_ZN18complex_no_dynamic3app17h728349c28cc4eb83E+0x48>
   21b44:	481a      	ldr	r0, [pc, #104]	@ (21bb0 <_ZN18complex_no_dynamic3app17h728349c28cc4eb83E+0xa4>)
   21b46:	2107      	movs	r1, #7
   21b48:	2500      	movs	r5, #0
   21b4a:	462a      	mov	r2, r5
   21b4c:	462b      	mov	r3, r5
   21b4e:	df02      	svc	2
   21b50:	287f      	cmp	r0, #127	@ 0x7f
   21b52:	d810      	bhi.n	21b76 <_ZN18complex_no_dynamic3app17h728349c28cc4eb83E+0x6a>
   21b54:	2001      	movs	r0, #1
   21b56:	7020      	strb	r0, [r4, #0]
   21b58:	6061      	str	r1, [r4, #4]
   21b5a:	4c15      	ldr	r4, [pc, #84]	@ (21bb0 <_ZN18complex_no_dynamic3app17h728349c28cc4eb83E+0xa4>)
   21b5c:	2500      	movs	r5, #0
   21b5e:	4620      	mov	r0, r4
   21b60:	4629      	mov	r1, r5
   21b62:	462a      	mov	r2, r5
   21b64:	462b      	mov	r3, r5
   21b66:	df03      	svc	3
   21b68:	2107      	movs	r1, #7
   21b6a:	4620      	mov	r0, r4
   21b6c:	462a      	mov	r2, r5
   21b6e:	462b      	mov	r3, r5
   21b70:	df04      	svc	4
   21b72:	b023      	add	sp, #140	@ 0x8c
   21b74:	bdf0      	pop	{r4, r5, r6, r7, pc}
   21b76:	4e0e      	ldr	r6, [pc, #56]	@ (21bb0 <_ZN18complex_no_dynamic3app17h728349c28cc4eb83E+0xa4>)
   21b78:	4630      	mov	r0, r6
   21b7a:	4629      	mov	r1, r5
   21b7c:	462a      	mov	r2, r5
   21b7e:	462b      	mov	r3, r5
   21b80:	df03      	svc	3
   21b82:	4630      	mov	r0, r6
   21b84:	4629      	mov	r1, r5
   21b86:	462a      	mov	r2, r5
   21b88:	462b      	mov	r3, r5
   21b8a:	df03      	svc	3
   21b8c:	1c60      	adds	r0, r4, #1
   21b8e:	a919      	add	r1, sp, #100	@ 0x64
   21b90:	2227      	movs	r2, #39	@ 0x27
   21b92:	f005 fa3a 	bl	2700a <__aeabi_memcpy>
   21b96:	7025      	strb	r5, [r4, #0]
   21b98:	4630      	mov	r0, r6
   21b9a:	4629      	mov	r1, r5
   21b9c:	462a      	mov	r2, r5
   21b9e:	462b      	mov	r3, r5
   21ba0:	df03      	svc	3
   21ba2:	2107      	movs	r1, #7
   21ba4:	4630      	mov	r0, r6
   21ba6:	462a      	mov	r2, r5
   21ba8:	462b      	mov	r3, r5
   21baa:	df04      	svc	4
   21bac:	b023      	add	sp, #140	@ 0x8c
   21bae:	bdf0      	pop	{r4, r5, r6, r7, pc}
   21bb0:	00001e54 	.word	0x00001e54

00021bb4 <_ZN18complex_no_dynamic3app17h783340d3f6631edcE>:
   21bb4:	b5f0      	push	{r4, r5, r6, r7, lr}
   21bb6:	af03      	add	r7, sp, #12
   21bb8:	b0a1      	sub	sp, #132	@ 0x84
   21bba:	4604      	mov	r4, r0
   21bbc:	466d      	mov	r5, sp
   21bbe:	262d      	movs	r6, #45	@ 0x2d
   21bc0:	4628      	mov	r0, r5
   21bc2:	4632      	mov	r2, r6
   21bc4:	f005 fa21 	bl	2700a <__aeabi_memcpy>
   21bc8:	a80c      	add	r0, sp, #48	@ 0x30
   21bca:	2153      	movs	r1, #83	@ 0x53
   21bcc:	f005 f870 	bl	26cb0 <__aeabi_memclr4>
   21bd0:	4822      	ldr	r0, [pc, #136]	@ (21c5c <_ZN18complex_no_dynamic3app17h783340d3f6631edcE+0xa8>)
   21bd2:	2102      	movs	r1, #2
   21bd4:	462a      	mov	r2, r5
   21bd6:	4633      	mov	r3, r6
   21bd8:	df04      	svc	4
   21bda:	2802      	cmp	r0, #2
   21bdc:	d00e      	beq.n	21bfc <_ZN18complex_no_dynamic3app17h783340d3f6631edcE+0x48>
   21bde:	481f      	ldr	r0, [pc, #124]	@ (21c5c <_ZN18complex_no_dynamic3app17h783340d3f6631edcE+0xa8>)
   21be0:	2107      	movs	r1, #7
   21be2:	aa0c      	add	r2, sp, #48	@ 0x30
   21be4:	2353      	movs	r3, #83	@ 0x53
   21be6:	df03      	svc	3
   21be8:	2802      	cmp	r0, #2
   21bea:	d007      	beq.n	21bfc <_ZN18complex_no_dynamic3app17h783340d3f6631edcE+0x48>
   21bec:	481b      	ldr	r0, [pc, #108]	@ (21c5c <_ZN18complex_no_dynamic3app17h783340d3f6631edcE+0xa8>)
   21bee:	2102      	movs	r1, #2
   21bf0:	2207      	movs	r2, #7
   21bf2:	2500      	movs	r5, #0
   21bf4:	462b      	mov	r3, r5
   21bf6:	df02      	svc	2
   21bf8:	287f      	cmp	r0, #127	@ 0x7f
   21bfa:	d810      	bhi.n	21c1e <_ZN18complex_no_dynamic3app17h783340d3f6631edcE+0x6a>
   21bfc:	2001      	movs	r0, #1
   21bfe:	7020      	strb	r0, [r4, #0]
   21c00:	6061      	str	r1, [r4, #4]
   21c02:	4c16      	ldr	r4, [pc, #88]	@ (21c5c <_ZN18complex_no_dynamic3app17h783340d3f6631edcE+0xa8>)
   21c04:	2107      	movs	r1, #7
   21c06:	2500      	movs	r5, #0
   21c08:	4620      	mov	r0, r4
   21c0a:	462a      	mov	r2, r5
   21c0c:	462b      	mov	r3, r5
   21c0e:	df03      	svc	3
   21c10:	2102      	movs	r1, #2
   21c12:	4620      	mov	r0, r4
   21c14:	462a      	mov	r2, r5
   21c16:	462b      	mov	r3, r5
   21c18:	df04      	svc	4
   21c1a:	b021      	add	sp, #132	@ 0x84
   21c1c:	bdf0      	pop	{r4, r5, r6, r7, pc}
   21c1e:	480f      	ldr	r0, [pc, #60]	@ (21c5c <_ZN18complex_no_dynamic3app17h783340d3f6631edcE+0xa8>)
   21c20:	2607      	movs	r6, #7
   21c22:	4631      	mov	r1, r6
   21c24:	462a      	mov	r2, r5
   21c26:	462b      	mov	r3, r5
   21c28:	df03      	svc	3
   21c2a:	480c      	ldr	r0, [pc, #48]	@ (21c5c <_ZN18complex_no_dynamic3app17h783340d3f6631edcE+0xa8>)
   21c2c:	4631      	mov	r1, r6
   21c2e:	462a      	mov	r2, r5
   21c30:	462b      	mov	r3, r5
   21c32:	df03      	svc	3
   21c34:	1c60      	adds	r0, r4, #1
   21c36:	a90c      	add	r1, sp, #48	@ 0x30
   21c38:	2253      	movs	r2, #83	@ 0x53
   21c3a:	f005 f9e6 	bl	2700a <__aeabi_memcpy>
   21c3e:	7025      	strb	r5, [r4, #0]
   21c40:	4c06      	ldr	r4, [pc, #24]	@ (21c5c <_ZN18complex_no_dynamic3app17h783340d3f6631edcE+0xa8>)
   21c42:	4620      	mov	r0, r4
   21c44:	4631      	mov	r1, r6
   21c46:	462a      	mov	r2, r5
   21c48:	462b      	mov	r3, r5
   21c4a:	df03      	svc	3
   21c4c:	2102      	movs	r1, #2
   21c4e:	4620      	mov	r0, r4
   21c50:	462a      	mov	r2, r5
   21c52:	462b      	mov	r3, r5
   21c54:	df04      	svc	4
   21c56:	b021      	add	sp, #132	@ 0x84
   21c58:	bdf0      	pop	{r4, r5, r6, r7, pc}
   21c5a:	46c0      	nop			@ (mov r8, r8)
   21c5c:	00000ec3 	.word	0x00000ec3

00021c60 <_ZN18complex_no_dynamic3app17h7fe906ac8cec4b31E>:
   21c60:	b5f0      	push	{r4, r5, r6, r7, lr}
   21c62:	af03      	add	r7, sp, #12
   21c64:	b09f      	sub	sp, #124	@ 0x7c
   21c66:	4604      	mov	r4, r0
   21c68:	ad01      	add	r5, sp, #4
   21c6a:	2627      	movs	r6, #39	@ 0x27
   21c6c:	4628      	mov	r0, r5
   21c6e:	4632      	mov	r2, r6
   21c70:	f005 f9cb 	bl	2700a <__aeabi_memcpy>
   21c74:	a80b      	add	r0, sp, #44	@ 0x2c
   21c76:	214f      	movs	r1, #79	@ 0x4f
   21c78:	f005 f81a 	bl	26cb0 <__aeabi_memclr4>
   21c7c:	4821      	ldr	r0, [pc, #132]	@ (21d04 <_ZN18complex_no_dynamic3app17h7fe906ac8cec4b31E+0xa4>)
   21c7e:	2109      	movs	r1, #9
   21c80:	462a      	mov	r2, r5
   21c82:	4633      	mov	r3, r6
   21c84:	df04      	svc	4
   21c86:	2802      	cmp	r0, #2
   21c88:	d00e      	beq.n	21ca8 <_ZN18complex_no_dynamic3app17h7fe906ac8cec4b31E+0x48>
   21c8a:	481e      	ldr	r0, [pc, #120]	@ (21d04 <_ZN18complex_no_dynamic3app17h7fe906ac8cec4b31E+0xa4>)
   21c8c:	2100      	movs	r1, #0
   21c8e:	aa0b      	add	r2, sp, #44	@ 0x2c
   21c90:	234f      	movs	r3, #79	@ 0x4f
   21c92:	df03      	svc	3
   21c94:	2802      	cmp	r0, #2
   21c96:	d007      	beq.n	21ca8 <_ZN18complex_no_dynamic3app17h7fe906ac8cec4b31E+0x48>
   21c98:	481a      	ldr	r0, [pc, #104]	@ (21d04 <_ZN18complex_no_dynamic3app17h7fe906ac8cec4b31E+0xa4>)
   21c9a:	2109      	movs	r1, #9
   21c9c:	2500      	movs	r5, #0
   21c9e:	462a      	mov	r2, r5
   21ca0:	462b      	mov	r3, r5
   21ca2:	df02      	svc	2
   21ca4:	287f      	cmp	r0, #127	@ 0x7f
   21ca6:	d810      	bhi.n	21cca <_ZN18complex_no_dynamic3app17h7fe906ac8cec4b31E+0x6a>
   21ca8:	2001      	movs	r0, #1
   21caa:	7020      	strb	r0, [r4, #0]
   21cac:	6061      	str	r1, [r4, #4]
   21cae:	4c15      	ldr	r4, [pc, #84]	@ (21d04 <_ZN18complex_no_dynamic3app17h7fe906ac8cec4b31E+0xa4>)
   21cb0:	2500      	movs	r5, #0
   21cb2:	4620      	mov	r0, r4
   21cb4:	4629      	mov	r1, r5
   21cb6:	462a      	mov	r2, r5
   21cb8:	462b      	mov	r3, r5
   21cba:	df03      	svc	3
   21cbc:	2109      	movs	r1, #9
   21cbe:	4620      	mov	r0, r4
   21cc0:	462a      	mov	r2, r5
   21cc2:	462b      	mov	r3, r5
   21cc4:	df04      	svc	4
   21cc6:	b01f      	add	sp, #124	@ 0x7c
   21cc8:	bdf0      	pop	{r4, r5, r6, r7, pc}
   21cca:	4e0e      	ldr	r6, [pc, #56]	@ (21d04 <_ZN18complex_no_dynamic3app17h7fe906ac8cec4b31E+0xa4>)
   21ccc:	4630      	mov	r0, r6
   21cce:	4629      	mov	r1, r5
   21cd0:	462a      	mov	r2, r5
   21cd2:	462b      	mov	r3, r5
   21cd4:	df03      	svc	3
   21cd6:	4630      	mov	r0, r6
   21cd8:	4629      	mov	r1, r5
   21cda:	462a      	mov	r2, r5
   21cdc:	462b      	mov	r3, r5
   21cde:	df03      	svc	3
   21ce0:	1c60      	adds	r0, r4, #1
   21ce2:	a90b      	add	r1, sp, #44	@ 0x2c
   21ce4:	224f      	movs	r2, #79	@ 0x4f
   21ce6:	f005 f990 	bl	2700a <__aeabi_memcpy>
   21cea:	7025      	strb	r5, [r4, #0]
   21cec:	4630      	mov	r0, r6
   21cee:	4629      	mov	r1, r5
   21cf0:	462a      	mov	r2, r5
   21cf2:	462b      	mov	r3, r5
   21cf4:	df03      	svc	3
   21cf6:	2109      	movs	r1, #9
   21cf8:	4630      	mov	r0, r6
   21cfa:	462a      	mov	r2, r5
   21cfc:	462b      	mov	r3, r5
   21cfe:	df04      	svc	4
   21d00:	b01f      	add	sp, #124	@ 0x7c
   21d02:	bdf0      	pop	{r4, r5, r6, r7, pc}
   21d04:	00000b4c 	.word	0x00000b4c

00021d08 <_ZN18complex_no_dynamic3app17h81564802f652ac8bE>:
   21d08:	b5f0      	push	{r4, r5, r6, r7, lr}
   21d0a:	af03      	add	r7, sp, #12
   21d0c:	b0a9      	sub	sp, #164	@ 0xa4
   21d0e:	4604      	mov	r4, r0
   21d10:	466d      	mov	r5, sp
   21d12:	2651      	movs	r6, #81	@ 0x51
   21d14:	4628      	mov	r0, r5
   21d16:	4632      	mov	r2, r6
   21d18:	f005 f977 	bl	2700a <__aeabi_memcpy>
   21d1c:	a815      	add	r0, sp, #84	@ 0x54
   21d1e:	214f      	movs	r1, #79	@ 0x4f
   21d20:	f004 ffc6 	bl	26cb0 <__aeabi_memclr4>
   21d24:	4822      	ldr	r0, [pc, #136]	@ (21db0 <_ZN18complex_no_dynamic3app17h81564802f652ac8bE+0xa8>)
   21d26:	2102      	movs	r1, #2
   21d28:	462a      	mov	r2, r5
   21d2a:	4633      	mov	r3, r6
   21d2c:	df04      	svc	4
   21d2e:	2802      	cmp	r0, #2
   21d30:	d00e      	beq.n	21d50 <_ZN18complex_no_dynamic3app17h81564802f652ac8bE+0x48>
   21d32:	481f      	ldr	r0, [pc, #124]	@ (21db0 <_ZN18complex_no_dynamic3app17h81564802f652ac8bE+0xa8>)
   21d34:	2104      	movs	r1, #4
   21d36:	aa15      	add	r2, sp, #84	@ 0x54
   21d38:	234f      	movs	r3, #79	@ 0x4f
   21d3a:	df03      	svc	3
   21d3c:	2802      	cmp	r0, #2
   21d3e:	d007      	beq.n	21d50 <_ZN18complex_no_dynamic3app17h81564802f652ac8bE+0x48>
   21d40:	481b      	ldr	r0, [pc, #108]	@ (21db0 <_ZN18complex_no_dynamic3app17h81564802f652ac8bE+0xa8>)
   21d42:	2102      	movs	r1, #2
   21d44:	2204      	movs	r2, #4
   21d46:	2500      	movs	r5, #0
   21d48:	462b      	mov	r3, r5
   21d4a:	df02      	svc	2
   21d4c:	287f      	cmp	r0, #127	@ 0x7f
   21d4e:	d810      	bhi.n	21d72 <_ZN18complex_no_dynamic3app17h81564802f652ac8bE+0x6a>
   21d50:	2001      	movs	r0, #1
   21d52:	7020      	strb	r0, [r4, #0]
   21d54:	6061      	str	r1, [r4, #4]
   21d56:	4c16      	ldr	r4, [pc, #88]	@ (21db0 <_ZN18complex_no_dynamic3app17h81564802f652ac8bE+0xa8>)
   21d58:	2104      	movs	r1, #4
   21d5a:	2500      	movs	r5, #0
   21d5c:	4620      	mov	r0, r4
   21d5e:	462a      	mov	r2, r5
   21d60:	462b      	mov	r3, r5
   21d62:	df03      	svc	3
   21d64:	2102      	movs	r1, #2
   21d66:	4620      	mov	r0, r4
   21d68:	462a      	mov	r2, r5
   21d6a:	462b      	mov	r3, r5
   21d6c:	df04      	svc	4
   21d6e:	b029      	add	sp, #164	@ 0xa4
   21d70:	bdf0      	pop	{r4, r5, r6, r7, pc}
   21d72:	480f      	ldr	r0, [pc, #60]	@ (21db0 <_ZN18complex_no_dynamic3app17h81564802f652ac8bE+0xa8>)
   21d74:	2604      	movs	r6, #4
   21d76:	4631      	mov	r1, r6
   21d78:	462a      	mov	r2, r5
   21d7a:	462b      	mov	r3, r5
   21d7c:	df03      	svc	3
   21d7e:	480c      	ldr	r0, [pc, #48]	@ (21db0 <_ZN18complex_no_dynamic3app17h81564802f652ac8bE+0xa8>)
   21d80:	4631      	mov	r1, r6
   21d82:	462a      	mov	r2, r5
   21d84:	462b      	mov	r3, r5
   21d86:	df03      	svc	3
   21d88:	1c60      	adds	r0, r4, #1
   21d8a:	a915      	add	r1, sp, #84	@ 0x54
   21d8c:	224f      	movs	r2, #79	@ 0x4f
   21d8e:	f005 f93c 	bl	2700a <__aeabi_memcpy>
   21d92:	7025      	strb	r5, [r4, #0]
   21d94:	4c06      	ldr	r4, [pc, #24]	@ (21db0 <_ZN18complex_no_dynamic3app17h81564802f652ac8bE+0xa8>)
   21d96:	4620      	mov	r0, r4
   21d98:	4631      	mov	r1, r6
   21d9a:	462a      	mov	r2, r5
   21d9c:	462b      	mov	r3, r5
   21d9e:	df03      	svc	3
   21da0:	2102      	movs	r1, #2
   21da2:	4620      	mov	r0, r4
   21da4:	462a      	mov	r2, r5
   21da6:	462b      	mov	r3, r5
   21da8:	df04      	svc	4
   21daa:	b029      	add	sp, #164	@ 0xa4
   21dac:	bdf0      	pop	{r4, r5, r6, r7, pc}
   21dae:	46c0      	nop			@ (mov r8, r8)
   21db0:	00000e16 	.word	0x00000e16

00021db4 <_ZN18complex_no_dynamic3app17h83097068c5e7c7bdE>:
   21db4:	b5f0      	push	{r4, r5, r6, r7, lr}
   21db6:	af03      	add	r7, sp, #12
   21db8:	b095      	sub	sp, #84	@ 0x54
   21dba:	4604      	mov	r4, r0
   21dbc:	466d      	mov	r5, sp
   21dbe:	262c      	movs	r6, #44	@ 0x2c
   21dc0:	4628      	mov	r0, r5
   21dc2:	4632      	mov	r2, r6
   21dc4:	f005 f921 	bl	2700a <__aeabi_memcpy>
   21dc8:	a80b      	add	r0, sp, #44	@ 0x2c
   21dca:	2125      	movs	r1, #37	@ 0x25
   21dcc:	f004 ff70 	bl	26cb0 <__aeabi_memclr4>
   21dd0:	4821      	ldr	r0, [pc, #132]	@ (21e58 <_ZN18complex_no_dynamic3app17h83097068c5e7c7bdE+0xa4>)
   21dd2:	2103      	movs	r1, #3
   21dd4:	462a      	mov	r2, r5
   21dd6:	4633      	mov	r3, r6
   21dd8:	df04      	svc	4
   21dda:	2802      	cmp	r0, #2
   21ddc:	d00e      	beq.n	21dfc <_ZN18complex_no_dynamic3app17h83097068c5e7c7bdE+0x48>
   21dde:	481e      	ldr	r0, [pc, #120]	@ (21e58 <_ZN18complex_no_dynamic3app17h83097068c5e7c7bdE+0xa4>)
   21de0:	2100      	movs	r1, #0
   21de2:	aa0b      	add	r2, sp, #44	@ 0x2c
   21de4:	2325      	movs	r3, #37	@ 0x25
   21de6:	df03      	svc	3
   21de8:	2802      	cmp	r0, #2
   21dea:	d007      	beq.n	21dfc <_ZN18complex_no_dynamic3app17h83097068c5e7c7bdE+0x48>
   21dec:	481a      	ldr	r0, [pc, #104]	@ (21e58 <_ZN18complex_no_dynamic3app17h83097068c5e7c7bdE+0xa4>)
   21dee:	2103      	movs	r1, #3
   21df0:	2500      	movs	r5, #0
   21df2:	462a      	mov	r2, r5
   21df4:	462b      	mov	r3, r5
   21df6:	df02      	svc	2
   21df8:	287f      	cmp	r0, #127	@ 0x7f
   21dfa:	d810      	bhi.n	21e1e <_ZN18complex_no_dynamic3app17h83097068c5e7c7bdE+0x6a>
   21dfc:	2001      	movs	r0, #1
   21dfe:	7020      	strb	r0, [r4, #0]
   21e00:	6061      	str	r1, [r4, #4]
   21e02:	4c15      	ldr	r4, [pc, #84]	@ (21e58 <_ZN18complex_no_dynamic3app17h83097068c5e7c7bdE+0xa4>)
   21e04:	2500      	movs	r5, #0
   21e06:	4620      	mov	r0, r4
   21e08:	4629      	mov	r1, r5
   21e0a:	462a      	mov	r2, r5
   21e0c:	462b      	mov	r3, r5
   21e0e:	df03      	svc	3
   21e10:	2103      	movs	r1, #3
   21e12:	4620      	mov	r0, r4
   21e14:	462a      	mov	r2, r5
   21e16:	462b      	mov	r3, r5
   21e18:	df04      	svc	4
   21e1a:	b015      	add	sp, #84	@ 0x54
   21e1c:	bdf0      	pop	{r4, r5, r6, r7, pc}
   21e1e:	4e0e      	ldr	r6, [pc, #56]	@ (21e58 <_ZN18complex_no_dynamic3app17h83097068c5e7c7bdE+0xa4>)
   21e20:	4630      	mov	r0, r6
   21e22:	4629      	mov	r1, r5
   21e24:	462a      	mov	r2, r5
   21e26:	462b      	mov	r3, r5
   21e28:	df03      	svc	3
   21e2a:	4630      	mov	r0, r6
   21e2c:	4629      	mov	r1, r5
   21e2e:	462a      	mov	r2, r5
   21e30:	462b      	mov	r3, r5
   21e32:	df03      	svc	3
   21e34:	1c60      	adds	r0, r4, #1
   21e36:	a90b      	add	r1, sp, #44	@ 0x2c
   21e38:	2225      	movs	r2, #37	@ 0x25
   21e3a:	f005 f8e6 	bl	2700a <__aeabi_memcpy>
   21e3e:	7025      	strb	r5, [r4, #0]
   21e40:	4630      	mov	r0, r6
   21e42:	4629      	mov	r1, r5
   21e44:	462a      	mov	r2, r5
   21e46:	462b      	mov	r3, r5
   21e48:	df03      	svc	3
   21e4a:	2103      	movs	r1, #3
   21e4c:	4630      	mov	r0, r6
   21e4e:	462a      	mov	r2, r5
   21e50:	462b      	mov	r3, r5
   21e52:	df04      	svc	4
   21e54:	b015      	add	sp, #84	@ 0x54
   21e56:	bdf0      	pop	{r4, r5, r6, r7, pc}
   21e58:	0000077f 	.word	0x0000077f

00021e5c <_ZN18complex_no_dynamic3app17h8818fe7c7d1f9cdcE>:
   21e5c:	b5f0      	push	{r4, r5, r6, r7, lr}
   21e5e:	af03      	add	r7, sp, #12
   21e60:	b09d      	sub	sp, #116	@ 0x74
   21e62:	4604      	mov	r4, r0
   21e64:	466d      	mov	r5, sp
   21e66:	261e      	movs	r6, #30
   21e68:	4628      	mov	r0, r5
   21e6a:	4632      	mov	r2, r6
   21e6c:	f005 f8cd 	bl	2700a <__aeabi_memcpy>
   21e70:	a808      	add	r0, sp, #32
   21e72:	2151      	movs	r1, #81	@ 0x51
   21e74:	f004 ff1c 	bl	26cb0 <__aeabi_memclr4>
   21e78:	4821      	ldr	r0, [pc, #132]	@ (21f00 <_ZN18complex_no_dynamic3app17h8818fe7c7d1f9cdcE+0xa4>)
   21e7a:	2102      	movs	r1, #2
   21e7c:	462a      	mov	r2, r5
   21e7e:	4633      	mov	r3, r6
   21e80:	df04      	svc	4
   21e82:	2802      	cmp	r0, #2
   21e84:	d00e      	beq.n	21ea4 <_ZN18complex_no_dynamic3app17h8818fe7c7d1f9cdcE+0x48>
   21e86:	481e      	ldr	r0, [pc, #120]	@ (21f00 <_ZN18complex_no_dynamic3app17h8818fe7c7d1f9cdcE+0xa4>)
   21e88:	2100      	movs	r1, #0
   21e8a:	aa08      	add	r2, sp, #32
   21e8c:	2351      	movs	r3, #81	@ 0x51
   21e8e:	df03      	svc	3
   21e90:	2802      	cmp	r0, #2
   21e92:	d007      	beq.n	21ea4 <_ZN18complex_no_dynamic3app17h8818fe7c7d1f9cdcE+0x48>
   21e94:	481a      	ldr	r0, [pc, #104]	@ (21f00 <_ZN18complex_no_dynamic3app17h8818fe7c7d1f9cdcE+0xa4>)
   21e96:	2102      	movs	r1, #2
   21e98:	2500      	movs	r5, #0
   21e9a:	462a      	mov	r2, r5
   21e9c:	462b      	mov	r3, r5
   21e9e:	df02      	svc	2
   21ea0:	287f      	cmp	r0, #127	@ 0x7f
   21ea2:	d810      	bhi.n	21ec6 <_ZN18complex_no_dynamic3app17h8818fe7c7d1f9cdcE+0x6a>
   21ea4:	2001      	movs	r0, #1
   21ea6:	7020      	strb	r0, [r4, #0]
   21ea8:	6061      	str	r1, [r4, #4]
   21eaa:	4c15      	ldr	r4, [pc, #84]	@ (21f00 <_ZN18complex_no_dynamic3app17h8818fe7c7d1f9cdcE+0xa4>)
   21eac:	2500      	movs	r5, #0
   21eae:	4620      	mov	r0, r4
   21eb0:	4629      	mov	r1, r5
   21eb2:	462a      	mov	r2, r5
   21eb4:	462b      	mov	r3, r5
   21eb6:	df03      	svc	3
   21eb8:	2102      	movs	r1, #2
   21eba:	4620      	mov	r0, r4
   21ebc:	462a      	mov	r2, r5
   21ebe:	462b      	mov	r3, r5
   21ec0:	df04      	svc	4
   21ec2:	b01d      	add	sp, #116	@ 0x74
   21ec4:	bdf0      	pop	{r4, r5, r6, r7, pc}
   21ec6:	4e0e      	ldr	r6, [pc, #56]	@ (21f00 <_ZN18complex_no_dynamic3app17h8818fe7c7d1f9cdcE+0xa4>)
   21ec8:	4630      	mov	r0, r6
   21eca:	4629      	mov	r1, r5
   21ecc:	462a      	mov	r2, r5
   21ece:	462b      	mov	r3, r5
   21ed0:	df03      	svc	3
   21ed2:	4630      	mov	r0, r6
   21ed4:	4629      	mov	r1, r5
   21ed6:	462a      	mov	r2, r5
   21ed8:	462b      	mov	r3, r5
   21eda:	df03      	svc	3
   21edc:	1c60      	adds	r0, r4, #1
   21ede:	a908      	add	r1, sp, #32
   21ee0:	2251      	movs	r2, #81	@ 0x51
   21ee2:	f005 f892 	bl	2700a <__aeabi_memcpy>
   21ee6:	7025      	strb	r5, [r4, #0]
   21ee8:	4630      	mov	r0, r6
   21eea:	4629      	mov	r1, r5
   21eec:	462a      	mov	r2, r5
   21eee:	462b      	mov	r3, r5
   21ef0:	df03      	svc	3
   21ef2:	2102      	movs	r1, #2
   21ef4:	4630      	mov	r0, r6
   21ef6:	462a      	mov	r2, r5
   21ef8:	462b      	mov	r3, r5
   21efa:	df04      	svc	4
   21efc:	b01d      	add	sp, #116	@ 0x74
   21efe:	bdf0      	pop	{r4, r5, r6, r7, pc}
   21f00:	0000196b 	.word	0x0000196b

00021f04 <_ZN18complex_no_dynamic3app17h88599e62daf9d37fE>:
   21f04:	b5f0      	push	{r4, r5, r6, r7, lr}
   21f06:	af03      	add	r7, sp, #12
   21f08:	b09b      	sub	sp, #108	@ 0x6c
   21f0a:	4604      	mov	r4, r0
   21f0c:	466d      	mov	r5, sp
   21f0e:	2655      	movs	r6, #85	@ 0x55
   21f10:	4628      	mov	r0, r5
   21f12:	4632      	mov	r2, r6
   21f14:	f005 f879 	bl	2700a <__aeabi_memcpy>
   21f18:	a816      	add	r0, sp, #88	@ 0x58
   21f1a:	2100      	movs	r1, #0
   21f1c:	7401      	strb	r1, [r0, #16]
   21f1e:	9119      	str	r1, [sp, #100]	@ 0x64
   21f20:	9118      	str	r1, [sp, #96]	@ 0x60
   21f22:	9117      	str	r1, [sp, #92]	@ 0x5c
   21f24:	9116      	str	r1, [sp, #88]	@ 0x58
   21f26:	4823      	ldr	r0, [pc, #140]	@ (21fb4 <_ZN18complex_no_dynamic3app17h88599e62daf9d37fE+0xb0>)
   21f28:	2102      	movs	r1, #2
   21f2a:	462a      	mov	r2, r5
   21f2c:	4633      	mov	r3, r6
   21f2e:	df04      	svc	4
   21f30:	2802      	cmp	r0, #2
   21f32:	d00e      	beq.n	21f52 <_ZN18complex_no_dynamic3app17h88599e62daf9d37fE+0x4e>
   21f34:	481f      	ldr	r0, [pc, #124]	@ (21fb4 <_ZN18complex_no_dynamic3app17h88599e62daf9d37fE+0xb0>)
   21f36:	2102      	movs	r1, #2
   21f38:	aa16      	add	r2, sp, #88	@ 0x58
   21f3a:	2311      	movs	r3, #17
   21f3c:	df03      	svc	3
   21f3e:	2802      	cmp	r0, #2
   21f40:	d007      	beq.n	21f52 <_ZN18complex_no_dynamic3app17h88599e62daf9d37fE+0x4e>
   21f42:	481c      	ldr	r0, [pc, #112]	@ (21fb4 <_ZN18complex_no_dynamic3app17h88599e62daf9d37fE+0xb0>)
   21f44:	2102      	movs	r1, #2
   21f46:	2500      	movs	r5, #0
   21f48:	460a      	mov	r2, r1
   21f4a:	462b      	mov	r3, r5
   21f4c:	df02      	svc	2
   21f4e:	287f      	cmp	r0, #127	@ 0x7f
   21f50:	d811      	bhi.n	21f76 <_ZN18complex_no_dynamic3app17h88599e62daf9d37fE+0x72>
   21f52:	2001      	movs	r0, #1
   21f54:	7020      	strb	r0, [r4, #0]
   21f56:	6061      	str	r1, [r4, #4]
   21f58:	4c16      	ldr	r4, [pc, #88]	@ (21fb4 <_ZN18complex_no_dynamic3app17h88599e62daf9d37fE+0xb0>)
   21f5a:	2502      	movs	r5, #2
   21f5c:	2600      	movs	r6, #0
   21f5e:	4620      	mov	r0, r4
   21f60:	4629      	mov	r1, r5
   21f62:	4632      	mov	r2, r6
   21f64:	4633      	mov	r3, r6
   21f66:	df03      	svc	3
   21f68:	4620      	mov	r0, r4
   21f6a:	4629      	mov	r1, r5
   21f6c:	4632      	mov	r2, r6
   21f6e:	4633      	mov	r3, r6
   21f70:	df04      	svc	4
   21f72:	b01b      	add	sp, #108	@ 0x6c
   21f74:	bdf0      	pop	{r4, r5, r6, r7, pc}
   21f76:	480f      	ldr	r0, [pc, #60]	@ (21fb4 <_ZN18complex_no_dynamic3app17h88599e62daf9d37fE+0xb0>)
   21f78:	2602      	movs	r6, #2
   21f7a:	4631      	mov	r1, r6
   21f7c:	462a      	mov	r2, r5
   21f7e:	462b      	mov	r3, r5
   21f80:	df03      	svc	3
   21f82:	480c      	ldr	r0, [pc, #48]	@ (21fb4 <_ZN18complex_no_dynamic3app17h88599e62daf9d37fE+0xb0>)
   21f84:	4631      	mov	r1, r6
   21f86:	462a      	mov	r2, r5
   21f88:	462b      	mov	r3, r5
   21f8a:	df03      	svc	3
   21f8c:	1c60      	adds	r0, r4, #1
   21f8e:	a916      	add	r1, sp, #88	@ 0x58
   21f90:	2211      	movs	r2, #17
   21f92:	f005 f83a 	bl	2700a <__aeabi_memcpy>
   21f96:	7025      	strb	r5, [r4, #0]
   21f98:	4c06      	ldr	r4, [pc, #24]	@ (21fb4 <_ZN18complex_no_dynamic3app17h88599e62daf9d37fE+0xb0>)
   21f9a:	4620      	mov	r0, r4
   21f9c:	4631      	mov	r1, r6
   21f9e:	462a      	mov	r2, r5
   21fa0:	462b      	mov	r3, r5
   21fa2:	df03      	svc	3
   21fa4:	4620      	mov	r0, r4
   21fa6:	4631      	mov	r1, r6
   21fa8:	462a      	mov	r2, r5
   21faa:	462b      	mov	r3, r5
   21fac:	df04      	svc	4
   21fae:	b01b      	add	sp, #108	@ 0x6c
   21fb0:	bdf0      	pop	{r4, r5, r6, r7, pc}
   21fb2:	46c0      	nop			@ (mov r8, r8)
   21fb4:	00000c89 	.word	0x00000c89

00021fb8 <_ZN18complex_no_dynamic3app17h8bfde375dfb4f779E>:
   21fb8:	b5f0      	push	{r4, r5, r6, r7, lr}
   21fba:	af03      	add	r7, sp, #12
   21fbc:	b09d      	sub	sp, #116	@ 0x74
   21fbe:	4604      	mov	r4, r0
   21fc0:	466d      	mov	r5, sp
   21fc2:	2648      	movs	r6, #72	@ 0x48
   21fc4:	4628      	mov	r0, r5
   21fc6:	4632      	mov	r2, r6
   21fc8:	f005 f81f 	bl	2700a <__aeabi_memcpy>
   21fcc:	a812      	add	r0, sp, #72	@ 0x48
   21fce:	2129      	movs	r1, #41	@ 0x29
   21fd0:	f004 fe6e 	bl	26cb0 <__aeabi_memclr4>
   21fd4:	4822      	ldr	r0, [pc, #136]	@ (22060 <_ZN18complex_no_dynamic3app17h8bfde375dfb4f779E+0xa8>)
   21fd6:	2103      	movs	r1, #3
   21fd8:	462a      	mov	r2, r5
   21fda:	4633      	mov	r3, r6
   21fdc:	df04      	svc	4
   21fde:	2802      	cmp	r0, #2
   21fe0:	d00e      	beq.n	22000 <_ZN18complex_no_dynamic3app17h8bfde375dfb4f779E+0x48>
   21fe2:	481f      	ldr	r0, [pc, #124]	@ (22060 <_ZN18complex_no_dynamic3app17h8bfde375dfb4f779E+0xa8>)
   21fe4:	2104      	movs	r1, #4
   21fe6:	aa12      	add	r2, sp, #72	@ 0x48
   21fe8:	2329      	movs	r3, #41	@ 0x29
   21fea:	df03      	svc	3
   21fec:	2802      	cmp	r0, #2
   21fee:	d007      	beq.n	22000 <_ZN18complex_no_dynamic3app17h8bfde375dfb4f779E+0x48>
   21ff0:	481b      	ldr	r0, [pc, #108]	@ (22060 <_ZN18complex_no_dynamic3app17h8bfde375dfb4f779E+0xa8>)
   21ff2:	2103      	movs	r1, #3
   21ff4:	2204      	movs	r2, #4
   21ff6:	2500      	movs	r5, #0
   21ff8:	462b      	mov	r3, r5
   21ffa:	df02      	svc	2
   21ffc:	287f      	cmp	r0, #127	@ 0x7f
   21ffe:	d810      	bhi.n	22022 <_ZN18complex_no_dynamic3app17h8bfde375dfb4f779E+0x6a>
   22000:	2001      	movs	r0, #1
   22002:	7020      	strb	r0, [r4, #0]
   22004:	6061      	str	r1, [r4, #4]
   22006:	4c16      	ldr	r4, [pc, #88]	@ (22060 <_ZN18complex_no_dynamic3app17h8bfde375dfb4f779E+0xa8>)
   22008:	2104      	movs	r1, #4
   2200a:	2500      	movs	r5, #0
   2200c:	4620      	mov	r0, r4
   2200e:	462a      	mov	r2, r5
   22010:	462b      	mov	r3, r5
   22012:	df03      	svc	3
   22014:	2103      	movs	r1, #3
   22016:	4620      	mov	r0, r4
   22018:	462a      	mov	r2, r5
   2201a:	462b      	mov	r3, r5
   2201c:	df04      	svc	4
   2201e:	b01d      	add	sp, #116	@ 0x74
   22020:	bdf0      	pop	{r4, r5, r6, r7, pc}
   22022:	480f      	ldr	r0, [pc, #60]	@ (22060 <_ZN18complex_no_dynamic3app17h8bfde375dfb4f779E+0xa8>)
   22024:	2604      	movs	r6, #4
   22026:	4631      	mov	r1, r6
   22028:	462a      	mov	r2, r5
   2202a:	462b      	mov	r3, r5
   2202c:	df03      	svc	3
   2202e:	480c      	ldr	r0, [pc, #48]	@ (22060 <_ZN18complex_no_dynamic3app17h8bfde375dfb4f779E+0xa8>)
   22030:	4631      	mov	r1, r6
   22032:	462a      	mov	r2, r5
   22034:	462b      	mov	r3, r5
   22036:	df03      	svc	3
   22038:	1c60      	adds	r0, r4, #1
   2203a:	a912      	add	r1, sp, #72	@ 0x48
   2203c:	2229      	movs	r2, #41	@ 0x29
   2203e:	f004 ffe4 	bl	2700a <__aeabi_memcpy>
   22042:	7025      	strb	r5, [r4, #0]
   22044:	4c06      	ldr	r4, [pc, #24]	@ (22060 <_ZN18complex_no_dynamic3app17h8bfde375dfb4f779E+0xa8>)
   22046:	4620      	mov	r0, r4
   22048:	4631      	mov	r1, r6
   2204a:	462a      	mov	r2, r5
   2204c:	462b      	mov	r3, r5
   2204e:	df03      	svc	3
   22050:	2103      	movs	r1, #3
   22052:	4620      	mov	r0, r4
   22054:	462a      	mov	r2, r5
   22056:	462b      	mov	r3, r5
   22058:	df04      	svc	4
   2205a:	b01d      	add	sp, #116	@ 0x74
   2205c:	bdf0      	pop	{r4, r5, r6, r7, pc}
   2205e:	46c0      	nop			@ (mov r8, r8)
   22060:	000026a4 	.word	0x000026a4

00022064 <_ZN18complex_no_dynamic3app17h8c74818c2c8f635cE>:
   22064:	b5f0      	push	{r4, r5, r6, r7, lr}
   22066:	af03      	add	r7, sp, #12
   22068:	b095      	sub	sp, #84	@ 0x54
   2206a:	4604      	mov	r4, r0
   2206c:	466d      	mov	r5, sp
   2206e:	2625      	movs	r6, #37	@ 0x25
   22070:	4628      	mov	r0, r5
   22072:	4632      	mov	r2, r6
   22074:	f004 ffc9 	bl	2700a <__aeabi_memcpy>
   22078:	a80a      	add	r0, sp, #40	@ 0x28
   2207a:	212a      	movs	r1, #42	@ 0x2a
   2207c:	f004 fe18 	bl	26cb0 <__aeabi_memclr4>
   22080:	4822      	ldr	r0, [pc, #136]	@ (2210c <_ZN18complex_no_dynamic3app17h8c74818c2c8f635cE+0xa8>)
   22082:	2100      	movs	r1, #0
   22084:	462a      	mov	r2, r5
   22086:	4633      	mov	r3, r6
   22088:	df04      	svc	4
   2208a:	2802      	cmp	r0, #2
   2208c:	d00e      	beq.n	220ac <_ZN18complex_no_dynamic3app17h8c74818c2c8f635cE+0x48>
   2208e:	481f      	ldr	r0, [pc, #124]	@ (2210c <_ZN18complex_no_dynamic3app17h8c74818c2c8f635cE+0xa8>)
   22090:	2103      	movs	r1, #3
   22092:	aa0a      	add	r2, sp, #40	@ 0x28
   22094:	232a      	movs	r3, #42	@ 0x2a
   22096:	df03      	svc	3
   22098:	2802      	cmp	r0, #2
   2209a:	d007      	beq.n	220ac <_ZN18complex_no_dynamic3app17h8c74818c2c8f635cE+0x48>
   2209c:	481b      	ldr	r0, [pc, #108]	@ (2210c <_ZN18complex_no_dynamic3app17h8c74818c2c8f635cE+0xa8>)
   2209e:	2203      	movs	r2, #3
   220a0:	2500      	movs	r5, #0
   220a2:	4629      	mov	r1, r5
   220a4:	462b      	mov	r3, r5
   220a6:	df02      	svc	2
   220a8:	287f      	cmp	r0, #127	@ 0x7f
   220aa:	d810      	bhi.n	220ce <_ZN18complex_no_dynamic3app17h8c74818c2c8f635cE+0x6a>
   220ac:	2001      	movs	r0, #1
   220ae:	7020      	strb	r0, [r4, #0]
   220b0:	6061      	str	r1, [r4, #4]
   220b2:	4c16      	ldr	r4, [pc, #88]	@ (2210c <_ZN18complex_no_dynamic3app17h8c74818c2c8f635cE+0xa8>)
   220b4:	2103      	movs	r1, #3
   220b6:	2500      	movs	r5, #0
   220b8:	4620      	mov	r0, r4
   220ba:	462a      	mov	r2, r5
   220bc:	462b      	mov	r3, r5
   220be:	df03      	svc	3
   220c0:	4620      	mov	r0, r4
   220c2:	4629      	mov	r1, r5
   220c4:	462a      	mov	r2, r5
   220c6:	462b      	mov	r3, r5
   220c8:	df04      	svc	4
   220ca:	b015      	add	sp, #84	@ 0x54
   220cc:	bdf0      	pop	{r4, r5, r6, r7, pc}
   220ce:	480f      	ldr	r0, [pc, #60]	@ (2210c <_ZN18complex_no_dynamic3app17h8c74818c2c8f635cE+0xa8>)
   220d0:	2603      	movs	r6, #3
   220d2:	4631      	mov	r1, r6
   220d4:	462a      	mov	r2, r5
   220d6:	462b      	mov	r3, r5
   220d8:	df03      	svc	3
   220da:	480c      	ldr	r0, [pc, #48]	@ (2210c <_ZN18complex_no_dynamic3app17h8c74818c2c8f635cE+0xa8>)
   220dc:	4631      	mov	r1, r6
   220de:	462a      	mov	r2, r5
   220e0:	462b      	mov	r3, r5
   220e2:	df03      	svc	3
   220e4:	1c60      	adds	r0, r4, #1
   220e6:	a90a      	add	r1, sp, #40	@ 0x28
   220e8:	222a      	movs	r2, #42	@ 0x2a
   220ea:	f004 ff8e 	bl	2700a <__aeabi_memcpy>
   220ee:	7025      	strb	r5, [r4, #0]
   220f0:	4c06      	ldr	r4, [pc, #24]	@ (2210c <_ZN18complex_no_dynamic3app17h8c74818c2c8f635cE+0xa8>)
   220f2:	4620      	mov	r0, r4
   220f4:	4631      	mov	r1, r6
   220f6:	462a      	mov	r2, r5
   220f8:	462b      	mov	r3, r5
   220fa:	df03      	svc	3
   220fc:	4620      	mov	r0, r4
   220fe:	4629      	mov	r1, r5
   22100:	462a      	mov	r2, r5
   22102:	462b      	mov	r3, r5
   22104:	df04      	svc	4
   22106:	b015      	add	sp, #84	@ 0x54
   22108:	bdf0      	pop	{r4, r5, r6, r7, pc}
   2210a:	46c0      	nop			@ (mov r8, r8)
   2210c:	0000093c 	.word	0x0000093c

00022110 <_ZN18complex_no_dynamic3app17h90bd969945b46cdaE>:
   22110:	b5f0      	push	{r4, r5, r6, r7, lr}
   22112:	af03      	add	r7, sp, #12
   22114:	b0a5      	sub	sp, #148	@ 0x94
   22116:	4604      	mov	r4, r0
   22118:	ad01      	add	r5, sp, #4
   2211a:	262a      	movs	r6, #42	@ 0x2a
   2211c:	4628      	mov	r0, r5
   2211e:	4632      	mov	r2, r6
   22120:	f004 ff73 	bl	2700a <__aeabi_memcpy>
   22124:	a80c      	add	r0, sp, #48	@ 0x30
   22126:	2163      	movs	r1, #99	@ 0x63
   22128:	f004 fdc2 	bl	26cb0 <__aeabi_memclr4>
   2212c:	4821      	ldr	r0, [pc, #132]	@ (221b4 <_ZN18complex_no_dynamic3app17h90bd969945b46cdaE+0xa4>)
   2212e:	2104      	movs	r1, #4
   22130:	462a      	mov	r2, r5
   22132:	4633      	mov	r3, r6
   22134:	df04      	svc	4
   22136:	2802      	cmp	r0, #2
   22138:	d00e      	beq.n	22158 <_ZN18complex_no_dynamic3app17h90bd969945b46cdaE+0x48>
   2213a:	481e      	ldr	r0, [pc, #120]	@ (221b4 <_ZN18complex_no_dynamic3app17h90bd969945b46cdaE+0xa4>)
   2213c:	2100      	movs	r1, #0
   2213e:	aa0c      	add	r2, sp, #48	@ 0x30
   22140:	2363      	movs	r3, #99	@ 0x63
   22142:	df03      	svc	3
   22144:	2802      	cmp	r0, #2
   22146:	d007      	beq.n	22158 <_ZN18complex_no_dynamic3app17h90bd969945b46cdaE+0x48>
   22148:	481a      	ldr	r0, [pc, #104]	@ (221b4 <_ZN18complex_no_dynamic3app17h90bd969945b46cdaE+0xa4>)
   2214a:	2104      	movs	r1, #4
   2214c:	2500      	movs	r5, #0
   2214e:	462a      	mov	r2, r5
   22150:	462b      	mov	r3, r5
   22152:	df02      	svc	2
   22154:	287f      	cmp	r0, #127	@ 0x7f
   22156:	d810      	bhi.n	2217a <_ZN18complex_no_dynamic3app17h90bd969945b46cdaE+0x6a>
   22158:	2001      	movs	r0, #1
   2215a:	7020      	strb	r0, [r4, #0]
   2215c:	6061      	str	r1, [r4, #4]
   2215e:	4c15      	ldr	r4, [pc, #84]	@ (221b4 <_ZN18complex_no_dynamic3app17h90bd969945b46cdaE+0xa4>)
   22160:	2500      	movs	r5, #0
   22162:	4620      	mov	r0, r4
   22164:	4629      	mov	r1, r5
   22166:	462a      	mov	r2, r5
   22168:	462b      	mov	r3, r5
   2216a:	df03      	svc	3
   2216c:	2104      	movs	r1, #4
   2216e:	4620      	mov	r0, r4
   22170:	462a      	mov	r2, r5
   22172:	462b      	mov	r3, r5
   22174:	df04      	svc	4
   22176:	b025      	add	sp, #148	@ 0x94
   22178:	bdf0      	pop	{r4, r5, r6, r7, pc}
   2217a:	4e0e      	ldr	r6, [pc, #56]	@ (221b4 <_ZN18complex_no_dynamic3app17h90bd969945b46cdaE+0xa4>)
   2217c:	4630      	mov	r0, r6
   2217e:	4629      	mov	r1, r5
   22180:	462a      	mov	r2, r5
   22182:	462b      	mov	r3, r5
   22184:	df03      	svc	3
   22186:	4630      	mov	r0, r6
   22188:	4629      	mov	r1, r5
   2218a:	462a      	mov	r2, r5
   2218c:	462b      	mov	r3, r5
   2218e:	df03      	svc	3
   22190:	1c60      	adds	r0, r4, #1
   22192:	a90c      	add	r1, sp, #48	@ 0x30
   22194:	2263      	movs	r2, #99	@ 0x63
   22196:	f004 ff38 	bl	2700a <__aeabi_memcpy>
   2219a:	7025      	strb	r5, [r4, #0]
   2219c:	4630      	mov	r0, r6
   2219e:	4629      	mov	r1, r5
   221a0:	462a      	mov	r2, r5
   221a2:	462b      	mov	r3, r5
   221a4:	df03      	svc	3
   221a6:	2104      	movs	r1, #4
   221a8:	4630      	mov	r0, r6
   221aa:	462a      	mov	r2, r5
   221ac:	462b      	mov	r3, r5
   221ae:	df04      	svc	4
   221b0:	b025      	add	sp, #148	@ 0x94
   221b2:	bdf0      	pop	{r4, r5, r6, r7, pc}
   221b4:	00001c7c 	.word	0x00001c7c

000221b8 <_ZN18complex_no_dynamic3app17h925a8450f924a8faE>:
   221b8:	b5f0      	push	{r4, r5, r6, r7, lr}
   221ba:	af03      	add	r7, sp, #12
   221bc:	b099      	sub	sp, #100	@ 0x64
   221be:	4604      	mov	r4, r0
   221c0:	466d      	mov	r5, sp
   221c2:	2651      	movs	r6, #81	@ 0x51
   221c4:	4628      	mov	r0, r5
   221c6:	4632      	mov	r2, r6
   221c8:	f004 ff1f 	bl	2700a <__aeabi_memcpy>
   221cc:	a815      	add	r0, sp, #84	@ 0x54
   221ce:	2100      	movs	r1, #0
   221d0:	7381      	strb	r1, [r0, #14]
   221d2:	8181      	strh	r1, [r0, #12]
   221d4:	9117      	str	r1, [sp, #92]	@ 0x5c
   221d6:	9116      	str	r1, [sp, #88]	@ 0x58
   221d8:	9115      	str	r1, [sp, #84]	@ 0x54
   221da:	4822      	ldr	r0, [pc, #136]	@ (22264 <_ZN18complex_no_dynamic3app17h925a8450f924a8faE+0xac>)
   221dc:	462a      	mov	r2, r5
   221de:	4633      	mov	r3, r6
   221e0:	df04      	svc	4
   221e2:	2802      	cmp	r0, #2
   221e4:	d00e      	beq.n	22204 <_ZN18complex_no_dynamic3app17h925a8450f924a8faE+0x4c>
   221e6:	481f      	ldr	r0, [pc, #124]	@ (22264 <_ZN18complex_no_dynamic3app17h925a8450f924a8faE+0xac>)
   221e8:	2103      	movs	r1, #3
   221ea:	aa15      	add	r2, sp, #84	@ 0x54
   221ec:	230f      	movs	r3, #15
   221ee:	df03      	svc	3
   221f0:	2802      	cmp	r0, #2
   221f2:	d007      	beq.n	22204 <_ZN18complex_no_dynamic3app17h925a8450f924a8faE+0x4c>
   221f4:	481b      	ldr	r0, [pc, #108]	@ (22264 <_ZN18complex_no_dynamic3app17h925a8450f924a8faE+0xac>)
   221f6:	2203      	movs	r2, #3
   221f8:	2500      	movs	r5, #0
   221fa:	4629      	mov	r1, r5
   221fc:	462b      	mov	r3, r5
   221fe:	df02      	svc	2
   22200:	287f      	cmp	r0, #127	@ 0x7f
   22202:	d810      	bhi.n	22226 <_ZN18complex_no_dynamic3app17h925a8450f924a8faE+0x6e>
   22204:	2001      	movs	r0, #1
   22206:	7020      	strb	r0, [r4, #0]
   22208:	6061      	str	r1, [r4, #4]
   2220a:	4c16      	ldr	r4, [pc, #88]	@ (22264 <_ZN18complex_no_dynamic3app17h925a8450f924a8faE+0xac>)
   2220c:	2103      	movs	r1, #3
   2220e:	2500      	movs	r5, #0
   22210:	4620      	mov	r0, r4
   22212:	462a      	mov	r2, r5
   22214:	462b      	mov	r3, r5
   22216:	df03      	svc	3
   22218:	4620      	mov	r0, r4
   2221a:	4629      	mov	r1, r5
   2221c:	462a      	mov	r2, r5
   2221e:	462b      	mov	r3, r5
   22220:	df04      	svc	4
   22222:	b019      	add	sp, #100	@ 0x64
   22224:	bdf0      	pop	{r4, r5, r6, r7, pc}
   22226:	480f      	ldr	r0, [pc, #60]	@ (22264 <_ZN18complex_no_dynamic3app17h925a8450f924a8faE+0xac>)
   22228:	2603      	movs	r6, #3
   2222a:	4631      	mov	r1, r6
   2222c:	462a      	mov	r2, r5
   2222e:	462b      	mov	r3, r5
   22230:	df03      	svc	3
   22232:	480c      	ldr	r0, [pc, #48]	@ (22264 <_ZN18complex_no_dynamic3app17h925a8450f924a8faE+0xac>)
   22234:	4631      	mov	r1, r6
   22236:	462a      	mov	r2, r5
   22238:	462b      	mov	r3, r5
   2223a:	df03      	svc	3
   2223c:	1c60      	adds	r0, r4, #1
   2223e:	a915      	add	r1, sp, #84	@ 0x54
   22240:	220f      	movs	r2, #15
   22242:	f004 fee2 	bl	2700a <__aeabi_memcpy>
   22246:	7025      	strb	r5, [r4, #0]
   22248:	4c06      	ldr	r4, [pc, #24]	@ (22264 <_ZN18complex_no_dynamic3app17h925a8450f924a8faE+0xac>)
   2224a:	4620      	mov	r0, r4
   2224c:	4631      	mov	r1, r6
   2224e:	462a      	mov	r2, r5
   22250:	462b      	mov	r3, r5
   22252:	df03      	svc	3
   22254:	4620      	mov	r0, r4
   22256:	4629      	mov	r1, r5
   22258:	462a      	mov	r2, r5
   2225a:	462b      	mov	r3, r5
   2225c:	df04      	svc	4
   2225e:	b019      	add	sp, #100	@ 0x64
   22260:	bdf0      	pop	{r4, r5, r6, r7, pc}
   22262:	46c0      	nop			@ (mov r8, r8)
   22264:	000013bf 	.word	0x000013bf

00022268 <_ZN18complex_no_dynamic3app17h965d9fdf4ee8e347E>:
   22268:	b5f0      	push	{r4, r5, r6, r7, lr}
   2226a:	af03      	add	r7, sp, #12
   2226c:	b09b      	sub	sp, #108	@ 0x6c
   2226e:	4604      	mov	r4, r0
   22270:	466d      	mov	r5, sp
   22272:	2613      	movs	r6, #19
   22274:	4628      	mov	r0, r5
   22276:	4632      	mov	r2, r6
   22278:	f004 fec7 	bl	2700a <__aeabi_memcpy>
   2227c:	a805      	add	r0, sp, #20
   2227e:	2155      	movs	r1, #85	@ 0x55
   22280:	f004 fd16 	bl	26cb0 <__aeabi_memclr4>
   22284:	4822      	ldr	r0, [pc, #136]	@ (22310 <_ZN18complex_no_dynamic3app17h965d9fdf4ee8e347E+0xa8>)
   22286:	2109      	movs	r1, #9
   22288:	462a      	mov	r2, r5
   2228a:	4633      	mov	r3, r6
   2228c:	df04      	svc	4
   2228e:	2802      	cmp	r0, #2
   22290:	d00e      	beq.n	222b0 <_ZN18complex_no_dynamic3app17h965d9fdf4ee8e347E+0x48>
   22292:	481f      	ldr	r0, [pc, #124]	@ (22310 <_ZN18complex_no_dynamic3app17h965d9fdf4ee8e347E+0xa8>)
   22294:	2107      	movs	r1, #7
   22296:	aa05      	add	r2, sp, #20
   22298:	2355      	movs	r3, #85	@ 0x55
   2229a:	df03      	svc	3
   2229c:	2802      	cmp	r0, #2
   2229e:	d007      	beq.n	222b0 <_ZN18complex_no_dynamic3app17h965d9fdf4ee8e347E+0x48>
   222a0:	481b      	ldr	r0, [pc, #108]	@ (22310 <_ZN18complex_no_dynamic3app17h965d9fdf4ee8e347E+0xa8>)
   222a2:	2109      	movs	r1, #9
   222a4:	2207      	movs	r2, #7
   222a6:	2500      	movs	r5, #0
   222a8:	462b      	mov	r3, r5
   222aa:	df02      	svc	2
   222ac:	287f      	cmp	r0, #127	@ 0x7f
   222ae:	d810      	bhi.n	222d2 <_ZN18complex_no_dynamic3app17h965d9fdf4ee8e347E+0x6a>
   222b0:	2001      	movs	r0, #1
   222b2:	7020      	strb	r0, [r4, #0]
   222b4:	6061      	str	r1, [r4, #4]
   222b6:	4c16      	ldr	r4, [pc, #88]	@ (22310 <_ZN18complex_no_dynamic3app17h965d9fdf4ee8e347E+0xa8>)
   222b8:	2107      	movs	r1, #7
   222ba:	2500      	movs	r5, #0
   222bc:	4620      	mov	r0, r4
   222be:	462a      	mov	r2, r5
   222c0:	462b      	mov	r3, r5
   222c2:	df03      	svc	3
   222c4:	2109      	movs	r1, #9
   222c6:	4620      	mov	r0, r4
   222c8:	462a      	mov	r2, r5
   222ca:	462b      	mov	r3, r5
   222cc:	df04      	svc	4
   222ce:	b01b      	add	sp, #108	@ 0x6c
   222d0:	bdf0      	pop	{r4, r5, r6, r7, pc}
   222d2:	480f      	ldr	r0, [pc, #60]	@ (22310 <_ZN18complex_no_dynamic3app17h965d9fdf4ee8e347E+0xa8>)
   222d4:	2607      	movs	r6, #7
   222d6:	4631      	mov	r1, r6
   222d8:	462a      	mov	r2, r5
   222da:	462b      	mov	r3, r5
   222dc:	df03      	svc	3
   222de:	480c      	ldr	r0, [pc, #48]	@ (22310 <_ZN18complex_no_dynamic3app17h965d9fdf4ee8e347E+0xa8>)
   222e0:	4631      	mov	r1, r6
   222e2:	462a      	mov	r2, r5
   222e4:	462b      	mov	r3, r5
   222e6:	df03      	svc	3
   222e8:	1c60      	adds	r0, r4, #1
   222ea:	a905      	add	r1, sp, #20
   222ec:	2255      	movs	r2, #85	@ 0x55
   222ee:	f004 fe8c 	bl	2700a <__aeabi_memcpy>
   222f2:	7025      	strb	r5, [r4, #0]
   222f4:	4c06      	ldr	r4, [pc, #24]	@ (22310 <_ZN18complex_no_dynamic3app17h965d9fdf4ee8e347E+0xa8>)
   222f6:	4620      	mov	r0, r4
   222f8:	4631      	mov	r1, r6
   222fa:	462a      	mov	r2, r5
   222fc:	462b      	mov	r3, r5
   222fe:	df03      	svc	3
   22300:	2109      	movs	r1, #9
   22302:	4620      	mov	r0, r4
   22304:	462a      	mov	r2, r5
   22306:	462b      	mov	r3, r5
   22308:	df04      	svc	4
   2230a:	b01b      	add	sp, #108	@ 0x6c
   2230c:	bdf0      	pop	{r4, r5, r6, r7, pc}
   2230e:	46c0      	nop			@ (mov r8, r8)
   22310:	0000032e 	.word	0x0000032e

00022314 <_ZN18complex_no_dynamic3app17h9a0cb3122315b9b5E>:
   22314:	b5f0      	push	{r4, r5, r6, r7, lr}
   22316:	af03      	add	r7, sp, #12
   22318:	b0ab      	sub	sp, #172	@ 0xac
   2231a:	4604      	mov	r4, r0
   2231c:	ad01      	add	r5, sp, #4
   2231e:	2659      	movs	r6, #89	@ 0x59
   22320:	4628      	mov	r0, r5
   22322:	4632      	mov	r2, r6
   22324:	f004 fe71 	bl	2700a <__aeabi_memcpy>
   22328:	a818      	add	r0, sp, #96	@ 0x60
   2232a:	214a      	movs	r1, #74	@ 0x4a
   2232c:	f004 fcc0 	bl	26cb0 <__aeabi_memclr4>
   22330:	4822      	ldr	r0, [pc, #136]	@ (223bc <_ZN18complex_no_dynamic3app17h9a0cb3122315b9b5E+0xa8>)
   22332:	2100      	movs	r1, #0
   22334:	462a      	mov	r2, r5
   22336:	4633      	mov	r3, r6
   22338:	df04      	svc	4
   2233a:	2802      	cmp	r0, #2
   2233c:	d00e      	beq.n	2235c <_ZN18complex_no_dynamic3app17h9a0cb3122315b9b5E+0x48>
   2233e:	481f      	ldr	r0, [pc, #124]	@ (223bc <_ZN18complex_no_dynamic3app17h9a0cb3122315b9b5E+0xa8>)
   22340:	2104      	movs	r1, #4
   22342:	aa18      	add	r2, sp, #96	@ 0x60
   22344:	234a      	movs	r3, #74	@ 0x4a
   22346:	df03      	svc	3
   22348:	2802      	cmp	r0, #2
   2234a:	d007      	beq.n	2235c <_ZN18complex_no_dynamic3app17h9a0cb3122315b9b5E+0x48>
   2234c:	481b      	ldr	r0, [pc, #108]	@ (223bc <_ZN18complex_no_dynamic3app17h9a0cb3122315b9b5E+0xa8>)
   2234e:	2204      	movs	r2, #4
   22350:	2500      	movs	r5, #0
   22352:	4629      	mov	r1, r5
   22354:	462b      	mov	r3, r5
   22356:	df02      	svc	2
   22358:	287f      	cmp	r0, #127	@ 0x7f
   2235a:	d810      	bhi.n	2237e <_ZN18complex_no_dynamic3app17h9a0cb3122315b9b5E+0x6a>
   2235c:	2001      	movs	r0, #1
   2235e:	7020      	strb	r0, [r4, #0]
   22360:	6061      	str	r1, [r4, #4]
   22362:	4c16      	ldr	r4, [pc, #88]	@ (223bc <_ZN18complex_no_dynamic3app17h9a0cb3122315b9b5E+0xa8>)
   22364:	2104      	movs	r1, #4
   22366:	2500      	movs	r5, #0
   22368:	4620      	mov	r0, r4
   2236a:	462a      	mov	r2, r5
   2236c:	462b      	mov	r3, r5
   2236e:	df03      	svc	3
   22370:	4620      	mov	r0, r4
   22372:	4629      	mov	r1, r5
   22374:	462a      	mov	r2, r5
   22376:	462b      	mov	r3, r5
   22378:	df04      	svc	4
   2237a:	b02b      	add	sp, #172	@ 0xac
   2237c:	bdf0      	pop	{r4, r5, r6, r7, pc}
   2237e:	480f      	ldr	r0, [pc, #60]	@ (223bc <_ZN18complex_no_dynamic3app17h9a0cb3122315b9b5E+0xa8>)
   22380:	2604      	movs	r6, #4
   22382:	4631      	mov	r1, r6
   22384:	462a      	mov	r2, r5
   22386:	462b      	mov	r3, r5
   22388:	df03      	svc	3
   2238a:	480c      	ldr	r0, [pc, #48]	@ (223bc <_ZN18complex_no_dynamic3app17h9a0cb3122315b9b5E+0xa8>)
   2238c:	4631      	mov	r1, r6
   2238e:	462a      	mov	r2, r5
   22390:	462b      	mov	r3, r5
   22392:	df03      	svc	3
   22394:	1c60      	adds	r0, r4, #1
   22396:	a918      	add	r1, sp, #96	@ 0x60
   22398:	224a      	movs	r2, #74	@ 0x4a
   2239a:	f004 fe36 	bl	2700a <__aeabi_memcpy>
   2239e:	7025      	strb	r5, [r4, #0]
   223a0:	4c06      	ldr	r4, [pc, #24]	@ (223bc <_ZN18complex_no_dynamic3app17h9a0cb3122315b9b5E+0xa8>)
   223a2:	4620      	mov	r0, r4
   223a4:	4631      	mov	r1, r6
   223a6:	462a      	mov	r2, r5
   223a8:	462b      	mov	r3, r5
   223aa:	df03      	svc	3
   223ac:	4620      	mov	r0, r4
   223ae:	4629      	mov	r1, r5
   223b0:	462a      	mov	r2, r5
   223b2:	462b      	mov	r3, r5
   223b4:	df04      	svc	4
   223b6:	b02b      	add	sp, #172	@ 0xac
   223b8:	bdf0      	pop	{r4, r5, r6, r7, pc}
   223ba:	46c0      	nop			@ (mov r8, r8)
   223bc:	00001484 	.word	0x00001484

000223c0 <_ZN18complex_no_dynamic3app17h9d1de1266bf76d87E>:
   223c0:	b5f0      	push	{r4, r5, r6, r7, lr}
   223c2:	af03      	add	r7, sp, #12
   223c4:	b08d      	sub	sp, #52	@ 0x34
   223c6:	4604      	mov	r4, r0
   223c8:	7b08      	ldrb	r0, [r1, #12]
   223ca:	466d      	mov	r5, sp
   223cc:	7328      	strb	r0, [r5, #12]
   223ce:	7a08      	ldrb	r0, [r1, #8]
   223d0:	7a4a      	ldrb	r2, [r1, #9]
   223d2:	0212      	lsls	r2, r2, #8
   223d4:	1810      	adds	r0, r2, r0
   223d6:	7a8a      	ldrb	r2, [r1, #10]
   223d8:	0412      	lsls	r2, r2, #16
   223da:	7acb      	ldrb	r3, [r1, #11]
   223dc:	061b      	lsls	r3, r3, #24
   223de:	189a      	adds	r2, r3, r2
   223e0:	1810      	adds	r0, r2, r0
   223e2:	9002      	str	r0, [sp, #8]
   223e4:	7908      	ldrb	r0, [r1, #4]
   223e6:	794a      	ldrb	r2, [r1, #5]
   223e8:	0212      	lsls	r2, r2, #8
   223ea:	1810      	adds	r0, r2, r0
   223ec:	798a      	ldrb	r2, [r1, #6]
   223ee:	0412      	lsls	r2, r2, #16
   223f0:	79cb      	ldrb	r3, [r1, #7]
   223f2:	061b      	lsls	r3, r3, #24
   223f4:	189a      	adds	r2, r3, r2
   223f6:	1810      	adds	r0, r2, r0
   223f8:	9001      	str	r0, [sp, #4]
   223fa:	7808      	ldrb	r0, [r1, #0]
   223fc:	784a      	ldrb	r2, [r1, #1]
   223fe:	0212      	lsls	r2, r2, #8
   22400:	1810      	adds	r0, r2, r0
   22402:	788a      	ldrb	r2, [r1, #2]
   22404:	0412      	lsls	r2, r2, #16
   22406:	78c9      	ldrb	r1, [r1, #3]
   22408:	0609      	lsls	r1, r1, #24
   2240a:	1889      	adds	r1, r1, r2
   2240c:	1808      	adds	r0, r1, r0
   2240e:	9000      	str	r0, [sp, #0]
   22410:	a804      	add	r0, sp, #16
   22412:	2121      	movs	r1, #33	@ 0x21
   22414:	f004 fc4c 	bl	26cb0 <__aeabi_memclr4>
   22418:	4821      	ldr	r0, [pc, #132]	@ (224a0 <_ZN18complex_no_dynamic3app17h9d1de1266bf76d87E+0xe0>)
   2241a:	2100      	movs	r1, #0
   2241c:	230d      	movs	r3, #13
   2241e:	462a      	mov	r2, r5
   22420:	df04      	svc	4
   22422:	2802      	cmp	r0, #2
   22424:	d00e      	beq.n	22444 <_ZN18complex_no_dynamic3app17h9d1de1266bf76d87E+0x84>
   22426:	481e      	ldr	r0, [pc, #120]	@ (224a0 <_ZN18complex_no_dynamic3app17h9d1de1266bf76d87E+0xe0>)
   22428:	2100      	movs	r1, #0
   2242a:	aa04      	add	r2, sp, #16
   2242c:	2321      	movs	r3, #33	@ 0x21
   2242e:	df03      	svc	3
   22430:	2802      	cmp	r0, #2
   22432:	d007      	beq.n	22444 <_ZN18complex_no_dynamic3app17h9d1de1266bf76d87E+0x84>
   22434:	481a      	ldr	r0, [pc, #104]	@ (224a0 <_ZN18complex_no_dynamic3app17h9d1de1266bf76d87E+0xe0>)
   22436:	2500      	movs	r5, #0
   22438:	4629      	mov	r1, r5
   2243a:	462a      	mov	r2, r5
   2243c:	462b      	mov	r3, r5
   2243e:	df02      	svc	2
   22440:	287f      	cmp	r0, #127	@ 0x7f
   22442:	d810      	bhi.n	22466 <_ZN18complex_no_dynamic3app17h9d1de1266bf76d87E+0xa6>
   22444:	2001      	movs	r0, #1
   22446:	7020      	strb	r0, [r4, #0]
   22448:	6061      	str	r1, [r4, #4]
   2244a:	4c15      	ldr	r4, [pc, #84]	@ (224a0 <_ZN18complex_no_dynamic3app17h9d1de1266bf76d87E+0xe0>)
   2244c:	2500      	movs	r5, #0
   2244e:	4620      	mov	r0, r4
   22450:	4629      	mov	r1, r5
   22452:	462a      	mov	r2, r5
   22454:	462b      	mov	r3, r5
   22456:	df03      	svc	3
   22458:	4620      	mov	r0, r4
   2245a:	4629      	mov	r1, r5
   2245c:	462a      	mov	r2, r5
   2245e:	462b      	mov	r3, r5
   22460:	df04      	svc	4
   22462:	b00d      	add	sp, #52	@ 0x34
   22464:	bdf0      	pop	{r4, r5, r6, r7, pc}
   22466:	4e0e      	ldr	r6, [pc, #56]	@ (224a0 <_ZN18complex_no_dynamic3app17h9d1de1266bf76d87E+0xe0>)
   22468:	4630      	mov	r0, r6
   2246a:	4629      	mov	r1, r5
   2246c:	462a      	mov	r2, r5
   2246e:	462b      	mov	r3, r5
   22470:	df03      	svc	3
   22472:	4630      	mov	r0, r6
   22474:	4629      	mov	r1, r5
   22476:	462a      	mov	r2, r5
   22478:	462b      	mov	r3, r5
   2247a:	df03      	svc	3
   2247c:	1c60      	adds	r0, r4, #1
   2247e:	a904      	add	r1, sp, #16
   22480:	2221      	movs	r2, #33	@ 0x21
   22482:	f004 fdc2 	bl	2700a <__aeabi_memcpy>
   22486:	7025      	strb	r5, [r4, #0]
   22488:	4630      	mov	r0, r6
   2248a:	4629      	mov	r1, r5
   2248c:	462a      	mov	r2, r5
   2248e:	462b      	mov	r3, r5
   22490:	df03      	svc	3
   22492:	4630      	mov	r0, r6
   22494:	4629      	mov	r1, r5
   22496:	462a      	mov	r2, r5
   22498:	462b      	mov	r3, r5
   2249a:	df04      	svc	4
   2249c:	b00d      	add	sp, #52	@ 0x34
   2249e:	bdf0      	pop	{r4, r5, r6, r7, pc}
   224a0:	000016b0 	.word	0x000016b0

000224a4 <_ZN18complex_no_dynamic3app17ha4202c0c40084696E>:
   224a4:	b5f0      	push	{r4, r5, r6, r7, lr}
   224a6:	af03      	add	r7, sp, #12
   224a8:	b09f      	sub	sp, #124	@ 0x7c
   224aa:	4604      	mov	r4, r0
   224ac:	466d      	mov	r5, sp
   224ae:	264a      	movs	r6, #74	@ 0x4a
   224b0:	4628      	mov	r0, r5
   224b2:	4632      	mov	r2, r6
   224b4:	f004 fda9 	bl	2700a <__aeabi_memcpy>
   224b8:	a813      	add	r0, sp, #76	@ 0x4c
   224ba:	212d      	movs	r1, #45	@ 0x2d
   224bc:	f004 fbf8 	bl	26cb0 <__aeabi_memclr4>
   224c0:	4822      	ldr	r0, [pc, #136]	@ (2254c <_ZN18complex_no_dynamic3app17ha4202c0c40084696E+0xa8>)
   224c2:	2102      	movs	r1, #2
   224c4:	462a      	mov	r2, r5
   224c6:	4633      	mov	r3, r6
   224c8:	df04      	svc	4
   224ca:	2802      	cmp	r0, #2
   224cc:	d00e      	beq.n	224ec <_ZN18complex_no_dynamic3app17ha4202c0c40084696E+0x48>
   224ce:	481f      	ldr	r0, [pc, #124]	@ (2254c <_ZN18complex_no_dynamic3app17ha4202c0c40084696E+0xa8>)
   224d0:	2103      	movs	r1, #3
   224d2:	aa13      	add	r2, sp, #76	@ 0x4c
   224d4:	232d      	movs	r3, #45	@ 0x2d
   224d6:	df03      	svc	3
   224d8:	2802      	cmp	r0, #2
   224da:	d007      	beq.n	224ec <_ZN18complex_no_dynamic3app17ha4202c0c40084696E+0x48>
   224dc:	481b      	ldr	r0, [pc, #108]	@ (2254c <_ZN18complex_no_dynamic3app17ha4202c0c40084696E+0xa8>)
   224de:	2102      	movs	r1, #2
   224e0:	2203      	movs	r2, #3
   224e2:	2500      	movs	r5, #0
   224e4:	462b      	mov	r3, r5
   224e6:	df02      	svc	2
   224e8:	287f      	cmp	r0, #127	@ 0x7f
   224ea:	d810      	bhi.n	2250e <_ZN18complex_no_dynamic3app17ha4202c0c40084696E+0x6a>
   224ec:	2001      	movs	r0, #1
   224ee:	7020      	strb	r0, [r4, #0]
   224f0:	6061      	str	r1, [r4, #4]
   224f2:	4c16      	ldr	r4, [pc, #88]	@ (2254c <_ZN18complex_no_dynamic3app17ha4202c0c40084696E+0xa8>)
   224f4:	2103      	movs	r1, #3
   224f6:	2500      	movs	r5, #0
   224f8:	4620      	mov	r0, r4
   224fa:	462a      	mov	r2, r5
   224fc:	462b      	mov	r3, r5
   224fe:	df03      	svc	3
   22500:	2102      	movs	r1, #2
   22502:	4620      	mov	r0, r4
   22504:	462a      	mov	r2, r5
   22506:	462b      	mov	r3, r5
   22508:	df04      	svc	4
   2250a:	b01f      	add	sp, #124	@ 0x7c
   2250c:	bdf0      	pop	{r4, r5, r6, r7, pc}
   2250e:	480f      	ldr	r0, [pc, #60]	@ (2254c <_ZN18complex_no_dynamic3app17ha4202c0c40084696E+0xa8>)
   22510:	2603      	movs	r6, #3
   22512:	4631      	mov	r1, r6
   22514:	462a      	mov	r2, r5
   22516:	462b      	mov	r3, r5
   22518:	df03      	svc	3
   2251a:	480c      	ldr	r0, [pc, #48]	@ (2254c <_ZN18complex_no_dynamic3app17ha4202c0c40084696E+0xa8>)
   2251c:	4631      	mov	r1, r6
   2251e:	462a      	mov	r2, r5
   22520:	462b      	mov	r3, r5
   22522:	df03      	svc	3
   22524:	1c60      	adds	r0, r4, #1
   22526:	a913      	add	r1, sp, #76	@ 0x4c
   22528:	222d      	movs	r2, #45	@ 0x2d
   2252a:	f004 fd6e 	bl	2700a <__aeabi_memcpy>
   2252e:	7025      	strb	r5, [r4, #0]
   22530:	4c06      	ldr	r4, [pc, #24]	@ (2254c <_ZN18complex_no_dynamic3app17ha4202c0c40084696E+0xa8>)
   22532:	4620      	mov	r0, r4
   22534:	4631      	mov	r1, r6
   22536:	462a      	mov	r2, r5
   22538:	462b      	mov	r3, r5
   2253a:	df03      	svc	3
   2253c:	2102      	movs	r1, #2
   2253e:	4620      	mov	r0, r4
   22540:	462a      	mov	r2, r5
   22542:	462b      	mov	r3, r5
   22544:	df04      	svc	4
   22546:	b01f      	add	sp, #124	@ 0x7c
   22548:	bdf0      	pop	{r4, r5, r6, r7, pc}
   2254a:	46c0      	nop			@ (mov r8, r8)
   2254c:	00000e3d 	.word	0x00000e3d

00022550 <_ZN18complex_no_dynamic3app17ha9830834c533b686E>:
   22550:	b5f0      	push	{r4, r5, r6, r7, lr}
   22552:	af03      	add	r7, sp, #12
   22554:	b093      	sub	sp, #76	@ 0x4c
   22556:	4604      	mov	r4, r0
   22558:	ad01      	add	r5, sp, #4
   2255a:	2636      	movs	r6, #54	@ 0x36
   2255c:	4628      	mov	r0, r5
   2255e:	4632      	mov	r2, r6
   22560:	f004 fd53 	bl	2700a <__aeabi_memcpy>
   22564:	a80f      	add	r0, sp, #60	@ 0x3c
   22566:	2100      	movs	r1, #0
   22568:	7381      	strb	r1, [r0, #14]
   2256a:	8181      	strh	r1, [r0, #12]
   2256c:	9111      	str	r1, [sp, #68]	@ 0x44
   2256e:	9110      	str	r1, [sp, #64]	@ 0x40
   22570:	910f      	str	r1, [sp, #60]	@ 0x3c
   22572:	4822      	ldr	r0, [pc, #136]	@ (225fc <_ZN18complex_no_dynamic3app17ha9830834c533b686E+0xac>)
   22574:	2105      	movs	r1, #5
   22576:	462a      	mov	r2, r5
   22578:	4633      	mov	r3, r6
   2257a:	df04      	svc	4
   2257c:	2802      	cmp	r0, #2
   2257e:	d00e      	beq.n	2259e <_ZN18complex_no_dynamic3app17ha9830834c533b686E+0x4e>
   22580:	481e      	ldr	r0, [pc, #120]	@ (225fc <_ZN18complex_no_dynamic3app17ha9830834c533b686E+0xac>)
   22582:	2103      	movs	r1, #3
   22584:	aa0f      	add	r2, sp, #60	@ 0x3c
   22586:	230f      	movs	r3, #15
   22588:	df03      	svc	3
   2258a:	2802      	cmp	r0, #2
   2258c:	d007      	beq.n	2259e <_ZN18complex_no_dynamic3app17ha9830834c533b686E+0x4e>
   2258e:	481b      	ldr	r0, [pc, #108]	@ (225fc <_ZN18complex_no_dynamic3app17ha9830834c533b686E+0xac>)
   22590:	2105      	movs	r1, #5
   22592:	2203      	movs	r2, #3
   22594:	2500      	movs	r5, #0
   22596:	462b      	mov	r3, r5
   22598:	df02      	svc	2
   2259a:	287f      	cmp	r0, #127	@ 0x7f
   2259c:	d810      	bhi.n	225c0 <_ZN18complex_no_dynamic3app17ha9830834c533b686E+0x70>
   2259e:	2001      	movs	r0, #1
   225a0:	7020      	strb	r0, [r4, #0]
   225a2:	6061      	str	r1, [r4, #4]
   225a4:	4c15      	ldr	r4, [pc, #84]	@ (225fc <_ZN18complex_no_dynamic3app17ha9830834c533b686E+0xac>)
   225a6:	2103      	movs	r1, #3
   225a8:	2500      	movs	r5, #0
   225aa:	4620      	mov	r0, r4
   225ac:	462a      	mov	r2, r5
   225ae:	462b      	mov	r3, r5
   225b0:	df03      	svc	3
   225b2:	2105      	movs	r1, #5
   225b4:	4620      	mov	r0, r4
   225b6:	462a      	mov	r2, r5
   225b8:	462b      	mov	r3, r5
   225ba:	df04      	svc	4
   225bc:	b013      	add	sp, #76	@ 0x4c
   225be:	bdf0      	pop	{r4, r5, r6, r7, pc}
   225c0:	480e      	ldr	r0, [pc, #56]	@ (225fc <_ZN18complex_no_dynamic3app17ha9830834c533b686E+0xac>)
   225c2:	2603      	movs	r6, #3
   225c4:	4631      	mov	r1, r6
   225c6:	462a      	mov	r2, r5
   225c8:	462b      	mov	r3, r5
   225ca:	df03      	svc	3
   225cc:	480b      	ldr	r0, [pc, #44]	@ (225fc <_ZN18complex_no_dynamic3app17ha9830834c533b686E+0xac>)
   225ce:	4631      	mov	r1, r6
   225d0:	462a      	mov	r2, r5
   225d2:	462b      	mov	r3, r5
   225d4:	df03      	svc	3
   225d6:	1c60      	adds	r0, r4, #1
   225d8:	a90f      	add	r1, sp, #60	@ 0x3c
   225da:	220f      	movs	r2, #15
   225dc:	f004 fd15 	bl	2700a <__aeabi_memcpy>
   225e0:	7025      	strb	r5, [r4, #0]
   225e2:	4c06      	ldr	r4, [pc, #24]	@ (225fc <_ZN18complex_no_dynamic3app17ha9830834c533b686E+0xac>)
   225e4:	4620      	mov	r0, r4
   225e6:	4631      	mov	r1, r6
   225e8:	462a      	mov	r2, r5
   225ea:	462b      	mov	r3, r5
   225ec:	df03      	svc	3
   225ee:	2105      	movs	r1, #5
   225f0:	4620      	mov	r0, r4
   225f2:	462a      	mov	r2, r5
   225f4:	462b      	mov	r3, r5
   225f6:	df04      	svc	4
   225f8:	b013      	add	sp, #76	@ 0x4c
   225fa:	bdf0      	pop	{r4, r5, r6, r7, pc}
   225fc:	00000653 	.word	0x00000653

00022600 <_ZN18complex_no_dynamic3app17hac21cb4f06864c0dE>:
   22600:	b5f0      	push	{r4, r5, r6, r7, lr}
   22602:	af03      	add	r7, sp, #12
   22604:	b0a5      	sub	sp, #148	@ 0x94
   22606:	4604      	mov	r4, r0
   22608:	ad01      	add	r5, sp, #4
   2260a:	2653      	movs	r6, #83	@ 0x53
   2260c:	4628      	mov	r0, r5
   2260e:	4632      	mov	r2, r6
   22610:	f004 fcfb 	bl	2700a <__aeabi_memcpy>
   22614:	a816      	add	r0, sp, #88	@ 0x58
   22616:	213a      	movs	r1, #58	@ 0x3a
   22618:	f004 fb4a 	bl	26cb0 <__aeabi_memclr4>
   2261c:	4822      	ldr	r0, [pc, #136]	@ (226a8 <_ZN18complex_no_dynamic3app17hac21cb4f06864c0dE+0xa8>)
   2261e:	2106      	movs	r1, #6
   22620:	462a      	mov	r2, r5
   22622:	4633      	mov	r3, r6
   22624:	df04      	svc	4
   22626:	2802      	cmp	r0, #2
   22628:	d00e      	beq.n	22648 <_ZN18complex_no_dynamic3app17hac21cb4f06864c0dE+0x48>
   2262a:	481f      	ldr	r0, [pc, #124]	@ (226a8 <_ZN18complex_no_dynamic3app17hac21cb4f06864c0dE+0xa8>)
   2262c:	2107      	movs	r1, #7
   2262e:	aa16      	add	r2, sp, #88	@ 0x58
   22630:	233a      	movs	r3, #58	@ 0x3a
   22632:	df03      	svc	3
   22634:	2802      	cmp	r0, #2
   22636:	d007      	beq.n	22648 <_ZN18complex_no_dynamic3app17hac21cb4f06864c0dE+0x48>
   22638:	481b      	ldr	r0, [pc, #108]	@ (226a8 <_ZN18complex_no_dynamic3app17hac21cb4f06864c0dE+0xa8>)
   2263a:	2106      	movs	r1, #6
   2263c:	2207      	movs	r2, #7
   2263e:	2500      	movs	r5, #0
   22640:	462b      	mov	r3, r5
   22642:	df02      	svc	2
   22644:	287f      	cmp	r0, #127	@ 0x7f
   22646:	d810      	bhi.n	2266a <_ZN18complex_no_dynamic3app17hac21cb4f06864c0dE+0x6a>
   22648:	2001      	movs	r0, #1
   2264a:	7020      	strb	r0, [r4, #0]
   2264c:	6061      	str	r1, [r4, #4]
   2264e:	4c16      	ldr	r4, [pc, #88]	@ (226a8 <_ZN18complex_no_dynamic3app17hac21cb4f06864c0dE+0xa8>)
   22650:	2107      	movs	r1, #7
   22652:	2500      	movs	r5, #0
   22654:	4620      	mov	r0, r4
   22656:	462a      	mov	r2, r5
   22658:	462b      	mov	r3, r5
   2265a:	df03      	svc	3
   2265c:	2106      	movs	r1, #6
   2265e:	4620      	mov	r0, r4
   22660:	462a      	mov	r2, r5
   22662:	462b      	mov	r3, r5
   22664:	df04      	svc	4
   22666:	b025      	add	sp, #148	@ 0x94
   22668:	bdf0      	pop	{r4, r5, r6, r7, pc}
   2266a:	480f      	ldr	r0, [pc, #60]	@ (226a8 <_ZN18complex_no_dynamic3app17hac21cb4f06864c0dE+0xa8>)
   2266c:	2607      	movs	r6, #7
   2266e:	4631      	mov	r1, r6
   22670:	462a      	mov	r2, r5
   22672:	462b      	mov	r3, r5
   22674:	df03      	svc	3
   22676:	480c      	ldr	r0, [pc, #48]	@ (226a8 <_ZN18complex_no_dynamic3app17hac21cb4f06864c0dE+0xa8>)
   22678:	4631      	mov	r1, r6
   2267a:	462a      	mov	r2, r5
   2267c:	462b      	mov	r3, r5
   2267e:	df03      	svc	3
   22680:	1c60      	adds	r0, r4, #1
   22682:	a916      	add	r1, sp, #88	@ 0x58
   22684:	223a      	movs	r2, #58	@ 0x3a
   22686:	f004 fcc0 	bl	2700a <__aeabi_memcpy>
   2268a:	7025      	strb	r5, [r4, #0]
   2268c:	4c06      	ldr	r4, [pc, #24]	@ (226a8 <_ZN18complex_no_dynamic3app17hac21cb4f06864c0dE+0xa8>)
   2268e:	4620      	mov	r0, r4
   22690:	4631      	mov	r1, r6
   22692:	462a      	mov	r2, r5
   22694:	462b      	mov	r3, r5
   22696:	df03      	svc	3
   22698:	2106      	movs	r1, #6
   2269a:	4620      	mov	r0, r4
   2269c:	462a      	mov	r2, r5
   2269e:	462b      	mov	r3, r5
   226a0:	df04      	svc	4
   226a2:	b025      	add	sp, #148	@ 0x94
   226a4:	bdf0      	pop	{r4, r5, r6, r7, pc}
   226a6:	46c0      	nop			@ (mov r8, r8)
   226a8:	00002645 	.word	0x00002645

000226ac <_ZN18complex_no_dynamic3app17haccd9aa5268cf4deE>:
   226ac:	b5f0      	push	{r4, r5, r6, r7, lr}
   226ae:	af03      	add	r7, sp, #12
   226b0:	b09b      	sub	sp, #108	@ 0x6c
   226b2:	4604      	mov	r4, r0
   226b4:	ad01      	add	r5, sp, #4
   226b6:	2632      	movs	r6, #50	@ 0x32
   226b8:	4628      	mov	r0, r5
   226ba:	4632      	mov	r2, r6
   226bc:	f004 fca5 	bl	2700a <__aeabi_memcpy>
   226c0:	a80e      	add	r0, sp, #56	@ 0x38
   226c2:	4631      	mov	r1, r6
   226c4:	f004 faf4 	bl	26cb0 <__aeabi_memclr4>
   226c8:	4822      	ldr	r0, [pc, #136]	@ (22754 <_ZN18complex_no_dynamic3app17haccd9aa5268cf4deE+0xa8>)
   226ca:	2103      	movs	r1, #3
   226cc:	462a      	mov	r2, r5
   226ce:	4633      	mov	r3, r6
   226d0:	df04      	svc	4
   226d2:	2802      	cmp	r0, #2
   226d4:	d00e      	beq.n	226f4 <_ZN18complex_no_dynamic3app17haccd9aa5268cf4deE+0x48>
   226d6:	481f      	ldr	r0, [pc, #124]	@ (22754 <_ZN18complex_no_dynamic3app17haccd9aa5268cf4deE+0xa8>)
   226d8:	2101      	movs	r1, #1
   226da:	aa0e      	add	r2, sp, #56	@ 0x38
   226dc:	2332      	movs	r3, #50	@ 0x32
   226de:	df03      	svc	3
   226e0:	2802      	cmp	r0, #2
   226e2:	d007      	beq.n	226f4 <_ZN18complex_no_dynamic3app17haccd9aa5268cf4deE+0x48>
   226e4:	481b      	ldr	r0, [pc, #108]	@ (22754 <_ZN18complex_no_dynamic3app17haccd9aa5268cf4deE+0xa8>)
   226e6:	2103      	movs	r1, #3
   226e8:	2201      	movs	r2, #1
   226ea:	2500      	movs	r5, #0
   226ec:	462b      	mov	r3, r5
   226ee:	df02      	svc	2
   226f0:	287f      	cmp	r0, #127	@ 0x7f
   226f2:	d810      	bhi.n	22716 <_ZN18complex_no_dynamic3app17haccd9aa5268cf4deE+0x6a>
   226f4:	2201      	movs	r2, #1
   226f6:	7022      	strb	r2, [r4, #0]
   226f8:	6061      	str	r1, [r4, #4]
   226fa:	4c16      	ldr	r4, [pc, #88]	@ (22754 <_ZN18complex_no_dynamic3app17haccd9aa5268cf4deE+0xa8>)
   226fc:	2500      	movs	r5, #0
   226fe:	4620      	mov	r0, r4
   22700:	4611      	mov	r1, r2
   22702:	462a      	mov	r2, r5
   22704:	462b      	mov	r3, r5
   22706:	df03      	svc	3
   22708:	2103      	movs	r1, #3
   2270a:	4620      	mov	r0, r4
   2270c:	462a      	mov	r2, r5
   2270e:	462b      	mov	r3, r5
   22710:	df04      	svc	4
   22712:	b01b      	add	sp, #108	@ 0x6c
   22714:	bdf0      	pop	{r4, r5, r6, r7, pc}
   22716:	480f      	ldr	r0, [pc, #60]	@ (22754 <_ZN18complex_no_dynamic3app17haccd9aa5268cf4deE+0xa8>)
   22718:	2601      	movs	r6, #1
   2271a:	4631      	mov	r1, r6
   2271c:	462a      	mov	r2, r5
   2271e:	462b      	mov	r3, r5
   22720:	df03      	svc	3
   22722:	480c      	ldr	r0, [pc, #48]	@ (22754 <_ZN18complex_no_dynamic3app17haccd9aa5268cf4deE+0xa8>)
   22724:	4631      	mov	r1, r6
   22726:	462a      	mov	r2, r5
   22728:	462b      	mov	r3, r5
   2272a:	df03      	svc	3
   2272c:	1c60      	adds	r0, r4, #1
   2272e:	a90e      	add	r1, sp, #56	@ 0x38
   22730:	2232      	movs	r2, #50	@ 0x32
   22732:	f004 fc6a 	bl	2700a <__aeabi_memcpy>
   22736:	7025      	strb	r5, [r4, #0]
   22738:	4c06      	ldr	r4, [pc, #24]	@ (22754 <_ZN18complex_no_dynamic3app17haccd9aa5268cf4deE+0xa8>)
   2273a:	4620      	mov	r0, r4
   2273c:	4631      	mov	r1, r6
   2273e:	462a      	mov	r2, r5
   22740:	462b      	mov	r3, r5
   22742:	df03      	svc	3
   22744:	2103      	movs	r1, #3
   22746:	4620      	mov	r0, r4
   22748:	462a      	mov	r2, r5
   2274a:	462b      	mov	r3, r5
   2274c:	df04      	svc	4
   2274e:	b01b      	add	sp, #108	@ 0x6c
   22750:	bdf0      	pop	{r4, r5, r6, r7, pc}
   22752:	46c0      	nop			@ (mov r8, r8)
   22754:	00001f07 	.word	0x00001f07

00022758 <_ZN18complex_no_dynamic3app17hafc1b66259955043E>:
   22758:	b5f0      	push	{r4, r5, r6, r7, lr}
   2275a:	af03      	add	r7, sp, #12
   2275c:	b093      	sub	sp, #76	@ 0x4c
   2275e:	9002      	str	r0, [sp, #8]
   22760:	ae03      	add	r6, sp, #12
   22762:	2425      	movs	r4, #37	@ 0x25
   22764:	4630      	mov	r0, r6
   22766:	4622      	mov	r2, r4
   22768:	f004 fc4f 	bl	2700a <__aeabi_memcpy>
   2276c:	2000      	movs	r0, #0
   2276e:	9012      	str	r0, [sp, #72]	@ 0x48
   22770:	9011      	str	r0, [sp, #68]	@ 0x44
   22772:	9010      	str	r0, [sp, #64]	@ 0x40
   22774:	900f      	str	r0, [sp, #60]	@ 0x3c
   22776:	900e      	str	r0, [sp, #56]	@ 0x38
   22778:	900d      	str	r0, [sp, #52]	@ 0x34
   2277a:	20a7      	movs	r0, #167	@ 0xa7
   2277c:	0105      	lsls	r5, r0, #4
   2277e:	2109      	movs	r1, #9
   22780:	4628      	mov	r0, r5
   22782:	4632      	mov	r2, r6
   22784:	4623      	mov	r3, r4
   22786:	df04      	svc	4
   22788:	2802      	cmp	r0, #2
   2278a:	d00e      	beq.n	227aa <_ZN18complex_no_dynamic3app17hafc1b66259955043E+0x52>
   2278c:	2108      	movs	r1, #8
   2278e:	aa0d      	add	r2, sp, #52	@ 0x34
   22790:	2318      	movs	r3, #24
   22792:	4628      	mov	r0, r5
   22794:	df03      	svc	3
   22796:	2802      	cmp	r0, #2
   22798:	d007      	beq.n	227aa <_ZN18complex_no_dynamic3app17hafc1b66259955043E+0x52>
   2279a:	2109      	movs	r1, #9
   2279c:	2208      	movs	r2, #8
   2279e:	2600      	movs	r6, #0
   227a0:	4628      	mov	r0, r5
   227a2:	4633      	mov	r3, r6
   227a4:	df02      	svc	2
   227a6:	287f      	cmp	r0, #127	@ 0x7f
   227a8:	d810      	bhi.n	227cc <_ZN18complex_no_dynamic3app17hafc1b66259955043E+0x74>
   227aa:	2001      	movs	r0, #1
   227ac:	9a02      	ldr	r2, [sp, #8]
   227ae:	7010      	strb	r0, [r2, #0]
   227b0:	6051      	str	r1, [r2, #4]
   227b2:	2108      	movs	r1, #8
   227b4:	2400      	movs	r4, #0
   227b6:	4628      	mov	r0, r5
   227b8:	4622      	mov	r2, r4
   227ba:	4623      	mov	r3, r4
   227bc:	df03      	svc	3
   227be:	2109      	movs	r1, #9
   227c0:	4628      	mov	r0, r5
   227c2:	4622      	mov	r2, r4
   227c4:	4623      	mov	r3, r4
   227c6:	df04      	svc	4
   227c8:	b013      	add	sp, #76	@ 0x4c
   227ca:	bdf0      	pop	{r4, r5, r6, r7, pc}
   227cc:	2408      	movs	r4, #8
   227ce:	9401      	str	r4, [sp, #4]
   227d0:	4628      	mov	r0, r5
   227d2:	4621      	mov	r1, r4
   227d4:	4632      	mov	r2, r6
   227d6:	4633      	mov	r3, r6
   227d8:	df03      	svc	3
   227da:	4628      	mov	r0, r5
   227dc:	4621      	mov	r1, r4
   227de:	4632      	mov	r2, r6
   227e0:	4633      	mov	r3, r6
   227e2:	df03      	svc	3
   227e4:	9c02      	ldr	r4, [sp, #8]
   227e6:	1c60      	adds	r0, r4, #1
   227e8:	a90d      	add	r1, sp, #52	@ 0x34
   227ea:	2218      	movs	r2, #24
   227ec:	f004 fc0d 	bl	2700a <__aeabi_memcpy>
   227f0:	7026      	strb	r6, [r4, #0]
   227f2:	4628      	mov	r0, r5
   227f4:	9901      	ldr	r1, [sp, #4]
   227f6:	4632      	mov	r2, r6
   227f8:	4633      	mov	r3, r6
   227fa:	df03      	svc	3
   227fc:	2109      	movs	r1, #9
   227fe:	4628      	mov	r0, r5
   22800:	4632      	mov	r2, r6
   22802:	4633      	mov	r3, r6
   22804:	df04      	svc	4
   22806:	b013      	add	sp, #76	@ 0x4c
   22808:	bdf0      	pop	{r4, r5, r6, r7, pc}
   2280a:	d4d4      	bmi.n	227b6 <_ZN18complex_no_dynamic3app17hafc1b66259955043E+0x5e>

0002280c <_ZN18complex_no_dynamic3app17hb077803dad03ce50E>:
   2280c:	b5f0      	push	{r4, r5, r6, r7, lr}
   2280e:	af03      	add	r7, sp, #12
   22810:	b0a9      	sub	sp, #164	@ 0xa4
   22812:	4604      	mov	r4, r0
   22814:	ad01      	add	r5, sp, #4
   22816:	265d      	movs	r6, #93	@ 0x5d
   22818:	4628      	mov	r0, r5
   2281a:	4632      	mov	r2, r6
   2281c:	f004 fbf5 	bl	2700a <__aeabi_memcpy>
   22820:	a819      	add	r0, sp, #100	@ 0x64
   22822:	2140      	movs	r1, #64	@ 0x40
   22824:	f004 fa44 	bl	26cb0 <__aeabi_memclr4>
   22828:	4822      	ldr	r0, [pc, #136]	@ (228b4 <_ZN18complex_no_dynamic3app17hb077803dad03ce50E+0xa8>)
   2282a:	2108      	movs	r1, #8
   2282c:	462a      	mov	r2, r5
   2282e:	4633      	mov	r3, r6
   22830:	df04      	svc	4
   22832:	2802      	cmp	r0, #2
   22834:	d00e      	beq.n	22854 <_ZN18complex_no_dynamic3app17hb077803dad03ce50E+0x48>
   22836:	481f      	ldr	r0, [pc, #124]	@ (228b4 <_ZN18complex_no_dynamic3app17hb077803dad03ce50E+0xa8>)
   22838:	2104      	movs	r1, #4
   2283a:	aa19      	add	r2, sp, #100	@ 0x64
   2283c:	2340      	movs	r3, #64	@ 0x40
   2283e:	df03      	svc	3
   22840:	2802      	cmp	r0, #2
   22842:	d007      	beq.n	22854 <_ZN18complex_no_dynamic3app17hb077803dad03ce50E+0x48>
   22844:	481b      	ldr	r0, [pc, #108]	@ (228b4 <_ZN18complex_no_dynamic3app17hb077803dad03ce50E+0xa8>)
   22846:	2108      	movs	r1, #8
   22848:	2204      	movs	r2, #4
   2284a:	2500      	movs	r5, #0
   2284c:	462b      	mov	r3, r5
   2284e:	df02      	svc	2
   22850:	287f      	cmp	r0, #127	@ 0x7f
   22852:	d810      	bhi.n	22876 <_ZN18complex_no_dynamic3app17hb077803dad03ce50E+0x6a>
   22854:	2001      	movs	r0, #1
   22856:	7020      	strb	r0, [r4, #0]
   22858:	6061      	str	r1, [r4, #4]
   2285a:	4c16      	ldr	r4, [pc, #88]	@ (228b4 <_ZN18complex_no_dynamic3app17hb077803dad03ce50E+0xa8>)
   2285c:	2104      	movs	r1, #4
   2285e:	2500      	movs	r5, #0
   22860:	4620      	mov	r0, r4
   22862:	462a      	mov	r2, r5
   22864:	462b      	mov	r3, r5
   22866:	df03      	svc	3
   22868:	2108      	movs	r1, #8
   2286a:	4620      	mov	r0, r4
   2286c:	462a      	mov	r2, r5
   2286e:	462b      	mov	r3, r5
   22870:	df04      	svc	4
   22872:	b029      	add	sp, #164	@ 0xa4
   22874:	bdf0      	pop	{r4, r5, r6, r7, pc}
   22876:	480f      	ldr	r0, [pc, #60]	@ (228b4 <_ZN18complex_no_dynamic3app17hb077803dad03ce50E+0xa8>)
   22878:	2604      	movs	r6, #4
   2287a:	4631      	mov	r1, r6
   2287c:	462a      	mov	r2, r5
   2287e:	462b      	mov	r3, r5
   22880:	df03      	svc	3
   22882:	480c      	ldr	r0, [pc, #48]	@ (228b4 <_ZN18complex_no_dynamic3app17hb077803dad03ce50E+0xa8>)
   22884:	4631      	mov	r1, r6
   22886:	462a      	mov	r2, r5
   22888:	462b      	mov	r3, r5
   2288a:	df03      	svc	3
   2288c:	1c60      	adds	r0, r4, #1
   2288e:	a919      	add	r1, sp, #100	@ 0x64
   22890:	2240      	movs	r2, #64	@ 0x40
   22892:	f004 fbba 	bl	2700a <__aeabi_memcpy>
   22896:	7025      	strb	r5, [r4, #0]
   22898:	4c06      	ldr	r4, [pc, #24]	@ (228b4 <_ZN18complex_no_dynamic3app17hb077803dad03ce50E+0xa8>)
   2289a:	4620      	mov	r0, r4
   2289c:	4631      	mov	r1, r6
   2289e:	462a      	mov	r2, r5
   228a0:	462b      	mov	r3, r5
   228a2:	df03      	svc	3
   228a4:	2108      	movs	r1, #8
   228a6:	4620      	mov	r0, r4
   228a8:	462a      	mov	r2, r5
   228aa:	462b      	mov	r3, r5
   228ac:	df04      	svc	4
   228ae:	b029      	add	sp, #164	@ 0xa4
   228b0:	bdf0      	pop	{r4, r5, r6, r7, pc}
   228b2:	46c0      	nop			@ (mov r8, r8)
   228b4:	00001028 	.word	0x00001028

000228b8 <_ZN18complex_no_dynamic3app17hb088e3d5bebc94f9E>:
   228b8:	b5f0      	push	{r4, r5, r6, r7, lr}
   228ba:	af03      	add	r7, sp, #12
   228bc:	b091      	sub	sp, #68	@ 0x44
   228be:	4604      	mov	r4, r0
   228c0:	466d      	mov	r5, sp
   228c2:	2632      	movs	r6, #50	@ 0x32
   228c4:	4628      	mov	r0, r5
   228c6:	4632      	mov	r2, r6
   228c8:	f004 fb9f 	bl	2700a <__aeabi_memcpy>
   228cc:	2000      	movs	r0, #0
   228ce:	9010      	str	r0, [sp, #64]	@ 0x40
   228d0:	900f      	str	r0, [sp, #60]	@ 0x3c
   228d2:	900e      	str	r0, [sp, #56]	@ 0x38
   228d4:	900d      	str	r0, [sp, #52]	@ 0x34
   228d6:	4822      	ldr	r0, [pc, #136]	@ (22960 <_ZN18complex_no_dynamic3app17hb088e3d5bebc94f9E+0xa8>)
   228d8:	2104      	movs	r1, #4
   228da:	462a      	mov	r2, r5
   228dc:	4633      	mov	r3, r6
   228de:	df04      	svc	4
   228e0:	2802      	cmp	r0, #2
   228e2:	d00e      	beq.n	22902 <_ZN18complex_no_dynamic3app17hb088e3d5bebc94f9E+0x4a>
   228e4:	481e      	ldr	r0, [pc, #120]	@ (22960 <_ZN18complex_no_dynamic3app17hb088e3d5bebc94f9E+0xa8>)
   228e6:	2109      	movs	r1, #9
   228e8:	aa0d      	add	r2, sp, #52	@ 0x34
   228ea:	2310      	movs	r3, #16
   228ec:	df03      	svc	3
   228ee:	2802      	cmp	r0, #2
   228f0:	d007      	beq.n	22902 <_ZN18complex_no_dynamic3app17hb088e3d5bebc94f9E+0x4a>
   228f2:	481b      	ldr	r0, [pc, #108]	@ (22960 <_ZN18complex_no_dynamic3app17hb088e3d5bebc94f9E+0xa8>)
   228f4:	2104      	movs	r1, #4
   228f6:	2209      	movs	r2, #9
   228f8:	2500      	movs	r5, #0
   228fa:	462b      	mov	r3, r5
   228fc:	df02      	svc	2
   228fe:	287f      	cmp	r0, #127	@ 0x7f
   22900:	d810      	bhi.n	22924 <_ZN18complex_no_dynamic3app17hb088e3d5bebc94f9E+0x6c>
   22902:	2001      	movs	r0, #1
   22904:	7020      	strb	r0, [r4, #0]
   22906:	6061      	str	r1, [r4, #4]
   22908:	4c15      	ldr	r4, [pc, #84]	@ (22960 <_ZN18complex_no_dynamic3app17hb088e3d5bebc94f9E+0xa8>)
   2290a:	2109      	movs	r1, #9
   2290c:	2500      	movs	r5, #0
   2290e:	4620      	mov	r0, r4
   22910:	462a      	mov	r2, r5
   22912:	462b      	mov	r3, r5
   22914:	df03      	svc	3
   22916:	2104      	movs	r1, #4
   22918:	4620      	mov	r0, r4
   2291a:	462a      	mov	r2, r5
   2291c:	462b      	mov	r3, r5
   2291e:	df04      	svc	4
   22920:	b011      	add	sp, #68	@ 0x44
   22922:	bdf0      	pop	{r4, r5, r6, r7, pc}
   22924:	480e      	ldr	r0, [pc, #56]	@ (22960 <_ZN18complex_no_dynamic3app17hb088e3d5bebc94f9E+0xa8>)
   22926:	2609      	movs	r6, #9
   22928:	4631      	mov	r1, r6
   2292a:	462a      	mov	r2, r5
   2292c:	462b      	mov	r3, r5
   2292e:	df03      	svc	3
   22930:	480b      	ldr	r0, [pc, #44]	@ (22960 <_ZN18complex_no_dynamic3app17hb088e3d5bebc94f9E+0xa8>)
   22932:	4631      	mov	r1, r6
   22934:	462a      	mov	r2, r5
   22936:	462b      	mov	r3, r5
   22938:	df03      	svc	3
   2293a:	1c60      	adds	r0, r4, #1
   2293c:	a90d      	add	r1, sp, #52	@ 0x34
   2293e:	2210      	movs	r2, #16
   22940:	f004 fb63 	bl	2700a <__aeabi_memcpy>
   22944:	7025      	strb	r5, [r4, #0]
   22946:	4c06      	ldr	r4, [pc, #24]	@ (22960 <_ZN18complex_no_dynamic3app17hb088e3d5bebc94f9E+0xa8>)
   22948:	4620      	mov	r0, r4
   2294a:	4631      	mov	r1, r6
   2294c:	462a      	mov	r2, r5
   2294e:	462b      	mov	r3, r5
   22950:	df03      	svc	3
   22952:	2104      	movs	r1, #4
   22954:	4620      	mov	r0, r4
   22956:	462a      	mov	r2, r5
   22958:	462b      	mov	r3, r5
   2295a:	df04      	svc	4
   2295c:	b011      	add	sp, #68	@ 0x44
   2295e:	bdf0      	pop	{r4, r5, r6, r7, pc}
   22960:	000019d6 	.word	0x000019d6

00022964 <_ZN18complex_no_dynamic3app17hb7f56117b5b0424fE>:
   22964:	b5f0      	push	{r4, r5, r6, r7, lr}
   22966:	af03      	add	r7, sp, #12
   22968:	b09f      	sub	sp, #124	@ 0x7c
   2296a:	4604      	mov	r4, r0
   2296c:	466d      	mov	r5, sp
   2296e:	261c      	movs	r6, #28
   22970:	4628      	mov	r0, r5
   22972:	4632      	mov	r2, r6
   22974:	f004 fb49 	bl	2700a <__aeabi_memcpy>
   22978:	a807      	add	r0, sp, #28
   2297a:	215d      	movs	r1, #93	@ 0x5d
   2297c:	f004 f998 	bl	26cb0 <__aeabi_memclr4>
   22980:	4822      	ldr	r0, [pc, #136]	@ (22a0c <_ZN18complex_no_dynamic3app17hb7f56117b5b0424fE+0xa8>)
   22982:	2108      	movs	r1, #8
   22984:	462a      	mov	r2, r5
   22986:	4633      	mov	r3, r6
   22988:	df04      	svc	4
   2298a:	2802      	cmp	r0, #2
   2298c:	d00e      	beq.n	229ac <_ZN18complex_no_dynamic3app17hb7f56117b5b0424fE+0x48>
   2298e:	481f      	ldr	r0, [pc, #124]	@ (22a0c <_ZN18complex_no_dynamic3app17hb7f56117b5b0424fE+0xa8>)
   22990:	2105      	movs	r1, #5
   22992:	aa07      	add	r2, sp, #28
   22994:	235d      	movs	r3, #93	@ 0x5d
   22996:	df03      	svc	3
   22998:	2802      	cmp	r0, #2
   2299a:	d007      	beq.n	229ac <_ZN18complex_no_dynamic3app17hb7f56117b5b0424fE+0x48>
   2299c:	481b      	ldr	r0, [pc, #108]	@ (22a0c <_ZN18complex_no_dynamic3app17hb7f56117b5b0424fE+0xa8>)
   2299e:	2108      	movs	r1, #8
   229a0:	2205      	movs	r2, #5
   229a2:	2500      	movs	r5, #0
   229a4:	462b      	mov	r3, r5
   229a6:	df02      	svc	2
   229a8:	287f      	cmp	r0, #127	@ 0x7f
   229aa:	d810      	bhi.n	229ce <_ZN18complex_no_dynamic3app17hb7f56117b5b0424fE+0x6a>
   229ac:	2001      	movs	r0, #1
   229ae:	7020      	strb	r0, [r4, #0]
   229b0:	6061      	str	r1, [r4, #4]
   229b2:	4c16      	ldr	r4, [pc, #88]	@ (22a0c <_ZN18complex_no_dynamic3app17hb7f56117b5b0424fE+0xa8>)
   229b4:	2105      	movs	r1, #5
   229b6:	2500      	movs	r5, #0
   229b8:	4620      	mov	r0, r4
   229ba:	462a      	mov	r2, r5
   229bc:	462b      	mov	r3, r5
   229be:	df03      	svc	3
   229c0:	2108      	movs	r1, #8
   229c2:	4620      	mov	r0, r4
   229c4:	462a      	mov	r2, r5
   229c6:	462b      	mov	r3, r5
   229c8:	df04      	svc	4
   229ca:	b01f      	add	sp, #124	@ 0x7c
   229cc:	bdf0      	pop	{r4, r5, r6, r7, pc}
   229ce:	480f      	ldr	r0, [pc, #60]	@ (22a0c <_ZN18complex_no_dynamic3app17hb7f56117b5b0424fE+0xa8>)
   229d0:	2605      	movs	r6, #5
   229d2:	4631      	mov	r1, r6
   229d4:	462a      	mov	r2, r5
   229d6:	462b      	mov	r3, r5
   229d8:	df03      	svc	3
   229da:	480c      	ldr	r0, [pc, #48]	@ (22a0c <_ZN18complex_no_dynamic3app17hb7f56117b5b0424fE+0xa8>)
   229dc:	4631      	mov	r1, r6
   229de:	462a      	mov	r2, r5
   229e0:	462b      	mov	r3, r5
   229e2:	df03      	svc	3
   229e4:	1c60      	adds	r0, r4, #1
   229e6:	a907      	add	r1, sp, #28
   229e8:	225d      	movs	r2, #93	@ 0x5d
   229ea:	f004 fb0e 	bl	2700a <__aeabi_memcpy>
   229ee:	7025      	strb	r5, [r4, #0]
   229f0:	4c06      	ldr	r4, [pc, #24]	@ (22a0c <_ZN18complex_no_dynamic3app17hb7f56117b5b0424fE+0xa8>)
   229f2:	4620      	mov	r0, r4
   229f4:	4631      	mov	r1, r6
   229f6:	462a      	mov	r2, r5
   229f8:	462b      	mov	r3, r5
   229fa:	df03      	svc	3
   229fc:	2108      	movs	r1, #8
   229fe:	4620      	mov	r0, r4
   22a00:	462a      	mov	r2, r5
   22a02:	462b      	mov	r3, r5
   22a04:	df04      	svc	4
   22a06:	b01f      	add	sp, #124	@ 0x7c
   22a08:	bdf0      	pop	{r4, r5, r6, r7, pc}
   22a0a:	46c0      	nop			@ (mov r8, r8)
   22a0c:	00000c3e 	.word	0x00000c3e

00022a10 <_ZN18complex_no_dynamic3app17hba1ca78aaf629845E>:
   22a10:	b5f0      	push	{r4, r5, r6, r7, lr}
   22a12:	af03      	add	r7, sp, #12
   22a14:	b09d      	sub	sp, #116	@ 0x74
   22a16:	4604      	mov	r4, r0
   22a18:	466d      	mov	r5, sp
   22a1a:	2640      	movs	r6, #64	@ 0x40
   22a1c:	4628      	mov	r0, r5
   22a1e:	4632      	mov	r2, r6
   22a20:	f004 faf3 	bl	2700a <__aeabi_memcpy>
   22a24:	a810      	add	r0, sp, #64	@ 0x40
   22a26:	2131      	movs	r1, #49	@ 0x31
   22a28:	f004 f942 	bl	26cb0 <__aeabi_memclr4>
   22a2c:	4822      	ldr	r0, [pc, #136]	@ (22ab8 <_ZN18complex_no_dynamic3app17hba1ca78aaf629845E+0xa8>)
   22a2e:	2108      	movs	r1, #8
   22a30:	462a      	mov	r2, r5
   22a32:	4633      	mov	r3, r6
   22a34:	df04      	svc	4
   22a36:	2802      	cmp	r0, #2
   22a38:	d00e      	beq.n	22a58 <_ZN18complex_no_dynamic3app17hba1ca78aaf629845E+0x48>
   22a3a:	481f      	ldr	r0, [pc, #124]	@ (22ab8 <_ZN18complex_no_dynamic3app17hba1ca78aaf629845E+0xa8>)
   22a3c:	2105      	movs	r1, #5
   22a3e:	aa10      	add	r2, sp, #64	@ 0x40
   22a40:	2331      	movs	r3, #49	@ 0x31
   22a42:	df03      	svc	3
   22a44:	2802      	cmp	r0, #2
   22a46:	d007      	beq.n	22a58 <_ZN18complex_no_dynamic3app17hba1ca78aaf629845E+0x48>
   22a48:	481b      	ldr	r0, [pc, #108]	@ (22ab8 <_ZN18complex_no_dynamic3app17hba1ca78aaf629845E+0xa8>)
   22a4a:	2108      	movs	r1, #8
   22a4c:	2205      	movs	r2, #5
   22a4e:	2500      	movs	r5, #0
   22a50:	462b      	mov	r3, r5
   22a52:	df02      	svc	2
   22a54:	287f      	cmp	r0, #127	@ 0x7f
   22a56:	d810      	bhi.n	22a7a <_ZN18complex_no_dynamic3app17hba1ca78aaf629845E+0x6a>
   22a58:	2001      	movs	r0, #1
   22a5a:	7020      	strb	r0, [r4, #0]
   22a5c:	6061      	str	r1, [r4, #4]
   22a5e:	4c16      	ldr	r4, [pc, #88]	@ (22ab8 <_ZN18complex_no_dynamic3app17hba1ca78aaf629845E+0xa8>)
   22a60:	2105      	movs	r1, #5
   22a62:	2500      	movs	r5, #0
   22a64:	4620      	mov	r0, r4
   22a66:	462a      	mov	r2, r5
   22a68:	462b      	mov	r3, r5
   22a6a:	df03      	svc	3
   22a6c:	2108      	movs	r1, #8
   22a6e:	4620      	mov	r0, r4
   22a70:	462a      	mov	r2, r5
   22a72:	462b      	mov	r3, r5
   22a74:	df04      	svc	4
   22a76:	b01d      	add	sp, #116	@ 0x74
   22a78:	bdf0      	pop	{r4, r5, r6, r7, pc}
   22a7a:	480f      	ldr	r0, [pc, #60]	@ (22ab8 <_ZN18complex_no_dynamic3app17hba1ca78aaf629845E+0xa8>)
   22a7c:	2605      	movs	r6, #5
   22a7e:	4631      	mov	r1, r6
   22a80:	462a      	mov	r2, r5
   22a82:	462b      	mov	r3, r5
   22a84:	df03      	svc	3
   22a86:	480c      	ldr	r0, [pc, #48]	@ (22ab8 <_ZN18complex_no_dynamic3app17hba1ca78aaf629845E+0xa8>)
   22a88:	4631      	mov	r1, r6
   22a8a:	462a      	mov	r2, r5
   22a8c:	462b      	mov	r3, r5
   22a8e:	df03      	svc	3
   22a90:	1c60      	adds	r0, r4, #1
   22a92:	a910      	add	r1, sp, #64	@ 0x40
   22a94:	2231      	movs	r2, #49	@ 0x31
   22a96:	f004 fab8 	bl	2700a <__aeabi_memcpy>
   22a9a:	7025      	strb	r5, [r4, #0]
   22a9c:	4c06      	ldr	r4, [pc, #24]	@ (22ab8 <_ZN18complex_no_dynamic3app17hba1ca78aaf629845E+0xa8>)
   22a9e:	4620      	mov	r0, r4
   22aa0:	4631      	mov	r1, r6
   22aa2:	462a      	mov	r2, r5
   22aa4:	462b      	mov	r3, r5
   22aa6:	df03      	svc	3
   22aa8:	2108      	movs	r1, #8
   22aaa:	4620      	mov	r0, r4
   22aac:	462a      	mov	r2, r5
   22aae:	462b      	mov	r3, r5
   22ab0:	df04      	svc	4
   22ab2:	b01d      	add	sp, #116	@ 0x74
   22ab4:	bdf0      	pop	{r4, r5, r6, r7, pc}
   22ab6:	46c0      	nop			@ (mov r8, r8)
   22ab8:	00000fce 	.word	0x00000fce

00022abc <_ZN18complex_no_dynamic3app17hbad619459ec11b72E>:
   22abc:	b5f0      	push	{r4, r5, r6, r7, lr}
   22abe:	af03      	add	r7, sp, #12
   22ac0:	b09f      	sub	sp, #124	@ 0x7c
   22ac2:	4604      	mov	r4, r0
   22ac4:	ad01      	add	r5, sp, #4
   22ac6:	2621      	movs	r6, #33	@ 0x21
   22ac8:	4628      	mov	r0, r5
   22aca:	4632      	mov	r2, r6
   22acc:	f004 fa9d 	bl	2700a <__aeabi_memcpy>
   22ad0:	a80a      	add	r0, sp, #40	@ 0x28
   22ad2:	2153      	movs	r1, #83	@ 0x53
   22ad4:	f004 f8ec 	bl	26cb0 <__aeabi_memclr4>
   22ad8:	4822      	ldr	r0, [pc, #136]	@ (22b64 <_ZN18complex_no_dynamic3app17hbad619459ec11b72E+0xa8>)
   22ada:	2102      	movs	r1, #2
   22adc:	462a      	mov	r2, r5
   22ade:	4633      	mov	r3, r6
   22ae0:	df04      	svc	4
   22ae2:	2802      	cmp	r0, #2
   22ae4:	d00e      	beq.n	22b04 <_ZN18complex_no_dynamic3app17hbad619459ec11b72E+0x48>
   22ae6:	481f      	ldr	r0, [pc, #124]	@ (22b64 <_ZN18complex_no_dynamic3app17hbad619459ec11b72E+0xa8>)
   22ae8:	2108      	movs	r1, #8
   22aea:	aa0a      	add	r2, sp, #40	@ 0x28
   22aec:	2353      	movs	r3, #83	@ 0x53
   22aee:	df03      	svc	3
   22af0:	2802      	cmp	r0, #2
   22af2:	d007      	beq.n	22b04 <_ZN18complex_no_dynamic3app17hbad619459ec11b72E+0x48>
   22af4:	481b      	ldr	r0, [pc, #108]	@ (22b64 <_ZN18complex_no_dynamic3app17hbad619459ec11b72E+0xa8>)
   22af6:	2102      	movs	r1, #2
   22af8:	2208      	movs	r2, #8
   22afa:	2500      	movs	r5, #0
   22afc:	462b      	mov	r3, r5
   22afe:	df02      	svc	2
   22b00:	287f      	cmp	r0, #127	@ 0x7f
   22b02:	d810      	bhi.n	22b26 <_ZN18complex_no_dynamic3app17hbad619459ec11b72E+0x6a>
   22b04:	2001      	movs	r0, #1
   22b06:	7020      	strb	r0, [r4, #0]
   22b08:	6061      	str	r1, [r4, #4]
   22b0a:	4c16      	ldr	r4, [pc, #88]	@ (22b64 <_ZN18complex_no_dynamic3app17hbad619459ec11b72E+0xa8>)
   22b0c:	2108      	movs	r1, #8
   22b0e:	2500      	movs	r5, #0
   22b10:	4620      	mov	r0, r4
   22b12:	462a      	mov	r2, r5
   22b14:	462b      	mov	r3, r5
   22b16:	df03      	svc	3
   22b18:	2102      	movs	r1, #2
   22b1a:	4620      	mov	r0, r4
   22b1c:	462a      	mov	r2, r5
   22b1e:	462b      	mov	r3, r5
   22b20:	df04      	svc	4
   22b22:	b01f      	add	sp, #124	@ 0x7c
   22b24:	bdf0      	pop	{r4, r5, r6, r7, pc}
   22b26:	480f      	ldr	r0, [pc, #60]	@ (22b64 <_ZN18complex_no_dynamic3app17hbad619459ec11b72E+0xa8>)
   22b28:	2608      	movs	r6, #8
   22b2a:	4631      	mov	r1, r6
   22b2c:	462a      	mov	r2, r5
   22b2e:	462b      	mov	r3, r5
   22b30:	df03      	svc	3
   22b32:	480c      	ldr	r0, [pc, #48]	@ (22b64 <_ZN18complex_no_dynamic3app17hbad619459ec11b72E+0xa8>)
   22b34:	4631      	mov	r1, r6
   22b36:	462a      	mov	r2, r5
   22b38:	462b      	mov	r3, r5
   22b3a:	df03      	svc	3
   22b3c:	1c60      	adds	r0, r4, #1
   22b3e:	a90a      	add	r1, sp, #40	@ 0x28
   22b40:	2253      	movs	r2, #83	@ 0x53
   22b42:	f004 fa62 	bl	2700a <__aeabi_memcpy>
   22b46:	7025      	strb	r5, [r4, #0]
   22b48:	4c06      	ldr	r4, [pc, #24]	@ (22b64 <_ZN18complex_no_dynamic3app17hbad619459ec11b72E+0xa8>)
   22b4a:	4620      	mov	r0, r4
   22b4c:	4631      	mov	r1, r6
   22b4e:	462a      	mov	r2, r5
   22b50:	462b      	mov	r3, r5
   22b52:	df03      	svc	3
   22b54:	2102      	movs	r1, #2
   22b56:	4620      	mov	r0, r4
   22b58:	462a      	mov	r2, r5
   22b5a:	462b      	mov	r3, r5
   22b5c:	df04      	svc	4
   22b5e:	b01f      	add	sp, #124	@ 0x7c
   22b60:	bdf0      	pop	{r4, r5, r6, r7, pc}
   22b62:	46c0      	nop			@ (mov r8, r8)
   22b64:	0000253e 	.word	0x0000253e

00022b68 <_ZN18complex_no_dynamic3app17hbd67b73117b1c954E>:
   22b68:	b5f0      	push	{r4, r5, r6, r7, lr}
   22b6a:	af03      	add	r7, sp, #12
   22b6c:	b095      	sub	sp, #84	@ 0x54
   22b6e:	4604      	mov	r4, r0
   22b70:	ad01      	add	r5, sp, #4
   22b72:	2634      	movs	r6, #52	@ 0x34
   22b74:	4628      	mov	r0, r5
   22b76:	4632      	mov	r2, r6
   22b78:	f004 fa47 	bl	2700a <__aeabi_memcpy>
   22b7c:	a80e      	add	r0, sp, #56	@ 0x38
   22b7e:	2100      	movs	r1, #0
   22b80:	8301      	strh	r1, [r0, #24]
   22b82:	9113      	str	r1, [sp, #76]	@ 0x4c
   22b84:	9112      	str	r1, [sp, #72]	@ 0x48
   22b86:	9111      	str	r1, [sp, #68]	@ 0x44
   22b88:	9110      	str	r1, [sp, #64]	@ 0x40
   22b8a:	910f      	str	r1, [sp, #60]	@ 0x3c
   22b8c:	910e      	str	r1, [sp, #56]	@ 0x38
   22b8e:	4822      	ldr	r0, [pc, #136]	@ (22c18 <_ZN18complex_no_dynamic3app17hbd67b73117b1c954E+0xb0>)
   22b90:	462a      	mov	r2, r5
   22b92:	4633      	mov	r3, r6
   22b94:	df04      	svc	4
   22b96:	2802      	cmp	r0, #2
   22b98:	d00e      	beq.n	22bb8 <_ZN18complex_no_dynamic3app17hbd67b73117b1c954E+0x50>
   22b9a:	481f      	ldr	r0, [pc, #124]	@ (22c18 <_ZN18complex_no_dynamic3app17hbd67b73117b1c954E+0xb0>)
   22b9c:	2105      	movs	r1, #5
   22b9e:	aa0e      	add	r2, sp, #56	@ 0x38
   22ba0:	231a      	movs	r3, #26
   22ba2:	df03      	svc	3
   22ba4:	2802      	cmp	r0, #2
   22ba6:	d007      	beq.n	22bb8 <_ZN18complex_no_dynamic3app17hbd67b73117b1c954E+0x50>
   22ba8:	481b      	ldr	r0, [pc, #108]	@ (22c18 <_ZN18complex_no_dynamic3app17hbd67b73117b1c954E+0xb0>)
   22baa:	2205      	movs	r2, #5
   22bac:	2500      	movs	r5, #0
   22bae:	4629      	mov	r1, r5
   22bb0:	462b      	mov	r3, r5
   22bb2:	df02      	svc	2
   22bb4:	287f      	cmp	r0, #127	@ 0x7f
   22bb6:	d810      	bhi.n	22bda <_ZN18complex_no_dynamic3app17hbd67b73117b1c954E+0x72>
   22bb8:	2001      	movs	r0, #1
   22bba:	7020      	strb	r0, [r4, #0]
   22bbc:	6061      	str	r1, [r4, #4]
   22bbe:	4c16      	ldr	r4, [pc, #88]	@ (22c18 <_ZN18complex_no_dynamic3app17hbd67b73117b1c954E+0xb0>)
   22bc0:	2105      	movs	r1, #5
   22bc2:	2500      	movs	r5, #0
   22bc4:	4620      	mov	r0, r4
   22bc6:	462a      	mov	r2, r5
   22bc8:	462b      	mov	r3, r5
   22bca:	df03      	svc	3
   22bcc:	4620      	mov	r0, r4
   22bce:	4629      	mov	r1, r5
   22bd0:	462a      	mov	r2, r5
   22bd2:	462b      	mov	r3, r5
   22bd4:	df04      	svc	4
   22bd6:	b015      	add	sp, #84	@ 0x54
   22bd8:	bdf0      	pop	{r4, r5, r6, r7, pc}
   22bda:	480f      	ldr	r0, [pc, #60]	@ (22c18 <_ZN18complex_no_dynamic3app17hbd67b73117b1c954E+0xb0>)
   22bdc:	2605      	movs	r6, #5
   22bde:	4631      	mov	r1, r6
   22be0:	462a      	mov	r2, r5
   22be2:	462b      	mov	r3, r5
   22be4:	df03      	svc	3
   22be6:	480c      	ldr	r0, [pc, #48]	@ (22c18 <_ZN18complex_no_dynamic3app17hbd67b73117b1c954E+0xb0>)
   22be8:	4631      	mov	r1, r6
   22bea:	462a      	mov	r2, r5
   22bec:	462b      	mov	r3, r5
   22bee:	df03      	svc	3
   22bf0:	1c60      	adds	r0, r4, #1
   22bf2:	a90e      	add	r1, sp, #56	@ 0x38
   22bf4:	221a      	movs	r2, #26
   22bf6:	f004 fa08 	bl	2700a <__aeabi_memcpy>
   22bfa:	7025      	strb	r5, [r4, #0]
   22bfc:	4c06      	ldr	r4, [pc, #24]	@ (22c18 <_ZN18complex_no_dynamic3app17hbd67b73117b1c954E+0xb0>)
   22bfe:	4620      	mov	r0, r4
   22c00:	4631      	mov	r1, r6
   22c02:	462a      	mov	r2, r5
   22c04:	462b      	mov	r3, r5
   22c06:	df03      	svc	3
   22c08:	4620      	mov	r0, r4
   22c0a:	4629      	mov	r1, r5
   22c0c:	462a      	mov	r2, r5
   22c0e:	462b      	mov	r3, r5
   22c10:	df04      	svc	4
   22c12:	b015      	add	sp, #84	@ 0x54
   22c14:	bdf0      	pop	{r4, r5, r6, r7, pc}
   22c16:	46c0      	nop			@ (mov r8, r8)
   22c18:	000012cc 	.word	0x000012cc

00022c1c <_ZN18complex_no_dynamic3app17hbf94c83d1ee9d763E>:
   22c1c:	b5f0      	push	{r4, r5, r6, r7, lr}
   22c1e:	af03      	add	r7, sp, #12
   22c20:	b095      	sub	sp, #84	@ 0x54
   22c22:	4604      	mov	r4, r0
   22c24:	466d      	mov	r5, sp
   22c26:	262c      	movs	r6, #44	@ 0x2c
   22c28:	4628      	mov	r0, r5
   22c2a:	4632      	mov	r2, r6
   22c2c:	f004 f9ed 	bl	2700a <__aeabi_memcpy>
   22c30:	a80b      	add	r0, sp, #44	@ 0x2c
   22c32:	2127      	movs	r1, #39	@ 0x27
   22c34:	f004 f83c 	bl	26cb0 <__aeabi_memclr4>
   22c38:	4822      	ldr	r0, [pc, #136]	@ (22cc4 <_ZN18complex_no_dynamic3app17hbf94c83d1ee9d763E+0xa8>)
   22c3a:	2104      	movs	r1, #4
   22c3c:	462a      	mov	r2, r5
   22c3e:	4633      	mov	r3, r6
   22c40:	df04      	svc	4
   22c42:	2802      	cmp	r0, #2
   22c44:	d00e      	beq.n	22c64 <_ZN18complex_no_dynamic3app17hbf94c83d1ee9d763E+0x48>
   22c46:	481f      	ldr	r0, [pc, #124]	@ (22cc4 <_ZN18complex_no_dynamic3app17hbf94c83d1ee9d763E+0xa8>)
   22c48:	2103      	movs	r1, #3
   22c4a:	aa0b      	add	r2, sp, #44	@ 0x2c
   22c4c:	2327      	movs	r3, #39	@ 0x27
   22c4e:	df03      	svc	3
   22c50:	2802      	cmp	r0, #2
   22c52:	d007      	beq.n	22c64 <_ZN18complex_no_dynamic3app17hbf94c83d1ee9d763E+0x48>
   22c54:	481b      	ldr	r0, [pc, #108]	@ (22cc4 <_ZN18complex_no_dynamic3app17hbf94c83d1ee9d763E+0xa8>)
   22c56:	2104      	movs	r1, #4
   22c58:	2203      	movs	r2, #3
   22c5a:	2500      	movs	r5, #0
   22c5c:	462b      	mov	r3, r5
   22c5e:	df02      	svc	2
   22c60:	287f      	cmp	r0, #127	@ 0x7f
   22c62:	d810      	bhi.n	22c86 <_ZN18complex_no_dynamic3app17hbf94c83d1ee9d763E+0x6a>
   22c64:	2001      	movs	r0, #1
   22c66:	7020      	strb	r0, [r4, #0]
   22c68:	6061      	str	r1, [r4, #4]
   22c6a:	4c16      	ldr	r4, [pc, #88]	@ (22cc4 <_ZN18complex_no_dynamic3app17hbf94c83d1ee9d763E+0xa8>)
   22c6c:	2103      	movs	r1, #3
   22c6e:	2500      	movs	r5, #0
   22c70:	4620      	mov	r0, r4
   22c72:	462a      	mov	r2, r5
   22c74:	462b      	mov	r3, r5
   22c76:	df03      	svc	3
   22c78:	2104      	movs	r1, #4
   22c7a:	4620      	mov	r0, r4
   22c7c:	462a      	mov	r2, r5
   22c7e:	462b      	mov	r3, r5
   22c80:	df04      	svc	4
   22c82:	b015      	add	sp, #84	@ 0x54
   22c84:	bdf0      	pop	{r4, r5, r6, r7, pc}
   22c86:	480f      	ldr	r0, [pc, #60]	@ (22cc4 <_ZN18complex_no_dynamic3app17hbf94c83d1ee9d763E+0xa8>)
   22c88:	2603      	movs	r6, #3
   22c8a:	4631      	mov	r1, r6
   22c8c:	462a      	mov	r2, r5
   22c8e:	462b      	mov	r3, r5
   22c90:	df03      	svc	3
   22c92:	480c      	ldr	r0, [pc, #48]	@ (22cc4 <_ZN18complex_no_dynamic3app17hbf94c83d1ee9d763E+0xa8>)
   22c94:	4631      	mov	r1, r6
   22c96:	462a      	mov	r2, r5
   22c98:	462b      	mov	r3, r5
   22c9a:	df03      	svc	3
   22c9c:	1c60      	adds	r0, r4, #1
   22c9e:	a90b      	add	r1, sp, #44	@ 0x2c
   22ca0:	2227      	movs	r2, #39	@ 0x27
   22ca2:	f004 f9b2 	bl	2700a <__aeabi_memcpy>
   22ca6:	7025      	strb	r5, [r4, #0]
   22ca8:	4c06      	ldr	r4, [pc, #24]	@ (22cc4 <_ZN18complex_no_dynamic3app17hbf94c83d1ee9d763E+0xa8>)
   22caa:	4620      	mov	r0, r4
   22cac:	4631      	mov	r1, r6
   22cae:	462a      	mov	r2, r5
   22cb0:	462b      	mov	r3, r5
   22cb2:	df03      	svc	3
   22cb4:	2104      	movs	r1, #4
   22cb6:	4620      	mov	r0, r4
   22cb8:	462a      	mov	r2, r5
   22cba:	462b      	mov	r3, r5
   22cbc:	df04      	svc	4
   22cbe:	b015      	add	sp, #84	@ 0x54
   22cc0:	bdf0      	pop	{r4, r5, r6, r7, pc}
   22cc2:	46c0      	nop			@ (mov r8, r8)
   22cc4:	000011b5 	.word	0x000011b5

00022cc8 <_ZN18complex_no_dynamic3app17hc00d582144b72b01E>:
   22cc8:	b5f0      	push	{r4, r5, r6, r7, lr}
   22cca:	af03      	add	r7, sp, #12
   22ccc:	b093      	sub	sp, #76	@ 0x4c
   22cce:	4604      	mov	r4, r0
   22cd0:	466d      	mov	r5, sp
   22cd2:	262b      	movs	r6, #43	@ 0x2b
   22cd4:	4628      	mov	r0, r5
   22cd6:	4632      	mov	r2, r6
   22cd8:	f004 f997 	bl	2700a <__aeabi_memcpy>
   22cdc:	a80b      	add	r0, sp, #44	@ 0x2c
   22cde:	2100      	movs	r1, #0
   22ce0:	8381      	strh	r1, [r0, #28]
   22ce2:	9111      	str	r1, [sp, #68]	@ 0x44
   22ce4:	9110      	str	r1, [sp, #64]	@ 0x40
   22ce6:	910f      	str	r1, [sp, #60]	@ 0x3c
   22ce8:	910e      	str	r1, [sp, #56]	@ 0x38
   22cea:	910d      	str	r1, [sp, #52]	@ 0x34
   22cec:	910c      	str	r1, [sp, #48]	@ 0x30
   22cee:	910b      	str	r1, [sp, #44]	@ 0x2c
   22cf0:	4822      	ldr	r0, [pc, #136]	@ (22d7c <_ZN18complex_no_dynamic3app17hc00d582144b72b01E+0xb4>)
   22cf2:	2107      	movs	r1, #7
   22cf4:	462a      	mov	r2, r5
   22cf6:	4633      	mov	r3, r6
   22cf8:	df04      	svc	4
   22cfa:	2802      	cmp	r0, #2
   22cfc:	d00e      	beq.n	22d1c <_ZN18complex_no_dynamic3app17hc00d582144b72b01E+0x54>
   22cfe:	481f      	ldr	r0, [pc, #124]	@ (22d7c <_ZN18complex_no_dynamic3app17hc00d582144b72b01E+0xb4>)
   22d00:	2108      	movs	r1, #8
   22d02:	aa0b      	add	r2, sp, #44	@ 0x2c
   22d04:	231e      	movs	r3, #30
   22d06:	df03      	svc	3
   22d08:	2802      	cmp	r0, #2
   22d0a:	d007      	beq.n	22d1c <_ZN18complex_no_dynamic3app17hc00d582144b72b01E+0x54>
   22d0c:	481b      	ldr	r0, [pc, #108]	@ (22d7c <_ZN18complex_no_dynamic3app17hc00d582144b72b01E+0xb4>)
   22d0e:	2107      	movs	r1, #7
   22d10:	2208      	movs	r2, #8
   22d12:	2500      	movs	r5, #0
   22d14:	462b      	mov	r3, r5
   22d16:	df02      	svc	2
   22d18:	287f      	cmp	r0, #127	@ 0x7f
   22d1a:	d810      	bhi.n	22d3e <_ZN18complex_no_dynamic3app17hc00d582144b72b01E+0x76>
   22d1c:	2001      	movs	r0, #1
   22d1e:	7020      	strb	r0, [r4, #0]
   22d20:	6061      	str	r1, [r4, #4]
   22d22:	4c16      	ldr	r4, [pc, #88]	@ (22d7c <_ZN18complex_no_dynamic3app17hc00d582144b72b01E+0xb4>)
   22d24:	2108      	movs	r1, #8
   22d26:	2500      	movs	r5, #0
   22d28:	4620      	mov	r0, r4
   22d2a:	462a      	mov	r2, r5
   22d2c:	462b      	mov	r3, r5
   22d2e:	df03      	svc	3
   22d30:	2107      	movs	r1, #7
   22d32:	4620      	mov	r0, r4
   22d34:	462a      	mov	r2, r5
   22d36:	462b      	mov	r3, r5
   22d38:	df04      	svc	4
   22d3a:	b013      	add	sp, #76	@ 0x4c
   22d3c:	bdf0      	pop	{r4, r5, r6, r7, pc}
   22d3e:	480f      	ldr	r0, [pc, #60]	@ (22d7c <_ZN18complex_no_dynamic3app17hc00d582144b72b01E+0xb4>)
   22d40:	2608      	movs	r6, #8
   22d42:	4631      	mov	r1, r6
   22d44:	462a      	mov	r2, r5
   22d46:	462b      	mov	r3, r5
   22d48:	df03      	svc	3
   22d4a:	480c      	ldr	r0, [pc, #48]	@ (22d7c <_ZN18complex_no_dynamic3app17hc00d582144b72b01E+0xb4>)
   22d4c:	4631      	mov	r1, r6
   22d4e:	462a      	mov	r2, r5
   22d50:	462b      	mov	r3, r5
   22d52:	df03      	svc	3
   22d54:	1c60      	adds	r0, r4, #1
   22d56:	a90b      	add	r1, sp, #44	@ 0x2c
   22d58:	221e      	movs	r2, #30
   22d5a:	f004 f956 	bl	2700a <__aeabi_memcpy>
   22d5e:	7025      	strb	r5, [r4, #0]
   22d60:	4c06      	ldr	r4, [pc, #24]	@ (22d7c <_ZN18complex_no_dynamic3app17hc00d582144b72b01E+0xb4>)
   22d62:	4620      	mov	r0, r4
   22d64:	4631      	mov	r1, r6
   22d66:	462a      	mov	r2, r5
   22d68:	462b      	mov	r3, r5
   22d6a:	df03      	svc	3
   22d6c:	2107      	movs	r1, #7
   22d6e:	4620      	mov	r0, r4
   22d70:	462a      	mov	r2, r5
   22d72:	462b      	mov	r3, r5
   22d74:	df04      	svc	4
   22d76:	b013      	add	sp, #76	@ 0x4c
   22d78:	bdf0      	pop	{r4, r5, r6, r7, pc}
   22d7a:	46c0      	nop			@ (mov r8, r8)
   22d7c:	000007e3 	.word	0x000007e3

00022d80 <_ZN18complex_no_dynamic3app17hc50f7558f2458cb0E>:
   22d80:	b5f0      	push	{r4, r5, r6, r7, lr}
   22d82:	af03      	add	r7, sp, #12
   22d84:	b099      	sub	sp, #100	@ 0x64
   22d86:	4604      	mov	r4, r0
   22d88:	ad01      	add	r5, sp, #4
   22d8a:	2638      	movs	r6, #56	@ 0x38
   22d8c:	4628      	mov	r0, r5
   22d8e:	4632      	mov	r2, r6
   22d90:	f004 f93b 	bl	2700a <__aeabi_memcpy>
   22d94:	a80f      	add	r0, sp, #60	@ 0x3c
   22d96:	2127      	movs	r1, #39	@ 0x27
   22d98:	f003 ff8a 	bl	26cb0 <__aeabi_memclr4>
   22d9c:	4822      	ldr	r0, [pc, #136]	@ (22e28 <_ZN18complex_no_dynamic3app17hc50f7558f2458cb0E+0xa8>)
   22d9e:	2102      	movs	r1, #2
   22da0:	462a      	mov	r2, r5
   22da2:	4633      	mov	r3, r6
   22da4:	df04      	svc	4
   22da6:	2802      	cmp	r0, #2
   22da8:	d00e      	beq.n	22dc8 <_ZN18complex_no_dynamic3app17hc50f7558f2458cb0E+0x48>
   22daa:	481f      	ldr	r0, [pc, #124]	@ (22e28 <_ZN18complex_no_dynamic3app17hc50f7558f2458cb0E+0xa8>)
   22dac:	2108      	movs	r1, #8
   22dae:	aa0f      	add	r2, sp, #60	@ 0x3c
   22db0:	2327      	movs	r3, #39	@ 0x27
   22db2:	df03      	svc	3
   22db4:	2802      	cmp	r0, #2
   22db6:	d007      	beq.n	22dc8 <_ZN18complex_no_dynamic3app17hc50f7558f2458cb0E+0x48>
   22db8:	481b      	ldr	r0, [pc, #108]	@ (22e28 <_ZN18complex_no_dynamic3app17hc50f7558f2458cb0E+0xa8>)
   22dba:	2102      	movs	r1, #2
   22dbc:	2208      	movs	r2, #8
   22dbe:	2500      	movs	r5, #0
   22dc0:	462b      	mov	r3, r5
   22dc2:	df02      	svc	2
   22dc4:	287f      	cmp	r0, #127	@ 0x7f
   22dc6:	d810      	bhi.n	22dea <_ZN18complex_no_dynamic3app17hc50f7558f2458cb0E+0x6a>
   22dc8:	2001      	movs	r0, #1
   22dca:	7020      	strb	r0, [r4, #0]
   22dcc:	6061      	str	r1, [r4, #4]
   22dce:	4c16      	ldr	r4, [pc, #88]	@ (22e28 <_ZN18complex_no_dynamic3app17hc50f7558f2458cb0E+0xa8>)
   22dd0:	2108      	movs	r1, #8
   22dd2:	2500      	movs	r5, #0
   22dd4:	4620      	mov	r0, r4
   22dd6:	462a      	mov	r2, r5
   22dd8:	462b      	mov	r3, r5
   22dda:	df03      	svc	3
   22ddc:	2102      	movs	r1, #2
   22dde:	4620      	mov	r0, r4
   22de0:	462a      	mov	r2, r5
   22de2:	462b      	mov	r3, r5
   22de4:	df04      	svc	4
   22de6:	b019      	add	sp, #100	@ 0x64
   22de8:	bdf0      	pop	{r4, r5, r6, r7, pc}
   22dea:	480f      	ldr	r0, [pc, #60]	@ (22e28 <_ZN18complex_no_dynamic3app17hc50f7558f2458cb0E+0xa8>)
   22dec:	2608      	movs	r6, #8
   22dee:	4631      	mov	r1, r6
   22df0:	462a      	mov	r2, r5
   22df2:	462b      	mov	r3, r5
   22df4:	df03      	svc	3
   22df6:	480c      	ldr	r0, [pc, #48]	@ (22e28 <_ZN18complex_no_dynamic3app17hc50f7558f2458cb0E+0xa8>)
   22df8:	4631      	mov	r1, r6
   22dfa:	462a      	mov	r2, r5
   22dfc:	462b      	mov	r3, r5
   22dfe:	df03      	svc	3
   22e00:	1c60      	adds	r0, r4, #1
   22e02:	a90f      	add	r1, sp, #60	@ 0x3c
   22e04:	2227      	movs	r2, #39	@ 0x27
   22e06:	f004 f900 	bl	2700a <__aeabi_memcpy>
   22e0a:	7025      	strb	r5, [r4, #0]
   22e0c:	4c06      	ldr	r4, [pc, #24]	@ (22e28 <_ZN18complex_no_dynamic3app17hc50f7558f2458cb0E+0xa8>)
   22e0e:	4620      	mov	r0, r4
   22e10:	4631      	mov	r1, r6
   22e12:	462a      	mov	r2, r5
   22e14:	462b      	mov	r3, r5
   22e16:	df03      	svc	3
   22e18:	2102      	movs	r1, #2
   22e1a:	4620      	mov	r0, r4
   22e1c:	462a      	mov	r2, r5
   22e1e:	462b      	mov	r3, r5
   22e20:	df04      	svc	4
   22e22:	b019      	add	sp, #100	@ 0x64
   22e24:	bdf0      	pop	{r4, r5, r6, r7, pc}
   22e26:	46c0      	nop			@ (mov r8, r8)
   22e28:	00000e2b 	.word	0x00000e2b

00022e2c <_ZN18complex_no_dynamic3app17hc5b1efa8648d5521E>:
   22e2c:	b5f0      	push	{r4, r5, r6, r7, lr}
   22e2e:	af03      	add	r7, sp, #12
   22e30:	b09d      	sub	sp, #116	@ 0x74
   22e32:	4604      	mov	r4, r0
   22e34:	ad01      	add	r5, sp, #4
   22e36:	2649      	movs	r6, #73	@ 0x49
   22e38:	4628      	mov	r0, r5
   22e3a:	4632      	mov	r2, r6
   22e3c:	f004 f8e5 	bl	2700a <__aeabi_memcpy>
   22e40:	a814      	add	r0, sp, #80	@ 0x50
   22e42:	2123      	movs	r1, #35	@ 0x23
   22e44:	f003 ff34 	bl	26cb0 <__aeabi_memclr4>
   22e48:	4822      	ldr	r0, [pc, #136]	@ (22ed4 <_ZN18complex_no_dynamic3app17hc5b1efa8648d5521E+0xa8>)
   22e4a:	2107      	movs	r1, #7
   22e4c:	462a      	mov	r2, r5
   22e4e:	4633      	mov	r3, r6
   22e50:	df04      	svc	4
   22e52:	2802      	cmp	r0, #2
   22e54:	d00e      	beq.n	22e74 <_ZN18complex_no_dynamic3app17hc5b1efa8648d5521E+0x48>
   22e56:	481f      	ldr	r0, [pc, #124]	@ (22ed4 <_ZN18complex_no_dynamic3app17hc5b1efa8648d5521E+0xa8>)
   22e58:	2101      	movs	r1, #1
   22e5a:	aa14      	add	r2, sp, #80	@ 0x50
   22e5c:	2323      	movs	r3, #35	@ 0x23
   22e5e:	df03      	svc	3
   22e60:	2802      	cmp	r0, #2
   22e62:	d007      	beq.n	22e74 <_ZN18complex_no_dynamic3app17hc5b1efa8648d5521E+0x48>
   22e64:	481b      	ldr	r0, [pc, #108]	@ (22ed4 <_ZN18complex_no_dynamic3app17hc5b1efa8648d5521E+0xa8>)
   22e66:	2107      	movs	r1, #7
   22e68:	2201      	movs	r2, #1
   22e6a:	2500      	movs	r5, #0
   22e6c:	462b      	mov	r3, r5
   22e6e:	df02      	svc	2
   22e70:	287f      	cmp	r0, #127	@ 0x7f
   22e72:	d810      	bhi.n	22e96 <_ZN18complex_no_dynamic3app17hc5b1efa8648d5521E+0x6a>
   22e74:	2201      	movs	r2, #1
   22e76:	7022      	strb	r2, [r4, #0]
   22e78:	6061      	str	r1, [r4, #4]
   22e7a:	4c16      	ldr	r4, [pc, #88]	@ (22ed4 <_ZN18complex_no_dynamic3app17hc5b1efa8648d5521E+0xa8>)
   22e7c:	2500      	movs	r5, #0
   22e7e:	4620      	mov	r0, r4
   22e80:	4611      	mov	r1, r2
   22e82:	462a      	mov	r2, r5
   22e84:	462b      	mov	r3, r5
   22e86:	df03      	svc	3
   22e88:	2107      	movs	r1, #7
   22e8a:	4620      	mov	r0, r4
   22e8c:	462a      	mov	r2, r5
   22e8e:	462b      	mov	r3, r5
   22e90:	df04      	svc	4
   22e92:	b01d      	add	sp, #116	@ 0x74
   22e94:	bdf0      	pop	{r4, r5, r6, r7, pc}
   22e96:	480f      	ldr	r0, [pc, #60]	@ (22ed4 <_ZN18complex_no_dynamic3app17hc5b1efa8648d5521E+0xa8>)
   22e98:	2601      	movs	r6, #1
   22e9a:	4631      	mov	r1, r6
   22e9c:	462a      	mov	r2, r5
   22e9e:	462b      	mov	r3, r5
   22ea0:	df03      	svc	3
   22ea2:	480c      	ldr	r0, [pc, #48]	@ (22ed4 <_ZN18complex_no_dynamic3app17hc5b1efa8648d5521E+0xa8>)
   22ea4:	4631      	mov	r1, r6
   22ea6:	462a      	mov	r2, r5
   22ea8:	462b      	mov	r3, r5
   22eaa:	df03      	svc	3
   22eac:	1c60      	adds	r0, r4, #1
   22eae:	a914      	add	r1, sp, #80	@ 0x50
   22eb0:	2223      	movs	r2, #35	@ 0x23
   22eb2:	f004 f8aa 	bl	2700a <__aeabi_memcpy>
   22eb6:	7025      	strb	r5, [r4, #0]
   22eb8:	4c06      	ldr	r4, [pc, #24]	@ (22ed4 <_ZN18complex_no_dynamic3app17hc5b1efa8648d5521E+0xa8>)
   22eba:	4620      	mov	r0, r4
   22ebc:	4631      	mov	r1, r6
   22ebe:	462a      	mov	r2, r5
   22ec0:	462b      	mov	r3, r5
   22ec2:	df03      	svc	3
   22ec4:	2107      	movs	r1, #7
   22ec6:	4620      	mov	r0, r4
   22ec8:	462a      	mov	r2, r5
   22eca:	462b      	mov	r3, r5
   22ecc:	df04      	svc	4
   22ece:	b01d      	add	sp, #116	@ 0x74
   22ed0:	bdf0      	pop	{r4, r5, r6, r7, pc}
   22ed2:	46c0      	nop			@ (mov r8, r8)
   22ed4:	00001551 	.word	0x00001551

00022ed8 <_ZN18complex_no_dynamic3app17hca382d4ac57a3ca7E>:
   22ed8:	b5f0      	push	{r4, r5, r6, r7, lr}
   22eda:	af03      	add	r7, sp, #12
   22edc:	b0a3      	sub	sp, #140	@ 0x8c
   22ede:	4604      	mov	r4, r0
   22ee0:	466d      	mov	r5, sp
   22ee2:	2650      	movs	r6, #80	@ 0x50
   22ee4:	4628      	mov	r0, r5
   22ee6:	4632      	mov	r2, r6
   22ee8:	f004 f88f 	bl	2700a <__aeabi_memcpy>
   22eec:	a814      	add	r0, sp, #80	@ 0x50
   22eee:	213c      	movs	r1, #60	@ 0x3c
   22ef0:	f003 fede 	bl	26cb0 <__aeabi_memclr4>
   22ef4:	4822      	ldr	r0, [pc, #136]	@ (22f80 <_ZN18complex_no_dynamic3app17hca382d4ac57a3ca7E+0xa8>)
   22ef6:	2103      	movs	r1, #3
   22ef8:	462a      	mov	r2, r5
   22efa:	4633      	mov	r3, r6
   22efc:	df04      	svc	4
   22efe:	2802      	cmp	r0, #2
   22f00:	d00e      	beq.n	22f20 <_ZN18complex_no_dynamic3app17hca382d4ac57a3ca7E+0x48>
   22f02:	481f      	ldr	r0, [pc, #124]	@ (22f80 <_ZN18complex_no_dynamic3app17hca382d4ac57a3ca7E+0xa8>)
   22f04:	2109      	movs	r1, #9
   22f06:	aa14      	add	r2, sp, #80	@ 0x50
   22f08:	233c      	movs	r3, #60	@ 0x3c
   22f0a:	df03      	svc	3
   22f0c:	2802      	cmp	r0, #2
   22f0e:	d007      	beq.n	22f20 <_ZN18complex_no_dynamic3app17hca382d4ac57a3ca7E+0x48>
   22f10:	481b      	ldr	r0, [pc, #108]	@ (22f80 <_ZN18complex_no_dynamic3app17hca382d4ac57a3ca7E+0xa8>)
   22f12:	2103      	movs	r1, #3
   22f14:	2209      	movs	r2, #9
   22f16:	2500      	movs	r5, #0
   22f18:	462b      	mov	r3, r5
   22f1a:	df02      	svc	2
   22f1c:	287f      	cmp	r0, #127	@ 0x7f
   22f1e:	d810      	bhi.n	22f42 <_ZN18complex_no_dynamic3app17hca382d4ac57a3ca7E+0x6a>
   22f20:	2001      	movs	r0, #1
   22f22:	7020      	strb	r0, [r4, #0]
   22f24:	6061      	str	r1, [r4, #4]
   22f26:	4c16      	ldr	r4, [pc, #88]	@ (22f80 <_ZN18complex_no_dynamic3app17hca382d4ac57a3ca7E+0xa8>)
   22f28:	2109      	movs	r1, #9
   22f2a:	2500      	movs	r5, #0
   22f2c:	4620      	mov	r0, r4
   22f2e:	462a      	mov	r2, r5
   22f30:	462b      	mov	r3, r5
   22f32:	df03      	svc	3
   22f34:	2103      	movs	r1, #3
   22f36:	4620      	mov	r0, r4
   22f38:	462a      	mov	r2, r5
   22f3a:	462b      	mov	r3, r5
   22f3c:	df04      	svc	4
   22f3e:	b023      	add	sp, #140	@ 0x8c
   22f40:	bdf0      	pop	{r4, r5, r6, r7, pc}
   22f42:	480f      	ldr	r0, [pc, #60]	@ (22f80 <_ZN18complex_no_dynamic3app17hca382d4ac57a3ca7E+0xa8>)
   22f44:	2609      	movs	r6, #9
   22f46:	4631      	mov	r1, r6
   22f48:	462a      	mov	r2, r5
   22f4a:	462b      	mov	r3, r5
   22f4c:	df03      	svc	3
   22f4e:	480c      	ldr	r0, [pc, #48]	@ (22f80 <_ZN18complex_no_dynamic3app17hca382d4ac57a3ca7E+0xa8>)
   22f50:	4631      	mov	r1, r6
   22f52:	462a      	mov	r2, r5
   22f54:	462b      	mov	r3, r5
   22f56:	df03      	svc	3
   22f58:	1c60      	adds	r0, r4, #1
   22f5a:	a914      	add	r1, sp, #80	@ 0x50
   22f5c:	223c      	movs	r2, #60	@ 0x3c
   22f5e:	f004 f854 	bl	2700a <__aeabi_memcpy>
   22f62:	7025      	strb	r5, [r4, #0]
   22f64:	4c06      	ldr	r4, [pc, #24]	@ (22f80 <_ZN18complex_no_dynamic3app17hca382d4ac57a3ca7E+0xa8>)
   22f66:	4620      	mov	r0, r4
   22f68:	4631      	mov	r1, r6
   22f6a:	462a      	mov	r2, r5
   22f6c:	462b      	mov	r3, r5
   22f6e:	df03      	svc	3
   22f70:	2103      	movs	r1, #3
   22f72:	4620      	mov	r0, r4
   22f74:	462a      	mov	r2, r5
   22f76:	462b      	mov	r3, r5
   22f78:	df04      	svc	4
   22f7a:	b023      	add	sp, #140	@ 0x8c
   22f7c:	bdf0      	pop	{r4, r5, r6, r7, pc}
   22f7e:	46c0      	nop			@ (mov r8, r8)
   22f80:	00000d7a 	.word	0x00000d7a

00022f84 <_ZN18complex_no_dynamic3app17hcfe852aba3ccd2c5E>:
   22f84:	b5f0      	push	{r4, r5, r6, r7, lr}
   22f86:	af03      	add	r7, sp, #12
   22f88:	b097      	sub	sp, #92	@ 0x5c
   22f8a:	4604      	mov	r4, r0
   22f8c:	7b08      	ldrb	r0, [r1, #12]
   22f8e:	7b4a      	ldrb	r2, [r1, #13]
   22f90:	0212      	lsls	r2, r2, #8
   22f92:	1810      	adds	r0, r2, r0
   22f94:	ad01      	add	r5, sp, #4
   22f96:	81a8      	strh	r0, [r5, #12]
   22f98:	7a08      	ldrb	r0, [r1, #8]
   22f9a:	7a4a      	ldrb	r2, [r1, #9]
   22f9c:	0212      	lsls	r2, r2, #8
   22f9e:	1810      	adds	r0, r2, r0
   22fa0:	7a8a      	ldrb	r2, [r1, #10]
   22fa2:	0412      	lsls	r2, r2, #16
   22fa4:	7acb      	ldrb	r3, [r1, #11]
   22fa6:	061b      	lsls	r3, r3, #24
   22fa8:	189a      	adds	r2, r3, r2
   22faa:	1810      	adds	r0, r2, r0
   22fac:	9003      	str	r0, [sp, #12]
   22fae:	7908      	ldrb	r0, [r1, #4]
   22fb0:	794a      	ldrb	r2, [r1, #5]
   22fb2:	0212      	lsls	r2, r2, #8
   22fb4:	1810      	adds	r0, r2, r0
   22fb6:	798a      	ldrb	r2, [r1, #6]
   22fb8:	0412      	lsls	r2, r2, #16
   22fba:	79cb      	ldrb	r3, [r1, #7]
   22fbc:	061b      	lsls	r3, r3, #24
   22fbe:	189a      	adds	r2, r3, r2
   22fc0:	1810      	adds	r0, r2, r0
   22fc2:	9002      	str	r0, [sp, #8]
   22fc4:	7808      	ldrb	r0, [r1, #0]
   22fc6:	784a      	ldrb	r2, [r1, #1]
   22fc8:	0212      	lsls	r2, r2, #8
   22fca:	1810      	adds	r0, r2, r0
   22fcc:	788a      	ldrb	r2, [r1, #2]
   22fce:	0412      	lsls	r2, r2, #16
   22fd0:	78c9      	ldrb	r1, [r1, #3]
   22fd2:	0609      	lsls	r1, r1, #24
   22fd4:	1889      	adds	r1, r1, r2
   22fd6:	1808      	adds	r0, r1, r0
   22fd8:	9001      	str	r0, [sp, #4]
   22fda:	a805      	add	r0, sp, #20
   22fdc:	2148      	movs	r1, #72	@ 0x48
   22fde:	f003 fe67 	bl	26cb0 <__aeabi_memclr4>
   22fe2:	4822      	ldr	r0, [pc, #136]	@ (2306c <_ZN18complex_no_dynamic3app17hcfe852aba3ccd2c5E+0xe8>)
   22fe4:	2103      	movs	r1, #3
   22fe6:	230e      	movs	r3, #14
   22fe8:	462a      	mov	r2, r5
   22fea:	df04      	svc	4
   22fec:	2802      	cmp	r0, #2
   22fee:	d00e      	beq.n	2300e <_ZN18complex_no_dynamic3app17hcfe852aba3ccd2c5E+0x8a>
   22ff0:	481e      	ldr	r0, [pc, #120]	@ (2306c <_ZN18complex_no_dynamic3app17hcfe852aba3ccd2c5E+0xe8>)
   22ff2:	2108      	movs	r1, #8
   22ff4:	aa05      	add	r2, sp, #20
   22ff6:	2348      	movs	r3, #72	@ 0x48
   22ff8:	df03      	svc	3
   22ffa:	2802      	cmp	r0, #2
   22ffc:	d007      	beq.n	2300e <_ZN18complex_no_dynamic3app17hcfe852aba3ccd2c5E+0x8a>
   22ffe:	481b      	ldr	r0, [pc, #108]	@ (2306c <_ZN18complex_no_dynamic3app17hcfe852aba3ccd2c5E+0xe8>)
   23000:	2103      	movs	r1, #3
   23002:	2208      	movs	r2, #8
   23004:	2500      	movs	r5, #0
   23006:	462b      	mov	r3, r5
   23008:	df02      	svc	2
   2300a:	287f      	cmp	r0, #127	@ 0x7f
   2300c:	d810      	bhi.n	23030 <_ZN18complex_no_dynamic3app17hcfe852aba3ccd2c5E+0xac>
   2300e:	2001      	movs	r0, #1
   23010:	7020      	strb	r0, [r4, #0]
   23012:	6061      	str	r1, [r4, #4]
   23014:	4c15      	ldr	r4, [pc, #84]	@ (2306c <_ZN18complex_no_dynamic3app17hcfe852aba3ccd2c5E+0xe8>)
   23016:	2108      	movs	r1, #8
   23018:	2500      	movs	r5, #0
   2301a:	4620      	mov	r0, r4
   2301c:	462a      	mov	r2, r5
   2301e:	462b      	mov	r3, r5
   23020:	df03      	svc	3
   23022:	2103      	movs	r1, #3
   23024:	4620      	mov	r0, r4
   23026:	462a      	mov	r2, r5
   23028:	462b      	mov	r3, r5
   2302a:	df04      	svc	4
   2302c:	b017      	add	sp, #92	@ 0x5c
   2302e:	bdf0      	pop	{r4, r5, r6, r7, pc}
   23030:	480e      	ldr	r0, [pc, #56]	@ (2306c <_ZN18complex_no_dynamic3app17hcfe852aba3ccd2c5E+0xe8>)
   23032:	2608      	movs	r6, #8
   23034:	4631      	mov	r1, r6
   23036:	462a      	mov	r2, r5
   23038:	462b      	mov	r3, r5
   2303a:	df03      	svc	3
   2303c:	480b      	ldr	r0, [pc, #44]	@ (2306c <_ZN18complex_no_dynamic3app17hcfe852aba3ccd2c5E+0xe8>)
   2303e:	4631      	mov	r1, r6
   23040:	462a      	mov	r2, r5
   23042:	462b      	mov	r3, r5
   23044:	df03      	svc	3
   23046:	1c60      	adds	r0, r4, #1
   23048:	a905      	add	r1, sp, #20
   2304a:	2248      	movs	r2, #72	@ 0x48
   2304c:	f003 ffdd 	bl	2700a <__aeabi_memcpy>
   23050:	7025      	strb	r5, [r4, #0]
   23052:	4c06      	ldr	r4, [pc, #24]	@ (2306c <_ZN18complex_no_dynamic3app17hcfe852aba3ccd2c5E+0xe8>)
   23054:	4620      	mov	r0, r4
   23056:	4631      	mov	r1, r6
   23058:	462a      	mov	r2, r5
   2305a:	462b      	mov	r3, r5
   2305c:	df03      	svc	3
   2305e:	2103      	movs	r1, #3
   23060:	4620      	mov	r0, r4
   23062:	462a      	mov	r2, r5
   23064:	462b      	mov	r3, r5
   23066:	df04      	svc	4
   23068:	b017      	add	sp, #92	@ 0x5c
   2306a:	bdf0      	pop	{r4, r5, r6, r7, pc}
   2306c:	000012d1 	.word	0x000012d1

00023070 <_ZN18complex_no_dynamic3app17hd1ef5bac439c2b8cE>:
   23070:	b5f0      	push	{r4, r5, r6, r7, lr}
   23072:	af03      	add	r7, sp, #12
   23074:	b095      	sub	sp, #84	@ 0x54
   23076:	4604      	mov	r4, r0
   23078:	466d      	mov	r5, sp
   2307a:	262a      	movs	r6, #42	@ 0x2a
   2307c:	4628      	mov	r0, r5
   2307e:	4632      	mov	r2, r6
   23080:	f003 ffc3 	bl	2700a <__aeabi_memcpy>
   23084:	a80b      	add	r0, sp, #44	@ 0x2c
   23086:	2128      	movs	r1, #40	@ 0x28
   23088:	f003 fe12 	bl	26cb0 <__aeabi_memclr4>
   2308c:	4822      	ldr	r0, [pc, #136]	@ (23118 <_ZN18complex_no_dynamic3app17hd1ef5bac439c2b8cE+0xa8>)
   2308e:	2104      	movs	r1, #4
   23090:	462a      	mov	r2, r5
   23092:	4633      	mov	r3, r6
   23094:	df04      	svc	4
   23096:	2802      	cmp	r0, #2
   23098:	d00e      	beq.n	230b8 <_ZN18complex_no_dynamic3app17hd1ef5bac439c2b8cE+0x48>
   2309a:	481f      	ldr	r0, [pc, #124]	@ (23118 <_ZN18complex_no_dynamic3app17hd1ef5bac439c2b8cE+0xa8>)
   2309c:	2108      	movs	r1, #8
   2309e:	aa0b      	add	r2, sp, #44	@ 0x2c
   230a0:	2328      	movs	r3, #40	@ 0x28
   230a2:	df03      	svc	3
   230a4:	2802      	cmp	r0, #2
   230a6:	d007      	beq.n	230b8 <_ZN18complex_no_dynamic3app17hd1ef5bac439c2b8cE+0x48>
   230a8:	481b      	ldr	r0, [pc, #108]	@ (23118 <_ZN18complex_no_dynamic3app17hd1ef5bac439c2b8cE+0xa8>)
   230aa:	2104      	movs	r1, #4
   230ac:	2208      	movs	r2, #8
   230ae:	2500      	movs	r5, #0
   230b0:	462b      	mov	r3, r5
   230b2:	df02      	svc	2
   230b4:	287f      	cmp	r0, #127	@ 0x7f
   230b6:	d810      	bhi.n	230da <_ZN18complex_no_dynamic3app17hd1ef5bac439c2b8cE+0x6a>
   230b8:	2001      	movs	r0, #1
   230ba:	7020      	strb	r0, [r4, #0]
   230bc:	6061      	str	r1, [r4, #4]
   230be:	4c16      	ldr	r4, [pc, #88]	@ (23118 <_ZN18complex_no_dynamic3app17hd1ef5bac439c2b8cE+0xa8>)
   230c0:	2108      	movs	r1, #8
   230c2:	2500      	movs	r5, #0
   230c4:	4620      	mov	r0, r4
   230c6:	462a      	mov	r2, r5
   230c8:	462b      	mov	r3, r5
   230ca:	df03      	svc	3
   230cc:	2104      	movs	r1, #4
   230ce:	4620      	mov	r0, r4
   230d0:	462a      	mov	r2, r5
   230d2:	462b      	mov	r3, r5
   230d4:	df04      	svc	4
   230d6:	b015      	add	sp, #84	@ 0x54
   230d8:	bdf0      	pop	{r4, r5, r6, r7, pc}
   230da:	480f      	ldr	r0, [pc, #60]	@ (23118 <_ZN18complex_no_dynamic3app17hd1ef5bac439c2b8cE+0xa8>)
   230dc:	2608      	movs	r6, #8
   230de:	4631      	mov	r1, r6
   230e0:	462a      	mov	r2, r5
   230e2:	462b      	mov	r3, r5
   230e4:	df03      	svc	3
   230e6:	480c      	ldr	r0, [pc, #48]	@ (23118 <_ZN18complex_no_dynamic3app17hd1ef5bac439c2b8cE+0xa8>)
   230e8:	4631      	mov	r1, r6
   230ea:	462a      	mov	r2, r5
   230ec:	462b      	mov	r3, r5
   230ee:	df03      	svc	3
   230f0:	1c60      	adds	r0, r4, #1
   230f2:	a90b      	add	r1, sp, #44	@ 0x2c
   230f4:	2228      	movs	r2, #40	@ 0x28
   230f6:	f003 ff88 	bl	2700a <__aeabi_memcpy>
   230fa:	7025      	strb	r5, [r4, #0]
   230fc:	4c06      	ldr	r4, [pc, #24]	@ (23118 <_ZN18complex_no_dynamic3app17hd1ef5bac439c2b8cE+0xa8>)
   230fe:	4620      	mov	r0, r4
   23100:	4631      	mov	r1, r6
   23102:	462a      	mov	r2, r5
   23104:	462b      	mov	r3, r5
   23106:	df03      	svc	3
   23108:	2104      	movs	r1, #4
   2310a:	4620      	mov	r0, r4
   2310c:	462a      	mov	r2, r5
   2310e:	462b      	mov	r3, r5
   23110:	df04      	svc	4
   23112:	b015      	add	sp, #84	@ 0x54
   23114:	bdf0      	pop	{r4, r5, r6, r7, pc}
   23116:	46c0      	nop			@ (mov r8, r8)
   23118:	00001efa 	.word	0x00001efa

0002311c <_ZN18complex_no_dynamic3app17hd30e038c3e6894a4E>:
   2311c:	b5f0      	push	{r4, r5, r6, r7, lr}
   2311e:	af03      	add	r7, sp, #12
   23120:	b0a3      	sub	sp, #140	@ 0x8c
   23122:	4604      	mov	r4, r0
   23124:	466d      	mov	r5, sp
   23126:	264d      	movs	r6, #77	@ 0x4d
   23128:	4628      	mov	r0, r5
   2312a:	4632      	mov	r2, r6
   2312c:	f003 ff6d 	bl	2700a <__aeabi_memcpy>
   23130:	a814      	add	r0, sp, #80	@ 0x50
   23132:	213c      	movs	r1, #60	@ 0x3c
   23134:	f003 fdbc 	bl	26cb0 <__aeabi_memclr4>
   23138:	4822      	ldr	r0, [pc, #136]	@ (231c4 <_ZN18complex_no_dynamic3app17hd30e038c3e6894a4E+0xa8>)
   2313a:	2104      	movs	r1, #4
   2313c:	462a      	mov	r2, r5
   2313e:	4633      	mov	r3, r6
   23140:	df04      	svc	4
   23142:	2802      	cmp	r0, #2
   23144:	d00e      	beq.n	23164 <_ZN18complex_no_dynamic3app17hd30e038c3e6894a4E+0x48>
   23146:	481f      	ldr	r0, [pc, #124]	@ (231c4 <_ZN18complex_no_dynamic3app17hd30e038c3e6894a4E+0xa8>)
   23148:	2109      	movs	r1, #9
   2314a:	aa14      	add	r2, sp, #80	@ 0x50
   2314c:	233c      	movs	r3, #60	@ 0x3c
   2314e:	df03      	svc	3
   23150:	2802      	cmp	r0, #2
   23152:	d007      	beq.n	23164 <_ZN18complex_no_dynamic3app17hd30e038c3e6894a4E+0x48>
   23154:	481b      	ldr	r0, [pc, #108]	@ (231c4 <_ZN18complex_no_dynamic3app17hd30e038c3e6894a4E+0xa8>)
   23156:	2104      	movs	r1, #4
   23158:	2209      	movs	r2, #9
   2315a:	2500      	movs	r5, #0
   2315c:	462b      	mov	r3, r5
   2315e:	df02      	svc	2
   23160:	287f      	cmp	r0, #127	@ 0x7f
   23162:	d810      	bhi.n	23186 <_ZN18complex_no_dynamic3app17hd30e038c3e6894a4E+0x6a>
   23164:	2001      	movs	r0, #1
   23166:	7020      	strb	r0, [r4, #0]
   23168:	6061      	str	r1, [r4, #4]
   2316a:	4c16      	ldr	r4, [pc, #88]	@ (231c4 <_ZN18complex_no_dynamic3app17hd30e038c3e6894a4E+0xa8>)
   2316c:	2109      	movs	r1, #9
   2316e:	2500      	movs	r5, #0
   23170:	4620      	mov	r0, r4
   23172:	462a      	mov	r2, r5
   23174:	462b      	mov	r3, r5
   23176:	df03      	svc	3
   23178:	2104      	movs	r1, #4
   2317a:	4620      	mov	r0, r4
   2317c:	462a      	mov	r2, r5
   2317e:	462b      	mov	r3, r5
   23180:	df04      	svc	4
   23182:	b023      	add	sp, #140	@ 0x8c
   23184:	bdf0      	pop	{r4, r5, r6, r7, pc}
   23186:	480f      	ldr	r0, [pc, #60]	@ (231c4 <_ZN18complex_no_dynamic3app17hd30e038c3e6894a4E+0xa8>)
   23188:	2609      	movs	r6, #9
   2318a:	4631      	mov	r1, r6
   2318c:	462a      	mov	r2, r5
   2318e:	462b      	mov	r3, r5
   23190:	df03      	svc	3
   23192:	480c      	ldr	r0, [pc, #48]	@ (231c4 <_ZN18complex_no_dynamic3app17hd30e038c3e6894a4E+0xa8>)
   23194:	4631      	mov	r1, r6
   23196:	462a      	mov	r2, r5
   23198:	462b      	mov	r3, r5
   2319a:	df03      	svc	3
   2319c:	1c60      	adds	r0, r4, #1
   2319e:	a914      	add	r1, sp, #80	@ 0x50
   231a0:	223c      	movs	r2, #60	@ 0x3c
   231a2:	f003 ff32 	bl	2700a <__aeabi_memcpy>
   231a6:	7025      	strb	r5, [r4, #0]
   231a8:	4c06      	ldr	r4, [pc, #24]	@ (231c4 <_ZN18complex_no_dynamic3app17hd30e038c3e6894a4E+0xa8>)
   231aa:	4620      	mov	r0, r4
   231ac:	4631      	mov	r1, r6
   231ae:	462a      	mov	r2, r5
   231b0:	462b      	mov	r3, r5
   231b2:	df03      	svc	3
   231b4:	2104      	movs	r1, #4
   231b6:	4620      	mov	r0, r4
   231b8:	462a      	mov	r2, r5
   231ba:	462b      	mov	r3, r5
   231bc:	df04      	svc	4
   231be:	b023      	add	sp, #140	@ 0x8c
   231c0:	bdf0      	pop	{r4, r5, r6, r7, pc}
   231c2:	46c0      	nop			@ (mov r8, r8)
   231c4:	000021ab 	.word	0x000021ab

000231c8 <_ZN18complex_no_dynamic3app17hd3c7f530dfeaaeaeE>:
   231c8:	b5f0      	push	{r4, r5, r6, r7, lr}
   231ca:	af03      	add	r7, sp, #12
   231cc:	b099      	sub	sp, #100	@ 0x64
   231ce:	4604      	mov	r4, r0
   231d0:	466d      	mov	r5, sp
   231d2:	2634      	movs	r6, #52	@ 0x34
   231d4:	4628      	mov	r0, r5
   231d6:	4632      	mov	r2, r6
   231d8:	f003 ff17 	bl	2700a <__aeabi_memcpy>
   231dc:	a80d      	add	r0, sp, #52	@ 0x34
   231de:	212e      	movs	r1, #46	@ 0x2e
   231e0:	f003 fd66 	bl	26cb0 <__aeabi_memclr4>
   231e4:	4822      	ldr	r0, [pc, #136]	@ (23270 <_ZN18complex_no_dynamic3app17hd3c7f530dfeaaeaeE+0xa8>)
   231e6:	2102      	movs	r1, #2
   231e8:	462a      	mov	r2, r5
   231ea:	4633      	mov	r3, r6
   231ec:	df04      	svc	4
   231ee:	2802      	cmp	r0, #2
   231f0:	d00e      	beq.n	23210 <_ZN18complex_no_dynamic3app17hd3c7f530dfeaaeaeE+0x48>
   231f2:	481f      	ldr	r0, [pc, #124]	@ (23270 <_ZN18complex_no_dynamic3app17hd3c7f530dfeaaeaeE+0xa8>)
   231f4:	2108      	movs	r1, #8
   231f6:	aa0d      	add	r2, sp, #52	@ 0x34
   231f8:	232e      	movs	r3, #46	@ 0x2e
   231fa:	df03      	svc	3
   231fc:	2802      	cmp	r0, #2
   231fe:	d007      	beq.n	23210 <_ZN18complex_no_dynamic3app17hd3c7f530dfeaaeaeE+0x48>
   23200:	481b      	ldr	r0, [pc, #108]	@ (23270 <_ZN18complex_no_dynamic3app17hd3c7f530dfeaaeaeE+0xa8>)
   23202:	2102      	movs	r1, #2
   23204:	2208      	movs	r2, #8
   23206:	2500      	movs	r5, #0
   23208:	462b      	mov	r3, r5
   2320a:	df02      	svc	2
   2320c:	287f      	cmp	r0, #127	@ 0x7f
   2320e:	d810      	bhi.n	23232 <_ZN18complex_no_dynamic3app17hd3c7f530dfeaaeaeE+0x6a>
   23210:	2001      	movs	r0, #1
   23212:	7020      	strb	r0, [r4, #0]
   23214:	6061      	str	r1, [r4, #4]
   23216:	4c16      	ldr	r4, [pc, #88]	@ (23270 <_ZN18complex_no_dynamic3app17hd3c7f530dfeaaeaeE+0xa8>)
   23218:	2108      	movs	r1, #8
   2321a:	2500      	movs	r5, #0
   2321c:	4620      	mov	r0, r4
   2321e:	462a      	mov	r2, r5
   23220:	462b      	mov	r3, r5
   23222:	df03      	svc	3
   23224:	2102      	movs	r1, #2
   23226:	4620      	mov	r0, r4
   23228:	462a      	mov	r2, r5
   2322a:	462b      	mov	r3, r5
   2322c:	df04      	svc	4
   2322e:	b019      	add	sp, #100	@ 0x64
   23230:	bdf0      	pop	{r4, r5, r6, r7, pc}
   23232:	480f      	ldr	r0, [pc, #60]	@ (23270 <_ZN18complex_no_dynamic3app17hd3c7f530dfeaaeaeE+0xa8>)
   23234:	2608      	movs	r6, #8
   23236:	4631      	mov	r1, r6
   23238:	462a      	mov	r2, r5
   2323a:	462b      	mov	r3, r5
   2323c:	df03      	svc	3
   2323e:	480c      	ldr	r0, [pc, #48]	@ (23270 <_ZN18complex_no_dynamic3app17hd3c7f530dfeaaeaeE+0xa8>)
   23240:	4631      	mov	r1, r6
   23242:	462a      	mov	r2, r5
   23244:	462b      	mov	r3, r5
   23246:	df03      	svc	3
   23248:	1c60      	adds	r0, r4, #1
   2324a:	a90d      	add	r1, sp, #52	@ 0x34
   2324c:	222e      	movs	r2, #46	@ 0x2e
   2324e:	f003 fedc 	bl	2700a <__aeabi_memcpy>
   23252:	7025      	strb	r5, [r4, #0]
   23254:	4c06      	ldr	r4, [pc, #24]	@ (23270 <_ZN18complex_no_dynamic3app17hd3c7f530dfeaaeaeE+0xa8>)
   23256:	4620      	mov	r0, r4
   23258:	4631      	mov	r1, r6
   2325a:	462a      	mov	r2, r5
   2325c:	462b      	mov	r3, r5
   2325e:	df03      	svc	3
   23260:	2102      	movs	r1, #2
   23262:	4620      	mov	r0, r4
   23264:	462a      	mov	r2, r5
   23266:	462b      	mov	r3, r5
   23268:	df04      	svc	4
   2326a:	b019      	add	sp, #100	@ 0x64
   2326c:	bdf0      	pop	{r4, r5, r6, r7, pc}
   2326e:	46c0      	nop			@ (mov r8, r8)
   23270:	00000209 	.word	0x00000209

00023274 <_ZN18complex_no_dynamic3app17hd443dda441693070E>:
   23274:	b5f0      	push	{r4, r5, r6, r7, lr}
   23276:	af03      	add	r7, sp, #12
   23278:	b097      	sub	sp, #92	@ 0x5c
   2327a:	4604      	mov	r4, r0
   2327c:	ad01      	add	r5, sp, #4
   2327e:	262c      	movs	r6, #44	@ 0x2c
   23280:	4628      	mov	r0, r5
   23282:	4632      	mov	r2, r6
   23284:	f003 fec1 	bl	2700a <__aeabi_memcpy>
   23288:	a80c      	add	r0, sp, #48	@ 0x30
   2328a:	212a      	movs	r1, #42	@ 0x2a
   2328c:	f003 fd10 	bl	26cb0 <__aeabi_memclr4>
   23290:	4821      	ldr	r0, [pc, #132]	@ (23318 <_ZN18complex_no_dynamic3app17hd443dda441693070E+0xa4>)
   23292:	2103      	movs	r1, #3
   23294:	462a      	mov	r2, r5
   23296:	4633      	mov	r3, r6
   23298:	df04      	svc	4
   2329a:	2802      	cmp	r0, #2
   2329c:	d00e      	beq.n	232bc <_ZN18complex_no_dynamic3app17hd443dda441693070E+0x48>
   2329e:	481e      	ldr	r0, [pc, #120]	@ (23318 <_ZN18complex_no_dynamic3app17hd443dda441693070E+0xa4>)
   232a0:	2100      	movs	r1, #0
   232a2:	aa0c      	add	r2, sp, #48	@ 0x30
   232a4:	232a      	movs	r3, #42	@ 0x2a
   232a6:	df03      	svc	3
   232a8:	2802      	cmp	r0, #2
   232aa:	d007      	beq.n	232bc <_ZN18complex_no_dynamic3app17hd443dda441693070E+0x48>
   232ac:	481a      	ldr	r0, [pc, #104]	@ (23318 <_ZN18complex_no_dynamic3app17hd443dda441693070E+0xa4>)
   232ae:	2103      	movs	r1, #3
   232b0:	2500      	movs	r5, #0
   232b2:	462a      	mov	r2, r5
   232b4:	462b      	mov	r3, r5
   232b6:	df02      	svc	2
   232b8:	287f      	cmp	r0, #127	@ 0x7f
   232ba:	d810      	bhi.n	232de <_ZN18complex_no_dynamic3app17hd443dda441693070E+0x6a>
   232bc:	2001      	movs	r0, #1
   232be:	7020      	strb	r0, [r4, #0]
   232c0:	6061      	str	r1, [r4, #4]
   232c2:	4c15      	ldr	r4, [pc, #84]	@ (23318 <_ZN18complex_no_dynamic3app17hd443dda441693070E+0xa4>)
   232c4:	2500      	movs	r5, #0
   232c6:	4620      	mov	r0, r4
   232c8:	4629      	mov	r1, r5
   232ca:	462a      	mov	r2, r5
   232cc:	462b      	mov	r3, r5
   232ce:	df03      	svc	3
   232d0:	2103      	movs	r1, #3
   232d2:	4620      	mov	r0, r4
   232d4:	462a      	mov	r2, r5
   232d6:	462b      	mov	r3, r5
   232d8:	df04      	svc	4
   232da:	b017      	add	sp, #92	@ 0x5c
   232dc:	bdf0      	pop	{r4, r5, r6, r7, pc}
   232de:	4e0e      	ldr	r6, [pc, #56]	@ (23318 <_ZN18complex_no_dynamic3app17hd443dda441693070E+0xa4>)
   232e0:	4630      	mov	r0, r6
   232e2:	4629      	mov	r1, r5
   232e4:	462a      	mov	r2, r5
   232e6:	462b      	mov	r3, r5
   232e8:	df03      	svc	3
   232ea:	4630      	mov	r0, r6
   232ec:	4629      	mov	r1, r5
   232ee:	462a      	mov	r2, r5
   232f0:	462b      	mov	r3, r5
   232f2:	df03      	svc	3
   232f4:	1c60      	adds	r0, r4, #1
   232f6:	a90c      	add	r1, sp, #48	@ 0x30
   232f8:	222a      	movs	r2, #42	@ 0x2a
   232fa:	f003 fe86 	bl	2700a <__aeabi_memcpy>
   232fe:	7025      	strb	r5, [r4, #0]
   23300:	4630      	mov	r0, r6
   23302:	4629      	mov	r1, r5
   23304:	462a      	mov	r2, r5
   23306:	462b      	mov	r3, r5
   23308:	df03      	svc	3
   2330a:	2103      	movs	r1, #3
   2330c:	4630      	mov	r0, r6
   2330e:	462a      	mov	r2, r5
   23310:	462b      	mov	r3, r5
   23312:	df04      	svc	4
   23314:	b017      	add	sp, #92	@ 0x5c
   23316:	bdf0      	pop	{r4, r5, r6, r7, pc}
   23318:	000024f0 	.word	0x000024f0

0002331c <_ZN18complex_no_dynamic3app17hd64be084dbca9e7dE>:
   2331c:	b5f0      	push	{r4, r5, r6, r7, lr}
   2331e:	af03      	add	r7, sp, #12
   23320:	b093      	sub	sp, #76	@ 0x4c
   23322:	4604      	mov	r4, r0
   23324:	466d      	mov	r5, sp
   23326:	261e      	movs	r6, #30
   23328:	4628      	mov	r0, r5
   2332a:	4632      	mov	r2, r6
   2332c:	f003 fe6d 	bl	2700a <__aeabi_memcpy>
   23330:	a808      	add	r0, sp, #32
   23332:	212c      	movs	r1, #44	@ 0x2c
   23334:	f003 fcbc 	bl	26cb0 <__aeabi_memclr4>
   23338:	4821      	ldr	r0, [pc, #132]	@ (233c0 <_ZN18complex_no_dynamic3app17hd64be084dbca9e7dE+0xa4>)
   2333a:	2107      	movs	r1, #7
   2333c:	462a      	mov	r2, r5
   2333e:	4633      	mov	r3, r6
   23340:	df04      	svc	4
   23342:	2802      	cmp	r0, #2
   23344:	d00e      	beq.n	23364 <_ZN18complex_no_dynamic3app17hd64be084dbca9e7dE+0x48>
   23346:	481e      	ldr	r0, [pc, #120]	@ (233c0 <_ZN18complex_no_dynamic3app17hd64be084dbca9e7dE+0xa4>)
   23348:	2100      	movs	r1, #0
   2334a:	aa08      	add	r2, sp, #32
   2334c:	232c      	movs	r3, #44	@ 0x2c
   2334e:	df03      	svc	3
   23350:	2802      	cmp	r0, #2
   23352:	d007      	beq.n	23364 <_ZN18complex_no_dynamic3app17hd64be084dbca9e7dE+0x48>
   23354:	481a      	ldr	r0, [pc, #104]	@ (233c0 <_ZN18complex_no_dynamic3app17hd64be084dbca9e7dE+0xa4>)
   23356:	2107      	movs	r1, #7
   23358:	2500      	movs	r5, #0
   2335a:	462a      	mov	r2, r5
   2335c:	462b      	mov	r3, r5
   2335e:	df02      	svc	2
   23360:	287f      	cmp	r0, #127	@ 0x7f
   23362:	d810      	bhi.n	23386 <_ZN18complex_no_dynamic3app17hd64be084dbca9e7dE+0x6a>
   23364:	2001      	movs	r0, #1
   23366:	7020      	strb	r0, [r4, #0]
   23368:	6061      	str	r1, [r4, #4]
   2336a:	4c15      	ldr	r4, [pc, #84]	@ (233c0 <_ZN18complex_no_dynamic3app17hd64be084dbca9e7dE+0xa4>)
   2336c:	2500      	movs	r5, #0
   2336e:	4620      	mov	r0, r4
   23370:	4629      	mov	r1, r5
   23372:	462a      	mov	r2, r5
   23374:	462b      	mov	r3, r5
   23376:	df03      	svc	3
   23378:	2107      	movs	r1, #7
   2337a:	4620      	mov	r0, r4
   2337c:	462a      	mov	r2, r5
   2337e:	462b      	mov	r3, r5
   23380:	df04      	svc	4
   23382:	b013      	add	sp, #76	@ 0x4c
   23384:	bdf0      	pop	{r4, r5, r6, r7, pc}
   23386:	4e0e      	ldr	r6, [pc, #56]	@ (233c0 <_ZN18complex_no_dynamic3app17hd64be084dbca9e7dE+0xa4>)
   23388:	4630      	mov	r0, r6
   2338a:	4629      	mov	r1, r5
   2338c:	462a      	mov	r2, r5
   2338e:	462b      	mov	r3, r5
   23390:	df03      	svc	3
   23392:	4630      	mov	r0, r6
   23394:	4629      	mov	r1, r5
   23396:	462a      	mov	r2, r5
   23398:	462b      	mov	r3, r5
   2339a:	df03      	svc	3
   2339c:	1c60      	adds	r0, r4, #1
   2339e:	a908      	add	r1, sp, #32
   233a0:	222c      	movs	r2, #44	@ 0x2c
   233a2:	f003 fe32 	bl	2700a <__aeabi_memcpy>
   233a6:	7025      	strb	r5, [r4, #0]
   233a8:	4630      	mov	r0, r6
   233aa:	4629      	mov	r1, r5
   233ac:	462a      	mov	r2, r5
   233ae:	462b      	mov	r3, r5
   233b0:	df03      	svc	3
   233b2:	2107      	movs	r1, #7
   233b4:	4630      	mov	r0, r6
   233b6:	462a      	mov	r2, r5
   233b8:	462b      	mov	r3, r5
   233ba:	df04      	svc	4
   233bc:	b013      	add	sp, #76	@ 0x4c
   233be:	bdf0      	pop	{r4, r5, r6, r7, pc}
   233c0:	000003fb 	.word	0x000003fb

000233c4 <_ZN18complex_no_dynamic3app17hd9626285bba282a6E>:
   233c4:	b5f0      	push	{r4, r5, r6, r7, lr}
   233c6:	af03      	add	r7, sp, #12
   233c8:	b08f      	sub	sp, #60	@ 0x3c
   233ca:	4604      	mov	r4, r0
   233cc:	ad01      	add	r5, sp, #4
   233ce:	261a      	movs	r6, #26
   233d0:	4628      	mov	r0, r5
   233d2:	4632      	mov	r2, r6
   233d4:	f003 fe19 	bl	2700a <__aeabi_memcpy>
   233d8:	a808      	add	r0, sp, #32
   233da:	2100      	movs	r1, #0
   233dc:	7681      	strb	r1, [r0, #26]
   233de:	8301      	strh	r1, [r0, #24]
   233e0:	910d      	str	r1, [sp, #52]	@ 0x34
   233e2:	910c      	str	r1, [sp, #48]	@ 0x30
   233e4:	910b      	str	r1, [sp, #44]	@ 0x2c
   233e6:	910a      	str	r1, [sp, #40]	@ 0x28
   233e8:	9109      	str	r1, [sp, #36]	@ 0x24
   233ea:	9108      	str	r1, [sp, #32]
   233ec:	4822      	ldr	r0, [pc, #136]	@ (23478 <_ZN18complex_no_dynamic3app17hd9626285bba282a6E+0xb4>)
   233ee:	2105      	movs	r1, #5
   233f0:	462a      	mov	r2, r5
   233f2:	4633      	mov	r3, r6
   233f4:	df04      	svc	4
   233f6:	2802      	cmp	r0, #2
   233f8:	d00e      	beq.n	23418 <_ZN18complex_no_dynamic3app17hd9626285bba282a6E+0x54>
   233fa:	481f      	ldr	r0, [pc, #124]	@ (23478 <_ZN18complex_no_dynamic3app17hd9626285bba282a6E+0xb4>)
   233fc:	2102      	movs	r1, #2
   233fe:	aa08      	add	r2, sp, #32
   23400:	231b      	movs	r3, #27
   23402:	df03      	svc	3
   23404:	2802      	cmp	r0, #2
   23406:	d007      	beq.n	23418 <_ZN18complex_no_dynamic3app17hd9626285bba282a6E+0x54>
   23408:	481b      	ldr	r0, [pc, #108]	@ (23478 <_ZN18complex_no_dynamic3app17hd9626285bba282a6E+0xb4>)
   2340a:	2105      	movs	r1, #5
   2340c:	2202      	movs	r2, #2
   2340e:	2500      	movs	r5, #0
   23410:	462b      	mov	r3, r5
   23412:	df02      	svc	2
   23414:	287f      	cmp	r0, #127	@ 0x7f
   23416:	d810      	bhi.n	2343a <_ZN18complex_no_dynamic3app17hd9626285bba282a6E+0x76>
   23418:	2001      	movs	r0, #1
   2341a:	7020      	strb	r0, [r4, #0]
   2341c:	6061      	str	r1, [r4, #4]
   2341e:	4c16      	ldr	r4, [pc, #88]	@ (23478 <_ZN18complex_no_dynamic3app17hd9626285bba282a6E+0xb4>)
   23420:	2102      	movs	r1, #2
   23422:	2500      	movs	r5, #0
   23424:	4620      	mov	r0, r4
   23426:	462a      	mov	r2, r5
   23428:	462b      	mov	r3, r5
   2342a:	df03      	svc	3
   2342c:	2105      	movs	r1, #5
   2342e:	4620      	mov	r0, r4
   23430:	462a      	mov	r2, r5
   23432:	462b      	mov	r3, r5
   23434:	df04      	svc	4
   23436:	b00f      	add	sp, #60	@ 0x3c
   23438:	bdf0      	pop	{r4, r5, r6, r7, pc}
   2343a:	480f      	ldr	r0, [pc, #60]	@ (23478 <_ZN18complex_no_dynamic3app17hd9626285bba282a6E+0xb4>)
   2343c:	2602      	movs	r6, #2
   2343e:	4631      	mov	r1, r6
   23440:	462a      	mov	r2, r5
   23442:	462b      	mov	r3, r5
   23444:	df03      	svc	3
   23446:	480c      	ldr	r0, [pc, #48]	@ (23478 <_ZN18complex_no_dynamic3app17hd9626285bba282a6E+0xb4>)
   23448:	4631      	mov	r1, r6
   2344a:	462a      	mov	r2, r5
   2344c:	462b      	mov	r3, r5
   2344e:	df03      	svc	3
   23450:	1c60      	adds	r0, r4, #1
   23452:	a908      	add	r1, sp, #32
   23454:	221b      	movs	r2, #27
   23456:	f003 fdd8 	bl	2700a <__aeabi_memcpy>
   2345a:	7025      	strb	r5, [r4, #0]
   2345c:	4c06      	ldr	r4, [pc, #24]	@ (23478 <_ZN18complex_no_dynamic3app17hd9626285bba282a6E+0xb4>)
   2345e:	4620      	mov	r0, r4
   23460:	4631      	mov	r1, r6
   23462:	462a      	mov	r2, r5
   23464:	462b      	mov	r3, r5
   23466:	df03      	svc	3
   23468:	2105      	movs	r1, #5
   2346a:	4620      	mov	r0, r4
   2346c:	462a      	mov	r2, r5
   2346e:	462b      	mov	r3, r5
   23470:	df04      	svc	4
   23472:	b00f      	add	sp, #60	@ 0x3c
   23474:	bdf0      	pop	{r4, r5, r6, r7, pc}
   23476:	46c0      	nop			@ (mov r8, r8)
   23478:	00001cce 	.word	0x00001cce

0002347c <_ZN18complex_no_dynamic3app17hdbe45dc0f5e484fdE>:
   2347c:	b5f0      	push	{r4, r5, r6, r7, lr}
   2347e:	af03      	add	r7, sp, #12
   23480:	b09b      	sub	sp, #108	@ 0x6c
   23482:	4604      	mov	r4, r0
   23484:	466d      	mov	r5, sp
   23486:	2636      	movs	r6, #54	@ 0x36
   23488:	4628      	mov	r0, r5
   2348a:	4632      	mov	r2, r6
   2348c:	f003 fdbd 	bl	2700a <__aeabi_memcpy>
   23490:	a80e      	add	r0, sp, #56	@ 0x38
   23492:	2134      	movs	r1, #52	@ 0x34
   23494:	f003 fc0c 	bl	26cb0 <__aeabi_memclr4>
   23498:	4822      	ldr	r0, [pc, #136]	@ (23524 <_ZN18complex_no_dynamic3app17hdbe45dc0f5e484fdE+0xa8>)
   2349a:	2104      	movs	r1, #4
   2349c:	462a      	mov	r2, r5
   2349e:	4633      	mov	r3, r6
   234a0:	df04      	svc	4
   234a2:	2802      	cmp	r0, #2
   234a4:	d00e      	beq.n	234c4 <_ZN18complex_no_dynamic3app17hdbe45dc0f5e484fdE+0x48>
   234a6:	481f      	ldr	r0, [pc, #124]	@ (23524 <_ZN18complex_no_dynamic3app17hdbe45dc0f5e484fdE+0xa8>)
   234a8:	2102      	movs	r1, #2
   234aa:	aa0e      	add	r2, sp, #56	@ 0x38
   234ac:	2334      	movs	r3, #52	@ 0x34
   234ae:	df03      	svc	3
   234b0:	2802      	cmp	r0, #2
   234b2:	d007      	beq.n	234c4 <_ZN18complex_no_dynamic3app17hdbe45dc0f5e484fdE+0x48>
   234b4:	481b      	ldr	r0, [pc, #108]	@ (23524 <_ZN18complex_no_dynamic3app17hdbe45dc0f5e484fdE+0xa8>)
   234b6:	2104      	movs	r1, #4
   234b8:	2202      	movs	r2, #2
   234ba:	2500      	movs	r5, #0
   234bc:	462b      	mov	r3, r5
   234be:	df02      	svc	2
   234c0:	287f      	cmp	r0, #127	@ 0x7f
   234c2:	d810      	bhi.n	234e6 <_ZN18complex_no_dynamic3app17hdbe45dc0f5e484fdE+0x6a>
   234c4:	2001      	movs	r0, #1
   234c6:	7020      	strb	r0, [r4, #0]
   234c8:	6061      	str	r1, [r4, #4]
   234ca:	4c16      	ldr	r4, [pc, #88]	@ (23524 <_ZN18complex_no_dynamic3app17hdbe45dc0f5e484fdE+0xa8>)
   234cc:	2102      	movs	r1, #2
   234ce:	2500      	movs	r5, #0
   234d0:	4620      	mov	r0, r4
   234d2:	462a      	mov	r2, r5
   234d4:	462b      	mov	r3, r5
   234d6:	df03      	svc	3
   234d8:	2104      	movs	r1, #4
   234da:	4620      	mov	r0, r4
   234dc:	462a      	mov	r2, r5
   234de:	462b      	mov	r3, r5
   234e0:	df04      	svc	4
   234e2:	b01b      	add	sp, #108	@ 0x6c
   234e4:	bdf0      	pop	{r4, r5, r6, r7, pc}
   234e6:	480f      	ldr	r0, [pc, #60]	@ (23524 <_ZN18complex_no_dynamic3app17hdbe45dc0f5e484fdE+0xa8>)
   234e8:	2602      	movs	r6, #2
   234ea:	4631      	mov	r1, r6
   234ec:	462a      	mov	r2, r5
   234ee:	462b      	mov	r3, r5
   234f0:	df03      	svc	3
   234f2:	480c      	ldr	r0, [pc, #48]	@ (23524 <_ZN18complex_no_dynamic3app17hdbe45dc0f5e484fdE+0xa8>)
   234f4:	4631      	mov	r1, r6
   234f6:	462a      	mov	r2, r5
   234f8:	462b      	mov	r3, r5
   234fa:	df03      	svc	3
   234fc:	1c60      	adds	r0, r4, #1
   234fe:	a90e      	add	r1, sp, #56	@ 0x38
   23500:	2234      	movs	r2, #52	@ 0x34
   23502:	f003 fd82 	bl	2700a <__aeabi_memcpy>
   23506:	7025      	strb	r5, [r4, #0]
   23508:	4c06      	ldr	r4, [pc, #24]	@ (23524 <_ZN18complex_no_dynamic3app17hdbe45dc0f5e484fdE+0xa8>)
   2350a:	4620      	mov	r0, r4
   2350c:	4631      	mov	r1, r6
   2350e:	462a      	mov	r2, r5
   23510:	462b      	mov	r3, r5
   23512:	df03      	svc	3
   23514:	2104      	movs	r1, #4
   23516:	4620      	mov	r0, r4
   23518:	462a      	mov	r2, r5
   2351a:	462b      	mov	r3, r5
   2351c:	df04      	svc	4
   2351e:	b01b      	add	sp, #108	@ 0x6c
   23520:	bdf0      	pop	{r4, r5, r6, r7, pc}
   23522:	46c0      	nop			@ (mov r8, r8)
   23524:	000023c6 	.word	0x000023c6

00023528 <_ZN18complex_no_dynamic3app17hdf83150691c59ebdE>:
   23528:	b5f0      	push	{r4, r5, r6, r7, lr}
   2352a:	af03      	add	r7, sp, #12
   2352c:	b09f      	sub	sp, #124	@ 0x7c
   2352e:	4604      	mov	r4, r0
   23530:	466d      	mov	r5, sp
   23532:	2631      	movs	r6, #49	@ 0x31
   23534:	4628      	mov	r0, r5
   23536:	4632      	mov	r2, r6
   23538:	f003 fd67 	bl	2700a <__aeabi_memcpy>
   2353c:	a80d      	add	r0, sp, #52	@ 0x34
   2353e:	2148      	movs	r1, #72	@ 0x48
   23540:	f003 fbb6 	bl	26cb0 <__aeabi_memclr4>
   23544:	4822      	ldr	r0, [pc, #136]	@ (235d0 <_ZN18complex_no_dynamic3app17hdf83150691c59ebdE+0xa8>)
   23546:	2104      	movs	r1, #4
   23548:	462a      	mov	r2, r5
   2354a:	4633      	mov	r3, r6
   2354c:	df04      	svc	4
   2354e:	2802      	cmp	r0, #2
   23550:	d00e      	beq.n	23570 <_ZN18complex_no_dynamic3app17hdf83150691c59ebdE+0x48>
   23552:	481f      	ldr	r0, [pc, #124]	@ (235d0 <_ZN18complex_no_dynamic3app17hdf83150691c59ebdE+0xa8>)
   23554:	2103      	movs	r1, #3
   23556:	aa0d      	add	r2, sp, #52	@ 0x34
   23558:	2348      	movs	r3, #72	@ 0x48
   2355a:	df03      	svc	3
   2355c:	2802      	cmp	r0, #2
   2355e:	d007      	beq.n	23570 <_ZN18complex_no_dynamic3app17hdf83150691c59ebdE+0x48>
   23560:	481b      	ldr	r0, [pc, #108]	@ (235d0 <_ZN18complex_no_dynamic3app17hdf83150691c59ebdE+0xa8>)
   23562:	2104      	movs	r1, #4
   23564:	2203      	movs	r2, #3
   23566:	2500      	movs	r5, #0
   23568:	462b      	mov	r3, r5
   2356a:	df02      	svc	2
   2356c:	287f      	cmp	r0, #127	@ 0x7f
   2356e:	d810      	bhi.n	23592 <_ZN18complex_no_dynamic3app17hdf83150691c59ebdE+0x6a>
   23570:	2001      	movs	r0, #1
   23572:	7020      	strb	r0, [r4, #0]
   23574:	6061      	str	r1, [r4, #4]
   23576:	4c16      	ldr	r4, [pc, #88]	@ (235d0 <_ZN18complex_no_dynamic3app17hdf83150691c59ebdE+0xa8>)
   23578:	2103      	movs	r1, #3
   2357a:	2500      	movs	r5, #0
   2357c:	4620      	mov	r0, r4
   2357e:	462a      	mov	r2, r5
   23580:	462b      	mov	r3, r5
   23582:	df03      	svc	3
   23584:	2104      	movs	r1, #4
   23586:	4620      	mov	r0, r4
   23588:	462a      	mov	r2, r5
   2358a:	462b      	mov	r3, r5
   2358c:	df04      	svc	4
   2358e:	b01f      	add	sp, #124	@ 0x7c
   23590:	bdf0      	pop	{r4, r5, r6, r7, pc}
   23592:	480f      	ldr	r0, [pc, #60]	@ (235d0 <_ZN18complex_no_dynamic3app17hdf83150691c59ebdE+0xa8>)
   23594:	2603      	movs	r6, #3
   23596:	4631      	mov	r1, r6
   23598:	462a      	mov	r2, r5
   2359a:	462b      	mov	r3, r5
   2359c:	df03      	svc	3
   2359e:	480c      	ldr	r0, [pc, #48]	@ (235d0 <_ZN18complex_no_dynamic3app17hdf83150691c59ebdE+0xa8>)
   235a0:	4631      	mov	r1, r6
   235a2:	462a      	mov	r2, r5
   235a4:	462b      	mov	r3, r5
   235a6:	df03      	svc	3
   235a8:	1c60      	adds	r0, r4, #1
   235aa:	a90d      	add	r1, sp, #52	@ 0x34
   235ac:	2248      	movs	r2, #72	@ 0x48
   235ae:	f003 fd2c 	bl	2700a <__aeabi_memcpy>
   235b2:	7025      	strb	r5, [r4, #0]
   235b4:	4c06      	ldr	r4, [pc, #24]	@ (235d0 <_ZN18complex_no_dynamic3app17hdf83150691c59ebdE+0xa8>)
   235b6:	4620      	mov	r0, r4
   235b8:	4631      	mov	r1, r6
   235ba:	462a      	mov	r2, r5
   235bc:	462b      	mov	r3, r5
   235be:	df03      	svc	3
   235c0:	2104      	movs	r1, #4
   235c2:	4620      	mov	r0, r4
   235c4:	462a      	mov	r2, r5
   235c6:	462b      	mov	r3, r5
   235c8:	df04      	svc	4
   235ca:	b01f      	add	sp, #124	@ 0x7c
   235cc:	bdf0      	pop	{r4, r5, r6, r7, pc}
   235ce:	46c0      	nop			@ (mov r8, r8)
   235d0:	0000180e 	.word	0x0000180e

000235d4 <_ZN18complex_no_dynamic3app17he080a58cc1388466E>:
   235d4:	b5f0      	push	{r4, r5, r6, r7, lr}
   235d6:	af03      	add	r7, sp, #12
   235d8:	b0a5      	sub	sp, #148	@ 0x94
   235da:	4604      	mov	r4, r0
   235dc:	ad01      	add	r5, sp, #4
   235de:	262f      	movs	r6, #47	@ 0x2f
   235e0:	4628      	mov	r0, r5
   235e2:	4632      	mov	r2, r6
   235e4:	f003 fd11 	bl	2700a <__aeabi_memcpy>
   235e8:	a80d      	add	r0, sp, #52	@ 0x34
   235ea:	215e      	movs	r1, #94	@ 0x5e
   235ec:	f003 fb60 	bl	26cb0 <__aeabi_memclr4>
   235f0:	4822      	ldr	r0, [pc, #136]	@ (2367c <_ZN18complex_no_dynamic3app17he080a58cc1388466E+0xa8>)
   235f2:	2105      	movs	r1, #5
   235f4:	462a      	mov	r2, r5
   235f6:	4633      	mov	r3, r6
   235f8:	df04      	svc	4
   235fa:	2802      	cmp	r0, #2
   235fc:	d00e      	beq.n	2361c <_ZN18complex_no_dynamic3app17he080a58cc1388466E+0x48>
   235fe:	481f      	ldr	r0, [pc, #124]	@ (2367c <_ZN18complex_no_dynamic3app17he080a58cc1388466E+0xa8>)
   23600:	2102      	movs	r1, #2
   23602:	aa0d      	add	r2, sp, #52	@ 0x34
   23604:	235e      	movs	r3, #94	@ 0x5e
   23606:	df03      	svc	3
   23608:	2802      	cmp	r0, #2
   2360a:	d007      	beq.n	2361c <_ZN18complex_no_dynamic3app17he080a58cc1388466E+0x48>
   2360c:	481b      	ldr	r0, [pc, #108]	@ (2367c <_ZN18complex_no_dynamic3app17he080a58cc1388466E+0xa8>)
   2360e:	2105      	movs	r1, #5
   23610:	2202      	movs	r2, #2
   23612:	2500      	movs	r5, #0
   23614:	462b      	mov	r3, r5
   23616:	df02      	svc	2
   23618:	287f      	cmp	r0, #127	@ 0x7f
   2361a:	d810      	bhi.n	2363e <_ZN18complex_no_dynamic3app17he080a58cc1388466E+0x6a>
   2361c:	2001      	movs	r0, #1
   2361e:	7020      	strb	r0, [r4, #0]
   23620:	6061      	str	r1, [r4, #4]
   23622:	4c16      	ldr	r4, [pc, #88]	@ (2367c <_ZN18complex_no_dynamic3app17he080a58cc1388466E+0xa8>)
   23624:	2102      	movs	r1, #2
   23626:	2500      	movs	r5, #0
   23628:	4620      	mov	r0, r4
   2362a:	462a      	mov	r2, r5
   2362c:	462b      	mov	r3, r5
   2362e:	df03      	svc	3
   23630:	2105      	movs	r1, #5
   23632:	4620      	mov	r0, r4
   23634:	462a      	mov	r2, r5
   23636:	462b      	mov	r3, r5
   23638:	df04      	svc	4
   2363a:	b025      	add	sp, #148	@ 0x94
   2363c:	bdf0      	pop	{r4, r5, r6, r7, pc}
   2363e:	480f      	ldr	r0, [pc, #60]	@ (2367c <_ZN18complex_no_dynamic3app17he080a58cc1388466E+0xa8>)
   23640:	2602      	movs	r6, #2
   23642:	4631      	mov	r1, r6
   23644:	462a      	mov	r2, r5
   23646:	462b      	mov	r3, r5
   23648:	df03      	svc	3
   2364a:	480c      	ldr	r0, [pc, #48]	@ (2367c <_ZN18complex_no_dynamic3app17he080a58cc1388466E+0xa8>)
   2364c:	4631      	mov	r1, r6
   2364e:	462a      	mov	r2, r5
   23650:	462b      	mov	r3, r5
   23652:	df03      	svc	3
   23654:	1c60      	adds	r0, r4, #1
   23656:	a90d      	add	r1, sp, #52	@ 0x34
   23658:	225e      	movs	r2, #94	@ 0x5e
   2365a:	f003 fcd6 	bl	2700a <__aeabi_memcpy>
   2365e:	7025      	strb	r5, [r4, #0]
   23660:	4c06      	ldr	r4, [pc, #24]	@ (2367c <_ZN18complex_no_dynamic3app17he080a58cc1388466E+0xa8>)
   23662:	4620      	mov	r0, r4
   23664:	4631      	mov	r1, r6
   23666:	462a      	mov	r2, r5
   23668:	462b      	mov	r3, r5
   2366a:	df03      	svc	3
   2366c:	2105      	movs	r1, #5
   2366e:	4620      	mov	r0, r4
   23670:	462a      	mov	r2, r5
   23672:	462b      	mov	r3, r5
   23674:	df04      	svc	4
   23676:	b025      	add	sp, #148	@ 0x94
   23678:	bdf0      	pop	{r4, r5, r6, r7, pc}
   2367a:	46c0      	nop			@ (mov r8, r8)
   2367c:	0000022b 	.word	0x0000022b

00023680 <_ZN18complex_no_dynamic3app17he196ac98c1577690E>:
   23680:	b5f0      	push	{r4, r5, r6, r7, lr}
   23682:	af03      	add	r7, sp, #12
   23684:	b0a3      	sub	sp, #140	@ 0x8c
   23686:	4604      	mov	r4, r0
   23688:	466d      	mov	r5, sp
   2368a:	264f      	movs	r6, #79	@ 0x4f
   2368c:	4628      	mov	r0, r5
   2368e:	4632      	mov	r2, r6
   23690:	f003 fcbb 	bl	2700a <__aeabi_memcpy>
   23694:	a814      	add	r0, sp, #80	@ 0x50
   23696:	213b      	movs	r1, #59	@ 0x3b
   23698:	f003 fb0a 	bl	26cb0 <__aeabi_memclr4>
   2369c:	4822      	ldr	r0, [pc, #136]	@ (23728 <_ZN18complex_no_dynamic3app17he196ac98c1577690E+0xa8>)
   2369e:	2108      	movs	r1, #8
   236a0:	462a      	mov	r2, r5
   236a2:	4633      	mov	r3, r6
   236a4:	df04      	svc	4
   236a6:	2802      	cmp	r0, #2
   236a8:	d00e      	beq.n	236c8 <_ZN18complex_no_dynamic3app17he196ac98c1577690E+0x48>
   236aa:	481f      	ldr	r0, [pc, #124]	@ (23728 <_ZN18complex_no_dynamic3app17he196ac98c1577690E+0xa8>)
   236ac:	2105      	movs	r1, #5
   236ae:	aa14      	add	r2, sp, #80	@ 0x50
   236b0:	233b      	movs	r3, #59	@ 0x3b
   236b2:	df03      	svc	3
   236b4:	2802      	cmp	r0, #2
   236b6:	d007      	beq.n	236c8 <_ZN18complex_no_dynamic3app17he196ac98c1577690E+0x48>
   236b8:	481b      	ldr	r0, [pc, #108]	@ (23728 <_ZN18complex_no_dynamic3app17he196ac98c1577690E+0xa8>)
   236ba:	2108      	movs	r1, #8
   236bc:	2205      	movs	r2, #5
   236be:	2500      	movs	r5, #0
   236c0:	462b      	mov	r3, r5
   236c2:	df02      	svc	2
   236c4:	287f      	cmp	r0, #127	@ 0x7f
   236c6:	d810      	bhi.n	236ea <_ZN18complex_no_dynamic3app17he196ac98c1577690E+0x6a>
   236c8:	2001      	movs	r0, #1
   236ca:	7020      	strb	r0, [r4, #0]
   236cc:	6061      	str	r1, [r4, #4]
   236ce:	4c16      	ldr	r4, [pc, #88]	@ (23728 <_ZN18complex_no_dynamic3app17he196ac98c1577690E+0xa8>)
   236d0:	2105      	movs	r1, #5
   236d2:	2500      	movs	r5, #0
   236d4:	4620      	mov	r0, r4
   236d6:	462a      	mov	r2, r5
   236d8:	462b      	mov	r3, r5
   236da:	df03      	svc	3
   236dc:	2108      	movs	r1, #8
   236de:	4620      	mov	r0, r4
   236e0:	462a      	mov	r2, r5
   236e2:	462b      	mov	r3, r5
   236e4:	df04      	svc	4
   236e6:	b023      	add	sp, #140	@ 0x8c
   236e8:	bdf0      	pop	{r4, r5, r6, r7, pc}
   236ea:	480f      	ldr	r0, [pc, #60]	@ (23728 <_ZN18complex_no_dynamic3app17he196ac98c1577690E+0xa8>)
   236ec:	2605      	movs	r6, #5
   236ee:	4631      	mov	r1, r6
   236f0:	462a      	mov	r2, r5
   236f2:	462b      	mov	r3, r5
   236f4:	df03      	svc	3
   236f6:	480c      	ldr	r0, [pc, #48]	@ (23728 <_ZN18complex_no_dynamic3app17he196ac98c1577690E+0xa8>)
   236f8:	4631      	mov	r1, r6
   236fa:	462a      	mov	r2, r5
   236fc:	462b      	mov	r3, r5
   236fe:	df03      	svc	3
   23700:	1c60      	adds	r0, r4, #1
   23702:	a914      	add	r1, sp, #80	@ 0x50
   23704:	223b      	movs	r2, #59	@ 0x3b
   23706:	f003 fc80 	bl	2700a <__aeabi_memcpy>
   2370a:	7025      	strb	r5, [r4, #0]
   2370c:	4c06      	ldr	r4, [pc, #24]	@ (23728 <_ZN18complex_no_dynamic3app17he196ac98c1577690E+0xa8>)
   2370e:	4620      	mov	r0, r4
   23710:	4631      	mov	r1, r6
   23712:	462a      	mov	r2, r5
   23714:	462b      	mov	r3, r5
   23716:	df03      	svc	3
   23718:	2108      	movs	r1, #8
   2371a:	4620      	mov	r0, r4
   2371c:	462a      	mov	r2, r5
   2371e:	462b      	mov	r3, r5
   23720:	df04      	svc	4
   23722:	b023      	add	sp, #140	@ 0x8c
   23724:	bdf0      	pop	{r4, r5, r6, r7, pc}
   23726:	46c0      	nop			@ (mov r8, r8)
   23728:	00000a06 	.word	0x00000a06

0002372c <_ZN18complex_no_dynamic3app17he1edb2c0b992a969E>:
   2372c:	b5f0      	push	{r4, r5, r6, r7, lr}
   2372e:	af03      	add	r7, sp, #12
   23730:	b0a3      	sub	sp, #140	@ 0x8c
   23732:	9001      	str	r0, [sp, #4]
   23734:	ae02      	add	r6, sp, #8
   23736:	2461      	movs	r4, #97	@ 0x61
   23738:	4630      	mov	r0, r6
   2373a:	4622      	mov	r2, r4
   2373c:	f003 fc65 	bl	2700a <__aeabi_memcpy>
   23740:	a81b      	add	r0, sp, #108	@ 0x6c
   23742:	2100      	movs	r1, #0
   23744:	8381      	strh	r1, [r0, #28]
   23746:	9121      	str	r1, [sp, #132]	@ 0x84
   23748:	9120      	str	r1, [sp, #128]	@ 0x80
   2374a:	911f      	str	r1, [sp, #124]	@ 0x7c
   2374c:	911e      	str	r1, [sp, #120]	@ 0x78
   2374e:	911d      	str	r1, [sp, #116]	@ 0x74
   23750:	911c      	str	r1, [sp, #112]	@ 0x70
   23752:	911b      	str	r1, [sp, #108]	@ 0x6c
   23754:	2031      	movs	r0, #49	@ 0x31
   23756:	00c5      	lsls	r5, r0, #3
   23758:	2104      	movs	r1, #4
   2375a:	4628      	mov	r0, r5
   2375c:	4632      	mov	r2, r6
   2375e:	4623      	mov	r3, r4
   23760:	df04      	svc	4
   23762:	2802      	cmp	r0, #2
   23764:	d00e      	beq.n	23784 <_ZN18complex_no_dynamic3app17he1edb2c0b992a969E+0x58>
   23766:	2106      	movs	r1, #6
   23768:	aa1b      	add	r2, sp, #108	@ 0x6c
   2376a:	231e      	movs	r3, #30
   2376c:	4628      	mov	r0, r5
   2376e:	df03      	svc	3
   23770:	2802      	cmp	r0, #2
   23772:	d007      	beq.n	23784 <_ZN18complex_no_dynamic3app17he1edb2c0b992a969E+0x58>
   23774:	2104      	movs	r1, #4
   23776:	2206      	movs	r2, #6
   23778:	2600      	movs	r6, #0
   2377a:	4628      	mov	r0, r5
   2377c:	4633      	mov	r3, r6
   2377e:	df02      	svc	2
   23780:	287f      	cmp	r0, #127	@ 0x7f
   23782:	d810      	bhi.n	237a6 <_ZN18complex_no_dynamic3app17he1edb2c0b992a969E+0x7a>
   23784:	2001      	movs	r0, #1
   23786:	9a01      	ldr	r2, [sp, #4]
   23788:	7010      	strb	r0, [r2, #0]
   2378a:	6051      	str	r1, [r2, #4]
   2378c:	2106      	movs	r1, #6
   2378e:	2400      	movs	r4, #0
   23790:	4628      	mov	r0, r5
   23792:	4622      	mov	r2, r4
   23794:	4623      	mov	r3, r4
   23796:	df03      	svc	3
   23798:	2104      	movs	r1, #4
   2379a:	4628      	mov	r0, r5
   2379c:	4622      	mov	r2, r4
   2379e:	4623      	mov	r3, r4
   237a0:	df04      	svc	4
   237a2:	b023      	add	sp, #140	@ 0x8c
   237a4:	bdf0      	pop	{r4, r5, r6, r7, pc}
   237a6:	2406      	movs	r4, #6
   237a8:	9400      	str	r4, [sp, #0]
   237aa:	4628      	mov	r0, r5
   237ac:	4621      	mov	r1, r4
   237ae:	4632      	mov	r2, r6
   237b0:	4633      	mov	r3, r6
   237b2:	df03      	svc	3
   237b4:	4628      	mov	r0, r5
   237b6:	4621      	mov	r1, r4
   237b8:	4632      	mov	r2, r6
   237ba:	4633      	mov	r3, r6
   237bc:	df03      	svc	3
   237be:	9c01      	ldr	r4, [sp, #4]
   237c0:	1c60      	adds	r0, r4, #1
   237c2:	a91b      	add	r1, sp, #108	@ 0x6c
   237c4:	221e      	movs	r2, #30
   237c6:	f003 fc20 	bl	2700a <__aeabi_memcpy>
   237ca:	7026      	strb	r6, [r4, #0]
   237cc:	4628      	mov	r0, r5
   237ce:	9900      	ldr	r1, [sp, #0]
   237d0:	4632      	mov	r2, r6
   237d2:	4633      	mov	r3, r6
   237d4:	df03      	svc	3
   237d6:	2104      	movs	r1, #4
   237d8:	4628      	mov	r0, r5
   237da:	4632      	mov	r2, r6
   237dc:	4633      	mov	r3, r6
   237de:	df04      	svc	4
   237e0:	b023      	add	sp, #140	@ 0x8c
   237e2:	bdf0      	pop	{r4, r5, r6, r7, pc}

000237e4 <_ZN18complex_no_dynamic3app17he29e6aa975898e78E>:
   237e4:	b5f0      	push	{r4, r5, r6, r7, lr}
   237e6:	af03      	add	r7, sp, #12
   237e8:	b09b      	sub	sp, #108	@ 0x6c
   237ea:	9002      	str	r0, [sp, #8]
   237ec:	ae03      	add	r6, sp, #12
   237ee:	241b      	movs	r4, #27
   237f0:	4630      	mov	r0, r6
   237f2:	4622      	mov	r2, r4
   237f4:	f003 fc09 	bl	2700a <__aeabi_memcpy>
   237f8:	a80a      	add	r0, sp, #40	@ 0x28
   237fa:	2141      	movs	r1, #65	@ 0x41
   237fc:	f003 fa58 	bl	26cb0 <__aeabi_memclr4>
   23800:	2005      	movs	r0, #5
   23802:	0185      	lsls	r5, r0, #6
   23804:	2108      	movs	r1, #8
   23806:	4628      	mov	r0, r5
   23808:	4632      	mov	r2, r6
   2380a:	4623      	mov	r3, r4
   2380c:	df04      	svc	4
   2380e:	2802      	cmp	r0, #2
   23810:	d00e      	beq.n	23830 <_ZN18complex_no_dynamic3app17he29e6aa975898e78E+0x4c>
   23812:	2109      	movs	r1, #9
   23814:	aa0a      	add	r2, sp, #40	@ 0x28
   23816:	2341      	movs	r3, #65	@ 0x41
   23818:	4628      	mov	r0, r5
   2381a:	df03      	svc	3
   2381c:	2802      	cmp	r0, #2
   2381e:	d007      	beq.n	23830 <_ZN18complex_no_dynamic3app17he29e6aa975898e78E+0x4c>
   23820:	2108      	movs	r1, #8
   23822:	2209      	movs	r2, #9
   23824:	2600      	movs	r6, #0
   23826:	4628      	mov	r0, r5
   23828:	4633      	mov	r3, r6
   2382a:	df02      	svc	2
   2382c:	287f      	cmp	r0, #127	@ 0x7f
   2382e:	d810      	bhi.n	23852 <_ZN18complex_no_dynamic3app17he29e6aa975898e78E+0x6e>
   23830:	2001      	movs	r0, #1
   23832:	9a02      	ldr	r2, [sp, #8]
   23834:	7010      	strb	r0, [r2, #0]
   23836:	6051      	str	r1, [r2, #4]
   23838:	2109      	movs	r1, #9
   2383a:	2400      	movs	r4, #0
   2383c:	4628      	mov	r0, r5
   2383e:	4622      	mov	r2, r4
   23840:	4623      	mov	r3, r4
   23842:	df03      	svc	3
   23844:	2108      	movs	r1, #8
   23846:	4628      	mov	r0, r5
   23848:	4622      	mov	r2, r4
   2384a:	4623      	mov	r3, r4
   2384c:	df04      	svc	4
   2384e:	b01b      	add	sp, #108	@ 0x6c
   23850:	bdf0      	pop	{r4, r5, r6, r7, pc}
   23852:	2409      	movs	r4, #9
   23854:	9401      	str	r4, [sp, #4]
   23856:	4628      	mov	r0, r5
   23858:	4621      	mov	r1, r4
   2385a:	4632      	mov	r2, r6
   2385c:	4633      	mov	r3, r6
   2385e:	df03      	svc	3
   23860:	4628      	mov	r0, r5
   23862:	4621      	mov	r1, r4
   23864:	4632      	mov	r2, r6
   23866:	4633      	mov	r3, r6
   23868:	df03      	svc	3
   2386a:	9c02      	ldr	r4, [sp, #8]
   2386c:	1c60      	adds	r0, r4, #1
   2386e:	a90a      	add	r1, sp, #40	@ 0x28
   23870:	2241      	movs	r2, #65	@ 0x41
   23872:	f003 fbca 	bl	2700a <__aeabi_memcpy>
   23876:	7026      	strb	r6, [r4, #0]
   23878:	4628      	mov	r0, r5
   2387a:	9901      	ldr	r1, [sp, #4]
   2387c:	4632      	mov	r2, r6
   2387e:	4633      	mov	r3, r6
   23880:	df03      	svc	3
   23882:	2108      	movs	r1, #8
   23884:	4628      	mov	r0, r5
   23886:	4632      	mov	r2, r6
   23888:	4633      	mov	r3, r6
   2388a:	df04      	svc	4
   2388c:	b01b      	add	sp, #108	@ 0x6c
   2388e:	bdf0      	pop	{r4, r5, r6, r7, pc}

00023890 <_ZN18complex_no_dynamic3app17he3673a4f8c54ac24E>:
   23890:	b5f0      	push	{r4, r5, r6, r7, lr}
   23892:	af03      	add	r7, sp, #12
   23894:	b097      	sub	sp, #92	@ 0x5c
   23896:	4604      	mov	r4, r0
   23898:	466d      	mov	r5, sp
   2389a:	261e      	movs	r6, #30
   2389c:	4628      	mov	r0, r5
   2389e:	4632      	mov	r2, r6
   238a0:	f003 fbb3 	bl	2700a <__aeabi_memcpy>
   238a4:	a808      	add	r0, sp, #32
   238a6:	213c      	movs	r1, #60	@ 0x3c
   238a8:	f003 fa02 	bl	26cb0 <__aeabi_memclr4>
   238ac:	4822      	ldr	r0, [pc, #136]	@ (23938 <_ZN18complex_no_dynamic3app17he3673a4f8c54ac24E+0xa8>)
   238ae:	2102      	movs	r1, #2
   238b0:	462a      	mov	r2, r5
   238b2:	4633      	mov	r3, r6
   238b4:	df04      	svc	4
   238b6:	2802      	cmp	r0, #2
   238b8:	d00e      	beq.n	238d8 <_ZN18complex_no_dynamic3app17he3673a4f8c54ac24E+0x48>
   238ba:	481f      	ldr	r0, [pc, #124]	@ (23938 <_ZN18complex_no_dynamic3app17he3673a4f8c54ac24E+0xa8>)
   238bc:	2103      	movs	r1, #3
   238be:	aa08      	add	r2, sp, #32
   238c0:	233c      	movs	r3, #60	@ 0x3c
   238c2:	df03      	svc	3
   238c4:	2802      	cmp	r0, #2
   238c6:	d007      	beq.n	238d8 <_ZN18complex_no_dynamic3app17he3673a4f8c54ac24E+0x48>
   238c8:	481b      	ldr	r0, [pc, #108]	@ (23938 <_ZN18complex_no_dynamic3app17he3673a4f8c54ac24E+0xa8>)
   238ca:	2102      	movs	r1, #2
   238cc:	2203      	movs	r2, #3
   238ce:	2500      	movs	r5, #0
   238d0:	462b      	mov	r3, r5
   238d2:	df02      	svc	2
   238d4:	287f      	cmp	r0, #127	@ 0x7f
   238d6:	d810      	bhi.n	238fa <_ZN18complex_no_dynamic3app17he3673a4f8c54ac24E+0x6a>
   238d8:	2001      	movs	r0, #1
   238da:	7020      	strb	r0, [r4, #0]
   238dc:	6061      	str	r1, [r4, #4]
   238de:	4c16      	ldr	r4, [pc, #88]	@ (23938 <_ZN18complex_no_dynamic3app17he3673a4f8c54ac24E+0xa8>)
   238e0:	2103      	movs	r1, #3
   238e2:	2500      	movs	r5, #0
   238e4:	4620      	mov	r0, r4
   238e6:	462a      	mov	r2, r5
   238e8:	462b      	mov	r3, r5
   238ea:	df03      	svc	3
   238ec:	2102      	movs	r1, #2
   238ee:	4620      	mov	r0, r4
   238f0:	462a      	mov	r2, r5
   238f2:	462b      	mov	r3, r5
   238f4:	df04      	svc	4
   238f6:	b017      	add	sp, #92	@ 0x5c
   238f8:	bdf0      	pop	{r4, r5, r6, r7, pc}
   238fa:	480f      	ldr	r0, [pc, #60]	@ (23938 <_ZN18complex_no_dynamic3app17he3673a4f8c54ac24E+0xa8>)
   238fc:	2603      	movs	r6, #3
   238fe:	4631      	mov	r1, r6
   23900:	462a      	mov	r2, r5
   23902:	462b      	mov	r3, r5
   23904:	df03      	svc	3
   23906:	480c      	ldr	r0, [pc, #48]	@ (23938 <_ZN18complex_no_dynamic3app17he3673a4f8c54ac24E+0xa8>)
   23908:	4631      	mov	r1, r6
   2390a:	462a      	mov	r2, r5
   2390c:	462b      	mov	r3, r5
   2390e:	df03      	svc	3
   23910:	1c60      	adds	r0, r4, #1
   23912:	a908      	add	r1, sp, #32
   23914:	223c      	movs	r2, #60	@ 0x3c
   23916:	f003 fb78 	bl	2700a <__aeabi_memcpy>
   2391a:	7025      	strb	r5, [r4, #0]
   2391c:	4c06      	ldr	r4, [pc, #24]	@ (23938 <_ZN18complex_no_dynamic3app17he3673a4f8c54ac24E+0xa8>)
   2391e:	4620      	mov	r0, r4
   23920:	4631      	mov	r1, r6
   23922:	462a      	mov	r2, r5
   23924:	462b      	mov	r3, r5
   23926:	df03      	svc	3
   23928:	2102      	movs	r1, #2
   2392a:	4620      	mov	r0, r4
   2392c:	462a      	mov	r2, r5
   2392e:	462b      	mov	r3, r5
   23930:	df04      	svc	4
   23932:	b017      	add	sp, #92	@ 0x5c
   23934:	bdf0      	pop	{r4, r5, r6, r7, pc}
   23936:	46c0      	nop			@ (mov r8, r8)
   23938:	00000b3c 	.word	0x00000b3c

0002393c <_ZN18complex_no_dynamic3app17he742cd39c39b4c41E>:
   2393c:	b5f0      	push	{r4, r5, r6, r7, lr}
   2393e:	af03      	add	r7, sp, #12
   23940:	b0a9      	sub	sp, #164	@ 0xa4
   23942:	4604      	mov	r4, r0
   23944:	466d      	mov	r5, sp
   23946:	2653      	movs	r6, #83	@ 0x53
   23948:	4628      	mov	r0, r5
   2394a:	4632      	mov	r2, r6
   2394c:	f003 fb5d 	bl	2700a <__aeabi_memcpy>
   23950:	a815      	add	r0, sp, #84	@ 0x54
   23952:	214d      	movs	r1, #77	@ 0x4d
   23954:	f003 f9ac 	bl	26cb0 <__aeabi_memclr4>
   23958:	4822      	ldr	r0, [pc, #136]	@ (239e4 <_ZN18complex_no_dynamic3app17he742cd39c39b4c41E+0xa8>)
   2395a:	2109      	movs	r1, #9
   2395c:	462a      	mov	r2, r5
   2395e:	4633      	mov	r3, r6
   23960:	df04      	svc	4
   23962:	2802      	cmp	r0, #2
   23964:	d00e      	beq.n	23984 <_ZN18complex_no_dynamic3app17he742cd39c39b4c41E+0x48>
   23966:	481f      	ldr	r0, [pc, #124]	@ (239e4 <_ZN18complex_no_dynamic3app17he742cd39c39b4c41E+0xa8>)
   23968:	2104      	movs	r1, #4
   2396a:	aa15      	add	r2, sp, #84	@ 0x54
   2396c:	234d      	movs	r3, #77	@ 0x4d
   2396e:	df03      	svc	3
   23970:	2802      	cmp	r0, #2
   23972:	d007      	beq.n	23984 <_ZN18complex_no_dynamic3app17he742cd39c39b4c41E+0x48>
   23974:	481b      	ldr	r0, [pc, #108]	@ (239e4 <_ZN18complex_no_dynamic3app17he742cd39c39b4c41E+0xa8>)
   23976:	2109      	movs	r1, #9
   23978:	2204      	movs	r2, #4
   2397a:	2500      	movs	r5, #0
   2397c:	462b      	mov	r3, r5
   2397e:	df02      	svc	2
   23980:	287f      	cmp	r0, #127	@ 0x7f
   23982:	d810      	bhi.n	239a6 <_ZN18complex_no_dynamic3app17he742cd39c39b4c41E+0x6a>
   23984:	2001      	movs	r0, #1
   23986:	7020      	strb	r0, [r4, #0]
   23988:	6061      	str	r1, [r4, #4]
   2398a:	4c16      	ldr	r4, [pc, #88]	@ (239e4 <_ZN18complex_no_dynamic3app17he742cd39c39b4c41E+0xa8>)
   2398c:	2104      	movs	r1, #4
   2398e:	2500      	movs	r5, #0
   23990:	4620      	mov	r0, r4
   23992:	462a      	mov	r2, r5
   23994:	462b      	mov	r3, r5
   23996:	df03      	svc	3
   23998:	2109      	movs	r1, #9
   2399a:	4620      	mov	r0, r4
   2399c:	462a      	mov	r2, r5
   2399e:	462b      	mov	r3, r5
   239a0:	df04      	svc	4
   239a2:	b029      	add	sp, #164	@ 0xa4
   239a4:	bdf0      	pop	{r4, r5, r6, r7, pc}
   239a6:	480f      	ldr	r0, [pc, #60]	@ (239e4 <_ZN18complex_no_dynamic3app17he742cd39c39b4c41E+0xa8>)
   239a8:	2604      	movs	r6, #4
   239aa:	4631      	mov	r1, r6
   239ac:	462a      	mov	r2, r5
   239ae:	462b      	mov	r3, r5
   239b0:	df03      	svc	3
   239b2:	480c      	ldr	r0, [pc, #48]	@ (239e4 <_ZN18complex_no_dynamic3app17he742cd39c39b4c41E+0xa8>)
   239b4:	4631      	mov	r1, r6
   239b6:	462a      	mov	r2, r5
   239b8:	462b      	mov	r3, r5
   239ba:	df03      	svc	3
   239bc:	1c60      	adds	r0, r4, #1
   239be:	a915      	add	r1, sp, #84	@ 0x54
   239c0:	224d      	movs	r2, #77	@ 0x4d
   239c2:	f003 fb22 	bl	2700a <__aeabi_memcpy>
   239c6:	7025      	strb	r5, [r4, #0]
   239c8:	4c06      	ldr	r4, [pc, #24]	@ (239e4 <_ZN18complex_no_dynamic3app17he742cd39c39b4c41E+0xa8>)
   239ca:	4620      	mov	r0, r4
   239cc:	4631      	mov	r1, r6
   239ce:	462a      	mov	r2, r5
   239d0:	462b      	mov	r3, r5
   239d2:	df03      	svc	3
   239d4:	2109      	movs	r1, #9
   239d6:	4620      	mov	r0, r4
   239d8:	462a      	mov	r2, r5
   239da:	462b      	mov	r3, r5
   239dc:	df04      	svc	4
   239de:	b029      	add	sp, #164	@ 0xa4
   239e0:	bdf0      	pop	{r4, r5, r6, r7, pc}
   239e2:	46c0      	nop			@ (mov r8, r8)
   239e4:	000016ba 	.word	0x000016ba

000239e8 <_ZN18complex_no_dynamic3app17he8549f43129de3e9E>:
   239e8:	b5f0      	push	{r4, r5, r6, r7, lr}
   239ea:	af03      	add	r7, sp, #12
   239ec:	b08f      	sub	sp, #60	@ 0x3c
   239ee:	4604      	mov	r4, r0
   239f0:	ad01      	add	r5, sp, #4
   239f2:	260f      	movs	r6, #15
   239f4:	4628      	mov	r0, r5
   239f6:	4632      	mov	r2, r6
   239f8:	f003 fb07 	bl	2700a <__aeabi_memcpy>
   239fc:	a805      	add	r0, sp, #20
   239fe:	2125      	movs	r1, #37	@ 0x25
   23a00:	f003 f956 	bl	26cb0 <__aeabi_memclr4>
   23a04:	20a2      	movs	r0, #162	@ 0xa2
   23a06:	2108      	movs	r1, #8
   23a08:	462a      	mov	r2, r5
   23a0a:	4633      	mov	r3, r6
   23a0c:	df04      	svc	4
   23a0e:	2802      	cmp	r0, #2
   23a10:	d00e      	beq.n	23a30 <_ZN18complex_no_dynamic3app17he8549f43129de3e9E+0x48>
   23a12:	20a2      	movs	r0, #162	@ 0xa2
   23a14:	2100      	movs	r1, #0
   23a16:	aa05      	add	r2, sp, #20
   23a18:	2325      	movs	r3, #37	@ 0x25
   23a1a:	df03      	svc	3
   23a1c:	2802      	cmp	r0, #2
   23a1e:	d007      	beq.n	23a30 <_ZN18complex_no_dynamic3app17he8549f43129de3e9E+0x48>
   23a20:	20a2      	movs	r0, #162	@ 0xa2
   23a22:	2108      	movs	r1, #8
   23a24:	2500      	movs	r5, #0
   23a26:	462a      	mov	r2, r5
   23a28:	462b      	mov	r3, r5
   23a2a:	df02      	svc	2
   23a2c:	287f      	cmp	r0, #127	@ 0x7f
   23a2e:	d810      	bhi.n	23a52 <_ZN18complex_no_dynamic3app17he8549f43129de3e9E+0x6a>
   23a30:	2001      	movs	r0, #1
   23a32:	7020      	strb	r0, [r4, #0]
   23a34:	6061      	str	r1, [r4, #4]
   23a36:	24a2      	movs	r4, #162	@ 0xa2
   23a38:	2500      	movs	r5, #0
   23a3a:	4620      	mov	r0, r4
   23a3c:	4629      	mov	r1, r5
   23a3e:	462a      	mov	r2, r5
   23a40:	462b      	mov	r3, r5
   23a42:	df03      	svc	3
   23a44:	2108      	movs	r1, #8
   23a46:	4620      	mov	r0, r4
   23a48:	462a      	mov	r2, r5
   23a4a:	462b      	mov	r3, r5
   23a4c:	df04      	svc	4
   23a4e:	b00f      	add	sp, #60	@ 0x3c
   23a50:	bdf0      	pop	{r4, r5, r6, r7, pc}
   23a52:	26a2      	movs	r6, #162	@ 0xa2
   23a54:	4630      	mov	r0, r6
   23a56:	4629      	mov	r1, r5
   23a58:	462a      	mov	r2, r5
   23a5a:	462b      	mov	r3, r5
   23a5c:	df03      	svc	3
   23a5e:	4630      	mov	r0, r6
   23a60:	4629      	mov	r1, r5
   23a62:	462a      	mov	r2, r5
   23a64:	462b      	mov	r3, r5
   23a66:	df03      	svc	3
   23a68:	1c60      	adds	r0, r4, #1
   23a6a:	a905      	add	r1, sp, #20
   23a6c:	2225      	movs	r2, #37	@ 0x25
   23a6e:	f003 facc 	bl	2700a <__aeabi_memcpy>
   23a72:	7025      	strb	r5, [r4, #0]
   23a74:	4630      	mov	r0, r6
   23a76:	4629      	mov	r1, r5
   23a78:	462a      	mov	r2, r5
   23a7a:	462b      	mov	r3, r5
   23a7c:	df03      	svc	3
   23a7e:	2108      	movs	r1, #8
   23a80:	4630      	mov	r0, r6
   23a82:	462a      	mov	r2, r5
   23a84:	462b      	mov	r3, r5
   23a86:	df04      	svc	4
   23a88:	b00f      	add	sp, #60	@ 0x3c
   23a8a:	bdf0      	pop	{r4, r5, r6, r7, pc}

00023a8c <_ZN18complex_no_dynamic3app17heb8048e84ad4bb2bE>:
   23a8c:	b5f0      	push	{r4, r5, r6, r7, lr}
   23a8e:	af03      	add	r7, sp, #12
   23a90:	b09b      	sub	sp, #108	@ 0x6c
   23a92:	9000      	str	r0, [sp, #0]
   23a94:	ae01      	add	r6, sp, #4
   23a96:	2441      	movs	r4, #65	@ 0x41
   23a98:	4630      	mov	r0, r6
   23a9a:	4622      	mov	r2, r4
   23a9c:	f003 fab5 	bl	2700a <__aeabi_memcpy>
   23aa0:	a812      	add	r0, sp, #72	@ 0x48
   23aa2:	2122      	movs	r1, #34	@ 0x22
   23aa4:	f003 f904 	bl	26cb0 <__aeabi_memclr4>
   23aa8:	4822      	ldr	r0, [pc, #136]	@ (23b34 <_ZN18complex_no_dynamic3app17heb8048e84ad4bb2bE+0xa8>)
   23aaa:	2501      	movs	r5, #1
   23aac:	4629      	mov	r1, r5
   23aae:	4632      	mov	r2, r6
   23ab0:	4623      	mov	r3, r4
   23ab2:	df04      	svc	4
   23ab4:	2802      	cmp	r0, #2
   23ab6:	d00e      	beq.n	23ad6 <_ZN18complex_no_dynamic3app17heb8048e84ad4bb2bE+0x4a>
   23ab8:	481e      	ldr	r0, [pc, #120]	@ (23b34 <_ZN18complex_no_dynamic3app17heb8048e84ad4bb2bE+0xa8>)
   23aba:	2100      	movs	r1, #0
   23abc:	aa12      	add	r2, sp, #72	@ 0x48
   23abe:	2322      	movs	r3, #34	@ 0x22
   23ac0:	df03      	svc	3
   23ac2:	2802      	cmp	r0, #2
   23ac4:	d007      	beq.n	23ad6 <_ZN18complex_no_dynamic3app17heb8048e84ad4bb2bE+0x4a>
   23ac6:	481b      	ldr	r0, [pc, #108]	@ (23b34 <_ZN18complex_no_dynamic3app17heb8048e84ad4bb2bE+0xa8>)
   23ac8:	2101      	movs	r1, #1
   23aca:	2600      	movs	r6, #0
   23acc:	4632      	mov	r2, r6
   23ace:	4633      	mov	r3, r6
   23ad0:	df02      	svc	2
   23ad2:	287f      	cmp	r0, #127	@ 0x7f
   23ad4:	d810      	bhi.n	23af8 <_ZN18complex_no_dynamic3app17heb8048e84ad4bb2bE+0x6c>
   23ad6:	9800      	ldr	r0, [sp, #0]
   23ad8:	7005      	strb	r5, [r0, #0]
   23ada:	6041      	str	r1, [r0, #4]
   23adc:	4c15      	ldr	r4, [pc, #84]	@ (23b34 <_ZN18complex_no_dynamic3app17heb8048e84ad4bb2bE+0xa8>)
   23ade:	2600      	movs	r6, #0
   23ae0:	4620      	mov	r0, r4
   23ae2:	4631      	mov	r1, r6
   23ae4:	4632      	mov	r2, r6
   23ae6:	4633      	mov	r3, r6
   23ae8:	df03      	svc	3
   23aea:	4620      	mov	r0, r4
   23aec:	4629      	mov	r1, r5
   23aee:	4632      	mov	r2, r6
   23af0:	4633      	mov	r3, r6
   23af2:	df04      	svc	4
   23af4:	b01b      	add	sp, #108	@ 0x6c
   23af6:	bdf0      	pop	{r4, r5, r6, r7, pc}
   23af8:	4d0e      	ldr	r5, [pc, #56]	@ (23b34 <_ZN18complex_no_dynamic3app17heb8048e84ad4bb2bE+0xa8>)
   23afa:	4628      	mov	r0, r5
   23afc:	4631      	mov	r1, r6
   23afe:	4632      	mov	r2, r6
   23b00:	4633      	mov	r3, r6
   23b02:	df03      	svc	3
   23b04:	4628      	mov	r0, r5
   23b06:	4631      	mov	r1, r6
   23b08:	4632      	mov	r2, r6
   23b0a:	4633      	mov	r3, r6
   23b0c:	df03      	svc	3
   23b0e:	9c00      	ldr	r4, [sp, #0]
   23b10:	1c60      	adds	r0, r4, #1
   23b12:	a912      	add	r1, sp, #72	@ 0x48
   23b14:	2222      	movs	r2, #34	@ 0x22
   23b16:	f003 fa78 	bl	2700a <__aeabi_memcpy>
   23b1a:	7026      	strb	r6, [r4, #0]
   23b1c:	4628      	mov	r0, r5
   23b1e:	4631      	mov	r1, r6
   23b20:	4632      	mov	r2, r6
   23b22:	4633      	mov	r3, r6
   23b24:	df03      	svc	3
   23b26:	2101      	movs	r1, #1
   23b28:	4628      	mov	r0, r5
   23b2a:	4632      	mov	r2, r6
   23b2c:	4633      	mov	r3, r6
   23b2e:	df04      	svc	4
   23b30:	b01b      	add	sp, #108	@ 0x6c
   23b32:	bdf0      	pop	{r4, r5, r6, r7, pc}
   23b34:	0000247c 	.word	0x0000247c

00023b38 <_ZN18complex_no_dynamic3app17hec645b28f37a7949E>:
   23b38:	b5f0      	push	{r4, r5, r6, r7, lr}
   23b3a:	af03      	add	r7, sp, #12
   23b3c:	b09b      	sub	sp, #108	@ 0x6c
   23b3e:	4604      	mov	r4, r0
   23b40:	ad01      	add	r5, sp, #4
   23b42:	262e      	movs	r6, #46	@ 0x2e
   23b44:	4628      	mov	r0, r5
   23b46:	4632      	mov	r2, r6
   23b48:	f003 fa5f 	bl	2700a <__aeabi_memcpy>
   23b4c:	a80d      	add	r0, sp, #52	@ 0x34
   23b4e:	2138      	movs	r1, #56	@ 0x38
   23b50:	f003 f8ae 	bl	26cb0 <__aeabi_memclr4>
   23b54:	4822      	ldr	r0, [pc, #136]	@ (23be0 <_ZN18complex_no_dynamic3app17hec645b28f37a7949E+0xa8>)
   23b56:	2109      	movs	r1, #9
   23b58:	462a      	mov	r2, r5
   23b5a:	4633      	mov	r3, r6
   23b5c:	df04      	svc	4
   23b5e:	2802      	cmp	r0, #2
   23b60:	d00e      	beq.n	23b80 <_ZN18complex_no_dynamic3app17hec645b28f37a7949E+0x48>
   23b62:	481f      	ldr	r0, [pc, #124]	@ (23be0 <_ZN18complex_no_dynamic3app17hec645b28f37a7949E+0xa8>)
   23b64:	2109      	movs	r1, #9
   23b66:	aa0d      	add	r2, sp, #52	@ 0x34
   23b68:	2338      	movs	r3, #56	@ 0x38
   23b6a:	df03      	svc	3
   23b6c:	2802      	cmp	r0, #2
   23b6e:	d007      	beq.n	23b80 <_ZN18complex_no_dynamic3app17hec645b28f37a7949E+0x48>
   23b70:	481b      	ldr	r0, [pc, #108]	@ (23be0 <_ZN18complex_no_dynamic3app17hec645b28f37a7949E+0xa8>)
   23b72:	2109      	movs	r1, #9
   23b74:	2500      	movs	r5, #0
   23b76:	460a      	mov	r2, r1
   23b78:	462b      	mov	r3, r5
   23b7a:	df02      	svc	2
   23b7c:	287f      	cmp	r0, #127	@ 0x7f
   23b7e:	d811      	bhi.n	23ba4 <_ZN18complex_no_dynamic3app17hec645b28f37a7949E+0x6c>
   23b80:	2001      	movs	r0, #1
   23b82:	7020      	strb	r0, [r4, #0]
   23b84:	6061      	str	r1, [r4, #4]
   23b86:	4c16      	ldr	r4, [pc, #88]	@ (23be0 <_ZN18complex_no_dynamic3app17hec645b28f37a7949E+0xa8>)
   23b88:	2509      	movs	r5, #9
   23b8a:	2600      	movs	r6, #0
   23b8c:	4620      	mov	r0, r4
   23b8e:	4629      	mov	r1, r5
   23b90:	4632      	mov	r2, r6
   23b92:	4633      	mov	r3, r6
   23b94:	df03      	svc	3
   23b96:	4620      	mov	r0, r4
   23b98:	4629      	mov	r1, r5
   23b9a:	4632      	mov	r2, r6
   23b9c:	4633      	mov	r3, r6
   23b9e:	df04      	svc	4
   23ba0:	b01b      	add	sp, #108	@ 0x6c
   23ba2:	bdf0      	pop	{r4, r5, r6, r7, pc}
   23ba4:	480e      	ldr	r0, [pc, #56]	@ (23be0 <_ZN18complex_no_dynamic3app17hec645b28f37a7949E+0xa8>)
   23ba6:	2609      	movs	r6, #9
   23ba8:	4631      	mov	r1, r6
   23baa:	462a      	mov	r2, r5
   23bac:	462b      	mov	r3, r5
   23bae:	df03      	svc	3
   23bb0:	480b      	ldr	r0, [pc, #44]	@ (23be0 <_ZN18complex_no_dynamic3app17hec645b28f37a7949E+0xa8>)
   23bb2:	4631      	mov	r1, r6
   23bb4:	462a      	mov	r2, r5
   23bb6:	462b      	mov	r3, r5
   23bb8:	df03      	svc	3
   23bba:	1c60      	adds	r0, r4, #1
   23bbc:	a90d      	add	r1, sp, #52	@ 0x34
   23bbe:	2238      	movs	r2, #56	@ 0x38
   23bc0:	f003 fa23 	bl	2700a <__aeabi_memcpy>
   23bc4:	7025      	strb	r5, [r4, #0]
   23bc6:	4c06      	ldr	r4, [pc, #24]	@ (23be0 <_ZN18complex_no_dynamic3app17hec645b28f37a7949E+0xa8>)
   23bc8:	4620      	mov	r0, r4
   23bca:	4631      	mov	r1, r6
   23bcc:	462a      	mov	r2, r5
   23bce:	462b      	mov	r3, r5
   23bd0:	df03      	svc	3
   23bd2:	4620      	mov	r0, r4
   23bd4:	4631      	mov	r1, r6
   23bd6:	462a      	mov	r2, r5
   23bd8:	462b      	mov	r3, r5
   23bda:	df04      	svc	4
   23bdc:	b01b      	add	sp, #108	@ 0x6c
   23bde:	bdf0      	pop	{r4, r5, r6, r7, pc}
   23be0:	00000a9d 	.word	0x00000a9d

00023be4 <_ZN18complex_no_dynamic3app17hf19b1ef2bd7b2f15E>:
   23be4:	b5f0      	push	{r4, r5, r6, r7, lr}
   23be6:	af03      	add	r7, sp, #12
   23be8:	b095      	sub	sp, #84	@ 0x54
   23bea:	4604      	mov	r4, r0
   23bec:	ad01      	add	r5, sp, #4
   23bee:	2618      	movs	r6, #24
   23bf0:	4628      	mov	r0, r5
   23bf2:	4632      	mov	r2, r6
   23bf4:	f003 fa09 	bl	2700a <__aeabi_memcpy>
   23bf8:	a807      	add	r0, sp, #28
   23bfa:	2136      	movs	r1, #54	@ 0x36
   23bfc:	f003 f858 	bl	26cb0 <__aeabi_memclr4>
   23c00:	20f3      	movs	r0, #243	@ 0xf3
   23c02:	2108      	movs	r1, #8
   23c04:	462a      	mov	r2, r5
   23c06:	4633      	mov	r3, r6
   23c08:	df04      	svc	4
   23c0a:	2802      	cmp	r0, #2
   23c0c:	d00e      	beq.n	23c2c <_ZN18complex_no_dynamic3app17hf19b1ef2bd7b2f15E+0x48>
   23c0e:	20f3      	movs	r0, #243	@ 0xf3
   23c10:	2104      	movs	r1, #4
   23c12:	aa07      	add	r2, sp, #28
   23c14:	2336      	movs	r3, #54	@ 0x36
   23c16:	df03      	svc	3
   23c18:	2802      	cmp	r0, #2
   23c1a:	d007      	beq.n	23c2c <_ZN18complex_no_dynamic3app17hf19b1ef2bd7b2f15E+0x48>
   23c1c:	20f3      	movs	r0, #243	@ 0xf3
   23c1e:	2108      	movs	r1, #8
   23c20:	2204      	movs	r2, #4
   23c22:	2500      	movs	r5, #0
   23c24:	462b      	mov	r3, r5
   23c26:	df02      	svc	2
   23c28:	287f      	cmp	r0, #127	@ 0x7f
   23c2a:	d810      	bhi.n	23c4e <_ZN18complex_no_dynamic3app17hf19b1ef2bd7b2f15E+0x6a>
   23c2c:	2001      	movs	r0, #1
   23c2e:	7020      	strb	r0, [r4, #0]
   23c30:	6061      	str	r1, [r4, #4]
   23c32:	24f3      	movs	r4, #243	@ 0xf3
   23c34:	2104      	movs	r1, #4
   23c36:	2500      	movs	r5, #0
   23c38:	4620      	mov	r0, r4
   23c3a:	462a      	mov	r2, r5
   23c3c:	462b      	mov	r3, r5
   23c3e:	df03      	svc	3
   23c40:	2108      	movs	r1, #8
   23c42:	4620      	mov	r0, r4
   23c44:	462a      	mov	r2, r5
   23c46:	462b      	mov	r3, r5
   23c48:	df04      	svc	4
   23c4a:	b015      	add	sp, #84	@ 0x54
   23c4c:	bdf0      	pop	{r4, r5, r6, r7, pc}
   23c4e:	20f3      	movs	r0, #243	@ 0xf3
   23c50:	9000      	str	r0, [sp, #0]
   23c52:	2604      	movs	r6, #4
   23c54:	4631      	mov	r1, r6
   23c56:	462a      	mov	r2, r5
   23c58:	462b      	mov	r3, r5
   23c5a:	df03      	svc	3
   23c5c:	9800      	ldr	r0, [sp, #0]
   23c5e:	4631      	mov	r1, r6
   23c60:	462a      	mov	r2, r5
   23c62:	462b      	mov	r3, r5
   23c64:	df03      	svc	3
   23c66:	1c60      	adds	r0, r4, #1
   23c68:	a907      	add	r1, sp, #28
   23c6a:	2236      	movs	r2, #54	@ 0x36
   23c6c:	f003 f9cd 	bl	2700a <__aeabi_memcpy>
   23c70:	7025      	strb	r5, [r4, #0]
   23c72:	9c00      	ldr	r4, [sp, #0]
   23c74:	4620      	mov	r0, r4
   23c76:	4631      	mov	r1, r6
   23c78:	462a      	mov	r2, r5
   23c7a:	462b      	mov	r3, r5
   23c7c:	df03      	svc	3
   23c7e:	2108      	movs	r1, #8
   23c80:	4620      	mov	r0, r4
   23c82:	462a      	mov	r2, r5
   23c84:	462b      	mov	r3, r5
   23c86:	df04      	svc	4
   23c88:	b015      	add	sp, #84	@ 0x54
   23c8a:	bdf0      	pop	{r4, r5, r6, r7, pc}

00023c8c <_ZN18complex_no_dynamic3app17hf31cec0468ce4736E>:
   23c8c:	b5f0      	push	{r4, r5, r6, r7, lr}
   23c8e:	af03      	add	r7, sp, #12
   23c90:	b09d      	sub	sp, #116	@ 0x74
   23c92:	9001      	str	r0, [sp, #4]
   23c94:	ae02      	add	r6, sp, #8
   23c96:	2438      	movs	r4, #56	@ 0x38
   23c98:	4630      	mov	r0, r6
   23c9a:	4622      	mov	r2, r4
   23c9c:	f003 f9b5 	bl	2700a <__aeabi_memcpy>
   23ca0:	a810      	add	r0, sp, #64	@ 0x40
   23ca2:	2134      	movs	r1, #52	@ 0x34
   23ca4:	f003 f804 	bl	26cb0 <__aeabi_memclr4>
   23ca8:	2097      	movs	r0, #151	@ 0x97
   23caa:	0045      	lsls	r5, r0, #1
   23cac:	2108      	movs	r1, #8
   23cae:	4628      	mov	r0, r5
   23cb0:	4632      	mov	r2, r6
   23cb2:	4623      	mov	r3, r4
   23cb4:	df04      	svc	4
   23cb6:	2802      	cmp	r0, #2
   23cb8:	d00e      	beq.n	23cd8 <_ZN18complex_no_dynamic3app17hf31cec0468ce4736E+0x4c>
   23cba:	2103      	movs	r1, #3
   23cbc:	aa10      	add	r2, sp, #64	@ 0x40
   23cbe:	2334      	movs	r3, #52	@ 0x34
   23cc0:	4628      	mov	r0, r5
   23cc2:	df03      	svc	3
   23cc4:	2802      	cmp	r0, #2
   23cc6:	d007      	beq.n	23cd8 <_ZN18complex_no_dynamic3app17hf31cec0468ce4736E+0x4c>
   23cc8:	2108      	movs	r1, #8
   23cca:	2203      	movs	r2, #3
   23ccc:	2600      	movs	r6, #0
   23cce:	4628      	mov	r0, r5
   23cd0:	4633      	mov	r3, r6
   23cd2:	df02      	svc	2
   23cd4:	287f      	cmp	r0, #127	@ 0x7f
   23cd6:	d810      	bhi.n	23cfa <_ZN18complex_no_dynamic3app17hf31cec0468ce4736E+0x6e>
   23cd8:	2001      	movs	r0, #1
   23cda:	9a01      	ldr	r2, [sp, #4]
   23cdc:	7010      	strb	r0, [r2, #0]
   23cde:	6051      	str	r1, [r2, #4]
   23ce0:	2103      	movs	r1, #3
   23ce2:	2400      	movs	r4, #0
   23ce4:	4628      	mov	r0, r5
   23ce6:	4622      	mov	r2, r4
   23ce8:	4623      	mov	r3, r4
   23cea:	df03      	svc	3
   23cec:	2108      	movs	r1, #8
   23cee:	4628      	mov	r0, r5
   23cf0:	4622      	mov	r2, r4
   23cf2:	4623      	mov	r3, r4
   23cf4:	df04      	svc	4
   23cf6:	b01d      	add	sp, #116	@ 0x74
   23cf8:	bdf0      	pop	{r4, r5, r6, r7, pc}
   23cfa:	2403      	movs	r4, #3
   23cfc:	9400      	str	r4, [sp, #0]
   23cfe:	4628      	mov	r0, r5
   23d00:	4621      	mov	r1, r4
   23d02:	4632      	mov	r2, r6
   23d04:	4633      	mov	r3, r6
   23d06:	df03      	svc	3
   23d08:	4628      	mov	r0, r5
   23d0a:	4621      	mov	r1, r4
   23d0c:	4632      	mov	r2, r6
   23d0e:	4633      	mov	r3, r6
   23d10:	df03      	svc	3
   23d12:	9c01      	ldr	r4, [sp, #4]
   23d14:	1c60      	adds	r0, r4, #1
   23d16:	a910      	add	r1, sp, #64	@ 0x40
   23d18:	2234      	movs	r2, #52	@ 0x34
   23d1a:	f003 f976 	bl	2700a <__aeabi_memcpy>
   23d1e:	7026      	strb	r6, [r4, #0]
   23d20:	4628      	mov	r0, r5
   23d22:	9900      	ldr	r1, [sp, #0]
   23d24:	4632      	mov	r2, r6
   23d26:	4633      	mov	r3, r6
   23d28:	df03      	svc	3
   23d2a:	2108      	movs	r1, #8
   23d2c:	4628      	mov	r0, r5
   23d2e:	4632      	mov	r2, r6
   23d30:	4633      	mov	r3, r6
   23d32:	df04      	svc	4
   23d34:	b01d      	add	sp, #116	@ 0x74
   23d36:	bdf0      	pop	{r4, r5, r6, r7, pc}

00023d38 <_ZN18complex_no_dynamic3app17hf49252e33484aa7cE>:
   23d38:	b5f0      	push	{r4, r5, r6, r7, lr}
   23d3a:	af03      	add	r7, sp, #12
   23d3c:	b08f      	sub	sp, #60	@ 0x3c
   23d3e:	4604      	mov	r4, r0
   23d40:	466d      	mov	r5, sp
   23d42:	2627      	movs	r6, #39	@ 0x27
   23d44:	4628      	mov	r0, r5
   23d46:	4632      	mov	r2, r6
   23d48:	f003 f95f 	bl	2700a <__aeabi_memcpy>
   23d4c:	2000      	movs	r0, #0
   23d4e:	900e      	str	r0, [sp, #56]	@ 0x38
   23d50:	900d      	str	r0, [sp, #52]	@ 0x34
   23d52:	900c      	str	r0, [sp, #48]	@ 0x30
   23d54:	900b      	str	r0, [sp, #44]	@ 0x2c
   23d56:	900a      	str	r0, [sp, #40]	@ 0x28
   23d58:	4822      	ldr	r0, [pc, #136]	@ (23de4 <_ZN18complex_no_dynamic3app17hf49252e33484aa7cE+0xac>)
   23d5a:	2106      	movs	r1, #6
   23d5c:	462a      	mov	r2, r5
   23d5e:	4633      	mov	r3, r6
   23d60:	df04      	svc	4
   23d62:	2802      	cmp	r0, #2
   23d64:	d00e      	beq.n	23d84 <_ZN18complex_no_dynamic3app17hf49252e33484aa7cE+0x4c>
   23d66:	481f      	ldr	r0, [pc, #124]	@ (23de4 <_ZN18complex_no_dynamic3app17hf49252e33484aa7cE+0xac>)
   23d68:	2105      	movs	r1, #5
   23d6a:	aa0a      	add	r2, sp, #40	@ 0x28
   23d6c:	2314      	movs	r3, #20
   23d6e:	df03      	svc	3
   23d70:	2802      	cmp	r0, #2
   23d72:	d007      	beq.n	23d84 <_ZN18complex_no_dynamic3app17hf49252e33484aa7cE+0x4c>
   23d74:	481b      	ldr	r0, [pc, #108]	@ (23de4 <_ZN18complex_no_dynamic3app17hf49252e33484aa7cE+0xac>)
   23d76:	2106      	movs	r1, #6
   23d78:	2205      	movs	r2, #5
   23d7a:	2500      	movs	r5, #0
   23d7c:	462b      	mov	r3, r5
   23d7e:	df02      	svc	2
   23d80:	287f      	cmp	r0, #127	@ 0x7f
   23d82:	d810      	bhi.n	23da6 <_ZN18complex_no_dynamic3app17hf49252e33484aa7cE+0x6e>
   23d84:	2001      	movs	r0, #1
   23d86:	7020      	strb	r0, [r4, #0]
   23d88:	6061      	str	r1, [r4, #4]
   23d8a:	4c16      	ldr	r4, [pc, #88]	@ (23de4 <_ZN18complex_no_dynamic3app17hf49252e33484aa7cE+0xac>)
   23d8c:	2105      	movs	r1, #5
   23d8e:	2500      	movs	r5, #0
   23d90:	4620      	mov	r0, r4
   23d92:	462a      	mov	r2, r5
   23d94:	462b      	mov	r3, r5
   23d96:	df03      	svc	3
   23d98:	2106      	movs	r1, #6
   23d9a:	4620      	mov	r0, r4
   23d9c:	462a      	mov	r2, r5
   23d9e:	462b      	mov	r3, r5
   23da0:	df04      	svc	4
   23da2:	b00f      	add	sp, #60	@ 0x3c
   23da4:	bdf0      	pop	{r4, r5, r6, r7, pc}
   23da6:	480f      	ldr	r0, [pc, #60]	@ (23de4 <_ZN18complex_no_dynamic3app17hf49252e33484aa7cE+0xac>)
   23da8:	2605      	movs	r6, #5
   23daa:	4631      	mov	r1, r6
   23dac:	462a      	mov	r2, r5
   23dae:	462b      	mov	r3, r5
   23db0:	df03      	svc	3
   23db2:	480c      	ldr	r0, [pc, #48]	@ (23de4 <_ZN18complex_no_dynamic3app17hf49252e33484aa7cE+0xac>)
   23db4:	4631      	mov	r1, r6
   23db6:	462a      	mov	r2, r5
   23db8:	462b      	mov	r3, r5
   23dba:	df03      	svc	3
   23dbc:	1c60      	adds	r0, r4, #1
   23dbe:	a90a      	add	r1, sp, #40	@ 0x28
   23dc0:	2214      	movs	r2, #20
   23dc2:	f003 f922 	bl	2700a <__aeabi_memcpy>
   23dc6:	7025      	strb	r5, [r4, #0]
   23dc8:	4c06      	ldr	r4, [pc, #24]	@ (23de4 <_ZN18complex_no_dynamic3app17hf49252e33484aa7cE+0xac>)
   23dca:	4620      	mov	r0, r4
   23dcc:	4631      	mov	r1, r6
   23dce:	462a      	mov	r2, r5
   23dd0:	462b      	mov	r3, r5
   23dd2:	df03      	svc	3
   23dd4:	2106      	movs	r1, #6
   23dd6:	4620      	mov	r0, r4
   23dd8:	462a      	mov	r2, r5
   23dda:	462b      	mov	r3, r5
   23ddc:	df04      	svc	4
   23dde:	b00f      	add	sp, #60	@ 0x3c
   23de0:	bdf0      	pop	{r4, r5, r6, r7, pc}
   23de2:	46c0      	nop			@ (mov r8, r8)
   23de4:	000022c9 	.word	0x000022c9

00023de8 <_ZN18complex_no_dynamic3app17hf6b098e37aad75eaE>:
   23de8:	b5f0      	push	{r4, r5, r6, r7, lr}
   23dea:	af03      	add	r7, sp, #12
   23dec:	b0a9      	sub	sp, #164	@ 0xa4
   23dee:	4604      	mov	r4, r0
   23df0:	ad01      	add	r5, sp, #4
   23df2:	2646      	movs	r6, #70	@ 0x46
   23df4:	4628      	mov	r0, r5
   23df6:	4632      	mov	r2, r6
   23df8:	f003 f907 	bl	2700a <__aeabi_memcpy>
   23dfc:	a813      	add	r0, sp, #76	@ 0x4c
   23dfe:	2156      	movs	r1, #86	@ 0x56
   23e00:	f002 ff56 	bl	26cb0 <__aeabi_memclr4>
   23e04:	4822      	ldr	r0, [pc, #136]	@ (23e90 <_ZN18complex_no_dynamic3app17hf6b098e37aad75eaE+0xa8>)
   23e06:	2107      	movs	r1, #7
   23e08:	462a      	mov	r2, r5
   23e0a:	4633      	mov	r3, r6
   23e0c:	df04      	svc	4
   23e0e:	2802      	cmp	r0, #2
   23e10:	d00e      	beq.n	23e30 <_ZN18complex_no_dynamic3app17hf6b098e37aad75eaE+0x48>
   23e12:	481f      	ldr	r0, [pc, #124]	@ (23e90 <_ZN18complex_no_dynamic3app17hf6b098e37aad75eaE+0xa8>)
   23e14:	2103      	movs	r1, #3
   23e16:	aa13      	add	r2, sp, #76	@ 0x4c
   23e18:	2356      	movs	r3, #86	@ 0x56
   23e1a:	df03      	svc	3
   23e1c:	2802      	cmp	r0, #2
   23e1e:	d007      	beq.n	23e30 <_ZN18complex_no_dynamic3app17hf6b098e37aad75eaE+0x48>
   23e20:	481b      	ldr	r0, [pc, #108]	@ (23e90 <_ZN18complex_no_dynamic3app17hf6b098e37aad75eaE+0xa8>)
   23e22:	2107      	movs	r1, #7
   23e24:	2203      	movs	r2, #3
   23e26:	2500      	movs	r5, #0
   23e28:	462b      	mov	r3, r5
   23e2a:	df02      	svc	2
   23e2c:	287f      	cmp	r0, #127	@ 0x7f
   23e2e:	d810      	bhi.n	23e52 <_ZN18complex_no_dynamic3app17hf6b098e37aad75eaE+0x6a>
   23e30:	2001      	movs	r0, #1
   23e32:	7020      	strb	r0, [r4, #0]
   23e34:	6061      	str	r1, [r4, #4]
   23e36:	4c16      	ldr	r4, [pc, #88]	@ (23e90 <_ZN18complex_no_dynamic3app17hf6b098e37aad75eaE+0xa8>)
   23e38:	2103      	movs	r1, #3
   23e3a:	2500      	movs	r5, #0
   23e3c:	4620      	mov	r0, r4
   23e3e:	462a      	mov	r2, r5
   23e40:	462b      	mov	r3, r5
   23e42:	df03      	svc	3
   23e44:	2107      	movs	r1, #7
   23e46:	4620      	mov	r0, r4
   23e48:	462a      	mov	r2, r5
   23e4a:	462b      	mov	r3, r5
   23e4c:	df04      	svc	4
   23e4e:	b029      	add	sp, #164	@ 0xa4
   23e50:	bdf0      	pop	{r4, r5, r6, r7, pc}
   23e52:	480f      	ldr	r0, [pc, #60]	@ (23e90 <_ZN18complex_no_dynamic3app17hf6b098e37aad75eaE+0xa8>)
   23e54:	2603      	movs	r6, #3
   23e56:	4631      	mov	r1, r6
   23e58:	462a      	mov	r2, r5
   23e5a:	462b      	mov	r3, r5
   23e5c:	df03      	svc	3
   23e5e:	480c      	ldr	r0, [pc, #48]	@ (23e90 <_ZN18complex_no_dynamic3app17hf6b098e37aad75eaE+0xa8>)
   23e60:	4631      	mov	r1, r6
   23e62:	462a      	mov	r2, r5
   23e64:	462b      	mov	r3, r5
   23e66:	df03      	svc	3
   23e68:	1c60      	adds	r0, r4, #1
   23e6a:	a913      	add	r1, sp, #76	@ 0x4c
   23e6c:	2256      	movs	r2, #86	@ 0x56
   23e6e:	f003 f8cc 	bl	2700a <__aeabi_memcpy>
   23e72:	7025      	strb	r5, [r4, #0]
   23e74:	4c06      	ldr	r4, [pc, #24]	@ (23e90 <_ZN18complex_no_dynamic3app17hf6b098e37aad75eaE+0xa8>)
   23e76:	4620      	mov	r0, r4
   23e78:	4631      	mov	r1, r6
   23e7a:	462a      	mov	r2, r5
   23e7c:	462b      	mov	r3, r5
   23e7e:	df03      	svc	3
   23e80:	2107      	movs	r1, #7
   23e82:	4620      	mov	r0, r4
   23e84:	462a      	mov	r2, r5
   23e86:	462b      	mov	r3, r5
   23e88:	df04      	svc	4
   23e8a:	b029      	add	sp, #164	@ 0xa4
   23e8c:	bdf0      	pop	{r4, r5, r6, r7, pc}
   23e8e:	46c0      	nop			@ (mov r8, r8)
   23e90:	00001e50 	.word	0x00001e50

00023e94 <_ZN18complex_no_dynamic3app17hf6e21b18c6df989dE>:
   23e94:	b5f0      	push	{r4, r5, r6, r7, lr}
   23e96:	af03      	add	r7, sp, #12
   23e98:	b097      	sub	sp, #92	@ 0x5c
   23e9a:	9001      	str	r0, [sp, #4]
   23e9c:	ae02      	add	r6, sp, #8
   23e9e:	2411      	movs	r4, #17
   23ea0:	4630      	mov	r0, r6
   23ea2:	4622      	mov	r2, r4
   23ea4:	f003 f8b1 	bl	2700a <__aeabi_memcpy>
   23ea8:	a807      	add	r0, sp, #28
   23eaa:	213f      	movs	r1, #63	@ 0x3f
   23eac:	f002 ff00 	bl	26cb0 <__aeabi_memclr4>
   23eb0:	20cb      	movs	r0, #203	@ 0xcb
   23eb2:	0105      	lsls	r5, r0, #4
   23eb4:	2107      	movs	r1, #7
   23eb6:	4628      	mov	r0, r5
   23eb8:	4632      	mov	r2, r6
   23eba:	4623      	mov	r3, r4
   23ebc:	df04      	svc	4
   23ebe:	2802      	cmp	r0, #2
   23ec0:	d00e      	beq.n	23ee0 <_ZN18complex_no_dynamic3app17hf6e21b18c6df989dE+0x4c>
   23ec2:	2104      	movs	r1, #4
   23ec4:	aa07      	add	r2, sp, #28
   23ec6:	233f      	movs	r3, #63	@ 0x3f
   23ec8:	4628      	mov	r0, r5
   23eca:	df03      	svc	3
   23ecc:	2802      	cmp	r0, #2
   23ece:	d007      	beq.n	23ee0 <_ZN18complex_no_dynamic3app17hf6e21b18c6df989dE+0x4c>
   23ed0:	2107      	movs	r1, #7
   23ed2:	2204      	movs	r2, #4
   23ed4:	2600      	movs	r6, #0
   23ed6:	4628      	mov	r0, r5
   23ed8:	4633      	mov	r3, r6
   23eda:	df02      	svc	2
   23edc:	287f      	cmp	r0, #127	@ 0x7f
   23ede:	d810      	bhi.n	23f02 <_ZN18complex_no_dynamic3app17hf6e21b18c6df989dE+0x6e>
   23ee0:	2001      	movs	r0, #1
   23ee2:	9a01      	ldr	r2, [sp, #4]
   23ee4:	7010      	strb	r0, [r2, #0]
   23ee6:	6051      	str	r1, [r2, #4]
   23ee8:	2104      	movs	r1, #4
   23eea:	2400      	movs	r4, #0
   23eec:	4628      	mov	r0, r5
   23eee:	4622      	mov	r2, r4
   23ef0:	4623      	mov	r3, r4
   23ef2:	df03      	svc	3
   23ef4:	2107      	movs	r1, #7
   23ef6:	4628      	mov	r0, r5
   23ef8:	4622      	mov	r2, r4
   23efa:	4623      	mov	r3, r4
   23efc:	df04      	svc	4
   23efe:	b017      	add	sp, #92	@ 0x5c
   23f00:	bdf0      	pop	{r4, r5, r6, r7, pc}
   23f02:	2404      	movs	r4, #4
   23f04:	9400      	str	r4, [sp, #0]
   23f06:	4628      	mov	r0, r5
   23f08:	4621      	mov	r1, r4
   23f0a:	4632      	mov	r2, r6
   23f0c:	4633      	mov	r3, r6
   23f0e:	df03      	svc	3
   23f10:	4628      	mov	r0, r5
   23f12:	4621      	mov	r1, r4
   23f14:	4632      	mov	r2, r6
   23f16:	4633      	mov	r3, r6
   23f18:	df03      	svc	3
   23f1a:	9c01      	ldr	r4, [sp, #4]
   23f1c:	1c60      	adds	r0, r4, #1
   23f1e:	a907      	add	r1, sp, #28
   23f20:	223f      	movs	r2, #63	@ 0x3f
   23f22:	f003 f872 	bl	2700a <__aeabi_memcpy>
   23f26:	7026      	strb	r6, [r4, #0]
   23f28:	4628      	mov	r0, r5
   23f2a:	9900      	ldr	r1, [sp, #0]
   23f2c:	4632      	mov	r2, r6
   23f2e:	4633      	mov	r3, r6
   23f30:	df03      	svc	3
   23f32:	2107      	movs	r1, #7
   23f34:	4628      	mov	r0, r5
   23f36:	4632      	mov	r2, r6
   23f38:	4633      	mov	r3, r6
   23f3a:	df04      	svc	4
   23f3c:	b017      	add	sp, #92	@ 0x5c
   23f3e:	bdf0      	pop	{r4, r5, r6, r7, pc}

00023f40 <_ZN18complex_no_dynamic3app17hf7eaa1e7d4723389E>:
   23f40:	b5f0      	push	{r4, r5, r6, r7, lr}
   23f42:	af03      	add	r7, sp, #12
   23f44:	b0a9      	sub	sp, #164	@ 0xa4
   23f46:	4604      	mov	r4, r0
   23f48:	466d      	mov	r5, sp
   23f4a:	2651      	movs	r6, #81	@ 0x51
   23f4c:	4628      	mov	r0, r5
   23f4e:	4632      	mov	r2, r6
   23f50:	f003 f85b 	bl	2700a <__aeabi_memcpy>
   23f54:	a815      	add	r0, sp, #84	@ 0x54
   23f56:	214f      	movs	r1, #79	@ 0x4f
   23f58:	f002 feaa 	bl	26cb0 <__aeabi_memclr4>
   23f5c:	4822      	ldr	r0, [pc, #136]	@ (23fe8 <_ZN18complex_no_dynamic3app17hf7eaa1e7d4723389E+0xa8>)
   23f5e:	2104      	movs	r1, #4
   23f60:	462a      	mov	r2, r5
   23f62:	4633      	mov	r3, r6
   23f64:	df04      	svc	4
   23f66:	2802      	cmp	r0, #2
   23f68:	d00e      	beq.n	23f88 <_ZN18complex_no_dynamic3app17hf7eaa1e7d4723389E+0x48>
   23f6a:	481f      	ldr	r0, [pc, #124]	@ (23fe8 <_ZN18complex_no_dynamic3app17hf7eaa1e7d4723389E+0xa8>)
   23f6c:	2109      	movs	r1, #9
   23f6e:	aa15      	add	r2, sp, #84	@ 0x54
   23f70:	234f      	movs	r3, #79	@ 0x4f
   23f72:	df03      	svc	3
   23f74:	2802      	cmp	r0, #2
   23f76:	d007      	beq.n	23f88 <_ZN18complex_no_dynamic3app17hf7eaa1e7d4723389E+0x48>
   23f78:	481b      	ldr	r0, [pc, #108]	@ (23fe8 <_ZN18complex_no_dynamic3app17hf7eaa1e7d4723389E+0xa8>)
   23f7a:	2104      	movs	r1, #4
   23f7c:	2209      	movs	r2, #9
   23f7e:	2500      	movs	r5, #0
   23f80:	462b      	mov	r3, r5
   23f82:	df02      	svc	2
   23f84:	287f      	cmp	r0, #127	@ 0x7f
   23f86:	d810      	bhi.n	23faa <_ZN18complex_no_dynamic3app17hf7eaa1e7d4723389E+0x6a>
   23f88:	2001      	movs	r0, #1
   23f8a:	7020      	strb	r0, [r4, #0]
   23f8c:	6061      	str	r1, [r4, #4]
   23f8e:	4c16      	ldr	r4, [pc, #88]	@ (23fe8 <_ZN18complex_no_dynamic3app17hf7eaa1e7d4723389E+0xa8>)
   23f90:	2109      	movs	r1, #9
   23f92:	2500      	movs	r5, #0
   23f94:	4620      	mov	r0, r4
   23f96:	462a      	mov	r2, r5
   23f98:	462b      	mov	r3, r5
   23f9a:	df03      	svc	3
   23f9c:	2104      	movs	r1, #4
   23f9e:	4620      	mov	r0, r4
   23fa0:	462a      	mov	r2, r5
   23fa2:	462b      	mov	r3, r5
   23fa4:	df04      	svc	4
   23fa6:	b029      	add	sp, #164	@ 0xa4
   23fa8:	bdf0      	pop	{r4, r5, r6, r7, pc}
   23faa:	480f      	ldr	r0, [pc, #60]	@ (23fe8 <_ZN18complex_no_dynamic3app17hf7eaa1e7d4723389E+0xa8>)
   23fac:	2609      	movs	r6, #9
   23fae:	4631      	mov	r1, r6
   23fb0:	462a      	mov	r2, r5
   23fb2:	462b      	mov	r3, r5
   23fb4:	df03      	svc	3
   23fb6:	480c      	ldr	r0, [pc, #48]	@ (23fe8 <_ZN18complex_no_dynamic3app17hf7eaa1e7d4723389E+0xa8>)
   23fb8:	4631      	mov	r1, r6
   23fba:	462a      	mov	r2, r5
   23fbc:	462b      	mov	r3, r5
   23fbe:	df03      	svc	3
   23fc0:	1c60      	adds	r0, r4, #1
   23fc2:	a915      	add	r1, sp, #84	@ 0x54
   23fc4:	224f      	movs	r2, #79	@ 0x4f
   23fc6:	f003 f820 	bl	2700a <__aeabi_memcpy>
   23fca:	7025      	strb	r5, [r4, #0]
   23fcc:	4c06      	ldr	r4, [pc, #24]	@ (23fe8 <_ZN18complex_no_dynamic3app17hf7eaa1e7d4723389E+0xa8>)
   23fce:	4620      	mov	r0, r4
   23fd0:	4631      	mov	r1, r6
   23fd2:	462a      	mov	r2, r5
   23fd4:	462b      	mov	r3, r5
   23fd6:	df03      	svc	3
   23fd8:	2104      	movs	r1, #4
   23fda:	4620      	mov	r0, r4
   23fdc:	462a      	mov	r2, r5
   23fde:	462b      	mov	r3, r5
   23fe0:	df04      	svc	4
   23fe2:	b029      	add	sp, #164	@ 0xa4
   23fe4:	bdf0      	pop	{r4, r5, r6, r7, pc}
   23fe6:	46c0      	nop			@ (mov r8, r8)
   23fe8:	000020ee 	.word	0x000020ee

00023fec <_ZN18complex_no_dynamic3app17hf863fb3c44a4dad1E>:
   23fec:	b5f0      	push	{r4, r5, r6, r7, lr}
   23fee:	af03      	add	r7, sp, #12
   23ff0:	b09f      	sub	sp, #124	@ 0x7c
   23ff2:	4604      	mov	r4, r0
   23ff4:	ad01      	add	r5, sp, #4
   23ff6:	2632      	movs	r6, #50	@ 0x32
   23ff8:	4628      	mov	r0, r5
   23ffa:	4632      	mov	r2, r6
   23ffc:	f003 f805 	bl	2700a <__aeabi_memcpy>
   24000:	a80e      	add	r0, sp, #56	@ 0x38
   24002:	2141      	movs	r1, #65	@ 0x41
   24004:	f002 fe54 	bl	26cb0 <__aeabi_memclr4>
   24008:	4822      	ldr	r0, [pc, #136]	@ (24094 <_ZN18complex_no_dynamic3app17hf863fb3c44a4dad1E+0xa8>)
   2400a:	2107      	movs	r1, #7
   2400c:	462a      	mov	r2, r5
   2400e:	4633      	mov	r3, r6
   24010:	df04      	svc	4
   24012:	2802      	cmp	r0, #2
   24014:	d00e      	beq.n	24034 <_ZN18complex_no_dynamic3app17hf863fb3c44a4dad1E+0x48>
   24016:	481f      	ldr	r0, [pc, #124]	@ (24094 <_ZN18complex_no_dynamic3app17hf863fb3c44a4dad1E+0xa8>)
   24018:	2105      	movs	r1, #5
   2401a:	aa0e      	add	r2, sp, #56	@ 0x38
   2401c:	2341      	movs	r3, #65	@ 0x41
   2401e:	df03      	svc	3
   24020:	2802      	cmp	r0, #2
   24022:	d007      	beq.n	24034 <_ZN18complex_no_dynamic3app17hf863fb3c44a4dad1E+0x48>
   24024:	481b      	ldr	r0, [pc, #108]	@ (24094 <_ZN18complex_no_dynamic3app17hf863fb3c44a4dad1E+0xa8>)
   24026:	2107      	movs	r1, #7
   24028:	2205      	movs	r2, #5
   2402a:	2500      	movs	r5, #0
   2402c:	462b      	mov	r3, r5
   2402e:	df02      	svc	2
   24030:	287f      	cmp	r0, #127	@ 0x7f
   24032:	d810      	bhi.n	24056 <_ZN18complex_no_dynamic3app17hf863fb3c44a4dad1E+0x6a>
   24034:	2001      	movs	r0, #1
   24036:	7020      	strb	r0, [r4, #0]
   24038:	6061      	str	r1, [r4, #4]
   2403a:	4c16      	ldr	r4, [pc, #88]	@ (24094 <_ZN18complex_no_dynamic3app17hf863fb3c44a4dad1E+0xa8>)
   2403c:	2105      	movs	r1, #5
   2403e:	2500      	movs	r5, #0
   24040:	4620      	mov	r0, r4
   24042:	462a      	mov	r2, r5
   24044:	462b      	mov	r3, r5
   24046:	df03      	svc	3
   24048:	2107      	movs	r1, #7
   2404a:	4620      	mov	r0, r4
   2404c:	462a      	mov	r2, r5
   2404e:	462b      	mov	r3, r5
   24050:	df04      	svc	4
   24052:	b01f      	add	sp, #124	@ 0x7c
   24054:	bdf0      	pop	{r4, r5, r6, r7, pc}
   24056:	480f      	ldr	r0, [pc, #60]	@ (24094 <_ZN18complex_no_dynamic3app17hf863fb3c44a4dad1E+0xa8>)
   24058:	2605      	movs	r6, #5
   2405a:	4631      	mov	r1, r6
   2405c:	462a      	mov	r2, r5
   2405e:	462b      	mov	r3, r5
   24060:	df03      	svc	3
   24062:	480c      	ldr	r0, [pc, #48]	@ (24094 <_ZN18complex_no_dynamic3app17hf863fb3c44a4dad1E+0xa8>)
   24064:	4631      	mov	r1, r6
   24066:	462a      	mov	r2, r5
   24068:	462b      	mov	r3, r5
   2406a:	df03      	svc	3
   2406c:	1c60      	adds	r0, r4, #1
   2406e:	a90e      	add	r1, sp, #56	@ 0x38
   24070:	2241      	movs	r2, #65	@ 0x41
   24072:	f002 ffca 	bl	2700a <__aeabi_memcpy>
   24076:	7025      	strb	r5, [r4, #0]
   24078:	4c06      	ldr	r4, [pc, #24]	@ (24094 <_ZN18complex_no_dynamic3app17hf863fb3c44a4dad1E+0xa8>)
   2407a:	4620      	mov	r0, r4
   2407c:	4631      	mov	r1, r6
   2407e:	462a      	mov	r2, r5
   24080:	462b      	mov	r3, r5
   24082:	df03      	svc	3
   24084:	2107      	movs	r1, #7
   24086:	4620      	mov	r0, r4
   24088:	462a      	mov	r2, r5
   2408a:	462b      	mov	r3, r5
   2408c:	df04      	svc	4
   2408e:	b01f      	add	sp, #124	@ 0x7c
   24090:	bdf0      	pop	{r4, r5, r6, r7, pc}
   24092:	46c0      	nop			@ (mov r8, r8)
   24094:	0000091d 	.word	0x0000091d

00024098 <_ZN18complex_no_dynamic3app17hfb590aa33578e15dE>:
   24098:	b5f0      	push	{r4, r5, r6, r7, lr}
   2409a:	af03      	add	r7, sp, #12
   2409c:	b0a9      	sub	sp, #164	@ 0xa4
   2409e:	4604      	mov	r4, r0
   240a0:	466d      	mov	r5, sp
   240a2:	2656      	movs	r6, #86	@ 0x56
   240a4:	4628      	mov	r0, r5
   240a6:	4632      	mov	r2, r6
   240a8:	f002 ffaf 	bl	2700a <__aeabi_memcpy>
   240ac:	a816      	add	r0, sp, #88	@ 0x58
   240ae:	2149      	movs	r1, #73	@ 0x49
   240b0:	f002 fdfe 	bl	26cb0 <__aeabi_memclr4>
   240b4:	4822      	ldr	r0, [pc, #136]	@ (24140 <_ZN18complex_no_dynamic3app17hfb590aa33578e15dE+0xa8>)
   240b6:	2106      	movs	r1, #6
   240b8:	462a      	mov	r2, r5
   240ba:	4633      	mov	r3, r6
   240bc:	df04      	svc	4
   240be:	2802      	cmp	r0, #2
   240c0:	d00e      	beq.n	240e0 <_ZN18complex_no_dynamic3app17hfb590aa33578e15dE+0x48>
   240c2:	481f      	ldr	r0, [pc, #124]	@ (24140 <_ZN18complex_no_dynamic3app17hfb590aa33578e15dE+0xa8>)
   240c4:	2106      	movs	r1, #6
   240c6:	aa16      	add	r2, sp, #88	@ 0x58
   240c8:	2349      	movs	r3, #73	@ 0x49
   240ca:	df03      	svc	3
   240cc:	2802      	cmp	r0, #2
   240ce:	d007      	beq.n	240e0 <_ZN18complex_no_dynamic3app17hfb590aa33578e15dE+0x48>
   240d0:	481b      	ldr	r0, [pc, #108]	@ (24140 <_ZN18complex_no_dynamic3app17hfb590aa33578e15dE+0xa8>)
   240d2:	2106      	movs	r1, #6
   240d4:	2500      	movs	r5, #0
   240d6:	460a      	mov	r2, r1
   240d8:	462b      	mov	r3, r5
   240da:	df02      	svc	2
   240dc:	287f      	cmp	r0, #127	@ 0x7f
   240de:	d811      	bhi.n	24104 <_ZN18complex_no_dynamic3app17hfb590aa33578e15dE+0x6c>
   240e0:	2001      	movs	r0, #1
   240e2:	7020      	strb	r0, [r4, #0]
   240e4:	6061      	str	r1, [r4, #4]
   240e6:	4c16      	ldr	r4, [pc, #88]	@ (24140 <_ZN18complex_no_dynamic3app17hfb590aa33578e15dE+0xa8>)
   240e8:	2506      	movs	r5, #6
   240ea:	2600      	movs	r6, #0
   240ec:	4620      	mov	r0, r4
   240ee:	4629      	mov	r1, r5
   240f0:	4632      	mov	r2, r6
   240f2:	4633      	mov	r3, r6
   240f4:	df03      	svc	3
   240f6:	4620      	mov	r0, r4
   240f8:	4629      	mov	r1, r5
   240fa:	4632      	mov	r2, r6
   240fc:	4633      	mov	r3, r6
   240fe:	df04      	svc	4
   24100:	b029      	add	sp, #164	@ 0xa4
   24102:	bdf0      	pop	{r4, r5, r6, r7, pc}
   24104:	480e      	ldr	r0, [pc, #56]	@ (24140 <_ZN18complex_no_dynamic3app17hfb590aa33578e15dE+0xa8>)
   24106:	2606      	movs	r6, #6
   24108:	4631      	mov	r1, r6
   2410a:	462a      	mov	r2, r5
   2410c:	462b      	mov	r3, r5
   2410e:	df03      	svc	3
   24110:	480b      	ldr	r0, [pc, #44]	@ (24140 <_ZN18complex_no_dynamic3app17hfb590aa33578e15dE+0xa8>)
   24112:	4631      	mov	r1, r6
   24114:	462a      	mov	r2, r5
   24116:	462b      	mov	r3, r5
   24118:	df03      	svc	3
   2411a:	1c60      	adds	r0, r4, #1
   2411c:	a916      	add	r1, sp, #88	@ 0x58
   2411e:	2249      	movs	r2, #73	@ 0x49
   24120:	f002 ff73 	bl	2700a <__aeabi_memcpy>
   24124:	7025      	strb	r5, [r4, #0]
   24126:	4c06      	ldr	r4, [pc, #24]	@ (24140 <_ZN18complex_no_dynamic3app17hfb590aa33578e15dE+0xa8>)
   24128:	4620      	mov	r0, r4
   2412a:	4631      	mov	r1, r6
   2412c:	462a      	mov	r2, r5
   2412e:	462b      	mov	r3, r5
   24130:	df03      	svc	3
   24132:	4620      	mov	r0, r4
   24134:	4631      	mov	r1, r6
   24136:	462a      	mov	r2, r5
   24138:	462b      	mov	r3, r5
   2413a:	df04      	svc	4
   2413c:	b029      	add	sp, #164	@ 0xa4
   2413e:	bdf0      	pop	{r4, r5, r6, r7, pc}
   24140:	00001c6b 	.word	0x00001c6b

00024144 <_start>:
   24144:	b5f0      	push	{r4, r5, r6, r7, lr}
   24146:	af03      	add	r7, sp, #12
   24148:	4ec2      	ldr	r6, [pc, #776]	@ (24454 <_start+0x310>)
   2414a:	44b5      	add	sp, r6
   2414c:	4ec2      	ldr	r6, [pc, #776]	@ (24458 <_start+0x314>)
   2414e:	446e      	add	r6, sp
   24150:	ac0e      	add	r4, sp, #56	@ 0x38
   24152:	2528      	movs	r5, #40	@ 0x28
   24154:	4620      	mov	r0, r4
   24156:	4629      	mov	r1, r5
   24158:	f002 fdaa 	bl	26cb0 <__aeabi_memclr4>
   2415c:	48bf      	ldr	r0, [pc, #764]	@ (2445c <_start+0x318>)
   2415e:	4468      	add	r0, sp
   24160:	2151      	movs	r1, #81	@ 0x51
   24162:	f002 fda5 	bl	26cb0 <__aeabi_memclr4>
   24166:	48be      	ldr	r0, [pc, #760]	@ (24460 <_start+0x31c>)
   24168:	2109      	movs	r1, #9
   2416a:	4622      	mov	r2, r4
   2416c:	462b      	mov	r3, r5
   2416e:	df04      	svc	4
   24170:	aa3d      	add	r2, sp, #244	@ 0xf4
   24172:	adff      	add	r5, sp, #1020	@ 0x3fc
   24174:	35d4      	adds	r5, #212	@ 0xd4
   24176:	4cbb      	ldr	r4, [pc, #748]	@ (24464 <_start+0x320>)
   24178:	446c      	add	r4, sp
   2417a:	2802      	cmp	r0, #2
   2417c:	d00f      	beq.n	2419e <_start+0x5a>
   2417e:	920b      	str	r2, [sp, #44]	@ 0x2c
   24180:	48b7      	ldr	r0, [pc, #732]	@ (24460 <_start+0x31c>)
   24182:	2109      	movs	r1, #9
   24184:	4ab5      	ldr	r2, [pc, #724]	@ (2445c <_start+0x318>)
   24186:	446a      	add	r2, sp
   24188:	2351      	movs	r3, #81	@ 0x51
   2418a:	df03      	svc	3
   2418c:	2802      	cmp	r0, #2
   2418e:	d006      	beq.n	2419e <_start+0x5a>
   24190:	48b3      	ldr	r0, [pc, #716]	@ (24460 <_start+0x31c>)
   24192:	2109      	movs	r1, #9
   24194:	2300      	movs	r3, #0
   24196:	460a      	mov	r2, r1
   24198:	df02      	svc	2
   2419a:	287f      	cmp	r0, #127	@ 0x7f
   2419c:	d813      	bhi.n	241c6 <_start+0x82>
   2419e:	910c      	str	r1, [sp, #48]	@ 0x30
   241a0:	4daf      	ldr	r5, [pc, #700]	@ (24460 <_start+0x31c>)
   241a2:	2609      	movs	r6, #9
   241a4:	2400      	movs	r4, #0
   241a6:	4628      	mov	r0, r5
   241a8:	4631      	mov	r1, r6
   241aa:	4622      	mov	r2, r4
   241ac:	4623      	mov	r3, r4
   241ae:	df03      	svc	3
   241b0:	4628      	mov	r0, r5
   241b2:	4631      	mov	r1, r6
   241b4:	4622      	mov	r2, r4
   241b6:	4623      	mov	r3, r4
   241b8:	df04      	svc	4
   241ba:	2001      	movs	r0, #1
   241bc:	990c      	ldr	r1, [sp, #48]	@ 0x30
   241be:	1ffe      	subs	r6, r7, #7
   241c0:	3e05      	subs	r6, #5
   241c2:	46b5      	mov	sp, r6
   241c4:	bdf0      	pop	{r4, r5, r6, r7, pc}
   241c6:	9503      	str	r5, [sp, #12]
   241c8:	9404      	str	r4, [sp, #16]
   241ca:	48a5      	ldr	r0, [pc, #660]	@ (24460 <_start+0x31c>)
   241cc:	4635      	mov	r5, r6
   241ce:	2609      	movs	r6, #9
   241d0:	2400      	movs	r4, #0
   241d2:	4631      	mov	r1, r6
   241d4:	4622      	mov	r2, r4
   241d6:	4623      	mov	r3, r4
   241d8:	df03      	svc	3
   241da:	48a1      	ldr	r0, [pc, #644]	@ (24460 <_start+0x31c>)
   241dc:	4631      	mov	r1, r6
   241de:	4622      	mov	r2, r4
   241e0:	4623      	mov	r3, r4
   241e2:	df03      	svc	3
   241e4:	aa0d      	add	r2, sp, #52	@ 0x34
   241e6:	920c      	str	r2, [sp, #48]	@ 0x30
   241e8:	9505      	str	r5, [sp, #20]
   241ea:	6de8      	ldr	r0, [r5, #92]	@ 0x5c
   241ec:	8010      	strh	r0, [r2, #0]
   241ee:	489b      	ldr	r0, [pc, #620]	@ (2445c <_start+0x318>)
   241f0:	4468      	add	r0, sp
   241f2:	7881      	ldrb	r1, [r0, #2]
   241f4:	7091      	strb	r1, [r2, #2]
   241f6:	78c1      	ldrb	r1, [r0, #3]
   241f8:	910a      	str	r1, [sp, #40]	@ 0x28
   241fa:	7901      	ldrb	r1, [r0, #4]
   241fc:	9109      	str	r1, [sp, #36]	@ 0x24
   241fe:	7941      	ldrb	r1, [r0, #5]
   24200:	9108      	str	r1, [sp, #32]
   24202:	7981      	ldrb	r1, [r0, #6]
   24204:	9107      	str	r1, [sp, #28]
   24206:	1dc1      	adds	r1, r0, #7
   24208:	4d93      	ldr	r5, [pc, #588]	@ (24458 <_start+0x314>)
   2420a:	446d      	add	r5, sp
   2420c:	224a      	movs	r2, #74	@ 0x4a
   2420e:	9206      	str	r2, [sp, #24]
   24210:	4628      	mov	r0, r5
   24212:	f002 fefa 	bl	2700a <__aeabi_memcpy>
   24216:	4892      	ldr	r0, [pc, #584]	@ (24460 <_start+0x31c>)
   24218:	4631      	mov	r1, r6
   2421a:	4622      	mov	r2, r4
   2421c:	4623      	mov	r3, r4
   2421e:	df03      	svc	3
   24220:	488f      	ldr	r0, [pc, #572]	@ (24460 <_start+0x31c>)
   24222:	4631      	mov	r1, r6
   24224:	4622      	mov	r2, r4
   24226:	4623      	mov	r3, r4
   24228:	df04      	svc	4
   2422a:	4c8c      	ldr	r4, [pc, #560]	@ (2445c <_start+0x318>)
   2422c:	446c      	add	r4, sp
   2422e:	1de0      	adds	r0, r4, #7
   24230:	4629      	mov	r1, r5
   24232:	9a06      	ldr	r2, [sp, #24]
   24234:	f002 fee9 	bl	2700a <__aeabi_memcpy>
   24238:	9807      	ldr	r0, [sp, #28]
   2423a:	71a0      	strb	r0, [r4, #6]
   2423c:	9808      	ldr	r0, [sp, #32]
   2423e:	7160      	strb	r0, [r4, #5]
   24240:	9809      	ldr	r0, [sp, #36]	@ 0x24
   24242:	7120      	strb	r0, [r4, #4]
   24244:	980a      	ldr	r0, [sp, #40]	@ 0x28
   24246:	70e0      	strb	r0, [r4, #3]
   24248:	980d      	ldr	r0, [sp, #52]	@ 0x34
   2424a:	8020      	strh	r0, [r4, #0]
   2424c:	980c      	ldr	r0, [sp, #48]	@ 0x30
   2424e:	7880      	ldrb	r0, [r0, #2]
   24250:	70a0      	strb	r0, [r4, #2]
   24252:	4881      	ldr	r0, [pc, #516]	@ (24458 <_start+0x314>)
   24254:	4468      	add	r0, sp
   24256:	2146      	movs	r1, #70	@ 0x46
   24258:	f002 fd2a 	bl	26cb0 <__aeabi_memclr4>
   2425c:	4882      	ldr	r0, [pc, #520]	@ (24468 <_start+0x324>)
   2425e:	2107      	movs	r1, #7
   24260:	2351      	movs	r3, #81	@ 0x51
   24262:	4622      	mov	r2, r4
   24264:	df04      	svc	4
   24266:	2802      	cmp	r0, #2
   24268:	d00f      	beq.n	2428a <_start+0x146>
   2426a:	487f      	ldr	r0, [pc, #508]	@ (24468 <_start+0x324>)
   2426c:	2100      	movs	r1, #0
   2426e:	4a7a      	ldr	r2, [pc, #488]	@ (24458 <_start+0x314>)
   24270:	446a      	add	r2, sp
   24272:	2346      	movs	r3, #70	@ 0x46
   24274:	df03      	svc	3
   24276:	2802      	cmp	r0, #2
   24278:	d007      	beq.n	2428a <_start+0x146>
   2427a:	487b      	ldr	r0, [pc, #492]	@ (24468 <_start+0x324>)
   2427c:	2107      	movs	r1, #7
   2427e:	2400      	movs	r4, #0
   24280:	4622      	mov	r2, r4
   24282:	4623      	mov	r3, r4
   24284:	df02      	svc	2
   24286:	287f      	cmp	r0, #127	@ 0x7f
   24288:	d80d      	bhi.n	242a6 <_start+0x162>
   2428a:	910c      	str	r1, [sp, #48]	@ 0x30
   2428c:	4c76      	ldr	r4, [pc, #472]	@ (24468 <_start+0x324>)
   2428e:	2500      	movs	r5, #0
   24290:	4620      	mov	r0, r4
   24292:	4629      	mov	r1, r5
   24294:	462a      	mov	r2, r5
   24296:	462b      	mov	r3, r5
   24298:	df03      	svc	3
   2429a:	2107      	movs	r1, #7
   2429c:	4620      	mov	r0, r4
   2429e:	462a      	mov	r2, r5
   242a0:	462b      	mov	r3, r5
   242a2:	df04      	svc	4
   242a4:	e789      	b.n	241ba <_start+0x76>
   242a6:	4d70      	ldr	r5, [pc, #448]	@ (24468 <_start+0x324>)
   242a8:	4628      	mov	r0, r5
   242aa:	4621      	mov	r1, r4
   242ac:	4622      	mov	r2, r4
   242ae:	4623      	mov	r3, r4
   242b0:	df03      	svc	3
   242b2:	4628      	mov	r0, r5
   242b4:	4621      	mov	r1, r4
   242b6:	4622      	mov	r2, r4
   242b8:	4623      	mov	r3, r4
   242ba:	df03      	svc	3
   242bc:	aa1e      	add	r2, sp, #120	@ 0x78
   242be:	920c      	str	r2, [sp, #48]	@ 0x30
   242c0:	9805      	ldr	r0, [sp, #20]
   242c2:	6800      	ldr	r0, [r0, #0]
   242c4:	8010      	strh	r0, [r2, #0]
   242c6:	4864      	ldr	r0, [pc, #400]	@ (24458 <_start+0x314>)
   242c8:	4468      	add	r0, sp
   242ca:	7881      	ldrb	r1, [r0, #2]
   242cc:	7091      	strb	r1, [r2, #2]
   242ce:	78c1      	ldrb	r1, [r0, #3]
   242d0:	910a      	str	r1, [sp, #40]	@ 0x28
   242d2:	7901      	ldrb	r1, [r0, #4]
   242d4:	9109      	str	r1, [sp, #36]	@ 0x24
   242d6:	7941      	ldrb	r1, [r0, #5]
   242d8:	9108      	str	r1, [sp, #32]
   242da:	7981      	ldrb	r1, [r0, #6]
   242dc:	9107      	str	r1, [sp, #28]
   242de:	1dc1      	adds	r1, r0, #7
   242e0:	ae0e      	add	r6, sp, #56	@ 0x38
   242e2:	223f      	movs	r2, #63	@ 0x3f
   242e4:	9206      	str	r2, [sp, #24]
   242e6:	4630      	mov	r0, r6
   242e8:	f002 fe8f 	bl	2700a <__aeabi_memcpy>
   242ec:	4628      	mov	r0, r5
   242ee:	4621      	mov	r1, r4
   242f0:	4622      	mov	r2, r4
   242f2:	4623      	mov	r3, r4
   242f4:	df03      	svc	3
   242f6:	2107      	movs	r1, #7
   242f8:	4628      	mov	r0, r5
   242fa:	4622      	mov	r2, r4
   242fc:	4623      	mov	r3, r4
   242fe:	df04      	svc	4
   24300:	4d56      	ldr	r5, [pc, #344]	@ (2445c <_start+0x318>)
   24302:	446d      	add	r5, sp
   24304:	1de8      	adds	r0, r5, #7
   24306:	4631      	mov	r1, r6
   24308:	9e05      	ldr	r6, [sp, #20]
   2430a:	9a06      	ldr	r2, [sp, #24]
   2430c:	f002 fe7d 	bl	2700a <__aeabi_memcpy>
   24310:	9807      	ldr	r0, [sp, #28]
   24312:	71a8      	strb	r0, [r5, #6]
   24314:	9808      	ldr	r0, [sp, #32]
   24316:	7168      	strb	r0, [r5, #5]
   24318:	9809      	ldr	r0, [sp, #36]	@ 0x24
   2431a:	7128      	strb	r0, [r5, #4]
   2431c:	980a      	ldr	r0, [sp, #40]	@ 0x28
   2431e:	70e8      	strb	r0, [r5, #3]
   24320:	981e      	ldr	r0, [sp, #120]	@ 0x78
   24322:	8028      	strh	r0, [r5, #0]
   24324:	980c      	ldr	r0, [sp, #48]	@ 0x30
   24326:	7880      	ldrb	r0, [r0, #2]
   24328:	70a8      	strb	r0, [r5, #2]
   2432a:	6034      	str	r4, [r6, #0]
   2432c:	6074      	str	r4, [r6, #4]
   2432e:	60b4      	str	r4, [r6, #8]
   24330:	60f4      	str	r4, [r6, #12]
   24332:	6134      	str	r4, [r6, #16]
   24334:	6174      	str	r4, [r6, #20]
   24336:	484d      	ldr	r0, [pc, #308]	@ (2446c <_start+0x328>)
   24338:	2103      	movs	r1, #3
   2433a:	2346      	movs	r3, #70	@ 0x46
   2433c:	462a      	mov	r2, r5
   2433e:	df04      	svc	4
   24340:	2802      	cmp	r0, #2
   24342:	d00e      	beq.n	24362 <_start+0x21e>
   24344:	4849      	ldr	r0, [pc, #292]	@ (2446c <_start+0x328>)
   24346:	2102      	movs	r1, #2
   24348:	4a43      	ldr	r2, [pc, #268]	@ (24458 <_start+0x314>)
   2434a:	446a      	add	r2, sp
   2434c:	2318      	movs	r3, #24
   2434e:	df03      	svc	3
   24350:	2802      	cmp	r0, #2
   24352:	d006      	beq.n	24362 <_start+0x21e>
   24354:	4845      	ldr	r0, [pc, #276]	@ (2446c <_start+0x328>)
   24356:	2103      	movs	r1, #3
   24358:	2202      	movs	r2, #2
   2435a:	2300      	movs	r3, #0
   2435c:	df02      	svc	2
   2435e:	287f      	cmp	r0, #127	@ 0x7f
   24360:	d80d      	bhi.n	2437e <_start+0x23a>
   24362:	910c      	str	r1, [sp, #48]	@ 0x30
   24364:	4c41      	ldr	r4, [pc, #260]	@ (2446c <_start+0x328>)
   24366:	2102      	movs	r1, #2
   24368:	2500      	movs	r5, #0
   2436a:	4620      	mov	r0, r4
   2436c:	462a      	mov	r2, r5
   2436e:	462b      	mov	r3, r5
   24370:	df03      	svc	3
   24372:	2103      	movs	r1, #3
   24374:	4620      	mov	r0, r4
   24376:	462a      	mov	r2, r5
   24378:	462b      	mov	r3, r5
   2437a:	df04      	svc	4
   2437c:	e71d      	b.n	241ba <_start+0x76>
   2437e:	483b      	ldr	r0, [pc, #236]	@ (2446c <_start+0x328>)
   24380:	4635      	mov	r5, r6
   24382:	2602      	movs	r6, #2
   24384:	2400      	movs	r4, #0
   24386:	4631      	mov	r1, r6
   24388:	4622      	mov	r2, r4
   2438a:	4623      	mov	r3, r4
   2438c:	df03      	svc	3
   2438e:	4837      	ldr	r0, [pc, #220]	@ (2446c <_start+0x328>)
   24390:	4631      	mov	r1, r6
   24392:	4622      	mov	r2, r4
   24394:	4623      	mov	r3, r4
   24396:	df03      	svc	3
   24398:	aa24      	add	r2, sp, #144	@ 0x90
   2439a:	920c      	str	r2, [sp, #48]	@ 0x30
   2439c:	6828      	ldr	r0, [r5, #0]
   2439e:	8010      	strh	r0, [r2, #0]
   243a0:	482d      	ldr	r0, [pc, #180]	@ (24458 <_start+0x314>)
   243a2:	4468      	add	r0, sp
   243a4:	7881      	ldrb	r1, [r0, #2]
   243a6:	7091      	strb	r1, [r2, #2]
   243a8:	78c1      	ldrb	r1, [r0, #3]
   243aa:	910a      	str	r1, [sp, #40]	@ 0x28
   243ac:	7901      	ldrb	r1, [r0, #4]
   243ae:	9109      	str	r1, [sp, #36]	@ 0x24
   243b0:	7941      	ldrb	r1, [r0, #5]
   243b2:	9108      	str	r1, [sp, #32]
   243b4:	7981      	ldrb	r1, [r0, #6]
   243b6:	9107      	str	r1, [sp, #28]
   243b8:	1dc1      	adds	r1, r0, #7
   243ba:	a81f      	add	r0, sp, #124	@ 0x7c
   243bc:	9006      	str	r0, [sp, #24]
   243be:	2211      	movs	r2, #17
   243c0:	9202      	str	r2, [sp, #8]
   243c2:	f002 fe22 	bl	2700a <__aeabi_memcpy>
   243c6:	4d29      	ldr	r5, [pc, #164]	@ (2446c <_start+0x328>)
   243c8:	4628      	mov	r0, r5
   243ca:	4631      	mov	r1, r6
   243cc:	4622      	mov	r2, r4
   243ce:	4623      	mov	r3, r4
   243d0:	df03      	svc	3
   243d2:	2103      	movs	r1, #3
   243d4:	4628      	mov	r0, r5
   243d6:	4622      	mov	r2, r4
   243d8:	4623      	mov	r3, r4
   243da:	df04      	svc	4
   243dc:	ad0e      	add	r5, sp, #56	@ 0x38
   243de:	1de8      	adds	r0, r5, #7
   243e0:	9906      	ldr	r1, [sp, #24]
   243e2:	9a02      	ldr	r2, [sp, #8]
   243e4:	f002 fe11 	bl	2700a <__aeabi_memcpy>
   243e8:	9807      	ldr	r0, [sp, #28]
   243ea:	71a8      	strb	r0, [r5, #6]
   243ec:	9808      	ldr	r0, [sp, #32]
   243ee:	7168      	strb	r0, [r5, #5]
   243f0:	9809      	ldr	r0, [sp, #36]	@ 0x24
   243f2:	7128      	strb	r0, [r5, #4]
   243f4:	980a      	ldr	r0, [sp, #40]	@ 0x28
   243f6:	70e8      	strb	r0, [r5, #3]
   243f8:	9824      	ldr	r0, [sp, #144]	@ 0x90
   243fa:	8028      	strh	r0, [r5, #0]
   243fc:	980c      	ldr	r0, [sp, #48]	@ 0x30
   243fe:	7880      	ldrb	r0, [r0, #2]
   24400:	70a8      	strb	r0, [r5, #2]
   24402:	4816      	ldr	r0, [pc, #88]	@ (2445c <_start+0x318>)
   24404:	4468      	add	r0, sp
   24406:	2136      	movs	r1, #54	@ 0x36
   24408:	f002 fc52 	bl	26cb0 <__aeabi_memclr4>
   2440c:	4818      	ldr	r0, [pc, #96]	@ (24470 <_start+0x32c>)
   2440e:	2318      	movs	r3, #24
   24410:	4621      	mov	r1, r4
   24412:	462a      	mov	r2, r5
   24414:	df04      	svc	4
   24416:	2802      	cmp	r0, #2
   24418:	d00e      	beq.n	24438 <_start+0x2f4>
   2441a:	4815      	ldr	r0, [pc, #84]	@ (24470 <_start+0x32c>)
   2441c:	2107      	movs	r1, #7
   2441e:	4a0f      	ldr	r2, [pc, #60]	@ (2445c <_start+0x318>)
   24420:	446a      	add	r2, sp
   24422:	2336      	movs	r3, #54	@ 0x36
   24424:	df03      	svc	3
   24426:	2802      	cmp	r0, #2
   24428:	d006      	beq.n	24438 <_start+0x2f4>
   2442a:	4811      	ldr	r0, [pc, #68]	@ (24470 <_start+0x32c>)
   2442c:	2207      	movs	r2, #7
   2442e:	2100      	movs	r1, #0
   24430:	460b      	mov	r3, r1
   24432:	df02      	svc	2
   24434:	287f      	cmp	r0, #127	@ 0x7f
   24436:	d81d      	bhi.n	24474 <_start+0x330>
   24438:	910c      	str	r1, [sp, #48]	@ 0x30
   2443a:	4c0d      	ldr	r4, [pc, #52]	@ (24470 <_start+0x32c>)
   2443c:	2107      	movs	r1, #7
   2443e:	2500      	movs	r5, #0
   24440:	4620      	mov	r0, r4
   24442:	462a      	mov	r2, r5
   24444:	462b      	mov	r3, r5
   24446:	df03      	svc	3
   24448:	4620      	mov	r0, r4
   2444a:	4629      	mov	r1, r5
   2444c:	462a      	mov	r2, r5
   2444e:	462b      	mov	r3, r5
   24450:	df04      	svc	4
   24452:	e6b2      	b.n	241ba <_start+0x76>
   24454:	ffffeb14 	.word	0xffffeb14
   24458:	00001370 	.word	0x00001370
   2445c:	000013cc 	.word	0x000013cc
   24460:	00002006 	.word	0x00002006
   24464:	000007a4 	.word	0x000007a4
   24468:	000020c4 	.word	0x000020c4
   2446c:	000023cf 	.word	0x000023cf
   24470:	0000021f 	.word	0x0000021f
   24474:	4e6e      	ldr	r6, [pc, #440]	@ (24630 <_start+0x4ec>)
   24476:	2407      	movs	r4, #7
   24478:	940c      	str	r4, [sp, #48]	@ 0x30
   2447a:	2500      	movs	r5, #0
   2447c:	4630      	mov	r0, r6
   2447e:	4621      	mov	r1, r4
   24480:	462a      	mov	r2, r5
   24482:	462b      	mov	r3, r5
   24484:	df03      	svc	3
   24486:	4630      	mov	r0, r6
   24488:	4621      	mov	r1, r4
   2448a:	462a      	mov	r2, r5
   2448c:	462b      	mov	r3, r5
   2448e:	df03      	svc	3
   24490:	aa25      	add	r2, sp, #148	@ 0x94
   24492:	920a      	str	r2, [sp, #40]	@ 0x28
   24494:	9805      	ldr	r0, [sp, #20]
   24496:	6dc0      	ldr	r0, [r0, #92]	@ 0x5c
   24498:	8010      	strh	r0, [r2, #0]
   2449a:	4866      	ldr	r0, [pc, #408]	@ (24634 <_start+0x4f0>)
   2449c:	4468      	add	r0, sp
   2449e:	7881      	ldrb	r1, [r0, #2]
   244a0:	7091      	strb	r1, [r2, #2]
   244a2:	78c1      	ldrb	r1, [r0, #3]
   244a4:	9109      	str	r1, [sp, #36]	@ 0x24
   244a6:	7901      	ldrb	r1, [r0, #4]
   244a8:	9108      	str	r1, [sp, #32]
   244aa:	7941      	ldrb	r1, [r0, #5]
   244ac:	9107      	str	r1, [sp, #28]
   244ae:	7981      	ldrb	r1, [r0, #6]
   244b0:	9106      	str	r1, [sp, #24]
   244b2:	1dc1      	adds	r1, r0, #7
   244b4:	4e60      	ldr	r6, [pc, #384]	@ (24638 <_start+0x4f4>)
   244b6:	446e      	add	r6, sp
   244b8:	242f      	movs	r4, #47	@ 0x2f
   244ba:	4630      	mov	r0, r6
   244bc:	4622      	mov	r2, r4
   244be:	f002 fda4 	bl	2700a <__aeabi_memcpy>
   244c2:	485b      	ldr	r0, [pc, #364]	@ (24630 <_start+0x4ec>)
   244c4:	990c      	ldr	r1, [sp, #48]	@ 0x30
   244c6:	462a      	mov	r2, r5
   244c8:	462b      	mov	r3, r5
   244ca:	df03      	svc	3
   244cc:	4858      	ldr	r0, [pc, #352]	@ (24630 <_start+0x4ec>)
   244ce:	4629      	mov	r1, r5
   244d0:	462a      	mov	r2, r5
   244d2:	462b      	mov	r3, r5
   244d4:	df04      	svc	4
   244d6:	4d57      	ldr	r5, [pc, #348]	@ (24634 <_start+0x4f0>)
   244d8:	446d      	add	r5, sp
   244da:	1de8      	adds	r0, r5, #7
   244dc:	4631      	mov	r1, r6
   244de:	4622      	mov	r2, r4
   244e0:	f002 fd93 	bl	2700a <__aeabi_memcpy>
   244e4:	9806      	ldr	r0, [sp, #24]
   244e6:	71a8      	strb	r0, [r5, #6]
   244e8:	9807      	ldr	r0, [sp, #28]
   244ea:	7168      	strb	r0, [r5, #5]
   244ec:	9808      	ldr	r0, [sp, #32]
   244ee:	7128      	strb	r0, [r5, #4]
   244f0:	9809      	ldr	r0, [sp, #36]	@ 0x24
   244f2:	70e8      	strb	r0, [r5, #3]
   244f4:	9825      	ldr	r0, [sp, #148]	@ 0x94
   244f6:	8028      	strh	r0, [r5, #0]
   244f8:	980a      	ldr	r0, [sp, #40]	@ 0x28
   244fa:	7880      	ldrb	r0, [r0, #2]
   244fc:	70a8      	strb	r0, [r5, #2]
   244fe:	484e      	ldr	r0, [pc, #312]	@ (24638 <_start+0x4f4>)
   24500:	4468      	add	r0, sp
   24502:	2125      	movs	r1, #37	@ 0x25
   24504:	f002 fbd4 	bl	26cb0 <__aeabi_memclr4>
   24508:	484c      	ldr	r0, [pc, #304]	@ (2463c <_start+0x4f8>)
   2450a:	2336      	movs	r3, #54	@ 0x36
   2450c:	990c      	ldr	r1, [sp, #48]	@ 0x30
   2450e:	462a      	mov	r2, r5
   24510:	df04      	svc	4
   24512:	2802      	cmp	r0, #2
   24514:	d007      	beq.n	24526 <_start+0x3e2>
   24516:	4849      	ldr	r0, [pc, #292]	@ (2463c <_start+0x4f8>)
   24518:	2100      	movs	r1, #0
   2451a:	4a47      	ldr	r2, [pc, #284]	@ (24638 <_start+0x4f4>)
   2451c:	446a      	add	r2, sp
   2451e:	2325      	movs	r3, #37	@ 0x25
   24520:	df03      	svc	3
   24522:	2802      	cmp	r0, #2
   24524:	d10d      	bne.n	24542 <_start+0x3fe>
   24526:	910c      	str	r1, [sp, #48]	@ 0x30
   24528:	4c44      	ldr	r4, [pc, #272]	@ (2463c <_start+0x4f8>)
   2452a:	2500      	movs	r5, #0
   2452c:	4620      	mov	r0, r4
   2452e:	4629      	mov	r1, r5
   24530:	462a      	mov	r2, r5
   24532:	462b      	mov	r3, r5
   24534:	df03      	svc	3
   24536:	2107      	movs	r1, #7
   24538:	4620      	mov	r0, r4
   2453a:	462a      	mov	r2, r5
   2453c:	462b      	mov	r3, r5
   2453e:	df04      	svc	4
   24540:	e63b      	b.n	241ba <_start+0x76>
   24542:	483e      	ldr	r0, [pc, #248]	@ (2463c <_start+0x4f8>)
   24544:	2107      	movs	r1, #7
   24546:	2500      	movs	r5, #0
   24548:	462a      	mov	r2, r5
   2454a:	462b      	mov	r3, r5
   2454c:	df02      	svc	2
   2454e:	910c      	str	r1, [sp, #48]	@ 0x30
   24550:	287f      	cmp	r0, #127	@ 0x7f
   24552:	d9e9      	bls.n	24528 <_start+0x3e4>
   24554:	4c39      	ldr	r4, [pc, #228]	@ (2463c <_start+0x4f8>)
   24556:	4620      	mov	r0, r4
   24558:	4629      	mov	r1, r5
   2455a:	462a      	mov	r2, r5
   2455c:	462b      	mov	r3, r5
   2455e:	df03      	svc	3
   24560:	4620      	mov	r0, r4
   24562:	4629      	mov	r1, r5
   24564:	462a      	mov	r2, r5
   24566:	462b      	mov	r3, r5
   24568:	df03      	svc	3
   2456a:	aa26      	add	r2, sp, #152	@ 0x98
   2456c:	920c      	str	r2, [sp, #48]	@ 0x30
   2456e:	9e05      	ldr	r6, [sp, #20]
   24570:	6830      	ldr	r0, [r6, #0]
   24572:	8010      	strh	r0, [r2, #0]
   24574:	4830      	ldr	r0, [pc, #192]	@ (24638 <_start+0x4f4>)
   24576:	4468      	add	r0, sp
   24578:	7881      	ldrb	r1, [r0, #2]
   2457a:	7091      	strb	r1, [r2, #2]
   2457c:	78c1      	ldrb	r1, [r0, #3]
   2457e:	910a      	str	r1, [sp, #40]	@ 0x28
   24580:	7901      	ldrb	r1, [r0, #4]
   24582:	9109      	str	r1, [sp, #36]	@ 0x24
   24584:	7941      	ldrb	r1, [r0, #5]
   24586:	9108      	str	r1, [sp, #32]
   24588:	7981      	ldrb	r1, [r0, #6]
   2458a:	9107      	str	r1, [sp, #28]
   2458c:	1dc1      	adds	r1, r0, #7
   2458e:	a80e      	add	r0, sp, #56	@ 0x38
   24590:	9006      	str	r0, [sp, #24]
   24592:	221e      	movs	r2, #30
   24594:	9202      	str	r2, [sp, #8]
   24596:	f002 fd38 	bl	2700a <__aeabi_memcpy>
   2459a:	4620      	mov	r0, r4
   2459c:	4629      	mov	r1, r5
   2459e:	462a      	mov	r2, r5
   245a0:	462b      	mov	r3, r5
   245a2:	df03      	svc	3
   245a4:	2107      	movs	r1, #7
   245a6:	4620      	mov	r0, r4
   245a8:	462a      	mov	r2, r5
   245aa:	462b      	mov	r3, r5
   245ac:	df04      	svc	4
   245ae:	4c21      	ldr	r4, [pc, #132]	@ (24634 <_start+0x4f0>)
   245b0:	446c      	add	r4, sp
   245b2:	1de0      	adds	r0, r4, #7
   245b4:	9906      	ldr	r1, [sp, #24]
   245b6:	9a02      	ldr	r2, [sp, #8]
   245b8:	f002 fd27 	bl	2700a <__aeabi_memcpy>
   245bc:	9807      	ldr	r0, [sp, #28]
   245be:	71a0      	strb	r0, [r4, #6]
   245c0:	9808      	ldr	r0, [sp, #32]
   245c2:	7160      	strb	r0, [r4, #5]
   245c4:	9809      	ldr	r0, [sp, #36]	@ 0x24
   245c6:	7120      	strb	r0, [r4, #4]
   245c8:	980a      	ldr	r0, [sp, #40]	@ 0x28
   245ca:	70e0      	strb	r0, [r4, #3]
   245cc:	9826      	ldr	r0, [sp, #152]	@ 0x98
   245ce:	8020      	strh	r0, [r4, #0]
   245d0:	980c      	ldr	r0, [sp, #48]	@ 0x30
   245d2:	7880      	ldrb	r0, [r0, #2]
   245d4:	70a0      	strb	r0, [r4, #2]
   245d6:	4818      	ldr	r0, [pc, #96]	@ (24638 <_start+0x4f4>)
   245d8:	4468      	add	r0, sp
   245da:	8185      	strh	r5, [r0, #12]
   245dc:	6035      	str	r5, [r6, #0]
   245de:	6075      	str	r5, [r6, #4]
   245e0:	60b5      	str	r5, [r6, #8]
   245e2:	4817      	ldr	r0, [pc, #92]	@ (24640 <_start+0x4fc>)
   245e4:	2102      	movs	r1, #2
   245e6:	2325      	movs	r3, #37	@ 0x25
   245e8:	4622      	mov	r2, r4
   245ea:	df04      	svc	4
   245ec:	910c      	str	r1, [sp, #48]	@ 0x30
   245ee:	2802      	cmp	r0, #2
   245f0:	d010      	beq.n	24614 <_start+0x4d0>
   245f2:	4813      	ldr	r0, [pc, #76]	@ (24640 <_start+0x4fc>)
   245f4:	2108      	movs	r1, #8
   245f6:	4a10      	ldr	r2, [pc, #64]	@ (24638 <_start+0x4f4>)
   245f8:	446a      	add	r2, sp
   245fa:	230e      	movs	r3, #14
   245fc:	df03      	svc	3
   245fe:	910c      	str	r1, [sp, #48]	@ 0x30
   24600:	2802      	cmp	r0, #2
   24602:	d007      	beq.n	24614 <_start+0x4d0>
   24604:	480e      	ldr	r0, [pc, #56]	@ (24640 <_start+0x4fc>)
   24606:	2102      	movs	r1, #2
   24608:	2208      	movs	r2, #8
   2460a:	2300      	movs	r3, #0
   2460c:	df02      	svc	2
   2460e:	910c      	str	r1, [sp, #48]	@ 0x30
   24610:	287f      	cmp	r0, #127	@ 0x7f
   24612:	d817      	bhi.n	24644 <_start+0x500>
   24614:	4c0a      	ldr	r4, [pc, #40]	@ (24640 <_start+0x4fc>)
   24616:	2108      	movs	r1, #8
   24618:	2500      	movs	r5, #0
   2461a:	4620      	mov	r0, r4
   2461c:	462a      	mov	r2, r5
   2461e:	462b      	mov	r3, r5
   24620:	df03      	svc	3
   24622:	2102      	movs	r1, #2
   24624:	4620      	mov	r0, r4
   24626:	462a      	mov	r2, r5
   24628:	462b      	mov	r3, r5
   2462a:	df04      	svc	4
   2462c:	e5c5      	b.n	241ba <_start+0x76>
   2462e:	46c0      	nop			@ (mov r8, r8)
   24630:	0000021f 	.word	0x0000021f
   24634:	000013cc 	.word	0x000013cc
   24638:	00001370 	.word	0x00001370
   2463c:	00001597 	.word	0x00001597
   24640:	00000667 	.word	0x00000667
   24644:	4c29      	ldr	r4, [pc, #164]	@ (246ec <_start+0x5a8>)
   24646:	2608      	movs	r6, #8
   24648:	960c      	str	r6, [sp, #48]	@ 0x30
   2464a:	2500      	movs	r5, #0
   2464c:	4620      	mov	r0, r4
   2464e:	4631      	mov	r1, r6
   24650:	462a      	mov	r2, r5
   24652:	462b      	mov	r3, r5
   24654:	df03      	svc	3
   24656:	4620      	mov	r0, r4
   24658:	4631      	mov	r1, r6
   2465a:	462a      	mov	r2, r5
   2465c:	462b      	mov	r3, r5
   2465e:	df03      	svc	3
   24660:	ac27      	add	r4, sp, #156	@ 0x9c
   24662:	9a05      	ldr	r2, [sp, #20]
   24664:	6810      	ldr	r0, [r2, #0]
   24666:	8020      	strh	r0, [r4, #0]
   24668:	4821      	ldr	r0, [pc, #132]	@ (246f0 <_start+0x5ac>)
   2466a:	4468      	add	r0, sp
   2466c:	7881      	ldrb	r1, [r0, #2]
   2466e:	70a1      	strb	r1, [r4, #2]
   24670:	7b41      	ldrb	r1, [r0, #13]
   24672:	ae0e      	add	r6, sp, #56	@ 0x38
   24674:	71b1      	strb	r1, [r6, #6]
   24676:	7ac1      	ldrb	r1, [r0, #11]
   24678:	68d2      	ldr	r2, [r2, #12]
   2467a:	0212      	lsls	r2, r2, #8
   2467c:	1851      	adds	r1, r2, r1
   2467e:	80b1      	strh	r1, [r6, #4]
   24680:	79c1      	ldrb	r1, [r0, #7]
   24682:	7a02      	ldrb	r2, [r0, #8]
   24684:	0212      	lsls	r2, r2, #8
   24686:	1851      	adds	r1, r2, r1
   24688:	7a42      	ldrb	r2, [r0, #9]
   2468a:	0412      	lsls	r2, r2, #16
   2468c:	7a83      	ldrb	r3, [r0, #10]
   2468e:	061b      	lsls	r3, r3, #24
   24690:	189a      	adds	r2, r3, r2
   24692:	1851      	adds	r1, r2, r1
   24694:	910e      	str	r1, [sp, #56]	@ 0x38
   24696:	78c1      	ldrb	r1, [r0, #3]
   24698:	910a      	str	r1, [sp, #40]	@ 0x28
   2469a:	7901      	ldrb	r1, [r0, #4]
   2469c:	9109      	str	r1, [sp, #36]	@ 0x24
   2469e:	7941      	ldrb	r1, [r0, #5]
   246a0:	9108      	str	r1, [sp, #32]
   246a2:	7980      	ldrb	r0, [r0, #6]
   246a4:	9007      	str	r0, [sp, #28]
   246a6:	4811      	ldr	r0, [pc, #68]	@ (246ec <_start+0x5a8>)
   246a8:	990c      	ldr	r1, [sp, #48]	@ 0x30
   246aa:	462a      	mov	r2, r5
   246ac:	462b      	mov	r3, r5
   246ae:	df03      	svc	3
   246b0:	2102      	movs	r1, #2
   246b2:	480e      	ldr	r0, [pc, #56]	@ (246ec <_start+0x5a8>)
   246b4:	462a      	mov	r2, r5
   246b6:	462b      	mov	r3, r5
   246b8:	df04      	svc	4
   246ba:	9807      	ldr	r0, [sp, #28]
   246bc:	71a0      	strb	r0, [r4, #6]
   246be:	9808      	ldr	r0, [sp, #32]
   246c0:	7160      	strb	r0, [r4, #5]
   246c2:	9809      	ldr	r0, [sp, #36]	@ 0x24
   246c4:	7120      	strb	r0, [r4, #4]
   246c6:	980a      	ldr	r0, [sp, #40]	@ 0x28
   246c8:	70e0      	strb	r0, [r4, #3]
   246ca:	1de0      	adds	r0, r4, #7
   246cc:	2207      	movs	r2, #7
   246ce:	4631      	mov	r1, r6
   246d0:	f002 fc9b 	bl	2700a <__aeabi_memcpy>
   246d4:	4d07      	ldr	r5, [pc, #28]	@ (246f4 <_start+0x5b0>)
   246d6:	446d      	add	r5, sp
   246d8:	4628      	mov	r0, r5
   246da:	4621      	mov	r1, r4
   246dc:	f7fe fc52 	bl	22f84 <_ZN18complex_no_dynamic3app17hcfe852aba3ccd2c5E>
   246e0:	7828      	ldrb	r0, [r5, #0]
   246e2:	2801      	cmp	r0, #1
   246e4:	d108      	bne.n	246f8 <_start+0x5b4>
   246e6:	f002 fa89 	bl	26bfc <_start+0x2ab8>
   246ea:	46c0      	nop			@ (mov r8, r8)
   246ec:	00000667 	.word	0x00000667
   246f0:	00001370 	.word	0x00001370
   246f4:	000013cc 	.word	0x000013cc
   246f8:	4915      	ldr	r1, [pc, #84]	@ (24750 <_start+0x60c>)
   246fa:	4469      	add	r1, sp
   246fc:	78c8      	ldrb	r0, [r1, #3]
   246fe:	ac2b      	add	r4, sp, #172	@ 0xac
   24700:	70a0      	strb	r0, [r4, #2]
   24702:	7848      	ldrb	r0, [r1, #1]
   24704:	788a      	ldrb	r2, [r1, #2]
   24706:	0212      	lsls	r2, r2, #8
   24708:	1810      	adds	r0, r2, r0
   2470a:	8020      	strh	r0, [r4, #0]
   2470c:	9805      	ldr	r0, [sp, #20]
   2470e:	6e05      	ldr	r5, [r0, #96]	@ 0x60
   24710:	3108      	adds	r1, #8
   24712:	4810      	ldr	r0, [pc, #64]	@ (24754 <_start+0x610>)
   24714:	4468      	add	r0, sp
   24716:	900c      	str	r0, [sp, #48]	@ 0x30
   24718:	2641      	movs	r6, #65	@ 0x41
   2471a:	4632      	mov	r2, r6
   2471c:	f002 fb15 	bl	26d4a <__aeabi_memcpy4>
   24720:	0e28      	lsrs	r0, r5, #24
   24722:	71a0      	strb	r0, [r4, #6]
   24724:	0c28      	lsrs	r0, r5, #16
   24726:	7160      	strb	r0, [r4, #5]
   24728:	0a28      	lsrs	r0, r5, #8
   2472a:	7120      	strb	r0, [r4, #4]
   2472c:	70e5      	strb	r5, [r4, #3]
   2472e:	1de0      	adds	r0, r4, #7
   24730:	990c      	ldr	r1, [sp, #48]	@ 0x30
   24732:	4632      	mov	r2, r6
   24734:	f002 fc69 	bl	2700a <__aeabi_memcpy>
   24738:	4d05      	ldr	r5, [pc, #20]	@ (24750 <_start+0x60c>)
   2473a:	446d      	add	r5, sp
   2473c:	4628      	mov	r0, r5
   2473e:	4621      	mov	r1, r4
   24740:	f7fc f890 	bl	20864 <_ZN18complex_no_dynamic3app17h27a0688eaaa0c1a5E>
   24744:	7828      	ldrb	r0, [r5, #0]
   24746:	2801      	cmp	r0, #1
   24748:	d106      	bne.n	24758 <_start+0x614>
   2474a:	f002 fa57 	bl	26bfc <_start+0x2ab8>
   2474e:	46c0      	nop			@ (mov r8, r8)
   24750:	000013cc 	.word	0x000013cc
   24754:	00001370 	.word	0x00001370
   24758:	980b      	ldr	r0, [sp, #44]	@ 0x2c
   2475a:	1cc0      	adds	r0, r0, #3
   2475c:	4a15      	ldr	r2, [pc, #84]	@ (247b4 <_start+0x670>)
   2475e:	446a      	add	r2, sp
   24760:	78d3      	ldrb	r3, [r2, #3]
   24762:	a93d      	add	r1, sp, #244	@ 0xf4
   24764:	708b      	strb	r3, [r1, #2]
   24766:	7853      	ldrb	r3, [r2, #1]
   24768:	7892      	ldrb	r2, [r2, #2]
   2476a:	0212      	lsls	r2, r2, #8
   2476c:	18d2      	adds	r2, r2, r3
   2476e:	800a      	strh	r2, [r1, #0]
   24770:	9c05      	ldr	r4, [sp, #20]
   24772:	3460      	adds	r4, #96	@ 0x60
   24774:	cc1c      	ldmia	r4, {r2, r3, r4}
   24776:	0e25      	lsrs	r5, r4, #24
   24778:	72c5      	strb	r5, [r0, #11]
   2477a:	0c25      	lsrs	r5, r4, #16
   2477c:	7285      	strb	r5, [r0, #10]
   2477e:	0a25      	lsrs	r5, r4, #8
   24780:	7245      	strb	r5, [r0, #9]
   24782:	7204      	strb	r4, [r0, #8]
   24784:	0e1c      	lsrs	r4, r3, #24
   24786:	71c4      	strb	r4, [r0, #7]
   24788:	0c1c      	lsrs	r4, r3, #16
   2478a:	7184      	strb	r4, [r0, #6]
   2478c:	0a1c      	lsrs	r4, r3, #8
   2478e:	7144      	strb	r4, [r0, #5]
   24790:	7103      	strb	r3, [r0, #4]
   24792:	0e13      	lsrs	r3, r2, #24
   24794:	70c3      	strb	r3, [r0, #3]
   24796:	0c13      	lsrs	r3, r2, #16
   24798:	7083      	strb	r3, [r0, #2]
   2479a:	0a13      	lsrs	r3, r2, #8
   2479c:	7043      	strb	r3, [r0, #1]
   2479e:	7002      	strb	r2, [r0, #0]
   247a0:	4c04      	ldr	r4, [pc, #16]	@ (247b4 <_start+0x670>)
   247a2:	446c      	add	r4, sp
   247a4:	4620      	mov	r0, r4
   247a6:	f7ff f91f 	bl	239e8 <_ZN18complex_no_dynamic3app17he8549f43129de3e9E>
   247aa:	7820      	ldrb	r0, [r4, #0]
   247ac:	2801      	cmp	r0, #1
   247ae:	d103      	bne.n	247b8 <_start+0x674>
   247b0:	f002 fa24 	bl	26bfc <_start+0x2ab8>
   247b4:	000013cc 	.word	0x000013cc
   247b8:	4817      	ldr	r0, [pc, #92]	@ (24818 <_start+0x6d4>)
   247ba:	4468      	add	r0, sp
   247bc:	78c1      	ldrb	r1, [r0, #3]
   247be:	ac41      	add	r4, sp, #260	@ 0x104
   247c0:	70a1      	strb	r1, [r4, #2]
   247c2:	7841      	ldrb	r1, [r0, #1]
   247c4:	7882      	ldrb	r2, [r0, #2]
   247c6:	0212      	lsls	r2, r2, #8
   247c8:	1851      	adds	r1, r2, r1
   247ca:	8021      	strh	r1, [r4, #0]
   247cc:	3008      	adds	r0, #8
   247ce:	9905      	ldr	r1, [sp, #20]
   247d0:	6e09      	ldr	r1, [r1, #96]	@ 0x60
   247d2:	910b      	str	r1, [sp, #44]	@ 0x2c
   247d4:	4b11      	ldr	r3, [pc, #68]	@ (2481c <_start+0x6d8>)
   247d6:	446b      	add	r3, sp
   247d8:	930c      	str	r3, [sp, #48]	@ 0x30
   247da:	c864      	ldmia	r0!, {r2, r5, r6}
   247dc:	c364      	stmia	r3!, {r2, r5, r6}
   247de:	c866      	ldmia	r0!, {r1, r2, r5, r6}
   247e0:	c366      	stmia	r3!, {r1, r2, r5, r6}
   247e2:	8800      	ldrh	r0, [r0, #0]
   247e4:	8018      	strh	r0, [r3, #0]
   247e6:	990b      	ldr	r1, [sp, #44]	@ 0x2c
   247e8:	0e08      	lsrs	r0, r1, #24
   247ea:	71a0      	strb	r0, [r4, #6]
   247ec:	0c08      	lsrs	r0, r1, #16
   247ee:	7160      	strb	r0, [r4, #5]
   247f0:	0a08      	lsrs	r0, r1, #8
   247f2:	7120      	strb	r0, [r4, #4]
   247f4:	70e1      	strb	r1, [r4, #3]
   247f6:	1de0      	adds	r0, r4, #7
   247f8:	221e      	movs	r2, #30
   247fa:	990c      	ldr	r1, [sp, #48]	@ 0x30
   247fc:	f002 fc05 	bl	2700a <__aeabi_memcpy>
   24800:	4d05      	ldr	r5, [pc, #20]	@ (24818 <_start+0x6d4>)
   24802:	446d      	add	r5, sp
   24804:	4628      	mov	r0, r5
   24806:	4621      	mov	r1, r4
   24808:	f7fd fc2c 	bl	22064 <_ZN18complex_no_dynamic3app17h8c74818c2c8f635cE>
   2480c:	7828      	ldrb	r0, [r5, #0]
   2480e:	2801      	cmp	r0, #1
   24810:	d106      	bne.n	24820 <_start+0x6dc>
   24812:	f002 f9f3 	bl	26bfc <_start+0x2ab8>
   24816:	46c0      	nop			@ (mov r8, r8)
   24818:	000013cc 	.word	0x000013cc
   2481c:	00001370 	.word	0x00001370
   24820:	4818      	ldr	r0, [pc, #96]	@ (24884 <_start+0x740>)
   24822:	4468      	add	r0, sp
   24824:	78c1      	ldrb	r1, [r0, #3]
   24826:	ac4b      	add	r4, sp, #300	@ 0x12c
   24828:	70a1      	strb	r1, [r4, #2]
   2482a:	7841      	ldrb	r1, [r0, #1]
   2482c:	7882      	ldrb	r2, [r0, #2]
   2482e:	0212      	lsls	r2, r2, #8
   24830:	1851      	adds	r1, r2, r1
   24832:	8021      	strh	r1, [r4, #0]
   24834:	3008      	adds	r0, #8
   24836:	9905      	ldr	r1, [sp, #20]
   24838:	6e09      	ldr	r1, [r1, #96]	@ 0x60
   2483a:	910b      	str	r1, [sp, #44]	@ 0x2c
   2483c:	4b12      	ldr	r3, [pc, #72]	@ (24888 <_start+0x744>)
   2483e:	446b      	add	r3, sp
   24840:	930c      	str	r3, [sp, #48]	@ 0x30
   24842:	c866      	ldmia	r0!, {r1, r2, r5, r6}
   24844:	c366      	stmia	r3!, {r1, r2, r5, r6}
   24846:	c866      	ldmia	r0!, {r1, r2, r5, r6}
   24848:	c366      	stmia	r3!, {r1, r2, r5, r6}
   2484a:	8801      	ldrh	r1, [r0, #0]
   2484c:	8019      	strh	r1, [r3, #0]
   2484e:	7880      	ldrb	r0, [r0, #2]
   24850:	7098      	strb	r0, [r3, #2]
   24852:	990b      	ldr	r1, [sp, #44]	@ 0x2c
   24854:	0e08      	lsrs	r0, r1, #24
   24856:	71a0      	strb	r0, [r4, #6]
   24858:	0c08      	lsrs	r0, r1, #16
   2485a:	7160      	strb	r0, [r4, #5]
   2485c:	0a08      	lsrs	r0, r1, #8
   2485e:	7120      	strb	r0, [r4, #4]
   24860:	70e1      	strb	r1, [r4, #3]
   24862:	1de0      	adds	r0, r4, #7
   24864:	2223      	movs	r2, #35	@ 0x23
   24866:	990c      	ldr	r1, [sp, #48]	@ 0x30
   24868:	f002 fbcf 	bl	2700a <__aeabi_memcpy>
   2486c:	4d05      	ldr	r5, [pc, #20]	@ (24884 <_start+0x740>)
   2486e:	446d      	add	r5, sp
   24870:	4628      	mov	r0, r5
   24872:	4621      	mov	r1, r4
   24874:	f7fd fc4c 	bl	22110 <_ZN18complex_no_dynamic3app17h90bd969945b46cdaE>
   24878:	7828      	ldrb	r0, [r5, #0]
   2487a:	2801      	cmp	r0, #1
   2487c:	d106      	bne.n	2488c <_start+0x748>
   2487e:	f002 f9bd 	bl	26bfc <_start+0x2ab8>
   24882:	46c0      	nop			@ (mov r8, r8)
   24884:	000013cc 	.word	0x000013cc
   24888:	00001370 	.word	0x00001370
   2488c:	4915      	ldr	r1, [pc, #84]	@ (248e4 <_start+0x7a0>)
   2488e:	4469      	add	r1, sp
   24890:	78c8      	ldrb	r0, [r1, #3]
   24892:	ac56      	add	r4, sp, #344	@ 0x158
   24894:	70a0      	strb	r0, [r4, #2]
   24896:	7848      	ldrb	r0, [r1, #1]
   24898:	788a      	ldrb	r2, [r1, #2]
   2489a:	0212      	lsls	r2, r2, #8
   2489c:	1810      	adds	r0, r2, r0
   2489e:	8020      	strh	r0, [r4, #0]
   248a0:	9805      	ldr	r0, [sp, #20]
   248a2:	6e05      	ldr	r5, [r0, #96]	@ 0x60
   248a4:	3108      	adds	r1, #8
   248a6:	4810      	ldr	r0, [pc, #64]	@ (248e8 <_start+0x7a4>)
   248a8:	4468      	add	r0, sp
   248aa:	900c      	str	r0, [sp, #48]	@ 0x30
   248ac:	265c      	movs	r6, #92	@ 0x5c
   248ae:	4632      	mov	r2, r6
   248b0:	f002 fa4b 	bl	26d4a <__aeabi_memcpy4>
   248b4:	0e28      	lsrs	r0, r5, #24
   248b6:	71a0      	strb	r0, [r4, #6]
   248b8:	0c28      	lsrs	r0, r5, #16
   248ba:	7160      	strb	r0, [r4, #5]
   248bc:	0a28      	lsrs	r0, r5, #8
   248be:	7120      	strb	r0, [r4, #4]
   248c0:	70e5      	strb	r5, [r4, #3]
   248c2:	1de0      	adds	r0, r4, #7
   248c4:	990c      	ldr	r1, [sp, #48]	@ 0x30
   248c6:	4632      	mov	r2, r6
   248c8:	f002 fb9f 	bl	2700a <__aeabi_memcpy>
   248cc:	4d05      	ldr	r5, [pc, #20]	@ (248e4 <_start+0x7a0>)
   248ce:	446d      	add	r5, sp
   248d0:	4628      	mov	r0, r5
   248d2:	4621      	mov	r1, r4
   248d4:	f7fd f91a 	bl	21b0c <_ZN18complex_no_dynamic3app17h728349c28cc4eb83E>
   248d8:	7828      	ldrb	r0, [r5, #0]
   248da:	2801      	cmp	r0, #1
   248dc:	d106      	bne.n	248ec <_start+0x7a8>
   248de:	f002 f98d 	bl	26bfc <_start+0x2ab8>
   248e2:	46c0      	nop			@ (mov r8, r8)
   248e4:	000013cc 	.word	0x000013cc
   248e8:	00001370 	.word	0x00001370
   248ec:	4816      	ldr	r0, [pc, #88]	@ (24948 <_start+0x804>)
   248ee:	4468      	add	r0, sp
   248f0:	78c1      	ldrb	r1, [r0, #3]
   248f2:	ac6f      	add	r4, sp, #444	@ 0x1bc
   248f4:	70a1      	strb	r1, [r4, #2]
   248f6:	7841      	ldrb	r1, [r0, #1]
   248f8:	7882      	ldrb	r2, [r0, #2]
   248fa:	0212      	lsls	r2, r2, #8
   248fc:	1851      	adds	r1, r2, r1
   248fe:	8021      	strh	r1, [r4, #0]
   24900:	3008      	adds	r0, #8
   24902:	9905      	ldr	r1, [sp, #20]
   24904:	6e09      	ldr	r1, [r1, #96]	@ 0x60
   24906:	910b      	str	r1, [sp, #44]	@ 0x2c
   24908:	4b10      	ldr	r3, [pc, #64]	@ (2494c <_start+0x808>)
   2490a:	446b      	add	r3, sp
   2490c:	930c      	str	r3, [sp, #48]	@ 0x30
   2490e:	c866      	ldmia	r0!, {r1, r2, r5, r6}
   24910:	c366      	stmia	r3!, {r1, r2, r5, r6}
   24912:	c866      	ldmia	r0!, {r1, r2, r5, r6}
   24914:	c366      	stmia	r3!, {r1, r2, r5, r6}
   24916:	990b      	ldr	r1, [sp, #44]	@ 0x2c
   24918:	0e08      	lsrs	r0, r1, #24
   2491a:	71a0      	strb	r0, [r4, #6]
   2491c:	0c08      	lsrs	r0, r1, #16
   2491e:	7160      	strb	r0, [r4, #5]
   24920:	0a08      	lsrs	r0, r1, #8
   24922:	7120      	strb	r0, [r4, #4]
   24924:	70e1      	strb	r1, [r4, #3]
   24926:	1de0      	adds	r0, r4, #7
   24928:	2220      	movs	r2, #32
   2492a:	990c      	ldr	r1, [sp, #48]	@ 0x30
   2492c:	f002 fb6d 	bl	2700a <__aeabi_memcpy>
   24930:	4d05      	ldr	r5, [pc, #20]	@ (24948 <_start+0x804>)
   24932:	446d      	add	r5, sp
   24934:	4628      	mov	r0, r5
   24936:	4621      	mov	r1, r4
   24938:	f7fc f9aa 	bl	20c90 <_ZN18complex_no_dynamic3app17h41108e2e0145e032E>
   2493c:	7828      	ldrb	r0, [r5, #0]
   2493e:	2801      	cmp	r0, #1
   24940:	d106      	bne.n	24950 <_start+0x80c>
   24942:	f002 f95b 	bl	26bfc <_start+0x2ab8>
   24946:	46c0      	nop			@ (mov r8, r8)
   24948:	000013cc 	.word	0x000013cc
   2494c:	00001370 	.word	0x00001370
   24950:	4817      	ldr	r0, [pc, #92]	@ (249b0 <_start+0x86c>)
   24952:	4468      	add	r0, sp
   24954:	78c1      	ldrb	r1, [r0, #3]
   24956:	ac79      	add	r4, sp, #484	@ 0x1e4
   24958:	70a1      	strb	r1, [r4, #2]
   2495a:	7841      	ldrb	r1, [r0, #1]
   2495c:	7882      	ldrb	r2, [r0, #2]
   2495e:	0212      	lsls	r2, r2, #8
   24960:	1851      	adds	r1, r2, r1
   24962:	8021      	strh	r1, [r4, #0]
   24964:	3008      	adds	r0, #8
   24966:	9905      	ldr	r1, [sp, #20]
   24968:	6e09      	ldr	r1, [r1, #96]	@ 0x60
   2496a:	4b12      	ldr	r3, [pc, #72]	@ (249b4 <_start+0x870>)
   2496c:	446b      	add	r3, sp
   2496e:	930c      	str	r3, [sp, #48]	@ 0x30
   24970:	c860      	ldmia	r0!, {r5, r6}
   24972:	c360      	stmia	r3!, {r5, r6}
   24974:	c864      	ldmia	r0!, {r2, r5, r6}
   24976:	c364      	stmia	r3!, {r2, r5, r6}
   24978:	8802      	ldrh	r2, [r0, #0]
   2497a:	801a      	strh	r2, [r3, #0]
   2497c:	7880      	ldrb	r0, [r0, #2]
   2497e:	7098      	strb	r0, [r3, #2]
   24980:	0e08      	lsrs	r0, r1, #24
   24982:	71a0      	strb	r0, [r4, #6]
   24984:	0c08      	lsrs	r0, r1, #16
   24986:	7160      	strb	r0, [r4, #5]
   24988:	0a08      	lsrs	r0, r1, #8
   2498a:	7120      	strb	r0, [r4, #4]
   2498c:	70e1      	strb	r1, [r4, #3]
   2498e:	1de0      	adds	r0, r4, #7
   24990:	2217      	movs	r2, #23
   24992:	990c      	ldr	r1, [sp, #48]	@ 0x30
   24994:	f002 fb39 	bl	2700a <__aeabi_memcpy>
   24998:	4d05      	ldr	r5, [pc, #20]	@ (249b0 <_start+0x86c>)
   2499a:	446d      	add	r5, sp
   2499c:	4628      	mov	r0, r5
   2499e:	4621      	mov	r1, r4
   249a0:	f7fe fcbc 	bl	2331c <_ZN18complex_no_dynamic3app17hd64be084dbca9e7dE>
   249a4:	7828      	ldrb	r0, [r5, #0]
   249a6:	2801      	cmp	r0, #1
   249a8:	d106      	bne.n	249b8 <_start+0x874>
   249aa:	f002 f927 	bl	26bfc <_start+0x2ab8>
   249ae:	46c0      	nop			@ (mov r8, r8)
   249b0:	000013cc 	.word	0x000013cc
   249b4:	00001370 	.word	0x00001370
   249b8:	4817      	ldr	r0, [pc, #92]	@ (24a18 <_start+0x8d4>)
   249ba:	4468      	add	r0, sp
   249bc:	78c1      	ldrb	r1, [r0, #3]
   249be:	ac81      	add	r4, sp, #516	@ 0x204
   249c0:	70a1      	strb	r1, [r4, #2]
   249c2:	7841      	ldrb	r1, [r0, #1]
   249c4:	7882      	ldrb	r2, [r0, #2]
   249c6:	0212      	lsls	r2, r2, #8
   249c8:	1851      	adds	r1, r2, r1
   249ca:	8021      	strh	r1, [r4, #0]
   249cc:	3008      	adds	r0, #8
   249ce:	9905      	ldr	r1, [sp, #20]
   249d0:	6e09      	ldr	r1, [r1, #96]	@ 0x60
   249d2:	4b12      	ldr	r3, [pc, #72]	@ (24a1c <_start+0x8d8>)
   249d4:	446b      	add	r3, sp
   249d6:	930c      	str	r3, [sp, #48]	@ 0x30
   249d8:	c864      	ldmia	r0!, {r2, r5, r6}
   249da:	c364      	stmia	r3!, {r2, r5, r6}
   249dc:	c864      	ldmia	r0!, {r2, r5, r6}
   249de:	c364      	stmia	r3!, {r2, r5, r6}
   249e0:	c864      	ldmia	r0!, {r2, r5, r6}
   249e2:	c364      	stmia	r3!, {r2, r5, r6}
   249e4:	7800      	ldrb	r0, [r0, #0]
   249e6:	7018      	strb	r0, [r3, #0]
   249e8:	0e08      	lsrs	r0, r1, #24
   249ea:	71a0      	strb	r0, [r4, #6]
   249ec:	0c08      	lsrs	r0, r1, #16
   249ee:	7160      	strb	r0, [r4, #5]
   249f0:	0a08      	lsrs	r0, r1, #8
   249f2:	7120      	strb	r0, [r4, #4]
   249f4:	70e1      	strb	r1, [r4, #3]
   249f6:	1de0      	adds	r0, r4, #7
   249f8:	2225      	movs	r2, #37	@ 0x25
   249fa:	990c      	ldr	r1, [sp, #48]	@ 0x30
   249fc:	f002 fb05 	bl	2700a <__aeabi_memcpy>
   24a00:	4d05      	ldr	r5, [pc, #20]	@ (24a18 <_start+0x8d4>)
   24a02:	446d      	add	r5, sp
   24a04:	4628      	mov	r0, r5
   24a06:	4621      	mov	r1, r4
   24a08:	f7fd f9d4 	bl	21db4 <_ZN18complex_no_dynamic3app17h83097068c5e7c7bdE>
   24a0c:	7828      	ldrb	r0, [r5, #0]
   24a0e:	2801      	cmp	r0, #1
   24a10:	d106      	bne.n	24a20 <_start+0x8dc>
   24a12:	f002 f8f3 	bl	26bfc <_start+0x2ab8>
   24a16:	46c0      	nop			@ (mov r8, r8)
   24a18:	000013cc 	.word	0x000013cc
   24a1c:	00001370 	.word	0x00001370
   24a20:	4817      	ldr	r0, [pc, #92]	@ (24a80 <_start+0x93c>)
   24a22:	4468      	add	r0, sp
   24a24:	78c1      	ldrb	r1, [r0, #3]
   24a26:	ac8c      	add	r4, sp, #560	@ 0x230
   24a28:	70a1      	strb	r1, [r4, #2]
   24a2a:	7841      	ldrb	r1, [r0, #1]
   24a2c:	7882      	ldrb	r2, [r0, #2]
   24a2e:	0212      	lsls	r2, r2, #8
   24a30:	1851      	adds	r1, r2, r1
   24a32:	8021      	strh	r1, [r4, #0]
   24a34:	3008      	adds	r0, #8
   24a36:	9905      	ldr	r1, [sp, #20]
   24a38:	6e09      	ldr	r1, [r1, #96]	@ 0x60
   24a3a:	910b      	str	r1, [sp, #44]	@ 0x2c
   24a3c:	4b11      	ldr	r3, [pc, #68]	@ (24a84 <_start+0x940>)
   24a3e:	446b      	add	r3, sp
   24a40:	930c      	str	r3, [sp, #48]	@ 0x30
   24a42:	c864      	ldmia	r0!, {r2, r5, r6}
   24a44:	c364      	stmia	r3!, {r2, r5, r6}
   24a46:	c866      	ldmia	r0!, {r1, r2, r5, r6}
   24a48:	c366      	stmia	r3!, {r1, r2, r5, r6}
   24a4a:	8800      	ldrh	r0, [r0, #0]
   24a4c:	8018      	strh	r0, [r3, #0]
   24a4e:	990b      	ldr	r1, [sp, #44]	@ 0x2c
   24a50:	0e08      	lsrs	r0, r1, #24
   24a52:	71a0      	strb	r0, [r4, #6]
   24a54:	0c08      	lsrs	r0, r1, #16
   24a56:	7160      	strb	r0, [r4, #5]
   24a58:	0a08      	lsrs	r0, r1, #8
   24a5a:	7120      	strb	r0, [r4, #4]
   24a5c:	70e1      	strb	r1, [r4, #3]
   24a5e:	1de0      	adds	r0, r4, #7
   24a60:	221e      	movs	r2, #30
   24a62:	990c      	ldr	r1, [sp, #48]	@ 0x30
   24a64:	f002 fad1 	bl	2700a <__aeabi_memcpy>
   24a68:	4d05      	ldr	r5, [pc, #20]	@ (24a80 <_start+0x93c>)
   24a6a:	446d      	add	r5, sp
   24a6c:	4628      	mov	r0, r5
   24a6e:	4621      	mov	r1, r4
   24a70:	f7fd fe72 	bl	22758 <_ZN18complex_no_dynamic3app17hafc1b66259955043E>
   24a74:	7828      	ldrb	r0, [r5, #0]
   24a76:	2801      	cmp	r0, #1
   24a78:	d106      	bne.n	24a88 <_start+0x944>
   24a7a:	f002 f8bf 	bl	26bfc <_start+0x2ab8>
   24a7e:	46c0      	nop			@ (mov r8, r8)
   24a80:	000013cc 	.word	0x000013cc
   24a84:	00001370 	.word	0x00001370
   24a88:	4816      	ldr	r0, [pc, #88]	@ (24ae4 <_start+0x9a0>)
   24a8a:	4468      	add	r0, sp
   24a8c:	78c1      	ldrb	r1, [r0, #3]
   24a8e:	ac96      	add	r4, sp, #600	@ 0x258
   24a90:	70a1      	strb	r1, [r4, #2]
   24a92:	7841      	ldrb	r1, [r0, #1]
   24a94:	7882      	ldrb	r2, [r0, #2]
   24a96:	0212      	lsls	r2, r2, #8
   24a98:	1851      	adds	r1, r2, r1
   24a9a:	8021      	strh	r1, [r4, #0]
   24a9c:	3008      	adds	r0, #8
   24a9e:	9905      	ldr	r1, [sp, #20]
   24aa0:	6e09      	ldr	r1, [r1, #96]	@ 0x60
   24aa2:	910b      	str	r1, [sp, #44]	@ 0x2c
   24aa4:	4b10      	ldr	r3, [pc, #64]	@ (24ae8 <_start+0x9a4>)
   24aa6:	446b      	add	r3, sp
   24aa8:	930c      	str	r3, [sp, #48]	@ 0x30
   24aaa:	c866      	ldmia	r0!, {r1, r2, r5, r6}
   24aac:	c366      	stmia	r3!, {r1, r2, r5, r6}
   24aae:	7800      	ldrb	r0, [r0, #0]
   24ab0:	7018      	strb	r0, [r3, #0]
   24ab2:	990b      	ldr	r1, [sp, #44]	@ 0x2c
   24ab4:	0e08      	lsrs	r0, r1, #24
   24ab6:	71a0      	strb	r0, [r4, #6]
   24ab8:	0c08      	lsrs	r0, r1, #16
   24aba:	7160      	strb	r0, [r4, #5]
   24abc:	0a08      	lsrs	r0, r1, #8
   24abe:	7120      	strb	r0, [r4, #4]
   24ac0:	70e1      	strb	r1, [r4, #3]
   24ac2:	1de0      	adds	r0, r4, #7
   24ac4:	2211      	movs	r2, #17
   24ac6:	990c      	ldr	r1, [sp, #48]	@ 0x30
   24ac8:	f002 fa9f 	bl	2700a <__aeabi_memcpy>
   24acc:	4d05      	ldr	r5, [pc, #20]	@ (24ae4 <_start+0x9a0>)
   24ace:	446d      	add	r5, sp
   24ad0:	4628      	mov	r0, r5
   24ad2:	4621      	mov	r1, r4
   24ad4:	f7ff f886 	bl	23be4 <_ZN18complex_no_dynamic3app17hf19b1ef2bd7b2f15E>
   24ad8:	7828      	ldrb	r0, [r5, #0]
   24ada:	2801      	cmp	r0, #1
   24adc:	d106      	bne.n	24aec <_start+0x9a8>
   24ade:	f002 f88d 	bl	26bfc <_start+0x2ab8>
   24ae2:	46c0      	nop			@ (mov r8, r8)
   24ae4:	000013cc 	.word	0x000013cc
   24ae8:	00001370 	.word	0x00001370
   24aec:	4819      	ldr	r0, [pc, #100]	@ (24b54 <_start+0xa10>)
   24aee:	4468      	add	r0, sp
   24af0:	78c1      	ldrb	r1, [r0, #3]
   24af2:	ac9c      	add	r4, sp, #624	@ 0x270
   24af4:	70a1      	strb	r1, [r4, #2]
   24af6:	7841      	ldrb	r1, [r0, #1]
   24af8:	7882      	ldrb	r2, [r0, #2]
   24afa:	0212      	lsls	r2, r2, #8
   24afc:	1851      	adds	r1, r2, r1
   24afe:	8021      	strh	r1, [r4, #0]
   24b00:	3008      	adds	r0, #8
   24b02:	9905      	ldr	r1, [sp, #20]
   24b04:	6e09      	ldr	r1, [r1, #96]	@ 0x60
   24b06:	910b      	str	r1, [sp, #44]	@ 0x2c
   24b08:	4b13      	ldr	r3, [pc, #76]	@ (24b58 <_start+0xa14>)
   24b0a:	446b      	add	r3, sp
   24b0c:	930c      	str	r3, [sp, #48]	@ 0x30
   24b0e:	c864      	ldmia	r0!, {r2, r5, r6}
   24b10:	c364      	stmia	r3!, {r2, r5, r6}
   24b12:	c866      	ldmia	r0!, {r1, r2, r5, r6}
   24b14:	c366      	stmia	r3!, {r1, r2, r5, r6}
   24b16:	c866      	ldmia	r0!, {r1, r2, r5, r6}
   24b18:	c366      	stmia	r3!, {r1, r2, r5, r6}
   24b1a:	8801      	ldrh	r1, [r0, #0]
   24b1c:	8019      	strh	r1, [r3, #0]
   24b1e:	7880      	ldrb	r0, [r0, #2]
   24b20:	7098      	strb	r0, [r3, #2]
   24b22:	990b      	ldr	r1, [sp, #44]	@ 0x2c
   24b24:	0e08      	lsrs	r0, r1, #24
   24b26:	71a0      	strb	r0, [r4, #6]
   24b28:	0c08      	lsrs	r0, r1, #16
   24b2a:	7160      	strb	r0, [r4, #5]
   24b2c:	0a08      	lsrs	r0, r1, #8
   24b2e:	7120      	strb	r0, [r4, #4]
   24b30:	70e1      	strb	r1, [r4, #3]
   24b32:	1de0      	adds	r0, r4, #7
   24b34:	222f      	movs	r2, #47	@ 0x2f
   24b36:	990c      	ldr	r1, [sp, #48]	@ 0x30
   24b38:	f002 fa67 	bl	2700a <__aeabi_memcpy>
   24b3c:	4d05      	ldr	r5, [pc, #20]	@ (24b54 <_start+0xa10>)
   24b3e:	446d      	add	r5, sp
   24b40:	4628      	mov	r0, r5
   24b42:	4621      	mov	r1, r4
   24b44:	f7fe fc9a 	bl	2347c <_ZN18complex_no_dynamic3app17hdbe45dc0f5e484fdE>
   24b48:	7828      	ldrb	r0, [r5, #0]
   24b4a:	2801      	cmp	r0, #1
   24b4c:	d106      	bne.n	24b5c <_start+0xa18>
   24b4e:	f002 f855 	bl	26bfc <_start+0x2ab8>
   24b52:	46c0      	nop			@ (mov r8, r8)
   24b54:	000013cc 	.word	0x000013cc
   24b58:	00001370 	.word	0x00001370
   24b5c:	4818      	ldr	r0, [pc, #96]	@ (24bc0 <_start+0xa7c>)
   24b5e:	4468      	add	r0, sp
   24b60:	78c1      	ldrb	r1, [r0, #3]
   24b62:	acaa      	add	r4, sp, #680	@ 0x2a8
   24b64:	70a1      	strb	r1, [r4, #2]
   24b66:	7841      	ldrb	r1, [r0, #1]
   24b68:	7882      	ldrb	r2, [r0, #2]
   24b6a:	0212      	lsls	r2, r2, #8
   24b6c:	1851      	adds	r1, r2, r1
   24b6e:	8021      	strh	r1, [r4, #0]
   24b70:	3008      	adds	r0, #8
   24b72:	9905      	ldr	r1, [sp, #20]
   24b74:	6e09      	ldr	r1, [r1, #96]	@ 0x60
   24b76:	910b      	str	r1, [sp, #44]	@ 0x2c
   24b78:	4b12      	ldr	r3, [pc, #72]	@ (24bc4 <_start+0xa80>)
   24b7a:	446b      	add	r3, sp
   24b7c:	930c      	str	r3, [sp, #48]	@ 0x30
   24b7e:	c864      	ldmia	r0!, {r2, r5, r6}
   24b80:	c364      	stmia	r3!, {r2, r5, r6}
   24b82:	c866      	ldmia	r0!, {r1, r2, r5, r6}
   24b84:	c366      	stmia	r3!, {r1, r2, r5, r6}
   24b86:	c866      	ldmia	r0!, {r1, r2, r5, r6}
   24b88:	c366      	stmia	r3!, {r1, r2, r5, r6}
   24b8a:	7800      	ldrb	r0, [r0, #0]
   24b8c:	7018      	strb	r0, [r3, #0]
   24b8e:	990b      	ldr	r1, [sp, #44]	@ 0x2c
   24b90:	0e08      	lsrs	r0, r1, #24
   24b92:	71a0      	strb	r0, [r4, #6]
   24b94:	0c08      	lsrs	r0, r1, #16
   24b96:	7160      	strb	r0, [r4, #5]
   24b98:	0a08      	lsrs	r0, r1, #8
   24b9a:	7120      	strb	r0, [r4, #4]
   24b9c:	70e1      	strb	r1, [r4, #3]
   24b9e:	1de0      	adds	r0, r4, #7
   24ba0:	222d      	movs	r2, #45	@ 0x2d
   24ba2:	990c      	ldr	r1, [sp, #48]	@ 0x30
   24ba4:	f002 fa31 	bl	2700a <__aeabi_memcpy>
   24ba8:	4d05      	ldr	r5, [pc, #20]	@ (24bc0 <_start+0xa7c>)
   24baa:	446d      	add	r5, sp
   24bac:	4628      	mov	r0, r5
   24bae:	4621      	mov	r1, r4
   24bb0:	f7fe fb0a 	bl	231c8 <_ZN18complex_no_dynamic3app17hd3c7f530dfeaaeaeE>
   24bb4:	7828      	ldrb	r0, [r5, #0]
   24bb6:	2801      	cmp	r0, #1
   24bb8:	d106      	bne.n	24bc8 <_start+0xa84>
   24bba:	f002 f81f 	bl	26bfc <_start+0x2ab8>
   24bbe:	46c0      	nop			@ (mov r8, r8)
   24bc0:	000013cc 	.word	0x000013cc
   24bc4:	00001370 	.word	0x00001370
   24bc8:	4818      	ldr	r0, [pc, #96]	@ (24c2c <_start+0xae8>)
   24bca:	4468      	add	r0, sp
   24bcc:	78c1      	ldrb	r1, [r0, #3]
   24bce:	acb7      	add	r4, sp, #732	@ 0x2dc
   24bd0:	70a1      	strb	r1, [r4, #2]
   24bd2:	7841      	ldrb	r1, [r0, #1]
   24bd4:	7882      	ldrb	r2, [r0, #2]
   24bd6:	0212      	lsls	r2, r2, #8
   24bd8:	1851      	adds	r1, r2, r1
   24bda:	8021      	strh	r1, [r4, #0]
   24bdc:	3008      	adds	r0, #8
   24bde:	9905      	ldr	r1, [sp, #20]
   24be0:	6e09      	ldr	r1, [r1, #96]	@ 0x60
   24be2:	4b13      	ldr	r3, [pc, #76]	@ (24c30 <_start+0xaec>)
   24be4:	446b      	add	r3, sp
   24be6:	930c      	str	r3, [sp, #48]	@ 0x30
   24be8:	c864      	ldmia	r0!, {r2, r5, r6}
   24bea:	c364      	stmia	r3!, {r2, r5, r6}
   24bec:	c864      	ldmia	r0!, {r2, r5, r6}
   24bee:	c364      	stmia	r3!, {r2, r5, r6}
   24bf0:	c864      	ldmia	r0!, {r2, r5, r6}
   24bf2:	c364      	stmia	r3!, {r2, r5, r6}
   24bf4:	8802      	ldrh	r2, [r0, #0]
   24bf6:	801a      	strh	r2, [r3, #0]
   24bf8:	7880      	ldrb	r0, [r0, #2]
   24bfa:	7098      	strb	r0, [r3, #2]
   24bfc:	0e08      	lsrs	r0, r1, #24
   24bfe:	71a0      	strb	r0, [r4, #6]
   24c00:	0c08      	lsrs	r0, r1, #16
   24c02:	7160      	strb	r0, [r4, #5]
   24c04:	0a08      	lsrs	r0, r1, #8
   24c06:	7120      	strb	r0, [r4, #4]
   24c08:	70e1      	strb	r1, [r4, #3]
   24c0a:	1de0      	adds	r0, r4, #7
   24c0c:	2227      	movs	r2, #39	@ 0x27
   24c0e:	990c      	ldr	r1, [sp, #48]	@ 0x30
   24c10:	f002 f9fb 	bl	2700a <__aeabi_memcpy>
   24c14:	4d05      	ldr	r5, [pc, #20]	@ (24c2c <_start+0xae8>)
   24c16:	446d      	add	r5, sp
   24c18:	4628      	mov	r0, r5
   24c1a:	4621      	mov	r1, r4
   24c1c:	f7fe ff8c 	bl	23b38 <_ZN18complex_no_dynamic3app17hec645b28f37a7949E>
   24c20:	7828      	ldrb	r0, [r5, #0]
   24c22:	2801      	cmp	r0, #1
   24c24:	d106      	bne.n	24c34 <_start+0xaf0>
   24c26:	f001 ffe9 	bl	26bfc <_start+0x2ab8>
   24c2a:	46c0      	nop			@ (mov r8, r8)
   24c2c:	000013cc 	.word	0x000013cc
   24c30:	00001370 	.word	0x00001370
   24c34:	4818      	ldr	r0, [pc, #96]	@ (24c98 <_start+0xb54>)
   24c36:	4468      	add	r0, sp
   24c38:	78c1      	ldrb	r1, [r0, #3]
   24c3a:	acc3      	add	r4, sp, #780	@ 0x30c
   24c3c:	70a1      	strb	r1, [r4, #2]
   24c3e:	7841      	ldrb	r1, [r0, #1]
   24c40:	7882      	ldrb	r2, [r0, #2]
   24c42:	0212      	lsls	r2, r2, #8
   24c44:	1851      	adds	r1, r2, r1
   24c46:	8021      	strh	r1, [r4, #0]
   24c48:	3008      	adds	r0, #8
   24c4a:	9905      	ldr	r1, [sp, #20]
   24c4c:	6e09      	ldr	r1, [r1, #96]	@ 0x60
   24c4e:	910b      	str	r1, [sp, #44]	@ 0x2c
   24c50:	4b12      	ldr	r3, [pc, #72]	@ (24c9c <_start+0xb58>)
   24c52:	446b      	add	r3, sp
   24c54:	930c      	str	r3, [sp, #48]	@ 0x30
   24c56:	c866      	ldmia	r0!, {r1, r2, r5, r6}
   24c58:	c366      	stmia	r3!, {r1, r2, r5, r6}
   24c5a:	c866      	ldmia	r0!, {r1, r2, r5, r6}
   24c5c:	c366      	stmia	r3!, {r1, r2, r5, r6}
   24c5e:	c866      	ldmia	r0!, {r1, r2, r5, r6}
   24c60:	c366      	stmia	r3!, {r1, r2, r5, r6}
   24c62:	7800      	ldrb	r0, [r0, #0]
   24c64:	7018      	strb	r0, [r3, #0]
   24c66:	990b      	ldr	r1, [sp, #44]	@ 0x2c
   24c68:	0e08      	lsrs	r0, r1, #24
   24c6a:	71a0      	strb	r0, [r4, #6]
   24c6c:	0c08      	lsrs	r0, r1, #16
   24c6e:	7160      	strb	r0, [r4, #5]
   24c70:	0a08      	lsrs	r0, r1, #8
   24c72:	7120      	strb	r0, [r4, #4]
   24c74:	70e1      	strb	r1, [r4, #3]
   24c76:	1de0      	adds	r0, r4, #7
   24c78:	2231      	movs	r2, #49	@ 0x31
   24c7a:	990c      	ldr	r1, [sp, #48]	@ 0x30
   24c7c:	f002 f9c5 	bl	2700a <__aeabi_memcpy>
   24c80:	4d05      	ldr	r5, [pc, #20]	@ (24c98 <_start+0xb54>)
   24c82:	446d      	add	r5, sp
   24c84:	4628      	mov	r0, r5
   24c86:	4621      	mov	r1, r4
   24c88:	f7ff f800 	bl	23c8c <_ZN18complex_no_dynamic3app17hf31cec0468ce4736E>
   24c8c:	7828      	ldrb	r0, [r5, #0]
   24c8e:	2801      	cmp	r0, #1
   24c90:	d106      	bne.n	24ca0 <_start+0xb5c>
   24c92:	f001 ffb3 	bl	26bfc <_start+0x2ab8>
   24c96:	46c0      	nop			@ (mov r8, r8)
   24c98:	000013cc 	.word	0x000013cc
   24c9c:	00001370 	.word	0x00001370
   24ca0:	4818      	ldr	r0, [pc, #96]	@ (24d04 <_start+0xbc0>)
   24ca2:	4468      	add	r0, sp
   24ca4:	78c1      	ldrb	r1, [r0, #3]
   24ca6:	acd1      	add	r4, sp, #836	@ 0x344
   24ca8:	70a1      	strb	r1, [r4, #2]
   24caa:	7841      	ldrb	r1, [r0, #1]
   24cac:	7882      	ldrb	r2, [r0, #2]
   24cae:	0212      	lsls	r2, r2, #8
   24cb0:	1851      	adds	r1, r2, r1
   24cb2:	8021      	strh	r1, [r4, #0]
   24cb4:	3008      	adds	r0, #8
   24cb6:	9905      	ldr	r1, [sp, #20]
   24cb8:	6e09      	ldr	r1, [r1, #96]	@ 0x60
   24cba:	910b      	str	r1, [sp, #44]	@ 0x2c
   24cbc:	4b12      	ldr	r3, [pc, #72]	@ (24d08 <_start+0xbc4>)
   24cbe:	446b      	add	r3, sp
   24cc0:	930c      	str	r3, [sp, #48]	@ 0x30
   24cc2:	c864      	ldmia	r0!, {r2, r5, r6}
   24cc4:	c364      	stmia	r3!, {r2, r5, r6}
   24cc6:	c866      	ldmia	r0!, {r1, r2, r5, r6}
   24cc8:	c366      	stmia	r3!, {r1, r2, r5, r6}
   24cca:	c866      	ldmia	r0!, {r1, r2, r5, r6}
   24ccc:	c366      	stmia	r3!, {r1, r2, r5, r6}
   24cce:	7800      	ldrb	r0, [r0, #0]
   24cd0:	7018      	strb	r0, [r3, #0]
   24cd2:	990b      	ldr	r1, [sp, #44]	@ 0x2c
   24cd4:	0e08      	lsrs	r0, r1, #24
   24cd6:	71a0      	strb	r0, [r4, #6]
   24cd8:	0c08      	lsrs	r0, r1, #16
   24cda:	7160      	strb	r0, [r4, #5]
   24cdc:	0a08      	lsrs	r0, r1, #8
   24cde:	7120      	strb	r0, [r4, #4]
   24ce0:	70e1      	strb	r1, [r4, #3]
   24ce2:	1de0      	adds	r0, r4, #7
   24ce4:	222d      	movs	r2, #45	@ 0x2d
   24ce6:	990c      	ldr	r1, [sp, #48]	@ 0x30
   24ce8:	f002 f98f 	bl	2700a <__aeabi_memcpy>
   24cec:	4d05      	ldr	r5, [pc, #20]	@ (24d04 <_start+0xbc0>)
   24cee:	446d      	add	r5, sp
   24cf0:	4628      	mov	r0, r5
   24cf2:	4621      	mov	r1, r4
   24cf4:	f7fd ff38 	bl	22b68 <_ZN18complex_no_dynamic3app17hbd67b73117b1c954E>
   24cf8:	7828      	ldrb	r0, [r5, #0]
   24cfa:	2801      	cmp	r0, #1
   24cfc:	d106      	bne.n	24d0c <_start+0xbc8>
   24cfe:	f001 ff7d 	bl	26bfc <_start+0x2ab8>
   24d02:	46c0      	nop			@ (mov r8, r8)
   24d04:	000013cc 	.word	0x000013cc
   24d08:	00001370 	.word	0x00001370
   24d0c:	4817      	ldr	r0, [pc, #92]	@ (24d6c <_start+0xc28>)
   24d0e:	4468      	add	r0, sp
   24d10:	78c1      	ldrb	r1, [r0, #3]
   24d12:	acde      	add	r4, sp, #888	@ 0x378
   24d14:	70a1      	strb	r1, [r4, #2]
   24d16:	7841      	ldrb	r1, [r0, #1]
   24d18:	7882      	ldrb	r2, [r0, #2]
   24d1a:	0212      	lsls	r2, r2, #8
   24d1c:	1851      	adds	r1, r2, r1
   24d1e:	8021      	strh	r1, [r4, #0]
   24d20:	3008      	adds	r0, #8
   24d22:	9905      	ldr	r1, [sp, #20]
   24d24:	6e09      	ldr	r1, [r1, #96]	@ 0x60
   24d26:	910b      	str	r1, [sp, #44]	@ 0x2c
   24d28:	4b11      	ldr	r3, [pc, #68]	@ (24d70 <_start+0xc2c>)
   24d2a:	446b      	add	r3, sp
   24d2c:	930c      	str	r3, [sp, #48]	@ 0x30
   24d2e:	c866      	ldmia	r0!, {r1, r2, r5, r6}
   24d30:	c366      	stmia	r3!, {r1, r2, r5, r6}
   24d32:	8801      	ldrh	r1, [r0, #0]
   24d34:	8019      	strh	r1, [r3, #0]
   24d36:	7880      	ldrb	r0, [r0, #2]
   24d38:	7098      	strb	r0, [r3, #2]
   24d3a:	990b      	ldr	r1, [sp, #44]	@ 0x2c
   24d3c:	0e08      	lsrs	r0, r1, #24
   24d3e:	71a0      	strb	r0, [r4, #6]
   24d40:	0c08      	lsrs	r0, r1, #16
   24d42:	7160      	strb	r0, [r4, #5]
   24d44:	0a08      	lsrs	r0, r1, #8
   24d46:	7120      	strb	r0, [r4, #4]
   24d48:	70e1      	strb	r1, [r4, #3]
   24d4a:	1de0      	adds	r0, r4, #7
   24d4c:	2213      	movs	r2, #19
   24d4e:	990c      	ldr	r1, [sp, #48]	@ 0x30
   24d50:	f002 f95b 	bl	2700a <__aeabi_memcpy>
   24d54:	4d05      	ldr	r5, [pc, #20]	@ (24d6c <_start+0xc28>)
   24d56:	446d      	add	r5, sp
   24d58:	4628      	mov	r0, r5
   24d5a:	4621      	mov	r1, r4
   24d5c:	f7fc f84a 	bl	20df4 <_ZN18complex_no_dynamic3app17h46ad2f77d8e322b8E>
   24d60:	7828      	ldrb	r0, [r5, #0]
   24d62:	2801      	cmp	r0, #1
   24d64:	d106      	bne.n	24d74 <_start+0xc30>
   24d66:	f001 ff49 	bl	26bfc <_start+0x2ab8>
   24d6a:	46c0      	nop			@ (mov r8, r8)
   24d6c:	000013cc 	.word	0x000013cc
   24d70:	00001370 	.word	0x00001370
   24d74:	4915      	ldr	r1, [pc, #84]	@ (24dcc <_start+0xc88>)
   24d76:	4469      	add	r1, sp
   24d78:	78c8      	ldrb	r0, [r1, #3]
   24d7a:	ace5      	add	r4, sp, #916	@ 0x394
   24d7c:	70a0      	strb	r0, [r4, #2]
   24d7e:	7848      	ldrb	r0, [r1, #1]
   24d80:	788a      	ldrb	r2, [r1, #2]
   24d82:	0212      	lsls	r2, r2, #8
   24d84:	1810      	adds	r0, r2, r0
   24d86:	8020      	strh	r0, [r4, #0]
   24d88:	9805      	ldr	r0, [sp, #20]
   24d8a:	6e05      	ldr	r5, [r0, #96]	@ 0x60
   24d8c:	3108      	adds	r1, #8
   24d8e:	4810      	ldr	r0, [pc, #64]	@ (24dd0 <_start+0xc8c>)
   24d90:	4468      	add	r0, sp
   24d92:	900c      	str	r0, [sp, #48]	@ 0x30
   24d94:	2649      	movs	r6, #73	@ 0x49
   24d96:	4632      	mov	r2, r6
   24d98:	f001 ffd7 	bl	26d4a <__aeabi_memcpy4>
   24d9c:	0e28      	lsrs	r0, r5, #24
   24d9e:	71a0      	strb	r0, [r4, #6]
   24da0:	0c28      	lsrs	r0, r5, #16
   24da2:	7160      	strb	r0, [r4, #5]
   24da4:	0a28      	lsrs	r0, r5, #8
   24da6:	7120      	strb	r0, [r4, #4]
   24da8:	70e5      	strb	r5, [r4, #3]
   24daa:	1de0      	adds	r0, r4, #7
   24dac:	990c      	ldr	r1, [sp, #48]	@ 0x30
   24dae:	4632      	mov	r2, r6
   24db0:	f002 f92b 	bl	2700a <__aeabi_memcpy>
   24db4:	4d05      	ldr	r5, [pc, #20]	@ (24dcc <_start+0xc88>)
   24db6:	446d      	add	r5, sp
   24db8:	4628      	mov	r0, r5
   24dba:	4621      	mov	r1, r4
   24dbc:	f7fe f88c 	bl	22ed8 <_ZN18complex_no_dynamic3app17hca382d4ac57a3ca7E>
   24dc0:	7828      	ldrb	r0, [r5, #0]
   24dc2:	2801      	cmp	r0, #1
   24dc4:	d106      	bne.n	24dd4 <_start+0xc90>
   24dc6:	f001 ff19 	bl	26bfc <_start+0x2ab8>
   24dca:	46c0      	nop			@ (mov r8, r8)
   24dcc:	000013cc 	.word	0x000013cc
   24dd0:	00001370 	.word	0x00001370
   24dd4:	4819      	ldr	r0, [pc, #100]	@ (24e3c <_start+0xcf8>)
   24dd6:	4468      	add	r0, sp
   24dd8:	78c1      	ldrb	r1, [r0, #3]
   24dda:	acf9      	add	r4, sp, #996	@ 0x3e4
   24ddc:	70a1      	strb	r1, [r4, #2]
   24dde:	7841      	ldrb	r1, [r0, #1]
   24de0:	7882      	ldrb	r2, [r0, #2]
   24de2:	0212      	lsls	r2, r2, #8
   24de4:	1851      	adds	r1, r2, r1
   24de6:	8021      	strh	r1, [r4, #0]
   24de8:	3008      	adds	r0, #8
   24dea:	9905      	ldr	r1, [sp, #20]
   24dec:	6e09      	ldr	r1, [r1, #96]	@ 0x60
   24dee:	910b      	str	r1, [sp, #44]	@ 0x2c
   24df0:	4b13      	ldr	r3, [pc, #76]	@ (24e40 <_start+0xcfc>)
   24df2:	446b      	add	r3, sp
   24df4:	930c      	str	r3, [sp, #48]	@ 0x30
   24df6:	c864      	ldmia	r0!, {r2, r5, r6}
   24df8:	c364      	stmia	r3!, {r2, r5, r6}
   24dfa:	c864      	ldmia	r0!, {r2, r5, r6}
   24dfc:	c364      	stmia	r3!, {r2, r5, r6}
   24dfe:	c864      	ldmia	r0!, {r2, r5, r6}
   24e00:	c364      	stmia	r3!, {r2, r5, r6}
   24e02:	c866      	ldmia	r0!, {r1, r2, r5, r6}
   24e04:	c366      	stmia	r3!, {r1, r2, r5, r6}
   24e06:	7800      	ldrb	r0, [r0, #0]
   24e08:	7018      	strb	r0, [r3, #0]
   24e0a:	990b      	ldr	r1, [sp, #44]	@ 0x2c
   24e0c:	0e08      	lsrs	r0, r1, #24
   24e0e:	71a0      	strb	r0, [r4, #6]
   24e10:	0c08      	lsrs	r0, r1, #16
   24e12:	7160      	strb	r0, [r4, #5]
   24e14:	0a08      	lsrs	r0, r1, #8
   24e16:	7120      	strb	r0, [r4, #4]
   24e18:	70e1      	strb	r1, [r4, #3]
   24e1a:	1de0      	adds	r0, r4, #7
   24e1c:	2235      	movs	r2, #53	@ 0x35
   24e1e:	990c      	ldr	r1, [sp, #48]	@ 0x30
   24e20:	f002 f8f3 	bl	2700a <__aeabi_memcpy>
   24e24:	4d05      	ldr	r5, [pc, #20]	@ (24e3c <_start+0xcf8>)
   24e26:	446d      	add	r5, sp
   24e28:	4628      	mov	r0, r5
   24e2a:	4621      	mov	r1, r4
   24e2c:	f7fc fd0e 	bl	2184c <_ZN18complex_no_dynamic3app17h6ad37ca408903647E>
   24e30:	7828      	ldrb	r0, [r5, #0]
   24e32:	2801      	cmp	r0, #1
   24e34:	d106      	bne.n	24e44 <_start+0xd00>
   24e36:	f001 fee1 	bl	26bfc <_start+0x2ab8>
   24e3a:	46c0      	nop			@ (mov r8, r8)
   24e3c:	000013cc 	.word	0x000013cc
   24e40:	00001370 	.word	0x00001370
   24e44:	4819      	ldr	r0, [pc, #100]	@ (24eac <_start+0xd68>)
   24e46:	4468      	add	r0, sp
   24e48:	78c1      	ldrb	r1, [r0, #3]
   24e4a:	acff      	add	r4, sp, #1020	@ 0x3fc
   24e4c:	3424      	adds	r4, #36	@ 0x24
   24e4e:	70a1      	strb	r1, [r4, #2]
   24e50:	7841      	ldrb	r1, [r0, #1]
   24e52:	7882      	ldrb	r2, [r0, #2]
   24e54:	0212      	lsls	r2, r2, #8
   24e56:	1851      	adds	r1, r2, r1
   24e58:	8021      	strh	r1, [r4, #0]
   24e5a:	3008      	adds	r0, #8
   24e5c:	9905      	ldr	r1, [sp, #20]
   24e5e:	6e09      	ldr	r1, [r1, #96]	@ 0x60
   24e60:	910b      	str	r1, [sp, #44]	@ 0x2c
   24e62:	4b13      	ldr	r3, [pc, #76]	@ (24eb0 <_start+0xd6c>)
   24e64:	446b      	add	r3, sp
   24e66:	930c      	str	r3, [sp, #48]	@ 0x30
   24e68:	c864      	ldmia	r0!, {r2, r5, r6}
   24e6a:	c364      	stmia	r3!, {r2, r5, r6}
   24e6c:	c864      	ldmia	r0!, {r2, r5, r6}
   24e6e:	c364      	stmia	r3!, {r2, r5, r6}
   24e70:	c866      	ldmia	r0!, {r1, r2, r5, r6}
   24e72:	c366      	stmia	r3!, {r1, r2, r5, r6}
   24e74:	8801      	ldrh	r1, [r0, #0]
   24e76:	8019      	strh	r1, [r3, #0]
   24e78:	7880      	ldrb	r0, [r0, #2]
   24e7a:	7098      	strb	r0, [r3, #2]
   24e7c:	990b      	ldr	r1, [sp, #44]	@ 0x2c
   24e7e:	0e08      	lsrs	r0, r1, #24
   24e80:	71a0      	strb	r0, [r4, #6]
   24e82:	0c08      	lsrs	r0, r1, #16
   24e84:	7160      	strb	r0, [r4, #5]
   24e86:	0a08      	lsrs	r0, r1, #8
   24e88:	7120      	strb	r0, [r4, #4]
   24e8a:	70e1      	strb	r1, [r4, #3]
   24e8c:	1de0      	adds	r0, r4, #7
   24e8e:	222b      	movs	r2, #43	@ 0x2b
   24e90:	990c      	ldr	r1, [sp, #48]	@ 0x30
   24e92:	f002 f8ba 	bl	2700a <__aeabi_memcpy>
   24e96:	4d05      	ldr	r5, [pc, #20]	@ (24eac <_start+0xd68>)
   24e98:	446d      	add	r5, sp
   24e9a:	4628      	mov	r0, r5
   24e9c:	4621      	mov	r1, r4
   24e9e:	f7fd fc05 	bl	226ac <_ZN18complex_no_dynamic3app17haccd9aa5268cf4deE>
   24ea2:	7828      	ldrb	r0, [r5, #0]
   24ea4:	2801      	cmp	r0, #1
   24ea6:	d105      	bne.n	24eb4 <_start+0xd70>
   24ea8:	f001 fea8 	bl	26bfc <_start+0x2ab8>
   24eac:	000013cc 	.word	0x000013cc
   24eb0:	00001370 	.word	0x00001370
   24eb4:	4819      	ldr	r0, [pc, #100]	@ (24f1c <_start+0xdd8>)
   24eb6:	4468      	add	r0, sp
   24eb8:	78c1      	ldrb	r1, [r0, #3]
   24eba:	acff      	add	r4, sp, #1020	@ 0x3fc
   24ebc:	3458      	adds	r4, #88	@ 0x58
   24ebe:	70a1      	strb	r1, [r4, #2]
   24ec0:	7841      	ldrb	r1, [r0, #1]
   24ec2:	7882      	ldrb	r2, [r0, #2]
   24ec4:	0212      	lsls	r2, r2, #8
   24ec6:	1851      	adds	r1, r2, r1
   24ec8:	8021      	strh	r1, [r4, #0]
   24eca:	3008      	adds	r0, #8
   24ecc:	9905      	ldr	r1, [sp, #20]
   24ece:	6e09      	ldr	r1, [r1, #96]	@ 0x60
   24ed0:	910b      	str	r1, [sp, #44]	@ 0x2c
   24ed2:	4b13      	ldr	r3, [pc, #76]	@ (24f20 <_start+0xddc>)
   24ed4:	446b      	add	r3, sp
   24ed6:	930c      	str	r3, [sp, #48]	@ 0x30
   24ed8:	c864      	ldmia	r0!, {r2, r5, r6}
   24eda:	c364      	stmia	r3!, {r2, r5, r6}
   24edc:	c864      	ldmia	r0!, {r2, r5, r6}
   24ede:	c364      	stmia	r3!, {r2, r5, r6}
   24ee0:	c866      	ldmia	r0!, {r1, r2, r5, r6}
   24ee2:	c366      	stmia	r3!, {r1, r2, r5, r6}
   24ee4:	8801      	ldrh	r1, [r0, #0]
   24ee6:	8019      	strh	r1, [r3, #0]
   24ee8:	7880      	ldrb	r0, [r0, #2]
   24eea:	7098      	strb	r0, [r3, #2]
   24eec:	990b      	ldr	r1, [sp, #44]	@ 0x2c
   24eee:	0e08      	lsrs	r0, r1, #24
   24ef0:	71a0      	strb	r0, [r4, #6]
   24ef2:	0c08      	lsrs	r0, r1, #16
   24ef4:	7160      	strb	r0, [r4, #5]
   24ef6:	0a08      	lsrs	r0, r1, #8
   24ef8:	7120      	strb	r0, [r4, #4]
   24efa:	70e1      	strb	r1, [r4, #3]
   24efc:	1de0      	adds	r0, r4, #7
   24efe:	222b      	movs	r2, #43	@ 0x2b
   24f00:	990c      	ldr	r1, [sp, #48]	@ 0x30
   24f02:	f002 f882 	bl	2700a <__aeabi_memcpy>
   24f06:	4d05      	ldr	r5, [pc, #20]	@ (24f1c <_start+0xdd8>)
   24f08:	446d      	add	r5, sp
   24f0a:	4628      	mov	r0, r5
   24f0c:	4621      	mov	r1, r4
   24f0e:	f7fd fcd3 	bl	228b8 <_ZN18complex_no_dynamic3app17hb088e3d5bebc94f9E>
   24f12:	7828      	ldrb	r0, [r5, #0]
   24f14:	2801      	cmp	r0, #1
   24f16:	d105      	bne.n	24f24 <_start+0xde0>
   24f18:	f001 fe70 	bl	26bfc <_start+0x2ab8>
   24f1c:	000013cc 	.word	0x000013cc
   24f20:	00001370 	.word	0x00001370
   24f24:	4914      	ldr	r1, [pc, #80]	@ (24f78 <_start+0xe34>)
   24f26:	4469      	add	r1, sp
   24f28:	9b05      	ldr	r3, [sp, #20]
   24f2a:	6ed8      	ldr	r0, [r3, #108]	@ 0x6c
   24f2c:	7208      	strb	r0, [r1, #8]
   24f2e:	4813      	ldr	r0, [pc, #76]	@ (24f7c <_start+0xe38>)
   24f30:	4468      	add	r0, sp
   24f32:	78c2      	ldrb	r2, [r0, #3]
   24f34:	acff      	add	r4, sp, #1020	@ 0x3fc
   24f36:	348c      	adds	r4, #140	@ 0x8c
   24f38:	70a2      	strb	r2, [r4, #2]
   24f3a:	7842      	ldrb	r2, [r0, #1]
   24f3c:	7880      	ldrb	r0, [r0, #2]
   24f3e:	0200      	lsls	r0, r0, #8
   24f40:	1880      	adds	r0, r0, r2
   24f42:	8020      	strh	r0, [r4, #0]
   24f44:	6e18      	ldr	r0, [r3, #96]	@ 0x60
   24f46:	70e0      	strb	r0, [r4, #3]
   24f48:	0e02      	lsrs	r2, r0, #24
   24f4a:	71a2      	strb	r2, [r4, #6]
   24f4c:	0c02      	lsrs	r2, r0, #16
   24f4e:	7162      	strb	r2, [r4, #5]
   24f50:	0a00      	lsrs	r0, r0, #8
   24f52:	7120      	strb	r0, [r4, #4]
   24f54:	6e58      	ldr	r0, [r3, #100]	@ 0x64
   24f56:	6e9a      	ldr	r2, [r3, #104]	@ 0x68
   24f58:	c305      	stmia	r3!, {r0, r2}
   24f5a:	1de0      	adds	r0, r4, #7
   24f5c:	2209      	movs	r2, #9
   24f5e:	f002 f854 	bl	2700a <__aeabi_memcpy>
   24f62:	4d06      	ldr	r5, [pc, #24]	@ (24f7c <_start+0xe38>)
   24f64:	446d      	add	r5, sp
   24f66:	4628      	mov	r0, r5
   24f68:	4621      	mov	r1, r4
   24f6a:	f7fc f899 	bl	210a0 <_ZN18complex_no_dynamic3app17h5497072b93726c9dE>
   24f6e:	7828      	ldrb	r0, [r5, #0]
   24f70:	2801      	cmp	r0, #1
   24f72:	d105      	bne.n	24f80 <_start+0xe3c>
   24f74:	f001 fe42 	bl	26bfc <_start+0x2ab8>
   24f78:	00001370 	.word	0x00001370
   24f7c:	000013cc 	.word	0x000013cc
   24f80:	4819      	ldr	r0, [pc, #100]	@ (24fe8 <_start+0xea4>)
   24f82:	4468      	add	r0, sp
   24f84:	78c1      	ldrb	r1, [r0, #3]
   24f86:	acff      	add	r4, sp, #1020	@ 0x3fc
   24f88:	349c      	adds	r4, #156	@ 0x9c
   24f8a:	70a1      	strb	r1, [r4, #2]
   24f8c:	7841      	ldrb	r1, [r0, #1]
   24f8e:	7882      	ldrb	r2, [r0, #2]
   24f90:	0212      	lsls	r2, r2, #8
   24f92:	1851      	adds	r1, r2, r1
   24f94:	8021      	strh	r1, [r4, #0]
   24f96:	3008      	adds	r0, #8
   24f98:	9905      	ldr	r1, [sp, #20]
   24f9a:	6e09      	ldr	r1, [r1, #96]	@ 0x60
   24f9c:	910b      	str	r1, [sp, #44]	@ 0x2c
   24f9e:	4b13      	ldr	r3, [pc, #76]	@ (24fec <_start+0xea8>)
   24fa0:	446b      	add	r3, sp
   24fa2:	930c      	str	r3, [sp, #48]	@ 0x30
   24fa4:	c864      	ldmia	r0!, {r2, r5, r6}
   24fa6:	c364      	stmia	r3!, {r2, r5, r6}
   24fa8:	c866      	ldmia	r0!, {r1, r2, r5, r6}
   24faa:	c366      	stmia	r3!, {r1, r2, r5, r6}
   24fac:	c866      	ldmia	r0!, {r1, r2, r5, r6}
   24fae:	c366      	stmia	r3!, {r1, r2, r5, r6}
   24fb0:	8801      	ldrh	r1, [r0, #0]
   24fb2:	8019      	strh	r1, [r3, #0]
   24fb4:	7880      	ldrb	r0, [r0, #2]
   24fb6:	7098      	strb	r0, [r3, #2]
   24fb8:	990b      	ldr	r1, [sp, #44]	@ 0x2c
   24fba:	0e08      	lsrs	r0, r1, #24
   24fbc:	71a0      	strb	r0, [r4, #6]
   24fbe:	0c08      	lsrs	r0, r1, #16
   24fc0:	7160      	strb	r0, [r4, #5]
   24fc2:	0a08      	lsrs	r0, r1, #8
   24fc4:	7120      	strb	r0, [r4, #4]
   24fc6:	70e1      	strb	r1, [r4, #3]
   24fc8:	1de0      	adds	r0, r4, #7
   24fca:	222f      	movs	r2, #47	@ 0x2f
   24fcc:	990c      	ldr	r1, [sp, #48]	@ 0x30
   24fce:	f002 f81c 	bl	2700a <__aeabi_memcpy>
   24fd2:	4d05      	ldr	r5, [pc, #20]	@ (24fe8 <_start+0xea4>)
   24fd4:	446d      	add	r5, sp
   24fd6:	4628      	mov	r0, r5
   24fd8:	4621      	mov	r1, r4
   24fda:	f7fd fab9 	bl	22550 <_ZN18complex_no_dynamic3app17ha9830834c533b686E>
   24fde:	7828      	ldrb	r0, [r5, #0]
   24fe0:	2801      	cmp	r0, #1
   24fe2:	d105      	bne.n	24ff0 <_start+0xeac>
   24fe4:	f001 fe0a 	bl	26bfc <_start+0x2ab8>
   24fe8:	000013cc 	.word	0x000013cc
   24fec:	00001370 	.word	0x00001370
   24ff0:	9803      	ldr	r0, [sp, #12]
   24ff2:	1cc0      	adds	r0, r0, #3
   24ff4:	4a16      	ldr	r2, [pc, #88]	@ (25050 <_start+0xf0c>)
   24ff6:	446a      	add	r2, sp
   24ff8:	78d3      	ldrb	r3, [r2, #3]
   24ffa:	a9ff      	add	r1, sp, #1020	@ 0x3fc
   24ffc:	31d4      	adds	r1, #212	@ 0xd4
   24ffe:	708b      	strb	r3, [r1, #2]
   25000:	7853      	ldrb	r3, [r2, #1]
   25002:	7892      	ldrb	r2, [r2, #2]
   25004:	0212      	lsls	r2, r2, #8
   25006:	18d2      	adds	r2, r2, r3
   25008:	800a      	strh	r2, [r1, #0]
   2500a:	9c05      	ldr	r4, [sp, #20]
   2500c:	3460      	adds	r4, #96	@ 0x60
   2500e:	cc1c      	ldmia	r4, {r2, r3, r4}
   25010:	0e25      	lsrs	r5, r4, #24
   25012:	72c5      	strb	r5, [r0, #11]
   25014:	0c25      	lsrs	r5, r4, #16
   25016:	7285      	strb	r5, [r0, #10]
   25018:	0a25      	lsrs	r5, r4, #8
   2501a:	7245      	strb	r5, [r0, #9]
   2501c:	7204      	strb	r4, [r0, #8]
   2501e:	0e1c      	lsrs	r4, r3, #24
   25020:	71c4      	strb	r4, [r0, #7]
   25022:	0c1c      	lsrs	r4, r3, #16
   25024:	7184      	strb	r4, [r0, #6]
   25026:	0a1c      	lsrs	r4, r3, #8
   25028:	7144      	strb	r4, [r0, #5]
   2502a:	7103      	strb	r3, [r0, #4]
   2502c:	0e13      	lsrs	r3, r2, #24
   2502e:	70c3      	strb	r3, [r0, #3]
   25030:	0c13      	lsrs	r3, r2, #16
   25032:	7083      	strb	r3, [r0, #2]
   25034:	0a13      	lsrs	r3, r2, #8
   25036:	7043      	strb	r3, [r0, #1]
   25038:	7002      	strb	r2, [r0, #0]
   2503a:	4c05      	ldr	r4, [pc, #20]	@ (25050 <_start+0xf0c>)
   2503c:	446c      	add	r4, sp
   2503e:	4620      	mov	r0, r4
   25040:	f7fc fcb6 	bl	219b0 <_ZN18complex_no_dynamic3app17h6cf773f5c310c178E>
   25044:	7820      	ldrb	r0, [r4, #0]
   25046:	2801      	cmp	r0, #1
   25048:	d104      	bne.n	25054 <_start+0xf10>
   2504a:	f001 fdd7 	bl	26bfc <_start+0x2ab8>
   2504e:	46c0      	nop			@ (mov r8, r8)
   25050:	000013cc 	.word	0x000013cc
   25054:	4813      	ldr	r0, [pc, #76]	@ (250a4 <_start+0xf60>)
   25056:	4468      	add	r0, sp
   25058:	78c1      	ldrb	r1, [r0, #3]
   2505a:	acff      	add	r4, sp, #1020	@ 0x3fc
   2505c:	34e4      	adds	r4, #228	@ 0xe4
   2505e:	70a1      	strb	r1, [r4, #2]
   25060:	7841      	ldrb	r1, [r0, #1]
   25062:	7880      	ldrb	r0, [r0, #2]
   25064:	0200      	lsls	r0, r0, #8
   25066:	1840      	adds	r0, r0, r1
   25068:	8020      	strh	r0, [r4, #0]
   2506a:	9e05      	ldr	r6, [sp, #20]
   2506c:	4633      	mov	r3, r6
   2506e:	3360      	adds	r3, #96	@ 0x60
   25070:	cb0f      	ldmia	r3, {r0, r1, r2, r3}
   25072:	70e0      	strb	r0, [r4, #3]
   25074:	0e05      	lsrs	r5, r0, #24
   25076:	71a5      	strb	r5, [r4, #6]
   25078:	0c05      	lsrs	r5, r0, #16
   2507a:	7165      	strb	r5, [r4, #5]
   2507c:	0a00      	lsrs	r0, r0, #8
   2507e:	7120      	strb	r0, [r4, #4]
   25080:	c60e      	stmia	r6!, {r1, r2, r3}
   25082:	1de0      	adds	r0, r4, #7
   25084:	4908      	ldr	r1, [pc, #32]	@ (250a8 <_start+0xf64>)
   25086:	4469      	add	r1, sp
   25088:	220c      	movs	r2, #12
   2508a:	f001 ffbe 	bl	2700a <__aeabi_memcpy>
   2508e:	4d05      	ldr	r5, [pc, #20]	@ (250a4 <_start+0xf60>)
   25090:	446d      	add	r5, sp
   25092:	4628      	mov	r0, r5
   25094:	4621      	mov	r1, r4
   25096:	f7fd f8e7 	bl	22268 <_ZN18complex_no_dynamic3app17h965d9fdf4ee8e347E>
   2509a:	7828      	ldrb	r0, [r5, #0]
   2509c:	2801      	cmp	r0, #1
   2509e:	d105      	bne.n	250ac <_start+0xf68>
   250a0:	f001 fdac 	bl	26bfc <_start+0x2ab8>
   250a4:	000013cc 	.word	0x000013cc
   250a8:	00001370 	.word	0x00001370
   250ac:	4915      	ldr	r1, [pc, #84]	@ (25104 <_start+0xfc0>)
   250ae:	4469      	add	r1, sp
   250b0:	78c8      	ldrb	r0, [r1, #3]
   250b2:	acff      	add	r4, sp, #1020	@ 0x3fc
   250b4:	34f8      	adds	r4, #248	@ 0xf8
   250b6:	70a0      	strb	r0, [r4, #2]
   250b8:	7848      	ldrb	r0, [r1, #1]
   250ba:	788a      	ldrb	r2, [r1, #2]
   250bc:	0212      	lsls	r2, r2, #8
   250be:	1810      	adds	r0, r2, r0
   250c0:	8020      	strh	r0, [r4, #0]
   250c2:	9805      	ldr	r0, [sp, #20]
   250c4:	6e05      	ldr	r5, [r0, #96]	@ 0x60
   250c6:	3108      	adds	r1, #8
   250c8:	480f      	ldr	r0, [pc, #60]	@ (25108 <_start+0xfc4>)
   250ca:	4468      	add	r0, sp
   250cc:	900c      	str	r0, [sp, #48]	@ 0x30
   250ce:	264e      	movs	r6, #78	@ 0x4e
   250d0:	4632      	mov	r2, r6
   250d2:	f001 fe3a 	bl	26d4a <__aeabi_memcpy4>
   250d6:	0e28      	lsrs	r0, r5, #24
   250d8:	71a0      	strb	r0, [r4, #6]
   250da:	0c28      	lsrs	r0, r5, #16
   250dc:	7160      	strb	r0, [r4, #5]
   250de:	0a28      	lsrs	r0, r5, #8
   250e0:	7120      	strb	r0, [r4, #4]
   250e2:	70e5      	strb	r5, [r4, #3]
   250e4:	1de0      	adds	r0, r4, #7
   250e6:	990c      	ldr	r1, [sp, #48]	@ 0x30
   250e8:	4632      	mov	r2, r6
   250ea:	f001 ff8e 	bl	2700a <__aeabi_memcpy>
   250ee:	4d05      	ldr	r5, [pc, #20]	@ (25104 <_start+0xfc0>)
   250f0:	446d      	add	r5, sp
   250f2:	4628      	mov	r0, r5
   250f4:	4621      	mov	r1, r4
   250f6:	f7fc fafd 	bl	216f4 <_ZN18complex_no_dynamic3app17h662a6afe932d21d0E>
   250fa:	7828      	ldrb	r0, [r5, #0]
   250fc:	2801      	cmp	r0, #1
   250fe:	d105      	bne.n	2510c <_start+0xfc8>
   25100:	f001 fd7c 	bl	26bfc <_start+0x2ab8>
   25104:	000013cc 	.word	0x000013cc
   25108:	00001370 	.word	0x00001370
   2510c:	4819      	ldr	r0, [pc, #100]	@ (25174 <_start+0x1030>)
   2510e:	4468      	add	r0, sp
   25110:	78c1      	ldrb	r1, [r0, #3]
   25112:	4c19      	ldr	r4, [pc, #100]	@ (25178 <_start+0x1034>)
   25114:	446c      	add	r4, sp
   25116:	70a1      	strb	r1, [r4, #2]
   25118:	7841      	ldrb	r1, [r0, #1]
   2511a:	7882      	ldrb	r2, [r0, #2]
   2511c:	0212      	lsls	r2, r2, #8
   2511e:	1851      	adds	r1, r2, r1
   25120:	8021      	strh	r1, [r4, #0]
   25122:	3008      	adds	r0, #8
   25124:	9905      	ldr	r1, [sp, #20]
   25126:	6e09      	ldr	r1, [r1, #96]	@ 0x60
   25128:	910b      	str	r1, [sp, #44]	@ 0x2c
   2512a:	4b14      	ldr	r3, [pc, #80]	@ (2517c <_start+0x1038>)
   2512c:	446b      	add	r3, sp
   2512e:	930c      	str	r3, [sp, #48]	@ 0x30
   25130:	c864      	ldmia	r0!, {r2, r5, r6}
   25132:	c364      	stmia	r3!, {r2, r5, r6}
   25134:	c864      	ldmia	r0!, {r2, r5, r6}
   25136:	c364      	stmia	r3!, {r2, r5, r6}
   25138:	c866      	ldmia	r0!, {r1, r2, r5, r6}
   2513a:	c366      	stmia	r3!, {r1, r2, r5, r6}
   2513c:	8801      	ldrh	r1, [r0, #0]
   2513e:	8019      	strh	r1, [r3, #0]
   25140:	7880      	ldrb	r0, [r0, #2]
   25142:	7098      	strb	r0, [r3, #2]
   25144:	990b      	ldr	r1, [sp, #44]	@ 0x2c
   25146:	0e08      	lsrs	r0, r1, #24
   25148:	71a0      	strb	r0, [r4, #6]
   2514a:	0c08      	lsrs	r0, r1, #16
   2514c:	7160      	strb	r0, [r4, #5]
   2514e:	0a08      	lsrs	r0, r1, #8
   25150:	7120      	strb	r0, [r4, #4]
   25152:	70e1      	strb	r1, [r4, #3]
   25154:	1de0      	adds	r0, r4, #7
   25156:	222b      	movs	r2, #43	@ 0x2b
   25158:	990c      	ldr	r1, [sp, #48]	@ 0x30
   2515a:	f001 ff56 	bl	2700a <__aeabi_memcpy>
   2515e:	4d05      	ldr	r5, [pc, #20]	@ (25174 <_start+0x1030>)
   25160:	446d      	add	r5, sp
   25162:	4628      	mov	r0, r5
   25164:	4621      	mov	r1, r4
   25166:	f7fe ff41 	bl	23fec <_ZN18complex_no_dynamic3app17hf863fb3c44a4dad1E>
   2516a:	7828      	ldrb	r0, [r5, #0]
   2516c:	2801      	cmp	r0, #1
   2516e:	d107      	bne.n	25180 <_start+0x103c>
   25170:	f001 fd44 	bl	26bfc <_start+0x2ab8>
   25174:	000013cc 	.word	0x000013cc
   25178:	0000054c 	.word	0x0000054c
   2517c:	00001370 	.word	0x00001370
   25180:	4819      	ldr	r0, [pc, #100]	@ (251e8 <_start+0x10a4>)
   25182:	4468      	add	r0, sp
   25184:	78c1      	ldrb	r1, [r0, #3]
   25186:	4c19      	ldr	r4, [pc, #100]	@ (251ec <_start+0x10a8>)
   25188:	446c      	add	r4, sp
   2518a:	70a1      	strb	r1, [r4, #2]
   2518c:	7841      	ldrb	r1, [r0, #1]
   2518e:	7882      	ldrb	r2, [r0, #2]
   25190:	0212      	lsls	r2, r2, #8
   25192:	1851      	adds	r1, r2, r1
   25194:	8021      	strh	r1, [r4, #0]
   25196:	3008      	adds	r0, #8
   25198:	9905      	ldr	r1, [sp, #20]
   2519a:	6e09      	ldr	r1, [r1, #96]	@ 0x60
   2519c:	910b      	str	r1, [sp, #44]	@ 0x2c
   2519e:	4b14      	ldr	r3, [pc, #80]	@ (251f0 <_start+0x10ac>)
   251a0:	446b      	add	r3, sp
   251a2:	930c      	str	r3, [sp, #48]	@ 0x30
   251a4:	c864      	ldmia	r0!, {r2, r5, r6}
   251a6:	c364      	stmia	r3!, {r2, r5, r6}
   251a8:	c866      	ldmia	r0!, {r1, r2, r5, r6}
   251aa:	c366      	stmia	r3!, {r1, r2, r5, r6}
   251ac:	c826      	ldmia	r0!, {r1, r2, r5}
   251ae:	c326      	stmia	r3!, {r1, r2, r5}
   251b0:	c866      	ldmia	r0!, {r1, r2, r5, r6}
   251b2:	c366      	stmia	r3!, {r1, r2, r5, r6}
   251b4:	8800      	ldrh	r0, [r0, #0]
   251b6:	8018      	strh	r0, [r3, #0]
   251b8:	990b      	ldr	r1, [sp, #44]	@ 0x2c
   251ba:	0e08      	lsrs	r0, r1, #24
   251bc:	71a0      	strb	r0, [r4, #6]
   251be:	0c08      	lsrs	r0, r1, #16
   251c0:	7160      	strb	r0, [r4, #5]
   251c2:	0a08      	lsrs	r0, r1, #8
   251c4:	7120      	strb	r0, [r4, #4]
   251c6:	70e1      	strb	r1, [r4, #3]
   251c8:	1de0      	adds	r0, r4, #7
   251ca:	223a      	movs	r2, #58	@ 0x3a
   251cc:	990c      	ldr	r1, [sp, #48]	@ 0x30
   251ce:	f001 ff1c 	bl	2700a <__aeabi_memcpy>
   251d2:	4d05      	ldr	r5, [pc, #20]	@ (251e8 <_start+0x10a4>)
   251d4:	446d      	add	r5, sp
   251d6:	4628      	mov	r0, r5
   251d8:	4621      	mov	r1, r4
   251da:	f7fe fc57 	bl	23a8c <_ZN18complex_no_dynamic3app17heb8048e84ad4bb2bE>
   251de:	7828      	ldrb	r0, [r5, #0]
   251e0:	2801      	cmp	r0, #1
   251e2:	d107      	bne.n	251f4 <_start+0x10b0>
   251e4:	f001 fd0a 	bl	26bfc <_start+0x2ab8>
   251e8:	000013cc 	.word	0x000013cc
   251ec:	00000580 	.word	0x00000580
   251f0:	00001370 	.word	0x00001370
   251f4:	4817      	ldr	r0, [pc, #92]	@ (25254 <_start+0x1110>)
   251f6:	4468      	add	r0, sp
   251f8:	78c1      	ldrb	r1, [r0, #3]
   251fa:	4c17      	ldr	r4, [pc, #92]	@ (25258 <_start+0x1114>)
   251fc:	446c      	add	r4, sp
   251fe:	70a1      	strb	r1, [r4, #2]
   25200:	7841      	ldrb	r1, [r0, #1]
   25202:	7882      	ldrb	r2, [r0, #2]
   25204:	0212      	lsls	r2, r2, #8
   25206:	1851      	adds	r1, r2, r1
   25208:	8021      	strh	r1, [r4, #0]
   2520a:	3008      	adds	r0, #8
   2520c:	9905      	ldr	r1, [sp, #20]
   2520e:	6e09      	ldr	r1, [r1, #96]	@ 0x60
   25210:	4b12      	ldr	r3, [pc, #72]	@ (2525c <_start+0x1118>)
   25212:	446b      	add	r3, sp
   25214:	930c      	str	r3, [sp, #48]	@ 0x30
   25216:	c864      	ldmia	r0!, {r2, r5, r6}
   25218:	c364      	stmia	r3!, {r2, r5, r6}
   2521a:	c864      	ldmia	r0!, {r2, r5, r6}
   2521c:	c364      	stmia	r3!, {r2, r5, r6}
   2521e:	8802      	ldrh	r2, [r0, #0]
   25220:	801a      	strh	r2, [r3, #0]
   25222:	7880      	ldrb	r0, [r0, #2]
   25224:	7098      	strb	r0, [r3, #2]
   25226:	0e08      	lsrs	r0, r1, #24
   25228:	71a0      	strb	r0, [r4, #6]
   2522a:	0c08      	lsrs	r0, r1, #16
   2522c:	7160      	strb	r0, [r4, #5]
   2522e:	0a08      	lsrs	r0, r1, #8
   25230:	7120      	strb	r0, [r4, #4]
   25232:	70e1      	strb	r1, [r4, #3]
   25234:	1de0      	adds	r0, r4, #7
   25236:	221b      	movs	r2, #27
   25238:	990c      	ldr	r1, [sp, #48]	@ 0x30
   2523a:	f001 fee6 	bl	2700a <__aeabi_memcpy>
   2523e:	4d05      	ldr	r5, [pc, #20]	@ (25254 <_start+0x1110>)
   25240:	446d      	add	r5, sp
   25242:	4628      	mov	r0, r5
   25244:	4621      	mov	r1, r4
   25246:	f7fc f9ff 	bl	21648 <_ZN18complex_no_dynamic3app17h65b28e225a62d60dE>
   2524a:	7828      	ldrb	r0, [r5, #0]
   2524c:	2801      	cmp	r0, #1
   2524e:	d107      	bne.n	25260 <_start+0x111c>
   25250:	f001 fcd4 	bl	26bfc <_start+0x2ab8>
   25254:	000013cc 	.word	0x000013cc
   25258:	000005c4 	.word	0x000005c4
   2525c:	00001370 	.word	0x00001370
   25260:	4915      	ldr	r1, [pc, #84]	@ (252b8 <_start+0x1174>)
   25262:	4469      	add	r1, sp
   25264:	78c8      	ldrb	r0, [r1, #3]
   25266:	4c15      	ldr	r4, [pc, #84]	@ (252bc <_start+0x1178>)
   25268:	446c      	add	r4, sp
   2526a:	70a0      	strb	r0, [r4, #2]
   2526c:	7848      	ldrb	r0, [r1, #1]
   2526e:	788a      	ldrb	r2, [r1, #2]
   25270:	0212      	lsls	r2, r2, #8
   25272:	1810      	adds	r0, r2, r0
   25274:	8020      	strh	r0, [r4, #0]
   25276:	9805      	ldr	r0, [sp, #20]
   25278:	6e05      	ldr	r5, [r0, #96]	@ 0x60
   2527a:	3108      	adds	r1, #8
   2527c:	4810      	ldr	r0, [pc, #64]	@ (252c0 <_start+0x117c>)
   2527e:	4468      	add	r0, sp
   25280:	900c      	str	r0, [sp, #48]	@ 0x30
   25282:	264a      	movs	r6, #74	@ 0x4a
   25284:	4632      	mov	r2, r6
   25286:	f001 fd60 	bl	26d4a <__aeabi_memcpy4>
   2528a:	0e28      	lsrs	r0, r5, #24
   2528c:	71a0      	strb	r0, [r4, #6]
   2528e:	0c28      	lsrs	r0, r5, #16
   25290:	7160      	strb	r0, [r4, #5]
   25292:	0a28      	lsrs	r0, r5, #8
   25294:	7120      	strb	r0, [r4, #4]
   25296:	70e5      	strb	r5, [r4, #3]
   25298:	1de0      	adds	r0, r4, #7
   2529a:	990c      	ldr	r1, [sp, #48]	@ 0x30
   2529c:	4632      	mov	r2, r6
   2529e:	f001 feb4 	bl	2700a <__aeabi_memcpy>
   252a2:	4d05      	ldr	r5, [pc, #20]	@ (252b8 <_start+0x1174>)
   252a4:	446d      	add	r5, sp
   252a6:	4628      	mov	r0, r5
   252a8:	4621      	mov	r1, r4
   252aa:	f7fc fd2d 	bl	21d08 <_ZN18complex_no_dynamic3app17h81564802f652ac8bE>
   252ae:	7828      	ldrb	r0, [r5, #0]
   252b0:	2801      	cmp	r0, #1
   252b2:	d107      	bne.n	252c4 <_start+0x1180>
   252b4:	f001 fca2 	bl	26bfc <_start+0x2ab8>
   252b8:	000013cc 	.word	0x000013cc
   252bc:	000005e8 	.word	0x000005e8
   252c0:	00001370 	.word	0x00001370
   252c4:	4915      	ldr	r1, [pc, #84]	@ (2531c <_start+0x11d8>)
   252c6:	4469      	add	r1, sp
   252c8:	78c8      	ldrb	r0, [r1, #3]
   252ca:	4c15      	ldr	r4, [pc, #84]	@ (25320 <_start+0x11dc>)
   252cc:	446c      	add	r4, sp
   252ce:	70a0      	strb	r0, [r4, #2]
   252d0:	7848      	ldrb	r0, [r1, #1]
   252d2:	788a      	ldrb	r2, [r1, #2]
   252d4:	0212      	lsls	r2, r2, #8
   252d6:	1810      	adds	r0, r2, r0
   252d8:	8020      	strh	r0, [r4, #0]
   252da:	9805      	ldr	r0, [sp, #20]
   252dc:	6e05      	ldr	r5, [r0, #96]	@ 0x60
   252de:	3108      	adds	r1, #8
   252e0:	4810      	ldr	r0, [pc, #64]	@ (25324 <_start+0x11e0>)
   252e2:	4468      	add	r0, sp
   252e4:	900c      	str	r0, [sp, #48]	@ 0x30
   252e6:	2648      	movs	r6, #72	@ 0x48
   252e8:	4632      	mov	r2, r6
   252ea:	f001 fd2e 	bl	26d4a <__aeabi_memcpy4>
   252ee:	0e28      	lsrs	r0, r5, #24
   252f0:	71a0      	strb	r0, [r4, #6]
   252f2:	0c28      	lsrs	r0, r5, #16
   252f4:	7160      	strb	r0, [r4, #5]
   252f6:	0a28      	lsrs	r0, r5, #8
   252f8:	7120      	strb	r0, [r4, #4]
   252fa:	70e5      	strb	r5, [r4, #3]
   252fc:	1de0      	adds	r0, r4, #7
   252fe:	990c      	ldr	r1, [sp, #48]	@ 0x30
   25300:	4632      	mov	r2, r6
   25302:	f001 fe82 	bl	2700a <__aeabi_memcpy>
   25306:	4d05      	ldr	r5, [pc, #20]	@ (2531c <_start+0x11d8>)
   25308:	446d      	add	r5, sp
   2530a:	4628      	mov	r0, r5
   2530c:	4621      	mov	r1, r4
   2530e:	f7fe f9b7 	bl	23680 <_ZN18complex_no_dynamic3app17he196ac98c1577690E>
   25312:	7828      	ldrb	r0, [r5, #0]
   25314:	2801      	cmp	r0, #1
   25316:	d107      	bne.n	25328 <_start+0x11e4>
   25318:	f001 fc70 	bl	26bfc <_start+0x2ab8>
   2531c:	000013cc 	.word	0x000013cc
   25320:	0000063c 	.word	0x0000063c
   25324:	00001370 	.word	0x00001370
   25328:	4818      	ldr	r0, [pc, #96]	@ (2538c <_start+0x1248>)
   2532a:	4468      	add	r0, sp
   2532c:	78c1      	ldrb	r1, [r0, #3]
   2532e:	4c18      	ldr	r4, [pc, #96]	@ (25390 <_start+0x124c>)
   25330:	446c      	add	r4, sp
   25332:	70a1      	strb	r1, [r4, #2]
   25334:	7841      	ldrb	r1, [r0, #1]
   25336:	7882      	ldrb	r2, [r0, #2]
   25338:	0212      	lsls	r2, r2, #8
   2533a:	1851      	adds	r1, r2, r1
   2533c:	8021      	strh	r1, [r4, #0]
   2533e:	3008      	adds	r0, #8
   25340:	9905      	ldr	r1, [sp, #20]
   25342:	6e09      	ldr	r1, [r1, #96]	@ 0x60
   25344:	910b      	str	r1, [sp, #44]	@ 0x2c
   25346:	4b13      	ldr	r3, [pc, #76]	@ (25394 <_start+0x1250>)
   25348:	446b      	add	r3, sp
   2534a:	930c      	str	r3, [sp, #48]	@ 0x30
   2534c:	c864      	ldmia	r0!, {r2, r5, r6}
   2534e:	c364      	stmia	r3!, {r2, r5, r6}
   25350:	c864      	ldmia	r0!, {r2, r5, r6}
   25352:	c364      	stmia	r3!, {r2, r5, r6}
   25354:	c864      	ldmia	r0!, {r2, r5, r6}
   25356:	c364      	stmia	r3!, {r2, r5, r6}
   25358:	c866      	ldmia	r0!, {r1, r2, r5, r6}
   2535a:	c366      	stmia	r3!, {r1, r2, r5, r6}
   2535c:	990b      	ldr	r1, [sp, #44]	@ 0x2c
   2535e:	0e08      	lsrs	r0, r1, #24
   25360:	71a0      	strb	r0, [r4, #6]
   25362:	0c08      	lsrs	r0, r1, #16
   25364:	7160      	strb	r0, [r4, #5]
   25366:	0a08      	lsrs	r0, r1, #8
   25368:	7120      	strb	r0, [r4, #4]
   2536a:	70e1      	strb	r1, [r4, #3]
   2536c:	1de0      	adds	r0, r4, #7
   2536e:	2234      	movs	r2, #52	@ 0x34
   25370:	990c      	ldr	r1, [sp, #48]	@ 0x30
   25372:	f001 fe4a 	bl	2700a <__aeabi_memcpy>
   25376:	4d05      	ldr	r5, [pc, #20]	@ (2538c <_start+0x1248>)
   25378:	446d      	add	r5, sp
   2537a:	4628      	mov	r0, r5
   2537c:	4621      	mov	r1, r4
   2537e:	f7fb fde3 	bl	20f48 <_ZN18complex_no_dynamic3app17h50256c4159bb93baE>
   25382:	7828      	ldrb	r0, [r5, #0]
   25384:	2801      	cmp	r0, #1
   25386:	d107      	bne.n	25398 <_start+0x1254>
   25388:	f001 fc38 	bl	26bfc <_start+0x2ab8>
   2538c:	000013cc 	.word	0x000013cc
   25390:	0000068c 	.word	0x0000068c
   25394:	00001370 	.word	0x00001370
   25398:	4816      	ldr	r0, [pc, #88]	@ (253f4 <_start+0x12b0>)
   2539a:	4468      	add	r0, sp
   2539c:	78c1      	ldrb	r1, [r0, #3]
   2539e:	4c16      	ldr	r4, [pc, #88]	@ (253f8 <_start+0x12b4>)
   253a0:	446c      	add	r4, sp
   253a2:	70a1      	strb	r1, [r4, #2]
   253a4:	7841      	ldrb	r1, [r0, #1]
   253a6:	7882      	ldrb	r2, [r0, #2]
   253a8:	0212      	lsls	r2, r2, #8
   253aa:	1851      	adds	r1, r2, r1
   253ac:	8021      	strh	r1, [r4, #0]
   253ae:	3008      	adds	r0, #8
   253b0:	9905      	ldr	r1, [sp, #20]
   253b2:	6e09      	ldr	r1, [r1, #96]	@ 0x60
   253b4:	910b      	str	r1, [sp, #44]	@ 0x2c
   253b6:	4b11      	ldr	r3, [pc, #68]	@ (253fc <_start+0x12b8>)
   253b8:	446b      	add	r3, sp
   253ba:	930c      	str	r3, [sp, #48]	@ 0x30
   253bc:	c866      	ldmia	r0!, {r1, r2, r5, r6}
   253be:	c366      	stmia	r3!, {r1, r2, r5, r6}
   253c0:	c866      	ldmia	r0!, {r1, r2, r5, r6}
   253c2:	c366      	stmia	r3!, {r1, r2, r5, r6}
   253c4:	990b      	ldr	r1, [sp, #44]	@ 0x2c
   253c6:	0e08      	lsrs	r0, r1, #24
   253c8:	71a0      	strb	r0, [r4, #6]
   253ca:	0c08      	lsrs	r0, r1, #16
   253cc:	7160      	strb	r0, [r4, #5]
   253ce:	0a08      	lsrs	r0, r1, #8
   253d0:	7120      	strb	r0, [r4, #4]
   253d2:	70e1      	strb	r1, [r4, #3]
   253d4:	1de0      	adds	r0, r4, #7
   253d6:	2220      	movs	r2, #32
   253d8:	990c      	ldr	r1, [sp, #48]	@ 0x30
   253da:	f001 fe16 	bl	2700a <__aeabi_memcpy>
   253de:	4d05      	ldr	r5, [pc, #20]	@ (253f4 <_start+0x12b0>)
   253e0:	446d      	add	r5, sp
   253e2:	4628      	mov	r0, r5
   253e4:	4621      	mov	r1, r4
   253e6:	f7fe fca7 	bl	23d38 <_ZN18complex_no_dynamic3app17hf49252e33484aa7cE>
   253ea:	7828      	ldrb	r0, [r5, #0]
   253ec:	2801      	cmp	r0, #1
   253ee:	d107      	bne.n	25400 <_start+0x12bc>
   253f0:	f001 fc04 	bl	26bfc <_start+0x2ab8>
   253f4:	000013cc 	.word	0x000013cc
   253f8:	000006c8 	.word	0x000006c8
   253fc:	00001370 	.word	0x00001370
   25400:	4915      	ldr	r1, [pc, #84]	@ (25458 <_start+0x1314>)
   25402:	4469      	add	r1, sp
   25404:	9d05      	ldr	r5, [sp, #20]
   25406:	6f28      	ldr	r0, [r5, #112]	@ 0x70
   25408:	7308      	strb	r0, [r1, #12]
   2540a:	4814      	ldr	r0, [pc, #80]	@ (2545c <_start+0x1318>)
   2540c:	4468      	add	r0, sp
   2540e:	78c2      	ldrb	r2, [r0, #3]
   25410:	4c13      	ldr	r4, [pc, #76]	@ (25460 <_start+0x131c>)
   25412:	446c      	add	r4, sp
   25414:	70a2      	strb	r2, [r4, #2]
   25416:	7842      	ldrb	r2, [r0, #1]
   25418:	7880      	ldrb	r0, [r0, #2]
   2541a:	0200      	lsls	r0, r0, #8
   2541c:	1880      	adds	r0, r0, r2
   2541e:	8020      	strh	r0, [r4, #0]
   25420:	6e28      	ldr	r0, [r5, #96]	@ 0x60
   25422:	70e0      	strb	r0, [r4, #3]
   25424:	0e02      	lsrs	r2, r0, #24
   25426:	71a2      	strb	r2, [r4, #6]
   25428:	0c02      	lsrs	r2, r0, #16
   2542a:	7162      	strb	r2, [r4, #5]
   2542c:	0a00      	lsrs	r0, r0, #8
   2542e:	7120      	strb	r0, [r4, #4]
   25430:	462b      	mov	r3, r5
   25432:	3364      	adds	r3, #100	@ 0x64
   25434:	cb0d      	ldmia	r3, {r0, r2, r3}
   25436:	c50d      	stmia	r5!, {r0, r2, r3}
   25438:	1de0      	adds	r0, r4, #7
   2543a:	220d      	movs	r2, #13
   2543c:	f001 fde5 	bl	2700a <__aeabi_memcpy>
   25440:	4d06      	ldr	r5, [pc, #24]	@ (2545c <_start+0x1318>)
   25442:	446d      	add	r5, sp
   25444:	4628      	mov	r0, r5
   25446:	4621      	mov	r1, r4
   25448:	f7fa ff54 	bl	202f4 <_ZN18complex_no_dynamic3app17h08bbc9e5a879e820E>
   2544c:	7828      	ldrb	r0, [r5, #0]
   2544e:	2801      	cmp	r0, #1
   25450:	d108      	bne.n	25464 <_start+0x1320>
   25452:	f001 fbd3 	bl	26bfc <_start+0x2ab8>
   25456:	46c0      	nop			@ (mov r8, r8)
   25458:	00001370 	.word	0x00001370
   2545c:	000013cc 	.word	0x000013cc
   25460:	000006f0 	.word	0x000006f0
   25464:	4816      	ldr	r0, [pc, #88]	@ (254c0 <_start+0x137c>)
   25466:	4468      	add	r0, sp
   25468:	78c1      	ldrb	r1, [r0, #3]
   2546a:	4c16      	ldr	r4, [pc, #88]	@ (254c4 <_start+0x1380>)
   2546c:	446c      	add	r4, sp
   2546e:	70a1      	strb	r1, [r4, #2]
   25470:	7841      	ldrb	r1, [r0, #1]
   25472:	7882      	ldrb	r2, [r0, #2]
   25474:	0212      	lsls	r2, r2, #8
   25476:	1851      	adds	r1, r2, r1
   25478:	8021      	strh	r1, [r4, #0]
   2547a:	3008      	adds	r0, #8
   2547c:	9905      	ldr	r1, [sp, #20]
   2547e:	6e09      	ldr	r1, [r1, #96]	@ 0x60
   25480:	4b11      	ldr	r3, [pc, #68]	@ (254c8 <_start+0x1384>)
   25482:	446b      	add	r3, sp
   25484:	930c      	str	r3, [sp, #48]	@ 0x30
   25486:	c864      	ldmia	r0!, {r2, r5, r6}
   25488:	c364      	stmia	r3!, {r2, r5, r6}
   2548a:	c864      	ldmia	r0!, {r2, r5, r6}
   2548c:	c364      	stmia	r3!, {r2, r5, r6}
   2548e:	c864      	ldmia	r0!, {r2, r5, r6}
   25490:	c364      	stmia	r3!, {r2, r5, r6}
   25492:	0e08      	lsrs	r0, r1, #24
   25494:	71a0      	strb	r0, [r4, #6]
   25496:	0c08      	lsrs	r0, r1, #16
   25498:	7160      	strb	r0, [r4, #5]
   2549a:	0a08      	lsrs	r0, r1, #8
   2549c:	7120      	strb	r0, [r4, #4]
   2549e:	70e1      	strb	r1, [r4, #3]
   254a0:	1de0      	adds	r0, r4, #7
   254a2:	2224      	movs	r2, #36	@ 0x24
   254a4:	990c      	ldr	r1, [sp, #48]	@ 0x30
   254a6:	f001 fdb0 	bl	2700a <__aeabi_memcpy>
   254aa:	4d05      	ldr	r5, [pc, #20]	@ (254c0 <_start+0x137c>)
   254ac:	446d      	add	r5, sp
   254ae:	4628      	mov	r0, r5
   254b0:	4621      	mov	r1, r4
   254b2:	f7fd fc09 	bl	22cc8 <_ZN18complex_no_dynamic3app17hc00d582144b72b01E>
   254b6:	7828      	ldrb	r0, [r5, #0]
   254b8:	2801      	cmp	r0, #1
   254ba:	d107      	bne.n	254cc <_start+0x1388>
   254bc:	f001 fb9e 	bl	26bfc <_start+0x2ab8>
   254c0:	000013cc 	.word	0x000013cc
   254c4:	00000704 	.word	0x00000704
   254c8:	00001370 	.word	0x00001370
   254cc:	4817      	ldr	r0, [pc, #92]	@ (2552c <_start+0x13e8>)
   254ce:	4468      	add	r0, sp
   254d0:	78c1      	ldrb	r1, [r0, #3]
   254d2:	4c17      	ldr	r4, [pc, #92]	@ (25530 <_start+0x13ec>)
   254d4:	446c      	add	r4, sp
   254d6:	70a1      	strb	r1, [r4, #2]
   254d8:	7841      	ldrb	r1, [r0, #1]
   254da:	7882      	ldrb	r2, [r0, #2]
   254dc:	0212      	lsls	r2, r2, #8
   254de:	1851      	adds	r1, r2, r1
   254e0:	8021      	strh	r1, [r4, #0]
   254e2:	3008      	adds	r0, #8
   254e4:	9905      	ldr	r1, [sp, #20]
   254e6:	6e09      	ldr	r1, [r1, #96]	@ 0x60
   254e8:	4b12      	ldr	r3, [pc, #72]	@ (25534 <_start+0x13f0>)
   254ea:	446b      	add	r3, sp
   254ec:	930c      	str	r3, [sp, #48]	@ 0x30
   254ee:	c860      	ldmia	r0!, {r5, r6}
   254f0:	c360      	stmia	r3!, {r5, r6}
   254f2:	c864      	ldmia	r0!, {r2, r5, r6}
   254f4:	c364      	stmia	r3!, {r2, r5, r6}
   254f6:	8802      	ldrh	r2, [r0, #0]
   254f8:	801a      	strh	r2, [r3, #0]
   254fa:	7880      	ldrb	r0, [r0, #2]
   254fc:	7098      	strb	r0, [r3, #2]
   254fe:	0e08      	lsrs	r0, r1, #24
   25500:	71a0      	strb	r0, [r4, #6]
   25502:	0c08      	lsrs	r0, r1, #16
   25504:	7160      	strb	r0, [r4, #5]
   25506:	0a08      	lsrs	r0, r1, #8
   25508:	7120      	strb	r0, [r4, #4]
   2550a:	70e1      	strb	r1, [r4, #3]
   2550c:	1de0      	adds	r0, r4, #7
   2550e:	2217      	movs	r2, #23
   25510:	990c      	ldr	r1, [sp, #48]	@ 0x30
   25512:	f001 fd7a 	bl	2700a <__aeabi_memcpy>
   25516:	4d05      	ldr	r5, [pc, #20]	@ (2552c <_start+0x13e8>)
   25518:	446d      	add	r5, sp
   2551a:	4628      	mov	r0, r5
   2551c:	4621      	mov	r1, r4
   2551e:	f7fc fc9d 	bl	21e5c <_ZN18complex_no_dynamic3app17h8818fe7c7d1f9cdcE>
   25522:	7828      	ldrb	r0, [r5, #0]
   25524:	2801      	cmp	r0, #1
   25526:	d107      	bne.n	25538 <_start+0x13f4>
   25528:	f001 fb68 	bl	26bfc <_start+0x2ab8>
   2552c:	000013cc 	.word	0x000013cc
   25530:	00000730 	.word	0x00000730
   25534:	00001370 	.word	0x00001370
   25538:	4915      	ldr	r1, [pc, #84]	@ (25590 <_start+0x144c>)
   2553a:	4469      	add	r1, sp
   2553c:	78c8      	ldrb	r0, [r1, #3]
   2553e:	4c15      	ldr	r4, [pc, #84]	@ (25594 <_start+0x1450>)
   25540:	446c      	add	r4, sp
   25542:	70a0      	strb	r0, [r4, #2]
   25544:	7848      	ldrb	r0, [r1, #1]
   25546:	788a      	ldrb	r2, [r1, #2]
   25548:	0212      	lsls	r2, r2, #8
   2554a:	1810      	adds	r0, r2, r0
   2554c:	8020      	strh	r0, [r4, #0]
   2554e:	9805      	ldr	r0, [sp, #20]
   25550:	6e05      	ldr	r5, [r0, #96]	@ 0x60
   25552:	3108      	adds	r1, #8
   25554:	4810      	ldr	r0, [pc, #64]	@ (25598 <_start+0x1454>)
   25556:	4468      	add	r0, sp
   25558:	900c      	str	r0, [sp, #48]	@ 0x30
   2555a:	264a      	movs	r6, #74	@ 0x4a
   2555c:	4632      	mov	r2, r6
   2555e:	f001 fbf4 	bl	26d4a <__aeabi_memcpy4>
   25562:	0e28      	lsrs	r0, r5, #24
   25564:	71a0      	strb	r0, [r4, #6]
   25566:	0c28      	lsrs	r0, r5, #16
   25568:	7160      	strb	r0, [r4, #5]
   2556a:	0a28      	lsrs	r0, r5, #8
   2556c:	7120      	strb	r0, [r4, #4]
   2556e:	70e5      	strb	r5, [r4, #3]
   25570:	1de0      	adds	r0, r4, #7
   25572:	990c      	ldr	r1, [sp, #48]	@ 0x30
   25574:	4632      	mov	r2, r6
   25576:	f001 fd48 	bl	2700a <__aeabi_memcpy>
   2557a:	4d05      	ldr	r5, [pc, #20]	@ (25590 <_start+0x144c>)
   2557c:	446d      	add	r5, sp
   2557e:	4628      	mov	r0, r5
   25580:	4621      	mov	r1, r4
   25582:	f7fc fe19 	bl	221b8 <_ZN18complex_no_dynamic3app17h925a8450f924a8faE>
   25586:	7828      	ldrb	r0, [r5, #0]
   25588:	2801      	cmp	r0, #1
   2558a:	d107      	bne.n	2559c <_start+0x1458>
   2558c:	f001 fb36 	bl	26bfc <_start+0x2ab8>
   25590:	000013cc 	.word	0x000013cc
   25594:	00000750 	.word	0x00000750
   25598:	00001370 	.word	0x00001370
   2559c:	9804      	ldr	r0, [sp, #16]
   2559e:	1cc0      	adds	r0, r0, #3
   255a0:	4a16      	ldr	r2, [pc, #88]	@ (255fc <_start+0x14b8>)
   255a2:	446a      	add	r2, sp
   255a4:	78d3      	ldrb	r3, [r2, #3]
   255a6:	4916      	ldr	r1, [pc, #88]	@ (25600 <_start+0x14bc>)
   255a8:	4469      	add	r1, sp
   255aa:	708b      	strb	r3, [r1, #2]
   255ac:	7853      	ldrb	r3, [r2, #1]
   255ae:	7892      	ldrb	r2, [r2, #2]
   255b0:	0212      	lsls	r2, r2, #8
   255b2:	18d2      	adds	r2, r2, r3
   255b4:	800a      	strh	r2, [r1, #0]
   255b6:	9c05      	ldr	r4, [sp, #20]
   255b8:	3460      	adds	r4, #96	@ 0x60
   255ba:	cc1c      	ldmia	r4, {r2, r3, r4}
   255bc:	0e25      	lsrs	r5, r4, #24
   255be:	72c5      	strb	r5, [r0, #11]
   255c0:	0c25      	lsrs	r5, r4, #16
   255c2:	7285      	strb	r5, [r0, #10]
   255c4:	0a25      	lsrs	r5, r4, #8
   255c6:	7245      	strb	r5, [r0, #9]
   255c8:	7204      	strb	r4, [r0, #8]
   255ca:	0e1c      	lsrs	r4, r3, #24
   255cc:	71c4      	strb	r4, [r0, #7]
   255ce:	0c1c      	lsrs	r4, r3, #16
   255d0:	7184      	strb	r4, [r0, #6]
   255d2:	0a1c      	lsrs	r4, r3, #8
   255d4:	7144      	strb	r4, [r0, #5]
   255d6:	7103      	strb	r3, [r0, #4]
   255d8:	0e13      	lsrs	r3, r2, #24
   255da:	70c3      	strb	r3, [r0, #3]
   255dc:	0c13      	lsrs	r3, r2, #16
   255de:	7083      	strb	r3, [r0, #2]
   255e0:	0a13      	lsrs	r3, r2, #8
   255e2:	7043      	strb	r3, [r0, #1]
   255e4:	7002      	strb	r2, [r0, #0]
   255e6:	4c05      	ldr	r4, [pc, #20]	@ (255fc <_start+0x14b8>)
   255e8:	446c      	add	r4, sp
   255ea:	4620      	mov	r0, r4
   255ec:	f7fb fed6 	bl	2139c <_ZN18complex_no_dynamic3app17h60f0dae30b7881e6E>
   255f0:	7820      	ldrb	r0, [r4, #0]
   255f2:	2801      	cmp	r0, #1
   255f4:	d106      	bne.n	25604 <_start+0x14c0>
   255f6:	f001 fb01 	bl	26bfc <_start+0x2ab8>
   255fa:	46c0      	nop			@ (mov r8, r8)
   255fc:	000013cc 	.word	0x000013cc
   25600:	000007a4 	.word	0x000007a4
   25604:	481a      	ldr	r0, [pc, #104]	@ (25670 <_start+0x152c>)
   25606:	4468      	add	r0, sp
   25608:	78c1      	ldrb	r1, [r0, #3]
   2560a:	4c1a      	ldr	r4, [pc, #104]	@ (25674 <_start+0x1530>)
   2560c:	446c      	add	r4, sp
   2560e:	70a1      	strb	r1, [r4, #2]
   25610:	7841      	ldrb	r1, [r0, #1]
   25612:	7882      	ldrb	r2, [r0, #2]
   25614:	0212      	lsls	r2, r2, #8
   25616:	1851      	adds	r1, r2, r1
   25618:	8021      	strh	r1, [r4, #0]
   2561a:	3008      	adds	r0, #8
   2561c:	9905      	ldr	r1, [sp, #20]
   2561e:	6e09      	ldr	r1, [r1, #96]	@ 0x60
   25620:	910b      	str	r1, [sp, #44]	@ 0x2c
   25622:	4b15      	ldr	r3, [pc, #84]	@ (25678 <_start+0x1534>)
   25624:	446b      	add	r3, sp
   25626:	930c      	str	r3, [sp, #48]	@ 0x30
   25628:	c864      	ldmia	r0!, {r2, r5, r6}
   2562a:	c364      	stmia	r3!, {r2, r5, r6}
   2562c:	c866      	ldmia	r0!, {r1, r2, r5, r6}
   2562e:	c366      	stmia	r3!, {r1, r2, r5, r6}
   25630:	c866      	ldmia	r0!, {r1, r2, r5, r6}
   25632:	c366      	stmia	r3!, {r1, r2, r5, r6}
   25634:	c866      	ldmia	r0!, {r1, r2, r5, r6}
   25636:	c366      	stmia	r3!, {r1, r2, r5, r6}
   25638:	8801      	ldrh	r1, [r0, #0]
   2563a:	8019      	strh	r1, [r3, #0]
   2563c:	7880      	ldrb	r0, [r0, #2]
   2563e:	7098      	strb	r0, [r3, #2]
   25640:	990b      	ldr	r1, [sp, #44]	@ 0x2c
   25642:	0e08      	lsrs	r0, r1, #24
   25644:	71a0      	strb	r0, [r4, #6]
   25646:	0c08      	lsrs	r0, r1, #16
   25648:	7160      	strb	r0, [r4, #5]
   2564a:	0a08      	lsrs	r0, r1, #8
   2564c:	7120      	strb	r0, [r4, #4]
   2564e:	70e1      	strb	r1, [r4, #3]
   25650:	1de0      	adds	r0, r4, #7
   25652:	223f      	movs	r2, #63	@ 0x3f
   25654:	990c      	ldr	r1, [sp, #48]	@ 0x30
   25656:	f001 fcd8 	bl	2700a <__aeabi_memcpy>
   2565a:	4d05      	ldr	r5, [pc, #20]	@ (25670 <_start+0x152c>)
   2565c:	446d      	add	r5, sp
   2565e:	4628      	mov	r0, r5
   25660:	4621      	mov	r1, r4
   25662:	f7fe fbc1 	bl	23de8 <_ZN18complex_no_dynamic3app17hf6b098e37aad75eaE>
   25666:	7828      	ldrb	r0, [r5, #0]
   25668:	2801      	cmp	r0, #1
   2566a:	d107      	bne.n	2567c <_start+0x1538>
   2566c:	f001 fac6 	bl	26bfc <_start+0x2ab8>
   25670:	000013cc 	.word	0x000013cc
   25674:	000007b4 	.word	0x000007b4
   25678:	00001370 	.word	0x00001370
   2567c:	4915      	ldr	r1, [pc, #84]	@ (256d4 <_start+0x1590>)
   2567e:	4469      	add	r1, sp
   25680:	78c8      	ldrb	r0, [r1, #3]
   25682:	4c15      	ldr	r4, [pc, #84]	@ (256d8 <_start+0x1594>)
   25684:	446c      	add	r4, sp
   25686:	70a0      	strb	r0, [r4, #2]
   25688:	7848      	ldrb	r0, [r1, #1]
   2568a:	788a      	ldrb	r2, [r1, #2]
   2568c:	0212      	lsls	r2, r2, #8
   2568e:	1810      	adds	r0, r2, r0
   25690:	8020      	strh	r0, [r4, #0]
   25692:	9805      	ldr	r0, [sp, #20]
   25694:	6e05      	ldr	r5, [r0, #96]	@ 0x60
   25696:	3108      	adds	r1, #8
   25698:	4810      	ldr	r0, [pc, #64]	@ (256dc <_start+0x1598>)
   2569a:	4468      	add	r0, sp
   2569c:	900c      	str	r0, [sp, #48]	@ 0x30
   2569e:	264f      	movs	r6, #79	@ 0x4f
   256a0:	4632      	mov	r2, r6
   256a2:	f001 fb52 	bl	26d4a <__aeabi_memcpy4>
   256a6:	0e28      	lsrs	r0, r5, #24
   256a8:	71a0      	strb	r0, [r4, #6]
   256aa:	0c28      	lsrs	r0, r5, #16
   256ac:	7160      	strb	r0, [r4, #5]
   256ae:	0a28      	lsrs	r0, r5, #8
   256b0:	7120      	strb	r0, [r4, #4]
   256b2:	70e5      	strb	r5, [r4, #3]
   256b4:	1de0      	adds	r0, r4, #7
   256b6:	990c      	ldr	r1, [sp, #48]	@ 0x30
   256b8:	4632      	mov	r2, r6
   256ba:	f001 fca6 	bl	2700a <__aeabi_memcpy>
   256be:	4d05      	ldr	r5, [pc, #20]	@ (256d4 <_start+0x1590>)
   256c0:	446d      	add	r5, sp
   256c2:	4628      	mov	r0, r5
   256c4:	4621      	mov	r1, r4
   256c6:	f7fe fce7 	bl	24098 <_ZN18complex_no_dynamic3app17hfb590aa33578e15dE>
   256ca:	7828      	ldrb	r0, [r5, #0]
   256cc:	2801      	cmp	r0, #1
   256ce:	d107      	bne.n	256e0 <_start+0x159c>
   256d0:	f001 fa94 	bl	26bfc <_start+0x2ab8>
   256d4:	000013cc 	.word	0x000013cc
   256d8:	000007fc 	.word	0x000007fc
   256dc:	00001370 	.word	0x00001370
   256e0:	4915      	ldr	r1, [pc, #84]	@ (25738 <_start+0x15f4>)
   256e2:	4469      	add	r1, sp
   256e4:	78c8      	ldrb	r0, [r1, #3]
   256e6:	4c15      	ldr	r4, [pc, #84]	@ (2573c <_start+0x15f8>)
   256e8:	446c      	add	r4, sp
   256ea:	70a0      	strb	r0, [r4, #2]
   256ec:	7848      	ldrb	r0, [r1, #1]
   256ee:	788a      	ldrb	r2, [r1, #2]
   256f0:	0212      	lsls	r2, r2, #8
   256f2:	1810      	adds	r0, r2, r0
   256f4:	8020      	strh	r0, [r4, #0]
   256f6:	9805      	ldr	r0, [sp, #20]
   256f8:	6e05      	ldr	r5, [r0, #96]	@ 0x60
   256fa:	3108      	adds	r1, #8
   256fc:	4810      	ldr	r0, [pc, #64]	@ (25740 <_start+0x15fc>)
   256fe:	4468      	add	r0, sp
   25700:	900c      	str	r0, [sp, #48]	@ 0x30
   25702:	2642      	movs	r6, #66	@ 0x42
   25704:	4632      	mov	r2, r6
   25706:	f001 fb20 	bl	26d4a <__aeabi_memcpy4>
   2570a:	0e28      	lsrs	r0, r5, #24
   2570c:	71a0      	strb	r0, [r4, #6]
   2570e:	0c28      	lsrs	r0, r5, #16
   25710:	7160      	strb	r0, [r4, #5]
   25712:	0a28      	lsrs	r0, r5, #8
   25714:	7120      	strb	r0, [r4, #4]
   25716:	70e5      	strb	r5, [r4, #3]
   25718:	1de0      	adds	r0, r4, #7
   2571a:	990c      	ldr	r1, [sp, #48]	@ 0x30
   2571c:	4632      	mov	r2, r6
   2571e:	f001 fc74 	bl	2700a <__aeabi_memcpy>
   25722:	4d05      	ldr	r5, [pc, #20]	@ (25738 <_start+0x15f4>)
   25724:	446d      	add	r5, sp
   25726:	4628      	mov	r0, r5
   25728:	4621      	mov	r1, r4
   2572a:	f7fd fb7f 	bl	22e2c <_ZN18complex_no_dynamic3app17hc5b1efa8648d5521E>
   2572e:	7828      	ldrb	r0, [r5, #0]
   25730:	2801      	cmp	r0, #1
   25732:	d107      	bne.n	25744 <_start+0x1600>
   25734:	f001 fa62 	bl	26bfc <_start+0x2ab8>
   25738:	000013cc 	.word	0x000013cc
   2573c:	00000854 	.word	0x00000854
   25740:	00001370 	.word	0x00001370
   25744:	4816      	ldr	r0, [pc, #88]	@ (257a0 <_start+0x165c>)
   25746:	4468      	add	r0, sp
   25748:	78c1      	ldrb	r1, [r0, #3]
   2574a:	4c16      	ldr	r4, [pc, #88]	@ (257a4 <_start+0x1660>)
   2574c:	446c      	add	r4, sp
   2574e:	70a1      	strb	r1, [r4, #2]
   25750:	7841      	ldrb	r1, [r0, #1]
   25752:	7882      	ldrb	r2, [r0, #2]
   25754:	0212      	lsls	r2, r2, #8
   25756:	1851      	adds	r1, r2, r1
   25758:	8021      	strh	r1, [r4, #0]
   2575a:	3008      	adds	r0, #8
   2575c:	9905      	ldr	r1, [sp, #20]
   2575e:	6e09      	ldr	r1, [r1, #96]	@ 0x60
   25760:	910b      	str	r1, [sp, #44]	@ 0x2c
   25762:	4b11      	ldr	r3, [pc, #68]	@ (257a8 <_start+0x1664>)
   25764:	446b      	add	r3, sp
   25766:	930c      	str	r3, [sp, #48]	@ 0x30
   25768:	c864      	ldmia	r0!, {r2, r5, r6}
   2576a:	c364      	stmia	r3!, {r2, r5, r6}
   2576c:	c866      	ldmia	r0!, {r1, r2, r5, r6}
   2576e:	c366      	stmia	r3!, {r1, r2, r5, r6}
   25770:	990b      	ldr	r1, [sp, #44]	@ 0x2c
   25772:	0e08      	lsrs	r0, r1, #24
   25774:	71a0      	strb	r0, [r4, #6]
   25776:	0c08      	lsrs	r0, r1, #16
   25778:	7160      	strb	r0, [r4, #5]
   2577a:	0a08      	lsrs	r0, r1, #8
   2577c:	7120      	strb	r0, [r4, #4]
   2577e:	70e1      	strb	r1, [r4, #3]
   25780:	1de0      	adds	r0, r4, #7
   25782:	221c      	movs	r2, #28
   25784:	990c      	ldr	r1, [sp, #48]	@ 0x30
   25786:	f001 fc40 	bl	2700a <__aeabi_memcpy>
   2578a:	4d05      	ldr	r5, [pc, #20]	@ (257a0 <_start+0x165c>)
   2578c:	446d      	add	r5, sp
   2578e:	4628      	mov	r0, r5
   25790:	4621      	mov	r1, r4
   25792:	f7fb fb85 	bl	20ea0 <_ZN18complex_no_dynamic3app17h4f148bd816ec2dc3E>
   25796:	7828      	ldrb	r0, [r5, #0]
   25798:	2801      	cmp	r0, #1
   2579a:	d107      	bne.n	257ac <_start+0x1668>
   2579c:	f001 fa2e 	bl	26bfc <_start+0x2ab8>
   257a0:	000013cc 	.word	0x000013cc
   257a4:	000008a0 	.word	0x000008a0
   257a8:	00001370 	.word	0x00001370
   257ac:	4816      	ldr	r0, [pc, #88]	@ (25808 <_start+0x16c4>)
   257ae:	4468      	add	r0, sp
   257b0:	78c1      	ldrb	r1, [r0, #3]
   257b2:	4c16      	ldr	r4, [pc, #88]	@ (2580c <_start+0x16c8>)
   257b4:	446c      	add	r4, sp
   257b6:	70a1      	strb	r1, [r4, #2]
   257b8:	7841      	ldrb	r1, [r0, #1]
   257ba:	7882      	ldrb	r2, [r0, #2]
   257bc:	0212      	lsls	r2, r2, #8
   257be:	1851      	adds	r1, r2, r1
   257c0:	8021      	strh	r1, [r4, #0]
   257c2:	3008      	adds	r0, #8
   257c4:	9905      	ldr	r1, [sp, #20]
   257c6:	6e09      	ldr	r1, [r1, #96]	@ 0x60
   257c8:	4b11      	ldr	r3, [pc, #68]	@ (25810 <_start+0x16cc>)
   257ca:	446b      	add	r3, sp
   257cc:	930c      	str	r3, [sp, #48]	@ 0x30
   257ce:	c864      	ldmia	r0!, {r2, r5, r6}
   257d0:	c364      	stmia	r3!, {r2, r5, r6}
   257d2:	c864      	ldmia	r0!, {r2, r5, r6}
   257d4:	c364      	stmia	r3!, {r2, r5, r6}
   257d6:	c864      	ldmia	r0!, {r2, r5, r6}
   257d8:	c364      	stmia	r3!, {r2, r5, r6}
   257da:	0e08      	lsrs	r0, r1, #24
   257dc:	71a0      	strb	r0, [r4, #6]
   257de:	0c08      	lsrs	r0, r1, #16
   257e0:	7160      	strb	r0, [r4, #5]
   257e2:	0a08      	lsrs	r0, r1, #8
   257e4:	7120      	strb	r0, [r4, #4]
   257e6:	70e1      	strb	r1, [r4, #3]
   257e8:	1de0      	adds	r0, r4, #7
   257ea:	2224      	movs	r2, #36	@ 0x24
   257ec:	990c      	ldr	r1, [sp, #48]	@ 0x30
   257ee:	f001 fc0c 	bl	2700a <__aeabi_memcpy>
   257f2:	4d05      	ldr	r5, [pc, #20]	@ (25808 <_start+0x16c4>)
   257f4:	446d      	add	r5, sp
   257f6:	4628      	mov	r0, r5
   257f8:	4621      	mov	r1, r4
   257fa:	f7fb fbfb 	bl	20ff4 <_ZN18complex_no_dynamic3app17h5077d15cff5c24cdE>
   257fe:	7828      	ldrb	r0, [r5, #0]
   25800:	2801      	cmp	r0, #1
   25802:	d107      	bne.n	25814 <_start+0x16d0>
   25804:	f001 f9fa 	bl	26bfc <_start+0x2ab8>
   25808:	000013cc 	.word	0x000013cc
   2580c:	000008c4 	.word	0x000008c4
   25810:	00001370 	.word	0x00001370
   25814:	4914      	ldr	r1, [pc, #80]	@ (25868 <_start+0x1724>)
   25816:	4469      	add	r1, sp
   25818:	9b05      	ldr	r3, [sp, #20]
   2581a:	6e98      	ldr	r0, [r3, #104]	@ 0x68
   2581c:	8088      	strh	r0, [r1, #4]
   2581e:	4813      	ldr	r0, [pc, #76]	@ (2586c <_start+0x1728>)
   25820:	4468      	add	r0, sp
   25822:	78c2      	ldrb	r2, [r0, #3]
   25824:	4c12      	ldr	r4, [pc, #72]	@ (25870 <_start+0x172c>)
   25826:	446c      	add	r4, sp
   25828:	70a2      	strb	r2, [r4, #2]
   2582a:	7842      	ldrb	r2, [r0, #1]
   2582c:	7880      	ldrb	r0, [r0, #2]
   2582e:	0200      	lsls	r0, r0, #8
   25830:	1880      	adds	r0, r0, r2
   25832:	8020      	strh	r0, [r4, #0]
   25834:	6e18      	ldr	r0, [r3, #96]	@ 0x60
   25836:	70e0      	strb	r0, [r4, #3]
   25838:	0e02      	lsrs	r2, r0, #24
   2583a:	71a2      	strb	r2, [r4, #6]
   2583c:	0c02      	lsrs	r2, r0, #16
   2583e:	7162      	strb	r2, [r4, #5]
   25840:	0a00      	lsrs	r0, r0, #8
   25842:	7120      	strb	r0, [r4, #4]
   25844:	6e58      	ldr	r0, [r3, #100]	@ 0x64
   25846:	6018      	str	r0, [r3, #0]
   25848:	1de0      	adds	r0, r4, #7
   2584a:	2206      	movs	r2, #6
   2584c:	f001 fbdd 	bl	2700a <__aeabi_memcpy>
   25850:	4d06      	ldr	r5, [pc, #24]	@ (2586c <_start+0x1728>)
   25852:	446d      	add	r5, sp
   25854:	4628      	mov	r0, r5
   25856:	4621      	mov	r1, r4
   25858:	f7fc fdb2 	bl	223c0 <_ZN18complex_no_dynamic3app17h9d1de1266bf76d87E>
   2585c:	7828      	ldrb	r0, [r5, #0]
   2585e:	2801      	cmp	r0, #1
   25860:	d108      	bne.n	25874 <_start+0x1730>
   25862:	f001 f9cb 	bl	26bfc <_start+0x2ab8>
   25866:	46c0      	nop			@ (mov r8, r8)
   25868:	00001370 	.word	0x00001370
   2586c:	000013cc 	.word	0x000013cc
   25870:	000008f0 	.word	0x000008f0
   25874:	4816      	ldr	r0, [pc, #88]	@ (258d0 <_start+0x178c>)
   25876:	4468      	add	r0, sp
   25878:	78c1      	ldrb	r1, [r0, #3]
   2587a:	4c16      	ldr	r4, [pc, #88]	@ (258d4 <_start+0x1790>)
   2587c:	446c      	add	r4, sp
   2587e:	70a1      	strb	r1, [r4, #2]
   25880:	7841      	ldrb	r1, [r0, #1]
   25882:	7882      	ldrb	r2, [r0, #2]
   25884:	0212      	lsls	r2, r2, #8
   25886:	1851      	adds	r1, r2, r1
   25888:	8021      	strh	r1, [r4, #0]
   2588a:	3008      	adds	r0, #8
   2588c:	9905      	ldr	r1, [sp, #20]
   2588e:	6e09      	ldr	r1, [r1, #96]	@ 0x60
   25890:	4b11      	ldr	r3, [pc, #68]	@ (258d8 <_start+0x1794>)
   25892:	446b      	add	r3, sp
   25894:	930c      	str	r3, [sp, #48]	@ 0x30
   25896:	c864      	ldmia	r0!, {r2, r5, r6}
   25898:	c364      	stmia	r3!, {r2, r5, r6}
   2589a:	c864      	ldmia	r0!, {r2, r5, r6}
   2589c:	c364      	stmia	r3!, {r2, r5, r6}
   2589e:	8800      	ldrh	r0, [r0, #0]
   258a0:	8018      	strh	r0, [r3, #0]
   258a2:	0e08      	lsrs	r0, r1, #24
   258a4:	71a0      	strb	r0, [r4, #6]
   258a6:	0c08      	lsrs	r0, r1, #16
   258a8:	7160      	strb	r0, [r4, #5]
   258aa:	0a08      	lsrs	r0, r1, #8
   258ac:	7120      	strb	r0, [r4, #4]
   258ae:	70e1      	strb	r1, [r4, #3]
   258b0:	1de0      	adds	r0, r4, #7
   258b2:	221a      	movs	r2, #26
   258b4:	990c      	ldr	r1, [sp, #48]	@ 0x30
   258b6:	f001 fba8 	bl	2700a <__aeabi_memcpy>
   258ba:	4d05      	ldr	r5, [pc, #20]	@ (258d0 <_start+0x178c>)
   258bc:	446d      	add	r5, sp
   258be:	4628      	mov	r0, r5
   258c0:	4621      	mov	r1, r4
   258c2:	f7fd f8fb 	bl	22abc <_ZN18complex_no_dynamic3app17hbad619459ec11b72E>
   258c6:	7828      	ldrb	r0, [r5, #0]
   258c8:	2801      	cmp	r0, #1
   258ca:	d107      	bne.n	258dc <_start+0x1798>
   258cc:	f001 f996 	bl	26bfc <_start+0x2ab8>
   258d0:	000013cc 	.word	0x000013cc
   258d4:	00000900 	.word	0x00000900
   258d8:	00001370 	.word	0x00001370
   258dc:	4915      	ldr	r1, [pc, #84]	@ (25934 <_start+0x17f0>)
   258de:	4469      	add	r1, sp
   258e0:	78c8      	ldrb	r0, [r1, #3]
   258e2:	4c15      	ldr	r4, [pc, #84]	@ (25938 <_start+0x17f4>)
   258e4:	446c      	add	r4, sp
   258e6:	70a0      	strb	r0, [r4, #2]
   258e8:	7848      	ldrb	r0, [r1, #1]
   258ea:	788a      	ldrb	r2, [r1, #2]
   258ec:	0212      	lsls	r2, r2, #8
   258ee:	1810      	adds	r0, r2, r0
   258f0:	8020      	strh	r0, [r4, #0]
   258f2:	9805      	ldr	r0, [sp, #20]
   258f4:	6e05      	ldr	r5, [r0, #96]	@ 0x60
   258f6:	3108      	adds	r1, #8
   258f8:	4810      	ldr	r0, [pc, #64]	@ (2593c <_start+0x17f8>)
   258fa:	4468      	add	r0, sp
   258fc:	900c      	str	r0, [sp, #48]	@ 0x30
   258fe:	264c      	movs	r6, #76	@ 0x4c
   25900:	4632      	mov	r2, r6
   25902:	f001 fa22 	bl	26d4a <__aeabi_memcpy4>
   25906:	0e28      	lsrs	r0, r5, #24
   25908:	71a0      	strb	r0, [r4, #6]
   2590a:	0c28      	lsrs	r0, r5, #16
   2590c:	7160      	strb	r0, [r4, #5]
   2590e:	0a28      	lsrs	r0, r5, #8
   25910:	7120      	strb	r0, [r4, #4]
   25912:	70e5      	strb	r5, [r4, #3]
   25914:	1de0      	adds	r0, r4, #7
   25916:	990c      	ldr	r1, [sp, #48]	@ 0x30
   25918:	4632      	mov	r2, r6
   2591a:	f001 fb76 	bl	2700a <__aeabi_memcpy>
   2591e:	4d05      	ldr	r5, [pc, #20]	@ (25934 <_start+0x17f0>)
   25920:	446d      	add	r5, sp
   25922:	4628      	mov	r0, r5
   25924:	4621      	mov	r1, r4
   25926:	f7fe f809 	bl	2393c <_ZN18complex_no_dynamic3app17he742cd39c39b4c41E>
   2592a:	7828      	ldrb	r0, [r5, #0]
   2592c:	2801      	cmp	r0, #1
   2592e:	d107      	bne.n	25940 <_start+0x17fc>
   25930:	f001 f964 	bl	26bfc <_start+0x2ab8>
   25934:	000013cc 	.word	0x000013cc
   25938:	00000924 	.word	0x00000924
   2593c:	00001370 	.word	0x00001370
   25940:	4915      	ldr	r1, [pc, #84]	@ (25998 <_start+0x1854>)
   25942:	4469      	add	r1, sp
   25944:	78c8      	ldrb	r0, [r1, #3]
   25946:	4c15      	ldr	r4, [pc, #84]	@ (2599c <_start+0x1858>)
   25948:	446c      	add	r4, sp
   2594a:	70a0      	strb	r0, [r4, #2]
   2594c:	7848      	ldrb	r0, [r1, #1]
   2594e:	788a      	ldrb	r2, [r1, #2]
   25950:	0212      	lsls	r2, r2, #8
   25952:	1810      	adds	r0, r2, r0
   25954:	8020      	strh	r0, [r4, #0]
   25956:	9805      	ldr	r0, [sp, #20]
   25958:	6e05      	ldr	r5, [r0, #96]	@ 0x60
   2595a:	3108      	adds	r1, #8
   2595c:	4810      	ldr	r0, [pc, #64]	@ (259a0 <_start+0x185c>)
   2595e:	4468      	add	r0, sp
   25960:	900c      	str	r0, [sp, #48]	@ 0x30
   25962:	2646      	movs	r6, #70	@ 0x46
   25964:	4632      	mov	r2, r6
   25966:	f001 f9f0 	bl	26d4a <__aeabi_memcpy4>
   2596a:	0e28      	lsrs	r0, r5, #24
   2596c:	71a0      	strb	r0, [r4, #6]
   2596e:	0c28      	lsrs	r0, r5, #16
   25970:	7160      	strb	r0, [r4, #5]
   25972:	0a28      	lsrs	r0, r5, #8
   25974:	7120      	strb	r0, [r4, #4]
   25976:	70e5      	strb	r5, [r4, #3]
   25978:	1de0      	adds	r0, r4, #7
   2597a:	990c      	ldr	r1, [sp, #48]	@ 0x30
   2597c:	4632      	mov	r2, r6
   2597e:	f001 fb44 	bl	2700a <__aeabi_memcpy>
   25982:	4d05      	ldr	r5, [pc, #20]	@ (25998 <_start+0x1854>)
   25984:	446d      	add	r5, sp
   25986:	4628      	mov	r0, r5
   25988:	4621      	mov	r1, r4
   2598a:	f7fd fbc7 	bl	2311c <_ZN18complex_no_dynamic3app17hd30e038c3e6894a4E>
   2598e:	7828      	ldrb	r0, [r5, #0]
   25990:	2801      	cmp	r0, #1
   25992:	d107      	bne.n	259a4 <_start+0x1860>
   25994:	f001 f932 	bl	26bfc <_start+0x2ab8>
   25998:	000013cc 	.word	0x000013cc
   2599c:	00000978 	.word	0x00000978
   259a0:	00001370 	.word	0x00001370
   259a4:	4819      	ldr	r0, [pc, #100]	@ (25a0c <_start+0x18c8>)
   259a6:	4468      	add	r0, sp
   259a8:	78c1      	ldrb	r1, [r0, #3]
   259aa:	4c19      	ldr	r4, [pc, #100]	@ (25a10 <_start+0x18cc>)
   259ac:	446c      	add	r4, sp
   259ae:	70a1      	strb	r1, [r4, #2]
   259b0:	7841      	ldrb	r1, [r0, #1]
   259b2:	7882      	ldrb	r2, [r0, #2]
   259b4:	0212      	lsls	r2, r2, #8
   259b6:	1851      	adds	r1, r2, r1
   259b8:	8021      	strh	r1, [r4, #0]
   259ba:	3008      	adds	r0, #8
   259bc:	9905      	ldr	r1, [sp, #20]
   259be:	6e09      	ldr	r1, [r1, #96]	@ 0x60
   259c0:	910b      	str	r1, [sp, #44]	@ 0x2c
   259c2:	4b14      	ldr	r3, [pc, #80]	@ (25a14 <_start+0x18d0>)
   259c4:	446b      	add	r3, sp
   259c6:	930c      	str	r3, [sp, #48]	@ 0x30
   259c8:	c864      	ldmia	r0!, {r2, r5, r6}
   259ca:	c364      	stmia	r3!, {r2, r5, r6}
   259cc:	c864      	ldmia	r0!, {r2, r5, r6}
   259ce:	c364      	stmia	r3!, {r2, r5, r6}
   259d0:	c864      	ldmia	r0!, {r2, r5, r6}
   259d2:	c364      	stmia	r3!, {r2, r5, r6}
   259d4:	c866      	ldmia	r0!, {r1, r2, r5, r6}
   259d6:	c366      	stmia	r3!, {r1, r2, r5, r6}
   259d8:	7800      	ldrb	r0, [r0, #0]
   259da:	7018      	strb	r0, [r3, #0]
   259dc:	990b      	ldr	r1, [sp, #44]	@ 0x2c
   259de:	0e08      	lsrs	r0, r1, #24
   259e0:	71a0      	strb	r0, [r4, #6]
   259e2:	0c08      	lsrs	r0, r1, #16
   259e4:	7160      	strb	r0, [r4, #5]
   259e6:	0a08      	lsrs	r0, r1, #8
   259e8:	7120      	strb	r0, [r4, #4]
   259ea:	70e1      	strb	r1, [r4, #3]
   259ec:	1de0      	adds	r0, r4, #7
   259ee:	2235      	movs	r2, #53	@ 0x35
   259f0:	990c      	ldr	r1, [sp, #48]	@ 0x30
   259f2:	f001 fb0a 	bl	2700a <__aeabi_memcpy>
   259f6:	4d05      	ldr	r5, [pc, #20]	@ (25a0c <_start+0x18c8>)
   259f8:	446d      	add	r5, sp
   259fa:	4628      	mov	r0, r5
   259fc:	4621      	mov	r1, r4
   259fe:	f7fb fc21 	bl	21244 <_ZN18complex_no_dynamic3app17h58807fcf14a3e62cE>
   25a02:	7828      	ldrb	r0, [r5, #0]
   25a04:	2801      	cmp	r0, #1
   25a06:	d107      	bne.n	25a18 <_start+0x18d4>
   25a08:	f001 f8f8 	bl	26bfc <_start+0x2ab8>
   25a0c:	000013cc 	.word	0x000013cc
   25a10:	000009c8 	.word	0x000009c8
   25a14:	00001370 	.word	0x00001370
   25a18:	4818      	ldr	r0, [pc, #96]	@ (25a7c <_start+0x1938>)
   25a1a:	4468      	add	r0, sp
   25a1c:	78c1      	ldrb	r1, [r0, #3]
   25a1e:	4c18      	ldr	r4, [pc, #96]	@ (25a80 <_start+0x193c>)
   25a20:	446c      	add	r4, sp
   25a22:	70a1      	strb	r1, [r4, #2]
   25a24:	7841      	ldrb	r1, [r0, #1]
   25a26:	7882      	ldrb	r2, [r0, #2]
   25a28:	0212      	lsls	r2, r2, #8
   25a2a:	1851      	adds	r1, r2, r1
   25a2c:	8021      	strh	r1, [r4, #0]
   25a2e:	3008      	adds	r0, #8
   25a30:	9905      	ldr	r1, [sp, #20]
   25a32:	6e09      	ldr	r1, [r1, #96]	@ 0x60
   25a34:	910b      	str	r1, [sp, #44]	@ 0x2c
   25a36:	4b13      	ldr	r3, [pc, #76]	@ (25a84 <_start+0x1940>)
   25a38:	446b      	add	r3, sp
   25a3a:	930c      	str	r3, [sp, #48]	@ 0x30
   25a3c:	c866      	ldmia	r0!, {r1, r2, r5, r6}
   25a3e:	c366      	stmia	r3!, {r1, r2, r5, r6}
   25a40:	c866      	ldmia	r0!, {r1, r2, r5, r6}
   25a42:	c366      	stmia	r3!, {r1, r2, r5, r6}
   25a44:	c866      	ldmia	r0!, {r1, r2, r5, r6}
   25a46:	c366      	stmia	r3!, {r1, r2, r5, r6}
   25a48:	7800      	ldrb	r0, [r0, #0]
   25a4a:	7018      	strb	r0, [r3, #0]
   25a4c:	990b      	ldr	r1, [sp, #44]	@ 0x2c
   25a4e:	0e08      	lsrs	r0, r1, #24
   25a50:	71a0      	strb	r0, [r4, #6]
   25a52:	0c08      	lsrs	r0, r1, #16
   25a54:	7160      	strb	r0, [r4, #5]
   25a56:	0a08      	lsrs	r0, r1, #8
   25a58:	7120      	strb	r0, [r4, #4]
   25a5a:	70e1      	strb	r1, [r4, #3]
   25a5c:	1de0      	adds	r0, r4, #7
   25a5e:	2231      	movs	r2, #49	@ 0x31
   25a60:	990c      	ldr	r1, [sp, #48]	@ 0x30
   25a62:	f001 fad2 	bl	2700a <__aeabi_memcpy>
   25a66:	4d05      	ldr	r5, [pc, #20]	@ (25a7c <_start+0x1938>)
   25a68:	446d      	add	r5, sp
   25a6a:	4628      	mov	r0, r5
   25a6c:	4621      	mov	r1, r4
   25a6e:	f7fd f987 	bl	22d80 <_ZN18complex_no_dynamic3app17hc50f7558f2458cb0E>
   25a72:	7828      	ldrb	r0, [r5, #0]
   25a74:	2801      	cmp	r0, #1
   25a76:	d107      	bne.n	25a88 <_start+0x1944>
   25a78:	f001 f8c0 	bl	26bfc <_start+0x2ab8>
   25a7c:	000013cc 	.word	0x000013cc
   25a80:	00000a04 	.word	0x00000a04
   25a84:	00001370 	.word	0x00001370
   25a88:	4816      	ldr	r0, [pc, #88]	@ (25ae4 <_start+0x19a0>)
   25a8a:	4468      	add	r0, sp
   25a8c:	78c1      	ldrb	r1, [r0, #3]
   25a8e:	4c16      	ldr	r4, [pc, #88]	@ (25ae8 <_start+0x19a4>)
   25a90:	446c      	add	r4, sp
   25a92:	70a1      	strb	r1, [r4, #2]
   25a94:	7841      	ldrb	r1, [r0, #1]
   25a96:	7882      	ldrb	r2, [r0, #2]
   25a98:	0212      	lsls	r2, r2, #8
   25a9a:	1851      	adds	r1, r2, r1
   25a9c:	8021      	strh	r1, [r4, #0]
   25a9e:	3008      	adds	r0, #8
   25aa0:	9905      	ldr	r1, [sp, #20]
   25aa2:	6e09      	ldr	r1, [r1, #96]	@ 0x60
   25aa4:	910b      	str	r1, [sp, #44]	@ 0x2c
   25aa6:	4b11      	ldr	r3, [pc, #68]	@ (25aec <_start+0x19a8>)
   25aa8:	446b      	add	r3, sp
   25aaa:	930c      	str	r3, [sp, #48]	@ 0x30
   25aac:	c866      	ldmia	r0!, {r1, r2, r5, r6}
   25aae:	c366      	stmia	r3!, {r1, r2, r5, r6}
   25ab0:	c866      	ldmia	r0!, {r1, r2, r5, r6}
   25ab2:	c366      	stmia	r3!, {r1, r2, r5, r6}
   25ab4:	990b      	ldr	r1, [sp, #44]	@ 0x2c
   25ab6:	0e08      	lsrs	r0, r1, #24
   25ab8:	71a0      	strb	r0, [r4, #6]
   25aba:	0c08      	lsrs	r0, r1, #16
   25abc:	7160      	strb	r0, [r4, #5]
   25abe:	0a08      	lsrs	r0, r1, #8
   25ac0:	7120      	strb	r0, [r4, #4]
   25ac2:	70e1      	strb	r1, [r4, #3]
   25ac4:	1de0      	adds	r0, r4, #7
   25ac6:	2220      	movs	r2, #32
   25ac8:	990c      	ldr	r1, [sp, #48]	@ 0x30
   25aca:	f001 fa9e 	bl	2700a <__aeabi_memcpy>
   25ace:	4d05      	ldr	r5, [pc, #20]	@ (25ae4 <_start+0x19a0>)
   25ad0:	446d      	add	r5, sp
   25ad2:	4628      	mov	r0, r5
   25ad4:	4621      	mov	r1, r4
   25ad6:	f7fa ffcb 	bl	20a70 <_ZN18complex_no_dynamic3app17h3932fb2df8f4c7c7E>
   25ada:	7828      	ldrb	r0, [r5, #0]
   25adc:	2801      	cmp	r0, #1
   25ade:	d107      	bne.n	25af0 <_start+0x19ac>
   25ae0:	f001 f88c 	bl	26bfc <_start+0x2ab8>
   25ae4:	000013cc 	.word	0x000013cc
   25ae8:	00000a3c 	.word	0x00000a3c
   25aec:	00001370 	.word	0x00001370
   25af0:	4915      	ldr	r1, [pc, #84]	@ (25b48 <_start+0x1a04>)
   25af2:	4469      	add	r1, sp
   25af4:	78c8      	ldrb	r0, [r1, #3]
   25af6:	4c15      	ldr	r4, [pc, #84]	@ (25b4c <_start+0x1a08>)
   25af8:	446c      	add	r4, sp
   25afa:	70a0      	strb	r0, [r4, #2]
   25afc:	7848      	ldrb	r0, [r1, #1]
   25afe:	788a      	ldrb	r2, [r1, #2]
   25b00:	0212      	lsls	r2, r2, #8
   25b02:	1810      	adds	r0, r2, r0
   25b04:	8020      	strh	r0, [r4, #0]
   25b06:	9805      	ldr	r0, [sp, #20]
   25b08:	6e05      	ldr	r5, [r0, #96]	@ 0x60
   25b0a:	3108      	adds	r1, #8
   25b0c:	4810      	ldr	r0, [pc, #64]	@ (25b50 <_start+0x1a0c>)
   25b0e:	4468      	add	r0, sp
   25b10:	900c      	str	r0, [sp, #48]	@ 0x30
   25b12:	264a      	movs	r6, #74	@ 0x4a
   25b14:	4632      	mov	r2, r6
   25b16:	f001 f918 	bl	26d4a <__aeabi_memcpy4>
   25b1a:	0e28      	lsrs	r0, r5, #24
   25b1c:	71a0      	strb	r0, [r4, #6]
   25b1e:	0c28      	lsrs	r0, r5, #16
   25b20:	7160      	strb	r0, [r4, #5]
   25b22:	0a28      	lsrs	r0, r5, #8
   25b24:	7120      	strb	r0, [r4, #4]
   25b26:	70e5      	strb	r5, [r4, #3]
   25b28:	1de0      	adds	r0, r4, #7
   25b2a:	990c      	ldr	r1, [sp, #48]	@ 0x30
   25b2c:	4632      	mov	r2, r6
   25b2e:	f001 fa6c 	bl	2700a <__aeabi_memcpy>
   25b32:	4d05      	ldr	r5, [pc, #20]	@ (25b48 <_start+0x1a04>)
   25b34:	446d      	add	r5, sp
   25b36:	4628      	mov	r0, r5
   25b38:	4621      	mov	r1, r4
   25b3a:	f7fe fa01 	bl	23f40 <_ZN18complex_no_dynamic3app17hf7eaa1e7d4723389E>
   25b3e:	7828      	ldrb	r0, [r5, #0]
   25b40:	2801      	cmp	r0, #1
   25b42:	d107      	bne.n	25b54 <_start+0x1a10>
   25b44:	f001 f85a 	bl	26bfc <_start+0x2ab8>
   25b48:	000013cc 	.word	0x000013cc
   25b4c:	00000a64 	.word	0x00000a64
   25b50:	00001370 	.word	0x00001370
   25b54:	4915      	ldr	r1, [pc, #84]	@ (25bac <_start+0x1a68>)
   25b56:	4469      	add	r1, sp
   25b58:	78c8      	ldrb	r0, [r1, #3]
   25b5a:	4c15      	ldr	r4, [pc, #84]	@ (25bb0 <_start+0x1a6c>)
   25b5c:	446c      	add	r4, sp
   25b5e:	70a0      	strb	r0, [r4, #2]
   25b60:	7848      	ldrb	r0, [r1, #1]
   25b62:	788a      	ldrb	r2, [r1, #2]
   25b64:	0212      	lsls	r2, r2, #8
   25b66:	1810      	adds	r0, r2, r0
   25b68:	8020      	strh	r0, [r4, #0]
   25b6a:	9805      	ldr	r0, [sp, #20]
   25b6c:	6e05      	ldr	r5, [r0, #96]	@ 0x60
   25b6e:	3108      	adds	r1, #8
   25b70:	4810      	ldr	r0, [pc, #64]	@ (25bb4 <_start+0x1a70>)
   25b72:	4468      	add	r0, sp
   25b74:	900c      	str	r0, [sp, #48]	@ 0x30
   25b76:	2648      	movs	r6, #72	@ 0x48
   25b78:	4632      	mov	r2, r6
   25b7a:	f001 f8e6 	bl	26d4a <__aeabi_memcpy4>
   25b7e:	0e28      	lsrs	r0, r5, #24
   25b80:	71a0      	strb	r0, [r4, #6]
   25b82:	0c28      	lsrs	r0, r5, #16
   25b84:	7160      	strb	r0, [r4, #5]
   25b86:	0a28      	lsrs	r0, r5, #8
   25b88:	7120      	strb	r0, [r4, #4]
   25b8a:	70e5      	strb	r5, [r4, #3]
   25b8c:	1de0      	adds	r0, r4, #7
   25b8e:	990c      	ldr	r1, [sp, #48]	@ 0x30
   25b90:	4632      	mov	r2, r6
   25b92:	f001 fa3a 	bl	2700a <__aeabi_memcpy>
   25b96:	4d05      	ldr	r5, [pc, #20]	@ (25bac <_start+0x1a68>)
   25b98:	446d      	add	r5, sp
   25b9a:	4628      	mov	r0, r5
   25b9c:	4621      	mov	r1, r4
   25b9e:	f7fb fdff 	bl	217a0 <_ZN18complex_no_dynamic3app17h6884e3f4edc36089E>
   25ba2:	7828      	ldrb	r0, [r5, #0]
   25ba4:	2801      	cmp	r0, #1
   25ba6:	d107      	bne.n	25bb8 <_start+0x1a74>
   25ba8:	f001 f828 	bl	26bfc <_start+0x2ab8>
   25bac:	000013cc 	.word	0x000013cc
   25bb0:	00000ab8 	.word	0x00000ab8
   25bb4:	00001370 	.word	0x00001370
   25bb8:	4915      	ldr	r1, [pc, #84]	@ (25c10 <_start+0x1acc>)
   25bba:	4469      	add	r1, sp
   25bbc:	78c8      	ldrb	r0, [r1, #3]
   25bbe:	4c15      	ldr	r4, [pc, #84]	@ (25c14 <_start+0x1ad0>)
   25bc0:	446c      	add	r4, sp
   25bc2:	70a0      	strb	r0, [r4, #2]
   25bc4:	7848      	ldrb	r0, [r1, #1]
   25bc6:	788a      	ldrb	r2, [r1, #2]
   25bc8:	0212      	lsls	r2, r2, #8
   25bca:	1810      	adds	r0, r2, r0
   25bcc:	8020      	strh	r0, [r4, #0]
   25bce:	9805      	ldr	r0, [sp, #20]
   25bd0:	6e05      	ldr	r5, [r0, #96]	@ 0x60
   25bd2:	3108      	adds	r1, #8
   25bd4:	4810      	ldr	r0, [pc, #64]	@ (25c18 <_start+0x1ad4>)
   25bd6:	4468      	add	r0, sp
   25bd8:	900c      	str	r0, [sp, #48]	@ 0x30
   25bda:	265a      	movs	r6, #90	@ 0x5a
   25bdc:	4632      	mov	r2, r6
   25bde:	f001 f8b4 	bl	26d4a <__aeabi_memcpy4>
   25be2:	0e28      	lsrs	r0, r5, #24
   25be4:	71a0      	strb	r0, [r4, #6]
   25be6:	0c28      	lsrs	r0, r5, #16
   25be8:	7160      	strb	r0, [r4, #5]
   25bea:	0a28      	lsrs	r0, r5, #8
   25bec:	7120      	strb	r0, [r4, #4]
   25bee:	70e5      	strb	r5, [r4, #3]
   25bf0:	1de0      	adds	r0, r4, #7
   25bf2:	990c      	ldr	r1, [sp, #48]	@ 0x30
   25bf4:	4632      	mov	r2, r6
   25bf6:	f001 fa08 	bl	2700a <__aeabi_memcpy>
   25bfa:	4d05      	ldr	r5, [pc, #20]	@ (25c10 <_start+0x1acc>)
   25bfc:	446d      	add	r5, sp
   25bfe:	4628      	mov	r0, r5
   25c00:	4621      	mov	r1, r4
   25c02:	f7fd fd93 	bl	2372c <_ZN18complex_no_dynamic3app17he1edb2c0b992a969E>
   25c06:	7828      	ldrb	r0, [r5, #0]
   25c08:	2801      	cmp	r0, #1
   25c0a:	d107      	bne.n	25c1c <_start+0x1ad8>
   25c0c:	f000 fff6 	bl	26bfc <_start+0x2ab8>
   25c10:	000013cc 	.word	0x000013cc
   25c14:	00000b08 	.word	0x00000b08
   25c18:	00001370 	.word	0x00001370
   25c1c:	4817      	ldr	r0, [pc, #92]	@ (25c7c <_start+0x1b38>)
   25c1e:	4468      	add	r0, sp
   25c20:	78c1      	ldrb	r1, [r0, #3]
   25c22:	4c17      	ldr	r4, [pc, #92]	@ (25c80 <_start+0x1b3c>)
   25c24:	446c      	add	r4, sp
   25c26:	70a1      	strb	r1, [r4, #2]
   25c28:	7841      	ldrb	r1, [r0, #1]
   25c2a:	7882      	ldrb	r2, [r0, #2]
   25c2c:	0212      	lsls	r2, r2, #8
   25c2e:	1851      	adds	r1, r2, r1
   25c30:	8021      	strh	r1, [r4, #0]
   25c32:	3008      	adds	r0, #8
   25c34:	9905      	ldr	r1, [sp, #20]
   25c36:	6e09      	ldr	r1, [r1, #96]	@ 0x60
   25c38:	4b12      	ldr	r3, [pc, #72]	@ (25c84 <_start+0x1b40>)
   25c3a:	446b      	add	r3, sp
   25c3c:	930c      	str	r3, [sp, #48]	@ 0x30
   25c3e:	c860      	ldmia	r0!, {r5, r6}
   25c40:	c360      	stmia	r3!, {r5, r6}
   25c42:	c864      	ldmia	r0!, {r2, r5, r6}
   25c44:	c364      	stmia	r3!, {r2, r5, r6}
   25c46:	8802      	ldrh	r2, [r0, #0]
   25c48:	801a      	strh	r2, [r3, #0]
   25c4a:	7880      	ldrb	r0, [r0, #2]
   25c4c:	7098      	strb	r0, [r3, #2]
   25c4e:	0e08      	lsrs	r0, r1, #24
   25c50:	71a0      	strb	r0, [r4, #6]
   25c52:	0c08      	lsrs	r0, r1, #16
   25c54:	7160      	strb	r0, [r4, #5]
   25c56:	0a08      	lsrs	r0, r1, #8
   25c58:	7120      	strb	r0, [r4, #4]
   25c5a:	70e1      	strb	r1, [r4, #3]
   25c5c:	1de0      	adds	r0, r4, #7
   25c5e:	2217      	movs	r2, #23
   25c60:	990c      	ldr	r1, [sp, #48]	@ 0x30
   25c62:	f001 f9d2 	bl	2700a <__aeabi_memcpy>
   25c66:	4d05      	ldr	r5, [pc, #20]	@ (25c7c <_start+0x1b38>)
   25c68:	446d      	add	r5, sp
   25c6a:	4628      	mov	r0, r5
   25c6c:	4621      	mov	r1, r4
   25c6e:	f7fb fb3f 	bl	212f0 <_ZN18complex_no_dynamic3app17h5c540980c716429aE>
   25c72:	7828      	ldrb	r0, [r5, #0]
   25c74:	2801      	cmp	r0, #1
   25c76:	d107      	bne.n	25c88 <_start+0x1b44>
   25c78:	f000 ffc0 	bl	26bfc <_start+0x2ab8>
   25c7c:	000013cc 	.word	0x000013cc
   25c80:	00000b6c 	.word	0x00000b6c
   25c84:	00001370 	.word	0x00001370
   25c88:	4816      	ldr	r0, [pc, #88]	@ (25ce4 <_start+0x1ba0>)
   25c8a:	4468      	add	r0, sp
   25c8c:	78c1      	ldrb	r1, [r0, #3]
   25c8e:	4c16      	ldr	r4, [pc, #88]	@ (25ce8 <_start+0x1ba4>)
   25c90:	446c      	add	r4, sp
   25c92:	70a1      	strb	r1, [r4, #2]
   25c94:	7841      	ldrb	r1, [r0, #1]
   25c96:	7882      	ldrb	r2, [r0, #2]
   25c98:	0212      	lsls	r2, r2, #8
   25c9a:	1851      	adds	r1, r2, r1
   25c9c:	8021      	strh	r1, [r4, #0]
   25c9e:	3008      	adds	r0, #8
   25ca0:	9905      	ldr	r1, [sp, #20]
   25ca2:	6e09      	ldr	r1, [r1, #96]	@ 0x60
   25ca4:	4b11      	ldr	r3, [pc, #68]	@ (25cec <_start+0x1ba8>)
   25ca6:	446b      	add	r3, sp
   25ca8:	930c      	str	r3, [sp, #48]	@ 0x30
   25caa:	c864      	ldmia	r0!, {r2, r5, r6}
   25cac:	c364      	stmia	r3!, {r2, r5, r6}
   25cae:	c864      	ldmia	r0!, {r2, r5, r6}
   25cb0:	c364      	stmia	r3!, {r2, r5, r6}
   25cb2:	8800      	ldrh	r0, [r0, #0]
   25cb4:	8018      	strh	r0, [r3, #0]
   25cb6:	0e08      	lsrs	r0, r1, #24
   25cb8:	71a0      	strb	r0, [r4, #6]
   25cba:	0c08      	lsrs	r0, r1, #16
   25cbc:	7160      	strb	r0, [r4, #5]
   25cbe:	0a08      	lsrs	r0, r1, #8
   25cc0:	7120      	strb	r0, [r4, #4]
   25cc2:	70e1      	strb	r1, [r4, #3]
   25cc4:	1de0      	adds	r0, r4, #7
   25cc6:	221a      	movs	r2, #26
   25cc8:	990c      	ldr	r1, [sp, #48]	@ 0x30
   25cca:	f001 f99e 	bl	2700a <__aeabi_memcpy>
   25cce:	4d05      	ldr	r5, [pc, #20]	@ (25ce4 <_start+0x1ba0>)
   25cd0:	446d      	add	r5, sp
   25cd2:	4628      	mov	r0, r5
   25cd4:	4621      	mov	r1, r4
   25cd6:	f7fa fab5 	bl	20244 <_ZN18complex_no_dynamic3app17h0855e79ed723329cE>
   25cda:	7828      	ldrb	r0, [r5, #0]
   25cdc:	2801      	cmp	r0, #1
   25cde:	d107      	bne.n	25cf0 <_start+0x1bac>
   25ce0:	f000 ff8c 	bl	26bfc <_start+0x2ab8>
   25ce4:	000013cc 	.word	0x000013cc
   25ce8:	00000b8c 	.word	0x00000b8c
   25cec:	00001370 	.word	0x00001370
   25cf0:	4818      	ldr	r0, [pc, #96]	@ (25d54 <_start+0x1c10>)
   25cf2:	4468      	add	r0, sp
   25cf4:	78c1      	ldrb	r1, [r0, #3]
   25cf6:	4c18      	ldr	r4, [pc, #96]	@ (25d58 <_start+0x1c14>)
   25cf8:	446c      	add	r4, sp
   25cfa:	70a1      	strb	r1, [r4, #2]
   25cfc:	7841      	ldrb	r1, [r0, #1]
   25cfe:	7882      	ldrb	r2, [r0, #2]
   25d00:	0212      	lsls	r2, r2, #8
   25d02:	1851      	adds	r1, r2, r1
   25d04:	8021      	strh	r1, [r4, #0]
   25d06:	3008      	adds	r0, #8
   25d08:	9905      	ldr	r1, [sp, #20]
   25d0a:	6e09      	ldr	r1, [r1, #96]	@ 0x60
   25d0c:	910b      	str	r1, [sp, #44]	@ 0x2c
   25d0e:	4b13      	ldr	r3, [pc, #76]	@ (25d5c <_start+0x1c18>)
   25d10:	446b      	add	r3, sp
   25d12:	930c      	str	r3, [sp, #48]	@ 0x30
   25d14:	c866      	ldmia	r0!, {r1, r2, r5, r6}
   25d16:	c366      	stmia	r3!, {r1, r2, r5, r6}
   25d18:	c866      	ldmia	r0!, {r1, r2, r5, r6}
   25d1a:	c366      	stmia	r3!, {r1, r2, r5, r6}
   25d1c:	8801      	ldrh	r1, [r0, #0]
   25d1e:	8019      	strh	r1, [r3, #0]
   25d20:	7880      	ldrb	r0, [r0, #2]
   25d22:	7098      	strb	r0, [r3, #2]
   25d24:	990b      	ldr	r1, [sp, #44]	@ 0x2c
   25d26:	0e08      	lsrs	r0, r1, #24
   25d28:	71a0      	strb	r0, [r4, #6]
   25d2a:	0c08      	lsrs	r0, r1, #16
   25d2c:	7160      	strb	r0, [r4, #5]
   25d2e:	0a08      	lsrs	r0, r1, #8
   25d30:	7120      	strb	r0, [r4, #4]
   25d32:	70e1      	strb	r1, [r4, #3]
   25d34:	1de0      	adds	r0, r4, #7
   25d36:	2223      	movs	r2, #35	@ 0x23
   25d38:	990c      	ldr	r1, [sp, #48]	@ 0x30
   25d3a:	f001 f966 	bl	2700a <__aeabi_memcpy>
   25d3e:	4d05      	ldr	r5, [pc, #20]	@ (25d54 <_start+0x1c10>)
   25d40:	446d      	add	r5, sp
   25d42:	4628      	mov	r0, r5
   25d44:	4621      	mov	r1, r4
   25d46:	f7fa fd35 	bl	207b4 <_ZN18complex_no_dynamic3app17h20e141e4d308ec85E>
   25d4a:	7828      	ldrb	r0, [r5, #0]
   25d4c:	2801      	cmp	r0, #1
   25d4e:	d107      	bne.n	25d60 <_start+0x1c1c>
   25d50:	f000 ff54 	bl	26bfc <_start+0x2ab8>
   25d54:	000013cc 	.word	0x000013cc
   25d58:	00000bb0 	.word	0x00000bb0
   25d5c:	00001370 	.word	0x00001370
   25d60:	4915      	ldr	r1, [pc, #84]	@ (25db8 <_start+0x1c74>)
   25d62:	4469      	add	r1, sp
   25d64:	78c8      	ldrb	r0, [r1, #3]
   25d66:	4c15      	ldr	r4, [pc, #84]	@ (25dbc <_start+0x1c78>)
   25d68:	446c      	add	r4, sp
   25d6a:	70a0      	strb	r0, [r4, #2]
   25d6c:	7848      	ldrb	r0, [r1, #1]
   25d6e:	788a      	ldrb	r2, [r1, #2]
   25d70:	0212      	lsls	r2, r2, #8
   25d72:	1810      	adds	r0, r2, r0
   25d74:	8020      	strh	r0, [r4, #0]
   25d76:	9805      	ldr	r0, [sp, #20]
   25d78:	6e05      	ldr	r5, [r0, #96]	@ 0x60
   25d7a:	3108      	adds	r1, #8
   25d7c:	4810      	ldr	r0, [pc, #64]	@ (25dc0 <_start+0x1c7c>)
   25d7e:	4468      	add	r0, sp
   25d80:	900c      	str	r0, [sp, #48]	@ 0x30
   25d82:	2652      	movs	r6, #82	@ 0x52
   25d84:	4632      	mov	r2, r6
   25d86:	f000 ffe0 	bl	26d4a <__aeabi_memcpy4>
   25d8a:	0e28      	lsrs	r0, r5, #24
   25d8c:	71a0      	strb	r0, [r4, #6]
   25d8e:	0c28      	lsrs	r0, r5, #16
   25d90:	7160      	strb	r0, [r4, #5]
   25d92:	0a28      	lsrs	r0, r5, #8
   25d94:	7120      	strb	r0, [r4, #4]
   25d96:	70e5      	strb	r5, [r4, #3]
   25d98:	1de0      	adds	r0, r4, #7
   25d9a:	990c      	ldr	r1, [sp, #48]	@ 0x30
   25d9c:	4632      	mov	r2, r6
   25d9e:	f001 f934 	bl	2700a <__aeabi_memcpy>
   25da2:	4d05      	ldr	r5, [pc, #20]	@ (25db8 <_start+0x1c74>)
   25da4:	446d      	add	r5, sp
   25da6:	4628      	mov	r0, r5
   25da8:	4621      	mov	r1, r4
   25daa:	f7fc fab3 	bl	22314 <_ZN18complex_no_dynamic3app17h9a0cb3122315b9b5E>
   25dae:	7828      	ldrb	r0, [r5, #0]
   25db0:	2801      	cmp	r0, #1
   25db2:	d107      	bne.n	25dc4 <_start+0x1c80>
   25db4:	f000 ff22 	bl	26bfc <_start+0x2ab8>
   25db8:	000013cc 	.word	0x000013cc
   25dbc:	00000bdc 	.word	0x00000bdc
   25dc0:	00001370 	.word	0x00001370
   25dc4:	4915      	ldr	r1, [pc, #84]	@ (25e1c <_start+0x1cd8>)
   25dc6:	4469      	add	r1, sp
   25dc8:	78c8      	ldrb	r0, [r1, #3]
   25dca:	4c15      	ldr	r4, [pc, #84]	@ (25e20 <_start+0x1cdc>)
   25dcc:	446c      	add	r4, sp
   25dce:	70a0      	strb	r0, [r4, #2]
   25dd0:	7848      	ldrb	r0, [r1, #1]
   25dd2:	788a      	ldrb	r2, [r1, #2]
   25dd4:	0212      	lsls	r2, r2, #8
   25dd6:	1810      	adds	r0, r2, r0
   25dd8:	8020      	strh	r0, [r4, #0]
   25dda:	9805      	ldr	r0, [sp, #20]
   25ddc:	6e05      	ldr	r5, [r0, #96]	@ 0x60
   25dde:	3108      	adds	r1, #8
   25de0:	4810      	ldr	r0, [pc, #64]	@ (25e24 <_start+0x1ce0>)
   25de2:	4468      	add	r0, sp
   25de4:	900c      	str	r0, [sp, #48]	@ 0x30
   25de6:	2643      	movs	r6, #67	@ 0x43
   25de8:	4632      	mov	r2, r6
   25dea:	f000 ffae 	bl	26d4a <__aeabi_memcpy4>
   25dee:	0e28      	lsrs	r0, r5, #24
   25df0:	71a0      	strb	r0, [r4, #6]
   25df2:	0c28      	lsrs	r0, r5, #16
   25df4:	7160      	strb	r0, [r4, #5]
   25df6:	0a28      	lsrs	r0, r5, #8
   25df8:	7120      	strb	r0, [r4, #4]
   25dfa:	70e5      	strb	r5, [r4, #3]
   25dfc:	1de0      	adds	r0, r4, #7
   25dfe:	990c      	ldr	r1, [sp, #48]	@ 0x30
   25e00:	4632      	mov	r2, r6
   25e02:	f001 f902 	bl	2700a <__aeabi_memcpy>
   25e06:	4d05      	ldr	r5, [pc, #20]	@ (25e1c <_start+0x1cd8>)
   25e08:	446d      	add	r5, sp
   25e0a:	4628      	mov	r0, r5
   25e0c:	4621      	mov	r1, r4
   25e0e:	f7fc fb49 	bl	224a4 <_ZN18complex_no_dynamic3app17ha4202c0c40084696E>
   25e12:	7828      	ldrb	r0, [r5, #0]
   25e14:	2801      	cmp	r0, #1
   25e16:	d107      	bne.n	25e28 <_start+0x1ce4>
   25e18:	f000 fef0 	bl	26bfc <_start+0x2ab8>
   25e1c:	000013cc 	.word	0x000013cc
   25e20:	00000c38 	.word	0x00000c38
   25e24:	00001370 	.word	0x00001370
   25e28:	4817      	ldr	r0, [pc, #92]	@ (25e88 <_start+0x1d44>)
   25e2a:	4468      	add	r0, sp
   25e2c:	78c1      	ldrb	r1, [r0, #3]
   25e2e:	4c17      	ldr	r4, [pc, #92]	@ (25e8c <_start+0x1d48>)
   25e30:	446c      	add	r4, sp
   25e32:	70a1      	strb	r1, [r4, #2]
   25e34:	7841      	ldrb	r1, [r0, #1]
   25e36:	7882      	ldrb	r2, [r0, #2]
   25e38:	0212      	lsls	r2, r2, #8
   25e3a:	1851      	adds	r1, r2, r1
   25e3c:	8021      	strh	r1, [r4, #0]
   25e3e:	3008      	adds	r0, #8
   25e40:	9905      	ldr	r1, [sp, #20]
   25e42:	6e09      	ldr	r1, [r1, #96]	@ 0x60
   25e44:	4b12      	ldr	r3, [pc, #72]	@ (25e90 <_start+0x1d4c>)
   25e46:	446b      	add	r3, sp
   25e48:	930c      	str	r3, [sp, #48]	@ 0x30
   25e4a:	c864      	ldmia	r0!, {r2, r5, r6}
   25e4c:	c364      	stmia	r3!, {r2, r5, r6}
   25e4e:	c864      	ldmia	r0!, {r2, r5, r6}
   25e50:	c364      	stmia	r3!, {r2, r5, r6}
   25e52:	c864      	ldmia	r0!, {r2, r5, r6}
   25e54:	c364      	stmia	r3!, {r2, r5, r6}
   25e56:	8800      	ldrh	r0, [r0, #0]
   25e58:	8018      	strh	r0, [r3, #0]
   25e5a:	0e08      	lsrs	r0, r1, #24
   25e5c:	71a0      	strb	r0, [r4, #6]
   25e5e:	0c08      	lsrs	r0, r1, #16
   25e60:	7160      	strb	r0, [r4, #5]
   25e62:	0a08      	lsrs	r0, r1, #8
   25e64:	7120      	strb	r0, [r4, #4]
   25e66:	70e1      	strb	r1, [r4, #3]
   25e68:	1de0      	adds	r0, r4, #7
   25e6a:	2226      	movs	r2, #38	@ 0x26
   25e6c:	990c      	ldr	r1, [sp, #48]	@ 0x30
   25e6e:	f001 f8cc 	bl	2700a <__aeabi_memcpy>
   25e72:	4d05      	ldr	r5, [pc, #20]	@ (25e88 <_start+0x1d44>)
   25e74:	446d      	add	r5, sp
   25e76:	4628      	mov	r0, r5
   25e78:	4621      	mov	r1, r4
   25e7a:	f7fb fe9b 	bl	21bb4 <_ZN18complex_no_dynamic3app17h783340d3f6631edcE>
   25e7e:	7828      	ldrb	r0, [r5, #0]
   25e80:	2801      	cmp	r0, #1
   25e82:	d107      	bne.n	25e94 <_start+0x1d50>
   25e84:	f000 feba 	bl	26bfc <_start+0x2ab8>
   25e88:	000013cc 	.word	0x000013cc
   25e8c:	00000c84 	.word	0x00000c84
   25e90:	00001370 	.word	0x00001370
   25e94:	4915      	ldr	r1, [pc, #84]	@ (25eec <_start+0x1da8>)
   25e96:	4469      	add	r1, sp
   25e98:	78c8      	ldrb	r0, [r1, #3]
   25e9a:	4c15      	ldr	r4, [pc, #84]	@ (25ef0 <_start+0x1dac>)
   25e9c:	446c      	add	r4, sp
   25e9e:	70a0      	strb	r0, [r4, #2]
   25ea0:	7848      	ldrb	r0, [r1, #1]
   25ea2:	788a      	ldrb	r2, [r1, #2]
   25ea4:	0212      	lsls	r2, r2, #8
   25ea6:	1810      	adds	r0, r2, r0
   25ea8:	8020      	strh	r0, [r4, #0]
   25eaa:	9805      	ldr	r0, [sp, #20]
   25eac:	6e05      	ldr	r5, [r0, #96]	@ 0x60
   25eae:	3108      	adds	r1, #8
   25eb0:	4810      	ldr	r0, [pc, #64]	@ (25ef4 <_start+0x1db0>)
   25eb2:	4468      	add	r0, sp
   25eb4:	900c      	str	r0, [sp, #48]	@ 0x30
   25eb6:	264c      	movs	r6, #76	@ 0x4c
   25eb8:	4632      	mov	r2, r6
   25eba:	f000 ff46 	bl	26d4a <__aeabi_memcpy4>
   25ebe:	0e28      	lsrs	r0, r5, #24
   25ec0:	71a0      	strb	r0, [r4, #6]
   25ec2:	0c28      	lsrs	r0, r5, #16
   25ec4:	7160      	strb	r0, [r4, #5]
   25ec6:	0a28      	lsrs	r0, r5, #8
   25ec8:	7120      	strb	r0, [r4, #4]
   25eca:	70e5      	strb	r5, [r4, #3]
   25ecc:	1de0      	adds	r0, r4, #7
   25ece:	990c      	ldr	r1, [sp, #48]	@ 0x30
   25ed0:	4632      	mov	r2, r6
   25ed2:	f001 f89a 	bl	2700a <__aeabi_memcpy>
   25ed6:	4d05      	ldr	r5, [pc, #20]	@ (25eec <_start+0x1da8>)
   25ed8:	446d      	add	r5, sp
   25eda:	4628      	mov	r0, r5
   25edc:	4621      	mov	r1, r4
   25ede:	f7fc fb8f 	bl	22600 <_ZN18complex_no_dynamic3app17hac21cb4f06864c0dE>
   25ee2:	7828      	ldrb	r0, [r5, #0]
   25ee4:	2801      	cmp	r0, #1
   25ee6:	d107      	bne.n	25ef8 <_start+0x1db4>
   25ee8:	f000 fe88 	bl	26bfc <_start+0x2ab8>
   25eec:	000013cc 	.word	0x000013cc
   25ef0:	00000cb4 	.word	0x00000cb4
   25ef4:	00001370 	.word	0x00001370
   25ef8:	4819      	ldr	r0, [pc, #100]	@ (25f60 <_start+0x1e1c>)
   25efa:	4468      	add	r0, sp
   25efc:	78c1      	ldrb	r1, [r0, #3]
   25efe:	4c19      	ldr	r4, [pc, #100]	@ (25f64 <_start+0x1e20>)
   25f00:	446c      	add	r4, sp
   25f02:	70a1      	strb	r1, [r4, #2]
   25f04:	7841      	ldrb	r1, [r0, #1]
   25f06:	7882      	ldrb	r2, [r0, #2]
   25f08:	0212      	lsls	r2, r2, #8
   25f0a:	1851      	adds	r1, r2, r1
   25f0c:	8021      	strh	r1, [r4, #0]
   25f0e:	3008      	adds	r0, #8
   25f10:	9905      	ldr	r1, [sp, #20]
   25f12:	6e09      	ldr	r1, [r1, #96]	@ 0x60
   25f14:	910b      	str	r1, [sp, #44]	@ 0x2c
   25f16:	4b14      	ldr	r3, [pc, #80]	@ (25f68 <_start+0x1e24>)
   25f18:	446b      	add	r3, sp
   25f1a:	930c      	str	r3, [sp, #48]	@ 0x30
   25f1c:	c866      	ldmia	r0!, {r1, r2, r5, r6}
   25f1e:	c366      	stmia	r3!, {r1, r2, r5, r6}
   25f20:	c866      	ldmia	r0!, {r1, r2, r5, r6}
   25f22:	c366      	stmia	r3!, {r1, r2, r5, r6}
   25f24:	c866      	ldmia	r0!, {r1, r2, r5, r6}
   25f26:	c366      	stmia	r3!, {r1, r2, r5, r6}
   25f28:	8801      	ldrh	r1, [r0, #0]
   25f2a:	8019      	strh	r1, [r3, #0]
   25f2c:	7880      	ldrb	r0, [r0, #2]
   25f2e:	7098      	strb	r0, [r3, #2]
   25f30:	990b      	ldr	r1, [sp, #44]	@ 0x2c
   25f32:	0e08      	lsrs	r0, r1, #24
   25f34:	71a0      	strb	r0, [r4, #6]
   25f36:	0c08      	lsrs	r0, r1, #16
   25f38:	7160      	strb	r0, [r4, #5]
   25f3a:	0a08      	lsrs	r0, r1, #8
   25f3c:	7120      	strb	r0, [r4, #4]
   25f3e:	70e1      	strb	r1, [r4, #3]
   25f40:	1de0      	adds	r0, r4, #7
   25f42:	2233      	movs	r2, #51	@ 0x33
   25f44:	990c      	ldr	r1, [sp, #48]	@ 0x30
   25f46:	f001 f860 	bl	2700a <__aeabi_memcpy>
   25f4a:	4d05      	ldr	r5, [pc, #20]	@ (25f60 <_start+0x1e1c>)
   25f4c:	446d      	add	r5, sp
   25f4e:	4628      	mov	r0, r5
   25f50:	4621      	mov	r1, r4
   25f52:	f7fb f921 	bl	21198 <_ZN18complex_no_dynamic3app17h57ee5913bea08d70E>
   25f56:	7828      	ldrb	r0, [r5, #0]
   25f58:	2801      	cmp	r0, #1
   25f5a:	d107      	bne.n	25f6c <_start+0x1e28>
   25f5c:	f000 fe4e 	bl	26bfc <_start+0x2ab8>
   25f60:	000013cc 	.word	0x000013cc
   25f64:	00000d08 	.word	0x00000d08
   25f68:	00001370 	.word	0x00001370
   25f6c:	4915      	ldr	r1, [pc, #84]	@ (25fc4 <_start+0x1e80>)
   25f6e:	4469      	add	r1, sp
   25f70:	78c8      	ldrb	r0, [r1, #3]
   25f72:	4c15      	ldr	r4, [pc, #84]	@ (25fc8 <_start+0x1e84>)
   25f74:	446c      	add	r4, sp
   25f76:	70a0      	strb	r0, [r4, #2]
   25f78:	7848      	ldrb	r0, [r1, #1]
   25f7a:	788a      	ldrb	r2, [r1, #2]
   25f7c:	0212      	lsls	r2, r2, #8
   25f7e:	1810      	adds	r0, r2, r0
   25f80:	8020      	strh	r0, [r4, #0]
   25f82:	9805      	ldr	r0, [sp, #20]
   25f84:	6e05      	ldr	r5, [r0, #96]	@ 0x60
   25f86:	3108      	adds	r1, #8
   25f88:	4810      	ldr	r0, [pc, #64]	@ (25fcc <_start+0x1e88>)
   25f8a:	4468      	add	r0, sp
   25f8c:	900c      	str	r0, [sp, #48]	@ 0x30
   25f8e:	2656      	movs	r6, #86	@ 0x56
   25f90:	4632      	mov	r2, r6
   25f92:	f000 feda 	bl	26d4a <__aeabi_memcpy4>
   25f96:	0e28      	lsrs	r0, r5, #24
   25f98:	71a0      	strb	r0, [r4, #6]
   25f9a:	0c28      	lsrs	r0, r5, #16
   25f9c:	7160      	strb	r0, [r4, #5]
   25f9e:	0a28      	lsrs	r0, r5, #8
   25fa0:	7120      	strb	r0, [r4, #4]
   25fa2:	70e5      	strb	r5, [r4, #3]
   25fa4:	1de0      	adds	r0, r4, #7
   25fa6:	990c      	ldr	r1, [sp, #48]	@ 0x30
   25fa8:	4632      	mov	r2, r6
   25faa:	f001 f82e 	bl	2700a <__aeabi_memcpy>
   25fae:	4d05      	ldr	r5, [pc, #20]	@ (25fc4 <_start+0x1e80>)
   25fb0:	446d      	add	r5, sp
   25fb2:	4628      	mov	r0, r5
   25fb4:	4621      	mov	r1, r4
   25fb6:	f7fc fc29 	bl	2280c <_ZN18complex_no_dynamic3app17hb077803dad03ce50E>
   25fba:	7828      	ldrb	r0, [r5, #0]
   25fbc:	2801      	cmp	r0, #1
   25fbe:	d107      	bne.n	25fd0 <_start+0x1e8c>
   25fc0:	f000 fe1c 	bl	26bfc <_start+0x2ab8>
   25fc4:	000013cc 	.word	0x000013cc
   25fc8:	00000d44 	.word	0x00000d44
   25fcc:	00001370 	.word	0x00001370
   25fd0:	4819      	ldr	r0, [pc, #100]	@ (26038 <_start+0x1ef4>)
   25fd2:	4468      	add	r0, sp
   25fd4:	78c1      	ldrb	r1, [r0, #3]
   25fd6:	4c19      	ldr	r4, [pc, #100]	@ (2603c <_start+0x1ef8>)
   25fd8:	446c      	add	r4, sp
   25fda:	70a1      	strb	r1, [r4, #2]
   25fdc:	7841      	ldrb	r1, [r0, #1]
   25fde:	7882      	ldrb	r2, [r0, #2]
   25fe0:	0212      	lsls	r2, r2, #8
   25fe2:	1851      	adds	r1, r2, r1
   25fe4:	8021      	strh	r1, [r4, #0]
   25fe6:	3008      	adds	r0, #8
   25fe8:	9905      	ldr	r1, [sp, #20]
   25fea:	6e09      	ldr	r1, [r1, #96]	@ 0x60
   25fec:	910b      	str	r1, [sp, #44]	@ 0x2c
   25fee:	4b14      	ldr	r3, [pc, #80]	@ (26040 <_start+0x1efc>)
   25ff0:	446b      	add	r3, sp
   25ff2:	930c      	str	r3, [sp, #48]	@ 0x30
   25ff4:	c864      	ldmia	r0!, {r2, r5, r6}
   25ff6:	c364      	stmia	r3!, {r2, r5, r6}
   25ff8:	c866      	ldmia	r0!, {r1, r2, r5, r6}
   25ffa:	c366      	stmia	r3!, {r1, r2, r5, r6}
   25ffc:	c826      	ldmia	r0!, {r1, r2, r5}
   25ffe:	c326      	stmia	r3!, {r1, r2, r5}
   26000:	c866      	ldmia	r0!, {r1, r2, r5, r6}
   26002:	c366      	stmia	r3!, {r1, r2, r5, r6}
   26004:	7800      	ldrb	r0, [r0, #0]
   26006:	7018      	strb	r0, [r3, #0]
   26008:	990b      	ldr	r1, [sp, #44]	@ 0x2c
   2600a:	0e08      	lsrs	r0, r1, #24
   2600c:	71a0      	strb	r0, [r4, #6]
   2600e:	0c08      	lsrs	r0, r1, #16
   26010:	7160      	strb	r0, [r4, #5]
   26012:	0a08      	lsrs	r0, r1, #8
   26014:	7120      	strb	r0, [r4, #4]
   26016:	70e1      	strb	r1, [r4, #3]
   26018:	1de0      	adds	r0, r4, #7
   2601a:	2239      	movs	r2, #57	@ 0x39
   2601c:	990c      	ldr	r1, [sp, #48]	@ 0x30
   2601e:	f000 fff4 	bl	2700a <__aeabi_memcpy>
   26022:	4d05      	ldr	r5, [pc, #20]	@ (26038 <_start+0x1ef4>)
   26024:	446d      	add	r5, sp
   26026:	4628      	mov	r0, r5
   26028:	4621      	mov	r1, r4
   2602a:	f7fc fcf1 	bl	22a10 <_ZN18complex_no_dynamic3app17hba1ca78aaf629845E>
   2602e:	7828      	ldrb	r0, [r5, #0]
   26030:	2801      	cmp	r0, #1
   26032:	d107      	bne.n	26044 <_start+0x1f00>
   26034:	f000 fde2 	bl	26bfc <_start+0x2ab8>
   26038:	000013cc 	.word	0x000013cc
   2603c:	00000da4 	.word	0x00000da4
   26040:	00001370 	.word	0x00001370
   26044:	4818      	ldr	r0, [pc, #96]	@ (260a8 <_start+0x1f64>)
   26046:	4468      	add	r0, sp
   26048:	78c1      	ldrb	r1, [r0, #3]
   2604a:	4c18      	ldr	r4, [pc, #96]	@ (260ac <_start+0x1f68>)
   2604c:	446c      	add	r4, sp
   2604e:	70a1      	strb	r1, [r4, #2]
   26050:	7841      	ldrb	r1, [r0, #1]
   26052:	7882      	ldrb	r2, [r0, #2]
   26054:	0212      	lsls	r2, r2, #8
   26056:	1851      	adds	r1, r2, r1
   26058:	8021      	strh	r1, [r4, #0]
   2605a:	3008      	adds	r0, #8
   2605c:	9905      	ldr	r1, [sp, #20]
   2605e:	6e09      	ldr	r1, [r1, #96]	@ 0x60
   26060:	910b      	str	r1, [sp, #44]	@ 0x2c
   26062:	4b13      	ldr	r3, [pc, #76]	@ (260b0 <_start+0x1f6c>)
   26064:	446b      	add	r3, sp
   26066:	930c      	str	r3, [sp, #48]	@ 0x30
   26068:	c864      	ldmia	r0!, {r2, r5, r6}
   2606a:	c364      	stmia	r3!, {r2, r5, r6}
   2606c:	c864      	ldmia	r0!, {r2, r5, r6}
   2606e:	c364      	stmia	r3!, {r2, r5, r6}
   26070:	c866      	ldmia	r0!, {r1, r2, r5, r6}
   26072:	c366      	stmia	r3!, {r1, r2, r5, r6}
   26074:	8800      	ldrh	r0, [r0, #0]
   26076:	8018      	strh	r0, [r3, #0]
   26078:	990b      	ldr	r1, [sp, #44]	@ 0x2c
   2607a:	0e08      	lsrs	r0, r1, #24
   2607c:	71a0      	strb	r0, [r4, #6]
   2607e:	0c08      	lsrs	r0, r1, #16
   26080:	7160      	strb	r0, [r4, #5]
   26082:	0a08      	lsrs	r0, r1, #8
   26084:	7120      	strb	r0, [r4, #4]
   26086:	70e1      	strb	r1, [r4, #3]
   26088:	1de0      	adds	r0, r4, #7
   2608a:	222a      	movs	r2, #42	@ 0x2a
   2608c:	990c      	ldr	r1, [sp, #48]	@ 0x30
   2608e:	f000 ffbc 	bl	2700a <__aeabi_memcpy>
   26092:	4d05      	ldr	r5, [pc, #20]	@ (260a8 <_start+0x1f64>)
   26094:	446d      	add	r5, sp
   26096:	4628      	mov	r0, r5
   26098:	4621      	mov	r1, r4
   2609a:	f7fd fa45 	bl	23528 <_ZN18complex_no_dynamic3app17hdf83150691c59ebdE>
   2609e:	7828      	ldrb	r0, [r5, #0]
   260a0:	2801      	cmp	r0, #1
   260a2:	d107      	bne.n	260b4 <_start+0x1f70>
   260a4:	f000 fdaa 	bl	26bfc <_start+0x2ab8>
   260a8:	000013cc 	.word	0x000013cc
   260ac:	00000de4 	.word	0x00000de4
   260b0:	00001370 	.word	0x00001370
   260b4:	4915      	ldr	r1, [pc, #84]	@ (2610c <_start+0x1fc8>)
   260b6:	4469      	add	r1, sp
   260b8:	78c8      	ldrb	r0, [r1, #3]
   260ba:	4c15      	ldr	r4, [pc, #84]	@ (26110 <_start+0x1fcc>)
   260bc:	446c      	add	r4, sp
   260be:	70a0      	strb	r0, [r4, #2]
   260c0:	7848      	ldrb	r0, [r1, #1]
   260c2:	788a      	ldrb	r2, [r1, #2]
   260c4:	0212      	lsls	r2, r2, #8
   260c6:	1810      	adds	r0, r2, r0
   260c8:	8020      	strh	r0, [r4, #0]
   260ca:	9805      	ldr	r0, [sp, #20]
   260cc:	6e05      	ldr	r5, [r0, #96]	@ 0x60
   260ce:	3108      	adds	r1, #8
   260d0:	4810      	ldr	r0, [pc, #64]	@ (26114 <_start+0x1fd0>)
   260d2:	4468      	add	r0, sp
   260d4:	900c      	str	r0, [sp, #48]	@ 0x30
   260d6:	2641      	movs	r6, #65	@ 0x41
   260d8:	4632      	mov	r2, r6
   260da:	f000 fe36 	bl	26d4a <__aeabi_memcpy4>
   260de:	0e28      	lsrs	r0, r5, #24
   260e0:	71a0      	strb	r0, [r4, #6]
   260e2:	0c28      	lsrs	r0, r5, #16
   260e4:	7160      	strb	r0, [r4, #5]
   260e6:	0a28      	lsrs	r0, r5, #8
   260e8:	7120      	strb	r0, [r4, #4]
   260ea:	70e5      	strb	r5, [r4, #3]
   260ec:	1de0      	adds	r0, r4, #7
   260ee:	990c      	ldr	r1, [sp, #48]	@ 0x30
   260f0:	4632      	mov	r2, r6
   260f2:	f000 ff8a 	bl	2700a <__aeabi_memcpy>
   260f6:	4d05      	ldr	r5, [pc, #20]	@ (2610c <_start+0x1fc8>)
   260f8:	446d      	add	r5, sp
   260fa:	4628      	mov	r0, r5
   260fc:	4621      	mov	r1, r4
   260fe:	f7fb ff5b 	bl	21fb8 <_ZN18complex_no_dynamic3app17h8bfde375dfb4f779E>
   26102:	7828      	ldrb	r0, [r5, #0]
   26104:	2801      	cmp	r0, #1
   26106:	d107      	bne.n	26118 <_start+0x1fd4>
   26108:	f000 fd78 	bl	26bfc <_start+0x2ab8>
   2610c:	000013cc 	.word	0x000013cc
   26110:	00000e18 	.word	0x00000e18
   26114:	00001370 	.word	0x00001370
   26118:	4817      	ldr	r0, [pc, #92]	@ (26178 <_start+0x2034>)
   2611a:	4468      	add	r0, sp
   2611c:	78c1      	ldrb	r1, [r0, #3]
   2611e:	4c17      	ldr	r4, [pc, #92]	@ (2617c <_start+0x2038>)
   26120:	446c      	add	r4, sp
   26122:	70a1      	strb	r1, [r4, #2]
   26124:	7841      	ldrb	r1, [r0, #1]
   26126:	7882      	ldrb	r2, [r0, #2]
   26128:	0212      	lsls	r2, r2, #8
   2612a:	1851      	adds	r1, r2, r1
   2612c:	8021      	strh	r1, [r4, #0]
   2612e:	3008      	adds	r0, #8
   26130:	9905      	ldr	r1, [sp, #20]
   26132:	6e09      	ldr	r1, [r1, #96]	@ 0x60
   26134:	910b      	str	r1, [sp, #44]	@ 0x2c
   26136:	4b12      	ldr	r3, [pc, #72]	@ (26180 <_start+0x203c>)
   26138:	446b      	add	r3, sp
   2613a:	930c      	str	r3, [sp, #48]	@ 0x30
   2613c:	c866      	ldmia	r0!, {r1, r2, r5, r6}
   2613e:	c366      	stmia	r3!, {r1, r2, r5, r6}
   26140:	c866      	ldmia	r0!, {r1, r2, r5, r6}
   26142:	c366      	stmia	r3!, {r1, r2, r5, r6}
   26144:	8800      	ldrh	r0, [r0, #0]
   26146:	8018      	strh	r0, [r3, #0]
   26148:	990b      	ldr	r1, [sp, #44]	@ 0x2c
   2614a:	0e08      	lsrs	r0, r1, #24
   2614c:	71a0      	strb	r0, [r4, #6]
   2614e:	0c08      	lsrs	r0, r1, #16
   26150:	7160      	strb	r0, [r4, #5]
   26152:	0a08      	lsrs	r0, r1, #8
   26154:	7120      	strb	r0, [r4, #4]
   26156:	70e1      	strb	r1, [r4, #3]
   26158:	1de0      	adds	r0, r4, #7
   2615a:	2222      	movs	r2, #34	@ 0x22
   2615c:	990c      	ldr	r1, [sp, #48]	@ 0x30
   2615e:	f000 ff54 	bl	2700a <__aeabi_memcpy>
   26162:	4d05      	ldr	r5, [pc, #20]	@ (26178 <_start+0x2034>)
   26164:	446d      	add	r5, sp
   26166:	4628      	mov	r0, r5
   26168:	4621      	mov	r1, r4
   2616a:	f7fa f811 	bl	20190 <_ZN18complex_no_dynamic3app17h0552072d6aee1693E>
   2616e:	7828      	ldrb	r0, [r5, #0]
   26170:	2801      	cmp	r0, #1
   26172:	d107      	bne.n	26184 <_start+0x2040>
   26174:	f000 fd42 	bl	26bfc <_start+0x2ab8>
   26178:	000013cc 	.word	0x000013cc
   2617c:	00000e60 	.word	0x00000e60
   26180:	00001370 	.word	0x00001370
   26184:	4817      	ldr	r0, [pc, #92]	@ (261e4 <_start+0x20a0>)
   26186:	4468      	add	r0, sp
   26188:	78c1      	ldrb	r1, [r0, #3]
   2618a:	4c17      	ldr	r4, [pc, #92]	@ (261e8 <_start+0x20a4>)
   2618c:	446c      	add	r4, sp
   2618e:	70a1      	strb	r1, [r4, #2]
   26190:	7841      	ldrb	r1, [r0, #1]
   26192:	7882      	ldrb	r2, [r0, #2]
   26194:	0212      	lsls	r2, r2, #8
   26196:	1851      	adds	r1, r2, r1
   26198:	8021      	strh	r1, [r4, #0]
   2619a:	3008      	adds	r0, #8
   2619c:	9905      	ldr	r1, [sp, #20]
   2619e:	6e09      	ldr	r1, [r1, #96]	@ 0x60
   261a0:	910b      	str	r1, [sp, #44]	@ 0x2c
   261a2:	4b12      	ldr	r3, [pc, #72]	@ (261ec <_start+0x20a8>)
   261a4:	446b      	add	r3, sp
   261a6:	930c      	str	r3, [sp, #48]	@ 0x30
   261a8:	c866      	ldmia	r0!, {r1, r2, r5, r6}
   261aa:	c366      	stmia	r3!, {r1, r2, r5, r6}
   261ac:	8801      	ldrh	r1, [r0, #0]
   261ae:	8019      	strh	r1, [r3, #0]
   261b0:	7880      	ldrb	r0, [r0, #2]
   261b2:	7098      	strb	r0, [r3, #2]
   261b4:	990b      	ldr	r1, [sp, #44]	@ 0x2c
   261b6:	0e08      	lsrs	r0, r1, #24
   261b8:	71a0      	strb	r0, [r4, #6]
   261ba:	0c08      	lsrs	r0, r1, #16
   261bc:	7160      	strb	r0, [r4, #5]
   261be:	0a08      	lsrs	r0, r1, #8
   261c0:	7120      	strb	r0, [r4, #4]
   261c2:	70e1      	strb	r1, [r4, #3]
   261c4:	1de0      	adds	r0, r4, #7
   261c6:	2213      	movs	r2, #19
   261c8:	990c      	ldr	r1, [sp, #48]	@ 0x30
   261ca:	f000 ff1e 	bl	2700a <__aeabi_memcpy>
   261ce:	4d05      	ldr	r5, [pc, #20]	@ (261e4 <_start+0x20a0>)
   261d0:	446d      	add	r5, sp
   261d2:	4628      	mov	r0, r5
   261d4:	4621      	mov	r1, r4
   261d6:	f7fd f8f5 	bl	233c4 <_ZN18complex_no_dynamic3app17hd9626285bba282a6E>
   261da:	7828      	ldrb	r0, [r5, #0]
   261dc:	2801      	cmp	r0, #1
   261de:	d107      	bne.n	261f0 <_start+0x20ac>
   261e0:	f000 fd0c 	bl	26bfc <_start+0x2ab8>
   261e4:	000013cc 	.word	0x000013cc
   261e8:	00000e8c 	.word	0x00000e8c
   261ec:	00001370 	.word	0x00001370
   261f0:	4815      	ldr	r0, [pc, #84]	@ (26248 <_start+0x2104>)
   261f2:	4468      	add	r0, sp
   261f4:	78c1      	ldrb	r1, [r0, #3]
   261f6:	4c15      	ldr	r4, [pc, #84]	@ (2624c <_start+0x2108>)
   261f8:	446c      	add	r4, sp
   261fa:	70a1      	strb	r1, [r4, #2]
   261fc:	7841      	ldrb	r1, [r0, #1]
   261fe:	7882      	ldrb	r2, [r0, #2]
   26200:	0212      	lsls	r2, r2, #8
   26202:	1851      	adds	r1, r2, r1
   26204:	8021      	strh	r1, [r4, #0]
   26206:	3008      	adds	r0, #8
   26208:	9905      	ldr	r1, [sp, #20]
   2620a:	6e09      	ldr	r1, [r1, #96]	@ 0x60
   2620c:	4b10      	ldr	r3, [pc, #64]	@ (26250 <_start+0x210c>)
   2620e:	446b      	add	r3, sp
   26210:	930c      	str	r3, [sp, #48]	@ 0x30
   26212:	c860      	ldmia	r0!, {r5, r6}
   26214:	c360      	stmia	r3!, {r5, r6}
   26216:	c864      	ldmia	r0!, {r2, r5, r6}
   26218:	c364      	stmia	r3!, {r2, r5, r6}
   2621a:	0e08      	lsrs	r0, r1, #24
   2621c:	71a0      	strb	r0, [r4, #6]
   2621e:	0c08      	lsrs	r0, r1, #16
   26220:	7160      	strb	r0, [r4, #5]
   26222:	0a08      	lsrs	r0, r1, #8
   26224:	7120      	strb	r0, [r4, #4]
   26226:	70e1      	strb	r1, [r4, #3]
   26228:	1de0      	adds	r0, r4, #7
   2622a:	2214      	movs	r2, #20
   2622c:	990c      	ldr	r1, [sp, #48]	@ 0x30
   2622e:	f000 feec 	bl	2700a <__aeabi_memcpy>
   26232:	4d05      	ldr	r5, [pc, #20]	@ (26248 <_start+0x2104>)
   26234:	446d      	add	r5, sp
   26236:	4628      	mov	r0, r5
   26238:	4621      	mov	r1, r4
   2623a:	f7fd fad3 	bl	237e4 <_ZN18complex_no_dynamic3app17he29e6aa975898e78E>
   2623e:	7828      	ldrb	r0, [r5, #0]
   26240:	2801      	cmp	r0, #1
   26242:	d107      	bne.n	26254 <_start+0x2110>
   26244:	f000 fcda 	bl	26bfc <_start+0x2ab8>
   26248:	000013cc 	.word	0x000013cc
   2624c:	00000ea8 	.word	0x00000ea8
   26250:	00001370 	.word	0x00001370
   26254:	4819      	ldr	r0, [pc, #100]	@ (262bc <_start+0x2178>)
   26256:	4468      	add	r0, sp
   26258:	78c1      	ldrb	r1, [r0, #3]
   2625a:	4c19      	ldr	r4, [pc, #100]	@ (262c0 <_start+0x217c>)
   2625c:	446c      	add	r4, sp
   2625e:	70a1      	strb	r1, [r4, #2]
   26260:	7841      	ldrb	r1, [r0, #1]
   26262:	7882      	ldrb	r2, [r0, #2]
   26264:	0212      	lsls	r2, r2, #8
   26266:	1851      	adds	r1, r2, r1
   26268:	8021      	strh	r1, [r4, #0]
   2626a:	3008      	adds	r0, #8
   2626c:	9905      	ldr	r1, [sp, #20]
   2626e:	6e09      	ldr	r1, [r1, #96]	@ 0x60
   26270:	910b      	str	r1, [sp, #44]	@ 0x2c
   26272:	4b14      	ldr	r3, [pc, #80]	@ (262c4 <_start+0x2180>)
   26274:	446b      	add	r3, sp
   26276:	930c      	str	r3, [sp, #48]	@ 0x30
   26278:	c864      	ldmia	r0!, {r2, r5, r6}
   2627a:	c364      	stmia	r3!, {r2, r5, r6}
   2627c:	c866      	ldmia	r0!, {r1, r2, r5, r6}
   2627e:	c366      	stmia	r3!, {r1, r2, r5, r6}
   26280:	c826      	ldmia	r0!, {r1, r2, r5}
   26282:	c326      	stmia	r3!, {r1, r2, r5}
   26284:	c866      	ldmia	r0!, {r1, r2, r5, r6}
   26286:	c366      	stmia	r3!, {r1, r2, r5, r6}
   26288:	8800      	ldrh	r0, [r0, #0]
   2628a:	8018      	strh	r0, [r3, #0]
   2628c:	990b      	ldr	r1, [sp, #44]	@ 0x2c
   2628e:	0e08      	lsrs	r0, r1, #24
   26290:	71a0      	strb	r0, [r4, #6]
   26292:	0c08      	lsrs	r0, r1, #16
   26294:	7160      	strb	r0, [r4, #5]
   26296:	0a08      	lsrs	r0, r1, #8
   26298:	7120      	strb	r0, [r4, #4]
   2629a:	70e1      	strb	r1, [r4, #3]
   2629c:	1de0      	adds	r0, r4, #7
   2629e:	223a      	movs	r2, #58	@ 0x3a
   262a0:	990c      	ldr	r1, [sp, #48]	@ 0x30
   262a2:	f000 feb2 	bl	2700a <__aeabi_memcpy>
   262a6:	4d05      	ldr	r5, [pc, #20]	@ (262bc <_start+0x2178>)
   262a8:	446d      	add	r5, sp
   262aa:	4628      	mov	r0, r5
   262ac:	4621      	mov	r1, r4
   262ae:	f7fa fc35 	bl	20b1c <_ZN18complex_no_dynamic3app17h3ea8a481e84b1984E>
   262b2:	7828      	ldrb	r0, [r5, #0]
   262b4:	2801      	cmp	r0, #1
   262b6:	d107      	bne.n	262c8 <_start+0x2184>
   262b8:	f000 fca0 	bl	26bfc <_start+0x2ab8>
   262bc:	000013cc 	.word	0x000013cc
   262c0:	00000ec4 	.word	0x00000ec4
   262c4:	00001370 	.word	0x00001370
   262c8:	4816      	ldr	r0, [pc, #88]	@ (26324 <_start+0x21e0>)
   262ca:	4468      	add	r0, sp
   262cc:	78c1      	ldrb	r1, [r0, #3]
   262ce:	4c16      	ldr	r4, [pc, #88]	@ (26328 <_start+0x21e4>)
   262d0:	446c      	add	r4, sp
   262d2:	70a1      	strb	r1, [r4, #2]
   262d4:	7841      	ldrb	r1, [r0, #1]
   262d6:	7882      	ldrb	r2, [r0, #2]
   262d8:	0212      	lsls	r2, r2, #8
   262da:	1851      	adds	r1, r2, r1
   262dc:	8021      	strh	r1, [r4, #0]
   262de:	3008      	adds	r0, #8
   262e0:	9905      	ldr	r1, [sp, #20]
   262e2:	6e09      	ldr	r1, [r1, #96]	@ 0x60
   262e4:	910b      	str	r1, [sp, #44]	@ 0x2c
   262e6:	4b11      	ldr	r3, [pc, #68]	@ (2632c <_start+0x21e8>)
   262e8:	446b      	add	r3, sp
   262ea:	930c      	str	r3, [sp, #48]	@ 0x30
   262ec:	c866      	ldmia	r0!, {r1, r2, r5, r6}
   262ee:	c366      	stmia	r3!, {r1, r2, r5, r6}
   262f0:	7800      	ldrb	r0, [r0, #0]
   262f2:	7018      	strb	r0, [r3, #0]
   262f4:	990b      	ldr	r1, [sp, #44]	@ 0x2c
   262f6:	0e08      	lsrs	r0, r1, #24
   262f8:	71a0      	strb	r0, [r4, #6]
   262fa:	0c08      	lsrs	r0, r1, #16
   262fc:	7160      	strb	r0, [r4, #5]
   262fe:	0a08      	lsrs	r0, r1, #8
   26300:	7120      	strb	r0, [r4, #4]
   26302:	70e1      	strb	r1, [r4, #3]
   26304:	1de0      	adds	r0, r4, #7
   26306:	2211      	movs	r2, #17
   26308:	990c      	ldr	r1, [sp, #48]	@ 0x30
   2630a:	f000 fe7e 	bl	2700a <__aeabi_memcpy>
   2630e:	4d05      	ldr	r5, [pc, #20]	@ (26324 <_start+0x21e0>)
   26310:	446d      	add	r5, sp
   26312:	4628      	mov	r0, r5
   26314:	4621      	mov	r1, r4
   26316:	f7fb faef 	bl	218f8 <_ZN18complex_no_dynamic3app17h6b6ce324fb950163E>
   2631a:	7828      	ldrb	r0, [r5, #0]
   2631c:	2801      	cmp	r0, #1
   2631e:	d107      	bne.n	26330 <_start+0x21ec>
   26320:	f000 fc6c 	bl	26bfc <_start+0x2ab8>
   26324:	000013cc 	.word	0x000013cc
   26328:	00000f08 	.word	0x00000f08
   2632c:	00001370 	.word	0x00001370
   26330:	4817      	ldr	r0, [pc, #92]	@ (26390 <_start+0x224c>)
   26332:	4468      	add	r0, sp
   26334:	78c1      	ldrb	r1, [r0, #3]
   26336:	4c17      	ldr	r4, [pc, #92]	@ (26394 <_start+0x2250>)
   26338:	446c      	add	r4, sp
   2633a:	70a1      	strb	r1, [r4, #2]
   2633c:	7841      	ldrb	r1, [r0, #1]
   2633e:	7882      	ldrb	r2, [r0, #2]
   26340:	0212      	lsls	r2, r2, #8
   26342:	1851      	adds	r1, r2, r1
   26344:	8021      	strh	r1, [r4, #0]
   26346:	3008      	adds	r0, #8
   26348:	9905      	ldr	r1, [sp, #20]
   2634a:	6e09      	ldr	r1, [r1, #96]	@ 0x60
   2634c:	4b12      	ldr	r3, [pc, #72]	@ (26398 <_start+0x2254>)
   2634e:	446b      	add	r3, sp
   26350:	930c      	str	r3, [sp, #48]	@ 0x30
   26352:	c860      	ldmia	r0!, {r5, r6}
   26354:	c360      	stmia	r3!, {r5, r6}
   26356:	c864      	ldmia	r0!, {r2, r5, r6}
   26358:	c364      	stmia	r3!, {r2, r5, r6}
   2635a:	8802      	ldrh	r2, [r0, #0]
   2635c:	801a      	strh	r2, [r3, #0]
   2635e:	7880      	ldrb	r0, [r0, #2]
   26360:	7098      	strb	r0, [r3, #2]
   26362:	0e08      	lsrs	r0, r1, #24
   26364:	71a0      	strb	r0, [r4, #6]
   26366:	0c08      	lsrs	r0, r1, #16
   26368:	7160      	strb	r0, [r4, #5]
   2636a:	0a08      	lsrs	r0, r1, #8
   2636c:	7120      	strb	r0, [r4, #4]
   2636e:	70e1      	strb	r1, [r4, #3]
   26370:	1de0      	adds	r0, r4, #7
   26372:	2217      	movs	r2, #23
   26374:	990c      	ldr	r1, [sp, #48]	@ 0x30
   26376:	f000 fe48 	bl	2700a <__aeabi_memcpy>
   2637a:	4d05      	ldr	r5, [pc, #20]	@ (26390 <_start+0x224c>)
   2637c:	446d      	add	r5, sp
   2637e:	4628      	mov	r0, r5
   26380:	4621      	mov	r1, r4
   26382:	f7fd fa85 	bl	23890 <_ZN18complex_no_dynamic3app17he3673a4f8c54ac24E>
   26386:	7828      	ldrb	r0, [r5, #0]
   26388:	2801      	cmp	r0, #1
   2638a:	d107      	bne.n	2639c <_start+0x2258>
   2638c:	f000 fc36 	bl	26bfc <_start+0x2ab8>
   26390:	000013cc 	.word	0x000013cc
   26394:	00000f20 	.word	0x00000f20
   26398:	00001370 	.word	0x00001370
   2639c:	4819      	ldr	r0, [pc, #100]	@ (26404 <_start+0x22c0>)
   2639e:	4468      	add	r0, sp
   263a0:	78c1      	ldrb	r1, [r0, #3]
   263a2:	4c19      	ldr	r4, [pc, #100]	@ (26408 <_start+0x22c4>)
   263a4:	446c      	add	r4, sp
   263a6:	70a1      	strb	r1, [r4, #2]
   263a8:	7841      	ldrb	r1, [r0, #1]
   263aa:	7882      	ldrb	r2, [r0, #2]
   263ac:	0212      	lsls	r2, r2, #8
   263ae:	1851      	adds	r1, r2, r1
   263b0:	8021      	strh	r1, [r4, #0]
   263b2:	3008      	adds	r0, #8
   263b4:	9905      	ldr	r1, [sp, #20]
   263b6:	6e09      	ldr	r1, [r1, #96]	@ 0x60
   263b8:	910b      	str	r1, [sp, #44]	@ 0x2c
   263ba:	4b14      	ldr	r3, [pc, #80]	@ (2640c <_start+0x22c8>)
   263bc:	446b      	add	r3, sp
   263be:	930c      	str	r3, [sp, #48]	@ 0x30
   263c0:	c864      	ldmia	r0!, {r2, r5, r6}
   263c2:	c364      	stmia	r3!, {r2, r5, r6}
   263c4:	c864      	ldmia	r0!, {r2, r5, r6}
   263c6:	c364      	stmia	r3!, {r2, r5, r6}
   263c8:	c864      	ldmia	r0!, {r2, r5, r6}
   263ca:	c364      	stmia	r3!, {r2, r5, r6}
   263cc:	c866      	ldmia	r0!, {r1, r2, r5, r6}
   263ce:	c366      	stmia	r3!, {r1, r2, r5, r6}
   263d0:	7800      	ldrb	r0, [r0, #0]
   263d2:	7018      	strb	r0, [r3, #0]
   263d4:	990b      	ldr	r1, [sp, #44]	@ 0x2c
   263d6:	0e08      	lsrs	r0, r1, #24
   263d8:	71a0      	strb	r0, [r4, #6]
   263da:	0c08      	lsrs	r0, r1, #16
   263dc:	7160      	strb	r0, [r4, #5]
   263de:	0a08      	lsrs	r0, r1, #8
   263e0:	7120      	strb	r0, [r4, #4]
   263e2:	70e1      	strb	r1, [r4, #3]
   263e4:	1de0      	adds	r0, r4, #7
   263e6:	2235      	movs	r2, #53	@ 0x35
   263e8:	990c      	ldr	r1, [sp, #48]	@ 0x30
   263ea:	f000 fe0e 	bl	2700a <__aeabi_memcpy>
   263ee:	4d05      	ldr	r5, [pc, #20]	@ (26404 <_start+0x22c0>)
   263f0:	446d      	add	r5, sp
   263f2:	4628      	mov	r0, r5
   263f4:	4621      	mov	r1, r4
   263f6:	f7fa fa8d 	bl	20914 <_ZN18complex_no_dynamic3app17h2dc4248f04547cb2E>
   263fa:	7828      	ldrb	r0, [r5, #0]
   263fc:	2801      	cmp	r0, #1
   263fe:	d107      	bne.n	26410 <_start+0x22cc>
   26400:	e3fc      	b.n	26bfc <_start+0x2ab8>
   26402:	46c0      	nop			@ (mov r8, r8)
   26404:	000013cc 	.word	0x000013cc
   26408:	00000f40 	.word	0x00000f40
   2640c:	00001370 	.word	0x00001370
   26410:	4817      	ldr	r0, [pc, #92]	@ (26470 <_start+0x232c>)
   26412:	4468      	add	r0, sp
   26414:	78c1      	ldrb	r1, [r0, #3]
   26416:	4c17      	ldr	r4, [pc, #92]	@ (26474 <_start+0x2330>)
   26418:	446c      	add	r4, sp
   2641a:	70a1      	strb	r1, [r4, #2]
   2641c:	7841      	ldrb	r1, [r0, #1]
   2641e:	7882      	ldrb	r2, [r0, #2]
   26420:	0212      	lsls	r2, r2, #8
   26422:	1851      	adds	r1, r2, r1
   26424:	8021      	strh	r1, [r4, #0]
   26426:	3008      	adds	r0, #8
   26428:	9905      	ldr	r1, [sp, #20]
   2642a:	6e09      	ldr	r1, [r1, #96]	@ 0x60
   2642c:	4b12      	ldr	r3, [pc, #72]	@ (26478 <_start+0x2334>)
   2642e:	446b      	add	r3, sp
   26430:	930c      	str	r3, [sp, #48]	@ 0x30
   26432:	c864      	ldmia	r0!, {r2, r5, r6}
   26434:	c364      	stmia	r3!, {r2, r5, r6}
   26436:	c864      	ldmia	r0!, {r2, r5, r6}
   26438:	c364      	stmia	r3!, {r2, r5, r6}
   2643a:	c864      	ldmia	r0!, {r2, r5, r6}
   2643c:	c364      	stmia	r3!, {r2, r5, r6}
   2643e:	7800      	ldrb	r0, [r0, #0]
   26440:	7018      	strb	r0, [r3, #0]
   26442:	0e08      	lsrs	r0, r1, #24
   26444:	71a0      	strb	r0, [r4, #6]
   26446:	0c08      	lsrs	r0, r1, #16
   26448:	7160      	strb	r0, [r4, #5]
   2644a:	0a08      	lsrs	r0, r1, #8
   2644c:	7120      	strb	r0, [r4, #4]
   2644e:	70e1      	strb	r1, [r4, #3]
   26450:	1de0      	adds	r0, r4, #7
   26452:	2225      	movs	r2, #37	@ 0x25
   26454:	990c      	ldr	r1, [sp, #48]	@ 0x30
   26456:	f000 fdd8 	bl	2700a <__aeabi_memcpy>
   2645a:	4d05      	ldr	r5, [pc, #20]	@ (26470 <_start+0x232c>)
   2645c:	446d      	add	r5, sp
   2645e:	4628      	mov	r0, r5
   26460:	4621      	mov	r1, r4
   26462:	f7fc fbdb 	bl	22c1c <_ZN18complex_no_dynamic3app17hbf94c83d1ee9d763E>
   26466:	7828      	ldrb	r0, [r5, #0]
   26468:	2801      	cmp	r0, #1
   2646a:	d107      	bne.n	2647c <_start+0x2338>
   2646c:	e3c6      	b.n	26bfc <_start+0x2ab8>
   2646e:	46c0      	nop			@ (mov r8, r8)
   26470:	000013cc 	.word	0x000013cc
   26474:	00000f7c 	.word	0x00000f7c
   26478:	00001370 	.word	0x00001370
   2647c:	4816      	ldr	r0, [pc, #88]	@ (264d8 <_start+0x2394>)
   2647e:	4468      	add	r0, sp
   26480:	78c1      	ldrb	r1, [r0, #3]
   26482:	4c16      	ldr	r4, [pc, #88]	@ (264dc <_start+0x2398>)
   26484:	446c      	add	r4, sp
   26486:	70a1      	strb	r1, [r4, #2]
   26488:	7841      	ldrb	r1, [r0, #1]
   2648a:	7882      	ldrb	r2, [r0, #2]
   2648c:	0212      	lsls	r2, r2, #8
   2648e:	1851      	adds	r1, r2, r1
   26490:	8021      	strh	r1, [r4, #0]
   26492:	3008      	adds	r0, #8
   26494:	9905      	ldr	r1, [sp, #20]
   26496:	6e09      	ldr	r1, [r1, #96]	@ 0x60
   26498:	910b      	str	r1, [sp, #44]	@ 0x2c
   2649a:	4b11      	ldr	r3, [pc, #68]	@ (264e0 <_start+0x239c>)
   2649c:	446b      	add	r3, sp
   2649e:	930c      	str	r3, [sp, #48]	@ 0x30
   264a0:	c866      	ldmia	r0!, {r1, r2, r5, r6}
   264a2:	c366      	stmia	r3!, {r1, r2, r5, r6}
   264a4:	c866      	ldmia	r0!, {r1, r2, r5, r6}
   264a6:	c366      	stmia	r3!, {r1, r2, r5, r6}
   264a8:	990b      	ldr	r1, [sp, #44]	@ 0x2c
   264aa:	0e08      	lsrs	r0, r1, #24
   264ac:	71a0      	strb	r0, [r4, #6]
   264ae:	0c08      	lsrs	r0, r1, #16
   264b0:	7160      	strb	r0, [r4, #5]
   264b2:	0a08      	lsrs	r0, r1, #8
   264b4:	7120      	strb	r0, [r4, #4]
   264b6:	70e1      	strb	r1, [r4, #3]
   264b8:	1de0      	adds	r0, r4, #7
   264ba:	2220      	movs	r2, #32
   264bc:	990c      	ldr	r1, [sp, #48]	@ 0x30
   264be:	f000 fda4 	bl	2700a <__aeabi_memcpy>
   264c2:	4d05      	ldr	r5, [pc, #20]	@ (264d8 <_start+0x2394>)
   264c4:	446d      	add	r5, sp
   264c6:	4628      	mov	r0, r5
   264c8:	4621      	mov	r1, r4
   264ca:	f7fb fbc9 	bl	21c60 <_ZN18complex_no_dynamic3app17h7fe906ac8cec4b31E>
   264ce:	7828      	ldrb	r0, [r5, #0]
   264d0:	2801      	cmp	r0, #1
   264d2:	d107      	bne.n	264e4 <_start+0x23a0>
   264d4:	e392      	b.n	26bfc <_start+0x2ab8>
   264d6:	46c0      	nop			@ (mov r8, r8)
   264d8:	000013cc 	.word	0x000013cc
   264dc:	00000fa8 	.word	0x00000fa8
   264e0:	00001370 	.word	0x00001370
   264e4:	4915      	ldr	r1, [pc, #84]	@ (2653c <_start+0x23f8>)
   264e6:	4469      	add	r1, sp
   264e8:	78c8      	ldrb	r0, [r1, #3]
   264ea:	4c15      	ldr	r4, [pc, #84]	@ (26540 <_start+0x23fc>)
   264ec:	446c      	add	r4, sp
   264ee:	70a0      	strb	r0, [r4, #2]
   264f0:	7848      	ldrb	r0, [r1, #1]
   264f2:	788a      	ldrb	r2, [r1, #2]
   264f4:	0212      	lsls	r2, r2, #8
   264f6:	1810      	adds	r0, r2, r0
   264f8:	8020      	strh	r0, [r4, #0]
   264fa:	9805      	ldr	r0, [sp, #20]
   264fc:	6e05      	ldr	r5, [r0, #96]	@ 0x60
   264fe:	3108      	adds	r1, #8
   26500:	4810      	ldr	r0, [pc, #64]	@ (26544 <_start+0x2400>)
   26502:	4468      	add	r0, sp
   26504:	900c      	str	r0, [sp, #48]	@ 0x30
   26506:	2648      	movs	r6, #72	@ 0x48
   26508:	4632      	mov	r2, r6
   2650a:	f000 fc1e 	bl	26d4a <__aeabi_memcpy4>
   2650e:	0e28      	lsrs	r0, r5, #24
   26510:	71a0      	strb	r0, [r4, #6]
   26512:	0c28      	lsrs	r0, r5, #16
   26514:	7160      	strb	r0, [r4, #5]
   26516:	0a28      	lsrs	r0, r5, #8
   26518:	7120      	strb	r0, [r4, #4]
   2651a:	70e5      	strb	r5, [r4, #3]
   2651c:	1de0      	adds	r0, r4, #7
   2651e:	990c      	ldr	r1, [sp, #48]	@ 0x30
   26520:	4632      	mov	r2, r6
   26522:	f000 fd72 	bl	2700a <__aeabi_memcpy>
   26526:	4d05      	ldr	r5, [pc, #20]	@ (2653c <_start+0x23f8>)
   26528:	446d      	add	r5, sp
   2652a:	4628      	mov	r0, r5
   2652c:	4621      	mov	r1, r4
   2652e:	f7fa fc0b 	bl	20d48 <_ZN18complex_no_dynamic3app17h43f6f86d9ca045a7E>
   26532:	7828      	ldrb	r0, [r5, #0]
   26534:	2801      	cmp	r0, #1
   26536:	d107      	bne.n	26548 <_start+0x2404>
   26538:	e360      	b.n	26bfc <_start+0x2ab8>
   2653a:	46c0      	nop			@ (mov r8, r8)
   2653c:	000013cc 	.word	0x000013cc
   26540:	00000fd0 	.word	0x00000fd0
   26544:	00001370 	.word	0x00001370
   26548:	4818      	ldr	r0, [pc, #96]	@ (265ac <_start+0x2468>)
   2654a:	4468      	add	r0, sp
   2654c:	78c1      	ldrb	r1, [r0, #3]
   2654e:	4c18      	ldr	r4, [pc, #96]	@ (265b0 <_start+0x246c>)
   26550:	446c      	add	r4, sp
   26552:	70a1      	strb	r1, [r4, #2]
   26554:	7841      	ldrb	r1, [r0, #1]
   26556:	7882      	ldrb	r2, [r0, #2]
   26558:	0212      	lsls	r2, r2, #8
   2655a:	1851      	adds	r1, r2, r1
   2655c:	8021      	strh	r1, [r4, #0]
   2655e:	3008      	adds	r0, #8
   26560:	9905      	ldr	r1, [sp, #20]
   26562:	6e09      	ldr	r1, [r1, #96]	@ 0x60
   26564:	910b      	str	r1, [sp, #44]	@ 0x2c
   26566:	4b13      	ldr	r3, [pc, #76]	@ (265b4 <_start+0x2470>)
   26568:	446b      	add	r3, sp
   2656a:	930c      	str	r3, [sp, #48]	@ 0x30
   2656c:	c864      	ldmia	r0!, {r2, r5, r6}
   2656e:	c364      	stmia	r3!, {r2, r5, r6}
   26570:	c866      	ldmia	r0!, {r1, r2, r5, r6}
   26572:	c366      	stmia	r3!, {r1, r2, r5, r6}
   26574:	c866      	ldmia	r0!, {r1, r2, r5, r6}
   26576:	c366      	stmia	r3!, {r1, r2, r5, r6}
   26578:	8800      	ldrh	r0, [r0, #0]
   2657a:	8018      	strh	r0, [r3, #0]
   2657c:	990b      	ldr	r1, [sp, #44]	@ 0x2c
   2657e:	0e08      	lsrs	r0, r1, #24
   26580:	71a0      	strb	r0, [r4, #6]
   26582:	0c08      	lsrs	r0, r1, #16
   26584:	7160      	strb	r0, [r4, #5]
   26586:	0a08      	lsrs	r0, r1, #8
   26588:	7120      	strb	r0, [r4, #4]
   2658a:	70e1      	strb	r1, [r4, #3]
   2658c:	1de0      	adds	r0, r4, #7
   2658e:	222e      	movs	r2, #46	@ 0x2e
   26590:	990c      	ldr	r1, [sp, #48]	@ 0x30
   26592:	f000 fd3a 	bl	2700a <__aeabi_memcpy>
   26596:	4d05      	ldr	r5, [pc, #20]	@ (265ac <_start+0x2468>)
   26598:	446d      	add	r5, sp
   2659a:	4628      	mov	r0, r5
   2659c:	4621      	mov	r1, r4
   2659e:	f7fa f8b3 	bl	20708 <_ZN18complex_no_dynamic3app17h1fd08e61e6dd076cE>
   265a2:	7828      	ldrb	r0, [r5, #0]
   265a4:	2801      	cmp	r0, #1
   265a6:	d107      	bne.n	265b8 <_start+0x2474>
   265a8:	e328      	b.n	26bfc <_start+0x2ab8>
   265aa:	46c0      	nop			@ (mov r8, r8)
   265ac:	000013cc 	.word	0x000013cc
   265b0:	00001020 	.word	0x00001020
   265b4:	00001370 	.word	0x00001370
   265b8:	4818      	ldr	r0, [pc, #96]	@ (2661c <_start+0x24d8>)
   265ba:	4468      	add	r0, sp
   265bc:	78c1      	ldrb	r1, [r0, #3]
   265be:	4c18      	ldr	r4, [pc, #96]	@ (26620 <_start+0x24dc>)
   265c0:	446c      	add	r4, sp
   265c2:	70a1      	strb	r1, [r4, #2]
   265c4:	7841      	ldrb	r1, [r0, #1]
   265c6:	7882      	ldrb	r2, [r0, #2]
   265c8:	0212      	lsls	r2, r2, #8
   265ca:	1851      	adds	r1, r2, r1
   265cc:	8021      	strh	r1, [r4, #0]
   265ce:	3008      	adds	r0, #8
   265d0:	9905      	ldr	r1, [sp, #20]
   265d2:	6e09      	ldr	r1, [r1, #96]	@ 0x60
   265d4:	910b      	str	r1, [sp, #44]	@ 0x2c
   265d6:	4b13      	ldr	r3, [pc, #76]	@ (26624 <_start+0x24e0>)
   265d8:	446b      	add	r3, sp
   265da:	930c      	str	r3, [sp, #48]	@ 0x30
   265dc:	c864      	ldmia	r0!, {r2, r5, r6}
   265de:	c364      	stmia	r3!, {r2, r5, r6}
   265e0:	c866      	ldmia	r0!, {r1, r2, r5, r6}
   265e2:	c366      	stmia	r3!, {r1, r2, r5, r6}
   265e4:	c826      	ldmia	r0!, {r1, r2, r5}
   265e6:	c326      	stmia	r3!, {r1, r2, r5}
   265e8:	c866      	ldmia	r0!, {r1, r2, r5, r6}
   265ea:	c366      	stmia	r3!, {r1, r2, r5, r6}
   265ec:	990b      	ldr	r1, [sp, #44]	@ 0x2c
   265ee:	0e08      	lsrs	r0, r1, #24
   265f0:	71a0      	strb	r0, [r4, #6]
   265f2:	0c08      	lsrs	r0, r1, #16
   265f4:	7160      	strb	r0, [r4, #5]
   265f6:	0a08      	lsrs	r0, r1, #8
   265f8:	7120      	strb	r0, [r4, #4]
   265fa:	70e1      	strb	r1, [r4, #3]
   265fc:	1de0      	adds	r0, r4, #7
   265fe:	2238      	movs	r2, #56	@ 0x38
   26600:	990c      	ldr	r1, [sp, #48]	@ 0x30
   26602:	f000 fd02 	bl	2700a <__aeabi_memcpy>
   26606:	4d05      	ldr	r5, [pc, #20]	@ (2661c <_start+0x24d8>)
   26608:	446d      	add	r5, sp
   2660a:	4628      	mov	r0, r5
   2660c:	4621      	mov	r1, r4
   2660e:	f7f9 fec7 	bl	203a0 <_ZN18complex_no_dynamic3app17h0995f6a190e29cd9E>
   26612:	7828      	ldrb	r0, [r5, #0]
   26614:	2801      	cmp	r0, #1
   26616:	d107      	bne.n	26628 <_start+0x24e4>
   26618:	e2f0      	b.n	26bfc <_start+0x2ab8>
   2661a:	46c0      	nop			@ (mov r8, r8)
   2661c:	000013cc 	.word	0x000013cc
   26620:	00001058 	.word	0x00001058
   26624:	00001370 	.word	0x00001370
   26628:	4914      	ldr	r1, [pc, #80]	@ (2667c <_start+0x2538>)
   2662a:	4469      	add	r1, sp
   2662c:	9b05      	ldr	r3, [sp, #20]
   2662e:	6ed8      	ldr	r0, [r3, #108]	@ 0x6c
   26630:	8108      	strh	r0, [r1, #8]
   26632:	4813      	ldr	r0, [pc, #76]	@ (26680 <_start+0x253c>)
   26634:	4468      	add	r0, sp
   26636:	78c2      	ldrb	r2, [r0, #3]
   26638:	4c12      	ldr	r4, [pc, #72]	@ (26684 <_start+0x2540>)
   2663a:	446c      	add	r4, sp
   2663c:	70a2      	strb	r2, [r4, #2]
   2663e:	7842      	ldrb	r2, [r0, #1]
   26640:	7880      	ldrb	r0, [r0, #2]
   26642:	0200      	lsls	r0, r0, #8
   26644:	1880      	adds	r0, r0, r2
   26646:	8020      	strh	r0, [r4, #0]
   26648:	6e18      	ldr	r0, [r3, #96]	@ 0x60
   2664a:	70e0      	strb	r0, [r4, #3]
   2664c:	0e02      	lsrs	r2, r0, #24
   2664e:	71a2      	strb	r2, [r4, #6]
   26650:	0c02      	lsrs	r2, r0, #16
   26652:	7162      	strb	r2, [r4, #5]
   26654:	0a00      	lsrs	r0, r0, #8
   26656:	7120      	strb	r0, [r4, #4]
   26658:	6e58      	ldr	r0, [r3, #100]	@ 0x64
   2665a:	6e9a      	ldr	r2, [r3, #104]	@ 0x68
   2665c:	c305      	stmia	r3!, {r0, r2}
   2665e:	1de0      	adds	r0, r4, #7
   26660:	220a      	movs	r2, #10
   26662:	f000 fcd2 	bl	2700a <__aeabi_memcpy>
   26666:	4d06      	ldr	r5, [pc, #24]	@ (26680 <_start+0x253c>)
   26668:	446d      	add	r5, sp
   2666a:	4628      	mov	r0, r5
   2666c:	4621      	mov	r1, r4
   2666e:	f7fd fc11 	bl	23e94 <_ZN18complex_no_dynamic3app17hf6e21b18c6df989dE>
   26672:	7828      	ldrb	r0, [r5, #0]
   26674:	2801      	cmp	r0, #1
   26676:	d107      	bne.n	26688 <_start+0x2544>
   26678:	e2c0      	b.n	26bfc <_start+0x2ab8>
   2667a:	46c0      	nop			@ (mov r8, r8)
   2667c:	00001370 	.word	0x00001370
   26680:	000013cc 	.word	0x000013cc
   26684:	00001098 	.word	0x00001098
   26688:	4818      	ldr	r0, [pc, #96]	@ (266ec <_start+0x25a8>)
   2668a:	4468      	add	r0, sp
   2668c:	78c1      	ldrb	r1, [r0, #3]
   2668e:	4c18      	ldr	r4, [pc, #96]	@ (266f0 <_start+0x25ac>)
   26690:	446c      	add	r4, sp
   26692:	70a1      	strb	r1, [r4, #2]
   26694:	7841      	ldrb	r1, [r0, #1]
   26696:	7882      	ldrb	r2, [r0, #2]
   26698:	0212      	lsls	r2, r2, #8
   2669a:	1851      	adds	r1, r2, r1
   2669c:	8021      	strh	r1, [r4, #0]
   2669e:	3008      	adds	r0, #8
   266a0:	9905      	ldr	r1, [sp, #20]
   266a2:	6e09      	ldr	r1, [r1, #96]	@ 0x60
   266a4:	910b      	str	r1, [sp, #44]	@ 0x2c
   266a6:	4b13      	ldr	r3, [pc, #76]	@ (266f4 <_start+0x25b0>)
   266a8:	446b      	add	r3, sp
   266aa:	930c      	str	r3, [sp, #48]	@ 0x30
   266ac:	c864      	ldmia	r0!, {r2, r5, r6}
   266ae:	c364      	stmia	r3!, {r2, r5, r6}
   266b0:	c866      	ldmia	r0!, {r1, r2, r5, r6}
   266b2:	c366      	stmia	r3!, {r1, r2, r5, r6}
   266b4:	c826      	ldmia	r0!, {r1, r2, r5}
   266b6:	c326      	stmia	r3!, {r1, r2, r5}
   266b8:	c866      	ldmia	r0!, {r1, r2, r5, r6}
   266ba:	c366      	stmia	r3!, {r1, r2, r5, r6}
   266bc:	990b      	ldr	r1, [sp, #44]	@ 0x2c
   266be:	0e08      	lsrs	r0, r1, #24
   266c0:	71a0      	strb	r0, [r4, #6]
   266c2:	0c08      	lsrs	r0, r1, #16
   266c4:	7160      	strb	r0, [r4, #5]
   266c6:	0a08      	lsrs	r0, r1, #8
   266c8:	7120      	strb	r0, [r4, #4]
   266ca:	70e1      	strb	r1, [r4, #3]
   266cc:	1de0      	adds	r0, r4, #7
   266ce:	2238      	movs	r2, #56	@ 0x38
   266d0:	990c      	ldr	r1, [sp, #48]	@ 0x30
   266d2:	f000 fc9a 	bl	2700a <__aeabi_memcpy>
   266d6:	4d05      	ldr	r5, [pc, #20]	@ (266ec <_start+0x25a8>)
   266d8:	446d      	add	r5, sp
   266da:	4628      	mov	r0, r5
   266dc:	4621      	mov	r1, r4
   266de:	f7f9 ffb9 	bl	20654 <_ZN18complex_no_dynamic3app17h19fa116b13479cc3E>
   266e2:	7828      	ldrb	r0, [r5, #0]
   266e4:	2801      	cmp	r0, #1
   266e6:	d107      	bne.n	266f8 <_start+0x25b4>
   266e8:	e288      	b.n	26bfc <_start+0x2ab8>
   266ea:	46c0      	nop			@ (mov r8, r8)
   266ec:	000013cc 	.word	0x000013cc
   266f0:	000010ac 	.word	0x000010ac
   266f4:	00001370 	.word	0x00001370
   266f8:	4816      	ldr	r0, [pc, #88]	@ (26754 <_start+0x2610>)
   266fa:	4468      	add	r0, sp
   266fc:	78c1      	ldrb	r1, [r0, #3]
   266fe:	4c16      	ldr	r4, [pc, #88]	@ (26758 <_start+0x2614>)
   26700:	446c      	add	r4, sp
   26702:	70a1      	strb	r1, [r4, #2]
   26704:	7841      	ldrb	r1, [r0, #1]
   26706:	7882      	ldrb	r2, [r0, #2]
   26708:	0212      	lsls	r2, r2, #8
   2670a:	1851      	adds	r1, r2, r1
   2670c:	8021      	strh	r1, [r4, #0]
   2670e:	3008      	adds	r0, #8
   26710:	9905      	ldr	r1, [sp, #20]
   26712:	6e09      	ldr	r1, [r1, #96]	@ 0x60
   26714:	4b11      	ldr	r3, [pc, #68]	@ (2675c <_start+0x2618>)
   26716:	446b      	add	r3, sp
   26718:	930c      	str	r3, [sp, #48]	@ 0x30
   2671a:	c860      	ldmia	r0!, {r5, r6}
   2671c:	c360      	stmia	r3!, {r5, r6}
   2671e:	c864      	ldmia	r0!, {r2, r5, r6}
   26720:	c364      	stmia	r3!, {r2, r5, r6}
   26722:	7800      	ldrb	r0, [r0, #0]
   26724:	7018      	strb	r0, [r3, #0]
   26726:	0e08      	lsrs	r0, r1, #24
   26728:	71a0      	strb	r0, [r4, #6]
   2672a:	0c08      	lsrs	r0, r1, #16
   2672c:	7160      	strb	r0, [r4, #5]
   2672e:	0a08      	lsrs	r0, r1, #8
   26730:	7120      	strb	r0, [r4, #4]
   26732:	70e1      	strb	r1, [r4, #3]
   26734:	1de0      	adds	r0, r4, #7
   26736:	2215      	movs	r2, #21
   26738:	990c      	ldr	r1, [sp, #48]	@ 0x30
   2673a:	f000 fc66 	bl	2700a <__aeabi_memcpy>
   2673e:	4d05      	ldr	r5, [pc, #20]	@ (26754 <_start+0x2610>)
   26740:	446d      	add	r5, sp
   26742:	4628      	mov	r0, r5
   26744:	4621      	mov	r1, r4
   26746:	f7fc f90d 	bl	22964 <_ZN18complex_no_dynamic3app17hb7f56117b5b0424fE>
   2674a:	7828      	ldrb	r0, [r5, #0]
   2674c:	2801      	cmp	r0, #1
   2674e:	d107      	bne.n	26760 <_start+0x261c>
   26750:	e254      	b.n	26bfc <_start+0x2ab8>
   26752:	46c0      	nop			@ (mov r8, r8)
   26754:	000013cc 	.word	0x000013cc
   26758:	000010ec 	.word	0x000010ec
   2675c:	00001370 	.word	0x00001370
   26760:	4915      	ldr	r1, [pc, #84]	@ (267b8 <_start+0x2674>)
   26762:	4469      	add	r1, sp
   26764:	78c8      	ldrb	r0, [r1, #3]
   26766:	4c15      	ldr	r4, [pc, #84]	@ (267bc <_start+0x2678>)
   26768:	446c      	add	r4, sp
   2676a:	70a0      	strb	r0, [r4, #2]
   2676c:	7848      	ldrb	r0, [r1, #1]
   2676e:	788a      	ldrb	r2, [r1, #2]
   26770:	0212      	lsls	r2, r2, #8
   26772:	1810      	adds	r0, r2, r0
   26774:	8020      	strh	r0, [r4, #0]
   26776:	9805      	ldr	r0, [sp, #20]
   26778:	6e05      	ldr	r5, [r0, #96]	@ 0x60
   2677a:	3108      	adds	r1, #8
   2677c:	4810      	ldr	r0, [pc, #64]	@ (267c0 <_start+0x267c>)
   2677e:	4468      	add	r0, sp
   26780:	900c      	str	r0, [sp, #48]	@ 0x30
   26782:	2656      	movs	r6, #86	@ 0x56
   26784:	4632      	mov	r2, r6
   26786:	f000 fae0 	bl	26d4a <__aeabi_memcpy4>
   2678a:	0e28      	lsrs	r0, r5, #24
   2678c:	71a0      	strb	r0, [r4, #6]
   2678e:	0c28      	lsrs	r0, r5, #16
   26790:	7160      	strb	r0, [r4, #5]
   26792:	0a28      	lsrs	r0, r5, #8
   26794:	7120      	strb	r0, [r4, #4]
   26796:	70e5      	strb	r5, [r4, #3]
   26798:	1de0      	adds	r0, r4, #7
   2679a:	990c      	ldr	r1, [sp, #48]	@ 0x30
   2679c:	4632      	mov	r2, r6
   2679e:	f000 fc34 	bl	2700a <__aeabi_memcpy>
   267a2:	4d05      	ldr	r5, [pc, #20]	@ (267b8 <_start+0x2674>)
   267a4:	446d      	add	r5, sp
   267a6:	4628      	mov	r0, r5
   267a8:	4621      	mov	r1, r4
   267aa:	f7fa f909 	bl	209c0 <_ZN18complex_no_dynamic3app17h2edf87f93ca9f866E>
   267ae:	7828      	ldrb	r0, [r5, #0]
   267b0:	2801      	cmp	r0, #1
   267b2:	d107      	bne.n	267c4 <_start+0x2680>
   267b4:	e222      	b.n	26bfc <_start+0x2ab8>
   267b6:	46c0      	nop			@ (mov r8, r8)
   267b8:	000013cc 	.word	0x000013cc
   267bc:	00001108 	.word	0x00001108
   267c0:	00001370 	.word	0x00001370
   267c4:	4915      	ldr	r1, [pc, #84]	@ (2681c <_start+0x26d8>)
   267c6:	4469      	add	r1, sp
   267c8:	9b05      	ldr	r3, [sp, #20]
   267ca:	6ed8      	ldr	r0, [r3, #108]	@ 0x6c
   267cc:	8108      	strh	r0, [r1, #8]
   267ce:	4814      	ldr	r0, [pc, #80]	@ (26820 <_start+0x26dc>)
   267d0:	4468      	add	r0, sp
   267d2:	78c2      	ldrb	r2, [r0, #3]
   267d4:	4c13      	ldr	r4, [pc, #76]	@ (26824 <_start+0x26e0>)
   267d6:	446c      	add	r4, sp
   267d8:	70a2      	strb	r2, [r4, #2]
   267da:	7c82      	ldrb	r2, [r0, #18]
   267dc:	728a      	strb	r2, [r1, #10]
   267de:	7842      	ldrb	r2, [r0, #1]
   267e0:	7880      	ldrb	r0, [r0, #2]
   267e2:	0200      	lsls	r0, r0, #8
   267e4:	1880      	adds	r0, r0, r2
   267e6:	8020      	strh	r0, [r4, #0]
   267e8:	6e18      	ldr	r0, [r3, #96]	@ 0x60
   267ea:	70e0      	strb	r0, [r4, #3]
   267ec:	0e02      	lsrs	r2, r0, #24
   267ee:	71a2      	strb	r2, [r4, #6]
   267f0:	0c02      	lsrs	r2, r0, #16
   267f2:	7162      	strb	r2, [r4, #5]
   267f4:	0a00      	lsrs	r0, r0, #8
   267f6:	7120      	strb	r0, [r4, #4]
   267f8:	6e58      	ldr	r0, [r3, #100]	@ 0x64
   267fa:	6e9a      	ldr	r2, [r3, #104]	@ 0x68
   267fc:	c305      	stmia	r3!, {r0, r2}
   267fe:	1de0      	adds	r0, r4, #7
   26800:	220b      	movs	r2, #11
   26802:	f000 fc02 	bl	2700a <__aeabi_memcpy>
   26806:	4d06      	ldr	r5, [pc, #24]	@ (26820 <_start+0x26dc>)
   26808:	446d      	add	r5, sp
   2680a:	4628      	mov	r0, r5
   2680c:	4621      	mov	r1, r4
   2680e:	f7f9 fecb 	bl	205a8 <_ZN18complex_no_dynamic3app17h1823d3e544b4d1ceE>
   26812:	7828      	ldrb	r0, [r5, #0]
   26814:	2801      	cmp	r0, #1
   26816:	d107      	bne.n	26828 <_start+0x26e4>
   26818:	e1f0      	b.n	26bfc <_start+0x2ab8>
   2681a:	46c0      	nop			@ (mov r8, r8)
   2681c:	00001370 	.word	0x00001370
   26820:	000013cc 	.word	0x000013cc
   26824:	00001168 	.word	0x00001168
   26828:	48f7      	ldr	r0, [pc, #988]	@ (26c08 <_start+0x2ac4>)
   2682a:	4468      	add	r0, sp
   2682c:	78c1      	ldrb	r1, [r0, #3]
   2682e:	4cf7      	ldr	r4, [pc, #988]	@ (26c0c <_start+0x2ac8>)
   26830:	446c      	add	r4, sp
   26832:	70a1      	strb	r1, [r4, #2]
   26834:	7841      	ldrb	r1, [r0, #1]
   26836:	7882      	ldrb	r2, [r0, #2]
   26838:	0212      	lsls	r2, r2, #8
   2683a:	1851      	adds	r1, r2, r1
   2683c:	8021      	strh	r1, [r4, #0]
   2683e:	3008      	adds	r0, #8
   26840:	9905      	ldr	r1, [sp, #20]
   26842:	6e09      	ldr	r1, [r1, #96]	@ 0x60
   26844:	910b      	str	r1, [sp, #44]	@ 0x2c
   26846:	4bf2      	ldr	r3, [pc, #968]	@ (26c10 <_start+0x2acc>)
   26848:	446b      	add	r3, sp
   2684a:	930c      	str	r3, [sp, #48]	@ 0x30
   2684c:	c864      	ldmia	r0!, {r2, r5, r6}
   2684e:	c364      	stmia	r3!, {r2, r5, r6}
   26850:	c866      	ldmia	r0!, {r1, r2, r5, r6}
   26852:	c366      	stmia	r3!, {r1, r2, r5, r6}
   26854:	c866      	ldmia	r0!, {r1, r2, r5, r6}
   26856:	c366      	stmia	r3!, {r1, r2, r5, r6}
   26858:	c866      	ldmia	r0!, {r1, r2, r5, r6}
   2685a:	c366      	stmia	r3!, {r1, r2, r5, r6}
   2685c:	7800      	ldrb	r0, [r0, #0]
   2685e:	7018      	strb	r0, [r3, #0]
   26860:	990b      	ldr	r1, [sp, #44]	@ 0x2c
   26862:	0e08      	lsrs	r0, r1, #24
   26864:	71a0      	strb	r0, [r4, #6]
   26866:	0c08      	lsrs	r0, r1, #16
   26868:	7160      	strb	r0, [r4, #5]
   2686a:	0a08      	lsrs	r0, r1, #8
   2686c:	7120      	strb	r0, [r4, #4]
   2686e:	70e1      	strb	r1, [r4, #3]
   26870:	1de0      	adds	r0, r4, #7
   26872:	223d      	movs	r2, #61	@ 0x3d
   26874:	990c      	ldr	r1, [sp, #48]	@ 0x30
   26876:	f000 fbc8 	bl	2700a <__aeabi_memcpy>
   2687a:	4de3      	ldr	r5, [pc, #908]	@ (26c08 <_start+0x2ac4>)
   2687c:	446d      	add	r5, sp
   2687e:	4628      	mov	r0, r5
   26880:	4621      	mov	r1, r4
   26882:	f7fa fde1 	bl	21448 <_ZN18complex_no_dynamic3app17h624d71fa697c2d76E>
   26886:	7828      	ldrb	r0, [r5, #0]
   26888:	2801      	cmp	r0, #1
   2688a:	d100      	bne.n	2688e <_start+0x274a>
   2688c:	e1b6      	b.n	26bfc <_start+0x2ab8>
   2688e:	48fb      	ldr	r0, [pc, #1004]	@ (26c7c <_start+0x2b38>)
   26890:	4468      	add	r0, sp
   26892:	78c1      	ldrb	r1, [r0, #3]
   26894:	4cfb      	ldr	r4, [pc, #1004]	@ (26c84 <_start+0x2b40>)
   26896:	446c      	add	r4, sp
   26898:	70a1      	strb	r1, [r4, #2]
   2689a:	7841      	ldrb	r1, [r0, #1]
   2689c:	7882      	ldrb	r2, [r0, #2]
   2689e:	0212      	lsls	r2, r2, #8
   268a0:	1851      	adds	r1, r2, r1
   268a2:	8021      	strh	r1, [r4, #0]
   268a4:	3008      	adds	r0, #8
   268a6:	9905      	ldr	r1, [sp, #20]
   268a8:	6e09      	ldr	r1, [r1, #96]	@ 0x60
   268aa:	910b      	str	r1, [sp, #44]	@ 0x2c
   268ac:	4bf4      	ldr	r3, [pc, #976]	@ (26c80 <_start+0x2b3c>)
   268ae:	446b      	add	r3, sp
   268b0:	930c      	str	r3, [sp, #48]	@ 0x30
   268b2:	c864      	ldmia	r0!, {r2, r5, r6}
   268b4:	c364      	stmia	r3!, {r2, r5, r6}
   268b6:	c866      	ldmia	r0!, {r1, r2, r5, r6}
   268b8:	c366      	stmia	r3!, {r1, r2, r5, r6}
   268ba:	990b      	ldr	r1, [sp, #44]	@ 0x2c
   268bc:	0e08      	lsrs	r0, r1, #24
   268be:	71a0      	strb	r0, [r4, #6]
   268c0:	0c08      	lsrs	r0, r1, #16
   268c2:	7160      	strb	r0, [r4, #5]
   268c4:	0a08      	lsrs	r0, r1, #8
   268c6:	7120      	strb	r0, [r4, #4]
   268c8:	70e1      	strb	r1, [r4, #3]
   268ca:	1de0      	adds	r0, r4, #7
   268cc:	221c      	movs	r2, #28
   268ce:	990c      	ldr	r1, [sp, #48]	@ 0x30
   268d0:	f000 fb9b 	bl	2700a <__aeabi_memcpy>
   268d4:	4de9      	ldr	r5, [pc, #932]	@ (26c7c <_start+0x2b38>)
   268d6:	446d      	add	r5, sp
   268d8:	4628      	mov	r0, r5
   268da:	4621      	mov	r1, r4
   268dc:	f7f9 fdb8 	bl	20450 <_ZN18complex_no_dynamic3app17h0c3afc726379bdc2E>
   268e0:	7828      	ldrb	r0, [r5, #0]
   268e2:	2801      	cmp	r0, #1
   268e4:	d100      	bne.n	268e8 <_start+0x27a4>
   268e6:	e189      	b.n	26bfc <_start+0x2ab8>
   268e8:	48e4      	ldr	r0, [pc, #912]	@ (26c7c <_start+0x2b38>)
   268ea:	4468      	add	r0, sp
   268ec:	78c1      	ldrb	r1, [r0, #3]
   268ee:	4ce6      	ldr	r4, [pc, #920]	@ (26c88 <_start+0x2b44>)
   268f0:	446c      	add	r4, sp
   268f2:	70a1      	strb	r1, [r4, #2]
   268f4:	7841      	ldrb	r1, [r0, #1]
   268f6:	7882      	ldrb	r2, [r0, #2]
   268f8:	0212      	lsls	r2, r2, #8
   268fa:	1851      	adds	r1, r2, r1
   268fc:	8021      	strh	r1, [r4, #0]
   268fe:	3008      	adds	r0, #8
   26900:	9905      	ldr	r1, [sp, #20]
   26902:	6e09      	ldr	r1, [r1, #96]	@ 0x60
   26904:	910b      	str	r1, [sp, #44]	@ 0x2c
   26906:	4bde      	ldr	r3, [pc, #888]	@ (26c80 <_start+0x2b3c>)
   26908:	446b      	add	r3, sp
   2690a:	930c      	str	r3, [sp, #48]	@ 0x30
   2690c:	c864      	ldmia	r0!, {r2, r5, r6}
   2690e:	c364      	stmia	r3!, {r2, r5, r6}
   26910:	c866      	ldmia	r0!, {r1, r2, r5, r6}
   26912:	c366      	stmia	r3!, {r1, r2, r5, r6}
   26914:	7800      	ldrb	r0, [r0, #0]
   26916:	7018      	strb	r0, [r3, #0]
   26918:	990b      	ldr	r1, [sp, #44]	@ 0x2c
   2691a:	0e08      	lsrs	r0, r1, #24
   2691c:	71a0      	strb	r0, [r4, #6]
   2691e:	0c08      	lsrs	r0, r1, #16
   26920:	7160      	strb	r0, [r4, #5]
   26922:	0a08      	lsrs	r0, r1, #8
   26924:	7120      	strb	r0, [r4, #4]
   26926:	70e1      	strb	r1, [r4, #3]
   26928:	1de0      	adds	r0, r4, #7
   2692a:	221d      	movs	r2, #29
   2692c:	990c      	ldr	r1, [sp, #48]	@ 0x30
   2692e:	f000 fb6c 	bl	2700a <__aeabi_memcpy>
   26932:	4dd2      	ldr	r5, [pc, #840]	@ (26c7c <_start+0x2b38>)
   26934:	446d      	add	r5, sp
   26936:	4628      	mov	r0, r5
   26938:	4621      	mov	r1, r4
   2693a:	f7f9 fddf 	bl	204fc <_ZN18complex_no_dynamic3app17h0db094074c436824E>
   2693e:	7828      	ldrb	r0, [r5, #0]
   26940:	2801      	cmp	r0, #1
   26942:	d100      	bne.n	26946 <_start+0x2802>
   26944:	e15a      	b.n	26bfc <_start+0x2ab8>
   26946:	48cd      	ldr	r0, [pc, #820]	@ (26c7c <_start+0x2b38>)
   26948:	4468      	add	r0, sp
   2694a:	78c1      	ldrb	r1, [r0, #3]
   2694c:	4ccf      	ldr	r4, [pc, #828]	@ (26c8c <_start+0x2b48>)
   2694e:	446c      	add	r4, sp
   26950:	70a1      	strb	r1, [r4, #2]
   26952:	7841      	ldrb	r1, [r0, #1]
   26954:	7882      	ldrb	r2, [r0, #2]
   26956:	0212      	lsls	r2, r2, #8
   26958:	1851      	adds	r1, r2, r1
   2695a:	8021      	strh	r1, [r4, #0]
   2695c:	3008      	adds	r0, #8
   2695e:	9905      	ldr	r1, [sp, #20]
   26960:	6e09      	ldr	r1, [r1, #96]	@ 0x60
   26962:	910b      	str	r1, [sp, #44]	@ 0x2c
   26964:	4bc6      	ldr	r3, [pc, #792]	@ (26c80 <_start+0x2b3c>)
   26966:	446b      	add	r3, sp
   26968:	930c      	str	r3, [sp, #48]	@ 0x30
   2696a:	c864      	ldmia	r0!, {r2, r5, r6}
   2696c:	c364      	stmia	r3!, {r2, r5, r6}
   2696e:	c864      	ldmia	r0!, {r2, r5, r6}
   26970:	c364      	stmia	r3!, {r2, r5, r6}
   26972:	c866      	ldmia	r0!, {r1, r2, r5, r6}
   26974:	c366      	stmia	r3!, {r1, r2, r5, r6}
   26976:	990b      	ldr	r1, [sp, #44]	@ 0x2c
   26978:	0e08      	lsrs	r0, r1, #24
   2697a:	71a0      	strb	r0, [r4, #6]
   2697c:	0c08      	lsrs	r0, r1, #16
   2697e:	7160      	strb	r0, [r4, #5]
   26980:	0a08      	lsrs	r0, r1, #8
   26982:	7120      	strb	r0, [r4, #4]
   26984:	70e1      	strb	r1, [r4, #3]
   26986:	1de0      	adds	r0, r4, #7
   26988:	2228      	movs	r2, #40	@ 0x28
   2698a:	990c      	ldr	r1, [sp, #48]	@ 0x30
   2698c:	f000 fb3d 	bl	2700a <__aeabi_memcpy>
   26990:	4dba      	ldr	r5, [pc, #744]	@ (26c7c <_start+0x2b38>)
   26992:	446d      	add	r5, sp
   26994:	4628      	mov	r0, r5
   26996:	4621      	mov	r1, r4
   26998:	f7fc fe1c 	bl	235d4 <_ZN18complex_no_dynamic3app17he080a58cc1388466E>
   2699c:	7828      	ldrb	r0, [r5, #0]
   2699e:	2801      	cmp	r0, #1
   269a0:	d100      	bne.n	269a4 <_start+0x2860>
   269a2:	e12b      	b.n	26bfc <_start+0x2ab8>
   269a4:	49b5      	ldr	r1, [pc, #724]	@ (26c7c <_start+0x2b38>)
   269a6:	4469      	add	r1, sp
   269a8:	78c8      	ldrb	r0, [r1, #3]
   269aa:	4cb9      	ldr	r4, [pc, #740]	@ (26c90 <_start+0x2b4c>)
   269ac:	446c      	add	r4, sp
   269ae:	70a0      	strb	r0, [r4, #2]
   269b0:	7848      	ldrb	r0, [r1, #1]
   269b2:	788a      	ldrb	r2, [r1, #2]
   269b4:	0212      	lsls	r2, r2, #8
   269b6:	1810      	adds	r0, r2, r0
   269b8:	8020      	strh	r0, [r4, #0]
   269ba:	9805      	ldr	r0, [sp, #20]
   269bc:	6e05      	ldr	r5, [r0, #96]	@ 0x60
   269be:	3108      	adds	r1, #8
   269c0:	48af      	ldr	r0, [pc, #700]	@ (26c80 <_start+0x2b3c>)
   269c2:	4468      	add	r0, sp
   269c4:	900c      	str	r0, [sp, #48]	@ 0x30
   269c6:	2657      	movs	r6, #87	@ 0x57
   269c8:	4632      	mov	r2, r6
   269ca:	f000 f9be 	bl	26d4a <__aeabi_memcpy4>
   269ce:	0e28      	lsrs	r0, r5, #24
   269d0:	71a0      	strb	r0, [r4, #6]
   269d2:	0c28      	lsrs	r0, r5, #16
   269d4:	7160      	strb	r0, [r4, #5]
   269d6:	0a28      	lsrs	r0, r5, #8
   269d8:	7120      	strb	r0, [r4, #4]
   269da:	70e5      	strb	r5, [r4, #3]
   269dc:	1de0      	adds	r0, r4, #7
   269de:	990c      	ldr	r1, [sp, #48]	@ 0x30
   269e0:	4632      	mov	r2, r6
   269e2:	f000 fb12 	bl	2700a <__aeabi_memcpy>
   269e6:	4da5      	ldr	r5, [pc, #660]	@ (26c7c <_start+0x2b38>)
   269e8:	446d      	add	r5, sp
   269ea:	4628      	mov	r0, r5
   269ec:	4621      	mov	r1, r4
   269ee:	f7fb f837 	bl	21a60 <_ZN18complex_no_dynamic3app17h6e88ccb4ee4ff325E>
   269f2:	7828      	ldrb	r0, [r5, #0]
   269f4:	2801      	cmp	r0, #1
   269f6:	d100      	bne.n	269fa <_start+0x28b6>
   269f8:	e100      	b.n	26bfc <_start+0x2ab8>
   269fa:	49a0      	ldr	r1, [pc, #640]	@ (26c7c <_start+0x2b38>)
   269fc:	4469      	add	r1, sp
   269fe:	78c8      	ldrb	r0, [r1, #3]
   26a00:	4ca4      	ldr	r4, [pc, #656]	@ (26c94 <_start+0x2b50>)
   26a02:	446c      	add	r4, sp
   26a04:	70a0      	strb	r0, [r4, #2]
   26a06:	7848      	ldrb	r0, [r1, #1]
   26a08:	788a      	ldrb	r2, [r1, #2]
   26a0a:	0212      	lsls	r2, r2, #8
   26a0c:	1810      	adds	r0, r2, r0
   26a0e:	8020      	strh	r0, [r4, #0]
   26a10:	9805      	ldr	r0, [sp, #20]
   26a12:	6e05      	ldr	r5, [r0, #96]	@ 0x60
   26a14:	3108      	adds	r1, #8
   26a16:	489a      	ldr	r0, [pc, #616]	@ (26c80 <_start+0x2b3c>)
   26a18:	4468      	add	r0, sp
   26a1a:	900c      	str	r0, [sp, #48]	@ 0x30
   26a1c:	264e      	movs	r6, #78	@ 0x4e
   26a1e:	4632      	mov	r2, r6
   26a20:	f000 f993 	bl	26d4a <__aeabi_memcpy4>
   26a24:	0e28      	lsrs	r0, r5, #24
   26a26:	71a0      	strb	r0, [r4, #6]
   26a28:	0c28      	lsrs	r0, r5, #16
   26a2a:	7160      	strb	r0, [r4, #5]
   26a2c:	0a28      	lsrs	r0, r5, #8
   26a2e:	7120      	strb	r0, [r4, #4]
   26a30:	70e5      	strb	r5, [r4, #3]
   26a32:	1de0      	adds	r0, r4, #7
   26a34:	990c      	ldr	r1, [sp, #48]	@ 0x30
   26a36:	4632      	mov	r2, r6
   26a38:	f000 fae7 	bl	2700a <__aeabi_memcpy>
   26a3c:	4d8f      	ldr	r5, [pc, #572]	@ (26c7c <_start+0x2b38>)
   26a3e:	446d      	add	r5, sp
   26a40:	4628      	mov	r0, r5
   26a42:	4621      	mov	r1, r4
   26a44:	f7fb fa5e 	bl	21f04 <_ZN18complex_no_dynamic3app17h88599e62daf9d37fE>
   26a48:	7828      	ldrb	r0, [r5, #0]
   26a4a:	2801      	cmp	r0, #1
   26a4c:	d100      	bne.n	26a50 <_start+0x290c>
   26a4e:	e0d5      	b.n	26bfc <_start+0x2ab8>
   26a50:	498b      	ldr	r1, [pc, #556]	@ (26c80 <_start+0x2b3c>)
   26a52:	4469      	add	r1, sp
   26a54:	9b05      	ldr	r3, [sp, #20]
   26a56:	6ed8      	ldr	r0, [r3, #108]	@ 0x6c
   26a58:	8108      	strh	r0, [r1, #8]
   26a5a:	4888      	ldr	r0, [pc, #544]	@ (26c7c <_start+0x2b38>)
   26a5c:	4468      	add	r0, sp
   26a5e:	78c2      	ldrb	r2, [r0, #3]
   26a60:	4c8d      	ldr	r4, [pc, #564]	@ (26c98 <_start+0x2b54>)
   26a62:	446c      	add	r4, sp
   26a64:	70a2      	strb	r2, [r4, #2]
   26a66:	7842      	ldrb	r2, [r0, #1]
   26a68:	7880      	ldrb	r0, [r0, #2]
   26a6a:	0200      	lsls	r0, r0, #8
   26a6c:	1880      	adds	r0, r0, r2
   26a6e:	8020      	strh	r0, [r4, #0]
   26a70:	6e18      	ldr	r0, [r3, #96]	@ 0x60
   26a72:	70e0      	strb	r0, [r4, #3]
   26a74:	0e02      	lsrs	r2, r0, #24
   26a76:	71a2      	strb	r2, [r4, #6]
   26a78:	0c02      	lsrs	r2, r0, #16
   26a7a:	7162      	strb	r2, [r4, #5]
   26a7c:	0a00      	lsrs	r0, r0, #8
   26a7e:	7120      	strb	r0, [r4, #4]
   26a80:	6e58      	ldr	r0, [r3, #100]	@ 0x64
   26a82:	6e9a      	ldr	r2, [r3, #104]	@ 0x68
   26a84:	c305      	stmia	r3!, {r0, r2}
   26a86:	1de0      	adds	r0, r4, #7
   26a88:	220a      	movs	r2, #10
   26a8a:	f000 fabe 	bl	2700a <__aeabi_memcpy>
   26a8e:	4d7b      	ldr	r5, [pc, #492]	@ (26c7c <_start+0x2b38>)
   26a90:	446d      	add	r5, sp
   26a92:	4628      	mov	r0, r5
   26a94:	4621      	mov	r1, r4
   26a96:	f7fa fd81 	bl	2159c <_ZN18complex_no_dynamic3app17h64f57409c895c4d5E>
   26a9a:	7828      	ldrb	r0, [r5, #0]
   26a9c:	2801      	cmp	r0, #1
   26a9e:	d100      	bne.n	26aa2 <_start+0x295e>
   26aa0:	e0ac      	b.n	26bfc <_start+0x2ab8>
   26aa2:	4976      	ldr	r1, [pc, #472]	@ (26c7c <_start+0x2b38>)
   26aa4:	4469      	add	r1, sp
   26aa6:	78c8      	ldrb	r0, [r1, #3]
   26aa8:	4c7c      	ldr	r4, [pc, #496]	@ (26c9c <_start+0x2b58>)
   26aaa:	446c      	add	r4, sp
   26aac:	70a0      	strb	r0, [r4, #2]
   26aae:	7848      	ldrb	r0, [r1, #1]
   26ab0:	788a      	ldrb	r2, [r1, #2]
   26ab2:	0212      	lsls	r2, r2, #8
   26ab4:	1810      	adds	r0, r2, r0
   26ab6:	8020      	strh	r0, [r4, #0]
   26ab8:	9805      	ldr	r0, [sp, #20]
   26aba:	6e05      	ldr	r5, [r0, #96]	@ 0x60
   26abc:	3108      	adds	r1, #8
   26abe:	4870      	ldr	r0, [pc, #448]	@ (26c80 <_start+0x2b3c>)
   26ac0:	4468      	add	r0, sp
   26ac2:	900c      	str	r0, [sp, #48]	@ 0x30
   26ac4:	2649      	movs	r6, #73	@ 0x49
   26ac6:	4632      	mov	r2, r6
   26ac8:	f000 f93f 	bl	26d4a <__aeabi_memcpy4>
   26acc:	0e28      	lsrs	r0, r5, #24
   26ace:	71a0      	strb	r0, [r4, #6]
   26ad0:	0c28      	lsrs	r0, r5, #16
   26ad2:	7160      	strb	r0, [r4, #5]
   26ad4:	0a28      	lsrs	r0, r5, #8
   26ad6:	7120      	strb	r0, [r4, #4]
   26ad8:	70e5      	strb	r5, [r4, #3]
   26ada:	1de0      	adds	r0, r4, #7
   26adc:	990c      	ldr	r1, [sp, #48]	@ 0x30
   26ade:	4632      	mov	r2, r6
   26ae0:	f000 fa93 	bl	2700a <__aeabi_memcpy>
   26ae4:	4d65      	ldr	r5, [pc, #404]	@ (26c7c <_start+0x2b38>)
   26ae6:	446d      	add	r5, sp
   26ae8:	4628      	mov	r0, r5
   26aea:	4621      	mov	r1, r4
   26aec:	f7fa f872 	bl	20bd4 <_ZN18complex_no_dynamic3app17h40cd3ae4decf28b1E>
   26af0:	7828      	ldrb	r0, [r5, #0]
   26af2:	2801      	cmp	r0, #1
   26af4:	d100      	bne.n	26af8 <_start+0x29b4>
   26af6:	e081      	b.n	26bfc <_start+0x2ab8>
   26af8:	4860      	ldr	r0, [pc, #384]	@ (26c7c <_start+0x2b38>)
   26afa:	4468      	add	r0, sp
   26afc:	78c1      	ldrb	r1, [r0, #3]
   26afe:	4c68      	ldr	r4, [pc, #416]	@ (26ca0 <_start+0x2b5c>)
   26b00:	446c      	add	r4, sp
   26b02:	70a1      	strb	r1, [r4, #2]
   26b04:	7841      	ldrb	r1, [r0, #1]
   26b06:	7882      	ldrb	r2, [r0, #2]
   26b08:	0212      	lsls	r2, r2, #8
   26b0a:	1851      	adds	r1, r2, r1
   26b0c:	8021      	strh	r1, [r4, #0]
   26b0e:	3008      	adds	r0, #8
   26b10:	9905      	ldr	r1, [sp, #20]
   26b12:	6e09      	ldr	r1, [r1, #96]	@ 0x60
   26b14:	4b5a      	ldr	r3, [pc, #360]	@ (26c80 <_start+0x2b3c>)
   26b16:	446b      	add	r3, sp
   26b18:	930c      	str	r3, [sp, #48]	@ 0x30
   26b1a:	c860      	ldmia	r0!, {r5, r6}
   26b1c:	c360      	stmia	r3!, {r5, r6}
   26b1e:	c864      	ldmia	r0!, {r2, r5, r6}
   26b20:	c364      	stmia	r3!, {r2, r5, r6}
   26b22:	0e08      	lsrs	r0, r1, #24
   26b24:	71a0      	strb	r0, [r4, #6]
   26b26:	0c08      	lsrs	r0, r1, #16
   26b28:	7160      	strb	r0, [r4, #5]
   26b2a:	0a08      	lsrs	r0, r1, #8
   26b2c:	7120      	strb	r0, [r4, #4]
   26b2e:	70e1      	strb	r1, [r4, #3]
   26b30:	1de0      	adds	r0, r4, #7
   26b32:	2214      	movs	r2, #20
   26b34:	990c      	ldr	r1, [sp, #48]	@ 0x30
   26b36:	f000 fa68 	bl	2700a <__aeabi_memcpy>
   26b3a:	4d50      	ldr	r5, [pc, #320]	@ (26c7c <_start+0x2b38>)
   26b3c:	446d      	add	r5, sp
   26b3e:	4628      	mov	r0, r5
   26b40:	4621      	mov	r1, r4
   26b42:	f7f9 facf 	bl	200e4 <_ZN18complex_no_dynamic3app17h0506e3e0a9629ae8E>
   26b46:	7828      	ldrb	r0, [r5, #0]
   26b48:	2801      	cmp	r0, #1
   26b4a:	d057      	beq.n	26bfc <_start+0x2ab8>
   26b4c:	494b      	ldr	r1, [pc, #300]	@ (26c7c <_start+0x2b38>)
   26b4e:	4469      	add	r1, sp
   26b50:	78c8      	ldrb	r0, [r1, #3]
   26b52:	4c54      	ldr	r4, [pc, #336]	@ (26ca4 <_start+0x2b60>)
   26b54:	446c      	add	r4, sp
   26b56:	70a0      	strb	r0, [r4, #2]
   26b58:	7848      	ldrb	r0, [r1, #1]
   26b5a:	788a      	ldrb	r2, [r1, #2]
   26b5c:	0212      	lsls	r2, r2, #8
   26b5e:	1810      	adds	r0, r2, r0
   26b60:	8020      	strh	r0, [r4, #0]
   26b62:	9805      	ldr	r0, [sp, #20]
   26b64:	6e05      	ldr	r5, [r0, #96]	@ 0x60
   26b66:	3108      	adds	r1, #8
   26b68:	4845      	ldr	r0, [pc, #276]	@ (26c80 <_start+0x2b3c>)
   26b6a:	4468      	add	r0, sp
   26b6c:	900c      	str	r0, [sp, #48]	@ 0x30
   26b6e:	265c      	movs	r6, #92	@ 0x5c
   26b70:	4632      	mov	r2, r6
   26b72:	f000 f8ea 	bl	26d4a <__aeabi_memcpy4>
   26b76:	0e28      	lsrs	r0, r5, #24
   26b78:	71a0      	strb	r0, [r4, #6]
   26b7a:	0c28      	lsrs	r0, r5, #16
   26b7c:	7160      	strb	r0, [r4, #5]
   26b7e:	0a28      	lsrs	r0, r5, #8
   26b80:	7120      	strb	r0, [r4, #4]
   26b82:	70e5      	strb	r5, [r4, #3]
   26b84:	1de0      	adds	r0, r4, #7
   26b86:	990c      	ldr	r1, [sp, #48]	@ 0x30
   26b88:	4632      	mov	r2, r6
   26b8a:	f000 fa3e 	bl	2700a <__aeabi_memcpy>
   26b8e:	4d3b      	ldr	r5, [pc, #236]	@ (26c7c <_start+0x2b38>)
   26b90:	446d      	add	r5, sp
   26b92:	4628      	mov	r0, r5
   26b94:	4621      	mov	r1, r4
   26b96:	f7fa fcad 	bl	214f4 <_ZN18complex_no_dynamic3app17h639940da187a6c3bE>
   26b9a:	7828      	ldrb	r0, [r5, #0]
   26b9c:	2801      	cmp	r0, #1
   26b9e:	d02d      	beq.n	26bfc <_start+0x2ab8>
   26ba0:	4836      	ldr	r0, [pc, #216]	@ (26c7c <_start+0x2b38>)
   26ba2:	4468      	add	r0, sp
   26ba4:	78c1      	ldrb	r1, [r0, #3]
   26ba6:	4c40      	ldr	r4, [pc, #256]	@ (26ca8 <_start+0x2b64>)
   26ba8:	446c      	add	r4, sp
   26baa:	70a1      	strb	r1, [r4, #2]
   26bac:	7841      	ldrb	r1, [r0, #1]
   26bae:	7882      	ldrb	r2, [r0, #2]
   26bb0:	0212      	lsls	r2, r2, #8
   26bb2:	1851      	adds	r1, r2, r1
   26bb4:	8021      	strh	r1, [r4, #0]
   26bb6:	3008      	adds	r0, #8
   26bb8:	9905      	ldr	r1, [sp, #20]
   26bba:	6e09      	ldr	r1, [r1, #96]	@ 0x60
   26bbc:	4b30      	ldr	r3, [pc, #192]	@ (26c80 <_start+0x2b3c>)
   26bbe:	446b      	add	r3, sp
   26bc0:	930c      	str	r3, [sp, #48]	@ 0x30
   26bc2:	c864      	ldmia	r0!, {r2, r5, r6}
   26bc4:	c364      	stmia	r3!, {r2, r5, r6}
   26bc6:	c864      	ldmia	r0!, {r2, r5, r6}
   26bc8:	c364      	stmia	r3!, {r2, r5, r6}
   26bca:	c864      	ldmia	r0!, {r2, r5, r6}
   26bcc:	c364      	stmia	r3!, {r2, r5, r6}
   26bce:	7800      	ldrb	r0, [r0, #0]
   26bd0:	7018      	strb	r0, [r3, #0]
   26bd2:	0e08      	lsrs	r0, r1, #24
   26bd4:	71a0      	strb	r0, [r4, #6]
   26bd6:	0c08      	lsrs	r0, r1, #16
   26bd8:	7160      	strb	r0, [r4, #5]
   26bda:	0a08      	lsrs	r0, r1, #8
   26bdc:	7120      	strb	r0, [r4, #4]
   26bde:	70e1      	strb	r1, [r4, #3]
   26be0:	1de0      	adds	r0, r4, #7
   26be2:	2225      	movs	r2, #37	@ 0x25
   26be4:	990c      	ldr	r1, [sp, #48]	@ 0x30
   26be6:	f000 fa10 	bl	2700a <__aeabi_memcpy>
   26bea:	4d24      	ldr	r5, [pc, #144]	@ (26c7c <_start+0x2b38>)
   26bec:	446d      	add	r5, sp
   26bee:	4628      	mov	r0, r5
   26bf0:	4621      	mov	r1, r4
   26bf2:	f7fc fb3f 	bl	23274 <_ZN18complex_no_dynamic3app17hd443dda441693070E>
   26bf6:	7828      	ldrb	r0, [r5, #0]
   26bf8:	2801      	cmp	r0, #1
   26bfa:	d10b      	bne.n	26c14 <_start+0x2ad0>
   26bfc:	9805      	ldr	r0, [sp, #20]
   26bfe:	6e00      	ldr	r0, [r0, #96]	@ 0x60
   26c00:	900c      	str	r0, [sp, #48]	@ 0x30
   26c02:	f7fd fada 	bl	241ba <_start+0x76>
   26c06:	46c0      	nop			@ (mov r8, r8)
   26c08:	000013cc 	.word	0x000013cc
   26c0c:	0000117c 	.word	0x0000117c
   26c10:	00001370 	.word	0x00001370
   26c14:	4819      	ldr	r0, [pc, #100]	@ (26c7c <_start+0x2b38>)
   26c16:	4468      	add	r0, sp
   26c18:	78c1      	ldrb	r1, [r0, #3]
   26c1a:	4c24      	ldr	r4, [pc, #144]	@ (26cac <_start+0x2b68>)
   26c1c:	446c      	add	r4, sp
   26c1e:	70a1      	strb	r1, [r4, #2]
   26c20:	7841      	ldrb	r1, [r0, #1]
   26c22:	7882      	ldrb	r2, [r0, #2]
   26c24:	0212      	lsls	r2, r2, #8
   26c26:	1851      	adds	r1, r2, r1
   26c28:	8021      	strh	r1, [r4, #0]
   26c2a:	3008      	adds	r0, #8
   26c2c:	9905      	ldr	r1, [sp, #20]
   26c2e:	6e09      	ldr	r1, [r1, #96]	@ 0x60
   26c30:	910b      	str	r1, [sp, #44]	@ 0x2c
   26c32:	4b13      	ldr	r3, [pc, #76]	@ (26c80 <_start+0x2b3c>)
   26c34:	446b      	add	r3, sp
   26c36:	930c      	str	r3, [sp, #48]	@ 0x30
   26c38:	c866      	ldmia	r0!, {r1, r2, r5, r6}
   26c3a:	c366      	stmia	r3!, {r1, r2, r5, r6}
   26c3c:	c866      	ldmia	r0!, {r1, r2, r5, r6}
   26c3e:	c366      	stmia	r3!, {r1, r2, r5, r6}
   26c40:	8801      	ldrh	r1, [r0, #0]
   26c42:	8019      	strh	r1, [r3, #0]
   26c44:	7880      	ldrb	r0, [r0, #2]
   26c46:	7098      	strb	r0, [r3, #2]
   26c48:	990b      	ldr	r1, [sp, #44]	@ 0x2c
   26c4a:	0e08      	lsrs	r0, r1, #24
   26c4c:	71a0      	strb	r0, [r4, #6]
   26c4e:	0c08      	lsrs	r0, r1, #16
   26c50:	7160      	strb	r0, [r4, #5]
   26c52:	0a08      	lsrs	r0, r1, #8
   26c54:	7120      	strb	r0, [r4, #4]
   26c56:	70e1      	strb	r1, [r4, #3]
   26c58:	1de0      	adds	r0, r4, #7
   26c5a:	2223      	movs	r2, #35	@ 0x23
   26c5c:	990c      	ldr	r1, [sp, #48]	@ 0x30
   26c5e:	f000 f9d4 	bl	2700a <__aeabi_memcpy>
   26c62:	4d06      	ldr	r5, [pc, #24]	@ (26c7c <_start+0x2b38>)
   26c64:	446d      	add	r5, sp
   26c66:	4628      	mov	r0, r5
   26c68:	4621      	mov	r1, r4
   26c6a:	f7fc fa01 	bl	23070 <_ZN18complex_no_dynamic3app17hd1ef5bac439c2b8cE>
   26c6e:	7828      	ldrb	r0, [r5, #0]
   26c70:	9905      	ldr	r1, [sp, #20]
   26c72:	6e09      	ldr	r1, [r1, #96]	@ 0x60
   26c74:	910c      	str	r1, [sp, #48]	@ 0x30
   26c76:	f7fd faa1 	bl	241bc <_start+0x78>
   26c7a:	46c0      	nop			@ (mov r8, r8)
   26c7c:	000013cc 	.word	0x000013cc
   26c80:	00001370 	.word	0x00001370
   26c84:	000011c0 	.word	0x000011c0
   26c88:	000011e4 	.word	0x000011e4
   26c8c:	00001208 	.word	0x00001208
   26c90:	00001238 	.word	0x00001238
   26c94:	00001298 	.word	0x00001298
   26c98:	000012f0 	.word	0x000012f0
   26c9c:	00001304 	.word	0x00001304
   26ca0:	00001354 	.word	0x00001354
   26ca4:	00001430 	.word	0x00001430
   26ca8:	00001494 	.word	0x00001494
   26cac:	000014c0 	.word	0x000014c0

00026cb0 <__aeabi_memclr4>:
   26cb0:	b5f0      	push	{r4, r5, r6, r7, lr}
   26cb2:	af03      	add	r7, sp, #12
   26cb4:	2904      	cmp	r1, #4
   26cb6:	d311      	bcc.n	26cdc <__aeabi_memclr4+0x2c>
   26cb8:	1f0c      	subs	r4, r1, #4
   26cba:	250c      	movs	r5, #12
   26cbc:	4025      	ands	r5, r4
   26cbe:	2d0c      	cmp	r5, #12
   26cc0:	d012      	beq.n	26ce8 <__aeabi_memclr4+0x38>
   26cc2:	2600      	movs	r6, #0
   26cc4:	4602      	mov	r2, r0
   26cc6:	c240      	stmia	r2!, {r6}
   26cc8:	0723      	lsls	r3, r4, #28
   26cca:	0f9b      	lsrs	r3, r3, #30
   26ccc:	4623      	mov	r3, r4
   26cce:	d00d      	beq.n	26cec <__aeabi_memclr4+0x3c>
   26cd0:	6046      	str	r6, [r0, #4]
   26cd2:	2d04      	cmp	r5, #4
   26cd4:	d105      	bne.n	26ce2 <__aeabi_memclr4+0x32>
   26cd6:	3908      	subs	r1, #8
   26cd8:	3008      	adds	r0, #8
   26cda:	e005      	b.n	26ce8 <__aeabi_memclr4+0x38>
   26cdc:	460b      	mov	r3, r1
   26cde:	4602      	mov	r2, r0
   26ce0:	e00f      	b.n	26d02 <__aeabi_memclr4+0x52>
   26ce2:	6086      	str	r6, [r0, #8]
   26ce4:	390c      	subs	r1, #12
   26ce6:	300c      	adds	r0, #12
   26ce8:	4602      	mov	r2, r0
   26cea:	460b      	mov	r3, r1
   26cec:	2c0c      	cmp	r4, #12
   26cee:	d308      	bcc.n	26d02 <__aeabi_memclr4+0x52>
   26cf0:	2000      	movs	r0, #0
   26cf2:	6010      	str	r0, [r2, #0]
   26cf4:	6050      	str	r0, [r2, #4]
   26cf6:	6090      	str	r0, [r2, #8]
   26cf8:	60d0      	str	r0, [r2, #12]
   26cfa:	3210      	adds	r2, #16
   26cfc:	3b10      	subs	r3, #16
   26cfe:	2b03      	cmp	r3, #3
   26d00:	d8f6      	bhi.n	26cf0 <__aeabi_memclr4+0x40>
   26d02:	18d0      	adds	r0, r2, r3
   26d04:	4282      	cmp	r2, r0
   26d06:	d21a      	bcs.n	26d3e <__aeabi_memclr4+0x8e>
   26d08:	2403      	movs	r4, #3
   26d0a:	401c      	ands	r4, r3
   26d0c:	1e59      	subs	r1, r3, #1
   26d0e:	2c00      	cmp	r4, #0
   26d10:	d00b      	beq.n	26d2a <__aeabi_memclr4+0x7a>
   26d12:	2300      	movs	r3, #0
   26d14:	7013      	strb	r3, [r2, #0]
   26d16:	2c01      	cmp	r4, #1
   26d18:	d103      	bne.n	26d22 <__aeabi_memclr4+0x72>
   26d1a:	1c52      	adds	r2, r2, #1
   26d1c:	2903      	cmp	r1, #3
   26d1e:	d206      	bcs.n	26d2e <__aeabi_memclr4+0x7e>
   26d20:	e00d      	b.n	26d3e <__aeabi_memclr4+0x8e>
   26d22:	7053      	strb	r3, [r2, #1]
   26d24:	2c02      	cmp	r4, #2
   26d26:	d10b      	bne.n	26d40 <__aeabi_memclr4+0x90>
   26d28:	1c92      	adds	r2, r2, #2
   26d2a:	2903      	cmp	r1, #3
   26d2c:	d307      	bcc.n	26d3e <__aeabi_memclr4+0x8e>
   26d2e:	2100      	movs	r1, #0
   26d30:	70d1      	strb	r1, [r2, #3]
   26d32:	7091      	strb	r1, [r2, #2]
   26d34:	7051      	strb	r1, [r2, #1]
   26d36:	7011      	strb	r1, [r2, #0]
   26d38:	1d12      	adds	r2, r2, #4
   26d3a:	4282      	cmp	r2, r0
   26d3c:	d1f7      	bne.n	26d2e <__aeabi_memclr4+0x7e>
   26d3e:	bdf0      	pop	{r4, r5, r6, r7, pc}
   26d40:	7093      	strb	r3, [r2, #2]
   26d42:	1cd2      	adds	r2, r2, #3
   26d44:	2903      	cmp	r1, #3
   26d46:	d2f2      	bcs.n	26d2e <__aeabi_memclr4+0x7e>
   26d48:	e7f9      	b.n	26d3e <__aeabi_memclr4+0x8e>

00026d4a <__aeabi_memcpy4>:
   26d4a:	b5f0      	push	{r4, r5, r6, r7, lr}
   26d4c:	af03      	add	r7, sp, #12
   26d4e:	b081      	sub	sp, #4
   26d50:	2a04      	cmp	r2, #4
   26d52:	d32d      	bcc.n	26db0 <__aeabi_memcpy4+0x66>
   26d54:	1f13      	subs	r3, r2, #4
   26d56:	250c      	movs	r5, #12
   26d58:	401d      	ands	r5, r3
   26d5a:	2d0c      	cmp	r5, #12
   26d5c:	d019      	beq.n	26d92 <__aeabi_memcpy4+0x48>
   26d5e:	9200      	str	r2, [sp, #0]
   26d60:	460e      	mov	r6, r1
   26d62:	c904      	ldmia	r1!, {r2}
   26d64:	4604      	mov	r4, r0
   26d66:	c004      	stmia	r0!, {r2}
   26d68:	071a      	lsls	r2, r3, #28
   26d6a:	0f92      	lsrs	r2, r2, #30
   26d6c:	461a      	mov	r2, r3
   26d6e:	d010      	beq.n	26d92 <__aeabi_memcpy4+0x48>
   26d70:	4631      	mov	r1, r6
   26d72:	6872      	ldr	r2, [r6, #4]
   26d74:	6062      	str	r2, [r4, #4]
   26d76:	2d04      	cmp	r5, #4
   26d78:	d104      	bne.n	26d84 <__aeabi_memcpy4+0x3a>
   26d7a:	9a00      	ldr	r2, [sp, #0]
   26d7c:	3a08      	subs	r2, #8
   26d7e:	3108      	adds	r1, #8
   26d80:	3408      	adds	r4, #8
   26d82:	e005      	b.n	26d90 <__aeabi_memcpy4+0x46>
   26d84:	688a      	ldr	r2, [r1, #8]
   26d86:	60a2      	str	r2, [r4, #8]
   26d88:	9a00      	ldr	r2, [sp, #0]
   26d8a:	3a0c      	subs	r2, #12
   26d8c:	310c      	adds	r1, #12
   26d8e:	340c      	adds	r4, #12
   26d90:	4620      	mov	r0, r4
   26d92:	2b0c      	cmp	r3, #12
   26d94:	d30c      	bcc.n	26db0 <__aeabi_memcpy4+0x66>
   26d96:	680b      	ldr	r3, [r1, #0]
   26d98:	6003      	str	r3, [r0, #0]
   26d9a:	684b      	ldr	r3, [r1, #4]
   26d9c:	6043      	str	r3, [r0, #4]
   26d9e:	688b      	ldr	r3, [r1, #8]
   26da0:	6083      	str	r3, [r0, #8]
   26da2:	68cb      	ldr	r3, [r1, #12]
   26da4:	60c3      	str	r3, [r0, #12]
   26da6:	3110      	adds	r1, #16
   26da8:	3010      	adds	r0, #16
   26daa:	3a10      	subs	r2, #16
   26dac:	2a03      	cmp	r2, #3
   26dae:	d8f2      	bhi.n	26d96 <__aeabi_memcpy4+0x4c>
   26db0:	f000 f802 	bl	26db8 <_ZN17compiler_builtins3mem6memcpy17h1f9dbb1c3fd18e2fE>
   26db4:	b001      	add	sp, #4
   26db6:	bdf0      	pop	{r4, r5, r6, r7, pc}

00026db8 <_ZN17compiler_builtins3mem6memcpy17h1f9dbb1c3fd18e2fE>:
   26db8:	b5f0      	push	{r4, r5, r6, r7, lr}
   26dba:	af03      	add	r7, sp, #12
   26dbc:	b08f      	sub	sp, #60	@ 0x3c
   26dbe:	2a10      	cmp	r2, #16
   26dc0:	d315      	bcc.n	26dee <_ZN17compiler_builtins3mem6memcpy17h1f9dbb1c3fd18e2fE+0x36>
   26dc2:	920b      	str	r2, [sp, #44]	@ 0x2c
   26dc4:	4242      	negs	r2, r0
   26dc6:	2303      	movs	r3, #3
   26dc8:	9308      	str	r3, [sp, #32]
   26dca:	401a      	ands	r2, r3
   26dcc:	1885      	adds	r5, r0, r2
   26dce:	900a      	str	r0, [sp, #40]	@ 0x28
   26dd0:	42a8      	cmp	r0, r5
   26dd2:	d22a      	bcs.n	26e2a <_ZN17compiler_builtins3mem6memcpy17h1f9dbb1c3fd18e2fE+0x72>
   26dd4:	1e54      	subs	r4, r2, #1
   26dd6:	2a00      	cmp	r2, #0
   26dd8:	980a      	ldr	r0, [sp, #40]	@ 0x28
   26dda:	4606      	mov	r6, r0
   26ddc:	460b      	mov	r3, r1
   26dde:	d016      	beq.n	26e0e <_ZN17compiler_builtins3mem6memcpy17h1f9dbb1c3fd18e2fE+0x56>
   26de0:	780b      	ldrb	r3, [r1, #0]
   26de2:	7003      	strb	r3, [r0, #0]
   26de4:	2a01      	cmp	r2, #1
   26de6:	d107      	bne.n	26df8 <_ZN17compiler_builtins3mem6memcpy17h1f9dbb1c3fd18e2fE+0x40>
   26de8:	1c4b      	adds	r3, r1, #1
   26dea:	1c46      	adds	r6, r0, #1
   26dec:	e00f      	b.n	26e0e <_ZN17compiler_builtins3mem6memcpy17h1f9dbb1c3fd18e2fE+0x56>
   26dee:	4603      	mov	r3, r0
   26df0:	189c      	adds	r4, r3, r2
   26df2:	42a3      	cmp	r3, r4
   26df4:	d341      	bcc.n	26e7a <_ZN17compiler_builtins3mem6memcpy17h1f9dbb1c3fd18e2fE+0xc2>
   26df6:	e062      	b.n	26ebe <_ZN17compiler_builtins3mem6memcpy17h1f9dbb1c3fd18e2fE+0x106>
   26df8:	784b      	ldrb	r3, [r1, #1]
   26dfa:	7043      	strb	r3, [r0, #1]
   26dfc:	2a02      	cmp	r2, #2
   26dfe:	d102      	bne.n	26e06 <_ZN17compiler_builtins3mem6memcpy17h1f9dbb1c3fd18e2fE+0x4e>
   26e00:	1c8b      	adds	r3, r1, #2
   26e02:	1c86      	adds	r6, r0, #2
   26e04:	e003      	b.n	26e0e <_ZN17compiler_builtins3mem6memcpy17h1f9dbb1c3fd18e2fE+0x56>
   26e06:	788b      	ldrb	r3, [r1, #2]
   26e08:	7083      	strb	r3, [r0, #2]
   26e0a:	1ccb      	adds	r3, r1, #3
   26e0c:	1cc6      	adds	r6, r0, #3
   26e0e:	2c03      	cmp	r4, #3
   26e10:	d30b      	bcc.n	26e2a <_ZN17compiler_builtins3mem6memcpy17h1f9dbb1c3fd18e2fE+0x72>
   26e12:	781c      	ldrb	r4, [r3, #0]
   26e14:	7034      	strb	r4, [r6, #0]
   26e16:	785c      	ldrb	r4, [r3, #1]
   26e18:	7074      	strb	r4, [r6, #1]
   26e1a:	789c      	ldrb	r4, [r3, #2]
   26e1c:	70b4      	strb	r4, [r6, #2]
   26e1e:	78dc      	ldrb	r4, [r3, #3]
   26e20:	70f4      	strb	r4, [r6, #3]
   26e22:	1d1b      	adds	r3, r3, #4
   26e24:	1d36      	adds	r6, r6, #4
   26e26:	42ae      	cmp	r6, r5
   26e28:	d1f3      	bne.n	26e12 <_ZN17compiler_builtins3mem6memcpy17h1f9dbb1c3fd18e2fE+0x5a>
   26e2a:	980b      	ldr	r0, [sp, #44]	@ 0x2c
   26e2c:	1a80      	subs	r0, r0, r2
   26e2e:	900b      	str	r0, [sp, #44]	@ 0x2c
   26e30:	9c08      	ldr	r4, [sp, #32]
   26e32:	43a0      	bics	r0, r4
   26e34:	182b      	adds	r3, r5, r0
   26e36:	188e      	adds	r6, r1, r2
   26e38:	9609      	str	r6, [sp, #36]	@ 0x24
   26e3a:	4026      	ands	r6, r4
   26e3c:	9007      	str	r0, [sp, #28]
   26e3e:	d147      	bne.n	26ed0 <_ZN17compiler_builtins3mem6memcpy17h1f9dbb1c3fd18e2fE+0x118>
   26e40:	429d      	cmp	r5, r3
   26e42:	9a0b      	ldr	r2, [sp, #44]	@ 0x2c
   26e44:	9e09      	ldr	r6, [sp, #36]	@ 0x24
   26e46:	d211      	bcs.n	26e6c <_ZN17compiler_builtins3mem6memcpy17h1f9dbb1c3fd18e2fE+0xb4>
   26e48:	4631      	mov	r1, r6
   26e4a:	6808      	ldr	r0, [r1, #0]
   26e4c:	c501      	stmia	r5!, {r0}
   26e4e:	429d      	cmp	r5, r3
   26e50:	d20c      	bcs.n	26e6c <_ZN17compiler_builtins3mem6memcpy17h1f9dbb1c3fd18e2fE+0xb4>
   26e52:	6848      	ldr	r0, [r1, #4]
   26e54:	c501      	stmia	r5!, {r0}
   26e56:	429d      	cmp	r5, r3
   26e58:	d208      	bcs.n	26e6c <_ZN17compiler_builtins3mem6memcpy17h1f9dbb1c3fd18e2fE+0xb4>
   26e5a:	6888      	ldr	r0, [r1, #8]
   26e5c:	c501      	stmia	r5!, {r0}
   26e5e:	429d      	cmp	r5, r3
   26e60:	d204      	bcs.n	26e6c <_ZN17compiler_builtins3mem6memcpy17h1f9dbb1c3fd18e2fE+0xb4>
   26e62:	68c8      	ldr	r0, [r1, #12]
   26e64:	c501      	stmia	r5!, {r0}
   26e66:	3110      	adds	r1, #16
   26e68:	429d      	cmp	r5, r3
   26e6a:	d3ee      	bcc.n	26e4a <_ZN17compiler_builtins3mem6memcpy17h1f9dbb1c3fd18e2fE+0x92>
   26e6c:	4022      	ands	r2, r4
   26e6e:	9807      	ldr	r0, [sp, #28]
   26e70:	1831      	adds	r1, r6, r0
   26e72:	980a      	ldr	r0, [sp, #40]	@ 0x28
   26e74:	189c      	adds	r4, r3, r2
   26e76:	42a3      	cmp	r3, r4
   26e78:	d221      	bcs.n	26ebe <_ZN17compiler_builtins3mem6memcpy17h1f9dbb1c3fd18e2fE+0x106>
   26e7a:	2503      	movs	r5, #3
   26e7c:	4015      	ands	r5, r2
   26e7e:	1e52      	subs	r2, r2, #1
   26e80:	2d00      	cmp	r5, #0
   26e82:	d00e      	beq.n	26ea2 <_ZN17compiler_builtins3mem6memcpy17h1f9dbb1c3fd18e2fE+0xea>
   26e84:	780e      	ldrb	r6, [r1, #0]
   26e86:	701e      	strb	r6, [r3, #0]
   26e88:	2d01      	cmp	r5, #1
   26e8a:	d104      	bne.n	26e96 <_ZN17compiler_builtins3mem6memcpy17h1f9dbb1c3fd18e2fE+0xde>
   26e8c:	1c49      	adds	r1, r1, #1
   26e8e:	1c5b      	adds	r3, r3, #1
   26e90:	2a03      	cmp	r2, #3
   26e92:	d208      	bcs.n	26ea6 <_ZN17compiler_builtins3mem6memcpy17h1f9dbb1c3fd18e2fE+0xee>
   26e94:	e013      	b.n	26ebe <_ZN17compiler_builtins3mem6memcpy17h1f9dbb1c3fd18e2fE+0x106>
   26e96:	784e      	ldrb	r6, [r1, #1]
   26e98:	705e      	strb	r6, [r3, #1]
   26e9a:	2d02      	cmp	r5, #2
   26e9c:	d111      	bne.n	26ec2 <_ZN17compiler_builtins3mem6memcpy17h1f9dbb1c3fd18e2fE+0x10a>
   26e9e:	1c89      	adds	r1, r1, #2
   26ea0:	1c9b      	adds	r3, r3, #2
   26ea2:	2a03      	cmp	r2, #3
   26ea4:	d30b      	bcc.n	26ebe <_ZN17compiler_builtins3mem6memcpy17h1f9dbb1c3fd18e2fE+0x106>
   26ea6:	780a      	ldrb	r2, [r1, #0]
   26ea8:	701a      	strb	r2, [r3, #0]
   26eaa:	784a      	ldrb	r2, [r1, #1]
   26eac:	705a      	strb	r2, [r3, #1]
   26eae:	788a      	ldrb	r2, [r1, #2]
   26eb0:	709a      	strb	r2, [r3, #2]
   26eb2:	78ca      	ldrb	r2, [r1, #3]
   26eb4:	70da      	strb	r2, [r3, #3]
   26eb6:	1d09      	adds	r1, r1, #4
   26eb8:	1d1b      	adds	r3, r3, #4
   26eba:	42a3      	cmp	r3, r4
   26ebc:	d1f3      	bne.n	26ea6 <_ZN17compiler_builtins3mem6memcpy17h1f9dbb1c3fd18e2fE+0xee>
   26ebe:	b00f      	add	sp, #60	@ 0x3c
   26ec0:	bdf0      	pop	{r4, r5, r6, r7, pc}
   26ec2:	788d      	ldrb	r5, [r1, #2]
   26ec4:	709d      	strb	r5, [r3, #2]
   26ec6:	1cc9      	adds	r1, r1, #3
   26ec8:	1cdb      	adds	r3, r3, #3
   26eca:	2a03      	cmp	r2, #3
   26ecc:	d2eb      	bcs.n	26ea6 <_ZN17compiler_builtins3mem6memcpy17h1f9dbb1c3fd18e2fE+0xee>
   26ece:	e7f6      	b.n	26ebe <_ZN17compiler_builtins3mem6memcpy17h1f9dbb1c3fd18e2fE+0x106>
   26ed0:	2400      	movs	r4, #0
   26ed2:	9406      	str	r4, [sp, #24]
   26ed4:	940e      	str	r4, [sp, #56]	@ 0x38
   26ed6:	ac0e      	add	r4, sp, #56	@ 0x38
   26ed8:	19a4      	adds	r4, r4, r6
   26eda:	9405      	str	r4, [sp, #20]
   26edc:	2404      	movs	r4, #4
   26ede:	1ba4      	subs	r4, r4, r6
   26ee0:	9404      	str	r4, [sp, #16]
   26ee2:	07e4      	lsls	r4, r4, #31
   26ee4:	9600      	str	r6, [sp, #0]
   26ee6:	d006      	beq.n	26ef6 <_ZN17compiler_builtins3mem6memcpy17h1f9dbb1c3fd18e2fE+0x13e>
   26ee8:	9c09      	ldr	r4, [sp, #36]	@ 0x24
   26eea:	7824      	ldrb	r4, [r4, #0]
   26eec:	9e05      	ldr	r6, [sp, #20]
   26eee:	7034      	strb	r4, [r6, #0]
   26ef0:	9e00      	ldr	r6, [sp, #0]
   26ef2:	2401      	movs	r4, #1
   26ef4:	9406      	str	r4, [sp, #24]
   26ef6:	9c04      	ldr	r4, [sp, #16]
   26ef8:	07a4      	lsls	r4, r4, #30
   26efa:	d508      	bpl.n	26f0e <_ZN17compiler_builtins3mem6memcpy17h1f9dbb1c3fd18e2fE+0x156>
   26efc:	9c09      	ldr	r4, [sp, #36]	@ 0x24
   26efe:	9204      	str	r2, [sp, #16]
   26f00:	9a06      	ldr	r2, [sp, #24]
   26f02:	5aa4      	ldrh	r4, [r4, r2]
   26f04:	9e05      	ldr	r6, [sp, #20]
   26f06:	9a06      	ldr	r2, [sp, #24]
   26f08:	52b4      	strh	r4, [r6, r2]
   26f0a:	9a04      	ldr	r2, [sp, #16]
   26f0c:	9e00      	ldr	r6, [sp, #0]
   26f0e:	00f4      	lsls	r4, r6, #3
   26f10:	9403      	str	r4, [sp, #12]
   26f12:	9c0e      	ldr	r4, [sp, #56]	@ 0x38
   26f14:	9406      	str	r4, [sp, #24]
   26f16:	1d2c      	adds	r4, r5, #4
   26f18:	429c      	cmp	r4, r3
   26f1a:	d236      	bcs.n	26f8a <_ZN17compiler_builtins3mem6memcpy17h1f9dbb1c3fd18e2fE+0x1d2>
   26f1c:	4274      	negs	r4, r6
   26f1e:	1909      	adds	r1, r1, r4
   26f20:	9105      	str	r1, [sp, #20]
   26f22:	9d03      	ldr	r5, [sp, #12]
   26f24:	4269      	negs	r1, r5
   26f26:	2418      	movs	r4, #24
   26f28:	400c      	ands	r4, r1
   26f2a:	9402      	str	r4, [sp, #8]
   26f2c:	990a      	ldr	r1, [sp, #40]	@ 0x28
   26f2e:	9104      	str	r1, [sp, #16]
   26f30:	4629      	mov	r1, r5
   26f32:	9c06      	ldr	r4, [sp, #24]
   26f34:	40cc      	lsrs	r4, r1
   26f36:	9406      	str	r4, [sp, #24]
   26f38:	9905      	ldr	r1, [sp, #20]
   26f3a:	1889      	adds	r1, r1, r2
   26f3c:	9101      	str	r1, [sp, #4]
   26f3e:	6849      	ldr	r1, [r1, #4]
   26f40:	460c      	mov	r4, r1
   26f42:	9d02      	ldr	r5, [sp, #8]
   26f44:	40ac      	lsls	r4, r5
   26f46:	9d06      	ldr	r5, [sp, #24]
   26f48:	432c      	orrs	r4, r5
   26f4a:	9d04      	ldr	r5, [sp, #16]
   26f4c:	50ac      	str	r4, [r5, r2]
   26f4e:	18ad      	adds	r5, r5, r2
   26f50:	462c      	mov	r4, r5
   26f52:	3408      	adds	r4, #8
   26f54:	429c      	cmp	r4, r3
   26f56:	d21c      	bcs.n	26f92 <_ZN17compiler_builtins3mem6memcpy17h1f9dbb1c3fd18e2fE+0x1da>
   26f58:	9c03      	ldr	r4, [sp, #12]
   26f5a:	40e1      	lsrs	r1, r4
   26f5c:	9c01      	ldr	r4, [sp, #4]
   26f5e:	68a4      	ldr	r4, [r4, #8]
   26f60:	9406      	str	r4, [sp, #24]
   26f62:	9501      	str	r5, [sp, #4]
   26f64:	9d02      	ldr	r5, [sp, #8]
   26f66:	40ac      	lsls	r4, r5
   26f68:	430c      	orrs	r4, r1
   26f6a:	9901      	ldr	r1, [sp, #4]
   26f6c:	604c      	str	r4, [r1, #4]
   26f6e:	9904      	ldr	r1, [sp, #16]
   26f70:	3108      	adds	r1, #8
   26f72:	9104      	str	r1, [sp, #16]
   26f74:	188d      	adds	r5, r1, r2
   26f76:	1d29      	adds	r1, r5, #4
   26f78:	9c05      	ldr	r4, [sp, #20]
   26f7a:	3408      	adds	r4, #8
   26f7c:	9405      	str	r4, [sp, #20]
   26f7e:	4299      	cmp	r1, r3
   26f80:	9903      	ldr	r1, [sp, #12]
   26f82:	d3d6      	bcc.n	26f32 <_ZN17compiler_builtins3mem6memcpy17h1f9dbb1c3fd18e2fE+0x17a>
   26f84:	9805      	ldr	r0, [sp, #20]
   26f86:	1880      	adds	r0, r0, r2
   26f88:	e001      	b.n	26f8e <_ZN17compiler_builtins3mem6memcpy17h1f9dbb1c3fd18e2fE+0x1d6>
   26f8a:	9809      	ldr	r0, [sp, #36]	@ 0x24
   26f8c:	1b80      	subs	r0, r0, r6
   26f8e:	9005      	str	r0, [sp, #20]
   26f90:	e004      	b.n	26f9c <_ZN17compiler_builtins3mem6memcpy17h1f9dbb1c3fd18e2fE+0x1e4>
   26f92:	9801      	ldr	r0, [sp, #4]
   26f94:	1d00      	adds	r0, r0, #4
   26f96:	9005      	str	r0, [sp, #20]
   26f98:	1d2d      	adds	r5, r5, #4
   26f9a:	9106      	str	r1, [sp, #24]
   26f9c:	a80d      	add	r0, sp, #52	@ 0x34
   26f9e:	2100      	movs	r1, #0
   26fa0:	9004      	str	r0, [sp, #16]
   26fa2:	7001      	strb	r1, [r0, #0]
   26fa4:	a80c      	add	r0, sp, #48	@ 0x30
   26fa6:	7001      	strb	r1, [r0, #0]
   26fa8:	2e01      	cmp	r6, #1
   26faa:	460e      	mov	r6, r1
   26fac:	460c      	mov	r4, r1
   26fae:	9102      	str	r1, [sp, #8]
   26fb0:	9a0b      	ldr	r2, [sp, #44]	@ 0x2c
   26fb2:	d009      	beq.n	26fc8 <_ZN17compiler_builtins3mem6memcpy17h1f9dbb1c3fd18e2fE+0x210>
   26fb4:	9c05      	ldr	r4, [sp, #20]
   26fb6:	7960      	ldrb	r0, [r4, #5]
   26fb8:	7926      	ldrb	r6, [r4, #4]
   26fba:	ac0d      	add	r4, sp, #52	@ 0x34
   26fbc:	7026      	strb	r6, [r4, #0]
   26fbe:	0204      	lsls	r4, r0, #8
   26fc0:	2002      	movs	r0, #2
   26fc2:	9002      	str	r0, [sp, #8]
   26fc4:	a80c      	add	r0, sp, #48	@ 0x30
   26fc6:	9004      	str	r0, [sp, #16]
   26fc8:	9809      	ldr	r0, [sp, #36]	@ 0x24
   26fca:	07c0      	lsls	r0, r0, #31
   26fcc:	d00a      	beq.n	26fe4 <_ZN17compiler_builtins3mem6memcpy17h1f9dbb1c3fd18e2fE+0x22c>
   26fce:	9805      	ldr	r0, [sp, #20]
   26fd0:	1d00      	adds	r0, r0, #4
   26fd2:	9902      	ldr	r1, [sp, #8]
   26fd4:	5c40      	ldrb	r0, [r0, r1]
   26fd6:	9904      	ldr	r1, [sp, #16]
   26fd8:	7008      	strb	r0, [r1, #0]
   26fda:	a80d      	add	r0, sp, #52	@ 0x34
   26fdc:	7806      	ldrb	r6, [r0, #0]
   26fde:	a80c      	add	r0, sp, #48	@ 0x30
   26fe0:	7800      	ldrb	r0, [r0, #0]
   26fe2:	0401      	lsls	r1, r0, #16
   26fe4:	9605      	str	r6, [sp, #20]
   26fe6:	9803      	ldr	r0, [sp, #12]
   26fe8:	4240      	negs	r0, r0
   26fea:	9004      	str	r0, [sp, #16]
   26fec:	2618      	movs	r6, #24
   26fee:	9804      	ldr	r0, [sp, #16]
   26ff0:	4006      	ands	r6, r0
   26ff2:	430c      	orrs	r4, r1
   26ff4:	9905      	ldr	r1, [sp, #20]
   26ff6:	430c      	orrs	r4, r1
   26ff8:	40b4      	lsls	r4, r6
   26ffa:	9906      	ldr	r1, [sp, #24]
   26ffc:	9803      	ldr	r0, [sp, #12]
   26ffe:	40c1      	lsrs	r1, r0
   27000:	4321      	orrs	r1, r4
   27002:	6029      	str	r1, [r5, #0]
   27004:	9c08      	ldr	r4, [sp, #32]
   27006:	9e09      	ldr	r6, [sp, #36]	@ 0x24
   27008:	e730      	b.n	26e6c <_ZN17compiler_builtins3mem6memcpy17h1f9dbb1c3fd18e2fE+0xb4>

0002700a <__aeabi_memcpy>:
   2700a:	b580      	push	{r7, lr}
   2700c:	af00      	add	r7, sp, #0
   2700e:	f7ff fed3 	bl	26db8 <_ZN17compiler_builtins3mem6memcpy17h1f9dbb1c3fd18e2fE>
   27012:	bd80      	pop	{r7, pc}
