
target/thumbv6m-none-eabi/opt-z/examples/complex_dynamic_type:     file format elf32-littlearm

Sections:
Idx Name          Size      VMA       LMA       File off  Algn
  0 .ARM.exidx    00000010  000100d4  000100d4  000000d4  2**2
                  CONTENTS, ALLOC, LOAD, READONLY, DATA
  1 .rodata       000001b7  000100e4  000100e4  000000e4  2**0
                  CONTENTS, ALLOC, LOAD, READONLY, DATA
  2 .text         0000804c  0002029c  0002029c  0000029c  2**2
                  CONTENTS, ALLOC, LOAD, READONLY, CODE
  3 .comment      00000099  00000000  00000000  000082e8  2**0
                  CONTENTS, READONLY
  4 .ARM.attributes 00000032  00000000  00000000  00008381  2**0
                  CONTENTS, READONLY

Disassembly of section .text:

0002029c <_ZN9allow_pin12dynamic_type11allow_inner17hf1099571477a6939E>:
   2029c:	b5d0      	push	{r4, r6, r7, lr}
   2029e:	af02      	add	r7, sp, #8
   202a0:	1dfc      	adds	r4, r7, #7
   202a2:	3401      	adds	r4, #1
   202a4:	7824      	ldrb	r4, [r4, #0]
   202a6:	2c03      	cmp	r4, #3
   202a8:	d101      	bne.n	202ae <_ZN9allow_pin12dynamic_type11allow_inner17hf1099571477a6939E+0x12>
   202aa:	df03      	svc	3
   202ac:	e000      	b.n	202b0 <_ZN9allow_pin12dynamic_type11allow_inner17hf1099571477a6939E+0x14>
   202ae:	df04      	svc	4
   202b0:	1e82      	subs	r2, r0, #2
   202b2:	4250      	negs	r0, r2
   202b4:	4150      	adcs	r0, r2
   202b6:	bdd0      	pop	{r4, r6, r7, pc}

000202b8 <_ZN9allow_pin12dynamic_type23Buffer$LT$B$C$_$C$_$GT$5allow17h0e699cccb6206866E>:
   202b8:	b5f8      	push	{r3, r4, r5, r6, r7, lr}
   202ba:	af04      	add	r7, sp, #16
   202bc:	4606      	mov	r6, r0
   202be:	7800      	ldrb	r0, [r0, #0]
   202c0:	2401      	movs	r4, #1
   202c2:	2802      	cmp	r0, #2
   202c4:	d10c      	bne.n	202e0 <_ZN9allow_pin12dynamic_type23Buffer$LT$B$C$_$C$_$GT$5allow17h0e699cccb6206866E+0x28>
   202c6:	4615      	mov	r5, r2
   202c8:	460b      	mov	r3, r1
   202ca:	9200      	str	r2, [sp, #0]
   202cc:	1c72      	adds	r2, r6, #1
   202ce:	4806      	ldr	r0, [pc, #24]	@ (202e8 <_ZN9allow_pin12dynamic_type23Buffer$LT$B$C$_$C$_$GT$5allow17h0e699cccb6206866E+0x30>)
   202d0:	2109      	movs	r1, #9
   202d2:	f7ff ffe3 	bl	2029c <_ZN9allow_pin12dynamic_type11allow_inner17hf1099571477a6939E>
   202d6:	07c0      	lsls	r0, r0, #31
   202d8:	d103      	bne.n	202e2 <_ZN9allow_pin12dynamic_type23Buffer$LT$B$C$_$C$_$GT$5allow17h0e699cccb6206866E+0x2a>
   202da:	7035      	strb	r5, [r6, #0]
   202dc:	2400      	movs	r4, #0
   202de:	e000      	b.n	202e2 <_ZN9allow_pin12dynamic_type23Buffer$LT$B$C$_$C$_$GT$5allow17h0e699cccb6206866E+0x2a>
   202e0:	2103      	movs	r1, #3
   202e2:	4620      	mov	r0, r4
   202e4:	bdf8      	pop	{r3, r4, r5, r6, r7, pc}
   202e6:	46c0      	nop			@ (mov r8, r8)
   202e8:	00000a9d 	.word	0x00000a9d

000202ec <_ZN9allow_pin12dynamic_type23Buffer$LT$B$C$_$C$_$GT$5allow17h30e4bd6b43fdcfe1E>:
   202ec:	b5fe      	push	{r1, r2, r3, r4, r5, r6, r7, lr}
   202ee:	af06      	add	r7, sp, #24
   202f0:	4606      	mov	r6, r0
   202f2:	7800      	ldrb	r0, [r0, #0]
   202f4:	2401      	movs	r4, #1
   202f6:	2802      	cmp	r0, #2
   202f8:	d10d      	bne.n	20316 <_ZN9allow_pin12dynamic_type23Buffer$LT$B$C$_$C$_$GT$5allow17h30e4bd6b43fdcfe1E+0x2a>
   202fa:	4615      	mov	r5, r2
   202fc:	460b      	mov	r3, r1
   202fe:	9200      	str	r2, [sp, #0]
   20300:	1c72      	adds	r2, r6, #1
   20302:	4807      	ldr	r0, [pc, #28]	@ (20320 <_ZN9allow_pin12dynamic_type23Buffer$LT$B$C$_$C$_$GT$5allow17h30e4bd6b43fdcfe1E+0x34>)
   20304:	2100      	movs	r1, #0
   20306:	9102      	str	r1, [sp, #8]
   20308:	f7ff ffc8 	bl	2029c <_ZN9allow_pin12dynamic_type11allow_inner17hf1099571477a6939E>
   2030c:	07c0      	lsls	r0, r0, #31
   2030e:	d103      	bne.n	20318 <_ZN9allow_pin12dynamic_type23Buffer$LT$B$C$_$C$_$GT$5allow17h30e4bd6b43fdcfe1E+0x2c>
   20310:	7035      	strb	r5, [r6, #0]
   20312:	9c02      	ldr	r4, [sp, #8]
   20314:	e000      	b.n	20318 <_ZN9allow_pin12dynamic_type23Buffer$LT$B$C$_$C$_$GT$5allow17h30e4bd6b43fdcfe1E+0x2c>
   20316:	2103      	movs	r1, #3
   20318:	4620      	mov	r0, r4
   2031a:	b003      	add	sp, #12
   2031c:	bdf0      	pop	{r4, r5, r6, r7, pc}
   2031e:	46c0      	nop			@ (mov r8, r8)
   20320:	000016b0 	.word	0x000016b0

00020324 <_ZN9allow_pin12dynamic_type23Buffer$LT$B$C$_$C$_$GT$5allow17h613454ee5bb6310eE>:
   20324:	b5f8      	push	{r3, r4, r5, r6, r7, lr}
   20326:	af04      	add	r7, sp, #16
   20328:	4606      	mov	r6, r0
   2032a:	7800      	ldrb	r0, [r0, #0]
   2032c:	2401      	movs	r4, #1
   2032e:	2802      	cmp	r0, #2
   20330:	d10c      	bne.n	2034c <_ZN9allow_pin12dynamic_type23Buffer$LT$B$C$_$C$_$GT$5allow17h613454ee5bb6310eE+0x28>
   20332:	4615      	mov	r5, r2
   20334:	460b      	mov	r3, r1
   20336:	9200      	str	r2, [sp, #0]
   20338:	1c72      	adds	r2, r6, #1
   2033a:	4806      	ldr	r0, [pc, #24]	@ (20354 <_ZN9allow_pin12dynamic_type23Buffer$LT$B$C$_$C$_$GT$5allow17h613454ee5bb6310eE+0x30>)
   2033c:	2103      	movs	r1, #3
   2033e:	f7ff ffad 	bl	2029c <_ZN9allow_pin12dynamic_type11allow_inner17hf1099571477a6939E>
   20342:	07c0      	lsls	r0, r0, #31
   20344:	d103      	bne.n	2034e <_ZN9allow_pin12dynamic_type23Buffer$LT$B$C$_$C$_$GT$5allow17h613454ee5bb6310eE+0x2a>
   20346:	7035      	strb	r5, [r6, #0]
   20348:	2400      	movs	r4, #0
   2034a:	e000      	b.n	2034e <_ZN9allow_pin12dynamic_type23Buffer$LT$B$C$_$C$_$GT$5allow17h613454ee5bb6310eE+0x2a>
   2034c:	2103      	movs	r1, #3
   2034e:	4620      	mov	r0, r4
   20350:	bdf8      	pop	{r3, r4, r5, r6, r7, pc}
   20352:	46c0      	nop			@ (mov r8, r8)
   20354:	000010e2 	.word	0x000010e2

00020358 <_ZN9allow_pin12dynamic_type23Buffer$LT$B$C$_$C$_$GT$5allow17h6229e59a3ef5e898E>:
   20358:	b5f8      	push	{r3, r4, r5, r6, r7, lr}
   2035a:	af04      	add	r7, sp, #16
   2035c:	4606      	mov	r6, r0
   2035e:	7800      	ldrb	r0, [r0, #0]
   20360:	2401      	movs	r4, #1
   20362:	2802      	cmp	r0, #2
   20364:	d10c      	bne.n	20380 <_ZN9allow_pin12dynamic_type23Buffer$LT$B$C$_$C$_$GT$5allow17h6229e59a3ef5e898E+0x28>
   20366:	4615      	mov	r5, r2
   20368:	460b      	mov	r3, r1
   2036a:	9200      	str	r2, [sp, #0]
   2036c:	1c72      	adds	r2, r6, #1
   2036e:	4806      	ldr	r0, [pc, #24]	@ (20388 <_ZN9allow_pin12dynamic_type23Buffer$LT$B$C$_$C$_$GT$5allow17h6229e59a3ef5e898E+0x30>)
   20370:	2109      	movs	r1, #9
   20372:	f7ff ff93 	bl	2029c <_ZN9allow_pin12dynamic_type11allow_inner17hf1099571477a6939E>
   20376:	07c0      	lsls	r0, r0, #31
   20378:	d103      	bne.n	20382 <_ZN9allow_pin12dynamic_type23Buffer$LT$B$C$_$C$_$GT$5allow17h6229e59a3ef5e898E+0x2a>
   2037a:	7035      	strb	r5, [r6, #0]
   2037c:	2400      	movs	r4, #0
   2037e:	e000      	b.n	20382 <_ZN9allow_pin12dynamic_type23Buffer$LT$B$C$_$C$_$GT$5allow17h6229e59a3ef5e898E+0x2a>
   20380:	2103      	movs	r1, #3
   20382:	4620      	mov	r0, r4
   20384:	bdf8      	pop	{r3, r4, r5, r6, r7, pc}
   20386:	46c0      	nop			@ (mov r8, r8)
   20388:	00002006 	.word	0x00002006

0002038c <_ZN9allow_pin12dynamic_type23Buffer$LT$B$C$_$C$_$GT$5allow17h793c6dad136ce64cE>:
   2038c:	b5f8      	push	{r3, r4, r5, r6, r7, lr}
   2038e:	af04      	add	r7, sp, #16
   20390:	4606      	mov	r6, r0
   20392:	7800      	ldrb	r0, [r0, #0]
   20394:	2401      	movs	r4, #1
   20396:	2802      	cmp	r0, #2
   20398:	d10c      	bne.n	203b4 <_ZN9allow_pin12dynamic_type23Buffer$LT$B$C$_$C$_$GT$5allow17h793c6dad136ce64cE+0x28>
   2039a:	4615      	mov	r5, r2
   2039c:	460b      	mov	r3, r1
   2039e:	9200      	str	r2, [sp, #0]
   203a0:	1c72      	adds	r2, r6, #1
   203a2:	4806      	ldr	r0, [pc, #24]	@ (203bc <_ZN9allow_pin12dynamic_type23Buffer$LT$B$C$_$C$_$GT$5allow17h793c6dad136ce64cE+0x30>)
   203a4:	2108      	movs	r1, #8
   203a6:	f7ff ff79 	bl	2029c <_ZN9allow_pin12dynamic_type11allow_inner17hf1099571477a6939E>
   203aa:	07c0      	lsls	r0, r0, #31
   203ac:	d103      	bne.n	203b6 <_ZN9allow_pin12dynamic_type23Buffer$LT$B$C$_$C$_$GT$5allow17h793c6dad136ce64cE+0x2a>
   203ae:	7035      	strb	r5, [r6, #0]
   203b0:	2400      	movs	r4, #0
   203b2:	e000      	b.n	203b6 <_ZN9allow_pin12dynamic_type23Buffer$LT$B$C$_$C$_$GT$5allow17h793c6dad136ce64cE+0x2a>
   203b4:	2103      	movs	r1, #3
   203b6:	4620      	mov	r0, r4
   203b8:	bdf8      	pop	{r3, r4, r5, r6, r7, pc}
   203ba:	46c0      	nop			@ (mov r8, r8)
   203bc:	00002095 	.word	0x00002095

000203c0 <_ZN9allow_pin12dynamic_type23Buffer$LT$B$C$_$C$_$GT$5allow17hb3207dc96df91922E>:
   203c0:	b5f8      	push	{r3, r4, r5, r6, r7, lr}
   203c2:	af04      	add	r7, sp, #16
   203c4:	4606      	mov	r6, r0
   203c6:	7800      	ldrb	r0, [r0, #0]
   203c8:	2401      	movs	r4, #1
   203ca:	2802      	cmp	r0, #2
   203cc:	d10c      	bne.n	203e8 <_ZN9allow_pin12dynamic_type23Buffer$LT$B$C$_$C$_$GT$5allow17hb3207dc96df91922E+0x28>
   203ce:	4615      	mov	r5, r2
   203d0:	460b      	mov	r3, r1
   203d2:	9200      	str	r2, [sp, #0]
   203d4:	1c72      	adds	r2, r6, #1
   203d6:	4806      	ldr	r0, [pc, #24]	@ (203f0 <_ZN9allow_pin12dynamic_type23Buffer$LT$B$C$_$C$_$GT$5allow17hb3207dc96df91922E+0x30>)
   203d8:	2103      	movs	r1, #3
   203da:	f7ff ff5f 	bl	2029c <_ZN9allow_pin12dynamic_type11allow_inner17hf1099571477a6939E>
   203de:	07c0      	lsls	r0, r0, #31
   203e0:	d103      	bne.n	203ea <_ZN9allow_pin12dynamic_type23Buffer$LT$B$C$_$C$_$GT$5allow17hb3207dc96df91922E+0x2a>
   203e2:	7035      	strb	r5, [r6, #0]
   203e4:	2400      	movs	r4, #0
   203e6:	e000      	b.n	203ea <_ZN9allow_pin12dynamic_type23Buffer$LT$B$C$_$C$_$GT$5allow17hb3207dc96df91922E+0x2a>
   203e8:	2103      	movs	r1, #3
   203ea:	4620      	mov	r0, r4
   203ec:	bdf8      	pop	{r3, r4, r5, r6, r7, pc}
   203ee:	46c0      	nop			@ (mov r8, r8)
   203f0:	00001d19 	.word	0x00001d19

000203f4 <_ZN9allow_pin12dynamic_type23Buffer$LT$B$C$_$C$_$GT$5allow17he00bc4da1fafe229E>:
   203f4:	b5f8      	push	{r3, r4, r5, r6, r7, lr}
   203f6:	af04      	add	r7, sp, #16
   203f8:	4606      	mov	r6, r0
   203fa:	7800      	ldrb	r0, [r0, #0]
   203fc:	2401      	movs	r4, #1
   203fe:	2802      	cmp	r0, #2
   20400:	d10c      	bne.n	2041c <_ZN9allow_pin12dynamic_type23Buffer$LT$B$C$_$C$_$GT$5allow17he00bc4da1fafe229E+0x28>
   20402:	4615      	mov	r5, r2
   20404:	460b      	mov	r3, r1
   20406:	9200      	str	r2, [sp, #0]
   20408:	1c72      	adds	r2, r6, #1
   2040a:	4806      	ldr	r0, [pc, #24]	@ (20424 <_ZN9allow_pin12dynamic_type23Buffer$LT$B$C$_$C$_$GT$5allow17he00bc4da1fafe229E+0x30>)
   2040c:	2102      	movs	r1, #2
   2040e:	f7ff ff45 	bl	2029c <_ZN9allow_pin12dynamic_type11allow_inner17hf1099571477a6939E>
   20412:	07c0      	lsls	r0, r0, #31
   20414:	d103      	bne.n	2041e <_ZN9allow_pin12dynamic_type23Buffer$LT$B$C$_$C$_$GT$5allow17he00bc4da1fafe229E+0x2a>
   20416:	7035      	strb	r5, [r6, #0]
   20418:	2400      	movs	r4, #0
   2041a:	e000      	b.n	2041e <_ZN9allow_pin12dynamic_type23Buffer$LT$B$C$_$C$_$GT$5allow17he00bc4da1fafe229E+0x2a>
   2041c:	2103      	movs	r1, #3
   2041e:	4620      	mov	r0, r4
   20420:	bdf8      	pop	{r3, r4, r5, r6, r7, pc}
   20422:	46c0      	nop			@ (mov r8, r8)
   20424:	00000c89 	.word	0x00000c89

00020428 <_ZN9allow_pin12dynamic_type23Buffer$LT$B$C$_$C$_$GT$5allow17he4dbbb63f0273af0E>:
   20428:	b5f8      	push	{r3, r4, r5, r6, r7, lr}
   2042a:	af04      	add	r7, sp, #16
   2042c:	4606      	mov	r6, r0
   2042e:	7800      	ldrb	r0, [r0, #0]
   20430:	2401      	movs	r4, #1
   20432:	2802      	cmp	r0, #2
   20434:	d10c      	bne.n	20450 <_ZN9allow_pin12dynamic_type23Buffer$LT$B$C$_$C$_$GT$5allow17he4dbbb63f0273af0E+0x28>
   20436:	4615      	mov	r5, r2
   20438:	460b      	mov	r3, r1
   2043a:	9200      	str	r2, [sp, #0]
   2043c:	1c72      	adds	r2, r6, #1
   2043e:	4806      	ldr	r0, [pc, #24]	@ (20458 <_ZN9allow_pin12dynamic_type23Buffer$LT$B$C$_$C$_$GT$5allow17he4dbbb63f0273af0E+0x30>)
   20440:	2109      	movs	r1, #9
   20442:	f7ff ff2b 	bl	2029c <_ZN9allow_pin12dynamic_type11allow_inner17hf1099571477a6939E>
   20446:	07c0      	lsls	r0, r0, #31
   20448:	d103      	bne.n	20452 <_ZN9allow_pin12dynamic_type23Buffer$LT$B$C$_$C$_$GT$5allow17he4dbbb63f0273af0E+0x2a>
   2044a:	7035      	strb	r5, [r6, #0]
   2044c:	2400      	movs	r4, #0
   2044e:	e000      	b.n	20452 <_ZN9allow_pin12dynamic_type23Buffer$LT$B$C$_$C$_$GT$5allow17he4dbbb63f0273af0E+0x2a>
   20450:	2103      	movs	r1, #3
   20452:	4620      	mov	r0, r4
   20454:	bdf8      	pop	{r3, r4, r5, r6, r7, pc}
   20456:	46c0      	nop			@ (mov r8, r8)
   20458:	0000055e 	.word	0x0000055e

0002045c <_ZN9allow_pin12dynamic_type23Buffer$LT$B$C$_$C$_$GT$5allow17hf6fada2d28996d6aE>:
   2045c:	b5f8      	push	{r3, r4, r5, r6, r7, lr}
   2045e:	af04      	add	r7, sp, #16
   20460:	4606      	mov	r6, r0
   20462:	7800      	ldrb	r0, [r0, #0]
   20464:	2401      	movs	r4, #1
   20466:	2802      	cmp	r0, #2
   20468:	d10c      	bne.n	20484 <_ZN9allow_pin12dynamic_type23Buffer$LT$B$C$_$C$_$GT$5allow17hf6fada2d28996d6aE+0x28>
   2046a:	4615      	mov	r5, r2
   2046c:	460b      	mov	r3, r1
   2046e:	9200      	str	r2, [sp, #0]
   20470:	1c72      	adds	r2, r6, #1
   20472:	4806      	ldr	r0, [pc, #24]	@ (2048c <_ZN9allow_pin12dynamic_type23Buffer$LT$B$C$_$C$_$GT$5allow17hf6fada2d28996d6aE+0x30>)
   20474:	2103      	movs	r1, #3
   20476:	f7ff ff11 	bl	2029c <_ZN9allow_pin12dynamic_type11allow_inner17hf1099571477a6939E>
   2047a:	07c0      	lsls	r0, r0, #31
   2047c:	d103      	bne.n	20486 <_ZN9allow_pin12dynamic_type23Buffer$LT$B$C$_$C$_$GT$5allow17hf6fada2d28996d6aE+0x2a>
   2047e:	7035      	strb	r5, [r6, #0]
   20480:	2400      	movs	r4, #0
   20482:	e000      	b.n	20486 <_ZN9allow_pin12dynamic_type23Buffer$LT$B$C$_$C$_$GT$5allow17hf6fada2d28996d6aE+0x2a>
   20484:	2103      	movs	r1, #3
   20486:	4620      	mov	r0, r4
   20488:	bdf8      	pop	{r3, r4, r5, r6, r7, pc}
   2048a:	46c0      	nop			@ (mov r8, r8)
   2048c:	00002548 	.word	0x00002548

00020490 <_ZN9allow_pin12dynamic_type23Buffer$LT$B$C$_$C$_$GT$5allow17hf78d70ad2ce32bc4E>:
   20490:	b5f8      	push	{r3, r4, r5, r6, r7, lr}
   20492:	af04      	add	r7, sp, #16
   20494:	4606      	mov	r6, r0
   20496:	7800      	ldrb	r0, [r0, #0]
   20498:	2401      	movs	r4, #1
   2049a:	2802      	cmp	r0, #2
   2049c:	d10c      	bne.n	204b8 <_ZN9allow_pin12dynamic_type23Buffer$LT$B$C$_$C$_$GT$5allow17hf78d70ad2ce32bc4E+0x28>
   2049e:	4615      	mov	r5, r2
   204a0:	460b      	mov	r3, r1
   204a2:	9200      	str	r2, [sp, #0]
   204a4:	1c72      	adds	r2, r6, #1
   204a6:	4806      	ldr	r0, [pc, #24]	@ (204c0 <_ZN9allow_pin12dynamic_type23Buffer$LT$B$C$_$C$_$GT$5allow17hf78d70ad2ce32bc4E+0x30>)
   204a8:	2106      	movs	r1, #6
   204aa:	f7ff fef7 	bl	2029c <_ZN9allow_pin12dynamic_type11allow_inner17hf1099571477a6939E>
   204ae:	07c0      	lsls	r0, r0, #31
   204b0:	d103      	bne.n	204ba <_ZN9allow_pin12dynamic_type23Buffer$LT$B$C$_$C$_$GT$5allow17hf78d70ad2ce32bc4E+0x2a>
   204b2:	7035      	strb	r5, [r6, #0]
   204b4:	2400      	movs	r4, #0
   204b6:	e000      	b.n	204ba <_ZN9allow_pin12dynamic_type23Buffer$LT$B$C$_$C$_$GT$5allow17hf78d70ad2ce32bc4E+0x2a>
   204b8:	2103      	movs	r1, #3
   204ba:	4620      	mov	r0, r4
   204bc:	bdf8      	pop	{r3, r4, r5, r6, r7, pc}
   204be:	46c0      	nop			@ (mov r8, r8)
   204c0:	00001c6b 	.word	0x00001c6b

000204c4 <_ZN9allow_pin12dynamic_type23Buffer$LT$B$C$_$C$_$GT$7unallow17h08da170835b68e4aE>:
   204c4:	b5d0      	push	{r4, r6, r7, lr}
   204c6:	af02      	add	r7, sp, #8
   204c8:	4604      	mov	r4, r0
   204ca:	7802      	ldrb	r2, [r0, #0]
   204cc:	2a02      	cmp	r2, #2
   204ce:	d003      	beq.n	204d8 <_ZN9allow_pin12dynamic_type23Buffer$LT$B$C$_$C$_$GT$7unallow17h08da170835b68e4aE+0x14>
   204d0:	4803      	ldr	r0, [pc, #12]	@ (204e0 <_ZN9allow_pin12dynamic_type23Buffer$LT$B$C$_$C$_$GT$7unallow17h08da170835b68e4aE+0x1c>)
   204d2:	2102      	movs	r1, #2
   204d4:	f007 fd36 	bl	27f44 <_ZN9allow_pin12dynamic_type7unshare17ha4091652f9b609c4E>
   204d8:	2002      	movs	r0, #2
   204da:	7020      	strb	r0, [r4, #0]
   204dc:	bdd0      	pop	{r4, r6, r7, pc}
   204de:	46c0      	nop			@ (mov r8, r8)
   204e0:	00000c89 	.word	0x00000c89

000204e4 <_ZN9allow_pin12dynamic_type23Buffer$LT$B$C$_$C$_$GT$7unallow17h1c074545b2e42211E>:
   204e4:	b5d0      	push	{r4, r6, r7, lr}
   204e6:	af02      	add	r7, sp, #8
   204e8:	4604      	mov	r4, r0
   204ea:	7802      	ldrb	r2, [r0, #0]
   204ec:	2a02      	cmp	r2, #2
   204ee:	d003      	beq.n	204f8 <_ZN9allow_pin12dynamic_type23Buffer$LT$B$C$_$C$_$GT$7unallow17h1c074545b2e42211E+0x14>
   204f0:	4803      	ldr	r0, [pc, #12]	@ (20500 <_ZN9allow_pin12dynamic_type23Buffer$LT$B$C$_$C$_$GT$7unallow17h1c074545b2e42211E+0x1c>)
   204f2:	2109      	movs	r1, #9
   204f4:	f007 fd26 	bl	27f44 <_ZN9allow_pin12dynamic_type7unshare17ha4091652f9b609c4E>
   204f8:	2002      	movs	r0, #2
   204fa:	7020      	strb	r0, [r4, #0]
   204fc:	bdd0      	pop	{r4, r6, r7, pc}
   204fe:	46c0      	nop			@ (mov r8, r8)
   20500:	00002006 	.word	0x00002006

00020504 <_ZN9allow_pin12dynamic_type23Buffer$LT$B$C$_$C$_$GT$7unallow17h4538e3f8e08c89beE>:
   20504:	b5d0      	push	{r4, r6, r7, lr}
   20506:	af02      	add	r7, sp, #8
   20508:	4604      	mov	r4, r0
   2050a:	7802      	ldrb	r2, [r0, #0]
   2050c:	2a02      	cmp	r2, #2
   2050e:	d003      	beq.n	20518 <_ZN9allow_pin12dynamic_type23Buffer$LT$B$C$_$C$_$GT$7unallow17h4538e3f8e08c89beE+0x14>
   20510:	4803      	ldr	r0, [pc, #12]	@ (20520 <_ZN9allow_pin12dynamic_type23Buffer$LT$B$C$_$C$_$GT$7unallow17h4538e3f8e08c89beE+0x1c>)
   20512:	2103      	movs	r1, #3
   20514:	f007 fd16 	bl	27f44 <_ZN9allow_pin12dynamic_type7unshare17ha4091652f9b609c4E>
   20518:	2002      	movs	r0, #2
   2051a:	7020      	strb	r0, [r4, #0]
   2051c:	bdd0      	pop	{r4, r6, r7, pc}
   2051e:	46c0      	nop			@ (mov r8, r8)
   20520:	00001d19 	.word	0x00001d19

00020524 <_ZN9allow_pin12dynamic_type23Buffer$LT$B$C$_$C$_$GT$7unallow17h617ff1947564eee9E>:
   20524:	b5d0      	push	{r4, r6, r7, lr}
   20526:	af02      	add	r7, sp, #8
   20528:	4604      	mov	r4, r0
   2052a:	7802      	ldrb	r2, [r0, #0]
   2052c:	2a02      	cmp	r2, #2
   2052e:	d003      	beq.n	20538 <_ZN9allow_pin12dynamic_type23Buffer$LT$B$C$_$C$_$GT$7unallow17h617ff1947564eee9E+0x14>
   20530:	4803      	ldr	r0, [pc, #12]	@ (20540 <_ZN9allow_pin12dynamic_type23Buffer$LT$B$C$_$C$_$GT$7unallow17h617ff1947564eee9E+0x1c>)
   20532:	2106      	movs	r1, #6
   20534:	f007 fd06 	bl	27f44 <_ZN9allow_pin12dynamic_type7unshare17ha4091652f9b609c4E>
   20538:	2002      	movs	r0, #2
   2053a:	7020      	strb	r0, [r4, #0]
   2053c:	bdd0      	pop	{r4, r6, r7, pc}
   2053e:	46c0      	nop			@ (mov r8, r8)
   20540:	00001c6b 	.word	0x00001c6b

00020544 <_ZN9allow_pin12dynamic_type23Buffer$LT$B$C$_$C$_$GT$7unallow17h65f49f2052c3d735E>:
   20544:	b5d0      	push	{r4, r6, r7, lr}
   20546:	af02      	add	r7, sp, #8
   20548:	4604      	mov	r4, r0
   2054a:	7802      	ldrb	r2, [r0, #0]
   2054c:	2a02      	cmp	r2, #2
   2054e:	d003      	beq.n	20558 <_ZN9allow_pin12dynamic_type23Buffer$LT$B$C$_$C$_$GT$7unallow17h65f49f2052c3d735E+0x14>
   20550:	4803      	ldr	r0, [pc, #12]	@ (20560 <_ZN9allow_pin12dynamic_type23Buffer$LT$B$C$_$C$_$GT$7unallow17h65f49f2052c3d735E+0x1c>)
   20552:	2109      	movs	r1, #9
   20554:	f007 fcf6 	bl	27f44 <_ZN9allow_pin12dynamic_type7unshare17ha4091652f9b609c4E>
   20558:	2002      	movs	r0, #2
   2055a:	7020      	strb	r0, [r4, #0]
   2055c:	bdd0      	pop	{r4, r6, r7, pc}
   2055e:	46c0      	nop			@ (mov r8, r8)
   20560:	0000055e 	.word	0x0000055e

00020564 <_ZN9allow_pin12dynamic_type23Buffer$LT$B$C$_$C$_$GT$7unallow17h73f0936898d9b8f9E>:
   20564:	b5d0      	push	{r4, r6, r7, lr}
   20566:	af02      	add	r7, sp, #8
   20568:	4604      	mov	r4, r0
   2056a:	7802      	ldrb	r2, [r0, #0]
   2056c:	2a02      	cmp	r2, #2
   2056e:	d003      	beq.n	20578 <_ZN9allow_pin12dynamic_type23Buffer$LT$B$C$_$C$_$GT$7unallow17h73f0936898d9b8f9E+0x14>
   20570:	4803      	ldr	r0, [pc, #12]	@ (20580 <_ZN9allow_pin12dynamic_type23Buffer$LT$B$C$_$C$_$GT$7unallow17h73f0936898d9b8f9E+0x1c>)
   20572:	2108      	movs	r1, #8
   20574:	f007 fce6 	bl	27f44 <_ZN9allow_pin12dynamic_type7unshare17ha4091652f9b609c4E>
   20578:	2002      	movs	r0, #2
   2057a:	7020      	strb	r0, [r4, #0]
   2057c:	bdd0      	pop	{r4, r6, r7, pc}
   2057e:	46c0      	nop			@ (mov r8, r8)
   20580:	00002095 	.word	0x00002095

00020584 <_ZN9allow_pin12dynamic_type23Buffer$LT$B$C$_$C$_$GT$7unallow17h88dd120f6e1247f5E>:
   20584:	b5d0      	push	{r4, r6, r7, lr}
   20586:	af02      	add	r7, sp, #8
   20588:	4604      	mov	r4, r0
   2058a:	7802      	ldrb	r2, [r0, #0]
   2058c:	2a02      	cmp	r2, #2
   2058e:	d003      	beq.n	20598 <_ZN9allow_pin12dynamic_type23Buffer$LT$B$C$_$C$_$GT$7unallow17h88dd120f6e1247f5E+0x14>
   20590:	4803      	ldr	r0, [pc, #12]	@ (205a0 <_ZN9allow_pin12dynamic_type23Buffer$LT$B$C$_$C$_$GT$7unallow17h88dd120f6e1247f5E+0x1c>)
   20592:	2103      	movs	r1, #3
   20594:	f007 fcd6 	bl	27f44 <_ZN9allow_pin12dynamic_type7unshare17ha4091652f9b609c4E>
   20598:	2002      	movs	r0, #2
   2059a:	7020      	strb	r0, [r4, #0]
   2059c:	bdd0      	pop	{r4, r6, r7, pc}
   2059e:	46c0      	nop			@ (mov r8, r8)
   205a0:	000010e2 	.word	0x000010e2

000205a4 <_ZN9allow_pin12dynamic_type23Buffer$LT$B$C$_$C$_$GT$7unallow17h97efb102471c0a13E>:
   205a4:	b5d0      	push	{r4, r6, r7, lr}
   205a6:	af02      	add	r7, sp, #8
   205a8:	4604      	mov	r4, r0
   205aa:	7802      	ldrb	r2, [r0, #0]
   205ac:	2a02      	cmp	r2, #2
   205ae:	d003      	beq.n	205b8 <_ZN9allow_pin12dynamic_type23Buffer$LT$B$C$_$C$_$GT$7unallow17h97efb102471c0a13E+0x14>
   205b0:	4803      	ldr	r0, [pc, #12]	@ (205c0 <_ZN9allow_pin12dynamic_type23Buffer$LT$B$C$_$C$_$GT$7unallow17h97efb102471c0a13E+0x1c>)
   205b2:	2100      	movs	r1, #0
   205b4:	f007 fcc6 	bl	27f44 <_ZN9allow_pin12dynamic_type7unshare17ha4091652f9b609c4E>
   205b8:	2002      	movs	r0, #2
   205ba:	7020      	strb	r0, [r4, #0]
   205bc:	bdd0      	pop	{r4, r6, r7, pc}
   205be:	46c0      	nop			@ (mov r8, r8)
   205c0:	000016b0 	.word	0x000016b0

000205c4 <_ZN9allow_pin12dynamic_type23Buffer$LT$B$C$_$C$_$GT$7unallow17hab5e9e86e67a55afE>:
   205c4:	b5d0      	push	{r4, r6, r7, lr}
   205c6:	af02      	add	r7, sp, #8
   205c8:	4604      	mov	r4, r0
   205ca:	7802      	ldrb	r2, [r0, #0]
   205cc:	2a02      	cmp	r2, #2
   205ce:	d003      	beq.n	205d8 <_ZN9allow_pin12dynamic_type23Buffer$LT$B$C$_$C$_$GT$7unallow17hab5e9e86e67a55afE+0x14>
   205d0:	4803      	ldr	r0, [pc, #12]	@ (205e0 <_ZN9allow_pin12dynamic_type23Buffer$LT$B$C$_$C$_$GT$7unallow17hab5e9e86e67a55afE+0x1c>)
   205d2:	2109      	movs	r1, #9
   205d4:	f007 fcb6 	bl	27f44 <_ZN9allow_pin12dynamic_type7unshare17ha4091652f9b609c4E>
   205d8:	2002      	movs	r0, #2
   205da:	7020      	strb	r0, [r4, #0]
   205dc:	bdd0      	pop	{r4, r6, r7, pc}
   205de:	46c0      	nop			@ (mov r8, r8)
   205e0:	00000a9d 	.word	0x00000a9d

000205e4 <_ZN9allow_pin12dynamic_type23Buffer$LT$B$C$_$C$_$GT$7unallow17hf5873ef96a741104E>:
   205e4:	b5d0      	push	{r4, r6, r7, lr}
   205e6:	af02      	add	r7, sp, #8
   205e8:	4604      	mov	r4, r0
   205ea:	7802      	ldrb	r2, [r0, #0]
   205ec:	2a02      	cmp	r2, #2
   205ee:	d003      	beq.n	205f8 <_ZN9allow_pin12dynamic_type23Buffer$LT$B$C$_$C$_$GT$7unallow17hf5873ef96a741104E+0x14>
   205f0:	4803      	ldr	r0, [pc, #12]	@ (20600 <_ZN9allow_pin12dynamic_type23Buffer$LT$B$C$_$C$_$GT$7unallow17hf5873ef96a741104E+0x1c>)
   205f2:	2103      	movs	r1, #3
   205f4:	f007 fca6 	bl	27f44 <_ZN9allow_pin12dynamic_type7unshare17ha4091652f9b609c4E>
   205f8:	2002      	movs	r0, #2
   205fa:	7020      	strb	r0, [r4, #0]
   205fc:	bdd0      	pop	{r4, r6, r7, pc}
   205fe:	46c0      	nop			@ (mov r8, r8)
   20600:	00002548 	.word	0x00002548

00020604 <_start>:
   20604:	b5f0      	push	{r4, r5, r6, r7, lr}
   20606:	af03      	add	r7, sp, #12
   20608:	4eec      	ldr	r6, [pc, #944]	@ (209bc <_start+0x3b8>)
   2060a:	44b5      	add	sp, r6
   2060c:	48ec      	ldr	r0, [pc, #944]	@ (209c0 <_start+0x3bc>)
   2060e:	4468      	add	r0, sp
   20610:	900c      	str	r0, [sp, #48]	@ 0x30
   20612:	48ec      	ldr	r0, [pc, #944]	@ (209c4 <_start+0x3c0>)
   20614:	4468      	add	r0, sp
   20616:	900a      	str	r0, [sp, #40]	@ 0x28
   20618:	a8ff      	add	r0, sp, #1020	@ 0x3fc
   2061a:	30a8      	adds	r0, #168	@ 0xa8
   2061c:	9009      	str	r0, [sp, #36]	@ 0x24
   2061e:	4cf9      	ldr	r4, [pc, #996]	@ (20a04 <_start+0x400>)
   20620:	446c      	add	r4, sp
   20622:	1c60      	adds	r0, r4, #1
   20624:	2128      	movs	r1, #40	@ 0x28
   20626:	910f      	str	r1, [sp, #60]	@ 0x3c
   20628:	f007 fc99 	bl	27f5e <__aeabi_memclr>
   2062c:	2602      	movs	r6, #2
   2062e:	7026      	strb	r6, [r4, #0]
   20630:	4df5      	ldr	r5, [pc, #980]	@ (20a08 <_start+0x404>)
   20632:	446d      	add	r5, sp
   20634:	1c68      	adds	r0, r5, #1
   20636:	2151      	movs	r1, #81	@ 0x51
   20638:	900b      	str	r0, [sp, #44]	@ 0x2c
   2063a:	f007 fc90 	bl	27f5e <__aeabi_memclr>
   2063e:	960e      	str	r6, [sp, #56]	@ 0x38
   20640:	702e      	strb	r6, [r5, #0]
   20642:	2204      	movs	r2, #4
   20644:	920d      	str	r2, [sp, #52]	@ 0x34
   20646:	4620      	mov	r0, r4
   20648:	990f      	ldr	r1, [sp, #60]	@ 0x3c
   2064a:	f7ff fe85 	bl	20358 <_ZN9allow_pin12dynamic_type23Buffer$LT$B$C$_$C$_$GT$5allow17h6229e59a3ef5e898E>
   2064e:	2501      	movs	r5, #1
   20650:	07c0      	lsls	r0, r0, #31
   20652:	d110      	bne.n	20676 <_start+0x72>
   20654:	48ec      	ldr	r0, [pc, #944]	@ (20a08 <_start+0x404>)
   20656:	4468      	add	r0, sp
   20658:	2151      	movs	r1, #81	@ 0x51
   2065a:	2203      	movs	r2, #3
   2065c:	f7ff fe7c 	bl	20358 <_ZN9allow_pin12dynamic_type23Buffer$LT$B$C$_$C$_$GT$5allow17h6229e59a3ef5e898E>
   20660:	07c0      	lsls	r0, r0, #31
   20662:	d108      	bne.n	20676 <_start+0x72>
   20664:	48e9      	ldr	r0, [pc, #932]	@ (20a0c <_start+0x408>)
   20666:	2109      	movs	r1, #9
   20668:	2400      	movs	r4, #0
   2066a:	460a      	mov	r2, r1
   2066c:	4623      	mov	r3, r4
   2066e:	df02      	svc	2
   20670:	287f      	cmp	r0, #127	@ 0x7f
   20672:	d900      	bls.n	20676 <_start+0x72>
   20674:	e0b0      	b.n	207d8 <_start+0x1d4>
   20676:	910f      	str	r1, [sp, #60]	@ 0x3c
   20678:	462c      	mov	r4, r5
   2067a:	48e3      	ldr	r0, [pc, #908]	@ (20a08 <_start+0x404>)
   2067c:	4468      	add	r0, sp
   2067e:	7802      	ldrb	r2, [r0, #0]
   20680:	4ee3      	ldr	r6, [pc, #908]	@ (20a10 <_start+0x40c>)
   20682:	2a02      	cmp	r2, #2
   20684:	d004      	beq.n	20690 <_start+0x8c>
   20686:	4630      	mov	r0, r6
   20688:	3842      	subs	r0, #66	@ 0x42
   2068a:	2109      	movs	r1, #9
   2068c:	f007 fc5a 	bl	27f44 <_ZN9allow_pin12dynamic_type7unshare17ha4091652f9b609c4E>
   20690:	48dc      	ldr	r0, [pc, #880]	@ (20a04 <_start+0x400>)
   20692:	4468      	add	r0, sp
   20694:	7802      	ldrb	r2, [r0, #0]
   20696:	2a02      	cmp	r2, #2
   20698:	d004      	beq.n	206a4 <_start+0xa0>
   2069a:	4630      	mov	r0, r6
   2069c:	3842      	subs	r0, #66	@ 0x42
   2069e:	2109      	movs	r1, #9
   206a0:	f007 fc50 	bl	27f44 <_ZN9allow_pin12dynamic_type7unshare17ha4091652f9b609c4E>
   206a4:	2c00      	cmp	r4, #0
   206a6:	d001      	beq.n	206ac <_start+0xa8>
   206a8:	f001 fd53 	bl	22152 <_start+0x1b4e>
   206ac:	950b      	str	r5, [sp, #44]	@ 0x2c
   206ae:	4dd6      	ldr	r5, [pc, #856]	@ (20a08 <_start+0x404>)
   206b0:	446d      	add	r5, sp
   206b2:	1c68      	adds	r0, r5, #1
   206b4:	9008      	str	r0, [sp, #32]
   206b6:	a9c9      	add	r1, sp, #804	@ 0x324
   206b8:	2203      	movs	r2, #3
   206ba:	9207      	str	r2, [sp, #28]
   206bc:	f007 fe0f 	bl	282de <__aeabi_memcpy>
   206c0:	acff      	add	r4, sp, #1020	@ 0x3fc
   206c2:	34a4      	adds	r4, #164	@ 0xa4
   206c4:	a99f      	add	r1, sp, #636	@ 0x27c
   206c6:	264a      	movs	r6, #74	@ 0x4a
   206c8:	4620      	mov	r0, r4
   206ca:	4632      	mov	r2, r6
   206cc:	f007 fca7 	bl	2801e <__aeabi_memcpy4>
   206d0:	4628      	mov	r0, r5
   206d2:	3008      	adds	r0, #8
   206d4:	4621      	mov	r1, r4
   206d6:	4632      	mov	r2, r6
   206d8:	f007 fca1 	bl	2801e <__aeabi_memcpy4>
   206dc:	9e0e      	ldr	r6, [sp, #56]	@ 0x38
   206de:	702e      	strb	r6, [r5, #0]
   206e0:	980c      	ldr	r0, [sp, #48]	@ 0x30
   206e2:	990f      	ldr	r1, [sp, #60]	@ 0x3c
   206e4:	6541      	str	r1, [r0, #84]	@ 0x54
   206e6:	acff      	add	r4, sp, #1020	@ 0x3fc
   206e8:	34a4      	adds	r4, #164	@ 0xa4
   206ea:	1c65      	adds	r5, r4, #1
   206ec:	2146      	movs	r1, #70	@ 0x46
   206ee:	4628      	mov	r0, r5
   206f0:	f007 fc35 	bl	27f5e <__aeabi_memclr>
   206f4:	7026      	strb	r6, [r4, #0]
   206f6:	9e0d      	ldr	r6, [sp, #52]	@ 0x34
   206f8:	9600      	str	r6, [sp, #0]
   206fa:	4cc5      	ldr	r4, [pc, #788]	@ (20a10 <_start+0x40c>)
   206fc:	347c      	adds	r4, #124	@ 0x7c
   206fe:	2107      	movs	r1, #7
   20700:	2351      	movs	r3, #81	@ 0x51
   20702:	4620      	mov	r0, r4
   20704:	9a08      	ldr	r2, [sp, #32]
   20706:	f7ff fdc9 	bl	2029c <_ZN9allow_pin12dynamic_type11allow_inner17hf1099571477a6939E>
   2070a:	07c0      	lsls	r0, r0, #31
   2070c:	d119      	bne.n	20742 <_start+0x13e>
   2070e:	48be      	ldr	r0, [pc, #760]	@ (20a08 <_start+0x404>)
   20710:	4468      	add	r0, sp
   20712:	7006      	strb	r6, [r0, #0]
   20714:	9807      	ldr	r0, [sp, #28]
   20716:	9000      	str	r0, [sp, #0]
   20718:	2100      	movs	r1, #0
   2071a:	2346      	movs	r3, #70	@ 0x46
   2071c:	4620      	mov	r0, r4
   2071e:	462a      	mov	r2, r5
   20720:	f7ff fdbc 	bl	2029c <_ZN9allow_pin12dynamic_type11allow_inner17hf1099571477a6939E>
   20724:	07c0      	lsls	r0, r0, #31
   20726:	d10c      	bne.n	20742 <_start+0x13e>
   20728:	a8ff      	add	r0, sp, #1020	@ 0x3fc
   2072a:	30a4      	adds	r0, #164	@ 0xa4
   2072c:	9907      	ldr	r1, [sp, #28]
   2072e:	7001      	strb	r1, [r0, #0]
   20730:	48b8      	ldr	r0, [pc, #736]	@ (20a14 <_start+0x410>)
   20732:	2107      	movs	r1, #7
   20734:	2200      	movs	r2, #0
   20736:	9208      	str	r2, [sp, #32]
   20738:	4613      	mov	r3, r2
   2073a:	df02      	svc	2
   2073c:	287f      	cmp	r0, #127	@ 0x7f
   2073e:	d900      	bls.n	20742 <_start+0x13e>
   20740:	e07f      	b.n	20842 <_start+0x23e>
   20742:	910f      	str	r1, [sp, #60]	@ 0x3c
   20744:	9d0b      	ldr	r5, [sp, #44]	@ 0x2c
   20746:	a8ff      	add	r0, sp, #1020	@ 0x3fc
   20748:	30a4      	adds	r0, #164	@ 0xa4
   2074a:	7802      	ldrb	r2, [r0, #0]
   2074c:	2a02      	cmp	r2, #2
   2074e:	d003      	beq.n	20758 <_start+0x154>
   20750:	2100      	movs	r1, #0
   20752:	4620      	mov	r0, r4
   20754:	f007 fbf6 	bl	27f44 <_ZN9allow_pin12dynamic_type7unshare17ha4091652f9b609c4E>
   20758:	48ab      	ldr	r0, [pc, #684]	@ (20a08 <_start+0x404>)
   2075a:	4468      	add	r0, sp
   2075c:	7802      	ldrb	r2, [r0, #0]
   2075e:	2a02      	cmp	r2, #2
   20760:	d003      	beq.n	2076a <_start+0x166>
   20762:	2107      	movs	r1, #7
   20764:	4620      	mov	r0, r4
   20766:	f007 fbed 	bl	27f44 <_ZN9allow_pin12dynamic_type7unshare17ha4091652f9b609c4E>
   2076a:	2d00      	cmp	r5, #0
   2076c:	d001      	beq.n	20772 <_start+0x16e>
   2076e:	f001 fcf0 	bl	22152 <_start+0x1b4e>
   20772:	4ca5      	ldr	r4, [pc, #660]	@ (20a08 <_start+0x404>)
   20774:	446c      	add	r4, sp
   20776:	1c60      	adds	r0, r4, #1
   20778:	9007      	str	r0, [sp, #28]
   2077a:	a9c9      	add	r1, sp, #804	@ 0x324
   2077c:	2203      	movs	r2, #3
   2077e:	9208      	str	r2, [sp, #32]
   20780:	f007 fdad 	bl	282de <__aeabi_memcpy>
   20784:	ae9f      	add	r6, sp, #636	@ 0x27c
   20786:	499f      	ldr	r1, [pc, #636]	@ (20a04 <_start+0x400>)
   20788:	4469      	add	r1, sp
   2078a:	253f      	movs	r5, #63	@ 0x3f
   2078c:	4630      	mov	r0, r6
   2078e:	462a      	mov	r2, r5
   20790:	f007 fda5 	bl	282de <__aeabi_memcpy>
   20794:	4620      	mov	r0, r4
   20796:	3008      	adds	r0, #8
   20798:	4631      	mov	r1, r6
   2079a:	462a      	mov	r2, r5
   2079c:	f007 fd9f 	bl	282de <__aeabi_memcpy>
   207a0:	9d0e      	ldr	r5, [sp, #56]	@ 0x38
   207a2:	7025      	strb	r5, [r4, #0]
   207a4:	980c      	ldr	r0, [sp, #48]	@ 0x30
   207a6:	990f      	ldr	r1, [sp, #60]	@ 0x3c
   207a8:	6541      	str	r1, [r0, #84]	@ 0x54
   207aa:	acff      	add	r4, sp, #1020	@ 0x3fc
   207ac:	34a4      	adds	r4, #164	@ 0xa4
   207ae:	1c66      	adds	r6, r4, #1
   207b0:	2118      	movs	r1, #24
   207b2:	4630      	mov	r0, r6
   207b4:	f007 fbd3 	bl	27f5e <__aeabi_memclr>
   207b8:	7025      	strb	r5, [r4, #0]
   207ba:	9c08      	ldr	r4, [sp, #32]
   207bc:	980d      	ldr	r0, [sp, #52]	@ 0x34
   207be:	9000      	str	r0, [sp, #0]
   207c0:	4d95      	ldr	r5, [pc, #596]	@ (20a18 <_start+0x414>)
   207c2:	2346      	movs	r3, #70	@ 0x46
   207c4:	4628      	mov	r0, r5
   207c6:	4621      	mov	r1, r4
   207c8:	9a07      	ldr	r2, [sp, #28]
   207ca:	f7ff fd67 	bl	2029c <_ZN9allow_pin12dynamic_type11allow_inner17hf1099571477a6939E>
   207ce:	07c0      	lsls	r0, r0, #31
   207d0:	d019      	beq.n	20806 <_start+0x202>
   207d2:	910f      	str	r1, [sp, #60]	@ 0x3c
   207d4:	9c0b      	ldr	r4, [sp, #44]	@ 0x2c
   207d6:	e0a4      	b.n	20922 <_start+0x31e>
   207d8:	488a      	ldr	r0, [pc, #552]	@ (20a04 <_start+0x400>)
   207da:	4468      	add	r0, sp
   207dc:	f7ff fe82 	bl	204e4 <_ZN9allow_pin12dynamic_type23Buffer$LT$B$C$_$C$_$GT$7unallow17h1c074545b2e42211E>
   207e0:	4e89      	ldr	r6, [pc, #548]	@ (20a08 <_start+0x404>)
   207e2:	446e      	add	r6, sp
   207e4:	4630      	mov	r0, r6
   207e6:	f7ff fe7d 	bl	204e4 <_ZN9allow_pin12dynamic_type23Buffer$LT$B$C$_$C$_$GT$7unallow17h1c074545b2e42211E>
   207ea:	498c      	ldr	r1, [pc, #560]	@ (20a1c <_start+0x418>)
   207ec:	1dca      	adds	r2, r1, #7
   207ee:	7830      	ldrb	r0, [r6, #0]
   207f0:	3608      	adds	r6, #8
   207f2:	2802      	cmp	r0, #2
   207f4:	d000      	beq.n	207f8 <_start+0x1f4>
   207f6:	4616      	mov	r6, r2
   207f8:	9a0b      	ldr	r2, [sp, #44]	@ 0x2c
   207fa:	d000      	beq.n	207fe <_start+0x1fa>
   207fc:	460a      	mov	r2, r1
   207fe:	2802      	cmp	r0, #2
   20800:	d04e      	beq.n	208a0 <_start+0x29c>
   20802:	940f      	str	r4, [sp, #60]	@ 0x3c
   20804:	e04f      	b.n	208a6 <_start+0x2a2>
   20806:	4880      	ldr	r0, [pc, #512]	@ (20a08 <_start+0x404>)
   20808:	4468      	add	r0, sp
   2080a:	990d      	ldr	r1, [sp, #52]	@ 0x34
   2080c:	7001      	strb	r1, [r0, #0]
   2080e:	9400      	str	r4, [sp, #0]
   20810:	2102      	movs	r1, #2
   20812:	2318      	movs	r3, #24
   20814:	4628      	mov	r0, r5
   20816:	4632      	mov	r2, r6
   20818:	f7ff fd40 	bl	2029c <_ZN9allow_pin12dynamic_type11allow_inner17hf1099571477a6939E>
   2081c:	07c0      	lsls	r0, r0, #31
   2081e:	9d0b      	ldr	r5, [sp, #44]	@ 0x2c
   20820:	d10b      	bne.n	2083a <_start+0x236>
   20822:	a8ff      	add	r0, sp, #1020	@ 0x3fc
   20824:	30a4      	adds	r0, #164	@ 0xa4
   20826:	7004      	strb	r4, [r0, #0]
   20828:	487b      	ldr	r0, [pc, #492]	@ (20a18 <_start+0x414>)
   2082a:	2202      	movs	r2, #2
   2082c:	4621      	mov	r1, r4
   2082e:	2400      	movs	r4, #0
   20830:	920f      	str	r2, [sp, #60]	@ 0x3c
   20832:	4623      	mov	r3, r4
   20834:	df02      	svc	2
   20836:	287f      	cmp	r0, #127	@ 0x7f
   20838:	d843      	bhi.n	208c2 <_start+0x2be>
   2083a:	910f      	str	r1, [sp, #60]	@ 0x3c
   2083c:	462c      	mov	r4, r5
   2083e:	4d76      	ldr	r5, [pc, #472]	@ (20a18 <_start+0x414>)
   20840:	e06f      	b.n	20922 <_start+0x31e>
   20842:	4871      	ldr	r0, [pc, #452]	@ (20a08 <_start+0x404>)
   20844:	4468      	add	r0, sp
   20846:	7802      	ldrb	r2, [r0, #0]
   20848:	2a02      	cmp	r2, #2
   2084a:	9b07      	ldr	r3, [sp, #28]
   2084c:	d00c      	beq.n	20868 <_start+0x264>
   2084e:	2107      	movs	r1, #7
   20850:	4620      	mov	r0, r4
   20852:	f007 fb77 	bl	27f44 <_ZN9allow_pin12dynamic_type7unshare17ha4091652f9b609c4E>
   20856:	486c      	ldr	r0, [pc, #432]	@ (20a08 <_start+0x404>)
   20858:	4468      	add	r0, sp
   2085a:	990e      	ldr	r1, [sp, #56]	@ 0x38
   2085c:	7001      	strb	r1, [r0, #0]
   2085e:	a8ff      	add	r0, sp, #1020	@ 0x3fc
   20860:	30a4      	adds	r0, #164	@ 0xa4
   20862:	7803      	ldrb	r3, [r0, #0]
   20864:	2b02      	cmp	r3, #2
   20866:	d004      	beq.n	20872 <_start+0x26e>
   20868:	2100      	movs	r1, #0
   2086a:	4620      	mov	r0, r4
   2086c:	461a      	mov	r2, r3
   2086e:	f007 fb69 	bl	27f44 <_ZN9allow_pin12dynamic_type7unshare17ha4091652f9b609c4E>
   20872:	a9ff      	add	r1, sp, #1020	@ 0x3fc
   20874:	31a4      	adds	r1, #164	@ 0xa4
   20876:	980e      	ldr	r0, [sp, #56]	@ 0x38
   20878:	7008      	strb	r0, [r1, #0]
   2087a:	78a8      	ldrb	r0, [r5, #2]
   2087c:	aac9      	add	r2, sp, #804	@ 0x324
   2087e:	7090      	strb	r0, [r2, #2]
   20880:	7828      	ldrb	r0, [r5, #0]
   20882:	786b      	ldrb	r3, [r5, #1]
   20884:	021b      	lsls	r3, r3, #8
   20886:	1818      	adds	r0, r3, r0
   20888:	8010      	strh	r0, [r2, #0]
   2088a:	9809      	ldr	r0, [sp, #36]	@ 0x24
   2088c:	6800      	ldr	r0, [r0, #0]
   2088e:	900f      	str	r0, [sp, #60]	@ 0x3c
   20890:	3108      	adds	r1, #8
   20892:	485c      	ldr	r0, [pc, #368]	@ (20a04 <_start+0x400>)
   20894:	4468      	add	r0, sp
   20896:	223f      	movs	r2, #63	@ 0x3f
   20898:	f007 fd21 	bl	282de <__aeabi_memcpy>
   2089c:	9d08      	ldr	r5, [sp, #32]
   2089e:	e752      	b.n	20746 <_start+0x142>
   208a0:	980c      	ldr	r0, [sp, #48]	@ 0x30
   208a2:	6d40      	ldr	r0, [r0, #84]	@ 0x54
   208a4:	900f      	str	r0, [sp, #60]	@ 0x3c
   208a6:	7890      	ldrb	r0, [r2, #2]
   208a8:	a9c9      	add	r1, sp, #804	@ 0x324
   208aa:	7088      	strb	r0, [r1, #2]
   208ac:	7810      	ldrb	r0, [r2, #0]
   208ae:	7852      	ldrb	r2, [r2, #1]
   208b0:	0212      	lsls	r2, r2, #8
   208b2:	1810      	adds	r0, r2, r0
   208b4:	8008      	strh	r0, [r1, #0]
   208b6:	a89f      	add	r0, sp, #636	@ 0x27c
   208b8:	224a      	movs	r2, #74	@ 0x4a
   208ba:	4631      	mov	r1, r6
   208bc:	f007 fd0f 	bl	282de <__aeabi_memcpy>
   208c0:	e6db      	b.n	2067a <_start+0x76>
   208c2:	4851      	ldr	r0, [pc, #324]	@ (20a08 <_start+0x404>)
   208c4:	4468      	add	r0, sp
   208c6:	7802      	ldrb	r2, [r0, #0]
   208c8:	2a02      	cmp	r2, #2
   208ca:	4d53      	ldr	r5, [pc, #332]	@ (20a18 <_start+0x414>)
   208cc:	d00d      	beq.n	208ea <_start+0x2e6>
   208ce:	2103      	movs	r1, #3
   208d0:	4628      	mov	r0, r5
   208d2:	f007 fb37 	bl	27f44 <_ZN9allow_pin12dynamic_type7unshare17ha4091652f9b609c4E>
   208d6:	484c      	ldr	r0, [pc, #304]	@ (20a08 <_start+0x404>)
   208d8:	4468      	add	r0, sp
   208da:	990f      	ldr	r1, [sp, #60]	@ 0x3c
   208dc:	7001      	strb	r1, [r0, #0]
   208de:	a8ff      	add	r0, sp, #1020	@ 0x3fc
   208e0:	30a4      	adds	r0, #164	@ 0xa4
   208e2:	7800      	ldrb	r0, [r0, #0]
   208e4:	9008      	str	r0, [sp, #32]
   208e6:	2802      	cmp	r0, #2
   208e8:	d004      	beq.n	208f4 <_start+0x2f0>
   208ea:	2102      	movs	r1, #2
   208ec:	4628      	mov	r0, r5
   208ee:	9a08      	ldr	r2, [sp, #32]
   208f0:	f007 fb28 	bl	27f44 <_ZN9allow_pin12dynamic_type7unshare17ha4091652f9b609c4E>
   208f4:	a8ff      	add	r0, sp, #1020	@ 0x3fc
   208f6:	30a4      	adds	r0, #164	@ 0xa4
   208f8:	990f      	ldr	r1, [sp, #60]	@ 0x3c
   208fa:	7001      	strb	r1, [r0, #0]
   208fc:	78b1      	ldrb	r1, [r6, #2]
   208fe:	aaff      	add	r2, sp, #1020	@ 0x3fc
   20900:	328c      	adds	r2, #140	@ 0x8c
   20902:	7091      	strb	r1, [r2, #2]
   20904:	7831      	ldrb	r1, [r6, #0]
   20906:	7873      	ldrb	r3, [r6, #1]
   20908:	021b      	lsls	r3, r3, #8
   2090a:	1859      	adds	r1, r3, r1
   2090c:	8011      	strh	r1, [r2, #0]
   2090e:	3008      	adds	r0, #8
   20910:	9909      	ldr	r1, [sp, #36]	@ 0x24
   20912:	6809      	ldr	r1, [r1, #0]
   20914:	910f      	str	r1, [sp, #60]	@ 0x3c
   20916:	a9c9      	add	r1, sp, #804	@ 0x324
   20918:	c86c      	ldmia	r0!, {r2, r3, r5, r6}
   2091a:	c16c      	stmia	r1!, {r2, r3, r5, r6}
   2091c:	4d3e      	ldr	r5, [pc, #248]	@ (20a18 <_start+0x414>)
   2091e:	7800      	ldrb	r0, [r0, #0]
   20920:	7008      	strb	r0, [r1, #0]
   20922:	a8ff      	add	r0, sp, #1020	@ 0x3fc
   20924:	30a4      	adds	r0, #164	@ 0xa4
   20926:	7802      	ldrb	r2, [r0, #0]
   20928:	2a02      	cmp	r2, #2
   2092a:	d003      	beq.n	20934 <_start+0x330>
   2092c:	2102      	movs	r1, #2
   2092e:	4628      	mov	r0, r5
   20930:	f007 fb08 	bl	27f44 <_ZN9allow_pin12dynamic_type7unshare17ha4091652f9b609c4E>
   20934:	4834      	ldr	r0, [pc, #208]	@ (20a08 <_start+0x404>)
   20936:	4468      	add	r0, sp
   20938:	7802      	ldrb	r2, [r0, #0]
   2093a:	2a02      	cmp	r2, #2
   2093c:	d003      	beq.n	20946 <_start+0x342>
   2093e:	2103      	movs	r1, #3
   20940:	4628      	mov	r0, r5
   20942:	f007 faff 	bl	27f44 <_ZN9allow_pin12dynamic_type7unshare17ha4091652f9b609c4E>
   20946:	2c00      	cmp	r4, #0
   20948:	d001      	beq.n	2094e <_start+0x34a>
   2094a:	f001 fc02 	bl	22152 <_start+0x1b4e>
   2094e:	482d      	ldr	r0, [pc, #180]	@ (20a04 <_start+0x400>)
   20950:	4468      	add	r0, sp
   20952:	9007      	str	r0, [sp, #28]
   20954:	1c40      	adds	r0, r0, #1
   20956:	9008      	str	r0, [sp, #32]
   20958:	a9ff      	add	r1, sp, #1020	@ 0x3fc
   2095a:	318c      	adds	r1, #140	@ 0x8c
   2095c:	2203      	movs	r2, #3
   2095e:	9206      	str	r2, [sp, #24]
   20960:	f007 fcbd 	bl	282de <__aeabi_memcpy>
   20964:	a8c9      	add	r0, sp, #804	@ 0x324
   20966:	a99f      	add	r1, sp, #636	@ 0x27c
   20968:	460a      	mov	r2, r1
   2096a:	c878      	ldmia	r0!, {r3, r4, r5, r6}
   2096c:	c278      	stmia	r2!, {r3, r4, r5, r6}
   2096e:	7800      	ldrb	r0, [r0, #0]
   20970:	7010      	strb	r0, [r2, #0]
   20972:	9e07      	ldr	r6, [sp, #28]
   20974:	4630      	mov	r0, r6
   20976:	3008      	adds	r0, #8
   20978:	c93c      	ldmia	r1!, {r2, r3, r4, r5}
   2097a:	c03c      	stmia	r0!, {r2, r3, r4, r5}
   2097c:	7809      	ldrb	r1, [r1, #0]
   2097e:	7001      	strb	r1, [r0, #0]
   20980:	9d0e      	ldr	r5, [sp, #56]	@ 0x38
   20982:	7035      	strb	r5, [r6, #0]
   20984:	980f      	ldr	r0, [sp, #60]	@ 0x3c
   20986:	990a      	ldr	r1, [sp, #40]	@ 0x28
   20988:	6008      	str	r0, [r1, #0]
   2098a:	4c1f      	ldr	r4, [pc, #124]	@ (20a08 <_start+0x404>)
   2098c:	446c      	add	r4, sp
   2098e:	1c66      	adds	r6, r4, #1
   20990:	2136      	movs	r1, #54	@ 0x36
   20992:	4630      	mov	r0, r6
   20994:	f007 fae3 	bl	27f5e <__aeabi_memclr>
   20998:	7025      	strb	r5, [r4, #0]
   2099a:	9d0d      	ldr	r5, [sp, #52]	@ 0x34
   2099c:	9500      	str	r5, [sp, #0]
   2099e:	2097      	movs	r0, #151	@ 0x97
   209a0:	0044      	lsls	r4, r0, #1
   209a2:	9407      	str	r4, [sp, #28]
   209a4:	34f1      	adds	r4, #241	@ 0xf1
   209a6:	2100      	movs	r1, #0
   209a8:	2318      	movs	r3, #24
   209aa:	4620      	mov	r0, r4
   209ac:	9a08      	ldr	r2, [sp, #32]
   209ae:	f7ff fc75 	bl	2029c <_ZN9allow_pin12dynamic_type11allow_inner17hf1099571477a6939E>
   209b2:	07c0      	lsls	r0, r0, #31
   209b4:	d008      	beq.n	209c8 <_start+0x3c4>
   209b6:	910f      	str	r1, [sp, #60]	@ 0x3c
   209b8:	9d0b      	ldr	r5, [sp, #44]	@ 0x2c
   209ba:	e061      	b.n	20a80 <_start+0x47c>
   209bc:	fffff9f4 	.word	0xfffff9f4
   209c0:	00000558 	.word	0x00000558
   209c4:	0000055c 	.word	0x0000055c
   209c8:	480e      	ldr	r0, [pc, #56]	@ (20a04 <_start+0x400>)
   209ca:	4468      	add	r0, sp
   209cc:	7005      	strb	r5, [r0, #0]
   209ce:	9806      	ldr	r0, [sp, #24]
   209d0:	9000      	str	r0, [sp, #0]
   209d2:	2107      	movs	r1, #7
   209d4:	2336      	movs	r3, #54	@ 0x36
   209d6:	4620      	mov	r0, r4
   209d8:	960f      	str	r6, [sp, #60]	@ 0x3c
   209da:	4632      	mov	r2, r6
   209dc:	f7ff fc5e 	bl	2029c <_ZN9allow_pin12dynamic_type11allow_inner17hf1099571477a6939E>
   209e0:	07c0      	lsls	r0, r0, #31
   209e2:	9d0b      	ldr	r5, [sp, #44]	@ 0x2c
   209e4:	d10b      	bne.n	209fe <_start+0x3fa>
   209e6:	4808      	ldr	r0, [pc, #32]	@ (20a08 <_start+0x404>)
   209e8:	4468      	add	r0, sp
   209ea:	9906      	ldr	r1, [sp, #24]
   209ec:	7001      	strb	r1, [r0, #0]
   209ee:	480c      	ldr	r0, [pc, #48]	@ (20a20 <_start+0x41c>)
   209f0:	2207      	movs	r2, #7
   209f2:	2100      	movs	r1, #0
   209f4:	9108      	str	r1, [sp, #32]
   209f6:	460b      	mov	r3, r1
   209f8:	df02      	svc	2
   209fa:	287f      	cmp	r0, #127	@ 0x7f
   209fc:	d812      	bhi.n	20a24 <_start+0x420>
   209fe:	910f      	str	r1, [sp, #60]	@ 0x3c
   20a00:	e03e      	b.n	20a80 <_start+0x47c>
   20a02:	46c0      	nop			@ (mov r8, r8)
   20a04:	00000558 	.word	0x00000558
   20a08:	000005a8 	.word	0x000005a8
   20a0c:	00002006 	.word	0x00002006
   20a10:	00002048 	.word	0x00002048
   20a14:	000020c4 	.word	0x000020c4
   20a18:	000023cf 	.word	0x000023cf
   20a1c:	000100e4 	.word	0x000100e4
   20a20:	0000021f 	.word	0x0000021f
   20a24:	48de      	ldr	r0, [pc, #888]	@ (20da0 <_start+0x79c>)
   20a26:	4468      	add	r0, sp
   20a28:	7802      	ldrb	r2, [r0, #0]
   20a2a:	2a02      	cmp	r2, #2
   20a2c:	9b06      	ldr	r3, [sp, #24]
   20a2e:	d00c      	beq.n	20a4a <_start+0x446>
   20a30:	2100      	movs	r1, #0
   20a32:	4620      	mov	r0, r4
   20a34:	f007 fa86 	bl	27f44 <_ZN9allow_pin12dynamic_type7unshare17ha4091652f9b609c4E>
   20a38:	48d9      	ldr	r0, [pc, #868]	@ (20da0 <_start+0x79c>)
   20a3a:	4468      	add	r0, sp
   20a3c:	990e      	ldr	r1, [sp, #56]	@ 0x38
   20a3e:	7001      	strb	r1, [r0, #0]
   20a40:	48d8      	ldr	r0, [pc, #864]	@ (20da4 <_start+0x7a0>)
   20a42:	4468      	add	r0, sp
   20a44:	7803      	ldrb	r3, [r0, #0]
   20a46:	2b02      	cmp	r3, #2
   20a48:	d004      	beq.n	20a54 <_start+0x450>
   20a4a:	2107      	movs	r1, #7
   20a4c:	4620      	mov	r0, r4
   20a4e:	461a      	mov	r2, r3
   20a50:	f007 fa78 	bl	27f44 <_ZN9allow_pin12dynamic_type7unshare17ha4091652f9b609c4E>
   20a54:	49d3      	ldr	r1, [pc, #844]	@ (20da4 <_start+0x7a0>)
   20a56:	4469      	add	r1, sp
   20a58:	980e      	ldr	r0, [sp, #56]	@ 0x38
   20a5a:	7008      	strb	r0, [r1, #0]
   20a5c:	9b0f      	ldr	r3, [sp, #60]	@ 0x3c
   20a5e:	7898      	ldrb	r0, [r3, #2]
   20a60:	aac9      	add	r2, sp, #804	@ 0x324
   20a62:	7090      	strb	r0, [r2, #2]
   20a64:	7818      	ldrb	r0, [r3, #0]
   20a66:	785b      	ldrb	r3, [r3, #1]
   20a68:	021b      	lsls	r3, r3, #8
   20a6a:	1818      	adds	r0, r3, r0
   20a6c:	8010      	strh	r0, [r2, #0]
   20a6e:	980c      	ldr	r0, [sp, #48]	@ 0x30
   20a70:	6d40      	ldr	r0, [r0, #84]	@ 0x54
   20a72:	900f      	str	r0, [sp, #60]	@ 0x3c
   20a74:	3108      	adds	r1, #8
   20a76:	a89f      	add	r0, sp, #636	@ 0x27c
   20a78:	222f      	movs	r2, #47	@ 0x2f
   20a7a:	f007 fc30 	bl	282de <__aeabi_memcpy>
   20a7e:	9d08      	ldr	r5, [sp, #32]
   20a80:	48c8      	ldr	r0, [pc, #800]	@ (20da4 <_start+0x7a0>)
   20a82:	4468      	add	r0, sp
   20a84:	7802      	ldrb	r2, [r0, #0]
   20a86:	2a02      	cmp	r2, #2
   20a88:	d003      	beq.n	20a92 <_start+0x48e>
   20a8a:	2107      	movs	r1, #7
   20a8c:	4620      	mov	r0, r4
   20a8e:	f007 fa59 	bl	27f44 <_ZN9allow_pin12dynamic_type7unshare17ha4091652f9b609c4E>
   20a92:	48c3      	ldr	r0, [pc, #780]	@ (20da0 <_start+0x79c>)
   20a94:	4468      	add	r0, sp
   20a96:	7802      	ldrb	r2, [r0, #0]
   20a98:	2a02      	cmp	r2, #2
   20a9a:	d003      	beq.n	20aa4 <_start+0x4a0>
   20a9c:	2100      	movs	r1, #0
   20a9e:	4620      	mov	r0, r4
   20aa0:	f007 fa50 	bl	27f44 <_ZN9allow_pin12dynamic_type7unshare17ha4091652f9b609c4E>
   20aa4:	2d00      	cmp	r5, #0
   20aa6:	d001      	beq.n	20aac <_start+0x4a8>
   20aa8:	f001 fb53 	bl	22152 <_start+0x1b4e>
   20aac:	4ebd      	ldr	r6, [pc, #756]	@ (20da4 <_start+0x7a0>)
   20aae:	446e      	add	r6, sp
   20ab0:	1c70      	adds	r0, r6, #1
   20ab2:	9008      	str	r0, [sp, #32]
   20ab4:	a9c9      	add	r1, sp, #804	@ 0x324
   20ab6:	2203      	movs	r2, #3
   20ab8:	9206      	str	r2, [sp, #24]
   20aba:	f007 fc10 	bl	282de <__aeabi_memcpy>
   20abe:	acff      	add	r4, sp, #1020	@ 0x3fc
   20ac0:	34a4      	adds	r4, #164	@ 0xa4
   20ac2:	a99f      	add	r1, sp, #636	@ 0x27c
   20ac4:	252f      	movs	r5, #47	@ 0x2f
   20ac6:	4620      	mov	r0, r4
   20ac8:	462a      	mov	r2, r5
   20aca:	f007 fc08 	bl	282de <__aeabi_memcpy>
   20ace:	4630      	mov	r0, r6
   20ad0:	3008      	adds	r0, #8
   20ad2:	4621      	mov	r1, r4
   20ad4:	462a      	mov	r2, r5
   20ad6:	f007 fc02 	bl	282de <__aeabi_memcpy>
   20ada:	9d0e      	ldr	r5, [sp, #56]	@ 0x38
   20adc:	7035      	strb	r5, [r6, #0]
   20ade:	980c      	ldr	r0, [sp, #48]	@ 0x30
   20ae0:	990f      	ldr	r1, [sp, #60]	@ 0x3c
   20ae2:	6541      	str	r1, [r0, #84]	@ 0x54
   20ae4:	acff      	add	r4, sp, #1020	@ 0x3fc
   20ae6:	34a4      	adds	r4, #164	@ 0xa4
   20ae8:	1c66      	adds	r6, r4, #1
   20aea:	2125      	movs	r1, #37	@ 0x25
   20aec:	4630      	mov	r0, r6
   20aee:	f007 fa36 	bl	27f5e <__aeabi_memclr>
   20af2:	7025      	strb	r5, [r4, #0]
   20af4:	9d0d      	ldr	r5, [sp, #52]	@ 0x34
   20af6:	9500      	str	r5, [sp, #0]
   20af8:	4cab      	ldr	r4, [pc, #684]	@ (20da8 <_start+0x7a4>)
   20afa:	34c0      	adds	r4, #192	@ 0xc0
   20afc:	2107      	movs	r1, #7
   20afe:	2336      	movs	r3, #54	@ 0x36
   20b00:	4620      	mov	r0, r4
   20b02:	9a08      	ldr	r2, [sp, #32]
   20b04:	f7ff fbca 	bl	2029c <_ZN9allow_pin12dynamic_type11allow_inner17hf1099571477a6939E>
   20b08:	07c0      	lsls	r0, r0, #31
   20b0a:	d002      	beq.n	20b12 <_start+0x50e>
   20b0c:	910f      	str	r1, [sp, #60]	@ 0x3c
   20b0e:	9d0b      	ldr	r5, [sp, #44]	@ 0x2c
   20b10:	e049      	b.n	20ba6 <_start+0x5a2>
   20b12:	48a4      	ldr	r0, [pc, #656]	@ (20da4 <_start+0x7a0>)
   20b14:	4468      	add	r0, sp
   20b16:	7005      	strb	r5, [r0, #0]
   20b18:	9806      	ldr	r0, [sp, #24]
   20b1a:	9000      	str	r0, [sp, #0]
   20b1c:	2100      	movs	r1, #0
   20b1e:	2325      	movs	r3, #37	@ 0x25
   20b20:	4620      	mov	r0, r4
   20b22:	4632      	mov	r2, r6
   20b24:	f7ff fbba 	bl	2029c <_ZN9allow_pin12dynamic_type11allow_inner17hf1099571477a6939E>
   20b28:	07c0      	lsls	r0, r0, #31
   20b2a:	9d0b      	ldr	r5, [sp, #44]	@ 0x2c
   20b2c:	d10b      	bne.n	20b46 <_start+0x542>
   20b2e:	a8ff      	add	r0, sp, #1020	@ 0x3fc
   20b30:	30a4      	adds	r0, #164	@ 0xa4
   20b32:	9906      	ldr	r1, [sp, #24]
   20b34:	7001      	strb	r1, [r0, #0]
   20b36:	489d      	ldr	r0, [pc, #628]	@ (20dac <_start+0x7a8>)
   20b38:	2107      	movs	r1, #7
   20b3a:	2200      	movs	r2, #0
   20b3c:	9208      	str	r2, [sp, #32]
   20b3e:	4613      	mov	r3, r2
   20b40:	df02      	svc	2
   20b42:	287f      	cmp	r0, #127	@ 0x7f
   20b44:	d801      	bhi.n	20b4a <_start+0x546>
   20b46:	910f      	str	r1, [sp, #60]	@ 0x3c
   20b48:	e02d      	b.n	20ba6 <_start+0x5a2>
   20b4a:	4896      	ldr	r0, [pc, #600]	@ (20da4 <_start+0x7a0>)
   20b4c:	4468      	add	r0, sp
   20b4e:	7802      	ldrb	r2, [r0, #0]
   20b50:	2a02      	cmp	r2, #2
   20b52:	9b06      	ldr	r3, [sp, #24]
   20b54:	d00c      	beq.n	20b70 <_start+0x56c>
   20b56:	2107      	movs	r1, #7
   20b58:	4620      	mov	r0, r4
   20b5a:	f007 f9f3 	bl	27f44 <_ZN9allow_pin12dynamic_type7unshare17ha4091652f9b609c4E>
   20b5e:	4891      	ldr	r0, [pc, #580]	@ (20da4 <_start+0x7a0>)
   20b60:	4468      	add	r0, sp
   20b62:	990e      	ldr	r1, [sp, #56]	@ 0x38
   20b64:	7001      	strb	r1, [r0, #0]
   20b66:	a8ff      	add	r0, sp, #1020	@ 0x3fc
   20b68:	30a4      	adds	r0, #164	@ 0xa4
   20b6a:	7803      	ldrb	r3, [r0, #0]
   20b6c:	2b02      	cmp	r3, #2
   20b6e:	d004      	beq.n	20b7a <_start+0x576>
   20b70:	2100      	movs	r1, #0
   20b72:	4620      	mov	r0, r4
   20b74:	461a      	mov	r2, r3
   20b76:	f007 f9e5 	bl	27f44 <_ZN9allow_pin12dynamic_type7unshare17ha4091652f9b609c4E>
   20b7a:	a9ff      	add	r1, sp, #1020	@ 0x3fc
   20b7c:	31a4      	adds	r1, #164	@ 0xa4
   20b7e:	980e      	ldr	r0, [sp, #56]	@ 0x38
   20b80:	7008      	strb	r0, [r1, #0]
   20b82:	78b0      	ldrb	r0, [r6, #2]
   20b84:	aac9      	add	r2, sp, #804	@ 0x324
   20b86:	7090      	strb	r0, [r2, #2]
   20b88:	7830      	ldrb	r0, [r6, #0]
   20b8a:	7873      	ldrb	r3, [r6, #1]
   20b8c:	021b      	lsls	r3, r3, #8
   20b8e:	1818      	adds	r0, r3, r0
   20b90:	8010      	strh	r0, [r2, #0]
   20b92:	9809      	ldr	r0, [sp, #36]	@ 0x24
   20b94:	6800      	ldr	r0, [r0, #0]
   20b96:	900f      	str	r0, [sp, #60]	@ 0x3c
   20b98:	3108      	adds	r1, #8
   20b9a:	4881      	ldr	r0, [pc, #516]	@ (20da0 <_start+0x79c>)
   20b9c:	4468      	add	r0, sp
   20b9e:	221e      	movs	r2, #30
   20ba0:	f007 fb9d 	bl	282de <__aeabi_memcpy>
   20ba4:	9d08      	ldr	r5, [sp, #32]
   20ba6:	a8ff      	add	r0, sp, #1020	@ 0x3fc
   20ba8:	30a4      	adds	r0, #164	@ 0xa4
   20baa:	7802      	ldrb	r2, [r0, #0]
   20bac:	2a02      	cmp	r2, #2
   20bae:	d003      	beq.n	20bb8 <_start+0x5b4>
   20bb0:	2100      	movs	r1, #0
   20bb2:	4620      	mov	r0, r4
   20bb4:	f007 f9c6 	bl	27f44 <_ZN9allow_pin12dynamic_type7unshare17ha4091652f9b609c4E>
   20bb8:	487a      	ldr	r0, [pc, #488]	@ (20da4 <_start+0x7a0>)
   20bba:	4468      	add	r0, sp
   20bbc:	7802      	ldrb	r2, [r0, #0]
   20bbe:	2a02      	cmp	r2, #2
   20bc0:	d003      	beq.n	20bca <_start+0x5c6>
   20bc2:	2107      	movs	r1, #7
   20bc4:	4620      	mov	r0, r4
   20bc6:	f007 f9bd 	bl	27f44 <_ZN9allow_pin12dynamic_type7unshare17ha4091652f9b609c4E>
   20bca:	2d00      	cmp	r5, #0
   20bcc:	d001      	beq.n	20bd2 <_start+0x5ce>
   20bce:	f001 fac0 	bl	22152 <_start+0x1b4e>
   20bd2:	4d74      	ldr	r5, [pc, #464]	@ (20da4 <_start+0x7a0>)
   20bd4:	446d      	add	r5, sp
   20bd6:	1c68      	adds	r0, r5, #1
   20bd8:	9008      	str	r0, [sp, #32]
   20bda:	a9c9      	add	r1, sp, #804	@ 0x324
   20bdc:	2203      	movs	r2, #3
   20bde:	9206      	str	r2, [sp, #24]
   20be0:	f007 fb7d 	bl	282de <__aeabi_memcpy>
   20be4:	ac9f      	add	r4, sp, #636	@ 0x27c
   20be6:	496e      	ldr	r1, [pc, #440]	@ (20da0 <_start+0x79c>)
   20be8:	4469      	add	r1, sp
   20bea:	261e      	movs	r6, #30
   20bec:	4620      	mov	r0, r4
   20bee:	4632      	mov	r2, r6
   20bf0:	f007 fb75 	bl	282de <__aeabi_memcpy>
   20bf4:	4628      	mov	r0, r5
   20bf6:	3008      	adds	r0, #8
   20bf8:	4621      	mov	r1, r4
   20bfa:	4632      	mov	r2, r6
   20bfc:	f007 fb6f 	bl	282de <__aeabi_memcpy>
   20c00:	9e0e      	ldr	r6, [sp, #56]	@ 0x38
   20c02:	702e      	strb	r6, [r5, #0]
   20c04:	980c      	ldr	r0, [sp, #48]	@ 0x30
   20c06:	990f      	ldr	r1, [sp, #60]	@ 0x3c
   20c08:	6541      	str	r1, [r0, #84]	@ 0x54
   20c0a:	adff      	add	r5, sp, #1020	@ 0x3fc
   20c0c:	35a4      	adds	r5, #164	@ 0xa4
   20c0e:	1c6c      	adds	r4, r5, #1
   20c10:	210e      	movs	r1, #14
   20c12:	4620      	mov	r0, r4
   20c14:	f007 f9a3 	bl	27f5e <__aeabi_memclr>
   20c18:	702e      	strb	r6, [r5, #0]
   20c1a:	9d0d      	ldr	r5, [sp, #52]	@ 0x34
   20c1c:	9500      	str	r5, [sp, #0]
   20c1e:	4864      	ldr	r0, [pc, #400]	@ (20db0 <_start+0x7ac>)
   20c20:	2325      	movs	r3, #37	@ 0x25
   20c22:	4631      	mov	r1, r6
   20c24:	9a08      	ldr	r2, [sp, #32]
   20c26:	f7ff fb39 	bl	2029c <_ZN9allow_pin12dynamic_type11allow_inner17hf1099571477a6939E>
   20c2a:	07c0      	lsls	r0, r0, #31
   20c2c:	d11a      	bne.n	20c64 <_start+0x660>
   20c2e:	485d      	ldr	r0, [pc, #372]	@ (20da4 <_start+0x7a0>)
   20c30:	4468      	add	r0, sp
   20c32:	7005      	strb	r5, [r0, #0]
   20c34:	9e06      	ldr	r6, [sp, #24]
   20c36:	9600      	str	r6, [sp, #0]
   20c38:	2108      	movs	r1, #8
   20c3a:	230e      	movs	r3, #14
   20c3c:	485c      	ldr	r0, [pc, #368]	@ (20db0 <_start+0x7ac>)
   20c3e:	4622      	mov	r2, r4
   20c40:	f7ff fb2c 	bl	2029c <_ZN9allow_pin12dynamic_type11allow_inner17hf1099571477a6939E>
   20c44:	07c0      	lsls	r0, r0, #31
   20c46:	d10d      	bne.n	20c64 <_start+0x660>
   20c48:	9408      	str	r4, [sp, #32]
   20c4a:	a8ff      	add	r0, sp, #1020	@ 0x3fc
   20c4c:	30a4      	adds	r0, #164	@ 0xa4
   20c4e:	4634      	mov	r4, r6
   20c50:	7006      	strb	r6, [r0, #0]
   20c52:	4857      	ldr	r0, [pc, #348]	@ (20db0 <_start+0x7ac>)
   20c54:	2102      	movs	r1, #2
   20c56:	2208      	movs	r2, #8
   20c58:	2600      	movs	r6, #0
   20c5a:	910f      	str	r1, [sp, #60]	@ 0x3c
   20c5c:	4633      	mov	r3, r6
   20c5e:	df02      	svc	2
   20c60:	287f      	cmp	r0, #127	@ 0x7f
   20c62:	d86e      	bhi.n	20d42 <_start+0x73e>
   20c64:	910f      	str	r1, [sp, #60]	@ 0x3c
   20c66:	9e0b      	ldr	r6, [sp, #44]	@ 0x2c
   20c68:	a8ff      	add	r0, sp, #1020	@ 0x3fc
   20c6a:	30a4      	adds	r0, #164	@ 0xa4
   20c6c:	7802      	ldrb	r2, [r0, #0]
   20c6e:	2a02      	cmp	r2, #2
   20c70:	4c4f      	ldr	r4, [pc, #316]	@ (20db0 <_start+0x7ac>)
   20c72:	d003      	beq.n	20c7c <_start+0x678>
   20c74:	2108      	movs	r1, #8
   20c76:	4620      	mov	r0, r4
   20c78:	f007 f964 	bl	27f44 <_ZN9allow_pin12dynamic_type7unshare17ha4091652f9b609c4E>
   20c7c:	4849      	ldr	r0, [pc, #292]	@ (20da4 <_start+0x7a0>)
   20c7e:	4468      	add	r0, sp
   20c80:	7802      	ldrb	r2, [r0, #0]
   20c82:	2a02      	cmp	r2, #2
   20c84:	d003      	beq.n	20c8e <_start+0x68a>
   20c86:	2102      	movs	r1, #2
   20c88:	4620      	mov	r0, r4
   20c8a:	f007 f95b 	bl	27f44 <_ZN9allow_pin12dynamic_type7unshare17ha4091652f9b609c4E>
   20c8e:	2e00      	cmp	r6, #0
   20c90:	d001      	beq.n	20c96 <_start+0x692>
   20c92:	f001 fa5e 	bl	22152 <_start+0x1b4e>
   20c96:	4c42      	ldr	r4, [pc, #264]	@ (20da0 <_start+0x79c>)
   20c98:	446c      	add	r4, sp
   20c9a:	1c60      	adds	r0, r4, #1
   20c9c:	9008      	str	r0, [sp, #32]
   20c9e:	a9ff      	add	r1, sp, #1020	@ 0x3fc
   20ca0:	318c      	adds	r1, #140	@ 0x8c
   20ca2:	2603      	movs	r6, #3
   20ca4:	4632      	mov	r2, r6
   20ca6:	f007 fb1a 	bl	282de <__aeabi_memcpy>
   20caa:	a8c9      	add	r0, sp, #804	@ 0x324
   20cac:	a99f      	add	r1, sp, #636	@ 0x27c
   20cae:	460a      	mov	r2, r1
   20cb0:	c808      	ldmia	r0!, {r3}
   20cb2:	c208      	stmia	r2!, {r3}
   20cb4:	8803      	ldrh	r3, [r0, #0]
   20cb6:	8013      	strh	r3, [r2, #0]
   20cb8:	7880      	ldrb	r0, [r0, #2]
   20cba:	7090      	strb	r0, [r2, #2]
   20cbc:	4620      	mov	r0, r4
   20cbe:	3008      	adds	r0, #8
   20cc0:	2207      	movs	r2, #7
   20cc2:	f007 fb0c 	bl	282de <__aeabi_memcpy>
   20cc6:	990f      	ldr	r1, [sp, #60]	@ 0x3c
   20cc8:	0e08      	lsrs	r0, r1, #24
   20cca:	71e0      	strb	r0, [r4, #7]
   20ccc:	0c08      	lsrs	r0, r1, #16
   20cce:	71a0      	strb	r0, [r4, #6]
   20cd0:	0a08      	lsrs	r0, r1, #8
   20cd2:	7160      	strb	r0, [r4, #5]
   20cd4:	7121      	strb	r1, [r4, #4]
   20cd6:	9d0e      	ldr	r5, [sp, #56]	@ 0x38
   20cd8:	7025      	strb	r5, [r4, #0]
   20cda:	4c32      	ldr	r4, [pc, #200]	@ (20da4 <_start+0x7a0>)
   20cdc:	446c      	add	r4, sp
   20cde:	1c60      	adds	r0, r4, #1
   20ce0:	2148      	movs	r1, #72	@ 0x48
   20ce2:	900f      	str	r0, [sp, #60]	@ 0x3c
   20ce4:	f007 f93b 	bl	27f5e <__aeabi_memclr>
   20ce8:	7025      	strb	r5, [r4, #0]
   20cea:	9d0d      	ldr	r5, [sp, #52]	@ 0x34
   20cec:	9500      	str	r5, [sp, #0]
   20cee:	4c31      	ldr	r4, [pc, #196]	@ (20db4 <_start+0x7b0>)
   20cf0:	345e      	adds	r4, #94	@ 0x5e
   20cf2:	230e      	movs	r3, #14
   20cf4:	4620      	mov	r0, r4
   20cf6:	4631      	mov	r1, r6
   20cf8:	9a08      	ldr	r2, [sp, #32]
   20cfa:	f7ff facf 	bl	2029c <_ZN9allow_pin12dynamic_type11allow_inner17hf1099571477a6939E>
   20cfe:	07c0      	lsls	r0, r0, #31
   20d00:	d002      	beq.n	20d08 <_start+0x704>
   20d02:	910f      	str	r1, [sp, #60]	@ 0x3c
   20d04:	9e0b      	ldr	r6, [sp, #44]	@ 0x2c
   20d06:	e086      	b.n	20e16 <_start+0x812>
   20d08:	4825      	ldr	r0, [pc, #148]	@ (20da0 <_start+0x79c>)
   20d0a:	4468      	add	r0, sp
   20d0c:	7005      	strb	r5, [r0, #0]
   20d0e:	9600      	str	r6, [sp, #0]
   20d10:	2108      	movs	r1, #8
   20d12:	2348      	movs	r3, #72	@ 0x48
   20d14:	4620      	mov	r0, r4
   20d16:	9a0f      	ldr	r2, [sp, #60]	@ 0x3c
   20d18:	f7ff fac0 	bl	2029c <_ZN9allow_pin12dynamic_type11allow_inner17hf1099571477a6939E>
   20d1c:	07c0      	lsls	r0, r0, #31
   20d1e:	9d0b      	ldr	r5, [sp, #44]	@ 0x2c
   20d20:	d10c      	bne.n	20d3c <_start+0x738>
   20d22:	4633      	mov	r3, r6
   20d24:	481f      	ldr	r0, [pc, #124]	@ (20da4 <_start+0x7a0>)
   20d26:	4468      	add	r0, sp
   20d28:	7006      	strb	r6, [r0, #0]
   20d2a:	4823      	ldr	r0, [pc, #140]	@ (20db8 <_start+0x7b4>)
   20d2c:	2208      	movs	r2, #8
   20d2e:	2600      	movs	r6, #0
   20d30:	9308      	str	r3, [sp, #32]
   20d32:	4619      	mov	r1, r3
   20d34:	4633      	mov	r3, r6
   20d36:	df02      	svc	2
   20d38:	287f      	cmp	r0, #127	@ 0x7f
   20d3a:	d83f      	bhi.n	20dbc <_start+0x7b8>
   20d3c:	910f      	str	r1, [sp, #60]	@ 0x3c
   20d3e:	462e      	mov	r6, r5
   20d40:	e069      	b.n	20e16 <_start+0x812>
   20d42:	4818      	ldr	r0, [pc, #96]	@ (20da4 <_start+0x7a0>)
   20d44:	4468      	add	r0, sp
   20d46:	7802      	ldrb	r2, [r0, #0]
   20d48:	2a02      	cmp	r2, #2
   20d4a:	d00d      	beq.n	20d68 <_start+0x764>
   20d4c:	4818      	ldr	r0, [pc, #96]	@ (20db0 <_start+0x7ac>)
   20d4e:	9c0f      	ldr	r4, [sp, #60]	@ 0x3c
   20d50:	4621      	mov	r1, r4
   20d52:	f007 f8f7 	bl	27f44 <_ZN9allow_pin12dynamic_type7unshare17ha4091652f9b609c4E>
   20d56:	4813      	ldr	r0, [pc, #76]	@ (20da4 <_start+0x7a0>)
   20d58:	4468      	add	r0, sp
   20d5a:	7004      	strb	r4, [r0, #0]
   20d5c:	a8ff      	add	r0, sp, #1020	@ 0x3fc
   20d5e:	30a4      	adds	r0, #164	@ 0xa4
   20d60:	7800      	ldrb	r0, [r0, #0]
   20d62:	4604      	mov	r4, r0
   20d64:	2802      	cmp	r0, #2
   20d66:	d004      	beq.n	20d72 <_start+0x76e>
   20d68:	2108      	movs	r1, #8
   20d6a:	4811      	ldr	r0, [pc, #68]	@ (20db0 <_start+0x7ac>)
   20d6c:	4622      	mov	r2, r4
   20d6e:	f007 f8e9 	bl	27f44 <_ZN9allow_pin12dynamic_type7unshare17ha4091652f9b609c4E>
   20d72:	a9ff      	add	r1, sp, #1020	@ 0x3fc
   20d74:	31a4      	adds	r1, #164	@ 0xa4
   20d76:	980f      	ldr	r0, [sp, #60]	@ 0x3c
   20d78:	7008      	strb	r0, [r1, #0]
   20d7a:	9b08      	ldr	r3, [sp, #32]
   20d7c:	7898      	ldrb	r0, [r3, #2]
   20d7e:	aaff      	add	r2, sp, #1020	@ 0x3fc
   20d80:	328c      	adds	r2, #140	@ 0x8c
   20d82:	7090      	strb	r0, [r2, #2]
   20d84:	7818      	ldrb	r0, [r3, #0]
   20d86:	785b      	ldrb	r3, [r3, #1]
   20d88:	021b      	lsls	r3, r3, #8
   20d8a:	1818      	adds	r0, r3, r0
   20d8c:	8010      	strh	r0, [r2, #0]
   20d8e:	9809      	ldr	r0, [sp, #36]	@ 0x24
   20d90:	6800      	ldr	r0, [r0, #0]
   20d92:	900f      	str	r0, [sp, #60]	@ 0x3c
   20d94:	3108      	adds	r1, #8
   20d96:	a8c9      	add	r0, sp, #804	@ 0x324
   20d98:	2207      	movs	r2, #7
   20d9a:	f007 faa0 	bl	282de <__aeabi_memcpy>
   20d9e:	e763      	b.n	20c68 <_start+0x664>
   20da0:	00000558 	.word	0x00000558
   20da4:	000005a8 	.word	0x000005a8
   20da8:	000014d7 	.word	0x000014d7
   20dac:	00001597 	.word	0x00001597
   20db0:	00000667 	.word	0x00000667
   20db4:	00001273 	.word	0x00001273
   20db8:	000012d1 	.word	0x000012d1
   20dbc:	48db      	ldr	r0, [pc, #876]	@ (2112c <_start+0xb28>)
   20dbe:	4468      	add	r0, sp
   20dc0:	7802      	ldrb	r2, [r0, #0]
   20dc2:	2a02      	cmp	r2, #2
   20dc4:	9b08      	ldr	r3, [sp, #32]
   20dc6:	d00c      	beq.n	20de2 <_start+0x7de>
   20dc8:	2103      	movs	r1, #3
   20dca:	4620      	mov	r0, r4
   20dcc:	f007 f8ba 	bl	27f44 <_ZN9allow_pin12dynamic_type7unshare17ha4091652f9b609c4E>
   20dd0:	48d6      	ldr	r0, [pc, #856]	@ (2112c <_start+0xb28>)
   20dd2:	4468      	add	r0, sp
   20dd4:	990e      	ldr	r1, [sp, #56]	@ 0x38
   20dd6:	7001      	strb	r1, [r0, #0]
   20dd8:	48d5      	ldr	r0, [pc, #852]	@ (21130 <_start+0xb2c>)
   20dda:	4468      	add	r0, sp
   20ddc:	7803      	ldrb	r3, [r0, #0]
   20dde:	2b02      	cmp	r3, #2
   20de0:	d004      	beq.n	20dec <_start+0x7e8>
   20de2:	2108      	movs	r1, #8
   20de4:	4620      	mov	r0, r4
   20de6:	461a      	mov	r2, r3
   20de8:	f007 f8ac 	bl	27f44 <_ZN9allow_pin12dynamic_type7unshare17ha4091652f9b609c4E>
   20dec:	49d0      	ldr	r1, [pc, #832]	@ (21130 <_start+0xb2c>)
   20dee:	4469      	add	r1, sp
   20df0:	980e      	ldr	r0, [sp, #56]	@ 0x38
   20df2:	7008      	strb	r0, [r1, #0]
   20df4:	9b0f      	ldr	r3, [sp, #60]	@ 0x3c
   20df6:	7898      	ldrb	r0, [r3, #2]
   20df8:	aac9      	add	r2, sp, #804	@ 0x324
   20dfa:	7090      	strb	r0, [r2, #2]
   20dfc:	7818      	ldrb	r0, [r3, #0]
   20dfe:	785b      	ldrb	r3, [r3, #1]
   20e00:	021b      	lsls	r3, r3, #8
   20e02:	1818      	adds	r0, r3, r0
   20e04:	8010      	strh	r0, [r2, #0]
   20e06:	980c      	ldr	r0, [sp, #48]	@ 0x30
   20e08:	6d40      	ldr	r0, [r0, #84]	@ 0x54
   20e0a:	900f      	str	r0, [sp, #60]	@ 0x3c
   20e0c:	3108      	adds	r1, #8
   20e0e:	a89f      	add	r0, sp, #636	@ 0x27c
   20e10:	2241      	movs	r2, #65	@ 0x41
   20e12:	f007 f904 	bl	2801e <__aeabi_memcpy4>
   20e16:	48c6      	ldr	r0, [pc, #792]	@ (21130 <_start+0xb2c>)
   20e18:	4468      	add	r0, sp
   20e1a:	7802      	ldrb	r2, [r0, #0]
   20e1c:	2a02      	cmp	r2, #2
   20e1e:	d003      	beq.n	20e28 <_start+0x824>
   20e20:	2108      	movs	r1, #8
   20e22:	4620      	mov	r0, r4
   20e24:	f007 f88e 	bl	27f44 <_ZN9allow_pin12dynamic_type7unshare17ha4091652f9b609c4E>
   20e28:	48c0      	ldr	r0, [pc, #768]	@ (2112c <_start+0xb28>)
   20e2a:	4468      	add	r0, sp
   20e2c:	7802      	ldrb	r2, [r0, #0]
   20e2e:	2a02      	cmp	r2, #2
   20e30:	d003      	beq.n	20e3a <_start+0x836>
   20e32:	2103      	movs	r1, #3
   20e34:	4620      	mov	r0, r4
   20e36:	f007 f885 	bl	27f44 <_ZN9allow_pin12dynamic_type7unshare17ha4091652f9b609c4E>
   20e3a:	2e00      	cmp	r6, #0
   20e3c:	d001      	beq.n	20e42 <_start+0x83e>
   20e3e:	f001 f988 	bl	22152 <_start+0x1b4e>
   20e42:	4dbb      	ldr	r5, [pc, #748]	@ (21130 <_start+0xb2c>)
   20e44:	446d      	add	r5, sp
   20e46:	1c68      	adds	r0, r5, #1
   20e48:	9008      	str	r0, [sp, #32]
   20e4a:	a9c9      	add	r1, sp, #804	@ 0x324
   20e4c:	2203      	movs	r2, #3
   20e4e:	9206      	str	r2, [sp, #24]
   20e50:	f007 fa45 	bl	282de <__aeabi_memcpy>
   20e54:	aeff      	add	r6, sp, #1020	@ 0x3fc
   20e56:	36a4      	adds	r6, #164	@ 0xa4
   20e58:	a99f      	add	r1, sp, #636	@ 0x27c
   20e5a:	2441      	movs	r4, #65	@ 0x41
   20e5c:	4630      	mov	r0, r6
   20e5e:	4622      	mov	r2, r4
   20e60:	f007 f8dd 	bl	2801e <__aeabi_memcpy4>
   20e64:	4628      	mov	r0, r5
   20e66:	3008      	adds	r0, #8
   20e68:	4631      	mov	r1, r6
   20e6a:	4622      	mov	r2, r4
   20e6c:	f007 f8d7 	bl	2801e <__aeabi_memcpy4>
   20e70:	9e0e      	ldr	r6, [sp, #56]	@ 0x38
   20e72:	702e      	strb	r6, [r5, #0]
   20e74:	980c      	ldr	r0, [sp, #48]	@ 0x30
   20e76:	990f      	ldr	r1, [sp, #60]	@ 0x3c
   20e78:	6541      	str	r1, [r0, #84]	@ 0x54
   20e7a:	acff      	add	r4, sp, #1020	@ 0x3fc
   20e7c:	34a4      	adds	r4, #164	@ 0xa4
   20e7e:	1c65      	adds	r5, r4, #1
   20e80:	210f      	movs	r1, #15
   20e82:	4628      	mov	r0, r5
   20e84:	f007 f86b 	bl	27f5e <__aeabi_memclr>
   20e88:	7026      	strb	r6, [r4, #0]
   20e8a:	9e0d      	ldr	r6, [sp, #52]	@ 0x34
   20e8c:	9600      	str	r6, [sp, #0]
   20e8e:	4ca9      	ldr	r4, [pc, #676]	@ (21134 <_start+0xb30>)
   20e90:	2108      	movs	r1, #8
   20e92:	2348      	movs	r3, #72	@ 0x48
   20e94:	4620      	mov	r0, r4
   20e96:	9a08      	ldr	r2, [sp, #32]
   20e98:	f7ff fa00 	bl	2029c <_ZN9allow_pin12dynamic_type11allow_inner17hf1099571477a6939E>
   20e9c:	07c0      	lsls	r0, r0, #31
   20e9e:	d118      	bne.n	20ed2 <_start+0x8ce>
   20ea0:	48a3      	ldr	r0, [pc, #652]	@ (21130 <_start+0xb2c>)
   20ea2:	4468      	add	r0, sp
   20ea4:	7006      	strb	r6, [r0, #0]
   20ea6:	9806      	ldr	r0, [sp, #24]
   20ea8:	9000      	str	r0, [sp, #0]
   20eaa:	2109      	movs	r1, #9
   20eac:	230f      	movs	r3, #15
   20eae:	4620      	mov	r0, r4
   20eb0:	462a      	mov	r2, r5
   20eb2:	f7ff f9f3 	bl	2029c <_ZN9allow_pin12dynamic_type11allow_inner17hf1099571477a6939E>
   20eb6:	07c0      	lsls	r0, r0, #31
   20eb8:	d10b      	bne.n	20ed2 <_start+0x8ce>
   20eba:	a8ff      	add	r0, sp, #1020	@ 0x3fc
   20ebc:	30a4      	adds	r0, #164	@ 0xa4
   20ebe:	9906      	ldr	r1, [sp, #24]
   20ec0:	7001      	strb	r1, [r0, #0]
   20ec2:	489c      	ldr	r0, [pc, #624]	@ (21134 <_start+0xb30>)
   20ec4:	2108      	movs	r1, #8
   20ec6:	2209      	movs	r2, #9
   20ec8:	2300      	movs	r3, #0
   20eca:	461c      	mov	r4, r3
   20ecc:	df02      	svc	2
   20ece:	287f      	cmp	r0, #127	@ 0x7f
   20ed0:	d86c      	bhi.n	20fac <_start+0x9a8>
   20ed2:	910f      	str	r1, [sp, #60]	@ 0x3c
   20ed4:	9c0b      	ldr	r4, [sp, #44]	@ 0x2c
   20ed6:	a8ff      	add	r0, sp, #1020	@ 0x3fc
   20ed8:	30a4      	adds	r0, #164	@ 0xa4
   20eda:	7802      	ldrb	r2, [r0, #0]
   20edc:	2a02      	cmp	r2, #2
   20ede:	d003      	beq.n	20ee8 <_start+0x8e4>
   20ee0:	2109      	movs	r1, #9
   20ee2:	4894      	ldr	r0, [pc, #592]	@ (21134 <_start+0xb30>)
   20ee4:	f007 f82e 	bl	27f44 <_ZN9allow_pin12dynamic_type7unshare17ha4091652f9b609c4E>
   20ee8:	4891      	ldr	r0, [pc, #580]	@ (21130 <_start+0xb2c>)
   20eea:	4468      	add	r0, sp
   20eec:	7802      	ldrb	r2, [r0, #0]
   20eee:	2a02      	cmp	r2, #2
   20ef0:	d003      	beq.n	20efa <_start+0x8f6>
   20ef2:	2108      	movs	r1, #8
   20ef4:	488f      	ldr	r0, [pc, #572]	@ (21134 <_start+0xb30>)
   20ef6:	f007 f825 	bl	27f44 <_ZN9allow_pin12dynamic_type7unshare17ha4091652f9b609c4E>
   20efa:	2c00      	cmp	r4, #0
   20efc:	d001      	beq.n	20f02 <_start+0x8fe>
   20efe:	f001 f928 	bl	22152 <_start+0x1b4e>
   20f02:	acff      	add	r4, sp, #1020	@ 0x3fc
   20f04:	34a4      	adds	r4, #164	@ 0xa4
   20f06:	1c60      	adds	r0, r4, #1
   20f08:	9008      	str	r0, [sp, #32]
   20f0a:	a99f      	add	r1, sp, #636	@ 0x27c
   20f0c:	2203      	movs	r2, #3
   20f0e:	9206      	str	r2, [sp, #24]
   20f10:	f007 f9e5 	bl	282de <__aeabi_memcpy>
   20f14:	0e28      	lsrs	r0, r5, #24
   20f16:	73e0      	strb	r0, [r4, #15]
   20f18:	0c28      	lsrs	r0, r5, #16
   20f1a:	73a0      	strb	r0, [r4, #14]
   20f1c:	0a28      	lsrs	r0, r5, #8
   20f1e:	7360      	strb	r0, [r4, #13]
   20f20:	7325      	strb	r5, [r4, #12]
   20f22:	9905      	ldr	r1, [sp, #20]
   20f24:	0e08      	lsrs	r0, r1, #24
   20f26:	72e0      	strb	r0, [r4, #11]
   20f28:	0c08      	lsrs	r0, r1, #16
   20f2a:	72a0      	strb	r0, [r4, #10]
   20f2c:	0a08      	lsrs	r0, r1, #8
   20f2e:	7260      	strb	r0, [r4, #9]
   20f30:	7221      	strb	r1, [r4, #8]
   20f32:	990f      	ldr	r1, [sp, #60]	@ 0x3c
   20f34:	0e08      	lsrs	r0, r1, #24
   20f36:	71e0      	strb	r0, [r4, #7]
   20f38:	0c08      	lsrs	r0, r1, #16
   20f3a:	71a0      	strb	r0, [r4, #6]
   20f3c:	0a08      	lsrs	r0, r1, #8
   20f3e:	7160      	strb	r0, [r4, #5]
   20f40:	7121      	strb	r1, [r4, #4]
   20f42:	9d0e      	ldr	r5, [sp, #56]	@ 0x38
   20f44:	7025      	strb	r5, [r4, #0]
   20f46:	4c7a      	ldr	r4, [pc, #488]	@ (21130 <_start+0xb2c>)
   20f48:	446c      	add	r4, sp
   20f4a:	1c66      	adds	r6, r4, #1
   20f4c:	2125      	movs	r1, #37	@ 0x25
   20f4e:	4630      	mov	r0, r6
   20f50:	f007 f805 	bl	27f5e <__aeabi_memclr>
   20f54:	7025      	strb	r5, [r4, #0]
   20f56:	9c0d      	ldr	r4, [sp, #52]	@ 0x34
   20f58:	9400      	str	r4, [sp, #0]
   20f5a:	20a2      	movs	r0, #162	@ 0xa2
   20f5c:	2108      	movs	r1, #8
   20f5e:	230f      	movs	r3, #15
   20f60:	9a08      	ldr	r2, [sp, #32]
   20f62:	f7ff f99b 	bl	2029c <_ZN9allow_pin12dynamic_type11allow_inner17hf1099571477a6939E>
   20f66:	07c0      	lsls	r0, r0, #31
   20f68:	d002      	beq.n	20f70 <_start+0x96c>
   20f6a:	910f      	str	r1, [sp, #60]	@ 0x3c
   20f6c:	9d0b      	ldr	r5, [sp, #44]	@ 0x2c
   20f6e:	e075      	b.n	2105c <_start+0xa58>
   20f70:	a8ff      	add	r0, sp, #1020	@ 0x3fc
   20f72:	30a4      	adds	r0, #164	@ 0xa4
   20f74:	7004      	strb	r4, [r0, #0]
   20f76:	9d06      	ldr	r5, [sp, #24]
   20f78:	9500      	str	r5, [sp, #0]
   20f7a:	20a2      	movs	r0, #162	@ 0xa2
   20f7c:	2100      	movs	r1, #0
   20f7e:	2325      	movs	r3, #37	@ 0x25
   20f80:	4632      	mov	r2, r6
   20f82:	f7ff f98b 	bl	2029c <_ZN9allow_pin12dynamic_type11allow_inner17hf1099571477a6939E>
   20f86:	07c0      	lsls	r0, r0, #31
   20f88:	9c0b      	ldr	r4, [sp, #44]	@ 0x2c
   20f8a:	d10c      	bne.n	20fa6 <_start+0x9a2>
   20f8c:	960f      	str	r6, [sp, #60]	@ 0x3c
   20f8e:	4868      	ldr	r0, [pc, #416]	@ (21130 <_start+0xb2c>)
   20f90:	4468      	add	r0, sp
   20f92:	462e      	mov	r6, r5
   20f94:	7005      	strb	r5, [r0, #0]
   20f96:	20a2      	movs	r0, #162	@ 0xa2
   20f98:	2108      	movs	r1, #8
   20f9a:	2500      	movs	r5, #0
   20f9c:	462a      	mov	r2, r5
   20f9e:	462b      	mov	r3, r5
   20fa0:	df02      	svc	2
   20fa2:	287f      	cmp	r0, #127	@ 0x7f
   20fa4:	d82d      	bhi.n	21002 <_start+0x9fe>
   20fa6:	910f      	str	r1, [sp, #60]	@ 0x3c
   20fa8:	4625      	mov	r5, r4
   20faa:	e057      	b.n	2105c <_start+0xa58>
   20fac:	4860      	ldr	r0, [pc, #384]	@ (21130 <_start+0xb2c>)
   20fae:	4468      	add	r0, sp
   20fb0:	7802      	ldrb	r2, [r0, #0]
   20fb2:	2a02      	cmp	r2, #2
   20fb4:	9b06      	ldr	r3, [sp, #24]
   20fb6:	d00c      	beq.n	20fd2 <_start+0x9ce>
   20fb8:	2108      	movs	r1, #8
   20fba:	485e      	ldr	r0, [pc, #376]	@ (21134 <_start+0xb30>)
   20fbc:	f006 ffc2 	bl	27f44 <_ZN9allow_pin12dynamic_type7unshare17ha4091652f9b609c4E>
   20fc0:	485b      	ldr	r0, [pc, #364]	@ (21130 <_start+0xb2c>)
   20fc2:	4468      	add	r0, sp
   20fc4:	990e      	ldr	r1, [sp, #56]	@ 0x38
   20fc6:	7001      	strb	r1, [r0, #0]
   20fc8:	a8ff      	add	r0, sp, #1020	@ 0x3fc
   20fca:	30a4      	adds	r0, #164	@ 0xa4
   20fcc:	7803      	ldrb	r3, [r0, #0]
   20fce:	2b02      	cmp	r3, #2
   20fd0:	d004      	beq.n	20fdc <_start+0x9d8>
   20fd2:	2109      	movs	r1, #9
   20fd4:	4857      	ldr	r0, [pc, #348]	@ (21134 <_start+0xb30>)
   20fd6:	461a      	mov	r2, r3
   20fd8:	f006 ffb4 	bl	27f44 <_ZN9allow_pin12dynamic_type7unshare17ha4091652f9b609c4E>
   20fdc:	a8ff      	add	r0, sp, #1020	@ 0x3fc
   20fde:	30a4      	adds	r0, #164	@ 0xa4
   20fe0:	990e      	ldr	r1, [sp, #56]	@ 0x38
   20fe2:	7001      	strb	r1, [r0, #0]
   20fe4:	78a8      	ldrb	r0, [r5, #2]
   20fe6:	a99f      	add	r1, sp, #636	@ 0x27c
   20fe8:	7088      	strb	r0, [r1, #2]
   20fea:	7828      	ldrb	r0, [r5, #0]
   20fec:	786a      	ldrb	r2, [r5, #1]
   20fee:	0212      	lsls	r2, r2, #8
   20ff0:	1810      	adds	r0, r2, r0
   20ff2:	8008      	strh	r0, [r1, #0]
   20ff4:	9809      	ldr	r0, [sp, #36]	@ 0x24
   20ff6:	6801      	ldr	r1, [r0, #0]
   20ff8:	910f      	str	r1, [sp, #60]	@ 0x3c
   20ffa:	6841      	ldr	r1, [r0, #4]
   20ffc:	9105      	str	r1, [sp, #20]
   20ffe:	6885      	ldr	r5, [r0, #8]
   21000:	e769      	b.n	20ed6 <_start+0x8d2>
   21002:	a8ff      	add	r0, sp, #1020	@ 0x3fc
   21004:	30a4      	adds	r0, #164	@ 0xa4
   21006:	7802      	ldrb	r2, [r0, #0]
   21008:	2a02      	cmp	r2, #2
   2100a:	d00c      	beq.n	21026 <_start+0xa22>
   2100c:	20a2      	movs	r0, #162	@ 0xa2
   2100e:	2108      	movs	r1, #8
   21010:	f006 ff98 	bl	27f44 <_ZN9allow_pin12dynamic_type7unshare17ha4091652f9b609c4E>
   21014:	a8ff      	add	r0, sp, #1020	@ 0x3fc
   21016:	30a4      	adds	r0, #164	@ 0xa4
   21018:	990e      	ldr	r1, [sp, #56]	@ 0x38
   2101a:	7001      	strb	r1, [r0, #0]
   2101c:	4844      	ldr	r0, [pc, #272]	@ (21130 <_start+0xb2c>)
   2101e:	4468      	add	r0, sp
   21020:	7806      	ldrb	r6, [r0, #0]
   21022:	2e02      	cmp	r6, #2
   21024:	d004      	beq.n	21030 <_start+0xa2c>
   21026:	20a2      	movs	r0, #162	@ 0xa2
   21028:	2100      	movs	r1, #0
   2102a:	4632      	mov	r2, r6
   2102c:	f006 ff8a 	bl	27f44 <_ZN9allow_pin12dynamic_type7unshare17ha4091652f9b609c4E>
   21030:	493f      	ldr	r1, [pc, #252]	@ (21130 <_start+0xb2c>)
   21032:	4469      	add	r1, sp
   21034:	980e      	ldr	r0, [sp, #56]	@ 0x38
   21036:	7008      	strb	r0, [r1, #0]
   21038:	9e0f      	ldr	r6, [sp, #60]	@ 0x3c
   2103a:	78b0      	ldrb	r0, [r6, #2]
   2103c:	aac9      	add	r2, sp, #804	@ 0x324
   2103e:	7090      	strb	r0, [r2, #2]
   21040:	7830      	ldrb	r0, [r6, #0]
   21042:	7873      	ldrb	r3, [r6, #1]
   21044:	021b      	lsls	r3, r3, #8
   21046:	1818      	adds	r0, r3, r0
   21048:	8010      	strh	r0, [r2, #0]
   2104a:	980c      	ldr	r0, [sp, #48]	@ 0x30
   2104c:	6d40      	ldr	r0, [r0, #84]	@ 0x54
   2104e:	900f      	str	r0, [sp, #60]	@ 0x3c
   21050:	3108      	adds	r1, #8
   21052:	4836      	ldr	r0, [pc, #216]	@ (2112c <_start+0xb28>)
   21054:	4468      	add	r0, sp
   21056:	221e      	movs	r2, #30
   21058:	f007 f941 	bl	282de <__aeabi_memcpy>
   2105c:	4834      	ldr	r0, [pc, #208]	@ (21130 <_start+0xb2c>)
   2105e:	4468      	add	r0, sp
   21060:	7802      	ldrb	r2, [r0, #0]
   21062:	2a02      	cmp	r2, #2
   21064:	d003      	beq.n	2106e <_start+0xa6a>
   21066:	20a2      	movs	r0, #162	@ 0xa2
   21068:	2100      	movs	r1, #0
   2106a:	f006 ff6b 	bl	27f44 <_ZN9allow_pin12dynamic_type7unshare17ha4091652f9b609c4E>
   2106e:	a8ff      	add	r0, sp, #1020	@ 0x3fc
   21070:	30a4      	adds	r0, #164	@ 0xa4
   21072:	7802      	ldrb	r2, [r0, #0]
   21074:	2a02      	cmp	r2, #2
   21076:	d003      	beq.n	21080 <_start+0xa7c>
   21078:	20a2      	movs	r0, #162	@ 0xa2
   2107a:	2108      	movs	r1, #8
   2107c:	f006 ff62 	bl	27f44 <_ZN9allow_pin12dynamic_type7unshare17ha4091652f9b609c4E>
   21080:	2d00      	cmp	r5, #0
   21082:	d001      	beq.n	21088 <_start+0xa84>
   21084:	f001 f865 	bl	22152 <_start+0x1b4e>
   21088:	aeff      	add	r6, sp, #1020	@ 0x3fc
   2108a:	36a4      	adds	r6, #164	@ 0xa4
   2108c:	1c70      	adds	r0, r6, #1
   2108e:	9008      	str	r0, [sp, #32]
   21090:	a9c9      	add	r1, sp, #804	@ 0x324
   21092:	2203      	movs	r2, #3
   21094:	9206      	str	r2, [sp, #24]
   21096:	f007 f922 	bl	282de <__aeabi_memcpy>
   2109a:	ac9f      	add	r4, sp, #636	@ 0x27c
   2109c:	4923      	ldr	r1, [pc, #140]	@ (2112c <_start+0xb28>)
   2109e:	4469      	add	r1, sp
   210a0:	251e      	movs	r5, #30
   210a2:	4620      	mov	r0, r4
   210a4:	462a      	mov	r2, r5
   210a6:	f007 f91a 	bl	282de <__aeabi_memcpy>
   210aa:	4630      	mov	r0, r6
   210ac:	3008      	adds	r0, #8
   210ae:	4621      	mov	r1, r4
   210b0:	462a      	mov	r2, r5
   210b2:	f007 f914 	bl	282de <__aeabi_memcpy>
   210b6:	9d0e      	ldr	r5, [sp, #56]	@ 0x38
   210b8:	7035      	strb	r5, [r6, #0]
   210ba:	9e0d      	ldr	r6, [sp, #52]	@ 0x34
   210bc:	9809      	ldr	r0, [sp, #36]	@ 0x24
   210be:	990f      	ldr	r1, [sp, #60]	@ 0x3c
   210c0:	6001      	str	r1, [r0, #0]
   210c2:	4c1b      	ldr	r4, [pc, #108]	@ (21130 <_start+0xb2c>)
   210c4:	446c      	add	r4, sp
   210c6:	1c60      	adds	r0, r4, #1
   210c8:	212a      	movs	r1, #42	@ 0x2a
   210ca:	900f      	str	r0, [sp, #60]	@ 0x3c
   210cc:	f006 ff47 	bl	27f5e <__aeabi_memclr>
   210d0:	7025      	strb	r5, [r4, #0]
   210d2:	9600      	str	r6, [sp, #0]
   210d4:	4c18      	ldr	r4, [pc, #96]	@ (21138 <_start+0xb34>)
   210d6:	341f      	adds	r4, #31
   210d8:	2100      	movs	r1, #0
   210da:	2325      	movs	r3, #37	@ 0x25
   210dc:	4620      	mov	r0, r4
   210de:	9a08      	ldr	r2, [sp, #32]
   210e0:	f7ff f8dc 	bl	2029c <_ZN9allow_pin12dynamic_type11allow_inner17hf1099571477a6939E>
   210e4:	07c0      	lsls	r0, r0, #31
   210e6:	d002      	beq.n	210ee <_start+0xaea>
   210e8:	910f      	str	r1, [sp, #60]	@ 0x3c
   210ea:	9e0b      	ldr	r6, [sp, #44]	@ 0x2c
   210ec:	e056      	b.n	2119c <_start+0xb98>
   210ee:	a8ff      	add	r0, sp, #1020	@ 0x3fc
   210f0:	30a4      	adds	r0, #164	@ 0xa4
   210f2:	7006      	strb	r6, [r0, #0]
   210f4:	9d06      	ldr	r5, [sp, #24]
   210f6:	9500      	str	r5, [sp, #0]
   210f8:	232a      	movs	r3, #42	@ 0x2a
   210fa:	4620      	mov	r0, r4
   210fc:	4629      	mov	r1, r5
   210fe:	9a0f      	ldr	r2, [sp, #60]	@ 0x3c
   21100:	f7ff f8cc 	bl	2029c <_ZN9allow_pin12dynamic_type11allow_inner17hf1099571477a6939E>
   21104:	07c0      	lsls	r0, r0, #31
   21106:	9e0b      	ldr	r6, [sp, #44]	@ 0x2c
   21108:	d001      	beq.n	2110e <_start+0xb0a>
   2110a:	910f      	str	r1, [sp, #60]	@ 0x3c
   2110c:	e046      	b.n	2119c <_start+0xb98>
   2110e:	462a      	mov	r2, r5
   21110:	4635      	mov	r5, r6
   21112:	4807      	ldr	r0, [pc, #28]	@ (21130 <_start+0xb2c>)
   21114:	4468      	add	r0, sp
   21116:	7002      	strb	r2, [r0, #0]
   21118:	4808      	ldr	r0, [pc, #32]	@ (2113c <_start+0xb38>)
   2111a:	2600      	movs	r6, #0
   2111c:	4631      	mov	r1, r6
   2111e:	4633      	mov	r3, r6
   21120:	df02      	svc	2
   21122:	287f      	cmp	r0, #127	@ 0x7f
   21124:	d80c      	bhi.n	21140 <_start+0xb3c>
   21126:	910f      	str	r1, [sp, #60]	@ 0x3c
   21128:	462e      	mov	r6, r5
   2112a:	e037      	b.n	2119c <_start+0xb98>
   2112c:	00000558 	.word	0x00000558
   21130:	000005a8 	.word	0x000005a8
   21134:	0000111d 	.word	0x0000111d
   21138:	0000091d 	.word	0x0000091d
   2113c:	0000093c 	.word	0x0000093c
   21140:	a8ff      	add	r0, sp, #1020	@ 0x3fc
   21142:	30a4      	adds	r0, #164	@ 0xa4
   21144:	7802      	ldrb	r2, [r0, #0]
   21146:	2a02      	cmp	r2, #2
   21148:	d00d      	beq.n	21166 <_start+0xb62>
   2114a:	2100      	movs	r1, #0
   2114c:	4620      	mov	r0, r4
   2114e:	f006 fef9 	bl	27f44 <_ZN9allow_pin12dynamic_type7unshare17ha4091652f9b609c4E>
   21152:	a8ff      	add	r0, sp, #1020	@ 0x3fc
   21154:	30a4      	adds	r0, #164	@ 0xa4
   21156:	990e      	ldr	r1, [sp, #56]	@ 0x38
   21158:	7001      	strb	r1, [r0, #0]
   2115a:	48eb      	ldr	r0, [pc, #940]	@ (21508 <_start+0xf04>)
   2115c:	4468      	add	r0, sp
   2115e:	7800      	ldrb	r0, [r0, #0]
   21160:	9006      	str	r0, [sp, #24]
   21162:	2802      	cmp	r0, #2
   21164:	d004      	beq.n	21170 <_start+0xb6c>
   21166:	2103      	movs	r1, #3
   21168:	4620      	mov	r0, r4
   2116a:	9a06      	ldr	r2, [sp, #24]
   2116c:	f006 feea 	bl	27f44 <_ZN9allow_pin12dynamic_type7unshare17ha4091652f9b609c4E>
   21170:	49f8      	ldr	r1, [pc, #992]	@ (21554 <_start+0xf50>)
   21172:	4469      	add	r1, sp
   21174:	980e      	ldr	r0, [sp, #56]	@ 0x38
   21176:	7008      	strb	r0, [r1, #0]
   21178:	9b0f      	ldr	r3, [sp, #60]	@ 0x3c
   2117a:	7898      	ldrb	r0, [r3, #2]
   2117c:	aaff      	add	r2, sp, #1020	@ 0x3fc
   2117e:	328c      	adds	r2, #140	@ 0x8c
   21180:	7090      	strb	r0, [r2, #2]
   21182:	7818      	ldrb	r0, [r3, #0]
   21184:	785b      	ldrb	r3, [r3, #1]
   21186:	021b      	lsls	r3, r3, #8
   21188:	1818      	adds	r0, r3, r0
   2118a:	8010      	strh	r0, [r2, #0]
   2118c:	980c      	ldr	r0, [sp, #48]	@ 0x30
   2118e:	6d40      	ldr	r0, [r0, #84]	@ 0x54
   21190:	900f      	str	r0, [sp, #60]	@ 0x3c
   21192:	3108      	adds	r1, #8
   21194:	a8c9      	add	r0, sp, #804	@ 0x324
   21196:	2223      	movs	r2, #35	@ 0x23
   21198:	f007 f8a1 	bl	282de <__aeabi_memcpy>
   2119c:	48ed      	ldr	r0, [pc, #948]	@ (21554 <_start+0xf50>)
   2119e:	4468      	add	r0, sp
   211a0:	7802      	ldrb	r2, [r0, #0]
   211a2:	2a02      	cmp	r2, #2
   211a4:	d003      	beq.n	211ae <_start+0xbaa>
   211a6:	2103      	movs	r1, #3
   211a8:	4620      	mov	r0, r4
   211aa:	f006 fecb 	bl	27f44 <_ZN9allow_pin12dynamic_type7unshare17ha4091652f9b609c4E>
   211ae:	a8ff      	add	r0, sp, #1020	@ 0x3fc
   211b0:	30a4      	adds	r0, #164	@ 0xa4
   211b2:	7802      	ldrb	r2, [r0, #0]
   211b4:	2a02      	cmp	r2, #2
   211b6:	d003      	beq.n	211c0 <_start+0xbbc>
   211b8:	2100      	movs	r1, #0
   211ba:	4620      	mov	r0, r4
   211bc:	f006 fec2 	bl	27f44 <_ZN9allow_pin12dynamic_type7unshare17ha4091652f9b609c4E>
   211c0:	2e00      	cmp	r6, #0
   211c2:	d001      	beq.n	211c8 <_start+0xbc4>
   211c4:	f000 ffc5 	bl	22152 <_start+0x1b4e>
   211c8:	ad9f      	add	r5, sp, #636	@ 0x27c
   211ca:	1c68      	adds	r0, r5, #1
   211cc:	9008      	str	r0, [sp, #32]
   211ce:	a9ff      	add	r1, sp, #1020	@ 0x3fc
   211d0:	318c      	adds	r1, #140	@ 0x8c
   211d2:	2203      	movs	r2, #3
   211d4:	9206      	str	r2, [sp, #24]
   211d6:	f007 f882 	bl	282de <__aeabi_memcpy>
   211da:	4cdf      	ldr	r4, [pc, #892]	@ (21558 <_start+0xf54>)
   211dc:	446c      	add	r4, sp
   211de:	a9c9      	add	r1, sp, #804	@ 0x324
   211e0:	2623      	movs	r6, #35	@ 0x23
   211e2:	4620      	mov	r0, r4
   211e4:	4632      	mov	r2, r6
   211e6:	f007 f87a 	bl	282de <__aeabi_memcpy>
   211ea:	4628      	mov	r0, r5
   211ec:	3008      	adds	r0, #8
   211ee:	4621      	mov	r1, r4
   211f0:	4632      	mov	r2, r6
   211f2:	f007 f874 	bl	282de <__aeabi_memcpy>
   211f6:	9e0e      	ldr	r6, [sp, #56]	@ 0x38
   211f8:	702e      	strb	r6, [r5, #0]
   211fa:	980f      	ldr	r0, [sp, #60]	@ 0x3c
   211fc:	90a0      	str	r0, [sp, #640]	@ 0x280
   211fe:	4cd5      	ldr	r4, [pc, #852]	@ (21554 <_start+0xf50>)
   21200:	446c      	add	r4, sp
   21202:	1c65      	adds	r5, r4, #1
   21204:	2163      	movs	r1, #99	@ 0x63
   21206:	4628      	mov	r0, r5
   21208:	f006 fea9 	bl	27f5e <__aeabi_memclr>
   2120c:	7026      	strb	r6, [r4, #0]
   2120e:	9e0d      	ldr	r6, [sp, #52]	@ 0x34
   21210:	9600      	str	r6, [sp, #0]
   21212:	4cd2      	ldr	r4, [pc, #840]	@ (2155c <_start+0xf58>)
   21214:	34a6      	adds	r4, #166	@ 0xa6
   21216:	232a      	movs	r3, #42	@ 0x2a
   21218:	4620      	mov	r0, r4
   2121a:	4631      	mov	r1, r6
   2121c:	9a08      	ldr	r2, [sp, #32]
   2121e:	f7ff f83d 	bl	2029c <_ZN9allow_pin12dynamic_type11allow_inner17hf1099571477a6939E>
   21222:	07c0      	lsls	r0, r0, #31
   21224:	d117      	bne.n	21256 <_start+0xc52>
   21226:	a89f      	add	r0, sp, #636	@ 0x27c
   21228:	7006      	strb	r6, [r0, #0]
   2122a:	9e06      	ldr	r6, [sp, #24]
   2122c:	9600      	str	r6, [sp, #0]
   2122e:	2100      	movs	r1, #0
   21230:	2363      	movs	r3, #99	@ 0x63
   21232:	4620      	mov	r0, r4
   21234:	462a      	mov	r2, r5
   21236:	f7ff f831 	bl	2029c <_ZN9allow_pin12dynamic_type11allow_inner17hf1099571477a6939E>
   2123a:	07c0      	lsls	r0, r0, #31
   2123c:	d10b      	bne.n	21256 <_start+0xc52>
   2123e:	48c5      	ldr	r0, [pc, #788]	@ (21554 <_start+0xf50>)
   21240:	4468      	add	r0, sp
   21242:	7006      	strb	r6, [r0, #0]
   21244:	48c6      	ldr	r0, [pc, #792]	@ (21560 <_start+0xf5c>)
   21246:	2104      	movs	r1, #4
   21248:	2600      	movs	r6, #0
   2124a:	4632      	mov	r2, r6
   2124c:	4633      	mov	r3, r6
   2124e:	df02      	svc	2
   21250:	287f      	cmp	r0, #127	@ 0x7f
   21252:	d900      	bls.n	21256 <_start+0xc52>
   21254:	e0f0      	b.n	21438 <_start+0xe34>
   21256:	910f      	str	r1, [sp, #60]	@ 0x3c
   21258:	9e0b      	ldr	r6, [sp, #44]	@ 0x2c
   2125a:	48be      	ldr	r0, [pc, #760]	@ (21554 <_start+0xf50>)
   2125c:	4468      	add	r0, sp
   2125e:	7802      	ldrb	r2, [r0, #0]
   21260:	2a02      	cmp	r2, #2
   21262:	d003      	beq.n	2126c <_start+0xc68>
   21264:	2100      	movs	r1, #0
   21266:	4620      	mov	r0, r4
   21268:	f006 fe6c 	bl	27f44 <_ZN9allow_pin12dynamic_type7unshare17ha4091652f9b609c4E>
   2126c:	a89f      	add	r0, sp, #636	@ 0x27c
   2126e:	7802      	ldrb	r2, [r0, #0]
   21270:	2a02      	cmp	r2, #2
   21272:	d003      	beq.n	2127c <_start+0xc78>
   21274:	2104      	movs	r1, #4
   21276:	4620      	mov	r0, r4
   21278:	f006 fe64 	bl	27f44 <_ZN9allow_pin12dynamic_type7unshare17ha4091652f9b609c4E>
   2127c:	2e00      	cmp	r6, #0
   2127e:	d001      	beq.n	21284 <_start+0xc80>
   21280:	f000 ff67 	bl	22152 <_start+0x1b4e>
   21284:	4cb3      	ldr	r4, [pc, #716]	@ (21554 <_start+0xf50>)
   21286:	446c      	add	r4, sp
   21288:	1c60      	adds	r0, r4, #1
   2128a:	9008      	str	r0, [sp, #32]
   2128c:	49b2      	ldr	r1, [pc, #712]	@ (21558 <_start+0xf54>)
   2128e:	4469      	add	r1, sp
   21290:	2203      	movs	r2, #3
   21292:	9206      	str	r2, [sp, #24]
   21294:	f007 f823 	bl	282de <__aeabi_memcpy>
   21298:	ad10      	add	r5, sp, #64	@ 0x40
   2129a:	a9ff      	add	r1, sp, #1020	@ 0x3fc
   2129c:	31a4      	adds	r1, #164	@ 0xa4
   2129e:	265c      	movs	r6, #92	@ 0x5c
   212a0:	4628      	mov	r0, r5
   212a2:	4632      	mov	r2, r6
   212a4:	f006 febb 	bl	2801e <__aeabi_memcpy4>
   212a8:	980e      	ldr	r0, [sp, #56]	@ 0x38
   212aa:	7020      	strb	r0, [r4, #0]
   212ac:	980c      	ldr	r0, [sp, #48]	@ 0x30
   212ae:	990f      	ldr	r1, [sp, #60]	@ 0x3c
   212b0:	6541      	str	r1, [r0, #84]	@ 0x54
   212b2:	3408      	adds	r4, #8
   212b4:	4620      	mov	r0, r4
   212b6:	4629      	mov	r1, r5
   212b8:	4632      	mov	r2, r6
   212ba:	9e0d      	ldr	r6, [sp, #52]	@ 0x34
   212bc:	f006 feaf 	bl	2801e <__aeabi_memcpy4>
   212c0:	acff      	add	r4, sp, #1020	@ 0x3fc
   212c2:	34a4      	adds	r4, #164	@ 0xa4
   212c4:	1c65      	adds	r5, r4, #1
   212c6:	2127      	movs	r1, #39	@ 0x27
   212c8:	4628      	mov	r0, r5
   212ca:	f006 fe48 	bl	27f5e <__aeabi_memclr>
   212ce:	980e      	ldr	r0, [sp, #56]	@ 0x38
   212d0:	7020      	strb	r0, [r4, #0]
   212d2:	9600      	str	r6, [sp, #0]
   212d4:	4ca3      	ldr	r4, [pc, #652]	@ (21564 <_start+0xf60>)
   212d6:	3409      	adds	r4, #9
   212d8:	2107      	movs	r1, #7
   212da:	2363      	movs	r3, #99	@ 0x63
   212dc:	4620      	mov	r0, r4
   212de:	9a08      	ldr	r2, [sp, #32]
   212e0:	f7fe ffdc 	bl	2029c <_ZN9allow_pin12dynamic_type11allow_inner17hf1099571477a6939E>
   212e4:	07c0      	lsls	r0, r0, #31
   212e6:	d10d      	bne.n	21304 <_start+0xd00>
   212e8:	489a      	ldr	r0, [pc, #616]	@ (21554 <_start+0xf50>)
   212ea:	4468      	add	r0, sp
   212ec:	7006      	strb	r6, [r0, #0]
   212ee:	9e06      	ldr	r6, [sp, #24]
   212f0:	9600      	str	r6, [sp, #0]
   212f2:	2100      	movs	r1, #0
   212f4:	2327      	movs	r3, #39	@ 0x27
   212f6:	4620      	mov	r0, r4
   212f8:	462a      	mov	r2, r5
   212fa:	f7fe ffcf 	bl	2029c <_ZN9allow_pin12dynamic_type11allow_inner17hf1099571477a6939E>
   212fe:	07c0      	lsls	r0, r0, #31
   21300:	d100      	bne.n	21304 <_start+0xd00>
   21302:	e0c6      	b.n	21492 <_start+0xe8e>
   21304:	910f      	str	r1, [sp, #60]	@ 0x3c
   21306:	9d0b      	ldr	r5, [sp, #44]	@ 0x2c
   21308:	a8ff      	add	r0, sp, #1020	@ 0x3fc
   2130a:	30a4      	adds	r0, #164	@ 0xa4
   2130c:	7802      	ldrb	r2, [r0, #0]
   2130e:	2a02      	cmp	r2, #2
   21310:	d003      	beq.n	2131a <_start+0xd16>
   21312:	2100      	movs	r1, #0
   21314:	4620      	mov	r0, r4
   21316:	f006 fe15 	bl	27f44 <_ZN9allow_pin12dynamic_type7unshare17ha4091652f9b609c4E>
   2131a:	488e      	ldr	r0, [pc, #568]	@ (21554 <_start+0xf50>)
   2131c:	4468      	add	r0, sp
   2131e:	7802      	ldrb	r2, [r0, #0]
   21320:	2a02      	cmp	r2, #2
   21322:	d003      	beq.n	2132c <_start+0xd28>
   21324:	2107      	movs	r1, #7
   21326:	4620      	mov	r0, r4
   21328:	f006 fe0c 	bl	27f44 <_ZN9allow_pin12dynamic_type7unshare17ha4091652f9b609c4E>
   2132c:	2d00      	cmp	r5, #0
   2132e:	d001      	beq.n	21334 <_start+0xd30>
   21330:	f000 ff0f 	bl	22152 <_start+0x1b4e>
   21334:	4c87      	ldr	r4, [pc, #540]	@ (21554 <_start+0xf50>)
   21336:	446c      	add	r4, sp
   21338:	1c60      	adds	r0, r4, #1
   2133a:	4987      	ldr	r1, [pc, #540]	@ (21558 <_start+0xf54>)
   2133c:	4469      	add	r1, sp
   2133e:	2203      	movs	r2, #3
   21340:	f006 ffcd 	bl	282de <__aeabi_memcpy>
   21344:	ad27      	add	r5, sp, #156	@ 0x9c
   21346:	a99f      	add	r1, sp, #636	@ 0x27c
   21348:	2620      	movs	r6, #32
   2134a:	4628      	mov	r0, r5
   2134c:	4632      	mov	r2, r6
   2134e:	f006 ffc6 	bl	282de <__aeabi_memcpy>
   21352:	980e      	ldr	r0, [sp, #56]	@ 0x38
   21354:	7020      	strb	r0, [r4, #0]
   21356:	980c      	ldr	r0, [sp, #48]	@ 0x30
   21358:	990f      	ldr	r1, [sp, #60]	@ 0x3c
   2135a:	6541      	str	r1, [r0, #84]	@ 0x54
   2135c:	4620      	mov	r0, r4
   2135e:	3008      	adds	r0, #8
   21360:	4629      	mov	r1, r5
   21362:	4632      	mov	r2, r6
   21364:	f006 ffbb 	bl	282de <__aeabi_memcpy>
   21368:	aeff      	add	r6, sp, #1020	@ 0x3fc
   2136a:	36a4      	adds	r6, #164	@ 0xa4
   2136c:	1c75      	adds	r5, r6, #1
   2136e:	211e      	movs	r1, #30
   21370:	4628      	mov	r0, r5
   21372:	f006 fdf4 	bl	27f5e <__aeabi_memclr>
   21376:	980e      	ldr	r0, [sp, #56]	@ 0x38
   21378:	7030      	strb	r0, [r6, #0]
   2137a:	2127      	movs	r1, #39	@ 0x27
   2137c:	2204      	movs	r2, #4
   2137e:	4620      	mov	r0, r4
   21380:	920d      	str	r2, [sp, #52]	@ 0x34
   21382:	f7fe ffcf 	bl	20324 <_ZN9allow_pin12dynamic_type23Buffer$LT$B$C$_$C$_$GT$5allow17h613454ee5bb6310eE>
   21386:	07c0      	lsls	r0, r0, #31
   21388:	d108      	bne.n	2139c <_start+0xd98>
   2138a:	a8ff      	add	r0, sp, #1020	@ 0x3fc
   2138c:	30a4      	adds	r0, #164	@ 0xa4
   2138e:	211e      	movs	r1, #30
   21390:	2203      	movs	r2, #3
   21392:	f7fe ffc7 	bl	20324 <_ZN9allow_pin12dynamic_type23Buffer$LT$B$C$_$C$_$GT$5allow17h613454ee5bb6310eE>
   21396:	07c0      	lsls	r0, r0, #31
   21398:	d100      	bne.n	2139c <_start+0xd98>
   2139a:	e0b7      	b.n	2150c <_start+0xf08>
   2139c:	910f      	str	r1, [sp, #60]	@ 0x3c
   2139e:	9c0b      	ldr	r4, [sp, #44]	@ 0x2c
   213a0:	4d71      	ldr	r5, [pc, #452]	@ (21568 <_start+0xf64>)
   213a2:	a8ff      	add	r0, sp, #1020	@ 0x3fc
   213a4:	30a4      	adds	r0, #164	@ 0xa4
   213a6:	7802      	ldrb	r2, [r0, #0]
   213a8:	2a02      	cmp	r2, #2
   213aa:	d004      	beq.n	213b6 <_start+0xdb2>
   213ac:	4628      	mov	r0, r5
   213ae:	383b      	subs	r0, #59	@ 0x3b
   213b0:	2103      	movs	r1, #3
   213b2:	f006 fdc7 	bl	27f44 <_ZN9allow_pin12dynamic_type7unshare17ha4091652f9b609c4E>
   213b6:	4867      	ldr	r0, [pc, #412]	@ (21554 <_start+0xf50>)
   213b8:	4468      	add	r0, sp
   213ba:	7802      	ldrb	r2, [r0, #0]
   213bc:	2a02      	cmp	r2, #2
   213be:	d004      	beq.n	213ca <_start+0xdc6>
   213c0:	4628      	mov	r0, r5
   213c2:	383b      	subs	r0, #59	@ 0x3b
   213c4:	2103      	movs	r1, #3
   213c6:	f006 fdbd 	bl	27f44 <_ZN9allow_pin12dynamic_type7unshare17ha4091652f9b609c4E>
   213ca:	2c00      	cmp	r4, #0
   213cc:	d001      	beq.n	213d2 <_start+0xdce>
   213ce:	f000 fec0 	bl	22152 <_start+0x1b4e>
   213d2:	4e61      	ldr	r6, [pc, #388]	@ (21558 <_start+0xf54>)
   213d4:	446e      	add	r6, sp
   213d6:	1c70      	adds	r0, r6, #1
   213d8:	9008      	str	r0, [sp, #32]
   213da:	a9ff      	add	r1, sp, #1020	@ 0x3fc
   213dc:	318c      	adds	r1, #140	@ 0x8c
   213de:	2203      	movs	r2, #3
   213e0:	9206      	str	r2, [sp, #24]
   213e2:	f006 ff7c 	bl	282de <__aeabi_memcpy>
   213e6:	ac9f      	add	r4, sp, #636	@ 0x27c
   213e8:	a9c9      	add	r1, sp, #804	@ 0x324
   213ea:	2517      	movs	r5, #23
   213ec:	4620      	mov	r0, r4
   213ee:	462a      	mov	r2, r5
   213f0:	f006 ff75 	bl	282de <__aeabi_memcpy>
   213f4:	4630      	mov	r0, r6
   213f6:	3008      	adds	r0, #8
   213f8:	4621      	mov	r1, r4
   213fa:	462a      	mov	r2, r5
   213fc:	f006 ff6f 	bl	282de <__aeabi_memcpy>
   21400:	9d0e      	ldr	r5, [sp, #56]	@ 0x38
   21402:	7035      	strb	r5, [r6, #0]
   21404:	980f      	ldr	r0, [sp, #60]	@ 0x3c
   21406:	990a      	ldr	r1, [sp, #40]	@ 0x28
   21408:	6008      	str	r0, [r1, #0]
   2140a:	4c52      	ldr	r4, [pc, #328]	@ (21554 <_start+0xf50>)
   2140c:	446c      	add	r4, sp
   2140e:	1c66      	adds	r6, r4, #1
   21410:	212c      	movs	r1, #44	@ 0x2c
   21412:	4630      	mov	r0, r6
   21414:	f006 fda3 	bl	27f5e <__aeabi_memclr>
   21418:	7025      	strb	r5, [r4, #0]
   2141a:	980d      	ldr	r0, [sp, #52]	@ 0x34
   2141c:	9000      	str	r0, [sp, #0]
   2141e:	4c53      	ldr	r4, [pc, #332]	@ (2156c <_start+0xf68>)
   21420:	34cd      	adds	r4, #205	@ 0xcd
   21422:	2107      	movs	r1, #7
   21424:	231e      	movs	r3, #30
   21426:	4620      	mov	r0, r4
   21428:	9a08      	ldr	r2, [sp, #32]
   2142a:	f7fe ff37 	bl	2029c <_ZN9allow_pin12dynamic_type11allow_inner17hf1099571477a6939E>
   2142e:	07c0      	lsls	r0, r0, #31
   21430:	d100      	bne.n	21434 <_start+0xe30>
   21432:	e0a3      	b.n	2157c <_start+0xf78>
   21434:	910f      	str	r1, [sp, #60]	@ 0x3c
   21436:	e0c7      	b.n	215c8 <_start+0xfc4>
   21438:	a89f      	add	r0, sp, #636	@ 0x27c
   2143a:	7802      	ldrb	r2, [r0, #0]
   2143c:	2a02      	cmp	r2, #2
   2143e:	d00c      	beq.n	2145a <_start+0xe56>
   21440:	2104      	movs	r1, #4
   21442:	4620      	mov	r0, r4
   21444:	f006 fd7e 	bl	27f44 <_ZN9allow_pin12dynamic_type7unshare17ha4091652f9b609c4E>
   21448:	a89f      	add	r0, sp, #636	@ 0x27c
   2144a:	990e      	ldr	r1, [sp, #56]	@ 0x38
   2144c:	7001      	strb	r1, [r0, #0]
   2144e:	4841      	ldr	r0, [pc, #260]	@ (21554 <_start+0xf50>)
   21450:	4468      	add	r0, sp
   21452:	7800      	ldrb	r0, [r0, #0]
   21454:	9006      	str	r0, [sp, #24]
   21456:	2802      	cmp	r0, #2
   21458:	d004      	beq.n	21464 <_start+0xe60>
   2145a:	2100      	movs	r1, #0
   2145c:	4620      	mov	r0, r4
   2145e:	9a06      	ldr	r2, [sp, #24]
   21460:	f006 fd70 	bl	27f44 <_ZN9allow_pin12dynamic_type7unshare17ha4091652f9b609c4E>
   21464:	493b      	ldr	r1, [pc, #236]	@ (21554 <_start+0xf50>)
   21466:	4469      	add	r1, sp
   21468:	980e      	ldr	r0, [sp, #56]	@ 0x38
   2146a:	7008      	strb	r0, [r1, #0]
   2146c:	78a8      	ldrb	r0, [r5, #2]
   2146e:	4a3a      	ldr	r2, [pc, #232]	@ (21558 <_start+0xf54>)
   21470:	446a      	add	r2, sp
   21472:	7090      	strb	r0, [r2, #2]
   21474:	7828      	ldrb	r0, [r5, #0]
   21476:	786b      	ldrb	r3, [r5, #1]
   21478:	021b      	lsls	r3, r3, #8
   2147a:	1818      	adds	r0, r3, r0
   2147c:	8010      	strh	r0, [r2, #0]
   2147e:	980c      	ldr	r0, [sp, #48]	@ 0x30
   21480:	6d40      	ldr	r0, [r0, #84]	@ 0x54
   21482:	900f      	str	r0, [sp, #60]	@ 0x3c
   21484:	3108      	adds	r1, #8
   21486:	a8ff      	add	r0, sp, #1020	@ 0x3fc
   21488:	30a4      	adds	r0, #164	@ 0xa4
   2148a:	225c      	movs	r2, #92	@ 0x5c
   2148c:	f006 fdc7 	bl	2801e <__aeabi_memcpy4>
   21490:	e6e3      	b.n	2125a <_start+0xc56>
   21492:	a8ff      	add	r0, sp, #1020	@ 0x3fc
   21494:	30a4      	adds	r0, #164	@ 0xa4
   21496:	7006      	strb	r6, [r0, #0]
   21498:	4835      	ldr	r0, [pc, #212]	@ (21570 <_start+0xf6c>)
   2149a:	2107      	movs	r1, #7
   2149c:	2200      	movs	r2, #0
   2149e:	920d      	str	r2, [sp, #52]	@ 0x34
   214a0:	4613      	mov	r3, r2
   214a2:	df02      	svc	2
   214a4:	910f      	str	r1, [sp, #60]	@ 0x3c
   214a6:	287f      	cmp	r0, #127	@ 0x7f
   214a8:	d800      	bhi.n	214ac <_start+0xea8>
   214aa:	e72c      	b.n	21306 <_start+0xd02>
   214ac:	4829      	ldr	r0, [pc, #164]	@ (21554 <_start+0xf50>)
   214ae:	4468      	add	r0, sp
   214b0:	7802      	ldrb	r2, [r0, #0]
   214b2:	2a02      	cmp	r2, #2
   214b4:	d00c      	beq.n	214d0 <_start+0xecc>
   214b6:	2107      	movs	r1, #7
   214b8:	4620      	mov	r0, r4
   214ba:	f006 fd43 	bl	27f44 <_ZN9allow_pin12dynamic_type7unshare17ha4091652f9b609c4E>
   214be:	4825      	ldr	r0, [pc, #148]	@ (21554 <_start+0xf50>)
   214c0:	4468      	add	r0, sp
   214c2:	990e      	ldr	r1, [sp, #56]	@ 0x38
   214c4:	7001      	strb	r1, [r0, #0]
   214c6:	a8ff      	add	r0, sp, #1020	@ 0x3fc
   214c8:	30a4      	adds	r0, #164	@ 0xa4
   214ca:	7806      	ldrb	r6, [r0, #0]
   214cc:	2e02      	cmp	r6, #2
   214ce:	d004      	beq.n	214da <_start+0xed6>
   214d0:	2100      	movs	r1, #0
   214d2:	4620      	mov	r0, r4
   214d4:	4632      	mov	r2, r6
   214d6:	f006 fd35 	bl	27f44 <_ZN9allow_pin12dynamic_type7unshare17ha4091652f9b609c4E>
   214da:	a9ff      	add	r1, sp, #1020	@ 0x3fc
   214dc:	31a4      	adds	r1, #164	@ 0xa4
   214de:	980e      	ldr	r0, [sp, #56]	@ 0x38
   214e0:	7008      	strb	r0, [r1, #0]
   214e2:	78a8      	ldrb	r0, [r5, #2]
   214e4:	4a1c      	ldr	r2, [pc, #112]	@ (21558 <_start+0xf54>)
   214e6:	446a      	add	r2, sp
   214e8:	7090      	strb	r0, [r2, #2]
   214ea:	7828      	ldrb	r0, [r5, #0]
   214ec:	786b      	ldrb	r3, [r5, #1]
   214ee:	021b      	lsls	r3, r3, #8
   214f0:	1818      	adds	r0, r3, r0
   214f2:	8010      	strh	r0, [r2, #0]
   214f4:	9809      	ldr	r0, [sp, #36]	@ 0x24
   214f6:	6800      	ldr	r0, [r0, #0]
   214f8:	900f      	str	r0, [sp, #60]	@ 0x3c
   214fa:	3108      	adds	r1, #8
   214fc:	a89f      	add	r0, sp, #636	@ 0x27c
   214fe:	2220      	movs	r2, #32
   21500:	f006 feed 	bl	282de <__aeabi_memcpy>
   21504:	9d0d      	ldr	r5, [sp, #52]	@ 0x34
   21506:	e6ff      	b.n	21308 <_start+0xd04>
   21508:	000005a8 	.word	0x000005a8
   2150c:	4819      	ldr	r0, [pc, #100]	@ (21574 <_start+0xf70>)
   2150e:	2103      	movs	r1, #3
   21510:	2400      	movs	r4, #0
   21512:	460a      	mov	r2, r1
   21514:	4623      	mov	r3, r4
   21516:	df02      	svc	2
   21518:	910f      	str	r1, [sp, #60]	@ 0x3c
   2151a:	287f      	cmp	r0, #127	@ 0x7f
   2151c:	d800      	bhi.n	21520 <_start+0xf1c>
   2151e:	e73e      	b.n	2139e <_start+0xd9a>
   21520:	480c      	ldr	r0, [pc, #48]	@ (21554 <_start+0xf50>)
   21522:	4468      	add	r0, sp
   21524:	f7ff f82e 	bl	20584 <_ZN9allow_pin12dynamic_type23Buffer$LT$B$C$_$C$_$GT$7unallow17h88dd120f6e1247f5E>
   21528:	aeff      	add	r6, sp, #1020	@ 0x3fc
   2152a:	36a4      	adds	r6, #164	@ 0xa4
   2152c:	4630      	mov	r0, r6
   2152e:	f7ff f829 	bl	20584 <_ZN9allow_pin12dynamic_type23Buffer$LT$B$C$_$C$_$GT$7unallow17h88dd120f6e1247f5E>
   21532:	4911      	ldr	r1, [pc, #68]	@ (21578 <_start+0xf74>)
   21534:	1dca      	adds	r2, r1, #7
   21536:	7830      	ldrb	r0, [r6, #0]
   21538:	3608      	adds	r6, #8
   2153a:	2802      	cmp	r0, #2
   2153c:	d000      	beq.n	21540 <_start+0xf3c>
   2153e:	4616      	mov	r6, r2
   21540:	d000      	beq.n	21544 <_start+0xf40>
   21542:	460d      	mov	r5, r1
   21544:	2802      	cmp	r0, #2
   21546:	d101      	bne.n	2154c <_start+0xf48>
   21548:	f000 fe0a 	bl	22160 <_start+0x1b5c>
   2154c:	940f      	str	r4, [sp, #60]	@ 0x3c
   2154e:	f000 fe0a 	bl	22166 <_start+0x1b62>
   21552:	46c0      	nop			@ (mov r8, r8)
   21554:	000005a8 	.word	0x000005a8
   21558:	00000558 	.word	0x00000558
   2155c:	00001bd6 	.word	0x00001bd6
   21560:	00001c7c 	.word	0x00001c7c
   21564:	00001e4b 	.word	0x00001e4b
   21568:	0000111d 	.word	0x0000111d
   2156c:	0000032e 	.word	0x0000032e
   21570:	00001e54 	.word	0x00001e54
   21574:	000010e2 	.word	0x000010e2
   21578:	00010167 	.word	0x00010167
   2157c:	4808      	ldr	r0, [pc, #32]	@ (215a0 <_start+0xf9c>)
   2157e:	4468      	add	r0, sp
   21580:	990d      	ldr	r1, [sp, #52]	@ 0x34
   21582:	7001      	strb	r1, [r0, #0]
   21584:	9806      	ldr	r0, [sp, #24]
   21586:	4605      	mov	r5, r0
   21588:	9000      	str	r0, [sp, #0]
   2158a:	2100      	movs	r1, #0
   2158c:	232c      	movs	r3, #44	@ 0x2c
   2158e:	4620      	mov	r0, r4
   21590:	4632      	mov	r2, r6
   21592:	f7fe fe83 	bl	2029c <_ZN9allow_pin12dynamic_type11allow_inner17hf1099571477a6939E>
   21596:	910f      	str	r1, [sp, #60]	@ 0x3c
   21598:	07c0      	lsls	r0, r0, #31
   2159a:	d115      	bne.n	215c8 <_start+0xfc4>
   2159c:	e002      	b.n	215a4 <_start+0xfa0>
   2159e:	46c0      	nop			@ (mov r8, r8)
   215a0:	00000558 	.word	0x00000558
   215a4:	4806      	ldr	r0, [pc, #24]	@ (215c0 <_start+0xfbc>)
   215a6:	4468      	add	r0, sp
   215a8:	7005      	strb	r5, [r0, #0]
   215aa:	4806      	ldr	r0, [pc, #24]	@ (215c4 <_start+0xfc0>)
   215ac:	2107      	movs	r1, #7
   215ae:	2200      	movs	r2, #0
   215b0:	9208      	str	r2, [sp, #32]
   215b2:	4613      	mov	r3, r2
   215b4:	df02      	svc	2
   215b6:	910f      	str	r1, [sp, #60]	@ 0x3c
   215b8:	287f      	cmp	r0, #127	@ 0x7f
   215ba:	d905      	bls.n	215c8 <_start+0xfc4>
   215bc:	f000 fdfa 	bl	221b4 <_start+0x1bb0>
   215c0:	000005a8 	.word	0x000005a8
   215c4:	000003fb 	.word	0x000003fb
   215c8:	9d0b      	ldr	r5, [sp, #44]	@ 0x2c
   215ca:	4803      	ldr	r0, [pc, #12]	@ (215d8 <_start+0xfd4>)
   215cc:	4468      	add	r0, sp
   215ce:	7802      	ldrb	r2, [r0, #0]
   215d0:	2a02      	cmp	r2, #2
   215d2:	d007      	beq.n	215e4 <_start+0xfe0>
   215d4:	e002      	b.n	215dc <_start+0xfd8>
   215d6:	46c0      	nop			@ (mov r8, r8)
   215d8:	000005a8 	.word	0x000005a8
   215dc:	2100      	movs	r1, #0
   215de:	4620      	mov	r0, r4
   215e0:	f006 fcb0 	bl	27f44 <_ZN9allow_pin12dynamic_type7unshare17ha4091652f9b609c4E>
   215e4:	4802      	ldr	r0, [pc, #8]	@ (215f0 <_start+0xfec>)
   215e6:	4468      	add	r0, sp
   215e8:	7802      	ldrb	r2, [r0, #0]
   215ea:	2a02      	cmp	r2, #2
   215ec:	d006      	beq.n	215fc <_start+0xff8>
   215ee:	e001      	b.n	215f4 <_start+0xff0>
   215f0:	00000558 	.word	0x00000558
   215f4:	2107      	movs	r1, #7
   215f6:	4620      	mov	r0, r4
   215f8:	f006 fca4 	bl	27f44 <_ZN9allow_pin12dynamic_type7unshare17ha4091652f9b609c4E>
   215fc:	2d00      	cmp	r5, #0
   215fe:	d001      	beq.n	21604 <_start+0x1000>
   21600:	f000 fda7 	bl	22152 <_start+0x1b4e>
   21604:	4c18      	ldr	r4, [pc, #96]	@ (21668 <_start+0x1064>)
   21606:	446c      	add	r4, sp
   21608:	1c60      	adds	r0, r4, #1
   2160a:	9008      	str	r0, [sp, #32]
   2160c:	a9c9      	add	r1, sp, #804	@ 0x324
   2160e:	2203      	movs	r2, #3
   21610:	9206      	str	r2, [sp, #24]
   21612:	f006 fe64 	bl	282de <__aeabi_memcpy>
   21616:	adff      	add	r5, sp, #1020	@ 0x3fc
   21618:	35a4      	adds	r5, #164	@ 0xa4
   2161a:	a99f      	add	r1, sp, #636	@ 0x27c
   2161c:	2625      	movs	r6, #37	@ 0x25
   2161e:	4628      	mov	r0, r5
   21620:	4632      	mov	r2, r6
   21622:	f006 fe5c 	bl	282de <__aeabi_memcpy>
   21626:	4620      	mov	r0, r4
   21628:	3008      	adds	r0, #8
   2162a:	4629      	mov	r1, r5
   2162c:	4632      	mov	r2, r6
   2162e:	f006 fe56 	bl	282de <__aeabi_memcpy>
   21632:	9d0e      	ldr	r5, [sp, #56]	@ 0x38
   21634:	7025      	strb	r5, [r4, #0]
   21636:	980c      	ldr	r0, [sp, #48]	@ 0x30
   21638:	990f      	ldr	r1, [sp, #60]	@ 0x3c
   2163a:	6541      	str	r1, [r0, #84]	@ 0x54
   2163c:	acff      	add	r4, sp, #1020	@ 0x3fc
   2163e:	34a4      	adds	r4, #164	@ 0xa4
   21640:	1c60      	adds	r0, r4, #1
   21642:	9005      	str	r0, [sp, #20]
   21644:	4631      	mov	r1, r6
   21646:	f006 fc8a 	bl	27f5e <__aeabi_memclr>
   2164a:	7025      	strb	r5, [r4, #0]
   2164c:	980d      	ldr	r0, [sp, #52]	@ 0x34
   2164e:	9000      	str	r0, [sp, #0]
   21650:	4806      	ldr	r0, [pc, #24]	@ (2166c <_start+0x1068>)
   21652:	232c      	movs	r3, #44	@ 0x2c
   21654:	9906      	ldr	r1, [sp, #24]
   21656:	460d      	mov	r5, r1
   21658:	9a08      	ldr	r2, [sp, #32]
   2165a:	f7fe fe1f 	bl	2029c <_ZN9allow_pin12dynamic_type11allow_inner17hf1099571477a6939E>
   2165e:	910f      	str	r1, [sp, #60]	@ 0x3c
   21660:	07c0      	lsls	r0, r0, #31
   21662:	d129      	bne.n	216b8 <_start+0x10b4>
   21664:	e004      	b.n	21670 <_start+0x106c>
   21666:	46c0      	nop			@ (mov r8, r8)
   21668:	000005a8 	.word	0x000005a8
   2166c:	0000077f 	.word	0x0000077f
   21670:	4807      	ldr	r0, [pc, #28]	@ (21690 <_start+0x108c>)
   21672:	4468      	add	r0, sp
   21674:	990d      	ldr	r1, [sp, #52]	@ 0x34
   21676:	7001      	strb	r1, [r0, #0]
   21678:	9500      	str	r5, [sp, #0]
   2167a:	2100      	movs	r1, #0
   2167c:	2325      	movs	r3, #37	@ 0x25
   2167e:	4805      	ldr	r0, [pc, #20]	@ (21694 <_start+0x1090>)
   21680:	9a05      	ldr	r2, [sp, #20]
   21682:	f7fe fe0b 	bl	2029c <_ZN9allow_pin12dynamic_type11allow_inner17hf1099571477a6939E>
   21686:	910f      	str	r1, [sp, #60]	@ 0x3c
   21688:	07c0      	lsls	r0, r0, #31
   2168a:	d115      	bne.n	216b8 <_start+0x10b4>
   2168c:	e004      	b.n	21698 <_start+0x1094>
   2168e:	46c0      	nop			@ (mov r8, r8)
   21690:	000005a8 	.word	0x000005a8
   21694:	0000077f 	.word	0x0000077f
   21698:	a8ff      	add	r0, sp, #1020	@ 0x3fc
   2169a:	30a4      	adds	r0, #164	@ 0xa4
   2169c:	4629      	mov	r1, r5
   2169e:	7005      	strb	r5, [r0, #0]
   216a0:	4804      	ldr	r0, [pc, #16]	@ (216b4 <_start+0x10b0>)
   216a2:	2400      	movs	r4, #0
   216a4:	4622      	mov	r2, r4
   216a6:	4623      	mov	r3, r4
   216a8:	df02      	svc	2
   216aa:	910f      	str	r1, [sp, #60]	@ 0x3c
   216ac:	287f      	cmp	r0, #127	@ 0x7f
   216ae:	d903      	bls.n	216b8 <_start+0x10b4>
   216b0:	f000 fdaf 	bl	22212 <_start+0x1c0e>
   216b4:	0000077f 	.word	0x0000077f
   216b8:	9c0b      	ldr	r4, [sp, #44]	@ 0x2c
   216ba:	a8ff      	add	r0, sp, #1020	@ 0x3fc
   216bc:	30a4      	adds	r0, #164	@ 0xa4
   216be:	7802      	ldrb	r2, [r0, #0]
   216c0:	2a02      	cmp	r2, #2
   216c2:	d007      	beq.n	216d4 <_start+0x10d0>
   216c4:	2100      	movs	r1, #0
   216c6:	4802      	ldr	r0, [pc, #8]	@ (216d0 <_start+0x10cc>)
   216c8:	f006 fc3c 	bl	27f44 <_ZN9allow_pin12dynamic_type7unshare17ha4091652f9b609c4E>
   216cc:	e002      	b.n	216d4 <_start+0x10d0>
   216ce:	46c0      	nop			@ (mov r8, r8)
   216d0:	0000077f 	.word	0x0000077f
   216d4:	4802      	ldr	r0, [pc, #8]	@ (216e0 <_start+0x10dc>)
   216d6:	4468      	add	r0, sp
   216d8:	7802      	ldrb	r2, [r0, #0]
   216da:	2a02      	cmp	r2, #2
   216dc:	d00a      	beq.n	216f4 <_start+0x10f0>
   216de:	e001      	b.n	216e4 <_start+0x10e0>
   216e0:	000005a8 	.word	0x000005a8
   216e4:	2103      	movs	r1, #3
   216e6:	4802      	ldr	r0, [pc, #8]	@ (216f0 <_start+0x10ec>)
   216e8:	f006 fc2c 	bl	27f44 <_ZN9allow_pin12dynamic_type7unshare17ha4091652f9b609c4E>
   216ec:	e002      	b.n	216f4 <_start+0x10f0>
   216ee:	46c0      	nop			@ (mov r8, r8)
   216f0:	0000077f 	.word	0x0000077f
   216f4:	2c00      	cmp	r4, #0
   216f6:	d001      	beq.n	216fc <_start+0x10f8>
   216f8:	f000 fd2b 	bl	22152 <_start+0x1b4e>
   216fc:	4d18      	ldr	r5, [pc, #96]	@ (21760 <_start+0x115c>)
   216fe:	446d      	add	r5, sp
   21700:	1c68      	adds	r0, r5, #1
   21702:	9008      	str	r0, [sp, #32]
   21704:	a9c9      	add	r1, sp, #804	@ 0x324
   21706:	2203      	movs	r2, #3
   21708:	9206      	str	r2, [sp, #24]
   2170a:	f006 fde8 	bl	282de <__aeabi_memcpy>
   2170e:	ac9f      	add	r4, sp, #636	@ 0x27c
   21710:	4914      	ldr	r1, [pc, #80]	@ (21764 <_start+0x1160>)
   21712:	4469      	add	r1, sp
   21714:	261e      	movs	r6, #30
   21716:	4620      	mov	r0, r4
   21718:	4632      	mov	r2, r6
   2171a:	f006 fde0 	bl	282de <__aeabi_memcpy>
   2171e:	4628      	mov	r0, r5
   21720:	3008      	adds	r0, #8
   21722:	4621      	mov	r1, r4
   21724:	4632      	mov	r2, r6
   21726:	f006 fdda 	bl	282de <__aeabi_memcpy>
   2172a:	9e0e      	ldr	r6, [sp, #56]	@ 0x38
   2172c:	702e      	strb	r6, [r5, #0]
   2172e:	980c      	ldr	r0, [sp, #48]	@ 0x30
   21730:	990f      	ldr	r1, [sp, #60]	@ 0x3c
   21732:	6541      	str	r1, [r0, #84]	@ 0x54
   21734:	acff      	add	r4, sp, #1020	@ 0x3fc
   21736:	34a4      	adds	r4, #164	@ 0xa4
   21738:	1c65      	adds	r5, r4, #1
   2173a:	2118      	movs	r1, #24
   2173c:	4628      	mov	r0, r5
   2173e:	f006 fc0e 	bl	27f5e <__aeabi_memclr>
   21742:	7026      	strb	r6, [r4, #0]
   21744:	980d      	ldr	r0, [sp, #52]	@ 0x34
   21746:	9000      	str	r0, [sp, #0]
   21748:	4c07      	ldr	r4, [pc, #28]	@ (21768 <_start+0x1164>)
   2174a:	343a      	adds	r4, #58	@ 0x3a
   2174c:	2109      	movs	r1, #9
   2174e:	2325      	movs	r3, #37	@ 0x25
   21750:	4620      	mov	r0, r4
   21752:	9a08      	ldr	r2, [sp, #32]
   21754:	f7fe fda2 	bl	2029c <_ZN9allow_pin12dynamic_type11allow_inner17hf1099571477a6939E>
   21758:	910f      	str	r1, [sp, #60]	@ 0x3c
   2175a:	07c0      	lsls	r0, r0, #31
   2175c:	d128      	bne.n	217b0 <_start+0x11ac>
   2175e:	e005      	b.n	2176c <_start+0x1168>
   21760:	000005a8 	.word	0x000005a8
   21764:	00000558 	.word	0x00000558
   21768:	00000a36 	.word	0x00000a36
   2176c:	4807      	ldr	r0, [pc, #28]	@ (2178c <_start+0x1188>)
   2176e:	4468      	add	r0, sp
   21770:	990d      	ldr	r1, [sp, #52]	@ 0x34
   21772:	7001      	strb	r1, [r0, #0]
   21774:	9806      	ldr	r0, [sp, #24]
   21776:	9000      	str	r0, [sp, #0]
   21778:	2108      	movs	r1, #8
   2177a:	2318      	movs	r3, #24
   2177c:	4620      	mov	r0, r4
   2177e:	462a      	mov	r2, r5
   21780:	f7fe fd8c 	bl	2029c <_ZN9allow_pin12dynamic_type11allow_inner17hf1099571477a6939E>
   21784:	910f      	str	r1, [sp, #60]	@ 0x3c
   21786:	07c0      	lsls	r0, r0, #31
   21788:	d112      	bne.n	217b0 <_start+0x11ac>
   2178a:	e001      	b.n	21790 <_start+0x118c>
   2178c:	000005a8 	.word	0x000005a8
   21790:	a8ff      	add	r0, sp, #1020	@ 0x3fc
   21792:	30a4      	adds	r0, #164	@ 0xa4
   21794:	9906      	ldr	r1, [sp, #24]
   21796:	7001      	strb	r1, [r0, #0]
   21798:	20a7      	movs	r0, #167	@ 0xa7
   2179a:	0100      	lsls	r0, r0, #4
   2179c:	2109      	movs	r1, #9
   2179e:	2208      	movs	r2, #8
   217a0:	2300      	movs	r3, #0
   217a2:	9308      	str	r3, [sp, #32]
   217a4:	df02      	svc	2
   217a6:	910f      	str	r1, [sp, #60]	@ 0x3c
   217a8:	287f      	cmp	r0, #127	@ 0x7f
   217aa:	d901      	bls.n	217b0 <_start+0x11ac>
   217ac:	f000 fd61 	bl	22272 <_start+0x1c6e>
   217b0:	980b      	ldr	r0, [sp, #44]	@ 0x2c
   217b2:	9008      	str	r0, [sp, #32]
   217b4:	a8ff      	add	r0, sp, #1020	@ 0x3fc
   217b6:	30a4      	adds	r0, #164	@ 0xa4
   217b8:	7802      	ldrb	r2, [r0, #0]
   217ba:	2a02      	cmp	r2, #2
   217bc:	d003      	beq.n	217c6 <_start+0x11c2>
   217be:	2108      	movs	r1, #8
   217c0:	4620      	mov	r0, r4
   217c2:	f006 fbbf 	bl	27f44 <_ZN9allow_pin12dynamic_type7unshare17ha4091652f9b609c4E>
   217c6:	4803      	ldr	r0, [pc, #12]	@ (217d4 <_start+0x11d0>)
   217c8:	4468      	add	r0, sp
   217ca:	7802      	ldrb	r2, [r0, #0]
   217cc:	2a02      	cmp	r2, #2
   217ce:	d007      	beq.n	217e0 <_start+0x11dc>
   217d0:	e002      	b.n	217d8 <_start+0x11d4>
   217d2:	46c0      	nop			@ (mov r8, r8)
   217d4:	000005a8 	.word	0x000005a8
   217d8:	2109      	movs	r1, #9
   217da:	4620      	mov	r0, r4
   217dc:	f006 fbb2 	bl	27f44 <_ZN9allow_pin12dynamic_type7unshare17ha4091652f9b609c4E>
   217e0:	9808      	ldr	r0, [sp, #32]
   217e2:	2800      	cmp	r0, #0
   217e4:	d001      	beq.n	217ea <_start+0x11e6>
   217e6:	f000 fcb4 	bl	22152 <_start+0x1b4e>
   217ea:	4819      	ldr	r0, [pc, #100]	@ (21850 <_start+0x124c>)
   217ec:	4468      	add	r0, sp
   217ee:	9006      	str	r0, [sp, #24]
   217f0:	1c40      	adds	r0, r0, #1
   217f2:	9008      	str	r0, [sp, #32]
   217f4:	a9ff      	add	r1, sp, #1020	@ 0x3fc
   217f6:	318c      	adds	r1, #140	@ 0x8c
   217f8:	2203      	movs	r2, #3
   217fa:	9205      	str	r2, [sp, #20]
   217fc:	f006 fd6f 	bl	282de <__aeabi_memcpy>
   21800:	a8c9      	add	r0, sp, #804	@ 0x324
   21802:	a99f      	add	r1, sp, #636	@ 0x27c
   21804:	460a      	mov	r2, r1
   21806:	c878      	ldmia	r0!, {r3, r4, r5, r6}
   21808:	c278      	stmia	r2!, {r3, r4, r5, r6}
   2180a:	7800      	ldrb	r0, [r0, #0]
   2180c:	7010      	strb	r0, [r2, #0]
   2180e:	9e06      	ldr	r6, [sp, #24]
   21810:	4630      	mov	r0, r6
   21812:	3008      	adds	r0, #8
   21814:	c93c      	ldmia	r1!, {r2, r3, r4, r5}
   21816:	c03c      	stmia	r0!, {r2, r3, r4, r5}
   21818:	7809      	ldrb	r1, [r1, #0]
   2181a:	7001      	strb	r1, [r0, #0]
   2181c:	9d0e      	ldr	r5, [sp, #56]	@ 0x38
   2181e:	7035      	strb	r5, [r6, #0]
   21820:	980f      	ldr	r0, [sp, #60]	@ 0x3c
   21822:	990a      	ldr	r1, [sp, #40]	@ 0x28
   21824:	6008      	str	r0, [r1, #0]
   21826:	4c0b      	ldr	r4, [pc, #44]	@ (21854 <_start+0x1250>)
   21828:	446c      	add	r4, sp
   2182a:	1c66      	adds	r6, r4, #1
   2182c:	2136      	movs	r1, #54	@ 0x36
   2182e:	4630      	mov	r0, r6
   21830:	f006 fb95 	bl	27f5e <__aeabi_memclr>
   21834:	7025      	strb	r5, [r4, #0]
   21836:	980d      	ldr	r0, [sp, #52]	@ 0x34
   21838:	9000      	str	r0, [sp, #0]
   2183a:	20f3      	movs	r0, #243	@ 0xf3
   2183c:	2108      	movs	r1, #8
   2183e:	2318      	movs	r3, #24
   21840:	9a08      	ldr	r2, [sp, #32]
   21842:	f7fe fd2b 	bl	2029c <_ZN9allow_pin12dynamic_type11allow_inner17hf1099571477a6939E>
   21846:	910f      	str	r1, [sp, #60]	@ 0x3c
   21848:	07c0      	lsls	r0, r0, #31
   2184a:	d129      	bne.n	218a0 <_start+0x129c>
   2184c:	e004      	b.n	21858 <_start+0x1254>
   2184e:	46c0      	nop			@ (mov r8, r8)
   21850:	00000558 	.word	0x00000558
   21854:	000005a8 	.word	0x000005a8
   21858:	4807      	ldr	r0, [pc, #28]	@ (21878 <_start+0x1274>)
   2185a:	4468      	add	r0, sp
   2185c:	990d      	ldr	r1, [sp, #52]	@ 0x34
   2185e:	7001      	strb	r1, [r0, #0]
   21860:	9805      	ldr	r0, [sp, #20]
   21862:	9000      	str	r0, [sp, #0]
   21864:	20f3      	movs	r0, #243	@ 0xf3
   21866:	2336      	movs	r3, #54	@ 0x36
   21868:	4632      	mov	r2, r6
   2186a:	f7fe fd17 	bl	2029c <_ZN9allow_pin12dynamic_type11allow_inner17hf1099571477a6939E>
   2186e:	910f      	str	r1, [sp, #60]	@ 0x3c
   21870:	07c0      	lsls	r0, r0, #31
   21872:	d115      	bne.n	218a0 <_start+0x129c>
   21874:	e002      	b.n	2187c <_start+0x1278>
   21876:	46c0      	nop			@ (mov r8, r8)
   21878:	00000558 	.word	0x00000558
   2187c:	4807      	ldr	r0, [pc, #28]	@ (2189c <_start+0x1298>)
   2187e:	4468      	add	r0, sp
   21880:	9905      	ldr	r1, [sp, #20]
   21882:	7001      	strb	r1, [r0, #0]
   21884:	20f3      	movs	r0, #243	@ 0xf3
   21886:	2108      	movs	r1, #8
   21888:	2204      	movs	r2, #4
   2188a:	2400      	movs	r4, #0
   2188c:	4623      	mov	r3, r4
   2188e:	df02      	svc	2
   21890:	910f      	str	r1, [sp, #60]	@ 0x3c
   21892:	287f      	cmp	r0, #127	@ 0x7f
   21894:	d904      	bls.n	218a0 <_start+0x129c>
   21896:	f000 fd1c 	bl	222d2 <_start+0x1cce>
   2189a:	46c0      	nop			@ (mov r8, r8)
   2189c:	000005a8 	.word	0x000005a8
   218a0:	9c0b      	ldr	r4, [sp, #44]	@ 0x2c
   218a2:	4803      	ldr	r0, [pc, #12]	@ (218b0 <_start+0x12ac>)
   218a4:	4468      	add	r0, sp
   218a6:	7802      	ldrb	r2, [r0, #0]
   218a8:	2a02      	cmp	r2, #2
   218aa:	d007      	beq.n	218bc <_start+0x12b8>
   218ac:	e002      	b.n	218b4 <_start+0x12b0>
   218ae:	46c0      	nop			@ (mov r8, r8)
   218b0:	000005a8 	.word	0x000005a8
   218b4:	20f3      	movs	r0, #243	@ 0xf3
   218b6:	2104      	movs	r1, #4
   218b8:	f006 fb44 	bl	27f44 <_ZN9allow_pin12dynamic_type7unshare17ha4091652f9b609c4E>
   218bc:	4802      	ldr	r0, [pc, #8]	@ (218c8 <_start+0x12c4>)
   218be:	4468      	add	r0, sp
   218c0:	7802      	ldrb	r2, [r0, #0]
   218c2:	2a02      	cmp	r2, #2
   218c4:	d006      	beq.n	218d4 <_start+0x12d0>
   218c6:	e001      	b.n	218cc <_start+0x12c8>
   218c8:	00000558 	.word	0x00000558
   218cc:	20f3      	movs	r0, #243	@ 0xf3
   218ce:	2108      	movs	r1, #8
   218d0:	f006 fb38 	bl	27f44 <_ZN9allow_pin12dynamic_type7unshare17ha4091652f9b609c4E>
   218d4:	2c00      	cmp	r4, #0
   218d6:	d001      	beq.n	218dc <_start+0x12d8>
   218d8:	f000 fc3b 	bl	22152 <_start+0x1b4e>
   218dc:	4e18      	ldr	r6, [pc, #96]	@ (21940 <_start+0x133c>)
   218de:	446e      	add	r6, sp
   218e0:	1c70      	adds	r0, r6, #1
   218e2:	9008      	str	r0, [sp, #32]
   218e4:	a9c9      	add	r1, sp, #804	@ 0x324
   218e6:	2203      	movs	r2, #3
   218e8:	9206      	str	r2, [sp, #24]
   218ea:	f006 fcf8 	bl	282de <__aeabi_memcpy>
   218ee:	acff      	add	r4, sp, #1020	@ 0x3fc
   218f0:	34a4      	adds	r4, #164	@ 0xa4
   218f2:	a99f      	add	r1, sp, #636	@ 0x27c
   218f4:	252f      	movs	r5, #47	@ 0x2f
   218f6:	4620      	mov	r0, r4
   218f8:	462a      	mov	r2, r5
   218fa:	f006 fcf0 	bl	282de <__aeabi_memcpy>
   218fe:	4630      	mov	r0, r6
   21900:	3008      	adds	r0, #8
   21902:	4621      	mov	r1, r4
   21904:	462a      	mov	r2, r5
   21906:	f006 fcea 	bl	282de <__aeabi_memcpy>
   2190a:	9d0e      	ldr	r5, [sp, #56]	@ 0x38
   2190c:	7035      	strb	r5, [r6, #0]
   2190e:	980c      	ldr	r0, [sp, #48]	@ 0x30
   21910:	990f      	ldr	r1, [sp, #60]	@ 0x3c
   21912:	6541      	str	r1, [r0, #84]	@ 0x54
   21914:	acff      	add	r4, sp, #1020	@ 0x3fc
   21916:	34a4      	adds	r4, #164	@ 0xa4
   21918:	1c66      	adds	r6, r4, #1
   2191a:	2134      	movs	r1, #52	@ 0x34
   2191c:	4630      	mov	r0, r6
   2191e:	f006 fb1e 	bl	27f5e <__aeabi_memclr>
   21922:	7025      	strb	r5, [r4, #0]
   21924:	990d      	ldr	r1, [sp, #52]	@ 0x34
   21926:	9100      	str	r1, [sp, #0]
   21928:	4c06      	ldr	r4, [pc, #24]	@ (21944 <_start+0x1340>)
   2192a:	34fd      	adds	r4, #253	@ 0xfd
   2192c:	2336      	movs	r3, #54	@ 0x36
   2192e:	4620      	mov	r0, r4
   21930:	9a08      	ldr	r2, [sp, #32]
   21932:	f7fe fcb3 	bl	2029c <_ZN9allow_pin12dynamic_type11allow_inner17hf1099571477a6939E>
   21936:	910f      	str	r1, [sp, #60]	@ 0x3c
   21938:	07c0      	lsls	r0, r0, #31
   2193a:	d129      	bne.n	21990 <_start+0x138c>
   2193c:	e004      	b.n	21948 <_start+0x1344>
   2193e:	46c0      	nop			@ (mov r8, r8)
   21940:	000005a8 	.word	0x000005a8
   21944:	000022c9 	.word	0x000022c9
   21948:	4807      	ldr	r0, [pc, #28]	@ (21968 <_start+0x1364>)
   2194a:	4468      	add	r0, sp
   2194c:	990d      	ldr	r1, [sp, #52]	@ 0x34
   2194e:	7001      	strb	r1, [r0, #0]
   21950:	9806      	ldr	r0, [sp, #24]
   21952:	9000      	str	r0, [sp, #0]
   21954:	2102      	movs	r1, #2
   21956:	2334      	movs	r3, #52	@ 0x34
   21958:	4620      	mov	r0, r4
   2195a:	4632      	mov	r2, r6
   2195c:	f7fe fc9e 	bl	2029c <_ZN9allow_pin12dynamic_type11allow_inner17hf1099571477a6939E>
   21960:	910f      	str	r1, [sp, #60]	@ 0x3c
   21962:	07c0      	lsls	r0, r0, #31
   21964:	d114      	bne.n	21990 <_start+0x138c>
   21966:	e001      	b.n	2196c <_start+0x1368>
   21968:	000005a8 	.word	0x000005a8
   2196c:	a8ff      	add	r0, sp, #1020	@ 0x3fc
   2196e:	30a4      	adds	r0, #164	@ 0xa4
   21970:	9906      	ldr	r1, [sp, #24]
   21972:	7001      	strb	r1, [r0, #0]
   21974:	4805      	ldr	r0, [pc, #20]	@ (2198c <_start+0x1388>)
   21976:	2104      	movs	r1, #4
   21978:	2202      	movs	r2, #2
   2197a:	2500      	movs	r5, #0
   2197c:	9208      	str	r2, [sp, #32]
   2197e:	462b      	mov	r3, r5
   21980:	df02      	svc	2
   21982:	910f      	str	r1, [sp, #60]	@ 0x3c
   21984:	287f      	cmp	r0, #127	@ 0x7f
   21986:	d903      	bls.n	21990 <_start+0x138c>
   21988:	f000 fcd1 	bl	2232e <_start+0x1d2a>
   2198c:	000023c6 	.word	0x000023c6
   21990:	9d0b      	ldr	r5, [sp, #44]	@ 0x2c
   21992:	a8ff      	add	r0, sp, #1020	@ 0x3fc
   21994:	30a4      	adds	r0, #164	@ 0xa4
   21996:	7802      	ldrb	r2, [r0, #0]
   21998:	2a02      	cmp	r2, #2
   2199a:	d003      	beq.n	219a4 <_start+0x13a0>
   2199c:	2102      	movs	r1, #2
   2199e:	4620      	mov	r0, r4
   219a0:	f006 fad0 	bl	27f44 <_ZN9allow_pin12dynamic_type7unshare17ha4091652f9b609c4E>
   219a4:	4802      	ldr	r0, [pc, #8]	@ (219b0 <_start+0x13ac>)
   219a6:	4468      	add	r0, sp
   219a8:	7802      	ldrb	r2, [r0, #0]
   219aa:	2a02      	cmp	r2, #2
   219ac:	d006      	beq.n	219bc <_start+0x13b8>
   219ae:	e001      	b.n	219b4 <_start+0x13b0>
   219b0:	000005a8 	.word	0x000005a8
   219b4:	2104      	movs	r1, #4
   219b6:	4620      	mov	r0, r4
   219b8:	f006 fac4 	bl	27f44 <_ZN9allow_pin12dynamic_type7unshare17ha4091652f9b609c4E>
   219bc:	2d00      	cmp	r5, #0
   219be:	d000      	beq.n	219c2 <_start+0x13be>
   219c0:	e3c7      	b.n	22152 <_start+0x1b4e>
   219c2:	4d19      	ldr	r5, [pc, #100]	@ (21a28 <_start+0x1424>)
   219c4:	446d      	add	r5, sp
   219c6:	1c68      	adds	r0, r5, #1
   219c8:	9008      	str	r0, [sp, #32]
   219ca:	a9c9      	add	r1, sp, #804	@ 0x324
   219cc:	2203      	movs	r2, #3
   219ce:	9206      	str	r2, [sp, #24]
   219d0:	f006 fc85 	bl	282de <__aeabi_memcpy>
   219d4:	ac9f      	add	r4, sp, #636	@ 0x27c
   219d6:	4915      	ldr	r1, [pc, #84]	@ (21a2c <_start+0x1428>)
   219d8:	4469      	add	r1, sp
   219da:	262d      	movs	r6, #45	@ 0x2d
   219dc:	4620      	mov	r0, r4
   219de:	4632      	mov	r2, r6
   219e0:	f006 fc7d 	bl	282de <__aeabi_memcpy>
   219e4:	4628      	mov	r0, r5
   219e6:	3008      	adds	r0, #8
   219e8:	4621      	mov	r1, r4
   219ea:	4632      	mov	r2, r6
   219ec:	f006 fc77 	bl	282de <__aeabi_memcpy>
   219f0:	9e0e      	ldr	r6, [sp, #56]	@ 0x38
   219f2:	702e      	strb	r6, [r5, #0]
   219f4:	980c      	ldr	r0, [sp, #48]	@ 0x30
   219f6:	990f      	ldr	r1, [sp, #60]	@ 0x3c
   219f8:	6541      	str	r1, [r0, #84]	@ 0x54
   219fa:	acff      	add	r4, sp, #1020	@ 0x3fc
   219fc:	34a4      	adds	r4, #164	@ 0xa4
   219fe:	1c65      	adds	r5, r4, #1
   21a00:	212e      	movs	r1, #46	@ 0x2e
   21a02:	4628      	mov	r0, r5
   21a04:	f006 faab 	bl	27f5e <__aeabi_memclr>
   21a08:	7026      	strb	r6, [r4, #0]
   21a0a:	980d      	ldr	r0, [sp, #52]	@ 0x34
   21a0c:	9000      	str	r0, [sp, #0]
   21a0e:	9c07      	ldr	r4, [sp, #28]
   21a10:	34db      	adds	r4, #219	@ 0xdb
   21a12:	2334      	movs	r3, #52	@ 0x34
   21a14:	4620      	mov	r0, r4
   21a16:	4631      	mov	r1, r6
   21a18:	9a08      	ldr	r2, [sp, #32]
   21a1a:	f7fe fc3f 	bl	2029c <_ZN9allow_pin12dynamic_type11allow_inner17hf1099571477a6939E>
   21a1e:	910f      	str	r1, [sp, #60]	@ 0x3c
   21a20:	07c0      	lsls	r0, r0, #31
   21a22:	d129      	bne.n	21a78 <_start+0x1474>
   21a24:	e004      	b.n	21a30 <_start+0x142c>
   21a26:	46c0      	nop			@ (mov r8, r8)
   21a28:	000005a8 	.word	0x000005a8
   21a2c:	00000558 	.word	0x00000558
   21a30:	4807      	ldr	r0, [pc, #28]	@ (21a50 <_start+0x144c>)
   21a32:	4468      	add	r0, sp
   21a34:	990d      	ldr	r1, [sp, #52]	@ 0x34
   21a36:	7001      	strb	r1, [r0, #0]
   21a38:	9806      	ldr	r0, [sp, #24]
   21a3a:	9000      	str	r0, [sp, #0]
   21a3c:	2108      	movs	r1, #8
   21a3e:	232e      	movs	r3, #46	@ 0x2e
   21a40:	4620      	mov	r0, r4
   21a42:	462a      	mov	r2, r5
   21a44:	f7fe fc2a 	bl	2029c <_ZN9allow_pin12dynamic_type11allow_inner17hf1099571477a6939E>
   21a48:	910f      	str	r1, [sp, #60]	@ 0x3c
   21a4a:	07c0      	lsls	r0, r0, #31
   21a4c:	d114      	bne.n	21a78 <_start+0x1474>
   21a4e:	e001      	b.n	21a54 <_start+0x1450>
   21a50:	000005a8 	.word	0x000005a8
   21a54:	a8ff      	add	r0, sp, #1020	@ 0x3fc
   21a56:	30a4      	adds	r0, #164	@ 0xa4
   21a58:	9906      	ldr	r1, [sp, #24]
   21a5a:	7001      	strb	r1, [r0, #0]
   21a5c:	4805      	ldr	r0, [pc, #20]	@ (21a74 <_start+0x1470>)
   21a5e:	2102      	movs	r1, #2
   21a60:	2208      	movs	r2, #8
   21a62:	2600      	movs	r6, #0
   21a64:	910d      	str	r1, [sp, #52]	@ 0x34
   21a66:	4633      	mov	r3, r6
   21a68:	df02      	svc	2
   21a6a:	910f      	str	r1, [sp, #60]	@ 0x3c
   21a6c:	287f      	cmp	r0, #127	@ 0x7f
   21a6e:	d903      	bls.n	21a78 <_start+0x1474>
   21a70:	f000 fc8c 	bl	2238c <_start+0x1d88>
   21a74:	00000209 	.word	0x00000209
   21a78:	9e0b      	ldr	r6, [sp, #44]	@ 0x2c
   21a7a:	a8ff      	add	r0, sp, #1020	@ 0x3fc
   21a7c:	30a4      	adds	r0, #164	@ 0xa4
   21a7e:	7802      	ldrb	r2, [r0, #0]
   21a80:	2a02      	cmp	r2, #2
   21a82:	d003      	beq.n	21a8c <_start+0x1488>
   21a84:	2108      	movs	r1, #8
   21a86:	4620      	mov	r0, r4
   21a88:	f006 fa5c 	bl	27f44 <_ZN9allow_pin12dynamic_type7unshare17ha4091652f9b609c4E>
   21a8c:	4802      	ldr	r0, [pc, #8]	@ (21a98 <_start+0x1494>)
   21a8e:	4468      	add	r0, sp
   21a90:	7802      	ldrb	r2, [r0, #0]
   21a92:	2a02      	cmp	r2, #2
   21a94:	d006      	beq.n	21aa4 <_start+0x14a0>
   21a96:	e001      	b.n	21a9c <_start+0x1498>
   21a98:	000005a8 	.word	0x000005a8
   21a9c:	2102      	movs	r1, #2
   21a9e:	4620      	mov	r0, r4
   21aa0:	f006 fa50 	bl	27f44 <_ZN9allow_pin12dynamic_type7unshare17ha4091652f9b609c4E>
   21aa4:	2e00      	cmp	r6, #0
   21aa6:	d000      	beq.n	21aaa <_start+0x14a6>
   21aa8:	e353      	b.n	22152 <_start+0x1b4e>
   21aaa:	4c16      	ldr	r4, [pc, #88]	@ (21b04 <_start+0x1500>)
   21aac:	446c      	add	r4, sp
   21aae:	1c60      	adds	r0, r4, #1
   21ab0:	a9ff      	add	r1, sp, #1020	@ 0x3fc
   21ab2:	318c      	adds	r1, #140	@ 0x8c
   21ab4:	2203      	movs	r2, #3
   21ab6:	f006 fc12 	bl	282de <__aeabi_memcpy>
   21aba:	ad9f      	add	r5, sp, #636	@ 0x27c
   21abc:	a9c9      	add	r1, sp, #804	@ 0x324
   21abe:	2627      	movs	r6, #39	@ 0x27
   21ac0:	4628      	mov	r0, r5
   21ac2:	4632      	mov	r2, r6
   21ac4:	f006 fc0b 	bl	282de <__aeabi_memcpy>
   21ac8:	4620      	mov	r0, r4
   21aca:	3008      	adds	r0, #8
   21acc:	4629      	mov	r1, r5
   21ace:	4632      	mov	r2, r6
   21ad0:	f006 fc05 	bl	282de <__aeabi_memcpy>
   21ad4:	9d0e      	ldr	r5, [sp, #56]	@ 0x38
   21ad6:	7025      	strb	r5, [r4, #0]
   21ad8:	980f      	ldr	r0, [sp, #60]	@ 0x3c
   21ada:	990a      	ldr	r1, [sp, #40]	@ 0x28
   21adc:	6008      	str	r0, [r1, #0]
   21ade:	4e0a      	ldr	r6, [pc, #40]	@ (21b08 <_start+0x1504>)
   21ae0:	446e      	add	r6, sp
   21ae2:	1c70      	adds	r0, r6, #1
   21ae4:	2138      	movs	r1, #56	@ 0x38
   21ae6:	9008      	str	r0, [sp, #32]
   21ae8:	f006 fa39 	bl	27f5e <__aeabi_memclr>
   21aec:	7035      	strb	r5, [r6, #0]
   21aee:	212e      	movs	r1, #46	@ 0x2e
   21af0:	2204      	movs	r2, #4
   21af2:	4620      	mov	r0, r4
   21af4:	920d      	str	r2, [sp, #52]	@ 0x34
   21af6:	f7fe fbdf 	bl	202b8 <_ZN9allow_pin12dynamic_type23Buffer$LT$B$C$_$C$_$GT$5allow17h0e699cccb6206866E>
   21afa:	910f      	str	r1, [sp, #60]	@ 0x3c
   21afc:	07c0      	lsls	r0, r0, #31
   21afe:	d11f      	bne.n	21b40 <_start+0x153c>
   21b00:	e004      	b.n	21b0c <_start+0x1508>
   21b02:	46c0      	nop			@ (mov r8, r8)
   21b04:	00000558 	.word	0x00000558
   21b08:	000005a8 	.word	0x000005a8
   21b0c:	4804      	ldr	r0, [pc, #16]	@ (21b20 <_start+0x151c>)
   21b0e:	4468      	add	r0, sp
   21b10:	2138      	movs	r1, #56	@ 0x38
   21b12:	2203      	movs	r2, #3
   21b14:	f7fe fbd0 	bl	202b8 <_ZN9allow_pin12dynamic_type23Buffer$LT$B$C$_$C$_$GT$5allow17h0e699cccb6206866E>
   21b18:	910f      	str	r1, [sp, #60]	@ 0x3c
   21b1a:	07c0      	lsls	r0, r0, #31
   21b1c:	d110      	bne.n	21b40 <_start+0x153c>
   21b1e:	e001      	b.n	21b24 <_start+0x1520>
   21b20:	000005a8 	.word	0x000005a8
   21b24:	4805      	ldr	r0, [pc, #20]	@ (21b3c <_start+0x1538>)
   21b26:	2109      	movs	r1, #9
   21b28:	2400      	movs	r4, #0
   21b2a:	460a      	mov	r2, r1
   21b2c:	4623      	mov	r3, r4
   21b2e:	df02      	svc	2
   21b30:	910f      	str	r1, [sp, #60]	@ 0x3c
   21b32:	287f      	cmp	r0, #127	@ 0x7f
   21b34:	d904      	bls.n	21b40 <_start+0x153c>
   21b36:	f000 fc58 	bl	223ea <_start+0x1de6>
   21b3a:	46c0      	nop			@ (mov r8, r8)
   21b3c:	00000a9d 	.word	0x00000a9d
   21b40:	9c0b      	ldr	r4, [sp, #44]	@ 0x2c
   21b42:	4803      	ldr	r0, [pc, #12]	@ (21b50 <_start+0x154c>)
   21b44:	4468      	add	r0, sp
   21b46:	7802      	ldrb	r2, [r0, #0]
   21b48:	2a02      	cmp	r2, #2
   21b4a:	d00b      	beq.n	21b64 <_start+0x1560>
   21b4c:	e002      	b.n	21b54 <_start+0x1550>
   21b4e:	46c0      	nop			@ (mov r8, r8)
   21b50:	000005a8 	.word	0x000005a8
   21b54:	4802      	ldr	r0, [pc, #8]	@ (21b60 <_start+0x155c>)
   21b56:	3067      	adds	r0, #103	@ 0x67
   21b58:	2109      	movs	r1, #9
   21b5a:	f006 f9f3 	bl	27f44 <_ZN9allow_pin12dynamic_type7unshare17ha4091652f9b609c4E>
   21b5e:	e001      	b.n	21b64 <_start+0x1560>
   21b60:	00000a36 	.word	0x00000a36
   21b64:	4802      	ldr	r0, [pc, #8]	@ (21b70 <_start+0x156c>)
   21b66:	4468      	add	r0, sp
   21b68:	7802      	ldrb	r2, [r0, #0]
   21b6a:	2a02      	cmp	r2, #2
   21b6c:	d00a      	beq.n	21b84 <_start+0x1580>
   21b6e:	e001      	b.n	21b74 <_start+0x1570>
   21b70:	00000558 	.word	0x00000558
   21b74:	4802      	ldr	r0, [pc, #8]	@ (21b80 <_start+0x157c>)
   21b76:	3067      	adds	r0, #103	@ 0x67
   21b78:	2109      	movs	r1, #9
   21b7a:	f006 f9e3 	bl	27f44 <_ZN9allow_pin12dynamic_type7unshare17ha4091652f9b609c4E>
   21b7e:	e001      	b.n	21b84 <_start+0x1580>
   21b80:	00000a36 	.word	0x00000a36
   21b84:	2c00      	cmp	r4, #0
   21b86:	d000      	beq.n	21b8a <_start+0x1586>
   21b88:	e2e3      	b.n	22152 <_start+0x1b4e>
   21b8a:	4c18      	ldr	r4, [pc, #96]	@ (21bec <_start+0x15e8>)
   21b8c:	446c      	add	r4, sp
   21b8e:	1c60      	adds	r0, r4, #1
   21b90:	9008      	str	r0, [sp, #32]
   21b92:	a9c9      	add	r1, sp, #804	@ 0x324
   21b94:	2203      	movs	r2, #3
   21b96:	9206      	str	r2, [sp, #24]
   21b98:	f006 fba1 	bl	282de <__aeabi_memcpy>
   21b9c:	aeff      	add	r6, sp, #1020	@ 0x3fc
   21b9e:	36a4      	adds	r6, #164	@ 0xa4
   21ba0:	a99f      	add	r1, sp, #636	@ 0x27c
   21ba2:	2531      	movs	r5, #49	@ 0x31
   21ba4:	4630      	mov	r0, r6
   21ba6:	462a      	mov	r2, r5
   21ba8:	f006 fb99 	bl	282de <__aeabi_memcpy>
   21bac:	4620      	mov	r0, r4
   21bae:	3008      	adds	r0, #8
   21bb0:	4631      	mov	r1, r6
   21bb2:	462a      	mov	r2, r5
   21bb4:	f006 fb93 	bl	282de <__aeabi_memcpy>
   21bb8:	9d0e      	ldr	r5, [sp, #56]	@ 0x38
   21bba:	7025      	strb	r5, [r4, #0]
   21bbc:	980c      	ldr	r0, [sp, #48]	@ 0x30
   21bbe:	990f      	ldr	r1, [sp, #60]	@ 0x3c
   21bc0:	6541      	str	r1, [r0, #84]	@ 0x54
   21bc2:	acff      	add	r4, sp, #1020	@ 0x3fc
   21bc4:	34a4      	adds	r4, #164	@ 0xa4
   21bc6:	1c66      	adds	r6, r4, #1
   21bc8:	2134      	movs	r1, #52	@ 0x34
   21bca:	4630      	mov	r0, r6
   21bcc:	f006 f9c7 	bl	27f5e <__aeabi_memclr>
   21bd0:	7025      	strb	r5, [r4, #0]
   21bd2:	980d      	ldr	r0, [sp, #52]	@ 0x34
   21bd4:	9000      	str	r0, [sp, #0]
   21bd6:	2108      	movs	r1, #8
   21bd8:	2338      	movs	r3, #56	@ 0x38
   21bda:	9807      	ldr	r0, [sp, #28]
   21bdc:	9a08      	ldr	r2, [sp, #32]
   21bde:	f7fe fb5d 	bl	2029c <_ZN9allow_pin12dynamic_type11allow_inner17hf1099571477a6939E>
   21be2:	910f      	str	r1, [sp, #60]	@ 0x3c
   21be4:	07c0      	lsls	r0, r0, #31
   21be6:	d123      	bne.n	21c30 <_start+0x162c>
   21be8:	e002      	b.n	21bf0 <_start+0x15ec>
   21bea:	46c0      	nop			@ (mov r8, r8)
   21bec:	000005a8 	.word	0x000005a8
   21bf0:	4807      	ldr	r0, [pc, #28]	@ (21c10 <_start+0x160c>)
   21bf2:	4468      	add	r0, sp
   21bf4:	990d      	ldr	r1, [sp, #52]	@ 0x34
   21bf6:	7001      	strb	r1, [r0, #0]
   21bf8:	9906      	ldr	r1, [sp, #24]
   21bfa:	9100      	str	r1, [sp, #0]
   21bfc:	2334      	movs	r3, #52	@ 0x34
   21bfe:	9807      	ldr	r0, [sp, #28]
   21c00:	4632      	mov	r2, r6
   21c02:	f7fe fb4b 	bl	2029c <_ZN9allow_pin12dynamic_type11allow_inner17hf1099571477a6939E>
   21c06:	910f      	str	r1, [sp, #60]	@ 0x3c
   21c08:	07c0      	lsls	r0, r0, #31
   21c0a:	d111      	bne.n	21c30 <_start+0x162c>
   21c0c:	e002      	b.n	21c14 <_start+0x1610>
   21c0e:	46c0      	nop			@ (mov r8, r8)
   21c10:	000005a8 	.word	0x000005a8
   21c14:	a8ff      	add	r0, sp, #1020	@ 0x3fc
   21c16:	30a4      	adds	r0, #164	@ 0xa4
   21c18:	9a06      	ldr	r2, [sp, #24]
   21c1a:	7002      	strb	r2, [r0, #0]
   21c1c:	2108      	movs	r1, #8
   21c1e:	2400      	movs	r4, #0
   21c20:	9807      	ldr	r0, [sp, #28]
   21c22:	4623      	mov	r3, r4
   21c24:	df02      	svc	2
   21c26:	910f      	str	r1, [sp, #60]	@ 0x3c
   21c28:	287f      	cmp	r0, #127	@ 0x7f
   21c2a:	d901      	bls.n	21c30 <_start+0x162c>
   21c2c:	f000 fbf3 	bl	22416 <_start+0x1e12>
   21c30:	9c0b      	ldr	r4, [sp, #44]	@ 0x2c
   21c32:	a8ff      	add	r0, sp, #1020	@ 0x3fc
   21c34:	30a4      	adds	r0, #164	@ 0xa4
   21c36:	7802      	ldrb	r2, [r0, #0]
   21c38:	2a02      	cmp	r2, #2
   21c3a:	d003      	beq.n	21c44 <_start+0x1640>
   21c3c:	2103      	movs	r1, #3
   21c3e:	9807      	ldr	r0, [sp, #28]
   21c40:	f006 f980 	bl	27f44 <_ZN9allow_pin12dynamic_type7unshare17ha4091652f9b609c4E>
   21c44:	4802      	ldr	r0, [pc, #8]	@ (21c50 <_start+0x164c>)
   21c46:	4468      	add	r0, sp
   21c48:	7802      	ldrb	r2, [r0, #0]
   21c4a:	2a02      	cmp	r2, #2
   21c4c:	d006      	beq.n	21c5c <_start+0x1658>
   21c4e:	e001      	b.n	21c54 <_start+0x1650>
   21c50:	000005a8 	.word	0x000005a8
   21c54:	2108      	movs	r1, #8
   21c56:	9807      	ldr	r0, [sp, #28]
   21c58:	f006 f974 	bl	27f44 <_ZN9allow_pin12dynamic_type7unshare17ha4091652f9b609c4E>
   21c5c:	2c00      	cmp	r4, #0
   21c5e:	d000      	beq.n	21c62 <_start+0x165e>
   21c60:	e277      	b.n	22152 <_start+0x1b4e>
   21c62:	4e19      	ldr	r6, [pc, #100]	@ (21cc8 <_start+0x16c4>)
   21c64:	446e      	add	r6, sp
   21c66:	1c70      	adds	r0, r6, #1
   21c68:	9008      	str	r0, [sp, #32]
   21c6a:	a9c9      	add	r1, sp, #804	@ 0x324
   21c6c:	2203      	movs	r2, #3
   21c6e:	9206      	str	r2, [sp, #24]
   21c70:	f006 fb35 	bl	282de <__aeabi_memcpy>
   21c74:	ac9f      	add	r4, sp, #636	@ 0x27c
   21c76:	4915      	ldr	r1, [pc, #84]	@ (21ccc <_start+0x16c8>)
   21c78:	4469      	add	r1, sp
   21c7a:	252d      	movs	r5, #45	@ 0x2d
   21c7c:	4620      	mov	r0, r4
   21c7e:	462a      	mov	r2, r5
   21c80:	f006 fb2d 	bl	282de <__aeabi_memcpy>
   21c84:	4630      	mov	r0, r6
   21c86:	3008      	adds	r0, #8
   21c88:	4621      	mov	r1, r4
   21c8a:	462a      	mov	r2, r5
   21c8c:	f006 fb27 	bl	282de <__aeabi_memcpy>
   21c90:	9d0e      	ldr	r5, [sp, #56]	@ 0x38
   21c92:	7035      	strb	r5, [r6, #0]
   21c94:	980c      	ldr	r0, [sp, #48]	@ 0x30
   21c96:	990f      	ldr	r1, [sp, #60]	@ 0x3c
   21c98:	6541      	str	r1, [r0, #84]	@ 0x54
   21c9a:	acff      	add	r4, sp, #1020	@ 0x3fc
   21c9c:	34a4      	adds	r4, #164	@ 0xa4
   21c9e:	1c66      	adds	r6, r4, #1
   21ca0:	211a      	movs	r1, #26
   21ca2:	4630      	mov	r0, r6
   21ca4:	f006 f95b 	bl	27f5e <__aeabi_memclr>
   21ca8:	7025      	strb	r5, [r4, #0]
   21caa:	980d      	ldr	r0, [sp, #52]	@ 0x34
   21cac:	9000      	str	r0, [sp, #0]
   21cae:	4c08      	ldr	r4, [pc, #32]	@ (21cd0 <_start+0x16cc>)
   21cb0:	3459      	adds	r4, #89	@ 0x59
   21cb2:	2100      	movs	r1, #0
   21cb4:	2334      	movs	r3, #52	@ 0x34
   21cb6:	4620      	mov	r0, r4
   21cb8:	9a08      	ldr	r2, [sp, #32]
   21cba:	f7fe faef 	bl	2029c <_ZN9allow_pin12dynamic_type11allow_inner17hf1099571477a6939E>
   21cbe:	910f      	str	r1, [sp, #60]	@ 0x3c
   21cc0:	07c0      	lsls	r0, r0, #31
   21cc2:	d129      	bne.n	21d18 <_start+0x1714>
   21cc4:	e006      	b.n	21cd4 <_start+0x16d0>
   21cc6:	46c0      	nop			@ (mov r8, r8)
   21cc8:	000005a8 	.word	0x000005a8
   21ccc:	00000558 	.word	0x00000558
   21cd0:	00001273 	.word	0x00001273
   21cd4:	4807      	ldr	r0, [pc, #28]	@ (21cf4 <_start+0x16f0>)
   21cd6:	4468      	add	r0, sp
   21cd8:	990d      	ldr	r1, [sp, #52]	@ 0x34
   21cda:	7001      	strb	r1, [r0, #0]
   21cdc:	9806      	ldr	r0, [sp, #24]
   21cde:	9000      	str	r0, [sp, #0]
   21ce0:	2105      	movs	r1, #5
   21ce2:	231a      	movs	r3, #26
   21ce4:	4620      	mov	r0, r4
   21ce6:	4632      	mov	r2, r6
   21ce8:	f7fe fad8 	bl	2029c <_ZN9allow_pin12dynamic_type11allow_inner17hf1099571477a6939E>
   21cec:	910f      	str	r1, [sp, #60]	@ 0x3c
   21cee:	07c0      	lsls	r0, r0, #31
   21cf0:	d112      	bne.n	21d18 <_start+0x1714>
   21cf2:	e001      	b.n	21cf8 <_start+0x16f4>
   21cf4:	000005a8 	.word	0x000005a8
   21cf8:	a8ff      	add	r0, sp, #1020	@ 0x3fc
   21cfa:	30a4      	adds	r0, #164	@ 0xa4
   21cfc:	9906      	ldr	r1, [sp, #24]
   21cfe:	7001      	strb	r1, [r0, #0]
   21d00:	4804      	ldr	r0, [pc, #16]	@ (21d14 <_start+0x1710>)
   21d02:	2205      	movs	r2, #5
   21d04:	2100      	movs	r1, #0
   21d06:	9108      	str	r1, [sp, #32]
   21d08:	460b      	mov	r3, r1
   21d0a:	df02      	svc	2
   21d0c:	910f      	str	r1, [sp, #60]	@ 0x3c
   21d0e:	287f      	cmp	r0, #127	@ 0x7f
   21d10:	d902      	bls.n	21d18 <_start+0x1714>
   21d12:	e3c2      	b.n	2249a <_start+0x1e96>
   21d14:	000012cc 	.word	0x000012cc
   21d18:	980b      	ldr	r0, [sp, #44]	@ 0x2c
   21d1a:	9008      	str	r0, [sp, #32]
   21d1c:	a8ff      	add	r0, sp, #1020	@ 0x3fc
   21d1e:	30a4      	adds	r0, #164	@ 0xa4
   21d20:	7802      	ldrb	r2, [r0, #0]
   21d22:	2a02      	cmp	r2, #2
   21d24:	d003      	beq.n	21d2e <_start+0x172a>
   21d26:	2105      	movs	r1, #5
   21d28:	4620      	mov	r0, r4
   21d2a:	f006 f90b 	bl	27f44 <_ZN9allow_pin12dynamic_type7unshare17ha4091652f9b609c4E>
   21d2e:	4803      	ldr	r0, [pc, #12]	@ (21d3c <_start+0x1738>)
   21d30:	4468      	add	r0, sp
   21d32:	7802      	ldrb	r2, [r0, #0]
   21d34:	2a02      	cmp	r2, #2
   21d36:	d007      	beq.n	21d48 <_start+0x1744>
   21d38:	e002      	b.n	21d40 <_start+0x173c>
   21d3a:	46c0      	nop			@ (mov r8, r8)
   21d3c:	000005a8 	.word	0x000005a8
   21d40:	2100      	movs	r1, #0
   21d42:	4620      	mov	r0, r4
   21d44:	f006 f8fe 	bl	27f44 <_ZN9allow_pin12dynamic_type7unshare17ha4091652f9b609c4E>
   21d48:	9808      	ldr	r0, [sp, #32]
   21d4a:	2800      	cmp	r0, #0
   21d4c:	d000      	beq.n	21d50 <_start+0x174c>
   21d4e:	e200      	b.n	22152 <_start+0x1b4e>
   21d50:	481b      	ldr	r0, [pc, #108]	@ (21dc0 <_start+0x17bc>)
   21d52:	4468      	add	r0, sp
   21d54:	9006      	str	r0, [sp, #24]
   21d56:	1c40      	adds	r0, r0, #1
   21d58:	9008      	str	r0, [sp, #32]
   21d5a:	a9ff      	add	r1, sp, #1020	@ 0x3fc
   21d5c:	318c      	adds	r1, #140	@ 0x8c
   21d5e:	2203      	movs	r2, #3
   21d60:	9205      	str	r2, [sp, #20]
   21d62:	f006 fabc 	bl	282de <__aeabi_memcpy>
   21d66:	a9c9      	add	r1, sp, #804	@ 0x324
   21d68:	a89f      	add	r0, sp, #636	@ 0x27c
   21d6a:	4602      	mov	r2, r0
   21d6c:	c978      	ldmia	r1!, {r3, r4, r5, r6}
   21d6e:	c278      	stmia	r2!, {r3, r4, r5, r6}
   21d70:	880b      	ldrh	r3, [r1, #0]
   21d72:	8013      	strh	r3, [r2, #0]
   21d74:	7889      	ldrb	r1, [r1, #2]
   21d76:	7091      	strb	r1, [r2, #2]
   21d78:	9e06      	ldr	r6, [sp, #24]
   21d7a:	4631      	mov	r1, r6
   21d7c:	3108      	adds	r1, #8
   21d7e:	c83c      	ldmia	r0!, {r2, r3, r4, r5}
   21d80:	c13c      	stmia	r1!, {r2, r3, r4, r5}
   21d82:	8802      	ldrh	r2, [r0, #0]
   21d84:	800a      	strh	r2, [r1, #0]
   21d86:	7880      	ldrb	r0, [r0, #2]
   21d88:	7088      	strb	r0, [r1, #2]
   21d8a:	9d0e      	ldr	r5, [sp, #56]	@ 0x38
   21d8c:	7035      	strb	r5, [r6, #0]
   21d8e:	980f      	ldr	r0, [sp, #60]	@ 0x3c
   21d90:	990a      	ldr	r1, [sp, #40]	@ 0x28
   21d92:	6008      	str	r0, [r1, #0]
   21d94:	4c0b      	ldr	r4, [pc, #44]	@ (21dc4 <_start+0x17c0>)
   21d96:	446c      	add	r4, sp
   21d98:	1c66      	adds	r6, r4, #1
   21d9a:	2150      	movs	r1, #80	@ 0x50
   21d9c:	4630      	mov	r0, r6
   21d9e:	f006 f8de 	bl	27f5e <__aeabi_memclr>
   21da2:	7025      	strb	r5, [r4, #0]
   21da4:	980d      	ldr	r0, [sp, #52]	@ 0x34
   21da6:	9000      	str	r0, [sp, #0]
   21da8:	4c07      	ldr	r4, [pc, #28]	@ (21dc8 <_start+0x17c4>)
   21daa:	34b8      	adds	r4, #184	@ 0xb8
   21dac:	2107      	movs	r1, #7
   21dae:	231a      	movs	r3, #26
   21db0:	4620      	mov	r0, r4
   21db2:	9a08      	ldr	r2, [sp, #32]
   21db4:	f7fe fa72 	bl	2029c <_ZN9allow_pin12dynamic_type11allow_inner17hf1099571477a6939E>
   21db8:	910f      	str	r1, [sp, #60]	@ 0x3c
   21dba:	07c0      	lsls	r0, r0, #31
   21dbc:	d122      	bne.n	21e04 <_start+0x1800>
   21dbe:	e005      	b.n	21dcc <_start+0x17c8>
   21dc0:	00000558 	.word	0x00000558
   21dc4:	000005a8 	.word	0x000005a8
   21dc8:	00000a36 	.word	0x00000a36
   21dcc:	48ee      	ldr	r0, [pc, #952]	@ (22188 <_start+0x1b84>)
   21dce:	4468      	add	r0, sp
   21dd0:	990d      	ldr	r1, [sp, #52]	@ 0x34
   21dd2:	7001      	strb	r1, [r0, #0]
   21dd4:	9805      	ldr	r0, [sp, #20]
   21dd6:	9000      	str	r0, [sp, #0]
   21dd8:	2350      	movs	r3, #80	@ 0x50
   21dda:	4620      	mov	r0, r4
   21ddc:	4632      	mov	r2, r6
   21dde:	f7fe fa5d 	bl	2029c <_ZN9allow_pin12dynamic_type11allow_inner17hf1099571477a6939E>
   21de2:	910f      	str	r1, [sp, #60]	@ 0x3c
   21de4:	07c0      	lsls	r0, r0, #31
   21de6:	d10d      	bne.n	21e04 <_start+0x1800>
   21de8:	48e8      	ldr	r0, [pc, #928]	@ (2218c <_start+0x1b88>)
   21dea:	4468      	add	r0, sp
   21dec:	9905      	ldr	r1, [sp, #20]
   21dee:	7001      	strb	r1, [r0, #0]
   21df0:	48e7      	ldr	r0, [pc, #924]	@ (22190 <_start+0x1b8c>)
   21df2:	2107      	movs	r1, #7
   21df4:	2204      	movs	r2, #4
   21df6:	2500      	movs	r5, #0
   21df8:	462b      	mov	r3, r5
   21dfa:	df02      	svc	2
   21dfc:	910f      	str	r1, [sp, #60]	@ 0x3c
   21dfe:	287f      	cmp	r0, #127	@ 0x7f
   21e00:	d900      	bls.n	21e04 <_start+0x1800>
   21e02:	e37b      	b.n	224fc <_start+0x1ef8>
   21e04:	9d0b      	ldr	r5, [sp, #44]	@ 0x2c
   21e06:	48e1      	ldr	r0, [pc, #900]	@ (2218c <_start+0x1b88>)
   21e08:	4468      	add	r0, sp
   21e0a:	7802      	ldrb	r2, [r0, #0]
   21e0c:	2a02      	cmp	r2, #2
   21e0e:	d003      	beq.n	21e18 <_start+0x1814>
   21e10:	2104      	movs	r1, #4
   21e12:	4620      	mov	r0, r4
   21e14:	f006 f896 	bl	27f44 <_ZN9allow_pin12dynamic_type7unshare17ha4091652f9b609c4E>
   21e18:	48db      	ldr	r0, [pc, #876]	@ (22188 <_start+0x1b84>)
   21e1a:	4468      	add	r0, sp
   21e1c:	7802      	ldrb	r2, [r0, #0]
   21e1e:	2a02      	cmp	r2, #2
   21e20:	d003      	beq.n	21e2a <_start+0x1826>
   21e22:	2107      	movs	r1, #7
   21e24:	4620      	mov	r0, r4
   21e26:	f006 f88d 	bl	27f44 <_ZN9allow_pin12dynamic_type7unshare17ha4091652f9b609c4E>
   21e2a:	2d00      	cmp	r5, #0
   21e2c:	d000      	beq.n	21e30 <_start+0x182c>
   21e2e:	e190      	b.n	22152 <_start+0x1b4e>
   21e30:	4dd6      	ldr	r5, [pc, #856]	@ (2218c <_start+0x1b88>)
   21e32:	446d      	add	r5, sp
   21e34:	1c68      	adds	r0, r5, #1
   21e36:	9008      	str	r0, [sp, #32]
   21e38:	a9c9      	add	r1, sp, #804	@ 0x324
   21e3a:	2203      	movs	r2, #3
   21e3c:	9206      	str	r2, [sp, #24]
   21e3e:	f006 fa4e 	bl	282de <__aeabi_memcpy>
   21e42:	acff      	add	r4, sp, #1020	@ 0x3fc
   21e44:	34a4      	adds	r4, #164	@ 0xa4
   21e46:	a99f      	add	r1, sp, #636	@ 0x27c
   21e48:	2649      	movs	r6, #73	@ 0x49
   21e4a:	4620      	mov	r0, r4
   21e4c:	4632      	mov	r2, r6
   21e4e:	f006 f8e6 	bl	2801e <__aeabi_memcpy4>
   21e52:	4628      	mov	r0, r5
   21e54:	3008      	adds	r0, #8
   21e56:	4621      	mov	r1, r4
   21e58:	4632      	mov	r2, r6
   21e5a:	f006 f8e0 	bl	2801e <__aeabi_memcpy4>
   21e5e:	9e0e      	ldr	r6, [sp, #56]	@ 0x38
   21e60:	702e      	strb	r6, [r5, #0]
   21e62:	980c      	ldr	r0, [sp, #48]	@ 0x30
   21e64:	990f      	ldr	r1, [sp, #60]	@ 0x3c
   21e66:	6541      	str	r1, [r0, #84]	@ 0x54
   21e68:	acff      	add	r4, sp, #1020	@ 0x3fc
   21e6a:	34a4      	adds	r4, #164	@ 0xa4
   21e6c:	1c60      	adds	r0, r4, #1
   21e6e:	213c      	movs	r1, #60	@ 0x3c
   21e70:	9005      	str	r0, [sp, #20]
   21e72:	f006 f874 	bl	27f5e <__aeabi_memclr>
   21e76:	7026      	strb	r6, [r4, #0]
   21e78:	980d      	ldr	r0, [sp, #52]	@ 0x34
   21e7a:	9000      	str	r0, [sp, #0]
   21e7c:	4cc5      	ldr	r4, [pc, #788]	@ (22194 <_start+0x1b90>)
   21e7e:	341d      	adds	r4, #29
   21e80:	2350      	movs	r3, #80	@ 0x50
   21e82:	4620      	mov	r0, r4
   21e84:	9906      	ldr	r1, [sp, #24]
   21e86:	460e      	mov	r6, r1
   21e88:	9a08      	ldr	r2, [sp, #32]
   21e8a:	f7fe fa07 	bl	2029c <_ZN9allow_pin12dynamic_type11allow_inner17hf1099571477a6939E>
   21e8e:	910f      	str	r1, [sp, #60]	@ 0x3c
   21e90:	07c0      	lsls	r0, r0, #31
   21e92:	d11a      	bne.n	21eca <_start+0x18c6>
   21e94:	48bd      	ldr	r0, [pc, #756]	@ (2218c <_start+0x1b88>)
   21e96:	4468      	add	r0, sp
   21e98:	990d      	ldr	r1, [sp, #52]	@ 0x34
   21e9a:	7001      	strb	r1, [r0, #0]
   21e9c:	9600      	str	r6, [sp, #0]
   21e9e:	2109      	movs	r1, #9
   21ea0:	233c      	movs	r3, #60	@ 0x3c
   21ea2:	4620      	mov	r0, r4
   21ea4:	9a05      	ldr	r2, [sp, #20]
   21ea6:	f7fe f9f9 	bl	2029c <_ZN9allow_pin12dynamic_type11allow_inner17hf1099571477a6939E>
   21eaa:	910f      	str	r1, [sp, #60]	@ 0x3c
   21eac:	07c0      	lsls	r0, r0, #31
   21eae:	d10c      	bne.n	21eca <_start+0x18c6>
   21eb0:	a8ff      	add	r0, sp, #1020	@ 0x3fc
   21eb2:	30a4      	adds	r0, #164	@ 0xa4
   21eb4:	4631      	mov	r1, r6
   21eb6:	7006      	strb	r6, [r0, #0]
   21eb8:	48b7      	ldr	r0, [pc, #732]	@ (22198 <_start+0x1b94>)
   21eba:	2209      	movs	r2, #9
   21ebc:	2500      	movs	r5, #0
   21ebe:	462b      	mov	r3, r5
   21ec0:	df02      	svc	2
   21ec2:	910f      	str	r1, [sp, #60]	@ 0x3c
   21ec4:	287f      	cmp	r0, #127	@ 0x7f
   21ec6:	d900      	bls.n	21eca <_start+0x18c6>
   21ec8:	e348      	b.n	2255c <_start+0x1f58>
   21eca:	9d0b      	ldr	r5, [sp, #44]	@ 0x2c
   21ecc:	a8ff      	add	r0, sp, #1020	@ 0x3fc
   21ece:	30a4      	adds	r0, #164	@ 0xa4
   21ed0:	7802      	ldrb	r2, [r0, #0]
   21ed2:	2a02      	cmp	r2, #2
   21ed4:	d003      	beq.n	21ede <_start+0x18da>
   21ed6:	2109      	movs	r1, #9
   21ed8:	4620      	mov	r0, r4
   21eda:	f006 f833 	bl	27f44 <_ZN9allow_pin12dynamic_type7unshare17ha4091652f9b609c4E>
   21ede:	48ab      	ldr	r0, [pc, #684]	@ (2218c <_start+0x1b88>)
   21ee0:	4468      	add	r0, sp
   21ee2:	7802      	ldrb	r2, [r0, #0]
   21ee4:	2a02      	cmp	r2, #2
   21ee6:	d003      	beq.n	21ef0 <_start+0x18ec>
   21ee8:	2103      	movs	r1, #3
   21eea:	4620      	mov	r0, r4
   21eec:	f006 f82a 	bl	27f44 <_ZN9allow_pin12dynamic_type7unshare17ha4091652f9b609c4E>
   21ef0:	2d00      	cmp	r5, #0
   21ef2:	d000      	beq.n	21ef6 <_start+0x18f2>
   21ef4:	e12d      	b.n	22152 <_start+0x1b4e>
   21ef6:	4ca5      	ldr	r4, [pc, #660]	@ (2218c <_start+0x1b88>)
   21ef8:	446c      	add	r4, sp
   21efa:	1c60      	adds	r0, r4, #1
   21efc:	9008      	str	r0, [sp, #32]
   21efe:	a9c9      	add	r1, sp, #804	@ 0x324
   21f00:	2203      	movs	r2, #3
   21f02:	9206      	str	r2, [sp, #24]
   21f04:	f006 f9eb 	bl	282de <__aeabi_memcpy>
   21f08:	ad9f      	add	r5, sp, #636	@ 0x27c
   21f0a:	499f      	ldr	r1, [pc, #636]	@ (22188 <_start+0x1b84>)
   21f0c:	4469      	add	r1, sp
   21f0e:	2635      	movs	r6, #53	@ 0x35
   21f10:	4628      	mov	r0, r5
   21f12:	4632      	mov	r2, r6
   21f14:	f006 f9e3 	bl	282de <__aeabi_memcpy>
   21f18:	4620      	mov	r0, r4
   21f1a:	3008      	adds	r0, #8
   21f1c:	4629      	mov	r1, r5
   21f1e:	4632      	mov	r2, r6
   21f20:	f006 f9dd 	bl	282de <__aeabi_memcpy>
   21f24:	9d0e      	ldr	r5, [sp, #56]	@ 0x38
   21f26:	7025      	strb	r5, [r4, #0]
   21f28:	980c      	ldr	r0, [sp, #48]	@ 0x30
   21f2a:	990f      	ldr	r1, [sp, #60]	@ 0x3c
   21f2c:	6541      	str	r1, [r0, #84]	@ 0x54
   21f2e:	acff      	add	r4, sp, #1020	@ 0x3fc
   21f30:	34a4      	adds	r4, #164	@ 0xa4
   21f32:	1c66      	adds	r6, r4, #1
   21f34:	2132      	movs	r1, #50	@ 0x32
   21f36:	4630      	mov	r0, r6
   21f38:	f006 f811 	bl	27f5e <__aeabi_memclr>
   21f3c:	7025      	strb	r5, [r4, #0]
   21f3e:	980d      	ldr	r0, [sp, #52]	@ 0x34
   21f40:	9000      	str	r0, [sp, #0]
   21f42:	4d96      	ldr	r5, [pc, #600]	@ (2219c <_start+0x1b98>)
   21f44:	3575      	adds	r5, #117	@ 0x75
   21f46:	2106      	movs	r1, #6
   21f48:	233c      	movs	r3, #60	@ 0x3c
   21f4a:	4628      	mov	r0, r5
   21f4c:	9a08      	ldr	r2, [sp, #32]
   21f4e:	f7fe f9a5 	bl	2029c <_ZN9allow_pin12dynamic_type11allow_inner17hf1099571477a6939E>
   21f52:	910f      	str	r1, [sp, #60]	@ 0x3c
   21f54:	07c0      	lsls	r0, r0, #31
   21f56:	d11c      	bne.n	21f92 <_start+0x198e>
   21f58:	488c      	ldr	r0, [pc, #560]	@ (2218c <_start+0x1b88>)
   21f5a:	4468      	add	r0, sp
   21f5c:	990d      	ldr	r1, [sp, #52]	@ 0x34
   21f5e:	7001      	strb	r1, [r0, #0]
   21f60:	9806      	ldr	r0, [sp, #24]
   21f62:	9000      	str	r0, [sp, #0]
   21f64:	2108      	movs	r1, #8
   21f66:	2332      	movs	r3, #50	@ 0x32
   21f68:	4628      	mov	r0, r5
   21f6a:	4632      	mov	r2, r6
   21f6c:	f7fe f996 	bl	2029c <_ZN9allow_pin12dynamic_type11allow_inner17hf1099571477a6939E>
   21f70:	910f      	str	r1, [sp, #60]	@ 0x3c
   21f72:	07c0      	lsls	r0, r0, #31
   21f74:	d10d      	bne.n	21f92 <_start+0x198e>
   21f76:	a8ff      	add	r0, sp, #1020	@ 0x3fc
   21f78:	30a4      	adds	r0, #164	@ 0xa4
   21f7a:	9906      	ldr	r1, [sp, #24]
   21f7c:	7001      	strb	r1, [r0, #0]
   21f7e:	4888      	ldr	r0, [pc, #544]	@ (221a0 <_start+0x1b9c>)
   21f80:	2106      	movs	r1, #6
   21f82:	2208      	movs	r2, #8
   21f84:	2400      	movs	r4, #0
   21f86:	4623      	mov	r3, r4
   21f88:	df02      	svc	2
   21f8a:	910f      	str	r1, [sp, #60]	@ 0x3c
   21f8c:	287f      	cmp	r0, #127	@ 0x7f
   21f8e:	d900      	bls.n	21f92 <_start+0x198e>
   21f90:	e31c      	b.n	225cc <_start+0x1fc8>
   21f92:	9c0b      	ldr	r4, [sp, #44]	@ 0x2c
   21f94:	a8ff      	add	r0, sp, #1020	@ 0x3fc
   21f96:	30a4      	adds	r0, #164	@ 0xa4
   21f98:	7802      	ldrb	r2, [r0, #0]
   21f9a:	2a02      	cmp	r2, #2
   21f9c:	d003      	beq.n	21fa6 <_start+0x19a2>
   21f9e:	2108      	movs	r1, #8
   21fa0:	4628      	mov	r0, r5
   21fa2:	f005 ffcf 	bl	27f44 <_ZN9allow_pin12dynamic_type7unshare17ha4091652f9b609c4E>
   21fa6:	4879      	ldr	r0, [pc, #484]	@ (2218c <_start+0x1b88>)
   21fa8:	4468      	add	r0, sp
   21faa:	7802      	ldrb	r2, [r0, #0]
   21fac:	2a02      	cmp	r2, #2
   21fae:	d003      	beq.n	21fb8 <_start+0x19b4>
   21fb0:	2106      	movs	r1, #6
   21fb2:	4628      	mov	r0, r5
   21fb4:	f005 ffc6 	bl	27f44 <_ZN9allow_pin12dynamic_type7unshare17ha4091652f9b609c4E>
   21fb8:	2c00      	cmp	r4, #0
   21fba:	d000      	beq.n	21fbe <_start+0x19ba>
   21fbc:	e0c9      	b.n	22152 <_start+0x1b4e>
   21fbe:	adff      	add	r5, sp, #1020	@ 0x3fc
   21fc0:	35a4      	adds	r5, #164	@ 0xa4
   21fc2:	1c68      	adds	r0, r5, #1
   21fc4:	9505      	str	r5, [sp, #20]
   21fc6:	9008      	str	r0, [sp, #32]
   21fc8:	a9c9      	add	r1, sp, #804	@ 0x324
   21fca:	2203      	movs	r2, #3
   21fcc:	9206      	str	r2, [sp, #24]
   21fce:	f006 f986 	bl	282de <__aeabi_memcpy>
   21fd2:	ac9f      	add	r4, sp, #636	@ 0x27c
   21fd4:	496c      	ldr	r1, [pc, #432]	@ (22188 <_start+0x1b84>)
   21fd6:	4469      	add	r1, sp
   21fd8:	262b      	movs	r6, #43	@ 0x2b
   21fda:	4620      	mov	r0, r4
   21fdc:	4632      	mov	r2, r6
   21fde:	f006 f97e 	bl	282de <__aeabi_memcpy>
   21fe2:	4628      	mov	r0, r5
   21fe4:	3008      	adds	r0, #8
   21fe6:	4621      	mov	r1, r4
   21fe8:	4632      	mov	r2, r6
   21fea:	f006 f978 	bl	282de <__aeabi_memcpy>
   21fee:	9d0e      	ldr	r5, [sp, #56]	@ 0x38
   21ff0:	9805      	ldr	r0, [sp, #20]
   21ff2:	7005      	strb	r5, [r0, #0]
   21ff4:	9809      	ldr	r0, [sp, #36]	@ 0x24
   21ff6:	990f      	ldr	r1, [sp, #60]	@ 0x3c
   21ff8:	6001      	str	r1, [r0, #0]
   21ffa:	4c64      	ldr	r4, [pc, #400]	@ (2218c <_start+0x1b88>)
   21ffc:	446c      	add	r4, sp
   21ffe:	1c60      	adds	r0, r4, #1
   22000:	2632      	movs	r6, #50	@ 0x32
   22002:	9005      	str	r0, [sp, #20]
   22004:	4631      	mov	r1, r6
   22006:	f005 ffaa 	bl	27f5e <__aeabi_memclr>
   2200a:	7025      	strb	r5, [r4, #0]
   2200c:	980d      	ldr	r0, [sp, #52]	@ 0x34
   2200e:	9000      	str	r0, [sp, #0]
   22010:	4c64      	ldr	r4, [pc, #400]	@ (221a4 <_start+0x1ba0>)
   22012:	34bc      	adds	r4, #188	@ 0xbc
   22014:	4620      	mov	r0, r4
   22016:	9906      	ldr	r1, [sp, #24]
   22018:	460d      	mov	r5, r1
   2201a:	9a08      	ldr	r2, [sp, #32]
   2201c:	4633      	mov	r3, r6
   2201e:	f7fe f93d 	bl	2029c <_ZN9allow_pin12dynamic_type11allow_inner17hf1099571477a6939E>
   22022:	910f      	str	r1, [sp, #60]	@ 0x3c
   22024:	07c0      	lsls	r0, r0, #31
   22026:	d11b      	bne.n	22060 <_start+0x1a5c>
   22028:	a8ff      	add	r0, sp, #1020	@ 0x3fc
   2202a:	30a4      	adds	r0, #164	@ 0xa4
   2202c:	990d      	ldr	r1, [sp, #52]	@ 0x34
   2202e:	7001      	strb	r1, [r0, #0]
   22030:	9500      	str	r5, [sp, #0]
   22032:	2101      	movs	r1, #1
   22034:	2332      	movs	r3, #50	@ 0x32
   22036:	4620      	mov	r0, r4
   22038:	9a05      	ldr	r2, [sp, #20]
   2203a:	f7fe f92f 	bl	2029c <_ZN9allow_pin12dynamic_type11allow_inner17hf1099571477a6939E>
   2203e:	910f      	str	r1, [sp, #60]	@ 0x3c
   22040:	07c0      	lsls	r0, r0, #31
   22042:	d10d      	bne.n	22060 <_start+0x1a5c>
   22044:	4851      	ldr	r0, [pc, #324]	@ (2218c <_start+0x1b88>)
   22046:	4468      	add	r0, sp
   22048:	4629      	mov	r1, r5
   2204a:	7005      	strb	r5, [r0, #0]
   2204c:	4856      	ldr	r0, [pc, #344]	@ (221a8 <_start+0x1ba4>)
   2204e:	2201      	movs	r2, #1
   22050:	2600      	movs	r6, #0
   22052:	4633      	mov	r3, r6
   22054:	df02      	svc	2
   22056:	910f      	str	r1, [sp, #60]	@ 0x3c
   22058:	287f      	cmp	r0, #127	@ 0x7f
   2205a:	d901      	bls.n	22060 <_start+0x1a5c>
   2205c:	f001 fed8 	bl	23e10 <_start+0x380c>
   22060:	9e0b      	ldr	r6, [sp, #44]	@ 0x2c
   22062:	484a      	ldr	r0, [pc, #296]	@ (2218c <_start+0x1b88>)
   22064:	4468      	add	r0, sp
   22066:	7802      	ldrb	r2, [r0, #0]
   22068:	2a02      	cmp	r2, #2
   2206a:	d003      	beq.n	22074 <_start+0x1a70>
   2206c:	2101      	movs	r1, #1
   2206e:	4620      	mov	r0, r4
   22070:	f005 ff68 	bl	27f44 <_ZN9allow_pin12dynamic_type7unshare17ha4091652f9b609c4E>
   22074:	a8ff      	add	r0, sp, #1020	@ 0x3fc
   22076:	30a4      	adds	r0, #164	@ 0xa4
   22078:	7802      	ldrb	r2, [r0, #0]
   2207a:	2a02      	cmp	r2, #2
   2207c:	d003      	beq.n	22086 <_start+0x1a82>
   2207e:	2103      	movs	r1, #3
   22080:	4620      	mov	r0, r4
   22082:	f005 ff5f 	bl	27f44 <_ZN9allow_pin12dynamic_type7unshare17ha4091652f9b609c4E>
   22086:	2e00      	cmp	r6, #0
   22088:	d163      	bne.n	22152 <_start+0x1b4e>
   2208a:	4d40      	ldr	r5, [pc, #256]	@ (2218c <_start+0x1b88>)
   2208c:	446d      	add	r5, sp
   2208e:	1c68      	adds	r0, r5, #1
   22090:	9008      	str	r0, [sp, #32]
   22092:	a9c9      	add	r1, sp, #804	@ 0x324
   22094:	2203      	movs	r2, #3
   22096:	9206      	str	r2, [sp, #24]
   22098:	f006 f921 	bl	282de <__aeabi_memcpy>
   2209c:	ac9f      	add	r4, sp, #636	@ 0x27c
   2209e:	493a      	ldr	r1, [pc, #232]	@ (22188 <_start+0x1b84>)
   220a0:	4469      	add	r1, sp
   220a2:	262b      	movs	r6, #43	@ 0x2b
   220a4:	4620      	mov	r0, r4
   220a6:	4632      	mov	r2, r6
   220a8:	f006 f919 	bl	282de <__aeabi_memcpy>
   220ac:	4628      	mov	r0, r5
   220ae:	3008      	adds	r0, #8
   220b0:	4621      	mov	r1, r4
   220b2:	4632      	mov	r2, r6
   220b4:	f006 f913 	bl	282de <__aeabi_memcpy>
   220b8:	9e0e      	ldr	r6, [sp, #56]	@ 0x38
   220ba:	702e      	strb	r6, [r5, #0]
   220bc:	980c      	ldr	r0, [sp, #48]	@ 0x30
   220be:	990f      	ldr	r1, [sp, #60]	@ 0x3c
   220c0:	6541      	str	r1, [r0, #84]	@ 0x54
   220c2:	acff      	add	r4, sp, #1020	@ 0x3fc
   220c4:	34a4      	adds	r4, #164	@ 0xa4
   220c6:	1c65      	adds	r5, r4, #1
   220c8:	2110      	movs	r1, #16
   220ca:	4628      	mov	r0, r5
   220cc:	f005 ff47 	bl	27f5e <__aeabi_memclr>
   220d0:	7026      	strb	r6, [r4, #0]
   220d2:	990d      	ldr	r1, [sp, #52]	@ 0x34
   220d4:	9100      	str	r1, [sp, #0]
   220d6:	4c35      	ldr	r4, [pc, #212]	@ (221ac <_start+0x1ba8>)
   220d8:	346b      	adds	r4, #107	@ 0x6b
   220da:	2332      	movs	r3, #50	@ 0x32
   220dc:	4620      	mov	r0, r4
   220de:	9a08      	ldr	r2, [sp, #32]
   220e0:	f7fe f8dc 	bl	2029c <_ZN9allow_pin12dynamic_type11allow_inner17hf1099571477a6939E>
   220e4:	910f      	str	r1, [sp, #60]	@ 0x3c
   220e6:	07c0      	lsls	r0, r0, #31
   220e8:	d11d      	bne.n	22126 <_start+0x1b22>
   220ea:	4828      	ldr	r0, [pc, #160]	@ (2218c <_start+0x1b88>)
   220ec:	4468      	add	r0, sp
   220ee:	990d      	ldr	r1, [sp, #52]	@ 0x34
   220f0:	7001      	strb	r1, [r0, #0]
   220f2:	9806      	ldr	r0, [sp, #24]
   220f4:	9000      	str	r0, [sp, #0]
   220f6:	2109      	movs	r1, #9
   220f8:	2310      	movs	r3, #16
   220fa:	4620      	mov	r0, r4
   220fc:	462a      	mov	r2, r5
   220fe:	f7fe f8cd 	bl	2029c <_ZN9allow_pin12dynamic_type11allow_inner17hf1099571477a6939E>
   22102:	910f      	str	r1, [sp, #60]	@ 0x3c
   22104:	07c0      	lsls	r0, r0, #31
   22106:	d10e      	bne.n	22126 <_start+0x1b22>
   22108:	a8ff      	add	r0, sp, #1020	@ 0x3fc
   2210a:	30a4      	adds	r0, #164	@ 0xa4
   2210c:	9906      	ldr	r1, [sp, #24]
   2210e:	7001      	strb	r1, [r0, #0]
   22110:	4827      	ldr	r0, [pc, #156]	@ (221b0 <_start+0x1bac>)
   22112:	2104      	movs	r1, #4
   22114:	2209      	movs	r2, #9
   22116:	2600      	movs	r6, #0
   22118:	4633      	mov	r3, r6
   2211a:	df02      	svc	2
   2211c:	910f      	str	r1, [sp, #60]	@ 0x3c
   2211e:	287f      	cmp	r0, #127	@ 0x7f
   22120:	d901      	bls.n	22126 <_start+0x1b22>
   22122:	f001 fea5 	bl	23e70 <_start+0x386c>
   22126:	9e0b      	ldr	r6, [sp, #44]	@ 0x2c
   22128:	a8ff      	add	r0, sp, #1020	@ 0x3fc
   2212a:	30a4      	adds	r0, #164	@ 0xa4
   2212c:	7802      	ldrb	r2, [r0, #0]
   2212e:	2a02      	cmp	r2, #2
   22130:	d003      	beq.n	2213a <_start+0x1b36>
   22132:	2109      	movs	r1, #9
   22134:	4620      	mov	r0, r4
   22136:	f005 ff05 	bl	27f44 <_ZN9allow_pin12dynamic_type7unshare17ha4091652f9b609c4E>
   2213a:	4814      	ldr	r0, [pc, #80]	@ (2218c <_start+0x1b88>)
   2213c:	4468      	add	r0, sp
   2213e:	7802      	ldrb	r2, [r0, #0]
   22140:	2a02      	cmp	r2, #2
   22142:	d003      	beq.n	2214c <_start+0x1b48>
   22144:	2104      	movs	r1, #4
   22146:	4620      	mov	r0, r4
   22148:	f005 fefc 	bl	27f44 <_ZN9allow_pin12dynamic_type7unshare17ha4091652f9b609c4E>
   2214c:	2e00      	cmp	r6, #0
   2214e:	d100      	bne.n	22152 <_start+0x1b4e>
   22150:	e26e      	b.n	22630 <_start+0x202c>
   22152:	2501      	movs	r5, #1
   22154:	4628      	mov	r0, r5
   22156:	990f      	ldr	r1, [sp, #60]	@ 0x3c
   22158:	1ffe      	subs	r6, r7, #7
   2215a:	3e05      	subs	r6, #5
   2215c:	46b5      	mov	sp, r6
   2215e:	bdf0      	pop	{r4, r5, r6, r7, pc}
   22160:	9809      	ldr	r0, [sp, #36]	@ 0x24
   22162:	6800      	ldr	r0, [r0, #0]
   22164:	900f      	str	r0, [sp, #60]	@ 0x3c
   22166:	78a8      	ldrb	r0, [r5, #2]
   22168:	a9ff      	add	r1, sp, #1020	@ 0x3fc
   2216a:	318c      	adds	r1, #140	@ 0x8c
   2216c:	7088      	strb	r0, [r1, #2]
   2216e:	7828      	ldrb	r0, [r5, #0]
   22170:	786a      	ldrb	r2, [r5, #1]
   22172:	0212      	lsls	r2, r2, #8
   22174:	1810      	adds	r0, r2, r0
   22176:	8008      	strh	r0, [r1, #0]
   22178:	a8c9      	add	r0, sp, #804	@ 0x324
   2217a:	2217      	movs	r2, #23
   2217c:	4631      	mov	r1, r6
   2217e:	f006 f8ae 	bl	282de <__aeabi_memcpy>
   22182:	f7ff f90d 	bl	213a0 <_start+0xd9c>
   22186:	46c0      	nop			@ (mov r8, r8)
   22188:	00000558 	.word	0x00000558
   2218c:	000005a8 	.word	0x000005a8
   22190:	00000aee 	.word	0x00000aee
   22194:	00000d5d 	.word	0x00000d5d
   22198:	00000d7a 	.word	0x00000d7a
   2219c:	00001aa9 	.word	0x00001aa9
   221a0:	00001b1e 	.word	0x00001b1e
   221a4:	00001e4b 	.word	0x00001e4b
   221a8:	00001f07 	.word	0x00001f07
   221ac:	0000196b 	.word	0x0000196b
   221b0:	000019d6 	.word	0x000019d6
   221b4:	48e8      	ldr	r0, [pc, #928]	@ (22558 <_start+0x1f54>)
   221b6:	4468      	add	r0, sp
   221b8:	7802      	ldrb	r2, [r0, #0]
   221ba:	2a02      	cmp	r2, #2
   221bc:	d00d      	beq.n	221da <_start+0x1bd6>
   221be:	2107      	movs	r1, #7
   221c0:	4620      	mov	r0, r4
   221c2:	f005 febf 	bl	27f44 <_ZN9allow_pin12dynamic_type7unshare17ha4091652f9b609c4E>
   221c6:	48fd      	ldr	r0, [pc, #1012]	@ (225bc <_start+0x1fb8>)
   221c8:	4468      	add	r0, sp
   221ca:	990e      	ldr	r1, [sp, #56]	@ 0x38
   221cc:	7001      	strb	r1, [r0, #0]
   221ce:	48fc      	ldr	r0, [pc, #1008]	@ (225c0 <_start+0x1fbc>)
   221d0:	4468      	add	r0, sp
   221d2:	7800      	ldrb	r0, [r0, #0]
   221d4:	4605      	mov	r5, r0
   221d6:	2802      	cmp	r0, #2
   221d8:	d004      	beq.n	221e4 <_start+0x1be0>
   221da:	2100      	movs	r1, #0
   221dc:	4620      	mov	r0, r4
   221de:	462a      	mov	r2, r5
   221e0:	f005 feb0 	bl	27f44 <_ZN9allow_pin12dynamic_type7unshare17ha4091652f9b609c4E>
   221e4:	49f6      	ldr	r1, [pc, #984]	@ (225c0 <_start+0x1fbc>)
   221e6:	4469      	add	r1, sp
   221e8:	980e      	ldr	r0, [sp, #56]	@ 0x38
   221ea:	7008      	strb	r0, [r1, #0]
   221ec:	78b0      	ldrb	r0, [r6, #2]
   221ee:	aac9      	add	r2, sp, #804	@ 0x324
   221f0:	7090      	strb	r0, [r2, #2]
   221f2:	7830      	ldrb	r0, [r6, #0]
   221f4:	7873      	ldrb	r3, [r6, #1]
   221f6:	021b      	lsls	r3, r3, #8
   221f8:	1818      	adds	r0, r3, r0
   221fa:	8010      	strh	r0, [r2, #0]
   221fc:	980c      	ldr	r0, [sp, #48]	@ 0x30
   221fe:	6d40      	ldr	r0, [r0, #84]	@ 0x54
   22200:	900f      	str	r0, [sp, #60]	@ 0x3c
   22202:	3108      	adds	r1, #8
   22204:	a89f      	add	r0, sp, #636	@ 0x27c
   22206:	2225      	movs	r2, #37	@ 0x25
   22208:	f006 f869 	bl	282de <__aeabi_memcpy>
   2220c:	9d08      	ldr	r5, [sp, #32]
   2220e:	f7ff f9dc 	bl	215ca <_start+0xfc6>
   22212:	48eb      	ldr	r0, [pc, #940]	@ (225c0 <_start+0x1fbc>)
   22214:	4468      	add	r0, sp
   22216:	7802      	ldrb	r2, [r0, #0]
   22218:	2a02      	cmp	r2, #2
   2221a:	d00d      	beq.n	22238 <_start+0x1c34>
   2221c:	2103      	movs	r1, #3
   2221e:	48e9      	ldr	r0, [pc, #932]	@ (225c4 <_start+0x1fc0>)
   22220:	f005 fe90 	bl	27f44 <_ZN9allow_pin12dynamic_type7unshare17ha4091652f9b609c4E>
   22224:	48e6      	ldr	r0, [pc, #920]	@ (225c0 <_start+0x1fbc>)
   22226:	4468      	add	r0, sp
   22228:	990e      	ldr	r1, [sp, #56]	@ 0x38
   2222a:	7001      	strb	r1, [r0, #0]
   2222c:	a8ff      	add	r0, sp, #1020	@ 0x3fc
   2222e:	30a4      	adds	r0, #164	@ 0xa4
   22230:	7800      	ldrb	r0, [r0, #0]
   22232:	4605      	mov	r5, r0
   22234:	2802      	cmp	r0, #2
   22236:	d004      	beq.n	22242 <_start+0x1c3e>
   22238:	2100      	movs	r1, #0
   2223a:	48e2      	ldr	r0, [pc, #904]	@ (225c4 <_start+0x1fc0>)
   2223c:	462a      	mov	r2, r5
   2223e:	f005 fe81 	bl	27f44 <_ZN9allow_pin12dynamic_type7unshare17ha4091652f9b609c4E>
   22242:	a9ff      	add	r1, sp, #1020	@ 0x3fc
   22244:	31a4      	adds	r1, #164	@ 0xa4
   22246:	980e      	ldr	r0, [sp, #56]	@ 0x38
   22248:	7008      	strb	r0, [r1, #0]
   2224a:	9b05      	ldr	r3, [sp, #20]
   2224c:	7898      	ldrb	r0, [r3, #2]
   2224e:	aac9      	add	r2, sp, #804	@ 0x324
   22250:	7090      	strb	r0, [r2, #2]
   22252:	7818      	ldrb	r0, [r3, #0]
   22254:	785b      	ldrb	r3, [r3, #1]
   22256:	021b      	lsls	r3, r3, #8
   22258:	1818      	adds	r0, r3, r0
   2225a:	8010      	strh	r0, [r2, #0]
   2225c:	9809      	ldr	r0, [sp, #36]	@ 0x24
   2225e:	6800      	ldr	r0, [r0, #0]
   22260:	900f      	str	r0, [sp, #60]	@ 0x3c
   22262:	3108      	adds	r1, #8
   22264:	48d5      	ldr	r0, [pc, #852]	@ (225bc <_start+0x1fb8>)
   22266:	4468      	add	r0, sp
   22268:	221e      	movs	r2, #30
   2226a:	f006 f838 	bl	282de <__aeabi_memcpy>
   2226e:	f7ff fa24 	bl	216ba <_start+0x10b6>
   22272:	48d3      	ldr	r0, [pc, #844]	@ (225c0 <_start+0x1fbc>)
   22274:	4468      	add	r0, sp
   22276:	7802      	ldrb	r2, [r0, #0]
   22278:	2a02      	cmp	r2, #2
   2227a:	d00d      	beq.n	22298 <_start+0x1c94>
   2227c:	2109      	movs	r1, #9
   2227e:	4620      	mov	r0, r4
   22280:	f005 fe60 	bl	27f44 <_ZN9allow_pin12dynamic_type7unshare17ha4091652f9b609c4E>
   22284:	48ce      	ldr	r0, [pc, #824]	@ (225c0 <_start+0x1fbc>)
   22286:	4468      	add	r0, sp
   22288:	990e      	ldr	r1, [sp, #56]	@ 0x38
   2228a:	7001      	strb	r1, [r0, #0]
   2228c:	a8ff      	add	r0, sp, #1020	@ 0x3fc
   2228e:	30a4      	adds	r0, #164	@ 0xa4
   22290:	7800      	ldrb	r0, [r0, #0]
   22292:	9006      	str	r0, [sp, #24]
   22294:	2802      	cmp	r0, #2
   22296:	d004      	beq.n	222a2 <_start+0x1c9e>
   22298:	2108      	movs	r1, #8
   2229a:	4620      	mov	r0, r4
   2229c:	9a06      	ldr	r2, [sp, #24]
   2229e:	f005 fe51 	bl	27f44 <_ZN9allow_pin12dynamic_type7unshare17ha4091652f9b609c4E>
   222a2:	a8ff      	add	r0, sp, #1020	@ 0x3fc
   222a4:	30a4      	adds	r0, #164	@ 0xa4
   222a6:	990e      	ldr	r1, [sp, #56]	@ 0x38
   222a8:	7001      	strb	r1, [r0, #0]
   222aa:	78a9      	ldrb	r1, [r5, #2]
   222ac:	aaff      	add	r2, sp, #1020	@ 0x3fc
   222ae:	328c      	adds	r2, #140	@ 0x8c
   222b0:	7091      	strb	r1, [r2, #2]
   222b2:	7829      	ldrb	r1, [r5, #0]
   222b4:	786b      	ldrb	r3, [r5, #1]
   222b6:	021b      	lsls	r3, r3, #8
   222b8:	1859      	adds	r1, r3, r1
   222ba:	8011      	strh	r1, [r2, #0]
   222bc:	3008      	adds	r0, #8
   222be:	9909      	ldr	r1, [sp, #36]	@ 0x24
   222c0:	6809      	ldr	r1, [r1, #0]
   222c2:	910f      	str	r1, [sp, #60]	@ 0x3c
   222c4:	adc9      	add	r5, sp, #804	@ 0x324
   222c6:	c84e      	ldmia	r0!, {r1, r2, r3, r6}
   222c8:	c54e      	stmia	r5!, {r1, r2, r3, r6}
   222ca:	7800      	ldrb	r0, [r0, #0]
   222cc:	7028      	strb	r0, [r5, #0]
   222ce:	f7ff fa71 	bl	217b4 <_start+0x11b0>
   222d2:	48ba      	ldr	r0, [pc, #744]	@ (225bc <_start+0x1fb8>)
   222d4:	4468      	add	r0, sp
   222d6:	7802      	ldrb	r2, [r0, #0]
   222d8:	2a02      	cmp	r2, #2
   222da:	d00d      	beq.n	222f8 <_start+0x1cf4>
   222dc:	20f3      	movs	r0, #243	@ 0xf3
   222de:	2108      	movs	r1, #8
   222e0:	f005 fe30 	bl	27f44 <_ZN9allow_pin12dynamic_type7unshare17ha4091652f9b609c4E>
   222e4:	48b5      	ldr	r0, [pc, #724]	@ (225bc <_start+0x1fb8>)
   222e6:	4468      	add	r0, sp
   222e8:	990e      	ldr	r1, [sp, #56]	@ 0x38
   222ea:	7001      	strb	r1, [r0, #0]
   222ec:	48b4      	ldr	r0, [pc, #720]	@ (225c0 <_start+0x1fbc>)
   222ee:	4468      	add	r0, sp
   222f0:	7800      	ldrb	r0, [r0, #0]
   222f2:	9005      	str	r0, [sp, #20]
   222f4:	2802      	cmp	r0, #2
   222f6:	d004      	beq.n	22302 <_start+0x1cfe>
   222f8:	20f3      	movs	r0, #243	@ 0xf3
   222fa:	2104      	movs	r1, #4
   222fc:	9a05      	ldr	r2, [sp, #20]
   222fe:	f005 fe21 	bl	27f44 <_ZN9allow_pin12dynamic_type7unshare17ha4091652f9b609c4E>
   22302:	49af      	ldr	r1, [pc, #700]	@ (225c0 <_start+0x1fbc>)
   22304:	4469      	add	r1, sp
   22306:	980e      	ldr	r0, [sp, #56]	@ 0x38
   22308:	7008      	strb	r0, [r1, #0]
   2230a:	78b0      	ldrb	r0, [r6, #2]
   2230c:	aac9      	add	r2, sp, #804	@ 0x324
   2230e:	7090      	strb	r0, [r2, #2]
   22310:	7830      	ldrb	r0, [r6, #0]
   22312:	7873      	ldrb	r3, [r6, #1]
   22314:	021b      	lsls	r3, r3, #8
   22316:	1818      	adds	r0, r3, r0
   22318:	8010      	strh	r0, [r2, #0]
   2231a:	980c      	ldr	r0, [sp, #48]	@ 0x30
   2231c:	6d40      	ldr	r0, [r0, #84]	@ 0x54
   2231e:	900f      	str	r0, [sp, #60]	@ 0x3c
   22320:	3108      	adds	r1, #8
   22322:	a89f      	add	r0, sp, #636	@ 0x27c
   22324:	222f      	movs	r2, #47	@ 0x2f
   22326:	f005 ffda 	bl	282de <__aeabi_memcpy>
   2232a:	f7ff faba 	bl	218a2 <_start+0x129e>
   2232e:	48a4      	ldr	r0, [pc, #656]	@ (225c0 <_start+0x1fbc>)
   22330:	4468      	add	r0, sp
   22332:	7802      	ldrb	r2, [r0, #0]
   22334:	2a02      	cmp	r2, #2
   22336:	d00d      	beq.n	22354 <_start+0x1d50>
   22338:	2104      	movs	r1, #4
   2233a:	4620      	mov	r0, r4
   2233c:	f005 fe02 	bl	27f44 <_ZN9allow_pin12dynamic_type7unshare17ha4091652f9b609c4E>
   22340:	489f      	ldr	r0, [pc, #636]	@ (225c0 <_start+0x1fbc>)
   22342:	4468      	add	r0, sp
   22344:	9908      	ldr	r1, [sp, #32]
   22346:	7001      	strb	r1, [r0, #0]
   22348:	a8ff      	add	r0, sp, #1020	@ 0x3fc
   2234a:	30a4      	adds	r0, #164	@ 0xa4
   2234c:	7800      	ldrb	r0, [r0, #0]
   2234e:	9006      	str	r0, [sp, #24]
   22350:	2802      	cmp	r0, #2
   22352:	d004      	beq.n	2235e <_start+0x1d5a>
   22354:	2102      	movs	r1, #2
   22356:	4620      	mov	r0, r4
   22358:	9a06      	ldr	r2, [sp, #24]
   2235a:	f005 fdf3 	bl	27f44 <_ZN9allow_pin12dynamic_type7unshare17ha4091652f9b609c4E>
   2235e:	a9ff      	add	r1, sp, #1020	@ 0x3fc
   22360:	31a4      	adds	r1, #164	@ 0xa4
   22362:	9808      	ldr	r0, [sp, #32]
   22364:	7008      	strb	r0, [r1, #0]
   22366:	78b0      	ldrb	r0, [r6, #2]
   22368:	aac9      	add	r2, sp, #804	@ 0x324
   2236a:	7090      	strb	r0, [r2, #2]
   2236c:	7830      	ldrb	r0, [r6, #0]
   2236e:	7873      	ldrb	r3, [r6, #1]
   22370:	021b      	lsls	r3, r3, #8
   22372:	1818      	adds	r0, r3, r0
   22374:	8010      	strh	r0, [r2, #0]
   22376:	9809      	ldr	r0, [sp, #36]	@ 0x24
   22378:	6800      	ldr	r0, [r0, #0]
   2237a:	900f      	str	r0, [sp, #60]	@ 0x3c
   2237c:	3108      	adds	r1, #8
   2237e:	488f      	ldr	r0, [pc, #572]	@ (225bc <_start+0x1fb8>)
   22380:	4468      	add	r0, sp
   22382:	222d      	movs	r2, #45	@ 0x2d
   22384:	f005 ffab 	bl	282de <__aeabi_memcpy>
   22388:	f7ff fb03 	bl	21992 <_start+0x138e>
   2238c:	488c      	ldr	r0, [pc, #560]	@ (225c0 <_start+0x1fbc>)
   2238e:	4468      	add	r0, sp
   22390:	7802      	ldrb	r2, [r0, #0]
   22392:	2a02      	cmp	r2, #2
   22394:	d00d      	beq.n	223b2 <_start+0x1dae>
   22396:	4620      	mov	r0, r4
   22398:	990d      	ldr	r1, [sp, #52]	@ 0x34
   2239a:	f005 fdd3 	bl	27f44 <_ZN9allow_pin12dynamic_type7unshare17ha4091652f9b609c4E>
   2239e:	4888      	ldr	r0, [pc, #544]	@ (225c0 <_start+0x1fbc>)
   223a0:	4468      	add	r0, sp
   223a2:	990d      	ldr	r1, [sp, #52]	@ 0x34
   223a4:	7001      	strb	r1, [r0, #0]
   223a6:	a8ff      	add	r0, sp, #1020	@ 0x3fc
   223a8:	30a4      	adds	r0, #164	@ 0xa4
   223aa:	7800      	ldrb	r0, [r0, #0]
   223ac:	9006      	str	r0, [sp, #24]
   223ae:	2802      	cmp	r0, #2
   223b0:	d004      	beq.n	223bc <_start+0x1db8>
   223b2:	2108      	movs	r1, #8
   223b4:	4620      	mov	r0, r4
   223b6:	9a06      	ldr	r2, [sp, #24]
   223b8:	f005 fdc4 	bl	27f44 <_ZN9allow_pin12dynamic_type7unshare17ha4091652f9b609c4E>
   223bc:	a9ff      	add	r1, sp, #1020	@ 0x3fc
   223be:	31a4      	adds	r1, #164	@ 0xa4
   223c0:	980d      	ldr	r0, [sp, #52]	@ 0x34
   223c2:	7008      	strb	r0, [r1, #0]
   223c4:	78a8      	ldrb	r0, [r5, #2]
   223c6:	aaff      	add	r2, sp, #1020	@ 0x3fc
   223c8:	328c      	adds	r2, #140	@ 0x8c
   223ca:	7090      	strb	r0, [r2, #2]
   223cc:	7828      	ldrb	r0, [r5, #0]
   223ce:	786b      	ldrb	r3, [r5, #1]
   223d0:	021b      	lsls	r3, r3, #8
   223d2:	1818      	adds	r0, r3, r0
   223d4:	8010      	strh	r0, [r2, #0]
   223d6:	9809      	ldr	r0, [sp, #36]	@ 0x24
   223d8:	6800      	ldr	r0, [r0, #0]
   223da:	900f      	str	r0, [sp, #60]	@ 0x3c
   223dc:	3108      	adds	r1, #8
   223de:	a8c9      	add	r0, sp, #804	@ 0x324
   223e0:	2227      	movs	r2, #39	@ 0x27
   223e2:	f005 ff7c 	bl	282de <__aeabi_memcpy>
   223e6:	f7ff fb48 	bl	21a7a <_start+0x1476>
   223ea:	4874      	ldr	r0, [pc, #464]	@ (225bc <_start+0x1fb8>)
   223ec:	4468      	add	r0, sp
   223ee:	f7fe f8e9 	bl	205c4 <_ZN9allow_pin12dynamic_type23Buffer$LT$B$C$_$C$_$GT$7unallow17hab5e9e86e67a55afE>
   223f2:	4e73      	ldr	r6, [pc, #460]	@ (225c0 <_start+0x1fbc>)
   223f4:	446e      	add	r6, sp
   223f6:	4630      	mov	r0, r6
   223f8:	f7fe f8e4 	bl	205c4 <_ZN9allow_pin12dynamic_type23Buffer$LT$B$C$_$C$_$GT$7unallow17hab5e9e86e67a55afE>
   223fc:	4972      	ldr	r1, [pc, #456]	@ (225c8 <_start+0x1fc4>)
   223fe:	1dca      	adds	r2, r1, #7
   22400:	7830      	ldrb	r0, [r6, #0]
   22402:	3608      	adds	r6, #8
   22404:	2802      	cmp	r0, #2
   22406:	d000      	beq.n	2240a <_start+0x1e06>
   22408:	4616      	mov	r6, r2
   2240a:	d000      	beq.n	2240e <_start+0x1e0a>
   2240c:	9108      	str	r1, [sp, #32]
   2240e:	2802      	cmp	r0, #2
   22410:	d030      	beq.n	22474 <_start+0x1e70>
   22412:	940f      	str	r4, [sp, #60]	@ 0x3c
   22414:	e031      	b.n	2247a <_start+0x1e76>
   22416:	486a      	ldr	r0, [pc, #424]	@ (225c0 <_start+0x1fbc>)
   22418:	4468      	add	r0, sp
   2241a:	7802      	ldrb	r2, [r0, #0]
   2241c:	2a02      	cmp	r2, #2
   2241e:	d00d      	beq.n	2243c <_start+0x1e38>
   22420:	2108      	movs	r1, #8
   22422:	9807      	ldr	r0, [sp, #28]
   22424:	f005 fd8e 	bl	27f44 <_ZN9allow_pin12dynamic_type7unshare17ha4091652f9b609c4E>
   22428:	4865      	ldr	r0, [pc, #404]	@ (225c0 <_start+0x1fbc>)
   2242a:	4468      	add	r0, sp
   2242c:	990e      	ldr	r1, [sp, #56]	@ 0x38
   2242e:	7001      	strb	r1, [r0, #0]
   22430:	a8ff      	add	r0, sp, #1020	@ 0x3fc
   22432:	30a4      	adds	r0, #164	@ 0xa4
   22434:	7800      	ldrb	r0, [r0, #0]
   22436:	9006      	str	r0, [sp, #24]
   22438:	2802      	cmp	r0, #2
   2243a:	d004      	beq.n	22446 <_start+0x1e42>
   2243c:	2103      	movs	r1, #3
   2243e:	9807      	ldr	r0, [sp, #28]
   22440:	9a06      	ldr	r2, [sp, #24]
   22442:	f005 fd7f 	bl	27f44 <_ZN9allow_pin12dynamic_type7unshare17ha4091652f9b609c4E>
   22446:	a9ff      	add	r1, sp, #1020	@ 0x3fc
   22448:	31a4      	adds	r1, #164	@ 0xa4
   2244a:	980e      	ldr	r0, [sp, #56]	@ 0x38
   2244c:	7008      	strb	r0, [r1, #0]
   2244e:	78b0      	ldrb	r0, [r6, #2]
   22450:	aac9      	add	r2, sp, #804	@ 0x324
   22452:	7090      	strb	r0, [r2, #2]
   22454:	7830      	ldrb	r0, [r6, #0]
   22456:	7873      	ldrb	r3, [r6, #1]
   22458:	021b      	lsls	r3, r3, #8
   2245a:	1818      	adds	r0, r3, r0
   2245c:	8010      	strh	r0, [r2, #0]
   2245e:	9809      	ldr	r0, [sp, #36]	@ 0x24
   22460:	6800      	ldr	r0, [r0, #0]
   22462:	900f      	str	r0, [sp, #60]	@ 0x3c
   22464:	3108      	adds	r1, #8
   22466:	4855      	ldr	r0, [pc, #340]	@ (225bc <_start+0x1fb8>)
   22468:	4468      	add	r0, sp
   2246a:	222d      	movs	r2, #45	@ 0x2d
   2246c:	f005 ff37 	bl	282de <__aeabi_memcpy>
   22470:	f7ff fbdf 	bl	21c32 <_start+0x162e>
   22474:	980c      	ldr	r0, [sp, #48]	@ 0x30
   22476:	6d40      	ldr	r0, [r0, #84]	@ 0x54
   22478:	900f      	str	r0, [sp, #60]	@ 0x3c
   2247a:	9a08      	ldr	r2, [sp, #32]
   2247c:	7890      	ldrb	r0, [r2, #2]
   2247e:	a9c9      	add	r1, sp, #804	@ 0x324
   22480:	7088      	strb	r0, [r1, #2]
   22482:	7810      	ldrb	r0, [r2, #0]
   22484:	7852      	ldrb	r2, [r2, #1]
   22486:	0212      	lsls	r2, r2, #8
   22488:	1810      	adds	r0, r2, r0
   2248a:	8008      	strh	r0, [r1, #0]
   2248c:	a89f      	add	r0, sp, #636	@ 0x27c
   2248e:	2231      	movs	r2, #49	@ 0x31
   22490:	4631      	mov	r1, r6
   22492:	f005 ff24 	bl	282de <__aeabi_memcpy>
   22496:	f7ff fb54 	bl	21b42 <_start+0x153e>
   2249a:	4849      	ldr	r0, [pc, #292]	@ (225c0 <_start+0x1fbc>)
   2249c:	4468      	add	r0, sp
   2249e:	7802      	ldrb	r2, [r0, #0]
   224a0:	2a02      	cmp	r2, #2
   224a2:	d00d      	beq.n	224c0 <_start+0x1ebc>
   224a4:	2100      	movs	r1, #0
   224a6:	4620      	mov	r0, r4
   224a8:	f005 fd4c 	bl	27f44 <_ZN9allow_pin12dynamic_type7unshare17ha4091652f9b609c4E>
   224ac:	4844      	ldr	r0, [pc, #272]	@ (225c0 <_start+0x1fbc>)
   224ae:	4468      	add	r0, sp
   224b0:	990e      	ldr	r1, [sp, #56]	@ 0x38
   224b2:	7001      	strb	r1, [r0, #0]
   224b4:	a8ff      	add	r0, sp, #1020	@ 0x3fc
   224b6:	30a4      	adds	r0, #164	@ 0xa4
   224b8:	7800      	ldrb	r0, [r0, #0]
   224ba:	9006      	str	r0, [sp, #24]
   224bc:	2802      	cmp	r0, #2
   224be:	d004      	beq.n	224ca <_start+0x1ec6>
   224c0:	2105      	movs	r1, #5
   224c2:	4620      	mov	r0, r4
   224c4:	9a06      	ldr	r2, [sp, #24]
   224c6:	f005 fd3d 	bl	27f44 <_ZN9allow_pin12dynamic_type7unshare17ha4091652f9b609c4E>
   224ca:	a8ff      	add	r0, sp, #1020	@ 0x3fc
   224cc:	30a4      	adds	r0, #164	@ 0xa4
   224ce:	990e      	ldr	r1, [sp, #56]	@ 0x38
   224d0:	7001      	strb	r1, [r0, #0]
   224d2:	78b1      	ldrb	r1, [r6, #2]
   224d4:	aaff      	add	r2, sp, #1020	@ 0x3fc
   224d6:	328c      	adds	r2, #140	@ 0x8c
   224d8:	7091      	strb	r1, [r2, #2]
   224da:	7831      	ldrb	r1, [r6, #0]
   224dc:	7873      	ldrb	r3, [r6, #1]
   224de:	021b      	lsls	r3, r3, #8
   224e0:	1859      	adds	r1, r3, r1
   224e2:	8011      	strh	r1, [r2, #0]
   224e4:	3008      	adds	r0, #8
   224e6:	9909      	ldr	r1, [sp, #36]	@ 0x24
   224e8:	6809      	ldr	r1, [r1, #0]
   224ea:	910f      	str	r1, [sp, #60]	@ 0x3c
   224ec:	a9c9      	add	r1, sp, #804	@ 0x324
   224ee:	c86c      	ldmia	r0!, {r2, r3, r5, r6}
   224f0:	c16c      	stmia	r1!, {r2, r3, r5, r6}
   224f2:	8802      	ldrh	r2, [r0, #0]
   224f4:	800a      	strh	r2, [r1, #0]
   224f6:	7880      	ldrb	r0, [r0, #2]
   224f8:	7088      	strb	r0, [r1, #2]
   224fa:	e40f      	b.n	21d1c <_start+0x1718>
   224fc:	482f      	ldr	r0, [pc, #188]	@ (225bc <_start+0x1fb8>)
   224fe:	4468      	add	r0, sp
   22500:	7802      	ldrb	r2, [r0, #0]
   22502:	2a02      	cmp	r2, #2
   22504:	d00d      	beq.n	22522 <_start+0x1f1e>
   22506:	2107      	movs	r1, #7
   22508:	4620      	mov	r0, r4
   2250a:	f005 fd1b 	bl	27f44 <_ZN9allow_pin12dynamic_type7unshare17ha4091652f9b609c4E>
   2250e:	482b      	ldr	r0, [pc, #172]	@ (225bc <_start+0x1fb8>)
   22510:	4468      	add	r0, sp
   22512:	990e      	ldr	r1, [sp, #56]	@ 0x38
   22514:	7001      	strb	r1, [r0, #0]
   22516:	482a      	ldr	r0, [pc, #168]	@ (225c0 <_start+0x1fbc>)
   22518:	4468      	add	r0, sp
   2251a:	7800      	ldrb	r0, [r0, #0]
   2251c:	9005      	str	r0, [sp, #20]
   2251e:	2802      	cmp	r0, #2
   22520:	d004      	beq.n	2252c <_start+0x1f28>
   22522:	2104      	movs	r1, #4
   22524:	4620      	mov	r0, r4
   22526:	9a05      	ldr	r2, [sp, #20]
   22528:	f005 fd0c 	bl	27f44 <_ZN9allow_pin12dynamic_type7unshare17ha4091652f9b609c4E>
   2252c:	4924      	ldr	r1, [pc, #144]	@ (225c0 <_start+0x1fbc>)
   2252e:	4469      	add	r1, sp
   22530:	980e      	ldr	r0, [sp, #56]	@ 0x38
   22532:	7008      	strb	r0, [r1, #0]
   22534:	78b0      	ldrb	r0, [r6, #2]
   22536:	aac9      	add	r2, sp, #804	@ 0x324
   22538:	7090      	strb	r0, [r2, #2]
   2253a:	7830      	ldrb	r0, [r6, #0]
   2253c:	7873      	ldrb	r3, [r6, #1]
   2253e:	021b      	lsls	r3, r3, #8
   22540:	1818      	adds	r0, r3, r0
   22542:	8010      	strh	r0, [r2, #0]
   22544:	980c      	ldr	r0, [sp, #48]	@ 0x30
   22546:	6d40      	ldr	r0, [r0, #84]	@ 0x54
   22548:	900f      	str	r0, [sp, #60]	@ 0x3c
   2254a:	3108      	adds	r1, #8
   2254c:	a89f      	add	r0, sp, #636	@ 0x27c
   2254e:	2249      	movs	r2, #73	@ 0x49
   22550:	f005 fd65 	bl	2801e <__aeabi_memcpy4>
   22554:	e457      	b.n	21e06 <_start+0x1802>
   22556:	46c0      	nop			@ (mov r8, r8)
   22558:	00000558 	.word	0x00000558
   2255c:	4818      	ldr	r0, [pc, #96]	@ (225c0 <_start+0x1fbc>)
   2255e:	4468      	add	r0, sp
   22560:	7802      	ldrb	r2, [r0, #0]
   22562:	2a02      	cmp	r2, #2
   22564:	d00d      	beq.n	22582 <_start+0x1f7e>
   22566:	2103      	movs	r1, #3
   22568:	4620      	mov	r0, r4
   2256a:	f005 fceb 	bl	27f44 <_ZN9allow_pin12dynamic_type7unshare17ha4091652f9b609c4E>
   2256e:	4814      	ldr	r0, [pc, #80]	@ (225c0 <_start+0x1fbc>)
   22570:	4468      	add	r0, sp
   22572:	990e      	ldr	r1, [sp, #56]	@ 0x38
   22574:	7001      	strb	r1, [r0, #0]
   22576:	a8ff      	add	r0, sp, #1020	@ 0x3fc
   22578:	30a4      	adds	r0, #164	@ 0xa4
   2257a:	7800      	ldrb	r0, [r0, #0]
   2257c:	4606      	mov	r6, r0
   2257e:	2802      	cmp	r0, #2
   22580:	d004      	beq.n	2258c <_start+0x1f88>
   22582:	2109      	movs	r1, #9
   22584:	4620      	mov	r0, r4
   22586:	4632      	mov	r2, r6
   22588:	f005 fcdc 	bl	27f44 <_ZN9allow_pin12dynamic_type7unshare17ha4091652f9b609c4E>
   2258c:	a9ff      	add	r1, sp, #1020	@ 0x3fc
   2258e:	31a4      	adds	r1, #164	@ 0xa4
   22590:	980e      	ldr	r0, [sp, #56]	@ 0x38
   22592:	7008      	strb	r0, [r1, #0]
   22594:	9b05      	ldr	r3, [sp, #20]
   22596:	7898      	ldrb	r0, [r3, #2]
   22598:	aac9      	add	r2, sp, #804	@ 0x324
   2259a:	7090      	strb	r0, [r2, #2]
   2259c:	7818      	ldrb	r0, [r3, #0]
   2259e:	785b      	ldrb	r3, [r3, #1]
   225a0:	021b      	lsls	r3, r3, #8
   225a2:	1818      	adds	r0, r3, r0
   225a4:	8010      	strh	r0, [r2, #0]
   225a6:	9809      	ldr	r0, [sp, #36]	@ 0x24
   225a8:	6800      	ldr	r0, [r0, #0]
   225aa:	900f      	str	r0, [sp, #60]	@ 0x3c
   225ac:	3108      	adds	r1, #8
   225ae:	4803      	ldr	r0, [pc, #12]	@ (225bc <_start+0x1fb8>)
   225b0:	4468      	add	r0, sp
   225b2:	2235      	movs	r2, #53	@ 0x35
   225b4:	f005 fe93 	bl	282de <__aeabi_memcpy>
   225b8:	e488      	b.n	21ecc <_start+0x18c8>
   225ba:	46c0      	nop			@ (mov r8, r8)
   225bc:	00000558 	.word	0x00000558
   225c0:	000005a8 	.word	0x000005a8
   225c4:	0000077f 	.word	0x0000077f
   225c8:	00010185 	.word	0x00010185
   225cc:	4816      	ldr	r0, [pc, #88]	@ (22628 <_start+0x2024>)
   225ce:	4468      	add	r0, sp
   225d0:	7802      	ldrb	r2, [r0, #0]
   225d2:	2a02      	cmp	r2, #2
   225d4:	d00d      	beq.n	225f2 <_start+0x1fee>
   225d6:	2106      	movs	r1, #6
   225d8:	4628      	mov	r0, r5
   225da:	f005 fcb3 	bl	27f44 <_ZN9allow_pin12dynamic_type7unshare17ha4091652f9b609c4E>
   225de:	4812      	ldr	r0, [pc, #72]	@ (22628 <_start+0x2024>)
   225e0:	4468      	add	r0, sp
   225e2:	990e      	ldr	r1, [sp, #56]	@ 0x38
   225e4:	7001      	strb	r1, [r0, #0]
   225e6:	a8ff      	add	r0, sp, #1020	@ 0x3fc
   225e8:	30a4      	adds	r0, #164	@ 0xa4
   225ea:	7800      	ldrb	r0, [r0, #0]
   225ec:	9006      	str	r0, [sp, #24]
   225ee:	2802      	cmp	r0, #2
   225f0:	d004      	beq.n	225fc <_start+0x1ff8>
   225f2:	2108      	movs	r1, #8
   225f4:	4628      	mov	r0, r5
   225f6:	9a06      	ldr	r2, [sp, #24]
   225f8:	f005 fca4 	bl	27f44 <_ZN9allow_pin12dynamic_type7unshare17ha4091652f9b609c4E>
   225fc:	a9ff      	add	r1, sp, #1020	@ 0x3fc
   225fe:	31a4      	adds	r1, #164	@ 0xa4
   22600:	980e      	ldr	r0, [sp, #56]	@ 0x38
   22602:	7008      	strb	r0, [r1, #0]
   22604:	78b0      	ldrb	r0, [r6, #2]
   22606:	aac9      	add	r2, sp, #804	@ 0x324
   22608:	7090      	strb	r0, [r2, #2]
   2260a:	7830      	ldrb	r0, [r6, #0]
   2260c:	7873      	ldrb	r3, [r6, #1]
   2260e:	021b      	lsls	r3, r3, #8
   22610:	1818      	adds	r0, r3, r0
   22612:	8010      	strh	r0, [r2, #0]
   22614:	9809      	ldr	r0, [sp, #36]	@ 0x24
   22616:	6800      	ldr	r0, [r0, #0]
   22618:	900f      	str	r0, [sp, #60]	@ 0x3c
   2261a:	3108      	adds	r1, #8
   2261c:	4803      	ldr	r0, [pc, #12]	@ (2262c <_start+0x2028>)
   2261e:	4468      	add	r0, sp
   22620:	222b      	movs	r2, #43	@ 0x2b
   22622:	f005 fe5c 	bl	282de <__aeabi_memcpy>
   22626:	e4b5      	b.n	21f94 <_start+0x1990>
   22628:	000005a8 	.word	0x000005a8
   2262c:	00000558 	.word	0x00000558
   22630:	4d19      	ldr	r5, [pc, #100]	@ (22698 <_start+0x2094>)
   22632:	446d      	add	r5, sp
   22634:	1c6c      	adds	r4, r5, #1
   22636:	a9ff      	add	r1, sp, #1020	@ 0x3fc
   22638:	318c      	adds	r1, #140	@ 0x8c
   2263a:	2203      	movs	r2, #3
   2263c:	4620      	mov	r0, r4
   2263e:	9208      	str	r2, [sp, #32]
   22640:	f005 fe4d 	bl	282de <__aeabi_memcpy>
   22644:	a8c9      	add	r0, sp, #804	@ 0x324
   22646:	a99f      	add	r1, sp, #636	@ 0x27c
   22648:	460a      	mov	r2, r1
   2264a:	c848      	ldmia	r0!, {r3, r6}
   2264c:	c248      	stmia	r2!, {r3, r6}
   2264e:	7800      	ldrb	r0, [r0, #0]
   22650:	7010      	strb	r0, [r2, #0]
   22652:	4628      	mov	r0, r5
   22654:	3008      	adds	r0, #8
   22656:	c90c      	ldmia	r1!, {r2, r3}
   22658:	c00c      	stmia	r0!, {r2, r3}
   2265a:	7809      	ldrb	r1, [r1, #0]
   2265c:	7001      	strb	r1, [r0, #0]
   2265e:	9e0e      	ldr	r6, [sp, #56]	@ 0x38
   22660:	702e      	strb	r6, [r5, #0]
   22662:	980f      	ldr	r0, [sp, #60]	@ 0x3c
   22664:	990a      	ldr	r1, [sp, #40]	@ 0x28
   22666:	6008      	str	r0, [r1, #0]
   22668:	4d0c      	ldr	r5, [pc, #48]	@ (2269c <_start+0x2098>)
   2266a:	446d      	add	r5, sp
   2266c:	1c68      	adds	r0, r5, #1
   2266e:	2136      	movs	r1, #54	@ 0x36
   22670:	9006      	str	r0, [sp, #24]
   22672:	f005 fc74 	bl	27f5e <__aeabi_memclr>
   22676:	702e      	strb	r6, [r5, #0]
   22678:	980d      	ldr	r0, [sp, #52]	@ 0x34
   2267a:	9000      	str	r0, [sp, #0]
   2267c:	4e08      	ldr	r6, [pc, #32]	@ (226a0 <_start+0x209c>)
   2267e:	361e      	adds	r6, #30
   22680:	2501      	movs	r5, #1
   22682:	2310      	movs	r3, #16
   22684:	4630      	mov	r0, r6
   22686:	4629      	mov	r1, r5
   22688:	4622      	mov	r2, r4
   2268a:	f7fd fe07 	bl	2029c <_ZN9allow_pin12dynamic_type11allow_inner17hf1099571477a6939E>
   2268e:	910f      	str	r1, [sp, #60]	@ 0x3c
   22690:	07c0      	lsls	r0, r0, #31
   22692:	d12d      	bne.n	226f0 <_start+0x20ec>
   22694:	e006      	b.n	226a4 <_start+0x20a0>
   22696:	46c0      	nop			@ (mov r8, r8)
   22698:	00000558 	.word	0x00000558
   2269c:	000005a8 	.word	0x000005a8
   226a0:	0000196b 	.word	0x0000196b
   226a4:	4807      	ldr	r0, [pc, #28]	@ (226c4 <_start+0x20c0>)
   226a6:	4468      	add	r0, sp
   226a8:	990d      	ldr	r1, [sp, #52]	@ 0x34
   226aa:	7001      	strb	r1, [r0, #0]
   226ac:	9808      	ldr	r0, [sp, #32]
   226ae:	9000      	str	r0, [sp, #0]
   226b0:	2107      	movs	r1, #7
   226b2:	2336      	movs	r3, #54	@ 0x36
   226b4:	4630      	mov	r0, r6
   226b6:	9a06      	ldr	r2, [sp, #24]
   226b8:	f7fd fdf0 	bl	2029c <_ZN9allow_pin12dynamic_type11allow_inner17hf1099571477a6939E>
   226bc:	910f      	str	r1, [sp, #60]	@ 0x3c
   226be:	07c0      	lsls	r0, r0, #31
   226c0:	d116      	bne.n	226f0 <_start+0x20ec>
   226c2:	e001      	b.n	226c8 <_start+0x20c4>
   226c4:	00000558 	.word	0x00000558
   226c8:	4807      	ldr	r0, [pc, #28]	@ (226e8 <_start+0x20e4>)
   226ca:	4468      	add	r0, sp
   226cc:	9908      	ldr	r1, [sp, #32]
   226ce:	7001      	strb	r1, [r0, #0]
   226d0:	4806      	ldr	r0, [pc, #24]	@ (226ec <_start+0x20e8>)
   226d2:	2101      	movs	r1, #1
   226d4:	2207      	movs	r2, #7
   226d6:	2400      	movs	r4, #0
   226d8:	4623      	mov	r3, r4
   226da:	df02      	svc	2
   226dc:	910f      	str	r1, [sp, #60]	@ 0x3c
   226de:	287f      	cmp	r0, #127	@ 0x7f
   226e0:	d906      	bls.n	226f0 <_start+0x20ec>
   226e2:	f001 fbf5 	bl	23ed0 <_start+0x38cc>
   226e6:	46c0      	nop			@ (mov r8, r8)
   226e8:	000005a8 	.word	0x000005a8
   226ec:	00001989 	.word	0x00001989
   226f0:	9c0b      	ldr	r4, [sp, #44]	@ 0x2c
   226f2:	4803      	ldr	r0, [pc, #12]	@ (22700 <_start+0x20fc>)
   226f4:	4468      	add	r0, sp
   226f6:	7802      	ldrb	r2, [r0, #0]
   226f8:	2a02      	cmp	r2, #2
   226fa:	d007      	beq.n	2270c <_start+0x2108>
   226fc:	e002      	b.n	22704 <_start+0x2100>
   226fe:	46c0      	nop			@ (mov r8, r8)
   22700:	000005a8 	.word	0x000005a8
   22704:	2107      	movs	r1, #7
   22706:	4630      	mov	r0, r6
   22708:	f005 fc1c 	bl	27f44 <_ZN9allow_pin12dynamic_type7unshare17ha4091652f9b609c4E>
   2270c:	4802      	ldr	r0, [pc, #8]	@ (22718 <_start+0x2114>)
   2270e:	4468      	add	r0, sp
   22710:	7802      	ldrb	r2, [r0, #0]
   22712:	2a02      	cmp	r2, #2
   22714:	d006      	beq.n	22724 <_start+0x2120>
   22716:	e001      	b.n	2271c <_start+0x2118>
   22718:	00000558 	.word	0x00000558
   2271c:	2101      	movs	r1, #1
   2271e:	4630      	mov	r0, r6
   22720:	f005 fc10 	bl	27f44 <_ZN9allow_pin12dynamic_type7unshare17ha4091652f9b609c4E>
   22724:	2c00      	cmp	r4, #0
   22726:	d000      	beq.n	2272a <_start+0x2126>
   22728:	e514      	b.n	22154 <_start+0x1b50>
   2272a:	4c18      	ldr	r4, [pc, #96]	@ (2278c <_start+0x2188>)
   2272c:	446c      	add	r4, sp
   2272e:	1c60      	adds	r0, r4, #1
   22730:	9008      	str	r0, [sp, #32]
   22732:	a9c9      	add	r1, sp, #804	@ 0x324
   22734:	2203      	movs	r2, #3
   22736:	9205      	str	r2, [sp, #20]
   22738:	f005 fdd1 	bl	282de <__aeabi_memcpy>
   2273c:	a8ff      	add	r0, sp, #1020	@ 0x3fc
   2273e:	30a4      	adds	r0, #164	@ 0xa4
   22740:	9006      	str	r0, [sp, #24]
   22742:	a99f      	add	r1, sp, #636	@ 0x27c
   22744:	262f      	movs	r6, #47	@ 0x2f
   22746:	4632      	mov	r2, r6
   22748:	f005 fdc9 	bl	282de <__aeabi_memcpy>
   2274c:	4620      	mov	r0, r4
   2274e:	3008      	adds	r0, #8
   22750:	9906      	ldr	r1, [sp, #24]
   22752:	4632      	mov	r2, r6
   22754:	f005 fdc3 	bl	282de <__aeabi_memcpy>
   22758:	9e0e      	ldr	r6, [sp, #56]	@ 0x38
   2275a:	7026      	strb	r6, [r4, #0]
   2275c:	980c      	ldr	r0, [sp, #48]	@ 0x30
   2275e:	990f      	ldr	r1, [sp, #60]	@ 0x3c
   22760:	6541      	str	r1, [r0, #84]	@ 0x54
   22762:	acff      	add	r4, sp, #1020	@ 0x3fc
   22764:	34a4      	adds	r4, #164	@ 0xa4
   22766:	1c60      	adds	r0, r4, #1
   22768:	210f      	movs	r1, #15
   2276a:	9006      	str	r0, [sp, #24]
   2276c:	f005 fbf7 	bl	27f5e <__aeabi_memclr>
   22770:	7026      	strb	r6, [r4, #0]
   22772:	980d      	ldr	r0, [sp, #52]	@ 0x34
   22774:	9000      	str	r0, [sp, #0]
   22776:	4806      	ldr	r0, [pc, #24]	@ (22790 <_start+0x218c>)
   22778:	2105      	movs	r1, #5
   2277a:	2336      	movs	r3, #54	@ 0x36
   2277c:	9a08      	ldr	r2, [sp, #32]
   2277e:	f7fd fd8d 	bl	2029c <_ZN9allow_pin12dynamic_type11allow_inner17hf1099571477a6939E>
   22782:	910f      	str	r1, [sp, #60]	@ 0x3c
   22784:	07c0      	lsls	r0, r0, #31
   22786:	d129      	bne.n	227dc <_start+0x21d8>
   22788:	e004      	b.n	22794 <_start+0x2190>
   2278a:	46c0      	nop			@ (mov r8, r8)
   2278c:	000005a8 	.word	0x000005a8
   22790:	00000653 	.word	0x00000653
   22794:	4807      	ldr	r0, [pc, #28]	@ (227b4 <_start+0x21b0>)
   22796:	4468      	add	r0, sp
   22798:	990d      	ldr	r1, [sp, #52]	@ 0x34
   2279a:	7001      	strb	r1, [r0, #0]
   2279c:	9905      	ldr	r1, [sp, #20]
   2279e:	9100      	str	r1, [sp, #0]
   227a0:	230f      	movs	r3, #15
   227a2:	4805      	ldr	r0, [pc, #20]	@ (227b8 <_start+0x21b4>)
   227a4:	9a06      	ldr	r2, [sp, #24]
   227a6:	f7fd fd79 	bl	2029c <_ZN9allow_pin12dynamic_type11allow_inner17hf1099571477a6939E>
   227aa:	910f      	str	r1, [sp, #60]	@ 0x3c
   227ac:	07c0      	lsls	r0, r0, #31
   227ae:	d115      	bne.n	227dc <_start+0x21d8>
   227b0:	e004      	b.n	227bc <_start+0x21b8>
   227b2:	46c0      	nop			@ (mov r8, r8)
   227b4:	000005a8 	.word	0x000005a8
   227b8:	00000653 	.word	0x00000653
   227bc:	a8ff      	add	r0, sp, #1020	@ 0x3fc
   227be:	30a4      	adds	r0, #164	@ 0xa4
   227c0:	9a05      	ldr	r2, [sp, #20]
   227c2:	7002      	strb	r2, [r0, #0]
   227c4:	4804      	ldr	r0, [pc, #16]	@ (227d8 <_start+0x21d4>)
   227c6:	2105      	movs	r1, #5
   227c8:	2600      	movs	r6, #0
   227ca:	4633      	mov	r3, r6
   227cc:	df02      	svc	2
   227ce:	910f      	str	r1, [sp, #60]	@ 0x3c
   227d0:	287f      	cmp	r0, #127	@ 0x7f
   227d2:	d903      	bls.n	227dc <_start+0x21d8>
   227d4:	f001 fbab 	bl	23f2e <_start+0x392a>
   227d8:	00000653 	.word	0x00000653
   227dc:	9e0b      	ldr	r6, [sp, #44]	@ 0x2c
   227de:	a8ff      	add	r0, sp, #1020	@ 0x3fc
   227e0:	30a4      	adds	r0, #164	@ 0xa4
   227e2:	7802      	ldrb	r2, [r0, #0]
   227e4:	2a02      	cmp	r2, #2
   227e6:	d007      	beq.n	227f8 <_start+0x21f4>
   227e8:	2103      	movs	r1, #3
   227ea:	4802      	ldr	r0, [pc, #8]	@ (227f4 <_start+0x21f0>)
   227ec:	f005 fbaa 	bl	27f44 <_ZN9allow_pin12dynamic_type7unshare17ha4091652f9b609c4E>
   227f0:	e002      	b.n	227f8 <_start+0x21f4>
   227f2:	46c0      	nop			@ (mov r8, r8)
   227f4:	00000653 	.word	0x00000653
   227f8:	4802      	ldr	r0, [pc, #8]	@ (22804 <_start+0x2200>)
   227fa:	4468      	add	r0, sp
   227fc:	7802      	ldrb	r2, [r0, #0]
   227fe:	2a02      	cmp	r2, #2
   22800:	d00a      	beq.n	22818 <_start+0x2214>
   22802:	e001      	b.n	22808 <_start+0x2204>
   22804:	000005a8 	.word	0x000005a8
   22808:	2105      	movs	r1, #5
   2280a:	4802      	ldr	r0, [pc, #8]	@ (22814 <_start+0x2210>)
   2280c:	f005 fb9a 	bl	27f44 <_ZN9allow_pin12dynamic_type7unshare17ha4091652f9b609c4E>
   22810:	e002      	b.n	22818 <_start+0x2214>
   22812:	46c0      	nop			@ (mov r8, r8)
   22814:	00000653 	.word	0x00000653
   22818:	2e00      	cmp	r6, #0
   2281a:	d000      	beq.n	2281e <_start+0x221a>
   2281c:	e49a      	b.n	22154 <_start+0x1b50>
   2281e:	aeff      	add	r6, sp, #1020	@ 0x3fc
   22820:	36a4      	adds	r6, #164	@ 0xa4
   22822:	1c70      	adds	r0, r6, #1
   22824:	9008      	str	r0, [sp, #32]
   22826:	a99f      	add	r1, sp, #636	@ 0x27c
   22828:	2203      	movs	r2, #3
   2282a:	9206      	str	r2, [sp, #24]
   2282c:	f005 fd57 	bl	282de <__aeabi_memcpy>
   22830:	0e20      	lsrs	r0, r4, #24
   22832:	73f0      	strb	r0, [r6, #15]
   22834:	0c20      	lsrs	r0, r4, #16
   22836:	73b0      	strb	r0, [r6, #14]
   22838:	0a20      	lsrs	r0, r4, #8
   2283a:	7370      	strb	r0, [r6, #13]
   2283c:	7334      	strb	r4, [r6, #12]
   2283e:	9905      	ldr	r1, [sp, #20]
   22840:	0e08      	lsrs	r0, r1, #24
   22842:	72f0      	strb	r0, [r6, #11]
   22844:	0c08      	lsrs	r0, r1, #16
   22846:	72b0      	strb	r0, [r6, #10]
   22848:	0a08      	lsrs	r0, r1, #8
   2284a:	7270      	strb	r0, [r6, #9]
   2284c:	7231      	strb	r1, [r6, #8]
   2284e:	990f      	ldr	r1, [sp, #60]	@ 0x3c
   22850:	0e08      	lsrs	r0, r1, #24
   22852:	71f0      	strb	r0, [r6, #7]
   22854:	0c08      	lsrs	r0, r1, #16
   22856:	71b0      	strb	r0, [r6, #6]
   22858:	0a08      	lsrs	r0, r1, #8
   2285a:	7170      	strb	r0, [r6, #5]
   2285c:	7131      	strb	r1, [r6, #4]
   2285e:	980e      	ldr	r0, [sp, #56]	@ 0x38
   22860:	7030      	strb	r0, [r6, #0]
   22862:	4606      	mov	r6, r0
   22864:	4c0a      	ldr	r4, [pc, #40]	@ (22890 <_start+0x228c>)
   22866:	446c      	add	r4, sp
   22868:	1c60      	adds	r0, r4, #1
   2286a:	2113      	movs	r1, #19
   2286c:	9005      	str	r0, [sp, #20]
   2286e:	f005 fb76 	bl	27f5e <__aeabi_memclr>
   22872:	7026      	strb	r6, [r4, #0]
   22874:	980d      	ldr	r0, [sp, #52]	@ 0x34
   22876:	9000      	str	r0, [sp, #0]
   22878:	230f      	movs	r3, #15
   2287a:	4806      	ldr	r0, [pc, #24]	@ (22894 <_start+0x2290>)
   2287c:	9906      	ldr	r1, [sp, #24]
   2287e:	460c      	mov	r4, r1
   22880:	9a08      	ldr	r2, [sp, #32]
   22882:	f7fd fd0b 	bl	2029c <_ZN9allow_pin12dynamic_type11allow_inner17hf1099571477a6939E>
   22886:	910f      	str	r1, [sp, #60]	@ 0x3c
   22888:	07c0      	lsls	r0, r0, #31
   2288a:	d129      	bne.n	228e0 <_start+0x22dc>
   2288c:	e004      	b.n	22898 <_start+0x2294>
   2288e:	46c0      	nop			@ (mov r8, r8)
   22890:	000005a8 	.word	0x000005a8
   22894:	00001e4b 	.word	0x00001e4b
   22898:	a8ff      	add	r0, sp, #1020	@ 0x3fc
   2289a:	30a4      	adds	r0, #164	@ 0xa4
   2289c:	990d      	ldr	r1, [sp, #52]	@ 0x34
   2289e:	7001      	strb	r1, [r0, #0]
   228a0:	9400      	str	r4, [sp, #0]
   228a2:	2100      	movs	r1, #0
   228a4:	2313      	movs	r3, #19
   228a6:	4804      	ldr	r0, [pc, #16]	@ (228b8 <_start+0x22b4>)
   228a8:	9a05      	ldr	r2, [sp, #20]
   228aa:	f7fd fcf7 	bl	2029c <_ZN9allow_pin12dynamic_type11allow_inner17hf1099571477a6939E>
   228ae:	910f      	str	r1, [sp, #60]	@ 0x3c
   228b0:	07c0      	lsls	r0, r0, #31
   228b2:	d115      	bne.n	228e0 <_start+0x22dc>
   228b4:	e002      	b.n	228bc <_start+0x22b8>
   228b6:	46c0      	nop			@ (mov r8, r8)
   228b8:	00001e4b 	.word	0x00001e4b
   228bc:	4806      	ldr	r0, [pc, #24]	@ (228d8 <_start+0x22d4>)
   228be:	4468      	add	r0, sp
   228c0:	4621      	mov	r1, r4
   228c2:	7004      	strb	r4, [r0, #0]
   228c4:	4805      	ldr	r0, [pc, #20]	@ (228dc <_start+0x22d8>)
   228c6:	2600      	movs	r6, #0
   228c8:	4632      	mov	r2, r6
   228ca:	4633      	mov	r3, r6
   228cc:	df02      	svc	2
   228ce:	910f      	str	r1, [sp, #60]	@ 0x3c
   228d0:	287f      	cmp	r0, #127	@ 0x7f
   228d2:	d905      	bls.n	228e0 <_start+0x22dc>
   228d4:	f001 fb58 	bl	23f88 <_start+0x3984>
   228d8:	000005a8 	.word	0x000005a8
   228dc:	00001e4b 	.word	0x00001e4b
   228e0:	9e0b      	ldr	r6, [sp, #44]	@ 0x2c
   228e2:	4803      	ldr	r0, [pc, #12]	@ (228f0 <_start+0x22ec>)
   228e4:	4468      	add	r0, sp
   228e6:	7802      	ldrb	r2, [r0, #0]
   228e8:	2a02      	cmp	r2, #2
   228ea:	d00b      	beq.n	22904 <_start+0x2300>
   228ec:	e002      	b.n	228f4 <_start+0x22f0>
   228ee:	46c0      	nop			@ (mov r8, r8)
   228f0:	000005a8 	.word	0x000005a8
   228f4:	2100      	movs	r1, #0
   228f6:	4802      	ldr	r0, [pc, #8]	@ (22900 <_start+0x22fc>)
   228f8:	f005 fb24 	bl	27f44 <_ZN9allow_pin12dynamic_type7unshare17ha4091652f9b609c4E>
   228fc:	e002      	b.n	22904 <_start+0x2300>
   228fe:	46c0      	nop			@ (mov r8, r8)
   22900:	00001e4b 	.word	0x00001e4b
   22904:	a8ff      	add	r0, sp, #1020	@ 0x3fc
   22906:	30a4      	adds	r0, #164	@ 0xa4
   22908:	7802      	ldrb	r2, [r0, #0]
   2290a:	2a02      	cmp	r2, #2
   2290c:	d006      	beq.n	2291c <_start+0x2318>
   2290e:	2103      	movs	r1, #3
   22910:	4801      	ldr	r0, [pc, #4]	@ (22918 <_start+0x2314>)
   22912:	f005 fb17 	bl	27f44 <_ZN9allow_pin12dynamic_type7unshare17ha4091652f9b609c4E>
   22916:	e001      	b.n	2291c <_start+0x2318>
   22918:	00001e4b 	.word	0x00001e4b
   2291c:	2e00      	cmp	r6, #0
   2291e:	d000      	beq.n	22922 <_start+0x231e>
   22920:	e418      	b.n	22154 <_start+0x1b50>
   22922:	4c16      	ldr	r4, [pc, #88]	@ (2297c <_start+0x2378>)
   22924:	446c      	add	r4, sp
   22926:	1c60      	adds	r0, r4, #1
   22928:	9008      	str	r0, [sp, #32]
   2292a:	a9c9      	add	r1, sp, #804	@ 0x324
   2292c:	2203      	movs	r2, #3
   2292e:	9204      	str	r2, [sp, #16]
   22930:	f005 fcd5 	bl	282de <__aeabi_memcpy>
   22934:	a89f      	add	r0, sp, #636	@ 0x27c
   22936:	9006      	str	r0, [sp, #24]
   22938:	aa2f      	add	r2, sp, #188	@ 0xbc
   2293a:	9205      	str	r2, [sp, #20]
   2293c:	9906      	ldr	r1, [sp, #24]
   2293e:	c949      	ldmia	r1!, {r0, r3, r6}
   22940:	c249      	stmia	r2!, {r0, r3, r6}
   22942:	9e0e      	ldr	r6, [sp, #56]	@ 0x38
   22944:	7026      	strb	r6, [r4, #0]
   22946:	980f      	ldr	r0, [sp, #60]	@ 0x3c
   22948:	9a0a      	ldr	r2, [sp, #40]	@ 0x28
   2294a:	6010      	str	r0, [r2, #0]
   2294c:	3408      	adds	r4, #8
   2294e:	9905      	ldr	r1, [sp, #20]
   22950:	c90d      	ldmia	r1!, {r0, r2, r3}
   22952:	c40d      	stmia	r4!, {r0, r2, r3}
   22954:	4c0a      	ldr	r4, [pc, #40]	@ (22980 <_start+0x237c>)
   22956:	446c      	add	r4, sp
   22958:	1c60      	adds	r0, r4, #1
   2295a:	2155      	movs	r1, #85	@ 0x55
   2295c:	9006      	str	r0, [sp, #24]
   2295e:	f005 fafe 	bl	27f5e <__aeabi_memclr>
   22962:	7026      	strb	r6, [r4, #0]
   22964:	980d      	ldr	r0, [sp, #52]	@ 0x34
   22966:	9000      	str	r0, [sp, #0]
   22968:	2109      	movs	r1, #9
   2296a:	2313      	movs	r3, #19
   2296c:	4805      	ldr	r0, [pc, #20]	@ (22984 <_start+0x2380>)
   2296e:	9a08      	ldr	r2, [sp, #32]
   22970:	f7fd fc94 	bl	2029c <_ZN9allow_pin12dynamic_type11allow_inner17hf1099571477a6939E>
   22974:	910f      	str	r1, [sp, #60]	@ 0x3c
   22976:	07c0      	lsls	r0, r0, #31
   22978:	d12e      	bne.n	229d8 <_start+0x23d4>
   2297a:	e005      	b.n	22988 <_start+0x2384>
   2297c:	00000558 	.word	0x00000558
   22980:	000005a8 	.word	0x000005a8
   22984:	0000032e 	.word	0x0000032e
   22988:	4807      	ldr	r0, [pc, #28]	@ (229a8 <_start+0x23a4>)
   2298a:	4468      	add	r0, sp
   2298c:	990d      	ldr	r1, [sp, #52]	@ 0x34
   2298e:	7001      	strb	r1, [r0, #0]
   22990:	9804      	ldr	r0, [sp, #16]
   22992:	9000      	str	r0, [sp, #0]
   22994:	2107      	movs	r1, #7
   22996:	2355      	movs	r3, #85	@ 0x55
   22998:	4804      	ldr	r0, [pc, #16]	@ (229ac <_start+0x23a8>)
   2299a:	9a06      	ldr	r2, [sp, #24]
   2299c:	f7fd fc7e 	bl	2029c <_ZN9allow_pin12dynamic_type11allow_inner17hf1099571477a6939E>
   229a0:	910f      	str	r1, [sp, #60]	@ 0x3c
   229a2:	07c0      	lsls	r0, r0, #31
   229a4:	d118      	bne.n	229d8 <_start+0x23d4>
   229a6:	e003      	b.n	229b0 <_start+0x23ac>
   229a8:	00000558 	.word	0x00000558
   229ac:	0000032e 	.word	0x0000032e
   229b0:	4807      	ldr	r0, [pc, #28]	@ (229d0 <_start+0x23cc>)
   229b2:	4468      	add	r0, sp
   229b4:	9904      	ldr	r1, [sp, #16]
   229b6:	7001      	strb	r1, [r0, #0]
   229b8:	4806      	ldr	r0, [pc, #24]	@ (229d4 <_start+0x23d0>)
   229ba:	2109      	movs	r1, #9
   229bc:	2207      	movs	r2, #7
   229be:	2400      	movs	r4, #0
   229c0:	4623      	mov	r3, r4
   229c2:	df02      	svc	2
   229c4:	910f      	str	r1, [sp, #60]	@ 0x3c
   229c6:	287f      	cmp	r0, #127	@ 0x7f
   229c8:	d906      	bls.n	229d8 <_start+0x23d4>
   229ca:	f001 fb0b 	bl	23fe4 <_start+0x39e0>
   229ce:	46c0      	nop			@ (mov r8, r8)
   229d0:	000005a8 	.word	0x000005a8
   229d4:	0000032e 	.word	0x0000032e
   229d8:	9c0b      	ldr	r4, [sp, #44]	@ 0x2c
   229da:	4803      	ldr	r0, [pc, #12]	@ (229e8 <_start+0x23e4>)
   229dc:	4468      	add	r0, sp
   229de:	7802      	ldrb	r2, [r0, #0]
   229e0:	2a02      	cmp	r2, #2
   229e2:	d00b      	beq.n	229fc <_start+0x23f8>
   229e4:	e002      	b.n	229ec <_start+0x23e8>
   229e6:	46c0      	nop			@ (mov r8, r8)
   229e8:	000005a8 	.word	0x000005a8
   229ec:	2107      	movs	r1, #7
   229ee:	4802      	ldr	r0, [pc, #8]	@ (229f8 <_start+0x23f4>)
   229f0:	f005 faa8 	bl	27f44 <_ZN9allow_pin12dynamic_type7unshare17ha4091652f9b609c4E>
   229f4:	e002      	b.n	229fc <_start+0x23f8>
   229f6:	46c0      	nop			@ (mov r8, r8)
   229f8:	0000032e 	.word	0x0000032e
   229fc:	4802      	ldr	r0, [pc, #8]	@ (22a08 <_start+0x2404>)
   229fe:	4468      	add	r0, sp
   22a00:	7802      	ldrb	r2, [r0, #0]
   22a02:	2a02      	cmp	r2, #2
   22a04:	d00a      	beq.n	22a1c <_start+0x2418>
   22a06:	e001      	b.n	22a0c <_start+0x2408>
   22a08:	00000558 	.word	0x00000558
   22a0c:	2109      	movs	r1, #9
   22a0e:	4802      	ldr	r0, [pc, #8]	@ (22a18 <_start+0x2414>)
   22a10:	f005 fa98 	bl	27f44 <_ZN9allow_pin12dynamic_type7unshare17ha4091652f9b609c4E>
   22a14:	e002      	b.n	22a1c <_start+0x2418>
   22a16:	46c0      	nop			@ (mov r8, r8)
   22a18:	0000032e 	.word	0x0000032e
   22a1c:	2c00      	cmp	r4, #0
   22a1e:	d001      	beq.n	22a24 <_start+0x2420>
   22a20:	f7ff fb98 	bl	22154 <_start+0x1b50>
   22a24:	4c16      	ldr	r4, [pc, #88]	@ (22a80 <_start+0x247c>)
   22a26:	446c      	add	r4, sp
   22a28:	1c60      	adds	r0, r4, #1
   22a2a:	a9c9      	add	r1, sp, #804	@ 0x324
   22a2c:	2203      	movs	r2, #3
   22a2e:	f005 fc56 	bl	282de <__aeabi_memcpy>
   22a32:	a8ff      	add	r0, sp, #1020	@ 0x3fc
   22a34:	30a4      	adds	r0, #164	@ 0xa4
   22a36:	9008      	str	r0, [sp, #32]
   22a38:	a99f      	add	r1, sp, #636	@ 0x27c
   22a3a:	264e      	movs	r6, #78	@ 0x4e
   22a3c:	4632      	mov	r2, r6
   22a3e:	f005 faee 	bl	2801e <__aeabi_memcpy4>
   22a42:	940d      	str	r4, [sp, #52]	@ 0x34
   22a44:	4620      	mov	r0, r4
   22a46:	3008      	adds	r0, #8
   22a48:	9908      	ldr	r1, [sp, #32]
   22a4a:	4632      	mov	r2, r6
   22a4c:	f005 fae7 	bl	2801e <__aeabi_memcpy4>
   22a50:	9e0e      	ldr	r6, [sp, #56]	@ 0x38
   22a52:	7026      	strb	r6, [r4, #0]
   22a54:	980c      	ldr	r0, [sp, #48]	@ 0x30
   22a56:	990f      	ldr	r1, [sp, #60]	@ 0x3c
   22a58:	6541      	str	r1, [r0, #84]	@ 0x54
   22a5a:	acff      	add	r4, sp, #1020	@ 0x3fc
   22a5c:	34a4      	adds	r4, #164	@ 0xa4
   22a5e:	1c60      	adds	r0, r4, #1
   22a60:	2132      	movs	r1, #50	@ 0x32
   22a62:	9008      	str	r0, [sp, #32]
   22a64:	f005 fa7b 	bl	27f5e <__aeabi_memclr>
   22a68:	7026      	strb	r6, [r4, #0]
   22a6a:	2155      	movs	r1, #85	@ 0x55
   22a6c:	2204      	movs	r2, #4
   22a6e:	980d      	ldr	r0, [sp, #52]	@ 0x34
   22a70:	920d      	str	r2, [sp, #52]	@ 0x34
   22a72:	f7fd fc8b 	bl	2038c <_ZN9allow_pin12dynamic_type23Buffer$LT$B$C$_$C$_$GT$5allow17h793c6dad136ce64cE>
   22a76:	910f      	str	r1, [sp, #60]	@ 0x3c
   22a78:	07c0      	lsls	r0, r0, #31
   22a7a:	d119      	bne.n	22ab0 <_start+0x24ac>
   22a7c:	e002      	b.n	22a84 <_start+0x2480>
   22a7e:	46c0      	nop			@ (mov r8, r8)
   22a80:	000005a8 	.word	0x000005a8
   22a84:	a8ff      	add	r0, sp, #1020	@ 0x3fc
   22a86:	30a4      	adds	r0, #164	@ 0xa4
   22a88:	2132      	movs	r1, #50	@ 0x32
   22a8a:	2203      	movs	r2, #3
   22a8c:	f7fd fc7e 	bl	2038c <_ZN9allow_pin12dynamic_type23Buffer$LT$B$C$_$C$_$GT$5allow17h793c6dad136ce64cE>
   22a90:	910f      	str	r1, [sp, #60]	@ 0x3c
   22a92:	07c0      	lsls	r0, r0, #31
   22a94:	d10c      	bne.n	22ab0 <_start+0x24ac>
   22a96:	4805      	ldr	r0, [pc, #20]	@ (22aac <_start+0x24a8>)
   22a98:	2108      	movs	r1, #8
   22a9a:	2400      	movs	r4, #0
   22a9c:	460a      	mov	r2, r1
   22a9e:	4623      	mov	r3, r4
   22aa0:	df02      	svc	2
   22aa2:	910f      	str	r1, [sp, #60]	@ 0x3c
   22aa4:	287f      	cmp	r0, #127	@ 0x7f
   22aa6:	d903      	bls.n	22ab0 <_start+0x24ac>
   22aa8:	f001 facb 	bl	24042 <_start+0x3a3e>
   22aac:	00002095 	.word	0x00002095
   22ab0:	9c0b      	ldr	r4, [sp, #44]	@ 0x2c
   22ab2:	a8ff      	add	r0, sp, #1020	@ 0x3fc
   22ab4:	30a4      	adds	r0, #164	@ 0xa4
   22ab6:	7802      	ldrb	r2, [r0, #0]
   22ab8:	2a02      	cmp	r2, #2
   22aba:	d007      	beq.n	22acc <_start+0x24c8>
   22abc:	4802      	ldr	r0, [pc, #8]	@ (22ac8 <_start+0x24c4>)
   22abe:	304d      	adds	r0, #77	@ 0x4d
   22ac0:	2108      	movs	r1, #8
   22ac2:	f005 fa3f 	bl	27f44 <_ZN9allow_pin12dynamic_type7unshare17ha4091652f9b609c4E>
   22ac6:	e001      	b.n	22acc <_start+0x24c8>
   22ac8:	00002048 	.word	0x00002048
   22acc:	4802      	ldr	r0, [pc, #8]	@ (22ad8 <_start+0x24d4>)
   22ace:	4468      	add	r0, sp
   22ad0:	7802      	ldrb	r2, [r0, #0]
   22ad2:	2a02      	cmp	r2, #2
   22ad4:	d00a      	beq.n	22aec <_start+0x24e8>
   22ad6:	e001      	b.n	22adc <_start+0x24d8>
   22ad8:	000005a8 	.word	0x000005a8
   22adc:	4802      	ldr	r0, [pc, #8]	@ (22ae8 <_start+0x24e4>)
   22ade:	304d      	adds	r0, #77	@ 0x4d
   22ae0:	2108      	movs	r1, #8
   22ae2:	f005 fa2f 	bl	27f44 <_ZN9allow_pin12dynamic_type7unshare17ha4091652f9b609c4E>
   22ae6:	e001      	b.n	22aec <_start+0x24e8>
   22ae8:	00002048 	.word	0x00002048
   22aec:	2c00      	cmp	r4, #0
   22aee:	d001      	beq.n	22af4 <_start+0x24f0>
   22af0:	f7ff fb30 	bl	22154 <_start+0x1b50>
   22af4:	4e17      	ldr	r6, [pc, #92]	@ (22b54 <_start+0x2550>)
   22af6:	446e      	add	r6, sp
   22af8:	1c70      	adds	r0, r6, #1
   22afa:	9008      	str	r0, [sp, #32]
   22afc:	a9ff      	add	r1, sp, #1020	@ 0x3fc
   22afe:	318c      	adds	r1, #140	@ 0x8c
   22b00:	2203      	movs	r2, #3
   22b02:	9205      	str	r2, [sp, #20]
   22b04:	f005 fbeb 	bl	282de <__aeabi_memcpy>
   22b08:	a89f      	add	r0, sp, #636	@ 0x27c
   22b0a:	9006      	str	r0, [sp, #24]
   22b0c:	a9c9      	add	r1, sp, #804	@ 0x324
   22b0e:	242b      	movs	r4, #43	@ 0x2b
   22b10:	4622      	mov	r2, r4
   22b12:	f005 fbe4 	bl	282de <__aeabi_memcpy>
   22b16:	4630      	mov	r0, r6
   22b18:	3008      	adds	r0, #8
   22b1a:	9906      	ldr	r1, [sp, #24]
   22b1c:	4622      	mov	r2, r4
   22b1e:	f005 fbde 	bl	282de <__aeabi_memcpy>
   22b22:	9c0e      	ldr	r4, [sp, #56]	@ 0x38
   22b24:	7034      	strb	r4, [r6, #0]
   22b26:	980f      	ldr	r0, [sp, #60]	@ 0x3c
   22b28:	990a      	ldr	r1, [sp, #40]	@ 0x28
   22b2a:	6008      	str	r0, [r1, #0]
   22b2c:	4e0a      	ldr	r6, [pc, #40]	@ (22b58 <_start+0x2554>)
   22b2e:	446e      	add	r6, sp
   22b30:	1c70      	adds	r0, r6, #1
   22b32:	2141      	movs	r1, #65	@ 0x41
   22b34:	9006      	str	r0, [sp, #24]
   22b36:	f005 fa12 	bl	27f5e <__aeabi_memclr>
   22b3a:	7034      	strb	r4, [r6, #0]
   22b3c:	980d      	ldr	r0, [sp, #52]	@ 0x34
   22b3e:	9000      	str	r0, [sp, #0]
   22b40:	2107      	movs	r1, #7
   22b42:	2332      	movs	r3, #50	@ 0x32
   22b44:	4805      	ldr	r0, [pc, #20]	@ (22b5c <_start+0x2558>)
   22b46:	9a08      	ldr	r2, [sp, #32]
   22b48:	f7fd fba8 	bl	2029c <_ZN9allow_pin12dynamic_type11allow_inner17hf1099571477a6939E>
   22b4c:	910f      	str	r1, [sp, #60]	@ 0x3c
   22b4e:	07c0      	lsls	r0, r0, #31
   22b50:	d12e      	bne.n	22bb0 <_start+0x25ac>
   22b52:	e005      	b.n	22b60 <_start+0x255c>
   22b54:	00000558 	.word	0x00000558
   22b58:	000005a8 	.word	0x000005a8
   22b5c:	0000091d 	.word	0x0000091d
   22b60:	4807      	ldr	r0, [pc, #28]	@ (22b80 <_start+0x257c>)
   22b62:	4468      	add	r0, sp
   22b64:	990d      	ldr	r1, [sp, #52]	@ 0x34
   22b66:	7001      	strb	r1, [r0, #0]
   22b68:	9805      	ldr	r0, [sp, #20]
   22b6a:	9000      	str	r0, [sp, #0]
   22b6c:	2105      	movs	r1, #5
   22b6e:	2341      	movs	r3, #65	@ 0x41
   22b70:	4804      	ldr	r0, [pc, #16]	@ (22b84 <_start+0x2580>)
   22b72:	9a06      	ldr	r2, [sp, #24]
   22b74:	f7fd fb92 	bl	2029c <_ZN9allow_pin12dynamic_type11allow_inner17hf1099571477a6939E>
   22b78:	910f      	str	r1, [sp, #60]	@ 0x3c
   22b7a:	07c0      	lsls	r0, r0, #31
   22b7c:	d118      	bne.n	22bb0 <_start+0x25ac>
   22b7e:	e003      	b.n	22b88 <_start+0x2584>
   22b80:	00000558 	.word	0x00000558
   22b84:	0000091d 	.word	0x0000091d
   22b88:	4807      	ldr	r0, [pc, #28]	@ (22ba8 <_start+0x25a4>)
   22b8a:	4468      	add	r0, sp
   22b8c:	9905      	ldr	r1, [sp, #20]
   22b8e:	7001      	strb	r1, [r0, #0]
   22b90:	4806      	ldr	r0, [pc, #24]	@ (22bac <_start+0x25a8>)
   22b92:	2107      	movs	r1, #7
   22b94:	2205      	movs	r2, #5
   22b96:	2400      	movs	r4, #0
   22b98:	4623      	mov	r3, r4
   22b9a:	df02      	svc	2
   22b9c:	910f      	str	r1, [sp, #60]	@ 0x3c
   22b9e:	287f      	cmp	r0, #127	@ 0x7f
   22ba0:	d906      	bls.n	22bb0 <_start+0x25ac>
   22ba2:	f001 fa64 	bl	2406e <_start+0x3a6a>
   22ba6:	46c0      	nop			@ (mov r8, r8)
   22ba8:	000005a8 	.word	0x000005a8
   22bac:	0000091d 	.word	0x0000091d
   22bb0:	9c0b      	ldr	r4, [sp, #44]	@ 0x2c
   22bb2:	4803      	ldr	r0, [pc, #12]	@ (22bc0 <_start+0x25bc>)
   22bb4:	4468      	add	r0, sp
   22bb6:	7802      	ldrb	r2, [r0, #0]
   22bb8:	2a02      	cmp	r2, #2
   22bba:	d00b      	beq.n	22bd4 <_start+0x25d0>
   22bbc:	e002      	b.n	22bc4 <_start+0x25c0>
   22bbe:	46c0      	nop			@ (mov r8, r8)
   22bc0:	000005a8 	.word	0x000005a8
   22bc4:	2105      	movs	r1, #5
   22bc6:	4802      	ldr	r0, [pc, #8]	@ (22bd0 <_start+0x25cc>)
   22bc8:	f005 f9bc 	bl	27f44 <_ZN9allow_pin12dynamic_type7unshare17ha4091652f9b609c4E>
   22bcc:	e002      	b.n	22bd4 <_start+0x25d0>
   22bce:	46c0      	nop			@ (mov r8, r8)
   22bd0:	0000091d 	.word	0x0000091d
   22bd4:	4802      	ldr	r0, [pc, #8]	@ (22be0 <_start+0x25dc>)
   22bd6:	4468      	add	r0, sp
   22bd8:	7802      	ldrb	r2, [r0, #0]
   22bda:	2a02      	cmp	r2, #2
   22bdc:	d00a      	beq.n	22bf4 <_start+0x25f0>
   22bde:	e001      	b.n	22be4 <_start+0x25e0>
   22be0:	00000558 	.word	0x00000558
   22be4:	2107      	movs	r1, #7
   22be6:	4802      	ldr	r0, [pc, #8]	@ (22bf0 <_start+0x25ec>)
   22be8:	f005 f9ac 	bl	27f44 <_ZN9allow_pin12dynamic_type7unshare17ha4091652f9b609c4E>
   22bec:	e002      	b.n	22bf4 <_start+0x25f0>
   22bee:	46c0      	nop			@ (mov r8, r8)
   22bf0:	0000091d 	.word	0x0000091d
   22bf4:	2c00      	cmp	r4, #0
   22bf6:	d001      	beq.n	22bfc <_start+0x25f8>
   22bf8:	f7ff faac 	bl	22154 <_start+0x1b50>
   22bfc:	4e19      	ldr	r6, [pc, #100]	@ (22c64 <_start+0x2660>)
   22bfe:	446e      	add	r6, sp
   22c00:	1c70      	adds	r0, r6, #1
   22c02:	9008      	str	r0, [sp, #32]
   22c04:	a9c9      	add	r1, sp, #804	@ 0x324
   22c06:	2203      	movs	r2, #3
   22c08:	9206      	str	r2, [sp, #24]
   22c0a:	f005 fb68 	bl	282de <__aeabi_memcpy>
   22c0e:	acff      	add	r4, sp, #1020	@ 0x3fc
   22c10:	34a4      	adds	r4, #164	@ 0xa4
   22c12:	a99f      	add	r1, sp, #636	@ 0x27c
   22c14:	253a      	movs	r5, #58	@ 0x3a
   22c16:	4620      	mov	r0, r4
   22c18:	462a      	mov	r2, r5
   22c1a:	f005 fb60 	bl	282de <__aeabi_memcpy>
   22c1e:	4630      	mov	r0, r6
   22c20:	3008      	adds	r0, #8
   22c22:	4621      	mov	r1, r4
   22c24:	462a      	mov	r2, r5
   22c26:	f005 fb5a 	bl	282de <__aeabi_memcpy>
   22c2a:	9d0e      	ldr	r5, [sp, #56]	@ 0x38
   22c2c:	7035      	strb	r5, [r6, #0]
   22c2e:	980c      	ldr	r0, [sp, #48]	@ 0x30
   22c30:	990f      	ldr	r1, [sp, #60]	@ 0x3c
   22c32:	6541      	str	r1, [r0, #84]	@ 0x54
   22c34:	acff      	add	r4, sp, #1020	@ 0x3fc
   22c36:	34a4      	adds	r4, #164	@ 0xa4
   22c38:	1c60      	adds	r0, r4, #1
   22c3a:	2122      	movs	r1, #34	@ 0x22
   22c3c:	9005      	str	r0, [sp, #20]
   22c3e:	f005 f98e 	bl	27f5e <__aeabi_memclr>
   22c42:	7025      	strb	r5, [r4, #0]
   22c44:	980d      	ldr	r0, [sp, #52]	@ 0x34
   22c46:	9000      	str	r0, [sp, #0]
   22c48:	4c07      	ldr	r4, [pc, #28]	@ (22c68 <_start+0x2664>)
   22c4a:	34ad      	adds	r4, #173	@ 0xad
   22c4c:	2501      	movs	r5, #1
   22c4e:	2341      	movs	r3, #65	@ 0x41
   22c50:	4620      	mov	r0, r4
   22c52:	4629      	mov	r1, r5
   22c54:	9a08      	ldr	r2, [sp, #32]
   22c56:	f7fd fb21 	bl	2029c <_ZN9allow_pin12dynamic_type11allow_inner17hf1099571477a6939E>
   22c5a:	910f      	str	r1, [sp, #60]	@ 0x3c
   22c5c:	07c0      	lsls	r0, r0, #31
   22c5e:	d129      	bne.n	22cb4 <_start+0x26b0>
   22c60:	e004      	b.n	22c6c <_start+0x2668>
   22c62:	46c0      	nop			@ (mov r8, r8)
   22c64:	000005a8 	.word	0x000005a8
   22c68:	000023cf 	.word	0x000023cf
   22c6c:	4807      	ldr	r0, [pc, #28]	@ (22c8c <_start+0x2688>)
   22c6e:	4468      	add	r0, sp
   22c70:	990d      	ldr	r1, [sp, #52]	@ 0x34
   22c72:	7001      	strb	r1, [r0, #0]
   22c74:	9806      	ldr	r0, [sp, #24]
   22c76:	9000      	str	r0, [sp, #0]
   22c78:	2100      	movs	r1, #0
   22c7a:	2322      	movs	r3, #34	@ 0x22
   22c7c:	4620      	mov	r0, r4
   22c7e:	9a05      	ldr	r2, [sp, #20]
   22c80:	f7fd fb0c 	bl	2029c <_ZN9allow_pin12dynamic_type11allow_inner17hf1099571477a6939E>
   22c84:	910f      	str	r1, [sp, #60]	@ 0x3c
   22c86:	07c0      	lsls	r0, r0, #31
   22c88:	d114      	bne.n	22cb4 <_start+0x26b0>
   22c8a:	e001      	b.n	22c90 <_start+0x268c>
   22c8c:	000005a8 	.word	0x000005a8
   22c90:	a8ff      	add	r0, sp, #1020	@ 0x3fc
   22c92:	30a4      	adds	r0, #164	@ 0xa4
   22c94:	9906      	ldr	r1, [sp, #24]
   22c96:	7001      	strb	r1, [r0, #0]
   22c98:	4805      	ldr	r0, [pc, #20]	@ (22cb0 <_start+0x26ac>)
   22c9a:	2101      	movs	r1, #1
   22c9c:	2600      	movs	r6, #0
   22c9e:	4632      	mov	r2, r6
   22ca0:	4633      	mov	r3, r6
   22ca2:	df02      	svc	2
   22ca4:	910f      	str	r1, [sp, #60]	@ 0x3c
   22ca6:	287f      	cmp	r0, #127	@ 0x7f
   22ca8:	d904      	bls.n	22cb4 <_start+0x26b0>
   22caa:	f001 fa23 	bl	240f4 <_start+0x3af0>
   22cae:	46c0      	nop			@ (mov r8, r8)
   22cb0:	0000247c 	.word	0x0000247c
   22cb4:	9e0b      	ldr	r6, [sp, #44]	@ 0x2c
   22cb6:	a8ff      	add	r0, sp, #1020	@ 0x3fc
   22cb8:	30a4      	adds	r0, #164	@ 0xa4
   22cba:	7802      	ldrb	r2, [r0, #0]
   22cbc:	2a02      	cmp	r2, #2
   22cbe:	d003      	beq.n	22cc8 <_start+0x26c4>
   22cc0:	2100      	movs	r1, #0
   22cc2:	4620      	mov	r0, r4
   22cc4:	f005 f93e 	bl	27f44 <_ZN9allow_pin12dynamic_type7unshare17ha4091652f9b609c4E>
   22cc8:	4802      	ldr	r0, [pc, #8]	@ (22cd4 <_start+0x26d0>)
   22cca:	4468      	add	r0, sp
   22ccc:	7802      	ldrb	r2, [r0, #0]
   22cce:	2a02      	cmp	r2, #2
   22cd0:	d006      	beq.n	22ce0 <_start+0x26dc>
   22cd2:	e001      	b.n	22cd8 <_start+0x26d4>
   22cd4:	000005a8 	.word	0x000005a8
   22cd8:	2101      	movs	r1, #1
   22cda:	4620      	mov	r0, r4
   22cdc:	f005 f932 	bl	27f44 <_ZN9allow_pin12dynamic_type7unshare17ha4091652f9b609c4E>
   22ce0:	2e00      	cmp	r6, #0
   22ce2:	d001      	beq.n	22ce8 <_start+0x26e4>
   22ce4:	f7ff fa36 	bl	22154 <_start+0x1b50>
   22ce8:	4c16      	ldr	r4, [pc, #88]	@ (22d44 <_start+0x2740>)
   22cea:	446c      	add	r4, sp
   22cec:	1c60      	adds	r0, r4, #1
   22cee:	a9ff      	add	r1, sp, #1020	@ 0x3fc
   22cf0:	318c      	adds	r1, #140	@ 0x8c
   22cf2:	2203      	movs	r2, #3
   22cf4:	f005 faf3 	bl	282de <__aeabi_memcpy>
   22cf8:	a89f      	add	r0, sp, #636	@ 0x27c
   22cfa:	9008      	str	r0, [sp, #32]
   22cfc:	a9c9      	add	r1, sp, #804	@ 0x324
   22cfe:	261b      	movs	r6, #27
   22d00:	4632      	mov	r2, r6
   22d02:	f005 faec 	bl	282de <__aeabi_memcpy>
   22d06:	940d      	str	r4, [sp, #52]	@ 0x34
   22d08:	4620      	mov	r0, r4
   22d0a:	3008      	adds	r0, #8
   22d0c:	9908      	ldr	r1, [sp, #32]
   22d0e:	4632      	mov	r2, r6
   22d10:	f005 fae5 	bl	282de <__aeabi_memcpy>
   22d14:	9e0e      	ldr	r6, [sp, #56]	@ 0x38
   22d16:	7026      	strb	r6, [r4, #0]
   22d18:	980f      	ldr	r0, [sp, #60]	@ 0x3c
   22d1a:	990a      	ldr	r1, [sp, #40]	@ 0x28
   22d1c:	6008      	str	r0, [r1, #0]
   22d1e:	4c0a      	ldr	r4, [pc, #40]	@ (22d48 <_start+0x2744>)
   22d20:	446c      	add	r4, sp
   22d22:	1c60      	adds	r0, r4, #1
   22d24:	2151      	movs	r1, #81	@ 0x51
   22d26:	9008      	str	r0, [sp, #32]
   22d28:	f005 f919 	bl	27f5e <__aeabi_memclr>
   22d2c:	7026      	strb	r6, [r4, #0]
   22d2e:	2122      	movs	r1, #34	@ 0x22
   22d30:	2204      	movs	r2, #4
   22d32:	980d      	ldr	r0, [sp, #52]	@ 0x34
   22d34:	920d      	str	r2, [sp, #52]	@ 0x34
   22d36:	f7fd fb77 	bl	20428 <_ZN9allow_pin12dynamic_type23Buffer$LT$B$C$_$C$_$GT$5allow17he4dbbb63f0273af0E>
   22d3a:	910f      	str	r1, [sp, #60]	@ 0x3c
   22d3c:	07c0      	lsls	r0, r0, #31
   22d3e:	d11f      	bne.n	22d80 <_start+0x277c>
   22d40:	e004      	b.n	22d4c <_start+0x2748>
   22d42:	46c0      	nop			@ (mov r8, r8)
   22d44:	00000558 	.word	0x00000558
   22d48:	000005a8 	.word	0x000005a8
   22d4c:	4804      	ldr	r0, [pc, #16]	@ (22d60 <_start+0x275c>)
   22d4e:	4468      	add	r0, sp
   22d50:	2151      	movs	r1, #81	@ 0x51
   22d52:	2203      	movs	r2, #3
   22d54:	f7fd fb68 	bl	20428 <_ZN9allow_pin12dynamic_type23Buffer$LT$B$C$_$C$_$GT$5allow17he4dbbb63f0273af0E>
   22d58:	910f      	str	r1, [sp, #60]	@ 0x3c
   22d5a:	07c0      	lsls	r0, r0, #31
   22d5c:	d110      	bne.n	22d80 <_start+0x277c>
   22d5e:	e001      	b.n	22d64 <_start+0x2760>
   22d60:	000005a8 	.word	0x000005a8
   22d64:	4805      	ldr	r0, [pc, #20]	@ (22d7c <_start+0x2778>)
   22d66:	2109      	movs	r1, #9
   22d68:	2400      	movs	r4, #0
   22d6a:	460a      	mov	r2, r1
   22d6c:	4623      	mov	r3, r4
   22d6e:	df02      	svc	2
   22d70:	910f      	str	r1, [sp, #60]	@ 0x3c
   22d72:	287f      	cmp	r0, #127	@ 0x7f
   22d74:	d904      	bls.n	22d80 <_start+0x277c>
   22d76:	f001 f9ed 	bl	24154 <_start+0x3b50>
   22d7a:	46c0      	nop			@ (mov r8, r8)
   22d7c:	0000055e 	.word	0x0000055e
   22d80:	9c0b      	ldr	r4, [sp, #44]	@ 0x2c
   22d82:	4803      	ldr	r0, [pc, #12]	@ (22d90 <_start+0x278c>)
   22d84:	4468      	add	r0, sp
   22d86:	7802      	ldrb	r2, [r0, #0]
   22d88:	2a02      	cmp	r2, #2
   22d8a:	d00b      	beq.n	22da4 <_start+0x27a0>
   22d8c:	e002      	b.n	22d94 <_start+0x2790>
   22d8e:	46c0      	nop			@ (mov r8, r8)
   22d90:	000005a8 	.word	0x000005a8
   22d94:	4802      	ldr	r0, [pc, #8]	@ (22da0 <_start+0x279c>)
   22d96:	38f5      	subs	r0, #245	@ 0xf5
   22d98:	2109      	movs	r1, #9
   22d9a:	f005 f8d3 	bl	27f44 <_ZN9allow_pin12dynamic_type7unshare17ha4091652f9b609c4E>
   22d9e:	e001      	b.n	22da4 <_start+0x27a0>
   22da0:	00000653 	.word	0x00000653
   22da4:	4802      	ldr	r0, [pc, #8]	@ (22db0 <_start+0x27ac>)
   22da6:	4468      	add	r0, sp
   22da8:	7802      	ldrb	r2, [r0, #0]
   22daa:	2a02      	cmp	r2, #2
   22dac:	d00a      	beq.n	22dc4 <_start+0x27c0>
   22dae:	e001      	b.n	22db4 <_start+0x27b0>
   22db0:	00000558 	.word	0x00000558
   22db4:	4802      	ldr	r0, [pc, #8]	@ (22dc0 <_start+0x27bc>)
   22db6:	38f5      	subs	r0, #245	@ 0xf5
   22db8:	2109      	movs	r1, #9
   22dba:	f005 f8c3 	bl	27f44 <_ZN9allow_pin12dynamic_type7unshare17ha4091652f9b609c4E>
   22dbe:	e001      	b.n	22dc4 <_start+0x27c0>
   22dc0:	00000653 	.word	0x00000653
   22dc4:	2c00      	cmp	r4, #0
   22dc6:	d001      	beq.n	22dcc <_start+0x27c8>
   22dc8:	f7ff f9c4 	bl	22154 <_start+0x1b50>
   22dcc:	4c18      	ldr	r4, [pc, #96]	@ (22e30 <_start+0x282c>)
   22dce:	446c      	add	r4, sp
   22dd0:	1c60      	adds	r0, r4, #1
   22dd2:	9008      	str	r0, [sp, #32]
   22dd4:	a9c9      	add	r1, sp, #804	@ 0x324
   22dd6:	2203      	movs	r2, #3
   22dd8:	9205      	str	r2, [sp, #20]
   22dda:	f005 fa80 	bl	282de <__aeabi_memcpy>
   22dde:	a8ff      	add	r0, sp, #1020	@ 0x3fc
   22de0:	30a4      	adds	r0, #164	@ 0xa4
   22de2:	9006      	str	r0, [sp, #24]
   22de4:	a99f      	add	r1, sp, #636	@ 0x27c
   22de6:	264a      	movs	r6, #74	@ 0x4a
   22de8:	4632      	mov	r2, r6
   22dea:	f005 f918 	bl	2801e <__aeabi_memcpy4>
   22dee:	4620      	mov	r0, r4
   22df0:	3008      	adds	r0, #8
   22df2:	9906      	ldr	r1, [sp, #24]
   22df4:	4632      	mov	r2, r6
   22df6:	f005 f912 	bl	2801e <__aeabi_memcpy4>
   22dfa:	9e0e      	ldr	r6, [sp, #56]	@ 0x38
   22dfc:	7026      	strb	r6, [r4, #0]
   22dfe:	980c      	ldr	r0, [sp, #48]	@ 0x30
   22e00:	990f      	ldr	r1, [sp, #60]	@ 0x3c
   22e02:	6541      	str	r1, [r0, #84]	@ 0x54
   22e04:	acff      	add	r4, sp, #1020	@ 0x3fc
   22e06:	34a4      	adds	r4, #164	@ 0xa4
   22e08:	1c60      	adds	r0, r4, #1
   22e0a:	214f      	movs	r1, #79	@ 0x4f
   22e0c:	9006      	str	r0, [sp, #24]
   22e0e:	f005 f8a6 	bl	27f5e <__aeabi_memclr>
   22e12:	7026      	strb	r6, [r4, #0]
   22e14:	980d      	ldr	r0, [sp, #52]	@ 0x34
   22e16:	9000      	str	r0, [sp, #0]
   22e18:	4c06      	ldr	r4, [pc, #24]	@ (22e34 <_start+0x2830>)
   22e1a:	34b9      	adds	r4, #185	@ 0xb9
   22e1c:	2351      	movs	r3, #81	@ 0x51
   22e1e:	4620      	mov	r0, r4
   22e20:	4631      	mov	r1, r6
   22e22:	9a08      	ldr	r2, [sp, #32]
   22e24:	f7fd fa3a 	bl	2029c <_ZN9allow_pin12dynamic_type11allow_inner17hf1099571477a6939E>
   22e28:	910f      	str	r1, [sp, #60]	@ 0x3c
   22e2a:	07c0      	lsls	r0, r0, #31
   22e2c:	d128      	bne.n	22e80 <_start+0x287c>
   22e2e:	e003      	b.n	22e38 <_start+0x2834>
   22e30:	000005a8 	.word	0x000005a8
   22e34:	00000d5d 	.word	0x00000d5d
   22e38:	4807      	ldr	r0, [pc, #28]	@ (22e58 <_start+0x2854>)
   22e3a:	4468      	add	r0, sp
   22e3c:	990d      	ldr	r1, [sp, #52]	@ 0x34
   22e3e:	7001      	strb	r1, [r0, #0]
   22e40:	9805      	ldr	r0, [sp, #20]
   22e42:	9000      	str	r0, [sp, #0]
   22e44:	234f      	movs	r3, #79	@ 0x4f
   22e46:	4620      	mov	r0, r4
   22e48:	9a06      	ldr	r2, [sp, #24]
   22e4a:	f7fd fa27 	bl	2029c <_ZN9allow_pin12dynamic_type11allow_inner17hf1099571477a6939E>
   22e4e:	910f      	str	r1, [sp, #60]	@ 0x3c
   22e50:	07c0      	lsls	r0, r0, #31
   22e52:	d115      	bne.n	22e80 <_start+0x287c>
   22e54:	e002      	b.n	22e5c <_start+0x2858>
   22e56:	46c0      	nop			@ (mov r8, r8)
   22e58:	000005a8 	.word	0x000005a8
   22e5c:	a8ff      	add	r0, sp, #1020	@ 0x3fc
   22e5e:	30a4      	adds	r0, #164	@ 0xa4
   22e60:	9905      	ldr	r1, [sp, #20]
   22e62:	7001      	strb	r1, [r0, #0]
   22e64:	4805      	ldr	r0, [pc, #20]	@ (22e7c <_start+0x2878>)
   22e66:	2102      	movs	r1, #2
   22e68:	2204      	movs	r2, #4
   22e6a:	2600      	movs	r6, #0
   22e6c:	9108      	str	r1, [sp, #32]
   22e6e:	4633      	mov	r3, r6
   22e70:	df02      	svc	2
   22e72:	910f      	str	r1, [sp, #60]	@ 0x3c
   22e74:	287f      	cmp	r0, #127	@ 0x7f
   22e76:	d903      	bls.n	22e80 <_start+0x287c>
   22e78:	f001 f982 	bl	24180 <_start+0x3b7c>
   22e7c:	00000e16 	.word	0x00000e16
   22e80:	9e0b      	ldr	r6, [sp, #44]	@ 0x2c
   22e82:	a8ff      	add	r0, sp, #1020	@ 0x3fc
   22e84:	30a4      	adds	r0, #164	@ 0xa4
   22e86:	7802      	ldrb	r2, [r0, #0]
   22e88:	2a02      	cmp	r2, #2
   22e8a:	d003      	beq.n	22e94 <_start+0x2890>
   22e8c:	2104      	movs	r1, #4
   22e8e:	4620      	mov	r0, r4
   22e90:	f005 f858 	bl	27f44 <_ZN9allow_pin12dynamic_type7unshare17ha4091652f9b609c4E>
   22e94:	4802      	ldr	r0, [pc, #8]	@ (22ea0 <_start+0x289c>)
   22e96:	4468      	add	r0, sp
   22e98:	7802      	ldrb	r2, [r0, #0]
   22e9a:	2a02      	cmp	r2, #2
   22e9c:	d006      	beq.n	22eac <_start+0x28a8>
   22e9e:	e001      	b.n	22ea4 <_start+0x28a0>
   22ea0:	000005a8 	.word	0x000005a8
   22ea4:	2102      	movs	r1, #2
   22ea6:	4620      	mov	r0, r4
   22ea8:	f005 f84c 	bl	27f44 <_ZN9allow_pin12dynamic_type7unshare17ha4091652f9b609c4E>
   22eac:	2e00      	cmp	r6, #0
   22eae:	d001      	beq.n	22eb4 <_start+0x28b0>
   22eb0:	f7ff f950 	bl	22154 <_start+0x1b50>
   22eb4:	4e19      	ldr	r6, [pc, #100]	@ (22f1c <_start+0x2918>)
   22eb6:	446e      	add	r6, sp
   22eb8:	1c70      	adds	r0, r6, #1
   22eba:	9008      	str	r0, [sp, #32]
   22ebc:	4918      	ldr	r1, [pc, #96]	@ (22f20 <_start+0x291c>)
   22ebe:	4469      	add	r1, sp
   22ec0:	2203      	movs	r2, #3
   22ec2:	9205      	str	r2, [sp, #20]
   22ec4:	f005 fa0b 	bl	282de <__aeabi_memcpy>
   22ec8:	a832      	add	r0, sp, #200	@ 0xc8
   22eca:	9006      	str	r0, [sp, #24]
   22ecc:	a99f      	add	r1, sp, #636	@ 0x27c
   22ece:	2448      	movs	r4, #72	@ 0x48
   22ed0:	4622      	mov	r2, r4
   22ed2:	f005 f8a4 	bl	2801e <__aeabi_memcpy4>
   22ed6:	980e      	ldr	r0, [sp, #56]	@ 0x38
   22ed8:	7030      	strb	r0, [r6, #0]
   22eda:	980c      	ldr	r0, [sp, #48]	@ 0x30
   22edc:	990f      	ldr	r1, [sp, #60]	@ 0x3c
   22ede:	6541      	str	r1, [r0, #84]	@ 0x54
   22ee0:	3608      	adds	r6, #8
   22ee2:	4630      	mov	r0, r6
   22ee4:	9906      	ldr	r1, [sp, #24]
   22ee6:	4622      	mov	r2, r4
   22ee8:	f005 f899 	bl	2801e <__aeabi_memcpy4>
   22eec:	acff      	add	r4, sp, #1020	@ 0x3fc
   22eee:	34a4      	adds	r4, #164	@ 0xa4
   22ef0:	1c66      	adds	r6, r4, #1
   22ef2:	213b      	movs	r1, #59	@ 0x3b
   22ef4:	4630      	mov	r0, r6
   22ef6:	f005 f832 	bl	27f5e <__aeabi_memclr>
   22efa:	980e      	ldr	r0, [sp, #56]	@ 0x38
   22efc:	7020      	strb	r0, [r4, #0]
   22efe:	980d      	ldr	r0, [sp, #52]	@ 0x34
   22f00:	9000      	str	r0, [sp, #0]
   22f02:	4c08      	ldr	r4, [pc, #32]	@ (22f24 <_start+0x2920>)
   22f04:	34e9      	adds	r4, #233	@ 0xe9
   22f06:	2108      	movs	r1, #8
   22f08:	234f      	movs	r3, #79	@ 0x4f
   22f0a:	4620      	mov	r0, r4
   22f0c:	9a08      	ldr	r2, [sp, #32]
   22f0e:	f7fd f9c5 	bl	2029c <_ZN9allow_pin12dynamic_type11allow_inner17hf1099571477a6939E>
   22f12:	910f      	str	r1, [sp, #60]	@ 0x3c
   22f14:	07c0      	lsls	r0, r0, #31
   22f16:	d12b      	bne.n	22f70 <_start+0x296c>
   22f18:	e006      	b.n	22f28 <_start+0x2924>
   22f1a:	46c0      	nop			@ (mov r8, r8)
   22f1c:	000005a8 	.word	0x000005a8
   22f20:	00000558 	.word	0x00000558
   22f24:	0000091d 	.word	0x0000091d
   22f28:	4807      	ldr	r0, [pc, #28]	@ (22f48 <_start+0x2944>)
   22f2a:	4468      	add	r0, sp
   22f2c:	990d      	ldr	r1, [sp, #52]	@ 0x34
   22f2e:	7001      	strb	r1, [r0, #0]
   22f30:	9805      	ldr	r0, [sp, #20]
   22f32:	9000      	str	r0, [sp, #0]
   22f34:	2105      	movs	r1, #5
   22f36:	233b      	movs	r3, #59	@ 0x3b
   22f38:	4620      	mov	r0, r4
   22f3a:	4632      	mov	r2, r6
   22f3c:	f7fd f9ae 	bl	2029c <_ZN9allow_pin12dynamic_type11allow_inner17hf1099571477a6939E>
   22f40:	910f      	str	r1, [sp, #60]	@ 0x3c
   22f42:	07c0      	lsls	r0, r0, #31
   22f44:	d114      	bne.n	22f70 <_start+0x296c>
   22f46:	e001      	b.n	22f4c <_start+0x2948>
   22f48:	000005a8 	.word	0x000005a8
   22f4c:	a8ff      	add	r0, sp, #1020	@ 0x3fc
   22f4e:	30a4      	adds	r0, #164	@ 0xa4
   22f50:	9905      	ldr	r1, [sp, #20]
   22f52:	7001      	strb	r1, [r0, #0]
   22f54:	4805      	ldr	r0, [pc, #20]	@ (22f6c <_start+0x2968>)
   22f56:	2108      	movs	r1, #8
   22f58:	2205      	movs	r2, #5
   22f5a:	2300      	movs	r3, #0
   22f5c:	9308      	str	r3, [sp, #32]
   22f5e:	df02      	svc	2
   22f60:	910f      	str	r1, [sp, #60]	@ 0x3c
   22f62:	287f      	cmp	r0, #127	@ 0x7f
   22f64:	d904      	bls.n	22f70 <_start+0x296c>
   22f66:	f001 f95f 	bl	24228 <_start+0x3c24>
   22f6a:	46c0      	nop			@ (mov r8, r8)
   22f6c:	00000a06 	.word	0x00000a06
   22f70:	980b      	ldr	r0, [sp, #44]	@ 0x2c
   22f72:	9008      	str	r0, [sp, #32]
   22f74:	a8ff      	add	r0, sp, #1020	@ 0x3fc
   22f76:	30a4      	adds	r0, #164	@ 0xa4
   22f78:	7802      	ldrb	r2, [r0, #0]
   22f7a:	2a02      	cmp	r2, #2
   22f7c:	d003      	beq.n	22f86 <_start+0x2982>
   22f7e:	2105      	movs	r1, #5
   22f80:	4620      	mov	r0, r4
   22f82:	f004 ffdf 	bl	27f44 <_ZN9allow_pin12dynamic_type7unshare17ha4091652f9b609c4E>
   22f86:	4803      	ldr	r0, [pc, #12]	@ (22f94 <_start+0x2990>)
   22f88:	4468      	add	r0, sp
   22f8a:	7802      	ldrb	r2, [r0, #0]
   22f8c:	2a02      	cmp	r2, #2
   22f8e:	d007      	beq.n	22fa0 <_start+0x299c>
   22f90:	e002      	b.n	22f98 <_start+0x2994>
   22f92:	46c0      	nop			@ (mov r8, r8)
   22f94:	000005a8 	.word	0x000005a8
   22f98:	2108      	movs	r1, #8
   22f9a:	4620      	mov	r0, r4
   22f9c:	f004 ffd2 	bl	27f44 <_ZN9allow_pin12dynamic_type7unshare17ha4091652f9b609c4E>
   22fa0:	9808      	ldr	r0, [sp, #32]
   22fa2:	2800      	cmp	r0, #0
   22fa4:	d001      	beq.n	22faa <_start+0x29a6>
   22fa6:	f7ff f8d5 	bl	22154 <_start+0x1b50>
   22faa:	4c19      	ldr	r4, [pc, #100]	@ (23010 <_start+0x2a0c>)
   22fac:	446c      	add	r4, sp
   22fae:	1c60      	adds	r0, r4, #1
   22fb0:	9008      	str	r0, [sp, #32]
   22fb2:	4918      	ldr	r1, [pc, #96]	@ (23014 <_start+0x2a10>)
   22fb4:	4469      	add	r1, sp
   22fb6:	2203      	movs	r2, #3
   22fb8:	9205      	str	r2, [sp, #20]
   22fba:	f005 f990 	bl	282de <__aeabi_memcpy>
   22fbe:	a844      	add	r0, sp, #272	@ 0x110
   22fc0:	9006      	str	r0, [sp, #24]
   22fc2:	a99f      	add	r1, sp, #636	@ 0x27c
   22fc4:	2634      	movs	r6, #52	@ 0x34
   22fc6:	4632      	mov	r2, r6
   22fc8:	f005 f989 	bl	282de <__aeabi_memcpy>
   22fcc:	980e      	ldr	r0, [sp, #56]	@ 0x38
   22fce:	7020      	strb	r0, [r4, #0]
   22fd0:	980c      	ldr	r0, [sp, #48]	@ 0x30
   22fd2:	990f      	ldr	r1, [sp, #60]	@ 0x3c
   22fd4:	6541      	str	r1, [r0, #84]	@ 0x54
   22fd6:	3408      	adds	r4, #8
   22fd8:	4620      	mov	r0, r4
   22fda:	9906      	ldr	r1, [sp, #24]
   22fdc:	4632      	mov	r2, r6
   22fde:	f005 f97e 	bl	282de <__aeabi_memcpy>
   22fe2:	acff      	add	r4, sp, #1020	@ 0x3fc
   22fe4:	34a4      	adds	r4, #164	@ 0xa4
   22fe6:	1c60      	adds	r0, r4, #1
   22fe8:	2127      	movs	r1, #39	@ 0x27
   22fea:	9006      	str	r0, [sp, #24]
   22fec:	f004 ffb7 	bl	27f5e <__aeabi_memclr>
   22ff0:	980e      	ldr	r0, [sp, #56]	@ 0x38
   22ff2:	7020      	strb	r0, [r4, #0]
   22ff4:	980d      	ldr	r0, [sp, #52]	@ 0x34
   22ff6:	9000      	str	r0, [sp, #0]
   22ff8:	4c07      	ldr	r4, [pc, #28]	@ (23018 <_start+0x2a14>)
   22ffa:	3497      	adds	r4, #151	@ 0x97
   22ffc:	2105      	movs	r1, #5
   22ffe:	233b      	movs	r3, #59	@ 0x3b
   23000:	4620      	mov	r0, r4
   23002:	9a08      	ldr	r2, [sp, #32]
   23004:	f7fd f94a 	bl	2029c <_ZN9allow_pin12dynamic_type11allow_inner17hf1099571477a6939E>
   23008:	910f      	str	r1, [sp, #60]	@ 0x3c
   2300a:	07c0      	lsls	r0, r0, #31
   2300c:	d128      	bne.n	23060 <_start+0x2a5c>
   2300e:	e005      	b.n	2301c <_start+0x2a18>
   23010:	000005a8 	.word	0x000005a8
   23014:	00000558 	.word	0x00000558
   23018:	00000b3c 	.word	0x00000b3c
   2301c:	4807      	ldr	r0, [pc, #28]	@ (2303c <_start+0x2a38>)
   2301e:	4468      	add	r0, sp
   23020:	990d      	ldr	r1, [sp, #52]	@ 0x34
   23022:	7001      	strb	r1, [r0, #0]
   23024:	9905      	ldr	r1, [sp, #20]
   23026:	9100      	str	r1, [sp, #0]
   23028:	2327      	movs	r3, #39	@ 0x27
   2302a:	4620      	mov	r0, r4
   2302c:	9a06      	ldr	r2, [sp, #24]
   2302e:	f7fd f935 	bl	2029c <_ZN9allow_pin12dynamic_type11allow_inner17hf1099571477a6939E>
   23032:	910f      	str	r1, [sp, #60]	@ 0x3c
   23034:	07c0      	lsls	r0, r0, #31
   23036:	d113      	bne.n	23060 <_start+0x2a5c>
   23038:	e002      	b.n	23040 <_start+0x2a3c>
   2303a:	46c0      	nop			@ (mov r8, r8)
   2303c:	000005a8 	.word	0x000005a8
   23040:	a8ff      	add	r0, sp, #1020	@ 0x3fc
   23042:	30a4      	adds	r0, #164	@ 0xa4
   23044:	9a05      	ldr	r2, [sp, #20]
   23046:	7002      	strb	r2, [r0, #0]
   23048:	4804      	ldr	r0, [pc, #16]	@ (2305c <_start+0x2a58>)
   2304a:	2105      	movs	r1, #5
   2304c:	2600      	movs	r6, #0
   2304e:	4633      	mov	r3, r6
   23050:	df02      	svc	2
   23052:	910f      	str	r1, [sp, #60]	@ 0x3c
   23054:	287f      	cmp	r0, #127	@ 0x7f
   23056:	d903      	bls.n	23060 <_start+0x2a5c>
   23058:	f001 f915 	bl	24286 <_start+0x3c82>
   2305c:	00000bd3 	.word	0x00000bd3
   23060:	9e0b      	ldr	r6, [sp, #44]	@ 0x2c
   23062:	a8ff      	add	r0, sp, #1020	@ 0x3fc
   23064:	30a4      	adds	r0, #164	@ 0xa4
   23066:	7802      	ldrb	r2, [r0, #0]
   23068:	2a02      	cmp	r2, #2
   2306a:	d003      	beq.n	23074 <_start+0x2a70>
   2306c:	2103      	movs	r1, #3
   2306e:	4620      	mov	r0, r4
   23070:	f004 ff68 	bl	27f44 <_ZN9allow_pin12dynamic_type7unshare17ha4091652f9b609c4E>
   23074:	4802      	ldr	r0, [pc, #8]	@ (23080 <_start+0x2a7c>)
   23076:	4468      	add	r0, sp
   23078:	7802      	ldrb	r2, [r0, #0]
   2307a:	2a02      	cmp	r2, #2
   2307c:	d006      	beq.n	2308c <_start+0x2a88>
   2307e:	e001      	b.n	23084 <_start+0x2a80>
   23080:	000005a8 	.word	0x000005a8
   23084:	2105      	movs	r1, #5
   23086:	4620      	mov	r0, r4
   23088:	f004 ff5c 	bl	27f44 <_ZN9allow_pin12dynamic_type7unshare17ha4091652f9b609c4E>
   2308c:	2e00      	cmp	r6, #0
   2308e:	d001      	beq.n	23094 <_start+0x2a90>
   23090:	f7ff f860 	bl	22154 <_start+0x1b50>
   23094:	4e18      	ldr	r6, [pc, #96]	@ (230f8 <_start+0x2af4>)
   23096:	446e      	add	r6, sp
   23098:	1c70      	adds	r0, r6, #1
   2309a:	9008      	str	r0, [sp, #32]
   2309c:	4917      	ldr	r1, [pc, #92]	@ (230fc <_start+0x2af8>)
   2309e:	4469      	add	r1, sp
   230a0:	2203      	movs	r2, #3
   230a2:	9205      	str	r2, [sp, #20]
   230a4:	f005 f91b 	bl	282de <__aeabi_memcpy>
   230a8:	a851      	add	r0, sp, #324	@ 0x144
   230aa:	9006      	str	r0, [sp, #24]
   230ac:	a99f      	add	r1, sp, #636	@ 0x27c
   230ae:	2420      	movs	r4, #32
   230b0:	4622      	mov	r2, r4
   230b2:	f005 f914 	bl	282de <__aeabi_memcpy>
   230b6:	980e      	ldr	r0, [sp, #56]	@ 0x38
   230b8:	7030      	strb	r0, [r6, #0]
   230ba:	980c      	ldr	r0, [sp, #48]	@ 0x30
   230bc:	990f      	ldr	r1, [sp, #60]	@ 0x3c
   230be:	6541      	str	r1, [r0, #84]	@ 0x54
   230c0:	3608      	adds	r6, #8
   230c2:	4630      	mov	r0, r6
   230c4:	9906      	ldr	r1, [sp, #24]
   230c6:	4622      	mov	r2, r4
   230c8:	f005 f909 	bl	282de <__aeabi_memcpy>
   230cc:	acff      	add	r4, sp, #1020	@ 0x3fc
   230ce:	34a4      	adds	r4, #164	@ 0xa4
   230d0:	1c66      	adds	r6, r4, #1
   230d2:	2114      	movs	r1, #20
   230d4:	4630      	mov	r0, r6
   230d6:	f004 ff42 	bl	27f5e <__aeabi_memclr>
   230da:	980e      	ldr	r0, [sp, #56]	@ 0x38
   230dc:	7020      	strb	r0, [r4, #0]
   230de:	980d      	ldr	r0, [sp, #52]	@ 0x34
   230e0:	9000      	str	r0, [sp, #0]
   230e2:	2106      	movs	r1, #6
   230e4:	2327      	movs	r3, #39	@ 0x27
   230e6:	4806      	ldr	r0, [pc, #24]	@ (23100 <_start+0x2afc>)
   230e8:	9a08      	ldr	r2, [sp, #32]
   230ea:	f7fd f8d7 	bl	2029c <_ZN9allow_pin12dynamic_type11allow_inner17hf1099571477a6939E>
   230ee:	910f      	str	r1, [sp, #60]	@ 0x3c
   230f0:	07c0      	lsls	r0, r0, #31
   230f2:	d12d      	bne.n	23150 <_start+0x2b4c>
   230f4:	e006      	b.n	23104 <_start+0x2b00>
   230f6:	46c0      	nop			@ (mov r8, r8)
   230f8:	000005a8 	.word	0x000005a8
   230fc:	00000558 	.word	0x00000558
   23100:	000022c9 	.word	0x000022c9
   23104:	4807      	ldr	r0, [pc, #28]	@ (23124 <_start+0x2b20>)
   23106:	4468      	add	r0, sp
   23108:	990d      	ldr	r1, [sp, #52]	@ 0x34
   2310a:	7001      	strb	r1, [r0, #0]
   2310c:	9805      	ldr	r0, [sp, #20]
   2310e:	9000      	str	r0, [sp, #0]
   23110:	2105      	movs	r1, #5
   23112:	2314      	movs	r3, #20
   23114:	4804      	ldr	r0, [pc, #16]	@ (23128 <_start+0x2b24>)
   23116:	4632      	mov	r2, r6
   23118:	f7fd f8c0 	bl	2029c <_ZN9allow_pin12dynamic_type11allow_inner17hf1099571477a6939E>
   2311c:	910f      	str	r1, [sp, #60]	@ 0x3c
   2311e:	07c0      	lsls	r0, r0, #31
   23120:	d116      	bne.n	23150 <_start+0x2b4c>
   23122:	e003      	b.n	2312c <_start+0x2b28>
   23124:	000005a8 	.word	0x000005a8
   23128:	000022c9 	.word	0x000022c9
   2312c:	a8ff      	add	r0, sp, #1020	@ 0x3fc
   2312e:	30a4      	adds	r0, #164	@ 0xa4
   23130:	9905      	ldr	r1, [sp, #20]
   23132:	7001      	strb	r1, [r0, #0]
   23134:	4805      	ldr	r0, [pc, #20]	@ (2314c <_start+0x2b48>)
   23136:	2106      	movs	r1, #6
   23138:	2205      	movs	r2, #5
   2313a:	2300      	movs	r3, #0
   2313c:	9308      	str	r3, [sp, #32]
   2313e:	df02      	svc	2
   23140:	910f      	str	r1, [sp, #60]	@ 0x3c
   23142:	287f      	cmp	r0, #127	@ 0x7f
   23144:	d904      	bls.n	23150 <_start+0x2b4c>
   23146:	f001 f8ce 	bl	242e6 <_start+0x3ce2>
   2314a:	46c0      	nop			@ (mov r8, r8)
   2314c:	000022c9 	.word	0x000022c9
   23150:	980b      	ldr	r0, [sp, #44]	@ 0x2c
   23152:	9008      	str	r0, [sp, #32]
   23154:	a8ff      	add	r0, sp, #1020	@ 0x3fc
   23156:	30a4      	adds	r0, #164	@ 0xa4
   23158:	7802      	ldrb	r2, [r0, #0]
   2315a:	2a02      	cmp	r2, #2
   2315c:	d006      	beq.n	2316c <_start+0x2b68>
   2315e:	2105      	movs	r1, #5
   23160:	4801      	ldr	r0, [pc, #4]	@ (23168 <_start+0x2b64>)
   23162:	f004 feef 	bl	27f44 <_ZN9allow_pin12dynamic_type7unshare17ha4091652f9b609c4E>
   23166:	e001      	b.n	2316c <_start+0x2b68>
   23168:	000022c9 	.word	0x000022c9
   2316c:	4802      	ldr	r0, [pc, #8]	@ (23178 <_start+0x2b74>)
   2316e:	4468      	add	r0, sp
   23170:	7802      	ldrb	r2, [r0, #0]
   23172:	2a02      	cmp	r2, #2
   23174:	d00a      	beq.n	2318c <_start+0x2b88>
   23176:	e001      	b.n	2317c <_start+0x2b78>
   23178:	000005a8 	.word	0x000005a8
   2317c:	2106      	movs	r1, #6
   2317e:	4802      	ldr	r0, [pc, #8]	@ (23188 <_start+0x2b84>)
   23180:	f004 fee0 	bl	27f44 <_ZN9allow_pin12dynamic_type7unshare17ha4091652f9b609c4E>
   23184:	e002      	b.n	2318c <_start+0x2b88>
   23186:	46c0      	nop			@ (mov r8, r8)
   23188:	000022c9 	.word	0x000022c9
   2318c:	9808      	ldr	r0, [sp, #32]
   2318e:	2800      	cmp	r0, #0
   23190:	d001      	beq.n	23196 <_start+0x2b92>
   23192:	f7fe ffdf 	bl	22154 <_start+0x1b50>
   23196:	a89f      	add	r0, sp, #636	@ 0x27c
   23198:	9006      	str	r0, [sp, #24]
   2319a:	1c40      	adds	r0, r0, #1
   2319c:	9008      	str	r0, [sp, #32]
   2319e:	a9ff      	add	r1, sp, #1020	@ 0x3fc
   231a0:	318c      	adds	r1, #140	@ 0x8c
   231a2:	2203      	movs	r2, #3
   231a4:	9205      	str	r2, [sp, #20]
   231a6:	f005 f89a 	bl	282de <__aeabi_memcpy>
   231aa:	a8c9      	add	r0, sp, #804	@ 0x324
   231ac:	4914      	ldr	r1, [pc, #80]	@ (23200 <_start+0x2bfc>)
   231ae:	4469      	add	r1, sp
   231b0:	460a      	mov	r2, r1
   231b2:	c858      	ldmia	r0!, {r3, r4, r6}
   231b4:	c258      	stmia	r2!, {r3, r4, r6}
   231b6:	7800      	ldrb	r0, [r0, #0]
   231b8:	7010      	strb	r0, [r2, #0]
   231ba:	9e06      	ldr	r6, [sp, #24]
   231bc:	4630      	mov	r0, r6
   231be:	3008      	adds	r0, #8
   231c0:	c91c      	ldmia	r1!, {r2, r3, r4}
   231c2:	c01c      	stmia	r0!, {r2, r3, r4}
   231c4:	7809      	ldrb	r1, [r1, #0]
   231c6:	7001      	strb	r1, [r0, #0]
   231c8:	980e      	ldr	r0, [sp, #56]	@ 0x38
   231ca:	7030      	strb	r0, [r6, #0]
   231cc:	4606      	mov	r6, r0
   231ce:	980f      	ldr	r0, [sp, #60]	@ 0x3c
   231d0:	90a0      	str	r0, [sp, #640]	@ 0x280
   231d2:	4c0c      	ldr	r4, [pc, #48]	@ (23204 <_start+0x2c00>)
   231d4:	446c      	add	r4, sp
   231d6:	1c60      	adds	r0, r4, #1
   231d8:	212b      	movs	r1, #43	@ 0x2b
   231da:	9006      	str	r0, [sp, #24]
   231dc:	f004 febf 	bl	27f5e <__aeabi_memclr>
   231e0:	7026      	strb	r6, [r4, #0]
   231e2:	980d      	ldr	r0, [sp, #52]	@ 0x34
   231e4:	9000      	str	r0, [sp, #0]
   231e6:	4808      	ldr	r0, [pc, #32]	@ (23208 <_start+0x2c04>)
   231e8:	30d6      	adds	r0, #214	@ 0xd6
   231ea:	2108      	movs	r1, #8
   231ec:	2314      	movs	r3, #20
   231ee:	4604      	mov	r4, r0
   231f0:	9a08      	ldr	r2, [sp, #32]
   231f2:	f7fd f853 	bl	2029c <_ZN9allow_pin12dynamic_type11allow_inner17hf1099571477a6939E>
   231f6:	910f      	str	r1, [sp, #60]	@ 0x3c
   231f8:	07c0      	lsls	r0, r0, #31
   231fa:	d127      	bne.n	2324c <_start+0x2c48>
   231fc:	e006      	b.n	2320c <_start+0x2c08>
   231fe:	46c0      	nop			@ (mov r8, r8)
   23200:	00000558 	.word	0x00000558
   23204:	000005a8 	.word	0x000005a8
   23208:	000022c9 	.word	0x000022c9
   2320c:	a89f      	add	r0, sp, #636	@ 0x27c
   2320e:	990d      	ldr	r1, [sp, #52]	@ 0x34
   23210:	7001      	strb	r1, [r0, #0]
   23212:	9805      	ldr	r0, [sp, #20]
   23214:	9000      	str	r0, [sp, #0]
   23216:	232b      	movs	r3, #43	@ 0x2b
   23218:	4620      	mov	r0, r4
   2321a:	9a06      	ldr	r2, [sp, #24]
   2321c:	f7fd f83e 	bl	2029c <_ZN9allow_pin12dynamic_type11allow_inner17hf1099571477a6939E>
   23220:	910f      	str	r1, [sp, #60]	@ 0x3c
   23222:	07c0      	lsls	r0, r0, #31
   23224:	d112      	bne.n	2324c <_start+0x2c48>
   23226:	4807      	ldr	r0, [pc, #28]	@ (23244 <_start+0x2c40>)
   23228:	4468      	add	r0, sp
   2322a:	9905      	ldr	r1, [sp, #20]
   2322c:	7001      	strb	r1, [r0, #0]
   2322e:	4806      	ldr	r0, [pc, #24]	@ (23248 <_start+0x2c44>)
   23230:	2108      	movs	r1, #8
   23232:	2204      	movs	r2, #4
   23234:	2600      	movs	r6, #0
   23236:	4633      	mov	r3, r6
   23238:	df02      	svc	2
   2323a:	910f      	str	r1, [sp, #60]	@ 0x3c
   2323c:	287f      	cmp	r0, #127	@ 0x7f
   2323e:	d905      	bls.n	2324c <_start+0x2c48>
   23240:	f001 f881 	bl	24346 <_start+0x3d42>
   23244:	000005a8 	.word	0x000005a8
   23248:	0000239f 	.word	0x0000239f
   2324c:	9e0b      	ldr	r6, [sp, #44]	@ 0x2c
   2324e:	4803      	ldr	r0, [pc, #12]	@ (2325c <_start+0x2c58>)
   23250:	4468      	add	r0, sp
   23252:	7802      	ldrb	r2, [r0, #0]
   23254:	2a02      	cmp	r2, #2
   23256:	d007      	beq.n	23268 <_start+0x2c64>
   23258:	e002      	b.n	23260 <_start+0x2c5c>
   2325a:	46c0      	nop			@ (mov r8, r8)
   2325c:	000005a8 	.word	0x000005a8
   23260:	2104      	movs	r1, #4
   23262:	4620      	mov	r0, r4
   23264:	f004 fe6e 	bl	27f44 <_ZN9allow_pin12dynamic_type7unshare17ha4091652f9b609c4E>
   23268:	a89f      	add	r0, sp, #636	@ 0x27c
   2326a:	7802      	ldrb	r2, [r0, #0]
   2326c:	2a02      	cmp	r2, #2
   2326e:	d003      	beq.n	23278 <_start+0x2c74>
   23270:	2108      	movs	r1, #8
   23272:	4620      	mov	r0, r4
   23274:	f004 fe66 	bl	27f44 <_ZN9allow_pin12dynamic_type7unshare17ha4091652f9b609c4E>
   23278:	2e00      	cmp	r6, #0
   2327a:	d001      	beq.n	23280 <_start+0x2c7c>
   2327c:	f7fe ff6a 	bl	22154 <_start+0x1b50>
   23280:	4e19      	ldr	r6, [pc, #100]	@ (232e8 <_start+0x2ce4>)
   23282:	446e      	add	r6, sp
   23284:	1c70      	adds	r0, r6, #1
   23286:	9006      	str	r0, [sp, #24]
   23288:	4918      	ldr	r1, [pc, #96]	@ (232ec <_start+0x2ce8>)
   2328a:	4469      	add	r1, sp
   2328c:	2203      	movs	r2, #3
   2328e:	9205      	str	r2, [sp, #20]
   23290:	f005 f825 	bl	282de <__aeabi_memcpy>
   23294:	a859      	add	r0, sp, #356	@ 0x164
   23296:	9008      	str	r0, [sp, #32]
   23298:	a9ff      	add	r1, sp, #1020	@ 0x3fc
   2329a:	31a4      	adds	r1, #164	@ 0xa4
   2329c:	2424      	movs	r4, #36	@ 0x24
   2329e:	4622      	mov	r2, r4
   232a0:	f005 f81d 	bl	282de <__aeabi_memcpy>
   232a4:	980e      	ldr	r0, [sp, #56]	@ 0x38
   232a6:	7030      	strb	r0, [r6, #0]
   232a8:	980c      	ldr	r0, [sp, #48]	@ 0x30
   232aa:	990f      	ldr	r1, [sp, #60]	@ 0x3c
   232ac:	6541      	str	r1, [r0, #84]	@ 0x54
   232ae:	3608      	adds	r6, #8
   232b0:	4630      	mov	r0, r6
   232b2:	9908      	ldr	r1, [sp, #32]
   232b4:	4622      	mov	r2, r4
   232b6:	f005 f812 	bl	282de <__aeabi_memcpy>
   232ba:	acff      	add	r4, sp, #1020	@ 0x3fc
   232bc:	34a4      	adds	r4, #164	@ 0xa4
   232be:	1c66      	adds	r6, r4, #1
   232c0:	211e      	movs	r1, #30
   232c2:	4630      	mov	r0, r6
   232c4:	f004 fe4b 	bl	27f5e <__aeabi_memclr>
   232c8:	980e      	ldr	r0, [sp, #56]	@ 0x38
   232ca:	7020      	strb	r0, [r4, #0]
   232cc:	980d      	ldr	r0, [sp, #52]	@ 0x34
   232ce:	9000      	str	r0, [sp, #0]
   232d0:	4807      	ldr	r0, [pc, #28]	@ (232f0 <_start+0x2cec>)
   232d2:	3064      	adds	r0, #100	@ 0x64
   232d4:	2107      	movs	r1, #7
   232d6:	232b      	movs	r3, #43	@ 0x2b
   232d8:	9008      	str	r0, [sp, #32]
   232da:	9a06      	ldr	r2, [sp, #24]
   232dc:	f7fc ffde 	bl	2029c <_ZN9allow_pin12dynamic_type11allow_inner17hf1099571477a6939E>
   232e0:	910f      	str	r1, [sp, #60]	@ 0x3c
   232e2:	07c0      	lsls	r0, r0, #31
   232e4:	d12a      	bne.n	2333c <_start+0x2d38>
   232e6:	e005      	b.n	232f4 <_start+0x2cf0>
   232e8:	000005a8 	.word	0x000005a8
   232ec:	00000558 	.word	0x00000558
   232f0:	0000077f 	.word	0x0000077f
   232f4:	4807      	ldr	r0, [pc, #28]	@ (23314 <_start+0x2d10>)
   232f6:	4468      	add	r0, sp
   232f8:	990d      	ldr	r1, [sp, #52]	@ 0x34
   232fa:	7001      	strb	r1, [r0, #0]
   232fc:	9805      	ldr	r0, [sp, #20]
   232fe:	9000      	str	r0, [sp, #0]
   23300:	2108      	movs	r1, #8
   23302:	231e      	movs	r3, #30
   23304:	9808      	ldr	r0, [sp, #32]
   23306:	4632      	mov	r2, r6
   23308:	f7fc ffc8 	bl	2029c <_ZN9allow_pin12dynamic_type11allow_inner17hf1099571477a6939E>
   2330c:	910f      	str	r1, [sp, #60]	@ 0x3c
   2330e:	07c0      	lsls	r0, r0, #31
   23310:	d114      	bne.n	2333c <_start+0x2d38>
   23312:	e001      	b.n	23318 <_start+0x2d14>
   23314:	000005a8 	.word	0x000005a8
   23318:	a8ff      	add	r0, sp, #1020	@ 0x3fc
   2331a:	30a4      	adds	r0, #164	@ 0xa4
   2331c:	9905      	ldr	r1, [sp, #20]
   2331e:	7001      	strb	r1, [r0, #0]
   23320:	4805      	ldr	r0, [pc, #20]	@ (23338 <_start+0x2d34>)
   23322:	2107      	movs	r1, #7
   23324:	2208      	movs	r2, #8
   23326:	2300      	movs	r3, #0
   23328:	461c      	mov	r4, r3
   2332a:	df02      	svc	2
   2332c:	910f      	str	r1, [sp, #60]	@ 0x3c
   2332e:	287f      	cmp	r0, #127	@ 0x7f
   23330:	d904      	bls.n	2333c <_start+0x2d38>
   23332:	f001 f837 	bl	243a4 <_start+0x3da0>
   23336:	46c0      	nop			@ (mov r8, r8)
   23338:	000007e3 	.word	0x000007e3
   2333c:	9c0b      	ldr	r4, [sp, #44]	@ 0x2c
   2333e:	a8ff      	add	r0, sp, #1020	@ 0x3fc
   23340:	30a4      	adds	r0, #164	@ 0xa4
   23342:	7802      	ldrb	r2, [r0, #0]
   23344:	2a02      	cmp	r2, #2
   23346:	d003      	beq.n	23350 <_start+0x2d4c>
   23348:	2108      	movs	r1, #8
   2334a:	9808      	ldr	r0, [sp, #32]
   2334c:	f004 fdfa 	bl	27f44 <_ZN9allow_pin12dynamic_type7unshare17ha4091652f9b609c4E>
   23350:	4802      	ldr	r0, [pc, #8]	@ (2335c <_start+0x2d58>)
   23352:	4468      	add	r0, sp
   23354:	7802      	ldrb	r2, [r0, #0]
   23356:	2a02      	cmp	r2, #2
   23358:	d006      	beq.n	23368 <_start+0x2d64>
   2335a:	e001      	b.n	23360 <_start+0x2d5c>
   2335c:	000005a8 	.word	0x000005a8
   23360:	2107      	movs	r1, #7
   23362:	9808      	ldr	r0, [sp, #32]
   23364:	f004 fdee 	bl	27f44 <_ZN9allow_pin12dynamic_type7unshare17ha4091652f9b609c4E>
   23368:	2c00      	cmp	r4, #0
   2336a:	d001      	beq.n	23370 <_start+0x2d6c>
   2336c:	f7fe fef2 	bl	22154 <_start+0x1b50>
   23370:	4e17      	ldr	r6, [pc, #92]	@ (233d0 <_start+0x2dcc>)
   23372:	446e      	add	r6, sp
   23374:	1c70      	adds	r0, r6, #1
   23376:	9008      	str	r0, [sp, #32]
   23378:	a9ff      	add	r1, sp, #1020	@ 0x3fc
   2337a:	318c      	adds	r1, #140	@ 0x8c
   2337c:	2203      	movs	r2, #3
   2337e:	9205      	str	r2, [sp, #20]
   23380:	f004 ffad 	bl	282de <__aeabi_memcpy>
   23384:	a89f      	add	r0, sp, #636	@ 0x27c
   23386:	9006      	str	r0, [sp, #24]
   23388:	a9c9      	add	r1, sp, #804	@ 0x324
   2338a:	2417      	movs	r4, #23
   2338c:	4622      	mov	r2, r4
   2338e:	f004 ffa6 	bl	282de <__aeabi_memcpy>
   23392:	4630      	mov	r0, r6
   23394:	3008      	adds	r0, #8
   23396:	9906      	ldr	r1, [sp, #24]
   23398:	4622      	mov	r2, r4
   2339a:	f004 ffa0 	bl	282de <__aeabi_memcpy>
   2339e:	9c0e      	ldr	r4, [sp, #56]	@ 0x38
   233a0:	7034      	strb	r4, [r6, #0]
   233a2:	980f      	ldr	r0, [sp, #60]	@ 0x3c
   233a4:	990a      	ldr	r1, [sp, #40]	@ 0x28
   233a6:	6008      	str	r0, [r1, #0]
   233a8:	4e0a      	ldr	r6, [pc, #40]	@ (233d4 <_start+0x2dd0>)
   233aa:	446e      	add	r6, sp
   233ac:	1c70      	adds	r0, r6, #1
   233ae:	2151      	movs	r1, #81	@ 0x51
   233b0:	9006      	str	r0, [sp, #24]
   233b2:	f004 fdd4 	bl	27f5e <__aeabi_memclr>
   233b6:	7034      	strb	r4, [r6, #0]
   233b8:	980d      	ldr	r0, [sp, #52]	@ 0x34
   233ba:	9000      	str	r0, [sp, #0]
   233bc:	231e      	movs	r3, #30
   233be:	4806      	ldr	r0, [pc, #24]	@ (233d8 <_start+0x2dd4>)
   233c0:	4621      	mov	r1, r4
   233c2:	9a08      	ldr	r2, [sp, #32]
   233c4:	f7fc ff6a 	bl	2029c <_ZN9allow_pin12dynamic_type11allow_inner17hf1099571477a6939E>
   233c8:	910f      	str	r1, [sp, #60]	@ 0x3c
   233ca:	07c0      	lsls	r0, r0, #31
   233cc:	d12e      	bne.n	2342c <_start+0x2e28>
   233ce:	e005      	b.n	233dc <_start+0x2dd8>
   233d0:	00000558 	.word	0x00000558
   233d4:	000005a8 	.word	0x000005a8
   233d8:	0000196b 	.word	0x0000196b
   233dc:	4807      	ldr	r0, [pc, #28]	@ (233fc <_start+0x2df8>)
   233de:	4468      	add	r0, sp
   233e0:	990d      	ldr	r1, [sp, #52]	@ 0x34
   233e2:	7001      	strb	r1, [r0, #0]
   233e4:	9805      	ldr	r0, [sp, #20]
   233e6:	9000      	str	r0, [sp, #0]
   233e8:	2100      	movs	r1, #0
   233ea:	2351      	movs	r3, #81	@ 0x51
   233ec:	4804      	ldr	r0, [pc, #16]	@ (23400 <_start+0x2dfc>)
   233ee:	9a06      	ldr	r2, [sp, #24]
   233f0:	f7fc ff54 	bl	2029c <_ZN9allow_pin12dynamic_type11allow_inner17hf1099571477a6939E>
   233f4:	910f      	str	r1, [sp, #60]	@ 0x3c
   233f6:	07c0      	lsls	r0, r0, #31
   233f8:	d118      	bne.n	2342c <_start+0x2e28>
   233fa:	e003      	b.n	23404 <_start+0x2e00>
   233fc:	00000558 	.word	0x00000558
   23400:	0000196b 	.word	0x0000196b
   23404:	4807      	ldr	r0, [pc, #28]	@ (23424 <_start+0x2e20>)
   23406:	4468      	add	r0, sp
   23408:	9905      	ldr	r1, [sp, #20]
   2340a:	7001      	strb	r1, [r0, #0]
   2340c:	4806      	ldr	r0, [pc, #24]	@ (23428 <_start+0x2e24>)
   2340e:	2602      	movs	r6, #2
   23410:	2400      	movs	r4, #0
   23412:	4631      	mov	r1, r6
   23414:	4622      	mov	r2, r4
   23416:	4623      	mov	r3, r4
   23418:	df02      	svc	2
   2341a:	910f      	str	r1, [sp, #60]	@ 0x3c
   2341c:	287f      	cmp	r0, #127	@ 0x7f
   2341e:	d905      	bls.n	2342c <_start+0x2e28>
   23420:	f000 ffef 	bl	24402 <_start+0x3dfe>
   23424:	000005a8 	.word	0x000005a8
   23428:	0000196b 	.word	0x0000196b
   2342c:	9c0b      	ldr	r4, [sp, #44]	@ 0x2c
   2342e:	4803      	ldr	r0, [pc, #12]	@ (2343c <_start+0x2e38>)
   23430:	4468      	add	r0, sp
   23432:	7802      	ldrb	r2, [r0, #0]
   23434:	2a02      	cmp	r2, #2
   23436:	d00b      	beq.n	23450 <_start+0x2e4c>
   23438:	e002      	b.n	23440 <_start+0x2e3c>
   2343a:	46c0      	nop			@ (mov r8, r8)
   2343c:	000005a8 	.word	0x000005a8
   23440:	2100      	movs	r1, #0
   23442:	4802      	ldr	r0, [pc, #8]	@ (2344c <_start+0x2e48>)
   23444:	f004 fd7e 	bl	27f44 <_ZN9allow_pin12dynamic_type7unshare17ha4091652f9b609c4E>
   23448:	e002      	b.n	23450 <_start+0x2e4c>
   2344a:	46c0      	nop			@ (mov r8, r8)
   2344c:	0000196b 	.word	0x0000196b
   23450:	4802      	ldr	r0, [pc, #8]	@ (2345c <_start+0x2e58>)
   23452:	4468      	add	r0, sp
   23454:	7802      	ldrb	r2, [r0, #0]
   23456:	2a02      	cmp	r2, #2
   23458:	d00a      	beq.n	23470 <_start+0x2e6c>
   2345a:	e001      	b.n	23460 <_start+0x2e5c>
   2345c:	00000558 	.word	0x00000558
   23460:	2102      	movs	r1, #2
   23462:	4802      	ldr	r0, [pc, #8]	@ (2346c <_start+0x2e68>)
   23464:	f004 fd6e 	bl	27f44 <_ZN9allow_pin12dynamic_type7unshare17ha4091652f9b609c4E>
   23468:	e002      	b.n	23470 <_start+0x2e6c>
   2346a:	46c0      	nop			@ (mov r8, r8)
   2346c:	0000196b 	.word	0x0000196b
   23470:	2c00      	cmp	r4, #0
   23472:	d001      	beq.n	23478 <_start+0x2e74>
   23474:	f7fe fe6e 	bl	22154 <_start+0x1b50>
   23478:	4c17      	ldr	r4, [pc, #92]	@ (234d8 <_start+0x2ed4>)
   2347a:	446c      	add	r4, sp
   2347c:	1c60      	adds	r0, r4, #1
   2347e:	9008      	str	r0, [sp, #32]
   23480:	a9c9      	add	r1, sp, #804	@ 0x324
   23482:	2203      	movs	r2, #3
   23484:	9205      	str	r2, [sp, #20]
   23486:	f004 ff2a 	bl	282de <__aeabi_memcpy>
   2348a:	a8ff      	add	r0, sp, #1020	@ 0x3fc
   2348c:	30a4      	adds	r0, #164	@ 0xa4
   2348e:	9006      	str	r0, [sp, #24]
   23490:	a99f      	add	r1, sp, #636	@ 0x27c
   23492:	264a      	movs	r6, #74	@ 0x4a
   23494:	4632      	mov	r2, r6
   23496:	f004 fdc2 	bl	2801e <__aeabi_memcpy4>
   2349a:	4620      	mov	r0, r4
   2349c:	3008      	adds	r0, #8
   2349e:	9906      	ldr	r1, [sp, #24]
   234a0:	4632      	mov	r2, r6
   234a2:	f004 fdbc 	bl	2801e <__aeabi_memcpy4>
   234a6:	9e0e      	ldr	r6, [sp, #56]	@ 0x38
   234a8:	7026      	strb	r6, [r4, #0]
   234aa:	980c      	ldr	r0, [sp, #48]	@ 0x30
   234ac:	990f      	ldr	r1, [sp, #60]	@ 0x3c
   234ae:	6541      	str	r1, [r0, #84]	@ 0x54
   234b0:	acff      	add	r4, sp, #1020	@ 0x3fc
   234b2:	34a4      	adds	r4, #164	@ 0xa4
   234b4:	1c60      	adds	r0, r4, #1
   234b6:	210f      	movs	r1, #15
   234b8:	9006      	str	r0, [sp, #24]
   234ba:	f004 fd50 	bl	27f5e <__aeabi_memclr>
   234be:	7026      	strb	r6, [r4, #0]
   234c0:	980d      	ldr	r0, [sp, #52]	@ 0x34
   234c2:	9000      	str	r0, [sp, #0]
   234c4:	4805      	ldr	r0, [pc, #20]	@ (234dc <_start+0x2ed8>)
   234c6:	2100      	movs	r1, #0
   234c8:	2351      	movs	r3, #81	@ 0x51
   234ca:	9a08      	ldr	r2, [sp, #32]
   234cc:	f7fc fee6 	bl	2029c <_ZN9allow_pin12dynamic_type11allow_inner17hf1099571477a6939E>
   234d0:	910f      	str	r1, [sp, #60]	@ 0x3c
   234d2:	07c0      	lsls	r0, r0, #31
   234d4:	d128      	bne.n	23528 <_start+0x2f24>
   234d6:	e003      	b.n	234e0 <_start+0x2edc>
   234d8:	000005a8 	.word	0x000005a8
   234dc:	000013bf 	.word	0x000013bf
   234e0:	4807      	ldr	r0, [pc, #28]	@ (23500 <_start+0x2efc>)
   234e2:	4468      	add	r0, sp
   234e4:	990d      	ldr	r1, [sp, #52]	@ 0x34
   234e6:	7001      	strb	r1, [r0, #0]
   234e8:	9905      	ldr	r1, [sp, #20]
   234ea:	9100      	str	r1, [sp, #0]
   234ec:	230f      	movs	r3, #15
   234ee:	4805      	ldr	r0, [pc, #20]	@ (23504 <_start+0x2f00>)
   234f0:	9a06      	ldr	r2, [sp, #24]
   234f2:	f7fc fed3 	bl	2029c <_ZN9allow_pin12dynamic_type11allow_inner17hf1099571477a6939E>
   234f6:	910f      	str	r1, [sp, #60]	@ 0x3c
   234f8:	07c0      	lsls	r0, r0, #31
   234fa:	d115      	bne.n	23528 <_start+0x2f24>
   234fc:	e004      	b.n	23508 <_start+0x2f04>
   234fe:	46c0      	nop			@ (mov r8, r8)
   23500:	000005a8 	.word	0x000005a8
   23504:	000013bf 	.word	0x000013bf
   23508:	a8ff      	add	r0, sp, #1020	@ 0x3fc
   2350a:	30a4      	adds	r0, #164	@ 0xa4
   2350c:	9a05      	ldr	r2, [sp, #20]
   2350e:	7002      	strb	r2, [r0, #0]
   23510:	4804      	ldr	r0, [pc, #16]	@ (23524 <_start+0x2f20>)
   23512:	2400      	movs	r4, #0
   23514:	4621      	mov	r1, r4
   23516:	4623      	mov	r3, r4
   23518:	df02      	svc	2
   2351a:	910f      	str	r1, [sp, #60]	@ 0x3c
   2351c:	287f      	cmp	r0, #127	@ 0x7f
   2351e:	d903      	bls.n	23528 <_start+0x2f24>
   23520:	f000 ff9c 	bl	2445c <_start+0x3e58>
   23524:	000013bf 	.word	0x000013bf
   23528:	9c0b      	ldr	r4, [sp, #44]	@ 0x2c
   2352a:	a8ff      	add	r0, sp, #1020	@ 0x3fc
   2352c:	30a4      	adds	r0, #164	@ 0xa4
   2352e:	7802      	ldrb	r2, [r0, #0]
   23530:	2a02      	cmp	r2, #2
   23532:	d007      	beq.n	23544 <_start+0x2f40>
   23534:	2103      	movs	r1, #3
   23536:	4802      	ldr	r0, [pc, #8]	@ (23540 <_start+0x2f3c>)
   23538:	f004 fd04 	bl	27f44 <_ZN9allow_pin12dynamic_type7unshare17ha4091652f9b609c4E>
   2353c:	e002      	b.n	23544 <_start+0x2f40>
   2353e:	46c0      	nop			@ (mov r8, r8)
   23540:	000013bf 	.word	0x000013bf
   23544:	4802      	ldr	r0, [pc, #8]	@ (23550 <_start+0x2f4c>)
   23546:	4468      	add	r0, sp
   23548:	7802      	ldrb	r2, [r0, #0]
   2354a:	2a02      	cmp	r2, #2
   2354c:	d00a      	beq.n	23564 <_start+0x2f60>
   2354e:	e001      	b.n	23554 <_start+0x2f50>
   23550:	000005a8 	.word	0x000005a8
   23554:	2100      	movs	r1, #0
   23556:	4802      	ldr	r0, [pc, #8]	@ (23560 <_start+0x2f5c>)
   23558:	f004 fcf4 	bl	27f44 <_ZN9allow_pin12dynamic_type7unshare17ha4091652f9b609c4E>
   2355c:	e002      	b.n	23564 <_start+0x2f60>
   2355e:	46c0      	nop			@ (mov r8, r8)
   23560:	000013bf 	.word	0x000013bf
   23564:	2c00      	cmp	r4, #0
   23566:	d001      	beq.n	2356c <_start+0x2f68>
   23568:	f7fe fdf4 	bl	22154 <_start+0x1b50>
   2356c:	4c1a      	ldr	r4, [pc, #104]	@ (235d8 <_start+0x2fd4>)
   2356e:	446c      	add	r4, sp
   23570:	1c60      	adds	r0, r4, #1
   23572:	9008      	str	r0, [sp, #32]
   23574:	a99f      	add	r1, sp, #636	@ 0x27c
   23576:	2203      	movs	r2, #3
   23578:	9206      	str	r2, [sp, #24]
   2357a:	f004 feb0 	bl	282de <__aeabi_memcpy>
   2357e:	0e30      	lsrs	r0, r6, #24
   23580:	73e0      	strb	r0, [r4, #15]
   23582:	0c30      	lsrs	r0, r6, #16
   23584:	73a0      	strb	r0, [r4, #14]
   23586:	0a30      	lsrs	r0, r6, #8
   23588:	7360      	strb	r0, [r4, #13]
   2358a:	7326      	strb	r6, [r4, #12]
   2358c:	9905      	ldr	r1, [sp, #20]
   2358e:	0e08      	lsrs	r0, r1, #24
   23590:	72e0      	strb	r0, [r4, #11]
   23592:	0c08      	lsrs	r0, r1, #16
   23594:	72a0      	strb	r0, [r4, #10]
   23596:	0a08      	lsrs	r0, r1, #8
   23598:	7260      	strb	r0, [r4, #9]
   2359a:	7221      	strb	r1, [r4, #8]
   2359c:	990f      	ldr	r1, [sp, #60]	@ 0x3c
   2359e:	0e08      	lsrs	r0, r1, #24
   235a0:	71e0      	strb	r0, [r4, #7]
   235a2:	0c08      	lsrs	r0, r1, #16
   235a4:	71a0      	strb	r0, [r4, #6]
   235a6:	0a08      	lsrs	r0, r1, #8
   235a8:	7160      	strb	r0, [r4, #5]
   235aa:	7121      	strb	r1, [r4, #4]
   235ac:	9e0e      	ldr	r6, [sp, #56]	@ 0x38
   235ae:	7026      	strb	r6, [r4, #0]
   235b0:	4c0a      	ldr	r4, [pc, #40]	@ (235dc <_start+0x2fd8>)
   235b2:	446c      	add	r4, sp
   235b4:	1c60      	adds	r0, r4, #1
   235b6:	2146      	movs	r1, #70	@ 0x46
   235b8:	9005      	str	r0, [sp, #20]
   235ba:	f004 fcd0 	bl	27f5e <__aeabi_memclr>
   235be:	7026      	strb	r6, [r4, #0]
   235c0:	980d      	ldr	r0, [sp, #52]	@ 0x34
   235c2:	9000      	str	r0, [sp, #0]
   235c4:	4806      	ldr	r0, [pc, #24]	@ (235e0 <_start+0x2fdc>)
   235c6:	2109      	movs	r1, #9
   235c8:	230f      	movs	r3, #15
   235ca:	9a08      	ldr	r2, [sp, #32]
   235cc:	f7fc fe66 	bl	2029c <_ZN9allow_pin12dynamic_type11allow_inner17hf1099571477a6939E>
   235d0:	910f      	str	r1, [sp, #60]	@ 0x3c
   235d2:	07c0      	lsls	r0, r0, #31
   235d4:	d12e      	bne.n	23634 <_start+0x3030>
   235d6:	e005      	b.n	235e4 <_start+0x2fe0>
   235d8:	00000558 	.word	0x00000558
   235dc:	000005a8 	.word	0x000005a8
   235e0:	00001d7e 	.word	0x00001d7e
   235e4:	4807      	ldr	r0, [pc, #28]	@ (23604 <_start+0x3000>)
   235e6:	4468      	add	r0, sp
   235e8:	990d      	ldr	r1, [sp, #52]	@ 0x34
   235ea:	7001      	strb	r1, [r0, #0]
   235ec:	9806      	ldr	r0, [sp, #24]
   235ee:	9000      	str	r0, [sp, #0]
   235f0:	2102      	movs	r1, #2
   235f2:	2346      	movs	r3, #70	@ 0x46
   235f4:	4804      	ldr	r0, [pc, #16]	@ (23608 <_start+0x3004>)
   235f6:	9a05      	ldr	r2, [sp, #20]
   235f8:	f7fc fe50 	bl	2029c <_ZN9allow_pin12dynamic_type11allow_inner17hf1099571477a6939E>
   235fc:	910f      	str	r1, [sp, #60]	@ 0x3c
   235fe:	07c0      	lsls	r0, r0, #31
   23600:	d118      	bne.n	23634 <_start+0x3030>
   23602:	e003      	b.n	2360c <_start+0x3008>
   23604:	00000558 	.word	0x00000558
   23608:	00001d7e 	.word	0x00001d7e
   2360c:	4807      	ldr	r0, [pc, #28]	@ (2362c <_start+0x3028>)
   2360e:	4468      	add	r0, sp
   23610:	9906      	ldr	r1, [sp, #24]
   23612:	7001      	strb	r1, [r0, #0]
   23614:	4806      	ldr	r0, [pc, #24]	@ (23630 <_start+0x302c>)
   23616:	2109      	movs	r1, #9
   23618:	2402      	movs	r4, #2
   2361a:	2600      	movs	r6, #0
   2361c:	4622      	mov	r2, r4
   2361e:	4633      	mov	r3, r6
   23620:	df02      	svc	2
   23622:	910f      	str	r1, [sp, #60]	@ 0x3c
   23624:	287f      	cmp	r0, #127	@ 0x7f
   23626:	d905      	bls.n	23634 <_start+0x3030>
   23628:	f000 ff45 	bl	244b6 <_start+0x3eb2>
   2362c:	000005a8 	.word	0x000005a8
   23630:	00001d7e 	.word	0x00001d7e
   23634:	9e0b      	ldr	r6, [sp, #44]	@ 0x2c
   23636:	4803      	ldr	r0, [pc, #12]	@ (23644 <_start+0x3040>)
   23638:	4468      	add	r0, sp
   2363a:	7802      	ldrb	r2, [r0, #0]
   2363c:	2a02      	cmp	r2, #2
   2363e:	d00b      	beq.n	23658 <_start+0x3054>
   23640:	e002      	b.n	23648 <_start+0x3044>
   23642:	46c0      	nop			@ (mov r8, r8)
   23644:	000005a8 	.word	0x000005a8
   23648:	2102      	movs	r1, #2
   2364a:	4802      	ldr	r0, [pc, #8]	@ (23654 <_start+0x3050>)
   2364c:	f004 fc7a 	bl	27f44 <_ZN9allow_pin12dynamic_type7unshare17ha4091652f9b609c4E>
   23650:	e002      	b.n	23658 <_start+0x3054>
   23652:	46c0      	nop			@ (mov r8, r8)
   23654:	00001d7e 	.word	0x00001d7e
   23658:	4802      	ldr	r0, [pc, #8]	@ (23664 <_start+0x3060>)
   2365a:	4468      	add	r0, sp
   2365c:	7802      	ldrb	r2, [r0, #0]
   2365e:	2a02      	cmp	r2, #2
   23660:	d00a      	beq.n	23678 <_start+0x3074>
   23662:	e001      	b.n	23668 <_start+0x3064>
   23664:	00000558 	.word	0x00000558
   23668:	2109      	movs	r1, #9
   2366a:	4802      	ldr	r0, [pc, #8]	@ (23674 <_start+0x3070>)
   2366c:	f004 fc6a 	bl	27f44 <_ZN9allow_pin12dynamic_type7unshare17ha4091652f9b609c4E>
   23670:	e002      	b.n	23678 <_start+0x3074>
   23672:	46c0      	nop			@ (mov r8, r8)
   23674:	00001d7e 	.word	0x00001d7e
   23678:	2e00      	cmp	r6, #0
   2367a:	d001      	beq.n	23680 <_start+0x307c>
   2367c:	f7fe fd6a 	bl	22154 <_start+0x1b50>
   23680:	4c18      	ldr	r4, [pc, #96]	@ (236e4 <_start+0x30e0>)
   23682:	446c      	add	r4, sp
   23684:	1c60      	adds	r0, r4, #1
   23686:	9008      	str	r0, [sp, #32]
   23688:	a9c9      	add	r1, sp, #804	@ 0x324
   2368a:	2203      	movs	r2, #3
   2368c:	9205      	str	r2, [sp, #20]
   2368e:	f004 fe26 	bl	282de <__aeabi_memcpy>
   23692:	a8ff      	add	r0, sp, #1020	@ 0x3fc
   23694:	30a4      	adds	r0, #164	@ 0xa4
   23696:	9006      	str	r0, [sp, #24]
   23698:	a99f      	add	r1, sp, #636	@ 0x27c
   2369a:	263f      	movs	r6, #63	@ 0x3f
   2369c:	4632      	mov	r2, r6
   2369e:	f004 fe1e 	bl	282de <__aeabi_memcpy>
   236a2:	4620      	mov	r0, r4
   236a4:	3008      	adds	r0, #8
   236a6:	9906      	ldr	r1, [sp, #24]
   236a8:	4632      	mov	r2, r6
   236aa:	f004 fe18 	bl	282de <__aeabi_memcpy>
   236ae:	9e0e      	ldr	r6, [sp, #56]	@ 0x38
   236b0:	7026      	strb	r6, [r4, #0]
   236b2:	980f      	ldr	r0, [sp, #60]	@ 0x3c
   236b4:	990a      	ldr	r1, [sp, #40]	@ 0x28
   236b6:	6008      	str	r0, [r1, #0]
   236b8:	4c0b      	ldr	r4, [pc, #44]	@ (236e8 <_start+0x30e4>)
   236ba:	446c      	add	r4, sp
   236bc:	1c60      	adds	r0, r4, #1
   236be:	2156      	movs	r1, #86	@ 0x56
   236c0:	900a      	str	r0, [sp, #40]	@ 0x28
   236c2:	f004 fc4c 	bl	27f5e <__aeabi_memclr>
   236c6:	7026      	strb	r6, [r4, #0]
   236c8:	980d      	ldr	r0, [sp, #52]	@ 0x34
   236ca:	9000      	str	r0, [sp, #0]
   236cc:	4807      	ldr	r0, [pc, #28]	@ (236ec <_start+0x30e8>)
   236ce:	1d44      	adds	r4, r0, #5
   236d0:	2107      	movs	r1, #7
   236d2:	2346      	movs	r3, #70	@ 0x46
   236d4:	4620      	mov	r0, r4
   236d6:	9a08      	ldr	r2, [sp, #32]
   236d8:	f7fc fde0 	bl	2029c <_ZN9allow_pin12dynamic_type11allow_inner17hf1099571477a6939E>
   236dc:	910f      	str	r1, [sp, #60]	@ 0x3c
   236de:	07c0      	lsls	r0, r0, #31
   236e0:	d12a      	bne.n	23738 <_start+0x3134>
   236e2:	e005      	b.n	236f0 <_start+0x30ec>
   236e4:	00000558 	.word	0x00000558
   236e8:	000005a8 	.word	0x000005a8
   236ec:	00001e4b 	.word	0x00001e4b
   236f0:	4807      	ldr	r0, [pc, #28]	@ (23710 <_start+0x310c>)
   236f2:	4468      	add	r0, sp
   236f4:	990d      	ldr	r1, [sp, #52]	@ 0x34
   236f6:	7001      	strb	r1, [r0, #0]
   236f8:	9905      	ldr	r1, [sp, #20]
   236fa:	9100      	str	r1, [sp, #0]
   236fc:	2356      	movs	r3, #86	@ 0x56
   236fe:	4620      	mov	r0, r4
   23700:	9a0a      	ldr	r2, [sp, #40]	@ 0x28
   23702:	f7fc fdcb 	bl	2029c <_ZN9allow_pin12dynamic_type11allow_inner17hf1099571477a6939E>
   23706:	910f      	str	r1, [sp, #60]	@ 0x3c
   23708:	07c0      	lsls	r0, r0, #31
   2370a:	d115      	bne.n	23738 <_start+0x3134>
   2370c:	e002      	b.n	23714 <_start+0x3110>
   2370e:	46c0      	nop			@ (mov r8, r8)
   23710:	00000558 	.word	0x00000558
   23714:	4806      	ldr	r0, [pc, #24]	@ (23730 <_start+0x312c>)
   23716:	4468      	add	r0, sp
   23718:	9a05      	ldr	r2, [sp, #20]
   2371a:	7002      	strb	r2, [r0, #0]
   2371c:	4805      	ldr	r0, [pc, #20]	@ (23734 <_start+0x3130>)
   2371e:	2107      	movs	r1, #7
   23720:	2600      	movs	r6, #0
   23722:	4633      	mov	r3, r6
   23724:	df02      	svc	2
   23726:	910f      	str	r1, [sp, #60]	@ 0x3c
   23728:	287f      	cmp	r0, #127	@ 0x7f
   2372a:	d905      	bls.n	23738 <_start+0x3134>
   2372c:	f000 fef0 	bl	24510 <_start+0x3f0c>
   23730:	000005a8 	.word	0x000005a8
   23734:	00001e50 	.word	0x00001e50
   23738:	9e0b      	ldr	r6, [sp, #44]	@ 0x2c
   2373a:	4803      	ldr	r0, [pc, #12]	@ (23748 <_start+0x3144>)
   2373c:	4468      	add	r0, sp
   2373e:	7802      	ldrb	r2, [r0, #0]
   23740:	2a02      	cmp	r2, #2
   23742:	d007      	beq.n	23754 <_start+0x3150>
   23744:	e002      	b.n	2374c <_start+0x3148>
   23746:	46c0      	nop			@ (mov r8, r8)
   23748:	000005a8 	.word	0x000005a8
   2374c:	2103      	movs	r1, #3
   2374e:	4620      	mov	r0, r4
   23750:	f004 fbf8 	bl	27f44 <_ZN9allow_pin12dynamic_type7unshare17ha4091652f9b609c4E>
   23754:	4802      	ldr	r0, [pc, #8]	@ (23760 <_start+0x315c>)
   23756:	4468      	add	r0, sp
   23758:	7802      	ldrb	r2, [r0, #0]
   2375a:	2a02      	cmp	r2, #2
   2375c:	d006      	beq.n	2376c <_start+0x3168>
   2375e:	e001      	b.n	23764 <_start+0x3160>
   23760:	00000558 	.word	0x00000558
   23764:	2107      	movs	r1, #7
   23766:	4620      	mov	r0, r4
   23768:	f004 fbec 	bl	27f44 <_ZN9allow_pin12dynamic_type7unshare17ha4091652f9b609c4E>
   2376c:	2e00      	cmp	r6, #0
   2376e:	d001      	beq.n	23774 <_start+0x3170>
   23770:	f7fe fcf0 	bl	22154 <_start+0x1b50>
   23774:	4c16      	ldr	r4, [pc, #88]	@ (237d0 <_start+0x31cc>)
   23776:	446c      	add	r4, sp
   23778:	1c60      	adds	r0, r4, #1
   2377a:	a9c9      	add	r1, sp, #804	@ 0x324
   2377c:	2203      	movs	r2, #3
   2377e:	f004 fdae 	bl	282de <__aeabi_memcpy>
   23782:	a8ff      	add	r0, sp, #1020	@ 0x3fc
   23784:	30a4      	adds	r0, #164	@ 0xa4
   23786:	900a      	str	r0, [sp, #40]	@ 0x28
   23788:	a99f      	add	r1, sp, #636	@ 0x27c
   2378a:	264f      	movs	r6, #79	@ 0x4f
   2378c:	4632      	mov	r2, r6
   2378e:	f004 fc46 	bl	2801e <__aeabi_memcpy4>
   23792:	940d      	str	r4, [sp, #52]	@ 0x34
   23794:	4620      	mov	r0, r4
   23796:	3008      	adds	r0, #8
   23798:	990a      	ldr	r1, [sp, #40]	@ 0x28
   2379a:	4632      	mov	r2, r6
   2379c:	f004 fc3f 	bl	2801e <__aeabi_memcpy4>
   237a0:	9e0e      	ldr	r6, [sp, #56]	@ 0x38
   237a2:	7026      	strb	r6, [r4, #0]
   237a4:	980c      	ldr	r0, [sp, #48]	@ 0x30
   237a6:	990f      	ldr	r1, [sp, #60]	@ 0x3c
   237a8:	6541      	str	r1, [r0, #84]	@ 0x54
   237aa:	acff      	add	r4, sp, #1020	@ 0x3fc
   237ac:	34a4      	adds	r4, #164	@ 0xa4
   237ae:	1c60      	adds	r0, r4, #1
   237b0:	2149      	movs	r1, #73	@ 0x49
   237b2:	900a      	str	r0, [sp, #40]	@ 0x28
   237b4:	f004 fbd3 	bl	27f5e <__aeabi_memclr>
   237b8:	7026      	strb	r6, [r4, #0]
   237ba:	2156      	movs	r1, #86	@ 0x56
   237bc:	2204      	movs	r2, #4
   237be:	980d      	ldr	r0, [sp, #52]	@ 0x34
   237c0:	920d      	str	r2, [sp, #52]	@ 0x34
   237c2:	f7fc fe65 	bl	20490 <_ZN9allow_pin12dynamic_type23Buffer$LT$B$C$_$C$_$GT$5allow17hf78d70ad2ce32bc4E>
   237c6:	910f      	str	r1, [sp, #60]	@ 0x3c
   237c8:	07c0      	lsls	r0, r0, #31
   237ca:	d119      	bne.n	23800 <_start+0x31fc>
   237cc:	e002      	b.n	237d4 <_start+0x31d0>
   237ce:	46c0      	nop			@ (mov r8, r8)
   237d0:	000005a8 	.word	0x000005a8
   237d4:	a8ff      	add	r0, sp, #1020	@ 0x3fc
   237d6:	30a4      	adds	r0, #164	@ 0xa4
   237d8:	2149      	movs	r1, #73	@ 0x49
   237da:	2203      	movs	r2, #3
   237dc:	f7fc fe58 	bl	20490 <_ZN9allow_pin12dynamic_type23Buffer$LT$B$C$_$C$_$GT$5allow17hf78d70ad2ce32bc4E>
   237e0:	910f      	str	r1, [sp, #60]	@ 0x3c
   237e2:	07c0      	lsls	r0, r0, #31
   237e4:	d10c      	bne.n	23800 <_start+0x31fc>
   237e6:	4805      	ldr	r0, [pc, #20]	@ (237fc <_start+0x31f8>)
   237e8:	2106      	movs	r1, #6
   237ea:	2400      	movs	r4, #0
   237ec:	460a      	mov	r2, r1
   237ee:	4623      	mov	r3, r4
   237f0:	df02      	svc	2
   237f2:	910f      	str	r1, [sp, #60]	@ 0x3c
   237f4:	287f      	cmp	r0, #127	@ 0x7f
   237f6:	d903      	bls.n	23800 <_start+0x31fc>
   237f8:	f000 feb9 	bl	2456e <_start+0x3f6a>
   237fc:	00001c6b 	.word	0x00001c6b
   23800:	9c0b      	ldr	r4, [sp, #44]	@ 0x2c
   23802:	a8ff      	add	r0, sp, #1020	@ 0x3fc
   23804:	30a4      	adds	r0, #164	@ 0xa4
   23806:	7802      	ldrb	r2, [r0, #0]
   23808:	2a02      	cmp	r2, #2
   2380a:	d007      	beq.n	2381c <_start+0x3218>
   2380c:	4802      	ldr	r0, [pc, #8]	@ (23818 <_start+0x3214>)
   2380e:	3095      	adds	r0, #149	@ 0x95
   23810:	2106      	movs	r1, #6
   23812:	f004 fb97 	bl	27f44 <_ZN9allow_pin12dynamic_type7unshare17ha4091652f9b609c4E>
   23816:	e001      	b.n	2381c <_start+0x3218>
   23818:	00001bd6 	.word	0x00001bd6
   2381c:	4802      	ldr	r0, [pc, #8]	@ (23828 <_start+0x3224>)
   2381e:	4468      	add	r0, sp
   23820:	7802      	ldrb	r2, [r0, #0]
   23822:	2a02      	cmp	r2, #2
   23824:	d00a      	beq.n	2383c <_start+0x3238>
   23826:	e001      	b.n	2382c <_start+0x3228>
   23828:	000005a8 	.word	0x000005a8
   2382c:	4802      	ldr	r0, [pc, #8]	@ (23838 <_start+0x3234>)
   2382e:	3095      	adds	r0, #149	@ 0x95
   23830:	2106      	movs	r1, #6
   23832:	f004 fb87 	bl	27f44 <_ZN9allow_pin12dynamic_type7unshare17ha4091652f9b609c4E>
   23836:	e001      	b.n	2383c <_start+0x3238>
   23838:	00001bd6 	.word	0x00001bd6
   2383c:	2c00      	cmp	r4, #0
   2383e:	d001      	beq.n	23844 <_start+0x3240>
   23840:	f7fe fc88 	bl	22154 <_start+0x1b50>
   23844:	4c18      	ldr	r4, [pc, #96]	@ (238a8 <_start+0x32a4>)
   23846:	446c      	add	r4, sp
   23848:	1c60      	adds	r0, r4, #1
   2384a:	900a      	str	r0, [sp, #40]	@ 0x28
   2384c:	a9c9      	add	r1, sp, #804	@ 0x324
   2384e:	2203      	movs	r2, #3
   23850:	9206      	str	r2, [sp, #24]
   23852:	f004 fd44 	bl	282de <__aeabi_memcpy>
   23856:	a89f      	add	r0, sp, #636	@ 0x27c
   23858:	9008      	str	r0, [sp, #32]
   2385a:	4914      	ldr	r1, [pc, #80]	@ (238ac <_start+0x32a8>)
   2385c:	4469      	add	r1, sp
   2385e:	2642      	movs	r6, #66	@ 0x42
   23860:	4632      	mov	r2, r6
   23862:	f004 fbdc 	bl	2801e <__aeabi_memcpy4>
   23866:	4620      	mov	r0, r4
   23868:	3008      	adds	r0, #8
   2386a:	9908      	ldr	r1, [sp, #32]
   2386c:	4632      	mov	r2, r6
   2386e:	f004 fbd6 	bl	2801e <__aeabi_memcpy4>
   23872:	9e0e      	ldr	r6, [sp, #56]	@ 0x38
   23874:	7026      	strb	r6, [r4, #0]
   23876:	980c      	ldr	r0, [sp, #48]	@ 0x30
   23878:	990f      	ldr	r1, [sp, #60]	@ 0x3c
   2387a:	6541      	str	r1, [r0, #84]	@ 0x54
   2387c:	acff      	add	r4, sp, #1020	@ 0x3fc
   2387e:	34a4      	adds	r4, #164	@ 0xa4
   23880:	1c60      	adds	r0, r4, #1
   23882:	2123      	movs	r1, #35	@ 0x23
   23884:	9008      	str	r0, [sp, #32]
   23886:	f004 fb6a 	bl	27f5e <__aeabi_memclr>
   2388a:	7026      	strb	r6, [r4, #0]
   2388c:	980d      	ldr	r0, [sp, #52]	@ 0x34
   2388e:	9000      	str	r0, [sp, #0]
   23890:	4c07      	ldr	r4, [pc, #28]	@ (238b0 <_start+0x32ac>)
   23892:	347a      	adds	r4, #122	@ 0x7a
   23894:	2107      	movs	r1, #7
   23896:	2349      	movs	r3, #73	@ 0x49
   23898:	4620      	mov	r0, r4
   2389a:	9a0a      	ldr	r2, [sp, #40]	@ 0x28
   2389c:	f7fc fcfe 	bl	2029c <_ZN9allow_pin12dynamic_type11allow_inner17hf1099571477a6939E>
   238a0:	910f      	str	r1, [sp, #60]	@ 0x3c
   238a2:	07c0      	lsls	r0, r0, #31
   238a4:	d12a      	bne.n	238fc <_start+0x32f8>
   238a6:	e005      	b.n	238b4 <_start+0x32b0>
   238a8:	000005a8 	.word	0x000005a8
   238ac:	00000558 	.word	0x00000558
   238b0:	000014d7 	.word	0x000014d7
   238b4:	4807      	ldr	r0, [pc, #28]	@ (238d4 <_start+0x32d0>)
   238b6:	4468      	add	r0, sp
   238b8:	990d      	ldr	r1, [sp, #52]	@ 0x34
   238ba:	7001      	strb	r1, [r0, #0]
   238bc:	9806      	ldr	r0, [sp, #24]
   238be:	9000      	str	r0, [sp, #0]
   238c0:	2101      	movs	r1, #1
   238c2:	2323      	movs	r3, #35	@ 0x23
   238c4:	4620      	mov	r0, r4
   238c6:	9a08      	ldr	r2, [sp, #32]
   238c8:	f7fc fce8 	bl	2029c <_ZN9allow_pin12dynamic_type11allow_inner17hf1099571477a6939E>
   238cc:	910f      	str	r1, [sp, #60]	@ 0x3c
   238ce:	07c0      	lsls	r0, r0, #31
   238d0:	d114      	bne.n	238fc <_start+0x32f8>
   238d2:	e001      	b.n	238d8 <_start+0x32d4>
   238d4:	000005a8 	.word	0x000005a8
   238d8:	a8ff      	add	r0, sp, #1020	@ 0x3fc
   238da:	30a4      	adds	r0, #164	@ 0xa4
   238dc:	9906      	ldr	r1, [sp, #24]
   238de:	7001      	strb	r1, [r0, #0]
   238e0:	4805      	ldr	r0, [pc, #20]	@ (238f8 <_start+0x32f4>)
   238e2:	2107      	movs	r1, #7
   238e4:	2201      	movs	r2, #1
   238e6:	2600      	movs	r6, #0
   238e8:	4633      	mov	r3, r6
   238ea:	df02      	svc	2
   238ec:	910f      	str	r1, [sp, #60]	@ 0x3c
   238ee:	287f      	cmp	r0, #127	@ 0x7f
   238f0:	d904      	bls.n	238fc <_start+0x32f8>
   238f2:	f000 fe52 	bl	2459a <_start+0x3f96>
   238f6:	46c0      	nop			@ (mov r8, r8)
   238f8:	00001551 	.word	0x00001551
   238fc:	9e0b      	ldr	r6, [sp, #44]	@ 0x2c
   238fe:	a8ff      	add	r0, sp, #1020	@ 0x3fc
   23900:	30a4      	adds	r0, #164	@ 0xa4
   23902:	7802      	ldrb	r2, [r0, #0]
   23904:	2a02      	cmp	r2, #2
   23906:	d003      	beq.n	23910 <_start+0x330c>
   23908:	2101      	movs	r1, #1
   2390a:	4620      	mov	r0, r4
   2390c:	f004 fb1a 	bl	27f44 <_ZN9allow_pin12dynamic_type7unshare17ha4091652f9b609c4E>
   23910:	4802      	ldr	r0, [pc, #8]	@ (2391c <_start+0x3318>)
   23912:	4468      	add	r0, sp
   23914:	7802      	ldrb	r2, [r0, #0]
   23916:	2a02      	cmp	r2, #2
   23918:	d006      	beq.n	23928 <_start+0x3324>
   2391a:	e001      	b.n	23920 <_start+0x331c>
   2391c:	000005a8 	.word	0x000005a8
   23920:	2107      	movs	r1, #7
   23922:	4620      	mov	r0, r4
   23924:	f004 fb0e 	bl	27f44 <_ZN9allow_pin12dynamic_type7unshare17ha4091652f9b609c4E>
   23928:	2e00      	cmp	r6, #0
   2392a:	d001      	beq.n	23930 <_start+0x332c>
   2392c:	f7fe fc12 	bl	22154 <_start+0x1b50>
   23930:	acff      	add	r4, sp, #1020	@ 0x3fc
   23932:	34a4      	adds	r4, #164	@ 0xa4
   23934:	1c60      	adds	r0, r4, #1
   23936:	900a      	str	r0, [sp, #40]	@ 0x28
   23938:	4915      	ldr	r1, [pc, #84]	@ (23990 <_start+0x338c>)
   2393a:	4469      	add	r1, sp
   2393c:	2203      	movs	r2, #3
   2393e:	9206      	str	r2, [sp, #24]
   23940:	f004 fccd 	bl	282de <__aeabi_memcpy>
   23944:	a862      	add	r0, sp, #392	@ 0x188
   23946:	9008      	str	r0, [sp, #32]
   23948:	a99f      	add	r1, sp, #636	@ 0x27c
   2394a:	261c      	movs	r6, #28
   2394c:	4632      	mov	r2, r6
   2394e:	f004 fcc6 	bl	282de <__aeabi_memcpy>
   23952:	980e      	ldr	r0, [sp, #56]	@ 0x38
   23954:	7020      	strb	r0, [r4, #0]
   23956:	9809      	ldr	r0, [sp, #36]	@ 0x24
   23958:	990f      	ldr	r1, [sp, #60]	@ 0x3c
   2395a:	6001      	str	r1, [r0, #0]
   2395c:	3408      	adds	r4, #8
   2395e:	4620      	mov	r0, r4
   23960:	9908      	ldr	r1, [sp, #32]
   23962:	4632      	mov	r2, r6
   23964:	f004 fcbb 	bl	282de <__aeabi_memcpy>
   23968:	4e0a      	ldr	r6, [pc, #40]	@ (23994 <_start+0x3390>)
   2396a:	446e      	add	r6, sp
   2396c:	1c74      	adds	r4, r6, #1
   2396e:	212b      	movs	r1, #43	@ 0x2b
   23970:	4620      	mov	r0, r4
   23972:	f004 faf4 	bl	27f5e <__aeabi_memclr>
   23976:	990e      	ldr	r1, [sp, #56]	@ 0x38
   23978:	7031      	strb	r1, [r6, #0]
   2397a:	980d      	ldr	r0, [sp, #52]	@ 0x34
   2397c:	9000      	str	r0, [sp, #0]
   2397e:	2323      	movs	r3, #35	@ 0x23
   23980:	4805      	ldr	r0, [pc, #20]	@ (23998 <_start+0x3394>)
   23982:	9a0a      	ldr	r2, [sp, #40]	@ 0x28
   23984:	f7fc fc8a 	bl	2029c <_ZN9allow_pin12dynamic_type11allow_inner17hf1099571477a6939E>
   23988:	910f      	str	r1, [sp, #60]	@ 0x3c
   2398a:	07c0      	lsls	r0, r0, #31
   2398c:	d12d      	bne.n	239ea <_start+0x33e6>
   2398e:	e005      	b.n	2399c <_start+0x3398>
   23990:	00000558 	.word	0x00000558
   23994:	000005a8 	.word	0x000005a8
   23998:	00000d5d 	.word	0x00000d5d
   2399c:	a8ff      	add	r0, sp, #1020	@ 0x3fc
   2399e:	30a4      	adds	r0, #164	@ 0xa4
   239a0:	990d      	ldr	r1, [sp, #52]	@ 0x34
   239a2:	7001      	strb	r1, [r0, #0]
   239a4:	9806      	ldr	r0, [sp, #24]
   239a6:	9000      	str	r0, [sp, #0]
   239a8:	2100      	movs	r1, #0
   239aa:	232b      	movs	r3, #43	@ 0x2b
   239ac:	4803      	ldr	r0, [pc, #12]	@ (239bc <_start+0x33b8>)
   239ae:	4622      	mov	r2, r4
   239b0:	f7fc fc74 	bl	2029c <_ZN9allow_pin12dynamic_type11allow_inner17hf1099571477a6939E>
   239b4:	910f      	str	r1, [sp, #60]	@ 0x3c
   239b6:	07c0      	lsls	r0, r0, #31
   239b8:	d117      	bne.n	239ea <_start+0x33e6>
   239ba:	e001      	b.n	239c0 <_start+0x33bc>
   239bc:	00000d5d 	.word	0x00000d5d
   239c0:	4804      	ldr	r0, [pc, #16]	@ (239d4 <_start+0x33d0>)
   239c2:	4468      	add	r0, sp
   239c4:	9906      	ldr	r1, [sp, #24]
   239c6:	7001      	strb	r1, [r0, #0]
   239c8:	4803      	ldr	r0, [pc, #12]	@ (239d8 <_start+0x33d4>)
   239ca:	2102      	movs	r1, #2
   239cc:	2600      	movs	r6, #0
   239ce:	910a      	str	r1, [sp, #40]	@ 0x28
   239d0:	4632      	mov	r2, r6
   239d2:	e003      	b.n	239dc <_start+0x33d8>
   239d4:	000005a8 	.word	0x000005a8
   239d8:	00000d5d 	.word	0x00000d5d
   239dc:	4633      	mov	r3, r6
   239de:	df02      	svc	2
   239e0:	910f      	str	r1, [sp, #60]	@ 0x3c
   239e2:	287f      	cmp	r0, #127	@ 0x7f
   239e4:	d901      	bls.n	239ea <_start+0x33e6>
   239e6:	f000 fe2b 	bl	24640 <_start+0x403c>
   239ea:	9e0b      	ldr	r6, [sp, #44]	@ 0x2c
   239ec:	4802      	ldr	r0, [pc, #8]	@ (239f8 <_start+0x33f4>)
   239ee:	4468      	add	r0, sp
   239f0:	7802      	ldrb	r2, [r0, #0]
   239f2:	2a02      	cmp	r2, #2
   239f4:	d006      	beq.n	23a04 <_start+0x3400>
   239f6:	e001      	b.n	239fc <_start+0x33f8>
   239f8:	000005a8 	.word	0x000005a8
   239fc:	2100      	movs	r1, #0
   239fe:	48f9      	ldr	r0, [pc, #996]	@ (23de4 <_start+0x37e0>)
   23a00:	f004 faa0 	bl	27f44 <_ZN9allow_pin12dynamic_type7unshare17ha4091652f9b609c4E>
   23a04:	a8ff      	add	r0, sp, #1020	@ 0x3fc
   23a06:	30a4      	adds	r0, #164	@ 0xa4
   23a08:	7802      	ldrb	r2, [r0, #0]
   23a0a:	2a02      	cmp	r2, #2
   23a0c:	d003      	beq.n	23a16 <_start+0x3412>
   23a0e:	2102      	movs	r1, #2
   23a10:	48f4      	ldr	r0, [pc, #976]	@ (23de4 <_start+0x37e0>)
   23a12:	f004 fa97 	bl	27f44 <_ZN9allow_pin12dynamic_type7unshare17ha4091652f9b609c4E>
   23a16:	2e00      	cmp	r6, #0
   23a18:	d001      	beq.n	23a1e <_start+0x341a>
   23a1a:	f7fe fb9b 	bl	22154 <_start+0x1b50>
   23a1e:	4cf0      	ldr	r4, [pc, #960]	@ (23de0 <_start+0x37dc>)
   23a20:	446c      	add	r4, sp
   23a22:	1c60      	adds	r0, r4, #1
   23a24:	900a      	str	r0, [sp, #40]	@ 0x28
   23a26:	49f0      	ldr	r1, [pc, #960]	@ (23de8 <_start+0x37e4>)
   23a28:	4469      	add	r1, sp
   23a2a:	2203      	movs	r2, #3
   23a2c:	9206      	str	r2, [sp, #24]
   23a2e:	f004 fc56 	bl	282de <__aeabi_memcpy>
   23a32:	a869      	add	r0, sp, #420	@ 0x1a4
   23a34:	9008      	str	r0, [sp, #32]
   23a36:	a99f      	add	r1, sp, #636	@ 0x27c
   23a38:	2624      	movs	r6, #36	@ 0x24
   23a3a:	4632      	mov	r2, r6
   23a3c:	f004 fc4f 	bl	282de <__aeabi_memcpy>
   23a40:	980e      	ldr	r0, [sp, #56]	@ 0x38
   23a42:	7020      	strb	r0, [r4, #0]
   23a44:	980c      	ldr	r0, [sp, #48]	@ 0x30
   23a46:	990f      	ldr	r1, [sp, #60]	@ 0x3c
   23a48:	6541      	str	r1, [r0, #84]	@ 0x54
   23a4a:	3408      	adds	r4, #8
   23a4c:	4620      	mov	r0, r4
   23a4e:	9908      	ldr	r1, [sp, #32]
   23a50:	4632      	mov	r2, r6
   23a52:	f004 fc44 	bl	282de <__aeabi_memcpy>
   23a56:	acff      	add	r4, sp, #1020	@ 0x3fc
   23a58:	34a4      	adds	r4, #164	@ 0xa4
   23a5a:	1c66      	adds	r6, r4, #1
   23a5c:	210d      	movs	r1, #13
   23a5e:	4630      	mov	r0, r6
   23a60:	f004 fa7d 	bl	27f5e <__aeabi_memclr>
   23a64:	980e      	ldr	r0, [sp, #56]	@ 0x38
   23a66:	7020      	strb	r0, [r4, #0]
   23a68:	980d      	ldr	r0, [sp, #52]	@ 0x34
   23a6a:	9000      	str	r0, [sp, #0]
   23a6c:	4cdf      	ldr	r4, [pc, #892]	@ (23dec <_start+0x37e8>)
   23a6e:	34a6      	adds	r4, #166	@ 0xa6
   23a70:	2106      	movs	r1, #6
   23a72:	232b      	movs	r3, #43	@ 0x2b
   23a74:	4620      	mov	r0, r4
   23a76:	9a0a      	ldr	r2, [sp, #40]	@ 0x28
   23a78:	f7fc fc10 	bl	2029c <_ZN9allow_pin12dynamic_type11allow_inner17hf1099571477a6939E>
   23a7c:	910f      	str	r1, [sp, #60]	@ 0x3c
   23a7e:	07c0      	lsls	r0, r0, #31
   23a80:	d11d      	bne.n	23abe <_start+0x34ba>
   23a82:	48d7      	ldr	r0, [pc, #860]	@ (23de0 <_start+0x37dc>)
   23a84:	4468      	add	r0, sp
   23a86:	990d      	ldr	r1, [sp, #52]	@ 0x34
   23a88:	7001      	strb	r1, [r0, #0]
   23a8a:	9806      	ldr	r0, [sp, #24]
   23a8c:	9000      	str	r0, [sp, #0]
   23a8e:	2100      	movs	r1, #0
   23a90:	230d      	movs	r3, #13
   23a92:	4620      	mov	r0, r4
   23a94:	4632      	mov	r2, r6
   23a96:	f7fc fc01 	bl	2029c <_ZN9allow_pin12dynamic_type11allow_inner17hf1099571477a6939E>
   23a9a:	910f      	str	r1, [sp, #60]	@ 0x3c
   23a9c:	07c0      	lsls	r0, r0, #31
   23a9e:	d10e      	bne.n	23abe <_start+0x34ba>
   23aa0:	a8ff      	add	r0, sp, #1020	@ 0x3fc
   23aa2:	30a4      	adds	r0, #164	@ 0xa4
   23aa4:	9906      	ldr	r1, [sp, #24]
   23aa6:	7001      	strb	r1, [r0, #0]
   23aa8:	48d1      	ldr	r0, [pc, #836]	@ (23df0 <_start+0x37ec>)
   23aaa:	2106      	movs	r1, #6
   23aac:	2200      	movs	r2, #0
   23aae:	920d      	str	r2, [sp, #52]	@ 0x34
   23ab0:	4613      	mov	r3, r2
   23ab2:	df02      	svc	2
   23ab4:	910f      	str	r1, [sp, #60]	@ 0x3c
   23ab6:	287f      	cmp	r0, #127	@ 0x7f
   23ab8:	d901      	bls.n	23abe <_start+0x34ba>
   23aba:	f000 fdf0 	bl	2469e <_start+0x409a>
   23abe:	980b      	ldr	r0, [sp, #44]	@ 0x2c
   23ac0:	900d      	str	r0, [sp, #52]	@ 0x34
   23ac2:	a8ff      	add	r0, sp, #1020	@ 0x3fc
   23ac4:	30a4      	adds	r0, #164	@ 0xa4
   23ac6:	7802      	ldrb	r2, [r0, #0]
   23ac8:	2a02      	cmp	r2, #2
   23aca:	d003      	beq.n	23ad4 <_start+0x34d0>
   23acc:	2100      	movs	r1, #0
   23ace:	4620      	mov	r0, r4
   23ad0:	f004 fa38 	bl	27f44 <_ZN9allow_pin12dynamic_type7unshare17ha4091652f9b609c4E>
   23ad4:	48c2      	ldr	r0, [pc, #776]	@ (23de0 <_start+0x37dc>)
   23ad6:	4468      	add	r0, sp
   23ad8:	7802      	ldrb	r2, [r0, #0]
   23ada:	2a02      	cmp	r2, #2
   23adc:	d003      	beq.n	23ae6 <_start+0x34e2>
   23ade:	2106      	movs	r1, #6
   23ae0:	4620      	mov	r0, r4
   23ae2:	f004 fa2f 	bl	27f44 <_ZN9allow_pin12dynamic_type7unshare17ha4091652f9b609c4E>
   23ae6:	980d      	ldr	r0, [sp, #52]	@ 0x34
   23ae8:	2800      	cmp	r0, #0
   23aea:	d001      	beq.n	23af0 <_start+0x34ec>
   23aec:	f7fe fb32 	bl	22154 <_start+0x1b50>
   23af0:	ac9f      	add	r4, sp, #636	@ 0x27c
   23af2:	1c60      	adds	r0, r4, #1
   23af4:	a9ff      	add	r1, sp, #1020	@ 0x3fc
   23af6:	318c      	adds	r1, #140	@ 0x8c
   23af8:	2203      	movs	r2, #3
   23afa:	f004 fbf0 	bl	282de <__aeabi_memcpy>
   23afe:	49ba      	ldr	r1, [pc, #744]	@ (23de8 <_start+0x37e4>)
   23b00:	4469      	add	r1, sp
   23b02:	98ca      	ldr	r0, [sp, #808]	@ 0x328
   23b04:	8088      	strh	r0, [r1, #4]
   23b06:	98c9      	ldr	r0, [sp, #804]	@ 0x324
   23b08:	9a0c      	ldr	r2, [sp, #48]	@ 0x30
   23b0a:	6010      	str	r0, [r2, #0]
   23b0c:	4620      	mov	r0, r4
   23b0e:	3008      	adds	r0, #8
   23b10:	2206      	movs	r2, #6
   23b12:	f004 fbe4 	bl	282de <__aeabi_memcpy>
   23b16:	990f      	ldr	r1, [sp, #60]	@ 0x3c
   23b18:	0e08      	lsrs	r0, r1, #24
   23b1a:	71e0      	strb	r0, [r4, #7]
   23b1c:	0c08      	lsrs	r0, r1, #16
   23b1e:	71a0      	strb	r0, [r4, #6]
   23b20:	0a08      	lsrs	r0, r1, #8
   23b22:	7160      	strb	r0, [r4, #5]
   23b24:	7121      	strb	r1, [r4, #4]
   23b26:	980e      	ldr	r0, [sp, #56]	@ 0x38
   23b28:	7020      	strb	r0, [r4, #0]
   23b2a:	4ead      	ldr	r6, [pc, #692]	@ (23de0 <_start+0x37dc>)
   23b2c:	446e      	add	r6, sp
   23b2e:	1c70      	adds	r0, r6, #1
   23b30:	2121      	movs	r1, #33	@ 0x21
   23b32:	900a      	str	r0, [sp, #40]	@ 0x28
   23b34:	f004 fa13 	bl	27f5e <__aeabi_memclr>
   23b38:	980e      	ldr	r0, [sp, #56]	@ 0x38
   23b3a:	7030      	strb	r0, [r6, #0]
   23b3c:	210d      	movs	r1, #13
   23b3e:	2204      	movs	r2, #4
   23b40:	4620      	mov	r0, r4
   23b42:	920d      	str	r2, [sp, #52]	@ 0x34
   23b44:	f7fc fbd2 	bl	202ec <_ZN9allow_pin12dynamic_type23Buffer$LT$B$C$_$C$_$GT$5allow17h30e4bd6b43fdcfe1E>
   23b48:	910f      	str	r1, [sp, #60]	@ 0x3c
   23b4a:	07c0      	lsls	r0, r0, #31
   23b4c:	d113      	bne.n	23b76 <_start+0x3572>
   23b4e:	48a4      	ldr	r0, [pc, #656]	@ (23de0 <_start+0x37dc>)
   23b50:	4468      	add	r0, sp
   23b52:	2121      	movs	r1, #33	@ 0x21
   23b54:	2203      	movs	r2, #3
   23b56:	f7fc fbc9 	bl	202ec <_ZN9allow_pin12dynamic_type23Buffer$LT$B$C$_$C$_$GT$5allow17h30e4bd6b43fdcfe1E>
   23b5a:	910f      	str	r1, [sp, #60]	@ 0x3c
   23b5c:	07c0      	lsls	r0, r0, #31
   23b5e:	d10a      	bne.n	23b76 <_start+0x3572>
   23b60:	48a4      	ldr	r0, [pc, #656]	@ (23df4 <_start+0x37f0>)
   23b62:	2400      	movs	r4, #0
   23b64:	4621      	mov	r1, r4
   23b66:	4622      	mov	r2, r4
   23b68:	4623      	mov	r3, r4
   23b6a:	df02      	svc	2
   23b6c:	910f      	str	r1, [sp, #60]	@ 0x3c
   23b6e:	287f      	cmp	r0, #127	@ 0x7f
   23b70:	d901      	bls.n	23b76 <_start+0x3572>
   23b72:	f000 fdc3 	bl	246fc <_start+0x40f8>
   23b76:	9c0b      	ldr	r4, [sp, #44]	@ 0x2c
   23b78:	4899      	ldr	r0, [pc, #612]	@ (23de0 <_start+0x37dc>)
   23b7a:	4468      	add	r0, sp
   23b7c:	7802      	ldrb	r2, [r0, #0]
   23b7e:	2a02      	cmp	r2, #2
   23b80:	d004      	beq.n	23b8c <_start+0x3588>
   23b82:	489d      	ldr	r0, [pc, #628]	@ (23df8 <_start+0x37f4>)
   23b84:	30bf      	adds	r0, #191	@ 0xbf
   23b86:	2100      	movs	r1, #0
   23b88:	f004 f9dc 	bl	27f44 <_ZN9allow_pin12dynamic_type7unshare17ha4091652f9b609c4E>
   23b8c:	a89f      	add	r0, sp, #636	@ 0x27c
   23b8e:	7802      	ldrb	r2, [r0, #0]
   23b90:	2a02      	cmp	r2, #2
   23b92:	d004      	beq.n	23b9e <_start+0x359a>
   23b94:	4898      	ldr	r0, [pc, #608]	@ (23df8 <_start+0x37f4>)
   23b96:	30bf      	adds	r0, #191	@ 0xbf
   23b98:	2100      	movs	r1, #0
   23b9a:	f004 f9d3 	bl	27f44 <_ZN9allow_pin12dynamic_type7unshare17ha4091652f9b609c4E>
   23b9e:	2c00      	cmp	r4, #0
   23ba0:	d001      	beq.n	23ba6 <_start+0x35a2>
   23ba2:	f7fe fad7 	bl	22154 <_start+0x1b50>
   23ba6:	ac9f      	add	r4, sp, #636	@ 0x27c
   23ba8:	1c60      	adds	r0, r4, #1
   23baa:	900a      	str	r0, [sp, #40]	@ 0x28
   23bac:	a9c9      	add	r1, sp, #804	@ 0x324
   23bae:	2203      	movs	r2, #3
   23bb0:	9206      	str	r2, [sp, #24]
   23bb2:	f004 fb94 	bl	282de <__aeabi_memcpy>
   23bb6:	a8ff      	add	r0, sp, #1020	@ 0x3fc
   23bb8:	30a4      	adds	r0, #164	@ 0xa4
   23bba:	9008      	str	r0, [sp, #32]
   23bbc:	498a      	ldr	r1, [pc, #552]	@ (23de8 <_start+0x37e4>)
   23bbe:	4469      	add	r1, sp
   23bc0:	261a      	movs	r6, #26
   23bc2:	4632      	mov	r2, r6
   23bc4:	f004 fb8b 	bl	282de <__aeabi_memcpy>
   23bc8:	4620      	mov	r0, r4
   23bca:	3008      	adds	r0, #8
   23bcc:	9908      	ldr	r1, [sp, #32]
   23bce:	4632      	mov	r2, r6
   23bd0:	f004 fb85 	bl	282de <__aeabi_memcpy>
   23bd4:	9e0e      	ldr	r6, [sp, #56]	@ 0x38
   23bd6:	7026      	strb	r6, [r4, #0]
   23bd8:	980f      	ldr	r0, [sp, #60]	@ 0x3c
   23bda:	90a0      	str	r0, [sp, #640]	@ 0x280
   23bdc:	4c80      	ldr	r4, [pc, #512]	@ (23de0 <_start+0x37dc>)
   23bde:	446c      	add	r4, sp
   23be0:	1c60      	adds	r0, r4, #1
   23be2:	2153      	movs	r1, #83	@ 0x53
   23be4:	9008      	str	r0, [sp, #32]
   23be6:	f004 f9ba 	bl	27f5e <__aeabi_memclr>
   23bea:	7026      	strb	r6, [r4, #0]
   23bec:	980d      	ldr	r0, [sp, #52]	@ 0x34
   23bee:	9000      	str	r0, [sp, #0]
   23bf0:	4c82      	ldr	r4, [pc, #520]	@ (23dfc <_start+0x37f8>)
   23bf2:	344e      	adds	r4, #78	@ 0x4e
   23bf4:	2321      	movs	r3, #33	@ 0x21
   23bf6:	4620      	mov	r0, r4
   23bf8:	4631      	mov	r1, r6
   23bfa:	9a0a      	ldr	r2, [sp, #40]	@ 0x28
   23bfc:	f7fc fb4e 	bl	2029c <_ZN9allow_pin12dynamic_type11allow_inner17hf1099571477a6939E>
   23c00:	910f      	str	r1, [sp, #60]	@ 0x3c
   23c02:	07c0      	lsls	r0, r0, #31
   23c04:	d11d      	bne.n	23c42 <_start+0x363e>
   23c06:	a89f      	add	r0, sp, #636	@ 0x27c
   23c08:	990d      	ldr	r1, [sp, #52]	@ 0x34
   23c0a:	7001      	strb	r1, [r0, #0]
   23c0c:	9806      	ldr	r0, [sp, #24]
   23c0e:	9000      	str	r0, [sp, #0]
   23c10:	2108      	movs	r1, #8
   23c12:	2353      	movs	r3, #83	@ 0x53
   23c14:	4620      	mov	r0, r4
   23c16:	9a08      	ldr	r2, [sp, #32]
   23c18:	f7fc fb40 	bl	2029c <_ZN9allow_pin12dynamic_type11allow_inner17hf1099571477a6939E>
   23c1c:	910f      	str	r1, [sp, #60]	@ 0x3c
   23c1e:	07c0      	lsls	r0, r0, #31
   23c20:	d10f      	bne.n	23c42 <_start+0x363e>
   23c22:	486f      	ldr	r0, [pc, #444]	@ (23de0 <_start+0x37dc>)
   23c24:	4468      	add	r0, sp
   23c26:	9906      	ldr	r1, [sp, #24]
   23c28:	7001      	strb	r1, [r0, #0]
   23c2a:	4875      	ldr	r0, [pc, #468]	@ (23e00 <_start+0x37fc>)
   23c2c:	2102      	movs	r1, #2
   23c2e:	2208      	movs	r2, #8
   23c30:	2600      	movs	r6, #0
   23c32:	910a      	str	r1, [sp, #40]	@ 0x28
   23c34:	4633      	mov	r3, r6
   23c36:	df02      	svc	2
   23c38:	910f      	str	r1, [sp, #60]	@ 0x3c
   23c3a:	287f      	cmp	r0, #127	@ 0x7f
   23c3c:	d901      	bls.n	23c42 <_start+0x363e>
   23c3e:	f000 fd72 	bl	24726 <_start+0x4122>
   23c42:	9e0b      	ldr	r6, [sp, #44]	@ 0x2c
   23c44:	4866      	ldr	r0, [pc, #408]	@ (23de0 <_start+0x37dc>)
   23c46:	4468      	add	r0, sp
   23c48:	7802      	ldrb	r2, [r0, #0]
   23c4a:	2a02      	cmp	r2, #2
   23c4c:	d003      	beq.n	23c56 <_start+0x3652>
   23c4e:	2108      	movs	r1, #8
   23c50:	4620      	mov	r0, r4
   23c52:	f004 f977 	bl	27f44 <_ZN9allow_pin12dynamic_type7unshare17ha4091652f9b609c4E>
   23c56:	a89f      	add	r0, sp, #636	@ 0x27c
   23c58:	7802      	ldrb	r2, [r0, #0]
   23c5a:	2a02      	cmp	r2, #2
   23c5c:	d003      	beq.n	23c66 <_start+0x3662>
   23c5e:	2102      	movs	r1, #2
   23c60:	4620      	mov	r0, r4
   23c62:	f004 f96f 	bl	27f44 <_ZN9allow_pin12dynamic_type7unshare17ha4091652f9b609c4E>
   23c66:	2e00      	cmp	r6, #0
   23c68:	d001      	beq.n	23c6e <_start+0x366a>
   23c6a:	f7fe fa73 	bl	22154 <_start+0x1b50>
   23c6e:	4c5c      	ldr	r4, [pc, #368]	@ (23de0 <_start+0x37dc>)
   23c70:	446c      	add	r4, sp
   23c72:	1c60      	adds	r0, r4, #1
   23c74:	9008      	str	r0, [sp, #32]
   23c76:	495c      	ldr	r1, [pc, #368]	@ (23de8 <_start+0x37e4>)
   23c78:	4469      	add	r1, sp
   23c7a:	2203      	movs	r2, #3
   23c7c:	920a      	str	r2, [sp, #40]	@ 0x28
   23c7e:	f004 fb2e 	bl	282de <__aeabi_memcpy>
   23c82:	a872      	add	r0, sp, #456	@ 0x1c8
   23c84:	9006      	str	r0, [sp, #24]
   23c86:	a9ff      	add	r1, sp, #1020	@ 0x3fc
   23c88:	31a4      	adds	r1, #164	@ 0xa4
   23c8a:	264c      	movs	r6, #76	@ 0x4c
   23c8c:	4632      	mov	r2, r6
   23c8e:	f004 f9c6 	bl	2801e <__aeabi_memcpy4>
   23c92:	980e      	ldr	r0, [sp, #56]	@ 0x38
   23c94:	7020      	strb	r0, [r4, #0]
   23c96:	980c      	ldr	r0, [sp, #48]	@ 0x30
   23c98:	990f      	ldr	r1, [sp, #60]	@ 0x3c
   23c9a:	6541      	str	r1, [r0, #84]	@ 0x54
   23c9c:	3408      	adds	r4, #8
   23c9e:	4620      	mov	r0, r4
   23ca0:	9906      	ldr	r1, [sp, #24]
   23ca2:	4632      	mov	r2, r6
   23ca4:	f004 f9bb 	bl	2801e <__aeabi_memcpy4>
   23ca8:	acff      	add	r4, sp, #1020	@ 0x3fc
   23caa:	34a4      	adds	r4, #164	@ 0xa4
   23cac:	1c60      	adds	r0, r4, #1
   23cae:	214d      	movs	r1, #77	@ 0x4d
   23cb0:	9006      	str	r0, [sp, #24]
   23cb2:	f004 f954 	bl	27f5e <__aeabi_memclr>
   23cb6:	980e      	ldr	r0, [sp, #56]	@ 0x38
   23cb8:	7020      	strb	r0, [r4, #0]
   23cba:	980d      	ldr	r0, [sp, #52]	@ 0x34
   23cbc:	9000      	str	r0, [sp, #0]
   23cbe:	4c4e      	ldr	r4, [pc, #312]	@ (23df8 <_start+0x37f4>)
   23cc0:	34c9      	adds	r4, #201	@ 0xc9
   23cc2:	2109      	movs	r1, #9
   23cc4:	2353      	movs	r3, #83	@ 0x53
   23cc6:	4620      	mov	r0, r4
   23cc8:	9a08      	ldr	r2, [sp, #32]
   23cca:	f7fc fae7 	bl	2029c <_ZN9allow_pin12dynamic_type11allow_inner17hf1099571477a6939E>
   23cce:	910f      	str	r1, [sp, #60]	@ 0x3c
   23cd0:	07c0      	lsls	r0, r0, #31
   23cd2:	d11c      	bne.n	23d0e <_start+0x370a>
   23cd4:	4842      	ldr	r0, [pc, #264]	@ (23de0 <_start+0x37dc>)
   23cd6:	4468      	add	r0, sp
   23cd8:	990d      	ldr	r1, [sp, #52]	@ 0x34
   23cda:	7001      	strb	r1, [r0, #0]
   23cdc:	980a      	ldr	r0, [sp, #40]	@ 0x28
   23cde:	9000      	str	r0, [sp, #0]
   23ce0:	234d      	movs	r3, #77	@ 0x4d
   23ce2:	4620      	mov	r0, r4
   23ce4:	9a06      	ldr	r2, [sp, #24]
   23ce6:	f7fc fad9 	bl	2029c <_ZN9allow_pin12dynamic_type11allow_inner17hf1099571477a6939E>
   23cea:	910f      	str	r1, [sp, #60]	@ 0x3c
   23cec:	07c0      	lsls	r0, r0, #31
   23cee:	d10e      	bne.n	23d0e <_start+0x370a>
   23cf0:	a8ff      	add	r0, sp, #1020	@ 0x3fc
   23cf2:	30a4      	adds	r0, #164	@ 0xa4
   23cf4:	990a      	ldr	r1, [sp, #40]	@ 0x28
   23cf6:	7001      	strb	r1, [r0, #0]
   23cf8:	4842      	ldr	r0, [pc, #264]	@ (23e04 <_start+0x3800>)
   23cfa:	2109      	movs	r1, #9
   23cfc:	2204      	movs	r2, #4
   23cfe:	2600      	movs	r6, #0
   23d00:	4633      	mov	r3, r6
   23d02:	df02      	svc	2
   23d04:	910f      	str	r1, [sp, #60]	@ 0x3c
   23d06:	287f      	cmp	r0, #127	@ 0x7f
   23d08:	d901      	bls.n	23d0e <_start+0x370a>
   23d0a:	f000 fd4f 	bl	247ac <_start+0x41a8>
   23d0e:	9e0b      	ldr	r6, [sp, #44]	@ 0x2c
   23d10:	a8ff      	add	r0, sp, #1020	@ 0x3fc
   23d12:	30a4      	adds	r0, #164	@ 0xa4
   23d14:	7802      	ldrb	r2, [r0, #0]
   23d16:	2a02      	cmp	r2, #2
   23d18:	d003      	beq.n	23d22 <_start+0x371e>
   23d1a:	2104      	movs	r1, #4
   23d1c:	4620      	mov	r0, r4
   23d1e:	f004 f911 	bl	27f44 <_ZN9allow_pin12dynamic_type7unshare17ha4091652f9b609c4E>
   23d22:	482f      	ldr	r0, [pc, #188]	@ (23de0 <_start+0x37dc>)
   23d24:	4468      	add	r0, sp
   23d26:	7802      	ldrb	r2, [r0, #0]
   23d28:	2a02      	cmp	r2, #2
   23d2a:	d003      	beq.n	23d34 <_start+0x3730>
   23d2c:	2109      	movs	r1, #9
   23d2e:	4620      	mov	r0, r4
   23d30:	f004 f908 	bl	27f44 <_ZN9allow_pin12dynamic_type7unshare17ha4091652f9b609c4E>
   23d34:	2e00      	cmp	r6, #0
   23d36:	d001      	beq.n	23d3c <_start+0x3738>
   23d38:	f7fe fa0c 	bl	22154 <_start+0x1b50>
   23d3c:	4c28      	ldr	r4, [pc, #160]	@ (23de0 <_start+0x37dc>)
   23d3e:	446c      	add	r4, sp
   23d40:	1c60      	adds	r0, r4, #1
   23d42:	9008      	str	r0, [sp, #32]
   23d44:	a9c9      	add	r1, sp, #804	@ 0x324
   23d46:	2203      	movs	r2, #3
   23d48:	920a      	str	r2, [sp, #40]	@ 0x28
   23d4a:	f004 fac8 	bl	282de <__aeabi_memcpy>
   23d4e:	a89f      	add	r0, sp, #636	@ 0x27c
   23d50:	9006      	str	r0, [sp, #24]
   23d52:	4925      	ldr	r1, [pc, #148]	@ (23de8 <_start+0x37e4>)
   23d54:	4469      	add	r1, sp
   23d56:	2646      	movs	r6, #70	@ 0x46
   23d58:	4632      	mov	r2, r6
   23d5a:	f004 f960 	bl	2801e <__aeabi_memcpy4>
   23d5e:	4620      	mov	r0, r4
   23d60:	3008      	adds	r0, #8
   23d62:	9906      	ldr	r1, [sp, #24]
   23d64:	4632      	mov	r2, r6
   23d66:	f004 f95a 	bl	2801e <__aeabi_memcpy4>
   23d6a:	9e0e      	ldr	r6, [sp, #56]	@ 0x38
   23d6c:	7026      	strb	r6, [r4, #0]
   23d6e:	980c      	ldr	r0, [sp, #48]	@ 0x30
   23d70:	990f      	ldr	r1, [sp, #60]	@ 0x3c
   23d72:	6541      	str	r1, [r0, #84]	@ 0x54
   23d74:	acff      	add	r4, sp, #1020	@ 0x3fc
   23d76:	34a4      	adds	r4, #164	@ 0xa4
   23d78:	1c60      	adds	r0, r4, #1
   23d7a:	213c      	movs	r1, #60	@ 0x3c
   23d7c:	9006      	str	r0, [sp, #24]
   23d7e:	f004 f8ee 	bl	27f5e <__aeabi_memclr>
   23d82:	7026      	strb	r6, [r4, #0]
   23d84:	990d      	ldr	r1, [sp, #52]	@ 0x34
   23d86:	9100      	str	r1, [sp, #0]
   23d88:	4c1f      	ldr	r4, [pc, #124]	@ (23e08 <_start+0x3804>)
   23d8a:	3455      	adds	r4, #85	@ 0x55
   23d8c:	234d      	movs	r3, #77	@ 0x4d
   23d8e:	4620      	mov	r0, r4
   23d90:	9a08      	ldr	r2, [sp, #32]
   23d92:	f7fc fa83 	bl	2029c <_ZN9allow_pin12dynamic_type11allow_inner17hf1099571477a6939E>
   23d96:	910f      	str	r1, [sp, #60]	@ 0x3c
   23d98:	07c0      	lsls	r0, r0, #31
   23d9a:	d11d      	bne.n	23dd8 <_start+0x37d4>
   23d9c:	4810      	ldr	r0, [pc, #64]	@ (23de0 <_start+0x37dc>)
   23d9e:	4468      	add	r0, sp
   23da0:	990d      	ldr	r1, [sp, #52]	@ 0x34
   23da2:	7001      	strb	r1, [r0, #0]
   23da4:	980a      	ldr	r0, [sp, #40]	@ 0x28
   23da6:	9000      	str	r0, [sp, #0]
   23da8:	2109      	movs	r1, #9
   23daa:	233c      	movs	r3, #60	@ 0x3c
   23dac:	4620      	mov	r0, r4
   23dae:	9a06      	ldr	r2, [sp, #24]
   23db0:	f7fc fa74 	bl	2029c <_ZN9allow_pin12dynamic_type11allow_inner17hf1099571477a6939E>
   23db4:	910f      	str	r1, [sp, #60]	@ 0x3c
   23db6:	07c0      	lsls	r0, r0, #31
   23db8:	d10e      	bne.n	23dd8 <_start+0x37d4>
   23dba:	a8ff      	add	r0, sp, #1020	@ 0x3fc
   23dbc:	30a4      	adds	r0, #164	@ 0xa4
   23dbe:	990a      	ldr	r1, [sp, #40]	@ 0x28
   23dc0:	7001      	strb	r1, [r0, #0]
   23dc2:	4812      	ldr	r0, [pc, #72]	@ (23e0c <_start+0x3808>)
   23dc4:	2104      	movs	r1, #4
   23dc6:	2209      	movs	r2, #9
   23dc8:	2600      	movs	r6, #0
   23dca:	4633      	mov	r3, r6
   23dcc:	df02      	svc	2
   23dce:	910f      	str	r1, [sp, #60]	@ 0x3c
   23dd0:	287f      	cmp	r0, #127	@ 0x7f
   23dd2:	d901      	bls.n	23dd8 <_start+0x37d4>
   23dd4:	f000 fd1a 	bl	2480c <_start+0x4208>
   23dd8:	9e0b      	ldr	r6, [sp, #44]	@ 0x2c
   23dda:	f000 fd45 	bl	24868 <_start+0x4264>
   23dde:	46c0      	nop			@ (mov r8, r8)
   23de0:	000005a8 	.word	0x000005a8
   23de4:	00000d5d 	.word	0x00000d5d
   23de8:	00000558 	.word	0x00000558
   23dec:	000013bf 	.word	0x000013bf
   23df0:	00001465 	.word	0x00001465
   23df4:	000016b0 	.word	0x000016b0
   23df8:	000015f1 	.word	0x000015f1
   23dfc:	000024f0 	.word	0x000024f0
   23e00:	0000253e 	.word	0x0000253e
   23e04:	000016ba 	.word	0x000016ba
   23e08:	00002156 	.word	0x00002156
   23e0c:	000021ab 	.word	0x000021ab
   23e10:	a8ff      	add	r0, sp, #1020	@ 0x3fc
   23e12:	30a4      	adds	r0, #164	@ 0xa4
   23e14:	7802      	ldrb	r2, [r0, #0]
   23e16:	2a02      	cmp	r2, #2
   23e18:	d00d      	beq.n	23e36 <_start+0x3832>
   23e1a:	2103      	movs	r1, #3
   23e1c:	4620      	mov	r0, r4
   23e1e:	f004 f891 	bl	27f44 <_ZN9allow_pin12dynamic_type7unshare17ha4091652f9b609c4E>
   23e22:	a8ff      	add	r0, sp, #1020	@ 0x3fc
   23e24:	30a4      	adds	r0, #164	@ 0xa4
   23e26:	990e      	ldr	r1, [sp, #56]	@ 0x38
   23e28:	7001      	strb	r1, [r0, #0]
   23e2a:	48f7      	ldr	r0, [pc, #988]	@ (24208 <_start+0x3c04>)
   23e2c:	4468      	add	r0, sp
   23e2e:	7800      	ldrb	r0, [r0, #0]
   23e30:	4605      	mov	r5, r0
   23e32:	2802      	cmp	r0, #2
   23e34:	d004      	beq.n	23e40 <_start+0x383c>
   23e36:	2101      	movs	r1, #1
   23e38:	4620      	mov	r0, r4
   23e3a:	462a      	mov	r2, r5
   23e3c:	f004 f882 	bl	27f44 <_ZN9allow_pin12dynamic_type7unshare17ha4091652f9b609c4E>
   23e40:	49f1      	ldr	r1, [pc, #964]	@ (24208 <_start+0x3c04>)
   23e42:	4469      	add	r1, sp
   23e44:	980e      	ldr	r0, [sp, #56]	@ 0x38
   23e46:	7008      	strb	r0, [r1, #0]
   23e48:	9b05      	ldr	r3, [sp, #20]
   23e4a:	7898      	ldrb	r0, [r3, #2]
   23e4c:	aac9      	add	r2, sp, #804	@ 0x324
   23e4e:	7090      	strb	r0, [r2, #2]
   23e50:	7818      	ldrb	r0, [r3, #0]
   23e52:	785b      	ldrb	r3, [r3, #1]
   23e54:	021b      	lsls	r3, r3, #8
   23e56:	1818      	adds	r0, r3, r0
   23e58:	8010      	strh	r0, [r2, #0]
   23e5a:	980c      	ldr	r0, [sp, #48]	@ 0x30
   23e5c:	6d40      	ldr	r0, [r0, #84]	@ 0x54
   23e5e:	900f      	str	r0, [sp, #60]	@ 0x3c
   23e60:	3108      	adds	r1, #8
   23e62:	48ea      	ldr	r0, [pc, #936]	@ (2420c <_start+0x3c08>)
   23e64:	4468      	add	r0, sp
   23e66:	222b      	movs	r2, #43	@ 0x2b
   23e68:	f004 fa39 	bl	282de <__aeabi_memcpy>
   23e6c:	f7fe f8f9 	bl	22062 <_start+0x1a5e>
   23e70:	48e5      	ldr	r0, [pc, #916]	@ (24208 <_start+0x3c04>)
   23e72:	4468      	add	r0, sp
   23e74:	7802      	ldrb	r2, [r0, #0]
   23e76:	2a02      	cmp	r2, #2
   23e78:	d00d      	beq.n	23e96 <_start+0x3892>
   23e7a:	2104      	movs	r1, #4
   23e7c:	4620      	mov	r0, r4
   23e7e:	f004 f861 	bl	27f44 <_ZN9allow_pin12dynamic_type7unshare17ha4091652f9b609c4E>
   23e82:	48e1      	ldr	r0, [pc, #900]	@ (24208 <_start+0x3c04>)
   23e84:	4468      	add	r0, sp
   23e86:	990e      	ldr	r1, [sp, #56]	@ 0x38
   23e88:	7001      	strb	r1, [r0, #0]
   23e8a:	a8ff      	add	r0, sp, #1020	@ 0x3fc
   23e8c:	30a4      	adds	r0, #164	@ 0xa4
   23e8e:	7800      	ldrb	r0, [r0, #0]
   23e90:	9006      	str	r0, [sp, #24]
   23e92:	2802      	cmp	r0, #2
   23e94:	d004      	beq.n	23ea0 <_start+0x389c>
   23e96:	2109      	movs	r1, #9
   23e98:	4620      	mov	r0, r4
   23e9a:	9a06      	ldr	r2, [sp, #24]
   23e9c:	f004 f852 	bl	27f44 <_ZN9allow_pin12dynamic_type7unshare17ha4091652f9b609c4E>
   23ea0:	a8ff      	add	r0, sp, #1020	@ 0x3fc
   23ea2:	30a4      	adds	r0, #164	@ 0xa4
   23ea4:	990e      	ldr	r1, [sp, #56]	@ 0x38
   23ea6:	7001      	strb	r1, [r0, #0]
   23ea8:	78a9      	ldrb	r1, [r5, #2]
   23eaa:	aaff      	add	r2, sp, #1020	@ 0x3fc
   23eac:	328c      	adds	r2, #140	@ 0x8c
   23eae:	7091      	strb	r1, [r2, #2]
   23eb0:	7829      	ldrb	r1, [r5, #0]
   23eb2:	786b      	ldrb	r3, [r5, #1]
   23eb4:	021b      	lsls	r3, r3, #8
   23eb6:	1859      	adds	r1, r3, r1
   23eb8:	8011      	strh	r1, [r2, #0]
   23eba:	3008      	adds	r0, #8
   23ebc:	9909      	ldr	r1, [sp, #36]	@ 0x24
   23ebe:	6809      	ldr	r1, [r1, #0]
   23ec0:	910f      	str	r1, [sp, #60]	@ 0x3c
   23ec2:	a9c9      	add	r1, sp, #804	@ 0x324
   23ec4:	c80c      	ldmia	r0!, {r2, r3}
   23ec6:	c10c      	stmia	r1!, {r2, r3}
   23ec8:	7800      	ldrb	r0, [r0, #0]
   23eca:	7008      	strb	r0, [r1, #0]
   23ecc:	f7fe f92c 	bl	22128 <_start+0x1b24>
   23ed0:	48ce      	ldr	r0, [pc, #824]	@ (2420c <_start+0x3c08>)
   23ed2:	4468      	add	r0, sp
   23ed4:	7802      	ldrb	r2, [r0, #0]
   23ed6:	2a02      	cmp	r2, #2
   23ed8:	d00d      	beq.n	23ef6 <_start+0x38f2>
   23eda:	2101      	movs	r1, #1
   23edc:	4630      	mov	r0, r6
   23ede:	f004 f831 	bl	27f44 <_ZN9allow_pin12dynamic_type7unshare17ha4091652f9b609c4E>
   23ee2:	48ca      	ldr	r0, [pc, #808]	@ (2420c <_start+0x3c08>)
   23ee4:	4468      	add	r0, sp
   23ee6:	990e      	ldr	r1, [sp, #56]	@ 0x38
   23ee8:	7001      	strb	r1, [r0, #0]
   23eea:	48c7      	ldr	r0, [pc, #796]	@ (24208 <_start+0x3c04>)
   23eec:	4468      	add	r0, sp
   23eee:	7800      	ldrb	r0, [r0, #0]
   23ef0:	9008      	str	r0, [sp, #32]
   23ef2:	2802      	cmp	r0, #2
   23ef4:	d004      	beq.n	23f00 <_start+0x38fc>
   23ef6:	2107      	movs	r1, #7
   23ef8:	4630      	mov	r0, r6
   23efa:	9a08      	ldr	r2, [sp, #32]
   23efc:	f004 f822 	bl	27f44 <_ZN9allow_pin12dynamic_type7unshare17ha4091652f9b609c4E>
   23f00:	49c1      	ldr	r1, [pc, #772]	@ (24208 <_start+0x3c04>)
   23f02:	4469      	add	r1, sp
   23f04:	980e      	ldr	r0, [sp, #56]	@ 0x38
   23f06:	7008      	strb	r0, [r1, #0]
   23f08:	9b06      	ldr	r3, [sp, #24]
   23f0a:	7898      	ldrb	r0, [r3, #2]
   23f0c:	aac9      	add	r2, sp, #804	@ 0x324
   23f0e:	7090      	strb	r0, [r2, #2]
   23f10:	7818      	ldrb	r0, [r3, #0]
   23f12:	785b      	ldrb	r3, [r3, #1]
   23f14:	021b      	lsls	r3, r3, #8
   23f16:	1818      	adds	r0, r3, r0
   23f18:	8010      	strh	r0, [r2, #0]
   23f1a:	980c      	ldr	r0, [sp, #48]	@ 0x30
   23f1c:	6d40      	ldr	r0, [r0, #84]	@ 0x54
   23f1e:	900f      	str	r0, [sp, #60]	@ 0x3c
   23f20:	3108      	adds	r1, #8
   23f22:	a89f      	add	r0, sp, #636	@ 0x27c
   23f24:	222f      	movs	r2, #47	@ 0x2f
   23f26:	f004 f9da 	bl	282de <__aeabi_memcpy>
   23f2a:	f7fe fbe2 	bl	226f2 <_start+0x20ee>
   23f2e:	48b6      	ldr	r0, [pc, #728]	@ (24208 <_start+0x3c04>)
   23f30:	4468      	add	r0, sp
   23f32:	7802      	ldrb	r2, [r0, #0]
   23f34:	2a02      	cmp	r2, #2
   23f36:	d00d      	beq.n	23f54 <_start+0x3950>
   23f38:	2105      	movs	r1, #5
   23f3a:	48b5      	ldr	r0, [pc, #724]	@ (24210 <_start+0x3c0c>)
   23f3c:	f004 f802 	bl	27f44 <_ZN9allow_pin12dynamic_type7unshare17ha4091652f9b609c4E>
   23f40:	48b1      	ldr	r0, [pc, #708]	@ (24208 <_start+0x3c04>)
   23f42:	4468      	add	r0, sp
   23f44:	990e      	ldr	r1, [sp, #56]	@ 0x38
   23f46:	7001      	strb	r1, [r0, #0]
   23f48:	a8ff      	add	r0, sp, #1020	@ 0x3fc
   23f4a:	30a4      	adds	r0, #164	@ 0xa4
   23f4c:	7800      	ldrb	r0, [r0, #0]
   23f4e:	9005      	str	r0, [sp, #20]
   23f50:	2802      	cmp	r0, #2
   23f52:	d004      	beq.n	23f5e <_start+0x395a>
   23f54:	2103      	movs	r1, #3
   23f56:	48ae      	ldr	r0, [pc, #696]	@ (24210 <_start+0x3c0c>)
   23f58:	9a05      	ldr	r2, [sp, #20]
   23f5a:	f003 fff3 	bl	27f44 <_ZN9allow_pin12dynamic_type7unshare17ha4091652f9b609c4E>
   23f5e:	a8ff      	add	r0, sp, #1020	@ 0x3fc
   23f60:	30a4      	adds	r0, #164	@ 0xa4
   23f62:	990e      	ldr	r1, [sp, #56]	@ 0x38
   23f64:	7001      	strb	r1, [r0, #0]
   23f66:	9a06      	ldr	r2, [sp, #24]
   23f68:	7890      	ldrb	r0, [r2, #2]
   23f6a:	a99f      	add	r1, sp, #636	@ 0x27c
   23f6c:	7088      	strb	r0, [r1, #2]
   23f6e:	7810      	ldrb	r0, [r2, #0]
   23f70:	7852      	ldrb	r2, [r2, #1]
   23f72:	0212      	lsls	r2, r2, #8
   23f74:	1810      	adds	r0, r2, r0
   23f76:	8008      	strh	r0, [r1, #0]
   23f78:	9809      	ldr	r0, [sp, #36]	@ 0x24
   23f7a:	6801      	ldr	r1, [r0, #0]
   23f7c:	910f      	str	r1, [sp, #60]	@ 0x3c
   23f7e:	6841      	ldr	r1, [r0, #4]
   23f80:	9105      	str	r1, [sp, #20]
   23f82:	6884      	ldr	r4, [r0, #8]
   23f84:	f7fe fc2b 	bl	227de <_start+0x21da>
   23f88:	a8ff      	add	r0, sp, #1020	@ 0x3fc
   23f8a:	30a4      	adds	r0, #164	@ 0xa4
   23f8c:	7802      	ldrb	r2, [r0, #0]
   23f8e:	2a02      	cmp	r2, #2
   23f90:	d00d      	beq.n	23fae <_start+0x39aa>
   23f92:	2103      	movs	r1, #3
   23f94:	489f      	ldr	r0, [pc, #636]	@ (24214 <_start+0x3c10>)
   23f96:	f003 ffd5 	bl	27f44 <_ZN9allow_pin12dynamic_type7unshare17ha4091652f9b609c4E>
   23f9a:	a8ff      	add	r0, sp, #1020	@ 0x3fc
   23f9c:	30a4      	adds	r0, #164	@ 0xa4
   23f9e:	990e      	ldr	r1, [sp, #56]	@ 0x38
   23fa0:	7001      	strb	r1, [r0, #0]
   23fa2:	4899      	ldr	r0, [pc, #612]	@ (24208 <_start+0x3c04>)
   23fa4:	4468      	add	r0, sp
   23fa6:	7800      	ldrb	r0, [r0, #0]
   23fa8:	4604      	mov	r4, r0
   23faa:	2802      	cmp	r0, #2
   23fac:	d004      	beq.n	23fb8 <_start+0x39b4>
   23fae:	2100      	movs	r1, #0
   23fb0:	4898      	ldr	r0, [pc, #608]	@ (24214 <_start+0x3c10>)
   23fb2:	4622      	mov	r2, r4
   23fb4:	f003 ffc6 	bl	27f44 <_ZN9allow_pin12dynamic_type7unshare17ha4091652f9b609c4E>
   23fb8:	4893      	ldr	r0, [pc, #588]	@ (24208 <_start+0x3c04>)
   23fba:	4468      	add	r0, sp
   23fbc:	990e      	ldr	r1, [sp, #56]	@ 0x38
   23fbe:	7001      	strb	r1, [r0, #0]
   23fc0:	9b05      	ldr	r3, [sp, #20]
   23fc2:	7899      	ldrb	r1, [r3, #2]
   23fc4:	aac9      	add	r2, sp, #804	@ 0x324
   23fc6:	7091      	strb	r1, [r2, #2]
   23fc8:	7819      	ldrb	r1, [r3, #0]
   23fca:	785b      	ldrb	r3, [r3, #1]
   23fcc:	021b      	lsls	r3, r3, #8
   23fce:	1859      	adds	r1, r3, r1
   23fd0:	8011      	strh	r1, [r2, #0]
   23fd2:	3008      	adds	r0, #8
   23fd4:	990c      	ldr	r1, [sp, #48]	@ 0x30
   23fd6:	6d49      	ldr	r1, [r1, #84]	@ 0x54
   23fd8:	910f      	str	r1, [sp, #60]	@ 0x3c
   23fda:	a99f      	add	r1, sp, #636	@ 0x27c
   23fdc:	c81c      	ldmia	r0!, {r2, r3, r4}
   23fde:	c11c      	stmia	r1!, {r2, r3, r4}
   23fe0:	f7fe fc7f 	bl	228e2 <_start+0x22de>
   23fe4:	4889      	ldr	r0, [pc, #548]	@ (2420c <_start+0x3c08>)
   23fe6:	4468      	add	r0, sp
   23fe8:	7802      	ldrb	r2, [r0, #0]
   23fea:	2a02      	cmp	r2, #2
   23fec:	d00d      	beq.n	2400a <_start+0x3a06>
   23fee:	2109      	movs	r1, #9
   23ff0:	4889      	ldr	r0, [pc, #548]	@ (24218 <_start+0x3c14>)
   23ff2:	f003 ffa7 	bl	27f44 <_ZN9allow_pin12dynamic_type7unshare17ha4091652f9b609c4E>
   23ff6:	4885      	ldr	r0, [pc, #532]	@ (2420c <_start+0x3c08>)
   23ff8:	4468      	add	r0, sp
   23ffa:	990e      	ldr	r1, [sp, #56]	@ 0x38
   23ffc:	7001      	strb	r1, [r0, #0]
   23ffe:	4882      	ldr	r0, [pc, #520]	@ (24208 <_start+0x3c04>)
   24000:	4468      	add	r0, sp
   24002:	7800      	ldrb	r0, [r0, #0]
   24004:	9004      	str	r0, [sp, #16]
   24006:	2802      	cmp	r0, #2
   24008:	d004      	beq.n	24014 <_start+0x3a10>
   2400a:	2107      	movs	r1, #7
   2400c:	4882      	ldr	r0, [pc, #520]	@ (24218 <_start+0x3c14>)
   2400e:	9a04      	ldr	r2, [sp, #16]
   24010:	f003 ff98 	bl	27f44 <_ZN9allow_pin12dynamic_type7unshare17ha4091652f9b609c4E>
   24014:	497c      	ldr	r1, [pc, #496]	@ (24208 <_start+0x3c04>)
   24016:	4469      	add	r1, sp
   24018:	980e      	ldr	r0, [sp, #56]	@ 0x38
   2401a:	7008      	strb	r0, [r1, #0]
   2401c:	9b06      	ldr	r3, [sp, #24]
   2401e:	7898      	ldrb	r0, [r3, #2]
   24020:	aac9      	add	r2, sp, #804	@ 0x324
   24022:	7090      	strb	r0, [r2, #2]
   24024:	7818      	ldrb	r0, [r3, #0]
   24026:	785b      	ldrb	r3, [r3, #1]
   24028:	021b      	lsls	r3, r3, #8
   2402a:	1818      	adds	r0, r3, r0
   2402c:	8010      	strh	r0, [r2, #0]
   2402e:	980c      	ldr	r0, [sp, #48]	@ 0x30
   24030:	6d40      	ldr	r0, [r0, #84]	@ 0x54
   24032:	900f      	str	r0, [sp, #60]	@ 0x3c
   24034:	3108      	adds	r1, #8
   24036:	a89f      	add	r0, sp, #636	@ 0x27c
   24038:	224e      	movs	r2, #78	@ 0x4e
   2403a:	f003 fff0 	bl	2801e <__aeabi_memcpy4>
   2403e:	f7fe fccc 	bl	229da <_start+0x23d6>
   24042:	4871      	ldr	r0, [pc, #452]	@ (24208 <_start+0x3c04>)
   24044:	4468      	add	r0, sp
   24046:	f7fc fa8d 	bl	20564 <_ZN9allow_pin12dynamic_type23Buffer$LT$B$C$_$C$_$GT$7unallow17h73f0936898d9b8f9E>
   2404a:	aeff      	add	r6, sp, #1020	@ 0x3fc
   2404c:	36a4      	adds	r6, #164	@ 0xa4
   2404e:	4630      	mov	r0, r6
   24050:	f7fc fa88 	bl	20564 <_ZN9allow_pin12dynamic_type23Buffer$LT$B$C$_$C$_$GT$7unallow17h73f0936898d9b8f9E>
   24054:	4971      	ldr	r1, [pc, #452]	@ (2421c <_start+0x3c18>)
   24056:	1dca      	adds	r2, r1, #7
   24058:	7830      	ldrb	r0, [r6, #0]
   2405a:	3608      	adds	r6, #8
   2405c:	2802      	cmp	r0, #2
   2405e:	d000      	beq.n	24062 <_start+0x3a5e>
   24060:	4616      	mov	r6, r2
   24062:	d000      	beq.n	24066 <_start+0x3a62>
   24064:	9108      	str	r1, [sp, #32]
   24066:	2802      	cmp	r0, #2
   24068:	d030      	beq.n	240cc <_start+0x3ac8>
   2406a:	940f      	str	r4, [sp, #60]	@ 0x3c
   2406c:	e031      	b.n	240d2 <_start+0x3ace>
   2406e:	4867      	ldr	r0, [pc, #412]	@ (2420c <_start+0x3c08>)
   24070:	4468      	add	r0, sp
   24072:	7802      	ldrb	r2, [r0, #0]
   24074:	2a02      	cmp	r2, #2
   24076:	d00d      	beq.n	24094 <_start+0x3a90>
   24078:	2107      	movs	r1, #7
   2407a:	4869      	ldr	r0, [pc, #420]	@ (24220 <_start+0x3c1c>)
   2407c:	f003 ff62 	bl	27f44 <_ZN9allow_pin12dynamic_type7unshare17ha4091652f9b609c4E>
   24080:	4862      	ldr	r0, [pc, #392]	@ (2420c <_start+0x3c08>)
   24082:	4468      	add	r0, sp
   24084:	990e      	ldr	r1, [sp, #56]	@ 0x38
   24086:	7001      	strb	r1, [r0, #0]
   24088:	485f      	ldr	r0, [pc, #380]	@ (24208 <_start+0x3c04>)
   2408a:	4468      	add	r0, sp
   2408c:	7800      	ldrb	r0, [r0, #0]
   2408e:	9005      	str	r0, [sp, #20]
   24090:	2802      	cmp	r0, #2
   24092:	d004      	beq.n	2409e <_start+0x3a9a>
   24094:	2105      	movs	r1, #5
   24096:	4862      	ldr	r0, [pc, #392]	@ (24220 <_start+0x3c1c>)
   24098:	9a05      	ldr	r2, [sp, #20]
   2409a:	f003 ff53 	bl	27f44 <_ZN9allow_pin12dynamic_type7unshare17ha4091652f9b609c4E>
   2409e:	495a      	ldr	r1, [pc, #360]	@ (24208 <_start+0x3c04>)
   240a0:	4469      	add	r1, sp
   240a2:	980e      	ldr	r0, [sp, #56]	@ 0x38
   240a4:	7008      	strb	r0, [r1, #0]
   240a6:	9b06      	ldr	r3, [sp, #24]
   240a8:	7898      	ldrb	r0, [r3, #2]
   240aa:	aac9      	add	r2, sp, #804	@ 0x324
   240ac:	7090      	strb	r0, [r2, #2]
   240ae:	7818      	ldrb	r0, [r3, #0]
   240b0:	785b      	ldrb	r3, [r3, #1]
   240b2:	021b      	lsls	r3, r3, #8
   240b4:	1818      	adds	r0, r3, r0
   240b6:	8010      	strh	r0, [r2, #0]
   240b8:	980c      	ldr	r0, [sp, #48]	@ 0x30
   240ba:	6d40      	ldr	r0, [r0, #84]	@ 0x54
   240bc:	900f      	str	r0, [sp, #60]	@ 0x3c
   240be:	3108      	adds	r1, #8
   240c0:	a89f      	add	r0, sp, #636	@ 0x27c
   240c2:	223a      	movs	r2, #58	@ 0x3a
   240c4:	f004 f90b 	bl	282de <__aeabi_memcpy>
   240c8:	f7fe fd73 	bl	22bb2 <_start+0x25ae>
   240cc:	9809      	ldr	r0, [sp, #36]	@ 0x24
   240ce:	6800      	ldr	r0, [r0, #0]
   240d0:	900f      	str	r0, [sp, #60]	@ 0x3c
   240d2:	9a08      	ldr	r2, [sp, #32]
   240d4:	7890      	ldrb	r0, [r2, #2]
   240d6:	a9ff      	add	r1, sp, #1020	@ 0x3fc
   240d8:	318c      	adds	r1, #140	@ 0x8c
   240da:	7088      	strb	r0, [r1, #2]
   240dc:	7810      	ldrb	r0, [r2, #0]
   240de:	7852      	ldrb	r2, [r2, #1]
   240e0:	0212      	lsls	r2, r2, #8
   240e2:	1810      	adds	r0, r2, r0
   240e4:	8008      	strh	r0, [r1, #0]
   240e6:	a8c9      	add	r0, sp, #804	@ 0x324
   240e8:	222b      	movs	r2, #43	@ 0x2b
   240ea:	4631      	mov	r1, r6
   240ec:	f004 f8f7 	bl	282de <__aeabi_memcpy>
   240f0:	f7fe fcdf 	bl	22ab2 <_start+0x24ae>
   240f4:	4844      	ldr	r0, [pc, #272]	@ (24208 <_start+0x3c04>)
   240f6:	4468      	add	r0, sp
   240f8:	7802      	ldrb	r2, [r0, #0]
   240fa:	2a02      	cmp	r2, #2
   240fc:	d00d      	beq.n	2411a <_start+0x3b16>
   240fe:	2101      	movs	r1, #1
   24100:	4620      	mov	r0, r4
   24102:	f003 ff1f 	bl	27f44 <_ZN9allow_pin12dynamic_type7unshare17ha4091652f9b609c4E>
   24106:	4840      	ldr	r0, [pc, #256]	@ (24208 <_start+0x3c04>)
   24108:	4468      	add	r0, sp
   2410a:	990e      	ldr	r1, [sp, #56]	@ 0x38
   2410c:	7001      	strb	r1, [r0, #0]
   2410e:	a8ff      	add	r0, sp, #1020	@ 0x3fc
   24110:	30a4      	adds	r0, #164	@ 0xa4
   24112:	7800      	ldrb	r0, [r0, #0]
   24114:	9006      	str	r0, [sp, #24]
   24116:	2802      	cmp	r0, #2
   24118:	d004      	beq.n	24124 <_start+0x3b20>
   2411a:	2100      	movs	r1, #0
   2411c:	4620      	mov	r0, r4
   2411e:	9a06      	ldr	r2, [sp, #24]
   24120:	f003 ff10 	bl	27f44 <_ZN9allow_pin12dynamic_type7unshare17ha4091652f9b609c4E>
   24124:	a9ff      	add	r1, sp, #1020	@ 0x3fc
   24126:	31a4      	adds	r1, #164	@ 0xa4
   24128:	980e      	ldr	r0, [sp, #56]	@ 0x38
   2412a:	7008      	strb	r0, [r1, #0]
   2412c:	9b05      	ldr	r3, [sp, #20]
   2412e:	7898      	ldrb	r0, [r3, #2]
   24130:	aaff      	add	r2, sp, #1020	@ 0x3fc
   24132:	328c      	adds	r2, #140	@ 0x8c
   24134:	7090      	strb	r0, [r2, #2]
   24136:	7818      	ldrb	r0, [r3, #0]
   24138:	785b      	ldrb	r3, [r3, #1]
   2413a:	021b      	lsls	r3, r3, #8
   2413c:	1818      	adds	r0, r3, r0
   2413e:	8010      	strh	r0, [r2, #0]
   24140:	9809      	ldr	r0, [sp, #36]	@ 0x24
   24142:	6800      	ldr	r0, [r0, #0]
   24144:	900f      	str	r0, [sp, #60]	@ 0x3c
   24146:	3108      	adds	r1, #8
   24148:	a8c9      	add	r0, sp, #804	@ 0x324
   2414a:	221b      	movs	r2, #27
   2414c:	f004 f8c7 	bl	282de <__aeabi_memcpy>
   24150:	f7fe fdb1 	bl	22cb6 <_start+0x26b2>
   24154:	482d      	ldr	r0, [pc, #180]	@ (2420c <_start+0x3c08>)
   24156:	4468      	add	r0, sp
   24158:	f7fc f9f4 	bl	20544 <_ZN9allow_pin12dynamic_type23Buffer$LT$B$C$_$C$_$GT$7unallow17h65f49f2052c3d735E>
   2415c:	4e2a      	ldr	r6, [pc, #168]	@ (24208 <_start+0x3c04>)
   2415e:	446e      	add	r6, sp
   24160:	4630      	mov	r0, r6
   24162:	f7fc f9ef 	bl	20544 <_ZN9allow_pin12dynamic_type23Buffer$LT$B$C$_$C$_$GT$7unallow17h65f49f2052c3d735E>
   24166:	492f      	ldr	r1, [pc, #188]	@ (24224 <_start+0x3c20>)
   24168:	1dca      	adds	r2, r1, #7
   2416a:	7830      	ldrb	r0, [r6, #0]
   2416c:	3608      	adds	r6, #8
   2416e:	2802      	cmp	r0, #2
   24170:	d000      	beq.n	24174 <_start+0x3b70>
   24172:	4616      	mov	r6, r2
   24174:	d000      	beq.n	24178 <_start+0x3b74>
   24176:	9108      	str	r1, [sp, #32]
   24178:	2802      	cmp	r0, #2
   2417a:	d031      	beq.n	241e0 <_start+0x3bdc>
   2417c:	940f      	str	r4, [sp, #60]	@ 0x3c
   2417e:	e032      	b.n	241e6 <_start+0x3be2>
   24180:	4821      	ldr	r0, [pc, #132]	@ (24208 <_start+0x3c04>)
   24182:	4468      	add	r0, sp
   24184:	7802      	ldrb	r2, [r0, #0]
   24186:	2a02      	cmp	r2, #2
   24188:	d00d      	beq.n	241a6 <_start+0x3ba2>
   2418a:	4620      	mov	r0, r4
   2418c:	9908      	ldr	r1, [sp, #32]
   2418e:	f003 fed9 	bl	27f44 <_ZN9allow_pin12dynamic_type7unshare17ha4091652f9b609c4E>
   24192:	481d      	ldr	r0, [pc, #116]	@ (24208 <_start+0x3c04>)
   24194:	4468      	add	r0, sp
   24196:	9908      	ldr	r1, [sp, #32]
   24198:	7001      	strb	r1, [r0, #0]
   2419a:	a8ff      	add	r0, sp, #1020	@ 0x3fc
   2419c:	30a4      	adds	r0, #164	@ 0xa4
   2419e:	7800      	ldrb	r0, [r0, #0]
   241a0:	9005      	str	r0, [sp, #20]
   241a2:	2802      	cmp	r0, #2
   241a4:	d004      	beq.n	241b0 <_start+0x3bac>
   241a6:	2104      	movs	r1, #4
   241a8:	4620      	mov	r0, r4
   241aa:	9a05      	ldr	r2, [sp, #20]
   241ac:	f003 feca 	bl	27f44 <_ZN9allow_pin12dynamic_type7unshare17ha4091652f9b609c4E>
   241b0:	a9ff      	add	r1, sp, #1020	@ 0x3fc
   241b2:	31a4      	adds	r1, #164	@ 0xa4
   241b4:	9808      	ldr	r0, [sp, #32]
   241b6:	7008      	strb	r0, [r1, #0]
   241b8:	9b06      	ldr	r3, [sp, #24]
   241ba:	7898      	ldrb	r0, [r3, #2]
   241bc:	4a13      	ldr	r2, [pc, #76]	@ (2420c <_start+0x3c08>)
   241be:	446a      	add	r2, sp
   241c0:	7090      	strb	r0, [r2, #2]
   241c2:	7818      	ldrb	r0, [r3, #0]
   241c4:	785b      	ldrb	r3, [r3, #1]
   241c6:	021b      	lsls	r3, r3, #8
   241c8:	1818      	adds	r0, r3, r0
   241ca:	8010      	strh	r0, [r2, #0]
   241cc:	9809      	ldr	r0, [sp, #36]	@ 0x24
   241ce:	6800      	ldr	r0, [r0, #0]
   241d0:	900f      	str	r0, [sp, #60]	@ 0x3c
   241d2:	3108      	adds	r1, #8
   241d4:	a89f      	add	r0, sp, #636	@ 0x27c
   241d6:	2248      	movs	r2, #72	@ 0x48
   241d8:	f003 ff21 	bl	2801e <__aeabi_memcpy4>
   241dc:	f7fe fe51 	bl	22e82 <_start+0x287e>
   241e0:	980c      	ldr	r0, [sp, #48]	@ 0x30
   241e2:	6d40      	ldr	r0, [r0, #84]	@ 0x54
   241e4:	900f      	str	r0, [sp, #60]	@ 0x3c
   241e6:	9a08      	ldr	r2, [sp, #32]
   241e8:	7890      	ldrb	r0, [r2, #2]
   241ea:	a9c9      	add	r1, sp, #804	@ 0x324
   241ec:	7088      	strb	r0, [r1, #2]
   241ee:	7810      	ldrb	r0, [r2, #0]
   241f0:	7852      	ldrb	r2, [r2, #1]
   241f2:	0212      	lsls	r2, r2, #8
   241f4:	1810      	adds	r0, r2, r0
   241f6:	8008      	strh	r0, [r1, #0]
   241f8:	a89f      	add	r0, sp, #636	@ 0x27c
   241fa:	224a      	movs	r2, #74	@ 0x4a
   241fc:	4631      	mov	r1, r6
   241fe:	f004 f86e 	bl	282de <__aeabi_memcpy>
   24202:	f7fe fdbe 	bl	22d82 <_start+0x277e>
   24206:	46c0      	nop			@ (mov r8, r8)
   24208:	000005a8 	.word	0x000005a8
   2420c:	00000558 	.word	0x00000558
   24210:	00000653 	.word	0x00000653
   24214:	00001e4b 	.word	0x00001e4b
   24218:	0000032e 	.word	0x0000032e
   2421c:	00010135 	.word	0x00010135
   24220:	0000091d 	.word	0x0000091d
   24224:	000100e4 	.word	0x000100e4
   24228:	48fe      	ldr	r0, [pc, #1016]	@ (24624 <_start+0x4020>)
   2422a:	4468      	add	r0, sp
   2422c:	7802      	ldrb	r2, [r0, #0]
   2422e:	2a02      	cmp	r2, #2
   24230:	d00d      	beq.n	2424e <_start+0x3c4a>
   24232:	2108      	movs	r1, #8
   24234:	4620      	mov	r0, r4
   24236:	f003 fe85 	bl	27f44 <_ZN9allow_pin12dynamic_type7unshare17ha4091652f9b609c4E>
   2423a:	48fa      	ldr	r0, [pc, #1000]	@ (24624 <_start+0x4020>)
   2423c:	4468      	add	r0, sp
   2423e:	990e      	ldr	r1, [sp, #56]	@ 0x38
   24240:	7001      	strb	r1, [r0, #0]
   24242:	a8ff      	add	r0, sp, #1020	@ 0x3fc
   24244:	30a4      	adds	r0, #164	@ 0xa4
   24246:	7800      	ldrb	r0, [r0, #0]
   24248:	9005      	str	r0, [sp, #20]
   2424a:	2802      	cmp	r0, #2
   2424c:	d004      	beq.n	24258 <_start+0x3c54>
   2424e:	2105      	movs	r1, #5
   24250:	4620      	mov	r0, r4
   24252:	9a05      	ldr	r2, [sp, #20]
   24254:	f003 fe76 	bl	27f44 <_ZN9allow_pin12dynamic_type7unshare17ha4091652f9b609c4E>
   24258:	a9ff      	add	r1, sp, #1020	@ 0x3fc
   2425a:	31a4      	adds	r1, #164	@ 0xa4
   2425c:	980e      	ldr	r0, [sp, #56]	@ 0x38
   2425e:	7008      	strb	r0, [r1, #0]
   24260:	78b0      	ldrb	r0, [r6, #2]
   24262:	4af1      	ldr	r2, [pc, #964]	@ (24628 <_start+0x4024>)
   24264:	446a      	add	r2, sp
   24266:	7090      	strb	r0, [r2, #2]
   24268:	7830      	ldrb	r0, [r6, #0]
   2426a:	7873      	ldrb	r3, [r6, #1]
   2426c:	021b      	lsls	r3, r3, #8
   2426e:	1818      	adds	r0, r3, r0
   24270:	8010      	strh	r0, [r2, #0]
   24272:	9809      	ldr	r0, [sp, #36]	@ 0x24
   24274:	6800      	ldr	r0, [r0, #0]
   24276:	900f      	str	r0, [sp, #60]	@ 0x3c
   24278:	3108      	adds	r1, #8
   2427a:	a89f      	add	r0, sp, #636	@ 0x27c
   2427c:	2234      	movs	r2, #52	@ 0x34
   2427e:	f004 f82e 	bl	282de <__aeabi_memcpy>
   24282:	f7fe fe77 	bl	22f74 <_start+0x2970>
   24286:	48e7      	ldr	r0, [pc, #924]	@ (24624 <_start+0x4020>)
   24288:	4468      	add	r0, sp
   2428a:	7802      	ldrb	r2, [r0, #0]
   2428c:	2a02      	cmp	r2, #2
   2428e:	d00d      	beq.n	242ac <_start+0x3ca8>
   24290:	2105      	movs	r1, #5
   24292:	4620      	mov	r0, r4
   24294:	f003 fe56 	bl	27f44 <_ZN9allow_pin12dynamic_type7unshare17ha4091652f9b609c4E>
   24298:	48e2      	ldr	r0, [pc, #904]	@ (24624 <_start+0x4020>)
   2429a:	4468      	add	r0, sp
   2429c:	990e      	ldr	r1, [sp, #56]	@ 0x38
   2429e:	7001      	strb	r1, [r0, #0]
   242a0:	a8ff      	add	r0, sp, #1020	@ 0x3fc
   242a2:	30a4      	adds	r0, #164	@ 0xa4
   242a4:	7800      	ldrb	r0, [r0, #0]
   242a6:	9005      	str	r0, [sp, #20]
   242a8:	2802      	cmp	r0, #2
   242aa:	d004      	beq.n	242b6 <_start+0x3cb2>
   242ac:	2103      	movs	r1, #3
   242ae:	4620      	mov	r0, r4
   242b0:	9a05      	ldr	r2, [sp, #20]
   242b2:	f003 fe47 	bl	27f44 <_ZN9allow_pin12dynamic_type7unshare17ha4091652f9b609c4E>
   242b6:	a9ff      	add	r1, sp, #1020	@ 0x3fc
   242b8:	31a4      	adds	r1, #164	@ 0xa4
   242ba:	980e      	ldr	r0, [sp, #56]	@ 0x38
   242bc:	7008      	strb	r0, [r1, #0]
   242be:	9b06      	ldr	r3, [sp, #24]
   242c0:	7898      	ldrb	r0, [r3, #2]
   242c2:	4ad9      	ldr	r2, [pc, #868]	@ (24628 <_start+0x4024>)
   242c4:	446a      	add	r2, sp
   242c6:	7090      	strb	r0, [r2, #2]
   242c8:	7818      	ldrb	r0, [r3, #0]
   242ca:	785b      	ldrb	r3, [r3, #1]
   242cc:	021b      	lsls	r3, r3, #8
   242ce:	1818      	adds	r0, r3, r0
   242d0:	8010      	strh	r0, [r2, #0]
   242d2:	9809      	ldr	r0, [sp, #36]	@ 0x24
   242d4:	6800      	ldr	r0, [r0, #0]
   242d6:	900f      	str	r0, [sp, #60]	@ 0x3c
   242d8:	3108      	adds	r1, #8
   242da:	a89f      	add	r0, sp, #636	@ 0x27c
   242dc:	2220      	movs	r2, #32
   242de:	f003 fffe 	bl	282de <__aeabi_memcpy>
   242e2:	f7fe febe 	bl	23062 <_start+0x2a5e>
   242e6:	48cf      	ldr	r0, [pc, #828]	@ (24624 <_start+0x4020>)
   242e8:	4468      	add	r0, sp
   242ea:	7802      	ldrb	r2, [r0, #0]
   242ec:	2a02      	cmp	r2, #2
   242ee:	d00d      	beq.n	2430c <_start+0x3d08>
   242f0:	2106      	movs	r1, #6
   242f2:	48ce      	ldr	r0, [pc, #824]	@ (2462c <_start+0x4028>)
   242f4:	f003 fe26 	bl	27f44 <_ZN9allow_pin12dynamic_type7unshare17ha4091652f9b609c4E>
   242f8:	48ca      	ldr	r0, [pc, #808]	@ (24624 <_start+0x4020>)
   242fa:	4468      	add	r0, sp
   242fc:	990e      	ldr	r1, [sp, #56]	@ 0x38
   242fe:	7001      	strb	r1, [r0, #0]
   24300:	a8ff      	add	r0, sp, #1020	@ 0x3fc
   24302:	30a4      	adds	r0, #164	@ 0xa4
   24304:	7800      	ldrb	r0, [r0, #0]
   24306:	9005      	str	r0, [sp, #20]
   24308:	2802      	cmp	r0, #2
   2430a:	d004      	beq.n	24316 <_start+0x3d12>
   2430c:	2105      	movs	r1, #5
   2430e:	48c7      	ldr	r0, [pc, #796]	@ (2462c <_start+0x4028>)
   24310:	9a05      	ldr	r2, [sp, #20]
   24312:	f003 fe17 	bl	27f44 <_ZN9allow_pin12dynamic_type7unshare17ha4091652f9b609c4E>
   24316:	a8ff      	add	r0, sp, #1020	@ 0x3fc
   24318:	30a4      	adds	r0, #164	@ 0xa4
   2431a:	990e      	ldr	r1, [sp, #56]	@ 0x38
   2431c:	7001      	strb	r1, [r0, #0]
   2431e:	78b1      	ldrb	r1, [r6, #2]
   24320:	aaff      	add	r2, sp, #1020	@ 0x3fc
   24322:	328c      	adds	r2, #140	@ 0x8c
   24324:	7091      	strb	r1, [r2, #2]
   24326:	7831      	ldrb	r1, [r6, #0]
   24328:	7873      	ldrb	r3, [r6, #1]
   2432a:	021b      	lsls	r3, r3, #8
   2432c:	1859      	adds	r1, r3, r1
   2432e:	8011      	strh	r1, [r2, #0]
   24330:	3008      	adds	r0, #8
   24332:	9909      	ldr	r1, [sp, #36]	@ 0x24
   24334:	6809      	ldr	r1, [r1, #0]
   24336:	910f      	str	r1, [sp, #60]	@ 0x3c
   24338:	a9c9      	add	r1, sp, #804	@ 0x324
   2433a:	c81c      	ldmia	r0!, {r2, r3, r4}
   2433c:	c11c      	stmia	r1!, {r2, r3, r4}
   2433e:	7800      	ldrb	r0, [r0, #0]
   24340:	7008      	strb	r0, [r1, #0]
   24342:	f7fe ff07 	bl	23154 <_start+0x2b50>
   24346:	a89f      	add	r0, sp, #636	@ 0x27c
   24348:	7802      	ldrb	r2, [r0, #0]
   2434a:	2a02      	cmp	r2, #2
   2434c:	d00c      	beq.n	24368 <_start+0x3d64>
   2434e:	2108      	movs	r1, #8
   24350:	4620      	mov	r0, r4
   24352:	f003 fdf7 	bl	27f44 <_ZN9allow_pin12dynamic_type7unshare17ha4091652f9b609c4E>
   24356:	a89f      	add	r0, sp, #636	@ 0x27c
   24358:	990e      	ldr	r1, [sp, #56]	@ 0x38
   2435a:	7001      	strb	r1, [r0, #0]
   2435c:	48b1      	ldr	r0, [pc, #708]	@ (24624 <_start+0x4020>)
   2435e:	4468      	add	r0, sp
   24360:	7800      	ldrb	r0, [r0, #0]
   24362:	9005      	str	r0, [sp, #20]
   24364:	2802      	cmp	r0, #2
   24366:	d004      	beq.n	24372 <_start+0x3d6e>
   24368:	2104      	movs	r1, #4
   2436a:	4620      	mov	r0, r4
   2436c:	9a05      	ldr	r2, [sp, #20]
   2436e:	f003 fde9 	bl	27f44 <_ZN9allow_pin12dynamic_type7unshare17ha4091652f9b609c4E>
   24372:	49ac      	ldr	r1, [pc, #688]	@ (24624 <_start+0x4020>)
   24374:	4469      	add	r1, sp
   24376:	980e      	ldr	r0, [sp, #56]	@ 0x38
   24378:	7008      	strb	r0, [r1, #0]
   2437a:	9b06      	ldr	r3, [sp, #24]
   2437c:	7898      	ldrb	r0, [r3, #2]
   2437e:	4aaa      	ldr	r2, [pc, #680]	@ (24628 <_start+0x4024>)
   24380:	446a      	add	r2, sp
   24382:	7090      	strb	r0, [r2, #2]
   24384:	7818      	ldrb	r0, [r3, #0]
   24386:	785b      	ldrb	r3, [r3, #1]
   24388:	021b      	lsls	r3, r3, #8
   2438a:	1818      	adds	r0, r3, r0
   2438c:	8010      	strh	r0, [r2, #0]
   2438e:	980c      	ldr	r0, [sp, #48]	@ 0x30
   24390:	6d40      	ldr	r0, [r0, #84]	@ 0x54
   24392:	900f      	str	r0, [sp, #60]	@ 0x3c
   24394:	3108      	adds	r1, #8
   24396:	a8ff      	add	r0, sp, #1020	@ 0x3fc
   24398:	30a4      	adds	r0, #164	@ 0xa4
   2439a:	2224      	movs	r2, #36	@ 0x24
   2439c:	f003 ff9f 	bl	282de <__aeabi_memcpy>
   243a0:	f7fe ff55 	bl	2324e <_start+0x2c4a>
   243a4:	489f      	ldr	r0, [pc, #636]	@ (24624 <_start+0x4020>)
   243a6:	4468      	add	r0, sp
   243a8:	7802      	ldrb	r2, [r0, #0]
   243aa:	2a02      	cmp	r2, #2
   243ac:	d00d      	beq.n	243ca <_start+0x3dc6>
   243ae:	2107      	movs	r1, #7
   243b0:	9808      	ldr	r0, [sp, #32]
   243b2:	f003 fdc7 	bl	27f44 <_ZN9allow_pin12dynamic_type7unshare17ha4091652f9b609c4E>
   243b6:	489b      	ldr	r0, [pc, #620]	@ (24624 <_start+0x4020>)
   243b8:	4468      	add	r0, sp
   243ba:	990e      	ldr	r1, [sp, #56]	@ 0x38
   243bc:	7001      	strb	r1, [r0, #0]
   243be:	a8ff      	add	r0, sp, #1020	@ 0x3fc
   243c0:	30a4      	adds	r0, #164	@ 0xa4
   243c2:	7800      	ldrb	r0, [r0, #0]
   243c4:	9005      	str	r0, [sp, #20]
   243c6:	2802      	cmp	r0, #2
   243c8:	d004      	beq.n	243d4 <_start+0x3dd0>
   243ca:	2108      	movs	r1, #8
   243cc:	9808      	ldr	r0, [sp, #32]
   243ce:	9a05      	ldr	r2, [sp, #20]
   243d0:	f003 fdb8 	bl	27f44 <_ZN9allow_pin12dynamic_type7unshare17ha4091652f9b609c4E>
   243d4:	a9ff      	add	r1, sp, #1020	@ 0x3fc
   243d6:	31a4      	adds	r1, #164	@ 0xa4
   243d8:	980e      	ldr	r0, [sp, #56]	@ 0x38
   243da:	7008      	strb	r0, [r1, #0]
   243dc:	78b0      	ldrb	r0, [r6, #2]
   243de:	aaff      	add	r2, sp, #1020	@ 0x3fc
   243e0:	328c      	adds	r2, #140	@ 0x8c
   243e2:	7090      	strb	r0, [r2, #2]
   243e4:	7830      	ldrb	r0, [r6, #0]
   243e6:	7873      	ldrb	r3, [r6, #1]
   243e8:	021b      	lsls	r3, r3, #8
   243ea:	1818      	adds	r0, r3, r0
   243ec:	8010      	strh	r0, [r2, #0]
   243ee:	9809      	ldr	r0, [sp, #36]	@ 0x24
   243f0:	6800      	ldr	r0, [r0, #0]
   243f2:	900f      	str	r0, [sp, #60]	@ 0x3c
   243f4:	3108      	adds	r1, #8
   243f6:	a8c9      	add	r0, sp, #804	@ 0x324
   243f8:	2217      	movs	r2, #23
   243fa:	f003 ff70 	bl	282de <__aeabi_memcpy>
   243fe:	f7fe ff9e 	bl	2333e <_start+0x2d3a>
   24402:	4889      	ldr	r0, [pc, #548]	@ (24628 <_start+0x4024>)
   24404:	4468      	add	r0, sp
   24406:	7802      	ldrb	r2, [r0, #0]
   24408:	2a02      	cmp	r2, #2
   2440a:	d00c      	beq.n	24426 <_start+0x3e22>
   2440c:	4888      	ldr	r0, [pc, #544]	@ (24630 <_start+0x402c>)
   2440e:	4631      	mov	r1, r6
   24410:	f003 fd98 	bl	27f44 <_ZN9allow_pin12dynamic_type7unshare17ha4091652f9b609c4E>
   24414:	4884      	ldr	r0, [pc, #528]	@ (24628 <_start+0x4024>)
   24416:	4468      	add	r0, sp
   24418:	7006      	strb	r6, [r0, #0]
   2441a:	4882      	ldr	r0, [pc, #520]	@ (24624 <_start+0x4020>)
   2441c:	4468      	add	r0, sp
   2441e:	7800      	ldrb	r0, [r0, #0]
   24420:	9005      	str	r0, [sp, #20]
   24422:	2802      	cmp	r0, #2
   24424:	d004      	beq.n	24430 <_start+0x3e2c>
   24426:	2100      	movs	r1, #0
   24428:	4881      	ldr	r0, [pc, #516]	@ (24630 <_start+0x402c>)
   2442a:	9a05      	ldr	r2, [sp, #20]
   2442c:	f003 fd8a 	bl	27f44 <_ZN9allow_pin12dynamic_type7unshare17ha4091652f9b609c4E>
   24430:	497c      	ldr	r1, [pc, #496]	@ (24624 <_start+0x4020>)
   24432:	4469      	add	r1, sp
   24434:	700e      	strb	r6, [r1, #0]
   24436:	9b06      	ldr	r3, [sp, #24]
   24438:	7898      	ldrb	r0, [r3, #2]
   2443a:	aac9      	add	r2, sp, #804	@ 0x324
   2443c:	7090      	strb	r0, [r2, #2]
   2443e:	7818      	ldrb	r0, [r3, #0]
   24440:	785b      	ldrb	r3, [r3, #1]
   24442:	021b      	lsls	r3, r3, #8
   24444:	1818      	adds	r0, r3, r0
   24446:	8010      	strh	r0, [r2, #0]
   24448:	980c      	ldr	r0, [sp, #48]	@ 0x30
   2444a:	6d40      	ldr	r0, [r0, #84]	@ 0x54
   2444c:	900f      	str	r0, [sp, #60]	@ 0x3c
   2444e:	3108      	adds	r1, #8
   24450:	a89f      	add	r0, sp, #636	@ 0x27c
   24452:	224a      	movs	r2, #74	@ 0x4a
   24454:	f003 fde3 	bl	2801e <__aeabi_memcpy4>
   24458:	f7fe ffe9 	bl	2342e <_start+0x2e2a>
   2445c:	4871      	ldr	r0, [pc, #452]	@ (24624 <_start+0x4020>)
   2445e:	4468      	add	r0, sp
   24460:	7802      	ldrb	r2, [r0, #0]
   24462:	2a02      	cmp	r2, #2
   24464:	d00d      	beq.n	24482 <_start+0x3e7e>
   24466:	2100      	movs	r1, #0
   24468:	4872      	ldr	r0, [pc, #456]	@ (24634 <_start+0x4030>)
   2446a:	f003 fd6b 	bl	27f44 <_ZN9allow_pin12dynamic_type7unshare17ha4091652f9b609c4E>
   2446e:	486d      	ldr	r0, [pc, #436]	@ (24624 <_start+0x4020>)
   24470:	4468      	add	r0, sp
   24472:	990e      	ldr	r1, [sp, #56]	@ 0x38
   24474:	7001      	strb	r1, [r0, #0]
   24476:	a8ff      	add	r0, sp, #1020	@ 0x3fc
   24478:	30a4      	adds	r0, #164	@ 0xa4
   2447a:	7800      	ldrb	r0, [r0, #0]
   2447c:	9005      	str	r0, [sp, #20]
   2447e:	2802      	cmp	r0, #2
   24480:	d004      	beq.n	2448c <_start+0x3e88>
   24482:	2103      	movs	r1, #3
   24484:	486b      	ldr	r0, [pc, #428]	@ (24634 <_start+0x4030>)
   24486:	9a05      	ldr	r2, [sp, #20]
   24488:	f003 fd5c 	bl	27f44 <_ZN9allow_pin12dynamic_type7unshare17ha4091652f9b609c4E>
   2448c:	a8ff      	add	r0, sp, #1020	@ 0x3fc
   2448e:	30a4      	adds	r0, #164	@ 0xa4
   24490:	990e      	ldr	r1, [sp, #56]	@ 0x38
   24492:	7001      	strb	r1, [r0, #0]
   24494:	9a06      	ldr	r2, [sp, #24]
   24496:	7890      	ldrb	r0, [r2, #2]
   24498:	a99f      	add	r1, sp, #636	@ 0x27c
   2449a:	7088      	strb	r0, [r1, #2]
   2449c:	7810      	ldrb	r0, [r2, #0]
   2449e:	7852      	ldrb	r2, [r2, #1]
   244a0:	0212      	lsls	r2, r2, #8
   244a2:	1810      	adds	r0, r2, r0
   244a4:	8008      	strh	r0, [r1, #0]
   244a6:	9809      	ldr	r0, [sp, #36]	@ 0x24
   244a8:	6801      	ldr	r1, [r0, #0]
   244aa:	910f      	str	r1, [sp, #60]	@ 0x3c
   244ac:	6841      	ldr	r1, [r0, #4]
   244ae:	9105      	str	r1, [sp, #20]
   244b0:	6886      	ldr	r6, [r0, #8]
   244b2:	f7ff f83a 	bl	2352a <_start+0x2f26>
   244b6:	485c      	ldr	r0, [pc, #368]	@ (24628 <_start+0x4024>)
   244b8:	4468      	add	r0, sp
   244ba:	7802      	ldrb	r2, [r0, #0]
   244bc:	2a02      	cmp	r2, #2
   244be:	d00c      	beq.n	244da <_start+0x3ed6>
   244c0:	2109      	movs	r1, #9
   244c2:	485d      	ldr	r0, [pc, #372]	@ (24638 <_start+0x4034>)
   244c4:	f003 fd3e 	bl	27f44 <_ZN9allow_pin12dynamic_type7unshare17ha4091652f9b609c4E>
   244c8:	4857      	ldr	r0, [pc, #348]	@ (24628 <_start+0x4024>)
   244ca:	4468      	add	r0, sp
   244cc:	7004      	strb	r4, [r0, #0]
   244ce:	4855      	ldr	r0, [pc, #340]	@ (24624 <_start+0x4020>)
   244d0:	4468      	add	r0, sp
   244d2:	7800      	ldrb	r0, [r0, #0]
   244d4:	9006      	str	r0, [sp, #24]
   244d6:	2802      	cmp	r0, #2
   244d8:	d004      	beq.n	244e4 <_start+0x3ee0>
   244da:	2102      	movs	r1, #2
   244dc:	4856      	ldr	r0, [pc, #344]	@ (24638 <_start+0x4034>)
   244de:	9a06      	ldr	r2, [sp, #24]
   244e0:	f003 fd30 	bl	27f44 <_ZN9allow_pin12dynamic_type7unshare17ha4091652f9b609c4E>
   244e4:	494f      	ldr	r1, [pc, #316]	@ (24624 <_start+0x4020>)
   244e6:	4469      	add	r1, sp
   244e8:	700c      	strb	r4, [r1, #0]
   244ea:	9b05      	ldr	r3, [sp, #20]
   244ec:	7898      	ldrb	r0, [r3, #2]
   244ee:	aac9      	add	r2, sp, #804	@ 0x324
   244f0:	7090      	strb	r0, [r2, #2]
   244f2:	7818      	ldrb	r0, [r3, #0]
   244f4:	785b      	ldrb	r3, [r3, #1]
   244f6:	021b      	lsls	r3, r3, #8
   244f8:	1818      	adds	r0, r3, r0
   244fa:	8010      	strh	r0, [r2, #0]
   244fc:	980c      	ldr	r0, [sp, #48]	@ 0x30
   244fe:	6d40      	ldr	r0, [r0, #84]	@ 0x54
   24500:	900f      	str	r0, [sp, #60]	@ 0x3c
   24502:	3108      	adds	r1, #8
   24504:	a89f      	add	r0, sp, #636	@ 0x27c
   24506:	223f      	movs	r2, #63	@ 0x3f
   24508:	f003 fee9 	bl	282de <__aeabi_memcpy>
   2450c:	f7ff f893 	bl	23636 <_start+0x3032>
   24510:	4845      	ldr	r0, [pc, #276]	@ (24628 <_start+0x4024>)
   24512:	4468      	add	r0, sp
   24514:	7802      	ldrb	r2, [r0, #0]
   24516:	2a02      	cmp	r2, #2
   24518:	d00d      	beq.n	24536 <_start+0x3f32>
   2451a:	2107      	movs	r1, #7
   2451c:	4620      	mov	r0, r4
   2451e:	f003 fd11 	bl	27f44 <_ZN9allow_pin12dynamic_type7unshare17ha4091652f9b609c4E>
   24522:	4841      	ldr	r0, [pc, #260]	@ (24628 <_start+0x4024>)
   24524:	4468      	add	r0, sp
   24526:	990e      	ldr	r1, [sp, #56]	@ 0x38
   24528:	7001      	strb	r1, [r0, #0]
   2452a:	483e      	ldr	r0, [pc, #248]	@ (24624 <_start+0x4020>)
   2452c:	4468      	add	r0, sp
   2452e:	7800      	ldrb	r0, [r0, #0]
   24530:	9005      	str	r0, [sp, #20]
   24532:	2802      	cmp	r0, #2
   24534:	d004      	beq.n	24540 <_start+0x3f3c>
   24536:	2103      	movs	r1, #3
   24538:	4620      	mov	r0, r4
   2453a:	9a05      	ldr	r2, [sp, #20]
   2453c:	f003 fd02 	bl	27f44 <_ZN9allow_pin12dynamic_type7unshare17ha4091652f9b609c4E>
   24540:	4938      	ldr	r1, [pc, #224]	@ (24624 <_start+0x4020>)
   24542:	4469      	add	r1, sp
   24544:	980e      	ldr	r0, [sp, #56]	@ 0x38
   24546:	7008      	strb	r0, [r1, #0]
   24548:	9b0a      	ldr	r3, [sp, #40]	@ 0x28
   2454a:	7898      	ldrb	r0, [r3, #2]
   2454c:	aac9      	add	r2, sp, #804	@ 0x324
   2454e:	7090      	strb	r0, [r2, #2]
   24550:	7818      	ldrb	r0, [r3, #0]
   24552:	785b      	ldrb	r3, [r3, #1]
   24554:	021b      	lsls	r3, r3, #8
   24556:	1818      	adds	r0, r3, r0
   24558:	8010      	strh	r0, [r2, #0]
   2455a:	980c      	ldr	r0, [sp, #48]	@ 0x30
   2455c:	6d40      	ldr	r0, [r0, #84]	@ 0x54
   2455e:	900f      	str	r0, [sp, #60]	@ 0x3c
   24560:	3108      	adds	r1, #8
   24562:	a89f      	add	r0, sp, #636	@ 0x27c
   24564:	224f      	movs	r2, #79	@ 0x4f
   24566:	f003 fd5a 	bl	2801e <__aeabi_memcpy4>
   2456a:	f7ff f8e6 	bl	2373a <_start+0x3136>
   2456e:	482d      	ldr	r0, [pc, #180]	@ (24624 <_start+0x4020>)
   24570:	4468      	add	r0, sp
   24572:	f7fb ffd7 	bl	20524 <_ZN9allow_pin12dynamic_type23Buffer$LT$B$C$_$C$_$GT$7unallow17h617ff1947564eee9E>
   24576:	aeff      	add	r6, sp, #1020	@ 0x3fc
   24578:	36a4      	adds	r6, #164	@ 0xa4
   2457a:	4630      	mov	r0, r6
   2457c:	f7fb ffd2 	bl	20524 <_ZN9allow_pin12dynamic_type23Buffer$LT$B$C$_$C$_$GT$7unallow17h617ff1947564eee9E>
   24580:	492e      	ldr	r1, [pc, #184]	@ (2463c <_start+0x4038>)
   24582:	1dca      	adds	r2, r1, #7
   24584:	7830      	ldrb	r0, [r6, #0]
   24586:	3608      	adds	r6, #8
   24588:	2802      	cmp	r0, #2
   2458a:	d000      	beq.n	2458e <_start+0x3f8a>
   2458c:	4616      	mov	r6, r2
   2458e:	d000      	beq.n	24592 <_start+0x3f8e>
   24590:	910a      	str	r1, [sp, #40]	@ 0x28
   24592:	2802      	cmp	r0, #2
   24594:	d031      	beq.n	245fa <_start+0x3ff6>
   24596:	940f      	str	r4, [sp, #60]	@ 0x3c
   24598:	e032      	b.n	24600 <_start+0x3ffc>
   2459a:	4822      	ldr	r0, [pc, #136]	@ (24624 <_start+0x4020>)
   2459c:	4468      	add	r0, sp
   2459e:	7802      	ldrb	r2, [r0, #0]
   245a0:	2a02      	cmp	r2, #2
   245a2:	d00d      	beq.n	245c0 <_start+0x3fbc>
   245a4:	2107      	movs	r1, #7
   245a6:	4620      	mov	r0, r4
   245a8:	f003 fccc 	bl	27f44 <_ZN9allow_pin12dynamic_type7unshare17ha4091652f9b609c4E>
   245ac:	481d      	ldr	r0, [pc, #116]	@ (24624 <_start+0x4020>)
   245ae:	4468      	add	r0, sp
   245b0:	990e      	ldr	r1, [sp, #56]	@ 0x38
   245b2:	7001      	strb	r1, [r0, #0]
   245b4:	a8ff      	add	r0, sp, #1020	@ 0x3fc
   245b6:	30a4      	adds	r0, #164	@ 0xa4
   245b8:	7800      	ldrb	r0, [r0, #0]
   245ba:	9006      	str	r0, [sp, #24]
   245bc:	2802      	cmp	r0, #2
   245be:	d004      	beq.n	245ca <_start+0x3fc6>
   245c0:	2101      	movs	r1, #1
   245c2:	4620      	mov	r0, r4
   245c4:	9a06      	ldr	r2, [sp, #24]
   245c6:	f003 fcbd 	bl	27f44 <_ZN9allow_pin12dynamic_type7unshare17ha4091652f9b609c4E>
   245ca:	a9ff      	add	r1, sp, #1020	@ 0x3fc
   245cc:	31a4      	adds	r1, #164	@ 0xa4
   245ce:	980e      	ldr	r0, [sp, #56]	@ 0x38
   245d0:	7008      	strb	r0, [r1, #0]
   245d2:	9b08      	ldr	r3, [sp, #32]
   245d4:	7898      	ldrb	r0, [r3, #2]
   245d6:	4a14      	ldr	r2, [pc, #80]	@ (24628 <_start+0x4024>)
   245d8:	446a      	add	r2, sp
   245da:	7090      	strb	r0, [r2, #2]
   245dc:	7818      	ldrb	r0, [r3, #0]
   245de:	785b      	ldrb	r3, [r3, #1]
   245e0:	021b      	lsls	r3, r3, #8
   245e2:	1818      	adds	r0, r3, r0
   245e4:	8010      	strh	r0, [r2, #0]
   245e6:	9809      	ldr	r0, [sp, #36]	@ 0x24
   245e8:	6800      	ldr	r0, [r0, #0]
   245ea:	900f      	str	r0, [sp, #60]	@ 0x3c
   245ec:	3108      	adds	r1, #8
   245ee:	a89f      	add	r0, sp, #636	@ 0x27c
   245f0:	221c      	movs	r2, #28
   245f2:	f003 fe74 	bl	282de <__aeabi_memcpy>
   245f6:	f7ff f982 	bl	238fe <_start+0x32fa>
   245fa:	9809      	ldr	r0, [sp, #36]	@ 0x24
   245fc:	6800      	ldr	r0, [r0, #0]
   245fe:	900f      	str	r0, [sp, #60]	@ 0x3c
   24600:	9a0a      	ldr	r2, [sp, #40]	@ 0x28
   24602:	7890      	ldrb	r0, [r2, #2]
   24604:	a9c9      	add	r1, sp, #804	@ 0x324
   24606:	7088      	strb	r0, [r1, #2]
   24608:	7810      	ldrb	r0, [r2, #0]
   2460a:	7852      	ldrb	r2, [r2, #1]
   2460c:	0212      	lsls	r2, r2, #8
   2460e:	1810      	adds	r0, r2, r0
   24610:	8008      	strh	r0, [r1, #0]
   24612:	4805      	ldr	r0, [pc, #20]	@ (24628 <_start+0x4024>)
   24614:	4468      	add	r0, sp
   24616:	2242      	movs	r2, #66	@ 0x42
   24618:	4631      	mov	r1, r6
   2461a:	f003 fe60 	bl	282de <__aeabi_memcpy>
   2461e:	f7ff f8f0 	bl	23802 <_start+0x31fe>
   24622:	46c0      	nop			@ (mov r8, r8)
   24624:	000005a8 	.word	0x000005a8
   24628:	00000558 	.word	0x00000558
   2462c:	000022c9 	.word	0x000022c9
   24630:	0000196b 	.word	0x0000196b
   24634:	000013bf 	.word	0x000013bf
   24638:	00001d7e 	.word	0x00001d7e
   2463c:	000101bd 	.word	0x000101bd
   24640:	a8ff      	add	r0, sp, #1020	@ 0x3fc
   24642:	30a4      	adds	r0, #164	@ 0xa4
   24644:	7802      	ldrb	r2, [r0, #0]
   24646:	2a02      	cmp	r2, #2
   24648:	d00d      	beq.n	24666 <_start+0x4062>
   2464a:	48fb      	ldr	r0, [pc, #1004]	@ (24a38 <_start+0x4434>)
   2464c:	990a      	ldr	r1, [sp, #40]	@ 0x28
   2464e:	f003 fc79 	bl	27f44 <_ZN9allow_pin12dynamic_type7unshare17ha4091652f9b609c4E>
   24652:	a8ff      	add	r0, sp, #1020	@ 0x3fc
   24654:	30a4      	adds	r0, #164	@ 0xa4
   24656:	990a      	ldr	r1, [sp, #40]	@ 0x28
   24658:	7001      	strb	r1, [r0, #0]
   2465a:	48f8      	ldr	r0, [pc, #992]	@ (24a3c <_start+0x4438>)
   2465c:	4468      	add	r0, sp
   2465e:	7800      	ldrb	r0, [r0, #0]
   24660:	9006      	str	r0, [sp, #24]
   24662:	2802      	cmp	r0, #2
   24664:	d004      	beq.n	24670 <_start+0x406c>
   24666:	2100      	movs	r1, #0
   24668:	48f3      	ldr	r0, [pc, #972]	@ (24a38 <_start+0x4434>)
   2466a:	9a06      	ldr	r2, [sp, #24]
   2466c:	f003 fc6a 	bl	27f44 <_ZN9allow_pin12dynamic_type7unshare17ha4091652f9b609c4E>
   24670:	49f2      	ldr	r1, [pc, #968]	@ (24a3c <_start+0x4438>)
   24672:	4469      	add	r1, sp
   24674:	980a      	ldr	r0, [sp, #40]	@ 0x28
   24676:	7008      	strb	r0, [r1, #0]
   24678:	78a0      	ldrb	r0, [r4, #2]
   2467a:	4af1      	ldr	r2, [pc, #964]	@ (24a40 <_start+0x443c>)
   2467c:	446a      	add	r2, sp
   2467e:	7090      	strb	r0, [r2, #2]
   24680:	7820      	ldrb	r0, [r4, #0]
   24682:	7863      	ldrb	r3, [r4, #1]
   24684:	021b      	lsls	r3, r3, #8
   24686:	1818      	adds	r0, r3, r0
   24688:	8010      	strh	r0, [r2, #0]
   2468a:	980c      	ldr	r0, [sp, #48]	@ 0x30
   2468c:	6d40      	ldr	r0, [r0, #84]	@ 0x54
   2468e:	900f      	str	r0, [sp, #60]	@ 0x3c
   24690:	3108      	adds	r1, #8
   24692:	a89f      	add	r0, sp, #636	@ 0x27c
   24694:	2224      	movs	r2, #36	@ 0x24
   24696:	f003 fe22 	bl	282de <__aeabi_memcpy>
   2469a:	f7ff f9a7 	bl	239ec <_start+0x33e8>
   2469e:	48e7      	ldr	r0, [pc, #924]	@ (24a3c <_start+0x4438>)
   246a0:	4468      	add	r0, sp
   246a2:	7802      	ldrb	r2, [r0, #0]
   246a4:	2a02      	cmp	r2, #2
   246a6:	d00d      	beq.n	246c4 <_start+0x40c0>
   246a8:	2106      	movs	r1, #6
   246aa:	4620      	mov	r0, r4
   246ac:	f003 fc4a 	bl	27f44 <_ZN9allow_pin12dynamic_type7unshare17ha4091652f9b609c4E>
   246b0:	48e2      	ldr	r0, [pc, #904]	@ (24a3c <_start+0x4438>)
   246b2:	4468      	add	r0, sp
   246b4:	990e      	ldr	r1, [sp, #56]	@ 0x38
   246b6:	7001      	strb	r1, [r0, #0]
   246b8:	a8ff      	add	r0, sp, #1020	@ 0x3fc
   246ba:	30a4      	adds	r0, #164	@ 0xa4
   246bc:	7800      	ldrb	r0, [r0, #0]
   246be:	9006      	str	r0, [sp, #24]
   246c0:	2802      	cmp	r0, #2
   246c2:	d004      	beq.n	246ce <_start+0x40ca>
   246c4:	2100      	movs	r1, #0
   246c6:	4620      	mov	r0, r4
   246c8:	9a06      	ldr	r2, [sp, #24]
   246ca:	f003 fc3b 	bl	27f44 <_ZN9allow_pin12dynamic_type7unshare17ha4091652f9b609c4E>
   246ce:	a8ff      	add	r0, sp, #1020	@ 0x3fc
   246d0:	30a4      	adds	r0, #164	@ 0xa4
   246d2:	990e      	ldr	r1, [sp, #56]	@ 0x38
   246d4:	7001      	strb	r1, [r0, #0]
   246d6:	a8c9      	add	r0, sp, #804	@ 0x324
   246d8:	9b09      	ldr	r3, [sp, #36]	@ 0x24
   246da:	6899      	ldr	r1, [r3, #8]
   246dc:	8081      	strh	r1, [r0, #4]
   246de:	78b0      	ldrb	r0, [r6, #2]
   246e0:	a9ff      	add	r1, sp, #1020	@ 0x3fc
   246e2:	318c      	adds	r1, #140	@ 0x8c
   246e4:	7088      	strb	r0, [r1, #2]
   246e6:	7830      	ldrb	r0, [r6, #0]
   246e8:	7872      	ldrb	r2, [r6, #1]
   246ea:	0212      	lsls	r2, r2, #8
   246ec:	1810      	adds	r0, r2, r0
   246ee:	8008      	strh	r0, [r1, #0]
   246f0:	6858      	ldr	r0, [r3, #4]
   246f2:	90c9      	str	r0, [sp, #804]	@ 0x324
   246f4:	6818      	ldr	r0, [r3, #0]
   246f6:	900f      	str	r0, [sp, #60]	@ 0x3c
   246f8:	f7ff f9e3 	bl	23ac2 <_start+0x34be>
   246fc:	a89f      	add	r0, sp, #636	@ 0x27c
   246fe:	f7fb ff51 	bl	205a4 <_ZN9allow_pin12dynamic_type23Buffer$LT$B$C$_$C$_$GT$7unallow17h97efb102471c0a13E>
   24702:	4ece      	ldr	r6, [pc, #824]	@ (24a3c <_start+0x4438>)
   24704:	446e      	add	r6, sp
   24706:	4630      	mov	r0, r6
   24708:	f7fb ff4c 	bl	205a4 <_ZN9allow_pin12dynamic_type23Buffer$LT$B$C$_$C$_$GT$7unallow17h97efb102471c0a13E>
   2470c:	49cd      	ldr	r1, [pc, #820]	@ (24a44 <_start+0x4440>)
   2470e:	1dca      	adds	r2, r1, #7
   24710:	7830      	ldrb	r0, [r6, #0]
   24712:	3608      	adds	r6, #8
   24714:	2802      	cmp	r0, #2
   24716:	d000      	beq.n	2471a <_start+0x4116>
   24718:	4616      	mov	r6, r2
   2471a:	d000      	beq.n	2471e <_start+0x411a>
   2471c:	910a      	str	r1, [sp, #40]	@ 0x28
   2471e:	2802      	cmp	r0, #2
   24720:	d030      	beq.n	24784 <_start+0x4180>
   24722:	940f      	str	r4, [sp, #60]	@ 0x3c
   24724:	e031      	b.n	2478a <_start+0x4186>
   24726:	a89f      	add	r0, sp, #636	@ 0x27c
   24728:	7802      	ldrb	r2, [r0, #0]
   2472a:	2a02      	cmp	r2, #2
   2472c:	d00c      	beq.n	24748 <_start+0x4144>
   2472e:	4620      	mov	r0, r4
   24730:	990a      	ldr	r1, [sp, #40]	@ 0x28
   24732:	f003 fc07 	bl	27f44 <_ZN9allow_pin12dynamic_type7unshare17ha4091652f9b609c4E>
   24736:	a89f      	add	r0, sp, #636	@ 0x27c
   24738:	990a      	ldr	r1, [sp, #40]	@ 0x28
   2473a:	7001      	strb	r1, [r0, #0]
   2473c:	48bf      	ldr	r0, [pc, #764]	@ (24a3c <_start+0x4438>)
   2473e:	4468      	add	r0, sp
   24740:	7800      	ldrb	r0, [r0, #0]
   24742:	9006      	str	r0, [sp, #24]
   24744:	2802      	cmp	r0, #2
   24746:	d004      	beq.n	24752 <_start+0x414e>
   24748:	2108      	movs	r1, #8
   2474a:	4620      	mov	r0, r4
   2474c:	9a06      	ldr	r2, [sp, #24]
   2474e:	f003 fbf9 	bl	27f44 <_ZN9allow_pin12dynamic_type7unshare17ha4091652f9b609c4E>
   24752:	49ba      	ldr	r1, [pc, #744]	@ (24a3c <_start+0x4438>)
   24754:	4469      	add	r1, sp
   24756:	980a      	ldr	r0, [sp, #40]	@ 0x28
   24758:	7008      	strb	r0, [r1, #0]
   2475a:	9b08      	ldr	r3, [sp, #32]
   2475c:	7898      	ldrb	r0, [r3, #2]
   2475e:	4ab8      	ldr	r2, [pc, #736]	@ (24a40 <_start+0x443c>)
   24760:	446a      	add	r2, sp
   24762:	7090      	strb	r0, [r2, #2]
   24764:	7818      	ldrb	r0, [r3, #0]
   24766:	785b      	ldrb	r3, [r3, #1]
   24768:	021b      	lsls	r3, r3, #8
   2476a:	1818      	adds	r0, r3, r0
   2476c:	8010      	strh	r0, [r2, #0]
   2476e:	980c      	ldr	r0, [sp, #48]	@ 0x30
   24770:	6d40      	ldr	r0, [r0, #84]	@ 0x54
   24772:	900f      	str	r0, [sp, #60]	@ 0x3c
   24774:	3108      	adds	r1, #8
   24776:	a8ff      	add	r0, sp, #1020	@ 0x3fc
   24778:	30a4      	adds	r0, #164	@ 0xa4
   2477a:	224c      	movs	r2, #76	@ 0x4c
   2477c:	f003 fc4f 	bl	2801e <__aeabi_memcpy4>
   24780:	f7ff fa60 	bl	23c44 <_start+0x3640>
   24784:	980c      	ldr	r0, [sp, #48]	@ 0x30
   24786:	6d40      	ldr	r0, [r0, #84]	@ 0x54
   24788:	900f      	str	r0, [sp, #60]	@ 0x3c
   2478a:	9a0a      	ldr	r2, [sp, #40]	@ 0x28
   2478c:	7890      	ldrb	r0, [r2, #2]
   2478e:	a9c9      	add	r1, sp, #804	@ 0x324
   24790:	7088      	strb	r0, [r1, #2]
   24792:	7810      	ldrb	r0, [r2, #0]
   24794:	7852      	ldrb	r2, [r2, #1]
   24796:	0212      	lsls	r2, r2, #8
   24798:	1810      	adds	r0, r2, r0
   2479a:	8008      	strh	r0, [r1, #0]
   2479c:	48a8      	ldr	r0, [pc, #672]	@ (24a40 <_start+0x443c>)
   2479e:	4468      	add	r0, sp
   247a0:	221a      	movs	r2, #26
   247a2:	4631      	mov	r1, r6
   247a4:	f003 fd9b 	bl	282de <__aeabi_memcpy>
   247a8:	f7ff f9e6 	bl	23b78 <_start+0x3574>
   247ac:	48a3      	ldr	r0, [pc, #652]	@ (24a3c <_start+0x4438>)
   247ae:	4468      	add	r0, sp
   247b0:	7802      	ldrb	r2, [r0, #0]
   247b2:	2a02      	cmp	r2, #2
   247b4:	d00d      	beq.n	247d2 <_start+0x41ce>
   247b6:	2109      	movs	r1, #9
   247b8:	4620      	mov	r0, r4
   247ba:	f003 fbc3 	bl	27f44 <_ZN9allow_pin12dynamic_type7unshare17ha4091652f9b609c4E>
   247be:	489f      	ldr	r0, [pc, #636]	@ (24a3c <_start+0x4438>)
   247c0:	4468      	add	r0, sp
   247c2:	990e      	ldr	r1, [sp, #56]	@ 0x38
   247c4:	7001      	strb	r1, [r0, #0]
   247c6:	a8ff      	add	r0, sp, #1020	@ 0x3fc
   247c8:	30a4      	adds	r0, #164	@ 0xa4
   247ca:	7800      	ldrb	r0, [r0, #0]
   247cc:	900a      	str	r0, [sp, #40]	@ 0x28
   247ce:	2802      	cmp	r0, #2
   247d0:	d004      	beq.n	247dc <_start+0x41d8>
   247d2:	2104      	movs	r1, #4
   247d4:	4620      	mov	r0, r4
   247d6:	9a0a      	ldr	r2, [sp, #40]	@ 0x28
   247d8:	f003 fbb4 	bl	27f44 <_ZN9allow_pin12dynamic_type7unshare17ha4091652f9b609c4E>
   247dc:	a9ff      	add	r1, sp, #1020	@ 0x3fc
   247de:	31a4      	adds	r1, #164	@ 0xa4
   247e0:	980e      	ldr	r0, [sp, #56]	@ 0x38
   247e2:	7008      	strb	r0, [r1, #0]
   247e4:	9b06      	ldr	r3, [sp, #24]
   247e6:	7898      	ldrb	r0, [r3, #2]
   247e8:	aac9      	add	r2, sp, #804	@ 0x324
   247ea:	7090      	strb	r0, [r2, #2]
   247ec:	7818      	ldrb	r0, [r3, #0]
   247ee:	785b      	ldrb	r3, [r3, #1]
   247f0:	021b      	lsls	r3, r3, #8
   247f2:	1818      	adds	r0, r3, r0
   247f4:	8010      	strh	r0, [r2, #0]
   247f6:	9809      	ldr	r0, [sp, #36]	@ 0x24
   247f8:	6800      	ldr	r0, [r0, #0]
   247fa:	900f      	str	r0, [sp, #60]	@ 0x3c
   247fc:	3108      	adds	r1, #8
   247fe:	4890      	ldr	r0, [pc, #576]	@ (24a40 <_start+0x443c>)
   24800:	4468      	add	r0, sp
   24802:	2246      	movs	r2, #70	@ 0x46
   24804:	f003 fc0b 	bl	2801e <__aeabi_memcpy4>
   24808:	f7ff fa82 	bl	23d10 <_start+0x370c>
   2480c:	488b      	ldr	r0, [pc, #556]	@ (24a3c <_start+0x4438>)
   2480e:	4468      	add	r0, sp
   24810:	7802      	ldrb	r2, [r0, #0]
   24812:	2a02      	cmp	r2, #2
   24814:	d00d      	beq.n	24832 <_start+0x422e>
   24816:	2104      	movs	r1, #4
   24818:	4620      	mov	r0, r4
   2481a:	f003 fb93 	bl	27f44 <_ZN9allow_pin12dynamic_type7unshare17ha4091652f9b609c4E>
   2481e:	4887      	ldr	r0, [pc, #540]	@ (24a3c <_start+0x4438>)
   24820:	4468      	add	r0, sp
   24822:	990e      	ldr	r1, [sp, #56]	@ 0x38
   24824:	7001      	strb	r1, [r0, #0]
   24826:	a8ff      	add	r0, sp, #1020	@ 0x3fc
   24828:	30a4      	adds	r0, #164	@ 0xa4
   2482a:	7800      	ldrb	r0, [r0, #0]
   2482c:	900a      	str	r0, [sp, #40]	@ 0x28
   2482e:	2802      	cmp	r0, #2
   24830:	d004      	beq.n	2483c <_start+0x4238>
   24832:	2109      	movs	r1, #9
   24834:	4620      	mov	r0, r4
   24836:	9a0a      	ldr	r2, [sp, #40]	@ 0x28
   24838:	f003 fb84 	bl	27f44 <_ZN9allow_pin12dynamic_type7unshare17ha4091652f9b609c4E>
   2483c:	a9ff      	add	r1, sp, #1020	@ 0x3fc
   2483e:	31a4      	adds	r1, #164	@ 0xa4
   24840:	980e      	ldr	r0, [sp, #56]	@ 0x38
   24842:	7008      	strb	r0, [r1, #0]
   24844:	9b06      	ldr	r3, [sp, #24]
   24846:	7898      	ldrb	r0, [r3, #2]
   24848:	aac9      	add	r2, sp, #804	@ 0x324
   2484a:	7090      	strb	r0, [r2, #2]
   2484c:	7818      	ldrb	r0, [r3, #0]
   2484e:	785b      	ldrb	r3, [r3, #1]
   24850:	021b      	lsls	r3, r3, #8
   24852:	1818      	adds	r0, r3, r0
   24854:	8010      	strh	r0, [r2, #0]
   24856:	9809      	ldr	r0, [sp, #36]	@ 0x24
   24858:	6800      	ldr	r0, [r0, #0]
   2485a:	900f      	str	r0, [sp, #60]	@ 0x3c
   2485c:	3108      	adds	r1, #8
   2485e:	4878      	ldr	r0, [pc, #480]	@ (24a40 <_start+0x443c>)
   24860:	4468      	add	r0, sp
   24862:	2235      	movs	r2, #53	@ 0x35
   24864:	f003 fd3b 	bl	282de <__aeabi_memcpy>
   24868:	a8ff      	add	r0, sp, #1020	@ 0x3fc
   2486a:	30a4      	adds	r0, #164	@ 0xa4
   2486c:	7802      	ldrb	r2, [r0, #0]
   2486e:	2a02      	cmp	r2, #2
   24870:	d003      	beq.n	2487a <_start+0x4276>
   24872:	2109      	movs	r1, #9
   24874:	4620      	mov	r0, r4
   24876:	f003 fb65 	bl	27f44 <_ZN9allow_pin12dynamic_type7unshare17ha4091652f9b609c4E>
   2487a:	4870      	ldr	r0, [pc, #448]	@ (24a3c <_start+0x4438>)
   2487c:	4468      	add	r0, sp
   2487e:	7802      	ldrb	r2, [r0, #0]
   24880:	2a02      	cmp	r2, #2
   24882:	d003      	beq.n	2488c <_start+0x4288>
   24884:	2104      	movs	r1, #4
   24886:	4620      	mov	r0, r4
   24888:	f003 fb5c 	bl	27f44 <_ZN9allow_pin12dynamic_type7unshare17ha4091652f9b609c4E>
   2488c:	2e00      	cmp	r6, #0
   2488e:	d001      	beq.n	24894 <_start+0x4290>
   24890:	f7fd fc60 	bl	22154 <_start+0x1b50>
   24894:	4c69      	ldr	r4, [pc, #420]	@ (24a3c <_start+0x4438>)
   24896:	446c      	add	r4, sp
   24898:	1c60      	adds	r0, r4, #1
   2489a:	a9c9      	add	r1, sp, #804	@ 0x324
   2489c:	2203      	movs	r2, #3
   2489e:	f003 fd1e 	bl	282de <__aeabi_memcpy>
   248a2:	a89f      	add	r0, sp, #636	@ 0x27c
   248a4:	900a      	str	r0, [sp, #40]	@ 0x28
   248a6:	4966      	ldr	r1, [pc, #408]	@ (24a40 <_start+0x443c>)
   248a8:	4469      	add	r1, sp
   248aa:	2635      	movs	r6, #53	@ 0x35
   248ac:	4632      	mov	r2, r6
   248ae:	f003 fd16 	bl	282de <__aeabi_memcpy>
   248b2:	940d      	str	r4, [sp, #52]	@ 0x34
   248b4:	4620      	mov	r0, r4
   248b6:	3008      	adds	r0, #8
   248b8:	990a      	ldr	r1, [sp, #40]	@ 0x28
   248ba:	4632      	mov	r2, r6
   248bc:	f003 fd0f 	bl	282de <__aeabi_memcpy>
   248c0:	9e0e      	ldr	r6, [sp, #56]	@ 0x38
   248c2:	7026      	strb	r6, [r4, #0]
   248c4:	980c      	ldr	r0, [sp, #48]	@ 0x30
   248c6:	990f      	ldr	r1, [sp, #60]	@ 0x3c
   248c8:	6541      	str	r1, [r0, #84]	@ 0x54
   248ca:	acff      	add	r4, sp, #1020	@ 0x3fc
   248cc:	34a4      	adds	r4, #164	@ 0xa4
   248ce:	1c60      	adds	r0, r4, #1
   248d0:	2138      	movs	r1, #56	@ 0x38
   248d2:	900a      	str	r0, [sp, #40]	@ 0x28
   248d4:	f003 fb43 	bl	27f5e <__aeabi_memclr>
   248d8:	7026      	strb	r6, [r4, #0]
   248da:	213c      	movs	r1, #60	@ 0x3c
   248dc:	2204      	movs	r2, #4
   248de:	980d      	ldr	r0, [sp, #52]	@ 0x34
   248e0:	920d      	str	r2, [sp, #52]	@ 0x34
   248e2:	f7fb fd6d 	bl	203c0 <_ZN9allow_pin12dynamic_type23Buffer$LT$B$C$_$C$_$GT$5allow17hb3207dc96df91922E>
   248e6:	910f      	str	r1, [sp, #60]	@ 0x3c
   248e8:	07c0      	lsls	r0, r0, #31
   248ea:	d111      	bne.n	24910 <_start+0x430c>
   248ec:	a8ff      	add	r0, sp, #1020	@ 0x3fc
   248ee:	30a4      	adds	r0, #164	@ 0xa4
   248f0:	2138      	movs	r1, #56	@ 0x38
   248f2:	2203      	movs	r2, #3
   248f4:	f7fb fd64 	bl	203c0 <_ZN9allow_pin12dynamic_type23Buffer$LT$B$C$_$C$_$GT$5allow17hb3207dc96df91922E>
   248f8:	910f      	str	r1, [sp, #60]	@ 0x3c
   248fa:	07c0      	lsls	r0, r0, #31
   248fc:	d108      	bne.n	24910 <_start+0x430c>
   248fe:	4852      	ldr	r0, [pc, #328]	@ (24a48 <_start+0x4444>)
   24900:	2103      	movs	r1, #3
   24902:	2600      	movs	r6, #0
   24904:	460a      	mov	r2, r1
   24906:	4633      	mov	r3, r6
   24908:	df02      	svc	2
   2490a:	910f      	str	r1, [sp, #60]	@ 0x3c
   2490c:	287f      	cmp	r0, #127	@ 0x7f
   2490e:	d801      	bhi.n	24914 <_start+0x4310>
   24910:	9e0b      	ldr	r6, [sp, #44]	@ 0x2c
   24912:	e027      	b.n	24964 <_start+0x4360>
   24914:	4849      	ldr	r0, [pc, #292]	@ (24a3c <_start+0x4438>)
   24916:	4468      	add	r0, sp
   24918:	f7fb fdf4 	bl	20504 <_ZN9allow_pin12dynamic_type23Buffer$LT$B$C$_$C$_$GT$7unallow17h4538e3f8e08c89beE>
   2491c:	acff      	add	r4, sp, #1020	@ 0x3fc
   2491e:	34a4      	adds	r4, #164	@ 0xa4
   24920:	4620      	mov	r0, r4
   24922:	f7fb fdef 	bl	20504 <_ZN9allow_pin12dynamic_type23Buffer$LT$B$C$_$C$_$GT$7unallow17h4538e3f8e08c89beE>
   24926:	4949      	ldr	r1, [pc, #292]	@ (24a4c <_start+0x4448>)
   24928:	1dca      	adds	r2, r1, #7
   2492a:	7820      	ldrb	r0, [r4, #0]
   2492c:	3408      	adds	r4, #8
   2492e:	2802      	cmp	r0, #2
   24930:	d000      	beq.n	24934 <_start+0x4330>
   24932:	4614      	mov	r4, r2
   24934:	d000      	beq.n	24938 <_start+0x4334>
   24936:	910a      	str	r1, [sp, #40]	@ 0x28
   24938:	2802      	cmp	r0, #2
   2493a:	d001      	beq.n	24940 <_start+0x433c>
   2493c:	960f      	str	r6, [sp, #60]	@ 0x3c
   2493e:	e002      	b.n	24946 <_start+0x4342>
   24940:	9809      	ldr	r0, [sp, #36]	@ 0x24
   24942:	6800      	ldr	r0, [r0, #0]
   24944:	900f      	str	r0, [sp, #60]	@ 0x3c
   24946:	9a0a      	ldr	r2, [sp, #40]	@ 0x28
   24948:	7890      	ldrb	r0, [r2, #2]
   2494a:	a9c9      	add	r1, sp, #804	@ 0x324
   2494c:	7088      	strb	r0, [r1, #2]
   2494e:	7810      	ldrb	r0, [r2, #0]
   24950:	7852      	ldrb	r2, [r2, #1]
   24952:	0212      	lsls	r2, r2, #8
   24954:	1810      	adds	r0, r2, r0
   24956:	8008      	strh	r0, [r1, #0]
   24958:	4839      	ldr	r0, [pc, #228]	@ (24a40 <_start+0x443c>)
   2495a:	4468      	add	r0, sp
   2495c:	2231      	movs	r2, #49	@ 0x31
   2495e:	4621      	mov	r1, r4
   24960:	f003 fcbd 	bl	282de <__aeabi_memcpy>
   24964:	a8ff      	add	r0, sp, #1020	@ 0x3fc
   24966:	30a4      	adds	r0, #164	@ 0xa4
   24968:	7802      	ldrb	r2, [r0, #0]
   2496a:	2a02      	cmp	r2, #2
   2496c:	d004      	beq.n	24978 <_start+0x4374>
   2496e:	4838      	ldr	r0, [pc, #224]	@ (24a50 <_start+0x444c>)
   24970:	3865      	subs	r0, #101	@ 0x65
   24972:	2103      	movs	r1, #3
   24974:	f003 fae6 	bl	27f44 <_ZN9allow_pin12dynamic_type7unshare17ha4091652f9b609c4E>
   24978:	4830      	ldr	r0, [pc, #192]	@ (24a3c <_start+0x4438>)
   2497a:	4468      	add	r0, sp
   2497c:	7802      	ldrb	r2, [r0, #0]
   2497e:	2a02      	cmp	r2, #2
   24980:	d004      	beq.n	2498c <_start+0x4388>
   24982:	4833      	ldr	r0, [pc, #204]	@ (24a50 <_start+0x444c>)
   24984:	3865      	subs	r0, #101	@ 0x65
   24986:	2103      	movs	r1, #3
   24988:	f003 fadc 	bl	27f44 <_ZN9allow_pin12dynamic_type7unshare17ha4091652f9b609c4E>
   2498c:	2e00      	cmp	r6, #0
   2498e:	d001      	beq.n	24994 <_start+0x4390>
   24990:	f7fd fbe0 	bl	22154 <_start+0x1b50>
   24994:	4c29      	ldr	r4, [pc, #164]	@ (24a3c <_start+0x4438>)
   24996:	446c      	add	r4, sp
   24998:	1c60      	adds	r0, r4, #1
   2499a:	9004      	str	r0, [sp, #16]
   2499c:	a9c9      	add	r1, sp, #804	@ 0x324
   2499e:	2203      	movs	r2, #3
   249a0:	9208      	str	r2, [sp, #32]
   249a2:	f003 fc9c 	bl	282de <__aeabi_memcpy>
   249a6:	a89f      	add	r0, sp, #636	@ 0x27c
   249a8:	900a      	str	r0, [sp, #40]	@ 0x28
   249aa:	4925      	ldr	r1, [pc, #148]	@ (24a40 <_start+0x443c>)
   249ac:	4469      	add	r1, sp
   249ae:	2631      	movs	r6, #49	@ 0x31
   249b0:	4632      	mov	r2, r6
   249b2:	f003 fc94 	bl	282de <__aeabi_memcpy>
   249b6:	4620      	mov	r0, r4
   249b8:	3008      	adds	r0, #8
   249ba:	990a      	ldr	r1, [sp, #40]	@ 0x28
   249bc:	9605      	str	r6, [sp, #20]
   249be:	4632      	mov	r2, r6
   249c0:	f003 fc8d 	bl	282de <__aeabi_memcpy>
   249c4:	9e0e      	ldr	r6, [sp, #56]	@ 0x38
   249c6:	7026      	strb	r6, [r4, #0]
   249c8:	980c      	ldr	r0, [sp, #48]	@ 0x30
   249ca:	990f      	ldr	r1, [sp, #60]	@ 0x3c
   249cc:	6541      	str	r1, [r0, #84]	@ 0x54
   249ce:	acff      	add	r4, sp, #1020	@ 0x3fc
   249d0:	34a4      	adds	r4, #164	@ 0xa4
   249d2:	1c60      	adds	r0, r4, #1
   249d4:	2127      	movs	r1, #39	@ 0x27
   249d6:	9006      	str	r0, [sp, #24]
   249d8:	f003 fac1 	bl	27f5e <__aeabi_memclr>
   249dc:	7026      	strb	r6, [r4, #0]
   249de:	980d      	ldr	r0, [sp, #52]	@ 0x34
   249e0:	9000      	str	r0, [sp, #0]
   249e2:	4815      	ldr	r0, [pc, #84]	@ (24a38 <_start+0x4434>)
   249e4:	30ce      	adds	r0, #206	@ 0xce
   249e6:	2338      	movs	r3, #56	@ 0x38
   249e8:	900a      	str	r0, [sp, #40]	@ 0x28
   249ea:	4631      	mov	r1, r6
   249ec:	9a04      	ldr	r2, [sp, #16]
   249ee:	f7fb fc55 	bl	2029c <_ZN9allow_pin12dynamic_type11allow_inner17hf1099571477a6939E>
   249f2:	910f      	str	r1, [sp, #60]	@ 0x3c
   249f4:	07c0      	lsls	r0, r0, #31
   249f6:	d11c      	bne.n	24a32 <_start+0x442e>
   249f8:	4810      	ldr	r0, [pc, #64]	@ (24a3c <_start+0x4438>)
   249fa:	4468      	add	r0, sp
   249fc:	990d      	ldr	r1, [sp, #52]	@ 0x34
   249fe:	7001      	strb	r1, [r0, #0]
   24a00:	9808      	ldr	r0, [sp, #32]
   24a02:	9000      	str	r0, [sp, #0]
   24a04:	2108      	movs	r1, #8
   24a06:	2327      	movs	r3, #39	@ 0x27
   24a08:	980a      	ldr	r0, [sp, #40]	@ 0x28
   24a0a:	9a06      	ldr	r2, [sp, #24]
   24a0c:	f7fb fc46 	bl	2029c <_ZN9allow_pin12dynamic_type11allow_inner17hf1099571477a6939E>
   24a10:	910f      	str	r1, [sp, #60]	@ 0x3c
   24a12:	07c0      	lsls	r0, r0, #31
   24a14:	d10d      	bne.n	24a32 <_start+0x442e>
   24a16:	a8ff      	add	r0, sp, #1020	@ 0x3fc
   24a18:	30a4      	adds	r0, #164	@ 0xa4
   24a1a:	9908      	ldr	r1, [sp, #32]
   24a1c:	7001      	strb	r1, [r0, #0]
   24a1e:	480d      	ldr	r0, [pc, #52]	@ (24a54 <_start+0x4450>)
   24a20:	2402      	movs	r4, #2
   24a22:	2208      	movs	r2, #8
   24a24:	2600      	movs	r6, #0
   24a26:	4621      	mov	r1, r4
   24a28:	4633      	mov	r3, r6
   24a2a:	df02      	svc	2
   24a2c:	910f      	str	r1, [sp, #60]	@ 0x3c
   24a2e:	287f      	cmp	r0, #127	@ 0x7f
   24a30:	d812      	bhi.n	24a58 <_start+0x4454>
   24a32:	9e0b      	ldr	r6, [sp, #44]	@ 0x2c
   24a34:	e03b      	b.n	24aae <_start+0x44aa>
   24a36:	46c0      	nop			@ (mov r8, r8)
   24a38:	00000d5d 	.word	0x00000d5d
   24a3c:	000005a8 	.word	0x000005a8
   24a40:	00000558 	.word	0x00000558
   24a44:	0001027a 	.word	0x0001027a
   24a48:	00001d19 	.word	0x00001d19
   24a4c:	00010185 	.word	0x00010185
   24a50:	00001d7e 	.word	0x00001d7e
   24a54:	00000e2b 	.word	0x00000e2b
   24a58:	48d7      	ldr	r0, [pc, #860]	@ (24db8 <_start+0x47b4>)
   24a5a:	4468      	add	r0, sp
   24a5c:	7802      	ldrb	r2, [r0, #0]
   24a5e:	2a02      	cmp	r2, #2
   24a60:	d00c      	beq.n	24a7c <_start+0x4478>
   24a62:	980a      	ldr	r0, [sp, #40]	@ 0x28
   24a64:	4621      	mov	r1, r4
   24a66:	f003 fa6d 	bl	27f44 <_ZN9allow_pin12dynamic_type7unshare17ha4091652f9b609c4E>
   24a6a:	48d3      	ldr	r0, [pc, #844]	@ (24db8 <_start+0x47b4>)
   24a6c:	4468      	add	r0, sp
   24a6e:	7004      	strb	r4, [r0, #0]
   24a70:	a8ff      	add	r0, sp, #1020	@ 0x3fc
   24a72:	30a4      	adds	r0, #164	@ 0xa4
   24a74:	7800      	ldrb	r0, [r0, #0]
   24a76:	9008      	str	r0, [sp, #32]
   24a78:	2802      	cmp	r0, #2
   24a7a:	d004      	beq.n	24a86 <_start+0x4482>
   24a7c:	2108      	movs	r1, #8
   24a7e:	980a      	ldr	r0, [sp, #40]	@ 0x28
   24a80:	9a08      	ldr	r2, [sp, #32]
   24a82:	f003 fa5f 	bl	27f44 <_ZN9allow_pin12dynamic_type7unshare17ha4091652f9b609c4E>
   24a86:	a9ff      	add	r1, sp, #1020	@ 0x3fc
   24a88:	31a4      	adds	r1, #164	@ 0xa4
   24a8a:	700c      	strb	r4, [r1, #0]
   24a8c:	9b06      	ldr	r3, [sp, #24]
   24a8e:	7898      	ldrb	r0, [r3, #2]
   24a90:	aac9      	add	r2, sp, #804	@ 0x324
   24a92:	7090      	strb	r0, [r2, #2]
   24a94:	7818      	ldrb	r0, [r3, #0]
   24a96:	785b      	ldrb	r3, [r3, #1]
   24a98:	021b      	lsls	r3, r3, #8
   24a9a:	1818      	adds	r0, r3, r0
   24a9c:	8010      	strh	r0, [r2, #0]
   24a9e:	9809      	ldr	r0, [sp, #36]	@ 0x24
   24aa0:	6800      	ldr	r0, [r0, #0]
   24aa2:	900f      	str	r0, [sp, #60]	@ 0x3c
   24aa4:	3108      	adds	r1, #8
   24aa6:	a89f      	add	r0, sp, #636	@ 0x27c
   24aa8:	2220      	movs	r2, #32
   24aaa:	f003 fc18 	bl	282de <__aeabi_memcpy>
   24aae:	a8ff      	add	r0, sp, #1020	@ 0x3fc
   24ab0:	30a4      	adds	r0, #164	@ 0xa4
   24ab2:	7802      	ldrb	r2, [r0, #0]
   24ab4:	2a02      	cmp	r2, #2
   24ab6:	d003      	beq.n	24ac0 <_start+0x44bc>
   24ab8:	2108      	movs	r1, #8
   24aba:	980a      	ldr	r0, [sp, #40]	@ 0x28
   24abc:	f003 fa42 	bl	27f44 <_ZN9allow_pin12dynamic_type7unshare17ha4091652f9b609c4E>
   24ac0:	48bd      	ldr	r0, [pc, #756]	@ (24db8 <_start+0x47b4>)
   24ac2:	4468      	add	r0, sp
   24ac4:	7802      	ldrb	r2, [r0, #0]
   24ac6:	2a02      	cmp	r2, #2
   24ac8:	d003      	beq.n	24ad2 <_start+0x44ce>
   24aca:	2102      	movs	r1, #2
   24acc:	980a      	ldr	r0, [sp, #40]	@ 0x28
   24ace:	f003 fa39 	bl	27f44 <_ZN9allow_pin12dynamic_type7unshare17ha4091652f9b609c4E>
   24ad2:	2e00      	cmp	r6, #0
   24ad4:	d001      	beq.n	24ada <_start+0x44d6>
   24ad6:	f7fd fb3d 	bl	22154 <_start+0x1b50>
   24ada:	4cb8      	ldr	r4, [pc, #736]	@ (24dbc <_start+0x47b8>)
   24adc:	446c      	add	r4, sp
   24ade:	1c60      	adds	r0, r4, #1
   24ae0:	9008      	str	r0, [sp, #32]
   24ae2:	a9c9      	add	r1, sp, #804	@ 0x324
   24ae4:	2203      	movs	r2, #3
   24ae6:	920a      	str	r2, [sp, #40]	@ 0x28
   24ae8:	f003 fbf9 	bl	282de <__aeabi_memcpy>
   24aec:	a885      	add	r0, sp, #532	@ 0x214
   24aee:	9006      	str	r0, [sp, #24]
   24af0:	a99f      	add	r1, sp, #636	@ 0x27c
   24af2:	2620      	movs	r6, #32
   24af4:	4632      	mov	r2, r6
   24af6:	f003 fbf2 	bl	282de <__aeabi_memcpy>
   24afa:	980e      	ldr	r0, [sp, #56]	@ 0x38
   24afc:	7020      	strb	r0, [r4, #0]
   24afe:	980c      	ldr	r0, [sp, #48]	@ 0x30
   24b00:	990f      	ldr	r1, [sp, #60]	@ 0x3c
   24b02:	6041      	str	r1, [r0, #4]
   24b04:	3408      	adds	r4, #8
   24b06:	4620      	mov	r0, r4
   24b08:	9906      	ldr	r1, [sp, #24]
   24b0a:	4632      	mov	r2, r6
   24b0c:	f003 fbe7 	bl	282de <__aeabi_memcpy>
   24b10:	4ca9      	ldr	r4, [pc, #676]	@ (24db8 <_start+0x47b4>)
   24b12:	446c      	add	r4, sp
   24b14:	1c66      	adds	r6, r4, #1
   24b16:	2151      	movs	r1, #81	@ 0x51
   24b18:	4630      	mov	r0, r6
   24b1a:	f003 fa20 	bl	27f5e <__aeabi_memclr>
   24b1e:	980e      	ldr	r0, [sp, #56]	@ 0x38
   24b20:	7020      	strb	r0, [r4, #0]
   24b22:	980d      	ldr	r0, [sp, #52]	@ 0x34
   24b24:	9000      	str	r0, [sp, #0]
   24b26:	2100      	movs	r1, #0
   24b28:	2327      	movs	r3, #39	@ 0x27
   24b2a:	48a5      	ldr	r0, [pc, #660]	@ (24dc0 <_start+0x47bc>)
   24b2c:	9a08      	ldr	r2, [sp, #32]
   24b2e:	f7fb fbb5 	bl	2029c <_ZN9allow_pin12dynamic_type11allow_inner17hf1099571477a6939E>
   24b32:	910f      	str	r1, [sp, #60]	@ 0x3c
   24b34:	07c0      	lsls	r0, r0, #31
   24b36:	d11a      	bne.n	24b6e <_start+0x456a>
   24b38:	48a0      	ldr	r0, [pc, #640]	@ (24dbc <_start+0x47b8>)
   24b3a:	4468      	add	r0, sp
   24b3c:	990d      	ldr	r1, [sp, #52]	@ 0x34
   24b3e:	7001      	strb	r1, [r0, #0]
   24b40:	980a      	ldr	r0, [sp, #40]	@ 0x28
   24b42:	9000      	str	r0, [sp, #0]
   24b44:	2351      	movs	r3, #81	@ 0x51
   24b46:	489e      	ldr	r0, [pc, #632]	@ (24dc0 <_start+0x47bc>)
   24b48:	4632      	mov	r2, r6
   24b4a:	f7fb fba7 	bl	2029c <_ZN9allow_pin12dynamic_type11allow_inner17hf1099571477a6939E>
   24b4e:	910f      	str	r1, [sp, #60]	@ 0x3c
   24b50:	07c0      	lsls	r0, r0, #31
   24b52:	d10c      	bne.n	24b6e <_start+0x456a>
   24b54:	4898      	ldr	r0, [pc, #608]	@ (24db8 <_start+0x47b4>)
   24b56:	4468      	add	r0, sp
   24b58:	990a      	ldr	r1, [sp, #40]	@ 0x28
   24b5a:	7001      	strb	r1, [r0, #0]
   24b5c:	4898      	ldr	r0, [pc, #608]	@ (24dc0 <_start+0x47bc>)
   24b5e:	2204      	movs	r2, #4
   24b60:	2400      	movs	r4, #0
   24b62:	4621      	mov	r1, r4
   24b64:	4623      	mov	r3, r4
   24b66:	df02      	svc	2
   24b68:	910f      	str	r1, [sp, #60]	@ 0x3c
   24b6a:	287f      	cmp	r0, #127	@ 0x7f
   24b6c:	d801      	bhi.n	24b72 <_start+0x456e>
   24b6e:	9c0b      	ldr	r4, [sp, #44]	@ 0x2c
   24b70:	e02b      	b.n	24bca <_start+0x45c6>
   24b72:	4892      	ldr	r0, [pc, #584]	@ (24dbc <_start+0x47b8>)
   24b74:	4468      	add	r0, sp
   24b76:	7802      	ldrb	r2, [r0, #0]
   24b78:	2a02      	cmp	r2, #2
   24b7a:	d00d      	beq.n	24b98 <_start+0x4594>
   24b7c:	2100      	movs	r1, #0
   24b7e:	4890      	ldr	r0, [pc, #576]	@ (24dc0 <_start+0x47bc>)
   24b80:	f003 f9e0 	bl	27f44 <_ZN9allow_pin12dynamic_type7unshare17ha4091652f9b609c4E>
   24b84:	488d      	ldr	r0, [pc, #564]	@ (24dbc <_start+0x47b8>)
   24b86:	4468      	add	r0, sp
   24b88:	990e      	ldr	r1, [sp, #56]	@ 0x38
   24b8a:	7001      	strb	r1, [r0, #0]
   24b8c:	488a      	ldr	r0, [pc, #552]	@ (24db8 <_start+0x47b4>)
   24b8e:	4468      	add	r0, sp
   24b90:	7800      	ldrb	r0, [r0, #0]
   24b92:	900a      	str	r0, [sp, #40]	@ 0x28
   24b94:	2802      	cmp	r0, #2
   24b96:	d004      	beq.n	24ba2 <_start+0x459e>
   24b98:	2104      	movs	r1, #4
   24b9a:	4889      	ldr	r0, [pc, #548]	@ (24dc0 <_start+0x47bc>)
   24b9c:	9a0a      	ldr	r2, [sp, #40]	@ 0x28
   24b9e:	f003 f9d1 	bl	27f44 <_ZN9allow_pin12dynamic_type7unshare17ha4091652f9b609c4E>
   24ba2:	4985      	ldr	r1, [pc, #532]	@ (24db8 <_start+0x47b4>)
   24ba4:	4469      	add	r1, sp
   24ba6:	980e      	ldr	r0, [sp, #56]	@ 0x38
   24ba8:	7008      	strb	r0, [r1, #0]
   24baa:	78b0      	ldrb	r0, [r6, #2]
   24bac:	aac9      	add	r2, sp, #804	@ 0x324
   24bae:	7090      	strb	r0, [r2, #2]
   24bb0:	7830      	ldrb	r0, [r6, #0]
   24bb2:	7873      	ldrb	r3, [r6, #1]
   24bb4:	021b      	lsls	r3, r3, #8
   24bb6:	1818      	adds	r0, r3, r0
   24bb8:	8010      	strh	r0, [r2, #0]
   24bba:	980c      	ldr	r0, [sp, #48]	@ 0x30
   24bbc:	6d40      	ldr	r0, [r0, #84]	@ 0x54
   24bbe:	900f      	str	r0, [sp, #60]	@ 0x3c
   24bc0:	3108      	adds	r1, #8
   24bc2:	a89f      	add	r0, sp, #636	@ 0x27c
   24bc4:	224a      	movs	r2, #74	@ 0x4a
   24bc6:	f003 fa2a 	bl	2801e <__aeabi_memcpy4>
   24bca:	487b      	ldr	r0, [pc, #492]	@ (24db8 <_start+0x47b4>)
   24bcc:	4468      	add	r0, sp
   24bce:	7802      	ldrb	r2, [r0, #0]
   24bd0:	2a02      	cmp	r2, #2
   24bd2:	d003      	beq.n	24bdc <_start+0x45d8>
   24bd4:	2104      	movs	r1, #4
   24bd6:	487a      	ldr	r0, [pc, #488]	@ (24dc0 <_start+0x47bc>)
   24bd8:	f003 f9b4 	bl	27f44 <_ZN9allow_pin12dynamic_type7unshare17ha4091652f9b609c4E>
   24bdc:	4877      	ldr	r0, [pc, #476]	@ (24dbc <_start+0x47b8>)
   24bde:	4468      	add	r0, sp
   24be0:	7802      	ldrb	r2, [r0, #0]
   24be2:	2a02      	cmp	r2, #2
   24be4:	d003      	beq.n	24bee <_start+0x45ea>
   24be6:	2100      	movs	r1, #0
   24be8:	4875      	ldr	r0, [pc, #468]	@ (24dc0 <_start+0x47bc>)
   24bea:	f003 f9ab 	bl	27f44 <_ZN9allow_pin12dynamic_type7unshare17ha4091652f9b609c4E>
   24bee:	2c00      	cmp	r4, #0
   24bf0:	d001      	beq.n	24bf6 <_start+0x45f2>
   24bf2:	f7fd faaf 	bl	22154 <_start+0x1b50>
   24bf6:	4c70      	ldr	r4, [pc, #448]	@ (24db8 <_start+0x47b4>)
   24bf8:	446c      	add	r4, sp
   24bfa:	1c60      	adds	r0, r4, #1
   24bfc:	9006      	str	r0, [sp, #24]
   24bfe:	a9c9      	add	r1, sp, #804	@ 0x324
   24c00:	2203      	movs	r2, #3
   24c02:	920a      	str	r2, [sp, #40]	@ 0x28
   24c04:	f003 fb6b 	bl	282de <__aeabi_memcpy>
   24c08:	a8ff      	add	r0, sp, #1020	@ 0x3fc
   24c0a:	30a4      	adds	r0, #164	@ 0xa4
   24c0c:	9008      	str	r0, [sp, #32]
   24c0e:	a99f      	add	r1, sp, #636	@ 0x27c
   24c10:	264a      	movs	r6, #74	@ 0x4a
   24c12:	4632      	mov	r2, r6
   24c14:	f003 fa03 	bl	2801e <__aeabi_memcpy4>
   24c18:	4620      	mov	r0, r4
   24c1a:	3008      	adds	r0, #8
   24c1c:	9908      	ldr	r1, [sp, #32]
   24c1e:	4632      	mov	r2, r6
   24c20:	f003 f9fd 	bl	2801e <__aeabi_memcpy4>
   24c24:	9e0e      	ldr	r6, [sp, #56]	@ 0x38
   24c26:	7026      	strb	r6, [r4, #0]
   24c28:	980c      	ldr	r0, [sp, #48]	@ 0x30
   24c2a:	990f      	ldr	r1, [sp, #60]	@ 0x3c
   24c2c:	6541      	str	r1, [r0, #84]	@ 0x54
   24c2e:	acff      	add	r4, sp, #1020	@ 0x3fc
   24c30:	34a4      	adds	r4, #164	@ 0xa4
   24c32:	1c60      	adds	r0, r4, #1
   24c34:	214f      	movs	r1, #79	@ 0x4f
   24c36:	9008      	str	r0, [sp, #32]
   24c38:	f003 f991 	bl	27f5e <__aeabi_memclr>
   24c3c:	7026      	strb	r6, [r4, #0]
   24c3e:	990d      	ldr	r1, [sp, #52]	@ 0x34
   24c40:	9100      	str	r1, [sp, #0]
   24c42:	4c60      	ldr	r4, [pc, #384]	@ (24dc4 <_start+0x47c0>)
   24c44:	34a6      	adds	r4, #166	@ 0xa6
   24c46:	2351      	movs	r3, #81	@ 0x51
   24c48:	4620      	mov	r0, r4
   24c4a:	9a06      	ldr	r2, [sp, #24]
   24c4c:	f7fb fb26 	bl	2029c <_ZN9allow_pin12dynamic_type11allow_inner17hf1099571477a6939E>
   24c50:	910f      	str	r1, [sp, #60]	@ 0x3c
   24c52:	07c0      	lsls	r0, r0, #31
   24c54:	d11b      	bne.n	24c8e <_start+0x468a>
   24c56:	4858      	ldr	r0, [pc, #352]	@ (24db8 <_start+0x47b4>)
   24c58:	4468      	add	r0, sp
   24c5a:	990d      	ldr	r1, [sp, #52]	@ 0x34
   24c5c:	7001      	strb	r1, [r0, #0]
   24c5e:	980a      	ldr	r0, [sp, #40]	@ 0x28
   24c60:	9000      	str	r0, [sp, #0]
   24c62:	2109      	movs	r1, #9
   24c64:	234f      	movs	r3, #79	@ 0x4f
   24c66:	4620      	mov	r0, r4
   24c68:	9a08      	ldr	r2, [sp, #32]
   24c6a:	f7fb fb17 	bl	2029c <_ZN9allow_pin12dynamic_type11allow_inner17hf1099571477a6939E>
   24c6e:	910f      	str	r1, [sp, #60]	@ 0x3c
   24c70:	07c0      	lsls	r0, r0, #31
   24c72:	d10c      	bne.n	24c8e <_start+0x468a>
   24c74:	a8ff      	add	r0, sp, #1020	@ 0x3fc
   24c76:	30a4      	adds	r0, #164	@ 0xa4
   24c78:	990a      	ldr	r1, [sp, #40]	@ 0x28
   24c7a:	7001      	strb	r1, [r0, #0]
   24c7c:	4852      	ldr	r0, [pc, #328]	@ (24dc8 <_start+0x47c4>)
   24c7e:	2104      	movs	r1, #4
   24c80:	2209      	movs	r2, #9
   24c82:	2600      	movs	r6, #0
   24c84:	4633      	mov	r3, r6
   24c86:	df02      	svc	2
   24c88:	910f      	str	r1, [sp, #60]	@ 0x3c
   24c8a:	287f      	cmp	r0, #127	@ 0x7f
   24c8c:	d801      	bhi.n	24c92 <_start+0x468e>
   24c8e:	9e0b      	ldr	r6, [sp, #44]	@ 0x2c
   24c90:	e02c      	b.n	24cec <_start+0x46e8>
   24c92:	4849      	ldr	r0, [pc, #292]	@ (24db8 <_start+0x47b4>)
   24c94:	4468      	add	r0, sp
   24c96:	7802      	ldrb	r2, [r0, #0]
   24c98:	2a02      	cmp	r2, #2
   24c9a:	d00d      	beq.n	24cb8 <_start+0x46b4>
   24c9c:	2104      	movs	r1, #4
   24c9e:	4620      	mov	r0, r4
   24ca0:	f003 f950 	bl	27f44 <_ZN9allow_pin12dynamic_type7unshare17ha4091652f9b609c4E>
   24ca4:	4844      	ldr	r0, [pc, #272]	@ (24db8 <_start+0x47b4>)
   24ca6:	4468      	add	r0, sp
   24ca8:	990e      	ldr	r1, [sp, #56]	@ 0x38
   24caa:	7001      	strb	r1, [r0, #0]
   24cac:	a8ff      	add	r0, sp, #1020	@ 0x3fc
   24cae:	30a4      	adds	r0, #164	@ 0xa4
   24cb0:	7800      	ldrb	r0, [r0, #0]
   24cb2:	900a      	str	r0, [sp, #40]	@ 0x28
   24cb4:	2802      	cmp	r0, #2
   24cb6:	d004      	beq.n	24cc2 <_start+0x46be>
   24cb8:	2109      	movs	r1, #9
   24cba:	4620      	mov	r0, r4
   24cbc:	9a0a      	ldr	r2, [sp, #40]	@ 0x28
   24cbe:	f003 f941 	bl	27f44 <_ZN9allow_pin12dynamic_type7unshare17ha4091652f9b609c4E>
   24cc2:	a9ff      	add	r1, sp, #1020	@ 0x3fc
   24cc4:	31a4      	adds	r1, #164	@ 0xa4
   24cc6:	980e      	ldr	r0, [sp, #56]	@ 0x38
   24cc8:	7008      	strb	r0, [r1, #0]
   24cca:	9b08      	ldr	r3, [sp, #32]
   24ccc:	7898      	ldrb	r0, [r3, #2]
   24cce:	aac9      	add	r2, sp, #804	@ 0x324
   24cd0:	7090      	strb	r0, [r2, #2]
   24cd2:	7818      	ldrb	r0, [r3, #0]
   24cd4:	785b      	ldrb	r3, [r3, #1]
   24cd6:	021b      	lsls	r3, r3, #8
   24cd8:	1818      	adds	r0, r3, r0
   24cda:	8010      	strh	r0, [r2, #0]
   24cdc:	9809      	ldr	r0, [sp, #36]	@ 0x24
   24cde:	6800      	ldr	r0, [r0, #0]
   24ce0:	900f      	str	r0, [sp, #60]	@ 0x3c
   24ce2:	3108      	adds	r1, #8
   24ce4:	a89f      	add	r0, sp, #636	@ 0x27c
   24ce6:	2248      	movs	r2, #72	@ 0x48
   24ce8:	f003 f999 	bl	2801e <__aeabi_memcpy4>
   24cec:	a8ff      	add	r0, sp, #1020	@ 0x3fc
   24cee:	30a4      	adds	r0, #164	@ 0xa4
   24cf0:	7802      	ldrb	r2, [r0, #0]
   24cf2:	2a02      	cmp	r2, #2
   24cf4:	d003      	beq.n	24cfe <_start+0x46fa>
   24cf6:	2109      	movs	r1, #9
   24cf8:	4620      	mov	r0, r4
   24cfa:	f003 f923 	bl	27f44 <_ZN9allow_pin12dynamic_type7unshare17ha4091652f9b609c4E>
   24cfe:	482e      	ldr	r0, [pc, #184]	@ (24db8 <_start+0x47b4>)
   24d00:	4468      	add	r0, sp
   24d02:	7802      	ldrb	r2, [r0, #0]
   24d04:	2a02      	cmp	r2, #2
   24d06:	d003      	beq.n	24d10 <_start+0x470c>
   24d08:	2104      	movs	r1, #4
   24d0a:	4620      	mov	r0, r4
   24d0c:	f003 f91a 	bl	27f44 <_ZN9allow_pin12dynamic_type7unshare17ha4091652f9b609c4E>
   24d10:	2e00      	cmp	r6, #0
   24d12:	d001      	beq.n	24d18 <_start+0x4714>
   24d14:	f7fd fa1e 	bl	22154 <_start+0x1b50>
   24d18:	4c28      	ldr	r4, [pc, #160]	@ (24dbc <_start+0x47b8>)
   24d1a:	446c      	add	r4, sp
   24d1c:	1c60      	adds	r0, r4, #1
   24d1e:	9004      	str	r0, [sp, #16]
   24d20:	a9c9      	add	r1, sp, #804	@ 0x324
   24d22:	2203      	movs	r2, #3
   24d24:	9208      	str	r2, [sp, #32]
   24d26:	f003 fada 	bl	282de <__aeabi_memcpy>
   24d2a:	a88d      	add	r0, sp, #564	@ 0x234
   24d2c:	900a      	str	r0, [sp, #40]	@ 0x28
   24d2e:	a99f      	add	r1, sp, #636	@ 0x27c
   24d30:	2248      	movs	r2, #72	@ 0x48
   24d32:	9206      	str	r2, [sp, #24]
   24d34:	f003 f973 	bl	2801e <__aeabi_memcpy4>
   24d38:	9e0e      	ldr	r6, [sp, #56]	@ 0x38
   24d3a:	7026      	strb	r6, [r4, #0]
   24d3c:	980c      	ldr	r0, [sp, #48]	@ 0x30
   24d3e:	990f      	ldr	r1, [sp, #60]	@ 0x3c
   24d40:	6041      	str	r1, [r0, #4]
   24d42:	3408      	adds	r4, #8
   24d44:	4620      	mov	r0, r4
   24d46:	990a      	ldr	r1, [sp, #40]	@ 0x28
   24d48:	9a06      	ldr	r2, [sp, #24]
   24d4a:	f003 f968 	bl	2801e <__aeabi_memcpy4>
   24d4e:	4c1a      	ldr	r4, [pc, #104]	@ (24db8 <_start+0x47b4>)
   24d50:	446c      	add	r4, sp
   24d52:	1c60      	adds	r0, r4, #1
   24d54:	2161      	movs	r1, #97	@ 0x61
   24d56:	9006      	str	r0, [sp, #24]
   24d58:	f003 f901 	bl	27f5e <__aeabi_memclr>
   24d5c:	7026      	strb	r6, [r4, #0]
   24d5e:	980d      	ldr	r0, [sp, #52]	@ 0x34
   24d60:	9000      	str	r0, [sp, #0]
   24d62:	9807      	ldr	r0, [sp, #28]
   24d64:	3088      	adds	r0, #136	@ 0x88
   24d66:	234f      	movs	r3, #79	@ 0x4f
   24d68:	900a      	str	r0, [sp, #40]	@ 0x28
   24d6a:	4631      	mov	r1, r6
   24d6c:	9a04      	ldr	r2, [sp, #16]
   24d6e:	f7fb fa95 	bl	2029c <_ZN9allow_pin12dynamic_type11allow_inner17hf1099571477a6939E>
   24d72:	910f      	str	r1, [sp, #60]	@ 0x3c
   24d74:	07c0      	lsls	r0, r0, #31
   24d76:	d11d      	bne.n	24db4 <_start+0x47b0>
   24d78:	4810      	ldr	r0, [pc, #64]	@ (24dbc <_start+0x47b8>)
   24d7a:	4468      	add	r0, sp
   24d7c:	990d      	ldr	r1, [sp, #52]	@ 0x34
   24d7e:	7001      	strb	r1, [r0, #0]
   24d80:	9808      	ldr	r0, [sp, #32]
   24d82:	9000      	str	r0, [sp, #0]
   24d84:	2108      	movs	r1, #8
   24d86:	2361      	movs	r3, #97	@ 0x61
   24d88:	980a      	ldr	r0, [sp, #40]	@ 0x28
   24d8a:	9a06      	ldr	r2, [sp, #24]
   24d8c:	f7fb fa86 	bl	2029c <_ZN9allow_pin12dynamic_type11allow_inner17hf1099571477a6939E>
   24d90:	910f      	str	r1, [sp, #60]	@ 0x3c
   24d92:	07c0      	lsls	r0, r0, #31
   24d94:	d10e      	bne.n	24db4 <_start+0x47b0>
   24d96:	4808      	ldr	r0, [pc, #32]	@ (24db8 <_start+0x47b4>)
   24d98:	4468      	add	r0, sp
   24d9a:	9908      	ldr	r1, [sp, #32]
   24d9c:	7001      	strb	r1, [r0, #0]
   24d9e:	20db      	movs	r0, #219	@ 0xdb
   24da0:	0040      	lsls	r0, r0, #1
   24da2:	2402      	movs	r4, #2
   24da4:	2208      	movs	r2, #8
   24da6:	2600      	movs	r6, #0
   24da8:	4621      	mov	r1, r4
   24daa:	4633      	mov	r3, r6
   24dac:	df02      	svc	2
   24dae:	910f      	str	r1, [sp, #60]	@ 0x3c
   24db0:	287f      	cmp	r0, #127	@ 0x7f
   24db2:	d80b      	bhi.n	24dcc <_start+0x47c8>
   24db4:	9e0b      	ldr	r6, [sp, #44]	@ 0x2c
   24db6:	e034      	b.n	24e22 <_start+0x481e>
   24db8:	000005a8 	.word	0x000005a8
   24dbc:	00000558 	.word	0x00000558
   24dc0:	00000a36 	.word	0x00000a36
   24dc4:	00002048 	.word	0x00002048
   24dc8:	000020ee 	.word	0x000020ee
   24dcc:	48da      	ldr	r0, [pc, #872]	@ (25138 <_start+0x4b34>)
   24dce:	4468      	add	r0, sp
   24dd0:	7802      	ldrb	r2, [r0, #0]
   24dd2:	2a02      	cmp	r2, #2
   24dd4:	d00c      	beq.n	24df0 <_start+0x47ec>
   24dd6:	980a      	ldr	r0, [sp, #40]	@ 0x28
   24dd8:	4621      	mov	r1, r4
   24dda:	f003 f8b3 	bl	27f44 <_ZN9allow_pin12dynamic_type7unshare17ha4091652f9b609c4E>
   24dde:	48d6      	ldr	r0, [pc, #856]	@ (25138 <_start+0x4b34>)
   24de0:	4468      	add	r0, sp
   24de2:	7004      	strb	r4, [r0, #0]
   24de4:	48d5      	ldr	r0, [pc, #852]	@ (2513c <_start+0x4b38>)
   24de6:	4468      	add	r0, sp
   24de8:	7800      	ldrb	r0, [r0, #0]
   24dea:	9008      	str	r0, [sp, #32]
   24dec:	2802      	cmp	r0, #2
   24dee:	d004      	beq.n	24dfa <_start+0x47f6>
   24df0:	2108      	movs	r1, #8
   24df2:	980a      	ldr	r0, [sp, #40]	@ 0x28
   24df4:	9a08      	ldr	r2, [sp, #32]
   24df6:	f003 f8a5 	bl	27f44 <_ZN9allow_pin12dynamic_type7unshare17ha4091652f9b609c4E>
   24dfa:	49d0      	ldr	r1, [pc, #832]	@ (2513c <_start+0x4b38>)
   24dfc:	4469      	add	r1, sp
   24dfe:	700c      	strb	r4, [r1, #0]
   24e00:	9b06      	ldr	r3, [sp, #24]
   24e02:	7898      	ldrb	r0, [r3, #2]
   24e04:	aac9      	add	r2, sp, #804	@ 0x324
   24e06:	7090      	strb	r0, [r2, #2]
   24e08:	7818      	ldrb	r0, [r3, #0]
   24e0a:	785b      	ldrb	r3, [r3, #1]
   24e0c:	021b      	lsls	r3, r3, #8
   24e0e:	1818      	adds	r0, r3, r0
   24e10:	8010      	strh	r0, [r2, #0]
   24e12:	980c      	ldr	r0, [sp, #48]	@ 0x30
   24e14:	6d40      	ldr	r0, [r0, #84]	@ 0x54
   24e16:	900f      	str	r0, [sp, #60]	@ 0x3c
   24e18:	3108      	adds	r1, #8
   24e1a:	a89f      	add	r0, sp, #636	@ 0x27c
   24e1c:	225a      	movs	r2, #90	@ 0x5a
   24e1e:	f003 f8fe 	bl	2801e <__aeabi_memcpy4>
   24e22:	48c6      	ldr	r0, [pc, #792]	@ (2513c <_start+0x4b38>)
   24e24:	4468      	add	r0, sp
   24e26:	7802      	ldrb	r2, [r0, #0]
   24e28:	2a02      	cmp	r2, #2
   24e2a:	d003      	beq.n	24e34 <_start+0x4830>
   24e2c:	2108      	movs	r1, #8
   24e2e:	980a      	ldr	r0, [sp, #40]	@ 0x28
   24e30:	f003 f888 	bl	27f44 <_ZN9allow_pin12dynamic_type7unshare17ha4091652f9b609c4E>
   24e34:	48c0      	ldr	r0, [pc, #768]	@ (25138 <_start+0x4b34>)
   24e36:	4468      	add	r0, sp
   24e38:	7802      	ldrb	r2, [r0, #0]
   24e3a:	2a02      	cmp	r2, #2
   24e3c:	d003      	beq.n	24e46 <_start+0x4842>
   24e3e:	2102      	movs	r1, #2
   24e40:	980a      	ldr	r0, [sp, #40]	@ 0x28
   24e42:	f003 f87f 	bl	27f44 <_ZN9allow_pin12dynamic_type7unshare17ha4091652f9b609c4E>
   24e46:	2e00      	cmp	r6, #0
   24e48:	d001      	beq.n	24e4e <_start+0x484a>
   24e4a:	f7fd f983 	bl	22154 <_start+0x1b50>
   24e4e:	4cbb      	ldr	r4, [pc, #748]	@ (2513c <_start+0x4b38>)
   24e50:	446c      	add	r4, sp
   24e52:	1c60      	adds	r0, r4, #1
   24e54:	9006      	str	r0, [sp, #24]
   24e56:	a9c9      	add	r1, sp, #804	@ 0x324
   24e58:	2203      	movs	r2, #3
   24e5a:	920a      	str	r2, [sp, #40]	@ 0x28
   24e5c:	f003 fa3f 	bl	282de <__aeabi_memcpy>
   24e60:	a8ff      	add	r0, sp, #1020	@ 0x3fc
   24e62:	30a4      	adds	r0, #164	@ 0xa4
   24e64:	9008      	str	r0, [sp, #32]
   24e66:	a99f      	add	r1, sp, #636	@ 0x27c
   24e68:	265a      	movs	r6, #90	@ 0x5a
   24e6a:	4632      	mov	r2, r6
   24e6c:	f003 f8d7 	bl	2801e <__aeabi_memcpy4>
   24e70:	4620      	mov	r0, r4
   24e72:	3008      	adds	r0, #8
   24e74:	9908      	ldr	r1, [sp, #32]
   24e76:	4632      	mov	r2, r6
   24e78:	f003 f8d1 	bl	2801e <__aeabi_memcpy4>
   24e7c:	9e0e      	ldr	r6, [sp, #56]	@ 0x38
   24e7e:	7026      	strb	r6, [r4, #0]
   24e80:	980c      	ldr	r0, [sp, #48]	@ 0x30
   24e82:	990f      	ldr	r1, [sp, #60]	@ 0x3c
   24e84:	6541      	str	r1, [r0, #84]	@ 0x54
   24e86:	acff      	add	r4, sp, #1020	@ 0x3fc
   24e88:	34a4      	adds	r4, #164	@ 0xa4
   24e8a:	1c60      	adds	r0, r4, #1
   24e8c:	211e      	movs	r1, #30
   24e8e:	9008      	str	r0, [sp, #32]
   24e90:	f003 f865 	bl	27f5e <__aeabi_memclr>
   24e94:	7026      	strb	r6, [r4, #0]
   24e96:	990d      	ldr	r1, [sp, #52]	@ 0x34
   24e98:	9100      	str	r1, [sp, #0]
   24e9a:	9c07      	ldr	r4, [sp, #28]
   24e9c:	345a      	adds	r4, #90	@ 0x5a
   24e9e:	2361      	movs	r3, #97	@ 0x61
   24ea0:	4620      	mov	r0, r4
   24ea2:	9a06      	ldr	r2, [sp, #24]
   24ea4:	f7fb f9fa 	bl	2029c <_ZN9allow_pin12dynamic_type11allow_inner17hf1099571477a6939E>
   24ea8:	910f      	str	r1, [sp, #60]	@ 0x3c
   24eaa:	07c0      	lsls	r0, r0, #31
   24eac:	d11c      	bne.n	24ee8 <_start+0x48e4>
   24eae:	48a3      	ldr	r0, [pc, #652]	@ (2513c <_start+0x4b38>)
   24eb0:	4468      	add	r0, sp
   24eb2:	990d      	ldr	r1, [sp, #52]	@ 0x34
   24eb4:	7001      	strb	r1, [r0, #0]
   24eb6:	980a      	ldr	r0, [sp, #40]	@ 0x28
   24eb8:	9000      	str	r0, [sp, #0]
   24eba:	2106      	movs	r1, #6
   24ebc:	231e      	movs	r3, #30
   24ebe:	4620      	mov	r0, r4
   24ec0:	9a08      	ldr	r2, [sp, #32]
   24ec2:	f7fb f9eb 	bl	2029c <_ZN9allow_pin12dynamic_type11allow_inner17hf1099571477a6939E>
   24ec6:	910f      	str	r1, [sp, #60]	@ 0x3c
   24ec8:	07c0      	lsls	r0, r0, #31
   24eca:	d10d      	bne.n	24ee8 <_start+0x48e4>
   24ecc:	a8ff      	add	r0, sp, #1020	@ 0x3fc
   24ece:	30a4      	adds	r0, #164	@ 0xa4
   24ed0:	990a      	ldr	r1, [sp, #40]	@ 0x28
   24ed2:	7001      	strb	r1, [r0, #0]
   24ed4:	9805      	ldr	r0, [sp, #20]
   24ed6:	00c0      	lsls	r0, r0, #3
   24ed8:	2104      	movs	r1, #4
   24eda:	2206      	movs	r2, #6
   24edc:	2600      	movs	r6, #0
   24ede:	4633      	mov	r3, r6
   24ee0:	df02      	svc	2
   24ee2:	910f      	str	r1, [sp, #60]	@ 0x3c
   24ee4:	287f      	cmp	r0, #127	@ 0x7f
   24ee6:	d801      	bhi.n	24eec <_start+0x48e8>
   24ee8:	9e0b      	ldr	r6, [sp, #44]	@ 0x2c
   24eea:	e02d      	b.n	24f48 <_start+0x4944>
   24eec:	4893      	ldr	r0, [pc, #588]	@ (2513c <_start+0x4b38>)
   24eee:	4468      	add	r0, sp
   24ef0:	7802      	ldrb	r2, [r0, #0]
   24ef2:	2a02      	cmp	r2, #2
   24ef4:	d00d      	beq.n	24f12 <_start+0x490e>
   24ef6:	2104      	movs	r1, #4
   24ef8:	4620      	mov	r0, r4
   24efa:	f003 f823 	bl	27f44 <_ZN9allow_pin12dynamic_type7unshare17ha4091652f9b609c4E>
   24efe:	488f      	ldr	r0, [pc, #572]	@ (2513c <_start+0x4b38>)
   24f00:	4468      	add	r0, sp
   24f02:	990e      	ldr	r1, [sp, #56]	@ 0x38
   24f04:	7001      	strb	r1, [r0, #0]
   24f06:	a8ff      	add	r0, sp, #1020	@ 0x3fc
   24f08:	30a4      	adds	r0, #164	@ 0xa4
   24f0a:	7800      	ldrb	r0, [r0, #0]
   24f0c:	900a      	str	r0, [sp, #40]	@ 0x28
   24f0e:	2802      	cmp	r0, #2
   24f10:	d004      	beq.n	24f1c <_start+0x4918>
   24f12:	2106      	movs	r1, #6
   24f14:	4620      	mov	r0, r4
   24f16:	9a0a      	ldr	r2, [sp, #40]	@ 0x28
   24f18:	f003 f814 	bl	27f44 <_ZN9allow_pin12dynamic_type7unshare17ha4091652f9b609c4E>
   24f1c:	a9ff      	add	r1, sp, #1020	@ 0x3fc
   24f1e:	31a4      	adds	r1, #164	@ 0xa4
   24f20:	980e      	ldr	r0, [sp, #56]	@ 0x38
   24f22:	7008      	strb	r0, [r1, #0]
   24f24:	9b08      	ldr	r3, [sp, #32]
   24f26:	7898      	ldrb	r0, [r3, #2]
   24f28:	aac9      	add	r2, sp, #804	@ 0x324
   24f2a:	7090      	strb	r0, [r2, #2]
   24f2c:	7818      	ldrb	r0, [r3, #0]
   24f2e:	785b      	ldrb	r3, [r3, #1]
   24f30:	021b      	lsls	r3, r3, #8
   24f32:	1818      	adds	r0, r3, r0
   24f34:	8010      	strh	r0, [r2, #0]
   24f36:	9809      	ldr	r0, [sp, #36]	@ 0x24
   24f38:	6800      	ldr	r0, [r0, #0]
   24f3a:	900f      	str	r0, [sp, #60]	@ 0x3c
   24f3c:	3108      	adds	r1, #8
   24f3e:	487e      	ldr	r0, [pc, #504]	@ (25138 <_start+0x4b34>)
   24f40:	4468      	add	r0, sp
   24f42:	2217      	movs	r2, #23
   24f44:	f003 f9cb 	bl	282de <__aeabi_memcpy>
   24f48:	a8ff      	add	r0, sp, #1020	@ 0x3fc
   24f4a:	30a4      	adds	r0, #164	@ 0xa4
   24f4c:	7802      	ldrb	r2, [r0, #0]
   24f4e:	2a02      	cmp	r2, #2
   24f50:	d003      	beq.n	24f5a <_start+0x4956>
   24f52:	2106      	movs	r1, #6
   24f54:	4620      	mov	r0, r4
   24f56:	f002 fff5 	bl	27f44 <_ZN9allow_pin12dynamic_type7unshare17ha4091652f9b609c4E>
   24f5a:	4878      	ldr	r0, [pc, #480]	@ (2513c <_start+0x4b38>)
   24f5c:	4468      	add	r0, sp
   24f5e:	7802      	ldrb	r2, [r0, #0]
   24f60:	2a02      	cmp	r2, #2
   24f62:	d003      	beq.n	24f6c <_start+0x4968>
   24f64:	2104      	movs	r1, #4
   24f66:	4620      	mov	r0, r4
   24f68:	f002 ffec 	bl	27f44 <_ZN9allow_pin12dynamic_type7unshare17ha4091652f9b609c4E>
   24f6c:	2e00      	cmp	r6, #0
   24f6e:	d001      	beq.n	24f74 <_start+0x4970>
   24f70:	f7fd f8f0 	bl	22154 <_start+0x1b50>
   24f74:	acff      	add	r4, sp, #1020	@ 0x3fc
   24f76:	34a4      	adds	r4, #164	@ 0xa4
   24f78:	1c60      	adds	r0, r4, #1
   24f7a:	9006      	str	r0, [sp, #24]
   24f7c:	a9c9      	add	r1, sp, #804	@ 0x324
   24f7e:	2203      	movs	r2, #3
   24f80:	920a      	str	r2, [sp, #40]	@ 0x28
   24f82:	f003 f9ac 	bl	282de <__aeabi_memcpy>
   24f86:	a89f      	add	r0, sp, #636	@ 0x27c
   24f88:	9008      	str	r0, [sp, #32]
   24f8a:	496b      	ldr	r1, [pc, #428]	@ (25138 <_start+0x4b34>)
   24f8c:	4469      	add	r1, sp
   24f8e:	2617      	movs	r6, #23
   24f90:	4632      	mov	r2, r6
   24f92:	f003 f9a4 	bl	282de <__aeabi_memcpy>
   24f96:	4620      	mov	r0, r4
   24f98:	3008      	adds	r0, #8
   24f9a:	9908      	ldr	r1, [sp, #32]
   24f9c:	4632      	mov	r2, r6
   24f9e:	f003 f99e 	bl	282de <__aeabi_memcpy>
   24fa2:	9e0e      	ldr	r6, [sp, #56]	@ 0x38
   24fa4:	7026      	strb	r6, [r4, #0]
   24fa6:	9809      	ldr	r0, [sp, #36]	@ 0x24
   24fa8:	990f      	ldr	r1, [sp, #60]	@ 0x3c
   24faa:	6001      	str	r1, [r0, #0]
   24fac:	4c63      	ldr	r4, [pc, #396]	@ (2513c <_start+0x4b38>)
   24fae:	446c      	add	r4, sp
   24fb0:	1c60      	adds	r0, r4, #1
   24fb2:	2121      	movs	r1, #33	@ 0x21
   24fb4:	9008      	str	r0, [sp, #32]
   24fb6:	f002 ffd2 	bl	27f5e <__aeabi_memclr>
   24fba:	7026      	strb	r6, [r4, #0]
   24fbc:	980d      	ldr	r0, [sp, #52]	@ 0x34
   24fbe:	9000      	str	r0, [sp, #0]
   24fc0:	485f      	ldr	r0, [pc, #380]	@ (25140 <_start+0x4b3c>)
   24fc2:	304a      	adds	r0, #74	@ 0x4a
   24fc4:	2106      	movs	r1, #6
   24fc6:	231e      	movs	r3, #30
   24fc8:	4604      	mov	r4, r0
   24fca:	9a06      	ldr	r2, [sp, #24]
   24fcc:	f7fb f966 	bl	2029c <_ZN9allow_pin12dynamic_type11allow_inner17hf1099571477a6939E>
   24fd0:	910f      	str	r1, [sp, #60]	@ 0x3c
   24fd2:	07c0      	lsls	r0, r0, #31
   24fd4:	d11b      	bne.n	2500e <_start+0x4a0a>
   24fd6:	a8ff      	add	r0, sp, #1020	@ 0x3fc
   24fd8:	30a4      	adds	r0, #164	@ 0xa4
   24fda:	990d      	ldr	r1, [sp, #52]	@ 0x34
   24fdc:	7001      	strb	r1, [r0, #0]
   24fde:	980a      	ldr	r0, [sp, #40]	@ 0x28
   24fe0:	9000      	str	r0, [sp, #0]
   24fe2:	2109      	movs	r1, #9
   24fe4:	2321      	movs	r3, #33	@ 0x21
   24fe6:	4620      	mov	r0, r4
   24fe8:	9a08      	ldr	r2, [sp, #32]
   24fea:	f7fb f957 	bl	2029c <_ZN9allow_pin12dynamic_type11allow_inner17hf1099571477a6939E>
   24fee:	910f      	str	r1, [sp, #60]	@ 0x3c
   24ff0:	07c0      	lsls	r0, r0, #31
   24ff2:	d10c      	bne.n	2500e <_start+0x4a0a>
   24ff4:	4851      	ldr	r0, [pc, #324]	@ (2513c <_start+0x4b38>)
   24ff6:	4468      	add	r0, sp
   24ff8:	990a      	ldr	r1, [sp, #40]	@ 0x28
   24ffa:	7001      	strb	r1, [r0, #0]
   24ffc:	4851      	ldr	r0, [pc, #324]	@ (25144 <_start+0x4b40>)
   24ffe:	2106      	movs	r1, #6
   25000:	2209      	movs	r2, #9
   25002:	2600      	movs	r6, #0
   25004:	4633      	mov	r3, r6
   25006:	df02      	svc	2
   25008:	910f      	str	r1, [sp, #60]	@ 0x3c
   2500a:	287f      	cmp	r0, #127	@ 0x7f
   2500c:	d801      	bhi.n	25012 <_start+0x4a0e>
   2500e:	9e0b      	ldr	r6, [sp, #44]	@ 0x2c
   25010:	e02d      	b.n	2506e <_start+0x4a6a>
   25012:	a8ff      	add	r0, sp, #1020	@ 0x3fc
   25014:	30a4      	adds	r0, #164	@ 0xa4
   25016:	7802      	ldrb	r2, [r0, #0]
   25018:	2a02      	cmp	r2, #2
   2501a:	d00d      	beq.n	25038 <_start+0x4a34>
   2501c:	2106      	movs	r1, #6
   2501e:	4620      	mov	r0, r4
   25020:	f002 ff90 	bl	27f44 <_ZN9allow_pin12dynamic_type7unshare17ha4091652f9b609c4E>
   25024:	a8ff      	add	r0, sp, #1020	@ 0x3fc
   25026:	30a4      	adds	r0, #164	@ 0xa4
   25028:	990e      	ldr	r1, [sp, #56]	@ 0x38
   2502a:	7001      	strb	r1, [r0, #0]
   2502c:	4843      	ldr	r0, [pc, #268]	@ (2513c <_start+0x4b38>)
   2502e:	4468      	add	r0, sp
   25030:	7800      	ldrb	r0, [r0, #0]
   25032:	900a      	str	r0, [sp, #40]	@ 0x28
   25034:	2802      	cmp	r0, #2
   25036:	d004      	beq.n	25042 <_start+0x4a3e>
   25038:	2109      	movs	r1, #9
   2503a:	4620      	mov	r0, r4
   2503c:	9a0a      	ldr	r2, [sp, #40]	@ 0x28
   2503e:	f002 ff81 	bl	27f44 <_ZN9allow_pin12dynamic_type7unshare17ha4091652f9b609c4E>
   25042:	493e      	ldr	r1, [pc, #248]	@ (2513c <_start+0x4b38>)
   25044:	4469      	add	r1, sp
   25046:	980e      	ldr	r0, [sp, #56]	@ 0x38
   25048:	7008      	strb	r0, [r1, #0]
   2504a:	9b08      	ldr	r3, [sp, #32]
   2504c:	7898      	ldrb	r0, [r3, #2]
   2504e:	aaff      	add	r2, sp, #1020	@ 0x3fc
   25050:	328c      	adds	r2, #140	@ 0x8c
   25052:	7090      	strb	r0, [r2, #2]
   25054:	7818      	ldrb	r0, [r3, #0]
   25056:	785b      	ldrb	r3, [r3, #1]
   25058:	021b      	lsls	r3, r3, #8
   2505a:	1818      	adds	r0, r3, r0
   2505c:	8010      	strh	r0, [r2, #0]
   2505e:	980c      	ldr	r0, [sp, #48]	@ 0x30
   25060:	6d40      	ldr	r0, [r0, #84]	@ 0x54
   25062:	900f      	str	r0, [sp, #60]	@ 0x3c
   25064:	3108      	adds	r1, #8
   25066:	a8c9      	add	r0, sp, #804	@ 0x324
   25068:	221a      	movs	r2, #26
   2506a:	f003 f938 	bl	282de <__aeabi_memcpy>
   2506e:	4833      	ldr	r0, [pc, #204]	@ (2513c <_start+0x4b38>)
   25070:	4468      	add	r0, sp
   25072:	7802      	ldrb	r2, [r0, #0]
   25074:	2a02      	cmp	r2, #2
   25076:	d003      	beq.n	25080 <_start+0x4a7c>
   25078:	2109      	movs	r1, #9
   2507a:	4620      	mov	r0, r4
   2507c:	f002 ff62 	bl	27f44 <_ZN9allow_pin12dynamic_type7unshare17ha4091652f9b609c4E>
   25080:	a8ff      	add	r0, sp, #1020	@ 0x3fc
   25082:	30a4      	adds	r0, #164	@ 0xa4
   25084:	7802      	ldrb	r2, [r0, #0]
   25086:	2a02      	cmp	r2, #2
   25088:	d003      	beq.n	25092 <_start+0x4a8e>
   2508a:	2106      	movs	r1, #6
   2508c:	4620      	mov	r0, r4
   2508e:	f002 ff59 	bl	27f44 <_ZN9allow_pin12dynamic_type7unshare17ha4091652f9b609c4E>
   25092:	2e00      	cmp	r6, #0
   25094:	d001      	beq.n	2509a <_start+0x4a96>
   25096:	f7fd f85d 	bl	22154 <_start+0x1b50>
   2509a:	4c27      	ldr	r4, [pc, #156]	@ (25138 <_start+0x4b34>)
   2509c:	446c      	add	r4, sp
   2509e:	1c60      	adds	r0, r4, #1
   250a0:	900a      	str	r0, [sp, #40]	@ 0x28
   250a2:	a9ff      	add	r1, sp, #1020	@ 0x3fc
   250a4:	318c      	adds	r1, #140	@ 0x8c
   250a6:	2203      	movs	r2, #3
   250a8:	9208      	str	r2, [sp, #32]
   250aa:	f003 f918 	bl	282de <__aeabi_memcpy>
   250ae:	ad9f      	add	r5, sp, #636	@ 0x27c
   250b0:	a9c9      	add	r1, sp, #804	@ 0x324
   250b2:	261a      	movs	r6, #26
   250b4:	4628      	mov	r0, r5
   250b6:	4632      	mov	r2, r6
   250b8:	f003 f911 	bl	282de <__aeabi_memcpy>
   250bc:	4620      	mov	r0, r4
   250be:	3008      	adds	r0, #8
   250c0:	4629      	mov	r1, r5
   250c2:	4632      	mov	r2, r6
   250c4:	f003 f90b 	bl	282de <__aeabi_memcpy>
   250c8:	9d0e      	ldr	r5, [sp, #56]	@ 0x38
   250ca:	7025      	strb	r5, [r4, #0]
   250cc:	980c      	ldr	r0, [sp, #48]	@ 0x30
   250ce:	990f      	ldr	r1, [sp, #60]	@ 0x3c
   250d0:	6041      	str	r1, [r0, #4]
   250d2:	4c1a      	ldr	r4, [pc, #104]	@ (2513c <_start+0x4b38>)
   250d4:	446c      	add	r4, sp
   250d6:	1c66      	adds	r6, r4, #1
   250d8:	212a      	movs	r1, #42	@ 0x2a
   250da:	4630      	mov	r0, r6
   250dc:	f002 ff3f 	bl	27f5e <__aeabi_memclr>
   250e0:	7025      	strb	r5, [r4, #0]
   250e2:	980d      	ldr	r0, [sp, #52]	@ 0x34
   250e4:	9000      	str	r0, [sp, #0]
   250e6:	4818      	ldr	r0, [pc, #96]	@ (25148 <_start+0x4b44>)
   250e8:	1c84      	adds	r4, r0, #2
   250ea:	2501      	movs	r5, #1
   250ec:	2321      	movs	r3, #33	@ 0x21
   250ee:	4620      	mov	r0, r4
   250f0:	4629      	mov	r1, r5
   250f2:	9a0a      	ldr	r2, [sp, #40]	@ 0x28
   250f4:	f7fb f8d2 	bl	2029c <_ZN9allow_pin12dynamic_type11allow_inner17hf1099571477a6939E>
   250f8:	910f      	str	r1, [sp, #60]	@ 0x3c
   250fa:	07c0      	lsls	r0, r0, #31
   250fc:	d119      	bne.n	25132 <_start+0x4b2e>
   250fe:	480e      	ldr	r0, [pc, #56]	@ (25138 <_start+0x4b34>)
   25100:	4468      	add	r0, sp
   25102:	990d      	ldr	r1, [sp, #52]	@ 0x34
   25104:	7001      	strb	r1, [r0, #0]
   25106:	9908      	ldr	r1, [sp, #32]
   25108:	9100      	str	r1, [sp, #0]
   2510a:	232a      	movs	r3, #42	@ 0x2a
   2510c:	4620      	mov	r0, r4
   2510e:	4632      	mov	r2, r6
   25110:	f7fb f8c4 	bl	2029c <_ZN9allow_pin12dynamic_type11allow_inner17hf1099571477a6939E>
   25114:	910f      	str	r1, [sp, #60]	@ 0x3c
   25116:	07c0      	lsls	r0, r0, #31
   25118:	d10b      	bne.n	25132 <_start+0x4b2e>
   2511a:	4808      	ldr	r0, [pc, #32]	@ (2513c <_start+0x4b38>)
   2511c:	4468      	add	r0, sp
   2511e:	9a08      	ldr	r2, [sp, #32]
   25120:	7002      	strb	r2, [r0, #0]
   25122:	480a      	ldr	r0, [pc, #40]	@ (2514c <_start+0x4b48>)
   25124:	2101      	movs	r1, #1
   25126:	2300      	movs	r3, #0
   25128:	930a      	str	r3, [sp, #40]	@ 0x28
   2512a:	df02      	svc	2
   2512c:	910f      	str	r1, [sp, #60]	@ 0x3c
   2512e:	287f      	cmp	r0, #127	@ 0x7f
   25130:	d80e      	bhi.n	25150 <_start+0x4b4c>
   25132:	980b      	ldr	r0, [sp, #44]	@ 0x2c
   25134:	900a      	str	r0, [sp, #40]	@ 0x28
   25136:	e037      	b.n	251a8 <_start+0x4ba4>
   25138:	00000558 	.word	0x00000558
   2513c:	000005a8 	.word	0x000005a8
   25140:	0000196b 	.word	0x0000196b
   25144:	000019b5 	.word	0x000019b5
   25148:	000015f1 	.word	0x000015f1
   2514c:	000015f3 	.word	0x000015f3
   25150:	48d9      	ldr	r0, [pc, #868]	@ (254b8 <_start+0x4eb4>)
   25152:	4468      	add	r0, sp
   25154:	7802      	ldrb	r2, [r0, #0]
   25156:	2a02      	cmp	r2, #2
   25158:	d00d      	beq.n	25176 <_start+0x4b72>
   2515a:	2101      	movs	r1, #1
   2515c:	4620      	mov	r0, r4
   2515e:	f002 fef1 	bl	27f44 <_ZN9allow_pin12dynamic_type7unshare17ha4091652f9b609c4E>
   25162:	48d5      	ldr	r0, [pc, #852]	@ (254b8 <_start+0x4eb4>)
   25164:	4468      	add	r0, sp
   25166:	990e      	ldr	r1, [sp, #56]	@ 0x38
   25168:	7001      	strb	r1, [r0, #0]
   2516a:	48d4      	ldr	r0, [pc, #848]	@ (254bc <_start+0x4eb8>)
   2516c:	4468      	add	r0, sp
   2516e:	7800      	ldrb	r0, [r0, #0]
   25170:	9008      	str	r0, [sp, #32]
   25172:	2802      	cmp	r0, #2
   25174:	d004      	beq.n	25180 <_start+0x4b7c>
   25176:	2103      	movs	r1, #3
   25178:	4620      	mov	r0, r4
   2517a:	9a08      	ldr	r2, [sp, #32]
   2517c:	f002 fee2 	bl	27f44 <_ZN9allow_pin12dynamic_type7unshare17ha4091652f9b609c4E>
   25180:	49ce      	ldr	r1, [pc, #824]	@ (254bc <_start+0x4eb8>)
   25182:	4469      	add	r1, sp
   25184:	980e      	ldr	r0, [sp, #56]	@ 0x38
   25186:	7008      	strb	r0, [r1, #0]
   25188:	78b0      	ldrb	r0, [r6, #2]
   2518a:	aac9      	add	r2, sp, #804	@ 0x324
   2518c:	7090      	strb	r0, [r2, #2]
   2518e:	7830      	ldrb	r0, [r6, #0]
   25190:	7873      	ldrb	r3, [r6, #1]
   25192:	021b      	lsls	r3, r3, #8
   25194:	1818      	adds	r0, r3, r0
   25196:	8010      	strh	r0, [r2, #0]
   25198:	980c      	ldr	r0, [sp, #48]	@ 0x30
   2519a:	6d40      	ldr	r0, [r0, #84]	@ 0x54
   2519c:	900f      	str	r0, [sp, #60]	@ 0x3c
   2519e:	3108      	adds	r1, #8
   251a0:	a89f      	add	r0, sp, #636	@ 0x27c
   251a2:	2223      	movs	r2, #35	@ 0x23
   251a4:	f003 f89b 	bl	282de <__aeabi_memcpy>
   251a8:	48c4      	ldr	r0, [pc, #784]	@ (254bc <_start+0x4eb8>)
   251aa:	4468      	add	r0, sp
   251ac:	7802      	ldrb	r2, [r0, #0]
   251ae:	2a02      	cmp	r2, #2
   251b0:	d003      	beq.n	251ba <_start+0x4bb6>
   251b2:	2103      	movs	r1, #3
   251b4:	4620      	mov	r0, r4
   251b6:	f002 fec5 	bl	27f44 <_ZN9allow_pin12dynamic_type7unshare17ha4091652f9b609c4E>
   251ba:	48bf      	ldr	r0, [pc, #764]	@ (254b8 <_start+0x4eb4>)
   251bc:	4468      	add	r0, sp
   251be:	7802      	ldrb	r2, [r0, #0]
   251c0:	2a02      	cmp	r2, #2
   251c2:	d003      	beq.n	251cc <_start+0x4bc8>
   251c4:	2101      	movs	r1, #1
   251c6:	4620      	mov	r0, r4
   251c8:	f002 febc 	bl	27f44 <_ZN9allow_pin12dynamic_type7unshare17ha4091652f9b609c4E>
   251cc:	980a      	ldr	r0, [sp, #40]	@ 0x28
   251ce:	2800      	cmp	r0, #0
   251d0:	d001      	beq.n	251d6 <_start+0x4bd2>
   251d2:	f7fc ffbf 	bl	22154 <_start+0x1b50>
   251d6:	4eb8      	ldr	r6, [pc, #736]	@ (254b8 <_start+0x4eb4>)
   251d8:	446e      	add	r6, sp
   251da:	1c70      	adds	r0, r6, #1
   251dc:	9006      	str	r0, [sp, #24]
   251de:	a9c9      	add	r1, sp, #804	@ 0x324
   251e0:	2203      	movs	r2, #3
   251e2:	920a      	str	r2, [sp, #40]	@ 0x28
   251e4:	f003 f87b 	bl	282de <__aeabi_memcpy>
   251e8:	acff      	add	r4, sp, #1020	@ 0x3fc
   251ea:	34a4      	adds	r4, #164	@ 0xa4
   251ec:	a99f      	add	r1, sp, #636	@ 0x27c
   251ee:	2523      	movs	r5, #35	@ 0x23
   251f0:	4620      	mov	r0, r4
   251f2:	462a      	mov	r2, r5
   251f4:	f003 f873 	bl	282de <__aeabi_memcpy>
   251f8:	4630      	mov	r0, r6
   251fa:	3008      	adds	r0, #8
   251fc:	4621      	mov	r1, r4
   251fe:	462a      	mov	r2, r5
   25200:	f003 f86d 	bl	282de <__aeabi_memcpy>
   25204:	9d0e      	ldr	r5, [sp, #56]	@ 0x38
   25206:	7035      	strb	r5, [r6, #0]
   25208:	980c      	ldr	r0, [sp, #48]	@ 0x30
   2520a:	990f      	ldr	r1, [sp, #60]	@ 0x3c
   2520c:	6041      	str	r1, [r0, #4]
   2520e:	4cab      	ldr	r4, [pc, #684]	@ (254bc <_start+0x4eb8>)
   25210:	446c      	add	r4, sp
   25212:	1c60      	adds	r0, r4, #1
   25214:	2159      	movs	r1, #89	@ 0x59
   25216:	9008      	str	r0, [sp, #32]
   25218:	f002 fea1 	bl	27f5e <__aeabi_memclr>
   2521c:	7025      	strb	r5, [r4, #0]
   2521e:	980d      	ldr	r0, [sp, #52]	@ 0x34
   25220:	9000      	str	r0, [sp, #0]
   25222:	4ca7      	ldr	r4, [pc, #668]	@ (254c0 <_start+0x4ebc>)
   25224:	340f      	adds	r4, #15
   25226:	2501      	movs	r5, #1
   25228:	232a      	movs	r3, #42	@ 0x2a
   2522a:	4620      	mov	r0, r4
   2522c:	4629      	mov	r1, r5
   2522e:	9a06      	ldr	r2, [sp, #24]
   25230:	f7fb f834 	bl	2029c <_ZN9allow_pin12dynamic_type11allow_inner17hf1099571477a6939E>
   25234:	910f      	str	r1, [sp, #60]	@ 0x3c
   25236:	07c0      	lsls	r0, r0, #31
   25238:	d119      	bne.n	2526e <_start+0x4c6a>
   2523a:	489f      	ldr	r0, [pc, #636]	@ (254b8 <_start+0x4eb4>)
   2523c:	4468      	add	r0, sp
   2523e:	990d      	ldr	r1, [sp, #52]	@ 0x34
   25240:	7001      	strb	r1, [r0, #0]
   25242:	990a      	ldr	r1, [sp, #40]	@ 0x28
   25244:	9100      	str	r1, [sp, #0]
   25246:	2359      	movs	r3, #89	@ 0x59
   25248:	4620      	mov	r0, r4
   2524a:	9a08      	ldr	r2, [sp, #32]
   2524c:	f7fb f826 	bl	2029c <_ZN9allow_pin12dynamic_type11allow_inner17hf1099571477a6939E>
   25250:	910f      	str	r1, [sp, #60]	@ 0x3c
   25252:	07c0      	lsls	r0, r0, #31
   25254:	d10b      	bne.n	2526e <_start+0x4c6a>
   25256:	4899      	ldr	r0, [pc, #612]	@ (254bc <_start+0x4eb8>)
   25258:	4468      	add	r0, sp
   2525a:	9a0a      	ldr	r2, [sp, #40]	@ 0x28
   2525c:	7002      	strb	r2, [r0, #0]
   2525e:	4899      	ldr	r0, [pc, #612]	@ (254c4 <_start+0x4ec0>)
   25260:	2101      	movs	r1, #1
   25262:	2600      	movs	r6, #0
   25264:	4633      	mov	r3, r6
   25266:	df02      	svc	2
   25268:	910f      	str	r1, [sp, #60]	@ 0x3c
   2526a:	287f      	cmp	r0, #127	@ 0x7f
   2526c:	d801      	bhi.n	25272 <_start+0x4c6e>
   2526e:	9e0b      	ldr	r6, [sp, #44]	@ 0x2c
   25270:	e02c      	b.n	252cc <_start+0x4cc8>
   25272:	4891      	ldr	r0, [pc, #580]	@ (254b8 <_start+0x4eb4>)
   25274:	4468      	add	r0, sp
   25276:	7802      	ldrb	r2, [r0, #0]
   25278:	2a02      	cmp	r2, #2
   2527a:	d00d      	beq.n	25298 <_start+0x4c94>
   2527c:	2101      	movs	r1, #1
   2527e:	4620      	mov	r0, r4
   25280:	f002 fe60 	bl	27f44 <_ZN9allow_pin12dynamic_type7unshare17ha4091652f9b609c4E>
   25284:	488c      	ldr	r0, [pc, #560]	@ (254b8 <_start+0x4eb4>)
   25286:	4468      	add	r0, sp
   25288:	990e      	ldr	r1, [sp, #56]	@ 0x38
   2528a:	7001      	strb	r1, [r0, #0]
   2528c:	488b      	ldr	r0, [pc, #556]	@ (254bc <_start+0x4eb8>)
   2528e:	4468      	add	r0, sp
   25290:	7800      	ldrb	r0, [r0, #0]
   25292:	900a      	str	r0, [sp, #40]	@ 0x28
   25294:	2802      	cmp	r0, #2
   25296:	d004      	beq.n	252a2 <_start+0x4c9e>
   25298:	2103      	movs	r1, #3
   2529a:	4620      	mov	r0, r4
   2529c:	9a0a      	ldr	r2, [sp, #40]	@ 0x28
   2529e:	f002 fe51 	bl	27f44 <_ZN9allow_pin12dynamic_type7unshare17ha4091652f9b609c4E>
   252a2:	4986      	ldr	r1, [pc, #536]	@ (254bc <_start+0x4eb8>)
   252a4:	4469      	add	r1, sp
   252a6:	980e      	ldr	r0, [sp, #56]	@ 0x38
   252a8:	7008      	strb	r0, [r1, #0]
   252aa:	9b08      	ldr	r3, [sp, #32]
   252ac:	7898      	ldrb	r0, [r3, #2]
   252ae:	aac9      	add	r2, sp, #804	@ 0x324
   252b0:	7090      	strb	r0, [r2, #2]
   252b2:	7818      	ldrb	r0, [r3, #0]
   252b4:	785b      	ldrb	r3, [r3, #1]
   252b6:	021b      	lsls	r3, r3, #8
   252b8:	1818      	adds	r0, r3, r0
   252ba:	8010      	strh	r0, [r2, #0]
   252bc:	980c      	ldr	r0, [sp, #48]	@ 0x30
   252be:	6d40      	ldr	r0, [r0, #84]	@ 0x54
   252c0:	900f      	str	r0, [sp, #60]	@ 0x3c
   252c2:	3108      	adds	r1, #8
   252c4:	a89f      	add	r0, sp, #636	@ 0x27c
   252c6:	2252      	movs	r2, #82	@ 0x52
   252c8:	f002 fea9 	bl	2801e <__aeabi_memcpy4>
   252cc:	487b      	ldr	r0, [pc, #492]	@ (254bc <_start+0x4eb8>)
   252ce:	4468      	add	r0, sp
   252d0:	7802      	ldrb	r2, [r0, #0]
   252d2:	2a02      	cmp	r2, #2
   252d4:	d003      	beq.n	252de <_start+0x4cda>
   252d6:	2103      	movs	r1, #3
   252d8:	4620      	mov	r0, r4
   252da:	f002 fe33 	bl	27f44 <_ZN9allow_pin12dynamic_type7unshare17ha4091652f9b609c4E>
   252de:	4876      	ldr	r0, [pc, #472]	@ (254b8 <_start+0x4eb4>)
   252e0:	4468      	add	r0, sp
   252e2:	7802      	ldrb	r2, [r0, #0]
   252e4:	2a02      	cmp	r2, #2
   252e6:	d003      	beq.n	252f0 <_start+0x4cec>
   252e8:	2101      	movs	r1, #1
   252ea:	4620      	mov	r0, r4
   252ec:	f002 fe2a 	bl	27f44 <_ZN9allow_pin12dynamic_type7unshare17ha4091652f9b609c4E>
   252f0:	2e00      	cmp	r6, #0
   252f2:	d001      	beq.n	252f8 <_start+0x4cf4>
   252f4:	f7fc ff2e 	bl	22154 <_start+0x1b50>
   252f8:	4c70      	ldr	r4, [pc, #448]	@ (254bc <_start+0x4eb8>)
   252fa:	446c      	add	r4, sp
   252fc:	1c60      	adds	r0, r4, #1
   252fe:	9006      	str	r0, [sp, #24]
   25300:	a9c9      	add	r1, sp, #804	@ 0x324
   25302:	2203      	movs	r2, #3
   25304:	920a      	str	r2, [sp, #40]	@ 0x28
   25306:	f002 ffea 	bl	282de <__aeabi_memcpy>
   2530a:	a8ff      	add	r0, sp, #1020	@ 0x3fc
   2530c:	30a4      	adds	r0, #164	@ 0xa4
   2530e:	9008      	str	r0, [sp, #32]
   25310:	a99f      	add	r1, sp, #636	@ 0x27c
   25312:	2652      	movs	r6, #82	@ 0x52
   25314:	4632      	mov	r2, r6
   25316:	f002 fe82 	bl	2801e <__aeabi_memcpy4>
   2531a:	4620      	mov	r0, r4
   2531c:	3008      	adds	r0, #8
   2531e:	9908      	ldr	r1, [sp, #32]
   25320:	4632      	mov	r2, r6
   25322:	f002 fe7c 	bl	2801e <__aeabi_memcpy4>
   25326:	9e0e      	ldr	r6, [sp, #56]	@ 0x38
   25328:	7026      	strb	r6, [r4, #0]
   2532a:	980c      	ldr	r0, [sp, #48]	@ 0x30
   2532c:	990f      	ldr	r1, [sp, #60]	@ 0x3c
   2532e:	6541      	str	r1, [r0, #84]	@ 0x54
   25330:	acff      	add	r4, sp, #1020	@ 0x3fc
   25332:	34a4      	adds	r4, #164	@ 0xa4
   25334:	1c60      	adds	r0, r4, #1
   25336:	214a      	movs	r1, #74	@ 0x4a
   25338:	9008      	str	r0, [sp, #32]
   2533a:	f002 fe10 	bl	27f5e <__aeabi_memclr>
   2533e:	7026      	strb	r6, [r4, #0]
   25340:	980d      	ldr	r0, [sp, #52]	@ 0x34
   25342:	9000      	str	r0, [sp, #0]
   25344:	4c60      	ldr	r4, [pc, #384]	@ (254c8 <_start+0x4ec4>)
   25346:	34c5      	adds	r4, #197	@ 0xc5
   25348:	2100      	movs	r1, #0
   2534a:	2359      	movs	r3, #89	@ 0x59
   2534c:	4620      	mov	r0, r4
   2534e:	9a06      	ldr	r2, [sp, #24]
   25350:	f7fa ffa4 	bl	2029c <_ZN9allow_pin12dynamic_type11allow_inner17hf1099571477a6939E>
   25354:	910f      	str	r1, [sp, #60]	@ 0x3c
   25356:	07c0      	lsls	r0, r0, #31
   25358:	d11a      	bne.n	25390 <_start+0x4d8c>
   2535a:	4858      	ldr	r0, [pc, #352]	@ (254bc <_start+0x4eb8>)
   2535c:	4468      	add	r0, sp
   2535e:	990d      	ldr	r1, [sp, #52]	@ 0x34
   25360:	7001      	strb	r1, [r0, #0]
   25362:	980a      	ldr	r0, [sp, #40]	@ 0x28
   25364:	9000      	str	r0, [sp, #0]
   25366:	234a      	movs	r3, #74	@ 0x4a
   25368:	4620      	mov	r0, r4
   2536a:	9a08      	ldr	r2, [sp, #32]
   2536c:	f7fa ff96 	bl	2029c <_ZN9allow_pin12dynamic_type11allow_inner17hf1099571477a6939E>
   25370:	910f      	str	r1, [sp, #60]	@ 0x3c
   25372:	07c0      	lsls	r0, r0, #31
   25374:	d10c      	bne.n	25390 <_start+0x4d8c>
   25376:	a8ff      	add	r0, sp, #1020	@ 0x3fc
   25378:	30a4      	adds	r0, #164	@ 0xa4
   2537a:	990a      	ldr	r1, [sp, #40]	@ 0x28
   2537c:	7001      	strb	r1, [r0, #0]
   2537e:	4853      	ldr	r0, [pc, #332]	@ (254cc <_start+0x4ec8>)
   25380:	2204      	movs	r2, #4
   25382:	2600      	movs	r6, #0
   25384:	4631      	mov	r1, r6
   25386:	4633      	mov	r3, r6
   25388:	df02      	svc	2
   2538a:	910f      	str	r1, [sp, #60]	@ 0x3c
   2538c:	287f      	cmp	r0, #127	@ 0x7f
   2538e:	d801      	bhi.n	25394 <_start+0x4d90>
   25390:	9e0b      	ldr	r6, [sp, #44]	@ 0x2c
   25392:	e02d      	b.n	253f0 <_start+0x4dec>
   25394:	4849      	ldr	r0, [pc, #292]	@ (254bc <_start+0x4eb8>)
   25396:	4468      	add	r0, sp
   25398:	7802      	ldrb	r2, [r0, #0]
   2539a:	2a02      	cmp	r2, #2
   2539c:	d00d      	beq.n	253ba <_start+0x4db6>
   2539e:	2100      	movs	r1, #0
   253a0:	4620      	mov	r0, r4
   253a2:	f002 fdcf 	bl	27f44 <_ZN9allow_pin12dynamic_type7unshare17ha4091652f9b609c4E>
   253a6:	4845      	ldr	r0, [pc, #276]	@ (254bc <_start+0x4eb8>)
   253a8:	4468      	add	r0, sp
   253aa:	990e      	ldr	r1, [sp, #56]	@ 0x38
   253ac:	7001      	strb	r1, [r0, #0]
   253ae:	a8ff      	add	r0, sp, #1020	@ 0x3fc
   253b0:	30a4      	adds	r0, #164	@ 0xa4
   253b2:	7800      	ldrb	r0, [r0, #0]
   253b4:	900a      	str	r0, [sp, #40]	@ 0x28
   253b6:	2802      	cmp	r0, #2
   253b8:	d004      	beq.n	253c4 <_start+0x4dc0>
   253ba:	2104      	movs	r1, #4
   253bc:	4620      	mov	r0, r4
   253be:	9a0a      	ldr	r2, [sp, #40]	@ 0x28
   253c0:	f002 fdc0 	bl	27f44 <_ZN9allow_pin12dynamic_type7unshare17ha4091652f9b609c4E>
   253c4:	a9ff      	add	r1, sp, #1020	@ 0x3fc
   253c6:	31a4      	adds	r1, #164	@ 0xa4
   253c8:	980e      	ldr	r0, [sp, #56]	@ 0x38
   253ca:	7008      	strb	r0, [r1, #0]
   253cc:	9b08      	ldr	r3, [sp, #32]
   253ce:	7898      	ldrb	r0, [r3, #2]
   253d0:	aac9      	add	r2, sp, #804	@ 0x324
   253d2:	7090      	strb	r0, [r2, #2]
   253d4:	7818      	ldrb	r0, [r3, #0]
   253d6:	785b      	ldrb	r3, [r3, #1]
   253d8:	021b      	lsls	r3, r3, #8
   253da:	1818      	adds	r0, r3, r0
   253dc:	8010      	strh	r0, [r2, #0]
   253de:	9809      	ldr	r0, [sp, #36]	@ 0x24
   253e0:	6800      	ldr	r0, [r0, #0]
   253e2:	900f      	str	r0, [sp, #60]	@ 0x3c
   253e4:	3108      	adds	r1, #8
   253e6:	4834      	ldr	r0, [pc, #208]	@ (254b8 <_start+0x4eb4>)
   253e8:	4468      	add	r0, sp
   253ea:	2243      	movs	r2, #67	@ 0x43
   253ec:	f002 fe17 	bl	2801e <__aeabi_memcpy4>
   253f0:	a8ff      	add	r0, sp, #1020	@ 0x3fc
   253f2:	30a4      	adds	r0, #164	@ 0xa4
   253f4:	7802      	ldrb	r2, [r0, #0]
   253f6:	2a02      	cmp	r2, #2
   253f8:	d003      	beq.n	25402 <_start+0x4dfe>
   253fa:	2104      	movs	r1, #4
   253fc:	4620      	mov	r0, r4
   253fe:	f002 fda1 	bl	27f44 <_ZN9allow_pin12dynamic_type7unshare17ha4091652f9b609c4E>
   25402:	482e      	ldr	r0, [pc, #184]	@ (254bc <_start+0x4eb8>)
   25404:	4468      	add	r0, sp
   25406:	7802      	ldrb	r2, [r0, #0]
   25408:	2a02      	cmp	r2, #2
   2540a:	d003      	beq.n	25414 <_start+0x4e10>
   2540c:	2100      	movs	r1, #0
   2540e:	4620      	mov	r0, r4
   25410:	f002 fd98 	bl	27f44 <_ZN9allow_pin12dynamic_type7unshare17ha4091652f9b609c4E>
   25414:	2e00      	cmp	r6, #0
   25416:	d001      	beq.n	2541c <_start+0x4e18>
   25418:	f7fc fe9c 	bl	22154 <_start+0x1b50>
   2541c:	4c27      	ldr	r4, [pc, #156]	@ (254bc <_start+0x4eb8>)
   2541e:	446c      	add	r4, sp
   25420:	1c60      	adds	r0, r4, #1
   25422:	9005      	str	r0, [sp, #20]
   25424:	a9c9      	add	r1, sp, #804	@ 0x324
   25426:	2203      	movs	r2, #3
   25428:	9208      	str	r2, [sp, #32]
   2542a:	f002 ff58 	bl	282de <__aeabi_memcpy>
   2542e:	a89f      	add	r0, sp, #636	@ 0x27c
   25430:	900a      	str	r0, [sp, #40]	@ 0x28
   25432:	4921      	ldr	r1, [pc, #132]	@ (254b8 <_start+0x4eb4>)
   25434:	4469      	add	r1, sp
   25436:	2643      	movs	r6, #67	@ 0x43
   25438:	4632      	mov	r2, r6
   2543a:	f002 fdf0 	bl	2801e <__aeabi_memcpy4>
   2543e:	4620      	mov	r0, r4
   25440:	3008      	adds	r0, #8
   25442:	990a      	ldr	r1, [sp, #40]	@ 0x28
   25444:	4632      	mov	r2, r6
   25446:	f002 fdea 	bl	2801e <__aeabi_memcpy4>
   2544a:	9e0e      	ldr	r6, [sp, #56]	@ 0x38
   2544c:	7026      	strb	r6, [r4, #0]
   2544e:	980c      	ldr	r0, [sp, #48]	@ 0x30
   25450:	990f      	ldr	r1, [sp, #60]	@ 0x3c
   25452:	6541      	str	r1, [r0, #84]	@ 0x54
   25454:	acff      	add	r4, sp, #1020	@ 0x3fc
   25456:	34a4      	adds	r4, #164	@ 0xa4
   25458:	1c60      	adds	r0, r4, #1
   2545a:	212d      	movs	r1, #45	@ 0x2d
   2545c:	9006      	str	r0, [sp, #24]
   2545e:	f002 fd7e 	bl	27f5e <__aeabi_memclr>
   25462:	7026      	strb	r6, [r4, #0]
   25464:	980d      	ldr	r0, [sp, #52]	@ 0x34
   25466:	9000      	str	r0, [sp, #0]
   25468:	4819      	ldr	r0, [pc, #100]	@ (254d0 <_start+0x4ecc>)
   2546a:	30e0      	adds	r0, #224	@ 0xe0
   2546c:	234a      	movs	r3, #74	@ 0x4a
   2546e:	900a      	str	r0, [sp, #40]	@ 0x28
   25470:	4631      	mov	r1, r6
   25472:	9a05      	ldr	r2, [sp, #20]
   25474:	f7fa ff12 	bl	2029c <_ZN9allow_pin12dynamic_type11allow_inner17hf1099571477a6939E>
   25478:	910f      	str	r1, [sp, #60]	@ 0x3c
   2547a:	07c0      	lsls	r0, r0, #31
   2547c:	d11a      	bne.n	254b4 <_start+0x4eb0>
   2547e:	480f      	ldr	r0, [pc, #60]	@ (254bc <_start+0x4eb8>)
   25480:	4468      	add	r0, sp
   25482:	990d      	ldr	r1, [sp, #52]	@ 0x34
   25484:	7001      	strb	r1, [r0, #0]
   25486:	9908      	ldr	r1, [sp, #32]
   25488:	9100      	str	r1, [sp, #0]
   2548a:	232d      	movs	r3, #45	@ 0x2d
   2548c:	980a      	ldr	r0, [sp, #40]	@ 0x28
   2548e:	9a06      	ldr	r2, [sp, #24]
   25490:	f7fa ff04 	bl	2029c <_ZN9allow_pin12dynamic_type11allow_inner17hf1099571477a6939E>
   25494:	910f      	str	r1, [sp, #60]	@ 0x3c
   25496:	07c0      	lsls	r0, r0, #31
   25498:	d10c      	bne.n	254b4 <_start+0x4eb0>
   2549a:	a8ff      	add	r0, sp, #1020	@ 0x3fc
   2549c:	30a4      	adds	r0, #164	@ 0xa4
   2549e:	9a08      	ldr	r2, [sp, #32]
   254a0:	7002      	strb	r2, [r0, #0]
   254a2:	480c      	ldr	r0, [pc, #48]	@ (254d4 <_start+0x4ed0>)
   254a4:	2402      	movs	r4, #2
   254a6:	2600      	movs	r6, #0
   254a8:	4621      	mov	r1, r4
   254aa:	4633      	mov	r3, r6
   254ac:	df02      	svc	2
   254ae:	910f      	str	r1, [sp, #60]	@ 0x3c
   254b0:	287f      	cmp	r0, #127	@ 0x7f
   254b2:	d811      	bhi.n	254d8 <_start+0x4ed4>
   254b4:	9e0b      	ldr	r6, [sp, #44]	@ 0x2c
   254b6:	e03b      	b.n	25530 <_start+0x4f2c>
   254b8:	00000558 	.word	0x00000558
   254bc:	000005a8 	.word	0x000005a8
   254c0:	00000ec3 	.word	0x00000ec3
   254c4:	00000ed2 	.word	0x00000ed2
   254c8:	000013bf 	.word	0x000013bf
   254cc:	00001484 	.word	0x00001484
   254d0:	00000d5d 	.word	0x00000d5d
   254d4:	00000e3d 	.word	0x00000e3d
   254d8:	48d7      	ldr	r0, [pc, #860]	@ (25838 <_start+0x5234>)
   254da:	4468      	add	r0, sp
   254dc:	7802      	ldrb	r2, [r0, #0]
   254de:	2a02      	cmp	r2, #2
   254e0:	d00c      	beq.n	254fc <_start+0x4ef8>
   254e2:	980a      	ldr	r0, [sp, #40]	@ 0x28
   254e4:	4621      	mov	r1, r4
   254e6:	f002 fd2d 	bl	27f44 <_ZN9allow_pin12dynamic_type7unshare17ha4091652f9b609c4E>
   254ea:	48d3      	ldr	r0, [pc, #844]	@ (25838 <_start+0x5234>)
   254ec:	4468      	add	r0, sp
   254ee:	7004      	strb	r4, [r0, #0]
   254f0:	a8ff      	add	r0, sp, #1020	@ 0x3fc
   254f2:	30a4      	adds	r0, #164	@ 0xa4
   254f4:	7800      	ldrb	r0, [r0, #0]
   254f6:	9008      	str	r0, [sp, #32]
   254f8:	2802      	cmp	r0, #2
   254fa:	d004      	beq.n	25506 <_start+0x4f02>
   254fc:	2103      	movs	r1, #3
   254fe:	980a      	ldr	r0, [sp, #40]	@ 0x28
   25500:	9a08      	ldr	r2, [sp, #32]
   25502:	f002 fd1f 	bl	27f44 <_ZN9allow_pin12dynamic_type7unshare17ha4091652f9b609c4E>
   25506:	a9ff      	add	r1, sp, #1020	@ 0x3fc
   25508:	31a4      	adds	r1, #164	@ 0xa4
   2550a:	700c      	strb	r4, [r1, #0]
   2550c:	9b06      	ldr	r3, [sp, #24]
   2550e:	7898      	ldrb	r0, [r3, #2]
   25510:	aaff      	add	r2, sp, #1020	@ 0x3fc
   25512:	328c      	adds	r2, #140	@ 0x8c
   25514:	7090      	strb	r0, [r2, #2]
   25516:	7818      	ldrb	r0, [r3, #0]
   25518:	785b      	ldrb	r3, [r3, #1]
   2551a:	021b      	lsls	r3, r3, #8
   2551c:	1818      	adds	r0, r3, r0
   2551e:	8010      	strh	r0, [r2, #0]
   25520:	9809      	ldr	r0, [sp, #36]	@ 0x24
   25522:	6800      	ldr	r0, [r0, #0]
   25524:	900f      	str	r0, [sp, #60]	@ 0x3c
   25526:	3108      	adds	r1, #8
   25528:	a8c9      	add	r0, sp, #804	@ 0x324
   2552a:	2226      	movs	r2, #38	@ 0x26
   2552c:	f002 fed7 	bl	282de <__aeabi_memcpy>
   25530:	a8ff      	add	r0, sp, #1020	@ 0x3fc
   25532:	30a4      	adds	r0, #164	@ 0xa4
   25534:	7802      	ldrb	r2, [r0, #0]
   25536:	2a02      	cmp	r2, #2
   25538:	d003      	beq.n	25542 <_start+0x4f3e>
   2553a:	2103      	movs	r1, #3
   2553c:	980a      	ldr	r0, [sp, #40]	@ 0x28
   2553e:	f002 fd01 	bl	27f44 <_ZN9allow_pin12dynamic_type7unshare17ha4091652f9b609c4E>
   25542:	48bd      	ldr	r0, [pc, #756]	@ (25838 <_start+0x5234>)
   25544:	4468      	add	r0, sp
   25546:	7802      	ldrb	r2, [r0, #0]
   25548:	2a02      	cmp	r2, #2
   2554a:	d003      	beq.n	25554 <_start+0x4f50>
   2554c:	2102      	movs	r1, #2
   2554e:	980a      	ldr	r0, [sp, #40]	@ 0x28
   25550:	f002 fcf8 	bl	27f44 <_ZN9allow_pin12dynamic_type7unshare17ha4091652f9b609c4E>
   25554:	2e00      	cmp	r6, #0
   25556:	d001      	beq.n	2555c <_start+0x4f58>
   25558:	f7fc fdfc 	bl	22154 <_start+0x1b50>
   2555c:	ac9f      	add	r4, sp, #636	@ 0x27c
   2555e:	1c60      	adds	r0, r4, #1
   25560:	9006      	str	r0, [sp, #24]
   25562:	a9ff      	add	r1, sp, #1020	@ 0x3fc
   25564:	318c      	adds	r1, #140	@ 0x8c
   25566:	2203      	movs	r2, #3
   25568:	920a      	str	r2, [sp, #40]	@ 0x28
   2556a:	f002 feb8 	bl	282de <__aeabi_memcpy>
   2556e:	48b3      	ldr	r0, [pc, #716]	@ (2583c <_start+0x5238>)
   25570:	4468      	add	r0, sp
   25572:	9008      	str	r0, [sp, #32]
   25574:	a9c9      	add	r1, sp, #804	@ 0x324
   25576:	2626      	movs	r6, #38	@ 0x26
   25578:	4632      	mov	r2, r6
   2557a:	f002 feb0 	bl	282de <__aeabi_memcpy>
   2557e:	4620      	mov	r0, r4
   25580:	3008      	adds	r0, #8
   25582:	9908      	ldr	r1, [sp, #32]
   25584:	4632      	mov	r2, r6
   25586:	f002 feaa 	bl	282de <__aeabi_memcpy>
   2558a:	9e0e      	ldr	r6, [sp, #56]	@ 0x38
   2558c:	7026      	strb	r6, [r4, #0]
   2558e:	980f      	ldr	r0, [sp, #60]	@ 0x3c
   25590:	90a0      	str	r0, [sp, #640]	@ 0x280
   25592:	4ca9      	ldr	r4, [pc, #676]	@ (25838 <_start+0x5234>)
   25594:	446c      	add	r4, sp
   25596:	1c60      	adds	r0, r4, #1
   25598:	2153      	movs	r1, #83	@ 0x53
   2559a:	9008      	str	r0, [sp, #32]
   2559c:	f002 fcdf 	bl	27f5e <__aeabi_memclr>
   255a0:	7026      	strb	r6, [r4, #0]
   255a2:	980d      	ldr	r0, [sp, #52]	@ 0x34
   255a4:	9000      	str	r0, [sp, #0]
   255a6:	232d      	movs	r3, #45	@ 0x2d
   255a8:	48a5      	ldr	r0, [pc, #660]	@ (25840 <_start+0x523c>)
   255aa:	4631      	mov	r1, r6
   255ac:	9a06      	ldr	r2, [sp, #24]
   255ae:	f7fa fe75 	bl	2029c <_ZN9allow_pin12dynamic_type11allow_inner17hf1099571477a6939E>
   255b2:	910f      	str	r1, [sp, #60]	@ 0x3c
   255b4:	07c0      	lsls	r0, r0, #31
   255b6:	d11b      	bne.n	255f0 <_start+0x4fec>
   255b8:	a89f      	add	r0, sp, #636	@ 0x27c
   255ba:	990d      	ldr	r1, [sp, #52]	@ 0x34
   255bc:	7001      	strb	r1, [r0, #0]
   255be:	980a      	ldr	r0, [sp, #40]	@ 0x28
   255c0:	9000      	str	r0, [sp, #0]
   255c2:	2107      	movs	r1, #7
   255c4:	2353      	movs	r3, #83	@ 0x53
   255c6:	489e      	ldr	r0, [pc, #632]	@ (25840 <_start+0x523c>)
   255c8:	9a08      	ldr	r2, [sp, #32]
   255ca:	f7fa fe67 	bl	2029c <_ZN9allow_pin12dynamic_type11allow_inner17hf1099571477a6939E>
   255ce:	910f      	str	r1, [sp, #60]	@ 0x3c
   255d0:	07c0      	lsls	r0, r0, #31
   255d2:	d10d      	bne.n	255f0 <_start+0x4fec>
   255d4:	4898      	ldr	r0, [pc, #608]	@ (25838 <_start+0x5234>)
   255d6:	4468      	add	r0, sp
   255d8:	990a      	ldr	r1, [sp, #40]	@ 0x28
   255da:	7001      	strb	r1, [r0, #0]
   255dc:	4898      	ldr	r0, [pc, #608]	@ (25840 <_start+0x523c>)
   255de:	2402      	movs	r4, #2
   255e0:	2207      	movs	r2, #7
   255e2:	2600      	movs	r6, #0
   255e4:	4621      	mov	r1, r4
   255e6:	4633      	mov	r3, r6
   255e8:	df02      	svc	2
   255ea:	910f      	str	r1, [sp, #60]	@ 0x3c
   255ec:	287f      	cmp	r0, #127	@ 0x7f
   255ee:	d801      	bhi.n	255f4 <_start+0x4ff0>
   255f0:	9e0b      	ldr	r6, [sp, #44]	@ 0x2c
   255f2:	e02a      	b.n	2564a <_start+0x5046>
   255f4:	a89f      	add	r0, sp, #636	@ 0x27c
   255f6:	7802      	ldrb	r2, [r0, #0]
   255f8:	2a02      	cmp	r2, #2
   255fa:	d00b      	beq.n	25614 <_start+0x5010>
   255fc:	4890      	ldr	r0, [pc, #576]	@ (25840 <_start+0x523c>)
   255fe:	4621      	mov	r1, r4
   25600:	f002 fca0 	bl	27f44 <_ZN9allow_pin12dynamic_type7unshare17ha4091652f9b609c4E>
   25604:	a89f      	add	r0, sp, #636	@ 0x27c
   25606:	7004      	strb	r4, [r0, #0]
   25608:	488b      	ldr	r0, [pc, #556]	@ (25838 <_start+0x5234>)
   2560a:	4468      	add	r0, sp
   2560c:	7800      	ldrb	r0, [r0, #0]
   2560e:	900a      	str	r0, [sp, #40]	@ 0x28
   25610:	2802      	cmp	r0, #2
   25612:	d004      	beq.n	2561e <_start+0x501a>
   25614:	2107      	movs	r1, #7
   25616:	488a      	ldr	r0, [pc, #552]	@ (25840 <_start+0x523c>)
   25618:	9a0a      	ldr	r2, [sp, #40]	@ 0x28
   2561a:	f002 fc93 	bl	27f44 <_ZN9allow_pin12dynamic_type7unshare17ha4091652f9b609c4E>
   2561e:	4986      	ldr	r1, [pc, #536]	@ (25838 <_start+0x5234>)
   25620:	4469      	add	r1, sp
   25622:	700c      	strb	r4, [r1, #0]
   25624:	9b08      	ldr	r3, [sp, #32]
   25626:	7898      	ldrb	r0, [r3, #2]
   25628:	4a84      	ldr	r2, [pc, #528]	@ (2583c <_start+0x5238>)
   2562a:	446a      	add	r2, sp
   2562c:	7090      	strb	r0, [r2, #2]
   2562e:	7818      	ldrb	r0, [r3, #0]
   25630:	785b      	ldrb	r3, [r3, #1]
   25632:	021b      	lsls	r3, r3, #8
   25634:	1818      	adds	r0, r3, r0
   25636:	8010      	strh	r0, [r2, #0]
   25638:	980c      	ldr	r0, [sp, #48]	@ 0x30
   2563a:	6d40      	ldr	r0, [r0, #84]	@ 0x54
   2563c:	900f      	str	r0, [sp, #60]	@ 0x3c
   2563e:	3108      	adds	r1, #8
   25640:	a8ff      	add	r0, sp, #1020	@ 0x3fc
   25642:	30a4      	adds	r0, #164	@ 0xa4
   25644:	224c      	movs	r2, #76	@ 0x4c
   25646:	f002 fcea 	bl	2801e <__aeabi_memcpy4>
   2564a:	487b      	ldr	r0, [pc, #492]	@ (25838 <_start+0x5234>)
   2564c:	4468      	add	r0, sp
   2564e:	7802      	ldrb	r2, [r0, #0]
   25650:	2a02      	cmp	r2, #2
   25652:	d003      	beq.n	2565c <_start+0x5058>
   25654:	2107      	movs	r1, #7
   25656:	487a      	ldr	r0, [pc, #488]	@ (25840 <_start+0x523c>)
   25658:	f002 fc74 	bl	27f44 <_ZN9allow_pin12dynamic_type7unshare17ha4091652f9b609c4E>
   2565c:	a89f      	add	r0, sp, #636	@ 0x27c
   2565e:	7802      	ldrb	r2, [r0, #0]
   25660:	2a02      	cmp	r2, #2
   25662:	d003      	beq.n	2566c <_start+0x5068>
   25664:	2102      	movs	r1, #2
   25666:	4876      	ldr	r0, [pc, #472]	@ (25840 <_start+0x523c>)
   25668:	f002 fc6c 	bl	27f44 <_ZN9allow_pin12dynamic_type7unshare17ha4091652f9b609c4E>
   2566c:	2e00      	cmp	r6, #0
   2566e:	d001      	beq.n	25674 <_start+0x5070>
   25670:	f7fc fd70 	bl	22154 <_start+0x1b50>
   25674:	4c70      	ldr	r4, [pc, #448]	@ (25838 <_start+0x5234>)
   25676:	446c      	add	r4, sp
   25678:	1c60      	adds	r0, r4, #1
   2567a:	9008      	str	r0, [sp, #32]
   2567c:	496f      	ldr	r1, [pc, #444]	@ (2583c <_start+0x5238>)
   2567e:	4469      	add	r1, sp
   25680:	2203      	movs	r2, #3
   25682:	920a      	str	r2, [sp, #40]	@ 0x28
   25684:	f002 fe2b 	bl	282de <__aeabi_memcpy>
   25688:	a8b6      	add	r0, sp, #728	@ 0x2d8
   2568a:	9006      	str	r0, [sp, #24]
   2568c:	a9ff      	add	r1, sp, #1020	@ 0x3fc
   2568e:	31a4      	adds	r1, #164	@ 0xa4
   25690:	264c      	movs	r6, #76	@ 0x4c
   25692:	4632      	mov	r2, r6
   25694:	f002 fcc3 	bl	2801e <__aeabi_memcpy4>
   25698:	980e      	ldr	r0, [sp, #56]	@ 0x38
   2569a:	7020      	strb	r0, [r4, #0]
   2569c:	980c      	ldr	r0, [sp, #48]	@ 0x30
   2569e:	990f      	ldr	r1, [sp, #60]	@ 0x3c
   256a0:	6541      	str	r1, [r0, #84]	@ 0x54
   256a2:	3408      	adds	r4, #8
   256a4:	4620      	mov	r0, r4
   256a6:	9906      	ldr	r1, [sp, #24]
   256a8:	4632      	mov	r2, r6
   256aa:	f002 fcb8 	bl	2801e <__aeabi_memcpy4>
   256ae:	aeff      	add	r6, sp, #1020	@ 0x3fc
   256b0:	36a4      	adds	r6, #164	@ 0xa4
   256b2:	1c74      	adds	r4, r6, #1
   256b4:	213a      	movs	r1, #58	@ 0x3a
   256b6:	4620      	mov	r0, r4
   256b8:	f002 fc51 	bl	27f5e <__aeabi_memclr>
   256bc:	980e      	ldr	r0, [sp, #56]	@ 0x38
   256be:	7030      	strb	r0, [r6, #0]
   256c0:	980d      	ldr	r0, [sp, #52]	@ 0x34
   256c2:	9000      	str	r0, [sp, #0]
   256c4:	485f      	ldr	r0, [pc, #380]	@ (25844 <_start+0x5240>)
   256c6:	2106      	movs	r1, #6
   256c8:	2353      	movs	r3, #83	@ 0x53
   256ca:	9a08      	ldr	r2, [sp, #32]
   256cc:	f7fa fde6 	bl	2029c <_ZN9allow_pin12dynamic_type11allow_inner17hf1099571477a6939E>
   256d0:	910f      	str	r1, [sp, #60]	@ 0x3c
   256d2:	07c0      	lsls	r0, r0, #31
   256d4:	d11b      	bne.n	2570e <_start+0x510a>
   256d6:	4858      	ldr	r0, [pc, #352]	@ (25838 <_start+0x5234>)
   256d8:	4468      	add	r0, sp
   256da:	990d      	ldr	r1, [sp, #52]	@ 0x34
   256dc:	7001      	strb	r1, [r0, #0]
   256de:	980a      	ldr	r0, [sp, #40]	@ 0x28
   256e0:	9000      	str	r0, [sp, #0]
   256e2:	2107      	movs	r1, #7
   256e4:	233a      	movs	r3, #58	@ 0x3a
   256e6:	4857      	ldr	r0, [pc, #348]	@ (25844 <_start+0x5240>)
   256e8:	4622      	mov	r2, r4
   256ea:	f7fa fdd7 	bl	2029c <_ZN9allow_pin12dynamic_type11allow_inner17hf1099571477a6939E>
   256ee:	910f      	str	r1, [sp, #60]	@ 0x3c
   256f0:	07c0      	lsls	r0, r0, #31
   256f2:	d10c      	bne.n	2570e <_start+0x510a>
   256f4:	a8ff      	add	r0, sp, #1020	@ 0x3fc
   256f6:	30a4      	adds	r0, #164	@ 0xa4
   256f8:	990a      	ldr	r1, [sp, #40]	@ 0x28
   256fa:	7001      	strb	r1, [r0, #0]
   256fc:	4851      	ldr	r0, [pc, #324]	@ (25844 <_start+0x5240>)
   256fe:	2106      	movs	r1, #6
   25700:	2207      	movs	r2, #7
   25702:	2600      	movs	r6, #0
   25704:	4633      	mov	r3, r6
   25706:	df02      	svc	2
   25708:	910f      	str	r1, [sp, #60]	@ 0x3c
   2570a:	287f      	cmp	r0, #127	@ 0x7f
   2570c:	d801      	bhi.n	25712 <_start+0x510e>
   2570e:	9e0b      	ldr	r6, [sp, #44]	@ 0x2c
   25710:	e02c      	b.n	2576c <_start+0x5168>
   25712:	4849      	ldr	r0, [pc, #292]	@ (25838 <_start+0x5234>)
   25714:	4468      	add	r0, sp
   25716:	7802      	ldrb	r2, [r0, #0]
   25718:	2a02      	cmp	r2, #2
   2571a:	d00d      	beq.n	25738 <_start+0x5134>
   2571c:	2106      	movs	r1, #6
   2571e:	4849      	ldr	r0, [pc, #292]	@ (25844 <_start+0x5240>)
   25720:	f002 fc10 	bl	27f44 <_ZN9allow_pin12dynamic_type7unshare17ha4091652f9b609c4E>
   25724:	4844      	ldr	r0, [pc, #272]	@ (25838 <_start+0x5234>)
   25726:	4468      	add	r0, sp
   25728:	990e      	ldr	r1, [sp, #56]	@ 0x38
   2572a:	7001      	strb	r1, [r0, #0]
   2572c:	a8ff      	add	r0, sp, #1020	@ 0x3fc
   2572e:	30a4      	adds	r0, #164	@ 0xa4
   25730:	7800      	ldrb	r0, [r0, #0]
   25732:	900a      	str	r0, [sp, #40]	@ 0x28
   25734:	2802      	cmp	r0, #2
   25736:	d004      	beq.n	25742 <_start+0x513e>
   25738:	2107      	movs	r1, #7
   2573a:	4842      	ldr	r0, [pc, #264]	@ (25844 <_start+0x5240>)
   2573c:	9a0a      	ldr	r2, [sp, #40]	@ 0x28
   2573e:	f002 fc01 	bl	27f44 <_ZN9allow_pin12dynamic_type7unshare17ha4091652f9b609c4E>
   25742:	a9ff      	add	r1, sp, #1020	@ 0x3fc
   25744:	31a4      	adds	r1, #164	@ 0xa4
   25746:	980e      	ldr	r0, [sp, #56]	@ 0x38
   25748:	7008      	strb	r0, [r1, #0]
   2574a:	78a0      	ldrb	r0, [r4, #2]
   2574c:	aaff      	add	r2, sp, #1020	@ 0x3fc
   2574e:	328c      	adds	r2, #140	@ 0x8c
   25750:	7090      	strb	r0, [r2, #2]
   25752:	7820      	ldrb	r0, [r4, #0]
   25754:	7863      	ldrb	r3, [r4, #1]
   25756:	021b      	lsls	r3, r3, #8
   25758:	1818      	adds	r0, r3, r0
   2575a:	8010      	strh	r0, [r2, #0]
   2575c:	9809      	ldr	r0, [sp, #36]	@ 0x24
   2575e:	6800      	ldr	r0, [r0, #0]
   25760:	900f      	str	r0, [sp, #60]	@ 0x3c
   25762:	3108      	adds	r1, #8
   25764:	a8c9      	add	r0, sp, #804	@ 0x324
   25766:	2233      	movs	r2, #51	@ 0x33
   25768:	f002 fdb9 	bl	282de <__aeabi_memcpy>
   2576c:	a8ff      	add	r0, sp, #1020	@ 0x3fc
   2576e:	30a4      	adds	r0, #164	@ 0xa4
   25770:	7802      	ldrb	r2, [r0, #0]
   25772:	2a02      	cmp	r2, #2
   25774:	d003      	beq.n	2577e <_start+0x517a>
   25776:	2107      	movs	r1, #7
   25778:	4832      	ldr	r0, [pc, #200]	@ (25844 <_start+0x5240>)
   2577a:	f002 fbe3 	bl	27f44 <_ZN9allow_pin12dynamic_type7unshare17ha4091652f9b609c4E>
   2577e:	482e      	ldr	r0, [pc, #184]	@ (25838 <_start+0x5234>)
   25780:	4468      	add	r0, sp
   25782:	7802      	ldrb	r2, [r0, #0]
   25784:	2a02      	cmp	r2, #2
   25786:	d003      	beq.n	25790 <_start+0x518c>
   25788:	2106      	movs	r1, #6
   2578a:	482e      	ldr	r0, [pc, #184]	@ (25844 <_start+0x5240>)
   2578c:	f002 fbda 	bl	27f44 <_ZN9allow_pin12dynamic_type7unshare17ha4091652f9b609c4E>
   25790:	2e00      	cmp	r6, #0
   25792:	d001      	beq.n	25798 <_start+0x5194>
   25794:	f7fc fcde 	bl	22154 <_start+0x1b50>
   25798:	4c28      	ldr	r4, [pc, #160]	@ (2583c <_start+0x5238>)
   2579a:	446c      	add	r4, sp
   2579c:	1c60      	adds	r0, r4, #1
   2579e:	9006      	str	r0, [sp, #24]
   257a0:	a9ff      	add	r1, sp, #1020	@ 0x3fc
   257a2:	318c      	adds	r1, #140	@ 0x8c
   257a4:	2203      	movs	r2, #3
   257a6:	920a      	str	r2, [sp, #40]	@ 0x28
   257a8:	f002 fd99 	bl	282de <__aeabi_memcpy>
   257ac:	a89f      	add	r0, sp, #636	@ 0x27c
   257ae:	9008      	str	r0, [sp, #32]
   257b0:	a9c9      	add	r1, sp, #804	@ 0x324
   257b2:	2633      	movs	r6, #51	@ 0x33
   257b4:	4632      	mov	r2, r6
   257b6:	f002 fd92 	bl	282de <__aeabi_memcpy>
   257ba:	4620      	mov	r0, r4
   257bc:	3008      	adds	r0, #8
   257be:	9908      	ldr	r1, [sp, #32]
   257c0:	4632      	mov	r2, r6
   257c2:	f002 fd8c 	bl	282de <__aeabi_memcpy>
   257c6:	9e0e      	ldr	r6, [sp, #56]	@ 0x38
   257c8:	7026      	strb	r6, [r4, #0]
   257ca:	980c      	ldr	r0, [sp, #48]	@ 0x30
   257cc:	990f      	ldr	r1, [sp, #60]	@ 0x3c
   257ce:	6041      	str	r1, [r0, #4]
   257d0:	4c19      	ldr	r4, [pc, #100]	@ (25838 <_start+0x5234>)
   257d2:	446c      	add	r4, sp
   257d4:	1c60      	adds	r0, r4, #1
   257d6:	215d      	movs	r1, #93	@ 0x5d
   257d8:	9008      	str	r0, [sp, #32]
   257da:	f002 fbc0 	bl	27f5e <__aeabi_memclr>
   257de:	7026      	strb	r6, [r4, #0]
   257e0:	980d      	ldr	r0, [sp, #52]	@ 0x34
   257e2:	9000      	str	r0, [sp, #0]
   257e4:	4818      	ldr	r0, [pc, #96]	@ (25848 <_start+0x5244>)
   257e6:	30e5      	adds	r0, #229	@ 0xe5
   257e8:	2100      	movs	r1, #0
   257ea:	233a      	movs	r3, #58	@ 0x3a
   257ec:	4606      	mov	r6, r0
   257ee:	9a06      	ldr	r2, [sp, #24]
   257f0:	f7fa fd54 	bl	2029c <_ZN9allow_pin12dynamic_type11allow_inner17hf1099571477a6939E>
   257f4:	910f      	str	r1, [sp, #60]	@ 0x3c
   257f6:	07c0      	lsls	r0, r0, #31
   257f8:	d11b      	bne.n	25832 <_start+0x522e>
   257fa:	4810      	ldr	r0, [pc, #64]	@ (2583c <_start+0x5238>)
   257fc:	4468      	add	r0, sp
   257fe:	990d      	ldr	r1, [sp, #52]	@ 0x34
   25800:	7001      	strb	r1, [r0, #0]
   25802:	980a      	ldr	r0, [sp, #40]	@ 0x28
   25804:	9000      	str	r0, [sp, #0]
   25806:	2105      	movs	r1, #5
   25808:	235d      	movs	r3, #93	@ 0x5d
   2580a:	4630      	mov	r0, r6
   2580c:	9a08      	ldr	r2, [sp, #32]
   2580e:	f7fa fd45 	bl	2029c <_ZN9allow_pin12dynamic_type11allow_inner17hf1099571477a6939E>
   25812:	910f      	str	r1, [sp, #60]	@ 0x3c
   25814:	07c0      	lsls	r0, r0, #31
   25816:	d10c      	bne.n	25832 <_start+0x522e>
   25818:	4807      	ldr	r0, [pc, #28]	@ (25838 <_start+0x5234>)
   2581a:	4468      	add	r0, sp
   2581c:	990a      	ldr	r1, [sp, #40]	@ 0x28
   2581e:	7001      	strb	r1, [r0, #0]
   25820:	480a      	ldr	r0, [pc, #40]	@ (2584c <_start+0x5248>)
   25822:	2205      	movs	r2, #5
   25824:	2400      	movs	r4, #0
   25826:	4621      	mov	r1, r4
   25828:	4623      	mov	r3, r4
   2582a:	df02      	svc	2
   2582c:	910f      	str	r1, [sp, #60]	@ 0x3c
   2582e:	287f      	cmp	r0, #127	@ 0x7f
   25830:	d80e      	bhi.n	25850 <_start+0x524c>
   25832:	9c0b      	ldr	r4, [sp, #44]	@ 0x2c
   25834:	e039      	b.n	258aa <_start+0x52a6>
   25836:	46c0      	nop			@ (mov r8, r8)
   25838:	000005a8 	.word	0x000005a8
   2583c:	00000558 	.word	0x00000558
   25840:	00000ec3 	.word	0x00000ec3
   25844:	00002645 	.word	0x00002645
   25848:	000013bf 	.word	0x000013bf
   2584c:	000014a4 	.word	0x000014a4
   25850:	48d8      	ldr	r0, [pc, #864]	@ (25bb4 <_start+0x55b0>)
   25852:	4468      	add	r0, sp
   25854:	7802      	ldrb	r2, [r0, #0]
   25856:	2a02      	cmp	r2, #2
   25858:	d00d      	beq.n	25876 <_start+0x5272>
   2585a:	2100      	movs	r1, #0
   2585c:	4630      	mov	r0, r6
   2585e:	f002 fb71 	bl	27f44 <_ZN9allow_pin12dynamic_type7unshare17ha4091652f9b609c4E>
   25862:	48d4      	ldr	r0, [pc, #848]	@ (25bb4 <_start+0x55b0>)
   25864:	4468      	add	r0, sp
   25866:	990e      	ldr	r1, [sp, #56]	@ 0x38
   25868:	7001      	strb	r1, [r0, #0]
   2586a:	48d3      	ldr	r0, [pc, #844]	@ (25bb8 <_start+0x55b4>)
   2586c:	4468      	add	r0, sp
   2586e:	7800      	ldrb	r0, [r0, #0]
   25870:	900a      	str	r0, [sp, #40]	@ 0x28
   25872:	2802      	cmp	r0, #2
   25874:	d004      	beq.n	25880 <_start+0x527c>
   25876:	2105      	movs	r1, #5
   25878:	4630      	mov	r0, r6
   2587a:	9a0a      	ldr	r2, [sp, #40]	@ 0x28
   2587c:	f002 fb62 	bl	27f44 <_ZN9allow_pin12dynamic_type7unshare17ha4091652f9b609c4E>
   25880:	49cd      	ldr	r1, [pc, #820]	@ (25bb8 <_start+0x55b4>)
   25882:	4469      	add	r1, sp
   25884:	980e      	ldr	r0, [sp, #56]	@ 0x38
   25886:	7008      	strb	r0, [r1, #0]
   25888:	9b08      	ldr	r3, [sp, #32]
   2588a:	7898      	ldrb	r0, [r3, #2]
   2588c:	aac9      	add	r2, sp, #804	@ 0x324
   2588e:	7090      	strb	r0, [r2, #2]
   25890:	7818      	ldrb	r0, [r3, #0]
   25892:	785b      	ldrb	r3, [r3, #1]
   25894:	021b      	lsls	r3, r3, #8
   25896:	1818      	adds	r0, r3, r0
   25898:	8010      	strh	r0, [r2, #0]
   2589a:	980c      	ldr	r0, [sp, #48]	@ 0x30
   2589c:	6d40      	ldr	r0, [r0, #84]	@ 0x54
   2589e:	900f      	str	r0, [sp, #60]	@ 0x3c
   258a0:	3108      	adds	r1, #8
   258a2:	a89f      	add	r0, sp, #636	@ 0x27c
   258a4:	2256      	movs	r2, #86	@ 0x56
   258a6:	f002 fbba 	bl	2801e <__aeabi_memcpy4>
   258aa:	48c3      	ldr	r0, [pc, #780]	@ (25bb8 <_start+0x55b4>)
   258ac:	4468      	add	r0, sp
   258ae:	7802      	ldrb	r2, [r0, #0]
   258b0:	2a02      	cmp	r2, #2
   258b2:	d003      	beq.n	258bc <_start+0x52b8>
   258b4:	2105      	movs	r1, #5
   258b6:	4630      	mov	r0, r6
   258b8:	f002 fb44 	bl	27f44 <_ZN9allow_pin12dynamic_type7unshare17ha4091652f9b609c4E>
   258bc:	48bd      	ldr	r0, [pc, #756]	@ (25bb4 <_start+0x55b0>)
   258be:	4468      	add	r0, sp
   258c0:	7802      	ldrb	r2, [r0, #0]
   258c2:	2a02      	cmp	r2, #2
   258c4:	d003      	beq.n	258ce <_start+0x52ca>
   258c6:	2100      	movs	r1, #0
   258c8:	4630      	mov	r0, r6
   258ca:	f002 fb3b 	bl	27f44 <_ZN9allow_pin12dynamic_type7unshare17ha4091652f9b609c4E>
   258ce:	2c00      	cmp	r4, #0
   258d0:	d001      	beq.n	258d6 <_start+0x52d2>
   258d2:	f7fc fc3f 	bl	22154 <_start+0x1b50>
   258d6:	4cb8      	ldr	r4, [pc, #736]	@ (25bb8 <_start+0x55b4>)
   258d8:	446c      	add	r4, sp
   258da:	1c60      	adds	r0, r4, #1
   258dc:	9006      	str	r0, [sp, #24]
   258de:	a9c9      	add	r1, sp, #804	@ 0x324
   258e0:	2203      	movs	r2, #3
   258e2:	920a      	str	r2, [sp, #40]	@ 0x28
   258e4:	f002 fcfb 	bl	282de <__aeabi_memcpy>
   258e8:	a8ff      	add	r0, sp, #1020	@ 0x3fc
   258ea:	30a4      	adds	r0, #164	@ 0xa4
   258ec:	9008      	str	r0, [sp, #32]
   258ee:	a99f      	add	r1, sp, #636	@ 0x27c
   258f0:	2656      	movs	r6, #86	@ 0x56
   258f2:	4632      	mov	r2, r6
   258f4:	f002 fb93 	bl	2801e <__aeabi_memcpy4>
   258f8:	4620      	mov	r0, r4
   258fa:	3008      	adds	r0, #8
   258fc:	9908      	ldr	r1, [sp, #32]
   258fe:	4632      	mov	r2, r6
   25900:	f002 fb8d 	bl	2801e <__aeabi_memcpy4>
   25904:	9e0e      	ldr	r6, [sp, #56]	@ 0x38
   25906:	7026      	strb	r6, [r4, #0]
   25908:	980c      	ldr	r0, [sp, #48]	@ 0x30
   2590a:	990f      	ldr	r1, [sp, #60]	@ 0x3c
   2590c:	6541      	str	r1, [r0, #84]	@ 0x54
   2590e:	acff      	add	r4, sp, #1020	@ 0x3fc
   25910:	34a4      	adds	r4, #164	@ 0xa4
   25912:	1c60      	adds	r0, r4, #1
   25914:	2140      	movs	r1, #64	@ 0x40
   25916:	9008      	str	r0, [sp, #32]
   25918:	f002 fb21 	bl	27f5e <__aeabi_memclr>
   2591c:	7026      	strb	r6, [r4, #0]
   2591e:	980d      	ldr	r0, [sp, #52]	@ 0x34
   25920:	9000      	str	r0, [sp, #0]
   25922:	4ca6      	ldr	r4, [pc, #664]	@ (25bbc <_start+0x55b8>)
   25924:	345a      	adds	r4, #90	@ 0x5a
   25926:	2108      	movs	r1, #8
   25928:	235d      	movs	r3, #93	@ 0x5d
   2592a:	4620      	mov	r0, r4
   2592c:	9a06      	ldr	r2, [sp, #24]
   2592e:	f7fa fcb5 	bl	2029c <_ZN9allow_pin12dynamic_type11allow_inner17hf1099571477a6939E>
   25932:	910f      	str	r1, [sp, #60]	@ 0x3c
   25934:	07c0      	lsls	r0, r0, #31
   25936:	d11a      	bne.n	2596e <_start+0x536a>
   25938:	489f      	ldr	r0, [pc, #636]	@ (25bb8 <_start+0x55b4>)
   2593a:	4468      	add	r0, sp
   2593c:	990d      	ldr	r1, [sp, #52]	@ 0x34
   2593e:	7001      	strb	r1, [r0, #0]
   25940:	980a      	ldr	r0, [sp, #40]	@ 0x28
   25942:	9000      	str	r0, [sp, #0]
   25944:	2340      	movs	r3, #64	@ 0x40
   25946:	4620      	mov	r0, r4
   25948:	9a08      	ldr	r2, [sp, #32]
   2594a:	f7fa fca7 	bl	2029c <_ZN9allow_pin12dynamic_type11allow_inner17hf1099571477a6939E>
   2594e:	910f      	str	r1, [sp, #60]	@ 0x3c
   25950:	07c0      	lsls	r0, r0, #31
   25952:	d10c      	bne.n	2596e <_start+0x536a>
   25954:	a8ff      	add	r0, sp, #1020	@ 0x3fc
   25956:	30a4      	adds	r0, #164	@ 0xa4
   25958:	990a      	ldr	r1, [sp, #40]	@ 0x28
   2595a:	7001      	strb	r1, [r0, #0]
   2595c:	4898      	ldr	r0, [pc, #608]	@ (25bc0 <_start+0x55bc>)
   2595e:	2108      	movs	r1, #8
   25960:	2204      	movs	r2, #4
   25962:	2600      	movs	r6, #0
   25964:	4633      	mov	r3, r6
   25966:	df02      	svc	2
   25968:	910f      	str	r1, [sp, #60]	@ 0x3c
   2596a:	287f      	cmp	r0, #127	@ 0x7f
   2596c:	d801      	bhi.n	25972 <_start+0x536e>
   2596e:	9e0b      	ldr	r6, [sp, #44]	@ 0x2c
   25970:	e02d      	b.n	259ce <_start+0x53ca>
   25972:	4891      	ldr	r0, [pc, #580]	@ (25bb8 <_start+0x55b4>)
   25974:	4468      	add	r0, sp
   25976:	7802      	ldrb	r2, [r0, #0]
   25978:	2a02      	cmp	r2, #2
   2597a:	d00d      	beq.n	25998 <_start+0x5394>
   2597c:	2108      	movs	r1, #8
   2597e:	4620      	mov	r0, r4
   25980:	f002 fae0 	bl	27f44 <_ZN9allow_pin12dynamic_type7unshare17ha4091652f9b609c4E>
   25984:	488c      	ldr	r0, [pc, #560]	@ (25bb8 <_start+0x55b4>)
   25986:	4468      	add	r0, sp
   25988:	990e      	ldr	r1, [sp, #56]	@ 0x38
   2598a:	7001      	strb	r1, [r0, #0]
   2598c:	a8ff      	add	r0, sp, #1020	@ 0x3fc
   2598e:	30a4      	adds	r0, #164	@ 0xa4
   25990:	7800      	ldrb	r0, [r0, #0]
   25992:	900a      	str	r0, [sp, #40]	@ 0x28
   25994:	2802      	cmp	r0, #2
   25996:	d004      	beq.n	259a2 <_start+0x539e>
   25998:	2104      	movs	r1, #4
   2599a:	4620      	mov	r0, r4
   2599c:	9a0a      	ldr	r2, [sp, #40]	@ 0x28
   2599e:	f002 fad1 	bl	27f44 <_ZN9allow_pin12dynamic_type7unshare17ha4091652f9b609c4E>
   259a2:	a9ff      	add	r1, sp, #1020	@ 0x3fc
   259a4:	31a4      	adds	r1, #164	@ 0xa4
   259a6:	980e      	ldr	r0, [sp, #56]	@ 0x38
   259a8:	7008      	strb	r0, [r1, #0]
   259aa:	9b08      	ldr	r3, [sp, #32]
   259ac:	7898      	ldrb	r0, [r3, #2]
   259ae:	aac9      	add	r2, sp, #804	@ 0x324
   259b0:	7090      	strb	r0, [r2, #2]
   259b2:	7818      	ldrb	r0, [r3, #0]
   259b4:	785b      	ldrb	r3, [r3, #1]
   259b6:	021b      	lsls	r3, r3, #8
   259b8:	1818      	adds	r0, r3, r0
   259ba:	8010      	strh	r0, [r2, #0]
   259bc:	9809      	ldr	r0, [sp, #36]	@ 0x24
   259be:	6800      	ldr	r0, [r0, #0]
   259c0:	900f      	str	r0, [sp, #60]	@ 0x3c
   259c2:	3108      	adds	r1, #8
   259c4:	487b      	ldr	r0, [pc, #492]	@ (25bb4 <_start+0x55b0>)
   259c6:	4468      	add	r0, sp
   259c8:	2239      	movs	r2, #57	@ 0x39
   259ca:	f002 fc88 	bl	282de <__aeabi_memcpy>
   259ce:	a8ff      	add	r0, sp, #1020	@ 0x3fc
   259d0:	30a4      	adds	r0, #164	@ 0xa4
   259d2:	7802      	ldrb	r2, [r0, #0]
   259d4:	2a02      	cmp	r2, #2
   259d6:	d003      	beq.n	259e0 <_start+0x53dc>
   259d8:	2104      	movs	r1, #4
   259da:	4620      	mov	r0, r4
   259dc:	f002 fab2 	bl	27f44 <_ZN9allow_pin12dynamic_type7unshare17ha4091652f9b609c4E>
   259e0:	4875      	ldr	r0, [pc, #468]	@ (25bb8 <_start+0x55b4>)
   259e2:	4468      	add	r0, sp
   259e4:	7802      	ldrb	r2, [r0, #0]
   259e6:	2a02      	cmp	r2, #2
   259e8:	d003      	beq.n	259f2 <_start+0x53ee>
   259ea:	2108      	movs	r1, #8
   259ec:	4620      	mov	r0, r4
   259ee:	f002 faa9 	bl	27f44 <_ZN9allow_pin12dynamic_type7unshare17ha4091652f9b609c4E>
   259f2:	2e00      	cmp	r6, #0
   259f4:	d001      	beq.n	259fa <_start+0x53f6>
   259f6:	f7fc fbad 	bl	22154 <_start+0x1b50>
   259fa:	4e6f      	ldr	r6, [pc, #444]	@ (25bb8 <_start+0x55b4>)
   259fc:	446e      	add	r6, sp
   259fe:	1c70      	adds	r0, r6, #1
   25a00:	9006      	str	r0, [sp, #24]
   25a02:	a9c9      	add	r1, sp, #804	@ 0x324
   25a04:	2203      	movs	r2, #3
   25a06:	920a      	str	r2, [sp, #40]	@ 0x28
   25a08:	f002 fc69 	bl	282de <__aeabi_memcpy>
   25a0c:	a89f      	add	r0, sp, #636	@ 0x27c
   25a0e:	9008      	str	r0, [sp, #32]
   25a10:	4968      	ldr	r1, [pc, #416]	@ (25bb4 <_start+0x55b0>)
   25a12:	4469      	add	r1, sp
   25a14:	2439      	movs	r4, #57	@ 0x39
   25a16:	4622      	mov	r2, r4
   25a18:	f002 fc61 	bl	282de <__aeabi_memcpy>
   25a1c:	4630      	mov	r0, r6
   25a1e:	3008      	adds	r0, #8
   25a20:	9908      	ldr	r1, [sp, #32]
   25a22:	4622      	mov	r2, r4
   25a24:	f002 fc5b 	bl	282de <__aeabi_memcpy>
   25a28:	9c0e      	ldr	r4, [sp, #56]	@ 0x38
   25a2a:	7034      	strb	r4, [r6, #0]
   25a2c:	980c      	ldr	r0, [sp, #48]	@ 0x30
   25a2e:	990f      	ldr	r1, [sp, #60]	@ 0x3c
   25a30:	6541      	str	r1, [r0, #84]	@ 0x54
   25a32:	aeff      	add	r6, sp, #1020	@ 0x3fc
   25a34:	36a4      	adds	r6, #164	@ 0xa4
   25a36:	1c70      	adds	r0, r6, #1
   25a38:	2131      	movs	r1, #49	@ 0x31
   25a3a:	9008      	str	r0, [sp, #32]
   25a3c:	f002 fa8f 	bl	27f5e <__aeabi_memclr>
   25a40:	7034      	strb	r4, [r6, #0]
   25a42:	980d      	ldr	r0, [sp, #52]	@ 0x34
   25a44:	9000      	str	r0, [sp, #0]
   25a46:	2108      	movs	r1, #8
   25a48:	2340      	movs	r3, #64	@ 0x40
   25a4a:	485c      	ldr	r0, [pc, #368]	@ (25bbc <_start+0x55b8>)
   25a4c:	9a06      	ldr	r2, [sp, #24]
   25a4e:	f7fa fc25 	bl	2029c <_ZN9allow_pin12dynamic_type11allow_inner17hf1099571477a6939E>
   25a52:	910f      	str	r1, [sp, #60]	@ 0x3c
   25a54:	07c0      	lsls	r0, r0, #31
   25a56:	d11b      	bne.n	25a90 <_start+0x548c>
   25a58:	4857      	ldr	r0, [pc, #348]	@ (25bb8 <_start+0x55b4>)
   25a5a:	4468      	add	r0, sp
   25a5c:	990d      	ldr	r1, [sp, #52]	@ 0x34
   25a5e:	7001      	strb	r1, [r0, #0]
   25a60:	980a      	ldr	r0, [sp, #40]	@ 0x28
   25a62:	9000      	str	r0, [sp, #0]
   25a64:	2105      	movs	r1, #5
   25a66:	2331      	movs	r3, #49	@ 0x31
   25a68:	4854      	ldr	r0, [pc, #336]	@ (25bbc <_start+0x55b8>)
   25a6a:	9a08      	ldr	r2, [sp, #32]
   25a6c:	f7fa fc16 	bl	2029c <_ZN9allow_pin12dynamic_type11allow_inner17hf1099571477a6939E>
   25a70:	910f      	str	r1, [sp, #60]	@ 0x3c
   25a72:	07c0      	lsls	r0, r0, #31
   25a74:	d10c      	bne.n	25a90 <_start+0x548c>
   25a76:	a8ff      	add	r0, sp, #1020	@ 0x3fc
   25a78:	30a4      	adds	r0, #164	@ 0xa4
   25a7a:	990a      	ldr	r1, [sp, #40]	@ 0x28
   25a7c:	7001      	strb	r1, [r0, #0]
   25a7e:	484f      	ldr	r0, [pc, #316]	@ (25bbc <_start+0x55b8>)
   25a80:	2108      	movs	r1, #8
   25a82:	2205      	movs	r2, #5
   25a84:	2400      	movs	r4, #0
   25a86:	4623      	mov	r3, r4
   25a88:	df02      	svc	2
   25a8a:	910f      	str	r1, [sp, #60]	@ 0x3c
   25a8c:	287f      	cmp	r0, #127	@ 0x7f
   25a8e:	d801      	bhi.n	25a94 <_start+0x5490>
   25a90:	9c0b      	ldr	r4, [sp, #44]	@ 0x2c
   25a92:	e02d      	b.n	25af0 <_start+0x54ec>
   25a94:	4848      	ldr	r0, [pc, #288]	@ (25bb8 <_start+0x55b4>)
   25a96:	4468      	add	r0, sp
   25a98:	7802      	ldrb	r2, [r0, #0]
   25a9a:	2a02      	cmp	r2, #2
   25a9c:	d00d      	beq.n	25aba <_start+0x54b6>
   25a9e:	2108      	movs	r1, #8
   25aa0:	4846      	ldr	r0, [pc, #280]	@ (25bbc <_start+0x55b8>)
   25aa2:	f002 fa4f 	bl	27f44 <_ZN9allow_pin12dynamic_type7unshare17ha4091652f9b609c4E>
   25aa6:	4844      	ldr	r0, [pc, #272]	@ (25bb8 <_start+0x55b4>)
   25aa8:	4468      	add	r0, sp
   25aaa:	990e      	ldr	r1, [sp, #56]	@ 0x38
   25aac:	7001      	strb	r1, [r0, #0]
   25aae:	a8ff      	add	r0, sp, #1020	@ 0x3fc
   25ab0:	30a4      	adds	r0, #164	@ 0xa4
   25ab2:	7800      	ldrb	r0, [r0, #0]
   25ab4:	900a      	str	r0, [sp, #40]	@ 0x28
   25ab6:	2802      	cmp	r0, #2
   25ab8:	d004      	beq.n	25ac4 <_start+0x54c0>
   25aba:	2105      	movs	r1, #5
   25abc:	483f      	ldr	r0, [pc, #252]	@ (25bbc <_start+0x55b8>)
   25abe:	9a0a      	ldr	r2, [sp, #40]	@ 0x28
   25ac0:	f002 fa40 	bl	27f44 <_ZN9allow_pin12dynamic_type7unshare17ha4091652f9b609c4E>
   25ac4:	a9ff      	add	r1, sp, #1020	@ 0x3fc
   25ac6:	31a4      	adds	r1, #164	@ 0xa4
   25ac8:	980e      	ldr	r0, [sp, #56]	@ 0x38
   25aca:	7008      	strb	r0, [r1, #0]
   25acc:	9b08      	ldr	r3, [sp, #32]
   25ace:	7898      	ldrb	r0, [r3, #2]
   25ad0:	aaff      	add	r2, sp, #1020	@ 0x3fc
   25ad2:	328c      	adds	r2, #140	@ 0x8c
   25ad4:	7090      	strb	r0, [r2, #2]
   25ad6:	7818      	ldrb	r0, [r3, #0]
   25ad8:	785b      	ldrb	r3, [r3, #1]
   25ada:	021b      	lsls	r3, r3, #8
   25adc:	1818      	adds	r0, r3, r0
   25ade:	8010      	strh	r0, [r2, #0]
   25ae0:	9809      	ldr	r0, [sp, #36]	@ 0x24
   25ae2:	6800      	ldr	r0, [r0, #0]
   25ae4:	900f      	str	r0, [sp, #60]	@ 0x3c
   25ae6:	3108      	adds	r1, #8
   25ae8:	a8c9      	add	r0, sp, #804	@ 0x324
   25aea:	222a      	movs	r2, #42	@ 0x2a
   25aec:	f002 fbf7 	bl	282de <__aeabi_memcpy>
   25af0:	a8ff      	add	r0, sp, #1020	@ 0x3fc
   25af2:	30a4      	adds	r0, #164	@ 0xa4
   25af4:	7802      	ldrb	r2, [r0, #0]
   25af6:	2a02      	cmp	r2, #2
   25af8:	d003      	beq.n	25b02 <_start+0x54fe>
   25afa:	2105      	movs	r1, #5
   25afc:	482f      	ldr	r0, [pc, #188]	@ (25bbc <_start+0x55b8>)
   25afe:	f002 fa21 	bl	27f44 <_ZN9allow_pin12dynamic_type7unshare17ha4091652f9b609c4E>
   25b02:	482d      	ldr	r0, [pc, #180]	@ (25bb8 <_start+0x55b4>)
   25b04:	4468      	add	r0, sp
   25b06:	7802      	ldrb	r2, [r0, #0]
   25b08:	2a02      	cmp	r2, #2
   25b0a:	d003      	beq.n	25b14 <_start+0x5510>
   25b0c:	2108      	movs	r1, #8
   25b0e:	482b      	ldr	r0, [pc, #172]	@ (25bbc <_start+0x55b8>)
   25b10:	f002 fa18 	bl	27f44 <_ZN9allow_pin12dynamic_type7unshare17ha4091652f9b609c4E>
   25b14:	2c00      	cmp	r4, #0
   25b16:	d001      	beq.n	25b1c <_start+0x5518>
   25b18:	f7fc fb1c 	bl	22154 <_start+0x1b50>
   25b1c:	4c25      	ldr	r4, [pc, #148]	@ (25bb4 <_start+0x55b0>)
   25b1e:	446c      	add	r4, sp
   25b20:	1c60      	adds	r0, r4, #1
   25b22:	9006      	str	r0, [sp, #24]
   25b24:	a9ff      	add	r1, sp, #1020	@ 0x3fc
   25b26:	318c      	adds	r1, #140	@ 0x8c
   25b28:	2203      	movs	r2, #3
   25b2a:	920a      	str	r2, [sp, #40]	@ 0x28
   25b2c:	f002 fbd7 	bl	282de <__aeabi_memcpy>
   25b30:	a89f      	add	r0, sp, #636	@ 0x27c
   25b32:	9008      	str	r0, [sp, #32]
   25b34:	a9c9      	add	r1, sp, #804	@ 0x324
   25b36:	262a      	movs	r6, #42	@ 0x2a
   25b38:	4632      	mov	r2, r6
   25b3a:	f002 fbd0 	bl	282de <__aeabi_memcpy>
   25b3e:	4620      	mov	r0, r4
   25b40:	3008      	adds	r0, #8
   25b42:	9908      	ldr	r1, [sp, #32]
   25b44:	4632      	mov	r2, r6
   25b46:	f002 fbca 	bl	282de <__aeabi_memcpy>
   25b4a:	9e0e      	ldr	r6, [sp, #56]	@ 0x38
   25b4c:	7026      	strb	r6, [r4, #0]
   25b4e:	980c      	ldr	r0, [sp, #48]	@ 0x30
   25b50:	990f      	ldr	r1, [sp, #60]	@ 0x3c
   25b52:	6041      	str	r1, [r0, #4]
   25b54:	4c18      	ldr	r4, [pc, #96]	@ (25bb8 <_start+0x55b4>)
   25b56:	446c      	add	r4, sp
   25b58:	1c60      	adds	r0, r4, #1
   25b5a:	2148      	movs	r1, #72	@ 0x48
   25b5c:	9008      	str	r0, [sp, #32]
   25b5e:	f002 f9fe 	bl	27f5e <__aeabi_memclr>
   25b62:	7026      	strb	r6, [r4, #0]
   25b64:	990d      	ldr	r1, [sp, #52]	@ 0x34
   25b66:	9100      	str	r1, [sp, #0]
   25b68:	4c16      	ldr	r4, [pc, #88]	@ (25bc4 <_start+0x55c0>)
   25b6a:	3484      	adds	r4, #132	@ 0x84
   25b6c:	2331      	movs	r3, #49	@ 0x31
   25b6e:	4620      	mov	r0, r4
   25b70:	9a06      	ldr	r2, [sp, #24]
   25b72:	f7fa fb93 	bl	2029c <_ZN9allow_pin12dynamic_type11allow_inner17hf1099571477a6939E>
   25b76:	910f      	str	r1, [sp, #60]	@ 0x3c
   25b78:	07c0      	lsls	r0, r0, #31
   25b7a:	d119      	bne.n	25bb0 <_start+0x55ac>
   25b7c:	480d      	ldr	r0, [pc, #52]	@ (25bb4 <_start+0x55b0>)
   25b7e:	4468      	add	r0, sp
   25b80:	990d      	ldr	r1, [sp, #52]	@ 0x34
   25b82:	7001      	strb	r1, [r0, #0]
   25b84:	990a      	ldr	r1, [sp, #40]	@ 0x28
   25b86:	9100      	str	r1, [sp, #0]
   25b88:	2348      	movs	r3, #72	@ 0x48
   25b8a:	4620      	mov	r0, r4
   25b8c:	9a08      	ldr	r2, [sp, #32]
   25b8e:	f7fa fb85 	bl	2029c <_ZN9allow_pin12dynamic_type11allow_inner17hf1099571477a6939E>
   25b92:	910f      	str	r1, [sp, #60]	@ 0x3c
   25b94:	07c0      	lsls	r0, r0, #31
   25b96:	d10b      	bne.n	25bb0 <_start+0x55ac>
   25b98:	4807      	ldr	r0, [pc, #28]	@ (25bb8 <_start+0x55b4>)
   25b9a:	4468      	add	r0, sp
   25b9c:	9a0a      	ldr	r2, [sp, #40]	@ 0x28
   25b9e:	7002      	strb	r2, [r0, #0]
   25ba0:	4809      	ldr	r0, [pc, #36]	@ (25bc8 <_start+0x55c4>)
   25ba2:	2104      	movs	r1, #4
   25ba4:	2600      	movs	r6, #0
   25ba6:	4633      	mov	r3, r6
   25ba8:	df02      	svc	2
   25baa:	910f      	str	r1, [sp, #60]	@ 0x3c
   25bac:	287f      	cmp	r0, #127	@ 0x7f
   25bae:	d80d      	bhi.n	25bcc <_start+0x55c8>
   25bb0:	9e0b      	ldr	r6, [sp, #44]	@ 0x2c
   25bb2:	e038      	b.n	25c26 <_start+0x5622>
   25bb4:	00000558 	.word	0x00000558
   25bb8:	000005a8 	.word	0x000005a8
   25bbc:	00000fce 	.word	0x00000fce
   25bc0:	00001028 	.word	0x00001028
   25bc4:	0000178a 	.word	0x0000178a
   25bc8:	0000180e 	.word	0x0000180e
   25bcc:	48e0      	ldr	r0, [pc, #896]	@ (25f50 <_start+0x594c>)
   25bce:	4468      	add	r0, sp
   25bd0:	7802      	ldrb	r2, [r0, #0]
   25bd2:	2a02      	cmp	r2, #2
   25bd4:	d00d      	beq.n	25bf2 <_start+0x55ee>
   25bd6:	2104      	movs	r1, #4
   25bd8:	4620      	mov	r0, r4
   25bda:	f002 f9b3 	bl	27f44 <_ZN9allow_pin12dynamic_type7unshare17ha4091652f9b609c4E>
   25bde:	48dc      	ldr	r0, [pc, #880]	@ (25f50 <_start+0x594c>)
   25be0:	4468      	add	r0, sp
   25be2:	990e      	ldr	r1, [sp, #56]	@ 0x38
   25be4:	7001      	strb	r1, [r0, #0]
   25be6:	48db      	ldr	r0, [pc, #876]	@ (25f54 <_start+0x5950>)
   25be8:	4468      	add	r0, sp
   25bea:	7800      	ldrb	r0, [r0, #0]
   25bec:	900a      	str	r0, [sp, #40]	@ 0x28
   25bee:	2802      	cmp	r0, #2
   25bf0:	d004      	beq.n	25bfc <_start+0x55f8>
   25bf2:	2103      	movs	r1, #3
   25bf4:	4620      	mov	r0, r4
   25bf6:	9a0a      	ldr	r2, [sp, #40]	@ 0x28
   25bf8:	f002 f9a4 	bl	27f44 <_ZN9allow_pin12dynamic_type7unshare17ha4091652f9b609c4E>
   25bfc:	49d5      	ldr	r1, [pc, #852]	@ (25f54 <_start+0x5950>)
   25bfe:	4469      	add	r1, sp
   25c00:	980e      	ldr	r0, [sp, #56]	@ 0x38
   25c02:	7008      	strb	r0, [r1, #0]
   25c04:	9b08      	ldr	r3, [sp, #32]
   25c06:	7898      	ldrb	r0, [r3, #2]
   25c08:	aac9      	add	r2, sp, #804	@ 0x324
   25c0a:	7090      	strb	r0, [r2, #2]
   25c0c:	7818      	ldrb	r0, [r3, #0]
   25c0e:	785b      	ldrb	r3, [r3, #1]
   25c10:	021b      	lsls	r3, r3, #8
   25c12:	1818      	adds	r0, r3, r0
   25c14:	8010      	strh	r0, [r2, #0]
   25c16:	980c      	ldr	r0, [sp, #48]	@ 0x30
   25c18:	6d40      	ldr	r0, [r0, #84]	@ 0x54
   25c1a:	900f      	str	r0, [sp, #60]	@ 0x3c
   25c1c:	3108      	adds	r1, #8
   25c1e:	a89f      	add	r0, sp, #636	@ 0x27c
   25c20:	2241      	movs	r2, #65	@ 0x41
   25c22:	f002 f9fc 	bl	2801e <__aeabi_memcpy4>
   25c26:	48cb      	ldr	r0, [pc, #812]	@ (25f54 <_start+0x5950>)
   25c28:	4468      	add	r0, sp
   25c2a:	7802      	ldrb	r2, [r0, #0]
   25c2c:	2a02      	cmp	r2, #2
   25c2e:	d003      	beq.n	25c38 <_start+0x5634>
   25c30:	2103      	movs	r1, #3
   25c32:	4620      	mov	r0, r4
   25c34:	f002 f986 	bl	27f44 <_ZN9allow_pin12dynamic_type7unshare17ha4091652f9b609c4E>
   25c38:	48c5      	ldr	r0, [pc, #788]	@ (25f50 <_start+0x594c>)
   25c3a:	4468      	add	r0, sp
   25c3c:	7802      	ldrb	r2, [r0, #0]
   25c3e:	2a02      	cmp	r2, #2
   25c40:	d003      	beq.n	25c4a <_start+0x5646>
   25c42:	2104      	movs	r1, #4
   25c44:	4620      	mov	r0, r4
   25c46:	f002 f97d 	bl	27f44 <_ZN9allow_pin12dynamic_type7unshare17ha4091652f9b609c4E>
   25c4a:	2e00      	cmp	r6, #0
   25c4c:	d001      	beq.n	25c52 <_start+0x564e>
   25c4e:	f7fc fa81 	bl	22154 <_start+0x1b50>
   25c52:	4ec0      	ldr	r6, [pc, #768]	@ (25f54 <_start+0x5950>)
   25c54:	446e      	add	r6, sp
   25c56:	1c70      	adds	r0, r6, #1
   25c58:	9006      	str	r0, [sp, #24]
   25c5a:	a9c9      	add	r1, sp, #804	@ 0x324
   25c5c:	2203      	movs	r2, #3
   25c5e:	9205      	str	r2, [sp, #20]
   25c60:	f002 fb3d 	bl	282de <__aeabi_memcpy>
   25c64:	a8ff      	add	r0, sp, #1020	@ 0x3fc
   25c66:	30a4      	adds	r0, #164	@ 0xa4
   25c68:	900a      	str	r0, [sp, #40]	@ 0x28
   25c6a:	a99f      	add	r1, sp, #636	@ 0x27c
   25c6c:	2441      	movs	r4, #65	@ 0x41
   25c6e:	4622      	mov	r2, r4
   25c70:	f002 f9d5 	bl	2801e <__aeabi_memcpy4>
   25c74:	4630      	mov	r0, r6
   25c76:	3008      	adds	r0, #8
   25c78:	990a      	ldr	r1, [sp, #40]	@ 0x28
   25c7a:	4622      	mov	r2, r4
   25c7c:	f002 f9cf 	bl	2801e <__aeabi_memcpy4>
   25c80:	9c0e      	ldr	r4, [sp, #56]	@ 0x38
   25c82:	7034      	strb	r4, [r6, #0]
   25c84:	980c      	ldr	r0, [sp, #48]	@ 0x30
   25c86:	990f      	ldr	r1, [sp, #60]	@ 0x3c
   25c88:	6541      	str	r1, [r0, #84]	@ 0x54
   25c8a:	aeff      	add	r6, sp, #1020	@ 0x3fc
   25c8c:	36a4      	adds	r6, #164	@ 0xa4
   25c8e:	1c70      	adds	r0, r6, #1
   25c90:	2129      	movs	r1, #41	@ 0x29
   25c92:	9008      	str	r0, [sp, #32]
   25c94:	f002 f963 	bl	27f5e <__aeabi_memclr>
   25c98:	7034      	strb	r4, [r6, #0]
   25c9a:	980d      	ldr	r0, [sp, #52]	@ 0x34
   25c9c:	9000      	str	r0, [sp, #0]
   25c9e:	48ae      	ldr	r0, [pc, #696]	@ (25f58 <_start+0x5954>)
   25ca0:	305f      	adds	r0, #95	@ 0x5f
   25ca2:	2348      	movs	r3, #72	@ 0x48
   25ca4:	900a      	str	r0, [sp, #40]	@ 0x28
   25ca6:	9905      	ldr	r1, [sp, #20]
   25ca8:	460c      	mov	r4, r1
   25caa:	9a06      	ldr	r2, [sp, #24]
   25cac:	f7fa faf6 	bl	2029c <_ZN9allow_pin12dynamic_type11allow_inner17hf1099571477a6939E>
   25cb0:	910f      	str	r1, [sp, #60]	@ 0x3c
   25cb2:	07c0      	lsls	r0, r0, #31
   25cb4:	d118      	bne.n	25ce8 <_start+0x56e4>
   25cb6:	48a7      	ldr	r0, [pc, #668]	@ (25f54 <_start+0x5950>)
   25cb8:	4468      	add	r0, sp
   25cba:	990d      	ldr	r1, [sp, #52]	@ 0x34
   25cbc:	7001      	strb	r1, [r0, #0]
   25cbe:	9400      	str	r4, [sp, #0]
   25cc0:	2329      	movs	r3, #41	@ 0x29
   25cc2:	980a      	ldr	r0, [sp, #40]	@ 0x28
   25cc4:	9a08      	ldr	r2, [sp, #32]
   25cc6:	f7fa fae9 	bl	2029c <_ZN9allow_pin12dynamic_type11allow_inner17hf1099571477a6939E>
   25cca:	910f      	str	r1, [sp, #60]	@ 0x3c
   25ccc:	07c0      	lsls	r0, r0, #31
   25cce:	d10b      	bne.n	25ce8 <_start+0x56e4>
   25cd0:	a8ff      	add	r0, sp, #1020	@ 0x3fc
   25cd2:	30a4      	adds	r0, #164	@ 0xa4
   25cd4:	4621      	mov	r1, r4
   25cd6:	7004      	strb	r4, [r0, #0]
   25cd8:	48a0      	ldr	r0, [pc, #640]	@ (25f5c <_start+0x5958>)
   25cda:	2204      	movs	r2, #4
   25cdc:	2600      	movs	r6, #0
   25cde:	4633      	mov	r3, r6
   25ce0:	df02      	svc	2
   25ce2:	910f      	str	r1, [sp, #60]	@ 0x3c
   25ce4:	287f      	cmp	r0, #127	@ 0x7f
   25ce6:	d801      	bhi.n	25cec <_start+0x56e8>
   25ce8:	9e0b      	ldr	r6, [sp, #44]	@ 0x2c
   25cea:	e02d      	b.n	25d48 <_start+0x5744>
   25cec:	4899      	ldr	r0, [pc, #612]	@ (25f54 <_start+0x5950>)
   25cee:	4468      	add	r0, sp
   25cf0:	7802      	ldrb	r2, [r0, #0]
   25cf2:	2a02      	cmp	r2, #2
   25cf4:	d00d      	beq.n	25d12 <_start+0x570e>
   25cf6:	2103      	movs	r1, #3
   25cf8:	980a      	ldr	r0, [sp, #40]	@ 0x28
   25cfa:	f002 f923 	bl	27f44 <_ZN9allow_pin12dynamic_type7unshare17ha4091652f9b609c4E>
   25cfe:	4895      	ldr	r0, [pc, #596]	@ (25f54 <_start+0x5950>)
   25d00:	4468      	add	r0, sp
   25d02:	990e      	ldr	r1, [sp, #56]	@ 0x38
   25d04:	7001      	strb	r1, [r0, #0]
   25d06:	a8ff      	add	r0, sp, #1020	@ 0x3fc
   25d08:	30a4      	adds	r0, #164	@ 0xa4
   25d0a:	7800      	ldrb	r0, [r0, #0]
   25d0c:	4604      	mov	r4, r0
   25d0e:	2802      	cmp	r0, #2
   25d10:	d004      	beq.n	25d1c <_start+0x5718>
   25d12:	2104      	movs	r1, #4
   25d14:	980a      	ldr	r0, [sp, #40]	@ 0x28
   25d16:	4622      	mov	r2, r4
   25d18:	f002 f914 	bl	27f44 <_ZN9allow_pin12dynamic_type7unshare17ha4091652f9b609c4E>
   25d1c:	a9ff      	add	r1, sp, #1020	@ 0x3fc
   25d1e:	31a4      	adds	r1, #164	@ 0xa4
   25d20:	980e      	ldr	r0, [sp, #56]	@ 0x38
   25d22:	7008      	strb	r0, [r1, #0]
   25d24:	9b08      	ldr	r3, [sp, #32]
   25d26:	7898      	ldrb	r0, [r3, #2]
   25d28:	aac9      	add	r2, sp, #804	@ 0x324
   25d2a:	7090      	strb	r0, [r2, #2]
   25d2c:	7818      	ldrb	r0, [r3, #0]
   25d2e:	785b      	ldrb	r3, [r3, #1]
   25d30:	021b      	lsls	r3, r3, #8
   25d32:	1818      	adds	r0, r3, r0
   25d34:	8010      	strh	r0, [r2, #0]
   25d36:	9809      	ldr	r0, [sp, #36]	@ 0x24
   25d38:	6800      	ldr	r0, [r0, #0]
   25d3a:	900f      	str	r0, [sp, #60]	@ 0x3c
   25d3c:	3108      	adds	r1, #8
   25d3e:	4884      	ldr	r0, [pc, #528]	@ (25f50 <_start+0x594c>)
   25d40:	4468      	add	r0, sp
   25d42:	2222      	movs	r2, #34	@ 0x22
   25d44:	f002 facb 	bl	282de <__aeabi_memcpy>
   25d48:	a8ff      	add	r0, sp, #1020	@ 0x3fc
   25d4a:	30a4      	adds	r0, #164	@ 0xa4
   25d4c:	7802      	ldrb	r2, [r0, #0]
   25d4e:	2a02      	cmp	r2, #2
   25d50:	d003      	beq.n	25d5a <_start+0x5756>
   25d52:	2104      	movs	r1, #4
   25d54:	980a      	ldr	r0, [sp, #40]	@ 0x28
   25d56:	f002 f8f5 	bl	27f44 <_ZN9allow_pin12dynamic_type7unshare17ha4091652f9b609c4E>
   25d5a:	487e      	ldr	r0, [pc, #504]	@ (25f54 <_start+0x5950>)
   25d5c:	4468      	add	r0, sp
   25d5e:	7802      	ldrb	r2, [r0, #0]
   25d60:	2a02      	cmp	r2, #2
   25d62:	d003      	beq.n	25d6c <_start+0x5768>
   25d64:	2103      	movs	r1, #3
   25d66:	980a      	ldr	r0, [sp, #40]	@ 0x28
   25d68:	f002 f8ec 	bl	27f44 <_ZN9allow_pin12dynamic_type7unshare17ha4091652f9b609c4E>
   25d6c:	2e00      	cmp	r6, #0
   25d6e:	d001      	beq.n	25d74 <_start+0x5770>
   25d70:	f7fc f9f0 	bl	22154 <_start+0x1b50>
   25d74:	4e77      	ldr	r6, [pc, #476]	@ (25f54 <_start+0x5950>)
   25d76:	446e      	add	r6, sp
   25d78:	1c70      	adds	r0, r6, #1
   25d7a:	900a      	str	r0, [sp, #40]	@ 0x28
   25d7c:	a9c9      	add	r1, sp, #804	@ 0x324
   25d7e:	2203      	movs	r2, #3
   25d80:	9208      	str	r2, [sp, #32]
   25d82:	f002 faac 	bl	282de <__aeabi_memcpy>
   25d86:	a89f      	add	r0, sp, #636	@ 0x27c
   25d88:	9006      	str	r0, [sp, #24]
   25d8a:	4971      	ldr	r1, [pc, #452]	@ (25f50 <_start+0x594c>)
   25d8c:	4469      	add	r1, sp
   25d8e:	2422      	movs	r4, #34	@ 0x22
   25d90:	4622      	mov	r2, r4
   25d92:	f002 faa4 	bl	282de <__aeabi_memcpy>
   25d96:	4630      	mov	r0, r6
   25d98:	3008      	adds	r0, #8
   25d9a:	9906      	ldr	r1, [sp, #24]
   25d9c:	4622      	mov	r2, r4
   25d9e:	f002 fa9e 	bl	282de <__aeabi_memcpy>
   25da2:	9c0e      	ldr	r4, [sp, #56]	@ 0x38
   25da4:	7034      	strb	r4, [r6, #0]
   25da6:	980c      	ldr	r0, [sp, #48]	@ 0x30
   25da8:	990f      	ldr	r1, [sp, #60]	@ 0x3c
   25daa:	6541      	str	r1, [r0, #84]	@ 0x54
   25dac:	aeff      	add	r6, sp, #1020	@ 0x3fc
   25dae:	36a4      	adds	r6, #164	@ 0xa4
   25db0:	1c70      	adds	r0, r6, #1
   25db2:	211a      	movs	r1, #26
   25db4:	9006      	str	r0, [sp, #24]
   25db6:	f002 f8d2 	bl	27f5e <__aeabi_memclr>
   25dba:	7034      	strb	r4, [r6, #0]
   25dbc:	980d      	ldr	r0, [sp, #52]	@ 0x34
   25dbe:	9000      	str	r0, [sp, #0]
   25dc0:	2105      	movs	r1, #5
   25dc2:	2329      	movs	r3, #41	@ 0x29
   25dc4:	4866      	ldr	r0, [pc, #408]	@ (25f60 <_start+0x595c>)
   25dc6:	9a0a      	ldr	r2, [sp, #40]	@ 0x28
   25dc8:	f7fa fa68 	bl	2029c <_ZN9allow_pin12dynamic_type11allow_inner17hf1099571477a6939E>
   25dcc:	910f      	str	r1, [sp, #60]	@ 0x3c
   25dce:	07c0      	lsls	r0, r0, #31
   25dd0:	d119      	bne.n	25e06 <_start+0x5802>
   25dd2:	4860      	ldr	r0, [pc, #384]	@ (25f54 <_start+0x5950>)
   25dd4:	4468      	add	r0, sp
   25dd6:	990d      	ldr	r1, [sp, #52]	@ 0x34
   25dd8:	7001      	strb	r1, [r0, #0]
   25dda:	9908      	ldr	r1, [sp, #32]
   25ddc:	9100      	str	r1, [sp, #0]
   25dde:	231a      	movs	r3, #26
   25de0:	485f      	ldr	r0, [pc, #380]	@ (25f60 <_start+0x595c>)
   25de2:	9a06      	ldr	r2, [sp, #24]
   25de4:	f7fa fa5a 	bl	2029c <_ZN9allow_pin12dynamic_type11allow_inner17hf1099571477a6939E>
   25de8:	910f      	str	r1, [sp, #60]	@ 0x3c
   25dea:	07c0      	lsls	r0, r0, #31
   25dec:	d10b      	bne.n	25e06 <_start+0x5802>
   25dee:	a8ff      	add	r0, sp, #1020	@ 0x3fc
   25df0:	30a4      	adds	r0, #164	@ 0xa4
   25df2:	9a08      	ldr	r2, [sp, #32]
   25df4:	7002      	strb	r2, [r0, #0]
   25df6:	485a      	ldr	r0, [pc, #360]	@ (25f60 <_start+0x595c>)
   25df8:	2105      	movs	r1, #5
   25dfa:	2300      	movs	r3, #0
   25dfc:	930a      	str	r3, [sp, #40]	@ 0x28
   25dfe:	df02      	svc	2
   25e00:	910f      	str	r1, [sp, #60]	@ 0x3c
   25e02:	287f      	cmp	r0, #127	@ 0x7f
   25e04:	d802      	bhi.n	25e0c <_start+0x5808>
   25e06:	980b      	ldr	r0, [sp, #44]	@ 0x2c
   25e08:	900a      	str	r0, [sp, #40]	@ 0x28
   25e0a:	e030      	b.n	25e6e <_start+0x586a>
   25e0c:	4851      	ldr	r0, [pc, #324]	@ (25f54 <_start+0x5950>)
   25e0e:	4468      	add	r0, sp
   25e10:	7802      	ldrb	r2, [r0, #0]
   25e12:	2a02      	cmp	r2, #2
   25e14:	d00d      	beq.n	25e32 <_start+0x582e>
   25e16:	2105      	movs	r1, #5
   25e18:	4851      	ldr	r0, [pc, #324]	@ (25f60 <_start+0x595c>)
   25e1a:	f002 f893 	bl	27f44 <_ZN9allow_pin12dynamic_type7unshare17ha4091652f9b609c4E>
   25e1e:	484d      	ldr	r0, [pc, #308]	@ (25f54 <_start+0x5950>)
   25e20:	4468      	add	r0, sp
   25e22:	990e      	ldr	r1, [sp, #56]	@ 0x38
   25e24:	7001      	strb	r1, [r0, #0]
   25e26:	a8ff      	add	r0, sp, #1020	@ 0x3fc
   25e28:	30a4      	adds	r0, #164	@ 0xa4
   25e2a:	7800      	ldrb	r0, [r0, #0]
   25e2c:	9008      	str	r0, [sp, #32]
   25e2e:	2802      	cmp	r0, #2
   25e30:	d004      	beq.n	25e3c <_start+0x5838>
   25e32:	2103      	movs	r1, #3
   25e34:	484a      	ldr	r0, [pc, #296]	@ (25f60 <_start+0x595c>)
   25e36:	9a08      	ldr	r2, [sp, #32]
   25e38:	f002 f884 	bl	27f44 <_ZN9allow_pin12dynamic_type7unshare17ha4091652f9b609c4E>
   25e3c:	a8ff      	add	r0, sp, #1020	@ 0x3fc
   25e3e:	30a4      	adds	r0, #164	@ 0xa4
   25e40:	990e      	ldr	r1, [sp, #56]	@ 0x38
   25e42:	7001      	strb	r1, [r0, #0]
   25e44:	9b06      	ldr	r3, [sp, #24]
   25e46:	7899      	ldrb	r1, [r3, #2]
   25e48:	aac9      	add	r2, sp, #804	@ 0x324
   25e4a:	7091      	strb	r1, [r2, #2]
   25e4c:	7819      	ldrb	r1, [r3, #0]
   25e4e:	785b      	ldrb	r3, [r3, #1]
   25e50:	021b      	lsls	r3, r3, #8
   25e52:	1859      	adds	r1, r3, r1
   25e54:	8011      	strh	r1, [r2, #0]
   25e56:	3008      	adds	r0, #8
   25e58:	9909      	ldr	r1, [sp, #36]	@ 0x24
   25e5a:	6809      	ldr	r1, [r1, #0]
   25e5c:	910f      	str	r1, [sp, #60]	@ 0x3c
   25e5e:	493c      	ldr	r1, [pc, #240]	@ (25f50 <_start+0x594c>)
   25e60:	4469      	add	r1, sp
   25e62:	c85c      	ldmia	r0!, {r2, r3, r4, r6}
   25e64:	c15c      	stmia	r1!, {r2, r3, r4, r6}
   25e66:	8802      	ldrh	r2, [r0, #0]
   25e68:	800a      	strh	r2, [r1, #0]
   25e6a:	7880      	ldrb	r0, [r0, #2]
   25e6c:	7088      	strb	r0, [r1, #2]
   25e6e:	a8ff      	add	r0, sp, #1020	@ 0x3fc
   25e70:	30a4      	adds	r0, #164	@ 0xa4
   25e72:	7802      	ldrb	r2, [r0, #0]
   25e74:	2a02      	cmp	r2, #2
   25e76:	d003      	beq.n	25e80 <_start+0x587c>
   25e78:	2103      	movs	r1, #3
   25e7a:	4839      	ldr	r0, [pc, #228]	@ (25f60 <_start+0x595c>)
   25e7c:	f002 f862 	bl	27f44 <_ZN9allow_pin12dynamic_type7unshare17ha4091652f9b609c4E>
   25e80:	4834      	ldr	r0, [pc, #208]	@ (25f54 <_start+0x5950>)
   25e82:	4468      	add	r0, sp
   25e84:	7802      	ldrb	r2, [r0, #0]
   25e86:	2a02      	cmp	r2, #2
   25e88:	d003      	beq.n	25e92 <_start+0x588e>
   25e8a:	2105      	movs	r1, #5
   25e8c:	4834      	ldr	r0, [pc, #208]	@ (25f60 <_start+0x595c>)
   25e8e:	f002 f859 	bl	27f44 <_ZN9allow_pin12dynamic_type7unshare17ha4091652f9b609c4E>
   25e92:	980a      	ldr	r0, [sp, #40]	@ 0x28
   25e94:	2800      	cmp	r0, #0
   25e96:	d001      	beq.n	25e9c <_start+0x5898>
   25e98:	f7fc f95c 	bl	22154 <_start+0x1b50>
   25e9c:	a8ff      	add	r0, sp, #1020	@ 0x3fc
   25e9e:	30a4      	adds	r0, #164	@ 0xa4
   25ea0:	9008      	str	r0, [sp, #32]
   25ea2:	1c40      	adds	r0, r0, #1
   25ea4:	9004      	str	r0, [sp, #16]
   25ea6:	a9c9      	add	r1, sp, #804	@ 0x324
   25ea8:	2203      	movs	r2, #3
   25eaa:	920a      	str	r2, [sp, #40]	@ 0x28
   25eac:	f002 fa17 	bl	282de <__aeabi_memcpy>
   25eb0:	4927      	ldr	r1, [pc, #156]	@ (25f50 <_start+0x594c>)
   25eb2:	4469      	add	r1, sp
   25eb4:	aa9f      	add	r2, sp, #636	@ 0x27c
   25eb6:	9206      	str	r2, [sp, #24]
   25eb8:	c959      	ldmia	r1!, {r0, r3, r4, r6}
   25eba:	c259      	stmia	r2!, {r0, r3, r4, r6}
   25ebc:	8808      	ldrh	r0, [r1, #0]
   25ebe:	8010      	strh	r0, [r2, #0]
   25ec0:	7888      	ldrb	r0, [r1, #2]
   25ec2:	7090      	strb	r0, [r2, #2]
   25ec4:	9808      	ldr	r0, [sp, #32]
   25ec6:	3008      	adds	r0, #8
   25ec8:	9e06      	ldr	r6, [sp, #24]
   25eca:	ce1e      	ldmia	r6!, {r1, r2, r3, r4}
   25ecc:	c01e      	stmia	r0!, {r1, r2, r3, r4}
   25ece:	8831      	ldrh	r1, [r6, #0]
   25ed0:	8001      	strh	r1, [r0, #0]
   25ed2:	78b1      	ldrb	r1, [r6, #2]
   25ed4:	7081      	strb	r1, [r0, #2]
   25ed6:	9e0e      	ldr	r6, [sp, #56]	@ 0x38
   25ed8:	9808      	ldr	r0, [sp, #32]
   25eda:	7006      	strb	r6, [r0, #0]
   25edc:	9809      	ldr	r0, [sp, #36]	@ 0x24
   25ede:	990f      	ldr	r1, [sp, #60]	@ 0x3c
   25ee0:	6001      	str	r1, [r0, #0]
   25ee2:	4c1c      	ldr	r4, [pc, #112]	@ (25f54 <_start+0x5950>)
   25ee4:	446c      	add	r4, sp
   25ee6:	1c60      	adds	r0, r4, #1
   25ee8:	211b      	movs	r1, #27
   25eea:	9006      	str	r0, [sp, #24]
   25eec:	f002 f837 	bl	27f5e <__aeabi_memclr>
   25ef0:	7026      	strb	r6, [r4, #0]
   25ef2:	980d      	ldr	r0, [sp, #52]	@ 0x34
   25ef4:	9000      	str	r0, [sp, #0]
   25ef6:	4c1b      	ldr	r4, [pc, #108]	@ (25f64 <_start+0x5960>)
   25ef8:	34f8      	adds	r4, #248	@ 0xf8
   25efa:	2105      	movs	r1, #5
   25efc:	231a      	movs	r3, #26
   25efe:	4620      	mov	r0, r4
   25f00:	9105      	str	r1, [sp, #20]
   25f02:	9a04      	ldr	r2, [sp, #16]
   25f04:	f7fa f9ca 	bl	2029c <_ZN9allow_pin12dynamic_type11allow_inner17hf1099571477a6939E>
   25f08:	910f      	str	r1, [sp, #60]	@ 0x3c
   25f0a:	07c0      	lsls	r0, r0, #31
   25f0c:	d11c      	bne.n	25f48 <_start+0x5944>
   25f0e:	a8ff      	add	r0, sp, #1020	@ 0x3fc
   25f10:	30a4      	adds	r0, #164	@ 0xa4
   25f12:	990d      	ldr	r1, [sp, #52]	@ 0x34
   25f14:	7001      	strb	r1, [r0, #0]
   25f16:	980a      	ldr	r0, [sp, #40]	@ 0x28
   25f18:	9000      	str	r0, [sp, #0]
   25f1a:	2102      	movs	r1, #2
   25f1c:	231b      	movs	r3, #27
   25f1e:	4620      	mov	r0, r4
   25f20:	9a06      	ldr	r2, [sp, #24]
   25f22:	f7fa f9bb 	bl	2029c <_ZN9allow_pin12dynamic_type11allow_inner17hf1099571477a6939E>
   25f26:	910f      	str	r1, [sp, #60]	@ 0x3c
   25f28:	07c0      	lsls	r0, r0, #31
   25f2a:	d10d      	bne.n	25f48 <_start+0x5944>
   25f2c:	4809      	ldr	r0, [pc, #36]	@ (25f54 <_start+0x5950>)
   25f2e:	4468      	add	r0, sp
   25f30:	990a      	ldr	r1, [sp, #40]	@ 0x28
   25f32:	7001      	strb	r1, [r0, #0]
   25f34:	480c      	ldr	r0, [pc, #48]	@ (25f68 <_start+0x5964>)
   25f36:	2105      	movs	r1, #5
   25f38:	2602      	movs	r6, #2
   25f3a:	2300      	movs	r3, #0
   25f3c:	4632      	mov	r2, r6
   25f3e:	9308      	str	r3, [sp, #32]
   25f40:	df02      	svc	2
   25f42:	910f      	str	r1, [sp, #60]	@ 0x3c
   25f44:	287f      	cmp	r0, #127	@ 0x7f
   25f46:	d811      	bhi.n	25f6c <_start+0x5968>
   25f48:	980b      	ldr	r0, [sp, #44]	@ 0x2c
   25f4a:	9008      	str	r0, [sp, #32]
   25f4c:	e039      	b.n	25fc2 <_start+0x59be>
   25f4e:	46c0      	nop			@ (mov r8, r8)
   25f50:	00000558 	.word	0x00000558
   25f54:	000005a8 	.word	0x000005a8
   25f58:	00002645 	.word	0x00002645
   25f5c:	000026a4 	.word	0x000026a4
   25f60:	00002048 	.word	0x00002048
   25f64:	00001bd6 	.word	0x00001bd6
   25f68:	00001cce 	.word	0x00001cce
   25f6c:	a8ff      	add	r0, sp, #1020	@ 0x3fc
   25f6e:	30a4      	adds	r0, #164	@ 0xa4
   25f70:	7802      	ldrb	r2, [r0, #0]
   25f72:	2a02      	cmp	r2, #2
   25f74:	d00c      	beq.n	25f90 <_start+0x598c>
   25f76:	2105      	movs	r1, #5
   25f78:	4620      	mov	r0, r4
   25f7a:	f001 ffe3 	bl	27f44 <_ZN9allow_pin12dynamic_type7unshare17ha4091652f9b609c4E>
   25f7e:	a8ff      	add	r0, sp, #1020	@ 0x3fc
   25f80:	30a4      	adds	r0, #164	@ 0xa4
   25f82:	7006      	strb	r6, [r0, #0]
   25f84:	48db      	ldr	r0, [pc, #876]	@ (262f4 <_start+0x5cf0>)
   25f86:	4468      	add	r0, sp
   25f88:	7800      	ldrb	r0, [r0, #0]
   25f8a:	900a      	str	r0, [sp, #40]	@ 0x28
   25f8c:	2802      	cmp	r0, #2
   25f8e:	d004      	beq.n	25f9a <_start+0x5996>
   25f90:	2102      	movs	r1, #2
   25f92:	4620      	mov	r0, r4
   25f94:	9a0a      	ldr	r2, [sp, #40]	@ 0x28
   25f96:	f001 ffd5 	bl	27f44 <_ZN9allow_pin12dynamic_type7unshare17ha4091652f9b609c4E>
   25f9a:	49d6      	ldr	r1, [pc, #856]	@ (262f4 <_start+0x5cf0>)
   25f9c:	4469      	add	r1, sp
   25f9e:	700e      	strb	r6, [r1, #0]
   25fa0:	9b06      	ldr	r3, [sp, #24]
   25fa2:	7898      	ldrb	r0, [r3, #2]
   25fa4:	aac9      	add	r2, sp, #804	@ 0x324
   25fa6:	7090      	strb	r0, [r2, #2]
   25fa8:	7818      	ldrb	r0, [r3, #0]
   25faa:	785b      	ldrb	r3, [r3, #1]
   25fac:	021b      	lsls	r3, r3, #8
   25fae:	1818      	adds	r0, r3, r0
   25fb0:	8010      	strh	r0, [r2, #0]
   25fb2:	980c      	ldr	r0, [sp, #48]	@ 0x30
   25fb4:	6d40      	ldr	r0, [r0, #84]	@ 0x54
   25fb6:	900f      	str	r0, [sp, #60]	@ 0x3c
   25fb8:	3108      	adds	r1, #8
   25fba:	a89f      	add	r0, sp, #636	@ 0x27c
   25fbc:	2214      	movs	r2, #20
   25fbe:	f002 f98e 	bl	282de <__aeabi_memcpy>
   25fc2:	48cc      	ldr	r0, [pc, #816]	@ (262f4 <_start+0x5cf0>)
   25fc4:	4468      	add	r0, sp
   25fc6:	7802      	ldrb	r2, [r0, #0]
   25fc8:	2a02      	cmp	r2, #2
   25fca:	d003      	beq.n	25fd4 <_start+0x59d0>
   25fcc:	2102      	movs	r1, #2
   25fce:	4620      	mov	r0, r4
   25fd0:	f001 ffb8 	bl	27f44 <_ZN9allow_pin12dynamic_type7unshare17ha4091652f9b609c4E>
   25fd4:	a8ff      	add	r0, sp, #1020	@ 0x3fc
   25fd6:	30a4      	adds	r0, #164	@ 0xa4
   25fd8:	7802      	ldrb	r2, [r0, #0]
   25fda:	2a02      	cmp	r2, #2
   25fdc:	d003      	beq.n	25fe6 <_start+0x59e2>
   25fde:	2105      	movs	r1, #5
   25fe0:	4620      	mov	r0, r4
   25fe2:	f001 ffaf 	bl	27f44 <_ZN9allow_pin12dynamic_type7unshare17ha4091652f9b609c4E>
   25fe6:	9808      	ldr	r0, [sp, #32]
   25fe8:	2800      	cmp	r0, #0
   25fea:	d001      	beq.n	25ff0 <_start+0x59ec>
   25fec:	f7fc f8b2 	bl	22154 <_start+0x1b50>
   25ff0:	4ec1      	ldr	r6, [pc, #772]	@ (262f8 <_start+0x5cf4>)
   25ff2:	446e      	add	r6, sp
   25ff4:	1c70      	adds	r0, r6, #1
   25ff6:	9008      	str	r0, [sp, #32]
   25ff8:	a9c9      	add	r1, sp, #804	@ 0x324
   25ffa:	2203      	movs	r2, #3
   25ffc:	920a      	str	r2, [sp, #40]	@ 0x28
   25ffe:	f002 f96e 	bl	282de <__aeabi_memcpy>
   26002:	a8d6      	add	r0, sp, #856	@ 0x358
   26004:	9006      	str	r0, [sp, #24]
   26006:	a99f      	add	r1, sp, #636	@ 0x27c
   26008:	2414      	movs	r4, #20
   2600a:	4622      	mov	r2, r4
   2600c:	f002 f967 	bl	282de <__aeabi_memcpy>
   26010:	980e      	ldr	r0, [sp, #56]	@ 0x38
   26012:	7030      	strb	r0, [r6, #0]
   26014:	980c      	ldr	r0, [sp, #48]	@ 0x30
   26016:	990f      	ldr	r1, [sp, #60]	@ 0x3c
   26018:	6041      	str	r1, [r0, #4]
   2601a:	3608      	adds	r6, #8
   2601c:	4630      	mov	r0, r6
   2601e:	9906      	ldr	r1, [sp, #24]
   26020:	4622      	mov	r2, r4
   26022:	f002 f95c 	bl	282de <__aeabi_memcpy>
   26026:	4cb3      	ldr	r4, [pc, #716]	@ (262f4 <_start+0x5cf0>)
   26028:	446c      	add	r4, sp
   2602a:	1c66      	adds	r6, r4, #1
   2602c:	2141      	movs	r1, #65	@ 0x41
   2602e:	4630      	mov	r0, r6
   26030:	f001 ff95 	bl	27f5e <__aeabi_memclr>
   26034:	980e      	ldr	r0, [sp, #56]	@ 0x38
   26036:	7020      	strb	r0, [r4, #0]
   26038:	980d      	ldr	r0, [sp, #52]	@ 0x34
   2603a:	9000      	str	r0, [sp, #0]
   2603c:	9c07      	ldr	r4, [sp, #28]
   2603e:	3412      	adds	r4, #18
   26040:	2108      	movs	r1, #8
   26042:	231b      	movs	r3, #27
   26044:	4620      	mov	r0, r4
   26046:	9a08      	ldr	r2, [sp, #32]
   26048:	f7fa f928 	bl	2029c <_ZN9allow_pin12dynamic_type11allow_inner17hf1099571477a6939E>
   2604c:	910f      	str	r1, [sp, #60]	@ 0x3c
   2604e:	07c0      	lsls	r0, r0, #31
   26050:	d11c      	bne.n	2608c <_start+0x5a88>
   26052:	48a9      	ldr	r0, [pc, #676]	@ (262f8 <_start+0x5cf4>)
   26054:	4468      	add	r0, sp
   26056:	990d      	ldr	r1, [sp, #52]	@ 0x34
   26058:	7001      	strb	r1, [r0, #0]
   2605a:	980a      	ldr	r0, [sp, #40]	@ 0x28
   2605c:	9000      	str	r0, [sp, #0]
   2605e:	2109      	movs	r1, #9
   26060:	2341      	movs	r3, #65	@ 0x41
   26062:	4620      	mov	r0, r4
   26064:	4632      	mov	r2, r6
   26066:	f7fa f919 	bl	2029c <_ZN9allow_pin12dynamic_type11allow_inner17hf1099571477a6939E>
   2606a:	910f      	str	r1, [sp, #60]	@ 0x3c
   2606c:	07c0      	lsls	r0, r0, #31
   2606e:	d10d      	bne.n	2608c <_start+0x5a88>
   26070:	48a0      	ldr	r0, [pc, #640]	@ (262f4 <_start+0x5cf0>)
   26072:	4468      	add	r0, sp
   26074:	990a      	ldr	r1, [sp, #40]	@ 0x28
   26076:	7001      	strb	r1, [r0, #0]
   26078:	9805      	ldr	r0, [sp, #20]
   2607a:	0180      	lsls	r0, r0, #6
   2607c:	2108      	movs	r1, #8
   2607e:	2209      	movs	r2, #9
   26080:	2300      	movs	r3, #0
   26082:	9308      	str	r3, [sp, #32]
   26084:	df02      	svc	2
   26086:	910f      	str	r1, [sp, #60]	@ 0x3c
   26088:	287f      	cmp	r0, #127	@ 0x7f
   2608a:	d802      	bhi.n	26092 <_start+0x5a8e>
   2608c:	980b      	ldr	r0, [sp, #44]	@ 0x2c
   2608e:	9008      	str	r0, [sp, #32]
   26090:	e02b      	b.n	260ea <_start+0x5ae6>
   26092:	4899      	ldr	r0, [pc, #612]	@ (262f8 <_start+0x5cf4>)
   26094:	4468      	add	r0, sp
   26096:	7802      	ldrb	r2, [r0, #0]
   26098:	2a02      	cmp	r2, #2
   2609a:	d00d      	beq.n	260b8 <_start+0x5ab4>
   2609c:	2108      	movs	r1, #8
   2609e:	4620      	mov	r0, r4
   260a0:	f001 ff50 	bl	27f44 <_ZN9allow_pin12dynamic_type7unshare17ha4091652f9b609c4E>
   260a4:	4894      	ldr	r0, [pc, #592]	@ (262f8 <_start+0x5cf4>)
   260a6:	4468      	add	r0, sp
   260a8:	990e      	ldr	r1, [sp, #56]	@ 0x38
   260aa:	7001      	strb	r1, [r0, #0]
   260ac:	4891      	ldr	r0, [pc, #580]	@ (262f4 <_start+0x5cf0>)
   260ae:	4468      	add	r0, sp
   260b0:	7800      	ldrb	r0, [r0, #0]
   260b2:	900a      	str	r0, [sp, #40]	@ 0x28
   260b4:	2802      	cmp	r0, #2
   260b6:	d004      	beq.n	260c2 <_start+0x5abe>
   260b8:	2109      	movs	r1, #9
   260ba:	4620      	mov	r0, r4
   260bc:	9a0a      	ldr	r2, [sp, #40]	@ 0x28
   260be:	f001 ff41 	bl	27f44 <_ZN9allow_pin12dynamic_type7unshare17ha4091652f9b609c4E>
   260c2:	498c      	ldr	r1, [pc, #560]	@ (262f4 <_start+0x5cf0>)
   260c4:	4469      	add	r1, sp
   260c6:	980e      	ldr	r0, [sp, #56]	@ 0x38
   260c8:	7008      	strb	r0, [r1, #0]
   260ca:	78b0      	ldrb	r0, [r6, #2]
   260cc:	aac9      	add	r2, sp, #804	@ 0x324
   260ce:	7090      	strb	r0, [r2, #2]
   260d0:	7830      	ldrb	r0, [r6, #0]
   260d2:	7873      	ldrb	r3, [r6, #1]
   260d4:	021b      	lsls	r3, r3, #8
   260d6:	1818      	adds	r0, r3, r0
   260d8:	8010      	strh	r0, [r2, #0]
   260da:	980c      	ldr	r0, [sp, #48]	@ 0x30
   260dc:	6d40      	ldr	r0, [r0, #84]	@ 0x54
   260de:	900f      	str	r0, [sp, #60]	@ 0x3c
   260e0:	3108      	adds	r1, #8
   260e2:	a89f      	add	r0, sp, #636	@ 0x27c
   260e4:	223a      	movs	r2, #58	@ 0x3a
   260e6:	f002 f8fa 	bl	282de <__aeabi_memcpy>
   260ea:	4882      	ldr	r0, [pc, #520]	@ (262f4 <_start+0x5cf0>)
   260ec:	4468      	add	r0, sp
   260ee:	7802      	ldrb	r2, [r0, #0]
   260f0:	2a02      	cmp	r2, #2
   260f2:	d003      	beq.n	260fc <_start+0x5af8>
   260f4:	2109      	movs	r1, #9
   260f6:	4620      	mov	r0, r4
   260f8:	f001 ff24 	bl	27f44 <_ZN9allow_pin12dynamic_type7unshare17ha4091652f9b609c4E>
   260fc:	487e      	ldr	r0, [pc, #504]	@ (262f8 <_start+0x5cf4>)
   260fe:	4468      	add	r0, sp
   26100:	7802      	ldrb	r2, [r0, #0]
   26102:	2a02      	cmp	r2, #2
   26104:	d003      	beq.n	2610e <_start+0x5b0a>
   26106:	2108      	movs	r1, #8
   26108:	4620      	mov	r0, r4
   2610a:	f001 ff1b 	bl	27f44 <_ZN9allow_pin12dynamic_type7unshare17ha4091652f9b609c4E>
   2610e:	9808      	ldr	r0, [sp, #32]
   26110:	2800      	cmp	r0, #0
   26112:	d001      	beq.n	26118 <_start+0x5b14>
   26114:	f7fc f81e 	bl	22154 <_start+0x1b50>
   26118:	4c76      	ldr	r4, [pc, #472]	@ (262f4 <_start+0x5cf0>)
   2611a:	446c      	add	r4, sp
   2611c:	1c60      	adds	r0, r4, #1
   2611e:	9008      	str	r0, [sp, #32]
   26120:	a9c9      	add	r1, sp, #804	@ 0x324
   26122:	2203      	movs	r2, #3
   26124:	920a      	str	r2, [sp, #40]	@ 0x28
   26126:	f002 f8da 	bl	282de <__aeabi_memcpy>
   2612a:	adff      	add	r5, sp, #1020	@ 0x3fc
   2612c:	35a4      	adds	r5, #164	@ 0xa4
   2612e:	a99f      	add	r1, sp, #636	@ 0x27c
   26130:	263a      	movs	r6, #58	@ 0x3a
   26132:	4628      	mov	r0, r5
   26134:	4632      	mov	r2, r6
   26136:	f002 f8d2 	bl	282de <__aeabi_memcpy>
   2613a:	4620      	mov	r0, r4
   2613c:	3008      	adds	r0, #8
   2613e:	4629      	mov	r1, r5
   26140:	4632      	mov	r2, r6
   26142:	f002 f8cc 	bl	282de <__aeabi_memcpy>
   26146:	9d0e      	ldr	r5, [sp, #56]	@ 0x38
   26148:	7025      	strb	r5, [r4, #0]
   2614a:	980c      	ldr	r0, [sp, #48]	@ 0x30
   2614c:	990f      	ldr	r1, [sp, #60]	@ 0x3c
   2614e:	6541      	str	r1, [r0, #84]	@ 0x54
   26150:	acff      	add	r4, sp, #1020	@ 0x3fc
   26152:	34a4      	adds	r4, #164	@ 0xa4
   26154:	1c66      	adds	r6, r4, #1
   26156:	2118      	movs	r1, #24
   26158:	4630      	mov	r0, r6
   2615a:	f001 ff00 	bl	27f5e <__aeabi_memclr>
   2615e:	7025      	strb	r5, [r4, #0]
   26160:	980d      	ldr	r0, [sp, #52]	@ 0x34
   26162:	9000      	str	r0, [sp, #0]
   26164:	2501      	movs	r5, #1
   26166:	2341      	movs	r3, #65	@ 0x41
   26168:	4864      	ldr	r0, [pc, #400]	@ (262fc <_start+0x5cf8>)
   2616a:	4629      	mov	r1, r5
   2616c:	9a08      	ldr	r2, [sp, #32]
   2616e:	f7fa f895 	bl	2029c <_ZN9allow_pin12dynamic_type11allow_inner17hf1099571477a6939E>
   26172:	910f      	str	r1, [sp, #60]	@ 0x3c
   26174:	07c0      	lsls	r0, r0, #31
   26176:	d11b      	bne.n	261b0 <_start+0x5bac>
   26178:	485e      	ldr	r0, [pc, #376]	@ (262f4 <_start+0x5cf0>)
   2617a:	4468      	add	r0, sp
   2617c:	990d      	ldr	r1, [sp, #52]	@ 0x34
   2617e:	7001      	strb	r1, [r0, #0]
   26180:	980a      	ldr	r0, [sp, #40]	@ 0x28
   26182:	9000      	str	r0, [sp, #0]
   26184:	2109      	movs	r1, #9
   26186:	2318      	movs	r3, #24
   26188:	485c      	ldr	r0, [pc, #368]	@ (262fc <_start+0x5cf8>)
   2618a:	4632      	mov	r2, r6
   2618c:	f7fa f886 	bl	2029c <_ZN9allow_pin12dynamic_type11allow_inner17hf1099571477a6939E>
   26190:	910f      	str	r1, [sp, #60]	@ 0x3c
   26192:	07c0      	lsls	r0, r0, #31
   26194:	d10c      	bne.n	261b0 <_start+0x5bac>
   26196:	a8ff      	add	r0, sp, #1020	@ 0x3fc
   26198:	30a4      	adds	r0, #164	@ 0xa4
   2619a:	990a      	ldr	r1, [sp, #40]	@ 0x28
   2619c:	7001      	strb	r1, [r0, #0]
   2619e:	4857      	ldr	r0, [pc, #348]	@ (262fc <_start+0x5cf8>)
   261a0:	2101      	movs	r1, #1
   261a2:	2209      	movs	r2, #9
   261a4:	2300      	movs	r3, #0
   261a6:	9308      	str	r3, [sp, #32]
   261a8:	df02      	svc	2
   261aa:	910f      	str	r1, [sp, #60]	@ 0x3c
   261ac:	287f      	cmp	r0, #127	@ 0x7f
   261ae:	d802      	bhi.n	261b6 <_start+0x5bb2>
   261b0:	980b      	ldr	r0, [sp, #44]	@ 0x2c
   261b2:	9008      	str	r0, [sp, #32]
   261b4:	e02d      	b.n	26212 <_start+0x5c0e>
   261b6:	484f      	ldr	r0, [pc, #316]	@ (262f4 <_start+0x5cf0>)
   261b8:	4468      	add	r0, sp
   261ba:	7802      	ldrb	r2, [r0, #0]
   261bc:	2a02      	cmp	r2, #2
   261be:	d00d      	beq.n	261dc <_start+0x5bd8>
   261c0:	2101      	movs	r1, #1
   261c2:	484e      	ldr	r0, [pc, #312]	@ (262fc <_start+0x5cf8>)
   261c4:	f001 febe 	bl	27f44 <_ZN9allow_pin12dynamic_type7unshare17ha4091652f9b609c4E>
   261c8:	484a      	ldr	r0, [pc, #296]	@ (262f4 <_start+0x5cf0>)
   261ca:	4468      	add	r0, sp
   261cc:	990e      	ldr	r1, [sp, #56]	@ 0x38
   261ce:	7001      	strb	r1, [r0, #0]
   261d0:	a8ff      	add	r0, sp, #1020	@ 0x3fc
   261d2:	30a4      	adds	r0, #164	@ 0xa4
   261d4:	7800      	ldrb	r0, [r0, #0]
   261d6:	900a      	str	r0, [sp, #40]	@ 0x28
   261d8:	2802      	cmp	r0, #2
   261da:	d004      	beq.n	261e6 <_start+0x5be2>
   261dc:	2109      	movs	r1, #9
   261de:	4847      	ldr	r0, [pc, #284]	@ (262fc <_start+0x5cf8>)
   261e0:	9a0a      	ldr	r2, [sp, #40]	@ 0x28
   261e2:	f001 feaf 	bl	27f44 <_ZN9allow_pin12dynamic_type7unshare17ha4091652f9b609c4E>
   261e6:	a8ff      	add	r0, sp, #1020	@ 0x3fc
   261e8:	30a4      	adds	r0, #164	@ 0xa4
   261ea:	990e      	ldr	r1, [sp, #56]	@ 0x38
   261ec:	7001      	strb	r1, [r0, #0]
   261ee:	78b1      	ldrb	r1, [r6, #2]
   261f0:	aac9      	add	r2, sp, #804	@ 0x324
   261f2:	7091      	strb	r1, [r2, #2]
   261f4:	7831      	ldrb	r1, [r6, #0]
   261f6:	7873      	ldrb	r3, [r6, #1]
   261f8:	021b      	lsls	r3, r3, #8
   261fa:	1859      	adds	r1, r3, r1
   261fc:	8011      	strh	r1, [r2, #0]
   261fe:	3008      	adds	r0, #8
   26200:	9909      	ldr	r1, [sp, #36]	@ 0x24
   26202:	6809      	ldr	r1, [r1, #0]
   26204:	910f      	str	r1, [sp, #60]	@ 0x3c
   26206:	493c      	ldr	r1, [pc, #240]	@ (262f8 <_start+0x5cf4>)
   26208:	4469      	add	r1, sp
   2620a:	c85c      	ldmia	r0!, {r2, r3, r4, r6}
   2620c:	c15c      	stmia	r1!, {r2, r3, r4, r6}
   2620e:	7800      	ldrb	r0, [r0, #0]
   26210:	7008      	strb	r0, [r1, #0]
   26212:	a8ff      	add	r0, sp, #1020	@ 0x3fc
   26214:	30a4      	adds	r0, #164	@ 0xa4
   26216:	7802      	ldrb	r2, [r0, #0]
   26218:	2a02      	cmp	r2, #2
   2621a:	d003      	beq.n	26224 <_start+0x5c20>
   2621c:	2109      	movs	r1, #9
   2621e:	4837      	ldr	r0, [pc, #220]	@ (262fc <_start+0x5cf8>)
   26220:	f001 fe90 	bl	27f44 <_ZN9allow_pin12dynamic_type7unshare17ha4091652f9b609c4E>
   26224:	4833      	ldr	r0, [pc, #204]	@ (262f4 <_start+0x5cf0>)
   26226:	4468      	add	r0, sp
   26228:	7802      	ldrb	r2, [r0, #0]
   2622a:	2a02      	cmp	r2, #2
   2622c:	d003      	beq.n	26236 <_start+0x5c32>
   2622e:	2101      	movs	r1, #1
   26230:	4832      	ldr	r0, [pc, #200]	@ (262fc <_start+0x5cf8>)
   26232:	f001 fe87 	bl	27f44 <_ZN9allow_pin12dynamic_type7unshare17ha4091652f9b609c4E>
   26236:	9808      	ldr	r0, [sp, #32]
   26238:	2800      	cmp	r0, #0
   2623a:	d001      	beq.n	26240 <_start+0x5c3c>
   2623c:	f7fb ff8a 	bl	22154 <_start+0x1b50>
   26240:	a8ff      	add	r0, sp, #1020	@ 0x3fc
   26242:	30a4      	adds	r0, #164	@ 0xa4
   26244:	9005      	str	r0, [sp, #20]
   26246:	1c40      	adds	r0, r0, #1
   26248:	9004      	str	r0, [sp, #16]
   2624a:	a9c9      	add	r1, sp, #804	@ 0x324
   2624c:	2203      	movs	r2, #3
   2624e:	920a      	str	r2, [sp, #40]	@ 0x28
   26250:	f002 f845 	bl	282de <__aeabi_memcpy>
   26254:	4828      	ldr	r0, [pc, #160]	@ (262f8 <_start+0x5cf4>)
   26256:	4468      	add	r0, sp
   26258:	9008      	str	r0, [sp, #32]
   2625a:	a89f      	add	r0, sp, #636	@ 0x27c
   2625c:	9003      	str	r0, [sp, #12]
   2625e:	9006      	str	r0, [sp, #24]
   26260:	9a08      	ldr	r2, [sp, #32]
   26262:	9906      	ldr	r1, [sp, #24]
   26264:	ca59      	ldmia	r2!, {r0, r3, r4, r6}
   26266:	c159      	stmia	r1!, {r0, r3, r4, r6}
   26268:	9106      	str	r1, [sp, #24]
   2626a:	9208      	str	r2, [sp, #32]
   2626c:	9808      	ldr	r0, [sp, #32]
   2626e:	7800      	ldrb	r0, [r0, #0]
   26270:	9906      	ldr	r1, [sp, #24]
   26272:	7008      	strb	r0, [r1, #0]
   26274:	9805      	ldr	r0, [sp, #20]
   26276:	3008      	adds	r0, #8
   26278:	9903      	ldr	r1, [sp, #12]
   2627a:	c95c      	ldmia	r1!, {r2, r3, r4, r6}
   2627c:	c05c      	stmia	r0!, {r2, r3, r4, r6}
   2627e:	7809      	ldrb	r1, [r1, #0]
   26280:	7001      	strb	r1, [r0, #0]
   26282:	9c0e      	ldr	r4, [sp, #56]	@ 0x38
   26284:	9805      	ldr	r0, [sp, #20]
   26286:	7004      	strb	r4, [r0, #0]
   26288:	9809      	ldr	r0, [sp, #36]	@ 0x24
   2628a:	990f      	ldr	r1, [sp, #60]	@ 0x3c
   2628c:	6001      	str	r1, [r0, #0]
   2628e:	4e19      	ldr	r6, [pc, #100]	@ (262f4 <_start+0x5cf0>)
   26290:	446e      	add	r6, sp
   26292:	1c70      	adds	r0, r6, #1
   26294:	211e      	movs	r1, #30
   26296:	9008      	str	r0, [sp, #32]
   26298:	f001 fe61 	bl	27f5e <__aeabi_memclr>
   2629c:	7034      	strb	r4, [r6, #0]
   2629e:	980d      	ldr	r0, [sp, #52]	@ 0x34
   262a0:	9000      	str	r0, [sp, #0]
   262a2:	4c17      	ldr	r4, [pc, #92]	@ (26300 <_start+0x5cfc>)
   262a4:	347d      	adds	r4, #125	@ 0x7d
   262a6:	2109      	movs	r1, #9
   262a8:	2318      	movs	r3, #24
   262aa:	4620      	mov	r0, r4
   262ac:	9a04      	ldr	r2, [sp, #16]
   262ae:	f7f9 fff5 	bl	2029c <_ZN9allow_pin12dynamic_type11allow_inner17hf1099571477a6939E>
   262b2:	910f      	str	r1, [sp, #60]	@ 0x3c
   262b4:	07c0      	lsls	r0, r0, #31
   262b6:	d11b      	bne.n	262f0 <_start+0x5cec>
   262b8:	a8ff      	add	r0, sp, #1020	@ 0x3fc
   262ba:	30a4      	adds	r0, #164	@ 0xa4
   262bc:	990d      	ldr	r1, [sp, #52]	@ 0x34
   262be:	7001      	strb	r1, [r0, #0]
   262c0:	980a      	ldr	r0, [sp, #40]	@ 0x28
   262c2:	9000      	str	r0, [sp, #0]
   262c4:	2105      	movs	r1, #5
   262c6:	231e      	movs	r3, #30
   262c8:	4620      	mov	r0, r4
   262ca:	9a08      	ldr	r2, [sp, #32]
   262cc:	f7f9 ffe6 	bl	2029c <_ZN9allow_pin12dynamic_type11allow_inner17hf1099571477a6939E>
   262d0:	910f      	str	r1, [sp, #60]	@ 0x3c
   262d2:	07c0      	lsls	r0, r0, #31
   262d4:	d10c      	bne.n	262f0 <_start+0x5cec>
   262d6:	4807      	ldr	r0, [pc, #28]	@ (262f4 <_start+0x5cf0>)
   262d8:	4468      	add	r0, sp
   262da:	990a      	ldr	r1, [sp, #40]	@ 0x28
   262dc:	7001      	strb	r1, [r0, #0]
   262de:	4809      	ldr	r0, [pc, #36]	@ (26304 <_start+0x5d00>)
   262e0:	2109      	movs	r1, #9
   262e2:	2205      	movs	r2, #5
   262e4:	2600      	movs	r6, #0
   262e6:	4633      	mov	r3, r6
   262e8:	df02      	svc	2
   262ea:	910f      	str	r1, [sp, #60]	@ 0x3c
   262ec:	287f      	cmp	r0, #127	@ 0x7f
   262ee:	d80b      	bhi.n	26308 <_start+0x5d04>
   262f0:	9e0b      	ldr	r6, [sp, #44]	@ 0x2c
   262f2:	e037      	b.n	26364 <_start+0x5d60>
   262f4:	000005a8 	.word	0x000005a8
   262f8:	00000558 	.word	0x00000558
   262fc:	00002156 	.word	0x00002156
   26300:	00000c3e 	.word	0x00000c3e
   26304:	00000cbb 	.word	0x00000cbb
   26308:	a8ff      	add	r0, sp, #1020	@ 0x3fc
   2630a:	30a4      	adds	r0, #164	@ 0xa4
   2630c:	7802      	ldrb	r2, [r0, #0]
   2630e:	2a02      	cmp	r2, #2
   26310:	d00d      	beq.n	2632e <_start+0x5d2a>
   26312:	2109      	movs	r1, #9
   26314:	4620      	mov	r0, r4
   26316:	f001 fe15 	bl	27f44 <_ZN9allow_pin12dynamic_type7unshare17ha4091652f9b609c4E>
   2631a:	a8ff      	add	r0, sp, #1020	@ 0x3fc
   2631c:	30a4      	adds	r0, #164	@ 0xa4
   2631e:	990e      	ldr	r1, [sp, #56]	@ 0x38
   26320:	7001      	strb	r1, [r0, #0]
   26322:	48d1      	ldr	r0, [pc, #836]	@ (26668 <_start+0x6064>)
   26324:	4468      	add	r0, sp
   26326:	7800      	ldrb	r0, [r0, #0]
   26328:	900a      	str	r0, [sp, #40]	@ 0x28
   2632a:	2802      	cmp	r0, #2
   2632c:	d004      	beq.n	26338 <_start+0x5d34>
   2632e:	2105      	movs	r1, #5
   26330:	4620      	mov	r0, r4
   26332:	9a0a      	ldr	r2, [sp, #40]	@ 0x28
   26334:	f001 fe06 	bl	27f44 <_ZN9allow_pin12dynamic_type7unshare17ha4091652f9b609c4E>
   26338:	49cb      	ldr	r1, [pc, #812]	@ (26668 <_start+0x6064>)
   2633a:	4469      	add	r1, sp
   2633c:	980e      	ldr	r0, [sp, #56]	@ 0x38
   2633e:	7008      	strb	r0, [r1, #0]
   26340:	9b08      	ldr	r3, [sp, #32]
   26342:	7898      	ldrb	r0, [r3, #2]
   26344:	aaff      	add	r2, sp, #1020	@ 0x3fc
   26346:	328c      	adds	r2, #140	@ 0x8c
   26348:	7090      	strb	r0, [r2, #2]
   2634a:	7818      	ldrb	r0, [r3, #0]
   2634c:	785b      	ldrb	r3, [r3, #1]
   2634e:	021b      	lsls	r3, r3, #8
   26350:	1818      	adds	r0, r3, r0
   26352:	8010      	strh	r0, [r2, #0]
   26354:	980c      	ldr	r0, [sp, #48]	@ 0x30
   26356:	6d40      	ldr	r0, [r0, #84]	@ 0x54
   26358:	900f      	str	r0, [sp, #60]	@ 0x3c
   2635a:	3108      	adds	r1, #8
   2635c:	a8c9      	add	r0, sp, #804	@ 0x324
   2635e:	2217      	movs	r2, #23
   26360:	f001 ffbd 	bl	282de <__aeabi_memcpy>
   26364:	48c0      	ldr	r0, [pc, #768]	@ (26668 <_start+0x6064>)
   26366:	4468      	add	r0, sp
   26368:	7802      	ldrb	r2, [r0, #0]
   2636a:	2a02      	cmp	r2, #2
   2636c:	d003      	beq.n	26376 <_start+0x5d72>
   2636e:	2105      	movs	r1, #5
   26370:	4620      	mov	r0, r4
   26372:	f001 fde7 	bl	27f44 <_ZN9allow_pin12dynamic_type7unshare17ha4091652f9b609c4E>
   26376:	a8ff      	add	r0, sp, #1020	@ 0x3fc
   26378:	30a4      	adds	r0, #164	@ 0xa4
   2637a:	7802      	ldrb	r2, [r0, #0]
   2637c:	2a02      	cmp	r2, #2
   2637e:	d003      	beq.n	26388 <_start+0x5d84>
   26380:	2109      	movs	r1, #9
   26382:	4620      	mov	r0, r4
   26384:	f001 fdde 	bl	27f44 <_ZN9allow_pin12dynamic_type7unshare17ha4091652f9b609c4E>
   26388:	2e00      	cmp	r6, #0
   2638a:	d001      	beq.n	26390 <_start+0x5d8c>
   2638c:	f7fb fee2 	bl	22154 <_start+0x1b50>
   26390:	4cb6      	ldr	r4, [pc, #728]	@ (2666c <_start+0x6068>)
   26392:	446c      	add	r4, sp
   26394:	1c60      	adds	r0, r4, #1
   26396:	9006      	str	r0, [sp, #24]
   26398:	a9ff      	add	r1, sp, #1020	@ 0x3fc
   2639a:	318c      	adds	r1, #140	@ 0x8c
   2639c:	2203      	movs	r2, #3
   2639e:	920a      	str	r2, [sp, #40]	@ 0x28
   263a0:	f001 ff9d 	bl	282de <__aeabi_memcpy>
   263a4:	a89f      	add	r0, sp, #636	@ 0x27c
   263a6:	9008      	str	r0, [sp, #32]
   263a8:	a9c9      	add	r1, sp, #804	@ 0x324
   263aa:	2617      	movs	r6, #23
   263ac:	4632      	mov	r2, r6
   263ae:	f001 ff96 	bl	282de <__aeabi_memcpy>
   263b2:	4620      	mov	r0, r4
   263b4:	3008      	adds	r0, #8
   263b6:	9908      	ldr	r1, [sp, #32]
   263b8:	4632      	mov	r2, r6
   263ba:	f001 ff90 	bl	282de <__aeabi_memcpy>
   263be:	9e0e      	ldr	r6, [sp, #56]	@ 0x38
   263c0:	7026      	strb	r6, [r4, #0]
   263c2:	980c      	ldr	r0, [sp, #48]	@ 0x30
   263c4:	990f      	ldr	r1, [sp, #60]	@ 0x3c
   263c6:	6041      	str	r1, [r0, #4]
   263c8:	4ca7      	ldr	r4, [pc, #668]	@ (26668 <_start+0x6064>)
   263ca:	446c      	add	r4, sp
   263cc:	1c60      	adds	r0, r4, #1
   263ce:	213c      	movs	r1, #60	@ 0x3c
   263d0:	9008      	str	r0, [sp, #32]
   263d2:	f001 fdc4 	bl	27f5e <__aeabi_memclr>
   263d6:	7026      	strb	r6, [r4, #0]
   263d8:	980d      	ldr	r0, [sp, #52]	@ 0x34
   263da:	9000      	str	r0, [sp, #0]
   263dc:	231e      	movs	r3, #30
   263de:	48a4      	ldr	r0, [pc, #656]	@ (26670 <_start+0x606c>)
   263e0:	4631      	mov	r1, r6
   263e2:	9a06      	ldr	r2, [sp, #24]
   263e4:	f7f9 ff5a 	bl	2029c <_ZN9allow_pin12dynamic_type11allow_inner17hf1099571477a6939E>
   263e8:	910f      	str	r1, [sp, #60]	@ 0x3c
   263ea:	07c0      	lsls	r0, r0, #31
   263ec:	d11a      	bne.n	26424 <_start+0x5e20>
   263ee:	489f      	ldr	r0, [pc, #636]	@ (2666c <_start+0x6068>)
   263f0:	4468      	add	r0, sp
   263f2:	990d      	ldr	r1, [sp, #52]	@ 0x34
   263f4:	7001      	strb	r1, [r0, #0]
   263f6:	990a      	ldr	r1, [sp, #40]	@ 0x28
   263f8:	9100      	str	r1, [sp, #0]
   263fa:	233c      	movs	r3, #60	@ 0x3c
   263fc:	489c      	ldr	r0, [pc, #624]	@ (26670 <_start+0x606c>)
   263fe:	9a08      	ldr	r2, [sp, #32]
   26400:	f7f9 ff4c 	bl	2029c <_ZN9allow_pin12dynamic_type11allow_inner17hf1099571477a6939E>
   26404:	910f      	str	r1, [sp, #60]	@ 0x3c
   26406:	07c0      	lsls	r0, r0, #31
   26408:	d10c      	bne.n	26424 <_start+0x5e20>
   2640a:	4897      	ldr	r0, [pc, #604]	@ (26668 <_start+0x6064>)
   2640c:	4468      	add	r0, sp
   2640e:	9a0a      	ldr	r2, [sp, #40]	@ 0x28
   26410:	7002      	strb	r2, [r0, #0]
   26412:	4897      	ldr	r0, [pc, #604]	@ (26670 <_start+0x606c>)
   26414:	2402      	movs	r4, #2
   26416:	2600      	movs	r6, #0
   26418:	4621      	mov	r1, r4
   2641a:	4633      	mov	r3, r6
   2641c:	df02      	svc	2
   2641e:	910f      	str	r1, [sp, #60]	@ 0x3c
   26420:	287f      	cmp	r0, #127	@ 0x7f
   26422:	d801      	bhi.n	26428 <_start+0x5e24>
   26424:	9e0b      	ldr	r6, [sp, #44]	@ 0x2c
   26426:	e02a      	b.n	2647e <_start+0x5e7a>
   26428:	4890      	ldr	r0, [pc, #576]	@ (2666c <_start+0x6068>)
   2642a:	4468      	add	r0, sp
   2642c:	7802      	ldrb	r2, [r0, #0]
   2642e:	2a02      	cmp	r2, #2
   26430:	d00c      	beq.n	2644c <_start+0x5e48>
   26432:	488f      	ldr	r0, [pc, #572]	@ (26670 <_start+0x606c>)
   26434:	4621      	mov	r1, r4
   26436:	f001 fd85 	bl	27f44 <_ZN9allow_pin12dynamic_type7unshare17ha4091652f9b609c4E>
   2643a:	488c      	ldr	r0, [pc, #560]	@ (2666c <_start+0x6068>)
   2643c:	4468      	add	r0, sp
   2643e:	7004      	strb	r4, [r0, #0]
   26440:	4889      	ldr	r0, [pc, #548]	@ (26668 <_start+0x6064>)
   26442:	4468      	add	r0, sp
   26444:	7800      	ldrb	r0, [r0, #0]
   26446:	900a      	str	r0, [sp, #40]	@ 0x28
   26448:	2802      	cmp	r0, #2
   2644a:	d004      	beq.n	26456 <_start+0x5e52>
   2644c:	2103      	movs	r1, #3
   2644e:	4888      	ldr	r0, [pc, #544]	@ (26670 <_start+0x606c>)
   26450:	9a0a      	ldr	r2, [sp, #40]	@ 0x28
   26452:	f001 fd77 	bl	27f44 <_ZN9allow_pin12dynamic_type7unshare17ha4091652f9b609c4E>
   26456:	4984      	ldr	r1, [pc, #528]	@ (26668 <_start+0x6064>)
   26458:	4469      	add	r1, sp
   2645a:	700c      	strb	r4, [r1, #0]
   2645c:	9b08      	ldr	r3, [sp, #32]
   2645e:	7898      	ldrb	r0, [r3, #2]
   26460:	aac9      	add	r2, sp, #804	@ 0x324
   26462:	7090      	strb	r0, [r2, #2]
   26464:	7818      	ldrb	r0, [r3, #0]
   26466:	785b      	ldrb	r3, [r3, #1]
   26468:	021b      	lsls	r3, r3, #8
   2646a:	1818      	adds	r0, r3, r0
   2646c:	8010      	strh	r0, [r2, #0]
   2646e:	980c      	ldr	r0, [sp, #48]	@ 0x30
   26470:	6d40      	ldr	r0, [r0, #84]	@ 0x54
   26472:	900f      	str	r0, [sp, #60]	@ 0x3c
   26474:	3108      	adds	r1, #8
   26476:	a89f      	add	r0, sp, #636	@ 0x27c
   26478:	2235      	movs	r2, #53	@ 0x35
   2647a:	f001 ff30 	bl	282de <__aeabi_memcpy>
   2647e:	487a      	ldr	r0, [pc, #488]	@ (26668 <_start+0x6064>)
   26480:	4468      	add	r0, sp
   26482:	7802      	ldrb	r2, [r0, #0]
   26484:	2a02      	cmp	r2, #2
   26486:	d003      	beq.n	26490 <_start+0x5e8c>
   26488:	2103      	movs	r1, #3
   2648a:	4879      	ldr	r0, [pc, #484]	@ (26670 <_start+0x606c>)
   2648c:	f001 fd5a 	bl	27f44 <_ZN9allow_pin12dynamic_type7unshare17ha4091652f9b609c4E>
   26490:	4876      	ldr	r0, [pc, #472]	@ (2666c <_start+0x6068>)
   26492:	4468      	add	r0, sp
   26494:	7802      	ldrb	r2, [r0, #0]
   26496:	2a02      	cmp	r2, #2
   26498:	d003      	beq.n	264a2 <_start+0x5e9e>
   2649a:	2102      	movs	r1, #2
   2649c:	4874      	ldr	r0, [pc, #464]	@ (26670 <_start+0x606c>)
   2649e:	f001 fd51 	bl	27f44 <_ZN9allow_pin12dynamic_type7unshare17ha4091652f9b609c4E>
   264a2:	2e00      	cmp	r6, #0
   264a4:	d001      	beq.n	264aa <_start+0x5ea6>
   264a6:	f7fb fe55 	bl	22154 <_start+0x1b50>
   264aa:	4c6f      	ldr	r4, [pc, #444]	@ (26668 <_start+0x6064>)
   264ac:	446c      	add	r4, sp
   264ae:	1c60      	adds	r0, r4, #1
   264b0:	9006      	str	r0, [sp, #24]
   264b2:	a9c9      	add	r1, sp, #804	@ 0x324
   264b4:	2203      	movs	r2, #3
   264b6:	920a      	str	r2, [sp, #40]	@ 0x28
   264b8:	f001 ff11 	bl	282de <__aeabi_memcpy>
   264bc:	a8ff      	add	r0, sp, #1020	@ 0x3fc
   264be:	30a4      	adds	r0, #164	@ 0xa4
   264c0:	9008      	str	r0, [sp, #32]
   264c2:	a99f      	add	r1, sp, #636	@ 0x27c
   264c4:	2635      	movs	r6, #53	@ 0x35
   264c6:	4632      	mov	r2, r6
   264c8:	f001 ff09 	bl	282de <__aeabi_memcpy>
   264cc:	4620      	mov	r0, r4
   264ce:	3008      	adds	r0, #8
   264d0:	9908      	ldr	r1, [sp, #32]
   264d2:	4632      	mov	r2, r6
   264d4:	f001 ff03 	bl	282de <__aeabi_memcpy>
   264d8:	9e0e      	ldr	r6, [sp, #56]	@ 0x38
   264da:	7026      	strb	r6, [r4, #0]
   264dc:	980c      	ldr	r0, [sp, #48]	@ 0x30
   264de:	990f      	ldr	r1, [sp, #60]	@ 0x3c
   264e0:	6541      	str	r1, [r0, #84]	@ 0x54
   264e2:	acff      	add	r4, sp, #1020	@ 0x3fc
   264e4:	34a4      	adds	r4, #164	@ 0xa4
   264e6:	1c60      	adds	r0, r4, #1
   264e8:	212c      	movs	r1, #44	@ 0x2c
   264ea:	9008      	str	r0, [sp, #32]
   264ec:	f001 fd37 	bl	27f5e <__aeabi_memclr>
   264f0:	7026      	strb	r6, [r4, #0]
   264f2:	980d      	ldr	r0, [sp, #52]	@ 0x34
   264f4:	9000      	str	r0, [sp, #0]
   264f6:	4c5f      	ldr	r4, [pc, #380]	@ (26674 <_start+0x6070>)
   264f8:	3461      	adds	r4, #97	@ 0x61
   264fa:	2105      	movs	r1, #5
   264fc:	233c      	movs	r3, #60	@ 0x3c
   264fe:	4620      	mov	r0, r4
   26500:	9a06      	ldr	r2, [sp, #24]
   26502:	f7f9 fecb 	bl	2029c <_ZN9allow_pin12dynamic_type11allow_inner17hf1099571477a6939E>
   26506:	910f      	str	r1, [sp, #60]	@ 0x3c
   26508:	07c0      	lsls	r0, r0, #31
   2650a:	d11b      	bne.n	26544 <_start+0x5f40>
   2650c:	4856      	ldr	r0, [pc, #344]	@ (26668 <_start+0x6064>)
   2650e:	4468      	add	r0, sp
   26510:	990d      	ldr	r1, [sp, #52]	@ 0x34
   26512:	7001      	strb	r1, [r0, #0]
   26514:	980a      	ldr	r0, [sp, #40]	@ 0x28
   26516:	9000      	str	r0, [sp, #0]
   26518:	2107      	movs	r1, #7
   2651a:	232c      	movs	r3, #44	@ 0x2c
   2651c:	4620      	mov	r0, r4
   2651e:	9a08      	ldr	r2, [sp, #32]
   26520:	f7f9 febc 	bl	2029c <_ZN9allow_pin12dynamic_type11allow_inner17hf1099571477a6939E>
   26524:	910f      	str	r1, [sp, #60]	@ 0x3c
   26526:	07c0      	lsls	r0, r0, #31
   26528:	d10c      	bne.n	26544 <_start+0x5f40>
   2652a:	a8ff      	add	r0, sp, #1020	@ 0x3fc
   2652c:	30a4      	adds	r0, #164	@ 0xa4
   2652e:	990a      	ldr	r1, [sp, #40]	@ 0x28
   26530:	7001      	strb	r1, [r0, #0]
   26532:	4851      	ldr	r0, [pc, #324]	@ (26678 <_start+0x6074>)
   26534:	2105      	movs	r1, #5
   26536:	2207      	movs	r2, #7
   26538:	2600      	movs	r6, #0
   2653a:	4633      	mov	r3, r6
   2653c:	df02      	svc	2
   2653e:	910f      	str	r1, [sp, #60]	@ 0x3c
   26540:	287f      	cmp	r0, #127	@ 0x7f
   26542:	d801      	bhi.n	26548 <_start+0x5f44>
   26544:	9e0b      	ldr	r6, [sp, #44]	@ 0x2c
   26546:	e02d      	b.n	265a4 <_start+0x5fa0>
   26548:	4847      	ldr	r0, [pc, #284]	@ (26668 <_start+0x6064>)
   2654a:	4468      	add	r0, sp
   2654c:	7802      	ldrb	r2, [r0, #0]
   2654e:	2a02      	cmp	r2, #2
   26550:	d00d      	beq.n	2656e <_start+0x5f6a>
   26552:	2105      	movs	r1, #5
   26554:	4620      	mov	r0, r4
   26556:	f001 fcf5 	bl	27f44 <_ZN9allow_pin12dynamic_type7unshare17ha4091652f9b609c4E>
   2655a:	4843      	ldr	r0, [pc, #268]	@ (26668 <_start+0x6064>)
   2655c:	4468      	add	r0, sp
   2655e:	990e      	ldr	r1, [sp, #56]	@ 0x38
   26560:	7001      	strb	r1, [r0, #0]
   26562:	a8ff      	add	r0, sp, #1020	@ 0x3fc
   26564:	30a4      	adds	r0, #164	@ 0xa4
   26566:	7800      	ldrb	r0, [r0, #0]
   26568:	900a      	str	r0, [sp, #40]	@ 0x28
   2656a:	2802      	cmp	r0, #2
   2656c:	d004      	beq.n	26578 <_start+0x5f74>
   2656e:	2107      	movs	r1, #7
   26570:	4620      	mov	r0, r4
   26572:	9a0a      	ldr	r2, [sp, #40]	@ 0x28
   26574:	f001 fce6 	bl	27f44 <_ZN9allow_pin12dynamic_type7unshare17ha4091652f9b609c4E>
   26578:	a9ff      	add	r1, sp, #1020	@ 0x3fc
   2657a:	31a4      	adds	r1, #164	@ 0xa4
   2657c:	980e      	ldr	r0, [sp, #56]	@ 0x38
   2657e:	7008      	strb	r0, [r1, #0]
   26580:	9b08      	ldr	r3, [sp, #32]
   26582:	7898      	ldrb	r0, [r3, #2]
   26584:	aac9      	add	r2, sp, #804	@ 0x324
   26586:	7090      	strb	r0, [r2, #2]
   26588:	7818      	ldrb	r0, [r3, #0]
   2658a:	785b      	ldrb	r3, [r3, #1]
   2658c:	021b      	lsls	r3, r3, #8
   2658e:	1818      	adds	r0, r3, r0
   26590:	8010      	strh	r0, [r2, #0]
   26592:	9809      	ldr	r0, [sp, #36]	@ 0x24
   26594:	6800      	ldr	r0, [r0, #0]
   26596:	900f      	str	r0, [sp, #60]	@ 0x3c
   26598:	3108      	adds	r1, #8
   2659a:	4834      	ldr	r0, [pc, #208]	@ (2666c <_start+0x6068>)
   2659c:	4468      	add	r0, sp
   2659e:	2225      	movs	r2, #37	@ 0x25
   265a0:	f001 fe9d 	bl	282de <__aeabi_memcpy>
   265a4:	a8ff      	add	r0, sp, #1020	@ 0x3fc
   265a6:	30a4      	adds	r0, #164	@ 0xa4
   265a8:	7802      	ldrb	r2, [r0, #0]
   265aa:	2a02      	cmp	r2, #2
   265ac:	d003      	beq.n	265b6 <_start+0x5fb2>
   265ae:	2107      	movs	r1, #7
   265b0:	4620      	mov	r0, r4
   265b2:	f001 fcc7 	bl	27f44 <_ZN9allow_pin12dynamic_type7unshare17ha4091652f9b609c4E>
   265b6:	482c      	ldr	r0, [pc, #176]	@ (26668 <_start+0x6064>)
   265b8:	4468      	add	r0, sp
   265ba:	7802      	ldrb	r2, [r0, #0]
   265bc:	2a02      	cmp	r2, #2
   265be:	d003      	beq.n	265c8 <_start+0x5fc4>
   265c0:	2105      	movs	r1, #5
   265c2:	4620      	mov	r0, r4
   265c4:	f001 fcbe 	bl	27f44 <_ZN9allow_pin12dynamic_type7unshare17ha4091652f9b609c4E>
   265c8:	2e00      	cmp	r6, #0
   265ca:	d001      	beq.n	265d0 <_start+0x5fcc>
   265cc:	f7fb fdc2 	bl	22154 <_start+0x1b50>
   265d0:	4e25      	ldr	r6, [pc, #148]	@ (26668 <_start+0x6064>)
   265d2:	446e      	add	r6, sp
   265d4:	1c70      	adds	r0, r6, #1
   265d6:	9006      	str	r0, [sp, #24]
   265d8:	a9c9      	add	r1, sp, #804	@ 0x324
   265da:	2203      	movs	r2, #3
   265dc:	920a      	str	r2, [sp, #40]	@ 0x28
   265de:	f001 fe7e 	bl	282de <__aeabi_memcpy>
   265e2:	a89f      	add	r0, sp, #636	@ 0x27c
   265e4:	9008      	str	r0, [sp, #32]
   265e6:	4921      	ldr	r1, [pc, #132]	@ (2666c <_start+0x6068>)
   265e8:	4469      	add	r1, sp
   265ea:	2425      	movs	r4, #37	@ 0x25
   265ec:	4622      	mov	r2, r4
   265ee:	f001 fe76 	bl	282de <__aeabi_memcpy>
   265f2:	4630      	mov	r0, r6
   265f4:	3008      	adds	r0, #8
   265f6:	9908      	ldr	r1, [sp, #32]
   265f8:	4622      	mov	r2, r4
   265fa:	f001 fe70 	bl	282de <__aeabi_memcpy>
   265fe:	9c0e      	ldr	r4, [sp, #56]	@ 0x38
   26600:	7034      	strb	r4, [r6, #0]
   26602:	980c      	ldr	r0, [sp, #48]	@ 0x30
   26604:	990f      	ldr	r1, [sp, #60]	@ 0x3c
   26606:	6541      	str	r1, [r0, #84]	@ 0x54
   26608:	aeff      	add	r6, sp, #1020	@ 0x3fc
   2660a:	36a4      	adds	r6, #164	@ 0xa4
   2660c:	1c70      	adds	r0, r6, #1
   2660e:	2127      	movs	r1, #39	@ 0x27
   26610:	9008      	str	r0, [sp, #32]
   26612:	f001 fca4 	bl	27f5e <__aeabi_memclr>
   26616:	7034      	strb	r4, [r6, #0]
   26618:	990d      	ldr	r1, [sp, #52]	@ 0x34
   2661a:	9100      	str	r1, [sp, #0]
   2661c:	4817      	ldr	r0, [pc, #92]	@ (2667c <_start+0x6078>)
   2661e:	3098      	adds	r0, #152	@ 0x98
   26620:	232c      	movs	r3, #44	@ 0x2c
   26622:	4604      	mov	r4, r0
   26624:	9a06      	ldr	r2, [sp, #24]
   26626:	f7f9 fe39 	bl	2029c <_ZN9allow_pin12dynamic_type11allow_inner17hf1099571477a6939E>
   2662a:	910f      	str	r1, [sp, #60]	@ 0x3c
   2662c:	07c0      	lsls	r0, r0, #31
   2662e:	d119      	bne.n	26664 <_start+0x6060>
   26630:	480d      	ldr	r0, [pc, #52]	@ (26668 <_start+0x6064>)
   26632:	4468      	add	r0, sp
   26634:	990d      	ldr	r1, [sp, #52]	@ 0x34
   26636:	7001      	strb	r1, [r0, #0]
   26638:	990a      	ldr	r1, [sp, #40]	@ 0x28
   2663a:	9100      	str	r1, [sp, #0]
   2663c:	2327      	movs	r3, #39	@ 0x27
   2663e:	4620      	mov	r0, r4
   26640:	9a08      	ldr	r2, [sp, #32]
   26642:	f7f9 fe2b 	bl	2029c <_ZN9allow_pin12dynamic_type11allow_inner17hf1099571477a6939E>
   26646:	910f      	str	r1, [sp, #60]	@ 0x3c
   26648:	07c0      	lsls	r0, r0, #31
   2664a:	d10b      	bne.n	26664 <_start+0x6060>
   2664c:	a8ff      	add	r0, sp, #1020	@ 0x3fc
   2664e:	30a4      	adds	r0, #164	@ 0xa4
   26650:	9a0a      	ldr	r2, [sp, #40]	@ 0x28
   26652:	7002      	strb	r2, [r0, #0]
   26654:	480a      	ldr	r0, [pc, #40]	@ (26680 <_start+0x607c>)
   26656:	2104      	movs	r1, #4
   26658:	2600      	movs	r6, #0
   2665a:	4633      	mov	r3, r6
   2665c:	df02      	svc	2
   2665e:	910f      	str	r1, [sp, #60]	@ 0x3c
   26660:	287f      	cmp	r0, #127	@ 0x7f
   26662:	d80f      	bhi.n	26684 <_start+0x6080>
   26664:	9e0b      	ldr	r6, [sp, #44]	@ 0x2c
   26666:	e03b      	b.n	266e0 <_start+0x60dc>
   26668:	000005a8 	.word	0x000005a8
   2666c:	00000558 	.word	0x00000558
   26670:	00000b3c 	.word	0x00000b3c
   26674:	00001e4b 	.word	0x00001e4b
   26678:	00001eac 	.word	0x00001eac
   2667c:	0000111d 	.word	0x0000111d
   26680:	000011b5 	.word	0x000011b5
   26684:	48d9      	ldr	r0, [pc, #868]	@ (269ec <_start+0x63e8>)
   26686:	4468      	add	r0, sp
   26688:	7802      	ldrb	r2, [r0, #0]
   2668a:	2a02      	cmp	r2, #2
   2668c:	d00d      	beq.n	266aa <_start+0x60a6>
   2668e:	2104      	movs	r1, #4
   26690:	4620      	mov	r0, r4
   26692:	f001 fc57 	bl	27f44 <_ZN9allow_pin12dynamic_type7unshare17ha4091652f9b609c4E>
   26696:	48d5      	ldr	r0, [pc, #852]	@ (269ec <_start+0x63e8>)
   26698:	4468      	add	r0, sp
   2669a:	990e      	ldr	r1, [sp, #56]	@ 0x38
   2669c:	7001      	strb	r1, [r0, #0]
   2669e:	a8ff      	add	r0, sp, #1020	@ 0x3fc
   266a0:	30a4      	adds	r0, #164	@ 0xa4
   266a2:	7800      	ldrb	r0, [r0, #0]
   266a4:	900a      	str	r0, [sp, #40]	@ 0x28
   266a6:	2802      	cmp	r0, #2
   266a8:	d004      	beq.n	266b4 <_start+0x60b0>
   266aa:	2103      	movs	r1, #3
   266ac:	4620      	mov	r0, r4
   266ae:	9a0a      	ldr	r2, [sp, #40]	@ 0x28
   266b0:	f001 fc48 	bl	27f44 <_ZN9allow_pin12dynamic_type7unshare17ha4091652f9b609c4E>
   266b4:	a9ff      	add	r1, sp, #1020	@ 0x3fc
   266b6:	31a4      	adds	r1, #164	@ 0xa4
   266b8:	980e      	ldr	r0, [sp, #56]	@ 0x38
   266ba:	7008      	strb	r0, [r1, #0]
   266bc:	9b08      	ldr	r3, [sp, #32]
   266be:	7898      	ldrb	r0, [r3, #2]
   266c0:	aac9      	add	r2, sp, #804	@ 0x324
   266c2:	7090      	strb	r0, [r2, #2]
   266c4:	7818      	ldrb	r0, [r3, #0]
   266c6:	785b      	ldrb	r3, [r3, #1]
   266c8:	021b      	lsls	r3, r3, #8
   266ca:	1818      	adds	r0, r3, r0
   266cc:	8010      	strh	r0, [r2, #0]
   266ce:	9809      	ldr	r0, [sp, #36]	@ 0x24
   266d0:	6800      	ldr	r0, [r0, #0]
   266d2:	900f      	str	r0, [sp, #60]	@ 0x3c
   266d4:	3108      	adds	r1, #8
   266d6:	48c6      	ldr	r0, [pc, #792]	@ (269f0 <_start+0x63ec>)
   266d8:	4468      	add	r0, sp
   266da:	2220      	movs	r2, #32
   266dc:	f001 fdff 	bl	282de <__aeabi_memcpy>
   266e0:	a8ff      	add	r0, sp, #1020	@ 0x3fc
   266e2:	30a4      	adds	r0, #164	@ 0xa4
   266e4:	7802      	ldrb	r2, [r0, #0]
   266e6:	2a02      	cmp	r2, #2
   266e8:	d003      	beq.n	266f2 <_start+0x60ee>
   266ea:	2103      	movs	r1, #3
   266ec:	4620      	mov	r0, r4
   266ee:	f001 fc29 	bl	27f44 <_ZN9allow_pin12dynamic_type7unshare17ha4091652f9b609c4E>
   266f2:	48be      	ldr	r0, [pc, #760]	@ (269ec <_start+0x63e8>)
   266f4:	4468      	add	r0, sp
   266f6:	7802      	ldrb	r2, [r0, #0]
   266f8:	2a02      	cmp	r2, #2
   266fa:	d003      	beq.n	26704 <_start+0x6100>
   266fc:	2104      	movs	r1, #4
   266fe:	4620      	mov	r0, r4
   26700:	f001 fc20 	bl	27f44 <_ZN9allow_pin12dynamic_type7unshare17ha4091652f9b609c4E>
   26704:	2e00      	cmp	r6, #0
   26706:	d001      	beq.n	2670c <_start+0x6108>
   26708:	f7fb fd24 	bl	22154 <_start+0x1b50>
   2670c:	ac9f      	add	r4, sp, #636	@ 0x27c
   2670e:	1c60      	adds	r0, r4, #1
   26710:	9006      	str	r0, [sp, #24]
   26712:	a9c9      	add	r1, sp, #804	@ 0x324
   26714:	2203      	movs	r2, #3
   26716:	920a      	str	r2, [sp, #40]	@ 0x28
   26718:	f001 fde1 	bl	282de <__aeabi_memcpy>
   2671c:	a8db      	add	r0, sp, #876	@ 0x36c
   2671e:	9008      	str	r0, [sp, #32]
   26720:	49b3      	ldr	r1, [pc, #716]	@ (269f0 <_start+0x63ec>)
   26722:	4469      	add	r1, sp
   26724:	2620      	movs	r6, #32
   26726:	4632      	mov	r2, r6
   26728:	f001 fdd9 	bl	282de <__aeabi_memcpy>
   2672c:	980e      	ldr	r0, [sp, #56]	@ 0x38
   2672e:	7020      	strb	r0, [r4, #0]
   26730:	980f      	ldr	r0, [sp, #60]	@ 0x3c
   26732:	90a0      	str	r0, [sp, #640]	@ 0x280
   26734:	3408      	adds	r4, #8
   26736:	4620      	mov	r0, r4
   26738:	9908      	ldr	r1, [sp, #32]
   2673a:	4632      	mov	r2, r6
   2673c:	f001 fdcf 	bl	282de <__aeabi_memcpy>
   26740:	4caa      	ldr	r4, [pc, #680]	@ (269ec <_start+0x63e8>)
   26742:	446c      	add	r4, sp
   26744:	1c60      	adds	r0, r4, #1
   26746:	214f      	movs	r1, #79	@ 0x4f
   26748:	9008      	str	r0, [sp, #32]
   2674a:	f001 fc08 	bl	27f5e <__aeabi_memclr>
   2674e:	980e      	ldr	r0, [sp, #56]	@ 0x38
   26750:	7020      	strb	r0, [r4, #0]
   26752:	980d      	ldr	r0, [sp, #52]	@ 0x34
   26754:	9000      	str	r0, [sp, #0]
   26756:	48a7      	ldr	r0, [pc, #668]	@ (269f4 <_start+0x63f0>)
   26758:	3010      	adds	r0, #16
   2675a:	2109      	movs	r1, #9
   2675c:	2327      	movs	r3, #39	@ 0x27
   2675e:	4606      	mov	r6, r0
   26760:	9a06      	ldr	r2, [sp, #24]
   26762:	f7f9 fd9b 	bl	2029c <_ZN9allow_pin12dynamic_type11allow_inner17hf1099571477a6939E>
   26766:	910f      	str	r1, [sp, #60]	@ 0x3c
   26768:	07c0      	lsls	r0, r0, #31
   2676a:	d11a      	bne.n	267a2 <_start+0x619e>
   2676c:	a89f      	add	r0, sp, #636	@ 0x27c
   2676e:	990d      	ldr	r1, [sp, #52]	@ 0x34
   26770:	7001      	strb	r1, [r0, #0]
   26772:	980a      	ldr	r0, [sp, #40]	@ 0x28
   26774:	9000      	str	r0, [sp, #0]
   26776:	2100      	movs	r1, #0
   26778:	234f      	movs	r3, #79	@ 0x4f
   2677a:	4630      	mov	r0, r6
   2677c:	9a08      	ldr	r2, [sp, #32]
   2677e:	f7f9 fd8d 	bl	2029c <_ZN9allow_pin12dynamic_type11allow_inner17hf1099571477a6939E>
   26782:	910f      	str	r1, [sp, #60]	@ 0x3c
   26784:	07c0      	lsls	r0, r0, #31
   26786:	d10c      	bne.n	267a2 <_start+0x619e>
   26788:	4898      	ldr	r0, [pc, #608]	@ (269ec <_start+0x63e8>)
   2678a:	4468      	add	r0, sp
   2678c:	990a      	ldr	r1, [sp, #40]	@ 0x28
   2678e:	7001      	strb	r1, [r0, #0]
   26790:	4899      	ldr	r0, [pc, #612]	@ (269f8 <_start+0x63f4>)
   26792:	2109      	movs	r1, #9
   26794:	2400      	movs	r4, #0
   26796:	4622      	mov	r2, r4
   26798:	4623      	mov	r3, r4
   2679a:	df02      	svc	2
   2679c:	910f      	str	r1, [sp, #60]	@ 0x3c
   2679e:	287f      	cmp	r0, #127	@ 0x7f
   267a0:	d801      	bhi.n	267a6 <_start+0x61a2>
   267a2:	9c0b      	ldr	r4, [sp, #44]	@ 0x2c
   267a4:	e02c      	b.n	26800 <_start+0x61fc>
   267a6:	a89f      	add	r0, sp, #636	@ 0x27c
   267a8:	7802      	ldrb	r2, [r0, #0]
   267aa:	2a02      	cmp	r2, #2
   267ac:	d00c      	beq.n	267c8 <_start+0x61c4>
   267ae:	2109      	movs	r1, #9
   267b0:	4630      	mov	r0, r6
   267b2:	f001 fbc7 	bl	27f44 <_ZN9allow_pin12dynamic_type7unshare17ha4091652f9b609c4E>
   267b6:	a89f      	add	r0, sp, #636	@ 0x27c
   267b8:	990e      	ldr	r1, [sp, #56]	@ 0x38
   267ba:	7001      	strb	r1, [r0, #0]
   267bc:	488b      	ldr	r0, [pc, #556]	@ (269ec <_start+0x63e8>)
   267be:	4468      	add	r0, sp
   267c0:	7800      	ldrb	r0, [r0, #0]
   267c2:	900a      	str	r0, [sp, #40]	@ 0x28
   267c4:	2802      	cmp	r0, #2
   267c6:	d004      	beq.n	267d2 <_start+0x61ce>
   267c8:	2100      	movs	r1, #0
   267ca:	4630      	mov	r0, r6
   267cc:	9a0a      	ldr	r2, [sp, #40]	@ 0x28
   267ce:	f001 fbb9 	bl	27f44 <_ZN9allow_pin12dynamic_type7unshare17ha4091652f9b609c4E>
   267d2:	4986      	ldr	r1, [pc, #536]	@ (269ec <_start+0x63e8>)
   267d4:	4469      	add	r1, sp
   267d6:	980e      	ldr	r0, [sp, #56]	@ 0x38
   267d8:	7008      	strb	r0, [r1, #0]
   267da:	9b08      	ldr	r3, [sp, #32]
   267dc:	7898      	ldrb	r0, [r3, #2]
   267de:	4a84      	ldr	r2, [pc, #528]	@ (269f0 <_start+0x63ec>)
   267e0:	446a      	add	r2, sp
   267e2:	7090      	strb	r0, [r2, #2]
   267e4:	7818      	ldrb	r0, [r3, #0]
   267e6:	785b      	ldrb	r3, [r3, #1]
   267e8:	021b      	lsls	r3, r3, #8
   267ea:	1818      	adds	r0, r3, r0
   267ec:	8010      	strh	r0, [r2, #0]
   267ee:	980c      	ldr	r0, [sp, #48]	@ 0x30
   267f0:	6d40      	ldr	r0, [r0, #84]	@ 0x54
   267f2:	900f      	str	r0, [sp, #60]	@ 0x3c
   267f4:	3108      	adds	r1, #8
   267f6:	a8ff      	add	r0, sp, #1020	@ 0x3fc
   267f8:	30a4      	adds	r0, #164	@ 0xa4
   267fa:	2248      	movs	r2, #72	@ 0x48
   267fc:	f001 fc0f 	bl	2801e <__aeabi_memcpy4>
   26800:	487a      	ldr	r0, [pc, #488]	@ (269ec <_start+0x63e8>)
   26802:	4468      	add	r0, sp
   26804:	7802      	ldrb	r2, [r0, #0]
   26806:	2a02      	cmp	r2, #2
   26808:	d003      	beq.n	26812 <_start+0x620e>
   2680a:	2100      	movs	r1, #0
   2680c:	4630      	mov	r0, r6
   2680e:	f001 fb99 	bl	27f44 <_ZN9allow_pin12dynamic_type7unshare17ha4091652f9b609c4E>
   26812:	a89f      	add	r0, sp, #636	@ 0x27c
   26814:	7802      	ldrb	r2, [r0, #0]
   26816:	2a02      	cmp	r2, #2
   26818:	d003      	beq.n	26822 <_start+0x621e>
   2681a:	2109      	movs	r1, #9
   2681c:	4630      	mov	r0, r6
   2681e:	f001 fb91 	bl	27f44 <_ZN9allow_pin12dynamic_type7unshare17ha4091652f9b609c4E>
   26822:	2c00      	cmp	r4, #0
   26824:	d001      	beq.n	2682a <_start+0x6226>
   26826:	f7fb fc95 	bl	22154 <_start+0x1b50>
   2682a:	4e70      	ldr	r6, [pc, #448]	@ (269ec <_start+0x63e8>)
   2682c:	446e      	add	r6, sp
   2682e:	1c70      	adds	r0, r6, #1
   26830:	9008      	str	r0, [sp, #32]
   26832:	496f      	ldr	r1, [pc, #444]	@ (269f0 <_start+0x63ec>)
   26834:	4469      	add	r1, sp
   26836:	2203      	movs	r2, #3
   26838:	920a      	str	r2, [sp, #40]	@ 0x28
   2683a:	f001 fd50 	bl	282de <__aeabi_memcpy>
   2683e:	a8e3      	add	r0, sp, #908	@ 0x38c
   26840:	9006      	str	r0, [sp, #24]
   26842:	a9ff      	add	r1, sp, #1020	@ 0x3fc
   26844:	31a4      	adds	r1, #164	@ 0xa4
   26846:	2448      	movs	r4, #72	@ 0x48
   26848:	4622      	mov	r2, r4
   2684a:	f001 fbe8 	bl	2801e <__aeabi_memcpy4>
   2684e:	980e      	ldr	r0, [sp, #56]	@ 0x38
   26850:	7030      	strb	r0, [r6, #0]
   26852:	980c      	ldr	r0, [sp, #48]	@ 0x30
   26854:	990f      	ldr	r1, [sp, #60]	@ 0x3c
   26856:	6541      	str	r1, [r0, #84]	@ 0x54
   26858:	3608      	adds	r6, #8
   2685a:	4630      	mov	r0, r6
   2685c:	9906      	ldr	r1, [sp, #24]
   2685e:	4622      	mov	r2, r4
   26860:	f001 fbdd 	bl	2801e <__aeabi_memcpy4>
   26864:	acff      	add	r4, sp, #1020	@ 0x3fc
   26866:	34a4      	adds	r4, #164	@ 0xa4
   26868:	1c66      	adds	r6, r4, #1
   2686a:	2135      	movs	r1, #53	@ 0x35
   2686c:	4630      	mov	r0, r6
   2686e:	f001 fb76 	bl	27f5e <__aeabi_memclr>
   26872:	980e      	ldr	r0, [sp, #56]	@ 0x38
   26874:	7020      	strb	r0, [r4, #0]
   26876:	980d      	ldr	r0, [sp, #52]	@ 0x34
   26878:	9000      	str	r0, [sp, #0]
   2687a:	4c60      	ldr	r4, [pc, #384]	@ (269fc <_start+0x63f8>)
   2687c:	34e6      	adds	r4, #230	@ 0xe6
   2687e:	2107      	movs	r1, #7
   26880:	234f      	movs	r3, #79	@ 0x4f
   26882:	4620      	mov	r0, r4
   26884:	9a08      	ldr	r2, [sp, #32]
   26886:	f7f9 fd09 	bl	2029c <_ZN9allow_pin12dynamic_type11allow_inner17hf1099571477a6939E>
   2688a:	910f      	str	r1, [sp, #60]	@ 0x3c
   2688c:	07c0      	lsls	r0, r0, #31
   2688e:	d11b      	bne.n	268c8 <_start+0x62c4>
   26890:	4856      	ldr	r0, [pc, #344]	@ (269ec <_start+0x63e8>)
   26892:	4468      	add	r0, sp
   26894:	990d      	ldr	r1, [sp, #52]	@ 0x34
   26896:	7001      	strb	r1, [r0, #0]
   26898:	980a      	ldr	r0, [sp, #40]	@ 0x28
   2689a:	9000      	str	r0, [sp, #0]
   2689c:	2101      	movs	r1, #1
   2689e:	2335      	movs	r3, #53	@ 0x35
   268a0:	4620      	mov	r0, r4
   268a2:	4632      	mov	r2, r6
   268a4:	f7f9 fcfa 	bl	2029c <_ZN9allow_pin12dynamic_type11allow_inner17hf1099571477a6939E>
   268a8:	910f      	str	r1, [sp, #60]	@ 0x3c
   268aa:	07c0      	lsls	r0, r0, #31
   268ac:	d10c      	bne.n	268c8 <_start+0x62c4>
   268ae:	a8ff      	add	r0, sp, #1020	@ 0x3fc
   268b0:	30a4      	adds	r0, #164	@ 0xa4
   268b2:	990a      	ldr	r1, [sp, #40]	@ 0x28
   268b4:	7001      	strb	r1, [r0, #0]
   268b6:	4852      	ldr	r0, [pc, #328]	@ (26a00 <_start+0x63fc>)
   268b8:	2107      	movs	r1, #7
   268ba:	2201      	movs	r2, #1
   268bc:	2300      	movs	r3, #0
   268be:	9308      	str	r3, [sp, #32]
   268c0:	df02      	svc	2
   268c2:	910f      	str	r1, [sp, #60]	@ 0x3c
   268c4:	287f      	cmp	r0, #127	@ 0x7f
   268c6:	d802      	bhi.n	268ce <_start+0x62ca>
   268c8:	980b      	ldr	r0, [sp, #44]	@ 0x2c
   268ca:	9008      	str	r0, [sp, #32]
   268cc:	e02c      	b.n	26928 <_start+0x6324>
   268ce:	4847      	ldr	r0, [pc, #284]	@ (269ec <_start+0x63e8>)
   268d0:	4468      	add	r0, sp
   268d2:	7802      	ldrb	r2, [r0, #0]
   268d4:	2a02      	cmp	r2, #2
   268d6:	d00d      	beq.n	268f4 <_start+0x62f0>
   268d8:	2107      	movs	r1, #7
   268da:	4620      	mov	r0, r4
   268dc:	f001 fb32 	bl	27f44 <_ZN9allow_pin12dynamic_type7unshare17ha4091652f9b609c4E>
   268e0:	4842      	ldr	r0, [pc, #264]	@ (269ec <_start+0x63e8>)
   268e2:	4468      	add	r0, sp
   268e4:	990e      	ldr	r1, [sp, #56]	@ 0x38
   268e6:	7001      	strb	r1, [r0, #0]
   268e8:	a8ff      	add	r0, sp, #1020	@ 0x3fc
   268ea:	30a4      	adds	r0, #164	@ 0xa4
   268ec:	7800      	ldrb	r0, [r0, #0]
   268ee:	900a      	str	r0, [sp, #40]	@ 0x28
   268f0:	2802      	cmp	r0, #2
   268f2:	d004      	beq.n	268fe <_start+0x62fa>
   268f4:	2101      	movs	r1, #1
   268f6:	4620      	mov	r0, r4
   268f8:	9a0a      	ldr	r2, [sp, #40]	@ 0x28
   268fa:	f001 fb23 	bl	27f44 <_ZN9allow_pin12dynamic_type7unshare17ha4091652f9b609c4E>
   268fe:	a9ff      	add	r1, sp, #1020	@ 0x3fc
   26900:	31a4      	adds	r1, #164	@ 0xa4
   26902:	980e      	ldr	r0, [sp, #56]	@ 0x38
   26904:	7008      	strb	r0, [r1, #0]
   26906:	78b0      	ldrb	r0, [r6, #2]
   26908:	aaff      	add	r2, sp, #1020	@ 0x3fc
   2690a:	328c      	adds	r2, #140	@ 0x8c
   2690c:	7090      	strb	r0, [r2, #2]
   2690e:	7830      	ldrb	r0, [r6, #0]
   26910:	7873      	ldrb	r3, [r6, #1]
   26912:	021b      	lsls	r3, r3, #8
   26914:	1818      	adds	r0, r3, r0
   26916:	8010      	strh	r0, [r2, #0]
   26918:	9809      	ldr	r0, [sp, #36]	@ 0x24
   2691a:	6800      	ldr	r0, [r0, #0]
   2691c:	900f      	str	r0, [sp, #60]	@ 0x3c
   2691e:	3108      	adds	r1, #8
   26920:	a8c9      	add	r0, sp, #804	@ 0x324
   26922:	222e      	movs	r2, #46	@ 0x2e
   26924:	f001 fcdb 	bl	282de <__aeabi_memcpy>
   26928:	a8ff      	add	r0, sp, #1020	@ 0x3fc
   2692a:	30a4      	adds	r0, #164	@ 0xa4
   2692c:	7802      	ldrb	r2, [r0, #0]
   2692e:	2a02      	cmp	r2, #2
   26930:	d003      	beq.n	2693a <_start+0x6336>
   26932:	2101      	movs	r1, #1
   26934:	4620      	mov	r0, r4
   26936:	f001 fb05 	bl	27f44 <_ZN9allow_pin12dynamic_type7unshare17ha4091652f9b609c4E>
   2693a:	482c      	ldr	r0, [pc, #176]	@ (269ec <_start+0x63e8>)
   2693c:	4468      	add	r0, sp
   2693e:	7802      	ldrb	r2, [r0, #0]
   26940:	2a02      	cmp	r2, #2
   26942:	d003      	beq.n	2694c <_start+0x6348>
   26944:	2107      	movs	r1, #7
   26946:	4620      	mov	r0, r4
   26948:	f001 fafc 	bl	27f44 <_ZN9allow_pin12dynamic_type7unshare17ha4091652f9b609c4E>
   2694c:	9808      	ldr	r0, [sp, #32]
   2694e:	2800      	cmp	r0, #0
   26950:	d001      	beq.n	26956 <_start+0x6352>
   26952:	f7fb fbff 	bl	22154 <_start+0x1b50>
   26956:	ac9f      	add	r4, sp, #636	@ 0x27c
   26958:	1c60      	adds	r0, r4, #1
   2695a:	9006      	str	r0, [sp, #24]
   2695c:	a9ff      	add	r1, sp, #1020	@ 0x3fc
   2695e:	318c      	adds	r1, #140	@ 0x8c
   26960:	2203      	movs	r2, #3
   26962:	920a      	str	r2, [sp, #40]	@ 0x28
   26964:	f001 fcbb 	bl	282de <__aeabi_memcpy>
   26968:	4821      	ldr	r0, [pc, #132]	@ (269f0 <_start+0x63ec>)
   2696a:	4468      	add	r0, sp
   2696c:	9008      	str	r0, [sp, #32]
   2696e:	a9c9      	add	r1, sp, #804	@ 0x324
   26970:	262e      	movs	r6, #46	@ 0x2e
   26972:	4632      	mov	r2, r6
   26974:	f001 fcb3 	bl	282de <__aeabi_memcpy>
   26978:	4620      	mov	r0, r4
   2697a:	3008      	adds	r0, #8
   2697c:	9908      	ldr	r1, [sp, #32]
   2697e:	4632      	mov	r2, r6
   26980:	f001 fcad 	bl	282de <__aeabi_memcpy>
   26984:	9e0e      	ldr	r6, [sp, #56]	@ 0x38
   26986:	7026      	strb	r6, [r4, #0]
   26988:	980f      	ldr	r0, [sp, #60]	@ 0x3c
   2698a:	90a0      	str	r0, [sp, #640]	@ 0x280
   2698c:	4c17      	ldr	r4, [pc, #92]	@ (269ec <_start+0x63e8>)
   2698e:	446c      	add	r4, sp
   26990:	1c60      	adds	r0, r4, #1
   26992:	213f      	movs	r1, #63	@ 0x3f
   26994:	9008      	str	r0, [sp, #32]
   26996:	f001 fae2 	bl	27f5e <__aeabi_memclr>
   2699a:	7026      	strb	r6, [r4, #0]
   2699c:	980d      	ldr	r0, [sp, #52]	@ 0x34
   2699e:	9000      	str	r0, [sp, #0]
   269a0:	4818      	ldr	r0, [pc, #96]	@ (26a04 <_start+0x6400>)
   269a2:	30fa      	adds	r0, #250	@ 0xfa
   269a4:	2100      	movs	r1, #0
   269a6:	2335      	movs	r3, #53	@ 0x35
   269a8:	4606      	mov	r6, r0
   269aa:	9a06      	ldr	r2, [sp, #24]
   269ac:	f7f9 fc76 	bl	2029c <_ZN9allow_pin12dynamic_type11allow_inner17hf1099571477a6939E>
   269b0:	910f      	str	r1, [sp, #60]	@ 0x3c
   269b2:	07c0      	lsls	r0, r0, #31
   269b4:	d118      	bne.n	269e8 <_start+0x63e4>
   269b6:	a89f      	add	r0, sp, #636	@ 0x27c
   269b8:	990d      	ldr	r1, [sp, #52]	@ 0x34
   269ba:	7001      	strb	r1, [r0, #0]
   269bc:	990a      	ldr	r1, [sp, #40]	@ 0x28
   269be:	9100      	str	r1, [sp, #0]
   269c0:	233f      	movs	r3, #63	@ 0x3f
   269c2:	4630      	mov	r0, r6
   269c4:	9a08      	ldr	r2, [sp, #32]
   269c6:	f7f9 fc69 	bl	2029c <_ZN9allow_pin12dynamic_type11allow_inner17hf1099571477a6939E>
   269ca:	910f      	str	r1, [sp, #60]	@ 0x3c
   269cc:	07c0      	lsls	r0, r0, #31
   269ce:	d10b      	bne.n	269e8 <_start+0x63e4>
   269d0:	4806      	ldr	r0, [pc, #24]	@ (269ec <_start+0x63e8>)
   269d2:	4468      	add	r0, sp
   269d4:	9a0a      	ldr	r2, [sp, #40]	@ 0x28
   269d6:	7002      	strb	r2, [r0, #0]
   269d8:	480b      	ldr	r0, [pc, #44]	@ (26a08 <_start+0x6404>)
   269da:	2400      	movs	r4, #0
   269dc:	4621      	mov	r1, r4
   269de:	4623      	mov	r3, r4
   269e0:	df02      	svc	2
   269e2:	910f      	str	r1, [sp, #60]	@ 0x3c
   269e4:	287f      	cmp	r0, #127	@ 0x7f
   269e6:	d811      	bhi.n	26a0c <_start+0x6408>
   269e8:	9c0b      	ldr	r4, [sp, #44]	@ 0x2c
   269ea:	e03c      	b.n	26a66 <_start+0x6462>
   269ec:	000005a8 	.word	0x000005a8
   269f0:	00000558 	.word	0x00000558
   269f4:	00000b3c 	.word	0x00000b3c
   269f8:	00000b4c 	.word	0x00000b4c
   269fc:	000015f1 	.word	0x000015f1
   26a00:	000016d7 	.word	0x000016d7
   26a04:	00000d5d 	.word	0x00000d5d
   26a08:	00000e57 	.word	0x00000e57
   26a0c:	a89f      	add	r0, sp, #636	@ 0x27c
   26a0e:	7802      	ldrb	r2, [r0, #0]
   26a10:	2a02      	cmp	r2, #2
   26a12:	d00c      	beq.n	26a2e <_start+0x642a>
   26a14:	2100      	movs	r1, #0
   26a16:	4630      	mov	r0, r6
   26a18:	f001 fa94 	bl	27f44 <_ZN9allow_pin12dynamic_type7unshare17ha4091652f9b609c4E>
   26a1c:	a89f      	add	r0, sp, #636	@ 0x27c
   26a1e:	990e      	ldr	r1, [sp, #56]	@ 0x38
   26a20:	7001      	strb	r1, [r0, #0]
   26a22:	48d5      	ldr	r0, [pc, #852]	@ (26d78 <_start+0x6774>)
   26a24:	4468      	add	r0, sp
   26a26:	7800      	ldrb	r0, [r0, #0]
   26a28:	900a      	str	r0, [sp, #40]	@ 0x28
   26a2a:	2802      	cmp	r0, #2
   26a2c:	d004      	beq.n	26a38 <_start+0x6434>
   26a2e:	2103      	movs	r1, #3
   26a30:	4630      	mov	r0, r6
   26a32:	9a0a      	ldr	r2, [sp, #40]	@ 0x28
   26a34:	f001 fa86 	bl	27f44 <_ZN9allow_pin12dynamic_type7unshare17ha4091652f9b609c4E>
   26a38:	49cf      	ldr	r1, [pc, #828]	@ (26d78 <_start+0x6774>)
   26a3a:	4469      	add	r1, sp
   26a3c:	980e      	ldr	r0, [sp, #56]	@ 0x38
   26a3e:	7008      	strb	r0, [r1, #0]
   26a40:	9b08      	ldr	r3, [sp, #32]
   26a42:	7898      	ldrb	r0, [r3, #2]
   26a44:	4acd      	ldr	r2, [pc, #820]	@ (26d7c <_start+0x6778>)
   26a46:	446a      	add	r2, sp
   26a48:	7090      	strb	r0, [r2, #2]
   26a4a:	7818      	ldrb	r0, [r3, #0]
   26a4c:	785b      	ldrb	r3, [r3, #1]
   26a4e:	021b      	lsls	r3, r3, #8
   26a50:	1818      	adds	r0, r3, r0
   26a52:	8010      	strh	r0, [r2, #0]
   26a54:	980c      	ldr	r0, [sp, #48]	@ 0x30
   26a56:	6d40      	ldr	r0, [r0, #84]	@ 0x54
   26a58:	900f      	str	r0, [sp, #60]	@ 0x3c
   26a5a:	3108      	adds	r1, #8
   26a5c:	a8ff      	add	r0, sp, #1020	@ 0x3fc
   26a5e:	30a4      	adds	r0, #164	@ 0xa4
   26a60:	2238      	movs	r2, #56	@ 0x38
   26a62:	f001 fc3c 	bl	282de <__aeabi_memcpy>
   26a66:	48c4      	ldr	r0, [pc, #784]	@ (26d78 <_start+0x6774>)
   26a68:	4468      	add	r0, sp
   26a6a:	7802      	ldrb	r2, [r0, #0]
   26a6c:	2a02      	cmp	r2, #2
   26a6e:	d003      	beq.n	26a78 <_start+0x6474>
   26a70:	2103      	movs	r1, #3
   26a72:	4630      	mov	r0, r6
   26a74:	f001 fa66 	bl	27f44 <_ZN9allow_pin12dynamic_type7unshare17ha4091652f9b609c4E>
   26a78:	a89f      	add	r0, sp, #636	@ 0x27c
   26a7a:	7802      	ldrb	r2, [r0, #0]
   26a7c:	2a02      	cmp	r2, #2
   26a7e:	d003      	beq.n	26a88 <_start+0x6484>
   26a80:	2100      	movs	r1, #0
   26a82:	4630      	mov	r0, r6
   26a84:	f001 fa5e 	bl	27f44 <_ZN9allow_pin12dynamic_type7unshare17ha4091652f9b609c4E>
   26a88:	2c00      	cmp	r4, #0
   26a8a:	d001      	beq.n	26a90 <_start+0x648c>
   26a8c:	f7fb fb62 	bl	22154 <_start+0x1b50>
   26a90:	4cb9      	ldr	r4, [pc, #740]	@ (26d78 <_start+0x6774>)
   26a92:	446c      	add	r4, sp
   26a94:	1c60      	adds	r0, r4, #1
   26a96:	9008      	str	r0, [sp, #32]
   26a98:	49b8      	ldr	r1, [pc, #736]	@ (26d7c <_start+0x6778>)
   26a9a:	4469      	add	r1, sp
   26a9c:	2203      	movs	r2, #3
   26a9e:	920a      	str	r2, [sp, #40]	@ 0x28
   26aa0:	f001 fc1d 	bl	282de <__aeabi_memcpy>
   26aa4:	a8f5      	add	r0, sp, #980	@ 0x3d4
   26aa6:	9006      	str	r0, [sp, #24]
   26aa8:	a9ff      	add	r1, sp, #1020	@ 0x3fc
   26aaa:	31a4      	adds	r1, #164	@ 0xa4
   26aac:	2638      	movs	r6, #56	@ 0x38
   26aae:	4632      	mov	r2, r6
   26ab0:	f001 fc15 	bl	282de <__aeabi_memcpy>
   26ab4:	980e      	ldr	r0, [sp, #56]	@ 0x38
   26ab6:	7020      	strb	r0, [r4, #0]
   26ab8:	980c      	ldr	r0, [sp, #48]	@ 0x30
   26aba:	990f      	ldr	r1, [sp, #60]	@ 0x3c
   26abc:	6541      	str	r1, [r0, #84]	@ 0x54
   26abe:	3408      	adds	r4, #8
   26ac0:	4620      	mov	r0, r4
   26ac2:	9906      	ldr	r1, [sp, #24]
   26ac4:	4632      	mov	r2, r6
   26ac6:	f001 fc0a 	bl	282de <__aeabi_memcpy>
   26aca:	aeff      	add	r6, sp, #1020	@ 0x3fc
   26acc:	36a4      	adds	r6, #164	@ 0xa4
   26ace:	1c74      	adds	r4, r6, #1
   26ad0:	2111      	movs	r1, #17
   26ad2:	4620      	mov	r0, r4
   26ad4:	f001 fa43 	bl	27f5e <__aeabi_memclr>
   26ad8:	980e      	ldr	r0, [sp, #56]	@ 0x38
   26ada:	7030      	strb	r0, [r6, #0]
   26adc:	990d      	ldr	r1, [sp, #52]	@ 0x34
   26ade:	9100      	str	r1, [sp, #0]
   26ae0:	233f      	movs	r3, #63	@ 0x3f
   26ae2:	48a7      	ldr	r0, [pc, #668]	@ (26d80 <_start+0x677c>)
   26ae4:	9a08      	ldr	r2, [sp, #32]
   26ae6:	f7f9 fbd9 	bl	2029c <_ZN9allow_pin12dynamic_type11allow_inner17hf1099571477a6939E>
   26aea:	910f      	str	r1, [sp, #60]	@ 0x3c
   26aec:	07c0      	lsls	r0, r0, #31
   26aee:	d119      	bne.n	26b24 <_start+0x6520>
   26af0:	48a1      	ldr	r0, [pc, #644]	@ (26d78 <_start+0x6774>)
   26af2:	4468      	add	r0, sp
   26af4:	990d      	ldr	r1, [sp, #52]	@ 0x34
   26af6:	7001      	strb	r1, [r0, #0]
   26af8:	990a      	ldr	r1, [sp, #40]	@ 0x28
   26afa:	9100      	str	r1, [sp, #0]
   26afc:	2311      	movs	r3, #17
   26afe:	48a0      	ldr	r0, [pc, #640]	@ (26d80 <_start+0x677c>)
   26b00:	4622      	mov	r2, r4
   26b02:	f7f9 fbcb 	bl	2029c <_ZN9allow_pin12dynamic_type11allow_inner17hf1099571477a6939E>
   26b06:	910f      	str	r1, [sp, #60]	@ 0x3c
   26b08:	07c0      	lsls	r0, r0, #31
   26b0a:	d10b      	bne.n	26b24 <_start+0x6520>
   26b0c:	a8ff      	add	r0, sp, #1020	@ 0x3fc
   26b0e:	30a4      	adds	r0, #164	@ 0xa4
   26b10:	9a0a      	ldr	r2, [sp, #40]	@ 0x28
   26b12:	7002      	strb	r2, [r0, #0]
   26b14:	489a      	ldr	r0, [pc, #616]	@ (26d80 <_start+0x677c>)
   26b16:	2104      	movs	r1, #4
   26b18:	2600      	movs	r6, #0
   26b1a:	4633      	mov	r3, r6
   26b1c:	df02      	svc	2
   26b1e:	910f      	str	r1, [sp, #60]	@ 0x3c
   26b20:	287f      	cmp	r0, #127	@ 0x7f
   26b22:	d801      	bhi.n	26b28 <_start+0x6524>
   26b24:	9e0b      	ldr	r6, [sp, #44]	@ 0x2c
   26b26:	e02d      	b.n	26b84 <_start+0x6580>
   26b28:	4893      	ldr	r0, [pc, #588]	@ (26d78 <_start+0x6774>)
   26b2a:	4468      	add	r0, sp
   26b2c:	7802      	ldrb	r2, [r0, #0]
   26b2e:	2a02      	cmp	r2, #2
   26b30:	d00d      	beq.n	26b4e <_start+0x654a>
   26b32:	2104      	movs	r1, #4
   26b34:	4892      	ldr	r0, [pc, #584]	@ (26d80 <_start+0x677c>)
   26b36:	f001 fa05 	bl	27f44 <_ZN9allow_pin12dynamic_type7unshare17ha4091652f9b609c4E>
   26b3a:	488f      	ldr	r0, [pc, #572]	@ (26d78 <_start+0x6774>)
   26b3c:	4468      	add	r0, sp
   26b3e:	990e      	ldr	r1, [sp, #56]	@ 0x38
   26b40:	7001      	strb	r1, [r0, #0]
   26b42:	a8ff      	add	r0, sp, #1020	@ 0x3fc
   26b44:	30a4      	adds	r0, #164	@ 0xa4
   26b46:	7800      	ldrb	r0, [r0, #0]
   26b48:	900a      	str	r0, [sp, #40]	@ 0x28
   26b4a:	2802      	cmp	r0, #2
   26b4c:	d004      	beq.n	26b58 <_start+0x6554>
   26b4e:	2103      	movs	r1, #3
   26b50:	488b      	ldr	r0, [pc, #556]	@ (26d80 <_start+0x677c>)
   26b52:	9a0a      	ldr	r2, [sp, #40]	@ 0x28
   26b54:	f001 f9f6 	bl	27f44 <_ZN9allow_pin12dynamic_type7unshare17ha4091652f9b609c4E>
   26b58:	a8ff      	add	r0, sp, #1020	@ 0x3fc
   26b5a:	30a4      	adds	r0, #164	@ 0xa4
   26b5c:	990e      	ldr	r1, [sp, #56]	@ 0x38
   26b5e:	7001      	strb	r1, [r0, #0]
   26b60:	78a1      	ldrb	r1, [r4, #2]
   26b62:	aaff      	add	r2, sp, #1020	@ 0x3fc
   26b64:	328c      	adds	r2, #140	@ 0x8c
   26b66:	7091      	strb	r1, [r2, #2]
   26b68:	7821      	ldrb	r1, [r4, #0]
   26b6a:	7863      	ldrb	r3, [r4, #1]
   26b6c:	021b      	lsls	r3, r3, #8
   26b6e:	1859      	adds	r1, r3, r1
   26b70:	8011      	strh	r1, [r2, #0]
   26b72:	3008      	adds	r0, #8
   26b74:	9909      	ldr	r1, [sp, #36]	@ 0x24
   26b76:	6809      	ldr	r1, [r1, #0]
   26b78:	910f      	str	r1, [sp, #60]	@ 0x3c
   26b7a:	a9c9      	add	r1, sp, #804	@ 0x324
   26b7c:	c80c      	ldmia	r0!, {r2, r3}
   26b7e:	c10c      	stmia	r1!, {r2, r3}
   26b80:	8800      	ldrh	r0, [r0, #0]
   26b82:	8008      	strh	r0, [r1, #0]
   26b84:	a8ff      	add	r0, sp, #1020	@ 0x3fc
   26b86:	30a4      	adds	r0, #164	@ 0xa4
   26b88:	7802      	ldrb	r2, [r0, #0]
   26b8a:	2a02      	cmp	r2, #2
   26b8c:	d003      	beq.n	26b96 <_start+0x6592>
   26b8e:	2103      	movs	r1, #3
   26b90:	487b      	ldr	r0, [pc, #492]	@ (26d80 <_start+0x677c>)
   26b92:	f001 f9d7 	bl	27f44 <_ZN9allow_pin12dynamic_type7unshare17ha4091652f9b609c4E>
   26b96:	4878      	ldr	r0, [pc, #480]	@ (26d78 <_start+0x6774>)
   26b98:	4468      	add	r0, sp
   26b9a:	7802      	ldrb	r2, [r0, #0]
   26b9c:	2a02      	cmp	r2, #2
   26b9e:	d003      	beq.n	26ba8 <_start+0x65a4>
   26ba0:	2104      	movs	r1, #4
   26ba2:	4877      	ldr	r0, [pc, #476]	@ (26d80 <_start+0x677c>)
   26ba4:	f001 f9ce 	bl	27f44 <_ZN9allow_pin12dynamic_type7unshare17ha4091652f9b609c4E>
   26ba8:	2e00      	cmp	r6, #0
   26baa:	d001      	beq.n	26bb0 <_start+0x65ac>
   26bac:	f7fb fad2 	bl	22154 <_start+0x1b50>
   26bb0:	ac9f      	add	r4, sp, #636	@ 0x27c
   26bb2:	1c60      	adds	r0, r4, #1
   26bb4:	9006      	str	r0, [sp, #24]
   26bb6:	a9ff      	add	r1, sp, #1020	@ 0x3fc
   26bb8:	318c      	adds	r1, #140	@ 0x8c
   26bba:	2203      	movs	r2, #3
   26bbc:	920a      	str	r2, [sp, #40]	@ 0x28
   26bbe:	f001 fb8e 	bl	282de <__aeabi_memcpy>
   26bc2:	a8c9      	add	r0, sp, #804	@ 0x324
   26bc4:	496d      	ldr	r1, [pc, #436]	@ (26d7c <_start+0x6778>)
   26bc6:	4469      	add	r1, sp
   26bc8:	460a      	mov	r2, r1
   26bca:	c848      	ldmia	r0!, {r3, r6}
   26bcc:	c248      	stmia	r2!, {r3, r6}
   26bce:	8800      	ldrh	r0, [r0, #0]
   26bd0:	8010      	strh	r0, [r2, #0]
   26bd2:	4626      	mov	r6, r4
   26bd4:	4620      	mov	r0, r4
   26bd6:	3008      	adds	r0, #8
   26bd8:	c90c      	ldmia	r1!, {r2, r3}
   26bda:	c00c      	stmia	r0!, {r2, r3}
   26bdc:	8809      	ldrh	r1, [r1, #0]
   26bde:	8001      	strh	r1, [r0, #0]
   26be0:	9c0e      	ldr	r4, [sp, #56]	@ 0x38
   26be2:	7034      	strb	r4, [r6, #0]
   26be4:	980f      	ldr	r0, [sp, #60]	@ 0x3c
   26be6:	90a0      	str	r0, [sp, #640]	@ 0x280
   26be8:	4e63      	ldr	r6, [pc, #396]	@ (26d78 <_start+0x6774>)
   26bea:	446e      	add	r6, sp
   26bec:	1c70      	adds	r0, r6, #1
   26bee:	213f      	movs	r1, #63	@ 0x3f
   26bf0:	9008      	str	r0, [sp, #32]
   26bf2:	f001 f9b4 	bl	27f5e <__aeabi_memclr>
   26bf6:	7034      	strb	r4, [r6, #0]
   26bf8:	980d      	ldr	r0, [sp, #52]	@ 0x34
   26bfa:	9000      	str	r0, [sp, #0]
   26bfc:	4c61      	ldr	r4, [pc, #388]	@ (26d84 <_start+0x6780>)
   26bfe:	3472      	adds	r4, #114	@ 0x72
   26c00:	2107      	movs	r1, #7
   26c02:	2311      	movs	r3, #17
   26c04:	4620      	mov	r0, r4
   26c06:	9a06      	ldr	r2, [sp, #24]
   26c08:	f7f9 fb48 	bl	2029c <_ZN9allow_pin12dynamic_type11allow_inner17hf1099571477a6939E>
   26c0c:	910f      	str	r1, [sp, #60]	@ 0x3c
   26c0e:	07c0      	lsls	r0, r0, #31
   26c10:	d11a      	bne.n	26c48 <_start+0x6644>
   26c12:	a89f      	add	r0, sp, #636	@ 0x27c
   26c14:	990d      	ldr	r1, [sp, #52]	@ 0x34
   26c16:	7001      	strb	r1, [r0, #0]
   26c18:	980a      	ldr	r0, [sp, #40]	@ 0x28
   26c1a:	9000      	str	r0, [sp, #0]
   26c1c:	233f      	movs	r3, #63	@ 0x3f
   26c1e:	4620      	mov	r0, r4
   26c20:	9a08      	ldr	r2, [sp, #32]
   26c22:	f7f9 fb3b 	bl	2029c <_ZN9allow_pin12dynamic_type11allow_inner17hf1099571477a6939E>
   26c26:	910f      	str	r1, [sp, #60]	@ 0x3c
   26c28:	07c0      	lsls	r0, r0, #31
   26c2a:	d10d      	bne.n	26c48 <_start+0x6644>
   26c2c:	4852      	ldr	r0, [pc, #328]	@ (26d78 <_start+0x6774>)
   26c2e:	4468      	add	r0, sp
   26c30:	990a      	ldr	r1, [sp, #40]	@ 0x28
   26c32:	7001      	strb	r1, [r0, #0]
   26c34:	20cb      	movs	r0, #203	@ 0xcb
   26c36:	0100      	lsls	r0, r0, #4
   26c38:	2107      	movs	r1, #7
   26c3a:	2204      	movs	r2, #4
   26c3c:	2600      	movs	r6, #0
   26c3e:	4633      	mov	r3, r6
   26c40:	df02      	svc	2
   26c42:	910f      	str	r1, [sp, #60]	@ 0x3c
   26c44:	287f      	cmp	r0, #127	@ 0x7f
   26c46:	d801      	bhi.n	26c4c <_start+0x6648>
   26c48:	9e0b      	ldr	r6, [sp, #44]	@ 0x2c
   26c4a:	e02c      	b.n	26ca6 <_start+0x66a2>
   26c4c:	a89f      	add	r0, sp, #636	@ 0x27c
   26c4e:	7802      	ldrb	r2, [r0, #0]
   26c50:	2a02      	cmp	r2, #2
   26c52:	d00c      	beq.n	26c6e <_start+0x666a>
   26c54:	2107      	movs	r1, #7
   26c56:	4620      	mov	r0, r4
   26c58:	f001 f974 	bl	27f44 <_ZN9allow_pin12dynamic_type7unshare17ha4091652f9b609c4E>
   26c5c:	a89f      	add	r0, sp, #636	@ 0x27c
   26c5e:	990e      	ldr	r1, [sp, #56]	@ 0x38
   26c60:	7001      	strb	r1, [r0, #0]
   26c62:	4845      	ldr	r0, [pc, #276]	@ (26d78 <_start+0x6774>)
   26c64:	4468      	add	r0, sp
   26c66:	7800      	ldrb	r0, [r0, #0]
   26c68:	900a      	str	r0, [sp, #40]	@ 0x28
   26c6a:	2802      	cmp	r0, #2
   26c6c:	d004      	beq.n	26c78 <_start+0x6674>
   26c6e:	2104      	movs	r1, #4
   26c70:	4620      	mov	r0, r4
   26c72:	9a0a      	ldr	r2, [sp, #40]	@ 0x28
   26c74:	f001 f966 	bl	27f44 <_ZN9allow_pin12dynamic_type7unshare17ha4091652f9b609c4E>
   26c78:	493f      	ldr	r1, [pc, #252]	@ (26d78 <_start+0x6774>)
   26c7a:	4469      	add	r1, sp
   26c7c:	980e      	ldr	r0, [sp, #56]	@ 0x38
   26c7e:	7008      	strb	r0, [r1, #0]
   26c80:	9b08      	ldr	r3, [sp, #32]
   26c82:	7898      	ldrb	r0, [r3, #2]
   26c84:	4a3d      	ldr	r2, [pc, #244]	@ (26d7c <_start+0x6778>)
   26c86:	446a      	add	r2, sp
   26c88:	7090      	strb	r0, [r2, #2]
   26c8a:	7818      	ldrb	r0, [r3, #0]
   26c8c:	785b      	ldrb	r3, [r3, #1]
   26c8e:	021b      	lsls	r3, r3, #8
   26c90:	1818      	adds	r0, r3, r0
   26c92:	8010      	strh	r0, [r2, #0]
   26c94:	980c      	ldr	r0, [sp, #48]	@ 0x30
   26c96:	6d40      	ldr	r0, [r0, #84]	@ 0x54
   26c98:	900f      	str	r0, [sp, #60]	@ 0x3c
   26c9a:	3108      	adds	r1, #8
   26c9c:	a8ff      	add	r0, sp, #1020	@ 0x3fc
   26c9e:	30a4      	adds	r0, #164	@ 0xa4
   26ca0:	2238      	movs	r2, #56	@ 0x38
   26ca2:	f001 fb1c 	bl	282de <__aeabi_memcpy>
   26ca6:	4834      	ldr	r0, [pc, #208]	@ (26d78 <_start+0x6774>)
   26ca8:	4468      	add	r0, sp
   26caa:	7802      	ldrb	r2, [r0, #0]
   26cac:	2a02      	cmp	r2, #2
   26cae:	d003      	beq.n	26cb8 <_start+0x66b4>
   26cb0:	2104      	movs	r1, #4
   26cb2:	4620      	mov	r0, r4
   26cb4:	f001 f946 	bl	27f44 <_ZN9allow_pin12dynamic_type7unshare17ha4091652f9b609c4E>
   26cb8:	a89f      	add	r0, sp, #636	@ 0x27c
   26cba:	7802      	ldrb	r2, [r0, #0]
   26cbc:	2a02      	cmp	r2, #2
   26cbe:	d003      	beq.n	26cc8 <_start+0x66c4>
   26cc0:	2107      	movs	r1, #7
   26cc2:	4620      	mov	r0, r4
   26cc4:	f001 f93e 	bl	27f44 <_ZN9allow_pin12dynamic_type7unshare17ha4091652f9b609c4E>
   26cc8:	2e00      	cmp	r6, #0
   26cca:	d001      	beq.n	26cd0 <_start+0x66cc>
   26ccc:	f7fb fa42 	bl	22154 <_start+0x1b50>
   26cd0:	4e29      	ldr	r6, [pc, #164]	@ (26d78 <_start+0x6774>)
   26cd2:	446e      	add	r6, sp
   26cd4:	1c70      	adds	r0, r6, #1
   26cd6:	9008      	str	r0, [sp, #32]
   26cd8:	4928      	ldr	r1, [pc, #160]	@ (26d7c <_start+0x6778>)
   26cda:	4469      	add	r1, sp
   26cdc:	2203      	movs	r2, #3
   26cde:	920a      	str	r2, [sp, #40]	@ 0x28
   26ce0:	f001 fafd 	bl	282de <__aeabi_memcpy>
   26ce4:	a8ff      	add	r0, sp, #1020	@ 0x3fc
   26ce6:	3010      	adds	r0, #16
   26ce8:	9006      	str	r0, [sp, #24]
   26cea:	a9ff      	add	r1, sp, #1020	@ 0x3fc
   26cec:	31a4      	adds	r1, #164	@ 0xa4
   26cee:	2438      	movs	r4, #56	@ 0x38
   26cf0:	4622      	mov	r2, r4
   26cf2:	f001 faf4 	bl	282de <__aeabi_memcpy>
   26cf6:	980e      	ldr	r0, [sp, #56]	@ 0x38
   26cf8:	7030      	strb	r0, [r6, #0]
   26cfa:	980c      	ldr	r0, [sp, #48]	@ 0x30
   26cfc:	990f      	ldr	r1, [sp, #60]	@ 0x3c
   26cfe:	6541      	str	r1, [r0, #84]	@ 0x54
   26d00:	3608      	adds	r6, #8
   26d02:	4630      	mov	r0, r6
   26d04:	9906      	ldr	r1, [sp, #24]
   26d06:	4622      	mov	r2, r4
   26d08:	f001 fae9 	bl	282de <__aeabi_memcpy>
   26d0c:	acff      	add	r4, sp, #1020	@ 0x3fc
   26d0e:	34a4      	adds	r4, #164	@ 0xa4
   26d10:	1c66      	adds	r6, r4, #1
   26d12:	211c      	movs	r1, #28
   26d14:	4630      	mov	r0, r6
   26d16:	f001 f922 	bl	27f5e <__aeabi_memclr>
   26d1a:	980e      	ldr	r0, [sp, #56]	@ 0x38
   26d1c:	7020      	strb	r0, [r4, #0]
   26d1e:	980d      	ldr	r0, [sp, #52]	@ 0x34
   26d20:	9000      	str	r0, [sp, #0]
   26d22:	4c19      	ldr	r4, [pc, #100]	@ (26d88 <_start+0x6784>)
   26d24:	34a3      	adds	r4, #163	@ 0xa3
   26d26:	2105      	movs	r1, #5
   26d28:	233f      	movs	r3, #63	@ 0x3f
   26d2a:	4620      	mov	r0, r4
   26d2c:	9a08      	ldr	r2, [sp, #32]
   26d2e:	f7f9 fab5 	bl	2029c <_ZN9allow_pin12dynamic_type11allow_inner17hf1099571477a6939E>
   26d32:	910f      	str	r1, [sp, #60]	@ 0x3c
   26d34:	07c0      	lsls	r0, r0, #31
   26d36:	d11b      	bne.n	26d70 <_start+0x676c>
   26d38:	480f      	ldr	r0, [pc, #60]	@ (26d78 <_start+0x6774>)
   26d3a:	4468      	add	r0, sp
   26d3c:	990d      	ldr	r1, [sp, #52]	@ 0x34
   26d3e:	7001      	strb	r1, [r0, #0]
   26d40:	980a      	ldr	r0, [sp, #40]	@ 0x28
   26d42:	9000      	str	r0, [sp, #0]
   26d44:	2109      	movs	r1, #9
   26d46:	231c      	movs	r3, #28
   26d48:	4620      	mov	r0, r4
   26d4a:	4632      	mov	r2, r6
   26d4c:	f7f9 faa6 	bl	2029c <_ZN9allow_pin12dynamic_type11allow_inner17hf1099571477a6939E>
   26d50:	910f      	str	r1, [sp, #60]	@ 0x3c
   26d52:	07c0      	lsls	r0, r0, #31
   26d54:	d10c      	bne.n	26d70 <_start+0x676c>
   26d56:	a8ff      	add	r0, sp, #1020	@ 0x3fc
   26d58:	30a4      	adds	r0, #164	@ 0xa4
   26d5a:	990a      	ldr	r1, [sp, #40]	@ 0x28
   26d5c:	7001      	strb	r1, [r0, #0]
   26d5e:	480b      	ldr	r0, [pc, #44]	@ (26d8c <_start+0x6788>)
   26d60:	2105      	movs	r1, #5
   26d62:	2209      	movs	r2, #9
   26d64:	2300      	movs	r3, #0
   26d66:	9308      	str	r3, [sp, #32]
   26d68:	df02      	svc	2
   26d6a:	910f      	str	r1, [sp, #60]	@ 0x3c
   26d6c:	287f      	cmp	r0, #127	@ 0x7f
   26d6e:	d80f      	bhi.n	26d90 <_start+0x678c>
   26d70:	980b      	ldr	r0, [sp, #44]	@ 0x2c
   26d72:	9008      	str	r0, [sp, #32]
   26d74:	e039      	b.n	26dea <_start+0x67e6>
   26d76:	46c0      	nop			@ (mov r8, r8)
   26d78:	000005a8 	.word	0x000005a8
   26d7c:	00000558 	.word	0x00000558
   26d80:	000014d7 	.word	0x000014d7
   26d84:	00000c3e 	.word	0x00000c3e
   26d88:	000015f1 	.word	0x000015f1
   26d8c:	00001694 	.word	0x00001694
   26d90:	48dd      	ldr	r0, [pc, #884]	@ (27108 <_start+0x6b04>)
   26d92:	4468      	add	r0, sp
   26d94:	7802      	ldrb	r2, [r0, #0]
   26d96:	2a02      	cmp	r2, #2
   26d98:	d00d      	beq.n	26db6 <_start+0x67b2>
   26d9a:	2105      	movs	r1, #5
   26d9c:	4620      	mov	r0, r4
   26d9e:	f001 f8d1 	bl	27f44 <_ZN9allow_pin12dynamic_type7unshare17ha4091652f9b609c4E>
   26da2:	48d9      	ldr	r0, [pc, #868]	@ (27108 <_start+0x6b04>)
   26da4:	4468      	add	r0, sp
   26da6:	990e      	ldr	r1, [sp, #56]	@ 0x38
   26da8:	7001      	strb	r1, [r0, #0]
   26daa:	a8ff      	add	r0, sp, #1020	@ 0x3fc
   26dac:	30a4      	adds	r0, #164	@ 0xa4
   26dae:	7800      	ldrb	r0, [r0, #0]
   26db0:	900a      	str	r0, [sp, #40]	@ 0x28
   26db2:	2802      	cmp	r0, #2
   26db4:	d004      	beq.n	26dc0 <_start+0x67bc>
   26db6:	2109      	movs	r1, #9
   26db8:	4620      	mov	r0, r4
   26dba:	9a0a      	ldr	r2, [sp, #40]	@ 0x28
   26dbc:	f001 f8c2 	bl	27f44 <_ZN9allow_pin12dynamic_type7unshare17ha4091652f9b609c4E>
   26dc0:	a9ff      	add	r1, sp, #1020	@ 0x3fc
   26dc2:	31a4      	adds	r1, #164	@ 0xa4
   26dc4:	980e      	ldr	r0, [sp, #56]	@ 0x38
   26dc6:	7008      	strb	r0, [r1, #0]
   26dc8:	78b0      	ldrb	r0, [r6, #2]
   26dca:	aaff      	add	r2, sp, #1020	@ 0x3fc
   26dcc:	328c      	adds	r2, #140	@ 0x8c
   26dce:	7090      	strb	r0, [r2, #2]
   26dd0:	7830      	ldrb	r0, [r6, #0]
   26dd2:	7873      	ldrb	r3, [r6, #1]
   26dd4:	021b      	lsls	r3, r3, #8
   26dd6:	1818      	adds	r0, r3, r0
   26dd8:	8010      	strh	r0, [r2, #0]
   26dda:	9809      	ldr	r0, [sp, #36]	@ 0x24
   26ddc:	6800      	ldr	r0, [r0, #0]
   26dde:	900f      	str	r0, [sp, #60]	@ 0x3c
   26de0:	3108      	adds	r1, #8
   26de2:	a8c9      	add	r0, sp, #804	@ 0x324
   26de4:	2215      	movs	r2, #21
   26de6:	f001 fa7a 	bl	282de <__aeabi_memcpy>
   26dea:	a8ff      	add	r0, sp, #1020	@ 0x3fc
   26dec:	30a4      	adds	r0, #164	@ 0xa4
   26dee:	7802      	ldrb	r2, [r0, #0]
   26df0:	2a02      	cmp	r2, #2
   26df2:	d003      	beq.n	26dfc <_start+0x67f8>
   26df4:	2109      	movs	r1, #9
   26df6:	4620      	mov	r0, r4
   26df8:	f001 f8a4 	bl	27f44 <_ZN9allow_pin12dynamic_type7unshare17ha4091652f9b609c4E>
   26dfc:	48c2      	ldr	r0, [pc, #776]	@ (27108 <_start+0x6b04>)
   26dfe:	4468      	add	r0, sp
   26e00:	7802      	ldrb	r2, [r0, #0]
   26e02:	2a02      	cmp	r2, #2
   26e04:	d003      	beq.n	26e0e <_start+0x680a>
   26e06:	2105      	movs	r1, #5
   26e08:	4620      	mov	r0, r4
   26e0a:	f001 f89b 	bl	27f44 <_ZN9allow_pin12dynamic_type7unshare17ha4091652f9b609c4E>
   26e0e:	9808      	ldr	r0, [sp, #32]
   26e10:	2800      	cmp	r0, #0
   26e12:	d001      	beq.n	26e18 <_start+0x6814>
   26e14:	f7fb f99e 	bl	22154 <_start+0x1b50>
   26e18:	4ebc      	ldr	r6, [pc, #752]	@ (2710c <_start+0x6b08>)
   26e1a:	446e      	add	r6, sp
   26e1c:	1c70      	adds	r0, r6, #1
   26e1e:	9006      	str	r0, [sp, #24]
   26e20:	a9ff      	add	r1, sp, #1020	@ 0x3fc
   26e22:	318c      	adds	r1, #140	@ 0x8c
   26e24:	2203      	movs	r2, #3
   26e26:	920a      	str	r2, [sp, #40]	@ 0x28
   26e28:	f001 fa59 	bl	282de <__aeabi_memcpy>
   26e2c:	a89f      	add	r0, sp, #636	@ 0x27c
   26e2e:	9008      	str	r0, [sp, #32]
   26e30:	a9c9      	add	r1, sp, #804	@ 0x324
   26e32:	2415      	movs	r4, #21
   26e34:	4622      	mov	r2, r4
   26e36:	f001 fa52 	bl	282de <__aeabi_memcpy>
   26e3a:	4630      	mov	r0, r6
   26e3c:	3008      	adds	r0, #8
   26e3e:	9908      	ldr	r1, [sp, #32]
   26e40:	4622      	mov	r2, r4
   26e42:	f001 fa4c 	bl	282de <__aeabi_memcpy>
   26e46:	9c0e      	ldr	r4, [sp, #56]	@ 0x38
   26e48:	7034      	strb	r4, [r6, #0]
   26e4a:	980c      	ldr	r0, [sp, #48]	@ 0x30
   26e4c:	990f      	ldr	r1, [sp, #60]	@ 0x3c
   26e4e:	6041      	str	r1, [r0, #4]
   26e50:	4ead      	ldr	r6, [pc, #692]	@ (27108 <_start+0x6b04>)
   26e52:	446e      	add	r6, sp
   26e54:	1c70      	adds	r0, r6, #1
   26e56:	215d      	movs	r1, #93	@ 0x5d
   26e58:	9008      	str	r0, [sp, #32]
   26e5a:	f001 f880 	bl	27f5e <__aeabi_memclr>
   26e5e:	7034      	strb	r4, [r6, #0]
   26e60:	980d      	ldr	r0, [sp, #52]	@ 0x34
   26e62:	9000      	str	r0, [sp, #0]
   26e64:	2108      	movs	r1, #8
   26e66:	231c      	movs	r3, #28
   26e68:	48a9      	ldr	r0, [pc, #676]	@ (27110 <_start+0x6b0c>)
   26e6a:	9a06      	ldr	r2, [sp, #24]
   26e6c:	f7f9 fa16 	bl	2029c <_ZN9allow_pin12dynamic_type11allow_inner17hf1099571477a6939E>
   26e70:	910f      	str	r1, [sp, #60]	@ 0x3c
   26e72:	07c0      	lsls	r0, r0, #31
   26e74:	d11b      	bne.n	26eae <_start+0x68aa>
   26e76:	48a5      	ldr	r0, [pc, #660]	@ (2710c <_start+0x6b08>)
   26e78:	4468      	add	r0, sp
   26e7a:	990d      	ldr	r1, [sp, #52]	@ 0x34
   26e7c:	7001      	strb	r1, [r0, #0]
   26e7e:	980a      	ldr	r0, [sp, #40]	@ 0x28
   26e80:	9000      	str	r0, [sp, #0]
   26e82:	2105      	movs	r1, #5
   26e84:	235d      	movs	r3, #93	@ 0x5d
   26e86:	48a2      	ldr	r0, [pc, #648]	@ (27110 <_start+0x6b0c>)
   26e88:	9a08      	ldr	r2, [sp, #32]
   26e8a:	f7f9 fa07 	bl	2029c <_ZN9allow_pin12dynamic_type11allow_inner17hf1099571477a6939E>
   26e8e:	910f      	str	r1, [sp, #60]	@ 0x3c
   26e90:	07c0      	lsls	r0, r0, #31
   26e92:	d10c      	bne.n	26eae <_start+0x68aa>
   26e94:	489c      	ldr	r0, [pc, #624]	@ (27108 <_start+0x6b04>)
   26e96:	4468      	add	r0, sp
   26e98:	990a      	ldr	r1, [sp, #40]	@ 0x28
   26e9a:	7001      	strb	r1, [r0, #0]
   26e9c:	489c      	ldr	r0, [pc, #624]	@ (27110 <_start+0x6b0c>)
   26e9e:	2108      	movs	r1, #8
   26ea0:	2205      	movs	r2, #5
   26ea2:	2400      	movs	r4, #0
   26ea4:	4623      	mov	r3, r4
   26ea6:	df02      	svc	2
   26ea8:	910f      	str	r1, [sp, #60]	@ 0x3c
   26eaa:	287f      	cmp	r0, #127	@ 0x7f
   26eac:	d801      	bhi.n	26eb2 <_start+0x68ae>
   26eae:	9c0b      	ldr	r4, [sp, #44]	@ 0x2c
   26eb0:	e02c      	b.n	26f0c <_start+0x6908>
   26eb2:	4896      	ldr	r0, [pc, #600]	@ (2710c <_start+0x6b08>)
   26eb4:	4468      	add	r0, sp
   26eb6:	7802      	ldrb	r2, [r0, #0]
   26eb8:	2a02      	cmp	r2, #2
   26eba:	d00d      	beq.n	26ed8 <_start+0x68d4>
   26ebc:	2108      	movs	r1, #8
   26ebe:	4894      	ldr	r0, [pc, #592]	@ (27110 <_start+0x6b0c>)
   26ec0:	f001 f840 	bl	27f44 <_ZN9allow_pin12dynamic_type7unshare17ha4091652f9b609c4E>
   26ec4:	4891      	ldr	r0, [pc, #580]	@ (2710c <_start+0x6b08>)
   26ec6:	4468      	add	r0, sp
   26ec8:	990e      	ldr	r1, [sp, #56]	@ 0x38
   26eca:	7001      	strb	r1, [r0, #0]
   26ecc:	488e      	ldr	r0, [pc, #568]	@ (27108 <_start+0x6b04>)
   26ece:	4468      	add	r0, sp
   26ed0:	7800      	ldrb	r0, [r0, #0]
   26ed2:	900a      	str	r0, [sp, #40]	@ 0x28
   26ed4:	2802      	cmp	r0, #2
   26ed6:	d004      	beq.n	26ee2 <_start+0x68de>
   26ed8:	2105      	movs	r1, #5
   26eda:	488d      	ldr	r0, [pc, #564]	@ (27110 <_start+0x6b0c>)
   26edc:	9a0a      	ldr	r2, [sp, #40]	@ 0x28
   26ede:	f001 f831 	bl	27f44 <_ZN9allow_pin12dynamic_type7unshare17ha4091652f9b609c4E>
   26ee2:	4989      	ldr	r1, [pc, #548]	@ (27108 <_start+0x6b04>)
   26ee4:	4469      	add	r1, sp
   26ee6:	980e      	ldr	r0, [sp, #56]	@ 0x38
   26ee8:	7008      	strb	r0, [r1, #0]
   26eea:	9b08      	ldr	r3, [sp, #32]
   26eec:	7898      	ldrb	r0, [r3, #2]
   26eee:	aac9      	add	r2, sp, #804	@ 0x324
   26ef0:	7090      	strb	r0, [r2, #2]
   26ef2:	7818      	ldrb	r0, [r3, #0]
   26ef4:	785b      	ldrb	r3, [r3, #1]
   26ef6:	021b      	lsls	r3, r3, #8
   26ef8:	1818      	adds	r0, r3, r0
   26efa:	8010      	strh	r0, [r2, #0]
   26efc:	980c      	ldr	r0, [sp, #48]	@ 0x30
   26efe:	6d40      	ldr	r0, [r0, #84]	@ 0x54
   26f00:	900f      	str	r0, [sp, #60]	@ 0x3c
   26f02:	3108      	adds	r1, #8
   26f04:	a89f      	add	r0, sp, #636	@ 0x27c
   26f06:	2256      	movs	r2, #86	@ 0x56
   26f08:	f001 f889 	bl	2801e <__aeabi_memcpy4>
   26f0c:	487e      	ldr	r0, [pc, #504]	@ (27108 <_start+0x6b04>)
   26f0e:	4468      	add	r0, sp
   26f10:	7802      	ldrb	r2, [r0, #0]
   26f12:	2a02      	cmp	r2, #2
   26f14:	d003      	beq.n	26f1e <_start+0x691a>
   26f16:	2105      	movs	r1, #5
   26f18:	487d      	ldr	r0, [pc, #500]	@ (27110 <_start+0x6b0c>)
   26f1a:	f001 f813 	bl	27f44 <_ZN9allow_pin12dynamic_type7unshare17ha4091652f9b609c4E>
   26f1e:	487b      	ldr	r0, [pc, #492]	@ (2710c <_start+0x6b08>)
   26f20:	4468      	add	r0, sp
   26f22:	7802      	ldrb	r2, [r0, #0]
   26f24:	2a02      	cmp	r2, #2
   26f26:	d003      	beq.n	26f30 <_start+0x692c>
   26f28:	2108      	movs	r1, #8
   26f2a:	4879      	ldr	r0, [pc, #484]	@ (27110 <_start+0x6b0c>)
   26f2c:	f001 f80a 	bl	27f44 <_ZN9allow_pin12dynamic_type7unshare17ha4091652f9b609c4E>
   26f30:	2c00      	cmp	r4, #0
   26f32:	d001      	beq.n	26f38 <_start+0x6934>
   26f34:	f7fb f90e 	bl	22154 <_start+0x1b50>
   26f38:	4c73      	ldr	r4, [pc, #460]	@ (27108 <_start+0x6b04>)
   26f3a:	446c      	add	r4, sp
   26f3c:	1c60      	adds	r0, r4, #1
   26f3e:	9006      	str	r0, [sp, #24]
   26f40:	a9c9      	add	r1, sp, #804	@ 0x324
   26f42:	2203      	movs	r2, #3
   26f44:	920a      	str	r2, [sp, #40]	@ 0x28
   26f46:	f001 f9ca 	bl	282de <__aeabi_memcpy>
   26f4a:	a8ff      	add	r0, sp, #1020	@ 0x3fc
   26f4c:	30a4      	adds	r0, #164	@ 0xa4
   26f4e:	9008      	str	r0, [sp, #32]
   26f50:	a99f      	add	r1, sp, #636	@ 0x27c
   26f52:	2656      	movs	r6, #86	@ 0x56
   26f54:	4632      	mov	r2, r6
   26f56:	f001 f862 	bl	2801e <__aeabi_memcpy4>
   26f5a:	4620      	mov	r0, r4
   26f5c:	3008      	adds	r0, #8
   26f5e:	9908      	ldr	r1, [sp, #32]
   26f60:	4632      	mov	r2, r6
   26f62:	f001 f85c 	bl	2801e <__aeabi_memcpy4>
   26f66:	9e0e      	ldr	r6, [sp, #56]	@ 0x38
   26f68:	7026      	strb	r6, [r4, #0]
   26f6a:	980c      	ldr	r0, [sp, #48]	@ 0x30
   26f6c:	990f      	ldr	r1, [sp, #60]	@ 0x3c
   26f6e:	6541      	str	r1, [r0, #84]	@ 0x54
   26f70:	acff      	add	r4, sp, #1020	@ 0x3fc
   26f72:	34a4      	adds	r4, #164	@ 0xa4
   26f74:	1c60      	adds	r0, r4, #1
   26f76:	2112      	movs	r1, #18
   26f78:	9008      	str	r0, [sp, #32]
   26f7a:	f000 fff0 	bl	27f5e <__aeabi_memclr>
   26f7e:	7026      	strb	r6, [r4, #0]
   26f80:	980d      	ldr	r0, [sp, #52]	@ 0x34
   26f82:	9000      	str	r0, [sp, #0]
   26f84:	2100      	movs	r1, #0
   26f86:	235d      	movs	r3, #93	@ 0x5d
   26f88:	4862      	ldr	r0, [pc, #392]	@ (27114 <_start+0x6b10>)
   26f8a:	9a06      	ldr	r2, [sp, #24]
   26f8c:	f7f9 f986 	bl	2029c <_ZN9allow_pin12dynamic_type11allow_inner17hf1099571477a6939E>
   26f90:	910f      	str	r1, [sp, #60]	@ 0x3c
   26f92:	07c0      	lsls	r0, r0, #31
   26f94:	d11c      	bne.n	26fd0 <_start+0x69cc>
   26f96:	485c      	ldr	r0, [pc, #368]	@ (27108 <_start+0x6b04>)
   26f98:	4468      	add	r0, sp
   26f9a:	990d      	ldr	r1, [sp, #52]	@ 0x34
   26f9c:	7001      	strb	r1, [r0, #0]
   26f9e:	980a      	ldr	r0, [sp, #40]	@ 0x28
   26fa0:	9000      	str	r0, [sp, #0]
   26fa2:	2102      	movs	r1, #2
   26fa4:	2312      	movs	r3, #18
   26fa6:	485b      	ldr	r0, [pc, #364]	@ (27114 <_start+0x6b10>)
   26fa8:	9a08      	ldr	r2, [sp, #32]
   26faa:	f7f9 f977 	bl	2029c <_ZN9allow_pin12dynamic_type11allow_inner17hf1099571477a6939E>
   26fae:	910f      	str	r1, [sp, #60]	@ 0x3c
   26fb0:	07c0      	lsls	r0, r0, #31
   26fb2:	d10d      	bne.n	26fd0 <_start+0x69cc>
   26fb4:	a8ff      	add	r0, sp, #1020	@ 0x3fc
   26fb6:	30a4      	adds	r0, #164	@ 0xa4
   26fb8:	990a      	ldr	r1, [sp, #40]	@ 0x28
   26fba:	7001      	strb	r1, [r0, #0]
   26fbc:	4855      	ldr	r0, [pc, #340]	@ (27114 <_start+0x6b10>)
   26fbe:	2402      	movs	r4, #2
   26fc0:	2600      	movs	r6, #0
   26fc2:	4631      	mov	r1, r6
   26fc4:	4622      	mov	r2, r4
   26fc6:	4633      	mov	r3, r6
   26fc8:	df02      	svc	2
   26fca:	910f      	str	r1, [sp, #60]	@ 0x3c
   26fcc:	287f      	cmp	r0, #127	@ 0x7f
   26fce:	d801      	bhi.n	26fd4 <_start+0x69d0>
   26fd0:	9e0b      	ldr	r6, [sp, #44]	@ 0x2c
   26fd2:	e02e      	b.n	27032 <_start+0x6a2e>
   26fd4:	484c      	ldr	r0, [pc, #304]	@ (27108 <_start+0x6b04>)
   26fd6:	4468      	add	r0, sp
   26fd8:	7802      	ldrb	r2, [r0, #0]
   26fda:	2a02      	cmp	r2, #2
   26fdc:	d00c      	beq.n	26ff8 <_start+0x69f4>
   26fde:	2100      	movs	r1, #0
   26fe0:	484c      	ldr	r0, [pc, #304]	@ (27114 <_start+0x6b10>)
   26fe2:	f000 ffaf 	bl	27f44 <_ZN9allow_pin12dynamic_type7unshare17ha4091652f9b609c4E>
   26fe6:	4848      	ldr	r0, [pc, #288]	@ (27108 <_start+0x6b04>)
   26fe8:	4468      	add	r0, sp
   26fea:	7004      	strb	r4, [r0, #0]
   26fec:	a8ff      	add	r0, sp, #1020	@ 0x3fc
   26fee:	30a4      	adds	r0, #164	@ 0xa4
   26ff0:	7800      	ldrb	r0, [r0, #0]
   26ff2:	900a      	str	r0, [sp, #40]	@ 0x28
   26ff4:	2802      	cmp	r0, #2
   26ff6:	d004      	beq.n	27002 <_start+0x69fe>
   26ff8:	2102      	movs	r1, #2
   26ffa:	4846      	ldr	r0, [pc, #280]	@ (27114 <_start+0x6b10>)
   26ffc:	9a0a      	ldr	r2, [sp, #40]	@ 0x28
   26ffe:	f000 ffa1 	bl	27f44 <_ZN9allow_pin12dynamic_type7unshare17ha4091652f9b609c4E>
   27002:	a8ff      	add	r0, sp, #1020	@ 0x3fc
   27004:	30a4      	adds	r0, #164	@ 0xa4
   27006:	7004      	strb	r4, [r0, #0]
   27008:	9b08      	ldr	r3, [sp, #32]
   2700a:	7899      	ldrb	r1, [r3, #2]
   2700c:	aaff      	add	r2, sp, #1020	@ 0x3fc
   2700e:	328c      	adds	r2, #140	@ 0x8c
   27010:	7091      	strb	r1, [r2, #2]
   27012:	7819      	ldrb	r1, [r3, #0]
   27014:	785b      	ldrb	r3, [r3, #1]
   27016:	021b      	lsls	r3, r3, #8
   27018:	1859      	adds	r1, r3, r1
   2701a:	8011      	strh	r1, [r2, #0]
   2701c:	3008      	adds	r0, #8
   2701e:	9909      	ldr	r1, [sp, #36]	@ 0x24
   27020:	6809      	ldr	r1, [r1, #0]
   27022:	910f      	str	r1, [sp, #60]	@ 0x3c
   27024:	a9c9      	add	r1, sp, #804	@ 0x324
   27026:	c80c      	ldmia	r0!, {r2, r3}
   27028:	c10c      	stmia	r1!, {r2, r3}
   2702a:	8802      	ldrh	r2, [r0, #0]
   2702c:	800a      	strh	r2, [r1, #0]
   2702e:	7880      	ldrb	r0, [r0, #2]
   27030:	7088      	strb	r0, [r1, #2]
   27032:	a8ff      	add	r0, sp, #1020	@ 0x3fc
   27034:	30a4      	adds	r0, #164	@ 0xa4
   27036:	7802      	ldrb	r2, [r0, #0]
   27038:	2a02      	cmp	r2, #2
   2703a:	d003      	beq.n	27044 <_start+0x6a40>
   2703c:	2102      	movs	r1, #2
   2703e:	4835      	ldr	r0, [pc, #212]	@ (27114 <_start+0x6b10>)
   27040:	f000 ff80 	bl	27f44 <_ZN9allow_pin12dynamic_type7unshare17ha4091652f9b609c4E>
   27044:	4830      	ldr	r0, [pc, #192]	@ (27108 <_start+0x6b04>)
   27046:	4468      	add	r0, sp
   27048:	7802      	ldrb	r2, [r0, #0]
   2704a:	2a02      	cmp	r2, #2
   2704c:	d003      	beq.n	27056 <_start+0x6a52>
   2704e:	2100      	movs	r1, #0
   27050:	4830      	ldr	r0, [pc, #192]	@ (27114 <_start+0x6b10>)
   27052:	f000 ff77 	bl	27f44 <_ZN9allow_pin12dynamic_type7unshare17ha4091652f9b609c4E>
   27056:	2e00      	cmp	r6, #0
   27058:	d001      	beq.n	2705e <_start+0x6a5a>
   2705a:	f7fb f87b 	bl	22154 <_start+0x1b50>
   2705e:	4e2b      	ldr	r6, [pc, #172]	@ (2710c <_start+0x6b08>)
   27060:	446e      	add	r6, sp
   27062:	1c70      	adds	r0, r6, #1
   27064:	9005      	str	r0, [sp, #20]
   27066:	a9ff      	add	r1, sp, #1020	@ 0x3fc
   27068:	318c      	adds	r1, #140	@ 0x8c
   2706a:	2203      	movs	r2, #3
   2706c:	9208      	str	r2, [sp, #32]
   2706e:	f001 f936 	bl	282de <__aeabi_memcpy>
   27072:	a9c9      	add	r1, sp, #804	@ 0x324
   27074:	a89f      	add	r0, sp, #636	@ 0x27c
   27076:	4602      	mov	r2, r0
   27078:	c918      	ldmia	r1!, {r3, r4}
   2707a:	c218      	stmia	r2!, {r3, r4}
   2707c:	880b      	ldrh	r3, [r1, #0]
   2707e:	8013      	strh	r3, [r2, #0]
   27080:	7889      	ldrb	r1, [r1, #2]
   27082:	7091      	strb	r1, [r2, #2]
   27084:	4631      	mov	r1, r6
   27086:	3108      	adds	r1, #8
   27088:	c80c      	ldmia	r0!, {r2, r3}
   2708a:	c10c      	stmia	r1!, {r2, r3}
   2708c:	8802      	ldrh	r2, [r0, #0]
   2708e:	800a      	strh	r2, [r1, #0]
   27090:	7880      	ldrb	r0, [r0, #2]
   27092:	7088      	strb	r0, [r1, #2]
   27094:	9c0e      	ldr	r4, [sp, #56]	@ 0x38
   27096:	7034      	strb	r4, [r6, #0]
   27098:	980c      	ldr	r0, [sp, #48]	@ 0x30
   2709a:	990f      	ldr	r1, [sp, #60]	@ 0x3c
   2709c:	6041      	str	r1, [r0, #4]
   2709e:	4e1a      	ldr	r6, [pc, #104]	@ (27108 <_start+0x6b04>)
   270a0:	446e      	add	r6, sp
   270a2:	1c70      	adds	r0, r6, #1
   270a4:	2144      	movs	r1, #68	@ 0x44
   270a6:	9006      	str	r0, [sp, #24]
   270a8:	f000 ff59 	bl	27f5e <__aeabi_memclr>
   270ac:	7034      	strb	r4, [r6, #0]
   270ae:	980d      	ldr	r0, [sp, #52]	@ 0x34
   270b0:	9000      	str	r0, [sp, #0]
   270b2:	4819      	ldr	r0, [pc, #100]	@ (27118 <_start+0x6b14>)
   270b4:	3063      	adds	r0, #99	@ 0x63
   270b6:	2312      	movs	r3, #18
   270b8:	900a      	str	r0, [sp, #40]	@ 0x28
   270ba:	4621      	mov	r1, r4
   270bc:	9a05      	ldr	r2, [sp, #20]
   270be:	f7f9 f8ed 	bl	2029c <_ZN9allow_pin12dynamic_type11allow_inner17hf1099571477a6939E>
   270c2:	910f      	str	r1, [sp, #60]	@ 0x3c
   270c4:	07c0      	lsls	r0, r0, #31
   270c6:	d11c      	bne.n	27102 <_start+0x6afe>
   270c8:	4810      	ldr	r0, [pc, #64]	@ (2710c <_start+0x6b08>)
   270ca:	4468      	add	r0, sp
   270cc:	990d      	ldr	r1, [sp, #52]	@ 0x34
   270ce:	7001      	strb	r1, [r0, #0]
   270d0:	9808      	ldr	r0, [sp, #32]
   270d2:	9000      	str	r0, [sp, #0]
   270d4:	2109      	movs	r1, #9
   270d6:	2344      	movs	r3, #68	@ 0x44
   270d8:	980a      	ldr	r0, [sp, #40]	@ 0x28
   270da:	9a06      	ldr	r2, [sp, #24]
   270dc:	f7f9 f8de 	bl	2029c <_ZN9allow_pin12dynamic_type11allow_inner17hf1099571477a6939E>
   270e0:	910f      	str	r1, [sp, #60]	@ 0x3c
   270e2:	07c0      	lsls	r0, r0, #31
   270e4:	d10d      	bne.n	27102 <_start+0x6afe>
   270e6:	4808      	ldr	r0, [pc, #32]	@ (27108 <_start+0x6b04>)
   270e8:	4468      	add	r0, sp
   270ea:	9908      	ldr	r1, [sp, #32]
   270ec:	7001      	strb	r1, [r0, #0]
   270ee:	480b      	ldr	r0, [pc, #44]	@ (2711c <_start+0x6b18>)
   270f0:	2602      	movs	r6, #2
   270f2:	2209      	movs	r2, #9
   270f4:	2400      	movs	r4, #0
   270f6:	4631      	mov	r1, r6
   270f8:	4623      	mov	r3, r4
   270fa:	df02      	svc	2
   270fc:	910f      	str	r1, [sp, #60]	@ 0x3c
   270fe:	287f      	cmp	r0, #127	@ 0x7f
   27100:	d80e      	bhi.n	27120 <_start+0x6b1c>
   27102:	9c0b      	ldr	r4, [sp, #44]	@ 0x2c
   27104:	e037      	b.n	27176 <_start+0x6b72>
   27106:	46c0      	nop			@ (mov r8, r8)
   27108:	000005a8 	.word	0x000005a8
   2710c:	00000558 	.word	0x00000558
   27110:	00000c3e 	.word	0x00000c3e
   27114:	000015f1 	.word	0x000015f1
   27118:	000023cf 	.word	0x000023cf
   2711c:	00002432 	.word	0x00002432
   27120:	48d6      	ldr	r0, [pc, #856]	@ (2747c <_start+0x6e78>)
   27122:	4468      	add	r0, sp
   27124:	7802      	ldrb	r2, [r0, #0]
   27126:	2a02      	cmp	r2, #2
   27128:	d00c      	beq.n	27144 <_start+0x6b40>
   2712a:	980a      	ldr	r0, [sp, #40]	@ 0x28
   2712c:	4631      	mov	r1, r6
   2712e:	f000 ff09 	bl	27f44 <_ZN9allow_pin12dynamic_type7unshare17ha4091652f9b609c4E>
   27132:	48d2      	ldr	r0, [pc, #840]	@ (2747c <_start+0x6e78>)
   27134:	4468      	add	r0, sp
   27136:	7006      	strb	r6, [r0, #0]
   27138:	48d1      	ldr	r0, [pc, #836]	@ (27480 <_start+0x6e7c>)
   2713a:	4468      	add	r0, sp
   2713c:	7800      	ldrb	r0, [r0, #0]
   2713e:	9008      	str	r0, [sp, #32]
   27140:	2802      	cmp	r0, #2
   27142:	d004      	beq.n	2714e <_start+0x6b4a>
   27144:	2109      	movs	r1, #9
   27146:	980a      	ldr	r0, [sp, #40]	@ 0x28
   27148:	9a08      	ldr	r2, [sp, #32]
   2714a:	f000 fefb 	bl	27f44 <_ZN9allow_pin12dynamic_type7unshare17ha4091652f9b609c4E>
   2714e:	49cc      	ldr	r1, [pc, #816]	@ (27480 <_start+0x6e7c>)
   27150:	4469      	add	r1, sp
   27152:	700e      	strb	r6, [r1, #0]
   27154:	9b06      	ldr	r3, [sp, #24]
   27156:	7898      	ldrb	r0, [r3, #2]
   27158:	aac9      	add	r2, sp, #804	@ 0x324
   2715a:	7090      	strb	r0, [r2, #2]
   2715c:	7818      	ldrb	r0, [r3, #0]
   2715e:	785b      	ldrb	r3, [r3, #1]
   27160:	021b      	lsls	r3, r3, #8
   27162:	1818      	adds	r0, r3, r0
   27164:	8010      	strh	r0, [r2, #0]
   27166:	980c      	ldr	r0, [sp, #48]	@ 0x30
   27168:	6d40      	ldr	r0, [r0, #84]	@ 0x54
   2716a:	900f      	str	r0, [sp, #60]	@ 0x3c
   2716c:	3108      	adds	r1, #8
   2716e:	a89f      	add	r0, sp, #636	@ 0x27c
   27170:	223d      	movs	r2, #61	@ 0x3d
   27172:	f001 f8b4 	bl	282de <__aeabi_memcpy>
   27176:	48c2      	ldr	r0, [pc, #776]	@ (27480 <_start+0x6e7c>)
   27178:	4468      	add	r0, sp
   2717a:	7802      	ldrb	r2, [r0, #0]
   2717c:	2a02      	cmp	r2, #2
   2717e:	d003      	beq.n	27188 <_start+0x6b84>
   27180:	2109      	movs	r1, #9
   27182:	980a      	ldr	r0, [sp, #40]	@ 0x28
   27184:	f000 fede 	bl	27f44 <_ZN9allow_pin12dynamic_type7unshare17ha4091652f9b609c4E>
   27188:	48bc      	ldr	r0, [pc, #752]	@ (2747c <_start+0x6e78>)
   2718a:	4468      	add	r0, sp
   2718c:	7802      	ldrb	r2, [r0, #0]
   2718e:	2a02      	cmp	r2, #2
   27190:	d003      	beq.n	2719a <_start+0x6b96>
   27192:	2102      	movs	r1, #2
   27194:	980a      	ldr	r0, [sp, #40]	@ 0x28
   27196:	f000 fed5 	bl	27f44 <_ZN9allow_pin12dynamic_type7unshare17ha4091652f9b609c4E>
   2719a:	2c00      	cmp	r4, #0
   2719c:	d001      	beq.n	271a2 <_start+0x6b9e>
   2719e:	f7fa ffd9 	bl	22154 <_start+0x1b50>
   271a2:	4eb7      	ldr	r6, [pc, #732]	@ (27480 <_start+0x6e7c>)
   271a4:	446e      	add	r6, sp
   271a6:	1c70      	adds	r0, r6, #1
   271a8:	9006      	str	r0, [sp, #24]
   271aa:	a9c9      	add	r1, sp, #804	@ 0x324
   271ac:	2203      	movs	r2, #3
   271ae:	920a      	str	r2, [sp, #40]	@ 0x28
   271b0:	f001 f895 	bl	282de <__aeabi_memcpy>
   271b4:	a8ff      	add	r0, sp, #1020	@ 0x3fc
   271b6:	30a4      	adds	r0, #164	@ 0xa4
   271b8:	9008      	str	r0, [sp, #32]
   271ba:	a99f      	add	r1, sp, #636	@ 0x27c
   271bc:	243d      	movs	r4, #61	@ 0x3d
   271be:	4622      	mov	r2, r4
   271c0:	f001 f88d 	bl	282de <__aeabi_memcpy>
   271c4:	4630      	mov	r0, r6
   271c6:	3008      	adds	r0, #8
   271c8:	9908      	ldr	r1, [sp, #32]
   271ca:	4622      	mov	r2, r4
   271cc:	f001 f887 	bl	282de <__aeabi_memcpy>
   271d0:	9c0e      	ldr	r4, [sp, #56]	@ 0x38
   271d2:	7034      	strb	r4, [r6, #0]
   271d4:	980c      	ldr	r0, [sp, #48]	@ 0x30
   271d6:	990f      	ldr	r1, [sp, #60]	@ 0x3c
   271d8:	6541      	str	r1, [r0, #84]	@ 0x54
   271da:	aeff      	add	r6, sp, #1020	@ 0x3fc
   271dc:	36a4      	adds	r6, #164	@ 0xa4
   271de:	1c70      	adds	r0, r6, #1
   271e0:	2123      	movs	r1, #35	@ 0x23
   271e2:	9008      	str	r0, [sp, #32]
   271e4:	f000 febb 	bl	27f5e <__aeabi_memclr>
   271e8:	7034      	strb	r4, [r6, #0]
   271ea:	980d      	ldr	r0, [sp, #52]	@ 0x34
   271ec:	9000      	str	r0, [sp, #0]
   271ee:	48a5      	ldr	r0, [pc, #660]	@ (27484 <_start+0x6e80>)
   271f0:	30a2      	adds	r0, #162	@ 0xa2
   271f2:	2106      	movs	r1, #6
   271f4:	2344      	movs	r3, #68	@ 0x44
   271f6:	4604      	mov	r4, r0
   271f8:	9a06      	ldr	r2, [sp, #24]
   271fa:	f7f9 f84f 	bl	2029c <_ZN9allow_pin12dynamic_type11allow_inner17hf1099571477a6939E>
   271fe:	910f      	str	r1, [sp, #60]	@ 0x3c
   27200:	07c0      	lsls	r0, r0, #31
   27202:	d119      	bne.n	27238 <_start+0x6c34>
   27204:	489e      	ldr	r0, [pc, #632]	@ (27480 <_start+0x6e7c>)
   27206:	4468      	add	r0, sp
   27208:	990d      	ldr	r1, [sp, #52]	@ 0x34
   2720a:	7001      	strb	r1, [r0, #0]
   2720c:	990a      	ldr	r1, [sp, #40]	@ 0x28
   2720e:	9100      	str	r1, [sp, #0]
   27210:	2323      	movs	r3, #35	@ 0x23
   27212:	4620      	mov	r0, r4
   27214:	9a08      	ldr	r2, [sp, #32]
   27216:	f7f9 f841 	bl	2029c <_ZN9allow_pin12dynamic_type11allow_inner17hf1099571477a6939E>
   2721a:	910f      	str	r1, [sp, #60]	@ 0x3c
   2721c:	07c0      	lsls	r0, r0, #31
   2721e:	d10b      	bne.n	27238 <_start+0x6c34>
   27220:	a8ff      	add	r0, sp, #1020	@ 0x3fc
   27222:	30a4      	adds	r0, #164	@ 0xa4
   27224:	9a0a      	ldr	r2, [sp, #40]	@ 0x28
   27226:	7002      	strb	r2, [r0, #0]
   27228:	4897      	ldr	r0, [pc, #604]	@ (27488 <_start+0x6e84>)
   2722a:	2106      	movs	r1, #6
   2722c:	2600      	movs	r6, #0
   2722e:	4633      	mov	r3, r6
   27230:	df02      	svc	2
   27232:	910f      	str	r1, [sp, #60]	@ 0x3c
   27234:	287f      	cmp	r0, #127	@ 0x7f
   27236:	d801      	bhi.n	2723c <_start+0x6c38>
   27238:	9e0b      	ldr	r6, [sp, #44]	@ 0x2c
   2723a:	e02d      	b.n	27298 <_start+0x6c94>
   2723c:	4890      	ldr	r0, [pc, #576]	@ (27480 <_start+0x6e7c>)
   2723e:	4468      	add	r0, sp
   27240:	7802      	ldrb	r2, [r0, #0]
   27242:	2a02      	cmp	r2, #2
   27244:	d00d      	beq.n	27262 <_start+0x6c5e>
   27246:	2106      	movs	r1, #6
   27248:	4620      	mov	r0, r4
   2724a:	f000 fe7b 	bl	27f44 <_ZN9allow_pin12dynamic_type7unshare17ha4091652f9b609c4E>
   2724e:	488c      	ldr	r0, [pc, #560]	@ (27480 <_start+0x6e7c>)
   27250:	4468      	add	r0, sp
   27252:	990e      	ldr	r1, [sp, #56]	@ 0x38
   27254:	7001      	strb	r1, [r0, #0]
   27256:	a8ff      	add	r0, sp, #1020	@ 0x3fc
   27258:	30a4      	adds	r0, #164	@ 0xa4
   2725a:	7800      	ldrb	r0, [r0, #0]
   2725c:	900a      	str	r0, [sp, #40]	@ 0x28
   2725e:	2802      	cmp	r0, #2
   27260:	d004      	beq.n	2726c <_start+0x6c68>
   27262:	2103      	movs	r1, #3
   27264:	4620      	mov	r0, r4
   27266:	9a0a      	ldr	r2, [sp, #40]	@ 0x28
   27268:	f000 fe6c 	bl	27f44 <_ZN9allow_pin12dynamic_type7unshare17ha4091652f9b609c4E>
   2726c:	a9ff      	add	r1, sp, #1020	@ 0x3fc
   2726e:	31a4      	adds	r1, #164	@ 0xa4
   27270:	980e      	ldr	r0, [sp, #56]	@ 0x38
   27272:	7008      	strb	r0, [r1, #0]
   27274:	9b08      	ldr	r3, [sp, #32]
   27276:	7898      	ldrb	r0, [r3, #2]
   27278:	4a80      	ldr	r2, [pc, #512]	@ (2747c <_start+0x6e78>)
   2727a:	446a      	add	r2, sp
   2727c:	7090      	strb	r0, [r2, #2]
   2727e:	7818      	ldrb	r0, [r3, #0]
   27280:	785b      	ldrb	r3, [r3, #1]
   27282:	021b      	lsls	r3, r3, #8
   27284:	1818      	adds	r0, r3, r0
   27286:	8010      	strh	r0, [r2, #0]
   27288:	9809      	ldr	r0, [sp, #36]	@ 0x24
   2728a:	6800      	ldr	r0, [r0, #0]
   2728c:	900f      	str	r0, [sp, #60]	@ 0x3c
   2728e:	3108      	adds	r1, #8
   27290:	a89f      	add	r0, sp, #636	@ 0x27c
   27292:	221c      	movs	r2, #28
   27294:	f001 f823 	bl	282de <__aeabi_memcpy>
   27298:	a8ff      	add	r0, sp, #1020	@ 0x3fc
   2729a:	30a4      	adds	r0, #164	@ 0xa4
   2729c:	7802      	ldrb	r2, [r0, #0]
   2729e:	2a02      	cmp	r2, #2
   272a0:	d003      	beq.n	272aa <_start+0x6ca6>
   272a2:	2103      	movs	r1, #3
   272a4:	4620      	mov	r0, r4
   272a6:	f000 fe4d 	bl	27f44 <_ZN9allow_pin12dynamic_type7unshare17ha4091652f9b609c4E>
   272aa:	4875      	ldr	r0, [pc, #468]	@ (27480 <_start+0x6e7c>)
   272ac:	4468      	add	r0, sp
   272ae:	7802      	ldrb	r2, [r0, #0]
   272b0:	2a02      	cmp	r2, #2
   272b2:	d003      	beq.n	272bc <_start+0x6cb8>
   272b4:	2106      	movs	r1, #6
   272b6:	4620      	mov	r0, r4
   272b8:	f000 fe44 	bl	27f44 <_ZN9allow_pin12dynamic_type7unshare17ha4091652f9b609c4E>
   272bc:	2e00      	cmp	r6, #0
   272be:	d001      	beq.n	272c4 <_start+0x6cc0>
   272c0:	f7fa ff48 	bl	22154 <_start+0x1b50>
   272c4:	acff      	add	r4, sp, #1020	@ 0x3fc
   272c6:	34a4      	adds	r4, #164	@ 0xa4
   272c8:	1c60      	adds	r0, r4, #1
   272ca:	9008      	str	r0, [sp, #32]
   272cc:	496b      	ldr	r1, [pc, #428]	@ (2747c <_start+0x6e78>)
   272ce:	4469      	add	r1, sp
   272d0:	2203      	movs	r2, #3
   272d2:	920a      	str	r2, [sp, #40]	@ 0x28
   272d4:	f001 f803 	bl	282de <__aeabi_memcpy>
   272d8:	a8ff      	add	r0, sp, #1020	@ 0x3fc
   272da:	3048      	adds	r0, #72	@ 0x48
   272dc:	9006      	str	r0, [sp, #24]
   272de:	a99f      	add	r1, sp, #636	@ 0x27c
   272e0:	261c      	movs	r6, #28
   272e2:	4632      	mov	r2, r6
   272e4:	f000 fffb 	bl	282de <__aeabi_memcpy>
   272e8:	980e      	ldr	r0, [sp, #56]	@ 0x38
   272ea:	7020      	strb	r0, [r4, #0]
   272ec:	9809      	ldr	r0, [sp, #36]	@ 0x24
   272ee:	990f      	ldr	r1, [sp, #60]	@ 0x3c
   272f0:	6001      	str	r1, [r0, #0]
   272f2:	3408      	adds	r4, #8
   272f4:	4620      	mov	r0, r4
   272f6:	9906      	ldr	r1, [sp, #24]
   272f8:	4632      	mov	r2, r6
   272fa:	f000 fff0 	bl	282de <__aeabi_memcpy>
   272fe:	4e60      	ldr	r6, [pc, #384]	@ (27480 <_start+0x6e7c>)
   27300:	446e      	add	r6, sp
   27302:	1c74      	adds	r4, r6, #1
   27304:	2124      	movs	r1, #36	@ 0x24
   27306:	4620      	mov	r0, r4
   27308:	f000 fe29 	bl	27f5e <__aeabi_memclr>
   2730c:	980e      	ldr	r0, [sp, #56]	@ 0x38
   2730e:	7030      	strb	r0, [r6, #0]
   27310:	990d      	ldr	r1, [sp, #52]	@ 0x34
   27312:	9100      	str	r1, [sp, #0]
   27314:	2323      	movs	r3, #35	@ 0x23
   27316:	485d      	ldr	r0, [pc, #372]	@ (2748c <_start+0x6e88>)
   27318:	9a08      	ldr	r2, [sp, #32]
   2731a:	f7f8 ffbf 	bl	2029c <_ZN9allow_pin12dynamic_type11allow_inner17hf1099571477a6939E>
   2731e:	910f      	str	r1, [sp, #60]	@ 0x3c
   27320:	07c0      	lsls	r0, r0, #31
   27322:	d11b      	bne.n	2735c <_start+0x6d58>
   27324:	a8ff      	add	r0, sp, #1020	@ 0x3fc
   27326:	30a4      	adds	r0, #164	@ 0xa4
   27328:	990d      	ldr	r1, [sp, #52]	@ 0x34
   2732a:	7001      	strb	r1, [r0, #0]
   2732c:	980a      	ldr	r0, [sp, #40]	@ 0x28
   2732e:	9000      	str	r0, [sp, #0]
   27330:	2108      	movs	r1, #8
   27332:	2324      	movs	r3, #36	@ 0x24
   27334:	4855      	ldr	r0, [pc, #340]	@ (2748c <_start+0x6e88>)
   27336:	4622      	mov	r2, r4
   27338:	f7f8 ffb0 	bl	2029c <_ZN9allow_pin12dynamic_type11allow_inner17hf1099571477a6939E>
   2733c:	910f      	str	r1, [sp, #60]	@ 0x3c
   2733e:	07c0      	lsls	r0, r0, #31
   27340:	d10c      	bne.n	2735c <_start+0x6d58>
   27342:	484f      	ldr	r0, [pc, #316]	@ (27480 <_start+0x6e7c>)
   27344:	4468      	add	r0, sp
   27346:	990a      	ldr	r1, [sp, #40]	@ 0x28
   27348:	7001      	strb	r1, [r0, #0]
   2734a:	4850      	ldr	r0, [pc, #320]	@ (2748c <_start+0x6e88>)
   2734c:	2104      	movs	r1, #4
   2734e:	2208      	movs	r2, #8
   27350:	2600      	movs	r6, #0
   27352:	4633      	mov	r3, r6
   27354:	df02      	svc	2
   27356:	910f      	str	r1, [sp, #60]	@ 0x3c
   27358:	287f      	cmp	r0, #127	@ 0x7f
   2735a:	d801      	bhi.n	27360 <_start+0x6d5c>
   2735c:	9e0b      	ldr	r6, [sp, #44]	@ 0x2c
   2735e:	e02c      	b.n	273ba <_start+0x6db6>
   27360:	a8ff      	add	r0, sp, #1020	@ 0x3fc
   27362:	30a4      	adds	r0, #164	@ 0xa4
   27364:	7802      	ldrb	r2, [r0, #0]
   27366:	2a02      	cmp	r2, #2
   27368:	d00d      	beq.n	27386 <_start+0x6d82>
   2736a:	2104      	movs	r1, #4
   2736c:	4847      	ldr	r0, [pc, #284]	@ (2748c <_start+0x6e88>)
   2736e:	f000 fde9 	bl	27f44 <_ZN9allow_pin12dynamic_type7unshare17ha4091652f9b609c4E>
   27372:	a8ff      	add	r0, sp, #1020	@ 0x3fc
   27374:	30a4      	adds	r0, #164	@ 0xa4
   27376:	990e      	ldr	r1, [sp, #56]	@ 0x38
   27378:	7001      	strb	r1, [r0, #0]
   2737a:	4841      	ldr	r0, [pc, #260]	@ (27480 <_start+0x6e7c>)
   2737c:	4468      	add	r0, sp
   2737e:	7800      	ldrb	r0, [r0, #0]
   27380:	900a      	str	r0, [sp, #40]	@ 0x28
   27382:	2802      	cmp	r0, #2
   27384:	d004      	beq.n	27390 <_start+0x6d8c>
   27386:	2108      	movs	r1, #8
   27388:	4840      	ldr	r0, [pc, #256]	@ (2748c <_start+0x6e88>)
   2738a:	9a0a      	ldr	r2, [sp, #40]	@ 0x28
   2738c:	f000 fdda 	bl	27f44 <_ZN9allow_pin12dynamic_type7unshare17ha4091652f9b609c4E>
   27390:	493b      	ldr	r1, [pc, #236]	@ (27480 <_start+0x6e7c>)
   27392:	4469      	add	r1, sp
   27394:	980e      	ldr	r0, [sp, #56]	@ 0x38
   27396:	7008      	strb	r0, [r1, #0]
   27398:	78a0      	ldrb	r0, [r4, #2]
   2739a:	aaff      	add	r2, sp, #1020	@ 0x3fc
   2739c:	328c      	adds	r2, #140	@ 0x8c
   2739e:	7090      	strb	r0, [r2, #2]
   273a0:	7820      	ldrb	r0, [r4, #0]
   273a2:	7863      	ldrb	r3, [r4, #1]
   273a4:	021b      	lsls	r3, r3, #8
   273a6:	1818      	adds	r0, r3, r0
   273a8:	8010      	strh	r0, [r2, #0]
   273aa:	980c      	ldr	r0, [sp, #48]	@ 0x30
   273ac:	6d40      	ldr	r0, [r0, #84]	@ 0x54
   273ae:	900f      	str	r0, [sp, #60]	@ 0x3c
   273b0:	3108      	adds	r1, #8
   273b2:	a8c9      	add	r0, sp, #804	@ 0x324
   273b4:	221d      	movs	r2, #29
   273b6:	f000 ff92 	bl	282de <__aeabi_memcpy>
   273ba:	4831      	ldr	r0, [pc, #196]	@ (27480 <_start+0x6e7c>)
   273bc:	4468      	add	r0, sp
   273be:	7802      	ldrb	r2, [r0, #0]
   273c0:	2a02      	cmp	r2, #2
   273c2:	d003      	beq.n	273cc <_start+0x6dc8>
   273c4:	2108      	movs	r1, #8
   273c6:	4831      	ldr	r0, [pc, #196]	@ (2748c <_start+0x6e88>)
   273c8:	f000 fdbc 	bl	27f44 <_ZN9allow_pin12dynamic_type7unshare17ha4091652f9b609c4E>
   273cc:	a8ff      	add	r0, sp, #1020	@ 0x3fc
   273ce:	30a4      	adds	r0, #164	@ 0xa4
   273d0:	7802      	ldrb	r2, [r0, #0]
   273d2:	2a02      	cmp	r2, #2
   273d4:	d003      	beq.n	273de <_start+0x6dda>
   273d6:	2104      	movs	r1, #4
   273d8:	482c      	ldr	r0, [pc, #176]	@ (2748c <_start+0x6e88>)
   273da:	f000 fdb3 	bl	27f44 <_ZN9allow_pin12dynamic_type7unshare17ha4091652f9b609c4E>
   273de:	2e00      	cmp	r6, #0
   273e0:	d001      	beq.n	273e6 <_start+0x6de2>
   273e2:	f7fa feb7 	bl	22154 <_start+0x1b50>
   273e6:	ae9f      	add	r6, sp, #636	@ 0x27c
   273e8:	1c70      	adds	r0, r6, #1
   273ea:	9006      	str	r0, [sp, #24]
   273ec:	a9ff      	add	r1, sp, #1020	@ 0x3fc
   273ee:	318c      	adds	r1, #140	@ 0x8c
   273f0:	2203      	movs	r2, #3
   273f2:	920a      	str	r2, [sp, #40]	@ 0x28
   273f4:	f000 ff73 	bl	282de <__aeabi_memcpy>
   273f8:	4820      	ldr	r0, [pc, #128]	@ (2747c <_start+0x6e78>)
   273fa:	4468      	add	r0, sp
   273fc:	9008      	str	r0, [sp, #32]
   273fe:	a9c9      	add	r1, sp, #804	@ 0x324
   27400:	241d      	movs	r4, #29
   27402:	4622      	mov	r2, r4
   27404:	f000 ff6b 	bl	282de <__aeabi_memcpy>
   27408:	4630      	mov	r0, r6
   2740a:	3008      	adds	r0, #8
   2740c:	9908      	ldr	r1, [sp, #32]
   2740e:	4622      	mov	r2, r4
   27410:	f000 ff65 	bl	282de <__aeabi_memcpy>
   27414:	9c0e      	ldr	r4, [sp, #56]	@ 0x38
   27416:	7034      	strb	r4, [r6, #0]
   27418:	980f      	ldr	r0, [sp, #60]	@ 0x3c
   2741a:	90a0      	str	r0, [sp, #640]	@ 0x280
   2741c:	4e18      	ldr	r6, [pc, #96]	@ (27480 <_start+0x6e7c>)
   2741e:	446e      	add	r6, sp
   27420:	1c70      	adds	r0, r6, #1
   27422:	212f      	movs	r1, #47	@ 0x2f
   27424:	9008      	str	r0, [sp, #32]
   27426:	f000 fd9a 	bl	27f5e <__aeabi_memclr>
   2742a:	7034      	strb	r4, [r6, #0]
   2742c:	980d      	ldr	r0, [sp, #52]	@ 0x34
   2742e:	9000      	str	r0, [sp, #0]
   27430:	2106      	movs	r1, #6
   27432:	2324      	movs	r3, #36	@ 0x24
   27434:	4816      	ldr	r0, [pc, #88]	@ (27490 <_start+0x6e8c>)
   27436:	9a06      	ldr	r2, [sp, #24]
   27438:	f7f8 ff30 	bl	2029c <_ZN9allow_pin12dynamic_type11allow_inner17hf1099571477a6939E>
   2743c:	910f      	str	r1, [sp, #60]	@ 0x3c
   2743e:	07c0      	lsls	r0, r0, #31
   27440:	d11a      	bne.n	27478 <_start+0x6e74>
   27442:	a89f      	add	r0, sp, #636	@ 0x27c
   27444:	990d      	ldr	r1, [sp, #52]	@ 0x34
   27446:	7001      	strb	r1, [r0, #0]
   27448:	980a      	ldr	r0, [sp, #40]	@ 0x28
   2744a:	9000      	str	r0, [sp, #0]
   2744c:	2109      	movs	r1, #9
   2744e:	232f      	movs	r3, #47	@ 0x2f
   27450:	480f      	ldr	r0, [pc, #60]	@ (27490 <_start+0x6e8c>)
   27452:	9a08      	ldr	r2, [sp, #32]
   27454:	f7f8 ff22 	bl	2029c <_ZN9allow_pin12dynamic_type11allow_inner17hf1099571477a6939E>
   27458:	910f      	str	r1, [sp, #60]	@ 0x3c
   2745a:	07c0      	lsls	r0, r0, #31
   2745c:	d10c      	bne.n	27478 <_start+0x6e74>
   2745e:	4808      	ldr	r0, [pc, #32]	@ (27480 <_start+0x6e7c>)
   27460:	4468      	add	r0, sp
   27462:	990a      	ldr	r1, [sp, #40]	@ 0x28
   27464:	7001      	strb	r1, [r0, #0]
   27466:	480a      	ldr	r0, [pc, #40]	@ (27490 <_start+0x6e8c>)
   27468:	2106      	movs	r1, #6
   2746a:	2209      	movs	r2, #9
   2746c:	2400      	movs	r4, #0
   2746e:	4623      	mov	r3, r4
   27470:	df02      	svc	2
   27472:	910f      	str	r1, [sp, #60]	@ 0x3c
   27474:	287f      	cmp	r0, #127	@ 0x7f
   27476:	d80d      	bhi.n	27494 <_start+0x6e90>
   27478:	9c0b      	ldr	r4, [sp, #44]	@ 0x2c
   2747a:	e037      	b.n	274ec <_start+0x6ee8>
   2747c:	00000558 	.word	0x00000558
   27480:	000005a8 	.word	0x000005a8
   27484:	0000091d 	.word	0x0000091d
   27488:	000009bf 	.word	0x000009bf
   2748c:	00001bd6 	.word	0x00001bd6
   27490:	00001273 	.word	0x00001273
   27494:	a89f      	add	r0, sp, #636	@ 0x27c
   27496:	7802      	ldrb	r2, [r0, #0]
   27498:	2a02      	cmp	r2, #2
   2749a:	d00c      	beq.n	274b6 <_start+0x6eb2>
   2749c:	2106      	movs	r1, #6
   2749e:	48da      	ldr	r0, [pc, #872]	@ (27808 <_start+0x7204>)
   274a0:	f000 fd50 	bl	27f44 <_ZN9allow_pin12dynamic_type7unshare17ha4091652f9b609c4E>
   274a4:	a89f      	add	r0, sp, #636	@ 0x27c
   274a6:	990e      	ldr	r1, [sp, #56]	@ 0x38
   274a8:	7001      	strb	r1, [r0, #0]
   274aa:	48d8      	ldr	r0, [pc, #864]	@ (2780c <_start+0x7208>)
   274ac:	4468      	add	r0, sp
   274ae:	7800      	ldrb	r0, [r0, #0]
   274b0:	900a      	str	r0, [sp, #40]	@ 0x28
   274b2:	2802      	cmp	r0, #2
   274b4:	d004      	beq.n	274c0 <_start+0x6ebc>
   274b6:	2109      	movs	r1, #9
   274b8:	48d3      	ldr	r0, [pc, #844]	@ (27808 <_start+0x7204>)
   274ba:	9a0a      	ldr	r2, [sp, #40]	@ 0x28
   274bc:	f000 fd42 	bl	27f44 <_ZN9allow_pin12dynamic_type7unshare17ha4091652f9b609c4E>
   274c0:	49d2      	ldr	r1, [pc, #840]	@ (2780c <_start+0x7208>)
   274c2:	4469      	add	r1, sp
   274c4:	980e      	ldr	r0, [sp, #56]	@ 0x38
   274c6:	7008      	strb	r0, [r1, #0]
   274c8:	9b08      	ldr	r3, [sp, #32]
   274ca:	7898      	ldrb	r0, [r3, #2]
   274cc:	aac9      	add	r2, sp, #804	@ 0x324
   274ce:	7090      	strb	r0, [r2, #2]
   274d0:	7818      	ldrb	r0, [r3, #0]
   274d2:	785b      	ldrb	r3, [r3, #1]
   274d4:	021b      	lsls	r3, r3, #8
   274d6:	1818      	adds	r0, r3, r0
   274d8:	8010      	strh	r0, [r2, #0]
   274da:	980c      	ldr	r0, [sp, #48]	@ 0x30
   274dc:	6d40      	ldr	r0, [r0, #84]	@ 0x54
   274de:	900f      	str	r0, [sp, #60]	@ 0x3c
   274e0:	3108      	adds	r1, #8
   274e2:	a8ff      	add	r0, sp, #1020	@ 0x3fc
   274e4:	30a4      	adds	r0, #164	@ 0xa4
   274e6:	2228      	movs	r2, #40	@ 0x28
   274e8:	f000 fef9 	bl	282de <__aeabi_memcpy>
   274ec:	48c7      	ldr	r0, [pc, #796]	@ (2780c <_start+0x7208>)
   274ee:	4468      	add	r0, sp
   274f0:	7802      	ldrb	r2, [r0, #0]
   274f2:	2a02      	cmp	r2, #2
   274f4:	d003      	beq.n	274fe <_start+0x6efa>
   274f6:	2109      	movs	r1, #9
   274f8:	48c3      	ldr	r0, [pc, #780]	@ (27808 <_start+0x7204>)
   274fa:	f000 fd23 	bl	27f44 <_ZN9allow_pin12dynamic_type7unshare17ha4091652f9b609c4E>
   274fe:	a89f      	add	r0, sp, #636	@ 0x27c
   27500:	7802      	ldrb	r2, [r0, #0]
   27502:	2a02      	cmp	r2, #2
   27504:	d003      	beq.n	2750e <_start+0x6f0a>
   27506:	2106      	movs	r1, #6
   27508:	48bf      	ldr	r0, [pc, #764]	@ (27808 <_start+0x7204>)
   2750a:	f000 fd1b 	bl	27f44 <_ZN9allow_pin12dynamic_type7unshare17ha4091652f9b609c4E>
   2750e:	2c00      	cmp	r4, #0
   27510:	d001      	beq.n	27516 <_start+0x6f12>
   27512:	f7fa fe1f 	bl	22154 <_start+0x1b50>
   27516:	4ebe      	ldr	r6, [pc, #760]	@ (27810 <_start+0x720c>)
   27518:	446e      	add	r6, sp
   2751a:	1c70      	adds	r0, r6, #1
   2751c:	9006      	str	r0, [sp, #24]
   2751e:	a9c9      	add	r1, sp, #804	@ 0x324
   27520:	2203      	movs	r2, #3
   27522:	920a      	str	r2, [sp, #40]	@ 0x28
   27524:	f000 fedb 	bl	282de <__aeabi_memcpy>
   27528:	a8ff      	add	r0, sp, #1020	@ 0x3fc
   2752a:	3064      	adds	r0, #100	@ 0x64
   2752c:	9008      	str	r0, [sp, #32]
   2752e:	a9ff      	add	r1, sp, #1020	@ 0x3fc
   27530:	31a4      	adds	r1, #164	@ 0xa4
   27532:	2428      	movs	r4, #40	@ 0x28
   27534:	4622      	mov	r2, r4
   27536:	f000 fed2 	bl	282de <__aeabi_memcpy>
   2753a:	980e      	ldr	r0, [sp, #56]	@ 0x38
   2753c:	7030      	strb	r0, [r6, #0]
   2753e:	980c      	ldr	r0, [sp, #48]	@ 0x30
   27540:	990f      	ldr	r1, [sp, #60]	@ 0x3c
   27542:	6041      	str	r1, [r0, #4]
   27544:	3608      	adds	r6, #8
   27546:	4630      	mov	r0, r6
   27548:	9908      	ldr	r1, [sp, #32]
   2754a:	4622      	mov	r2, r4
   2754c:	f000 fec7 	bl	282de <__aeabi_memcpy>
   27550:	4cae      	ldr	r4, [pc, #696]	@ (2780c <_start+0x7208>)
   27552:	446c      	add	r4, sp
   27554:	1c60      	adds	r0, r4, #1
   27556:	215e      	movs	r1, #94	@ 0x5e
   27558:	9008      	str	r0, [sp, #32]
   2755a:	f000 fd00 	bl	27f5e <__aeabi_memclr>
   2755e:	980e      	ldr	r0, [sp, #56]	@ 0x38
   27560:	7020      	strb	r0, [r4, #0]
   27562:	980d      	ldr	r0, [sp, #52]	@ 0x34
   27564:	9000      	str	r0, [sp, #0]
   27566:	9807      	ldr	r0, [sp, #28]
   27568:	30fd      	adds	r0, #253	@ 0xfd
   2756a:	2105      	movs	r1, #5
   2756c:	232f      	movs	r3, #47	@ 0x2f
   2756e:	9007      	str	r0, [sp, #28]
   27570:	9a06      	ldr	r2, [sp, #24]
   27572:	f7f8 fe93 	bl	2029c <_ZN9allow_pin12dynamic_type11allow_inner17hf1099571477a6939E>
   27576:	910f      	str	r1, [sp, #60]	@ 0x3c
   27578:	07c0      	lsls	r0, r0, #31
   2757a:	d11c      	bne.n	275b6 <_start+0x6fb2>
   2757c:	48a4      	ldr	r0, [pc, #656]	@ (27810 <_start+0x720c>)
   2757e:	4468      	add	r0, sp
   27580:	990d      	ldr	r1, [sp, #52]	@ 0x34
   27582:	7001      	strb	r1, [r0, #0]
   27584:	980a      	ldr	r0, [sp, #40]	@ 0x28
   27586:	9000      	str	r0, [sp, #0]
   27588:	2102      	movs	r1, #2
   2758a:	235e      	movs	r3, #94	@ 0x5e
   2758c:	9807      	ldr	r0, [sp, #28]
   2758e:	9a08      	ldr	r2, [sp, #32]
   27590:	f7f8 fe84 	bl	2029c <_ZN9allow_pin12dynamic_type11allow_inner17hf1099571477a6939E>
   27594:	910f      	str	r1, [sp, #60]	@ 0x3c
   27596:	07c0      	lsls	r0, r0, #31
   27598:	d10d      	bne.n	275b6 <_start+0x6fb2>
   2759a:	489c      	ldr	r0, [pc, #624]	@ (2780c <_start+0x7208>)
   2759c:	4468      	add	r0, sp
   2759e:	990a      	ldr	r1, [sp, #40]	@ 0x28
   275a0:	7001      	strb	r1, [r0, #0]
   275a2:	489c      	ldr	r0, [pc, #624]	@ (27814 <_start+0x7210>)
   275a4:	2105      	movs	r1, #5
   275a6:	2602      	movs	r6, #2
   275a8:	2300      	movs	r3, #0
   275aa:	4632      	mov	r2, r6
   275ac:	461c      	mov	r4, r3
   275ae:	df02      	svc	2
   275b0:	910f      	str	r1, [sp, #60]	@ 0x3c
   275b2:	287f      	cmp	r0, #127	@ 0x7f
   275b4:	d801      	bhi.n	275ba <_start+0x6fb6>
   275b6:	9c0b      	ldr	r4, [sp, #44]	@ 0x2c
   275b8:	e02a      	b.n	27610 <_start+0x700c>
   275ba:	4895      	ldr	r0, [pc, #596]	@ (27810 <_start+0x720c>)
   275bc:	4468      	add	r0, sp
   275be:	7802      	ldrb	r2, [r0, #0]
   275c0:	2a02      	cmp	r2, #2
   275c2:	d00c      	beq.n	275de <_start+0x6fda>
   275c4:	2105      	movs	r1, #5
   275c6:	9807      	ldr	r0, [sp, #28]
   275c8:	f000 fcbc 	bl	27f44 <_ZN9allow_pin12dynamic_type7unshare17ha4091652f9b609c4E>
   275cc:	4890      	ldr	r0, [pc, #576]	@ (27810 <_start+0x720c>)
   275ce:	4468      	add	r0, sp
   275d0:	7006      	strb	r6, [r0, #0]
   275d2:	488e      	ldr	r0, [pc, #568]	@ (2780c <_start+0x7208>)
   275d4:	4468      	add	r0, sp
   275d6:	7800      	ldrb	r0, [r0, #0]
   275d8:	900a      	str	r0, [sp, #40]	@ 0x28
   275da:	2802      	cmp	r0, #2
   275dc:	d004      	beq.n	275e8 <_start+0x6fe4>
   275de:	2102      	movs	r1, #2
   275e0:	9807      	ldr	r0, [sp, #28]
   275e2:	9a0a      	ldr	r2, [sp, #40]	@ 0x28
   275e4:	f000 fcae 	bl	27f44 <_ZN9allow_pin12dynamic_type7unshare17ha4091652f9b609c4E>
   275e8:	4988      	ldr	r1, [pc, #544]	@ (2780c <_start+0x7208>)
   275ea:	4469      	add	r1, sp
   275ec:	700e      	strb	r6, [r1, #0]
   275ee:	9b08      	ldr	r3, [sp, #32]
   275f0:	7898      	ldrb	r0, [r3, #2]
   275f2:	aac9      	add	r2, sp, #804	@ 0x324
   275f4:	7090      	strb	r0, [r2, #2]
   275f6:	7818      	ldrb	r0, [r3, #0]
   275f8:	785b      	ldrb	r3, [r3, #1]
   275fa:	021b      	lsls	r3, r3, #8
   275fc:	1818      	adds	r0, r3, r0
   275fe:	8010      	strh	r0, [r2, #0]
   27600:	980c      	ldr	r0, [sp, #48]	@ 0x30
   27602:	6d40      	ldr	r0, [r0, #84]	@ 0x54
   27604:	900f      	str	r0, [sp, #60]	@ 0x3c
   27606:	3108      	adds	r1, #8
   27608:	a89f      	add	r0, sp, #636	@ 0x27c
   2760a:	2257      	movs	r2, #87	@ 0x57
   2760c:	f000 fd07 	bl	2801e <__aeabi_memcpy4>
   27610:	487e      	ldr	r0, [pc, #504]	@ (2780c <_start+0x7208>)
   27612:	4468      	add	r0, sp
   27614:	7802      	ldrb	r2, [r0, #0]
   27616:	2a02      	cmp	r2, #2
   27618:	d003      	beq.n	27622 <_start+0x701e>
   2761a:	2102      	movs	r1, #2
   2761c:	9807      	ldr	r0, [sp, #28]
   2761e:	f000 fc91 	bl	27f44 <_ZN9allow_pin12dynamic_type7unshare17ha4091652f9b609c4E>
   27622:	487b      	ldr	r0, [pc, #492]	@ (27810 <_start+0x720c>)
   27624:	4468      	add	r0, sp
   27626:	7802      	ldrb	r2, [r0, #0]
   27628:	2a02      	cmp	r2, #2
   2762a:	d003      	beq.n	27634 <_start+0x7030>
   2762c:	2105      	movs	r1, #5
   2762e:	9807      	ldr	r0, [sp, #28]
   27630:	f000 fc88 	bl	27f44 <_ZN9allow_pin12dynamic_type7unshare17ha4091652f9b609c4E>
   27634:	2c00      	cmp	r4, #0
   27636:	d001      	beq.n	2763c <_start+0x7038>
   27638:	f7fa fd8c 	bl	22154 <_start+0x1b50>
   2763c:	4e73      	ldr	r6, [pc, #460]	@ (2780c <_start+0x7208>)
   2763e:	446e      	add	r6, sp
   27640:	1c70      	adds	r0, r6, #1
   27642:	9007      	str	r0, [sp, #28]
   27644:	a9c9      	add	r1, sp, #804	@ 0x324
   27646:	2203      	movs	r2, #3
   27648:	920a      	str	r2, [sp, #40]	@ 0x28
   2764a:	f000 fe48 	bl	282de <__aeabi_memcpy>
   2764e:	a8ff      	add	r0, sp, #1020	@ 0x3fc
   27650:	30a4      	adds	r0, #164	@ 0xa4
   27652:	9008      	str	r0, [sp, #32]
   27654:	a99f      	add	r1, sp, #636	@ 0x27c
   27656:	2457      	movs	r4, #87	@ 0x57
   27658:	4622      	mov	r2, r4
   2765a:	f000 fce0 	bl	2801e <__aeabi_memcpy4>
   2765e:	4630      	mov	r0, r6
   27660:	3008      	adds	r0, #8
   27662:	9908      	ldr	r1, [sp, #32]
   27664:	4622      	mov	r2, r4
   27666:	f000 fcda 	bl	2801e <__aeabi_memcpy4>
   2766a:	9c0e      	ldr	r4, [sp, #56]	@ 0x38
   2766c:	7034      	strb	r4, [r6, #0]
   2766e:	980c      	ldr	r0, [sp, #48]	@ 0x30
   27670:	990f      	ldr	r1, [sp, #60]	@ 0x3c
   27672:	6541      	str	r1, [r0, #84]	@ 0x54
   27674:	aeff      	add	r6, sp, #1020	@ 0x3fc
   27676:	36a4      	adds	r6, #164	@ 0xa4
   27678:	1c70      	adds	r0, r6, #1
   2767a:	2155      	movs	r1, #85	@ 0x55
   2767c:	9008      	str	r0, [sp, #32]
   2767e:	f000 fc6e 	bl	27f5e <__aeabi_memclr>
   27682:	7034      	strb	r4, [r6, #0]
   27684:	980d      	ldr	r0, [sp, #52]	@ 0x34
   27686:	9000      	str	r0, [sp, #0]
   27688:	2107      	movs	r1, #7
   2768a:	235e      	movs	r3, #94	@ 0x5e
   2768c:	4862      	ldr	r0, [pc, #392]	@ (27818 <_start+0x7214>)
   2768e:	9a07      	ldr	r2, [sp, #28]
   27690:	f7f8 fe04 	bl	2029c <_ZN9allow_pin12dynamic_type11allow_inner17hf1099571477a6939E>
   27694:	910f      	str	r1, [sp, #60]	@ 0x3c
   27696:	07c0      	lsls	r0, r0, #31
   27698:	d119      	bne.n	276ce <_start+0x70ca>
   2769a:	485c      	ldr	r0, [pc, #368]	@ (2780c <_start+0x7208>)
   2769c:	4468      	add	r0, sp
   2769e:	990d      	ldr	r1, [sp, #52]	@ 0x34
   276a0:	7001      	strb	r1, [r0, #0]
   276a2:	990a      	ldr	r1, [sp, #40]	@ 0x28
   276a4:	9100      	str	r1, [sp, #0]
   276a6:	2355      	movs	r3, #85	@ 0x55
   276a8:	485b      	ldr	r0, [pc, #364]	@ (27818 <_start+0x7214>)
   276aa:	9a08      	ldr	r2, [sp, #32]
   276ac:	f7f8 fdf6 	bl	2029c <_ZN9allow_pin12dynamic_type11allow_inner17hf1099571477a6939E>
   276b0:	910f      	str	r1, [sp, #60]	@ 0x3c
   276b2:	07c0      	lsls	r0, r0, #31
   276b4:	d10b      	bne.n	276ce <_start+0x70ca>
   276b6:	a8ff      	add	r0, sp, #1020	@ 0x3fc
   276b8:	30a4      	adds	r0, #164	@ 0xa4
   276ba:	9a0a      	ldr	r2, [sp, #40]	@ 0x28
   276bc:	7002      	strb	r2, [r0, #0]
   276be:	4856      	ldr	r0, [pc, #344]	@ (27818 <_start+0x7214>)
   276c0:	2107      	movs	r1, #7
   276c2:	2400      	movs	r4, #0
   276c4:	4623      	mov	r3, r4
   276c6:	df02      	svc	2
   276c8:	910f      	str	r1, [sp, #60]	@ 0x3c
   276ca:	287f      	cmp	r0, #127	@ 0x7f
   276cc:	d801      	bhi.n	276d2 <_start+0x70ce>
   276ce:	9c0b      	ldr	r4, [sp, #44]	@ 0x2c
   276d0:	e02d      	b.n	2772e <_start+0x712a>
   276d2:	484e      	ldr	r0, [pc, #312]	@ (2780c <_start+0x7208>)
   276d4:	4468      	add	r0, sp
   276d6:	7802      	ldrb	r2, [r0, #0]
   276d8:	2a02      	cmp	r2, #2
   276da:	d00d      	beq.n	276f8 <_start+0x70f4>
   276dc:	2107      	movs	r1, #7
   276de:	484e      	ldr	r0, [pc, #312]	@ (27818 <_start+0x7214>)
   276e0:	f000 fc30 	bl	27f44 <_ZN9allow_pin12dynamic_type7unshare17ha4091652f9b609c4E>
   276e4:	4849      	ldr	r0, [pc, #292]	@ (2780c <_start+0x7208>)
   276e6:	4468      	add	r0, sp
   276e8:	990e      	ldr	r1, [sp, #56]	@ 0x38
   276ea:	7001      	strb	r1, [r0, #0]
   276ec:	a8ff      	add	r0, sp, #1020	@ 0x3fc
   276ee:	30a4      	adds	r0, #164	@ 0xa4
   276f0:	7800      	ldrb	r0, [r0, #0]
   276f2:	900a      	str	r0, [sp, #40]	@ 0x28
   276f4:	2802      	cmp	r0, #2
   276f6:	d004      	beq.n	27702 <_start+0x70fe>
   276f8:	2103      	movs	r1, #3
   276fa:	4847      	ldr	r0, [pc, #284]	@ (27818 <_start+0x7214>)
   276fc:	9a0a      	ldr	r2, [sp, #40]	@ 0x28
   276fe:	f000 fc21 	bl	27f44 <_ZN9allow_pin12dynamic_type7unshare17ha4091652f9b609c4E>
   27702:	a9ff      	add	r1, sp, #1020	@ 0x3fc
   27704:	31a4      	adds	r1, #164	@ 0xa4
   27706:	980e      	ldr	r0, [sp, #56]	@ 0x38
   27708:	7008      	strb	r0, [r1, #0]
   2770a:	9b08      	ldr	r3, [sp, #32]
   2770c:	7898      	ldrb	r0, [r3, #2]
   2770e:	aac9      	add	r2, sp, #804	@ 0x324
   27710:	7090      	strb	r0, [r2, #2]
   27712:	7818      	ldrb	r0, [r3, #0]
   27714:	785b      	ldrb	r3, [r3, #1]
   27716:	021b      	lsls	r3, r3, #8
   27718:	1818      	adds	r0, r3, r0
   2771a:	8010      	strh	r0, [r2, #0]
   2771c:	9809      	ldr	r0, [sp, #36]	@ 0x24
   2771e:	6800      	ldr	r0, [r0, #0]
   27720:	900f      	str	r0, [sp, #60]	@ 0x3c
   27722:	3108      	adds	r1, #8
   27724:	483a      	ldr	r0, [pc, #232]	@ (27810 <_start+0x720c>)
   27726:	4468      	add	r0, sp
   27728:	224e      	movs	r2, #78	@ 0x4e
   2772a:	f000 fc78 	bl	2801e <__aeabi_memcpy4>
   2772e:	a8ff      	add	r0, sp, #1020	@ 0x3fc
   27730:	30a4      	adds	r0, #164	@ 0xa4
   27732:	7802      	ldrb	r2, [r0, #0]
   27734:	2a02      	cmp	r2, #2
   27736:	d003      	beq.n	27740 <_start+0x713c>
   27738:	2103      	movs	r1, #3
   2773a:	4837      	ldr	r0, [pc, #220]	@ (27818 <_start+0x7214>)
   2773c:	f000 fc02 	bl	27f44 <_ZN9allow_pin12dynamic_type7unshare17ha4091652f9b609c4E>
   27740:	4832      	ldr	r0, [pc, #200]	@ (2780c <_start+0x7208>)
   27742:	4468      	add	r0, sp
   27744:	7802      	ldrb	r2, [r0, #0]
   27746:	2a02      	cmp	r2, #2
   27748:	d003      	beq.n	27752 <_start+0x714e>
   2774a:	2107      	movs	r1, #7
   2774c:	4832      	ldr	r0, [pc, #200]	@ (27818 <_start+0x7214>)
   2774e:	f000 fbf9 	bl	27f44 <_ZN9allow_pin12dynamic_type7unshare17ha4091652f9b609c4E>
   27752:	2c00      	cmp	r4, #0
   27754:	d001      	beq.n	2775a <_start+0x7156>
   27756:	f7fa fcfd 	bl	22154 <_start+0x1b50>
   2775a:	4c2c      	ldr	r4, [pc, #176]	@ (2780c <_start+0x7208>)
   2775c:	446c      	add	r4, sp
   2775e:	1c60      	adds	r0, r4, #1
   27760:	a9c9      	add	r1, sp, #804	@ 0x324
   27762:	2203      	movs	r2, #3
   27764:	f000 fdbb 	bl	282de <__aeabi_memcpy>
   27768:	a89f      	add	r0, sp, #636	@ 0x27c
   2776a:	900d      	str	r0, [sp, #52]	@ 0x34
   2776c:	4928      	ldr	r1, [pc, #160]	@ (27810 <_start+0x720c>)
   2776e:	4469      	add	r1, sp
   27770:	264e      	movs	r6, #78	@ 0x4e
   27772:	4632      	mov	r2, r6
   27774:	f000 fc53 	bl	2801e <__aeabi_memcpy4>
   27778:	940a      	str	r4, [sp, #40]	@ 0x28
   2777a:	4620      	mov	r0, r4
   2777c:	3008      	adds	r0, #8
   2777e:	990d      	ldr	r1, [sp, #52]	@ 0x34
   27780:	4632      	mov	r2, r6
   27782:	f000 fc4c 	bl	2801e <__aeabi_memcpy4>
   27786:	9e0e      	ldr	r6, [sp, #56]	@ 0x38
   27788:	7026      	strb	r6, [r4, #0]
   2778a:	980c      	ldr	r0, [sp, #48]	@ 0x30
   2778c:	990f      	ldr	r1, [sp, #60]	@ 0x3c
   2778e:	6541      	str	r1, [r0, #84]	@ 0x54
   27790:	acff      	add	r4, sp, #1020	@ 0x3fc
   27792:	34a4      	adds	r4, #164	@ 0xa4
   27794:	1c60      	adds	r0, r4, #1
   27796:	2111      	movs	r1, #17
   27798:	900d      	str	r0, [sp, #52]	@ 0x34
   2779a:	f000 fbe0 	bl	27f5e <__aeabi_memclr>
   2779e:	7026      	strb	r6, [r4, #0]
   277a0:	2155      	movs	r1, #85	@ 0x55
   277a2:	2204      	movs	r2, #4
   277a4:	980a      	ldr	r0, [sp, #40]	@ 0x28
   277a6:	920a      	str	r2, [sp, #40]	@ 0x28
   277a8:	f7f8 fe24 	bl	203f4 <_ZN9allow_pin12dynamic_type23Buffer$LT$B$C$_$C$_$GT$5allow17he00bc4da1fafe229E>
   277ac:	910f      	str	r1, [sp, #60]	@ 0x3c
   277ae:	07c0      	lsls	r0, r0, #31
   277b0:	d111      	bne.n	277d6 <_start+0x71d2>
   277b2:	a8ff      	add	r0, sp, #1020	@ 0x3fc
   277b4:	30a4      	adds	r0, #164	@ 0xa4
   277b6:	2111      	movs	r1, #17
   277b8:	2203      	movs	r2, #3
   277ba:	f7f8 fe1b 	bl	203f4 <_ZN9allow_pin12dynamic_type23Buffer$LT$B$C$_$C$_$GT$5allow17he00bc4da1fafe229E>
   277be:	910f      	str	r1, [sp, #60]	@ 0x3c
   277c0:	07c0      	lsls	r0, r0, #31
   277c2:	d108      	bne.n	277d6 <_start+0x71d2>
   277c4:	4815      	ldr	r0, [pc, #84]	@ (2781c <_start+0x7218>)
   277c6:	2102      	movs	r1, #2
   277c8:	2400      	movs	r4, #0
   277ca:	460a      	mov	r2, r1
   277cc:	4623      	mov	r3, r4
   277ce:	df02      	svc	2
   277d0:	910f      	str	r1, [sp, #60]	@ 0x3c
   277d2:	287f      	cmp	r0, #127	@ 0x7f
   277d4:	d801      	bhi.n	277da <_start+0x71d6>
   277d6:	9c0b      	ldr	r4, [sp, #44]	@ 0x2c
   277d8:	e036      	b.n	27848 <_start+0x7244>
   277da:	480c      	ldr	r0, [pc, #48]	@ (2780c <_start+0x7208>)
   277dc:	4468      	add	r0, sp
   277de:	f7f8 fe71 	bl	204c4 <_ZN9allow_pin12dynamic_type23Buffer$LT$B$C$_$C$_$GT$7unallow17h08da170835b68e4aE>
   277e2:	aeff      	add	r6, sp, #1020	@ 0x3fc
   277e4:	36a4      	adds	r6, #164	@ 0xa4
   277e6:	4630      	mov	r0, r6
   277e8:	f7f8 fe6c 	bl	204c4 <_ZN9allow_pin12dynamic_type23Buffer$LT$B$C$_$C$_$GT$7unallow17h08da170835b68e4aE>
   277ec:	490c      	ldr	r1, [pc, #48]	@ (27820 <_start+0x721c>)
   277ee:	1dca      	adds	r2, r1, #7
   277f0:	7830      	ldrb	r0, [r6, #0]
   277f2:	3608      	adds	r6, #8
   277f4:	2802      	cmp	r0, #2
   277f6:	d000      	beq.n	277fa <_start+0x71f6>
   277f8:	4616      	mov	r6, r2
   277fa:	d000      	beq.n	277fe <_start+0x71fa>
   277fc:	910d      	str	r1, [sp, #52]	@ 0x34
   277fe:	2802      	cmp	r0, #2
   27800:	d010      	beq.n	27824 <_start+0x7220>
   27802:	940f      	str	r4, [sp, #60]	@ 0x3c
   27804:	e011      	b.n	2782a <_start+0x7226>
   27806:	46c0      	nop			@ (mov r8, r8)
   27808:	00001273 	.word	0x00001273
   2780c:	000005a8 	.word	0x000005a8
   27810:	00000558 	.word	0x00000558
   27814:	0000022b 	.word	0x0000022b
   27818:	0000178a 	.word	0x0000178a
   2781c:	00000c89 	.word	0x00000c89
   27820:	00010269 	.word	0x00010269
   27824:	9809      	ldr	r0, [sp, #36]	@ 0x24
   27826:	6800      	ldr	r0, [r0, #0]
   27828:	900f      	str	r0, [sp, #60]	@ 0x3c
   2782a:	9a0d      	ldr	r2, [sp, #52]	@ 0x34
   2782c:	7890      	ldrb	r0, [r2, #2]
   2782e:	a9ff      	add	r1, sp, #1020	@ 0x3fc
   27830:	318c      	adds	r1, #140	@ 0x8c
   27832:	7088      	strb	r0, [r1, #2]
   27834:	7810      	ldrb	r0, [r2, #0]
   27836:	7852      	ldrb	r2, [r2, #1]
   27838:	0212      	lsls	r2, r2, #8
   2783a:	1810      	adds	r0, r2, r0
   2783c:	8008      	strh	r0, [r1, #0]
   2783e:	a8c9      	add	r0, sp, #804	@ 0x324
   27840:	220a      	movs	r2, #10
   27842:	4631      	mov	r1, r6
   27844:	f000 fd4b 	bl	282de <__aeabi_memcpy>
   27848:	a8ff      	add	r0, sp, #1020	@ 0x3fc
   2784a:	30a4      	adds	r0, #164	@ 0xa4
   2784c:	7802      	ldrb	r2, [r0, #0]
   2784e:	2a02      	cmp	r2, #2
   27850:	d004      	beq.n	2785c <_start+0x7258>
   27852:	48c6      	ldr	r0, [pc, #792]	@ (27b6c <_start+0x7568>)
   27854:	304b      	adds	r0, #75	@ 0x4b
   27856:	2102      	movs	r1, #2
   27858:	f000 fb74 	bl	27f44 <_ZN9allow_pin12dynamic_type7unshare17ha4091652f9b609c4E>
   2785c:	48c4      	ldr	r0, [pc, #784]	@ (27b70 <_start+0x756c>)
   2785e:	4468      	add	r0, sp
   27860:	7802      	ldrb	r2, [r0, #0]
   27862:	2a02      	cmp	r2, #2
   27864:	d004      	beq.n	27870 <_start+0x726c>
   27866:	48c1      	ldr	r0, [pc, #772]	@ (27b6c <_start+0x7568>)
   27868:	304b      	adds	r0, #75	@ 0x4b
   2786a:	2102      	movs	r1, #2
   2786c:	f000 fb6a 	bl	27f44 <_ZN9allow_pin12dynamic_type7unshare17ha4091652f9b609c4E>
   27870:	2c00      	cmp	r4, #0
   27872:	d001      	beq.n	27878 <_start+0x7274>
   27874:	f7fa fc6e 	bl	22154 <_start+0x1b50>
   27878:	4cbe      	ldr	r4, [pc, #760]	@ (27b74 <_start+0x7570>)
   2787a:	446c      	add	r4, sp
   2787c:	1c60      	adds	r0, r4, #1
   2787e:	9007      	str	r0, [sp, #28]
   27880:	a9ff      	add	r1, sp, #1020	@ 0x3fc
   27882:	318c      	adds	r1, #140	@ 0x8c
   27884:	2203      	movs	r2, #3
   27886:	920d      	str	r2, [sp, #52]	@ 0x34
   27888:	f000 fd29 	bl	282de <__aeabi_memcpy>
   2788c:	a8c9      	add	r0, sp, #804	@ 0x324
   2788e:	a99f      	add	r1, sp, #636	@ 0x27c
   27890:	460a      	mov	r2, r1
   27892:	c848      	ldmia	r0!, {r3, r6}
   27894:	c248      	stmia	r2!, {r3, r6}
   27896:	8800      	ldrh	r0, [r0, #0]
   27898:	8010      	strh	r0, [r2, #0]
   2789a:	4626      	mov	r6, r4
   2789c:	4620      	mov	r0, r4
   2789e:	3008      	adds	r0, #8
   278a0:	c90c      	ldmia	r1!, {r2, r3}
   278a2:	c00c      	stmia	r0!, {r2, r3}
   278a4:	8809      	ldrh	r1, [r1, #0]
   278a6:	8001      	strh	r1, [r0, #0]
   278a8:	9c0e      	ldr	r4, [sp, #56]	@ 0x38
   278aa:	7034      	strb	r4, [r6, #0]
   278ac:	980c      	ldr	r0, [sp, #48]	@ 0x30
   278ae:	990f      	ldr	r1, [sp, #60]	@ 0x3c
   278b0:	6041      	str	r1, [r0, #4]
   278b2:	4eaf      	ldr	r6, [pc, #700]	@ (27b70 <_start+0x756c>)
   278b4:	446e      	add	r6, sp
   278b6:	1c70      	adds	r0, r6, #1
   278b8:	2150      	movs	r1, #80	@ 0x50
   278ba:	9008      	str	r0, [sp, #32]
   278bc:	f000 fb4f 	bl	27f5e <__aeabi_memclr>
   278c0:	7034      	strb	r4, [r6, #0]
   278c2:	980a      	ldr	r0, [sp, #40]	@ 0x28
   278c4:	9000      	str	r0, [sp, #0]
   278c6:	2106      	movs	r1, #6
   278c8:	2311      	movs	r3, #17
   278ca:	48ab      	ldr	r0, [pc, #684]	@ (27b78 <_start+0x7574>)
   278cc:	9a07      	ldr	r2, [sp, #28]
   278ce:	f7f8 fce5 	bl	2029c <_ZN9allow_pin12dynamic_type11allow_inner17hf1099571477a6939E>
   278d2:	910f      	str	r1, [sp, #60]	@ 0x3c
   278d4:	07c0      	lsls	r0, r0, #31
   278d6:	d11b      	bne.n	27910 <_start+0x730c>
   278d8:	48a6      	ldr	r0, [pc, #664]	@ (27b74 <_start+0x7570>)
   278da:	4468      	add	r0, sp
   278dc:	990a      	ldr	r1, [sp, #40]	@ 0x28
   278de:	7001      	strb	r1, [r0, #0]
   278e0:	980d      	ldr	r0, [sp, #52]	@ 0x34
   278e2:	9000      	str	r0, [sp, #0]
   278e4:	2105      	movs	r1, #5
   278e6:	2350      	movs	r3, #80	@ 0x50
   278e8:	48a3      	ldr	r0, [pc, #652]	@ (27b78 <_start+0x7574>)
   278ea:	9a08      	ldr	r2, [sp, #32]
   278ec:	f7f8 fcd6 	bl	2029c <_ZN9allow_pin12dynamic_type11allow_inner17hf1099571477a6939E>
   278f0:	910f      	str	r1, [sp, #60]	@ 0x3c
   278f2:	07c0      	lsls	r0, r0, #31
   278f4:	d10c      	bne.n	27910 <_start+0x730c>
   278f6:	489e      	ldr	r0, [pc, #632]	@ (27b70 <_start+0x756c>)
   278f8:	4468      	add	r0, sp
   278fa:	990d      	ldr	r1, [sp, #52]	@ 0x34
   278fc:	7001      	strb	r1, [r0, #0]
   278fe:	489e      	ldr	r0, [pc, #632]	@ (27b78 <_start+0x7574>)
   27900:	2106      	movs	r1, #6
   27902:	2205      	movs	r2, #5
   27904:	2400      	movs	r4, #0
   27906:	4623      	mov	r3, r4
   27908:	df02      	svc	2
   2790a:	910f      	str	r1, [sp, #60]	@ 0x3c
   2790c:	287f      	cmp	r0, #127	@ 0x7f
   2790e:	d801      	bhi.n	27914 <_start+0x7310>
   27910:	9c0b      	ldr	r4, [sp, #44]	@ 0x2c
   27912:	e02c      	b.n	2796e <_start+0x736a>
   27914:	4897      	ldr	r0, [pc, #604]	@ (27b74 <_start+0x7570>)
   27916:	4468      	add	r0, sp
   27918:	7802      	ldrb	r2, [r0, #0]
   2791a:	2a02      	cmp	r2, #2
   2791c:	d00d      	beq.n	2793a <_start+0x7336>
   2791e:	2106      	movs	r1, #6
   27920:	4895      	ldr	r0, [pc, #596]	@ (27b78 <_start+0x7574>)
   27922:	f000 fb0f 	bl	27f44 <_ZN9allow_pin12dynamic_type7unshare17ha4091652f9b609c4E>
   27926:	4893      	ldr	r0, [pc, #588]	@ (27b74 <_start+0x7570>)
   27928:	4468      	add	r0, sp
   2792a:	990e      	ldr	r1, [sp, #56]	@ 0x38
   2792c:	7001      	strb	r1, [r0, #0]
   2792e:	4890      	ldr	r0, [pc, #576]	@ (27b70 <_start+0x756c>)
   27930:	4468      	add	r0, sp
   27932:	7800      	ldrb	r0, [r0, #0]
   27934:	900d      	str	r0, [sp, #52]	@ 0x34
   27936:	2802      	cmp	r0, #2
   27938:	d004      	beq.n	27944 <_start+0x7340>
   2793a:	2105      	movs	r1, #5
   2793c:	488e      	ldr	r0, [pc, #568]	@ (27b78 <_start+0x7574>)
   2793e:	9a0d      	ldr	r2, [sp, #52]	@ 0x34
   27940:	f000 fb00 	bl	27f44 <_ZN9allow_pin12dynamic_type7unshare17ha4091652f9b609c4E>
   27944:	498a      	ldr	r1, [pc, #552]	@ (27b70 <_start+0x756c>)
   27946:	4469      	add	r1, sp
   27948:	980e      	ldr	r0, [sp, #56]	@ 0x38
   2794a:	7008      	strb	r0, [r1, #0]
   2794c:	9b08      	ldr	r3, [sp, #32]
   2794e:	7898      	ldrb	r0, [r3, #2]
   27950:	aac9      	add	r2, sp, #804	@ 0x324
   27952:	7090      	strb	r0, [r2, #2]
   27954:	7818      	ldrb	r0, [r3, #0]
   27956:	785b      	ldrb	r3, [r3, #1]
   27958:	021b      	lsls	r3, r3, #8
   2795a:	1818      	adds	r0, r3, r0
   2795c:	8010      	strh	r0, [r2, #0]
   2795e:	980c      	ldr	r0, [sp, #48]	@ 0x30
   27960:	6d40      	ldr	r0, [r0, #84]	@ 0x54
   27962:	900f      	str	r0, [sp, #60]	@ 0x3c
   27964:	3108      	adds	r1, #8
   27966:	a89f      	add	r0, sp, #636	@ 0x27c
   27968:	2249      	movs	r2, #73	@ 0x49
   2796a:	f000 fb58 	bl	2801e <__aeabi_memcpy4>
   2796e:	4880      	ldr	r0, [pc, #512]	@ (27b70 <_start+0x756c>)
   27970:	4468      	add	r0, sp
   27972:	7802      	ldrb	r2, [r0, #0]
   27974:	2a02      	cmp	r2, #2
   27976:	d003      	beq.n	27980 <_start+0x737c>
   27978:	2105      	movs	r1, #5
   2797a:	487f      	ldr	r0, [pc, #508]	@ (27b78 <_start+0x7574>)
   2797c:	f000 fae2 	bl	27f44 <_ZN9allow_pin12dynamic_type7unshare17ha4091652f9b609c4E>
   27980:	487c      	ldr	r0, [pc, #496]	@ (27b74 <_start+0x7570>)
   27982:	4468      	add	r0, sp
   27984:	7802      	ldrb	r2, [r0, #0]
   27986:	2a02      	cmp	r2, #2
   27988:	d003      	beq.n	27992 <_start+0x738e>
   2798a:	2106      	movs	r1, #6
   2798c:	487a      	ldr	r0, [pc, #488]	@ (27b78 <_start+0x7574>)
   2798e:	f000 fad9 	bl	27f44 <_ZN9allow_pin12dynamic_type7unshare17ha4091652f9b609c4E>
   27992:	2c00      	cmp	r4, #0
   27994:	d001      	beq.n	2799a <_start+0x7396>
   27996:	f7fa fbdd 	bl	22154 <_start+0x1b50>
   2799a:	4c75      	ldr	r4, [pc, #468]	@ (27b70 <_start+0x756c>)
   2799c:	446c      	add	r4, sp
   2799e:	1c60      	adds	r0, r4, #1
   279a0:	9006      	str	r0, [sp, #24]
   279a2:	a9c9      	add	r1, sp, #804	@ 0x324
   279a4:	2203      	movs	r2, #3
   279a6:	9208      	str	r2, [sp, #32]
   279a8:	f000 fc99 	bl	282de <__aeabi_memcpy>
   279ac:	adff      	add	r5, sp, #1020	@ 0x3fc
   279ae:	35a4      	adds	r5, #164	@ 0xa4
   279b0:	a99f      	add	r1, sp, #636	@ 0x27c
   279b2:	2649      	movs	r6, #73	@ 0x49
   279b4:	4628      	mov	r0, r5
   279b6:	4632      	mov	r2, r6
   279b8:	f000 fb31 	bl	2801e <__aeabi_memcpy4>
   279bc:	4620      	mov	r0, r4
   279be:	3008      	adds	r0, #8
   279c0:	4629      	mov	r1, r5
   279c2:	4632      	mov	r2, r6
   279c4:	f000 fb2b 	bl	2801e <__aeabi_memcpy4>
   279c8:	9d0e      	ldr	r5, [sp, #56]	@ 0x38
   279ca:	7025      	strb	r5, [r4, #0]
   279cc:	980c      	ldr	r0, [sp, #48]	@ 0x30
   279ce:	990f      	ldr	r1, [sp, #60]	@ 0x3c
   279d0:	6541      	str	r1, [r0, #84]	@ 0x54
   279d2:	acff      	add	r4, sp, #1020	@ 0x3fc
   279d4:	34a4      	adds	r4, #164	@ 0xa4
   279d6:	1c60      	adds	r0, r4, #1
   279d8:	211b      	movs	r1, #27
   279da:	9007      	str	r0, [sp, #28]
   279dc:	f000 fabf 	bl	27f5e <__aeabi_memclr>
   279e0:	7025      	strb	r5, [r4, #0]
   279e2:	980a      	ldr	r0, [sp, #40]	@ 0x28
   279e4:	9000      	str	r0, [sp, #0]
   279e6:	4865      	ldr	r0, [pc, #404]	@ (27b7c <_start+0x7578>)
   279e8:	30ab      	adds	r0, #171	@ 0xab
   279ea:	2501      	movs	r5, #1
   279ec:	2350      	movs	r3, #80	@ 0x50
   279ee:	900d      	str	r0, [sp, #52]	@ 0x34
   279f0:	4629      	mov	r1, r5
   279f2:	9a06      	ldr	r2, [sp, #24]
   279f4:	f7f8 fc52 	bl	2029c <_ZN9allow_pin12dynamic_type11allow_inner17hf1099571477a6939E>
   279f8:	910f      	str	r1, [sp, #60]	@ 0x3c
   279fa:	07c0      	lsls	r0, r0, #31
   279fc:	d11c      	bne.n	27a38 <_start+0x7434>
   279fe:	485c      	ldr	r0, [pc, #368]	@ (27b70 <_start+0x756c>)
   27a00:	4468      	add	r0, sp
   27a02:	990a      	ldr	r1, [sp, #40]	@ 0x28
   27a04:	7001      	strb	r1, [r0, #0]
   27a06:	9808      	ldr	r0, [sp, #32]
   27a08:	9000      	str	r0, [sp, #0]
   27a0a:	2102      	movs	r1, #2
   27a0c:	231b      	movs	r3, #27
   27a0e:	980d      	ldr	r0, [sp, #52]	@ 0x34
   27a10:	9a07      	ldr	r2, [sp, #28]
   27a12:	f7f8 fc43 	bl	2029c <_ZN9allow_pin12dynamic_type11allow_inner17hf1099571477a6939E>
   27a16:	910f      	str	r1, [sp, #60]	@ 0x3c
   27a18:	07c0      	lsls	r0, r0, #31
   27a1a:	d10d      	bne.n	27a38 <_start+0x7434>
   27a1c:	a8ff      	add	r0, sp, #1020	@ 0x3fc
   27a1e:	30a4      	adds	r0, #164	@ 0xa4
   27a20:	9908      	ldr	r1, [sp, #32]
   27a22:	7001      	strb	r1, [r0, #0]
   27a24:	4856      	ldr	r0, [pc, #344]	@ (27b80 <_start+0x757c>)
   27a26:	2101      	movs	r1, #1
   27a28:	2602      	movs	r6, #2
   27a2a:	2300      	movs	r3, #0
   27a2c:	4632      	mov	r2, r6
   27a2e:	461c      	mov	r4, r3
   27a30:	df02      	svc	2
   27a32:	910f      	str	r1, [sp, #60]	@ 0x3c
   27a34:	287f      	cmp	r0, #127	@ 0x7f
   27a36:	d801      	bhi.n	27a3c <_start+0x7438>
   27a38:	9c0b      	ldr	r4, [sp, #44]	@ 0x2c
   27a3a:	e02b      	b.n	27a94 <_start+0x7490>
   27a3c:	484c      	ldr	r0, [pc, #304]	@ (27b70 <_start+0x756c>)
   27a3e:	4468      	add	r0, sp
   27a40:	7802      	ldrb	r2, [r0, #0]
   27a42:	2a02      	cmp	r2, #2
   27a44:	d00c      	beq.n	27a60 <_start+0x745c>
   27a46:	2101      	movs	r1, #1
   27a48:	980d      	ldr	r0, [sp, #52]	@ 0x34
   27a4a:	f000 fa7b 	bl	27f44 <_ZN9allow_pin12dynamic_type7unshare17ha4091652f9b609c4E>
   27a4e:	4848      	ldr	r0, [pc, #288]	@ (27b70 <_start+0x756c>)
   27a50:	4468      	add	r0, sp
   27a52:	7006      	strb	r6, [r0, #0]
   27a54:	a8ff      	add	r0, sp, #1020	@ 0x3fc
   27a56:	30a4      	adds	r0, #164	@ 0xa4
   27a58:	7800      	ldrb	r0, [r0, #0]
   27a5a:	9008      	str	r0, [sp, #32]
   27a5c:	2802      	cmp	r0, #2
   27a5e:	d004      	beq.n	27a6a <_start+0x7466>
   27a60:	2102      	movs	r1, #2
   27a62:	980d      	ldr	r0, [sp, #52]	@ 0x34
   27a64:	9a08      	ldr	r2, [sp, #32]
   27a66:	f000 fa6d 	bl	27f44 <_ZN9allow_pin12dynamic_type7unshare17ha4091652f9b609c4E>
   27a6a:	a9ff      	add	r1, sp, #1020	@ 0x3fc
   27a6c:	31a4      	adds	r1, #164	@ 0xa4
   27a6e:	700e      	strb	r6, [r1, #0]
   27a70:	9b07      	ldr	r3, [sp, #28]
   27a72:	7898      	ldrb	r0, [r3, #2]
   27a74:	aac9      	add	r2, sp, #804	@ 0x324
   27a76:	7090      	strb	r0, [r2, #2]
   27a78:	7818      	ldrb	r0, [r3, #0]
   27a7a:	785b      	ldrb	r3, [r3, #1]
   27a7c:	021b      	lsls	r3, r3, #8
   27a7e:	1818      	adds	r0, r3, r0
   27a80:	8010      	strh	r0, [r2, #0]
   27a82:	9809      	ldr	r0, [sp, #36]	@ 0x24
   27a84:	6800      	ldr	r0, [r0, #0]
   27a86:	900f      	str	r0, [sp, #60]	@ 0x3c
   27a88:	3108      	adds	r1, #8
   27a8a:	483a      	ldr	r0, [pc, #232]	@ (27b74 <_start+0x7570>)
   27a8c:	4468      	add	r0, sp
   27a8e:	2214      	movs	r2, #20
   27a90:	f000 fc25 	bl	282de <__aeabi_memcpy>
   27a94:	a8ff      	add	r0, sp, #1020	@ 0x3fc
   27a96:	30a4      	adds	r0, #164	@ 0xa4
   27a98:	7802      	ldrb	r2, [r0, #0]
   27a9a:	2a02      	cmp	r2, #2
   27a9c:	d003      	beq.n	27aa6 <_start+0x74a2>
   27a9e:	2102      	movs	r1, #2
   27aa0:	980d      	ldr	r0, [sp, #52]	@ 0x34
   27aa2:	f000 fa4f 	bl	27f44 <_ZN9allow_pin12dynamic_type7unshare17ha4091652f9b609c4E>
   27aa6:	4832      	ldr	r0, [pc, #200]	@ (27b70 <_start+0x756c>)
   27aa8:	4468      	add	r0, sp
   27aaa:	7802      	ldrb	r2, [r0, #0]
   27aac:	2a02      	cmp	r2, #2
   27aae:	d003      	beq.n	27ab8 <_start+0x74b4>
   27ab0:	2101      	movs	r1, #1
   27ab2:	980d      	ldr	r0, [sp, #52]	@ 0x34
   27ab4:	f000 fa46 	bl	27f44 <_ZN9allow_pin12dynamic_type7unshare17ha4091652f9b609c4E>
   27ab8:	2c00      	cmp	r4, #0
   27aba:	d001      	beq.n	27ac0 <_start+0x74bc>
   27abc:	f7fa fb4a 	bl	22154 <_start+0x1b50>
   27ac0:	a89f      	add	r0, sp, #636	@ 0x27c
   27ac2:	900d      	str	r0, [sp, #52]	@ 0x34
   27ac4:	1c40      	adds	r0, r0, #1
   27ac6:	a9c9      	add	r1, sp, #804	@ 0x324
   27ac8:	2203      	movs	r2, #3
   27aca:	f000 fc08 	bl	282de <__aeabi_memcpy>
   27ace:	aeff      	add	r6, sp, #1020	@ 0x3fc
   27ad0:	3690      	adds	r6, #144	@ 0x90
   27ad2:	4928      	ldr	r1, [pc, #160]	@ (27b74 <_start+0x7570>)
   27ad4:	4469      	add	r1, sp
   27ad6:	2414      	movs	r4, #20
   27ad8:	4630      	mov	r0, r6
   27ada:	4622      	mov	r2, r4
   27adc:	f000 fbff 	bl	282de <__aeabi_memcpy>
   27ae0:	990d      	ldr	r1, [sp, #52]	@ 0x34
   27ae2:	980e      	ldr	r0, [sp, #56]	@ 0x38
   27ae4:	7008      	strb	r0, [r1, #0]
   27ae6:	980f      	ldr	r0, [sp, #60]	@ 0x3c
   27ae8:	90a0      	str	r0, [sp, #640]	@ 0x280
   27aea:	4608      	mov	r0, r1
   27aec:	3008      	adds	r0, #8
   27aee:	4631      	mov	r1, r6
   27af0:	4622      	mov	r2, r4
   27af2:	f000 fbf4 	bl	282de <__aeabi_memcpy>
   27af6:	4c1e      	ldr	r4, [pc, #120]	@ (27b70 <_start+0x756c>)
   27af8:	446c      	add	r4, sp
   27afa:	1c60      	adds	r0, r4, #1
   27afc:	2163      	movs	r1, #99	@ 0x63
   27afe:	900a      	str	r0, [sp, #40]	@ 0x28
   27b00:	f000 fa2d 	bl	27f5e <__aeabi_memclr>
   27b04:	980e      	ldr	r0, [sp, #56]	@ 0x38
   27b06:	7020      	strb	r0, [r4, #0]
   27b08:	211b      	movs	r1, #27
   27b0a:	2204      	movs	r2, #4
   27b0c:	980d      	ldr	r0, [sp, #52]	@ 0x34
   27b0e:	920d      	str	r2, [sp, #52]	@ 0x34
   27b10:	f7f8 fca4 	bl	2045c <_ZN9allow_pin12dynamic_type23Buffer$LT$B$C$_$C$_$GT$5allow17hf6fada2d28996d6aE>
   27b14:	910f      	str	r1, [sp, #60]	@ 0x3c
   27b16:	07c0      	lsls	r0, r0, #31
   27b18:	d111      	bne.n	27b3e <_start+0x753a>
   27b1a:	4815      	ldr	r0, [pc, #84]	@ (27b70 <_start+0x756c>)
   27b1c:	4468      	add	r0, sp
   27b1e:	2163      	movs	r1, #99	@ 0x63
   27b20:	2203      	movs	r2, #3
   27b22:	f7f8 fc9b 	bl	2045c <_ZN9allow_pin12dynamic_type23Buffer$LT$B$C$_$C$_$GT$5allow17hf6fada2d28996d6aE>
   27b26:	910f      	str	r1, [sp, #60]	@ 0x3c
   27b28:	07c0      	lsls	r0, r0, #31
   27b2a:	d108      	bne.n	27b3e <_start+0x753a>
   27b2c:	4815      	ldr	r0, [pc, #84]	@ (27b84 <_start+0x7580>)
   27b2e:	2103      	movs	r1, #3
   27b30:	2400      	movs	r4, #0
   27b32:	460a      	mov	r2, r1
   27b34:	4623      	mov	r3, r4
   27b36:	df02      	svc	2
   27b38:	910f      	str	r1, [sp, #60]	@ 0x3c
   27b3a:	287f      	cmp	r0, #127	@ 0x7f
   27b3c:	d801      	bhi.n	27b42 <_start+0x753e>
   27b3e:	9c0b      	ldr	r4, [sp, #44]	@ 0x2c
   27b40:	e035      	b.n	27bae <_start+0x75aa>
   27b42:	a89f      	add	r0, sp, #636	@ 0x27c
   27b44:	f7f8 fd4e 	bl	205e4 <_ZN9allow_pin12dynamic_type23Buffer$LT$B$C$_$C$_$GT$7unallow17hf5873ef96a741104E>
   27b48:	4e09      	ldr	r6, [pc, #36]	@ (27b70 <_start+0x756c>)
   27b4a:	446e      	add	r6, sp
   27b4c:	4630      	mov	r0, r6
   27b4e:	f7f8 fd49 	bl	205e4 <_ZN9allow_pin12dynamic_type23Buffer$LT$B$C$_$C$_$GT$7unallow17hf5873ef96a741104E>
   27b52:	49f7      	ldr	r1, [pc, #988]	@ (27f30 <_start+0x792c>)
   27b54:	1dca      	adds	r2, r1, #7
   27b56:	7830      	ldrb	r0, [r6, #0]
   27b58:	3608      	adds	r6, #8
   27b5a:	2802      	cmp	r0, #2
   27b5c:	d000      	beq.n	27b60 <_start+0x755c>
   27b5e:	4616      	mov	r6, r2
   27b60:	d000      	beq.n	27b64 <_start+0x7560>
   27b62:	910a      	str	r1, [sp, #40]	@ 0x28
   27b64:	2802      	cmp	r0, #2
   27b66:	d00f      	beq.n	27b88 <_start+0x7584>
   27b68:	940f      	str	r4, [sp, #60]	@ 0x3c
   27b6a:	e010      	b.n	27b8e <_start+0x758a>
   27b6c:	00000c3e 	.word	0x00000c3e
   27b70:	000005a8 	.word	0x000005a8
   27b74:	00000558 	.word	0x00000558
   27b78:	00001aa9 	.word	0x00001aa9
   27b7c:	0000032e 	.word	0x0000032e
   27b80:	000003d9 	.word	0x000003d9
   27b84:	00002548 	.word	0x00002548
   27b88:	980c      	ldr	r0, [sp, #48]	@ 0x30
   27b8a:	6d40      	ldr	r0, [r0, #84]	@ 0x54
   27b8c:	900f      	str	r0, [sp, #60]	@ 0x3c
   27b8e:	9a0a      	ldr	r2, [sp, #40]	@ 0x28
   27b90:	7890      	ldrb	r0, [r2, #2]
   27b92:	49ea      	ldr	r1, [pc, #936]	@ (27f3c <_start+0x7938>)
   27b94:	4469      	add	r1, sp
   27b96:	7088      	strb	r0, [r1, #2]
   27b98:	7810      	ldrb	r0, [r2, #0]
   27b9a:	7852      	ldrb	r2, [r2, #1]
   27b9c:	0212      	lsls	r2, r2, #8
   27b9e:	1810      	adds	r0, r2, r0
   27ba0:	8008      	strh	r0, [r1, #0]
   27ba2:	a8ff      	add	r0, sp, #1020	@ 0x3fc
   27ba4:	30a4      	adds	r0, #164	@ 0xa4
   27ba6:	225c      	movs	r2, #92	@ 0x5c
   27ba8:	4631      	mov	r1, r6
   27baa:	f000 fb98 	bl	282de <__aeabi_memcpy>
   27bae:	48e2      	ldr	r0, [pc, #904]	@ (27f38 <_start+0x7934>)
   27bb0:	4468      	add	r0, sp
   27bb2:	7802      	ldrb	r2, [r0, #0]
   27bb4:	2a02      	cmp	r2, #2
   27bb6:	d004      	beq.n	27bc2 <_start+0x75be>
   27bb8:	48dc      	ldr	r0, [pc, #880]	@ (27f2c <_start+0x7928>)
   27bba:	3058      	adds	r0, #88	@ 0x58
   27bbc:	2103      	movs	r1, #3
   27bbe:	f000 f9c1 	bl	27f44 <_ZN9allow_pin12dynamic_type7unshare17ha4091652f9b609c4E>
   27bc2:	a89f      	add	r0, sp, #636	@ 0x27c
   27bc4:	7802      	ldrb	r2, [r0, #0]
   27bc6:	2a02      	cmp	r2, #2
   27bc8:	d004      	beq.n	27bd4 <_start+0x75d0>
   27bca:	48d8      	ldr	r0, [pc, #864]	@ (27f2c <_start+0x7928>)
   27bcc:	3058      	adds	r0, #88	@ 0x58
   27bce:	2103      	movs	r1, #3
   27bd0:	f000 f9b8 	bl	27f44 <_ZN9allow_pin12dynamic_type7unshare17ha4091652f9b609c4E>
   27bd4:	2c00      	cmp	r4, #0
   27bd6:	d001      	beq.n	27bdc <_start+0x75d8>
   27bd8:	f7fa fabc 	bl	22154 <_start+0x1b50>
   27bdc:	4cd6      	ldr	r4, [pc, #856]	@ (27f38 <_start+0x7934>)
   27bde:	446c      	add	r4, sp
   27be0:	1c60      	adds	r0, r4, #1
   27be2:	9008      	str	r0, [sp, #32]
   27be4:	49d5      	ldr	r1, [pc, #852]	@ (27f3c <_start+0x7938>)
   27be6:	4469      	add	r1, sp
   27be8:	2203      	movs	r2, #3
   27bea:	920a      	str	r2, [sp, #40]	@ 0x28
   27bec:	f000 fb77 	bl	282de <__aeabi_memcpy>
   27bf0:	48d3      	ldr	r0, [pc, #844]	@ (27f40 <_start+0x793c>)
   27bf2:	4468      	add	r0, sp
   27bf4:	9007      	str	r0, [sp, #28]
   27bf6:	a9ff      	add	r1, sp, #1020	@ 0x3fc
   27bf8:	31a4      	adds	r1, #164	@ 0xa4
   27bfa:	265c      	movs	r6, #92	@ 0x5c
   27bfc:	4632      	mov	r2, r6
   27bfe:	f000 fa0e 	bl	2801e <__aeabi_memcpy4>
   27c02:	980e      	ldr	r0, [sp, #56]	@ 0x38
   27c04:	7020      	strb	r0, [r4, #0]
   27c06:	980c      	ldr	r0, [sp, #48]	@ 0x30
   27c08:	990f      	ldr	r1, [sp, #60]	@ 0x3c
   27c0a:	6541      	str	r1, [r0, #84]	@ 0x54
   27c0c:	3408      	adds	r4, #8
   27c0e:	4620      	mov	r0, r4
   27c10:	9907      	ldr	r1, [sp, #28]
   27c12:	4632      	mov	r2, r6
   27c14:	f000 fa03 	bl	2801e <__aeabi_memcpy4>
   27c18:	aeff      	add	r6, sp, #1020	@ 0x3fc
   27c1a:	36a4      	adds	r6, #164	@ 0xa4
   27c1c:	1c74      	adds	r4, r6, #1
   27c1e:	212c      	movs	r1, #44	@ 0x2c
   27c20:	4620      	mov	r0, r4
   27c22:	f000 f99c 	bl	27f5e <__aeabi_memclr>
   27c26:	980e      	ldr	r0, [sp, #56]	@ 0x38
   27c28:	7030      	strb	r0, [r6, #0]
   27c2a:	980d      	ldr	r0, [sp, #52]	@ 0x34
   27c2c:	9000      	str	r0, [sp, #0]
   27c2e:	2018      	movs	r0, #24
   27c30:	2105      	movs	r1, #5
   27c32:	2363      	movs	r3, #99	@ 0x63
   27c34:	9a08      	ldr	r2, [sp, #32]
   27c36:	f7f8 fb31 	bl	2029c <_ZN9allow_pin12dynamic_type11allow_inner17hf1099571477a6939E>
   27c3a:	910f      	str	r1, [sp, #60]	@ 0x3c
   27c3c:	07c0      	lsls	r0, r0, #31
   27c3e:	d119      	bne.n	27c74 <_start+0x7670>
   27c40:	48bd      	ldr	r0, [pc, #756]	@ (27f38 <_start+0x7934>)
   27c42:	4468      	add	r0, sp
   27c44:	990d      	ldr	r1, [sp, #52]	@ 0x34
   27c46:	7001      	strb	r1, [r0, #0]
   27c48:	990a      	ldr	r1, [sp, #40]	@ 0x28
   27c4a:	9100      	str	r1, [sp, #0]
   27c4c:	2018      	movs	r0, #24
   27c4e:	232c      	movs	r3, #44	@ 0x2c
   27c50:	4622      	mov	r2, r4
   27c52:	f7f8 fb23 	bl	2029c <_ZN9allow_pin12dynamic_type11allow_inner17hf1099571477a6939E>
   27c56:	910f      	str	r1, [sp, #60]	@ 0x3c
   27c58:	07c0      	lsls	r0, r0, #31
   27c5a:	d10b      	bne.n	27c74 <_start+0x7670>
   27c5c:	a8ff      	add	r0, sp, #1020	@ 0x3fc
   27c5e:	30a4      	adds	r0, #164	@ 0xa4
   27c60:	9a0a      	ldr	r2, [sp, #40]	@ 0x28
   27c62:	7002      	strb	r2, [r0, #0]
   27c64:	2018      	movs	r0, #24
   27c66:	2105      	movs	r1, #5
   27c68:	2600      	movs	r6, #0
   27c6a:	4633      	mov	r3, r6
   27c6c:	df02      	svc	2
   27c6e:	910f      	str	r1, [sp, #60]	@ 0x3c
   27c70:	287f      	cmp	r0, #127	@ 0x7f
   27c72:	d801      	bhi.n	27c78 <_start+0x7674>
   27c74:	9e0b      	ldr	r6, [sp, #44]	@ 0x2c
   27c76:	e02c      	b.n	27cd2 <_start+0x76ce>
   27c78:	48af      	ldr	r0, [pc, #700]	@ (27f38 <_start+0x7934>)
   27c7a:	4468      	add	r0, sp
   27c7c:	7802      	ldrb	r2, [r0, #0]
   27c7e:	2a02      	cmp	r2, #2
   27c80:	d00d      	beq.n	27c9e <_start+0x769a>
   27c82:	2018      	movs	r0, #24
   27c84:	2105      	movs	r1, #5
   27c86:	f000 f95d 	bl	27f44 <_ZN9allow_pin12dynamic_type7unshare17ha4091652f9b609c4E>
   27c8a:	48ab      	ldr	r0, [pc, #684]	@ (27f38 <_start+0x7934>)
   27c8c:	4468      	add	r0, sp
   27c8e:	990e      	ldr	r1, [sp, #56]	@ 0x38
   27c90:	7001      	strb	r1, [r0, #0]
   27c92:	a8ff      	add	r0, sp, #1020	@ 0x3fc
   27c94:	30a4      	adds	r0, #164	@ 0xa4
   27c96:	7800      	ldrb	r0, [r0, #0]
   27c98:	900a      	str	r0, [sp, #40]	@ 0x28
   27c9a:	2802      	cmp	r0, #2
   27c9c:	d004      	beq.n	27ca8 <_start+0x76a4>
   27c9e:	2018      	movs	r0, #24
   27ca0:	2103      	movs	r1, #3
   27ca2:	9a0a      	ldr	r2, [sp, #40]	@ 0x28
   27ca4:	f000 f94e 	bl	27f44 <_ZN9allow_pin12dynamic_type7unshare17ha4091652f9b609c4E>
   27ca8:	a9ff      	add	r1, sp, #1020	@ 0x3fc
   27caa:	31a4      	adds	r1, #164	@ 0xa4
   27cac:	980e      	ldr	r0, [sp, #56]	@ 0x38
   27cae:	7008      	strb	r0, [r1, #0]
   27cb0:	78a0      	ldrb	r0, [r4, #2]
   27cb2:	aac9      	add	r2, sp, #804	@ 0x324
   27cb4:	7090      	strb	r0, [r2, #2]
   27cb6:	7820      	ldrb	r0, [r4, #0]
   27cb8:	7863      	ldrb	r3, [r4, #1]
   27cba:	021b      	lsls	r3, r3, #8
   27cbc:	1818      	adds	r0, r3, r0
   27cbe:	8010      	strh	r0, [r2, #0]
   27cc0:	9809      	ldr	r0, [sp, #36]	@ 0x24
   27cc2:	6800      	ldr	r0, [r0, #0]
   27cc4:	900f      	str	r0, [sp, #60]	@ 0x3c
   27cc6:	3108      	adds	r1, #8
   27cc8:	489c      	ldr	r0, [pc, #624]	@ (27f3c <_start+0x7938>)
   27cca:	4468      	add	r0, sp
   27ccc:	2225      	movs	r2, #37	@ 0x25
   27cce:	f000 fb06 	bl	282de <__aeabi_memcpy>
   27cd2:	a8ff      	add	r0, sp, #1020	@ 0x3fc
   27cd4:	30a4      	adds	r0, #164	@ 0xa4
   27cd6:	7802      	ldrb	r2, [r0, #0]
   27cd8:	2a02      	cmp	r2, #2
   27cda:	d003      	beq.n	27ce4 <_start+0x76e0>
   27cdc:	2018      	movs	r0, #24
   27cde:	2103      	movs	r1, #3
   27ce0:	f000 f930 	bl	27f44 <_ZN9allow_pin12dynamic_type7unshare17ha4091652f9b609c4E>
   27ce4:	4894      	ldr	r0, [pc, #592]	@ (27f38 <_start+0x7934>)
   27ce6:	4468      	add	r0, sp
   27ce8:	7802      	ldrb	r2, [r0, #0]
   27cea:	2a02      	cmp	r2, #2
   27cec:	d003      	beq.n	27cf6 <_start+0x76f2>
   27cee:	2018      	movs	r0, #24
   27cf0:	2105      	movs	r1, #5
   27cf2:	f000 f927 	bl	27f44 <_ZN9allow_pin12dynamic_type7unshare17ha4091652f9b609c4E>
   27cf6:	2e00      	cmp	r6, #0
   27cf8:	d001      	beq.n	27cfe <_start+0x76fa>
   27cfa:	f7fa fa2b 	bl	22154 <_start+0x1b50>
   27cfe:	4c8e      	ldr	r4, [pc, #568]	@ (27f38 <_start+0x7934>)
   27d00:	446c      	add	r4, sp
   27d02:	1c60      	adds	r0, r4, #1
   27d04:	9008      	str	r0, [sp, #32]
   27d06:	a9c9      	add	r1, sp, #804	@ 0x324
   27d08:	2203      	movs	r2, #3
   27d0a:	9207      	str	r2, [sp, #28]
   27d0c:	f000 fae7 	bl	282de <__aeabi_memcpy>
   27d10:	a89f      	add	r0, sp, #636	@ 0x27c
   27d12:	900a      	str	r0, [sp, #40]	@ 0x28
   27d14:	4989      	ldr	r1, [pc, #548]	@ (27f3c <_start+0x7938>)
   27d16:	4469      	add	r1, sp
   27d18:	2625      	movs	r6, #37	@ 0x25
   27d1a:	4632      	mov	r2, r6
   27d1c:	f000 fadf 	bl	282de <__aeabi_memcpy>
   27d20:	4620      	mov	r0, r4
   27d22:	3008      	adds	r0, #8
   27d24:	990a      	ldr	r1, [sp, #40]	@ 0x28
   27d26:	4632      	mov	r2, r6
   27d28:	f000 fad9 	bl	282de <__aeabi_memcpy>
   27d2c:	9e0e      	ldr	r6, [sp, #56]	@ 0x38
   27d2e:	7026      	strb	r6, [r4, #0]
   27d30:	980c      	ldr	r0, [sp, #48]	@ 0x30
   27d32:	990f      	ldr	r1, [sp, #60]	@ 0x3c
   27d34:	6541      	str	r1, [r0, #84]	@ 0x54
   27d36:	acff      	add	r4, sp, #1020	@ 0x3fc
   27d38:	34a4      	adds	r4, #164	@ 0xa4
   27d3a:	1c60      	adds	r0, r4, #1
   27d3c:	212a      	movs	r1, #42	@ 0x2a
   27d3e:	900a      	str	r0, [sp, #40]	@ 0x28
   27d40:	f000 f90d 	bl	27f5e <__aeabi_memclr>
   27d44:	7026      	strb	r6, [r4, #0]
   27d46:	980d      	ldr	r0, [sp, #52]	@ 0x34
   27d48:	9000      	str	r0, [sp, #0]
   27d4a:	232c      	movs	r3, #44	@ 0x2c
   27d4c:	4877      	ldr	r0, [pc, #476]	@ (27f2c <_start+0x7928>)
   27d4e:	9907      	ldr	r1, [sp, #28]
   27d50:	460c      	mov	r4, r1
   27d52:	9a08      	ldr	r2, [sp, #32]
   27d54:	f7f8 faa2 	bl	2029c <_ZN9allow_pin12dynamic_type11allow_inner17hf1099571477a6939E>
   27d58:	910f      	str	r1, [sp, #60]	@ 0x3c
   27d5a:	07c0      	lsls	r0, r0, #31
   27d5c:	d125      	bne.n	27daa <_start+0x77a6>
   27d5e:	4876      	ldr	r0, [pc, #472]	@ (27f38 <_start+0x7934>)
   27d60:	4468      	add	r0, sp
   27d62:	990d      	ldr	r1, [sp, #52]	@ 0x34
   27d64:	7001      	strb	r1, [r0, #0]
   27d66:	9400      	str	r4, [sp, #0]
   27d68:	2100      	movs	r1, #0
   27d6a:	232a      	movs	r3, #42	@ 0x2a
   27d6c:	486f      	ldr	r0, [pc, #444]	@ (27f2c <_start+0x7928>)
   27d6e:	9a0a      	ldr	r2, [sp, #40]	@ 0x28
   27d70:	f7f8 fa94 	bl	2029c <_ZN9allow_pin12dynamic_type11allow_inner17hf1099571477a6939E>
   27d74:	910f      	str	r1, [sp, #60]	@ 0x3c
   27d76:	07c0      	lsls	r0, r0, #31
   27d78:	d006      	beq.n	27d88 <_start+0x7784>
   27d7a:	a8ff      	add	r0, sp, #1020	@ 0x3fc
   27d7c:	30a4      	adds	r0, #164	@ 0xa4
   27d7e:	7802      	ldrb	r2, [r0, #0]
   27d80:	2a02      	cmp	r2, #2
   27d82:	9e0b      	ldr	r6, [sp, #44]	@ 0x2c
   27d84:	d10d      	bne.n	27da2 <_start+0x779e>
   27d86:	e040      	b.n	27e0a <_start+0x7806>
   27d88:	a8ff      	add	r0, sp, #1020	@ 0x3fc
   27d8a:	30a4      	adds	r0, #164	@ 0xa4
   27d8c:	4621      	mov	r1, r4
   27d8e:	7004      	strb	r4, [r0, #0]
   27d90:	4866      	ldr	r0, [pc, #408]	@ (27f2c <_start+0x7928>)
   27d92:	2600      	movs	r6, #0
   27d94:	4632      	mov	r2, r6
   27d96:	4633      	mov	r3, r6
   27d98:	df02      	svc	2
   27d9a:	910f      	str	r1, [sp, #60]	@ 0x3c
   27d9c:	287f      	cmp	r0, #127	@ 0x7f
   27d9e:	d806      	bhi.n	27dae <_start+0x77aa>
   27da0:	2203      	movs	r2, #3
   27da2:	2100      	movs	r1, #0
   27da4:	4861      	ldr	r0, [pc, #388]	@ (27f2c <_start+0x7928>)
   27da6:	f000 f8cd 	bl	27f44 <_ZN9allow_pin12dynamic_type7unshare17ha4091652f9b609c4E>
   27daa:	9e0b      	ldr	r6, [sp, #44]	@ 0x2c
   27dac:	e02d      	b.n	27e0a <_start+0x7806>
   27dae:	4862      	ldr	r0, [pc, #392]	@ (27f38 <_start+0x7934>)
   27db0:	4468      	add	r0, sp
   27db2:	7802      	ldrb	r2, [r0, #0]
   27db4:	2a02      	cmp	r2, #2
   27db6:	d00d      	beq.n	27dd4 <_start+0x77d0>
   27db8:	2103      	movs	r1, #3
   27dba:	485c      	ldr	r0, [pc, #368]	@ (27f2c <_start+0x7928>)
   27dbc:	f000 f8c2 	bl	27f44 <_ZN9allow_pin12dynamic_type7unshare17ha4091652f9b609c4E>
   27dc0:	485d      	ldr	r0, [pc, #372]	@ (27f38 <_start+0x7934>)
   27dc2:	4468      	add	r0, sp
   27dc4:	990e      	ldr	r1, [sp, #56]	@ 0x38
   27dc6:	7001      	strb	r1, [r0, #0]
   27dc8:	a8ff      	add	r0, sp, #1020	@ 0x3fc
   27dca:	30a4      	adds	r0, #164	@ 0xa4
   27dcc:	7800      	ldrb	r0, [r0, #0]
   27dce:	4604      	mov	r4, r0
   27dd0:	2802      	cmp	r0, #2
   27dd2:	d004      	beq.n	27dde <_start+0x77da>
   27dd4:	2100      	movs	r1, #0
   27dd6:	4855      	ldr	r0, [pc, #340]	@ (27f2c <_start+0x7928>)
   27dd8:	4622      	mov	r2, r4
   27dda:	f000 f8b3 	bl	27f44 <_ZN9allow_pin12dynamic_type7unshare17ha4091652f9b609c4E>
   27dde:	a9ff      	add	r1, sp, #1020	@ 0x3fc
   27de0:	31a4      	adds	r1, #164	@ 0xa4
   27de2:	980e      	ldr	r0, [sp, #56]	@ 0x38
   27de4:	7008      	strb	r0, [r1, #0]
   27de6:	9b0a      	ldr	r3, [sp, #40]	@ 0x28
   27de8:	7898      	ldrb	r0, [r3, #2]
   27dea:	aac9      	add	r2, sp, #804	@ 0x324
   27dec:	7090      	strb	r0, [r2, #2]
   27dee:	7818      	ldrb	r0, [r3, #0]
   27df0:	785b      	ldrb	r3, [r3, #1]
   27df2:	021b      	lsls	r3, r3, #8
   27df4:	1818      	adds	r0, r3, r0
   27df6:	8010      	strh	r0, [r2, #0]
   27df8:	9809      	ldr	r0, [sp, #36]	@ 0x24
   27dfa:	6800      	ldr	r0, [r0, #0]
   27dfc:	900f      	str	r0, [sp, #60]	@ 0x3c
   27dfe:	3108      	adds	r1, #8
   27e00:	484e      	ldr	r0, [pc, #312]	@ (27f3c <_start+0x7938>)
   27e02:	4468      	add	r0, sp
   27e04:	2223      	movs	r2, #35	@ 0x23
   27e06:	f000 fa6a 	bl	282de <__aeabi_memcpy>
   27e0a:	484b      	ldr	r0, [pc, #300]	@ (27f38 <_start+0x7934>)
   27e0c:	4468      	add	r0, sp
   27e0e:	7802      	ldrb	r2, [r0, #0]
   27e10:	2a02      	cmp	r2, #2
   27e12:	d003      	beq.n	27e1c <_start+0x7818>
   27e14:	2103      	movs	r1, #3
   27e16:	4845      	ldr	r0, [pc, #276]	@ (27f2c <_start+0x7928>)
   27e18:	f000 f894 	bl	27f44 <_ZN9allow_pin12dynamic_type7unshare17ha4091652f9b609c4E>
   27e1c:	2e00      	cmp	r6, #0
   27e1e:	d001      	beq.n	27e24 <_start+0x7820>
   27e20:	f7fa f998 	bl	22154 <_start+0x1b50>
   27e24:	4c44      	ldr	r4, [pc, #272]	@ (27f38 <_start+0x7934>)
   27e26:	446c      	add	r4, sp
   27e28:	1c60      	adds	r0, r4, #1
   27e2a:	9008      	str	r0, [sp, #32]
   27e2c:	a9c9      	add	r1, sp, #804	@ 0x324
   27e2e:	2203      	movs	r2, #3
   27e30:	920a      	str	r2, [sp, #40]	@ 0x28
   27e32:	f000 fa54 	bl	282de <__aeabi_memcpy>
   27e36:	ae9f      	add	r6, sp, #636	@ 0x27c
   27e38:	4940      	ldr	r1, [pc, #256]	@ (27f3c <_start+0x7938>)
   27e3a:	4469      	add	r1, sp
   27e3c:	2523      	movs	r5, #35	@ 0x23
   27e3e:	4630      	mov	r0, r6
   27e40:	462a      	mov	r2, r5
   27e42:	f000 fa4c 	bl	282de <__aeabi_memcpy>
   27e46:	4620      	mov	r0, r4
   27e48:	3008      	adds	r0, #8
   27e4a:	4631      	mov	r1, r6
   27e4c:	462a      	mov	r2, r5
   27e4e:	f000 fa46 	bl	282de <__aeabi_memcpy>
   27e52:	9d0e      	ldr	r5, [sp, #56]	@ 0x38
   27e54:	7025      	strb	r5, [r4, #0]
   27e56:	980c      	ldr	r0, [sp, #48]	@ 0x30
   27e58:	990f      	ldr	r1, [sp, #60]	@ 0x3c
   27e5a:	6541      	str	r1, [r0, #84]	@ 0x54
   27e5c:	acff      	add	r4, sp, #1020	@ 0x3fc
   27e5e:	34a4      	adds	r4, #164	@ 0xa4
   27e60:	1c66      	adds	r6, r4, #1
   27e62:	2128      	movs	r1, #40	@ 0x28
   27e64:	4630      	mov	r0, r6
   27e66:	f000 f87a 	bl	27f5e <__aeabi_memclr>
   27e6a:	7025      	strb	r5, [r4, #0]
   27e6c:	990d      	ldr	r1, [sp, #52]	@ 0x34
   27e6e:	9100      	str	r1, [sp, #0]
   27e70:	482d      	ldr	r0, [pc, #180]	@ (27f28 <_start+0x7924>)
   27e72:	30af      	adds	r0, #175	@ 0xaf
   27e74:	232a      	movs	r3, #42	@ 0x2a
   27e76:	4604      	mov	r4, r0
   27e78:	9a08      	ldr	r2, [sp, #32]
   27e7a:	f7f8 fa0f 	bl	2029c <_ZN9allow_pin12dynamic_type11allow_inner17hf1099571477a6939E>
   27e7e:	910f      	str	r1, [sp, #60]	@ 0x3c
   27e80:	07c0      	lsls	r0, r0, #31
   27e82:	d126      	bne.n	27ed2 <_start+0x78ce>
   27e84:	482c      	ldr	r0, [pc, #176]	@ (27f38 <_start+0x7934>)
   27e86:	4468      	add	r0, sp
   27e88:	990d      	ldr	r1, [sp, #52]	@ 0x34
   27e8a:	7001      	strb	r1, [r0, #0]
   27e8c:	980a      	ldr	r0, [sp, #40]	@ 0x28
   27e8e:	9000      	str	r0, [sp, #0]
   27e90:	2108      	movs	r1, #8
   27e92:	2328      	movs	r3, #40	@ 0x28
   27e94:	4620      	mov	r0, r4
   27e96:	4632      	mov	r2, r6
   27e98:	f7f8 fa00 	bl	2029c <_ZN9allow_pin12dynamic_type11allow_inner17hf1099571477a6939E>
   27e9c:	910f      	str	r1, [sp, #60]	@ 0x3c
   27e9e:	07c0      	lsls	r0, r0, #31
   27ea0:	d005      	beq.n	27eae <_start+0x78aa>
   27ea2:	a8ff      	add	r0, sp, #1020	@ 0x3fc
   27ea4:	30a4      	adds	r0, #164	@ 0xa4
   27ea6:	7802      	ldrb	r2, [r0, #0]
   27ea8:	2a02      	cmp	r2, #2
   27eaa:	d10e      	bne.n	27eca <_start+0x78c6>
   27eac:	e011      	b.n	27ed2 <_start+0x78ce>
   27eae:	a8ff      	add	r0, sp, #1020	@ 0x3fc
   27eb0:	30a4      	adds	r0, #164	@ 0xa4
   27eb2:	990a      	ldr	r1, [sp, #40]	@ 0x28
   27eb4:	7001      	strb	r1, [r0, #0]
   27eb6:	481f      	ldr	r0, [pc, #124]	@ (27f34 <_start+0x7930>)
   27eb8:	2104      	movs	r1, #4
   27eba:	2208      	movs	r2, #8
   27ebc:	2500      	movs	r5, #0
   27ebe:	462b      	mov	r3, r5
   27ec0:	df02      	svc	2
   27ec2:	910f      	str	r1, [sp, #60]	@ 0x3c
   27ec4:	287f      	cmp	r0, #127	@ 0x7f
   27ec6:	d806      	bhi.n	27ed6 <_start+0x78d2>
   27ec8:	2203      	movs	r2, #3
   27eca:	2108      	movs	r1, #8
   27ecc:	4620      	mov	r0, r4
   27ece:	f000 f839 	bl	27f44 <_ZN9allow_pin12dynamic_type7unshare17ha4091652f9b609c4E>
   27ed2:	9d0b      	ldr	r5, [sp, #44]	@ 0x2c
   27ed4:	e01a      	b.n	27f0c <_start+0x7908>
   27ed6:	4818      	ldr	r0, [pc, #96]	@ (27f38 <_start+0x7934>)
   27ed8:	4468      	add	r0, sp
   27eda:	7802      	ldrb	r2, [r0, #0]
   27edc:	2a02      	cmp	r2, #2
   27ede:	d00d      	beq.n	27efc <_start+0x78f8>
   27ee0:	2104      	movs	r1, #4
   27ee2:	4620      	mov	r0, r4
   27ee4:	f000 f82e 	bl	27f44 <_ZN9allow_pin12dynamic_type7unshare17ha4091652f9b609c4E>
   27ee8:	4813      	ldr	r0, [pc, #76]	@ (27f38 <_start+0x7934>)
   27eea:	4468      	add	r0, sp
   27eec:	990e      	ldr	r1, [sp, #56]	@ 0x38
   27eee:	7001      	strb	r1, [r0, #0]
   27ef0:	a8ff      	add	r0, sp, #1020	@ 0x3fc
   27ef2:	30a4      	adds	r0, #164	@ 0xa4
   27ef4:	7800      	ldrb	r0, [r0, #0]
   27ef6:	900a      	str	r0, [sp, #40]	@ 0x28
   27ef8:	2802      	cmp	r0, #2
   27efa:	d004      	beq.n	27f06 <_start+0x7902>
   27efc:	2108      	movs	r1, #8
   27efe:	4620      	mov	r0, r4
   27f00:	9a0a      	ldr	r2, [sp, #40]	@ 0x28
   27f02:	f000 f81f 	bl	27f44 <_ZN9allow_pin12dynamic_type7unshare17ha4091652f9b609c4E>
   27f06:	9809      	ldr	r0, [sp, #36]	@ 0x24
   27f08:	6800      	ldr	r0, [r0, #0]
   27f0a:	900f      	str	r0, [sp, #60]	@ 0x3c
   27f0c:	480a      	ldr	r0, [pc, #40]	@ (27f38 <_start+0x7934>)
   27f0e:	4468      	add	r0, sp
   27f10:	7802      	ldrb	r2, [r0, #0]
   27f12:	2a02      	cmp	r2, #2
   27f14:	d101      	bne.n	27f1a <_start+0x7916>
   27f16:	f7fa f91d 	bl	22154 <_start+0x1b50>
   27f1a:	2104      	movs	r1, #4
   27f1c:	4620      	mov	r0, r4
   27f1e:	f000 f811 	bl	27f44 <_ZN9allow_pin12dynamic_type7unshare17ha4091652f9b609c4E>
   27f22:	f7fa f917 	bl	22154 <_start+0x1b50>
   27f26:	46c0      	nop			@ (mov r8, r8)
   27f28:	00001e4b 	.word	0x00001e4b
   27f2c:	000024f0 	.word	0x000024f0
   27f30:	00010206 	.word	0x00010206
   27f34:	00001efa 	.word	0x00001efa
   27f38:	000005a8 	.word	0x000005a8
   27f3c:	00000558 	.word	0x00000558
   27f40:	000004fc 	.word	0x000004fc

00027f44 <_ZN9allow_pin12dynamic_type7unshare17ha4091652f9b609c4E>:
   27f44:	b580      	push	{r7, lr}
   27f46:	af00      	add	r7, sp, #0
   27f48:	b2d2      	uxtb	r2, r2
   27f4a:	2a03      	cmp	r2, #3
   27f4c:	d103      	bne.n	27f56 <_ZN9allow_pin12dynamic_type7unshare17ha4091652f9b609c4E+0x12>
   27f4e:	2200      	movs	r2, #0
   27f50:	4613      	mov	r3, r2
   27f52:	df03      	svc	3
   27f54:	bd80      	pop	{r7, pc}
   27f56:	2200      	movs	r2, #0
   27f58:	4613      	mov	r3, r2
   27f5a:	df04      	svc	4
   27f5c:	bd80      	pop	{r7, pc}

00027f5e <__aeabi_memclr>:
   27f5e:	b5f0      	push	{r4, r5, r6, r7, lr}
   27f60:	af03      	add	r7, sp, #12
   27f62:	2910      	cmp	r1, #16
   27f64:	d332      	bcc.n	27fcc <__aeabi_memclr+0x6e>
   27f66:	4244      	negs	r4, r0
   27f68:	2203      	movs	r2, #3
   27f6a:	4014      	ands	r4, r2
   27f6c:	1903      	adds	r3, r0, r4
   27f6e:	4298      	cmp	r0, r3
   27f70:	d218      	bcs.n	27fa4 <__aeabi_memclr+0x46>
   27f72:	1e65      	subs	r5, r4, #1
   27f74:	2c00      	cmp	r4, #0
   27f76:	d00b      	beq.n	27f90 <__aeabi_memclr+0x32>
   27f78:	2600      	movs	r6, #0
   27f7a:	7006      	strb	r6, [r0, #0]
   27f7c:	2c01      	cmp	r4, #1
   27f7e:	d103      	bne.n	27f88 <__aeabi_memclr+0x2a>
   27f80:	1c40      	adds	r0, r0, #1
   27f82:	2d03      	cmp	r5, #3
   27f84:	d206      	bcs.n	27f94 <__aeabi_memclr+0x36>
   27f86:	e00d      	b.n	27fa4 <__aeabi_memclr+0x46>
   27f88:	7046      	strb	r6, [r0, #1]
   27f8a:	2c02      	cmp	r4, #2
   27f8c:	d142      	bne.n	28014 <__aeabi_memclr+0xb6>
   27f8e:	1c80      	adds	r0, r0, #2
   27f90:	2d03      	cmp	r5, #3
   27f92:	d307      	bcc.n	27fa4 <__aeabi_memclr+0x46>
   27f94:	2500      	movs	r5, #0
   27f96:	70c5      	strb	r5, [r0, #3]
   27f98:	7085      	strb	r5, [r0, #2]
   27f9a:	7045      	strb	r5, [r0, #1]
   27f9c:	7005      	strb	r5, [r0, #0]
   27f9e:	1d00      	adds	r0, r0, #4
   27fa0:	4298      	cmp	r0, r3
   27fa2:	d1f7      	bne.n	27f94 <__aeabi_memclr+0x36>
   27fa4:	1b09      	subs	r1, r1, r4
   27fa6:	4608      	mov	r0, r1
   27fa8:	4390      	bics	r0, r2
   27faa:	1818      	adds	r0, r3, r0
   27fac:	4283      	cmp	r3, r0
   27fae:	d20c      	bcs.n	27fca <__aeabi_memclr+0x6c>
   27fb0:	2400      	movs	r4, #0
   27fb2:	c310      	stmia	r3!, {r4}
   27fb4:	4283      	cmp	r3, r0
   27fb6:	d208      	bcs.n	27fca <__aeabi_memclr+0x6c>
   27fb8:	c310      	stmia	r3!, {r4}
   27fba:	4283      	cmp	r3, r0
   27fbc:	d205      	bcs.n	27fca <__aeabi_memclr+0x6c>
   27fbe:	c310      	stmia	r3!, {r4}
   27fc0:	4283      	cmp	r3, r0
   27fc2:	d202      	bcs.n	27fca <__aeabi_memclr+0x6c>
   27fc4:	c310      	stmia	r3!, {r4}
   27fc6:	4283      	cmp	r3, r0
   27fc8:	d3f2      	bcc.n	27fb0 <__aeabi_memclr+0x52>
   27fca:	4011      	ands	r1, r2
   27fcc:	1842      	adds	r2, r0, r1
   27fce:	4290      	cmp	r0, r2
   27fd0:	d21a      	bcs.n	28008 <__aeabi_memclr+0xaa>
   27fd2:	2303      	movs	r3, #3
   27fd4:	400b      	ands	r3, r1
   27fd6:	1e49      	subs	r1, r1, #1
   27fd8:	2b00      	cmp	r3, #0
   27fda:	d00b      	beq.n	27ff4 <__aeabi_memclr+0x96>
   27fdc:	2400      	movs	r4, #0
   27fde:	7004      	strb	r4, [r0, #0]
   27fe0:	2b01      	cmp	r3, #1
   27fe2:	d103      	bne.n	27fec <__aeabi_memclr+0x8e>
   27fe4:	1c40      	adds	r0, r0, #1
   27fe6:	2903      	cmp	r1, #3
   27fe8:	d206      	bcs.n	27ff8 <__aeabi_memclr+0x9a>
   27fea:	e00d      	b.n	28008 <__aeabi_memclr+0xaa>
   27fec:	7044      	strb	r4, [r0, #1]
   27fee:	2b02      	cmp	r3, #2
   27ff0:	d10b      	bne.n	2800a <__aeabi_memclr+0xac>
   27ff2:	1c80      	adds	r0, r0, #2
   27ff4:	2903      	cmp	r1, #3
   27ff6:	d307      	bcc.n	28008 <__aeabi_memclr+0xaa>
   27ff8:	2100      	movs	r1, #0
   27ffa:	70c1      	strb	r1, [r0, #3]
   27ffc:	7081      	strb	r1, [r0, #2]
   27ffe:	7041      	strb	r1, [r0, #1]
   28000:	7001      	strb	r1, [r0, #0]
   28002:	1d00      	adds	r0, r0, #4
   28004:	4290      	cmp	r0, r2
   28006:	d1f7      	bne.n	27ff8 <__aeabi_memclr+0x9a>
   28008:	bdf0      	pop	{r4, r5, r6, r7, pc}
   2800a:	7084      	strb	r4, [r0, #2]
   2800c:	1cc0      	adds	r0, r0, #3
   2800e:	2903      	cmp	r1, #3
   28010:	d2f2      	bcs.n	27ff8 <__aeabi_memclr+0x9a>
   28012:	e7f9      	b.n	28008 <__aeabi_memclr+0xaa>
   28014:	7086      	strb	r6, [r0, #2]
   28016:	1cc0      	adds	r0, r0, #3
   28018:	2d03      	cmp	r5, #3
   2801a:	d2bb      	bcs.n	27f94 <__aeabi_memclr+0x36>
   2801c:	e7c2      	b.n	27fa4 <__aeabi_memclr+0x46>

0002801e <__aeabi_memcpy4>:
   2801e:	b5f0      	push	{r4, r5, r6, r7, lr}
   28020:	af03      	add	r7, sp, #12
   28022:	b081      	sub	sp, #4
   28024:	2a04      	cmp	r2, #4
   28026:	d32d      	bcc.n	28084 <__aeabi_memcpy4+0x66>
   28028:	1f13      	subs	r3, r2, #4
   2802a:	250c      	movs	r5, #12
   2802c:	401d      	ands	r5, r3
   2802e:	2d0c      	cmp	r5, #12
   28030:	d019      	beq.n	28066 <__aeabi_memcpy4+0x48>
   28032:	9200      	str	r2, [sp, #0]
   28034:	460e      	mov	r6, r1
   28036:	c904      	ldmia	r1!, {r2}
   28038:	4604      	mov	r4, r0
   2803a:	c004      	stmia	r0!, {r2}
   2803c:	071a      	lsls	r2, r3, #28
   2803e:	0f92      	lsrs	r2, r2, #30
   28040:	461a      	mov	r2, r3
   28042:	d010      	beq.n	28066 <__aeabi_memcpy4+0x48>
   28044:	4631      	mov	r1, r6
   28046:	6872      	ldr	r2, [r6, #4]
   28048:	6062      	str	r2, [r4, #4]
   2804a:	2d04      	cmp	r5, #4
   2804c:	d104      	bne.n	28058 <__aeabi_memcpy4+0x3a>
   2804e:	9a00      	ldr	r2, [sp, #0]
   28050:	3a08      	subs	r2, #8
   28052:	3108      	adds	r1, #8
   28054:	3408      	adds	r4, #8
   28056:	e005      	b.n	28064 <__aeabi_memcpy4+0x46>
   28058:	688a      	ldr	r2, [r1, #8]
   2805a:	60a2      	str	r2, [r4, #8]
   2805c:	9a00      	ldr	r2, [sp, #0]
   2805e:	3a0c      	subs	r2, #12
   28060:	310c      	adds	r1, #12
   28062:	340c      	adds	r4, #12
   28064:	4620      	mov	r0, r4
   28066:	2b0c      	cmp	r3, #12
   28068:	d30c      	bcc.n	28084 <__aeabi_memcpy4+0x66>
   2806a:	680b      	ldr	r3, [r1, #0]
   2806c:	6003      	str	r3, [r0, #0]
   2806e:	684b      	ldr	r3, [r1, #4]
   28070:	6043      	str	r3, [r0, #4]
   28072:	688b      	ldr	r3, [r1, #8]
   28074:	6083      	str	r3, [r0, #8]
   28076:	68cb      	ldr	r3, [r1, #12]
   28078:	60c3      	str	r3, [r0, #12]
   2807a:	3110      	adds	r1, #16
   2807c:	3010      	adds	r0, #16
   2807e:	3a10      	subs	r2, #16
   28080:	2a03      	cmp	r2, #3
   28082:	d8f2      	bhi.n	2806a <__aeabi_memcpy4+0x4c>
   28084:	f000 f802 	bl	2808c <_ZN17compiler_builtins3mem6memcpy17h1f9dbb1c3fd18e2fE>
   28088:	b001      	add	sp, #4
   2808a:	bdf0      	pop	{r4, r5, r6, r7, pc}

0002808c <_ZN17compiler_builtins3mem6memcpy17h1f9dbb1c3fd18e2fE>:
   2808c:	b5f0      	push	{r4, r5, r6, r7, lr}
   2808e:	af03      	add	r7, sp, #12
   28090:	b08f      	sub	sp, #60	@ 0x3c
   28092:	2a10      	cmp	r2, #16
   28094:	d315      	bcc.n	280c2 <_ZN17compiler_builtins3mem6memcpy17h1f9dbb1c3fd18e2fE+0x36>
   28096:	920b      	str	r2, [sp, #44]	@ 0x2c
   28098:	4242      	negs	r2, r0
   2809a:	2303      	movs	r3, #3
   2809c:	9308      	str	r3, [sp, #32]
   2809e:	401a      	ands	r2, r3
   280a0:	1885      	adds	r5, r0, r2
   280a2:	900a      	str	r0, [sp, #40]	@ 0x28
   280a4:	42a8      	cmp	r0, r5
   280a6:	d22a      	bcs.n	280fe <_ZN17compiler_builtins3mem6memcpy17h1f9dbb1c3fd18e2fE+0x72>
   280a8:	1e54      	subs	r4, r2, #1
   280aa:	2a00      	cmp	r2, #0
   280ac:	980a      	ldr	r0, [sp, #40]	@ 0x28
   280ae:	4606      	mov	r6, r0
   280b0:	460b      	mov	r3, r1
   280b2:	d016      	beq.n	280e2 <_ZN17compiler_builtins3mem6memcpy17h1f9dbb1c3fd18e2fE+0x56>
   280b4:	780b      	ldrb	r3, [r1, #0]
   280b6:	7003      	strb	r3, [r0, #0]
   280b8:	2a01      	cmp	r2, #1
   280ba:	d107      	bne.n	280cc <_ZN17compiler_builtins3mem6memcpy17h1f9dbb1c3fd18e2fE+0x40>
   280bc:	1c4b      	adds	r3, r1, #1
   280be:	1c46      	adds	r6, r0, #1
   280c0:	e00f      	b.n	280e2 <_ZN17compiler_builtins3mem6memcpy17h1f9dbb1c3fd18e2fE+0x56>
   280c2:	4603      	mov	r3, r0
   280c4:	189c      	adds	r4, r3, r2
   280c6:	42a3      	cmp	r3, r4
   280c8:	d341      	bcc.n	2814e <_ZN17compiler_builtins3mem6memcpy17h1f9dbb1c3fd18e2fE+0xc2>
   280ca:	e062      	b.n	28192 <_ZN17compiler_builtins3mem6memcpy17h1f9dbb1c3fd18e2fE+0x106>
   280cc:	784b      	ldrb	r3, [r1, #1]
   280ce:	7043      	strb	r3, [r0, #1]
   280d0:	2a02      	cmp	r2, #2
   280d2:	d102      	bne.n	280da <_ZN17compiler_builtins3mem6memcpy17h1f9dbb1c3fd18e2fE+0x4e>
   280d4:	1c8b      	adds	r3, r1, #2
   280d6:	1c86      	adds	r6, r0, #2
   280d8:	e003      	b.n	280e2 <_ZN17compiler_builtins3mem6memcpy17h1f9dbb1c3fd18e2fE+0x56>
   280da:	788b      	ldrb	r3, [r1, #2]
   280dc:	7083      	strb	r3, [r0, #2]
   280de:	1ccb      	adds	r3, r1, #3
   280e0:	1cc6      	adds	r6, r0, #3
   280e2:	2c03      	cmp	r4, #3
   280e4:	d30b      	bcc.n	280fe <_ZN17compiler_builtins3mem6memcpy17h1f9dbb1c3fd18e2fE+0x72>
   280e6:	781c      	ldrb	r4, [r3, #0]
   280e8:	7034      	strb	r4, [r6, #0]
   280ea:	785c      	ldrb	r4, [r3, #1]
   280ec:	7074      	strb	r4, [r6, #1]
   280ee:	789c      	ldrb	r4, [r3, #2]
   280f0:	70b4      	strb	r4, [r6, #2]
   280f2:	78dc      	ldrb	r4, [r3, #3]
   280f4:	70f4      	strb	r4, [r6, #3]
   280f6:	1d1b      	adds	r3, r3, #4
   280f8:	1d36      	adds	r6, r6, #4
   280fa:	42ae      	cmp	r6, r5
   280fc:	d1f3      	bne.n	280e6 <_ZN17compiler_builtins3mem6memcpy17h1f9dbb1c3fd18e2fE+0x5a>
   280fe:	980b      	ldr	r0, [sp, #44]	@ 0x2c
   28100:	1a80      	subs	r0, r0, r2
   28102:	900b      	str	r0, [sp, #44]	@ 0x2c
   28104:	9c08      	ldr	r4, [sp, #32]
   28106:	43a0      	bics	r0, r4
   28108:	182b      	adds	r3, r5, r0
   2810a:	188e      	adds	r6, r1, r2
   2810c:	9609      	str	r6, [sp, #36]	@ 0x24
   2810e:	4026      	ands	r6, r4
   28110:	9007      	str	r0, [sp, #28]
   28112:	d147      	bne.n	281a4 <_ZN17compiler_builtins3mem6memcpy17h1f9dbb1c3fd18e2fE+0x118>
   28114:	429d      	cmp	r5, r3
   28116:	9a0b      	ldr	r2, [sp, #44]	@ 0x2c
   28118:	9e09      	ldr	r6, [sp, #36]	@ 0x24
   2811a:	d211      	bcs.n	28140 <_ZN17compiler_builtins3mem6memcpy17h1f9dbb1c3fd18e2fE+0xb4>
   2811c:	4631      	mov	r1, r6
   2811e:	6808      	ldr	r0, [r1, #0]
   28120:	c501      	stmia	r5!, {r0}
   28122:	429d      	cmp	r5, r3
   28124:	d20c      	bcs.n	28140 <_ZN17compiler_builtins3mem6memcpy17h1f9dbb1c3fd18e2fE+0xb4>
   28126:	6848      	ldr	r0, [r1, #4]
   28128:	c501      	stmia	r5!, {r0}
   2812a:	429d      	cmp	r5, r3
   2812c:	d208      	bcs.n	28140 <_ZN17compiler_builtins3mem6memcpy17h1f9dbb1c3fd18e2fE+0xb4>
   2812e:	6888      	ldr	r0, [r1, #8]
   28130:	c501      	stmia	r5!, {r0}
   28132:	429d      	cmp	r5, r3
   28134:	d204      	bcs.n	28140 <_ZN17compiler_builtins3mem6memcpy17h1f9dbb1c3fd18e2fE+0xb4>
   28136:	68c8      	ldr	r0, [r1, #12]
   28138:	c501      	stmia	r5!, {r0}
   2813a:	3110      	adds	r1, #16
   2813c:	429d      	cmp	r5, r3
   2813e:	d3ee      	bcc.n	2811e <_ZN17compiler_builtins3mem6memcpy17h1f9dbb1c3fd18e2fE+0x92>
   28140:	4022      	ands	r2, r4
   28142:	9807      	ldr	r0, [sp, #28]
   28144:	1831      	adds	r1, r6, r0
   28146:	980a      	ldr	r0, [sp, #40]	@ 0x28
   28148:	189c      	adds	r4, r3, r2
   2814a:	42a3      	cmp	r3, r4
   2814c:	d221      	bcs.n	28192 <_ZN17compiler_builtins3mem6memcpy17h1f9dbb1c3fd18e2fE+0x106>
   2814e:	2503      	movs	r5, #3
   28150:	4015      	ands	r5, r2
   28152:	1e52      	subs	r2, r2, #1
   28154:	2d00      	cmp	r5, #0
   28156:	d00e      	beq.n	28176 <_ZN17compiler_builtins3mem6memcpy17h1f9dbb1c3fd18e2fE+0xea>
   28158:	780e      	ldrb	r6, [r1, #0]
   2815a:	701e      	strb	r6, [r3, #0]
   2815c:	2d01      	cmp	r5, #1
   2815e:	d104      	bne.n	2816a <_ZN17compiler_builtins3mem6memcpy17h1f9dbb1c3fd18e2fE+0xde>
   28160:	1c49      	adds	r1, r1, #1
   28162:	1c5b      	adds	r3, r3, #1
   28164:	2a03      	cmp	r2, #3
   28166:	d208      	bcs.n	2817a <_ZN17compiler_builtins3mem6memcpy17h1f9dbb1c3fd18e2fE+0xee>
   28168:	e013      	b.n	28192 <_ZN17compiler_builtins3mem6memcpy17h1f9dbb1c3fd18e2fE+0x106>
   2816a:	784e      	ldrb	r6, [r1, #1]
   2816c:	705e      	strb	r6, [r3, #1]
   2816e:	2d02      	cmp	r5, #2
   28170:	d111      	bne.n	28196 <_ZN17compiler_builtins3mem6memcpy17h1f9dbb1c3fd18e2fE+0x10a>
   28172:	1c89      	adds	r1, r1, #2
   28174:	1c9b      	adds	r3, r3, #2
   28176:	2a03      	cmp	r2, #3
   28178:	d30b      	bcc.n	28192 <_ZN17compiler_builtins3mem6memcpy17h1f9dbb1c3fd18e2fE+0x106>
   2817a:	780a      	ldrb	r2, [r1, #0]
   2817c:	701a      	strb	r2, [r3, #0]
   2817e:	784a      	ldrb	r2, [r1, #1]
   28180:	705a      	strb	r2, [r3, #1]
   28182:	788a      	ldrb	r2, [r1, #2]
   28184:	709a      	strb	r2, [r3, #2]
   28186:	78ca      	ldrb	r2, [r1, #3]
   28188:	70da      	strb	r2, [r3, #3]
   2818a:	1d09      	adds	r1, r1, #4
   2818c:	1d1b      	adds	r3, r3, #4
   2818e:	42a3      	cmp	r3, r4
   28190:	d1f3      	bne.n	2817a <_ZN17compiler_builtins3mem6memcpy17h1f9dbb1c3fd18e2fE+0xee>
   28192:	b00f      	add	sp, #60	@ 0x3c
   28194:	bdf0      	pop	{r4, r5, r6, r7, pc}
   28196:	788d      	ldrb	r5, [r1, #2]
   28198:	709d      	strb	r5, [r3, #2]
   2819a:	1cc9      	adds	r1, r1, #3
   2819c:	1cdb      	adds	r3, r3, #3
   2819e:	2a03      	cmp	r2, #3
   281a0:	d2eb      	bcs.n	2817a <_ZN17compiler_builtins3mem6memcpy17h1f9dbb1c3fd18e2fE+0xee>
   281a2:	e7f6      	b.n	28192 <_ZN17compiler_builtins3mem6memcpy17h1f9dbb1c3fd18e2fE+0x106>
   281a4:	2400      	movs	r4, #0
   281a6:	9406      	str	r4, [sp, #24]
   281a8:	940e      	str	r4, [sp, #56]	@ 0x38
   281aa:	ac0e      	add	r4, sp, #56	@ 0x38
   281ac:	19a4      	adds	r4, r4, r6
   281ae:	9405      	str	r4, [sp, #20]
   281b0:	2404      	movs	r4, #4
   281b2:	1ba4      	subs	r4, r4, r6
   281b4:	9404      	str	r4, [sp, #16]
   281b6:	07e4      	lsls	r4, r4, #31
   281b8:	9600      	str	r6, [sp, #0]
   281ba:	d006      	beq.n	281ca <_ZN17compiler_builtins3mem6memcpy17h1f9dbb1c3fd18e2fE+0x13e>
   281bc:	9c09      	ldr	r4, [sp, #36]	@ 0x24
   281be:	7824      	ldrb	r4, [r4, #0]
   281c0:	9e05      	ldr	r6, [sp, #20]
   281c2:	7034      	strb	r4, [r6, #0]
   281c4:	9e00      	ldr	r6, [sp, #0]
   281c6:	2401      	movs	r4, #1
   281c8:	9406      	str	r4, [sp, #24]
   281ca:	9c04      	ldr	r4, [sp, #16]
   281cc:	07a4      	lsls	r4, r4, #30
   281ce:	d508      	bpl.n	281e2 <_ZN17compiler_builtins3mem6memcpy17h1f9dbb1c3fd18e2fE+0x156>
   281d0:	9c09      	ldr	r4, [sp, #36]	@ 0x24
   281d2:	9204      	str	r2, [sp, #16]
   281d4:	9a06      	ldr	r2, [sp, #24]
   281d6:	5aa4      	ldrh	r4, [r4, r2]
   281d8:	9e05      	ldr	r6, [sp, #20]
   281da:	9a06      	ldr	r2, [sp, #24]
   281dc:	52b4      	strh	r4, [r6, r2]
   281de:	9a04      	ldr	r2, [sp, #16]
   281e0:	9e00      	ldr	r6, [sp, #0]
   281e2:	00f4      	lsls	r4, r6, #3
   281e4:	9403      	str	r4, [sp, #12]
   281e6:	9c0e      	ldr	r4, [sp, #56]	@ 0x38
   281e8:	9406      	str	r4, [sp, #24]
   281ea:	1d2c      	adds	r4, r5, #4
   281ec:	429c      	cmp	r4, r3
   281ee:	d236      	bcs.n	2825e <_ZN17compiler_builtins3mem6memcpy17h1f9dbb1c3fd18e2fE+0x1d2>
   281f0:	4274      	negs	r4, r6
   281f2:	1909      	adds	r1, r1, r4
   281f4:	9105      	str	r1, [sp, #20]
   281f6:	9d03      	ldr	r5, [sp, #12]
   281f8:	4269      	negs	r1, r5
   281fa:	2418      	movs	r4, #24
   281fc:	400c      	ands	r4, r1
   281fe:	9402      	str	r4, [sp, #8]
   28200:	990a      	ldr	r1, [sp, #40]	@ 0x28
   28202:	9104      	str	r1, [sp, #16]
   28204:	4629      	mov	r1, r5
   28206:	9c06      	ldr	r4, [sp, #24]
   28208:	40cc      	lsrs	r4, r1
   2820a:	9406      	str	r4, [sp, #24]
   2820c:	9905      	ldr	r1, [sp, #20]
   2820e:	1889      	adds	r1, r1, r2
   28210:	9101      	str	r1, [sp, #4]
   28212:	6849      	ldr	r1, [r1, #4]
   28214:	460c      	mov	r4, r1
   28216:	9d02      	ldr	r5, [sp, #8]
   28218:	40ac      	lsls	r4, r5
   2821a:	9d06      	ldr	r5, [sp, #24]
   2821c:	432c      	orrs	r4, r5
   2821e:	9d04      	ldr	r5, [sp, #16]
   28220:	50ac      	str	r4, [r5, r2]
   28222:	18ad      	adds	r5, r5, r2
   28224:	462c      	mov	r4, r5
   28226:	3408      	adds	r4, #8
   28228:	429c      	cmp	r4, r3
   2822a:	d21c      	bcs.n	28266 <_ZN17compiler_builtins3mem6memcpy17h1f9dbb1c3fd18e2fE+0x1da>
   2822c:	9c03      	ldr	r4, [sp, #12]
   2822e:	40e1      	lsrs	r1, r4
   28230:	9c01      	ldr	r4, [sp, #4]
   28232:	68a4      	ldr	r4, [r4, #8]
   28234:	9406      	str	r4, [sp, #24]
   28236:	9501      	str	r5, [sp, #4]
   28238:	9d02      	ldr	r5, [sp, #8]
   2823a:	40ac      	lsls	r4, r5
   2823c:	430c      	orrs	r4, r1
   2823e:	9901      	ldr	r1, [sp, #4]
   28240:	604c      	str	r4, [r1, #4]
   28242:	9904      	ldr	r1, [sp, #16]
   28244:	3108      	adds	r1, #8
   28246:	9104      	str	r1, [sp, #16]
   28248:	188d      	adds	r5, r1, r2
   2824a:	1d29      	adds	r1, r5, #4
   2824c:	9c05      	ldr	r4, [sp, #20]
   2824e:	3408      	adds	r4, #8
   28250:	9405      	str	r4, [sp, #20]
   28252:	4299      	cmp	r1, r3
   28254:	9903      	ldr	r1, [sp, #12]
   28256:	d3d6      	bcc.n	28206 <_ZN17compiler_builtins3mem6memcpy17h1f9dbb1c3fd18e2fE+0x17a>
   28258:	9805      	ldr	r0, [sp, #20]
   2825a:	1880      	adds	r0, r0, r2
   2825c:	e001      	b.n	28262 <_ZN17compiler_builtins3mem6memcpy17h1f9dbb1c3fd18e2fE+0x1d6>
   2825e:	9809      	ldr	r0, [sp, #36]	@ 0x24
   28260:	1b80      	subs	r0, r0, r6
   28262:	9005      	str	r0, [sp, #20]
   28264:	e004      	b.n	28270 <_ZN17compiler_builtins3mem6memcpy17h1f9dbb1c3fd18e2fE+0x1e4>
   28266:	9801      	ldr	r0, [sp, #4]
   28268:	1d00      	adds	r0, r0, #4
   2826a:	9005      	str	r0, [sp, #20]
   2826c:	1d2d      	adds	r5, r5, #4
   2826e:	9106      	str	r1, [sp, #24]
   28270:	a80d      	add	r0, sp, #52	@ 0x34
   28272:	2100      	movs	r1, #0
   28274:	9004      	str	r0, [sp, #16]
   28276:	7001      	strb	r1, [r0, #0]
   28278:	a80c      	add	r0, sp, #48	@ 0x30
   2827a:	7001      	strb	r1, [r0, #0]
   2827c:	2e01      	cmp	r6, #1
   2827e:	460e      	mov	r6, r1
   28280:	460c      	mov	r4, r1
   28282:	9102      	str	r1, [sp, #8]
   28284:	9a0b      	ldr	r2, [sp, #44]	@ 0x2c
   28286:	d009      	beq.n	2829c <_ZN17compiler_builtins3mem6memcpy17h1f9dbb1c3fd18e2fE+0x210>
   28288:	9c05      	ldr	r4, [sp, #20]
   2828a:	7960      	ldrb	r0, [r4, #5]
   2828c:	7926      	ldrb	r6, [r4, #4]
   2828e:	ac0d      	add	r4, sp, #52	@ 0x34
   28290:	7026      	strb	r6, [r4, #0]
   28292:	0204      	lsls	r4, r0, #8
   28294:	2002      	movs	r0, #2
   28296:	9002      	str	r0, [sp, #8]
   28298:	a80c      	add	r0, sp, #48	@ 0x30
   2829a:	9004      	str	r0, [sp, #16]
   2829c:	9809      	ldr	r0, [sp, #36]	@ 0x24
   2829e:	07c0      	lsls	r0, r0, #31
   282a0:	d00a      	beq.n	282b8 <_ZN17compiler_builtins3mem6memcpy17h1f9dbb1c3fd18e2fE+0x22c>
   282a2:	9805      	ldr	r0, [sp, #20]
   282a4:	1d00      	adds	r0, r0, #4
   282a6:	9902      	ldr	r1, [sp, #8]
   282a8:	5c40      	ldrb	r0, [r0, r1]
   282aa:	9904      	ldr	r1, [sp, #16]
   282ac:	7008      	strb	r0, [r1, #0]
   282ae:	a80d      	add	r0, sp, #52	@ 0x34
   282b0:	7806      	ldrb	r6, [r0, #0]
   282b2:	a80c      	add	r0, sp, #48	@ 0x30
   282b4:	7800      	ldrb	r0, [r0, #0]
   282b6:	0401      	lsls	r1, r0, #16
   282b8:	9605      	str	r6, [sp, #20]
   282ba:	9803      	ldr	r0, [sp, #12]
   282bc:	4240      	negs	r0, r0
   282be:	9004      	str	r0, [sp, #16]
   282c0:	2618      	movs	r6, #24
   282c2:	9804      	ldr	r0, [sp, #16]
   282c4:	4006      	ands	r6, r0
   282c6:	430c      	orrs	r4, r1
   282c8:	9905      	ldr	r1, [sp, #20]
   282ca:	430c      	orrs	r4, r1
   282cc:	40b4      	lsls	r4, r6
   282ce:	9906      	ldr	r1, [sp, #24]
   282d0:	9803      	ldr	r0, [sp, #12]
   282d2:	40c1      	lsrs	r1, r0
   282d4:	4321      	orrs	r1, r4
   282d6:	6029      	str	r1, [r5, #0]
   282d8:	9c08      	ldr	r4, [sp, #32]
   282da:	9e09      	ldr	r6, [sp, #36]	@ 0x24
   282dc:	e730      	b.n	28140 <_ZN17compiler_builtins3mem6memcpy17h1f9dbb1c3fd18e2fE+0xb4>

000282de <__aeabi_memcpy>:
   282de:	b580      	push	{r7, lr}
   282e0:	af00      	add	r7, sp, #0
   282e2:	f7ff fed3 	bl	2808c <_ZN17compiler_builtins3mem6memcpy17h1f9dbb1c3fd18e2fE>
   282e6:	bd80      	pop	{r7, pc}
