
target/riscv32imc-unknown-none-elf/opt-z/examples/complex_no_dynamic:     file format elf32-littleriscv

Sections:
Idx Name          Size      VMA       LMA       File off  Algn
  0 .eh_frame     00000060  000100d4  000100d4  000000d4  2**2
                  CONTENTS, ALLOC, LOAD, READONLY, DATA
  1 .text         00006e96  00011134  00011134  00000134  2**1
                  CONTENTS, ALLOC, LOAD, READONLY, CODE
  2 .comment      0000008b  00000000  00000000  00006fca  2**0
                  CONTENTS, READONLY
  3 .riscv.attributes 0000002f  00000000  00000000  00007055  2**0
                  CONTENTS, READONLY

Disassembly of section .text:

00011134 <_ZN9allow_pin10no_dynamic11allow_inner17h151634b71b3fc351E>:
   11134:	4711                	li	a4,4
   11136:	00000073          	ecall
   1113a:	1579                	addi	a0,a0,-2
   1113c:	00153513          	seqz	a0,a0
   11140:	8082                	ret

00011142 <_ZN9allow_pin10no_dynamic11allow_inner17ha2b744c817d78427E>:
   11142:	470d                	li	a4,3
   11144:	00000073          	ecall
   11148:	1579                	addi	a0,a0,-2
   1114a:	00153513          	seqz	a0,a0
   1114e:	8082                	ret

00011150 <_ZN9allow_pin7command17h1eb46760111c3605E>:
   11150:	4709                	li	a4,2
   11152:	4681                	li	a3,0
   11154:	00000073          	ecall
   11158:	08053513          	sltiu	a0,a0,128
   1115c:	8082                	ret

0001115e <_start>:
   1115e:	8d010113          	addi	sp,sp,-1840
   11162:	70010513          	addi	a0,sp,1792
   11166:	02152623          	sw	ra,44(a0)
   1116a:	d500                	sw	s0,40(a0)
   1116c:	d144                	sw	s1,36(a0)
   1116e:	03252023          	sw	s2,32(a0)
   11172:	01352e23          	sw	s3,28(a0)
   11176:	01452c23          	sw	s4,24(a0)
   1117a:	01552a23          	sw	s5,20(a0)
   1117e:	01652823          	sw	s6,16(a0)
   11182:	01752623          	sw	s7,12(a0)
   11186:	5ec10513          	addi	a0,sp,1516
   1118a:	02800613          	li	a2,40
   1118e:	4581                	li	a1,0
   11190:	00007097          	auipc	ra,0x7
   11194:	c28080e7          	jalr	-984(ra) # 17db8 <memset>
   11198:	6a810513          	addi	a0,sp,1704
   1119c:	05100613          	li	a2,81
   111a0:	4581                	li	a1,0
   111a2:	00007097          	auipc	ra,0x7
   111a6:	c16080e7          	jalr	-1002(ra) # 17db8 <memset>
   111aa:	6409                	lui	s0,0x2
   111ac:	45a5                	li	a1,9
   111ae:	5ec10613          	addi	a2,sp,1516
   111b2:	0419                	addi	s0,s0,6 # 2006 <.Lline_table_start1+0x1ddb>
   111b4:	02800693          	li	a3,40
   111b8:	8522                	mv	a0,s0
   111ba:	00000097          	auipc	ra,0x0
   111be:	f7a080e7          	jalr	-134(ra) # 11134 <_ZN9allow_pin10no_dynamic11allow_inner17h151634b71b3fc351E>
   111c2:	8905                	andi	a0,a0,1
   111c4:	e90d                	bnez	a0,111f6 <_start+0x98>
   111c6:	45a5                	li	a1,9
   111c8:	6a810613          	addi	a2,sp,1704
   111cc:	05100693          	li	a3,81
   111d0:	8522                	mv	a0,s0
   111d2:	00000097          	auipc	ra,0x0
   111d6:	f70080e7          	jalr	-144(ra) # 11142 <_ZN9allow_pin10no_dynamic11allow_inner17ha2b744c817d78427E>
   111da:	8905                	andi	a0,a0,1
   111dc:	ed09                	bnez	a0,111f6 <_start+0x98>
   111de:	6909                	lui	s2,0x2
   111e0:	45a5                	li	a1,9
   111e2:	00690493          	addi	s1,s2,6 # 2006 <.Lline_table_start1+0x1ddb>
   111e6:	4625                	li	a2,9
   111e8:	8526                	mv	a0,s1
   111ea:	00000097          	auipc	ra,0x0
   111ee:	f66080e7          	jalr	-154(ra) # 11150 <_ZN9allow_pin7command17h1eb46760111c3605E>
   111f2:	8905                	andi	a0,a0,1
   111f4:	c531                	beqz	a0,11240 <_start+0xe2>
   111f6:	00007297          	auipc	t0,0x7
   111fa:	9ee282e7          	jalr	t0,-1554(t0) # 17be4 <OUTLINED_FUNCTION_28>
   111fe:	00000073          	ecall
   11202:	45a5                	li	a1,9
   11204:	4711                	li	a4,4
   11206:	8522                	mv	a0,s0
   11208:	4601                	li	a2,0
   1120a:	4681                	li	a3,0
   1120c:	00000073          	ecall
   11210:	4405                	li	s0,1
   11212:	8522                	mv	a0,s0
   11214:	85be                	mv	a1,a5
   11216:	70010613          	addi	a2,sp,1792
   1121a:	02c62083          	lw	ra,44(a2)
   1121e:	5600                	lw	s0,40(a2)
   11220:	5244                	lw	s1,36(a2)
   11222:	02062903          	lw	s2,32(a2)
   11226:	01c62983          	lw	s3,28(a2)
   1122a:	01862a03          	lw	s4,24(a2)
   1122e:	01462a83          	lw	s5,20(a2)
   11232:	01062b03          	lw	s6,16(a2)
   11236:	00c62b83          	lw	s7,12(a2)
   1123a:	73010113          	addi	sp,sp,1840
   1123e:	8082                	ret
   11240:	00007297          	auipc	t0,0x7
   11244:	9ce282e7          	jalr	t0,-1586(t0) # 17c0e <OUTLINED_FUNCTION_31>
   11248:	00000073          	ecall
   1124c:	00007297          	auipc	t0,0x7
   11250:	a24282e7          	jalr	t0,-1500(t0) # 17c70 <OUTLINED_FUNCTION_38>
   11254:	00000073          	ecall
   11258:	00006297          	auipc	t0,0x6
   1125c:	7ac282e7          	jalr	t0,1964(t0) # 17a04 <OUTLINED_FUNCTION_9>
   11260:	6ad14403          	lbu	s0,1709(sp)
   11264:	6ae14a83          	lbu	s5,1710(sp)
   11268:	00a11223          	sh	a0,4(sp)
   1126c:	00c10323          	sb	a2,6(sp)
   11270:	00007297          	auipc	t0,0x7
   11274:	ac2282e7          	jalr	t0,-1342(t0) # 17d32 <OUTLINED_FUNCTION_52>
   11278:	00007097          	auipc	ra,0x7
   1127c:	bac080e7          	jalr	-1108(ra) # 17e24 <memcpy>
   11280:	00007297          	auipc	t0,0x7
   11284:	98e282e7          	jalr	t0,-1650(t0) # 17c0e <OUTLINED_FUNCTION_31>
   11288:	00000073          	ecall
   1128c:	00007297          	auipc	t0,0x7
   11290:	b08282e7          	jalr	t0,-1272(t0) # 17d94 <OUTLINED_FUNCTION_60>
   11294:	00000073          	ecall
   11298:	00007297          	auipc	t0,0x7
   1129c:	a8c282e7          	jalr	t0,-1396(t0) # 17d24 <OUTLINED_FUNCTION_51>
   112a0:	00007097          	auipc	ra,0x7
   112a4:	b84080e7          	jalr	-1148(ra) # 17e24 <memcpy>
   112a8:	00411503          	lh	a0,4(sp)
   112ac:	00614583          	lbu	a1,6(sp)
   112b0:	6a8106a3          	sb	s0,1709(sp)
   112b4:	00006297          	auipc	t0,0x6
   112b8:	7d2282e7          	jalr	t0,2002(t0) # 17a86 <OUTLINED_FUNCTION_14>
   112bc:	04600613          	li	a2,70
   112c0:	4581                	li	a1,0
   112c2:	00007097          	auipc	ra,0x7
   112c6:	af6080e7          	jalr	-1290(ra) # 17db8 <memset>
   112ca:	0c490513          	addi	a0,s2,196
   112ce:	459d                	li	a1,7
   112d0:	6a810613          	addi	a2,sp,1704
   112d4:	05100693          	li	a3,81
   112d8:	00000097          	auipc	ra,0x0
   112dc:	e5c080e7          	jalr	-420(ra) # 11134 <_ZN9allow_pin10no_dynamic11allow_inner17h151634b71b3fc351E>
   112e0:	8905                	andi	a0,a0,1
   112e2:	e90d                	bnez	a0,11314 <_start+0x1b6>
   112e4:	6509                	lui	a0,0x2
   112e6:	64410613          	addi	a2,sp,1604
   112ea:	0c450413          	addi	s0,a0,196 # 20c4 <.Lline_table_start1+0x1e99>
   112ee:	04600693          	li	a3,70
   112f2:	8522                	mv	a0,s0
   112f4:	4581                	li	a1,0
   112f6:	00000097          	auipc	ra,0x0
   112fa:	e4c080e7          	jalr	-436(ra) # 11142 <_ZN9allow_pin10no_dynamic11allow_inner17ha2b744c817d78427E>
   112fe:	8905                	andi	a0,a0,1
   11300:	e911                	bnez	a0,11314 <_start+0x1b6>
   11302:	459d                	li	a1,7
   11304:	8522                	mv	a0,s0
   11306:	4601                	li	a2,0
   11308:	00000097          	auipc	ra,0x0
   1130c:	e48080e7          	jalr	-440(ra) # 11150 <_ZN9allow_pin7command17h1eb46760111c3605E>
   11310:	8905                	andi	a0,a0,1
   11312:	c11d                	beqz	a0,11338 <_start+0x1da>
   11314:	87ae                	mv	a5,a1
   11316:	4581                	li	a1,0
   11318:	4601                	li	a2,0
   1131a:	4681                	li	a3,0
   1131c:	6509                	lui	a0,0x2
   1131e:	0c450493          	addi	s1,a0,196 # 20c4 <.Lline_table_start1+0x1e99>
   11322:	470d                	li	a4,3
   11324:	8526                	mv	a0,s1
   11326:	00000073          	ecall
   1132a:	00007297          	auipc	t0,0x7
   1132e:	952282e7          	jalr	t0,-1710(t0) # 17c7c <OUTLINED_FUNCTION_39>
   11332:	00000073          	ecall
   11336:	bde9                	j	11210 <_start+0xb2>
   11338:	4581                	li	a1,0
   1133a:	4601                	li	a2,0
   1133c:	4681                	li	a3,0
   1133e:	6909                	lui	s2,0x2
   11340:	0c490413          	addi	s0,s2,196 # 20c4 <.Lline_table_start1+0x1e99>
   11344:	470d                	li	a4,3
   11346:	8522                	mv	a0,s0
   11348:	00000073          	ecall
   1134c:	470d                	li	a4,3
   1134e:	8522                	mv	a0,s0
   11350:	4581                	li	a1,0
   11352:	4601                	li	a2,0
   11354:	4681                	li	a3,0
   11356:	00000073          	ecall
   1135a:	00006297          	auipc	t0,0x6
   1135e:	6de282e7          	jalr	t0,1758(t0) # 17a38 <OUTLINED_FUNCTION_11>
   11362:	64914483          	lbu	s1,1609(sp)
   11366:	64a14a83          	lbu	s5,1610(sp)
   1136a:	00a11423          	sh	a0,8(sp)
   1136e:	00c10523          	sb	a2,10(sp)
   11372:	64b10593          	addi	a1,sp,1611
   11376:	5ec10513          	addi	a0,sp,1516
   1137a:	03f00613          	li	a2,63
   1137e:	00007097          	auipc	ra,0x7
   11382:	aa6080e7          	jalr	-1370(ra) # 17e24 <memcpy>
   11386:	00007297          	auipc	t0,0x7
   1138a:	956282e7          	jalr	t0,-1706(t0) # 17cdc <OUTLINED_FUNCTION_47>
   1138e:	00000073          	ecall
   11392:	00007297          	auipc	t0,0x7
   11396:	932282e7          	jalr	t0,-1742(t0) # 17cc4 <OUTLINED_FUNCTION_45>
   1139a:	00000073          	ecall
   1139e:	6af10513          	addi	a0,sp,1711
   113a2:	5ec10593          	addi	a1,sp,1516
   113a6:	03f00613          	li	a2,63
   113aa:	00007097          	auipc	ra,0x7
   113ae:	a7a080e7          	jalr	-1414(ra) # 17e24 <memcpy>
   113b2:	00811503          	lh	a0,8(sp)
   113b6:	00a14583          	lbu	a1,10(sp)
   113ba:	00006297          	auipc	t0,0x6
   113be:	664282e7          	jalr	t0,1636(t0) # 17a1e <OUTLINED_FUNCTION_10>
   113c2:	64410513          	addi	a0,sp,1604
   113c6:	4661                	li	a2,24
   113c8:	4581                	li	a1,0
   113ca:	00007097          	auipc	ra,0x7
   113ce:	9ee080e7          	jalr	-1554(ra) # 17db8 <memset>
   113d2:	3cf90413          	addi	s0,s2,975
   113d6:	458d                	li	a1,3
   113d8:	6a810613          	addi	a2,sp,1704
   113dc:	04600693          	li	a3,70
   113e0:	8522                	mv	a0,s0
   113e2:	00000097          	auipc	ra,0x0
   113e6:	d52080e7          	jalr	-686(ra) # 11134 <_ZN9allow_pin10no_dynamic11allow_inner17h151634b71b3fc351E>
   113ea:	8905                	andi	a0,a0,1
   113ec:	e905                	bnez	a0,1141c <_start+0x2be>
   113ee:	4589                	li	a1,2
   113f0:	64410613          	addi	a2,sp,1604
   113f4:	46e1                	li	a3,24
   113f6:	8522                	mv	a0,s0
   113f8:	00000097          	auipc	ra,0x0
   113fc:	d4a080e7          	jalr	-694(ra) # 11142 <_ZN9allow_pin10no_dynamic11allow_inner17ha2b744c817d78427E>
   11400:	8905                	andi	a0,a0,1
   11402:	ed09                	bnez	a0,1141c <_start+0x2be>
   11404:	6509                	lui	a0,0x2
   11406:	458d                	li	a1,3
   11408:	3cf50493          	addi	s1,a0,975 # 23cf <.Lline_table_start1+0x21a4>
   1140c:	4609                	li	a2,2
   1140e:	8526                	mv	a0,s1
   11410:	00000097          	auipc	ra,0x0
   11414:	d40080e7          	jalr	-704(ra) # 11150 <_ZN9allow_pin7command17h1eb46760111c3605E>
   11418:	8905                	andi	a0,a0,1
   1141a:	c105                	beqz	a0,1143a <_start+0x2dc>
   1141c:	87ae                	mv	a5,a1
   1141e:	8522                	mv	a0,s0
   11420:	4601                	li	a2,0
   11422:	4681                	li	a3,0
   11424:	4589                	li	a1,2
   11426:	470d                	li	a4,3
   11428:	00000073          	ecall
   1142c:	00007297          	auipc	t0,0x7
   11430:	914282e7          	jalr	t0,-1772(t0) # 17d40 <OUTLINED_FUNCTION_53>
   11434:	00000073          	ecall
   11438:	bbe1                	j	11210 <_start+0xb2>
   1143a:	8526                	mv	a0,s1
   1143c:	4601                	li	a2,0
   1143e:	4681                	li	a3,0
   11440:	4589                	li	a1,2
   11442:	470d                	li	a4,3
   11444:	00000073          	ecall
   11448:	470d                	li	a4,3
   1144a:	4589                	li	a1,2
   1144c:	8526                	mv	a0,s1
   1144e:	4601                	li	a2,0
   11450:	4681                	li	a3,0
   11452:	00000073          	ecall
   11456:	00006297          	auipc	t0,0x6
   1145a:	49c282e7          	jalr	t0,1180(t0) # 178f2 <OUTLINED_FUNCTION_0>
   1145e:	00a11623          	sh	a0,12(sp)
   11462:	00c10723          	sb	a2,14(sp)
   11466:	64b10593          	addi	a1,sp,1611
   1146a:	52c10513          	addi	a0,sp,1324
   1146e:	4645                	li	a2,17
   11470:	00007097          	auipc	ra,0x7
   11474:	9b4080e7          	jalr	-1612(ra) # 17e24 <memcpy>
   11478:	8526                	mv	a0,s1
   1147a:	4601                	li	a2,0
   1147c:	4681                	li	a3,0
   1147e:	4589                	li	a1,2
   11480:	470d                	li	a4,3
   11482:	00000073          	ecall
   11486:	00006297          	auipc	t0,0x6
   1148a:	7de282e7          	jalr	t0,2014(t0) # 17c64 <OUTLINED_FUNCTION_37>
   1148e:	00000073          	ecall
   11492:	5f310513          	addi	a0,sp,1523
   11496:	52c10593          	addi	a1,sp,1324
   1149a:	4645                	li	a2,17
   1149c:	00007097          	auipc	ra,0x7
   114a0:	988080e7          	jalr	-1656(ra) # 17e24 <memcpy>
   114a4:	00c11503          	lh	a0,12(sp)
   114a8:	00e14583          	lbu	a1,14(sp)
   114ac:	00006297          	auipc	t0,0x6
   114b0:	5f4282e7          	jalr	t0,1524(t0) # 17aa0 <OUTLINED_FUNCTION_15>
   114b4:	03600613          	li	a2,54
   114b8:	4581                	li	a1,0
   114ba:	00007097          	auipc	ra,0x7
   114be:	8fe080e7          	jalr	-1794(ra) # 17db8 <memset>
   114c2:	21f00513          	li	a0,543
   114c6:	5ec10613          	addi	a2,sp,1516
   114ca:	46e1                	li	a3,24
   114cc:	4581                	li	a1,0
   114ce:	00000097          	auipc	ra,0x0
   114d2:	c66080e7          	jalr	-922(ra) # 11134 <_ZN9allow_pin10no_dynamic11allow_inner17h151634b71b3fc351E>
   114d6:	8905                	andi	a0,a0,1
   114d8:	e905                	bnez	a0,11508 <_start+0x3aa>
   114da:	21f00513          	li	a0,543
   114de:	459d                	li	a1,7
   114e0:	6a810613          	addi	a2,sp,1704
   114e4:	03600693          	li	a3,54
   114e8:	00000097          	auipc	ra,0x0
   114ec:	c5a080e7          	jalr	-934(ra) # 11142 <_ZN9allow_pin10no_dynamic11allow_inner17ha2b744c817d78427E>
   114f0:	8905                	andi	a0,a0,1
   114f2:	e919                	bnez	a0,11508 <_start+0x3aa>
   114f4:	21f00513          	li	a0,543
   114f8:	461d                	li	a2,7
   114fa:	4581                	li	a1,0
   114fc:	00000097          	auipc	ra,0x0
   11500:	c54080e7          	jalr	-940(ra) # 11150 <_ZN9allow_pin7command17h1eb46760111c3605E>
   11504:	8905                	andi	a0,a0,1
   11506:	c11d                	beqz	a0,1152c <_start+0x3ce>
   11508:	87ae                	mv	a5,a1
   1150a:	4601                	li	a2,0
   1150c:	4681                	li	a3,0
   1150e:	21f00513          	li	a0,543
   11512:	459d                	li	a1,7
   11514:	470d                	li	a4,3
   11516:	00000073          	ecall
   1151a:	21f00513          	li	a0,543
   1151e:	4711                	li	a4,4
   11520:	4581                	li	a1,0
   11522:	4601                	li	a2,0
   11524:	4681                	li	a3,0
   11526:	00000073          	ecall
   1152a:	b1dd                	j	11210 <_start+0xb2>
   1152c:	4601                	li	a2,0
   1152e:	4681                	li	a3,0
   11530:	21f00513          	li	a0,543
   11534:	459d                	li	a1,7
   11536:	470d                	li	a4,3
   11538:	00000073          	ecall
   1153c:	470d                	li	a4,3
   1153e:	21f00513          	li	a0,543
   11542:	459d                	li	a1,7
   11544:	4601                	li	a2,0
   11546:	4681                	li	a3,0
   11548:	00000073          	ecall
   1154c:	00006297          	auipc	t0,0x6
   11550:	3e6282e7          	jalr	t0,998(t0) # 17932 <OUTLINED_FUNCTION_2>
   11554:	6ae14483          	lbu	s1,1710(sp)
   11558:	00a11823          	sh	a0,16(sp)
   1155c:	00c10923          	sb	a2,18(sp)
   11560:	6af10593          	addi	a1,sp,1711
   11564:	64410513          	addi	a0,sp,1604
   11568:	02f00613          	li	a2,47
   1156c:	00007097          	auipc	ra,0x7
   11570:	8b8080e7          	jalr	-1864(ra) # 17e24 <memcpy>
   11574:	4601                	li	a2,0
   11576:	4681                	li	a3,0
   11578:	21f00513          	li	a0,543
   1157c:	459d                	li	a1,7
   1157e:	470d                	li	a4,3
   11580:	00000073          	ecall
   11584:	21f00513          	li	a0,543
   11588:	4711                	li	a4,4
   1158a:	4581                	li	a1,0
   1158c:	4601                	li	a2,0
   1158e:	4681                	li	a3,0
   11590:	00000073          	ecall
   11594:	6af10513          	addi	a0,sp,1711
   11598:	64410593          	addi	a1,sp,1604
   1159c:	02f00613          	li	a2,47
   115a0:	00007097          	auipc	ra,0x7
   115a4:	884080e7          	jalr	-1916(ra) # 17e24 <memcpy>
   115a8:	01011503          	lh	a0,16(sp)
   115ac:	01214583          	lbu	a1,18(sp)
   115b0:	00006297          	auipc	t0,0x6
   115b4:	418282e7          	jalr	t0,1048(t0) # 179c8 <OUTLINED_FUNCTION_7>
   115b8:	02500613          	li	a2,37
   115bc:	4581                	li	a1,0
   115be:	00006097          	auipc	ra,0x6
   115c2:	7fa080e7          	jalr	2042(ra) # 17db8 <memset>
   115c6:	6505                	lui	a0,0x1
   115c8:	459d                	li	a1,7
   115ca:	6a810613          	addi	a2,sp,1704
   115ce:	59750413          	addi	s0,a0,1431 # 1597 <.Lline_table_start1+0x136c>
   115d2:	03600693          	li	a3,54
   115d6:	8522                	mv	a0,s0
   115d8:	00000097          	auipc	ra,0x0
   115dc:	b5c080e7          	jalr	-1188(ra) # 11134 <_ZN9allow_pin10no_dynamic11allow_inner17h151634b71b3fc351E>
   115e0:	8905                	andi	a0,a0,1
   115e2:	e90d                	bnez	a0,11614 <_start+0x4b6>
   115e4:	64410613          	addi	a2,sp,1604
   115e8:	02500693          	li	a3,37
   115ec:	8522                	mv	a0,s0
   115ee:	4581                	li	a1,0
   115f0:	00000097          	auipc	ra,0x0
   115f4:	b52080e7          	jalr	-1198(ra) # 11142 <_ZN9allow_pin10no_dynamic11allow_inner17ha2b744c817d78427E>
   115f8:	8905                	andi	a0,a0,1
   115fa:	ed09                	bnez	a0,11614 <_start+0x4b6>
   115fc:	6505                	lui	a0,0x1
   115fe:	59750493          	addi	s1,a0,1431 # 1597 <.Lline_table_start1+0x136c>
   11602:	459d                	li	a1,7
   11604:	8526                	mv	a0,s1
   11606:	4601                	li	a2,0
   11608:	00000097          	auipc	ra,0x0
   1160c:	b48080e7          	jalr	-1208(ra) # 11150 <_ZN9allow_pin7command17h1eb46760111c3605E>
   11610:	8905                	andi	a0,a0,1
   11612:	cd19                	beqz	a0,11630 <_start+0x4d2>
   11614:	87ae                	mv	a5,a1
   11616:	00006297          	auipc	t0,0x6
   1161a:	6c6282e7          	jalr	t0,1734(t0) # 17cdc <OUTLINED_FUNCTION_47>
   1161e:	00000073          	ecall
   11622:	00006297          	auipc	t0,0x6
   11626:	6a2282e7          	jalr	t0,1698(t0) # 17cc4 <OUTLINED_FUNCTION_45>
   1162a:	00000073          	ecall
   1162e:	b6cd                	j	11210 <_start+0xb2>
   11630:	00006297          	auipc	t0,0x6
   11634:	5f6282e7          	jalr	t0,1526(t0) # 17c26 <OUTLINED_FUNCTION_33>
   11638:	00000073          	ecall
   1163c:	00006297          	auipc	t0,0x6
   11640:	5ea282e7          	jalr	t0,1514(t0) # 17c26 <OUTLINED_FUNCTION_33>
   11644:	00000073          	ecall
   11648:	00006297          	auipc	t0,0x6
   1164c:	2aa282e7          	jalr	t0,682(t0) # 178f2 <OUTLINED_FUNCTION_0>
   11650:	00a11a23          	sh	a0,20(sp)
   11654:	00c10b23          	sb	a2,22(sp)
   11658:	64b10593          	addi	a1,sp,1611
   1165c:	5ec10513          	addi	a0,sp,1516
   11660:	4679                	li	a2,30
   11662:	00006097          	auipc	ra,0x6
   11666:	7c2080e7          	jalr	1986(ra) # 17e24 <memcpy>
   1166a:	00006297          	auipc	t0,0x6
   1166e:	5bc282e7          	jalr	t0,1468(t0) # 17c26 <OUTLINED_FUNCTION_33>
   11672:	00000073          	ecall
   11676:	00006297          	auipc	t0,0x6
   1167a:	606282e7          	jalr	t0,1542(t0) # 17c7c <OUTLINED_FUNCTION_39>
   1167e:	00000073          	ecall
   11682:	6af10513          	addi	a0,sp,1711
   11686:	5ec10593          	addi	a1,sp,1516
   1168a:	4679                	li	a2,30
   1168c:	00006097          	auipc	ra,0x6
   11690:	798080e7          	jalr	1944(ra) # 17e24 <memcpy>
   11694:	01411503          	lh	a0,20(sp)
   11698:	01614583          	lbu	a1,22(sp)
   1169c:	00006297          	auipc	t0,0x6
   116a0:	3b6282e7          	jalr	t0,950(t0) # 17a52 <OUTLINED_FUNCTION_12>
   116a4:	00006297          	auipc	t0,0x6
   116a8:	670282e7          	jalr	t0,1648(t0) # 17d14 <OUTLINED_FUNCTION_50>
   116ac:	64011823          	sh	zero,1616(sp)
   116b0:	66700513          	li	a0,1639
   116b4:	4589                	li	a1,2
   116b6:	6a810613          	addi	a2,sp,1704
   116ba:	02500693          	li	a3,37
   116be:	00000097          	auipc	ra,0x0
   116c2:	a76080e7          	jalr	-1418(ra) # 11134 <_ZN9allow_pin10no_dynamic11allow_inner17h151634b71b3fc351E>
   116c6:	8905                	andi	a0,a0,1
   116c8:	e51d                	bnez	a0,116f6 <_start+0x598>
   116ca:	66700513          	li	a0,1639
   116ce:	45a1                	li	a1,8
   116d0:	64410613          	addi	a2,sp,1604
   116d4:	46b9                	li	a3,14
   116d6:	00000097          	auipc	ra,0x0
   116da:	a6c080e7          	jalr	-1428(ra) # 11142 <_ZN9allow_pin10no_dynamic11allow_inner17ha2b744c817d78427E>
   116de:	8905                	andi	a0,a0,1
   116e0:	e919                	bnez	a0,116f6 <_start+0x598>
   116e2:	66700513          	li	a0,1639
   116e6:	4589                	li	a1,2
   116e8:	4621                	li	a2,8
   116ea:	00000097          	auipc	ra,0x0
   116ee:	a66080e7          	jalr	-1434(ra) # 11150 <_ZN9allow_pin7command17h1eb46760111c3605E>
   116f2:	8905                	andi	a0,a0,1
   116f4:	c11d                	beqz	a0,1171a <_start+0x5bc>
   116f6:	87ae                	mv	a5,a1
   116f8:	4601                	li	a2,0
   116fa:	4681                	li	a3,0
   116fc:	66700513          	li	a0,1639
   11700:	45a1                	li	a1,8
   11702:	470d                	li	a4,3
   11704:	00000073          	ecall
   11708:	66700513          	li	a0,1639
   1170c:	4589                	li	a1,2
   1170e:	4711                	li	a4,4
   11710:	4601                	li	a2,0
   11712:	4681                	li	a3,0
   11714:	00000073          	ecall
   11718:	bce5                	j	11210 <_start+0xb2>
   1171a:	4601                	li	a2,0
   1171c:	4681                	li	a3,0
   1171e:	66700513          	li	a0,1639
   11722:	45a1                	li	a1,8
   11724:	470d                	li	a4,3
   11726:	00000073          	ecall
   1172a:	470d                	li	a4,3
   1172c:	66700513          	li	a0,1639
   11730:	45a1                	li	a1,8
   11732:	4601                	li	a2,0
   11734:	4681                	li	a3,0
   11736:	00000073          	ecall
   1173a:	64411503          	lh	a0,1604(sp)
   1173e:	64614583          	lbu	a1,1606(sp)
   11742:	64714903          	lbu	s2,1607(sp)
   11746:	64814983          	lbu	s3,1608(sp)
   1174a:	64d14603          	lbu	a2,1613(sp)
   1174e:	64e14683          	lbu	a3,1614(sp)
   11752:	64f14703          	lbu	a4,1615(sp)
   11756:	65014783          	lbu	a5,1616(sp)
   1175a:	00a11c23          	sh	a0,24(sp)
   1175e:	00b10d23          	sb	a1,26(sp)
   11762:	64914a03          	lbu	s4,1609(sp)
   11766:	64a14483          	lbu	s1,1610(sp)
   1176a:	64b14503          	lbu	a0,1611(sp)
   1176e:	64c14583          	lbu	a1,1612(sp)
   11772:	07a2                	slli	a5,a5,0x8
   11774:	8fd9                	or	a5,a5,a4
   11776:	470d                	li	a4,3
   11778:	05a2                	slli	a1,a1,0x8
   1177a:	8dc9                	or	a1,a1,a0
   1177c:	65114403          	lbu	s0,1617(sp)
   11780:	0642                	slli	a2,a2,0x10
   11782:	06e2                	slli	a3,a3,0x18
   11784:	8e55                	or	a2,a2,a3
   11786:	66700513          	li	a0,1639
   1178a:	8e4d                	or	a2,a2,a1
   1178c:	45a1                	li	a1,8
   1178e:	52c12623          	sw	a2,1324(sp)
   11792:	52f11823          	sh	a5,1328(sp)
   11796:	52810923          	sb	s0,1330(sp)
   1179a:	4601                	li	a2,0
   1179c:	4681                	li	a3,0
   1179e:	00000073          	ecall
   117a2:	66700513          	li	a0,1639
   117a6:	4589                	li	a1,2
   117a8:	4711                	li	a4,4
   117aa:	4601                	li	a2,0
   117ac:	4681                	li	a3,0
   117ae:	00000073          	ecall
   117b2:	5f310513          	addi	a0,sp,1523
   117b6:	52c10593          	addi	a1,sp,1324
   117ba:	461d                	li	a2,7
   117bc:	00006097          	auipc	ra,0x6
   117c0:	668080e7          	jalr	1640(ra) # 17e24 <memcpy>
   117c4:	01811503          	lh	a0,24(sp)
   117c8:	01a14583          	lbu	a1,26(sp)
   117cc:	5f4108a3          	sb	s4,1521(sp)
   117d0:	5e910923          	sb	s1,1522(sp)
   117d4:	00006297          	auipc	t0,0x6
   117d8:	35c282e7          	jalr	t0,860(t0) # 17b30 <OUTLINED_FUNCTION_21>
   117dc:	04800613          	li	a2,72
   117e0:	4581                	li	a1,0
   117e2:	00006097          	auipc	ra,0x6
   117e6:	5d6080e7          	jalr	1494(ra) # 17db8 <memset>
   117ea:	6505                	lui	a0,0x1
   117ec:	458d                	li	a1,3
   117ee:	5ec10613          	addi	a2,sp,1516
   117f2:	2d150413          	addi	s0,a0,721 # 12d1 <.Lline_table_start1+0x10a6>
   117f6:	46b9                	li	a3,14
   117f8:	8522                	mv	a0,s0
   117fa:	00000097          	auipc	ra,0x0
   117fe:	93a080e7          	jalr	-1734(ra) # 11134 <_ZN9allow_pin10no_dynamic11allow_inner17h151634b71b3fc351E>
   11802:	8905                	andi	a0,a0,1
   11804:	e90d                	bnez	a0,11836 <_start+0x6d8>
   11806:	45a1                	li	a1,8
   11808:	6a810613          	addi	a2,sp,1704
   1180c:	04800693          	li	a3,72
   11810:	8522                	mv	a0,s0
   11812:	00000097          	auipc	ra,0x0
   11816:	930080e7          	jalr	-1744(ra) # 11142 <_ZN9allow_pin10no_dynamic11allow_inner17ha2b744c817d78427E>
   1181a:	8905                	andi	a0,a0,1
   1181c:	ed09                	bnez	a0,11836 <_start+0x6d8>
   1181e:	6905                	lui	s2,0x1
   11820:	458d                	li	a1,3
   11822:	2d190493          	addi	s1,s2,721 # 12d1 <.Lline_table_start1+0x10a6>
   11826:	4621                	li	a2,8
   11828:	8526                	mv	a0,s1
   1182a:	00000097          	auipc	ra,0x0
   1182e:	926080e7          	jalr	-1754(ra) # 11150 <_ZN9allow_pin7command17h1eb46760111c3605E>
   11832:	8905                	andi	a0,a0,1
   11834:	cd11                	beqz	a0,11850 <_start+0x6f2>
   11836:	00006297          	auipc	t0,0x6
   1183a:	3ca282e7          	jalr	t0,970(t0) # 17c00 <OUTLINED_FUNCTION_30>
   1183e:	00000073          	ecall
   11842:	00006297          	auipc	t0,0x6
   11846:	4fe282e7          	jalr	t0,1278(t0) # 17d40 <OUTLINED_FUNCTION_53>
   1184a:	00000073          	ecall
   1184e:	b2c9                	j	11210 <_start+0xb2>
   11850:	00006297          	auipc	t0,0x6
   11854:	408282e7          	jalr	t0,1032(t0) # 17c58 <OUTLINED_FUNCTION_36>
   11858:	00000073          	ecall
   1185c:	00006297          	auipc	t0,0x6
   11860:	544282e7          	jalr	t0,1348(t0) # 17da0 <OUTLINED_FUNCTION_61>
   11864:	00000073          	ecall
   11868:	00006297          	auipc	t0,0x6
   1186c:	19c282e7          	jalr	t0,412(t0) # 17a04 <OUTLINED_FUNCTION_9>
   11870:	6ad14403          	lbu	s0,1709(sp)
   11874:	6ae14a83          	lbu	s5,1710(sp)
   11878:	00a11e23          	sh	a0,28(sp)
   1187c:	00c10f23          	sb	a2,30(sp)
   11880:	6af10593          	addi	a1,sp,1711
   11884:	64410513          	addi	a0,sp,1604
   11888:	04100613          	li	a2,65
   1188c:	00006097          	auipc	ra,0x6
   11890:	598080e7          	jalr	1432(ra) # 17e24 <memcpy>
   11894:	00006297          	auipc	t0,0x6
   11898:	3c4282e7          	jalr	t0,964(t0) # 17c58 <OUTLINED_FUNCTION_36>
   1189c:	00000073          	ecall
   118a0:	00006297          	auipc	t0,0x6
   118a4:	3c4282e7          	jalr	t0,964(t0) # 17c64 <OUTLINED_FUNCTION_37>
   118a8:	00000073          	ecall
   118ac:	6af10513          	addi	a0,sp,1711
   118b0:	64410593          	addi	a1,sp,1604
   118b4:	04100613          	li	a2,65
   118b8:	00006097          	auipc	ra,0x6
   118bc:	56c080e7          	jalr	1388(ra) # 17e24 <memcpy>
   118c0:	01c11503          	lh	a0,28(sp)
   118c4:	01e14583          	lbu	a1,30(sp)
   118c8:	6a8106a3          	sb	s0,1709(sp)
   118cc:	00006297          	auipc	t0,0x6
   118d0:	1ba282e7          	jalr	t0,442(t0) # 17a86 <OUTLINED_FUNCTION_14>
   118d4:	463d                	li	a2,15
   118d6:	4581                	li	a1,0
   118d8:	00006097          	auipc	ra,0x6
   118dc:	4e0080e7          	jalr	1248(ra) # 17db8 <memset>
   118e0:	11d90513          	addi	a0,s2,285
   118e4:	45a1                	li	a1,8
   118e6:	6a810613          	addi	a2,sp,1704
   118ea:	04800693          	li	a3,72
   118ee:	00000097          	auipc	ra,0x0
   118f2:	846080e7          	jalr	-1978(ra) # 11134 <_ZN9allow_pin10no_dynamic11allow_inner17h151634b71b3fc351E>
   118f6:	8905                	andi	a0,a0,1
   118f8:	e905                	bnez	a0,11928 <_start+0x7ca>
   118fa:	6505                	lui	a0,0x1
   118fc:	45a5                	li	a1,9
   118fe:	64410613          	addi	a2,sp,1604
   11902:	11d50413          	addi	s0,a0,285 # 111d <.Lline_table_start1+0xef2>
   11906:	46bd                	li	a3,15
   11908:	8522                	mv	a0,s0
   1190a:	00000097          	auipc	ra,0x0
   1190e:	838080e7          	jalr	-1992(ra) # 11142 <_ZN9allow_pin10no_dynamic11allow_inner17ha2b744c817d78427E>
   11912:	8905                	andi	a0,a0,1
   11914:	e911                	bnez	a0,11928 <_start+0x7ca>
   11916:	45a1                	li	a1,8
   11918:	4625                	li	a2,9
   1191a:	8522                	mv	a0,s0
   1191c:	00000097          	auipc	ra,0x0
   11920:	834080e7          	jalr	-1996(ra) # 11150 <_ZN9allow_pin7command17h1eb46760111c3605E>
   11924:	8905                	andi	a0,a0,1
   11926:	c11d                	beqz	a0,1194c <_start+0x7ee>
   11928:	87ae                	mv	a5,a1
   1192a:	4601                	li	a2,0
   1192c:	4681                	li	a3,0
   1192e:	6505                	lui	a0,0x1
   11930:	45a5                	li	a1,9
   11932:	11d50493          	addi	s1,a0,285 # 111d <.Lline_table_start1+0xef2>
   11936:	470d                	li	a4,3
   11938:	8526                	mv	a0,s1
   1193a:	00000073          	ecall
   1193e:	00006297          	auipc	t0,0x6
   11942:	426282e7          	jalr	t0,1062(t0) # 17d64 <OUTLINED_FUNCTION_56>
   11946:	00000073          	ecall
   1194a:	b0d9                	j	11210 <_start+0xb2>
   1194c:	4601                	li	a2,0
   1194e:	4681                	li	a3,0
   11950:	6505                	lui	a0,0x1
   11952:	45a5                	li	a1,9
   11954:	11d50793          	addi	a5,a0,285 # 111d <.Lline_table_start1+0xef2>
   11958:	470d                	li	a4,3
   1195a:	853e                	mv	a0,a5
   1195c:	00000073          	ecall
   11960:	470d                	li	a4,3
   11962:	45a5                	li	a1,9
   11964:	853e                	mv	a0,a5
   11966:	4601                	li	a2,0
   11968:	4681                	li	a3,0
   1196a:	00000073          	ecall
   1196e:	470d                	li	a4,3
   11970:	64414503          	lbu	a0,1604(sp)
   11974:	64514603          	lbu	a2,1605(sp)
   11978:	64614683          	lbu	a3,1606(sp)
   1197c:	64714e03          	lbu	t3,1607(sp)
   11980:	64814383          	lbu	t2,1608(sp)
   11984:	64914803          	lbu	a6,1609(sp)
   11988:	64a14883          	lbu	a7,1610(sp)
   1198c:	64b14283          	lbu	t0,1611(sp)
   11990:	64c14303          	lbu	t1,1612(sp)
   11994:	64d14f83          	lbu	t6,1613(sp)
   11998:	64e14903          	lbu	s2,1614(sp)
   1199c:	64f14e83          	lbu	t4,1615(sp)
   119a0:	65014f03          	lbu	t5,1616(sp)
   119a4:	65114403          	lbu	s0,1617(sp)
   119a8:	65214483          	lbu	s1,1618(sp)
   119ac:	45a5                	li	a1,9
   119ae:	0622                	slli	a2,a2,0x8
   119b0:	8d51                	or	a0,a0,a2
   119b2:	02a11023          	sh	a0,32(sp)
   119b6:	02d10123          	sb	a3,34(sp)
   119ba:	853e                	mv	a0,a5
   119bc:	4601                	li	a2,0
   119be:	4681                	li	a3,0
   119c0:	00000073          	ecall
   119c4:	4711                	li	a4,4
   119c6:	45a1                	li	a1,8
   119c8:	853e                	mv	a0,a5
   119ca:	4601                	li	a2,0
   119cc:	4681                	li	a3,0
   119ce:	00000073          	ecall
   119d2:	648108a3          	sb	s0,1617(sp)
   119d6:	64910923          	sb	s1,1618(sp)
   119da:	02011503          	lh	a0,32(sp)
   119de:	02214583          	lbu	a1,34(sp)
   119e2:	65f106a3          	sb	t6,1613(sp)
   119e6:	65210723          	sb	s2,1614(sp)
   119ea:	65d107a3          	sb	t4,1615(sp)
   119ee:	65e10823          	sb	t5,1616(sp)
   119f2:	64a11223          	sh	a0,1604(sp)
   119f6:	64b10323          	sb	a1,1606(sp)
   119fa:	65c103a3          	sb	t3,1607(sp)
   119fe:	64710423          	sb	t2,1608(sp)
   11a02:	650104a3          	sb	a6,1609(sp)
   11a06:	65110523          	sb	a7,1610(sp)
   11a0a:	645105a3          	sb	t0,1611(sp)
   11a0e:	64610623          	sb	t1,1612(sp)
   11a12:	6a810513          	addi	a0,sp,1704
   11a16:	02500613          	li	a2,37
   11a1a:	4581                	li	a1,0
   11a1c:	00006097          	auipc	ra,0x6
   11a20:	39c080e7          	jalr	924(ra) # 17db8 <memset>
   11a24:	0a200513          	li	a0,162
   11a28:	45a1                	li	a1,8
   11a2a:	64410613          	addi	a2,sp,1604
   11a2e:	46bd                	li	a3,15
   11a30:	fffff097          	auipc	ra,0xfffff
   11a34:	704080e7          	jalr	1796(ra) # 11134 <_ZN9allow_pin10no_dynamic11allow_inner17h151634b71b3fc351E>
   11a38:	8905                	andi	a0,a0,1
   11a3a:	e905                	bnez	a0,11a6a <_start+0x90c>
   11a3c:	0a200513          	li	a0,162
   11a40:	6a810613          	addi	a2,sp,1704
   11a44:	02500693          	li	a3,37
   11a48:	4581                	li	a1,0
   11a4a:	fffff097          	auipc	ra,0xfffff
   11a4e:	6f8080e7          	jalr	1784(ra) # 11142 <_ZN9allow_pin10no_dynamic11allow_inner17ha2b744c817d78427E>
   11a52:	8905                	andi	a0,a0,1
   11a54:	e919                	bnez	a0,11a6a <_start+0x90c>
   11a56:	0a200513          	li	a0,162
   11a5a:	45a1                	li	a1,8
   11a5c:	4601                	li	a2,0
   11a5e:	fffff097          	auipc	ra,0xfffff
   11a62:	6f2080e7          	jalr	1778(ra) # 11150 <_ZN9allow_pin7command17h1eb46760111c3605E>
   11a66:	8905                	andi	a0,a0,1
   11a68:	c505                	beqz	a0,11a90 <_start+0x932>
   11a6a:	87ae                	mv	a5,a1
   11a6c:	4581                	li	a1,0
   11a6e:	4601                	li	a2,0
   11a70:	4681                	li	a3,0
   11a72:	0a200513          	li	a0,162
   11a76:	470d                	li	a4,3
   11a78:	00000073          	ecall
   11a7c:	0a200513          	li	a0,162
   11a80:	45a1                	li	a1,8
   11a82:	4711                	li	a4,4
   11a84:	4601                	li	a2,0
   11a86:	4681                	li	a3,0
   11a88:	00000073          	ecall
   11a8c:	f84ff06f          	j	11210 <_start+0xb2>
   11a90:	4581                	li	a1,0
   11a92:	4601                	li	a2,0
   11a94:	4681                	li	a3,0
   11a96:	0a200513          	li	a0,162
   11a9a:	470d                	li	a4,3
   11a9c:	00000073          	ecall
   11aa0:	470d                	li	a4,3
   11aa2:	0a200513          	li	a0,162
   11aa6:	4581                	li	a1,0
   11aa8:	4601                	li	a2,0
   11aaa:	4681                	li	a3,0
   11aac:	00000073          	ecall
   11ab0:	00006297          	auipc	t0,0x6
   11ab4:	e82282e7          	jalr	t0,-382(t0) # 17932 <OUTLINED_FUNCTION_2>
   11ab8:	6ae14483          	lbu	s1,1710(sp)
   11abc:	02a11223          	sh	a0,36(sp)
   11ac0:	02c10323          	sb	a2,38(sp)
   11ac4:	6af10593          	addi	a1,sp,1711
   11ac8:	5ec10513          	addi	a0,sp,1516
   11acc:	4679                	li	a2,30
   11ace:	00006097          	auipc	ra,0x6
   11ad2:	356080e7          	jalr	854(ra) # 17e24 <memcpy>
   11ad6:	4581                	li	a1,0
   11ad8:	4601                	li	a2,0
   11ada:	4681                	li	a3,0
   11adc:	0a200513          	li	a0,162
   11ae0:	470d                	li	a4,3
   11ae2:	00000073          	ecall
   11ae6:	0a200513          	li	a0,162
   11aea:	45a1                	li	a1,8
   11aec:	4711                	li	a4,4
   11aee:	4601                	li	a2,0
   11af0:	4681                	li	a3,0
   11af2:	00000073          	ecall
   11af6:	64b10513          	addi	a0,sp,1611
   11afa:	5ec10593          	addi	a1,sp,1516
   11afe:	4679                	li	a2,30
   11b00:	00006097          	auipc	ra,0x6
   11b04:	324080e7          	jalr	804(ra) # 17e24 <memcpy>
   11b08:	02411503          	lh	a0,36(sp)
   11b0c:	02614583          	lbu	a1,38(sp)
   11b10:	648104a3          	sb	s0,1609(sp)
   11b14:	64910523          	sb	s1,1610(sp)
   11b18:	00006297          	auipc	t0,0x6
   11b1c:	02e282e7          	jalr	t0,46(t0) # 17b46 <OUTLINED_FUNCTION_22>
   11b20:	02a00613          	li	a2,42
   11b24:	4581                	li	a1,0
   11b26:	00006097          	auipc	ra,0x6
   11b2a:	292080e7          	jalr	658(ra) # 17db8 <memset>
   11b2e:	6505                	lui	a0,0x1
   11b30:	64410613          	addi	a2,sp,1604
   11b34:	93c50493          	addi	s1,a0,-1732 # 93c <.Lline_table_start1+0x711>
   11b38:	02500693          	li	a3,37
   11b3c:	8526                	mv	a0,s1
   11b3e:	4581                	li	a1,0
   11b40:	fffff097          	auipc	ra,0xfffff
   11b44:	5f4080e7          	jalr	1524(ra) # 11134 <_ZN9allow_pin10no_dynamic11allow_inner17h151634b71b3fc351E>
   11b48:	8905                	andi	a0,a0,1
   11b4a:	e90d                	bnez	a0,11b7c <_start+0xa1e>
   11b4c:	458d                	li	a1,3
   11b4e:	6a810613          	addi	a2,sp,1704
   11b52:	02a00693          	li	a3,42
   11b56:	8526                	mv	a0,s1
   11b58:	fffff097          	auipc	ra,0xfffff
   11b5c:	5ea080e7          	jalr	1514(ra) # 11142 <_ZN9allow_pin10no_dynamic11allow_inner17ha2b744c817d78427E>
   11b60:	8905                	andi	a0,a0,1
   11b62:	ed09                	bnez	a0,11b7c <_start+0xa1e>
   11b64:	6505                	lui	a0,0x1
   11b66:	93c50413          	addi	s0,a0,-1732 # 93c <.Lline_table_start1+0x711>
   11b6a:	460d                	li	a2,3
   11b6c:	8522                	mv	a0,s0
   11b6e:	4581                	li	a1,0
   11b70:	fffff097          	auipc	ra,0xfffff
   11b74:	5e0080e7          	jalr	1504(ra) # 11150 <_ZN9allow_pin7command17h1eb46760111c3605E>
   11b78:	8905                	andi	a0,a0,1
   11b7a:	c10d                	beqz	a0,11b9c <_start+0xa3e>
   11b7c:	87ae                	mv	a5,a1
   11b7e:	458d                	li	a1,3
   11b80:	470d                	li	a4,3
   11b82:	8526                	mv	a0,s1
   11b84:	4601                	li	a2,0
   11b86:	4681                	li	a3,0
   11b88:	00000073          	ecall
   11b8c:	00006297          	auipc	t0,0x6
   11b90:	120282e7          	jalr	t0,288(t0) # 17cac <OUTLINED_FUNCTION_43>
   11b94:	00000073          	ecall
   11b98:	e78ff06f          	j	11210 <_start+0xb2>
   11b9c:	00006297          	auipc	t0,0x6
   11ba0:	0b0282e7          	jalr	t0,176(t0) # 17c4c <OUTLINED_FUNCTION_35>
   11ba4:	00000073          	ecall
   11ba8:	00006297          	auipc	t0,0x6
   11bac:	0f8282e7          	jalr	t0,248(t0) # 17ca0 <OUTLINED_FUNCTION_42>
   11bb0:	00000073          	ecall
   11bb4:	00006297          	auipc	t0,0x6
   11bb8:	dbe282e7          	jalr	t0,-578(t0) # 17972 <OUTLINED_FUNCTION_4>
   11bbc:	6ad14483          	lbu	s1,1709(sp)
   11bc0:	6ae14a03          	lbu	s4,1710(sp)
   11bc4:	02a11423          	sh	a0,40(sp)
   11bc8:	02c10523          	sb	a2,42(sp)
   11bcc:	6af10593          	addi	a1,sp,1711
   11bd0:	5ec10513          	addi	a0,sp,1516
   11bd4:	02300613          	li	a2,35
   11bd8:	00006097          	auipc	ra,0x6
   11bdc:	24c080e7          	jalr	588(ra) # 17e24 <memcpy>
   11be0:	458d                	li	a1,3
   11be2:	470d                	li	a4,3
   11be4:	8522                	mv	a0,s0
   11be6:	4601                	li	a2,0
   11be8:	4681                	li	a3,0
   11bea:	00000073          	ecall
   11bee:	00006297          	auipc	t0,0x6
   11bf2:	1be282e7          	jalr	t0,446(t0) # 17dac <OUTLINED_FUNCTION_62>
   11bf6:	00000073          	ecall
   11bfa:	64b10513          	addi	a0,sp,1611
   11bfe:	5ec10593          	addi	a1,sp,1516
   11c02:	02300613          	li	a2,35
   11c06:	00006097          	auipc	ra,0x6
   11c0a:	21e080e7          	jalr	542(ra) # 17e24 <memcpy>
   11c0e:	02811503          	lh	a0,40(sp)
   11c12:	02a14583          	lbu	a1,42(sp)
   11c16:	649104a3          	sb	s1,1609(sp)
   11c1a:	65410523          	sb	s4,1610(sp)
   11c1e:	00006297          	auipc	t0,0x6
   11c22:	f28282e7          	jalr	t0,-216(t0) # 17b46 <OUTLINED_FUNCTION_22>
   11c26:	06300613          	li	a2,99
   11c2a:	4581                	li	a1,0
   11c2c:	00006097          	auipc	ra,0x6
   11c30:	18c080e7          	jalr	396(ra) # 17db8 <memset>
   11c34:	6509                	lui	a0,0x2
   11c36:	4591                	li	a1,4
   11c38:	64410613          	addi	a2,sp,1604
   11c3c:	c7c50413          	addi	s0,a0,-900 # 1c7c <.Lline_table_start1+0x1a51>
   11c40:	02a00693          	li	a3,42
   11c44:	8522                	mv	a0,s0
   11c46:	fffff097          	auipc	ra,0xfffff
   11c4a:	4ee080e7          	jalr	1262(ra) # 11134 <_ZN9allow_pin10no_dynamic11allow_inner17h151634b71b3fc351E>
   11c4e:	8905                	andi	a0,a0,1
   11c50:	e90d                	bnez	a0,11c82 <_start+0xb24>
   11c52:	6a810613          	addi	a2,sp,1704
   11c56:	06300693          	li	a3,99
   11c5a:	8522                	mv	a0,s0
   11c5c:	4581                	li	a1,0
   11c5e:	fffff097          	auipc	ra,0xfffff
   11c62:	4e4080e7          	jalr	1252(ra) # 11142 <_ZN9allow_pin10no_dynamic11allow_inner17ha2b744c817d78427E>
   11c66:	8905                	andi	a0,a0,1
   11c68:	ed09                	bnez	a0,11c82 <_start+0xb24>
   11c6a:	6909                	lui	s2,0x2
   11c6c:	c7c90493          	addi	s1,s2,-900 # 1c7c <.Lline_table_start1+0x1a51>
   11c70:	4591                	li	a1,4
   11c72:	8526                	mv	a0,s1
   11c74:	4601                	li	a2,0
   11c76:	fffff097          	auipc	ra,0xfffff
   11c7a:	4da080e7          	jalr	1242(ra) # 11150 <_ZN9allow_pin7command17h1eb46760111c3605E>
   11c7e:	8905                	andi	a0,a0,1
   11c80:	c105                	beqz	a0,11ca0 <_start+0xb42>
   11c82:	87ae                	mv	a5,a1
   11c84:	00006297          	auipc	t0,0x6
   11c88:	058282e7          	jalr	t0,88(t0) # 17cdc <OUTLINED_FUNCTION_47>
   11c8c:	00000073          	ecall
   11c90:	00006297          	auipc	t0,0x6
   11c94:	040282e7          	jalr	t0,64(t0) # 17cd0 <OUTLINED_FUNCTION_46>
   11c98:	00000073          	ecall
   11c9c:	d74ff06f          	j	11210 <_start+0xb2>
   11ca0:	00006297          	auipc	t0,0x6
   11ca4:	f86282e7          	jalr	t0,-122(t0) # 17c26 <OUTLINED_FUNCTION_33>
   11ca8:	00000073          	ecall
   11cac:	00006297          	auipc	t0,0x6
   11cb0:	f7a282e7          	jalr	t0,-134(t0) # 17c26 <OUTLINED_FUNCTION_33>
   11cb4:	00000073          	ecall
   11cb8:	00006297          	auipc	t0,0x6
   11cbc:	d4c282e7          	jalr	t0,-692(t0) # 17a04 <OUTLINED_FUNCTION_9>
   11cc0:	6ad14403          	lbu	s0,1709(sp)
   11cc4:	6ae14a83          	lbu	s5,1710(sp)
   11cc8:	08a11423          	sh	a0,136(sp)
   11ccc:	08c10523          	sb	a2,138(sp)
   11cd0:	6af10593          	addi	a1,sp,1711
   11cd4:	1068                	addi	a0,sp,44
   11cd6:	05c00613          	li	a2,92
   11cda:	00006097          	auipc	ra,0x6
   11cde:	14a080e7          	jalr	330(ra) # 17e24 <memcpy>
   11ce2:	00006297          	auipc	t0,0x6
   11ce6:	f44282e7          	jalr	t0,-188(t0) # 17c26 <OUTLINED_FUNCTION_33>
   11cea:	00000073          	ecall
   11cee:	8526                	mv	a0,s1
   11cf0:	4601                	li	a2,0
   11cf2:	4681                	li	a3,0
   11cf4:	4711                	li	a4,4
   11cf6:	4591                	li	a1,4
   11cf8:	00000073          	ecall
   11cfc:	08811503          	lh	a0,136(sp)
   11d00:	08a14583          	lbu	a1,138(sp)
   11d04:	6a8106a3          	sb	s0,1709(sp)
   11d08:	00006297          	auipc	t0,0x6
   11d0c:	dfc282e7          	jalr	t0,-516(t0) # 17b04 <OUTLINED_FUNCTION_19>
   11d10:	6af10513          	addi	a0,sp,1711
   11d14:	106c                	addi	a1,sp,44
   11d16:	05c00613          	li	a2,92
   11d1a:	00006097          	auipc	ra,0x6
   11d1e:	10a080e7          	jalr	266(ra) # 17e24 <memcpy>
   11d22:	64410513          	addi	a0,sp,1604
   11d26:	02700613          	li	a2,39
   11d2a:	4581                	li	a1,0
   11d2c:	00006097          	auipc	ra,0x6
   11d30:	08c080e7          	jalr	140(ra) # 17db8 <memset>
   11d34:	e5490513          	addi	a0,s2,-428
   11d38:	459d                	li	a1,7
   11d3a:	6a810613          	addi	a2,sp,1704
   11d3e:	06300693          	li	a3,99
   11d42:	fffff097          	auipc	ra,0xfffff
   11d46:	3f2080e7          	jalr	1010(ra) # 11134 <_ZN9allow_pin10no_dynamic11allow_inner17h151634b71b3fc351E>
   11d4a:	8905                	andi	a0,a0,1
   11d4c:	e90d                	bnez	a0,11d7e <_start+0xc20>
   11d4e:	6509                	lui	a0,0x2
   11d50:	64410613          	addi	a2,sp,1604
   11d54:	e5450413          	addi	s0,a0,-428 # 1e54 <.Lline_table_start1+0x1c29>
   11d58:	02700693          	li	a3,39
   11d5c:	8522                	mv	a0,s0
   11d5e:	4581                	li	a1,0
   11d60:	fffff097          	auipc	ra,0xfffff
   11d64:	3e2080e7          	jalr	994(ra) # 11142 <_ZN9allow_pin10no_dynamic11allow_inner17ha2b744c817d78427E>
   11d68:	8905                	andi	a0,a0,1
   11d6a:	e911                	bnez	a0,11d7e <_start+0xc20>
   11d6c:	459d                	li	a1,7
   11d6e:	8522                	mv	a0,s0
   11d70:	4601                	li	a2,0
   11d72:	fffff097          	auipc	ra,0xfffff
   11d76:	3de080e7          	jalr	990(ra) # 11150 <_ZN9allow_pin7command17h1eb46760111c3605E>
   11d7a:	8905                	andi	a0,a0,1
   11d7c:	c505                	beqz	a0,11da4 <_start+0xc46>
   11d7e:	87ae                	mv	a5,a1
   11d80:	4581                	li	a1,0
   11d82:	4601                	li	a2,0
   11d84:	4681                	li	a3,0
   11d86:	6509                	lui	a0,0x2
   11d88:	e5450493          	addi	s1,a0,-428 # 1e54 <.Lline_table_start1+0x1c29>
   11d8c:	470d                	li	a4,3
   11d8e:	8526                	mv	a0,s1
   11d90:	00000073          	ecall
   11d94:	00006297          	auipc	t0,0x6
   11d98:	ee8282e7          	jalr	t0,-280(t0) # 17c7c <OUTLINED_FUNCTION_39>
   11d9c:	00000073          	ecall
   11da0:	c70ff06f          	j	11210 <_start+0xb2>
   11da4:	4581                	li	a1,0
   11da6:	4601                	li	a2,0
   11da8:	4681                	li	a3,0
   11daa:	6509                	lui	a0,0x2
   11dac:	e5450413          	addi	s0,a0,-428 # 1e54 <.Lline_table_start1+0x1c29>
   11db0:	470d                	li	a4,3
   11db2:	8522                	mv	a0,s0
   11db4:	00000073          	ecall
   11db8:	470d                	li	a4,3
   11dba:	8522                	mv	a0,s0
   11dbc:	4581                	li	a1,0
   11dbe:	4601                	li	a2,0
   11dc0:	4681                	li	a3,0
   11dc2:	00000073          	ecall
   11dc6:	00006297          	auipc	t0,0x6
   11dca:	bc6282e7          	jalr	t0,-1082(t0) # 1798c <OUTLINED_FUNCTION_5>
   11dce:	64914483          	lbu	s1,1609(sp)
   11dd2:	64a14a03          	lbu	s4,1610(sp)
   11dd6:	0aa11623          	sh	a0,172(sp)
   11dda:	0ac10723          	sb	a2,174(sp)
   11dde:	64b10593          	addi	a1,sp,1611
   11de2:	0168                	addi	a0,sp,140
   11de4:	02000613          	li	a2,32
   11de8:	00006097          	auipc	ra,0x6
   11dec:	03c080e7          	jalr	60(ra) # 17e24 <memcpy>
   11df0:	00006297          	auipc	t0,0x6
   11df4:	eec282e7          	jalr	t0,-276(t0) # 17cdc <OUTLINED_FUNCTION_47>
   11df8:	00000073          	ecall
   11dfc:	8522                	mv	a0,s0
   11dfe:	4601                	li	a2,0
   11e00:	4681                	li	a3,0
   11e02:	4711                	li	a4,4
   11e04:	459d                	li	a1,7
   11e06:	00000073          	ecall
   11e0a:	0ac11503          	lh	a0,172(sp)
   11e0e:	0ae14583          	lbu	a1,174(sp)
   11e12:	6a9106a3          	sb	s1,1709(sp)
   11e16:	00006297          	auipc	t0,0x6
   11e1a:	d04282e7          	jalr	t0,-764(t0) # 17b1a <OUTLINED_FUNCTION_20>
   11e1e:	6af10513          	addi	a0,sp,1711
   11e22:	016c                	addi	a1,sp,140
   11e24:	02000613          	li	a2,32
   11e28:	00006097          	auipc	ra,0x6
   11e2c:	ffc080e7          	jalr	-4(ra) # 17e24 <memcpy>
   11e30:	64410513          	addi	a0,sp,1604
   11e34:	4679                	li	a2,30
   11e36:	4581                	li	a1,0
   11e38:	00006097          	auipc	ra,0x6
   11e3c:	f80080e7          	jalr	-128(ra) # 17db8 <memset>
   11e40:	6505                	lui	a0,0x1
   11e42:	458d                	li	a1,3
   11e44:	6a810613          	addi	a2,sp,1704
   11e48:	0e250413          	addi	s0,a0,226 # 10e2 <.Lline_table_start1+0xeb7>
   11e4c:	02700693          	li	a3,39
   11e50:	8522                	mv	a0,s0
   11e52:	fffff097          	auipc	ra,0xfffff
   11e56:	2e2080e7          	jalr	738(ra) # 11134 <_ZN9allow_pin10no_dynamic11allow_inner17h151634b71b3fc351E>
   11e5a:	8905                	andi	a0,a0,1
   11e5c:	e905                	bnez	a0,11e8c <_start+0xd2e>
   11e5e:	458d                	li	a1,3
   11e60:	64410613          	addi	a2,sp,1604
   11e64:	46f9                	li	a3,30
   11e66:	8522                	mv	a0,s0
   11e68:	fffff097          	auipc	ra,0xfffff
   11e6c:	2da080e7          	jalr	730(ra) # 11142 <_ZN9allow_pin10no_dynamic11allow_inner17ha2b744c817d78427E>
   11e70:	8905                	andi	a0,a0,1
   11e72:	ed09                	bnez	a0,11e8c <_start+0xd2e>
   11e74:	6505                	lui	a0,0x1
   11e76:	458d                	li	a1,3
   11e78:	0e250493          	addi	s1,a0,226 # 10e2 <.Lline_table_start1+0xeb7>
   11e7c:	460d                	li	a2,3
   11e7e:	8526                	mv	a0,s1
   11e80:	fffff097          	auipc	ra,0xfffff
   11e84:	2d0080e7          	jalr	720(ra) # 11150 <_ZN9allow_pin7command17h1eb46760111c3605E>
   11e88:	8905                	andi	a0,a0,1
   11e8a:	cd19                	beqz	a0,11ea8 <_start+0xd4a>
   11e8c:	00006297          	auipc	t0,0x6
   11e90:	d66282e7          	jalr	t0,-666(t0) # 17bf2 <OUTLINED_FUNCTION_29>
   11e94:	00000073          	ecall
   11e98:	00006297          	auipc	t0,0x6
   11e9c:	ea8282e7          	jalr	t0,-344(t0) # 17d40 <OUTLINED_FUNCTION_53>
   11ea0:	00000073          	ecall
   11ea4:	b6cff06f          	j	11210 <_start+0xb2>
   11ea8:	00006297          	auipc	t0,0x6
   11eac:	d72282e7          	jalr	t0,-654(t0) # 17c1a <OUTLINED_FUNCTION_32>
   11eb0:	00000073          	ecall
   11eb4:	00006297          	auipc	t0,0x6
   11eb8:	de0282e7          	jalr	t0,-544(t0) # 17c94 <OUTLINED_FUNCTION_41>
   11ebc:	00000073          	ecall
   11ec0:	00006297          	auipc	t0,0x6
   11ec4:	a32282e7          	jalr	t0,-1486(t0) # 178f2 <OUTLINED_FUNCTION_0>
   11ec8:	0aa11823          	sh	a0,176(sp)
   11ecc:	0ac10923          	sb	a2,178(sp)
   11ed0:	64b10593          	addi	a1,sp,1611
   11ed4:	52c10513          	addi	a0,sp,1324
   11ed8:	465d                	li	a2,23
   11eda:	00006097          	auipc	ra,0x6
   11ede:	f4a080e7          	jalr	-182(ra) # 17e24 <memcpy>
   11ee2:	00006297          	auipc	t0,0x6
   11ee6:	d38282e7          	jalr	t0,-712(t0) # 17c1a <OUTLINED_FUNCTION_32>
   11eea:	00000073          	ecall
   11eee:	00006297          	auipc	t0,0x6
   11ef2:	d76282e7          	jalr	t0,-650(t0) # 17c64 <OUTLINED_FUNCTION_37>
   11ef6:	00000073          	ecall
   11efa:	5f310513          	addi	a0,sp,1523
   11efe:	52c10593          	addi	a1,sp,1324
   11f02:	465d                	li	a2,23
   11f04:	00006097          	auipc	ra,0x6
   11f08:	f20080e7          	jalr	-224(ra) # 17e24 <memcpy>
   11f0c:	0b011503          	lh	a0,176(sp)
   11f10:	0b214583          	lbu	a1,178(sp)
   11f14:	00006297          	auipc	t0,0x6
   11f18:	b8c282e7          	jalr	t0,-1140(t0) # 17aa0 <OUTLINED_FUNCTION_15>
   11f1c:	02c00613          	li	a2,44
   11f20:	4581                	li	a1,0
   11f22:	00006097          	auipc	ra,0x6
   11f26:	e96080e7          	jalr	-362(ra) # 17db8 <memset>
   11f2a:	3fb00513          	li	a0,1019
   11f2e:	459d                	li	a1,7
   11f30:	5ec10613          	addi	a2,sp,1516
   11f34:	46f9                	li	a3,30
   11f36:	fffff097          	auipc	ra,0xfffff
   11f3a:	1fe080e7          	jalr	510(ra) # 11134 <_ZN9allow_pin10no_dynamic11allow_inner17h151634b71b3fc351E>
   11f3e:	8905                	andi	a0,a0,1
   11f40:	e905                	bnez	a0,11f70 <_start+0xe12>
   11f42:	3fb00513          	li	a0,1019
   11f46:	6a810613          	addi	a2,sp,1704
   11f4a:	02c00693          	li	a3,44
   11f4e:	4581                	li	a1,0
   11f50:	fffff097          	auipc	ra,0xfffff
   11f54:	1f2080e7          	jalr	498(ra) # 11142 <_ZN9allow_pin10no_dynamic11allow_inner17ha2b744c817d78427E>
   11f58:	8905                	andi	a0,a0,1
   11f5a:	e919                	bnez	a0,11f70 <_start+0xe12>
   11f5c:	3fb00513          	li	a0,1019
   11f60:	459d                	li	a1,7
   11f62:	4601                	li	a2,0
   11f64:	fffff097          	auipc	ra,0xfffff
   11f68:	1ec080e7          	jalr	492(ra) # 11150 <_ZN9allow_pin7command17h1eb46760111c3605E>
   11f6c:	8905                	andi	a0,a0,1
   11f6e:	c505                	beqz	a0,11f96 <_start+0xe38>
   11f70:	87ae                	mv	a5,a1
   11f72:	4581                	li	a1,0
   11f74:	4601                	li	a2,0
   11f76:	4681                	li	a3,0
   11f78:	3fb00513          	li	a0,1019
   11f7c:	470d                	li	a4,3
   11f7e:	00000073          	ecall
   11f82:	3fb00513          	li	a0,1019
   11f86:	459d                	li	a1,7
   11f88:	4711                	li	a4,4
   11f8a:	4601                	li	a2,0
   11f8c:	4681                	li	a3,0
   11f8e:	00000073          	ecall
   11f92:	a7eff06f          	j	11210 <_start+0xb2>
   11f96:	4581                	li	a1,0
   11f98:	4601                	li	a2,0
   11f9a:	4681                	li	a3,0
   11f9c:	3fb00513          	li	a0,1019
   11fa0:	470d                	li	a4,3
   11fa2:	00000073          	ecall
   11fa6:	470d                	li	a4,3
   11fa8:	3fb00513          	li	a0,1019
   11fac:	4581                	li	a1,0
   11fae:	4601                	li	a2,0
   11fb0:	4681                	li	a3,0
   11fb2:	00000073          	ecall
   11fb6:	00006297          	auipc	t0,0x6
   11fba:	97c282e7          	jalr	t0,-1668(t0) # 17932 <OUTLINED_FUNCTION_2>
   11fbe:	6ae14483          	lbu	s1,1710(sp)
   11fc2:	0aa11a23          	sh	a0,180(sp)
   11fc6:	0ac10b23          	sb	a2,182(sp)
   11fca:	6af10593          	addi	a1,sp,1711
   11fce:	64410513          	addi	a0,sp,1604
   11fd2:	02500613          	li	a2,37
   11fd6:	00006097          	auipc	ra,0x6
   11fda:	e4e080e7          	jalr	-434(ra) # 17e24 <memcpy>
   11fde:	4581                	li	a1,0
   11fe0:	4601                	li	a2,0
   11fe2:	4681                	li	a3,0
   11fe4:	3fb00513          	li	a0,1019
   11fe8:	470d                	li	a4,3
   11fea:	00000073          	ecall
   11fee:	3fb00513          	li	a0,1019
   11ff2:	459d                	li	a1,7
   11ff4:	4711                	li	a4,4
   11ff6:	4601                	li	a2,0
   11ff8:	4681                	li	a3,0
   11ffa:	00000073          	ecall
   11ffe:	6af10513          	addi	a0,sp,1711
   12002:	64410593          	addi	a1,sp,1604
   12006:	02500613          	li	a2,37
   1200a:	00006097          	auipc	ra,0x6
   1200e:	e1a080e7          	jalr	-486(ra) # 17e24 <memcpy>
   12012:	0b411503          	lh	a0,180(sp)
   12016:	0b614583          	lbu	a1,182(sp)
   1201a:	00006297          	auipc	t0,0x6
   1201e:	9ae282e7          	jalr	t0,-1618(t0) # 179c8 <OUTLINED_FUNCTION_7>
   12022:	02500613          	li	a2,37
   12026:	4581                	li	a1,0
   12028:	00006097          	auipc	ra,0x6
   1202c:	d90080e7          	jalr	-624(ra) # 17db8 <memset>
   12030:	77f00513          	li	a0,1919
   12034:	458d                	li	a1,3
   12036:	6a810613          	addi	a2,sp,1704
   1203a:	02c00693          	li	a3,44
   1203e:	fffff097          	auipc	ra,0xfffff
   12042:	0f6080e7          	jalr	246(ra) # 11134 <_ZN9allow_pin10no_dynamic11allow_inner17h151634b71b3fc351E>
   12046:	8905                	andi	a0,a0,1
   12048:	e905                	bnez	a0,12078 <_start+0xf1a>
   1204a:	77f00513          	li	a0,1919
   1204e:	64410613          	addi	a2,sp,1604
   12052:	02500693          	li	a3,37
   12056:	4581                	li	a1,0
   12058:	fffff097          	auipc	ra,0xfffff
   1205c:	0ea080e7          	jalr	234(ra) # 11142 <_ZN9allow_pin10no_dynamic11allow_inner17ha2b744c817d78427E>
   12060:	8905                	andi	a0,a0,1
   12062:	e919                	bnez	a0,12078 <_start+0xf1a>
   12064:	77f00513          	li	a0,1919
   12068:	458d                	li	a1,3
   1206a:	4601                	li	a2,0
   1206c:	fffff097          	auipc	ra,0xfffff
   12070:	0e4080e7          	jalr	228(ra) # 11150 <_ZN9allow_pin7command17h1eb46760111c3605E>
   12074:	8905                	andi	a0,a0,1
   12076:	c505                	beqz	a0,1209e <_start+0xf40>
   12078:	87ae                	mv	a5,a1
   1207a:	4581                	li	a1,0
   1207c:	4601                	li	a2,0
   1207e:	4681                	li	a3,0
   12080:	77f00513          	li	a0,1919
   12084:	470d                	li	a4,3
   12086:	00000073          	ecall
   1208a:	77f00513          	li	a0,1919
   1208e:	458d                	li	a1,3
   12090:	4711                	li	a4,4
   12092:	4601                	li	a2,0
   12094:	4681                	li	a3,0
   12096:	00000073          	ecall
   1209a:	976ff06f          	j	11210 <_start+0xb2>
   1209e:	4581                	li	a1,0
   120a0:	4601                	li	a2,0
   120a2:	4681                	li	a3,0
   120a4:	77f00513          	li	a0,1919
   120a8:	470d                	li	a4,3
   120aa:	00000073          	ecall
   120ae:	470d                	li	a4,3
   120b0:	77f00513          	li	a0,1919
   120b4:	4581                	li	a1,0
   120b6:	4601                	li	a2,0
   120b8:	4681                	li	a3,0
   120ba:	00000073          	ecall
   120be:	00006297          	auipc	t0,0x6
   120c2:	856282e7          	jalr	t0,-1962(t0) # 17914 <OUTLINED_FUNCTION_1>
   120c6:	64a14483          	lbu	s1,1610(sp)
   120ca:	0aa11c23          	sh	a0,184(sp)
   120ce:	0ac10d23          	sb	a2,186(sp)
   120d2:	64b10593          	addi	a1,sp,1611
   120d6:	5ec10513          	addi	a0,sp,1516
   120da:	4679                	li	a2,30
   120dc:	00006097          	auipc	ra,0x6
   120e0:	d48080e7          	jalr	-696(ra) # 17e24 <memcpy>
   120e4:	4581                	li	a1,0
   120e6:	4601                	li	a2,0
   120e8:	4681                	li	a3,0
   120ea:	77f00513          	li	a0,1919
   120ee:	470d                	li	a4,3
   120f0:	00000073          	ecall
   120f4:	77f00513          	li	a0,1919
   120f8:	458d                	li	a1,3
   120fa:	4711                	li	a4,4
   120fc:	4601                	li	a2,0
   120fe:	4681                	li	a3,0
   12100:	00000073          	ecall
   12104:	6af10513          	addi	a0,sp,1711
   12108:	5ec10593          	addi	a1,sp,1516
   1210c:	4679                	li	a2,30
   1210e:	00006097          	auipc	ra,0x6
   12112:	d16080e7          	jalr	-746(ra) # 17e24 <memcpy>
   12116:	0b811503          	lh	a0,184(sp)
   1211a:	0ba14583          	lbu	a1,186(sp)
   1211e:	00006297          	auipc	t0,0x6
   12122:	8aa282e7          	jalr	t0,-1878(t0) # 179c8 <OUTLINED_FUNCTION_7>
   12126:	4661                	li	a2,24
   12128:	4581                	li	a1,0
   1212a:	00006097          	auipc	ra,0x6
   1212e:	c8e080e7          	jalr	-882(ra) # 17db8 <memset>
   12132:	6505                	lui	a0,0x1
   12134:	45a5                	li	a1,9
   12136:	6a810613          	addi	a2,sp,1704
   1213a:	a7050413          	addi	s0,a0,-1424 # a70 <.Lline_table_start1+0x845>
   1213e:	02500693          	li	a3,37
   12142:	8522                	mv	a0,s0
   12144:	fffff097          	auipc	ra,0xfffff
   12148:	ff0080e7          	jalr	-16(ra) # 11134 <_ZN9allow_pin10no_dynamic11allow_inner17h151634b71b3fc351E>
   1214c:	8905                	andi	a0,a0,1
   1214e:	e905                	bnez	a0,1217e <_start+0x1020>
   12150:	45a1                	li	a1,8
   12152:	64410613          	addi	a2,sp,1604
   12156:	46e1                	li	a3,24
   12158:	8522                	mv	a0,s0
   1215a:	fffff097          	auipc	ra,0xfffff
   1215e:	fe8080e7          	jalr	-24(ra) # 11142 <_ZN9allow_pin10no_dynamic11allow_inner17ha2b744c817d78427E>
   12162:	8905                	andi	a0,a0,1
   12164:	ed09                	bnez	a0,1217e <_start+0x1020>
   12166:	6505                	lui	a0,0x1
   12168:	45a5                	li	a1,9
   1216a:	a7050493          	addi	s1,a0,-1424 # a70 <.Lline_table_start1+0x845>
   1216e:	4621                	li	a2,8
   12170:	8526                	mv	a0,s1
   12172:	fffff097          	auipc	ra,0xfffff
   12176:	fde080e7          	jalr	-34(ra) # 11150 <_ZN9allow_pin7command17h1eb46760111c3605E>
   1217a:	8905                	andi	a0,a0,1
   1217c:	c105                	beqz	a0,1219c <_start+0x103e>
   1217e:	00006297          	auipc	t0,0x6
   12182:	a82282e7          	jalr	t0,-1406(t0) # 17c00 <OUTLINED_FUNCTION_30>
   12186:	00000073          	ecall
   1218a:	45a5                	li	a1,9
   1218c:	4711                	li	a4,4
   1218e:	8522                	mv	a0,s0
   12190:	4601                	li	a2,0
   12192:	4681                	li	a3,0
   12194:	00000073          	ecall
   12198:	878ff06f          	j	11210 <_start+0xb2>
   1219c:	00006297          	auipc	t0,0x6
   121a0:	abc282e7          	jalr	t0,-1348(t0) # 17c58 <OUTLINED_FUNCTION_36>
   121a4:	00000073          	ecall
   121a8:	00006297          	auipc	t0,0x6
   121ac:	bf8282e7          	jalr	t0,-1032(t0) # 17da0 <OUTLINED_FUNCTION_61>
   121b0:	00000073          	ecall
   121b4:	00005297          	auipc	t0,0x5
   121b8:	73e282e7          	jalr	t0,1854(t0) # 178f2 <OUTLINED_FUNCTION_0>
   121bc:	0aa11e23          	sh	a0,188(sp)
   121c0:	0ac10f23          	sb	a2,190(sp)
   121c4:	64b10593          	addi	a1,sp,1611
   121c8:	52c10513          	addi	a0,sp,1324
   121cc:	4645                	li	a2,17
   121ce:	00006097          	auipc	ra,0x6
   121d2:	c56080e7          	jalr	-938(ra) # 17e24 <memcpy>
   121d6:	00006297          	auipc	t0,0x6
   121da:	a82282e7          	jalr	t0,-1406(t0) # 17c58 <OUTLINED_FUNCTION_36>
   121de:	00000073          	ecall
   121e2:	00006297          	auipc	t0,0x6
   121e6:	bb2282e7          	jalr	t0,-1102(t0) # 17d94 <OUTLINED_FUNCTION_60>
   121ea:	00000073          	ecall
   121ee:	5f310513          	addi	a0,sp,1523
   121f2:	52c10593          	addi	a1,sp,1324
   121f6:	4645                	li	a2,17
   121f8:	00006097          	auipc	ra,0x6
   121fc:	c2c080e7          	jalr	-980(ra) # 17e24 <memcpy>
   12200:	0bc11503          	lh	a0,188(sp)
   12204:	0be14583          	lbu	a1,190(sp)
   12208:	00006297          	auipc	t0,0x6
   1220c:	898282e7          	jalr	t0,-1896(t0) # 17aa0 <OUTLINED_FUNCTION_15>
   12210:	03600613          	li	a2,54
   12214:	4581                	li	a1,0
   12216:	00006097          	auipc	ra,0x6
   1221a:	ba2080e7          	jalr	-1118(ra) # 17db8 <memset>
   1221e:	0f300513          	li	a0,243
   12222:	45a1                	li	a1,8
   12224:	5ec10613          	addi	a2,sp,1516
   12228:	46e1                	li	a3,24
   1222a:	fffff097          	auipc	ra,0xfffff
   1222e:	f0a080e7          	jalr	-246(ra) # 11134 <_ZN9allow_pin10no_dynamic11allow_inner17h151634b71b3fc351E>
   12232:	8905                	andi	a0,a0,1
   12234:	e905                	bnez	a0,12264 <_start+0x1106>
   12236:	0f300513          	li	a0,243
   1223a:	4591                	li	a1,4
   1223c:	6a810613          	addi	a2,sp,1704
   12240:	03600693          	li	a3,54
   12244:	fffff097          	auipc	ra,0xfffff
   12248:	efe080e7          	jalr	-258(ra) # 11142 <_ZN9allow_pin10no_dynamic11allow_inner17ha2b744c817d78427E>
   1224c:	8905                	andi	a0,a0,1
   1224e:	e919                	bnez	a0,12264 <_start+0x1106>
   12250:	0f300513          	li	a0,243
   12254:	45a1                	li	a1,8
   12256:	4611                	li	a2,4
   12258:	fffff097          	auipc	ra,0xfffff
   1225c:	ef8080e7          	jalr	-264(ra) # 11150 <_ZN9allow_pin7command17h1eb46760111c3605E>
   12260:	8905                	andi	a0,a0,1
   12262:	c505                	beqz	a0,1228a <_start+0x112c>
   12264:	87ae                	mv	a5,a1
   12266:	4601                	li	a2,0
   12268:	4681                	li	a3,0
   1226a:	0f300513          	li	a0,243
   1226e:	4591                	li	a1,4
   12270:	470d                	li	a4,3
   12272:	00000073          	ecall
   12276:	0f300513          	li	a0,243
   1227a:	45a1                	li	a1,8
   1227c:	4711                	li	a4,4
   1227e:	4601                	li	a2,0
   12280:	4681                	li	a3,0
   12282:	00000073          	ecall
   12286:	f8bfe06f          	j	11210 <_start+0xb2>
   1228a:	4601                	li	a2,0
   1228c:	4681                	li	a3,0
   1228e:	0f300513          	li	a0,243
   12292:	4591                	li	a1,4
   12294:	470d                	li	a4,3
   12296:	00000073          	ecall
   1229a:	470d                	li	a4,3
   1229c:	0f300513          	li	a0,243
   122a0:	4591                	li	a1,4
   122a2:	4601                	li	a2,0
   122a4:	4681                	li	a3,0
   122a6:	00000073          	ecall
   122aa:	00005297          	auipc	t0,0x5
   122ae:	688282e7          	jalr	t0,1672(t0) # 17932 <OUTLINED_FUNCTION_2>
   122b2:	6ae14483          	lbu	s1,1710(sp)
   122b6:	0ca11023          	sh	a0,192(sp)
   122ba:	0cc10123          	sb	a2,194(sp)
   122be:	6af10593          	addi	a1,sp,1711
   122c2:	64410513          	addi	a0,sp,1604
   122c6:	02f00613          	li	a2,47
   122ca:	00006097          	auipc	ra,0x6
   122ce:	b5a080e7          	jalr	-1190(ra) # 17e24 <memcpy>
   122d2:	4601                	li	a2,0
   122d4:	4681                	li	a3,0
   122d6:	0f300513          	li	a0,243
   122da:	4591                	li	a1,4
   122dc:	470d                	li	a4,3
   122de:	00000073          	ecall
   122e2:	0f300513          	li	a0,243
   122e6:	45a1                	li	a1,8
   122e8:	4711                	li	a4,4
   122ea:	4601                	li	a2,0
   122ec:	4681                	li	a3,0
   122ee:	00000073          	ecall
   122f2:	6af10513          	addi	a0,sp,1711
   122f6:	64410593          	addi	a1,sp,1604
   122fa:	02f00613          	li	a2,47
   122fe:	00006097          	auipc	ra,0x6
   12302:	b26080e7          	jalr	-1242(ra) # 17e24 <memcpy>
   12306:	0c011503          	lh	a0,192(sp)
   1230a:	0c214583          	lbu	a1,194(sp)
   1230e:	00005297          	auipc	t0,0x5
   12312:	6ba282e7          	jalr	t0,1722(t0) # 179c8 <OUTLINED_FUNCTION_7>
   12316:	03400613          	li	a2,52
   1231a:	4581                	li	a1,0
   1231c:	00006097          	auipc	ra,0x6
   12320:	a9c080e7          	jalr	-1380(ra) # 17db8 <memset>
   12324:	6509                	lui	a0,0x2
   12326:	4591                	li	a1,4
   12328:	6a810613          	addi	a2,sp,1704
   1232c:	3c650413          	addi	s0,a0,966 # 23c6 <.Lline_table_start1+0x219b>
   12330:	03600693          	li	a3,54
   12334:	8522                	mv	a0,s0
   12336:	fffff097          	auipc	ra,0xfffff
   1233a:	dfe080e7          	jalr	-514(ra) # 11134 <_ZN9allow_pin10no_dynamic11allow_inner17h151634b71b3fc351E>
   1233e:	8905                	andi	a0,a0,1
   12340:	e90d                	bnez	a0,12372 <_start+0x1214>
   12342:	4589                	li	a1,2
   12344:	64410613          	addi	a2,sp,1604
   12348:	03400693          	li	a3,52
   1234c:	8522                	mv	a0,s0
   1234e:	fffff097          	auipc	ra,0xfffff
   12352:	df4080e7          	jalr	-524(ra) # 11142 <_ZN9allow_pin10no_dynamic11allow_inner17ha2b744c817d78427E>
   12356:	8905                	andi	a0,a0,1
   12358:	ed09                	bnez	a0,12372 <_start+0x1214>
   1235a:	6509                	lui	a0,0x2
   1235c:	4591                	li	a1,4
   1235e:	3c650493          	addi	s1,a0,966 # 23c6 <.Lline_table_start1+0x219b>
   12362:	4609                	li	a2,2
   12364:	8526                	mv	a0,s1
   12366:	fffff097          	auipc	ra,0xfffff
   1236a:	dea080e7          	jalr	-534(ra) # 11150 <_ZN9allow_pin7command17h1eb46760111c3605E>
   1236e:	8905                	andi	a0,a0,1
   12370:	c10d                	beqz	a0,12392 <_start+0x1234>
   12372:	87ae                	mv	a5,a1
   12374:	8522                	mv	a0,s0
   12376:	4601                	li	a2,0
   12378:	4681                	li	a3,0
   1237a:	4589                	li	a1,2
   1237c:	470d                	li	a4,3
   1237e:	00000073          	ecall
   12382:	00006297          	auipc	t0,0x6
   12386:	94e282e7          	jalr	t0,-1714(t0) # 17cd0 <OUTLINED_FUNCTION_46>
   1238a:	00000073          	ecall
   1238e:	e83fe06f          	j	11210 <_start+0xb2>
   12392:	8526                	mv	a0,s1
   12394:	4601                	li	a2,0
   12396:	4681                	li	a3,0
   12398:	4589                	li	a1,2
   1239a:	470d                	li	a4,3
   1239c:	00000073          	ecall
   123a0:	470d                	li	a4,3
   123a2:	4589                	li	a1,2
   123a4:	8526                	mv	a0,s1
   123a6:	4601                	li	a2,0
   123a8:	4681                	li	a3,0
   123aa:	00000073          	ecall
   123ae:	00005297          	auipc	t0,0x5
   123b2:	544282e7          	jalr	t0,1348(t0) # 178f2 <OUTLINED_FUNCTION_0>
   123b6:	0ca11223          	sh	a0,196(sp)
   123ba:	0cc10323          	sb	a2,198(sp)
   123be:	64b10593          	addi	a1,sp,1611
   123c2:	5ec10513          	addi	a0,sp,1516
   123c6:	02d00613          	li	a2,45
   123ca:	00006097          	auipc	ra,0x6
   123ce:	a5a080e7          	jalr	-1446(ra) # 17e24 <memcpy>
   123d2:	8526                	mv	a0,s1
   123d4:	4601                	li	a2,0
   123d6:	4681                	li	a3,0
   123d8:	4589                	li	a1,2
   123da:	470d                	li	a4,3
   123dc:	00000073          	ecall
   123e0:	00006297          	auipc	t0,0x6
   123e4:	990282e7          	jalr	t0,-1648(t0) # 17d70 <OUTLINED_FUNCTION_57>
   123e8:	00000073          	ecall
   123ec:	6af10513          	addi	a0,sp,1711
   123f0:	5ec10593          	addi	a1,sp,1516
   123f4:	02d00613          	li	a2,45
   123f8:	00006097          	auipc	ra,0x6
   123fc:	a2c080e7          	jalr	-1492(ra) # 17e24 <memcpy>
   12400:	0c411503          	lh	a0,196(sp)
   12404:	0c614583          	lbu	a1,198(sp)
   12408:	00005297          	auipc	t0,0x5
   1240c:	5de282e7          	jalr	t0,1502(t0) # 179e6 <OUTLINED_FUNCTION_8>
   12410:	02e00613          	li	a2,46
   12414:	4581                	li	a1,0
   12416:	00006097          	auipc	ra,0x6
   1241a:	9a2080e7          	jalr	-1630(ra) # 17db8 <memset>
   1241e:	20900513          	li	a0,521
   12422:	4589                	li	a1,2
   12424:	6a810613          	addi	a2,sp,1704
   12428:	03400693          	li	a3,52
   1242c:	fffff097          	auipc	ra,0xfffff
   12430:	d08080e7          	jalr	-760(ra) # 11134 <_ZN9allow_pin10no_dynamic11allow_inner17h151634b71b3fc351E>
   12434:	8905                	andi	a0,a0,1
   12436:	e905                	bnez	a0,12466 <_start+0x1308>
   12438:	20900513          	li	a0,521
   1243c:	45a1                	li	a1,8
   1243e:	64410613          	addi	a2,sp,1604
   12442:	02e00693          	li	a3,46
   12446:	fffff097          	auipc	ra,0xfffff
   1244a:	cfc080e7          	jalr	-772(ra) # 11142 <_ZN9allow_pin10no_dynamic11allow_inner17ha2b744c817d78427E>
   1244e:	8905                	andi	a0,a0,1
   12450:	e919                	bnez	a0,12466 <_start+0x1308>
   12452:	20900513          	li	a0,521
   12456:	4589                	li	a1,2
   12458:	4621                	li	a2,8
   1245a:	fffff097          	auipc	ra,0xfffff
   1245e:	cf6080e7          	jalr	-778(ra) # 11150 <_ZN9allow_pin7command17h1eb46760111c3605E>
   12462:	8905                	andi	a0,a0,1
   12464:	c505                	beqz	a0,1248c <_start+0x132e>
   12466:	87ae                	mv	a5,a1
   12468:	4601                	li	a2,0
   1246a:	4681                	li	a3,0
   1246c:	20900513          	li	a0,521
   12470:	45a1                	li	a1,8
   12472:	470d                	li	a4,3
   12474:	00000073          	ecall
   12478:	20900513          	li	a0,521
   1247c:	4589                	li	a1,2
   1247e:	4711                	li	a4,4
   12480:	4601                	li	a2,0
   12482:	4681                	li	a3,0
   12484:	00000073          	ecall
   12488:	d89fe06f          	j	11210 <_start+0xb2>
   1248c:	4601                	li	a2,0
   1248e:	4681                	li	a3,0
   12490:	20900513          	li	a0,521
   12494:	45a1                	li	a1,8
   12496:	470d                	li	a4,3
   12498:	00000073          	ecall
   1249c:	470d                	li	a4,3
   1249e:	20900513          	li	a0,521
   124a2:	45a1                	li	a1,8
   124a4:	4601                	li	a2,0
   124a6:	4681                	li	a3,0
   124a8:	00000073          	ecall
   124ac:	00005297          	auipc	t0,0x5
   124b0:	468282e7          	jalr	t0,1128(t0) # 17914 <OUTLINED_FUNCTION_1>
   124b4:	64a14483          	lbu	s1,1610(sp)
   124b8:	0ca11423          	sh	a0,200(sp)
   124bc:	0cc10523          	sb	a2,202(sp)
   124c0:	64b10593          	addi	a1,sp,1611
   124c4:	52c10513          	addi	a0,sp,1324
   124c8:	02700613          	li	a2,39
   124cc:	00006097          	auipc	ra,0x6
   124d0:	958080e7          	jalr	-1704(ra) # 17e24 <memcpy>
   124d4:	4601                	li	a2,0
   124d6:	4681                	li	a3,0
   124d8:	20900513          	li	a0,521
   124dc:	45a1                	li	a1,8
   124de:	470d                	li	a4,3
   124e0:	00000073          	ecall
   124e4:	20900513          	li	a0,521
   124e8:	4589                	li	a1,2
   124ea:	4711                	li	a4,4
   124ec:	4601                	li	a2,0
   124ee:	4681                	li	a3,0
   124f0:	00000073          	ecall
   124f4:	5f310513          	addi	a0,sp,1523
   124f8:	52c10593          	addi	a1,sp,1324
   124fc:	02700613          	li	a2,39
   12500:	00006097          	auipc	ra,0x6
   12504:	924080e7          	jalr	-1756(ra) # 17e24 <memcpy>
   12508:	0c811503          	lh	a0,200(sp)
   1250c:	0ca14583          	lbu	a1,202(sp)
   12510:	5e8108a3          	sb	s0,1521(sp)
   12514:	5e910923          	sb	s1,1522(sp)
   12518:	00005297          	auipc	t0,0x5
   1251c:	618282e7          	jalr	t0,1560(t0) # 17b30 <OUTLINED_FUNCTION_21>
   12520:	03800613          	li	a2,56
   12524:	4581                	li	a1,0
   12526:	00006097          	auipc	ra,0x6
   1252a:	892080e7          	jalr	-1902(ra) # 17db8 <memset>
   1252e:	6505                	lui	a0,0x1
   12530:	45a5                	li	a1,9
   12532:	5ec10613          	addi	a2,sp,1516
   12536:	a9d50413          	addi	s0,a0,-1379 # a9d <.Lline_table_start1+0x872>
   1253a:	02e00693          	li	a3,46
   1253e:	8522                	mv	a0,s0
   12540:	fffff097          	auipc	ra,0xfffff
   12544:	bf4080e7          	jalr	-1036(ra) # 11134 <_ZN9allow_pin10no_dynamic11allow_inner17h151634b71b3fc351E>
   12548:	8905                	andi	a0,a0,1
   1254a:	e90d                	bnez	a0,1257c <_start+0x141e>
   1254c:	45a5                	li	a1,9
   1254e:	6a810613          	addi	a2,sp,1704
   12552:	03800693          	li	a3,56
   12556:	8522                	mv	a0,s0
   12558:	fffff097          	auipc	ra,0xfffff
   1255c:	bea080e7          	jalr	-1046(ra) # 11142 <_ZN9allow_pin10no_dynamic11allow_inner17ha2b744c817d78427E>
   12560:	8905                	andi	a0,a0,1
   12562:	ed09                	bnez	a0,1257c <_start+0x141e>
   12564:	6505                	lui	a0,0x1
   12566:	45a5                	li	a1,9
   12568:	a9d50493          	addi	s1,a0,-1379 # a9d <.Lline_table_start1+0x872>
   1256c:	4625                	li	a2,9
   1256e:	8526                	mv	a0,s1
   12570:	fffff097          	auipc	ra,0xfffff
   12574:	be0080e7          	jalr	-1056(ra) # 11150 <_ZN9allow_pin7command17h1eb46760111c3605E>
   12578:	8905                	andi	a0,a0,1
   1257a:	c105                	beqz	a0,1259a <_start+0x143c>
   1257c:	00005297          	auipc	t0,0x5
   12580:	668282e7          	jalr	t0,1640(t0) # 17be4 <OUTLINED_FUNCTION_28>
   12584:	00000073          	ecall
   12588:	45a5                	li	a1,9
   1258a:	4711                	li	a4,4
   1258c:	8522                	mv	a0,s0
   1258e:	4601                	li	a2,0
   12590:	4681                	li	a3,0
   12592:	00000073          	ecall
   12596:	c7bfe06f          	j	11210 <_start+0xb2>
   1259a:	00005297          	auipc	t0,0x5
   1259e:	674282e7          	jalr	t0,1652(t0) # 17c0e <OUTLINED_FUNCTION_31>
   125a2:	00000073          	ecall
   125a6:	00005297          	auipc	t0,0x5
   125aa:	6ca282e7          	jalr	t0,1738(t0) # 17c70 <OUTLINED_FUNCTION_38>
   125ae:	00000073          	ecall
   125b2:	00005297          	auipc	t0,0x5
   125b6:	380282e7          	jalr	t0,896(t0) # 17932 <OUTLINED_FUNCTION_2>
   125ba:	6ae14a03          	lbu	s4,1710(sp)
   125be:	0ca11623          	sh	a0,204(sp)
   125c2:	0cc10723          	sb	a2,206(sp)
   125c6:	6af10593          	addi	a1,sp,1711
   125ca:	64410513          	addi	a0,sp,1604
   125ce:	03100613          	li	a2,49
   125d2:	00006097          	auipc	ra,0x6
   125d6:	852080e7          	jalr	-1966(ra) # 17e24 <memcpy>
   125da:	00005297          	auipc	t0,0x5
   125de:	634282e7          	jalr	t0,1588(t0) # 17c0e <OUTLINED_FUNCTION_31>
   125e2:	00000073          	ecall
   125e6:	00005297          	auipc	t0,0x5
   125ea:	7ae282e7          	jalr	t0,1966(t0) # 17d94 <OUTLINED_FUNCTION_60>
   125ee:	00000073          	ecall
   125f2:	6af10513          	addi	a0,sp,1711
   125f6:	64410593          	addi	a1,sp,1604
   125fa:	03100613          	li	a2,49
   125fe:	00006097          	auipc	ra,0x6
   12602:	826080e7          	jalr	-2010(ra) # 17e24 <memcpy>
   12606:	0cc11503          	lh	a0,204(sp)
   1260a:	0ce14583          	lbu	a1,206(sp)
   1260e:	00005297          	auipc	t0,0x5
   12612:	3d8282e7          	jalr	t0,984(t0) # 179e6 <OUTLINED_FUNCTION_8>
   12616:	03400613          	li	a2,52
   1261a:	4581                	li	a1,0
   1261c:	00005097          	auipc	ra,0x5
   12620:	79c080e7          	jalr	1948(ra) # 17db8 <memset>
   12624:	12e00513          	li	a0,302
   12628:	45a1                	li	a1,8
   1262a:	6a810613          	addi	a2,sp,1704
   1262e:	03800693          	li	a3,56
   12632:	fffff097          	auipc	ra,0xfffff
   12636:	b02080e7          	jalr	-1278(ra) # 11134 <_ZN9allow_pin10no_dynamic11allow_inner17h151634b71b3fc351E>
   1263a:	8905                	andi	a0,a0,1
   1263c:	e905                	bnez	a0,1266c <_start+0x150e>
   1263e:	12e00513          	li	a0,302
   12642:	458d                	li	a1,3
   12644:	64410613          	addi	a2,sp,1604
   12648:	03400693          	li	a3,52
   1264c:	fffff097          	auipc	ra,0xfffff
   12650:	af6080e7          	jalr	-1290(ra) # 11142 <_ZN9allow_pin10no_dynamic11allow_inner17ha2b744c817d78427E>
   12654:	8905                	andi	a0,a0,1
   12656:	e919                	bnez	a0,1266c <_start+0x150e>
   12658:	12e00513          	li	a0,302
   1265c:	45a1                	li	a1,8
   1265e:	460d                	li	a2,3
   12660:	fffff097          	auipc	ra,0xfffff
   12664:	af0080e7          	jalr	-1296(ra) # 11150 <_ZN9allow_pin7command17h1eb46760111c3605E>
   12668:	8905                	andi	a0,a0,1
   1266a:	c505                	beqz	a0,12692 <_start+0x1534>
   1266c:	87ae                	mv	a5,a1
   1266e:	4601                	li	a2,0
   12670:	4681                	li	a3,0
   12672:	12e00513          	li	a0,302
   12676:	458d                	li	a1,3
   12678:	470d                	li	a4,3
   1267a:	00000073          	ecall
   1267e:	12e00513          	li	a0,302
   12682:	45a1                	li	a1,8
   12684:	4711                	li	a4,4
   12686:	4601                	li	a2,0
   12688:	4681                	li	a3,0
   1268a:	00000073          	ecall
   1268e:	b83fe06f          	j	11210 <_start+0xb2>
   12692:	4601                	li	a2,0
   12694:	4681                	li	a3,0
   12696:	12e00513          	li	a0,302
   1269a:	458d                	li	a1,3
   1269c:	470d                	li	a4,3
   1269e:	00000073          	ecall
   126a2:	470d                	li	a4,3
   126a4:	12e00513          	li	a0,302
   126a8:	458d                	li	a1,3
   126aa:	4601                	li	a2,0
   126ac:	4681                	li	a3,0
   126ae:	00000073          	ecall
   126b2:	00005297          	auipc	t0,0x5
   126b6:	262282e7          	jalr	t0,610(t0) # 17914 <OUTLINED_FUNCTION_1>
   126ba:	64a14483          	lbu	s1,1610(sp)
   126be:	0ca11823          	sh	a0,208(sp)
   126c2:	0cc10923          	sb	a2,210(sp)
   126c6:	64b10593          	addi	a1,sp,1611
   126ca:	5ec10513          	addi	a0,sp,1516
   126ce:	02d00613          	li	a2,45
   126d2:	00005097          	auipc	ra,0x5
   126d6:	752080e7          	jalr	1874(ra) # 17e24 <memcpy>
   126da:	4601                	li	a2,0
   126dc:	4681                	li	a3,0
   126de:	12e00513          	li	a0,302
   126e2:	458d                	li	a1,3
   126e4:	470d                	li	a4,3
   126e6:	00000073          	ecall
   126ea:	12e00513          	li	a0,302
   126ee:	45a1                	li	a1,8
   126f0:	4711                	li	a4,4
   126f2:	4601                	li	a2,0
   126f4:	4681                	li	a3,0
   126f6:	00000073          	ecall
   126fa:	6af10513          	addi	a0,sp,1711
   126fe:	5ec10593          	addi	a1,sp,1516
   12702:	02d00613          	li	a2,45
   12706:	00005097          	auipc	ra,0x5
   1270a:	71e080e7          	jalr	1822(ra) # 17e24 <memcpy>
   1270e:	0d011503          	lh	a0,208(sp)
   12712:	0d214583          	lbu	a1,210(sp)
   12716:	00005297          	auipc	t0,0x5
   1271a:	2b2282e7          	jalr	t0,690(t0) # 179c8 <OUTLINED_FUNCTION_7>
   1271e:	4669                	li	a2,26
   12720:	4581                	li	a1,0
   12722:	00005097          	auipc	ra,0x5
   12726:	696080e7          	jalr	1686(ra) # 17db8 <memset>
   1272a:	6505                	lui	a0,0x1
   1272c:	6a810613          	addi	a2,sp,1704
   12730:	2cc50493          	addi	s1,a0,716 # 12cc <.Lline_table_start1+0x10a1>
   12734:	03400693          	li	a3,52
   12738:	8526                	mv	a0,s1
   1273a:	4581                	li	a1,0
   1273c:	fffff097          	auipc	ra,0xfffff
   12740:	9f8080e7          	jalr	-1544(ra) # 11134 <_ZN9allow_pin10no_dynamic11allow_inner17h151634b71b3fc351E>
   12744:	8905                	andi	a0,a0,1
   12746:	e905                	bnez	a0,12776 <_start+0x1618>
   12748:	4595                	li	a1,5
   1274a:	64410613          	addi	a2,sp,1604
   1274e:	46e9                	li	a3,26
   12750:	8526                	mv	a0,s1
   12752:	fffff097          	auipc	ra,0xfffff
   12756:	9f0080e7          	jalr	-1552(ra) # 11142 <_ZN9allow_pin10no_dynamic11allow_inner17ha2b744c817d78427E>
   1275a:	8905                	andi	a0,a0,1
   1275c:	ed09                	bnez	a0,12776 <_start+0x1618>
   1275e:	6905                	lui	s2,0x1
   12760:	2cc90413          	addi	s0,s2,716 # 12cc <.Lline_table_start1+0x10a1>
   12764:	4615                	li	a2,5
   12766:	8522                	mv	a0,s0
   12768:	4581                	li	a1,0
   1276a:	fffff097          	auipc	ra,0xfffff
   1276e:	9e6080e7          	jalr	-1562(ra) # 11150 <_ZN9allow_pin7command17h1eb46760111c3605E>
   12772:	8905                	andi	a0,a0,1
   12774:	c10d                	beqz	a0,12796 <_start+0x1638>
   12776:	87ae                	mv	a5,a1
   12778:	4595                	li	a1,5
   1277a:	470d                	li	a4,3
   1277c:	8526                	mv	a0,s1
   1277e:	4601                	li	a2,0
   12780:	4681                	li	a3,0
   12782:	00000073          	ecall
   12786:	00005297          	auipc	t0,0x5
   1278a:	526282e7          	jalr	t0,1318(t0) # 17cac <OUTLINED_FUNCTION_43>
   1278e:	00000073          	ecall
   12792:	a7ffe06f          	j	11210 <_start+0xb2>
   12796:	00005297          	auipc	t0,0x5
   1279a:	5f2282e7          	jalr	t0,1522(t0) # 17d88 <OUTLINED_FUNCTION_59>
   1279e:	00000073          	ecall
   127a2:	470d                	li	a4,3
   127a4:	4595                	li	a1,5
   127a6:	8522                	mv	a0,s0
   127a8:	4601                	li	a2,0
   127aa:	4681                	li	a3,0
   127ac:	00000073          	ecall
   127b0:	00005297          	auipc	t0,0x5
   127b4:	288282e7          	jalr	t0,648(t0) # 17a38 <OUTLINED_FUNCTION_11>
   127b8:	64914483          	lbu	s1,1609(sp)
   127bc:	64a14a83          	lbu	s5,1610(sp)
   127c0:	0ca11a23          	sh	a0,212(sp)
   127c4:	0cc10b23          	sb	a2,214(sp)
   127c8:	64b10593          	addi	a1,sp,1611
   127cc:	52c10513          	addi	a0,sp,1324
   127d0:	464d                	li	a2,19
   127d2:	00005097          	auipc	ra,0x5
   127d6:	652080e7          	jalr	1618(ra) # 17e24 <memcpy>
   127da:	4595                	li	a1,5
   127dc:	470d                	li	a4,3
   127de:	8522                	mv	a0,s0
   127e0:	4601                	li	a2,0
   127e2:	4681                	li	a3,0
   127e4:	00000073          	ecall
   127e8:	00005297          	auipc	t0,0x5
   127ec:	5c4282e7          	jalr	t0,1476(t0) # 17dac <OUTLINED_FUNCTION_62>
   127f0:	00000073          	ecall
   127f4:	5f310513          	addi	a0,sp,1523
   127f8:	52c10593          	addi	a1,sp,1324
   127fc:	464d                	li	a2,19
   127fe:	00005097          	auipc	ra,0x5
   12802:	626080e7          	jalr	1574(ra) # 17e24 <memcpy>
   12806:	0d411503          	lh	a0,212(sp)
   1280a:	0d614583          	lbu	a1,214(sp)
   1280e:	5e9108a3          	sb	s1,1521(sp)
   12812:	00005297          	auipc	t0,0x5
   12816:	376282e7          	jalr	t0,886(t0) # 17b88 <OUTLINED_FUNCTION_25>
   1281a:	6a810513          	addi	a0,sp,1704
   1281e:	05000613          	li	a2,80
   12822:	4581                	li	a1,0
   12824:	00005097          	auipc	ra,0x5
   12828:	594080e7          	jalr	1428(ra) # 17db8 <memset>
   1282c:	aee90513          	addi	a0,s2,-1298
   12830:	459d                	li	a1,7
   12832:	5ec10613          	addi	a2,sp,1516
   12836:	46e9                	li	a3,26
   12838:	fffff097          	auipc	ra,0xfffff
   1283c:	8fc080e7          	jalr	-1796(ra) # 11134 <_ZN9allow_pin10no_dynamic11allow_inner17h151634b71b3fc351E>
   12840:	8905                	andi	a0,a0,1
   12842:	e90d                	bnez	a0,12874 <_start+0x1716>
   12844:	6505                	lui	a0,0x1
   12846:	4591                	li	a1,4
   12848:	6a810613          	addi	a2,sp,1704
   1284c:	aee50413          	addi	s0,a0,-1298 # aee <.Lline_table_start1+0x8c3>
   12850:	05000693          	li	a3,80
   12854:	8522                	mv	a0,s0
   12856:	fffff097          	auipc	ra,0xfffff
   1285a:	8ec080e7          	jalr	-1812(ra) # 11142 <_ZN9allow_pin10no_dynamic11allow_inner17ha2b744c817d78427E>
   1285e:	8905                	andi	a0,a0,1
   12860:	e911                	bnez	a0,12874 <_start+0x1716>
   12862:	459d                	li	a1,7
   12864:	4611                	li	a2,4
   12866:	8522                	mv	a0,s0
   12868:	fffff097          	auipc	ra,0xfffff
   1286c:	8e8080e7          	jalr	-1816(ra) # 11150 <_ZN9allow_pin7command17h1eb46760111c3605E>
   12870:	8905                	andi	a0,a0,1
   12872:	c505                	beqz	a0,1289a <_start+0x173c>
   12874:	87ae                	mv	a5,a1
   12876:	4601                	li	a2,0
   12878:	4681                	li	a3,0
   1287a:	6505                	lui	a0,0x1
   1287c:	4591                	li	a1,4
   1287e:	aee50493          	addi	s1,a0,-1298 # aee <.Lline_table_start1+0x8c3>
   12882:	470d                	li	a4,3
   12884:	8526                	mv	a0,s1
   12886:	00000073          	ecall
   1288a:	00005297          	auipc	t0,0x5
   1288e:	3f2282e7          	jalr	t0,1010(t0) # 17c7c <OUTLINED_FUNCTION_39>
   12892:	00000073          	ecall
   12896:	97bfe06f          	j	11210 <_start+0xb2>
   1289a:	4601                	li	a2,0
   1289c:	4681                	li	a3,0
   1289e:	6905                	lui	s2,0x1
   128a0:	4591                	li	a1,4
   128a2:	aee90413          	addi	s0,s2,-1298 # aee <.Lline_table_start1+0x8c3>
   128a6:	470d                	li	a4,3
   128a8:	8522                	mv	a0,s0
   128aa:	00000073          	ecall
   128ae:	470d                	li	a4,3
   128b0:	4591                	li	a1,4
   128b2:	8522                	mv	a0,s0
   128b4:	4601                	li	a2,0
   128b6:	4681                	li	a3,0
   128b8:	00000073          	ecall
   128bc:	00005297          	auipc	t0,0x5
   128c0:	094282e7          	jalr	t0,148(t0) # 17950 <OUTLINED_FUNCTION_3>
   128c4:	0ca11c23          	sh	a0,216(sp)
   128c8:	0cc10d23          	sb	a2,218(sp)
   128cc:	6af10593          	addi	a1,sp,1711
   128d0:	64410513          	addi	a0,sp,1604
   128d4:	04900613          	li	a2,73
   128d8:	00005097          	auipc	ra,0x5
   128dc:	54c080e7          	jalr	1356(ra) # 17e24 <memcpy>
   128e0:	00005297          	auipc	t0,0x5
   128e4:	49c282e7          	jalr	t0,1180(t0) # 17d7c <OUTLINED_FUNCTION_58>
   128e8:	00000073          	ecall
   128ec:	00005297          	auipc	t0,0x5
   128f0:	3d8282e7          	jalr	t0,984(t0) # 17cc4 <OUTLINED_FUNCTION_45>
   128f4:	00000073          	ecall
   128f8:	6af10513          	addi	a0,sp,1711
   128fc:	64410593          	addi	a1,sp,1604
   12900:	04900613          	li	a2,73
   12904:	00005097          	auipc	ra,0x5
   12908:	520080e7          	jalr	1312(ra) # 17e24 <memcpy>
   1290c:	0d811503          	lh	a0,216(sp)
   12910:	0da14583          	lbu	a1,218(sp)
   12914:	00005297          	auipc	t0,0x5
   12918:	10a282e7          	jalr	t0,266(t0) # 17a1e <OUTLINED_FUNCTION_10>
   1291c:	64410513          	addi	a0,sp,1604
   12920:	03c00613          	li	a2,60
   12924:	4581                	li	a1,0
   12926:	00005097          	auipc	ra,0x5
   1292a:	492080e7          	jalr	1170(ra) # 17db8 <memset>
   1292e:	d7a90413          	addi	s0,s2,-646
   12932:	458d                	li	a1,3
   12934:	6a810613          	addi	a2,sp,1704
   12938:	05000693          	li	a3,80
   1293c:	8522                	mv	a0,s0
   1293e:	ffffe097          	auipc	ra,0xffffe
   12942:	7f6080e7          	jalr	2038(ra) # 11134 <_ZN9allow_pin10no_dynamic11allow_inner17h151634b71b3fc351E>
   12946:	8905                	andi	a0,a0,1
   12948:	e90d                	bnez	a0,1297a <_start+0x181c>
   1294a:	45a5                	li	a1,9
   1294c:	64410613          	addi	a2,sp,1604
   12950:	03c00693          	li	a3,60
   12954:	8522                	mv	a0,s0
   12956:	ffffe097          	auipc	ra,0xffffe
   1295a:	7ec080e7          	jalr	2028(ra) # 11142 <_ZN9allow_pin10no_dynamic11allow_inner17ha2b744c817d78427E>
   1295e:	8905                	andi	a0,a0,1
   12960:	ed09                	bnez	a0,1297a <_start+0x181c>
   12962:	6505                	lui	a0,0x1
   12964:	458d                	li	a1,3
   12966:	d7a50493          	addi	s1,a0,-646 # d7a <.Lline_table_start1+0xb4f>
   1296a:	4625                	li	a2,9
   1296c:	8526                	mv	a0,s1
   1296e:	ffffe097          	auipc	ra,0xffffe
   12972:	7e2080e7          	jalr	2018(ra) # 11150 <_ZN9allow_pin7command17h1eb46760111c3605E>
   12976:	8905                	andi	a0,a0,1
   12978:	cd19                	beqz	a0,12996 <_start+0x1838>
   1297a:	00005297          	auipc	t0,0x5
   1297e:	26a282e7          	jalr	t0,618(t0) # 17be4 <OUTLINED_FUNCTION_28>
   12982:	00000073          	ecall
   12986:	00005297          	auipc	t0,0x5
   1298a:	3ba282e7          	jalr	t0,954(t0) # 17d40 <OUTLINED_FUNCTION_53>
   1298e:	00000073          	ecall
   12992:	87ffe06f          	j	11210 <_start+0xb2>
   12996:	00005297          	auipc	t0,0x5
   1299a:	278282e7          	jalr	t0,632(t0) # 17c0e <OUTLINED_FUNCTION_31>
   1299e:	00000073          	ecall
   129a2:	00005297          	auipc	t0,0x5
   129a6:	2ce282e7          	jalr	t0,718(t0) # 17c70 <OUTLINED_FUNCTION_38>
   129aa:	00000073          	ecall
   129ae:	00005297          	auipc	t0,0x5
   129b2:	f44282e7          	jalr	t0,-188(t0) # 178f2 <OUTLINED_FUNCTION_0>
   129b6:	0ca11e23          	sh	a0,220(sp)
   129ba:	0cc10f23          	sb	a2,222(sp)
   129be:	64b10593          	addi	a1,sp,1611
   129c2:	5ec10513          	addi	a0,sp,1516
   129c6:	03500613          	li	a2,53
   129ca:	00005097          	auipc	ra,0x5
   129ce:	45a080e7          	jalr	1114(ra) # 17e24 <memcpy>
   129d2:	00005297          	auipc	t0,0x5
   129d6:	23c282e7          	jalr	t0,572(t0) # 17c0e <OUTLINED_FUNCTION_31>
   129da:	00000073          	ecall
   129de:	00005297          	auipc	t0,0x5
   129e2:	286282e7          	jalr	t0,646(t0) # 17c64 <OUTLINED_FUNCTION_37>
   129e6:	00000073          	ecall
   129ea:	6af10513          	addi	a0,sp,1711
   129ee:	5ec10593          	addi	a1,sp,1516
   129f2:	03500613          	li	a2,53
   129f6:	00005097          	auipc	ra,0x5
   129fa:	42e080e7          	jalr	1070(ra) # 17e24 <memcpy>
   129fe:	0dc11503          	lh	a0,220(sp)
   12a02:	0de14583          	lbu	a1,222(sp)
   12a06:	00005297          	auipc	t0,0x5
   12a0a:	fe0282e7          	jalr	t0,-32(t0) # 179e6 <OUTLINED_FUNCTION_8>
   12a0e:	03200613          	li	a2,50
   12a12:	4581                	li	a1,0
   12a14:	00005097          	auipc	ra,0x5
   12a18:	3a4080e7          	jalr	932(ra) # 17db8 <memset>
   12a1c:	6509                	lui	a0,0x2
   12a1e:	4599                	li	a1,6
   12a20:	6a810613          	addi	a2,sp,1704
   12a24:	b1e50413          	addi	s0,a0,-1250 # 1b1e <.Lline_table_start1+0x18f3>
   12a28:	03c00693          	li	a3,60
   12a2c:	8522                	mv	a0,s0
   12a2e:	ffffe097          	auipc	ra,0xffffe
   12a32:	706080e7          	jalr	1798(ra) # 11134 <_ZN9allow_pin10no_dynamic11allow_inner17h151634b71b3fc351E>
   12a36:	8905                	andi	a0,a0,1
   12a38:	e90d                	bnez	a0,12a6a <_start+0x190c>
   12a3a:	45a1                	li	a1,8
   12a3c:	64410613          	addi	a2,sp,1604
   12a40:	03200693          	li	a3,50
   12a44:	8522                	mv	a0,s0
   12a46:	ffffe097          	auipc	ra,0xffffe
   12a4a:	6fc080e7          	jalr	1788(ra) # 11142 <_ZN9allow_pin10no_dynamic11allow_inner17ha2b744c817d78427E>
   12a4e:	8905                	andi	a0,a0,1
   12a50:	ed09                	bnez	a0,12a6a <_start+0x190c>
   12a52:	6909                	lui	s2,0x2
   12a54:	4599                	li	a1,6
   12a56:	b1e90493          	addi	s1,s2,-1250 # 1b1e <.Lline_table_start1+0x18f3>
   12a5a:	4621                	li	a2,8
   12a5c:	8526                	mv	a0,s1
   12a5e:	ffffe097          	auipc	ra,0xffffe
   12a62:	6f2080e7          	jalr	1778(ra) # 11150 <_ZN9allow_pin7command17h1eb46760111c3605E>
   12a66:	8905                	andi	a0,a0,1
   12a68:	cd19                	beqz	a0,12a86 <_start+0x1928>
   12a6a:	00005297          	auipc	t0,0x5
   12a6e:	196282e7          	jalr	t0,406(t0) # 17c00 <OUTLINED_FUNCTION_30>
   12a72:	00000073          	ecall
   12a76:	00005297          	auipc	t0,0x5
   12a7a:	2e2282e7          	jalr	t0,738(t0) # 17d58 <OUTLINED_FUNCTION_55>
   12a7e:	00000073          	ecall
   12a82:	f8efe06f          	j	11210 <_start+0xb2>
   12a86:	00005297          	auipc	t0,0x5
   12a8a:	1d2282e7          	jalr	t0,466(t0) # 17c58 <OUTLINED_FUNCTION_36>
   12a8e:	00000073          	ecall
   12a92:	00005297          	auipc	t0,0x5
   12a96:	30e282e7          	jalr	t0,782(t0) # 17da0 <OUTLINED_FUNCTION_61>
   12a9a:	00000073          	ecall
   12a9e:	00005297          	auipc	t0,0x5
   12aa2:	f08282e7          	jalr	t0,-248(t0) # 179a6 <OUTLINED_FUNCTION_6>
   12aa6:	0ea11023          	sh	a0,224(sp)
   12aaa:	0ec10123          	sb	a2,226(sp)
   12aae:	64b10593          	addi	a1,sp,1611
   12ab2:	5ec10513          	addi	a0,sp,1516
   12ab6:	02b00613          	li	a2,43
   12aba:	00005097          	auipc	ra,0x5
   12abe:	36a080e7          	jalr	874(ra) # 17e24 <memcpy>
   12ac2:	00005297          	auipc	t0,0x5
   12ac6:	196282e7          	jalr	t0,406(t0) # 17c58 <OUTLINED_FUNCTION_36>
   12aca:	00000073          	ecall
   12ace:	00005297          	auipc	t0,0x5
   12ad2:	27e282e7          	jalr	t0,638(t0) # 17d4c <OUTLINED_FUNCTION_54>
   12ad6:	00000073          	ecall
   12ada:	64b10513          	addi	a0,sp,1611
   12ade:	5ec10593          	addi	a1,sp,1516
   12ae2:	02b00613          	li	a2,43
   12ae6:	00005097          	auipc	ra,0x5
   12aea:	33e080e7          	jalr	830(ra) # 17e24 <memcpy>
   12aee:	0e011503          	lh	a0,224(sp)
   12af2:	0e214583          	lbu	a1,226(sp)
   12af6:	648104a3          	sb	s0,1609(sp)
   12afa:	00005297          	auipc	t0,0x5
   12afe:	062282e7          	jalr	t0,98(t0) # 17b5c <OUTLINED_FUNCTION_23>
   12b02:	03200613          	li	a2,50
   12b06:	4581                	li	a1,0
   12b08:	00005097          	auipc	ra,0x5
   12b0c:	2b0080e7          	jalr	688(ra) # 17db8 <memset>
   12b10:	f0790513          	addi	a0,s2,-249
   12b14:	458d                	li	a1,3
   12b16:	64410613          	addi	a2,sp,1604
   12b1a:	03200693          	li	a3,50
   12b1e:	ffffe097          	auipc	ra,0xffffe
   12b22:	616080e7          	jalr	1558(ra) # 11134 <_ZN9allow_pin10no_dynamic11allow_inner17h151634b71b3fc351E>
   12b26:	8905                	andi	a0,a0,1
   12b28:	e90d                	bnez	a0,12b5a <_start+0x19fc>
   12b2a:	6509                	lui	a0,0x2
   12b2c:	4585                	li	a1,1
   12b2e:	6a810613          	addi	a2,sp,1704
   12b32:	f0750413          	addi	s0,a0,-249 # 1f07 <.Lline_table_start1+0x1cdc>
   12b36:	03200693          	li	a3,50
   12b3a:	8522                	mv	a0,s0
   12b3c:	ffffe097          	auipc	ra,0xffffe
   12b40:	606080e7          	jalr	1542(ra) # 11142 <_ZN9allow_pin10no_dynamic11allow_inner17ha2b744c817d78427E>
   12b44:	8905                	andi	a0,a0,1
   12b46:	e911                	bnez	a0,12b5a <_start+0x19fc>
   12b48:	458d                	li	a1,3
   12b4a:	4605                	li	a2,1
   12b4c:	8522                	mv	a0,s0
   12b4e:	ffffe097          	auipc	ra,0xffffe
   12b52:	602080e7          	jalr	1538(ra) # 11150 <_ZN9allow_pin7command17h1eb46760111c3605E>
   12b56:	8905                	andi	a0,a0,1
   12b58:	c505                	beqz	a0,12b80 <_start+0x1a22>
   12b5a:	87ae                	mv	a5,a1
   12b5c:	4601                	li	a2,0
   12b5e:	4681                	li	a3,0
   12b60:	6509                	lui	a0,0x2
   12b62:	4585                	li	a1,1
   12b64:	f0750493          	addi	s1,a0,-249 # 1f07 <.Lline_table_start1+0x1cdc>
   12b68:	470d                	li	a4,3
   12b6a:	8526                	mv	a0,s1
   12b6c:	00000073          	ecall
   12b70:	00005297          	auipc	t0,0x5
   12b74:	0f4282e7          	jalr	t0,244(t0) # 17c64 <OUTLINED_FUNCTION_37>
   12b78:	00000073          	ecall
   12b7c:	e94fe06f          	j	11210 <_start+0xb2>
   12b80:	4601                	li	a2,0
   12b82:	4681                	li	a3,0
   12b84:	6909                	lui	s2,0x2
   12b86:	4585                	li	a1,1
   12b88:	f0790493          	addi	s1,s2,-249 # 1f07 <.Lline_table_start1+0x1cdc>
   12b8c:	470d                	li	a4,3
   12b8e:	8526                	mv	a0,s1
   12b90:	00000073          	ecall
   12b94:	470d                	li	a4,3
   12b96:	4585                	li	a1,1
   12b98:	8526                	mv	a0,s1
   12b9a:	4601                	li	a2,0
   12b9c:	4681                	li	a3,0
   12b9e:	00000073          	ecall
   12ba2:	6a814503          	lbu	a0,1704(sp)
   12ba6:	6a914583          	lbu	a1,1705(sp)
   12baa:	4405                	li	s0,1
   12bac:	6aa14603          	lbu	a2,1706(sp)
   12bb0:	6ab14983          	lbu	s3,1707(sp)
   12bb4:	05a2                	slli	a1,a1,0x8
   12bb6:	8d4d                	or	a0,a0,a1
   12bb8:	6ac14a03          	lbu	s4,1708(sp)
   12bbc:	6ad14a83          	lbu	s5,1709(sp)
   12bc0:	6ae14b03          	lbu	s6,1710(sp)
   12bc4:	0ea11223          	sh	a0,228(sp)
   12bc8:	0ec10323          	sb	a2,230(sp)
   12bcc:	6af10593          	addi	a1,sp,1711
   12bd0:	5ec10513          	addi	a0,sp,1516
   12bd4:	02b00613          	li	a2,43
   12bd8:	00005097          	auipc	ra,0x5
   12bdc:	24c080e7          	jalr	588(ra) # 17e24 <memcpy>
   12be0:	8526                	mv	a0,s1
   12be2:	4601                	li	a2,0
   12be4:	4681                	li	a3,0
   12be6:	4585                	li	a1,1
   12be8:	470d                	li	a4,3
   12bea:	00000073          	ecall
   12bee:	00005297          	auipc	t0,0x5
   12bf2:	076282e7          	jalr	t0,118(t0) # 17c64 <OUTLINED_FUNCTION_37>
   12bf6:	00000073          	ecall
   12bfa:	6af10513          	addi	a0,sp,1711
   12bfe:	5ec10593          	addi	a1,sp,1516
   12c02:	02b00613          	li	a2,43
   12c06:	00005097          	auipc	ra,0x5
   12c0a:	21e080e7          	jalr	542(ra) # 17e24 <memcpy>
   12c0e:	0e411503          	lh	a0,228(sp)
   12c12:	0e614583          	lbu	a1,230(sp)
   12c16:	6b5106a3          	sb	s5,1709(sp)
   12c1a:	6b610723          	sb	s6,1710(sp)
   12c1e:	6aa11423          	sh	a0,1704(sp)
   12c22:	6ab10523          	sb	a1,1706(sp)
   12c26:	6b3105a3          	sb	s3,1707(sp)
   12c2a:	6b410623          	sb	s4,1708(sp)
   12c2e:	00005297          	auipc	t0,0x5
   12c32:	0e6282e7          	jalr	t0,230(t0) # 17d14 <OUTLINED_FUNCTION_50>
   12c36:	c92c                	sw	a1,80(a0)
   12c38:	9d690493          	addi	s1,s2,-1578
   12c3c:	4591                	li	a1,4
   12c3e:	6a810613          	addi	a2,sp,1704
   12c42:	03200693          	li	a3,50
   12c46:	8526                	mv	a0,s1
   12c48:	ffffe097          	auipc	ra,0xffffe
   12c4c:	4ec080e7          	jalr	1260(ra) # 11134 <_ZN9allow_pin10no_dynamic11allow_inner17h151634b71b3fc351E>
   12c50:	8905                	andi	a0,a0,1
   12c52:	e905                	bnez	a0,12c82 <_start+0x1b24>
   12c54:	45a5                	li	a1,9
   12c56:	64410613          	addi	a2,sp,1604
   12c5a:	46c1                	li	a3,16
   12c5c:	8526                	mv	a0,s1
   12c5e:	ffffe097          	auipc	ra,0xffffe
   12c62:	4e4080e7          	jalr	1252(ra) # 11142 <_ZN9allow_pin10no_dynamic11allow_inner17ha2b744c817d78427E>
   12c66:	8905                	andi	a0,a0,1
   12c68:	ed09                	bnez	a0,12c82 <_start+0x1b24>
   12c6a:	6989                	lui	s3,0x2
   12c6c:	4591                	li	a1,4
   12c6e:	9d698913          	addi	s2,s3,-1578 # 19d6 <.Lline_table_start1+0x17ab>
   12c72:	4625                	li	a2,9
   12c74:	854a                	mv	a0,s2
   12c76:	ffffe097          	auipc	ra,0xffffe
   12c7a:	4da080e7          	jalr	1242(ra) # 11150 <_ZN9allow_pin7command17h1eb46760111c3605E>
   12c7e:	8905                	andi	a0,a0,1
   12c80:	c105                	beqz	a0,12ca0 <_start+0x1b42>
   12c82:	87ae                	mv	a5,a1
   12c84:	00005297          	auipc	t0,0x5
   12c88:	f8a282e7          	jalr	t0,-118(t0) # 17c0e <OUTLINED_FUNCTION_31>
   12c8c:	00000073          	ecall
   12c90:	00005297          	auipc	t0,0x5
   12c94:	0e0282e7          	jalr	t0,224(t0) # 17d70 <OUTLINED_FUNCTION_57>
   12c98:	00000073          	ecall
   12c9c:	d76fe06f          	j	11212 <_start+0xb4>
   12ca0:	854a                	mv	a0,s2
   12ca2:	4601                	li	a2,0
   12ca4:	4681                	li	a3,0
   12ca6:	45a5                	li	a1,9
   12ca8:	470d                	li	a4,3
   12caa:	00000073          	ecall
   12cae:	470d                	li	a4,3
   12cb0:	45a5                	li	a1,9
   12cb2:	854a                	mv	a0,s2
   12cb4:	4601                	li	a2,0
   12cb6:	4681                	li	a3,0
   12cb8:	00000073          	ecall
   12cbc:	64411503          	lh	a0,1604(sp)
   12cc0:	64614583          	lbu	a1,1606(sp)
   12cc4:	64714a03          	lbu	s4,1607(sp)
   12cc8:	64814a83          	lbu	s5,1608(sp)
   12ccc:	64914b03          	lbu	s6,1609(sp)
   12cd0:	64a14483          	lbu	s1,1610(sp)
   12cd4:	64b14603          	lbu	a2,1611(sp)
   12cd8:	64c14683          	lbu	a3,1612(sp)
   12cdc:	0ea11423          	sh	a0,232(sp)
   12ce0:	0eb10523          	sb	a1,234(sp)
   12ce4:	64d14503          	lbu	a0,1613(sp)
   12ce8:	64e14583          	lbu	a1,1614(sp)
   12cec:	64f14703          	lbu	a4,1615(sp)
   12cf0:	65014783          	lbu	a5,1616(sp)
   12cf4:	06a2                	slli	a3,a3,0x8
   12cf6:	0542                	slli	a0,a0,0x10
   12cf8:	05e2                	slli	a1,a1,0x18
   12cfa:	07a2                	slli	a5,a5,0x8
   12cfc:	8e55                	or	a2,a2,a3
   12cfe:	8d4d                	or	a0,a0,a1
   12d00:	65114583          	lbu	a1,1617(sp)
   12d04:	65214683          	lbu	a3,1618(sp)
   12d08:	8fd9                	or	a5,a5,a4
   12d0a:	65314403          	lbu	s0,1619(sp)
   12d0e:	05c2                	slli	a1,a1,0x10
   12d10:	06e2                	slli	a3,a3,0x18
   12d12:	8dd5                	or	a1,a1,a3
   12d14:	8d51                	or	a0,a0,a2
   12d16:	470d                	li	a4,3
   12d18:	8fcd                	or	a5,a5,a1
   12d1a:	45a5                	li	a1,9
   12d1c:	52a12623          	sw	a0,1324(sp)
   12d20:	52f12823          	sw	a5,1328(sp)
   12d24:	52810a23          	sb	s0,1332(sp)
   12d28:	854a                	mv	a0,s2
   12d2a:	4601                	li	a2,0
   12d2c:	4681                	li	a3,0
   12d2e:	00000073          	ecall
   12d32:	4591                	li	a1,4
   12d34:	4711                	li	a4,4
   12d36:	854a                	mv	a0,s2
   12d38:	4601                	li	a2,0
   12d3a:	4681                	li	a3,0
   12d3c:	00000073          	ecall
   12d40:	5f310513          	addi	a0,sp,1523
   12d44:	52c10593          	addi	a1,sp,1324
   12d48:	4625                	li	a2,9
   12d4a:	00005097          	auipc	ra,0x5
   12d4e:	0da080e7          	jalr	218(ra) # 17e24 <memcpy>
   12d52:	0e811503          	lh	a0,232(sp)
   12d56:	0ea14583          	lbu	a1,234(sp)
   12d5a:	5f6108a3          	sb	s6,1521(sp)
   12d5e:	5e910923          	sb	s1,1522(sp)
   12d62:	5ea11623          	sh	a0,1516(sp)
   12d66:	5eb10723          	sb	a1,1518(sp)
   12d6a:	5f4107a3          	sb	s4,1519(sp)
   12d6e:	5f510823          	sb	s5,1520(sp)
   12d72:	6a810513          	addi	a0,sp,1704
   12d76:	03600613          	li	a2,54
   12d7a:	4581                	li	a1,0
   12d7c:	00005097          	auipc	ra,0x5
   12d80:	03c080e7          	jalr	60(ra) # 17db8 <memset>
   12d84:	98998513          	addi	a0,s3,-1655
   12d88:	4585                	li	a1,1
   12d8a:	5ec10613          	addi	a2,sp,1516
   12d8e:	46c1                	li	a3,16
   12d90:	4405                	li	s0,1
   12d92:	ffffe097          	auipc	ra,0xffffe
   12d96:	3a2080e7          	jalr	930(ra) # 11134 <_ZN9allow_pin10no_dynamic11allow_inner17h151634b71b3fc351E>
   12d9a:	8905                	andi	a0,a0,1
   12d9c:	e90d                	bnez	a0,12dce <_start+0x1c70>
   12d9e:	6509                	lui	a0,0x2
   12da0:	459d                	li	a1,7
   12da2:	6a810613          	addi	a2,sp,1704
   12da6:	98950493          	addi	s1,a0,-1655 # 1989 <.Lline_table_start1+0x175e>
   12daa:	03600693          	li	a3,54
   12dae:	8526                	mv	a0,s1
   12db0:	ffffe097          	auipc	ra,0xffffe
   12db4:	392080e7          	jalr	914(ra) # 11142 <_ZN9allow_pin10no_dynamic11allow_inner17ha2b744c817d78427E>
   12db8:	8905                	andi	a0,a0,1
   12dba:	e911                	bnez	a0,12dce <_start+0x1c70>
   12dbc:	4585                	li	a1,1
   12dbe:	461d                	li	a2,7
   12dc0:	8526                	mv	a0,s1
   12dc2:	ffffe097          	auipc	ra,0xffffe
   12dc6:	38e080e7          	jalr	910(ra) # 11150 <_ZN9allow_pin7command17h1eb46760111c3605E>
   12dca:	8905                	andi	a0,a0,1
   12dcc:	c50d                	beqz	a0,12df6 <_start+0x1c98>
   12dce:	87ae                	mv	a5,a1
   12dd0:	4601                	li	a2,0
   12dd2:	4681                	li	a3,0
   12dd4:	6509                	lui	a0,0x2
   12dd6:	459d                	li	a1,7
   12dd8:	98950493          	addi	s1,a0,-1655 # 1989 <.Lline_table_start1+0x175e>
   12ddc:	470d                	li	a4,3
   12dde:	8526                	mv	a0,s1
   12de0:	00000073          	ecall
   12de4:	4585                	li	a1,1
   12de6:	4711                	li	a4,4
   12de8:	8526                	mv	a0,s1
   12dea:	4601                	li	a2,0
   12dec:	4681                	li	a3,0
   12dee:	00000073          	ecall
   12df2:	c20fe06f          	j	11212 <_start+0xb4>
   12df6:	4601                	li	a2,0
   12df8:	4681                	li	a3,0
   12dfa:	6509                	lui	a0,0x2
   12dfc:	459d                	li	a1,7
   12dfe:	98950413          	addi	s0,a0,-1655 # 1989 <.Lline_table_start1+0x175e>
   12e02:	470d                	li	a4,3
   12e04:	8522                	mv	a0,s0
   12e06:	00000073          	ecall
   12e0a:	470d                	li	a4,3
   12e0c:	459d                	li	a1,7
   12e0e:	8522                	mv	a0,s0
   12e10:	4601                	li	a2,0
   12e12:	4681                	li	a3,0
   12e14:	00000073          	ecall
   12e18:	00005297          	auipc	t0,0x5
   12e1c:	b5a282e7          	jalr	t0,-1190(t0) # 17972 <OUTLINED_FUNCTION_4>
   12e20:	6ad14483          	lbu	s1,1709(sp)
   12e24:	6ae14a03          	lbu	s4,1710(sp)
   12e28:	0ea11623          	sh	a0,236(sp)
   12e2c:	0ec10723          	sb	a2,238(sp)
   12e30:	6af10593          	addi	a1,sp,1711
   12e34:	64410513          	addi	a0,sp,1604
   12e38:	02f00613          	li	a2,47
   12e3c:	00005097          	auipc	ra,0x5
   12e40:	fe8080e7          	jalr	-24(ra) # 17e24 <memcpy>
   12e44:	8522                	mv	a0,s0
   12e46:	4601                	li	a2,0
   12e48:	4681                	li	a3,0
   12e4a:	459d                	li	a1,7
   12e4c:	470d                	li	a4,3
   12e4e:	00000073          	ecall
   12e52:	4585                	li	a1,1
   12e54:	4711                	li	a4,4
   12e56:	8522                	mv	a0,s0
   12e58:	4601                	li	a2,0
   12e5a:	4681                	li	a3,0
   12e5c:	00000073          	ecall
   12e60:	4405                	li	s0,1
   12e62:	6af10513          	addi	a0,sp,1711
   12e66:	64410593          	addi	a1,sp,1604
   12e6a:	02f00613          	li	a2,47
   12e6e:	00005097          	auipc	ra,0x5
   12e72:	fb6080e7          	jalr	-74(ra) # 17e24 <memcpy>
   12e76:	0ec11503          	lh	a0,236(sp)
   12e7a:	0ee14583          	lbu	a1,238(sp)
   12e7e:	6a9106a3          	sb	s1,1709(sp)
   12e82:	00005297          	auipc	t0,0x5
   12e86:	bea282e7          	jalr	t0,-1046(t0) # 17a6c <OUTLINED_FUNCTION_13>
   12e8a:	463d                	li	a2,15
   12e8c:	4581                	li	a1,0
   12e8e:	00005097          	auipc	ra,0x5
   12e92:	f2a080e7          	jalr	-214(ra) # 17db8 <memset>
   12e96:	65300513          	li	a0,1619
   12e9a:	4595                	li	a1,5
   12e9c:	6a810613          	addi	a2,sp,1704
   12ea0:	03600693          	li	a3,54
   12ea4:	ffffe097          	auipc	ra,0xffffe
   12ea8:	290080e7          	jalr	656(ra) # 11134 <_ZN9allow_pin10no_dynamic11allow_inner17h151634b71b3fc351E>
   12eac:	8905                	andi	a0,a0,1
   12eae:	e51d                	bnez	a0,12edc <_start+0x1d7e>
   12eb0:	65300513          	li	a0,1619
   12eb4:	458d                	li	a1,3
   12eb6:	64410613          	addi	a2,sp,1604
   12eba:	46bd                	li	a3,15
   12ebc:	ffffe097          	auipc	ra,0xffffe
   12ec0:	286080e7          	jalr	646(ra) # 11142 <_ZN9allow_pin10no_dynamic11allow_inner17ha2b744c817d78427E>
   12ec4:	8905                	andi	a0,a0,1
   12ec6:	e919                	bnez	a0,12edc <_start+0x1d7e>
   12ec8:	65300513          	li	a0,1619
   12ecc:	4595                	li	a1,5
   12ece:	460d                	li	a2,3
   12ed0:	ffffe097          	auipc	ra,0xffffe
   12ed4:	280080e7          	jalr	640(ra) # 11150 <_ZN9allow_pin7command17h1eb46760111c3605E>
   12ed8:	8905                	andi	a0,a0,1
   12eda:	c505                	beqz	a0,12f02 <_start+0x1da4>
   12edc:	87ae                	mv	a5,a1
   12ede:	4601                	li	a2,0
   12ee0:	4681                	li	a3,0
   12ee2:	65300513          	li	a0,1619
   12ee6:	458d                	li	a1,3
   12ee8:	470d                	li	a4,3
   12eea:	00000073          	ecall
   12eee:	65300513          	li	a0,1619
   12ef2:	4595                	li	a1,5
   12ef4:	4711                	li	a4,4
   12ef6:	4601                	li	a2,0
   12ef8:	4681                	li	a3,0
   12efa:	00000073          	ecall
   12efe:	b14fe06f          	j	11212 <_start+0xb4>
   12f02:	4601                	li	a2,0
   12f04:	4681                	li	a3,0
   12f06:	65300513          	li	a0,1619
   12f0a:	458d                	li	a1,3
   12f0c:	470d                	li	a4,3
   12f0e:	00000073          	ecall
   12f12:	470d                	li	a4,3
   12f14:	65300513          	li	a0,1619
   12f18:	458d                	li	a1,3
   12f1a:	4601                	li	a2,0
   12f1c:	4681                	li	a3,0
   12f1e:	00000073          	ecall
   12f22:	470d                	li	a4,3
   12f24:	64414583          	lbu	a1,1604(sp)
   12f28:	64514603          	lbu	a2,1605(sp)
   12f2c:	64614683          	lbu	a3,1606(sp)
   12f30:	64714303          	lbu	t1,1607(sp)
   12f34:	64814e03          	lbu	t3,1608(sp)
   12f38:	64914383          	lbu	t2,1609(sp)
   12f3c:	64a14803          	lbu	a6,1610(sp)
   12f40:	64b14883          	lbu	a7,1611(sp)
   12f44:	64c14283          	lbu	t0,1612(sp)
   12f48:	64d14f03          	lbu	t5,1613(sp)
   12f4c:	64e14f83          	lbu	t6,1614(sp)
   12f50:	64f14483          	lbu	s1,1615(sp)
   12f54:	65014e83          	lbu	t4,1616(sp)
   12f58:	65114783          	lbu	a5,1617(sp)
   12f5c:	65214403          	lbu	s0,1618(sp)
   12f60:	65300513          	li	a0,1619
   12f64:	0622                	slli	a2,a2,0x8
   12f66:	8e4d                	or	a2,a2,a1
   12f68:	458d                	li	a1,3
   12f6a:	0ec11823          	sh	a2,240(sp)
   12f6e:	0ed10923          	sb	a3,242(sp)
   12f72:	4601                	li	a2,0
   12f74:	4681                	li	a3,0
   12f76:	00000073          	ecall
   12f7a:	4711                	li	a4,4
   12f7c:	65300513          	li	a0,1619
   12f80:	4595                	li	a1,5
   12f82:	4601                	li	a2,0
   12f84:	4681                	li	a3,0
   12f86:	00000073          	ecall
   12f8a:	64f108a3          	sb	a5,1617(sp)
   12f8e:	64810923          	sb	s0,1618(sp)
   12f92:	0f011503          	lh	a0,240(sp)
   12f96:	0f214583          	lbu	a1,242(sp)
   12f9a:	65e106a3          	sb	t5,1613(sp)
   12f9e:	65f10723          	sb	t6,1614(sp)
   12fa2:	649107a3          	sb	s1,1615(sp)
   12fa6:	65d10823          	sb	t4,1616(sp)
   12faa:	64a11223          	sh	a0,1604(sp)
   12fae:	64b10323          	sb	a1,1606(sp)
   12fb2:	646103a3          	sb	t1,1607(sp)
   12fb6:	65c10423          	sb	t3,1608(sp)
   12fba:	647104a3          	sb	t2,1609(sp)
   12fbe:	65010523          	sb	a6,1610(sp)
   12fc2:	651105a3          	sb	a7,1611(sp)
   12fc6:	64510623          	sb	t0,1612(sp)
   12fca:	6a810513          	addi	a0,sp,1704
   12fce:	464d                	li	a2,19
   12fd0:	4581                	li	a1,0
   12fd2:	00005097          	auipc	ra,0x5
   12fd6:	de6080e7          	jalr	-538(ra) # 17db8 <memset>
   12fda:	6509                	lui	a0,0x2
   12fdc:	458d                	li	a1,3
   12fde:	64410613          	addi	a2,sp,1604
   12fe2:	e4b50493          	addi	s1,a0,-437 # 1e4b <.Lline_table_start1+0x1c20>
   12fe6:	46bd                	li	a3,15
   12fe8:	8526                	mv	a0,s1
   12fea:	ffffe097          	auipc	ra,0xffffe
   12fee:	14a080e7          	jalr	330(ra) # 11134 <_ZN9allow_pin10no_dynamic11allow_inner17h151634b71b3fc351E>
   12ff2:	8905                	andi	a0,a0,1
   12ff4:	e905                	bnez	a0,13024 <_start+0x1ec6>
   12ff6:	6a810613          	addi	a2,sp,1704
   12ffa:	46cd                	li	a3,19
   12ffc:	8526                	mv	a0,s1
   12ffe:	4581                	li	a1,0
   13000:	ffffe097          	auipc	ra,0xffffe
   13004:	142080e7          	jalr	322(ra) # 11142 <_ZN9allow_pin10no_dynamic11allow_inner17ha2b744c817d78427E>
   13008:	8905                	andi	a0,a0,1
   1300a:	ed09                	bnez	a0,13024 <_start+0x1ec6>
   1300c:	6509                	lui	a0,0x2
   1300e:	e4b50993          	addi	s3,a0,-437 # 1e4b <.Lline_table_start1+0x1c20>
   13012:	458d                	li	a1,3
   13014:	854e                	mv	a0,s3
   13016:	4601                	li	a2,0
   13018:	ffffe097          	auipc	ra,0xffffe
   1301c:	138080e7          	jalr	312(ra) # 11150 <_ZN9allow_pin7command17h1eb46760111c3605E>
   13020:	8905                	andi	a0,a0,1
   13022:	c105                	beqz	a0,13042 <_start+0x1ee4>
   13024:	87ae                	mv	a5,a1
   13026:	00005297          	auipc	t0,0x5
   1302a:	c00282e7          	jalr	t0,-1024(t0) # 17c26 <OUTLINED_FUNCTION_33>
   1302e:	00000073          	ecall
   13032:	00005297          	auipc	t0,0x5
   13036:	c32282e7          	jalr	t0,-974(t0) # 17c64 <OUTLINED_FUNCTION_37>
   1303a:	00000073          	ecall
   1303e:	9d2fe06f          	j	11210 <_start+0xb2>
   13042:	854e                	mv	a0,s3
   13044:	4581                	li	a1,0
   13046:	4601                	li	a2,0
   13048:	4681                	li	a3,0
   1304a:	470d                	li	a4,3
   1304c:	00000073          	ecall
   13050:	854e                	mv	a0,s3
   13052:	4581                	li	a1,0
   13054:	4601                	li	a2,0
   13056:	4681                	li	a3,0
   13058:	470d                	li	a4,3
   1305a:	00000073          	ecall
   1305e:	854e                	mv	a0,s3
   13060:	4581                	li	a1,0
   13062:	4601                	li	a2,0
   13064:	4681                	li	a3,0
   13066:	6a814e03          	lbu	t3,1704(sp)
   1306a:	6a914483          	lbu	s1,1705(sp)
   1306e:	6aa14383          	lbu	t2,1706(sp)
   13072:	6ab14803          	lbu	a6,1707(sp)
   13076:	6ac14883          	lbu	a7,1708(sp)
   1307a:	6ad14283          	lbu	t0,1709(sp)
   1307e:	6ae14303          	lbu	t1,1710(sp)
   13082:	6af14703          	lbu	a4,1711(sp)
   13086:	6b014783          	lbu	a5,1712(sp)
   1308a:	6b114e83          	lbu	t4,1713(sp)
   1308e:	6b214f03          	lbu	t5,1714(sp)
   13092:	6b314f83          	lbu	t6,1715(sp)
   13096:	04a2                	slli	s1,s1,0x8
   13098:	07a2                	slli	a5,a5,0x8
   1309a:	01c4e933          	or	s2,s1,t3
   1309e:	00e7ee33          	or	t3,a5,a4
   130a2:	6b414783          	lbu	a5,1716(sp)
   130a6:	6b514703          	lbu	a4,1717(sp)
   130aa:	6b614483          	lbu	s1,1718(sp)
   130ae:	6b714a03          	lbu	s4,1719(sp)
   130b2:	0ec2                	slli	t4,t4,0x10
   130b4:	0f62                	slli	t5,t5,0x18
   130b6:	07a2                	slli	a5,a5,0x8
   130b8:	0742                	slli	a4,a4,0x10
   130ba:	04e2                	slli	s1,s1,0x18
   130bc:	01df6eb3          	or	t4,t5,t4
   130c0:	01f7ef33          	or	t5,a5,t6
   130c4:	6b814783          	lbu	a5,1720(sp)
   130c8:	8f45                	or	a4,a4,s1
   130ca:	6b914483          	lbu	s1,1721(sp)
   130ce:	6ba14403          	lbu	s0,1722(sp)
   130d2:	07a2                	slli	a5,a5,0x8
   130d4:	0147e7b3          	or	a5,a5,s4
   130d8:	04c2                	slli	s1,s1,0x10
   130da:	0462                	slli	s0,s0,0x18
   130dc:	8c45                	or	s0,s0,s1
   130de:	11211023          	sh	s2,256(sp)
   130e2:	10710123          	sb	t2,258(sp)
   130e6:	01cee4b3          	or	s1,t4,t3
   130ea:	01e76733          	or	a4,a4,t5
   130ee:	8fc1                	or	a5,a5,s0
   130f0:	dba6                	sw	s1,244(sp)
   130f2:	ddba                	sw	a4,248(sp)
   130f4:	dfbe                	sw	a5,252(sp)
   130f6:	470d                	li	a4,3
   130f8:	00000073          	ecall
   130fc:	4711                	li	a4,4
   130fe:	458d                	li	a1,3
   13100:	854e                	mv	a0,s3
   13102:	4601                	li	a2,0
   13104:	4681                	li	a3,0
   13106:	00000073          	ecall
   1310a:	10011503          	lh	a0,256(sp)
   1310e:	10214583          	lbu	a1,258(sp)
   13112:	5e5108a3          	sb	t0,1521(sp)
   13116:	5e610923          	sb	t1,1522(sp)
   1311a:	5ea11623          	sh	a0,1516(sp)
   1311e:	5eb10723          	sb	a1,1518(sp)
   13122:	5f0107a3          	sb	a6,1519(sp)
   13126:	5f110823          	sb	a7,1520(sp)
   1312a:	5f310513          	addi	a0,sp,1523
   1312e:	19cc                	addi	a1,sp,244
   13130:	4631                	li	a2,12
   13132:	00005097          	auipc	ra,0x5
   13136:	cf2080e7          	jalr	-782(ra) # 17e24 <memcpy>
   1313a:	6a810513          	addi	a0,sp,1704
   1313e:	05500613          	li	a2,85
   13142:	4581                	li	a1,0
   13144:	00005097          	auipc	ra,0x5
   13148:	c74080e7          	jalr	-908(ra) # 17db8 <memset>
   1314c:	32e00513          	li	a0,814
   13150:	45a5                	li	a1,9
   13152:	5ec10613          	addi	a2,sp,1516
   13156:	46cd                	li	a3,19
   13158:	ffffe097          	auipc	ra,0xffffe
   1315c:	fdc080e7          	jalr	-36(ra) # 11134 <_ZN9allow_pin10no_dynamic11allow_inner17h151634b71b3fc351E>
   13160:	8905                	andi	a0,a0,1
   13162:	e905                	bnez	a0,13192 <_start+0x2034>
   13164:	32e00513          	li	a0,814
   13168:	459d                	li	a1,7
   1316a:	6a810613          	addi	a2,sp,1704
   1316e:	05500693          	li	a3,85
   13172:	ffffe097          	auipc	ra,0xffffe
   13176:	fd0080e7          	jalr	-48(ra) # 11142 <_ZN9allow_pin10no_dynamic11allow_inner17ha2b744c817d78427E>
   1317a:	8905                	andi	a0,a0,1
   1317c:	e919                	bnez	a0,13192 <_start+0x2034>
   1317e:	32e00513          	li	a0,814
   13182:	45a5                	li	a1,9
   13184:	461d                	li	a2,7
   13186:	ffffe097          	auipc	ra,0xffffe
   1318a:	fca080e7          	jalr	-54(ra) # 11150 <_ZN9allow_pin7command17h1eb46760111c3605E>
   1318e:	8905                	andi	a0,a0,1
   13190:	c505                	beqz	a0,131b8 <_start+0x205a>
   13192:	87ae                	mv	a5,a1
   13194:	4601                	li	a2,0
   13196:	4681                	li	a3,0
   13198:	32e00513          	li	a0,814
   1319c:	459d                	li	a1,7
   1319e:	470d                	li	a4,3
   131a0:	00000073          	ecall
   131a4:	32e00513          	li	a0,814
   131a8:	45a5                	li	a1,9
   131aa:	4711                	li	a4,4
   131ac:	4601                	li	a2,0
   131ae:	4681                	li	a3,0
   131b0:	00000073          	ecall
   131b4:	85cfe06f          	j	11210 <_start+0xb2>
   131b8:	4601                	li	a2,0
   131ba:	4681                	li	a3,0
   131bc:	32e00513          	li	a0,814
   131c0:	459d                	li	a1,7
   131c2:	470d                	li	a4,3
   131c4:	00000073          	ecall
   131c8:	470d                	li	a4,3
   131ca:	32e00513          	li	a0,814
   131ce:	459d                	li	a1,7
   131d0:	4601                	li	a2,0
   131d2:	4681                	li	a3,0
   131d4:	00000073          	ecall
   131d8:	00004297          	auipc	t0,0x4
   131dc:	75a282e7          	jalr	t0,1882(t0) # 17932 <OUTLINED_FUNCTION_2>
   131e0:	6ae14483          	lbu	s1,1710(sp)
   131e4:	10a11223          	sh	a0,260(sp)
   131e8:	10c10323          	sb	a2,262(sp)
   131ec:	6af10593          	addi	a1,sp,1711
   131f0:	64410513          	addi	a0,sp,1604
   131f4:	04e00613          	li	a2,78
   131f8:	00005097          	auipc	ra,0x5
   131fc:	c2c080e7          	jalr	-980(ra) # 17e24 <memcpy>
   13200:	4601                	li	a2,0
   13202:	4681                	li	a3,0
   13204:	32e00513          	li	a0,814
   13208:	459d                	li	a1,7
   1320a:	470d                	li	a4,3
   1320c:	00000073          	ecall
   13210:	32e00513          	li	a0,814
   13214:	45a5                	li	a1,9
   13216:	4711                	li	a4,4
   13218:	4601                	li	a2,0
   1321a:	4681                	li	a3,0
   1321c:	00000073          	ecall
   13220:	6af10513          	addi	a0,sp,1711
   13224:	64410593          	addi	a1,sp,1604
   13228:	04e00613          	li	a2,78
   1322c:	00005097          	auipc	ra,0x5
   13230:	bf8080e7          	jalr	-1032(ra) # 17e24 <memcpy>
   13234:	10411503          	lh	a0,260(sp)
   13238:	10614583          	lbu	a1,262(sp)
   1323c:	00004297          	auipc	t0,0x4
   13240:	78c282e7          	jalr	t0,1932(t0) # 179c8 <OUTLINED_FUNCTION_7>
   13244:	03200613          	li	a2,50
   13248:	4581                	li	a1,0
   1324a:	00005097          	auipc	ra,0x5
   1324e:	b6e080e7          	jalr	-1170(ra) # 17db8 <memset>
   13252:	6509                	lui	a0,0x2
   13254:	45a1                	li	a1,8
   13256:	6a810613          	addi	a2,sp,1704
   1325a:	09550413          	addi	s0,a0,149 # 2095 <.Lline_table_start1+0x1e6a>
   1325e:	05500693          	li	a3,85
   13262:	8522                	mv	a0,s0
   13264:	ffffe097          	auipc	ra,0xffffe
   13268:	ed0080e7          	jalr	-304(ra) # 11134 <_ZN9allow_pin10no_dynamic11allow_inner17h151634b71b3fc351E>
   1326c:	8905                	andi	a0,a0,1
   1326e:	e90d                	bnez	a0,132a0 <_start+0x2142>
   13270:	45a1                	li	a1,8
   13272:	64410613          	addi	a2,sp,1604
   13276:	03200693          	li	a3,50
   1327a:	8522                	mv	a0,s0
   1327c:	ffffe097          	auipc	ra,0xffffe
   13280:	ec6080e7          	jalr	-314(ra) # 11142 <_ZN9allow_pin10no_dynamic11allow_inner17ha2b744c817d78427E>
   13284:	8905                	andi	a0,a0,1
   13286:	ed09                	bnez	a0,132a0 <_start+0x2142>
   13288:	6509                	lui	a0,0x2
   1328a:	45a1                	li	a1,8
   1328c:	09550493          	addi	s1,a0,149 # 2095 <.Lline_table_start1+0x1e6a>
   13290:	4621                	li	a2,8
   13292:	8526                	mv	a0,s1
   13294:	ffffe097          	auipc	ra,0xffffe
   13298:	ebc080e7          	jalr	-324(ra) # 11150 <_ZN9allow_pin7command17h1eb46760111c3605E>
   1329c:	8905                	andi	a0,a0,1
   1329e:	c105                	beqz	a0,132be <_start+0x2160>
   132a0:	00005297          	auipc	t0,0x5
   132a4:	960282e7          	jalr	t0,-1696(t0) # 17c00 <OUTLINED_FUNCTION_30>
   132a8:	00000073          	ecall
   132ac:	45a1                	li	a1,8
   132ae:	4711                	li	a4,4
   132b0:	8522                	mv	a0,s0
   132b2:	4601                	li	a2,0
   132b4:	4681                	li	a3,0
   132b6:	00000073          	ecall
   132ba:	f57fd06f          	j	11210 <_start+0xb2>
   132be:	00005297          	auipc	t0,0x5
   132c2:	99a282e7          	jalr	t0,-1638(t0) # 17c58 <OUTLINED_FUNCTION_36>
   132c6:	00000073          	ecall
   132ca:	00005297          	auipc	t0,0x5
   132ce:	ad6282e7          	jalr	t0,-1322(t0) # 17da0 <OUTLINED_FUNCTION_61>
   132d2:	00000073          	ecall
   132d6:	00004297          	auipc	t0,0x4
   132da:	61c282e7          	jalr	t0,1564(t0) # 178f2 <OUTLINED_FUNCTION_0>
   132de:	10a11423          	sh	a0,264(sp)
   132e2:	10c10523          	sb	a2,266(sp)
   132e6:	64b10593          	addi	a1,sp,1611
   132ea:	52c10513          	addi	a0,sp,1324
   132ee:	02b00613          	li	a2,43
   132f2:	00005097          	auipc	ra,0x5
   132f6:	b32080e7          	jalr	-1230(ra) # 17e24 <memcpy>
   132fa:	00005297          	auipc	t0,0x5
   132fe:	95e282e7          	jalr	t0,-1698(t0) # 17c58 <OUTLINED_FUNCTION_36>
   13302:	00000073          	ecall
   13306:	00005297          	auipc	t0,0x5
   1330a:	a5e282e7          	jalr	t0,-1442(t0) # 17d64 <OUTLINED_FUNCTION_56>
   1330e:	00000073          	ecall
   13312:	5f310513          	addi	a0,sp,1523
   13316:	52c10593          	addi	a1,sp,1324
   1331a:	02b00613          	li	a2,43
   1331e:	00005097          	auipc	ra,0x5
   13322:	b06080e7          	jalr	-1274(ra) # 17e24 <memcpy>
   13326:	10811503          	lh	a0,264(sp)
   1332a:	10a14583          	lbu	a1,266(sp)
   1332e:	00004297          	auipc	t0,0x4
   13332:	772282e7          	jalr	t0,1906(t0) # 17aa0 <OUTLINED_FUNCTION_15>
   13336:	04100613          	li	a2,65
   1333a:	4581                	li	a1,0
   1333c:	00005097          	auipc	ra,0x5
   13340:	a7c080e7          	jalr	-1412(ra) # 17db8 <memset>
   13344:	6505                	lui	a0,0x1
   13346:	459d                	li	a1,7
   13348:	5ec10613          	addi	a2,sp,1516
   1334c:	91d50413          	addi	s0,a0,-1763 # 91d <.Lline_table_start1+0x6f2>
   13350:	03200693          	li	a3,50
   13354:	8522                	mv	a0,s0
   13356:	ffffe097          	auipc	ra,0xffffe
   1335a:	dde080e7          	jalr	-546(ra) # 11134 <_ZN9allow_pin10no_dynamic11allow_inner17h151634b71b3fc351E>
   1335e:	8905                	andi	a0,a0,1
   13360:	e90d                	bnez	a0,13392 <_start+0x2234>
   13362:	4595                	li	a1,5
   13364:	6a810613          	addi	a2,sp,1704
   13368:	04100693          	li	a3,65
   1336c:	8522                	mv	a0,s0
   1336e:	ffffe097          	auipc	ra,0xffffe
   13372:	dd4080e7          	jalr	-556(ra) # 11142 <_ZN9allow_pin10no_dynamic11allow_inner17ha2b744c817d78427E>
   13376:	8905                	andi	a0,a0,1
   13378:	ed09                	bnez	a0,13392 <_start+0x2234>
   1337a:	6505                	lui	a0,0x1
   1337c:	459d                	li	a1,7
   1337e:	91d50493          	addi	s1,a0,-1763 # 91d <.Lline_table_start1+0x6f2>
   13382:	4615                	li	a2,5
   13384:	8526                	mv	a0,s1
   13386:	ffffe097          	auipc	ra,0xffffe
   1338a:	dca080e7          	jalr	-566(ra) # 11150 <_ZN9allow_pin7command17h1eb46760111c3605E>
   1338e:	8905                	andi	a0,a0,1
   13390:	c105                	beqz	a0,133b0 <_start+0x2252>
   13392:	87ae                	mv	a5,a1
   13394:	00005297          	auipc	t0,0x5
   13398:	9f4282e7          	jalr	t0,-1548(t0) # 17d88 <OUTLINED_FUNCTION_59>
   1339c:	00000073          	ecall
   133a0:	00005297          	auipc	t0,0x5
   133a4:	924282e7          	jalr	t0,-1756(t0) # 17cc4 <OUTLINED_FUNCTION_45>
   133a8:	00000073          	ecall
   133ac:	e65fd06f          	j	11210 <_start+0xb2>
   133b0:	00005297          	auipc	t0,0x5
   133b4:	8d8282e7          	jalr	t0,-1832(t0) # 17c88 <OUTLINED_FUNCTION_40>
   133b8:	00000073          	ecall
   133bc:	470d                	li	a4,3
   133be:	4595                	li	a1,5
   133c0:	8526                	mv	a0,s1
   133c2:	4601                	li	a2,0
   133c4:	4681                	li	a3,0
   133c6:	00000073          	ecall
   133ca:	00004297          	auipc	t0,0x4
   133ce:	568282e7          	jalr	t0,1384(t0) # 17932 <OUTLINED_FUNCTION_2>
   133d2:	6ae14a03          	lbu	s4,1710(sp)
   133d6:	10a11623          	sh	a0,268(sp)
   133da:	10c10723          	sb	a2,270(sp)
   133de:	6af10593          	addi	a1,sp,1711
   133e2:	64410513          	addi	a0,sp,1604
   133e6:	03a00613          	li	a2,58
   133ea:	00005097          	auipc	ra,0x5
   133ee:	a3a080e7          	jalr	-1478(ra) # 17e24 <memcpy>
   133f2:	00005297          	auipc	t0,0x5
   133f6:	896282e7          	jalr	t0,-1898(t0) # 17c88 <OUTLINED_FUNCTION_40>
   133fa:	00000073          	ecall
   133fe:	00005297          	auipc	t0,0x5
   13402:	87e282e7          	jalr	t0,-1922(t0) # 17c7c <OUTLINED_FUNCTION_39>
   13406:	00000073          	ecall
   1340a:	6af10513          	addi	a0,sp,1711
   1340e:	64410593          	addi	a1,sp,1604
   13412:	03a00613          	li	a2,58
   13416:	00005097          	auipc	ra,0x5
   1341a:	a0e080e7          	jalr	-1522(ra) # 17e24 <memcpy>
   1341e:	10c11503          	lh	a0,268(sp)
   13422:	10e14583          	lbu	a1,270(sp)
   13426:	00004297          	auipc	t0,0x4
   1342a:	5c0282e7          	jalr	t0,1472(t0) # 179e6 <OUTLINED_FUNCTION_8>
   1342e:	02200613          	li	a2,34
   13432:	4581                	li	a1,0
   13434:	00005097          	auipc	ra,0x5
   13438:	984080e7          	jalr	-1660(ra) # 17db8 <memset>
   1343c:	6509                	lui	a0,0x2
   1343e:	4585                	li	a1,1
   13440:	6a810613          	addi	a2,sp,1704
   13444:	47c50913          	addi	s2,a0,1148 # 247c <.Lline_table_start1+0x2251>
   13448:	04100693          	li	a3,65
   1344c:	4405                	li	s0,1
   1344e:	854a                	mv	a0,s2
   13450:	ffffe097          	auipc	ra,0xffffe
   13454:	ce4080e7          	jalr	-796(ra) # 11134 <_ZN9allow_pin10no_dynamic11allow_inner17h151634b71b3fc351E>
   13458:	8905                	andi	a0,a0,1
   1345a:	e90d                	bnez	a0,1348c <_start+0x232e>
   1345c:	64410613          	addi	a2,sp,1604
   13460:	02200693          	li	a3,34
   13464:	854a                	mv	a0,s2
   13466:	4581                	li	a1,0
   13468:	ffffe097          	auipc	ra,0xffffe
   1346c:	cda080e7          	jalr	-806(ra) # 11142 <_ZN9allow_pin10no_dynamic11allow_inner17ha2b744c817d78427E>
   13470:	8905                	andi	a0,a0,1
   13472:	ed09                	bnez	a0,1348c <_start+0x232e>
   13474:	6509                	lui	a0,0x2
   13476:	47c50493          	addi	s1,a0,1148 # 247c <.Lline_table_start1+0x2251>
   1347a:	4585                	li	a1,1
   1347c:	8526                	mv	a0,s1
   1347e:	4601                	li	a2,0
   13480:	ffffe097          	auipc	ra,0xffffe
   13484:	cd0080e7          	jalr	-816(ra) # 11150 <_ZN9allow_pin7command17h1eb46760111c3605E>
   13488:	8905                	andi	a0,a0,1
   1348a:	c115                	beqz	a0,134ae <_start+0x2350>
   1348c:	87ae                	mv	a5,a1
   1348e:	854a                	mv	a0,s2
   13490:	4581                	li	a1,0
   13492:	4601                	li	a2,0
   13494:	4681                	li	a3,0
   13496:	470d                	li	a4,3
   13498:	00000073          	ecall
   1349c:	4585                	li	a1,1
   1349e:	4711                	li	a4,4
   134a0:	854a                	mv	a0,s2
   134a2:	4601                	li	a2,0
   134a4:	4681                	li	a3,0
   134a6:	00000073          	ecall
   134aa:	d69fd06f          	j	11212 <_start+0xb4>
   134ae:	00004297          	auipc	t0,0x4
   134b2:	778282e7          	jalr	t0,1912(t0) # 17c26 <OUTLINED_FUNCTION_33>
   134b6:	00000073          	ecall
   134ba:	00004297          	auipc	t0,0x4
   134be:	76c282e7          	jalr	t0,1900(t0) # 17c26 <OUTLINED_FUNCTION_33>
   134c2:	00000073          	ecall
   134c6:	00004297          	auipc	t0,0x4
   134ca:	4c6282e7          	jalr	t0,1222(t0) # 1798c <OUTLINED_FUNCTION_5>
   134ce:	64914a03          	lbu	s4,1609(sp)
   134d2:	64a14a83          	lbu	s5,1610(sp)
   134d6:	10a11823          	sh	a0,272(sp)
   134da:	10c10923          	sb	a2,274(sp)
   134de:	64b10593          	addi	a1,sp,1611
   134e2:	52c10513          	addi	a0,sp,1324
   134e6:	466d                	li	a2,27
   134e8:	00005097          	auipc	ra,0x5
   134ec:	93c080e7          	jalr	-1732(ra) # 17e24 <memcpy>
   134f0:	00004297          	auipc	t0,0x4
   134f4:	736282e7          	jalr	t0,1846(t0) # 17c26 <OUTLINED_FUNCTION_33>
   134f8:	00000073          	ecall
   134fc:	4585                	li	a1,1
   134fe:	4711                	li	a4,4
   13500:	8526                	mv	a0,s1
   13502:	4601                	li	a2,0
   13504:	4681                	li	a3,0
   13506:	00000073          	ecall
   1350a:	4405                	li	s0,1
   1350c:	5f310513          	addi	a0,sp,1523
   13510:	52c10593          	addi	a1,sp,1324
   13514:	466d                	li	a2,27
   13516:	00005097          	auipc	ra,0x5
   1351a:	90e080e7          	jalr	-1778(ra) # 17e24 <memcpy>
   1351e:	11011503          	lh	a0,272(sp)
   13522:	11214583          	lbu	a1,274(sp)
   13526:	5f4108a3          	sb	s4,1521(sp)
   1352a:	5f510923          	sb	s5,1522(sp)
   1352e:	00004297          	auipc	t0,0x4
   13532:	602282e7          	jalr	t0,1538(t0) # 17b30 <OUTLINED_FUNCTION_21>
   13536:	05100613          	li	a2,81
   1353a:	4581                	li	a1,0
   1353c:	00005097          	auipc	ra,0x5
   13540:	87c080e7          	jalr	-1924(ra) # 17db8 <memset>
   13544:	55e00513          	li	a0,1374
   13548:	45a5                	li	a1,9
   1354a:	5ec10613          	addi	a2,sp,1516
   1354e:	02200693          	li	a3,34
   13552:	ffffe097          	auipc	ra,0xffffe
   13556:	be2080e7          	jalr	-1054(ra) # 11134 <_ZN9allow_pin10no_dynamic11allow_inner17h151634b71b3fc351E>
   1355a:	8905                	andi	a0,a0,1
   1355c:	e905                	bnez	a0,1358c <_start+0x242e>
   1355e:	55e00513          	li	a0,1374
   13562:	45a5                	li	a1,9
   13564:	6a810613          	addi	a2,sp,1704
   13568:	05100693          	li	a3,81
   1356c:	ffffe097          	auipc	ra,0xffffe
   13570:	bd6080e7          	jalr	-1066(ra) # 11142 <_ZN9allow_pin10no_dynamic11allow_inner17ha2b744c817d78427E>
   13574:	8905                	andi	a0,a0,1
   13576:	e919                	bnez	a0,1358c <_start+0x242e>
   13578:	55e00513          	li	a0,1374
   1357c:	45a5                	li	a1,9
   1357e:	4625                	li	a2,9
   13580:	ffffe097          	auipc	ra,0xffffe
   13584:	bd0080e7          	jalr	-1072(ra) # 11150 <_ZN9allow_pin7command17h1eb46760111c3605E>
   13588:	8905                	andi	a0,a0,1
   1358a:	c505                	beqz	a0,135b2 <_start+0x2454>
   1358c:	87ae                	mv	a5,a1
   1358e:	4601                	li	a2,0
   13590:	4681                	li	a3,0
   13592:	55e00513          	li	a0,1374
   13596:	45a5                	li	a1,9
   13598:	470d                	li	a4,3
   1359a:	00000073          	ecall
   1359e:	55e00513          	li	a0,1374
   135a2:	45a5                	li	a1,9
   135a4:	4711                	li	a4,4
   135a6:	4601                	li	a2,0
   135a8:	4681                	li	a3,0
   135aa:	00000073          	ecall
   135ae:	c65fd06f          	j	11212 <_start+0xb4>
   135b2:	4601                	li	a2,0
   135b4:	4681                	li	a3,0
   135b6:	55e00513          	li	a0,1374
   135ba:	45a5                	li	a1,9
   135bc:	470d                	li	a4,3
   135be:	00000073          	ecall
   135c2:	470d                	li	a4,3
   135c4:	55e00513          	li	a0,1374
   135c8:	45a5                	li	a1,9
   135ca:	4601                	li	a2,0
   135cc:	4681                	li	a3,0
   135ce:	00000073          	ecall
   135d2:	00004297          	auipc	t0,0x4
   135d6:	360282e7          	jalr	t0,864(t0) # 17932 <OUTLINED_FUNCTION_2>
   135da:	6ae14483          	lbu	s1,1710(sp)
   135de:	10a11a23          	sh	a0,276(sp)
   135e2:	10c10b23          	sb	a2,278(sp)
   135e6:	00004297          	auipc	t0,0x4
   135ea:	74c282e7          	jalr	t0,1868(t0) # 17d32 <OUTLINED_FUNCTION_52>
   135ee:	00005097          	auipc	ra,0x5
   135f2:	836080e7          	jalr	-1994(ra) # 17e24 <memcpy>
   135f6:	4601                	li	a2,0
   135f8:	4681                	li	a3,0
   135fa:	55e00513          	li	a0,1374
   135fe:	45a5                	li	a1,9
   13600:	470d                	li	a4,3
   13602:	00000073          	ecall
   13606:	55e00513          	li	a0,1374
   1360a:	45a5                	li	a1,9
   1360c:	4711                	li	a4,4
   1360e:	4601                	li	a2,0
   13610:	4681                	li	a3,0
   13612:	00000073          	ecall
   13616:	00004297          	auipc	t0,0x4
   1361a:	70e282e7          	jalr	t0,1806(t0) # 17d24 <OUTLINED_FUNCTION_51>
   1361e:	00005097          	auipc	ra,0x5
   13622:	806080e7          	jalr	-2042(ra) # 17e24 <memcpy>
   13626:	11411503          	lh	a0,276(sp)
   1362a:	11614583          	lbu	a1,278(sp)
   1362e:	00004297          	auipc	t0,0x4
   13632:	39a282e7          	jalr	t0,922(t0) # 179c8 <OUTLINED_FUNCTION_7>
   13636:	04f00613          	li	a2,79
   1363a:	4581                	li	a1,0
   1363c:	00004097          	auipc	ra,0x4
   13640:	77c080e7          	jalr	1916(ra) # 17db8 <memset>
   13644:	6505                	lui	a0,0x1
   13646:	4589                	li	a1,2
   13648:	6a810613          	addi	a2,sp,1704
   1364c:	e1650413          	addi	s0,a0,-490 # e16 <.Lline_table_start1+0xbeb>
   13650:	05100693          	li	a3,81
   13654:	8522                	mv	a0,s0
   13656:	ffffe097          	auipc	ra,0xffffe
   1365a:	ade080e7          	jalr	-1314(ra) # 11134 <_ZN9allow_pin10no_dynamic11allow_inner17h151634b71b3fc351E>
   1365e:	8905                	andi	a0,a0,1
   13660:	e90d                	bnez	a0,13692 <_start+0x2534>
   13662:	4591                	li	a1,4
   13664:	64410613          	addi	a2,sp,1604
   13668:	04f00693          	li	a3,79
   1366c:	8522                	mv	a0,s0
   1366e:	ffffe097          	auipc	ra,0xffffe
   13672:	ad4080e7          	jalr	-1324(ra) # 11142 <_ZN9allow_pin10no_dynamic11allow_inner17ha2b744c817d78427E>
   13676:	8905                	andi	a0,a0,1
   13678:	ed09                	bnez	a0,13692 <_start+0x2534>
   1367a:	6905                	lui	s2,0x1
   1367c:	4589                	li	a1,2
   1367e:	e1690493          	addi	s1,s2,-490 # e16 <.Lline_table_start1+0xbeb>
   13682:	4611                	li	a2,4
   13684:	8526                	mv	a0,s1
   13686:	ffffe097          	auipc	ra,0xffffe
   1368a:	aca080e7          	jalr	-1334(ra) # 11150 <_ZN9allow_pin7command17h1eb46760111c3605E>
   1368e:	8905                	andi	a0,a0,1
   13690:	c105                	beqz	a0,136b0 <_start+0x2552>
   13692:	87ae                	mv	a5,a1
   13694:	00004297          	auipc	t0,0x4
   13698:	6e8282e7          	jalr	t0,1768(t0) # 17d7c <OUTLINED_FUNCTION_58>
   1369c:	00000073          	ecall
   136a0:	00004297          	auipc	t0,0x4
   136a4:	618282e7          	jalr	t0,1560(t0) # 17cb8 <OUTLINED_FUNCTION_44>
   136a8:	00000073          	ecall
   136ac:	b65fd06f          	j	11210 <_start+0xb2>
   136b0:	8526                	mv	a0,s1
   136b2:	4601                	li	a2,0
   136b4:	4681                	li	a3,0
   136b6:	4591                	li	a1,4
   136b8:	470d                	li	a4,3
   136ba:	00000073          	ecall
   136be:	470d                	li	a4,3
   136c0:	4591                	li	a1,4
   136c2:	8526                	mv	a0,s1
   136c4:	4601                	li	a2,0
   136c6:	4681                	li	a3,0
   136c8:	00000073          	ecall
   136cc:	00004297          	auipc	t0,0x4
   136d0:	2da282e7          	jalr	t0,730(t0) # 179a6 <OUTLINED_FUNCTION_6>
   136d4:	16a11023          	sh	a0,352(sp)
   136d8:	16c10123          	sb	a2,354(sp)
   136dc:	64b10593          	addi	a1,sp,1611
   136e0:	0a28                	addi	a0,sp,280
   136e2:	04800613          	li	a2,72
   136e6:	00004097          	auipc	ra,0x4
   136ea:	73e080e7          	jalr	1854(ra) # 17e24 <memcpy>
   136ee:	8526                	mv	a0,s1
   136f0:	4601                	li	a2,0
   136f2:	4681                	li	a3,0
   136f4:	4591                	li	a1,4
   136f6:	470d                	li	a4,3
   136f8:	00000073          	ecall
   136fc:	4711                	li	a4,4
   136fe:	4589                	li	a1,2
   13700:	8526                	mv	a0,s1
   13702:	4601                	li	a2,0
   13704:	4681                	li	a3,0
   13706:	00000073          	ecall
   1370a:	16011503          	lh	a0,352(sp)
   1370e:	16214583          	lbu	a1,354(sp)
   13712:	6a8106a3          	sb	s0,1709(sp)
   13716:	00004297          	auipc	t0,0x4
   1371a:	3ee282e7          	jalr	t0,1006(t0) # 17b04 <OUTLINED_FUNCTION_19>
   1371e:	6af10513          	addi	a0,sp,1711
   13722:	0a2c                	addi	a1,sp,280
   13724:	04800613          	li	a2,72
   13728:	00004097          	auipc	ra,0x4
   1372c:	6fc080e7          	jalr	1788(ra) # 17e24 <memcpy>
   13730:	64410513          	addi	a0,sp,1604
   13734:	03b00613          	li	a2,59
   13738:	4581                	li	a1,0
   1373a:	00004097          	auipc	ra,0x4
   1373e:	67e080e7          	jalr	1662(ra) # 17db8 <memset>
   13742:	a0690513          	addi	a0,s2,-1530
   13746:	45a1                	li	a1,8
   13748:	6a810613          	addi	a2,sp,1704
   1374c:	04f00693          	li	a3,79
   13750:	ffffe097          	auipc	ra,0xffffe
   13754:	9e4080e7          	jalr	-1564(ra) # 11134 <_ZN9allow_pin10no_dynamic11allow_inner17h151634b71b3fc351E>
   13758:	8905                	andi	a0,a0,1
   1375a:	e90d                	bnez	a0,1378c <_start+0x262e>
   1375c:	6505                	lui	a0,0x1
   1375e:	4595                	li	a1,5
   13760:	64410613          	addi	a2,sp,1604
   13764:	a0650413          	addi	s0,a0,-1530 # a06 <.Lline_table_start1+0x7db>
   13768:	03b00693          	li	a3,59
   1376c:	8522                	mv	a0,s0
   1376e:	ffffe097          	auipc	ra,0xffffe
   13772:	9d4080e7          	jalr	-1580(ra) # 11142 <_ZN9allow_pin10no_dynamic11allow_inner17ha2b744c817d78427E>
   13776:	8905                	andi	a0,a0,1
   13778:	e911                	bnez	a0,1378c <_start+0x262e>
   1377a:	45a1                	li	a1,8
   1377c:	4615                	li	a2,5
   1377e:	8522                	mv	a0,s0
   13780:	ffffe097          	auipc	ra,0xffffe
   13784:	9d0080e7          	jalr	-1584(ra) # 11150 <_ZN9allow_pin7command17h1eb46760111c3605E>
   13788:	8905                	andi	a0,a0,1
   1378a:	c505                	beqz	a0,137b2 <_start+0x2654>
   1378c:	87ae                	mv	a5,a1
   1378e:	4601                	li	a2,0
   13790:	4681                	li	a3,0
   13792:	6505                	lui	a0,0x1
   13794:	4595                	li	a1,5
   13796:	a0650493          	addi	s1,a0,-1530 # a06 <.Lline_table_start1+0x7db>
   1379a:	470d                	li	a4,3
   1379c:	8526                	mv	a0,s1
   1379e:	00000073          	ecall
   137a2:	00004297          	auipc	t0,0x4
   137a6:	5c2282e7          	jalr	t0,1474(t0) # 17d64 <OUTLINED_FUNCTION_56>
   137aa:	00000073          	ecall
   137ae:	a63fd06f          	j	11210 <_start+0xb2>
   137b2:	4601                	li	a2,0
   137b4:	4681                	li	a3,0
   137b6:	6905                	lui	s2,0x1
   137b8:	4595                	li	a1,5
   137ba:	a0690413          	addi	s0,s2,-1530 # a06 <.Lline_table_start1+0x7db>
   137be:	470d                	li	a4,3
   137c0:	8522                	mv	a0,s0
   137c2:	00000073          	ecall
   137c6:	470d                	li	a4,3
   137c8:	4595                	li	a1,5
   137ca:	8522                	mv	a0,s0
   137cc:	4601                	li	a2,0
   137ce:	4681                	li	a3,0
   137d0:	00000073          	ecall
   137d4:	00004297          	auipc	t0,0x4
   137d8:	264282e7          	jalr	t0,612(t0) # 17a38 <OUTLINED_FUNCTION_11>
   137dc:	64914483          	lbu	s1,1609(sp)
   137e0:	64a14a83          	lbu	s5,1610(sp)
   137e4:	18a11c23          	sh	a0,408(sp)
   137e8:	18c10d23          	sb	a2,410(sp)
   137ec:	64b10593          	addi	a1,sp,1611
   137f0:	12c8                	addi	a0,sp,356
   137f2:	03400613          	li	a2,52
   137f6:	00004097          	auipc	ra,0x4
   137fa:	62e080e7          	jalr	1582(ra) # 17e24 <memcpy>
   137fe:	00004297          	auipc	t0,0x4
   13802:	58a282e7          	jalr	t0,1418(t0) # 17d88 <OUTLINED_FUNCTION_59>
   13806:	00000073          	ecall
   1380a:	4711                	li	a4,4
   1380c:	45a1                	li	a1,8
   1380e:	8522                	mv	a0,s0
   13810:	4601                	li	a2,0
   13812:	4681                	li	a3,0
   13814:	00000073          	ecall
   13818:	19811503          	lh	a0,408(sp)
   1381c:	19a14583          	lbu	a1,410(sp)
   13820:	00004297          	auipc	t0,0x4
   13824:	1fe282e7          	jalr	t0,510(t0) # 17a1e <OUTLINED_FUNCTION_10>
   13828:	6af10513          	addi	a0,sp,1711
   1382c:	12cc                	addi	a1,sp,356
   1382e:	03400613          	li	a2,52
   13832:	00004097          	auipc	ra,0x4
   13836:	5f2080e7          	jalr	1522(ra) # 17e24 <memcpy>
   1383a:	64410513          	addi	a0,sp,1604
   1383e:	02700613          	li	a2,39
   13842:	4581                	li	a1,0
   13844:	00004097          	auipc	ra,0x4
   13848:	574080e7          	jalr	1396(ra) # 17db8 <memset>
   1384c:	bd390413          	addi	s0,s2,-1069
   13850:	4595                	li	a1,5
   13852:	6a810613          	addi	a2,sp,1704
   13856:	03b00693          	li	a3,59
   1385a:	8522                	mv	a0,s0
   1385c:	ffffe097          	auipc	ra,0xffffe
   13860:	8d8080e7          	jalr	-1832(ra) # 11134 <_ZN9allow_pin10no_dynamic11allow_inner17h151634b71b3fc351E>
   13864:	8905                	andi	a0,a0,1
   13866:	e90d                	bnez	a0,13898 <_start+0x273a>
   13868:	458d                	li	a1,3
   1386a:	64410613          	addi	a2,sp,1604
   1386e:	02700693          	li	a3,39
   13872:	8522                	mv	a0,s0
   13874:	ffffe097          	auipc	ra,0xffffe
   13878:	8ce080e7          	jalr	-1842(ra) # 11142 <_ZN9allow_pin10no_dynamic11allow_inner17ha2b744c817d78427E>
   1387c:	8905                	andi	a0,a0,1
   1387e:	ed09                	bnez	a0,13898 <_start+0x273a>
   13880:	6505                	lui	a0,0x1
   13882:	4595                	li	a1,5
   13884:	bd350493          	addi	s1,a0,-1069 # bd3 <.Lline_table_start1+0x9a8>
   13888:	460d                	li	a2,3
   1388a:	8526                	mv	a0,s1
   1388c:	ffffe097          	auipc	ra,0xffffe
   13890:	8c4080e7          	jalr	-1852(ra) # 11150 <_ZN9allow_pin7command17h1eb46760111c3605E>
   13894:	8905                	andi	a0,a0,1
   13896:	c105                	beqz	a0,138b6 <_start+0x2758>
   13898:	00004297          	auipc	t0,0x4
   1389c:	35a282e7          	jalr	t0,858(t0) # 17bf2 <OUTLINED_FUNCTION_29>
   138a0:	00000073          	ecall
   138a4:	4595                	li	a1,5
   138a6:	4711                	li	a4,4
   138a8:	8522                	mv	a0,s0
   138aa:	4601                	li	a2,0
   138ac:	4681                	li	a3,0
   138ae:	00000073          	ecall
   138b2:	95ffd06f          	j	11210 <_start+0xb2>
   138b6:	00004297          	auipc	t0,0x4
   138ba:	364282e7          	jalr	t0,868(t0) # 17c1a <OUTLINED_FUNCTION_32>
   138be:	00000073          	ecall
   138c2:	00004297          	auipc	t0,0x4
   138c6:	3d2282e7          	jalr	t0,978(t0) # 17c94 <OUTLINED_FUNCTION_41>
   138ca:	00000073          	ecall
   138ce:	00004297          	auipc	t0,0x4
   138d2:	024282e7          	jalr	t0,36(t0) # 178f2 <OUTLINED_FUNCTION_0>
   138d6:	1aa11e23          	sh	a0,444(sp)
   138da:	1ac10f23          	sb	a2,446(sp)
   138de:	64b10593          	addi	a1,sp,1611
   138e2:	0b68                	addi	a0,sp,412
   138e4:	02000613          	li	a2,32
   138e8:	00004097          	auipc	ra,0x4
   138ec:	53c080e7          	jalr	1340(ra) # 17e24 <memcpy>
   138f0:	00004297          	auipc	t0,0x4
   138f4:	32a282e7          	jalr	t0,810(t0) # 17c1a <OUTLINED_FUNCTION_32>
   138f8:	00000073          	ecall
   138fc:	4711                	li	a4,4
   138fe:	4595                	li	a1,5
   13900:	8526                	mv	a0,s1
   13902:	4601                	li	a2,0
   13904:	4681                	li	a3,0
   13906:	00000073          	ecall
   1390a:	1bc11503          	lh	a0,444(sp)
   1390e:	1be14583          	lbu	a1,446(sp)
   13912:	00004297          	auipc	t0,0x4
   13916:	140282e7          	jalr	t0,320(t0) # 17a52 <OUTLINED_FUNCTION_12>
   1391a:	6af10513          	addi	a0,sp,1711
   1391e:	0b6c                	addi	a1,sp,412
   13920:	02000613          	li	a2,32
   13924:	00004097          	auipc	ra,0x4
   13928:	500080e7          	jalr	1280(ra) # 17e24 <memcpy>
   1392c:	64410513          	addi	a0,sp,1604
   13930:	4651                	li	a2,20
   13932:	4581                	li	a1,0
   13934:	00004097          	auipc	ra,0x4
   13938:	484080e7          	jalr	1156(ra) # 17db8 <memset>
   1393c:	6509                	lui	a0,0x2
   1393e:	4599                	li	a1,6
   13940:	6a810613          	addi	a2,sp,1704
   13944:	2c950493          	addi	s1,a0,713 # 22c9 <.Lline_table_start1+0x209e>
   13948:	02700693          	li	a3,39
   1394c:	8526                	mv	a0,s1
   1394e:	ffffd097          	auipc	ra,0xffffd
   13952:	7e6080e7          	jalr	2022(ra) # 11134 <_ZN9allow_pin10no_dynamic11allow_inner17h151634b71b3fc351E>
   13956:	8905                	andi	a0,a0,1
   13958:	e905                	bnez	a0,13988 <_start+0x282a>
   1395a:	4595                	li	a1,5
   1395c:	64410613          	addi	a2,sp,1604
   13960:	46d1                	li	a3,20
   13962:	8526                	mv	a0,s1
   13964:	ffffd097          	auipc	ra,0xffffd
   13968:	7de080e7          	jalr	2014(ra) # 11142 <_ZN9allow_pin10no_dynamic11allow_inner17ha2b744c817d78427E>
   1396c:	8905                	andi	a0,a0,1
   1396e:	ed09                	bnez	a0,13988 <_start+0x282a>
   13970:	6909                	lui	s2,0x2
   13972:	4599                	li	a1,6
   13974:	2c990b93          	addi	s7,s2,713 # 22c9 <.Lline_table_start1+0x209e>
   13978:	4615                	li	a2,5
   1397a:	855e                	mv	a0,s7
   1397c:	ffffd097          	auipc	ra,0xffffd
   13980:	7d4080e7          	jalr	2004(ra) # 11150 <_ZN9allow_pin7command17h1eb46760111c3605E>
   13984:	8905                	andi	a0,a0,1
   13986:	c105                	beqz	a0,139a6 <_start+0x2848>
   13988:	87ae                	mv	a5,a1
   1398a:	00004297          	auipc	t0,0x4
   1398e:	2fe282e7          	jalr	t0,766(t0) # 17c88 <OUTLINED_FUNCTION_40>
   13992:	00000073          	ecall
   13996:	00004297          	auipc	t0,0x4
   1399a:	3b6282e7          	jalr	t0,950(t0) # 17d4c <OUTLINED_FUNCTION_54>
   1399e:	00000073          	ecall
   139a2:	86ffd06f          	j	11210 <_start+0xb2>
   139a6:	855e                	mv	a0,s7
   139a8:	4601                	li	a2,0
   139aa:	4681                	li	a3,0
   139ac:	4595                	li	a1,5
   139ae:	470d                	li	a4,3
   139b0:	00000073          	ecall
   139b4:	470d                	li	a4,3
   139b6:	4595                	li	a1,5
   139b8:	855e                	mv	a0,s7
   139ba:	4601                	li	a2,0
   139bc:	4681                	li	a3,0
   139be:	00000073          	ecall
   139c2:	64414583          	lbu	a1,1604(sp)
   139c6:	64514603          	lbu	a2,1605(sp)
   139ca:	64614803          	lbu	a6,1606(sp)
   139ce:	64714a03          	lbu	s4,1607(sp)
   139d2:	64814983          	lbu	s3,1608(sp)
   139d6:	64914b03          	lbu	s6,1609(sp)
   139da:	64a14a83          	lbu	s5,1610(sp)
   139de:	64b14283          	lbu	t0,1611(sp)
   139e2:	64c14303          	lbu	t1,1612(sp)
   139e6:	64d14783          	lbu	a5,1613(sp)
   139ea:	64e14483          	lbu	s1,1614(sp)
   139ee:	64f14503          	lbu	a0,1615(sp)
   139f2:	0622                	slli	a2,a2,0x8
   139f4:	00b668b3          	or	a7,a2,a1
   139f8:	65014603          	lbu	a2,1616(sp)
   139fc:	65114583          	lbu	a1,1617(sp)
   13a00:	65214683          	lbu	a3,1618(sp)
   13a04:	65314703          	lbu	a4,1619(sp)
   13a08:	0322                	slli	t1,t1,0x8
   13a0a:	07c2                	slli	a5,a5,0x10
   13a0c:	04e2                	slli	s1,s1,0x18
   13a0e:	0622                	slli	a2,a2,0x8
   13a10:	05c2                	slli	a1,a1,0x10
   13a12:	06e2                	slli	a3,a3,0x18
   13a14:	00536433          	or	s0,t1,t0
   13a18:	8fc5                	or	a5,a5,s1
   13a1a:	8d51                	or	a0,a0,a2
   13a1c:	8dd5                	or	a1,a1,a3
   13a1e:	65414603          	lbu	a2,1620(sp)
   13a22:	65514683          	lbu	a3,1621(sp)
   13a26:	65614483          	lbu	s1,1622(sp)
   13a2a:	65714283          	lbu	t0,1623(sp)
   13a2e:	0622                	slli	a2,a2,0x8
   13a30:	8e59                	or	a2,a2,a4
   13a32:	06c2                	slli	a3,a3,0x10
   13a34:	04e2                	slli	s1,s1,0x18
   13a36:	8ec5                	or	a3,a3,s1
   13a38:	1d111023          	sh	a7,448(sp)
   13a3c:	1d010123          	sb	a6,450(sp)
   13a40:	8fc1                	or	a5,a5,s0
   13a42:	8d4d                	or	a0,a0,a1
   13a44:	470d                	li	a4,3
   13a46:	8e55                	or	a2,a2,a3
   13a48:	4595                	li	a1,5
   13a4a:	58010693          	addi	a3,sp,1408
   13a4e:	d6fc                	sw	a5,108(a3)
   13a50:	daa8                	sw	a0,112(a3)
   13a52:	daf0                	sw	a2,116(a3)
   13a54:	5e510c23          	sb	t0,1528(sp)
   13a58:	855e                	mv	a0,s7
   13a5a:	4601                	li	a2,0
   13a5c:	4681                	li	a3,0
   13a5e:	00000073          	ecall
   13a62:	4599                	li	a1,6
   13a64:	4711                	li	a4,4
   13a66:	855e                	mv	a0,s7
   13a68:	4601                	li	a2,0
   13a6a:	4681                	li	a3,0
   13a6c:	00000073          	ecall
   13a70:	64b10513          	addi	a0,sp,1611
   13a74:	5ec10593          	addi	a1,sp,1516
   13a78:	4635                	li	a2,13
   13a7a:	00004097          	auipc	ra,0x4
   13a7e:	3aa080e7          	jalr	938(ra) # 17e24 <memcpy>
   13a82:	1c011503          	lh	a0,448(sp)
   13a86:	1c214583          	lbu	a1,450(sp)
   13a8a:	656104a3          	sb	s6,1609(sp)
   13a8e:	65510523          	sb	s5,1610(sp)
   13a92:	00004297          	auipc	t0,0x4
   13a96:	26c282e7          	jalr	t0,620(t0) # 17cfe <OUTLINED_FUNCTION_49>
   13a9a:	02b00613          	li	a2,43
   13a9e:	4581                	li	a1,0
   13aa0:	00004097          	auipc	ra,0x4
   13aa4:	318080e7          	jalr	792(ra) # 17db8 <memset>
   13aa8:	39f90513          	addi	a0,s2,927
   13aac:	45a1                	li	a1,8
   13aae:	64410613          	addi	a2,sp,1604
   13ab2:	46d1                	li	a3,20
   13ab4:	ffffd097          	auipc	ra,0xffffd
   13ab8:	680080e7          	jalr	1664(ra) # 11134 <_ZN9allow_pin10no_dynamic11allow_inner17h151634b71b3fc351E>
   13abc:	8905                	andi	a0,a0,1
   13abe:	e90d                	bnez	a0,13af0 <_start+0x2992>
   13ac0:	6509                	lui	a0,0x2
   13ac2:	4591                	li	a1,4
   13ac4:	6a810613          	addi	a2,sp,1704
   13ac8:	39f50413          	addi	s0,a0,927 # 239f <.Lline_table_start1+0x2174>
   13acc:	02b00693          	li	a3,43
   13ad0:	8522                	mv	a0,s0
   13ad2:	ffffd097          	auipc	ra,0xffffd
   13ad6:	670080e7          	jalr	1648(ra) # 11142 <_ZN9allow_pin10no_dynamic11allow_inner17ha2b744c817d78427E>
   13ada:	8905                	andi	a0,a0,1
   13adc:	e911                	bnez	a0,13af0 <_start+0x2992>
   13ade:	45a1                	li	a1,8
   13ae0:	4611                	li	a2,4
   13ae2:	8522                	mv	a0,s0
   13ae4:	ffffd097          	auipc	ra,0xffffd
   13ae8:	66c080e7          	jalr	1644(ra) # 11150 <_ZN9allow_pin7command17h1eb46760111c3605E>
   13aec:	8905                	andi	a0,a0,1
   13aee:	c505                	beqz	a0,13b16 <_start+0x29b8>
   13af0:	87ae                	mv	a5,a1
   13af2:	4601                	li	a2,0
   13af4:	4681                	li	a3,0
   13af6:	6509                	lui	a0,0x2
   13af8:	4591                	li	a1,4
   13afa:	39f50493          	addi	s1,a0,927 # 239f <.Lline_table_start1+0x2174>
   13afe:	470d                	li	a4,3
   13b00:	8526                	mv	a0,s1
   13b02:	00000073          	ecall
   13b06:	00004297          	auipc	t0,0x4
   13b0a:	25e282e7          	jalr	t0,606(t0) # 17d64 <OUTLINED_FUNCTION_56>
   13b0e:	00000073          	ecall
   13b12:	efefd06f          	j	11210 <_start+0xb2>
   13b16:	4601                	li	a2,0
   13b18:	4681                	li	a3,0
   13b1a:	6509                	lui	a0,0x2
   13b1c:	4591                	li	a1,4
   13b1e:	39f50413          	addi	s0,a0,927 # 239f <.Lline_table_start1+0x2174>
   13b22:	470d                	li	a4,3
   13b24:	8522                	mv	a0,s0
   13b26:	00000073          	ecall
   13b2a:	470d                	li	a4,3
   13b2c:	4591                	li	a1,4
   13b2e:	8522                	mv	a0,s0
   13b30:	4601                	li	a2,0
   13b32:	4681                	li	a3,0
   13b34:	00000073          	ecall
   13b38:	00004297          	auipc	t0,0x4
   13b3c:	e3a282e7          	jalr	t0,-454(t0) # 17972 <OUTLINED_FUNCTION_4>
   13b40:	6ad14483          	lbu	s1,1709(sp)
   13b44:	6ae14a03          	lbu	s4,1710(sp)
   13b48:	1ea11423          	sh	a0,488(sp)
   13b4c:	1ec10523          	sb	a2,490(sp)
   13b50:	6af10593          	addi	a1,sp,1711
   13b54:	03c8                	addi	a0,sp,452
   13b56:	02400613          	li	a2,36
   13b5a:	00004097          	auipc	ra,0x4
   13b5e:	2ca080e7          	jalr	714(ra) # 17e24 <memcpy>
   13b62:	00004297          	auipc	t0,0x4
   13b66:	21a282e7          	jalr	t0,538(t0) # 17d7c <OUTLINED_FUNCTION_58>
   13b6a:	00000073          	ecall
   13b6e:	4711                	li	a4,4
   13b70:	45a1                	li	a1,8
   13b72:	8522                	mv	a0,s0
   13b74:	4601                	li	a2,0
   13b76:	4681                	li	a3,0
   13b78:	00000073          	ecall
   13b7c:	1e811503          	lh	a0,488(sp)
   13b80:	1ea14583          	lbu	a1,490(sp)
   13b84:	6a9106a3          	sb	s1,1709(sp)
   13b88:	00004297          	auipc	t0,0x4
   13b8c:	f92282e7          	jalr	t0,-110(t0) # 17b1a <OUTLINED_FUNCTION_20>
   13b90:	6af10513          	addi	a0,sp,1711
   13b94:	03cc                	addi	a1,sp,452
   13b96:	02400613          	li	a2,36
   13b9a:	00004097          	auipc	ra,0x4
   13b9e:	28a080e7          	jalr	650(ra) # 17e24 <memcpy>
   13ba2:	64410513          	addi	a0,sp,1604
   13ba6:	4679                	li	a2,30
   13ba8:	4581                	li	a1,0
   13baa:	00004097          	auipc	ra,0x4
   13bae:	20e080e7          	jalr	526(ra) # 17db8 <memset>
   13bb2:	7e300513          	li	a0,2019
   13bb6:	459d                	li	a1,7
   13bb8:	6a810613          	addi	a2,sp,1704
   13bbc:	02b00693          	li	a3,43
   13bc0:	ffffd097          	auipc	ra,0xffffd
   13bc4:	574080e7          	jalr	1396(ra) # 11134 <_ZN9allow_pin10no_dynamic11allow_inner17h151634b71b3fc351E>
   13bc8:	8905                	andi	a0,a0,1
   13bca:	e51d                	bnez	a0,13bf8 <_start+0x2a9a>
   13bcc:	7e300513          	li	a0,2019
   13bd0:	45a1                	li	a1,8
   13bd2:	64410613          	addi	a2,sp,1604
   13bd6:	46f9                	li	a3,30
   13bd8:	ffffd097          	auipc	ra,0xffffd
   13bdc:	56a080e7          	jalr	1386(ra) # 11142 <_ZN9allow_pin10no_dynamic11allow_inner17ha2b744c817d78427E>
   13be0:	8905                	andi	a0,a0,1
   13be2:	e919                	bnez	a0,13bf8 <_start+0x2a9a>
   13be4:	7e300513          	li	a0,2019
   13be8:	459d                	li	a1,7
   13bea:	4621                	li	a2,8
   13bec:	ffffd097          	auipc	ra,0xffffd
   13bf0:	564080e7          	jalr	1380(ra) # 11150 <_ZN9allow_pin7command17h1eb46760111c3605E>
   13bf4:	8905                	andi	a0,a0,1
   13bf6:	c505                	beqz	a0,13c1e <_start+0x2ac0>
   13bf8:	87ae                	mv	a5,a1
   13bfa:	4601                	li	a2,0
   13bfc:	4681                	li	a3,0
   13bfe:	7e300513          	li	a0,2019
   13c02:	45a1                	li	a1,8
   13c04:	470d                	li	a4,3
   13c06:	00000073          	ecall
   13c0a:	7e300513          	li	a0,2019
   13c0e:	459d                	li	a1,7
   13c10:	4711                	li	a4,4
   13c12:	4601                	li	a2,0
   13c14:	4681                	li	a3,0
   13c16:	00000073          	ecall
   13c1a:	df6fd06f          	j	11210 <_start+0xb2>
   13c1e:	4601                	li	a2,0
   13c20:	4681                	li	a3,0
   13c22:	7e300513          	li	a0,2019
   13c26:	45a1                	li	a1,8
   13c28:	470d                	li	a4,3
   13c2a:	00000073          	ecall
   13c2e:	470d                	li	a4,3
   13c30:	7e300513          	li	a0,2019
   13c34:	45a1                	li	a1,8
   13c36:	4601                	li	a2,0
   13c38:	4681                	li	a3,0
   13c3a:	00000073          	ecall
   13c3e:	00004297          	auipc	t0,0x4
   13c42:	cd6282e7          	jalr	t0,-810(t0) # 17914 <OUTLINED_FUNCTION_1>
   13c46:	64a14483          	lbu	s1,1610(sp)
   13c4a:	1ea11623          	sh	a0,492(sp)
   13c4e:	1ec10723          	sb	a2,494(sp)
   13c52:	64b10593          	addi	a1,sp,1611
   13c56:	52c10513          	addi	a0,sp,1324
   13c5a:	465d                	li	a2,23
   13c5c:	00004097          	auipc	ra,0x4
   13c60:	1c8080e7          	jalr	456(ra) # 17e24 <memcpy>
   13c64:	4601                	li	a2,0
   13c66:	4681                	li	a3,0
   13c68:	7e300513          	li	a0,2019
   13c6c:	45a1                	li	a1,8
   13c6e:	470d                	li	a4,3
   13c70:	00000073          	ecall
   13c74:	7e300513          	li	a0,2019
   13c78:	459d                	li	a1,7
   13c7a:	4711                	li	a4,4
   13c7c:	4601                	li	a2,0
   13c7e:	4681                	li	a3,0
   13c80:	00000073          	ecall
   13c84:	5f310513          	addi	a0,sp,1523
   13c88:	52c10593          	addi	a1,sp,1324
   13c8c:	465d                	li	a2,23
   13c8e:	00004097          	auipc	ra,0x4
   13c92:	196080e7          	jalr	406(ra) # 17e24 <memcpy>
   13c96:	1ec11503          	lh	a0,492(sp)
   13c9a:	1ee14583          	lbu	a1,494(sp)
   13c9e:	5e8108a3          	sb	s0,1521(sp)
   13ca2:	5e910923          	sb	s1,1522(sp)
   13ca6:	00004297          	auipc	t0,0x4
   13caa:	e8a282e7          	jalr	t0,-374(t0) # 17b30 <OUTLINED_FUNCTION_21>
   13cae:	05100613          	li	a2,81
   13cb2:	4581                	li	a1,0
   13cb4:	00004097          	auipc	ra,0x4
   13cb8:	104080e7          	jalr	260(ra) # 17db8 <memset>
   13cbc:	6509                	lui	a0,0x2
   13cbe:	4589                	li	a1,2
   13cc0:	5ec10613          	addi	a2,sp,1516
   13cc4:	96b50413          	addi	s0,a0,-1685 # 196b <.Lline_table_start1+0x1740>
   13cc8:	46f9                	li	a3,30
   13cca:	8522                	mv	a0,s0
   13ccc:	ffffd097          	auipc	ra,0xffffd
   13cd0:	468080e7          	jalr	1128(ra) # 11134 <_ZN9allow_pin10no_dynamic11allow_inner17h151634b71b3fc351E>
   13cd4:	8905                	andi	a0,a0,1
   13cd6:	e90d                	bnez	a0,13d08 <_start+0x2baa>
   13cd8:	6a810613          	addi	a2,sp,1704
   13cdc:	05100693          	li	a3,81
   13ce0:	8522                	mv	a0,s0
   13ce2:	4581                	li	a1,0
   13ce4:	ffffd097          	auipc	ra,0xffffd
   13ce8:	45e080e7          	jalr	1118(ra) # 11142 <_ZN9allow_pin10no_dynamic11allow_inner17ha2b744c817d78427E>
   13cec:	8905                	andi	a0,a0,1
   13cee:	ed09                	bnez	a0,13d08 <_start+0x2baa>
   13cf0:	6509                	lui	a0,0x2
   13cf2:	96b50493          	addi	s1,a0,-1685 # 196b <.Lline_table_start1+0x1740>
   13cf6:	4589                	li	a1,2
   13cf8:	8526                	mv	a0,s1
   13cfa:	4601                	li	a2,0
   13cfc:	ffffd097          	auipc	ra,0xffffd
   13d00:	454080e7          	jalr	1108(ra) # 11150 <_ZN9allow_pin7command17h1eb46760111c3605E>
   13d04:	8905                	andi	a0,a0,1
   13d06:	c105                	beqz	a0,13d26 <_start+0x2bc8>
   13d08:	87ae                	mv	a5,a1
   13d0a:	00004297          	auipc	t0,0x4
   13d0e:	fd2282e7          	jalr	t0,-46(t0) # 17cdc <OUTLINED_FUNCTION_47>
   13d12:	00000073          	ecall
   13d16:	00004297          	auipc	t0,0x4
   13d1a:	fa2282e7          	jalr	t0,-94(t0) # 17cb8 <OUTLINED_FUNCTION_44>
   13d1e:	00000073          	ecall
   13d22:	ceefd06f          	j	11210 <_start+0xb2>
   13d26:	00004297          	auipc	t0,0x4
   13d2a:	f00282e7          	jalr	t0,-256(t0) # 17c26 <OUTLINED_FUNCTION_33>
   13d2e:	00000073          	ecall
   13d32:	00004297          	auipc	t0,0x4
   13d36:	ef4282e7          	jalr	t0,-268(t0) # 17c26 <OUTLINED_FUNCTION_33>
   13d3a:	00000073          	ecall
   13d3e:	00004297          	auipc	t0,0x4
   13d42:	bf4282e7          	jalr	t0,-1036(t0) # 17932 <OUTLINED_FUNCTION_2>
   13d46:	6ae14a03          	lbu	s4,1710(sp)
   13d4a:	1ea11823          	sh	a0,496(sp)
   13d4e:	1ec10923          	sb	a2,498(sp)
   13d52:	00004297          	auipc	t0,0x4
   13d56:	fe0282e7          	jalr	t0,-32(t0) # 17d32 <OUTLINED_FUNCTION_52>
   13d5a:	00004097          	auipc	ra,0x4
   13d5e:	0ca080e7          	jalr	202(ra) # 17e24 <memcpy>
   13d62:	00004297          	auipc	t0,0x4
   13d66:	ec4282e7          	jalr	t0,-316(t0) # 17c26 <OUTLINED_FUNCTION_33>
   13d6a:	00000073          	ecall
   13d6e:	4589                	li	a1,2
   13d70:	4711                	li	a4,4
   13d72:	8526                	mv	a0,s1
   13d74:	4601                	li	a2,0
   13d76:	4681                	li	a3,0
   13d78:	00000073          	ecall
   13d7c:	00004297          	auipc	t0,0x4
   13d80:	fa8282e7          	jalr	t0,-88(t0) # 17d24 <OUTLINED_FUNCTION_51>
   13d84:	00004097          	auipc	ra,0x4
   13d88:	0a0080e7          	jalr	160(ra) # 17e24 <memcpy>
   13d8c:	1f011503          	lh	a0,496(sp)
   13d90:	1f214583          	lbu	a1,498(sp)
   13d94:	00004297          	auipc	t0,0x4
   13d98:	c52282e7          	jalr	t0,-942(t0) # 179e6 <OUTLINED_FUNCTION_8>
   13d9c:	463d                	li	a2,15
   13d9e:	4581                	li	a1,0
   13da0:	00004097          	auipc	ra,0x4
   13da4:	018080e7          	jalr	24(ra) # 17db8 <memset>
   13da8:	6505                	lui	a0,0x1
   13daa:	6a810613          	addi	a2,sp,1704
   13dae:	3bf50493          	addi	s1,a0,959 # 13bf <.Lline_table_start1+0x1194>
   13db2:	05100693          	li	a3,81
   13db6:	8526                	mv	a0,s1
   13db8:	4581                	li	a1,0
   13dba:	ffffd097          	auipc	ra,0xffffd
   13dbe:	37a080e7          	jalr	890(ra) # 11134 <_ZN9allow_pin10no_dynamic11allow_inner17h151634b71b3fc351E>
   13dc2:	8905                	andi	a0,a0,1
   13dc4:	e905                	bnez	a0,13df4 <_start+0x2c96>
   13dc6:	458d                	li	a1,3
   13dc8:	64410613          	addi	a2,sp,1604
   13dcc:	46bd                	li	a3,15
   13dce:	8526                	mv	a0,s1
   13dd0:	ffffd097          	auipc	ra,0xffffd
   13dd4:	372080e7          	jalr	882(ra) # 11142 <_ZN9allow_pin10no_dynamic11allow_inner17ha2b744c817d78427E>
   13dd8:	8905                	andi	a0,a0,1
   13dda:	ed09                	bnez	a0,13df4 <_start+0x2c96>
   13ddc:	6505                	lui	a0,0x1
   13dde:	3bf50413          	addi	s0,a0,959 # 13bf <.Lline_table_start1+0x1194>
   13de2:	460d                	li	a2,3
   13de4:	8522                	mv	a0,s0
   13de6:	4581                	li	a1,0
   13de8:	ffffd097          	auipc	ra,0xffffd
   13dec:	368080e7          	jalr	872(ra) # 11150 <_ZN9allow_pin7command17h1eb46760111c3605E>
   13df0:	8905                	andi	a0,a0,1
   13df2:	c10d                	beqz	a0,13e14 <_start+0x2cb6>
   13df4:	87ae                	mv	a5,a1
   13df6:	458d                	li	a1,3
   13df8:	470d                	li	a4,3
   13dfa:	8526                	mv	a0,s1
   13dfc:	4601                	li	a2,0
   13dfe:	4681                	li	a3,0
   13e00:	00000073          	ecall
   13e04:	00004297          	auipc	t0,0x4
   13e08:	ea8282e7          	jalr	t0,-344(t0) # 17cac <OUTLINED_FUNCTION_43>
   13e0c:	00000073          	ecall
   13e10:	c00fd06f          	j	11210 <_start+0xb2>
   13e14:	00004297          	auipc	t0,0x4
   13e18:	e38282e7          	jalr	t0,-456(t0) # 17c4c <OUTLINED_FUNCTION_35>
   13e1c:	00000073          	ecall
   13e20:	00004297          	auipc	t0,0x4
   13e24:	e80282e7          	jalr	t0,-384(t0) # 17ca0 <OUTLINED_FUNCTION_42>
   13e28:	00000073          	ecall
   13e2c:	470d                	li	a4,3
   13e2e:	64414503          	lbu	a0,1604(sp)
   13e32:	64514603          	lbu	a2,1605(sp)
   13e36:	64614683          	lbu	a3,1606(sp)
   13e3a:	64714383          	lbu	t2,1607(sp)
   13e3e:	64814e03          	lbu	t3,1608(sp)
   13e42:	64914803          	lbu	a6,1609(sp)
   13e46:	64a14883          	lbu	a7,1610(sp)
   13e4a:	64b14283          	lbu	t0,1611(sp)
   13e4e:	64c14303          	lbu	t1,1612(sp)
   13e52:	64d14f83          	lbu	t6,1613(sp)
   13e56:	64e14903          	lbu	s2,1614(sp)
   13e5a:	64f14e83          	lbu	t4,1615(sp)
   13e5e:	65014f03          	lbu	t5,1616(sp)
   13e62:	65114783          	lbu	a5,1617(sp)
   13e66:	65214483          	lbu	s1,1618(sp)
   13e6a:	458d                	li	a1,3
   13e6c:	0622                	slli	a2,a2,0x8
   13e6e:	8d51                	or	a0,a0,a2
   13e70:	1ea11a23          	sh	a0,500(sp)
   13e74:	1ed10b23          	sb	a3,502(sp)
   13e78:	8522                	mv	a0,s0
   13e7a:	4601                	li	a2,0
   13e7c:	4681                	li	a3,0
   13e7e:	00000073          	ecall
   13e82:	4711                	li	a4,4
   13e84:	8522                	mv	a0,s0
   13e86:	4581                	li	a1,0
   13e88:	4601                	li	a2,0
   13e8a:	4681                	li	a3,0
   13e8c:	00000073          	ecall
   13e90:	5ef10ca3          	sb	a5,1529(sp)
   13e94:	5e910d23          	sb	s1,1530(sp)
   13e98:	1f411503          	lh	a0,500(sp)
   13e9c:	1f614583          	lbu	a1,502(sp)
   13ea0:	5ff10aa3          	sb	t6,1525(sp)
   13ea4:	5f210b23          	sb	s2,1526(sp)
   13ea8:	5fd10ba3          	sb	t4,1527(sp)
   13eac:	5fe10c23          	sb	t5,1528(sp)
   13eb0:	5ea11623          	sh	a0,1516(sp)
   13eb4:	5eb10723          	sb	a1,1518(sp)
   13eb8:	5e7107a3          	sb	t2,1519(sp)
   13ebc:	5fc10823          	sb	t3,1520(sp)
   13ec0:	5f0108a3          	sb	a6,1521(sp)
   13ec4:	5f110923          	sb	a7,1522(sp)
   13ec8:	5e5109a3          	sb	t0,1523(sp)
   13ecc:	5e610a23          	sb	t1,1524(sp)
   13ed0:	6a810513          	addi	a0,sp,1704
   13ed4:	04600613          	li	a2,70
   13ed8:	4581                	li	a1,0
   13eda:	00004097          	auipc	ra,0x4
   13ede:	ede080e7          	jalr	-290(ra) # 17db8 <memset>
   13ee2:	6509                	lui	a0,0x2
   13ee4:	45a5                	li	a1,9
   13ee6:	5ec10613          	addi	a2,sp,1516
   13eea:	d7e50413          	addi	s0,a0,-642 # 1d7e <.Lline_table_start1+0x1b53>
   13eee:	46bd                	li	a3,15
   13ef0:	8522                	mv	a0,s0
   13ef2:	ffffd097          	auipc	ra,0xffffd
   13ef6:	242080e7          	jalr	578(ra) # 11134 <_ZN9allow_pin10no_dynamic11allow_inner17h151634b71b3fc351E>
   13efa:	8905                	andi	a0,a0,1
   13efc:	e90d                	bnez	a0,13f2e <_start+0x2dd0>
   13efe:	4589                	li	a1,2
   13f00:	6a810613          	addi	a2,sp,1704
   13f04:	04600693          	li	a3,70
   13f08:	8522                	mv	a0,s0
   13f0a:	ffffd097          	auipc	ra,0xffffd
   13f0e:	238080e7          	jalr	568(ra) # 11142 <_ZN9allow_pin10no_dynamic11allow_inner17ha2b744c817d78427E>
   13f12:	8905                	andi	a0,a0,1
   13f14:	ed09                	bnez	a0,13f2e <_start+0x2dd0>
   13f16:	6909                	lui	s2,0x2
   13f18:	45a5                	li	a1,9
   13f1a:	d7e90493          	addi	s1,s2,-642 # 1d7e <.Lline_table_start1+0x1b53>
   13f1e:	4609                	li	a2,2
   13f20:	8526                	mv	a0,s1
   13f22:	ffffd097          	auipc	ra,0xffffd
   13f26:	22e080e7          	jalr	558(ra) # 11150 <_ZN9allow_pin7command17h1eb46760111c3605E>
   13f2a:	8905                	andi	a0,a0,1
   13f2c:	c115                	beqz	a0,13f50 <_start+0x2df2>
   13f2e:	87ae                	mv	a5,a1
   13f30:	8522                	mv	a0,s0
   13f32:	4601                	li	a2,0
   13f34:	4681                	li	a3,0
   13f36:	4589                	li	a1,2
   13f38:	470d                	li	a4,3
   13f3a:	00000073          	ecall
   13f3e:	45a5                	li	a1,9
   13f40:	4711                	li	a4,4
   13f42:	8522                	mv	a0,s0
   13f44:	4601                	li	a2,0
   13f46:	4681                	li	a3,0
   13f48:	00000073          	ecall
   13f4c:	ac4fd06f          	j	11210 <_start+0xb2>
   13f50:	8526                	mv	a0,s1
   13f52:	4601                	li	a2,0
   13f54:	4681                	li	a3,0
   13f56:	4589                	li	a1,2
   13f58:	470d                	li	a4,3
   13f5a:	00000073          	ecall
   13f5e:	470d                	li	a4,3
   13f60:	4589                	li	a1,2
   13f62:	8526                	mv	a0,s1
   13f64:	4601                	li	a2,0
   13f66:	4681                	li	a3,0
   13f68:	00000073          	ecall
   13f6c:	00004297          	auipc	t0,0x4
   13f70:	a98282e7          	jalr	t0,-1384(t0) # 17a04 <OUTLINED_FUNCTION_9>
   13f74:	6ad14403          	lbu	s0,1709(sp)
   13f78:	6ae14a83          	lbu	s5,1710(sp)
   13f7c:	1ea11c23          	sh	a0,504(sp)
   13f80:	1ec10d23          	sb	a2,506(sp)
   13f84:	6af10593          	addi	a1,sp,1711
   13f88:	64410513          	addi	a0,sp,1604
   13f8c:	03f00613          	li	a2,63
   13f90:	00004097          	auipc	ra,0x4
   13f94:	e94080e7          	jalr	-364(ra) # 17e24 <memcpy>
   13f98:	8526                	mv	a0,s1
   13f9a:	4601                	li	a2,0
   13f9c:	4681                	li	a3,0
   13f9e:	4589                	li	a1,2
   13fa0:	470d                	li	a4,3
   13fa2:	00000073          	ecall
   13fa6:	00004297          	auipc	t0,0x4
   13faa:	dee282e7          	jalr	t0,-530(t0) # 17d94 <OUTLINED_FUNCTION_60>
   13fae:	00000073          	ecall
   13fb2:	5f310513          	addi	a0,sp,1523
   13fb6:	64410593          	addi	a1,sp,1604
   13fba:	03f00613          	li	a2,63
   13fbe:	00004097          	auipc	ra,0x4
   13fc2:	e66080e7          	jalr	-410(ra) # 17e24 <memcpy>
   13fc6:	1f811503          	lh	a0,504(sp)
   13fca:	1fa14583          	lbu	a1,506(sp)
   13fce:	5e8108a3          	sb	s0,1521(sp)
   13fd2:	00004297          	auipc	t0,0x4
   13fd6:	bb6282e7          	jalr	t0,-1098(t0) # 17b88 <OUTLINED_FUNCTION_25>
   13fda:	6a810513          	addi	a0,sp,1704
   13fde:	05600613          	li	a2,86
   13fe2:	4581                	li	a1,0
   13fe4:	00004097          	auipc	ra,0x4
   13fe8:	dd4080e7          	jalr	-556(ra) # 17db8 <memset>
   13fec:	e5090513          	addi	a0,s2,-432
   13ff0:	459d                	li	a1,7
   13ff2:	5ec10613          	addi	a2,sp,1516
   13ff6:	04600693          	li	a3,70
   13ffa:	ffffd097          	auipc	ra,0xffffd
   13ffe:	13a080e7          	jalr	314(ra) # 11134 <_ZN9allow_pin10no_dynamic11allow_inner17h151634b71b3fc351E>
   14002:	8905                	andi	a0,a0,1
   14004:	e90d                	bnez	a0,14036 <_start+0x2ed8>
   14006:	6509                	lui	a0,0x2
   14008:	458d                	li	a1,3
   1400a:	6a810613          	addi	a2,sp,1704
   1400e:	e5050413          	addi	s0,a0,-432 # 1e50 <.Lline_table_start1+0x1c25>
   14012:	05600693          	li	a3,86
   14016:	8522                	mv	a0,s0
   14018:	ffffd097          	auipc	ra,0xffffd
   1401c:	12a080e7          	jalr	298(ra) # 11142 <_ZN9allow_pin10no_dynamic11allow_inner17ha2b744c817d78427E>
   14020:	8905                	andi	a0,a0,1
   14022:	e911                	bnez	a0,14036 <_start+0x2ed8>
   14024:	459d                	li	a1,7
   14026:	460d                	li	a2,3
   14028:	8522                	mv	a0,s0
   1402a:	ffffd097          	auipc	ra,0xffffd
   1402e:	126080e7          	jalr	294(ra) # 11150 <_ZN9allow_pin7command17h1eb46760111c3605E>
   14032:	8905                	andi	a0,a0,1
   14034:	c505                	beqz	a0,1405c <_start+0x2efe>
   14036:	87ae                	mv	a5,a1
   14038:	4601                	li	a2,0
   1403a:	4681                	li	a3,0
   1403c:	6509                	lui	a0,0x2
   1403e:	458d                	li	a1,3
   14040:	e5050493          	addi	s1,a0,-432 # 1e50 <.Lline_table_start1+0x1c25>
   14044:	470d                	li	a4,3
   14046:	8526                	mv	a0,s1
   14048:	00000073          	ecall
   1404c:	00004297          	auipc	t0,0x4
   14050:	c30282e7          	jalr	t0,-976(t0) # 17c7c <OUTLINED_FUNCTION_39>
   14054:	00000073          	ecall
   14058:	9b8fd06f          	j	11210 <_start+0xb2>
   1405c:	4601                	li	a2,0
   1405e:	4681                	li	a3,0
   14060:	6909                	lui	s2,0x2
   14062:	458d                	li	a1,3
   14064:	e5090413          	addi	s0,s2,-432 # 1e50 <.Lline_table_start1+0x1c25>
   14068:	470d                	li	a4,3
   1406a:	8522                	mv	a0,s0
   1406c:	00000073          	ecall
   14070:	00004297          	auipc	t0,0x4
   14074:	c30282e7          	jalr	t0,-976(t0) # 17ca0 <OUTLINED_FUNCTION_42>
   14078:	00000073          	ecall
   1407c:	00004297          	auipc	t0,0x4
   14080:	8d4282e7          	jalr	t0,-1836(t0) # 17950 <OUTLINED_FUNCTION_3>
   14084:	1ea11e23          	sh	a0,508(sp)
   14088:	1ec10f23          	sb	a2,510(sp)
   1408c:	6af10593          	addi	a1,sp,1711
   14090:	64410513          	addi	a0,sp,1604
   14094:	04f00613          	li	a2,79
   14098:	00004097          	auipc	ra,0x4
   1409c:	d8c080e7          	jalr	-628(ra) # 17e24 <memcpy>
   140a0:	00004297          	auipc	t0,0x4
   140a4:	bac282e7          	jalr	t0,-1108(t0) # 17c4c <OUTLINED_FUNCTION_35>
   140a8:	00000073          	ecall
   140ac:	00004297          	auipc	t0,0x4
   140b0:	c18282e7          	jalr	t0,-1000(t0) # 17cc4 <OUTLINED_FUNCTION_45>
   140b4:	00000073          	ecall
   140b8:	6af10513          	addi	a0,sp,1711
   140bc:	64410593          	addi	a1,sp,1604
   140c0:	04f00613          	li	a2,79
   140c4:	00004097          	auipc	ra,0x4
   140c8:	d60080e7          	jalr	-672(ra) # 17e24 <memcpy>
   140cc:	1fc11503          	lh	a0,508(sp)
   140d0:	1fe14583          	lbu	a1,510(sp)
   140d4:	00004297          	auipc	t0,0x4
   140d8:	94a282e7          	jalr	t0,-1718(t0) # 17a1e <OUTLINED_FUNCTION_10>
   140dc:	64410513          	addi	a0,sp,1604
   140e0:	04900613          	li	a2,73
   140e4:	4581                	li	a1,0
   140e6:	00004097          	auipc	ra,0x4
   140ea:	cd2080e7          	jalr	-814(ra) # 17db8 <memset>
   140ee:	c6b90413          	addi	s0,s2,-917
   140f2:	4599                	li	a1,6
   140f4:	6a810613          	addi	a2,sp,1704
   140f8:	05600693          	li	a3,86
   140fc:	8522                	mv	a0,s0
   140fe:	ffffd097          	auipc	ra,0xffffd
   14102:	036080e7          	jalr	54(ra) # 11134 <_ZN9allow_pin10no_dynamic11allow_inner17h151634b71b3fc351E>
   14106:	8905                	andi	a0,a0,1
   14108:	e90d                	bnez	a0,1413a <_start+0x2fdc>
   1410a:	4599                	li	a1,6
   1410c:	64410613          	addi	a2,sp,1604
   14110:	04900693          	li	a3,73
   14114:	8522                	mv	a0,s0
   14116:	ffffd097          	auipc	ra,0xffffd
   1411a:	02c080e7          	jalr	44(ra) # 11142 <_ZN9allow_pin10no_dynamic11allow_inner17ha2b744c817d78427E>
   1411e:	8905                	andi	a0,a0,1
   14120:	ed09                	bnez	a0,1413a <_start+0x2fdc>
   14122:	6509                	lui	a0,0x2
   14124:	4599                	li	a1,6
   14126:	c6b50493          	addi	s1,a0,-917 # 1c6b <.Lline_table_start1+0x1a40>
   1412a:	4619                	li	a2,6
   1412c:	8526                	mv	a0,s1
   1412e:	ffffd097          	auipc	ra,0xffffd
   14132:	022080e7          	jalr	34(ra) # 11150 <_ZN9allow_pin7command17h1eb46760111c3605E>
   14136:	8905                	andi	a0,a0,1
   14138:	c10d                	beqz	a0,1415a <_start+0x2ffc>
   1413a:	87ae                	mv	a5,a1
   1413c:	8522                	mv	a0,s0
   1413e:	4601                	li	a2,0
   14140:	4681                	li	a3,0
   14142:	4599                	li	a1,6
   14144:	470d                	li	a4,3
   14146:	00000073          	ecall
   1414a:	00004297          	auipc	t0,0x4
   1414e:	c0e282e7          	jalr	t0,-1010(t0) # 17d58 <OUTLINED_FUNCTION_55>
   14152:	00000073          	ecall
   14156:	8bafd06f          	j	11210 <_start+0xb2>
   1415a:	8526                	mv	a0,s1
   1415c:	4601                	li	a2,0
   1415e:	4681                	li	a3,0
   14160:	4599                	li	a1,6
   14162:	470d                	li	a4,3
   14164:	00000073          	ecall
   14168:	470d                	li	a4,3
   1416a:	4599                	li	a1,6
   1416c:	8526                	mv	a0,s1
   1416e:	4601                	li	a2,0
   14170:	4681                	li	a3,0
   14172:	00000073          	ecall
   14176:	00003297          	auipc	t0,0x3
   1417a:	77c282e7          	jalr	t0,1916(t0) # 178f2 <OUTLINED_FUNCTION_0>
   1417e:	20a11023          	sh	a0,512(sp)
   14182:	20c10123          	sb	a2,514(sp)
   14186:	64b10593          	addi	a1,sp,1611
   1418a:	5ec10513          	addi	a0,sp,1516
   1418e:	04200613          	li	a2,66
   14192:	00004097          	auipc	ra,0x4
   14196:	c92080e7          	jalr	-878(ra) # 17e24 <memcpy>
   1419a:	8526                	mv	a0,s1
   1419c:	4601                	li	a2,0
   1419e:	4681                	li	a3,0
   141a0:	4599                	li	a1,6
   141a2:	470d                	li	a4,3
   141a4:	00000073          	ecall
   141a8:	00004297          	auipc	t0,0x4
   141ac:	ba4282e7          	jalr	t0,-1116(t0) # 17d4c <OUTLINED_FUNCTION_54>
   141b0:	00000073          	ecall
   141b4:	6af10513          	addi	a0,sp,1711
   141b8:	5ec10593          	addi	a1,sp,1516
   141bc:	04200613          	li	a2,66
   141c0:	00004097          	auipc	ra,0x4
   141c4:	c64080e7          	jalr	-924(ra) # 17e24 <memcpy>
   141c8:	20011503          	lh	a0,512(sp)
   141cc:	20214583          	lbu	a1,514(sp)
   141d0:	00004297          	auipc	t0,0x4
   141d4:	816282e7          	jalr	t0,-2026(t0) # 179e6 <OUTLINED_FUNCTION_8>
   141d8:	02300613          	li	a2,35
   141dc:	4581                	li	a1,0
   141de:	00004097          	auipc	ra,0x4
   141e2:	bda080e7          	jalr	-1062(ra) # 17db8 <memset>
   141e6:	6505                	lui	a0,0x1
   141e8:	459d                	li	a1,7
   141ea:	6a810613          	addi	a2,sp,1704
   141ee:	55150413          	addi	s0,a0,1361 # 1551 <.Lline_table_start1+0x1326>
   141f2:	04900693          	li	a3,73
   141f6:	8522                	mv	a0,s0
   141f8:	ffffd097          	auipc	ra,0xffffd
   141fc:	f3c080e7          	jalr	-196(ra) # 11134 <_ZN9allow_pin10no_dynamic11allow_inner17h151634b71b3fc351E>
   14200:	8905                	andi	a0,a0,1
   14202:	e90d                	bnez	a0,14234 <_start+0x30d6>
   14204:	4585                	li	a1,1
   14206:	64410613          	addi	a2,sp,1604
   1420a:	02300693          	li	a3,35
   1420e:	8522                	mv	a0,s0
   14210:	ffffd097          	auipc	ra,0xffffd
   14214:	f32080e7          	jalr	-206(ra) # 11142 <_ZN9allow_pin10no_dynamic11allow_inner17ha2b744c817d78427E>
   14218:	8905                	andi	a0,a0,1
   1421a:	ed09                	bnez	a0,14234 <_start+0x30d6>
   1421c:	6905                	lui	s2,0x1
   1421e:	459d                	li	a1,7
   14220:	55190493          	addi	s1,s2,1361 # 1551 <.Lline_table_start1+0x1326>
   14224:	4605                	li	a2,1
   14226:	8526                	mv	a0,s1
   14228:	ffffd097          	auipc	ra,0xffffd
   1422c:	f28080e7          	jalr	-216(ra) # 11150 <_ZN9allow_pin7command17h1eb46760111c3605E>
   14230:	8905                	andi	a0,a0,1
   14232:	c10d                	beqz	a0,14254 <_start+0x30f6>
   14234:	87ae                	mv	a5,a1
   14236:	8522                	mv	a0,s0
   14238:	4601                	li	a2,0
   1423a:	4681                	li	a3,0
   1423c:	4585                	li	a1,1
   1423e:	470d                	li	a4,3
   14240:	00000073          	ecall
   14244:	00004297          	auipc	t0,0x4
   14248:	a80282e7          	jalr	t0,-1408(t0) # 17cc4 <OUTLINED_FUNCTION_45>
   1424c:	00000073          	ecall
   14250:	fc1fc06f          	j	11210 <_start+0xb2>
   14254:	8526                	mv	a0,s1
   14256:	4601                	li	a2,0
   14258:	4681                	li	a3,0
   1425a:	4585                	li	a1,1
   1425c:	470d                	li	a4,3
   1425e:	00000073          	ecall
   14262:	470d                	li	a4,3
   14264:	4585                	li	a1,1
   14266:	8526                	mv	a0,s1
   14268:	4601                	li	a2,0
   1426a:	4681                	li	a3,0
   1426c:	00000073          	ecall
   14270:	00004297          	auipc	t0,0x4
   14274:	92e282e7          	jalr	t0,-1746(t0) # 17b9e <OUTLINED_FUNCTION_26>
   14278:	22a11023          	sh	a0,544(sp)
   1427c:	22c10123          	sb	a2,546(sp)
   14280:	64b10593          	addi	a1,sp,1611
   14284:	0448                	addi	a0,sp,516
   14286:	4671                	li	a2,28
   14288:	00004097          	auipc	ra,0x4
   1428c:	b9c080e7          	jalr	-1124(ra) # 17e24 <memcpy>
   14290:	8526                	mv	a0,s1
   14292:	4601                	li	a2,0
   14294:	4681                	li	a3,0
   14296:	4585                	li	a1,1
   14298:	470d                	li	a4,3
   1429a:	00000073          	ecall
   1429e:	4711                	li	a4,4
   142a0:	459d                	li	a1,7
   142a2:	8526                	mv	a0,s1
   142a4:	4601                	li	a2,0
   142a6:	4681                	li	a3,0
   142a8:	00000073          	ecall
   142ac:	22011503          	lh	a0,544(sp)
   142b0:	22214583          	lbu	a1,546(sp)
   142b4:	655104a3          	sb	s5,1609(sp)
   142b8:	65610523          	sb	s6,1610(sp)
   142bc:	00004297          	auipc	t0,0x4
   142c0:	8ba282e7          	jalr	t0,-1862(t0) # 17b76 <OUTLINED_FUNCTION_24>
   142c4:	64b10513          	addi	a0,sp,1611
   142c8:	044c                	addi	a1,sp,516
   142ca:	4671                	li	a2,28
   142cc:	00004097          	auipc	ra,0x4
   142d0:	b58080e7          	jalr	-1192(ra) # 17e24 <memcpy>
   142d4:	6a810513          	addi	a0,sp,1704
   142d8:	02b00613          	li	a2,43
   142dc:	4581                	li	a1,0
   142de:	00004097          	auipc	ra,0x4
   142e2:	ada080e7          	jalr	-1318(ra) # 17db8 <memset>
   142e6:	d5d90513          	addi	a0,s2,-675
   142ea:	4589                	li	a1,2
   142ec:	64410613          	addi	a2,sp,1604
   142f0:	02300693          	li	a3,35
   142f4:	ffffd097          	auipc	ra,0xffffd
   142f8:	e40080e7          	jalr	-448(ra) # 11134 <_ZN9allow_pin10no_dynamic11allow_inner17h151634b71b3fc351E>
   142fc:	8905                	andi	a0,a0,1
   142fe:	e90d                	bnez	a0,14330 <_start+0x31d2>
   14300:	6505                	lui	a0,0x1
   14302:	6a810613          	addi	a2,sp,1704
   14306:	d5d50493          	addi	s1,a0,-675 # d5d <.Lline_table_start1+0xb32>
   1430a:	02b00693          	li	a3,43
   1430e:	8526                	mv	a0,s1
   14310:	4581                	li	a1,0
   14312:	ffffd097          	auipc	ra,0xffffd
   14316:	e30080e7          	jalr	-464(ra) # 11142 <_ZN9allow_pin10no_dynamic11allow_inner17ha2b744c817d78427E>
   1431a:	8905                	andi	a0,a0,1
   1431c:	e911                	bnez	a0,14330 <_start+0x31d2>
   1431e:	4589                	li	a1,2
   14320:	8526                	mv	a0,s1
   14322:	4601                	li	a2,0
   14324:	ffffd097          	auipc	ra,0xffffd
   14328:	e2c080e7          	jalr	-468(ra) # 11150 <_ZN9allow_pin7command17h1eb46760111c3605E>
   1432c:	8905                	andi	a0,a0,1
   1432e:	c50d                	beqz	a0,14358 <_start+0x31fa>
   14330:	87ae                	mv	a5,a1
   14332:	4581                	li	a1,0
   14334:	4601                	li	a2,0
   14336:	4681                	li	a3,0
   14338:	6505                	lui	a0,0x1
   1433a:	d5d50493          	addi	s1,a0,-675 # d5d <.Lline_table_start1+0xb32>
   1433e:	470d                	li	a4,3
   14340:	8526                	mv	a0,s1
   14342:	00000073          	ecall
   14346:	4589                	li	a1,2
   14348:	4711                	li	a4,4
   1434a:	8526                	mv	a0,s1
   1434c:	4601                	li	a2,0
   1434e:	4681                	li	a3,0
   14350:	00000073          	ecall
   14354:	ebffc06f          	j	11212 <_start+0xb4>
   14358:	4581                	li	a1,0
   1435a:	4601                	li	a2,0
   1435c:	4681                	li	a3,0
   1435e:	6905                	lui	s2,0x1
   14360:	d5d90413          	addi	s0,s2,-675 # d5d <.Lline_table_start1+0xb32>
   14364:	470d                	li	a4,3
   14366:	8522                	mv	a0,s0
   14368:	00000073          	ecall
   1436c:	470d                	li	a4,3
   1436e:	8522                	mv	a0,s0
   14370:	4581                	li	a1,0
   14372:	4601                	li	a2,0
   14374:	4681                	li	a3,0
   14376:	00000073          	ecall
   1437a:	00003297          	auipc	t0,0x3
   1437e:	5d6282e7          	jalr	t0,1494(t0) # 17950 <OUTLINED_FUNCTION_3>
   14382:	24a11423          	sh	a0,584(sp)
   14386:	24c10523          	sb	a2,586(sp)
   1438a:	6af10593          	addi	a1,sp,1711
   1438e:	1448                	addi	a0,sp,548
   14390:	02400613          	li	a2,36
   14394:	00004097          	auipc	ra,0x4
   14398:	a90080e7          	jalr	-1392(ra) # 17e24 <memcpy>
   1439c:	00004297          	auipc	t0,0x4
   143a0:	940282e7          	jalr	t0,-1728(t0) # 17cdc <OUTLINED_FUNCTION_47>
   143a4:	00000073          	ecall
   143a8:	8522                	mv	a0,s0
   143aa:	4601                	li	a2,0
   143ac:	4681                	li	a3,0
   143ae:	4711                	li	a4,4
   143b0:	4589                	li	a1,2
   143b2:	00000073          	ecall
   143b6:	24811503          	lh	a0,584(sp)
   143ba:	24a14583          	lbu	a1,586(sp)
   143be:	00003297          	auipc	t0,0x3
   143c2:	660282e7          	jalr	t0,1632(t0) # 17a1e <OUTLINED_FUNCTION_10>
   143c6:	6af10513          	addi	a0,sp,1711
   143ca:	144c                	addi	a1,sp,548
   143cc:	02400613          	li	a2,36
   143d0:	00004097          	auipc	ra,0x4
   143d4:	a54080e7          	jalr	-1452(ra) # 17e24 <memcpy>
   143d8:	00004297          	auipc	t0,0x4
   143dc:	93c282e7          	jalr	t0,-1732(t0) # 17d14 <OUTLINED_FUNCTION_50>
   143e0:	64010823          	sb	zero,1616(sp)
   143e4:	46590493          	addi	s1,s2,1125
   143e8:	4599                	li	a1,6
   143ea:	6a810613          	addi	a2,sp,1704
   143ee:	02b00693          	li	a3,43
   143f2:	8526                	mv	a0,s1
   143f4:	ffffd097          	auipc	ra,0xffffd
   143f8:	d40080e7          	jalr	-704(ra) # 11134 <_ZN9allow_pin10no_dynamic11allow_inner17h151634b71b3fc351E>
   143fc:	8905                	andi	a0,a0,1
   143fe:	e905                	bnez	a0,1442e <_start+0x32d0>
   14400:	64410613          	addi	a2,sp,1604
   14404:	46b5                	li	a3,13
   14406:	8526                	mv	a0,s1
   14408:	4581                	li	a1,0
   1440a:	ffffd097          	auipc	ra,0xffffd
   1440e:	d38080e7          	jalr	-712(ra) # 11142 <_ZN9allow_pin10no_dynamic11allow_inner17ha2b744c817d78427E>
   14412:	8905                	andi	a0,a0,1
   14414:	ed09                	bnez	a0,1442e <_start+0x32d0>
   14416:	6905                	lui	s2,0x1
   14418:	46590b93          	addi	s7,s2,1125 # 1465 <.Lline_table_start1+0x123a>
   1441c:	4599                	li	a1,6
   1441e:	855e                	mv	a0,s7
   14420:	4601                	li	a2,0
   14422:	ffffd097          	auipc	ra,0xffffd
   14426:	d2e080e7          	jalr	-722(ra) # 11150 <_ZN9allow_pin7command17h1eb46760111c3605E>
   1442a:	8905                	andi	a0,a0,1
   1442c:	c105                	beqz	a0,1444c <_start+0x32ee>
   1442e:	87ae                	mv	a5,a1
   14430:	00003297          	auipc	t0,0x3
   14434:	7f6282e7          	jalr	t0,2038(t0) # 17c26 <OUTLINED_FUNCTION_33>
   14438:	00000073          	ecall
   1443c:	00004297          	auipc	t0,0x4
   14440:	910282e7          	jalr	t0,-1776(t0) # 17d4c <OUTLINED_FUNCTION_54>
   14444:	00000073          	ecall
   14448:	dc9fc06f          	j	11210 <_start+0xb2>
   1444c:	855e                	mv	a0,s7
   1444e:	4581                	li	a1,0
   14450:	4601                	li	a2,0
   14452:	4681                	li	a3,0
   14454:	470d                	li	a4,3
   14456:	00000073          	ecall
   1445a:	855e                	mv	a0,s7
   1445c:	4581                	li	a1,0
   1445e:	4601                	li	a2,0
   14460:	4681                	li	a3,0
   14462:	470d                	li	a4,3
   14464:	00000073          	ecall
   14468:	855e                	mv	a0,s7
   1446a:	4581                	li	a1,0
   1446c:	4601                	li	a2,0
   1446e:	4681                	li	a3,0
   14470:	64411803          	lh	a6,1604(sp)
   14474:	64614883          	lbu	a7,1606(sp)
   14478:	64714a03          	lbu	s4,1607(sp)
   1447c:	64814983          	lbu	s3,1608(sp)
   14480:	64d14283          	lbu	t0,1613(sp)
   14484:	64e14303          	lbu	t1,1614(sp)
   14488:	64f14783          	lbu	a5,1615(sp)
   1448c:	65014483          	lbu	s1,1616(sp)
   14490:	64914a83          	lbu	s5,1609(sp)
   14494:	64a14b03          	lbu	s6,1610(sp)
   14498:	64b14703          	lbu	a4,1611(sp)
   1449c:	64c14403          	lbu	s0,1612(sp)
   144a0:	25011623          	sh	a6,588(sp)
   144a4:	25110723          	sb	a7,590(sp)
   144a8:	04a2                	slli	s1,s1,0x8
   144aa:	8fc5                	or	a5,a5,s1
   144ac:	0422                	slli	s0,s0,0x8
   144ae:	8f41                	or	a4,a4,s0
   144b0:	02c2                	slli	t0,t0,0x10
   144b2:	0362                	slli	t1,t1,0x18
   144b4:	005364b3          	or	s1,t1,t0
   144b8:	8f45                	or	a4,a4,s1
   144ba:	5ee12623          	sw	a4,1516(sp)
   144be:	5ef11823          	sh	a5,1520(sp)
   144c2:	470d                	li	a4,3
   144c4:	00000073          	ecall
   144c8:	4599                	li	a1,6
   144ca:	4711                	li	a4,4
   144cc:	855e                	mv	a0,s7
   144ce:	4601                	li	a2,0
   144d0:	4681                	li	a3,0
   144d2:	00000073          	ecall
   144d6:	64b10513          	addi	a0,sp,1611
   144da:	5ec10593          	addi	a1,sp,1516
   144de:	4619                	li	a2,6
   144e0:	00004097          	auipc	ra,0x4
   144e4:	944080e7          	jalr	-1724(ra) # 17e24 <memcpy>
   144e8:	24c11503          	lh	a0,588(sp)
   144ec:	24e14583          	lbu	a1,590(sp)
   144f0:	655104a3          	sb	s5,1609(sp)
   144f4:	65610523          	sb	s6,1610(sp)
   144f8:	00004297          	auipc	t0,0x4
   144fc:	806282e7          	jalr	t0,-2042(t0) # 17cfe <OUTLINED_FUNCTION_49>
   14500:	02100613          	li	a2,33
   14504:	4581                	li	a1,0
   14506:	00004097          	auipc	ra,0x4
   1450a:	8b2080e7          	jalr	-1870(ra) # 17db8 <memset>
   1450e:	6b090513          	addi	a0,s2,1712
   14512:	64410613          	addi	a2,sp,1604
   14516:	46b5                	li	a3,13
   14518:	4581                	li	a1,0
   1451a:	ffffd097          	auipc	ra,0xffffd
   1451e:	c1a080e7          	jalr	-998(ra) # 11134 <_ZN9allow_pin10no_dynamic11allow_inner17h151634b71b3fc351E>
   14522:	8905                	andi	a0,a0,1
   14524:	e90d                	bnez	a0,14556 <_start+0x33f8>
   14526:	6505                	lui	a0,0x1
   14528:	6a810613          	addi	a2,sp,1704
   1452c:	6b050413          	addi	s0,a0,1712 # 16b0 <.Lline_table_start1+0x1485>
   14530:	02100693          	li	a3,33
   14534:	8522                	mv	a0,s0
   14536:	4581                	li	a1,0
   14538:	ffffd097          	auipc	ra,0xffffd
   1453c:	c0a080e7          	jalr	-1014(ra) # 11142 <_ZN9allow_pin10no_dynamic11allow_inner17ha2b744c817d78427E>
   14540:	8905                	andi	a0,a0,1
   14542:	e911                	bnez	a0,14556 <_start+0x33f8>
   14544:	8522                	mv	a0,s0
   14546:	4581                	li	a1,0
   14548:	4601                	li	a2,0
   1454a:	ffffd097          	auipc	ra,0xffffd
   1454e:	c06080e7          	jalr	-1018(ra) # 11150 <_ZN9allow_pin7command17h1eb46760111c3605E>
   14552:	8905                	andi	a0,a0,1
   14554:	c505                	beqz	a0,1457c <_start+0x341e>
   14556:	87ae                	mv	a5,a1
   14558:	6505                	lui	a0,0x1
   1455a:	6b050493          	addi	s1,a0,1712 # 16b0 <.Lline_table_start1+0x1485>
   1455e:	470d                	li	a4,3
   14560:	8526                	mv	a0,s1
   14562:	4581                	li	a1,0
   14564:	4601                	li	a2,0
   14566:	4681                	li	a3,0
   14568:	00000073          	ecall
   1456c:	00003297          	auipc	t0,0x3
   14570:	740282e7          	jalr	t0,1856(t0) # 17cac <OUTLINED_FUNCTION_43>
   14574:	00000073          	ecall
   14578:	c99fc06f          	j	11210 <_start+0xb2>
   1457c:	4581                	li	a1,0
   1457e:	4601                	li	a2,0
   14580:	4681                	li	a3,0
   14582:	6505                	lui	a0,0x1
   14584:	6b050413          	addi	s0,a0,1712 # 16b0 <.Lline_table_start1+0x1485>
   14588:	470d                	li	a4,3
   1458a:	8522                	mv	a0,s0
   1458c:	00000073          	ecall
   14590:	470d                	li	a4,3
   14592:	8522                	mv	a0,s0
   14594:	4581                	li	a1,0
   14596:	4601                	li	a2,0
   14598:	4681                	li	a3,0
   1459a:	00000073          	ecall
   1459e:	00003297          	auipc	t0,0x3
   145a2:	3d4282e7          	jalr	t0,980(t0) # 17972 <OUTLINED_FUNCTION_4>
   145a6:	6ad14483          	lbu	s1,1709(sp)
   145aa:	6ae14a03          	lbu	s4,1710(sp)
   145ae:	24a11823          	sh	a0,592(sp)
   145b2:	24c10923          	sb	a2,594(sp)
   145b6:	6af10593          	addi	a1,sp,1711
   145ba:	5ec10513          	addi	a0,sp,1516
   145be:	4669                	li	a2,26
   145c0:	00004097          	auipc	ra,0x4
   145c4:	864080e7          	jalr	-1948(ra) # 17e24 <memcpy>
   145c8:	470d                	li	a4,3
   145ca:	8522                	mv	a0,s0
   145cc:	4581                	li	a1,0
   145ce:	4601                	li	a2,0
   145d0:	4681                	li	a3,0
   145d2:	00000073          	ecall
   145d6:	00003297          	auipc	t0,0x3
   145da:	7d6282e7          	jalr	t0,2006(t0) # 17dac <OUTLINED_FUNCTION_62>
   145de:	00000073          	ecall
   145e2:	64b10513          	addi	a0,sp,1611
   145e6:	5ec10593          	addi	a1,sp,1516
   145ea:	4669                	li	a2,26
   145ec:	00004097          	auipc	ra,0x4
   145f0:	838080e7          	jalr	-1992(ra) # 17e24 <memcpy>
   145f4:	25011503          	lh	a0,592(sp)
   145f8:	25214583          	lbu	a1,594(sp)
   145fc:	649104a3          	sb	s1,1609(sp)
   14600:	65410523          	sb	s4,1610(sp)
   14604:	00003297          	auipc	t0,0x3
   14608:	542282e7          	jalr	t0,1346(t0) # 17b46 <OUTLINED_FUNCTION_22>
   1460c:	05300613          	li	a2,83
   14610:	4581                	li	a1,0
   14612:	00003097          	auipc	ra,0x3
   14616:	7a6080e7          	jalr	1958(ra) # 17db8 <memset>
   1461a:	6509                	lui	a0,0x2
   1461c:	4589                	li	a1,2
   1461e:	64410613          	addi	a2,sp,1604
   14622:	53e50413          	addi	s0,a0,1342 # 253e <.Lline_table_start1+0x2313>
   14626:	02100693          	li	a3,33
   1462a:	8522                	mv	a0,s0
   1462c:	ffffd097          	auipc	ra,0xffffd
   14630:	b08080e7          	jalr	-1272(ra) # 11134 <_ZN9allow_pin10no_dynamic11allow_inner17h151634b71b3fc351E>
   14634:	8905                	andi	a0,a0,1
   14636:	e90d                	bnez	a0,14668 <_start+0x350a>
   14638:	45a1                	li	a1,8
   1463a:	6a810613          	addi	a2,sp,1704
   1463e:	05300693          	li	a3,83
   14642:	8522                	mv	a0,s0
   14644:	ffffd097          	auipc	ra,0xffffd
   14648:	afe080e7          	jalr	-1282(ra) # 11142 <_ZN9allow_pin10no_dynamic11allow_inner17ha2b744c817d78427E>
   1464c:	8905                	andi	a0,a0,1
   1464e:	ed09                	bnez	a0,14668 <_start+0x350a>
   14650:	6509                	lui	a0,0x2
   14652:	4589                	li	a1,2
   14654:	53e50493          	addi	s1,a0,1342 # 253e <.Lline_table_start1+0x2313>
   14658:	4621                	li	a2,8
   1465a:	8526                	mv	a0,s1
   1465c:	ffffd097          	auipc	ra,0xffffd
   14660:	af4080e7          	jalr	-1292(ra) # 11150 <_ZN9allow_pin7command17h1eb46760111c3605E>
   14664:	8905                	andi	a0,a0,1
   14666:	cd19                	beqz	a0,14684 <_start+0x3526>
   14668:	00003297          	auipc	t0,0x3
   1466c:	598282e7          	jalr	t0,1432(t0) # 17c00 <OUTLINED_FUNCTION_30>
   14670:	00000073          	ecall
   14674:	00003297          	auipc	t0,0x3
   14678:	644282e7          	jalr	t0,1604(t0) # 17cb8 <OUTLINED_FUNCTION_44>
   1467c:	00000073          	ecall
   14680:	b91fc06f          	j	11210 <_start+0xb2>
   14684:	00003297          	auipc	t0,0x3
   14688:	5d4282e7          	jalr	t0,1492(t0) # 17c58 <OUTLINED_FUNCTION_36>
   1468c:	00000073          	ecall
   14690:	00003297          	auipc	t0,0x3
   14694:	710282e7          	jalr	t0,1808(t0) # 17da0 <OUTLINED_FUNCTION_61>
   14698:	00000073          	ecall
   1469c:	00003297          	auipc	t0,0x3
   146a0:	296282e7          	jalr	t0,662(t0) # 17932 <OUTLINED_FUNCTION_2>
   146a4:	6ae14a03          	lbu	s4,1710(sp)
   146a8:	2aa11023          	sh	a0,672(sp)
   146ac:	2ac10123          	sb	a2,674(sp)
   146b0:	6af10593          	addi	a1,sp,1711
   146b4:	0cc8                	addi	a0,sp,596
   146b6:	04c00613          	li	a2,76
   146ba:	00003097          	auipc	ra,0x3
   146be:	76a080e7          	jalr	1898(ra) # 17e24 <memcpy>
   146c2:	00003297          	auipc	t0,0x3
   146c6:	596282e7          	jalr	t0,1430(t0) # 17c58 <OUTLINED_FUNCTION_36>
   146ca:	00000073          	ecall
   146ce:	4711                	li	a4,4
   146d0:	4589                	li	a1,2
   146d2:	8526                	mv	a0,s1
   146d4:	4601                	li	a2,0
   146d6:	4681                	li	a3,0
   146d8:	00000073          	ecall
   146dc:	2a011503          	lh	a0,672(sp)
   146e0:	2a214583          	lbu	a1,674(sp)
   146e4:	00003297          	auipc	t0,0x3
   146e8:	36e282e7          	jalr	t0,878(t0) # 17a52 <OUTLINED_FUNCTION_12>
   146ec:	6af10513          	addi	a0,sp,1711
   146f0:	0ccc                	addi	a1,sp,596
   146f2:	04c00613          	li	a2,76
   146f6:	00003097          	auipc	ra,0x3
   146fa:	72e080e7          	jalr	1838(ra) # 17e24 <memcpy>
   146fe:	64410513          	addi	a0,sp,1604
   14702:	04d00613          	li	a2,77
   14706:	4581                	li	a1,0
   14708:	00003097          	auipc	ra,0x3
   1470c:	6b0080e7          	jalr	1712(ra) # 17db8 <memset>
   14710:	6505                	lui	a0,0x1
   14712:	45a5                	li	a1,9
   14714:	6a810613          	addi	a2,sp,1704
   14718:	6ba50413          	addi	s0,a0,1722 # 16ba <.Lline_table_start1+0x148f>
   1471c:	05300693          	li	a3,83
   14720:	8522                	mv	a0,s0
   14722:	ffffd097          	auipc	ra,0xffffd
   14726:	a12080e7          	jalr	-1518(ra) # 11134 <_ZN9allow_pin10no_dynamic11allow_inner17h151634b71b3fc351E>
   1472a:	8905                	andi	a0,a0,1
   1472c:	e90d                	bnez	a0,1475e <_start+0x3600>
   1472e:	4591                	li	a1,4
   14730:	64410613          	addi	a2,sp,1604
   14734:	04d00693          	li	a3,77
   14738:	8522                	mv	a0,s0
   1473a:	ffffd097          	auipc	ra,0xffffd
   1473e:	a08080e7          	jalr	-1528(ra) # 11142 <_ZN9allow_pin10no_dynamic11allow_inner17ha2b744c817d78427E>
   14742:	8905                	andi	a0,a0,1
   14744:	ed09                	bnez	a0,1475e <_start+0x3600>
   14746:	6505                	lui	a0,0x1
   14748:	45a5                	li	a1,9
   1474a:	6ba50493          	addi	s1,a0,1722 # 16ba <.Lline_table_start1+0x148f>
   1474e:	4611                	li	a2,4
   14750:	8526                	mv	a0,s1
   14752:	ffffd097          	auipc	ra,0xffffd
   14756:	9fe080e7          	jalr	-1538(ra) # 11150 <_ZN9allow_pin7command17h1eb46760111c3605E>
   1475a:	8905                	andi	a0,a0,1
   1475c:	c10d                	beqz	a0,1477e <_start+0x3620>
   1475e:	87ae                	mv	a5,a1
   14760:	00003297          	auipc	t0,0x3
   14764:	61c282e7          	jalr	t0,1564(t0) # 17d7c <OUTLINED_FUNCTION_58>
   14768:	00000073          	ecall
   1476c:	45a5                	li	a1,9
   1476e:	4711                	li	a4,4
   14770:	8522                	mv	a0,s0
   14772:	4601                	li	a2,0
   14774:	4681                	li	a3,0
   14776:	00000073          	ecall
   1477a:	a97fc06f          	j	11210 <_start+0xb2>
   1477e:	8526                	mv	a0,s1
   14780:	4601                	li	a2,0
   14782:	4681                	li	a3,0
   14784:	4591                	li	a1,4
   14786:	470d                	li	a4,3
   14788:	00000073          	ecall
   1478c:	470d                	li	a4,3
   1478e:	4591                	li	a1,4
   14790:	8526                	mv	a0,s1
   14792:	4601                	li	a2,0
   14794:	4681                	li	a3,0
   14796:	00000073          	ecall
   1479a:	00003297          	auipc	t0,0x3
   1479e:	158282e7          	jalr	t0,344(t0) # 178f2 <OUTLINED_FUNCTION_0>
   147a2:	2aa11223          	sh	a0,676(sp)
   147a6:	2ac10323          	sb	a2,678(sp)
   147aa:	64b10593          	addi	a1,sp,1611
   147ae:	5ec10513          	addi	a0,sp,1516
   147b2:	04600613          	li	a2,70
   147b6:	00003097          	auipc	ra,0x3
   147ba:	66e080e7          	jalr	1646(ra) # 17e24 <memcpy>
   147be:	8526                	mv	a0,s1
   147c0:	4601                	li	a2,0
   147c2:	4681                	li	a3,0
   147c4:	4591                	li	a1,4
   147c6:	470d                	li	a4,3
   147c8:	00000073          	ecall
   147cc:	00003297          	auipc	t0,0x3
   147d0:	5c8282e7          	jalr	t0,1480(t0) # 17d94 <OUTLINED_FUNCTION_60>
   147d4:	00000073          	ecall
   147d8:	6af10513          	addi	a0,sp,1711
   147dc:	5ec10593          	addi	a1,sp,1516
   147e0:	04600613          	li	a2,70
   147e4:	00003097          	auipc	ra,0x3
   147e8:	640080e7          	jalr	1600(ra) # 17e24 <memcpy>
   147ec:	2a411503          	lh	a0,676(sp)
   147f0:	2a614583          	lbu	a1,678(sp)
   147f4:	00003297          	auipc	t0,0x3
   147f8:	1f2282e7          	jalr	t0,498(t0) # 179e6 <OUTLINED_FUNCTION_8>
   147fc:	03c00613          	li	a2,60
   14800:	4581                	li	a1,0
   14802:	00003097          	auipc	ra,0x3
   14806:	5b6080e7          	jalr	1462(ra) # 17db8 <memset>
   1480a:	6509                	lui	a0,0x2
   1480c:	4591                	li	a1,4
   1480e:	6a810613          	addi	a2,sp,1704
   14812:	1ab50413          	addi	s0,a0,427 # 21ab <.Lline_table_start1+0x1f80>
   14816:	04d00693          	li	a3,77
   1481a:	8522                	mv	a0,s0
   1481c:	ffffd097          	auipc	ra,0xffffd
   14820:	918080e7          	jalr	-1768(ra) # 11134 <_ZN9allow_pin10no_dynamic11allow_inner17h151634b71b3fc351E>
   14824:	8905                	andi	a0,a0,1
   14826:	e90d                	bnez	a0,14858 <_start+0x36fa>
   14828:	45a5                	li	a1,9
   1482a:	64410613          	addi	a2,sp,1604
   1482e:	03c00693          	li	a3,60
   14832:	8522                	mv	a0,s0
   14834:	ffffd097          	auipc	ra,0xffffd
   14838:	90e080e7          	jalr	-1778(ra) # 11142 <_ZN9allow_pin10no_dynamic11allow_inner17ha2b744c817d78427E>
   1483c:	8905                	andi	a0,a0,1
   1483e:	ed09                	bnez	a0,14858 <_start+0x36fa>
   14840:	6909                	lui	s2,0x2
   14842:	4591                	li	a1,4
   14844:	1ab90493          	addi	s1,s2,427 # 21ab <.Lline_table_start1+0x1f80>
   14848:	4625                	li	a2,9
   1484a:	8526                	mv	a0,s1
   1484c:	ffffd097          	auipc	ra,0xffffd
   14850:	904080e7          	jalr	-1788(ra) # 11150 <_ZN9allow_pin7command17h1eb46760111c3605E>
   14854:	8905                	andi	a0,a0,1
   14856:	cd19                	beqz	a0,14874 <_start+0x3716>
   14858:	00003297          	auipc	t0,0x3
   1485c:	38c282e7          	jalr	t0,908(t0) # 17be4 <OUTLINED_FUNCTION_28>
   14860:	00000073          	ecall
   14864:	00003297          	auipc	t0,0x3
   14868:	46c282e7          	jalr	t0,1132(t0) # 17cd0 <OUTLINED_FUNCTION_46>
   1486c:	00000073          	ecall
   14870:	9a1fc06f          	j	11210 <_start+0xb2>
   14874:	00003297          	auipc	t0,0x3
   14878:	39a282e7          	jalr	t0,922(t0) # 17c0e <OUTLINED_FUNCTION_31>
   1487c:	00000073          	ecall
   14880:	00003297          	auipc	t0,0x3
   14884:	3f0282e7          	jalr	t0,1008(t0) # 17c70 <OUTLINED_FUNCTION_38>
   14888:	00000073          	ecall
   1488c:	00003297          	auipc	t0,0x3
   14890:	11a282e7          	jalr	t0,282(t0) # 179a6 <OUTLINED_FUNCTION_6>
   14894:	2aa11423          	sh	a0,680(sp)
   14898:	2ac10523          	sb	a2,682(sp)
   1489c:	64b10593          	addi	a1,sp,1611
   148a0:	5ec10513          	addi	a0,sp,1516
   148a4:	03500613          	li	a2,53
   148a8:	00003097          	auipc	ra,0x3
   148ac:	57c080e7          	jalr	1404(ra) # 17e24 <memcpy>
   148b0:	00003297          	auipc	t0,0x3
   148b4:	35e282e7          	jalr	t0,862(t0) # 17c0e <OUTLINED_FUNCTION_31>
   148b8:	00000073          	ecall
   148bc:	00003297          	auipc	t0,0x3
   148c0:	4b4282e7          	jalr	t0,1204(t0) # 17d70 <OUTLINED_FUNCTION_57>
   148c4:	00000073          	ecall
   148c8:	6af10513          	addi	a0,sp,1711
   148cc:	5ec10593          	addi	a1,sp,1516
   148d0:	03500613          	li	a2,53
   148d4:	00003097          	auipc	ra,0x3
   148d8:	550080e7          	jalr	1360(ra) # 17e24 <memcpy>
   148dc:	2a811503          	lh	a0,680(sp)
   148e0:	2aa14583          	lbu	a1,682(sp)
   148e4:	6a8106a3          	sb	s0,1709(sp)
   148e8:	00003297          	auipc	t0,0x3
   148ec:	19e282e7          	jalr	t0,414(t0) # 17a86 <OUTLINED_FUNCTION_14>
   148f0:	03800613          	li	a2,56
   148f4:	4581                	li	a1,0
   148f6:	00003097          	auipc	ra,0x3
   148fa:	4c2080e7          	jalr	1218(ra) # 17db8 <memset>
   148fe:	d1990513          	addi	a0,s2,-743
   14902:	458d                	li	a1,3
   14904:	6a810613          	addi	a2,sp,1704
   14908:	03c00693          	li	a3,60
   1490c:	ffffd097          	auipc	ra,0xffffd
   14910:	828080e7          	jalr	-2008(ra) # 11134 <_ZN9allow_pin10no_dynamic11allow_inner17h151634b71b3fc351E>
   14914:	8905                	andi	a0,a0,1
   14916:	e90d                	bnez	a0,14948 <_start+0x37ea>
   14918:	6509                	lui	a0,0x2
   1491a:	458d                	li	a1,3
   1491c:	64410613          	addi	a2,sp,1604
   14920:	d1950413          	addi	s0,a0,-743 # 1d19 <.Lline_table_start1+0x1aee>
   14924:	03800693          	li	a3,56
   14928:	8522                	mv	a0,s0
   1492a:	ffffd097          	auipc	ra,0xffffd
   1492e:	818080e7          	jalr	-2024(ra) # 11142 <_ZN9allow_pin10no_dynamic11allow_inner17ha2b744c817d78427E>
   14932:	8905                	andi	a0,a0,1
   14934:	e911                	bnez	a0,14948 <_start+0x37ea>
   14936:	458d                	li	a1,3
   14938:	460d                	li	a2,3
   1493a:	8522                	mv	a0,s0
   1493c:	ffffd097          	auipc	ra,0xffffd
   14940:	814080e7          	jalr	-2028(ra) # 11150 <_ZN9allow_pin7command17h1eb46760111c3605E>
   14944:	8905                	andi	a0,a0,1
   14946:	c505                	beqz	a0,1496e <_start+0x3810>
   14948:	87ae                	mv	a5,a1
   1494a:	4601                	li	a2,0
   1494c:	4681                	li	a3,0
   1494e:	6509                	lui	a0,0x2
   14950:	458d                	li	a1,3
   14952:	d1950493          	addi	s1,a0,-743 # 1d19 <.Lline_table_start1+0x1aee>
   14956:	470d                	li	a4,3
   14958:	8526                	mv	a0,s1
   1495a:	00000073          	ecall
   1495e:	00003297          	auipc	t0,0x3
   14962:	306282e7          	jalr	t0,774(t0) # 17c64 <OUTLINED_FUNCTION_37>
   14966:	00000073          	ecall
   1496a:	8a7fc06f          	j	11210 <_start+0xb2>
   1496e:	4601                	li	a2,0
   14970:	4681                	li	a3,0
   14972:	6509                	lui	a0,0x2
   14974:	458d                	li	a1,3
   14976:	d1950413          	addi	s0,a0,-743 # 1d19 <.Lline_table_start1+0x1aee>
   1497a:	470d                	li	a4,3
   1497c:	8522                	mv	a0,s0
   1497e:	00000073          	ecall
   14982:	00003297          	auipc	t0,0x3
   14986:	31e282e7          	jalr	t0,798(t0) # 17ca0 <OUTLINED_FUNCTION_42>
   1498a:	00000073          	ecall
   1498e:	00003297          	auipc	t0,0x3
   14992:	ffe282e7          	jalr	t0,-2(t0) # 1798c <OUTLINED_FUNCTION_5>
   14996:	64914483          	lbu	s1,1609(sp)
   1499a:	64a14a03          	lbu	s4,1610(sp)
   1499e:	2aa11623          	sh	a0,684(sp)
   149a2:	2ac10723          	sb	a2,686(sp)
   149a6:	64b10593          	addi	a1,sp,1611
   149aa:	5ec10513          	addi	a0,sp,1516
   149ae:	03100613          	li	a2,49
   149b2:	00003097          	auipc	ra,0x3
   149b6:	472080e7          	jalr	1138(ra) # 17e24 <memcpy>
   149ba:	00003297          	auipc	t0,0x3
   149be:	292282e7          	jalr	t0,658(t0) # 17c4c <OUTLINED_FUNCTION_35>
   149c2:	00000073          	ecall
   149c6:	00003297          	auipc	t0,0x3
   149ca:	37a282e7          	jalr	t0,890(t0) # 17d40 <OUTLINED_FUNCTION_53>
   149ce:	00000073          	ecall
   149d2:	6af10513          	addi	a0,sp,1711
   149d6:	5ec10593          	addi	a1,sp,1516
   149da:	03100613          	li	a2,49
   149de:	00003097          	auipc	ra,0x3
   149e2:	446080e7          	jalr	1094(ra) # 17e24 <memcpy>
   149e6:	2ac11503          	lh	a0,684(sp)
   149ea:	2ae14583          	lbu	a1,686(sp)
   149ee:	6a9106a3          	sb	s1,1709(sp)
   149f2:	00003297          	auipc	t0,0x3
   149f6:	07a282e7          	jalr	t0,122(t0) # 17a6c <OUTLINED_FUNCTION_13>
   149fa:	02700613          	li	a2,39
   149fe:	4581                	li	a1,0
   14a00:	00003097          	auipc	ra,0x3
   14a04:	3b8080e7          	jalr	952(ra) # 17db8 <memset>
   14a08:	6505                	lui	a0,0x1
   14a0a:	4589                	li	a1,2
   14a0c:	6a810613          	addi	a2,sp,1704
   14a10:	e2b50413          	addi	s0,a0,-469 # e2b <.Lline_table_start1+0xc00>
   14a14:	03800693          	li	a3,56
   14a18:	8522                	mv	a0,s0
   14a1a:	ffffc097          	auipc	ra,0xffffc
   14a1e:	71a080e7          	jalr	1818(ra) # 11134 <_ZN9allow_pin10no_dynamic11allow_inner17h151634b71b3fc351E>
   14a22:	8905                	andi	a0,a0,1
   14a24:	e90d                	bnez	a0,14a56 <_start+0x38f8>
   14a26:	45a1                	li	a1,8
   14a28:	64410613          	addi	a2,sp,1604
   14a2c:	02700693          	li	a3,39
   14a30:	8522                	mv	a0,s0
   14a32:	ffffc097          	auipc	ra,0xffffc
   14a36:	710080e7          	jalr	1808(ra) # 11142 <_ZN9allow_pin10no_dynamic11allow_inner17ha2b744c817d78427E>
   14a3a:	8905                	andi	a0,a0,1
   14a3c:	ed09                	bnez	a0,14a56 <_start+0x38f8>
   14a3e:	6905                	lui	s2,0x1
   14a40:	4589                	li	a1,2
   14a42:	e2b90493          	addi	s1,s2,-469 # e2b <.Lline_table_start1+0xc00>
   14a46:	4621                	li	a2,8
   14a48:	8526                	mv	a0,s1
   14a4a:	ffffc097          	auipc	ra,0xffffc
   14a4e:	706080e7          	jalr	1798(ra) # 11150 <_ZN9allow_pin7command17h1eb46760111c3605E>
   14a52:	8905                	andi	a0,a0,1
   14a54:	cd19                	beqz	a0,14a72 <_start+0x3914>
   14a56:	00003297          	auipc	t0,0x3
   14a5a:	1aa282e7          	jalr	t0,426(t0) # 17c00 <OUTLINED_FUNCTION_30>
   14a5e:	00000073          	ecall
   14a62:	00003297          	auipc	t0,0x3
   14a66:	256282e7          	jalr	t0,598(t0) # 17cb8 <OUTLINED_FUNCTION_44>
   14a6a:	00000073          	ecall
   14a6e:	fa2fc06f          	j	11210 <_start+0xb2>
   14a72:	00003297          	auipc	t0,0x3
   14a76:	1e6282e7          	jalr	t0,486(t0) # 17c58 <OUTLINED_FUNCTION_36>
   14a7a:	00000073          	ecall
   14a7e:	00003297          	auipc	t0,0x3
   14a82:	322282e7          	jalr	t0,802(t0) # 17da0 <OUTLINED_FUNCTION_61>
   14a86:	00000073          	ecall
   14a8a:	00003297          	auipc	t0,0x3
   14a8e:	f1c282e7          	jalr	t0,-228(t0) # 179a6 <OUTLINED_FUNCTION_6>
   14a92:	2ca11823          	sh	a0,720(sp)
   14a96:	2cc10923          	sb	a2,722(sp)
   14a9a:	64b10593          	addi	a1,sp,1611
   14a9e:	1d08                	addi	a0,sp,688
   14aa0:	02000613          	li	a2,32
   14aa4:	00003097          	auipc	ra,0x3
   14aa8:	380080e7          	jalr	896(ra) # 17e24 <memcpy>
   14aac:	00003297          	auipc	t0,0x3
   14ab0:	1ac282e7          	jalr	t0,428(t0) # 17c58 <OUTLINED_FUNCTION_36>
   14ab4:	00000073          	ecall
   14ab8:	4711                	li	a4,4
   14aba:	4589                	li	a1,2
   14abc:	8526                	mv	a0,s1
   14abe:	4601                	li	a2,0
   14ac0:	4681                	li	a3,0
   14ac2:	00000073          	ecall
   14ac6:	2d011503          	lh	a0,720(sp)
   14aca:	2d214583          	lbu	a1,722(sp)
   14ace:	5e8108a3          	sb	s0,1521(sp)
   14ad2:	00003297          	auipc	t0,0x3
   14ad6:	0b6282e7          	jalr	t0,182(t0) # 17b88 <OUTLINED_FUNCTION_25>
   14ada:	5f310513          	addi	a0,sp,1523
   14ade:	1d0c                	addi	a1,sp,688
   14ae0:	02000613          	li	a2,32
   14ae4:	00003097          	auipc	ra,0x3
   14ae8:	340080e7          	jalr	832(ra) # 17e24 <memcpy>
   14aec:	6a810513          	addi	a0,sp,1704
   14af0:	05100613          	li	a2,81
   14af4:	4581                	li	a1,0
   14af6:	00003097          	auipc	ra,0x3
   14afa:	2c2080e7          	jalr	706(ra) # 17db8 <memset>
   14afe:	a3690513          	addi	a0,s2,-1482
   14b02:	5ec10613          	addi	a2,sp,1516
   14b06:	02700693          	li	a3,39
   14b0a:	4581                	li	a1,0
   14b0c:	ffffc097          	auipc	ra,0xffffc
   14b10:	628080e7          	jalr	1576(ra) # 11134 <_ZN9allow_pin10no_dynamic11allow_inner17h151634b71b3fc351E>
   14b14:	8905                	andi	a0,a0,1
   14b16:	e90d                	bnez	a0,14b48 <_start+0x39ea>
   14b18:	6505                	lui	a0,0x1
   14b1a:	4591                	li	a1,4
   14b1c:	6a810613          	addi	a2,sp,1704
   14b20:	a3650413          	addi	s0,a0,-1482 # a36 <.Lline_table_start1+0x80b>
   14b24:	05100693          	li	a3,81
   14b28:	8522                	mv	a0,s0
   14b2a:	ffffc097          	auipc	ra,0xffffc
   14b2e:	618080e7          	jalr	1560(ra) # 11142 <_ZN9allow_pin10no_dynamic11allow_inner17ha2b744c817d78427E>
   14b32:	8905                	andi	a0,a0,1
   14b34:	e911                	bnez	a0,14b48 <_start+0x39ea>
   14b36:	4611                	li	a2,4
   14b38:	8522                	mv	a0,s0
   14b3a:	4581                	li	a1,0
   14b3c:	ffffc097          	auipc	ra,0xffffc
   14b40:	614080e7          	jalr	1556(ra) # 11150 <_ZN9allow_pin7command17h1eb46760111c3605E>
   14b44:	8905                	andi	a0,a0,1
   14b46:	c505                	beqz	a0,14b6e <_start+0x3a10>
   14b48:	87ae                	mv	a5,a1
   14b4a:	6505                	lui	a0,0x1
   14b4c:	a3650493          	addi	s1,a0,-1482 # a36 <.Lline_table_start1+0x80b>
   14b50:	4591                	li	a1,4
   14b52:	470d                	li	a4,3
   14b54:	8526                	mv	a0,s1
   14b56:	4601                	li	a2,0
   14b58:	4681                	li	a3,0
   14b5a:	00000073          	ecall
   14b5e:	00003297          	auipc	t0,0x3
   14b62:	14e282e7          	jalr	t0,334(t0) # 17cac <OUTLINED_FUNCTION_43>
   14b66:	00000073          	ecall
   14b6a:	ea6fc06f          	j	11210 <_start+0xb2>
   14b6e:	4601                	li	a2,0
   14b70:	4681                	li	a3,0
   14b72:	6505                	lui	a0,0x1
   14b74:	4591                	li	a1,4
   14b76:	a3650413          	addi	s0,a0,-1482 # a36 <.Lline_table_start1+0x80b>
   14b7a:	470d                	li	a4,3
   14b7c:	8522                	mv	a0,s0
   14b7e:	00000073          	ecall
   14b82:	470d                	li	a4,3
   14b84:	4591                	li	a1,4
   14b86:	8522                	mv	a0,s0
   14b88:	4601                	li	a2,0
   14b8a:	4681                	li	a3,0
   14b8c:	00000073          	ecall
   14b90:	00003297          	auipc	t0,0x3
   14b94:	de2282e7          	jalr	t0,-542(t0) # 17972 <OUTLINED_FUNCTION_4>
   14b98:	6ad14483          	lbu	s1,1709(sp)
   14b9c:	6ae14a03          	lbu	s4,1710(sp)
   14ba0:	2ca11a23          	sh	a0,724(sp)
   14ba4:	2cc10b23          	sb	a2,726(sp)
   14ba8:	00003297          	auipc	t0,0x3
   14bac:	18a282e7          	jalr	t0,394(t0) # 17d32 <OUTLINED_FUNCTION_52>
   14bb0:	00003097          	auipc	ra,0x3
   14bb4:	274080e7          	jalr	628(ra) # 17e24 <memcpy>
   14bb8:	4591                	li	a1,4
   14bba:	470d                	li	a4,3
   14bbc:	8522                	mv	a0,s0
   14bbe:	4601                	li	a2,0
   14bc0:	4681                	li	a3,0
   14bc2:	00000073          	ecall
   14bc6:	00003297          	auipc	t0,0x3
   14bca:	1e6282e7          	jalr	t0,486(t0) # 17dac <OUTLINED_FUNCTION_62>
   14bce:	00000073          	ecall
   14bd2:	00003297          	auipc	t0,0x3
   14bd6:	152282e7          	jalr	t0,338(t0) # 17d24 <OUTLINED_FUNCTION_51>
   14bda:	00003097          	auipc	ra,0x3
   14bde:	24a080e7          	jalr	586(ra) # 17e24 <memcpy>
   14be2:	2d411503          	lh	a0,724(sp)
   14be6:	2d614583          	lbu	a1,726(sp)
   14bea:	6a9106a3          	sb	s1,1709(sp)
   14bee:	00003297          	auipc	t0,0x3
   14bf2:	e7e282e7          	jalr	t0,-386(t0) # 17a6c <OUTLINED_FUNCTION_13>
   14bf6:	04f00613          	li	a2,79
   14bfa:	4581                	li	a1,0
   14bfc:	00003097          	auipc	ra,0x3
   14c00:	1bc080e7          	jalr	444(ra) # 17db8 <memset>
   14c04:	6509                	lui	a0,0x2
   14c06:	4591                	li	a1,4
   14c08:	6a810613          	addi	a2,sp,1704
   14c0c:	0ee50413          	addi	s0,a0,238 # 20ee <.Lline_table_start1+0x1ec3>
   14c10:	05100693          	li	a3,81
   14c14:	8522                	mv	a0,s0
   14c16:	ffffc097          	auipc	ra,0xffffc
   14c1a:	51e080e7          	jalr	1310(ra) # 11134 <_ZN9allow_pin10no_dynamic11allow_inner17h151634b71b3fc351E>
   14c1e:	8905                	andi	a0,a0,1
   14c20:	e90d                	bnez	a0,14c52 <_start+0x3af4>
   14c22:	45a5                	li	a1,9
   14c24:	64410613          	addi	a2,sp,1604
   14c28:	04f00693          	li	a3,79
   14c2c:	8522                	mv	a0,s0
   14c2e:	ffffc097          	auipc	ra,0xffffc
   14c32:	514080e7          	jalr	1300(ra) # 11142 <_ZN9allow_pin10no_dynamic11allow_inner17ha2b744c817d78427E>
   14c36:	8905                	andi	a0,a0,1
   14c38:	ed09                	bnez	a0,14c52 <_start+0x3af4>
   14c3a:	6509                	lui	a0,0x2
   14c3c:	4591                	li	a1,4
   14c3e:	0ee50493          	addi	s1,a0,238 # 20ee <.Lline_table_start1+0x1ec3>
   14c42:	4625                	li	a2,9
   14c44:	8526                	mv	a0,s1
   14c46:	ffffc097          	auipc	ra,0xffffc
   14c4a:	50a080e7          	jalr	1290(ra) # 11150 <_ZN9allow_pin7command17h1eb46760111c3605E>
   14c4e:	8905                	andi	a0,a0,1
   14c50:	cd19                	beqz	a0,14c6e <_start+0x3b10>
   14c52:	00003297          	auipc	t0,0x3
   14c56:	f92282e7          	jalr	t0,-110(t0) # 17be4 <OUTLINED_FUNCTION_28>
   14c5a:	00000073          	ecall
   14c5e:	00003297          	auipc	t0,0x3
   14c62:	072282e7          	jalr	t0,114(t0) # 17cd0 <OUTLINED_FUNCTION_46>
   14c66:	00000073          	ecall
   14c6a:	da6fc06f          	j	11210 <_start+0xb2>
   14c6e:	00003297          	auipc	t0,0x3
   14c72:	fa0282e7          	jalr	t0,-96(t0) # 17c0e <OUTLINED_FUNCTION_31>
   14c76:	00000073          	ecall
   14c7a:	00003297          	auipc	t0,0x3
   14c7e:	ff6282e7          	jalr	t0,-10(t0) # 17c70 <OUTLINED_FUNCTION_38>
   14c82:	00000073          	ecall
   14c86:	00003297          	auipc	t0,0x3
   14c8a:	c6c282e7          	jalr	t0,-916(t0) # 178f2 <OUTLINED_FUNCTION_0>
   14c8e:	32a11023          	sh	a0,800(sp)
   14c92:	32c10123          	sb	a2,802(sp)
   14c96:	64b10593          	addi	a1,sp,1611
   14c9a:	0da8                	addi	a0,sp,728
   14c9c:	04800613          	li	a2,72
   14ca0:	00003097          	auipc	ra,0x3
   14ca4:	184080e7          	jalr	388(ra) # 17e24 <memcpy>
   14ca8:	00003297          	auipc	t0,0x3
   14cac:	f66282e7          	jalr	t0,-154(t0) # 17c0e <OUTLINED_FUNCTION_31>
   14cb0:	00000073          	ecall
   14cb4:	4711                	li	a4,4
   14cb6:	4591                	li	a1,4
   14cb8:	8526                	mv	a0,s1
   14cba:	4601                	li	a2,0
   14cbc:	4681                	li	a3,0
   14cbe:	00000073          	ecall
   14cc2:	32011503          	lh	a0,800(sp)
   14cc6:	32214583          	lbu	a1,802(sp)
   14cca:	00003297          	auipc	t0,0x3
   14cce:	e20282e7          	jalr	t0,-480(t0) # 17aea <OUTLINED_FUNCTION_18>
   14cd2:	5f310513          	addi	a0,sp,1523
   14cd6:	0dac                	addi	a1,sp,728
   14cd8:	04800613          	li	a2,72
   14cdc:	00003097          	auipc	ra,0x3
   14ce0:	148080e7          	jalr	328(ra) # 17e24 <memcpy>
   14ce4:	6a810513          	addi	a0,sp,1704
   14ce8:	06100613          	li	a2,97
   14cec:	4581                	li	a1,0
   14cee:	00003097          	auipc	ra,0x3
   14cf2:	0ca080e7          	jalr	202(ra) # 17db8 <memset>
   14cf6:	1b600513          	li	a0,438
   14cfa:	4589                	li	a1,2
   14cfc:	5ec10613          	addi	a2,sp,1516
   14d00:	04f00693          	li	a3,79
   14d04:	ffffc097          	auipc	ra,0xffffc
   14d08:	430080e7          	jalr	1072(ra) # 11134 <_ZN9allow_pin10no_dynamic11allow_inner17h151634b71b3fc351E>
   14d0c:	8905                	andi	a0,a0,1
   14d0e:	e905                	bnez	a0,14d3e <_start+0x3be0>
   14d10:	1b600513          	li	a0,438
   14d14:	45a1                	li	a1,8
   14d16:	6a810613          	addi	a2,sp,1704
   14d1a:	06100693          	li	a3,97
   14d1e:	ffffc097          	auipc	ra,0xffffc
   14d22:	424080e7          	jalr	1060(ra) # 11142 <_ZN9allow_pin10no_dynamic11allow_inner17ha2b744c817d78427E>
   14d26:	8905                	andi	a0,a0,1
   14d28:	e919                	bnez	a0,14d3e <_start+0x3be0>
   14d2a:	1b600513          	li	a0,438
   14d2e:	4589                	li	a1,2
   14d30:	4621                	li	a2,8
   14d32:	ffffc097          	auipc	ra,0xffffc
   14d36:	41e080e7          	jalr	1054(ra) # 11150 <_ZN9allow_pin7command17h1eb46760111c3605E>
   14d3a:	8905                	andi	a0,a0,1
   14d3c:	c505                	beqz	a0,14d64 <_start+0x3c06>
   14d3e:	87ae                	mv	a5,a1
   14d40:	4601                	li	a2,0
   14d42:	4681                	li	a3,0
   14d44:	1b600513          	li	a0,438
   14d48:	45a1                	li	a1,8
   14d4a:	470d                	li	a4,3
   14d4c:	00000073          	ecall
   14d50:	1b600513          	li	a0,438
   14d54:	4589                	li	a1,2
   14d56:	4711                	li	a4,4
   14d58:	4601                	li	a2,0
   14d5a:	4681                	li	a3,0
   14d5c:	00000073          	ecall
   14d60:	cb0fc06f          	j	11210 <_start+0xb2>
   14d64:	4601                	li	a2,0
   14d66:	4681                	li	a3,0
   14d68:	1b600513          	li	a0,438
   14d6c:	45a1                	li	a1,8
   14d6e:	470d                	li	a4,3
   14d70:	00000073          	ecall
   14d74:	470d                	li	a4,3
   14d76:	1b600513          	li	a0,438
   14d7a:	45a1                	li	a1,8
   14d7c:	4601                	li	a2,0
   14d7e:	4681                	li	a3,0
   14d80:	00000073          	ecall
   14d84:	00003297          	auipc	t0,0x3
   14d88:	bae282e7          	jalr	t0,-1106(t0) # 17932 <OUTLINED_FUNCTION_2>
   14d8c:	6ae14483          	lbu	s1,1710(sp)
   14d90:	32a11223          	sh	a0,804(sp)
   14d94:	32c10323          	sb	a2,806(sp)
   14d98:	6af10593          	addi	a1,sp,1711
   14d9c:	64410513          	addi	a0,sp,1604
   14da0:	05a00613          	li	a2,90
   14da4:	00003097          	auipc	ra,0x3
   14da8:	080080e7          	jalr	128(ra) # 17e24 <memcpy>
   14dac:	4601                	li	a2,0
   14dae:	4681                	li	a3,0
   14db0:	1b600513          	li	a0,438
   14db4:	45a1                	li	a1,8
   14db6:	470d                	li	a4,3
   14db8:	00000073          	ecall
   14dbc:	1b600513          	li	a0,438
   14dc0:	4589                	li	a1,2
   14dc2:	4711                	li	a4,4
   14dc4:	4601                	li	a2,0
   14dc6:	4681                	li	a3,0
   14dc8:	00000073          	ecall
   14dcc:	6af10513          	addi	a0,sp,1711
   14dd0:	64410593          	addi	a1,sp,1604
   14dd4:	05a00613          	li	a2,90
   14dd8:	00003097          	auipc	ra,0x3
   14ddc:	04c080e7          	jalr	76(ra) # 17e24 <memcpy>
   14de0:	32411503          	lh	a0,804(sp)
   14de4:	32614583          	lbu	a1,806(sp)
   14de8:	00003297          	auipc	t0,0x3
   14dec:	be0282e7          	jalr	t0,-1056(t0) # 179c8 <OUTLINED_FUNCTION_7>
   14df0:	4679                	li	a2,30
   14df2:	4581                	li	a1,0
   14df4:	00003097          	auipc	ra,0x3
   14df8:	fc4080e7          	jalr	-60(ra) # 17db8 <memset>
   14dfc:	18800513          	li	a0,392
   14e00:	4591                	li	a1,4
   14e02:	6a810613          	addi	a2,sp,1704
   14e06:	06100693          	li	a3,97
   14e0a:	ffffc097          	auipc	ra,0xffffc
   14e0e:	32a080e7          	jalr	810(ra) # 11134 <_ZN9allow_pin10no_dynamic11allow_inner17h151634b71b3fc351E>
   14e12:	8905                	andi	a0,a0,1
   14e14:	e51d                	bnez	a0,14e42 <_start+0x3ce4>
   14e16:	18800513          	li	a0,392
   14e1a:	4599                	li	a1,6
   14e1c:	64410613          	addi	a2,sp,1604
   14e20:	46f9                	li	a3,30
   14e22:	ffffc097          	auipc	ra,0xffffc
   14e26:	320080e7          	jalr	800(ra) # 11142 <_ZN9allow_pin10no_dynamic11allow_inner17ha2b744c817d78427E>
   14e2a:	8905                	andi	a0,a0,1
   14e2c:	e919                	bnez	a0,14e42 <_start+0x3ce4>
   14e2e:	18800513          	li	a0,392
   14e32:	4591                	li	a1,4
   14e34:	4619                	li	a2,6
   14e36:	ffffc097          	auipc	ra,0xffffc
   14e3a:	31a080e7          	jalr	794(ra) # 11150 <_ZN9allow_pin7command17h1eb46760111c3605E>
   14e3e:	8905                	andi	a0,a0,1
   14e40:	c505                	beqz	a0,14e68 <_start+0x3d0a>
   14e42:	87ae                	mv	a5,a1
   14e44:	4601                	li	a2,0
   14e46:	4681                	li	a3,0
   14e48:	18800513          	li	a0,392
   14e4c:	4599                	li	a1,6
   14e4e:	470d                	li	a4,3
   14e50:	00000073          	ecall
   14e54:	18800513          	li	a0,392
   14e58:	4591                	li	a1,4
   14e5a:	4711                	li	a4,4
   14e5c:	4601                	li	a2,0
   14e5e:	4681                	li	a3,0
   14e60:	00000073          	ecall
   14e64:	bacfc06f          	j	11210 <_start+0xb2>
   14e68:	4601                	li	a2,0
   14e6a:	4681                	li	a3,0
   14e6c:	18800513          	li	a0,392
   14e70:	4599                	li	a1,6
   14e72:	470d                	li	a4,3
   14e74:	00000073          	ecall
   14e78:	470d                	li	a4,3
   14e7a:	18800513          	li	a0,392
   14e7e:	4599                	li	a1,6
   14e80:	4601                	li	a2,0
   14e82:	4681                	li	a3,0
   14e84:	00000073          	ecall
   14e88:	00003297          	auipc	t0,0x3
   14e8c:	a8c282e7          	jalr	t0,-1396(t0) # 17914 <OUTLINED_FUNCTION_1>
   14e90:	64a14483          	lbu	s1,1610(sp)
   14e94:	32a11423          	sh	a0,808(sp)
   14e98:	32c10523          	sb	a2,810(sp)
   14e9c:	64b10593          	addi	a1,sp,1611
   14ea0:	5ec10513          	addi	a0,sp,1516
   14ea4:	465d                	li	a2,23
   14ea6:	00003097          	auipc	ra,0x3
   14eaa:	f7e080e7          	jalr	-130(ra) # 17e24 <memcpy>
   14eae:	4601                	li	a2,0
   14eb0:	4681                	li	a3,0
   14eb2:	18800513          	li	a0,392
   14eb6:	4599                	li	a1,6
   14eb8:	470d                	li	a4,3
   14eba:	00000073          	ecall
   14ebe:	18800513          	li	a0,392
   14ec2:	4591                	li	a1,4
   14ec4:	4711                	li	a4,4
   14ec6:	4601                	li	a2,0
   14ec8:	4681                	li	a3,0
   14eca:	00000073          	ecall
   14ece:	64b10513          	addi	a0,sp,1611
   14ed2:	5ec10593          	addi	a1,sp,1516
   14ed6:	465d                	li	a2,23
   14ed8:	00003097          	auipc	ra,0x3
   14edc:	f4c080e7          	jalr	-180(ra) # 17e24 <memcpy>
   14ee0:	32811503          	lh	a0,808(sp)
   14ee4:	32a14583          	lbu	a1,810(sp)
   14ee8:	648104a3          	sb	s0,1609(sp)
   14eec:	64910523          	sb	s1,1610(sp)
   14ef0:	00003297          	auipc	t0,0x3
   14ef4:	c56282e7          	jalr	t0,-938(t0) # 17b46 <OUTLINED_FUNCTION_22>
   14ef8:	02100613          	li	a2,33
   14efc:	4581                	li	a1,0
   14efe:	00003097          	auipc	ra,0x3
   14f02:	eba080e7          	jalr	-326(ra) # 17db8 <memset>
   14f06:	6509                	lui	a0,0x2
   14f08:	4599                	li	a1,6
   14f0a:	64410613          	addi	a2,sp,1604
   14f0e:	9b550413          	addi	s0,a0,-1611 # 19b5 <.Lline_table_start1+0x178a>
   14f12:	46f9                	li	a3,30
   14f14:	8522                	mv	a0,s0
   14f16:	ffffc097          	auipc	ra,0xffffc
   14f1a:	21e080e7          	jalr	542(ra) # 11134 <_ZN9allow_pin10no_dynamic11allow_inner17h151634b71b3fc351E>
   14f1e:	8905                	andi	a0,a0,1
   14f20:	e90d                	bnez	a0,14f52 <_start+0x3df4>
   14f22:	45a5                	li	a1,9
   14f24:	6a810613          	addi	a2,sp,1704
   14f28:	02100693          	li	a3,33
   14f2c:	8522                	mv	a0,s0
   14f2e:	ffffc097          	auipc	ra,0xffffc
   14f32:	214080e7          	jalr	532(ra) # 11142 <_ZN9allow_pin10no_dynamic11allow_inner17ha2b744c817d78427E>
   14f36:	8905                	andi	a0,a0,1
   14f38:	ed09                	bnez	a0,14f52 <_start+0x3df4>
   14f3a:	6509                	lui	a0,0x2
   14f3c:	4599                	li	a1,6
   14f3e:	9b550493          	addi	s1,a0,-1611 # 19b5 <.Lline_table_start1+0x178a>
   14f42:	4625                	li	a2,9
   14f44:	8526                	mv	a0,s1
   14f46:	ffffc097          	auipc	ra,0xffffc
   14f4a:	20a080e7          	jalr	522(ra) # 11150 <_ZN9allow_pin7command17h1eb46760111c3605E>
   14f4e:	8905                	andi	a0,a0,1
   14f50:	cd19                	beqz	a0,14f6e <_start+0x3e10>
   14f52:	00003297          	auipc	t0,0x3
   14f56:	c92282e7          	jalr	t0,-878(t0) # 17be4 <OUTLINED_FUNCTION_28>
   14f5a:	00000073          	ecall
   14f5e:	00003297          	auipc	t0,0x3
   14f62:	dfa282e7          	jalr	t0,-518(t0) # 17d58 <OUTLINED_FUNCTION_55>
   14f66:	00000073          	ecall
   14f6a:	aa6fc06f          	j	11210 <_start+0xb2>
   14f6e:	00003297          	auipc	t0,0x3
   14f72:	ca0282e7          	jalr	t0,-864(t0) # 17c0e <OUTLINED_FUNCTION_31>
   14f76:	00000073          	ecall
   14f7a:	00003297          	auipc	t0,0x3
   14f7e:	cf6282e7          	jalr	t0,-778(t0) # 17c70 <OUTLINED_FUNCTION_38>
   14f82:	00000073          	ecall
   14f86:	00003297          	auipc	t0,0x3
   14f8a:	9ac282e7          	jalr	t0,-1620(t0) # 17932 <OUTLINED_FUNCTION_2>
   14f8e:	6ae14a03          	lbu	s4,1710(sp)
   14f92:	32a11623          	sh	a0,812(sp)
   14f96:	32c10723          	sb	a2,814(sp)
   14f9a:	6af10593          	addi	a1,sp,1711
   14f9e:	52c10513          	addi	a0,sp,1324
   14fa2:	4669                	li	a2,26
   14fa4:	00003097          	auipc	ra,0x3
   14fa8:	e80080e7          	jalr	-384(ra) # 17e24 <memcpy>
   14fac:	00003297          	auipc	t0,0x3
   14fb0:	c62282e7          	jalr	t0,-926(t0) # 17c0e <OUTLINED_FUNCTION_31>
   14fb4:	00000073          	ecall
   14fb8:	00003297          	auipc	t0,0x3
   14fbc:	d94282e7          	jalr	t0,-620(t0) # 17d4c <OUTLINED_FUNCTION_54>
   14fc0:	00000073          	ecall
   14fc4:	5f310513          	addi	a0,sp,1523
   14fc8:	52c10593          	addi	a1,sp,1324
   14fcc:	4669                	li	a2,26
   14fce:	00003097          	auipc	ra,0x3
   14fd2:	e56080e7          	jalr	-426(ra) # 17e24 <memcpy>
   14fd6:	32c11503          	lh	a0,812(sp)
   14fda:	32e14583          	lbu	a1,814(sp)
   14fde:	00003297          	auipc	t0,0x3
   14fe2:	ac2282e7          	jalr	t0,-1342(t0) # 17aa0 <OUTLINED_FUNCTION_15>
   14fe6:	02a00613          	li	a2,42
   14fea:	4581                	li	a1,0
   14fec:	00003097          	auipc	ra,0x3
   14ff0:	dcc080e7          	jalr	-564(ra) # 17db8 <memset>
   14ff4:	6505                	lui	a0,0x1
   14ff6:	4585                	li	a1,1
   14ff8:	5ec10613          	addi	a2,sp,1516
   14ffc:	5f350913          	addi	s2,a0,1523 # 15f3 <.Lline_table_start1+0x13c8>
   15000:	02100693          	li	a3,33
   15004:	4405                	li	s0,1
   15006:	854a                	mv	a0,s2
   15008:	ffffc097          	auipc	ra,0xffffc
   1500c:	12c080e7          	jalr	300(ra) # 11134 <_ZN9allow_pin10no_dynamic11allow_inner17h151634b71b3fc351E>
   15010:	8905                	andi	a0,a0,1
   15012:	e90d                	bnez	a0,15044 <_start+0x3ee6>
   15014:	458d                	li	a1,3
   15016:	6a810613          	addi	a2,sp,1704
   1501a:	02a00693          	li	a3,42
   1501e:	854a                	mv	a0,s2
   15020:	ffffc097          	auipc	ra,0xffffc
   15024:	122080e7          	jalr	290(ra) # 11142 <_ZN9allow_pin10no_dynamic11allow_inner17ha2b744c817d78427E>
   15028:	8905                	andi	a0,a0,1
   1502a:	ed09                	bnez	a0,15044 <_start+0x3ee6>
   1502c:	6985                	lui	s3,0x1
   1502e:	4585                	li	a1,1
   15030:	5f398493          	addi	s1,s3,1523 # 15f3 <.Lline_table_start1+0x13c8>
   15034:	460d                	li	a2,3
   15036:	8526                	mv	a0,s1
   15038:	ffffc097          	auipc	ra,0xffffc
   1503c:	118080e7          	jalr	280(ra) # 11150 <_ZN9allow_pin7command17h1eb46760111c3605E>
   15040:	8905                	andi	a0,a0,1
   15042:	c115                	beqz	a0,15066 <_start+0x3f08>
   15044:	87ae                	mv	a5,a1
   15046:	854a                	mv	a0,s2
   15048:	4601                	li	a2,0
   1504a:	4681                	li	a3,0
   1504c:	458d                	li	a1,3
   1504e:	470d                	li	a4,3
   15050:	00000073          	ecall
   15054:	4585                	li	a1,1
   15056:	4711                	li	a4,4
   15058:	854a                	mv	a0,s2
   1505a:	4601                	li	a2,0
   1505c:	4681                	li	a3,0
   1505e:	00000073          	ecall
   15062:	9b0fc06f          	j	11212 <_start+0xb4>
   15066:	00003297          	auipc	t0,0x3
   1506a:	bb4282e7          	jalr	t0,-1100(t0) # 17c1a <OUTLINED_FUNCTION_32>
   1506e:	00000073          	ecall
   15072:	00003297          	auipc	t0,0x3
   15076:	c22282e7          	jalr	t0,-990(t0) # 17c94 <OUTLINED_FUNCTION_41>
   1507a:	00000073          	ecall
   1507e:	00003297          	auipc	t0,0x3
   15082:	a56282e7          	jalr	t0,-1450(t0) # 17ad4 <OUTLINED_FUNCTION_17>
   15086:	6ac14a03          	lbu	s4,1708(sp)
   1508a:	6ad14a83          	lbu	s5,1709(sp)
   1508e:	6ae14b03          	lbu	s6,1710(sp)
   15092:	32a11823          	sh	a0,816(sp)
   15096:	32c10923          	sb	a2,818(sp)
   1509a:	6af10593          	addi	a1,sp,1711
   1509e:	64410513          	addi	a0,sp,1604
   150a2:	02300613          	li	a2,35
   150a6:	00003097          	auipc	ra,0x3
   150aa:	d7e080e7          	jalr	-642(ra) # 17e24 <memcpy>
   150ae:	00003297          	auipc	t0,0x3
   150b2:	b6c282e7          	jalr	t0,-1172(t0) # 17c1a <OUTLINED_FUNCTION_32>
   150b6:	00000073          	ecall
   150ba:	4585                	li	a1,1
   150bc:	4711                	li	a4,4
   150be:	8526                	mv	a0,s1
   150c0:	4601                	li	a2,0
   150c2:	4681                	li	a3,0
   150c4:	00000073          	ecall
   150c8:	4405                	li	s0,1
   150ca:	5f310513          	addi	a0,sp,1523
   150ce:	64410593          	addi	a1,sp,1604
   150d2:	02300613          	li	a2,35
   150d6:	00003097          	auipc	ra,0x3
   150da:	d4e080e7          	jalr	-690(ra) # 17e24 <memcpy>
   150de:	33011503          	lh	a0,816(sp)
   150e2:	33214583          	lbu	a1,818(sp)
   150e6:	5f5108a3          	sb	s5,1521(sp)
   150ea:	5f610923          	sb	s6,1522(sp)
   150ee:	00003297          	auipc	t0,0x3
   150f2:	bfa282e7          	jalr	t0,-1030(t0) # 17ce8 <OUTLINED_FUNCTION_48>
   150f6:	05900613          	li	a2,89
   150fa:	4581                	li	a1,0
   150fc:	00003097          	auipc	ra,0x3
   15100:	cbc080e7          	jalr	-836(ra) # 17db8 <memset>
   15104:	ed298513          	addi	a0,s3,-302
   15108:	4585                	li	a1,1
   1510a:	5ec10613          	addi	a2,sp,1516
   1510e:	02a00693          	li	a3,42
   15112:	ffffc097          	auipc	ra,0xffffc
   15116:	022080e7          	jalr	34(ra) # 11134 <_ZN9allow_pin10no_dynamic11allow_inner17h151634b71b3fc351E>
   1511a:	8905                	andi	a0,a0,1
   1511c:	e90d                	bnez	a0,1514e <_start+0x3ff0>
   1511e:	6505                	lui	a0,0x1
   15120:	458d                	li	a1,3
   15122:	6a810613          	addi	a2,sp,1704
   15126:	ed250493          	addi	s1,a0,-302 # ed2 <.Lline_table_start1+0xca7>
   1512a:	05900693          	li	a3,89
   1512e:	8526                	mv	a0,s1
   15130:	ffffc097          	auipc	ra,0xffffc
   15134:	012080e7          	jalr	18(ra) # 11142 <_ZN9allow_pin10no_dynamic11allow_inner17ha2b744c817d78427E>
   15138:	8905                	andi	a0,a0,1
   1513a:	e911                	bnez	a0,1514e <_start+0x3ff0>
   1513c:	4585                	li	a1,1
   1513e:	460d                	li	a2,3
   15140:	8526                	mv	a0,s1
   15142:	ffffc097          	auipc	ra,0xffffc
   15146:	00e080e7          	jalr	14(ra) # 11150 <_ZN9allow_pin7command17h1eb46760111c3605E>
   1514a:	8905                	andi	a0,a0,1
   1514c:	c50d                	beqz	a0,15176 <_start+0x4018>
   1514e:	87ae                	mv	a5,a1
   15150:	4601                	li	a2,0
   15152:	4681                	li	a3,0
   15154:	6505                	lui	a0,0x1
   15156:	458d                	li	a1,3
   15158:	ed250493          	addi	s1,a0,-302 # ed2 <.Lline_table_start1+0xca7>
   1515c:	470d                	li	a4,3
   1515e:	8526                	mv	a0,s1
   15160:	00000073          	ecall
   15164:	4585                	li	a1,1
   15166:	4711                	li	a4,4
   15168:	8526                	mv	a0,s1
   1516a:	4601                	li	a2,0
   1516c:	4681                	li	a3,0
   1516e:	00000073          	ecall
   15172:	8a0fc06f          	j	11212 <_start+0xb4>
   15176:	4601                	li	a2,0
   15178:	4681                	li	a3,0
   1517a:	6905                	lui	s2,0x1
   1517c:	458d                	li	a1,3
   1517e:	ed290413          	addi	s0,s2,-302 # ed2 <.Lline_table_start1+0xca7>
   15182:	470d                	li	a4,3
   15184:	8522                	mv	a0,s0
   15186:	00000073          	ecall
   1518a:	00003297          	auipc	t0,0x3
   1518e:	b16282e7          	jalr	t0,-1258(t0) # 17ca0 <OUTLINED_FUNCTION_42>
   15192:	00000073          	ecall
   15196:	00002297          	auipc	t0,0x2
   1519a:	7ba282e7          	jalr	t0,1978(t0) # 17950 <OUTLINED_FUNCTION_3>
   1519e:	32a11a23          	sh	a0,820(sp)
   151a2:	32c10b23          	sb	a2,822(sp)
   151a6:	6af10593          	addi	a1,sp,1711
   151aa:	64410513          	addi	a0,sp,1604
   151ae:	05200613          	li	a2,82
   151b2:	00003097          	auipc	ra,0x3
   151b6:	c72080e7          	jalr	-910(ra) # 17e24 <memcpy>
   151ba:	00003297          	auipc	t0,0x3
   151be:	a92282e7          	jalr	t0,-1390(t0) # 17c4c <OUTLINED_FUNCTION_35>
   151c2:	00000073          	ecall
   151c6:	4585                	li	a1,1
   151c8:	4711                	li	a4,4
   151ca:	8522                	mv	a0,s0
   151cc:	4601                	li	a2,0
   151ce:	4681                	li	a3,0
   151d0:	00000073          	ecall
   151d4:	4405                	li	s0,1
   151d6:	6af10513          	addi	a0,sp,1711
   151da:	64410593          	addi	a1,sp,1604
   151de:	05200613          	li	a2,82
   151e2:	00003097          	auipc	ra,0x3
   151e6:	c42080e7          	jalr	-958(ra) # 17e24 <memcpy>
   151ea:	33411503          	lh	a0,820(sp)
   151ee:	33614583          	lbu	a1,822(sp)
   151f2:	00003297          	auipc	t0,0x3
   151f6:	82c282e7          	jalr	t0,-2004(t0) # 17a1e <OUTLINED_FUNCTION_10>
   151fa:	64410513          	addi	a0,sp,1604
   151fe:	04a00613          	li	a2,74
   15202:	4581                	li	a1,0
   15204:	00003097          	auipc	ra,0x3
   15208:	bb4080e7          	jalr	-1100(ra) # 17db8 <memset>
   1520c:	48490913          	addi	s2,s2,1156
   15210:	6a810613          	addi	a2,sp,1704
   15214:	05900693          	li	a3,89
   15218:	854a                	mv	a0,s2
   1521a:	4581                	li	a1,0
   1521c:	ffffc097          	auipc	ra,0xffffc
   15220:	f18080e7          	jalr	-232(ra) # 11134 <_ZN9allow_pin10no_dynamic11allow_inner17h151634b71b3fc351E>
   15224:	8905                	andi	a0,a0,1
   15226:	e90d                	bnez	a0,15258 <_start+0x40fa>
   15228:	4591                	li	a1,4
   1522a:	64410613          	addi	a2,sp,1604
   1522e:	04a00693          	li	a3,74
   15232:	854a                	mv	a0,s2
   15234:	ffffc097          	auipc	ra,0xffffc
   15238:	f0e080e7          	jalr	-242(ra) # 11142 <_ZN9allow_pin10no_dynamic11allow_inner17ha2b744c817d78427E>
   1523c:	8905                	andi	a0,a0,1
   1523e:	ed09                	bnez	a0,15258 <_start+0x40fa>
   15240:	6985                	lui	s3,0x1
   15242:	48498493          	addi	s1,s3,1156 # 1484 <.Lline_table_start1+0x1259>
   15246:	4611                	li	a2,4
   15248:	8526                	mv	a0,s1
   1524a:	4581                	li	a1,0
   1524c:	ffffc097          	auipc	ra,0xffffc
   15250:	f04080e7          	jalr	-252(ra) # 11150 <_ZN9allow_pin7command17h1eb46760111c3605E>
   15254:	8905                	andi	a0,a0,1
   15256:	c115                	beqz	a0,1527a <_start+0x411c>
   15258:	87ae                	mv	a5,a1
   1525a:	4591                	li	a1,4
   1525c:	470d                	li	a4,3
   1525e:	854a                	mv	a0,s2
   15260:	4601                	li	a2,0
   15262:	4681                	li	a3,0
   15264:	00000073          	ecall
   15268:	4711                	li	a4,4
   1526a:	854a                	mv	a0,s2
   1526c:	4581                	li	a1,0
   1526e:	4601                	li	a2,0
   15270:	4681                	li	a3,0
   15272:	00000073          	ecall
   15276:	f9dfb06f          	j	11212 <_start+0xb4>
   1527a:	8526                	mv	a0,s1
   1527c:	4601                	li	a2,0
   1527e:	4681                	li	a3,0
   15280:	4591                	li	a1,4
   15282:	470d                	li	a4,3
   15284:	00000073          	ecall
   15288:	470d                	li	a4,3
   1528a:	4591                	li	a1,4
   1528c:	8526                	mv	a0,s1
   1528e:	4601                	li	a2,0
   15290:	4681                	li	a3,0
   15292:	00000073          	ecall
   15296:	00003297          	auipc	t0,0x3
   1529a:	828282e7          	jalr	t0,-2008(t0) # 17abe <OUTLINED_FUNCTION_16>
   1529e:	64814a03          	lbu	s4,1608(sp)
   152a2:	64914403          	lbu	s0,1609(sp)
   152a6:	64a14a83          	lbu	s5,1610(sp)
   152aa:	32a11c23          	sh	a0,824(sp)
   152ae:	32c10d23          	sb	a2,826(sp)
   152b2:	64b10593          	addi	a1,sp,1611
   152b6:	5ec10513          	addi	a0,sp,1516
   152ba:	04300613          	li	a2,67
   152be:	00003097          	auipc	ra,0x3
   152c2:	b66080e7          	jalr	-1178(ra) # 17e24 <memcpy>
   152c6:	4591                	li	a1,4
   152c8:	470d                	li	a4,3
   152ca:	8526                	mv	a0,s1
   152cc:	4601                	li	a2,0
   152ce:	4681                	li	a3,0
   152d0:	00000073          	ecall
   152d4:	00003297          	auipc	t0,0x3
   152d8:	9d8282e7          	jalr	t0,-1576(t0) # 17cac <OUTLINED_FUNCTION_43>
   152dc:	00000073          	ecall
   152e0:	6af10513          	addi	a0,sp,1711
   152e4:	5ec10593          	addi	a1,sp,1516
   152e8:	04300613          	li	a2,67
   152ec:	00003097          	auipc	ra,0x3
   152f0:	b38080e7          	jalr	-1224(ra) # 17e24 <memcpy>
   152f4:	33811503          	lh	a0,824(sp)
   152f8:	33a14583          	lbu	a1,826(sp)
   152fc:	6a8106a3          	sb	s0,1709(sp)
   15300:	6b510723          	sb	s5,1710(sp)
   15304:	6aa11423          	sh	a0,1704(sp)
   15308:	6ab10523          	sb	a1,1706(sp)
   1530c:	6b2105a3          	sb	s2,1707(sp)
   15310:	6b410623          	sb	s4,1708(sp)
   15314:	64410513          	addi	a0,sp,1604
   15318:	02d00613          	li	a2,45
   1531c:	4581                	li	a1,0
   1531e:	00003097          	auipc	ra,0x3
   15322:	a9a080e7          	jalr	-1382(ra) # 17db8 <memset>
   15326:	e3d98513          	addi	a0,s3,-451
   1532a:	4589                	li	a1,2
   1532c:	6a810613          	addi	a2,sp,1704
   15330:	04a00693          	li	a3,74
   15334:	ffffc097          	auipc	ra,0xffffc
   15338:	e00080e7          	jalr	-512(ra) # 11134 <_ZN9allow_pin10no_dynamic11allow_inner17h151634b71b3fc351E>
   1533c:	8905                	andi	a0,a0,1
   1533e:	e90d                	bnez	a0,15370 <_start+0x4212>
   15340:	6505                	lui	a0,0x1
   15342:	458d                	li	a1,3
   15344:	64410613          	addi	a2,sp,1604
   15348:	e3d50413          	addi	s0,a0,-451 # e3d <.Lline_table_start1+0xc12>
   1534c:	02d00693          	li	a3,45
   15350:	8522                	mv	a0,s0
   15352:	ffffc097          	auipc	ra,0xffffc
   15356:	df0080e7          	jalr	-528(ra) # 11142 <_ZN9allow_pin10no_dynamic11allow_inner17ha2b744c817d78427E>
   1535a:	8905                	andi	a0,a0,1
   1535c:	e911                	bnez	a0,15370 <_start+0x4212>
   1535e:	4589                	li	a1,2
   15360:	460d                	li	a2,3
   15362:	8522                	mv	a0,s0
   15364:	ffffc097          	auipc	ra,0xffffc
   15368:	dec080e7          	jalr	-532(ra) # 11150 <_ZN9allow_pin7command17h1eb46760111c3605E>
   1536c:	8905                	andi	a0,a0,1
   1536e:	c50d                	beqz	a0,15398 <_start+0x423a>
   15370:	87ae                	mv	a5,a1
   15372:	4601                	li	a2,0
   15374:	4681                	li	a3,0
   15376:	6505                	lui	a0,0x1
   15378:	458d                	li	a1,3
   1537a:	e3d50493          	addi	s1,a0,-451 # e3d <.Lline_table_start1+0xc12>
   1537e:	470d                	li	a4,3
   15380:	8526                	mv	a0,s1
   15382:	00000073          	ecall
   15386:	4589                	li	a1,2
   15388:	4711                	li	a4,4
   1538a:	8526                	mv	a0,s1
   1538c:	4601                	li	a2,0
   1538e:	4681                	li	a3,0
   15390:	00000073          	ecall
   15394:	e7dfb06f          	j	11210 <_start+0xb2>
   15398:	4601                	li	a2,0
   1539a:	4681                	li	a3,0
   1539c:	6905                	lui	s2,0x1
   1539e:	458d                	li	a1,3
   153a0:	e3d90413          	addi	s0,s2,-451 # e3d <.Lline_table_start1+0xc12>
   153a4:	470d                	li	a4,3
   153a6:	8522                	mv	a0,s0
   153a8:	00000073          	ecall
   153ac:	00003297          	auipc	t0,0x3
   153b0:	8f4282e7          	jalr	t0,-1804(t0) # 17ca0 <OUTLINED_FUNCTION_42>
   153b4:	00000073          	ecall
   153b8:	00002297          	auipc	t0,0x2
   153bc:	680282e7          	jalr	t0,1664(t0) # 17a38 <OUTLINED_FUNCTION_11>
   153c0:	64914483          	lbu	s1,1609(sp)
   153c4:	64a14a83          	lbu	s5,1610(sp)
   153c8:	32a11e23          	sh	a0,828(sp)
   153cc:	32c10f23          	sb	a2,830(sp)
   153d0:	64b10593          	addi	a1,sp,1611
   153d4:	5ec10513          	addi	a0,sp,1516
   153d8:	02600613          	li	a2,38
   153dc:	00003097          	auipc	ra,0x3
   153e0:	a48080e7          	jalr	-1464(ra) # 17e24 <memcpy>
   153e4:	00003297          	auipc	t0,0x3
   153e8:	868282e7          	jalr	t0,-1944(t0) # 17c4c <OUTLINED_FUNCTION_35>
   153ec:	00000073          	ecall
   153f0:	00003297          	auipc	t0,0x3
   153f4:	8c8282e7          	jalr	t0,-1848(t0) # 17cb8 <OUTLINED_FUNCTION_44>
   153f8:	00000073          	ecall
   153fc:	64b10513          	addi	a0,sp,1611
   15400:	5ec10593          	addi	a1,sp,1516
   15404:	02600613          	li	a2,38
   15408:	00003097          	auipc	ra,0x3
   1540c:	a1c080e7          	jalr	-1508(ra) # 17e24 <memcpy>
   15410:	33c11503          	lh	a0,828(sp)
   15414:	33e14583          	lbu	a1,830(sp)
   15418:	649104a3          	sb	s1,1609(sp)
   1541c:	00002297          	auipc	t0,0x2
   15420:	740282e7          	jalr	t0,1856(t0) # 17b5c <OUTLINED_FUNCTION_23>
   15424:	05300613          	li	a2,83
   15428:	4581                	li	a1,0
   1542a:	00003097          	auipc	ra,0x3
   1542e:	98e080e7          	jalr	-1650(ra) # 17db8 <memset>
   15432:	ec390413          	addi	s0,s2,-317
   15436:	4589                	li	a1,2
   15438:	64410613          	addi	a2,sp,1604
   1543c:	02d00693          	li	a3,45
   15440:	8522                	mv	a0,s0
   15442:	ffffc097          	auipc	ra,0xffffc
   15446:	cf2080e7          	jalr	-782(ra) # 11134 <_ZN9allow_pin10no_dynamic11allow_inner17h151634b71b3fc351E>
   1544a:	8905                	andi	a0,a0,1
   1544c:	e90d                	bnez	a0,1547e <_start+0x4320>
   1544e:	459d                	li	a1,7
   15450:	6a810613          	addi	a2,sp,1704
   15454:	05300693          	li	a3,83
   15458:	8522                	mv	a0,s0
   1545a:	ffffc097          	auipc	ra,0xffffc
   1545e:	ce8080e7          	jalr	-792(ra) # 11142 <_ZN9allow_pin10no_dynamic11allow_inner17ha2b744c817d78427E>
   15462:	8905                	andi	a0,a0,1
   15464:	ed09                	bnez	a0,1547e <_start+0x4320>
   15466:	6505                	lui	a0,0x1
   15468:	4589                	li	a1,2
   1546a:	ec350493          	addi	s1,a0,-317 # ec3 <.Lline_table_start1+0xc98>
   1546e:	461d                	li	a2,7
   15470:	8526                	mv	a0,s1
   15472:	ffffc097          	auipc	ra,0xffffc
   15476:	cde080e7          	jalr	-802(ra) # 11150 <_ZN9allow_pin7command17h1eb46760111c3605E>
   1547a:	8905                	andi	a0,a0,1
   1547c:	c10d                	beqz	a0,1549e <_start+0x4340>
   1547e:	87ae                	mv	a5,a1
   15480:	8522                	mv	a0,s0
   15482:	4601                	li	a2,0
   15484:	4681                	li	a3,0
   15486:	459d                	li	a1,7
   15488:	470d                	li	a4,3
   1548a:	00000073          	ecall
   1548e:	00003297          	auipc	t0,0x3
   15492:	82a282e7          	jalr	t0,-2006(t0) # 17cb8 <OUTLINED_FUNCTION_44>
   15496:	00000073          	ecall
   1549a:	d77fb06f          	j	11210 <_start+0xb2>
   1549e:	8526                	mv	a0,s1
   154a0:	4601                	li	a2,0
   154a2:	4681                	li	a3,0
   154a4:	459d                	li	a1,7
   154a6:	470d                	li	a4,3
   154a8:	00000073          	ecall
   154ac:	470d                	li	a4,3
   154ae:	459d                	li	a1,7
   154b0:	8526                	mv	a0,s1
   154b2:	4601                	li	a2,0
   154b4:	4681                	li	a3,0
   154b6:	00000073          	ecall
   154ba:	00002297          	auipc	t0,0x2
   154be:	478282e7          	jalr	t0,1144(t0) # 17932 <OUTLINED_FUNCTION_2>
   154c2:	6ae14a03          	lbu	s4,1710(sp)
   154c6:	38a11623          	sh	a0,908(sp)
   154ca:	38c10723          	sb	a2,910(sp)
   154ce:	6af10593          	addi	a1,sp,1711
   154d2:	0688                	addi	a0,sp,832
   154d4:	04c00613          	li	a2,76
   154d8:	00003097          	auipc	ra,0x3
   154dc:	94c080e7          	jalr	-1716(ra) # 17e24 <memcpy>
   154e0:	8526                	mv	a0,s1
   154e2:	4601                	li	a2,0
   154e4:	4681                	li	a3,0
   154e6:	459d                	li	a1,7
   154e8:	470d                	li	a4,3
   154ea:	00000073          	ecall
   154ee:	4711                	li	a4,4
   154f0:	4589                	li	a1,2
   154f2:	8526                	mv	a0,s1
   154f4:	4601                	li	a2,0
   154f6:	4681                	li	a3,0
   154f8:	00000073          	ecall
   154fc:	38c11503          	lh	a0,908(sp)
   15500:	38e14583          	lbu	a1,910(sp)
   15504:	00002297          	auipc	t0,0x2
   15508:	54e282e7          	jalr	t0,1358(t0) # 17a52 <OUTLINED_FUNCTION_12>
   1550c:	6af10513          	addi	a0,sp,1711
   15510:	068c                	addi	a1,sp,832
   15512:	04c00613          	li	a2,76
   15516:	00003097          	auipc	ra,0x3
   1551a:	90e080e7          	jalr	-1778(ra) # 17e24 <memcpy>
   1551e:	64410513          	addi	a0,sp,1604
   15522:	03a00613          	li	a2,58
   15526:	4581                	li	a1,0
   15528:	00003097          	auipc	ra,0x3
   1552c:	890080e7          	jalr	-1904(ra) # 17db8 <memset>
   15530:	6509                	lui	a0,0x2
   15532:	4599                	li	a1,6
   15534:	6a810613          	addi	a2,sp,1704
   15538:	64550413          	addi	s0,a0,1605 # 2645 <.Lline_table_start1+0x241a>
   1553c:	05300693          	li	a3,83
   15540:	8522                	mv	a0,s0
   15542:	ffffc097          	auipc	ra,0xffffc
   15546:	bf2080e7          	jalr	-1038(ra) # 11134 <_ZN9allow_pin10no_dynamic11allow_inner17h151634b71b3fc351E>
   1554a:	8905                	andi	a0,a0,1
   1554c:	e90d                	bnez	a0,1557e <_start+0x4420>
   1554e:	459d                	li	a1,7
   15550:	64410613          	addi	a2,sp,1604
   15554:	03a00693          	li	a3,58
   15558:	8522                	mv	a0,s0
   1555a:	ffffc097          	auipc	ra,0xffffc
   1555e:	be8080e7          	jalr	-1048(ra) # 11142 <_ZN9allow_pin10no_dynamic11allow_inner17ha2b744c817d78427E>
   15562:	8905                	andi	a0,a0,1
   15564:	ed09                	bnez	a0,1557e <_start+0x4420>
   15566:	6509                	lui	a0,0x2
   15568:	4599                	li	a1,6
   1556a:	64550493          	addi	s1,a0,1605 # 2645 <.Lline_table_start1+0x241a>
   1556e:	461d                	li	a2,7
   15570:	8526                	mv	a0,s1
   15572:	ffffc097          	auipc	ra,0xffffc
   15576:	bde080e7          	jalr	-1058(ra) # 11150 <_ZN9allow_pin7command17h1eb46760111c3605E>
   1557a:	8905                	andi	a0,a0,1
   1557c:	c10d                	beqz	a0,1559e <_start+0x4440>
   1557e:	87ae                	mv	a5,a1
   15580:	8522                	mv	a0,s0
   15582:	4601                	li	a2,0
   15584:	4681                	li	a3,0
   15586:	459d                	li	a1,7
   15588:	470d                	li	a4,3
   1558a:	00000073          	ecall
   1558e:	00002297          	auipc	t0,0x2
   15592:	7ca282e7          	jalr	t0,1994(t0) # 17d58 <OUTLINED_FUNCTION_55>
   15596:	00000073          	ecall
   1559a:	c77fb06f          	j	11210 <_start+0xb2>
   1559e:	8526                	mv	a0,s1
   155a0:	4601                	li	a2,0
   155a2:	4681                	li	a3,0
   155a4:	459d                	li	a1,7
   155a6:	470d                	li	a4,3
   155a8:	00000073          	ecall
   155ac:	470d                	li	a4,3
   155ae:	459d                	li	a1,7
   155b0:	8526                	mv	a0,s1
   155b2:	4601                	li	a2,0
   155b4:	4681                	li	a3,0
   155b6:	00000073          	ecall
   155ba:	00002297          	auipc	t0,0x2
   155be:	338282e7          	jalr	t0,824(t0) # 178f2 <OUTLINED_FUNCTION_0>
   155c2:	38a11823          	sh	a0,912(sp)
   155c6:	38c10923          	sb	a2,914(sp)
   155ca:	64b10593          	addi	a1,sp,1611
   155ce:	52c10513          	addi	a0,sp,1324
   155d2:	03300613          	li	a2,51
   155d6:	00003097          	auipc	ra,0x3
   155da:	84e080e7          	jalr	-1970(ra) # 17e24 <memcpy>
   155de:	8526                	mv	a0,s1
   155e0:	4601                	li	a2,0
   155e2:	4681                	li	a3,0
   155e4:	459d                	li	a1,7
   155e6:	470d                	li	a4,3
   155e8:	00000073          	ecall
   155ec:	00002297          	auipc	t0,0x2
   155f0:	760282e7          	jalr	t0,1888(t0) # 17d4c <OUTLINED_FUNCTION_54>
   155f4:	00000073          	ecall
   155f8:	5f310513          	addi	a0,sp,1523
   155fc:	52c10593          	addi	a1,sp,1324
   15600:	03300613          	li	a2,51
   15604:	00003097          	auipc	ra,0x3
   15608:	820080e7          	jalr	-2016(ra) # 17e24 <memcpy>
   1560c:	39011503          	lh	a0,912(sp)
   15610:	39214583          	lbu	a1,914(sp)
   15614:	00002297          	auipc	t0,0x2
   15618:	48c282e7          	jalr	t0,1164(t0) # 17aa0 <OUTLINED_FUNCTION_15>
   1561c:	05d00613          	li	a2,93
   15620:	4581                	li	a1,0
   15622:	00002097          	auipc	ra,0x2
   15626:	796080e7          	jalr	1942(ra) # 17db8 <memset>
   1562a:	6505                	lui	a0,0x1
   1562c:	5ec10613          	addi	a2,sp,1516
   15630:	4a450493          	addi	s1,a0,1188 # 14a4 <.Lline_table_start1+0x1279>
   15634:	03a00693          	li	a3,58
   15638:	8526                	mv	a0,s1
   1563a:	4581                	li	a1,0
   1563c:	ffffc097          	auipc	ra,0xffffc
   15640:	af8080e7          	jalr	-1288(ra) # 11134 <_ZN9allow_pin10no_dynamic11allow_inner17h151634b71b3fc351E>
   15644:	8905                	andi	a0,a0,1
   15646:	e90d                	bnez	a0,15678 <_start+0x451a>
   15648:	4595                	li	a1,5
   1564a:	6a810613          	addi	a2,sp,1704
   1564e:	05d00693          	li	a3,93
   15652:	8526                	mv	a0,s1
   15654:	ffffc097          	auipc	ra,0xffffc
   15658:	aee080e7          	jalr	-1298(ra) # 11142 <_ZN9allow_pin10no_dynamic11allow_inner17ha2b744c817d78427E>
   1565c:	8905                	andi	a0,a0,1
   1565e:	ed09                	bnez	a0,15678 <_start+0x451a>
   15660:	6905                	lui	s2,0x1
   15662:	4a490413          	addi	s0,s2,1188 # 14a4 <.Lline_table_start1+0x1279>
   15666:	4615                	li	a2,5
   15668:	8522                	mv	a0,s0
   1566a:	4581                	li	a1,0
   1566c:	ffffc097          	auipc	ra,0xffffc
   15670:	ae4080e7          	jalr	-1308(ra) # 11150 <_ZN9allow_pin7command17h1eb46760111c3605E>
   15674:	8905                	andi	a0,a0,1
   15676:	c10d                	beqz	a0,15698 <_start+0x453a>
   15678:	87ae                	mv	a5,a1
   1567a:	4595                	li	a1,5
   1567c:	470d                	li	a4,3
   1567e:	8526                	mv	a0,s1
   15680:	4601                	li	a2,0
   15682:	4681                	li	a3,0
   15684:	00000073          	ecall
   15688:	00002297          	auipc	t0,0x2
   1568c:	624282e7          	jalr	t0,1572(t0) # 17cac <OUTLINED_FUNCTION_43>
   15690:	00000073          	ecall
   15694:	b7dfb06f          	j	11210 <_start+0xb2>
   15698:	00002297          	auipc	t0,0x2
   1569c:	6f0282e7          	jalr	t0,1776(t0) # 17d88 <OUTLINED_FUNCTION_59>
   156a0:	00000073          	ecall
   156a4:	470d                	li	a4,3
   156a6:	4595                	li	a1,5
   156a8:	8522                	mv	a0,s0
   156aa:	4601                	li	a2,0
   156ac:	4681                	li	a3,0
   156ae:	00000073          	ecall
   156b2:	00002297          	auipc	t0,0x2
   156b6:	29e282e7          	jalr	t0,670(t0) # 17950 <OUTLINED_FUNCTION_3>
   156ba:	38a11a23          	sh	a0,916(sp)
   156be:	38c10b23          	sb	a2,918(sp)
   156c2:	6af10593          	addi	a1,sp,1711
   156c6:	64410513          	addi	a0,sp,1604
   156ca:	05600613          	li	a2,86
   156ce:	00002097          	auipc	ra,0x2
   156d2:	756080e7          	jalr	1878(ra) # 17e24 <memcpy>
   156d6:	4595                	li	a1,5
   156d8:	470d                	li	a4,3
   156da:	8522                	mv	a0,s0
   156dc:	4601                	li	a2,0
   156de:	4681                	li	a3,0
   156e0:	00000073          	ecall
   156e4:	00002297          	auipc	t0,0x2
   156e8:	6c8282e7          	jalr	t0,1736(t0) # 17dac <OUTLINED_FUNCTION_62>
   156ec:	00000073          	ecall
   156f0:	6af10513          	addi	a0,sp,1711
   156f4:	64410593          	addi	a1,sp,1604
   156f8:	05600613          	li	a2,86
   156fc:	00002097          	auipc	ra,0x2
   15700:	728080e7          	jalr	1832(ra) # 17e24 <memcpy>
   15704:	39411503          	lh	a0,916(sp)
   15708:	39614583          	lbu	a1,918(sp)
   1570c:	00002297          	auipc	t0,0x2
   15710:	312282e7          	jalr	t0,786(t0) # 17a1e <OUTLINED_FUNCTION_10>
   15714:	64410513          	addi	a0,sp,1604
   15718:	04000613          	li	a2,64
   1571c:	4581                	li	a1,0
   1571e:	00002097          	auipc	ra,0x2
   15722:	69a080e7          	jalr	1690(ra) # 17db8 <memset>
   15726:	02890513          	addi	a0,s2,40
   1572a:	45a1                	li	a1,8
   1572c:	6a810613          	addi	a2,sp,1704
   15730:	05d00693          	li	a3,93
   15734:	ffffc097          	auipc	ra,0xffffc
   15738:	a00080e7          	jalr	-1536(ra) # 11134 <_ZN9allow_pin10no_dynamic11allow_inner17h151634b71b3fc351E>
   1573c:	8905                	andi	a0,a0,1
   1573e:	e90d                	bnez	a0,15770 <_start+0x4612>
   15740:	6505                	lui	a0,0x1
   15742:	4591                	li	a1,4
   15744:	64410613          	addi	a2,sp,1604
   15748:	02850413          	addi	s0,a0,40 # 1028 <.Lline_table_start1+0xdfd>
   1574c:	04000693          	li	a3,64
   15750:	8522                	mv	a0,s0
   15752:	ffffc097          	auipc	ra,0xffffc
   15756:	9f0080e7          	jalr	-1552(ra) # 11142 <_ZN9allow_pin10no_dynamic11allow_inner17ha2b744c817d78427E>
   1575a:	8905                	andi	a0,a0,1
   1575c:	e911                	bnez	a0,15770 <_start+0x4612>
   1575e:	45a1                	li	a1,8
   15760:	4611                	li	a2,4
   15762:	8522                	mv	a0,s0
   15764:	ffffc097          	auipc	ra,0xffffc
   15768:	9ec080e7          	jalr	-1556(ra) # 11150 <_ZN9allow_pin7command17h1eb46760111c3605E>
   1576c:	8905                	andi	a0,a0,1
   1576e:	c505                	beqz	a0,15796 <_start+0x4638>
   15770:	87ae                	mv	a5,a1
   15772:	4601                	li	a2,0
   15774:	4681                	li	a3,0
   15776:	6505                	lui	a0,0x1
   15778:	4591                	li	a1,4
   1577a:	02850493          	addi	s1,a0,40 # 1028 <.Lline_table_start1+0xdfd>
   1577e:	470d                	li	a4,3
   15780:	8526                	mv	a0,s1
   15782:	00000073          	ecall
   15786:	00002297          	auipc	t0,0x2
   1578a:	5de282e7          	jalr	t0,1502(t0) # 17d64 <OUTLINED_FUNCTION_56>
   1578e:	00000073          	ecall
   15792:	a7ffb06f          	j	11210 <_start+0xb2>
   15796:	4601                	li	a2,0
   15798:	4681                	li	a3,0
   1579a:	6905                	lui	s2,0x1
   1579c:	4591                	li	a1,4
   1579e:	02890413          	addi	s0,s2,40 # 1028 <.Lline_table_start1+0xdfd>
   157a2:	470d                	li	a4,3
   157a4:	8522                	mv	a0,s0
   157a6:	00000073          	ecall
   157aa:	470d                	li	a4,3
   157ac:	4591                	li	a1,4
   157ae:	8522                	mv	a0,s0
   157b0:	4601                	li	a2,0
   157b2:	4681                	li	a3,0
   157b4:	00000073          	ecall
   157b8:	00002297          	auipc	t0,0x2
   157bc:	280282e7          	jalr	t0,640(t0) # 17a38 <OUTLINED_FUNCTION_11>
   157c0:	64914483          	lbu	s1,1609(sp)
   157c4:	64a14a83          	lbu	s5,1610(sp)
   157c8:	38a11c23          	sh	a0,920(sp)
   157cc:	38c10d23          	sb	a2,922(sp)
   157d0:	64b10593          	addi	a1,sp,1611
   157d4:	5ec10513          	addi	a0,sp,1516
   157d8:	03900613          	li	a2,57
   157dc:	00002097          	auipc	ra,0x2
   157e0:	648080e7          	jalr	1608(ra) # 17e24 <memcpy>
   157e4:	00002297          	auipc	t0,0x2
   157e8:	598282e7          	jalr	t0,1432(t0) # 17d7c <OUTLINED_FUNCTION_58>
   157ec:	00000073          	ecall
   157f0:	45a1                	li	a1,8
   157f2:	4711                	li	a4,4
   157f4:	8522                	mv	a0,s0
   157f6:	4601                	li	a2,0
   157f8:	4681                	li	a3,0
   157fa:	00000073          	ecall
   157fe:	6af10513          	addi	a0,sp,1711
   15802:	5ec10593          	addi	a1,sp,1516
   15806:	03900613          	li	a2,57
   1580a:	00002097          	auipc	ra,0x2
   1580e:	61a080e7          	jalr	1562(ra) # 17e24 <memcpy>
   15812:	39811503          	lh	a0,920(sp)
   15816:	39a14583          	lbu	a1,922(sp)
   1581a:	00002297          	auipc	t0,0x2
   1581e:	204282e7          	jalr	t0,516(t0) # 17a1e <OUTLINED_FUNCTION_10>
   15822:	64410513          	addi	a0,sp,1604
   15826:	03100613          	li	a2,49
   1582a:	4581                	li	a1,0
   1582c:	00002097          	auipc	ra,0x2
   15830:	58c080e7          	jalr	1420(ra) # 17db8 <memset>
   15834:	fce90413          	addi	s0,s2,-50
   15838:	45a1                	li	a1,8
   1583a:	6a810613          	addi	a2,sp,1704
   1583e:	04000693          	li	a3,64
   15842:	8522                	mv	a0,s0
   15844:	ffffc097          	auipc	ra,0xffffc
   15848:	8f0080e7          	jalr	-1808(ra) # 11134 <_ZN9allow_pin10no_dynamic11allow_inner17h151634b71b3fc351E>
   1584c:	8905                	andi	a0,a0,1
   1584e:	e90d                	bnez	a0,15880 <_start+0x4722>
   15850:	4595                	li	a1,5
   15852:	64410613          	addi	a2,sp,1604
   15856:	03100693          	li	a3,49
   1585a:	8522                	mv	a0,s0
   1585c:	ffffc097          	auipc	ra,0xffffc
   15860:	8e6080e7          	jalr	-1818(ra) # 11142 <_ZN9allow_pin10no_dynamic11allow_inner17ha2b744c817d78427E>
   15864:	8905                	andi	a0,a0,1
   15866:	ed09                	bnez	a0,15880 <_start+0x4722>
   15868:	6505                	lui	a0,0x1
   1586a:	45a1                	li	a1,8
   1586c:	fce50493          	addi	s1,a0,-50 # fce <.Lline_table_start1+0xda3>
   15870:	4615                	li	a2,5
   15872:	8526                	mv	a0,s1
   15874:	ffffc097          	auipc	ra,0xffffc
   15878:	8dc080e7          	jalr	-1828(ra) # 11150 <_ZN9allow_pin7command17h1eb46760111c3605E>
   1587c:	8905                	andi	a0,a0,1
   1587e:	c10d                	beqz	a0,158a0 <_start+0x4742>
   15880:	87ae                	mv	a5,a1
   15882:	00002297          	auipc	t0,0x2
   15886:	506282e7          	jalr	t0,1286(t0) # 17d88 <OUTLINED_FUNCTION_59>
   1588a:	00000073          	ecall
   1588e:	45a1                	li	a1,8
   15890:	4711                	li	a4,4
   15892:	8522                	mv	a0,s0
   15894:	4601                	li	a2,0
   15896:	4681                	li	a3,0
   15898:	00000073          	ecall
   1589c:	975fb06f          	j	11210 <_start+0xb2>
   158a0:	00002297          	auipc	t0,0x2
   158a4:	3e8282e7          	jalr	t0,1000(t0) # 17c88 <OUTLINED_FUNCTION_40>
   158a8:	00000073          	ecall
   158ac:	470d                	li	a4,3
   158ae:	4595                	li	a1,5
   158b0:	8526                	mv	a0,s1
   158b2:	4601                	li	a2,0
   158b4:	4681                	li	a3,0
   158b6:	00000073          	ecall
   158ba:	00002297          	auipc	t0,0x2
   158be:	038282e7          	jalr	t0,56(t0) # 178f2 <OUTLINED_FUNCTION_0>
   158c2:	38a11e23          	sh	a0,924(sp)
   158c6:	38c10f23          	sb	a2,926(sp)
   158ca:	64b10593          	addi	a1,sp,1611
   158ce:	52c10513          	addi	a0,sp,1324
   158d2:	02a00613          	li	a2,42
   158d6:	00002097          	auipc	ra,0x2
   158da:	54e080e7          	jalr	1358(ra) # 17e24 <memcpy>
   158de:	00002297          	auipc	t0,0x2
   158e2:	3aa282e7          	jalr	t0,938(t0) # 17c88 <OUTLINED_FUNCTION_40>
   158e6:	00000073          	ecall
   158ea:	00002297          	auipc	t0,0x2
   158ee:	47a282e7          	jalr	t0,1146(t0) # 17d64 <OUTLINED_FUNCTION_56>
   158f2:	00000073          	ecall
   158f6:	5f310513          	addi	a0,sp,1523
   158fa:	52c10593          	addi	a1,sp,1324
   158fe:	02a00613          	li	a2,42
   15902:	00002097          	auipc	ra,0x2
   15906:	522080e7          	jalr	1314(ra) # 17e24 <memcpy>
   1590a:	39c11503          	lh	a0,924(sp)
   1590e:	39e14583          	lbu	a1,926(sp)
   15912:	00002297          	auipc	t0,0x2
   15916:	18e282e7          	jalr	t0,398(t0) # 17aa0 <OUTLINED_FUNCTION_15>
   1591a:	04800613          	li	a2,72
   1591e:	4581                	li	a1,0
   15920:	00002097          	auipc	ra,0x2
   15924:	498080e7          	jalr	1176(ra) # 17db8 <memset>
   15928:	6509                	lui	a0,0x2
   1592a:	4591                	li	a1,4
   1592c:	5ec10613          	addi	a2,sp,1516
   15930:	80e50413          	addi	s0,a0,-2034 # 180e <.Lline_table_start1+0x15e3>
   15934:	03100693          	li	a3,49
   15938:	8522                	mv	a0,s0
   1593a:	ffffb097          	auipc	ra,0xffffb
   1593e:	7fa080e7          	jalr	2042(ra) # 11134 <_ZN9allow_pin10no_dynamic11allow_inner17h151634b71b3fc351E>
   15942:	8905                	andi	a0,a0,1
   15944:	e90d                	bnez	a0,15976 <_start+0x4818>
   15946:	458d                	li	a1,3
   15948:	6a810613          	addi	a2,sp,1704
   1594c:	04800693          	li	a3,72
   15950:	8522                	mv	a0,s0
   15952:	ffffb097          	auipc	ra,0xffffb
   15956:	7f0080e7          	jalr	2032(ra) # 11142 <_ZN9allow_pin10no_dynamic11allow_inner17ha2b744c817d78427E>
   1595a:	8905                	andi	a0,a0,1
   1595c:	ed09                	bnez	a0,15976 <_start+0x4818>
   1595e:	6909                	lui	s2,0x2
   15960:	4591                	li	a1,4
   15962:	80e90493          	addi	s1,s2,-2034 # 180e <.Lline_table_start1+0x15e3>
   15966:	460d                	li	a2,3
   15968:	8526                	mv	a0,s1
   1596a:	ffffb097          	auipc	ra,0xffffb
   1596e:	7e6080e7          	jalr	2022(ra) # 11150 <_ZN9allow_pin7command17h1eb46760111c3605E>
   15972:	8905                	andi	a0,a0,1
   15974:	cd19                	beqz	a0,15992 <_start+0x4834>
   15976:	00002297          	auipc	t0,0x2
   1597a:	27c282e7          	jalr	t0,636(t0) # 17bf2 <OUTLINED_FUNCTION_29>
   1597e:	00000073          	ecall
   15982:	00002297          	auipc	t0,0x2
   15986:	34e282e7          	jalr	t0,846(t0) # 17cd0 <OUTLINED_FUNCTION_46>
   1598a:	00000073          	ecall
   1598e:	883fb06f          	j	11210 <_start+0xb2>
   15992:	00002297          	auipc	t0,0x2
   15996:	288282e7          	jalr	t0,648(t0) # 17c1a <OUTLINED_FUNCTION_32>
   1599a:	00000073          	ecall
   1599e:	00002297          	auipc	t0,0x2
   159a2:	2f6282e7          	jalr	t0,758(t0) # 17c94 <OUTLINED_FUNCTION_41>
   159a6:	00000073          	ecall
   159aa:	00002297          	auipc	t0,0x2
   159ae:	05a282e7          	jalr	t0,90(t0) # 17a04 <OUTLINED_FUNCTION_9>
   159b2:	6ad14403          	lbu	s0,1709(sp)
   159b6:	6ae14a83          	lbu	s5,1710(sp)
   159ba:	3aa11023          	sh	a0,928(sp)
   159be:	3ac10123          	sb	a2,930(sp)
   159c2:	6af10593          	addi	a1,sp,1711
   159c6:	64410513          	addi	a0,sp,1604
   159ca:	04100613          	li	a2,65
   159ce:	00002097          	auipc	ra,0x2
   159d2:	456080e7          	jalr	1110(ra) # 17e24 <memcpy>
   159d6:	00002297          	auipc	t0,0x2
   159da:	244282e7          	jalr	t0,580(t0) # 17c1a <OUTLINED_FUNCTION_32>
   159de:	00000073          	ecall
   159e2:	00002297          	auipc	t0,0x2
   159e6:	38e282e7          	jalr	t0,910(t0) # 17d70 <OUTLINED_FUNCTION_57>
   159ea:	00000073          	ecall
   159ee:	6af10513          	addi	a0,sp,1711
   159f2:	64410593          	addi	a1,sp,1604
   159f6:	04100613          	li	a2,65
   159fa:	00002097          	auipc	ra,0x2
   159fe:	42a080e7          	jalr	1066(ra) # 17e24 <memcpy>
   15a02:	3a011503          	lh	a0,928(sp)
   15a06:	3a214583          	lbu	a1,930(sp)
   15a0a:	6a8106a3          	sb	s0,1709(sp)
   15a0e:	00002297          	auipc	t0,0x2
   15a12:	078282e7          	jalr	t0,120(t0) # 17a86 <OUTLINED_FUNCTION_14>
   15a16:	02900613          	li	a2,41
   15a1a:	4581                	li	a1,0
   15a1c:	00002097          	auipc	ra,0x2
   15a20:	39c080e7          	jalr	924(ra) # 17db8 <memset>
   15a24:	6a490513          	addi	a0,s2,1700
   15a28:	458d                	li	a1,3
   15a2a:	6a810613          	addi	a2,sp,1704
   15a2e:	04800693          	li	a3,72
   15a32:	ffffb097          	auipc	ra,0xffffb
   15a36:	702080e7          	jalr	1794(ra) # 11134 <_ZN9allow_pin10no_dynamic11allow_inner17h151634b71b3fc351E>
   15a3a:	8905                	andi	a0,a0,1
   15a3c:	e90d                	bnez	a0,15a6e <_start+0x4910>
   15a3e:	6509                	lui	a0,0x2
   15a40:	4591                	li	a1,4
   15a42:	64410613          	addi	a2,sp,1604
   15a46:	6a450413          	addi	s0,a0,1700 # 26a4 <.Lline_table_start1+0x2479>
   15a4a:	02900693          	li	a3,41
   15a4e:	8522                	mv	a0,s0
   15a50:	ffffb097          	auipc	ra,0xffffb
   15a54:	6f2080e7          	jalr	1778(ra) # 11142 <_ZN9allow_pin10no_dynamic11allow_inner17ha2b744c817d78427E>
   15a58:	8905                	andi	a0,a0,1
   15a5a:	e911                	bnez	a0,15a6e <_start+0x4910>
   15a5c:	458d                	li	a1,3
   15a5e:	4611                	li	a2,4
   15a60:	8522                	mv	a0,s0
   15a62:	ffffb097          	auipc	ra,0xffffb
   15a66:	6ee080e7          	jalr	1774(ra) # 11150 <_ZN9allow_pin7command17h1eb46760111c3605E>
   15a6a:	8905                	andi	a0,a0,1
   15a6c:	c505                	beqz	a0,15a94 <_start+0x4936>
   15a6e:	87ae                	mv	a5,a1
   15a70:	4601                	li	a2,0
   15a72:	4681                	li	a3,0
   15a74:	6509                	lui	a0,0x2
   15a76:	4591                	li	a1,4
   15a78:	6a450493          	addi	s1,a0,1700 # 26a4 <.Lline_table_start1+0x2479>
   15a7c:	470d                	li	a4,3
   15a7e:	8526                	mv	a0,s1
   15a80:	00000073          	ecall
   15a84:	00002297          	auipc	t0,0x2
   15a88:	1e0282e7          	jalr	t0,480(t0) # 17c64 <OUTLINED_FUNCTION_37>
   15a8c:	00000073          	ecall
   15a90:	f80fb06f          	j	11210 <_start+0xb2>
   15a94:	4601                	li	a2,0
   15a96:	4681                	li	a3,0
   15a98:	6909                	lui	s2,0x2
   15a9a:	4591                	li	a1,4
   15a9c:	6a490413          	addi	s0,s2,1700 # 26a4 <.Lline_table_start1+0x2479>
   15aa0:	470d                	li	a4,3
   15aa2:	8522                	mv	a0,s0
   15aa4:	00000073          	ecall
   15aa8:	470d                	li	a4,3
   15aaa:	4591                	li	a1,4
   15aac:	8522                	mv	a0,s0
   15aae:	4601                	li	a2,0
   15ab0:	4681                	li	a3,0
   15ab2:	00000073          	ecall
   15ab6:	00002297          	auipc	t0,0x2
   15aba:	f82282e7          	jalr	t0,-126(t0) # 17a38 <OUTLINED_FUNCTION_11>
   15abe:	64914483          	lbu	s1,1609(sp)
   15ac2:	64a14a83          	lbu	s5,1610(sp)
   15ac6:	3aa11223          	sh	a0,932(sp)
   15aca:	3ac10323          	sb	a2,934(sp)
   15ace:	64b10593          	addi	a1,sp,1611
   15ad2:	5ec10513          	addi	a0,sp,1516
   15ad6:	02200613          	li	a2,34
   15ada:	00002097          	auipc	ra,0x2
   15ade:	34a080e7          	jalr	842(ra) # 17e24 <memcpy>
   15ae2:	00002297          	auipc	t0,0x2
   15ae6:	29a282e7          	jalr	t0,666(t0) # 17d7c <OUTLINED_FUNCTION_58>
   15aea:	00000073          	ecall
   15aee:	00002297          	auipc	t0,0x2
   15af2:	252282e7          	jalr	t0,594(t0) # 17d40 <OUTLINED_FUNCTION_53>
   15af6:	00000073          	ecall
   15afa:	6af10513          	addi	a0,sp,1711
   15afe:	5ec10593          	addi	a1,sp,1516
   15b02:	02200613          	li	a2,34
   15b06:	00002097          	auipc	ra,0x2
   15b0a:	31e080e7          	jalr	798(ra) # 17e24 <memcpy>
   15b0e:	3a411503          	lh	a0,932(sp)
   15b12:	3a614583          	lbu	a1,934(sp)
   15b16:	00002297          	auipc	t0,0x2
   15b1a:	f08282e7          	jalr	t0,-248(t0) # 17a1e <OUTLINED_FUNCTION_10>
   15b1e:	64410513          	addi	a0,sp,1604
   15b22:	4669                	li	a2,26
   15b24:	4581                	li	a1,0
   15b26:	00002097          	auipc	ra,0x2
   15b2a:	292080e7          	jalr	658(ra) # 17db8 <memset>
   15b2e:	04890413          	addi	s0,s2,72
   15b32:	4595                	li	a1,5
   15b34:	6a810613          	addi	a2,sp,1704
   15b38:	02900693          	li	a3,41
   15b3c:	8522                	mv	a0,s0
   15b3e:	ffffb097          	auipc	ra,0xffffb
   15b42:	5f6080e7          	jalr	1526(ra) # 11134 <_ZN9allow_pin10no_dynamic11allow_inner17h151634b71b3fc351E>
   15b46:	8905                	andi	a0,a0,1
   15b48:	e905                	bnez	a0,15b78 <_start+0x4a1a>
   15b4a:	458d                	li	a1,3
   15b4c:	64410613          	addi	a2,sp,1604
   15b50:	46e9                	li	a3,26
   15b52:	8522                	mv	a0,s0
   15b54:	ffffb097          	auipc	ra,0xffffb
   15b58:	5ee080e7          	jalr	1518(ra) # 11142 <_ZN9allow_pin10no_dynamic11allow_inner17ha2b744c817d78427E>
   15b5c:	8905                	andi	a0,a0,1
   15b5e:	ed09                	bnez	a0,15b78 <_start+0x4a1a>
   15b60:	6909                	lui	s2,0x2
   15b62:	4595                	li	a1,5
   15b64:	04890493          	addi	s1,s2,72 # 2048 <.Lline_table_start1+0x1e1d>
   15b68:	460d                	li	a2,3
   15b6a:	8526                	mv	a0,s1
   15b6c:	ffffb097          	auipc	ra,0xffffb
   15b70:	5e4080e7          	jalr	1508(ra) # 11150 <_ZN9allow_pin7command17h1eb46760111c3605E>
   15b74:	8905                	andi	a0,a0,1
   15b76:	c105                	beqz	a0,15b96 <_start+0x4a38>
   15b78:	00002297          	auipc	t0,0x2
   15b7c:	07a282e7          	jalr	t0,122(t0) # 17bf2 <OUTLINED_FUNCTION_29>
   15b80:	00000073          	ecall
   15b84:	4595                	li	a1,5
   15b86:	4711                	li	a4,4
   15b88:	8522                	mv	a0,s0
   15b8a:	4601                	li	a2,0
   15b8c:	4681                	li	a3,0
   15b8e:	00000073          	ecall
   15b92:	e7efb06f          	j	11210 <_start+0xb2>
   15b96:	00002297          	auipc	t0,0x2
   15b9a:	084282e7          	jalr	t0,132(t0) # 17c1a <OUTLINED_FUNCTION_32>
   15b9e:	00000073          	ecall
   15ba2:	00002297          	auipc	t0,0x2
   15ba6:	0f2282e7          	jalr	t0,242(t0) # 17c94 <OUTLINED_FUNCTION_41>
   15baa:	00000073          	ecall
   15bae:	00002297          	auipc	t0,0x2
   15bb2:	df8282e7          	jalr	t0,-520(t0) # 179a6 <OUTLINED_FUNCTION_6>
   15bb6:	3aa11423          	sh	a0,936(sp)
   15bba:	3ac10523          	sb	a2,938(sp)
   15bbe:	64b10593          	addi	a1,sp,1611
   15bc2:	5ec10513          	addi	a0,sp,1516
   15bc6:	464d                	li	a2,19
   15bc8:	00002097          	auipc	ra,0x2
   15bcc:	25c080e7          	jalr	604(ra) # 17e24 <memcpy>
   15bd0:	00002297          	auipc	t0,0x2
   15bd4:	04a282e7          	jalr	t0,74(t0) # 17c1a <OUTLINED_FUNCTION_32>
   15bd8:	00000073          	ecall
   15bdc:	4595                	li	a1,5
   15bde:	4711                	li	a4,4
   15be0:	8526                	mv	a0,s1
   15be2:	4601                	li	a2,0
   15be4:	4681                	li	a3,0
   15be6:	00000073          	ecall
   15bea:	64b10513          	addi	a0,sp,1611
   15bee:	5ec10593          	addi	a1,sp,1516
   15bf2:	464d                	li	a2,19
   15bf4:	00002097          	auipc	ra,0x2
   15bf8:	230080e7          	jalr	560(ra) # 17e24 <memcpy>
   15bfc:	3a811503          	lh	a0,936(sp)
   15c00:	3aa14583          	lbu	a1,938(sp)
   15c04:	648104a3          	sb	s0,1609(sp)
   15c08:	00002297          	auipc	t0,0x2
   15c0c:	f54282e7          	jalr	t0,-172(t0) # 17b5c <OUTLINED_FUNCTION_23>
   15c10:	466d                	li	a2,27
   15c12:	4581                	li	a1,0
   15c14:	00002097          	auipc	ra,0x2
   15c18:	1a4080e7          	jalr	420(ra) # 17db8 <memset>
   15c1c:	cce90513          	addi	a0,s2,-818
   15c20:	4595                	li	a1,5
   15c22:	64410613          	addi	a2,sp,1604
   15c26:	46e9                	li	a3,26
   15c28:	ffffb097          	auipc	ra,0xffffb
   15c2c:	50c080e7          	jalr	1292(ra) # 11134 <_ZN9allow_pin10no_dynamic11allow_inner17h151634b71b3fc351E>
   15c30:	8905                	andi	a0,a0,1
   15c32:	e905                	bnez	a0,15c62 <_start+0x4b04>
   15c34:	6509                	lui	a0,0x2
   15c36:	4589                	li	a1,2
   15c38:	6a810613          	addi	a2,sp,1704
   15c3c:	cce50413          	addi	s0,a0,-818 # 1cce <.Lline_table_start1+0x1aa3>
   15c40:	46ed                	li	a3,27
   15c42:	8522                	mv	a0,s0
   15c44:	ffffb097          	auipc	ra,0xffffb
   15c48:	4fe080e7          	jalr	1278(ra) # 11142 <_ZN9allow_pin10no_dynamic11allow_inner17ha2b744c817d78427E>
   15c4c:	8905                	andi	a0,a0,1
   15c4e:	e911                	bnez	a0,15c62 <_start+0x4b04>
   15c50:	4595                	li	a1,5
   15c52:	4609                	li	a2,2
   15c54:	8522                	mv	a0,s0
   15c56:	ffffb097          	auipc	ra,0xffffb
   15c5a:	4fa080e7          	jalr	1274(ra) # 11150 <_ZN9allow_pin7command17h1eb46760111c3605E>
   15c5e:	8905                	andi	a0,a0,1
   15c60:	c50d                	beqz	a0,15c8a <_start+0x4b2c>
   15c62:	87ae                	mv	a5,a1
   15c64:	4601                	li	a2,0
   15c66:	4681                	li	a3,0
   15c68:	6509                	lui	a0,0x2
   15c6a:	4589                	li	a1,2
   15c6c:	cce50493          	addi	s1,a0,-818 # 1cce <.Lline_table_start1+0x1aa3>
   15c70:	470d                	li	a4,3
   15c72:	8526                	mv	a0,s1
   15c74:	00000073          	ecall
   15c78:	4595                	li	a1,5
   15c7a:	4711                	li	a4,4
   15c7c:	8526                	mv	a0,s1
   15c7e:	4601                	li	a2,0
   15c80:	4681                	li	a3,0
   15c82:	00000073          	ecall
   15c86:	d8afb06f          	j	11210 <_start+0xb2>
   15c8a:	4601                	li	a2,0
   15c8c:	4681                	li	a3,0
   15c8e:	6509                	lui	a0,0x2
   15c90:	4589                	li	a1,2
   15c92:	cce50413          	addi	s0,a0,-818 # 1cce <.Lline_table_start1+0x1aa3>
   15c96:	470d                	li	a4,3
   15c98:	8522                	mv	a0,s0
   15c9a:	00000073          	ecall
   15c9e:	470d                	li	a4,3
   15ca0:	4589                	li	a1,2
   15ca2:	8522                	mv	a0,s0
   15ca4:	4601                	li	a2,0
   15ca6:	4681                	li	a3,0
   15ca8:	00000073          	ecall
   15cac:	00002297          	auipc	t0,0x2
   15cb0:	cc6282e7          	jalr	t0,-826(t0) # 17972 <OUTLINED_FUNCTION_4>
   15cb4:	6ad14483          	lbu	s1,1709(sp)
   15cb8:	6ae14a03          	lbu	s4,1710(sp)
   15cbc:	3ca11023          	sh	a0,960(sp)
   15cc0:	3cc10123          	sb	a2,962(sp)
   15cc4:	6af10593          	addi	a1,sp,1711
   15cc8:	1768                	addi	a0,sp,940
   15cca:	4651                	li	a2,20
   15ccc:	00002097          	auipc	ra,0x2
   15cd0:	158080e7          	jalr	344(ra) # 17e24 <memcpy>
   15cd4:	8522                	mv	a0,s0
   15cd6:	4601                	li	a2,0
   15cd8:	4681                	li	a3,0
   15cda:	4589                	li	a1,2
   15cdc:	470d                	li	a4,3
   15cde:	00000073          	ecall
   15ce2:	4711                	li	a4,4
   15ce4:	4595                	li	a1,5
   15ce6:	8522                	mv	a0,s0
   15ce8:	4601                	li	a2,0
   15cea:	4681                	li	a3,0
   15cec:	00000073          	ecall
   15cf0:	3c011503          	lh	a0,960(sp)
   15cf4:	3c214583          	lbu	a1,962(sp)
   15cf8:	5e9108a3          	sb	s1,1521(sp)
   15cfc:	5f410923          	sb	s4,1522(sp)
   15d00:	5ea11623          	sh	a0,1516(sp)
   15d04:	5eb10723          	sb	a1,1518(sp)
   15d08:	5f2107a3          	sb	s2,1519(sp)
   15d0c:	5f310823          	sb	s3,1520(sp)
   15d10:	5f310513          	addi	a0,sp,1523
   15d14:	176c                	addi	a1,sp,940
   15d16:	4651                	li	a2,20
   15d18:	00002097          	auipc	ra,0x2
   15d1c:	10c080e7          	jalr	268(ra) # 17e24 <memcpy>
   15d20:	6a810513          	addi	a0,sp,1704
   15d24:	04100613          	li	a2,65
   15d28:	4581                	li	a1,0
   15d2a:	00002097          	auipc	ra,0x2
   15d2e:	08e080e7          	jalr	142(ra) # 17db8 <memset>
   15d32:	14000513          	li	a0,320
   15d36:	45a1                	li	a1,8
   15d38:	5ec10613          	addi	a2,sp,1516
   15d3c:	46ed                	li	a3,27
   15d3e:	ffffb097          	auipc	ra,0xffffb
   15d42:	3f6080e7          	jalr	1014(ra) # 11134 <_ZN9allow_pin10no_dynamic11allow_inner17h151634b71b3fc351E>
   15d46:	8905                	andi	a0,a0,1
   15d48:	e905                	bnez	a0,15d78 <_start+0x4c1a>
   15d4a:	14000513          	li	a0,320
   15d4e:	45a5                	li	a1,9
   15d50:	6a810613          	addi	a2,sp,1704
   15d54:	04100693          	li	a3,65
   15d58:	ffffb097          	auipc	ra,0xffffb
   15d5c:	3ea080e7          	jalr	1002(ra) # 11142 <_ZN9allow_pin10no_dynamic11allow_inner17ha2b744c817d78427E>
   15d60:	8905                	andi	a0,a0,1
   15d62:	e919                	bnez	a0,15d78 <_start+0x4c1a>
   15d64:	14000513          	li	a0,320
   15d68:	45a1                	li	a1,8
   15d6a:	4625                	li	a2,9
   15d6c:	ffffb097          	auipc	ra,0xffffb
   15d70:	3e4080e7          	jalr	996(ra) # 11150 <_ZN9allow_pin7command17h1eb46760111c3605E>
   15d74:	8905                	andi	a0,a0,1
   15d76:	c505                	beqz	a0,15d9e <_start+0x4c40>
   15d78:	87ae                	mv	a5,a1
   15d7a:	4601                	li	a2,0
   15d7c:	4681                	li	a3,0
   15d7e:	14000513          	li	a0,320
   15d82:	45a5                	li	a1,9
   15d84:	470d                	li	a4,3
   15d86:	00000073          	ecall
   15d8a:	14000513          	li	a0,320
   15d8e:	45a1                	li	a1,8
   15d90:	4711                	li	a4,4
   15d92:	4601                	li	a2,0
   15d94:	4681                	li	a3,0
   15d96:	00000073          	ecall
   15d9a:	c76fb06f          	j	11210 <_start+0xb2>
   15d9e:	4601                	li	a2,0
   15da0:	4681                	li	a3,0
   15da2:	14000513          	li	a0,320
   15da6:	45a5                	li	a1,9
   15da8:	470d                	li	a4,3
   15daa:	00000073          	ecall
   15dae:	470d                	li	a4,3
   15db0:	14000513          	li	a0,320
   15db4:	45a5                	li	a1,9
   15db6:	4601                	li	a2,0
   15db8:	4681                	li	a3,0
   15dba:	00000073          	ecall
   15dbe:	00002297          	auipc	t0,0x2
   15dc2:	b74282e7          	jalr	t0,-1164(t0) # 17932 <OUTLINED_FUNCTION_2>
   15dc6:	6ae14483          	lbu	s1,1710(sp)
   15dca:	3ca11223          	sh	a0,964(sp)
   15dce:	3cc10323          	sb	a2,966(sp)
   15dd2:	6af10593          	addi	a1,sp,1711
   15dd6:	64410513          	addi	a0,sp,1604
   15dda:	03a00613          	li	a2,58
   15dde:	00002097          	auipc	ra,0x2
   15de2:	046080e7          	jalr	70(ra) # 17e24 <memcpy>
   15de6:	4601                	li	a2,0
   15de8:	4681                	li	a3,0
   15dea:	14000513          	li	a0,320
   15dee:	45a5                	li	a1,9
   15df0:	470d                	li	a4,3
   15df2:	00000073          	ecall
   15df6:	14000513          	li	a0,320
   15dfa:	45a1                	li	a1,8
   15dfc:	4711                	li	a4,4
   15dfe:	4601                	li	a2,0
   15e00:	4681                	li	a3,0
   15e02:	00000073          	ecall
   15e06:	6af10513          	addi	a0,sp,1711
   15e0a:	64410593          	addi	a1,sp,1604
   15e0e:	03a00613          	li	a2,58
   15e12:	00002097          	auipc	ra,0x2
   15e16:	012080e7          	jalr	18(ra) # 17e24 <memcpy>
   15e1a:	3c411503          	lh	a0,964(sp)
   15e1e:	3c614583          	lbu	a1,966(sp)
   15e22:	00002297          	auipc	t0,0x2
   15e26:	ba6282e7          	jalr	t0,-1114(t0) # 179c8 <OUTLINED_FUNCTION_7>
   15e2a:	4661                	li	a2,24
   15e2c:	4581                	li	a1,0
   15e2e:	00002097          	auipc	ra,0x2
   15e32:	f8a080e7          	jalr	-118(ra) # 17db8 <memset>
   15e36:	6509                	lui	a0,0x2
   15e38:	4585                	li	a1,1
   15e3a:	6a810613          	addi	a2,sp,1704
   15e3e:	15650913          	addi	s2,a0,342 # 2156 <.Lline_table_start1+0x1f2b>
   15e42:	04100693          	li	a3,65
   15e46:	4405                	li	s0,1
   15e48:	854a                	mv	a0,s2
   15e4a:	ffffb097          	auipc	ra,0xffffb
   15e4e:	2ea080e7          	jalr	746(ra) # 11134 <_ZN9allow_pin10no_dynamic11allow_inner17h151634b71b3fc351E>
   15e52:	8905                	andi	a0,a0,1
   15e54:	e905                	bnez	a0,15e84 <_start+0x4d26>
   15e56:	45a5                	li	a1,9
   15e58:	64410613          	addi	a2,sp,1604
   15e5c:	46e1                	li	a3,24
   15e5e:	854a                	mv	a0,s2
   15e60:	ffffb097          	auipc	ra,0xffffb
   15e64:	2e2080e7          	jalr	738(ra) # 11142 <_ZN9allow_pin10no_dynamic11allow_inner17ha2b744c817d78427E>
   15e68:	8905                	andi	a0,a0,1
   15e6a:	ed09                	bnez	a0,15e84 <_start+0x4d26>
   15e6c:	6509                	lui	a0,0x2
   15e6e:	4585                	li	a1,1
   15e70:	15650493          	addi	s1,a0,342 # 2156 <.Lline_table_start1+0x1f2b>
   15e74:	4625                	li	a2,9
   15e76:	8526                	mv	a0,s1
   15e78:	ffffb097          	auipc	ra,0xffffb
   15e7c:	2d8080e7          	jalr	728(ra) # 11150 <_ZN9allow_pin7command17h1eb46760111c3605E>
   15e80:	8905                	andi	a0,a0,1
   15e82:	c115                	beqz	a0,15ea6 <_start+0x4d48>
   15e84:	87ae                	mv	a5,a1
   15e86:	854a                	mv	a0,s2
   15e88:	4601                	li	a2,0
   15e8a:	4681                	li	a3,0
   15e8c:	45a5                	li	a1,9
   15e8e:	470d                	li	a4,3
   15e90:	00000073          	ecall
   15e94:	4585                	li	a1,1
   15e96:	4711                	li	a4,4
   15e98:	854a                	mv	a0,s2
   15e9a:	4601                	li	a2,0
   15e9c:	4681                	li	a3,0
   15e9e:	00000073          	ecall
   15ea2:	b70fb06f          	j	11212 <_start+0xb4>
   15ea6:	00002297          	auipc	t0,0x2
   15eaa:	d68282e7          	jalr	t0,-664(t0) # 17c0e <OUTLINED_FUNCTION_31>
   15eae:	00000073          	ecall
   15eb2:	00002297          	auipc	t0,0x2
   15eb6:	dbe282e7          	jalr	t0,-578(t0) # 17c70 <OUTLINED_FUNCTION_38>
   15eba:	00000073          	ecall
   15ebe:	00002297          	auipc	t0,0x2
   15ec2:	ace282e7          	jalr	t0,-1330(t0) # 1798c <OUTLINED_FUNCTION_5>
   15ec6:	64914a03          	lbu	s4,1609(sp)
   15eca:	64a14a83          	lbu	s5,1610(sp)
   15ece:	3ca11423          	sh	a0,968(sp)
   15ed2:	3cc10523          	sb	a2,970(sp)
   15ed6:	64b10593          	addi	a1,sp,1611
   15eda:	5ec10513          	addi	a0,sp,1516
   15ede:	4645                	li	a2,17
   15ee0:	00002097          	auipc	ra,0x2
   15ee4:	f44080e7          	jalr	-188(ra) # 17e24 <memcpy>
   15ee8:	00002297          	auipc	t0,0x2
   15eec:	d26282e7          	jalr	t0,-730(t0) # 17c0e <OUTLINED_FUNCTION_31>
   15ef0:	00000073          	ecall
   15ef4:	4585                	li	a1,1
   15ef6:	4711                	li	a4,4
   15ef8:	8526                	mv	a0,s1
   15efa:	4601                	li	a2,0
   15efc:	4681                	li	a3,0
   15efe:	00000073          	ecall
   15f02:	4405                	li	s0,1
   15f04:	64b10513          	addi	a0,sp,1611
   15f08:	5ec10593          	addi	a1,sp,1516
   15f0c:	4645                	li	a2,17
   15f0e:	00002097          	auipc	ra,0x2
   15f12:	f16080e7          	jalr	-234(ra) # 17e24 <memcpy>
   15f16:	3c811503          	lh	a0,968(sp)
   15f1a:	3ca14583          	lbu	a1,970(sp)
   15f1e:	654104a3          	sb	s4,1609(sp)
   15f22:	65510523          	sb	s5,1610(sp)
   15f26:	00002297          	auipc	t0,0x2
   15f2a:	c20282e7          	jalr	t0,-992(t0) # 17b46 <OUTLINED_FUNCTION_22>
   15f2e:	4679                	li	a2,30
   15f30:	4581                	li	a1,0
   15f32:	00002097          	auipc	ra,0x2
   15f36:	e86080e7          	jalr	-378(ra) # 17db8 <memset>
   15f3a:	6505                	lui	a0,0x1
   15f3c:	45a5                	li	a1,9
   15f3e:	64410613          	addi	a2,sp,1604
   15f42:	cbb50913          	addi	s2,a0,-837 # cbb <.Lline_table_start1+0xa90>
   15f46:	46e1                	li	a3,24
   15f48:	854a                	mv	a0,s2
   15f4a:	ffffb097          	auipc	ra,0xffffb
   15f4e:	1ea080e7          	jalr	490(ra) # 11134 <_ZN9allow_pin10no_dynamic11allow_inner17h151634b71b3fc351E>
   15f52:	8905                	andi	a0,a0,1
   15f54:	e905                	bnez	a0,15f84 <_start+0x4e26>
   15f56:	4595                	li	a1,5
   15f58:	6a810613          	addi	a2,sp,1704
   15f5c:	46f9                	li	a3,30
   15f5e:	854a                	mv	a0,s2
   15f60:	ffffb097          	auipc	ra,0xffffb
   15f64:	1e2080e7          	jalr	482(ra) # 11142 <_ZN9allow_pin10no_dynamic11allow_inner17ha2b744c817d78427E>
   15f68:	8905                	andi	a0,a0,1
   15f6a:	ed09                	bnez	a0,15f84 <_start+0x4e26>
   15f6c:	6985                	lui	s3,0x1
   15f6e:	45a5                	li	a1,9
   15f70:	cbb98493          	addi	s1,s3,-837 # cbb <.Lline_table_start1+0xa90>
   15f74:	4615                	li	a2,5
   15f76:	8526                	mv	a0,s1
   15f78:	ffffb097          	auipc	ra,0xffffb
   15f7c:	1d8080e7          	jalr	472(ra) # 11150 <_ZN9allow_pin7command17h1eb46760111c3605E>
   15f80:	8905                	andi	a0,a0,1
   15f82:	c115                	beqz	a0,15fa6 <_start+0x4e48>
   15f84:	87ae                	mv	a5,a1
   15f86:	854a                	mv	a0,s2
   15f88:	4601                	li	a2,0
   15f8a:	4681                	li	a3,0
   15f8c:	4595                	li	a1,5
   15f8e:	470d                	li	a4,3
   15f90:	00000073          	ecall
   15f94:	45a5                	li	a1,9
   15f96:	4711                	li	a4,4
   15f98:	854a                	mv	a0,s2
   15f9a:	4601                	li	a2,0
   15f9c:	4681                	li	a3,0
   15f9e:	00000073          	ecall
   15fa2:	a70fb06f          	j	11212 <_start+0xb4>
   15fa6:	00002297          	auipc	t0,0x2
   15faa:	ce2282e7          	jalr	t0,-798(t0) # 17c88 <OUTLINED_FUNCTION_40>
   15fae:	00000073          	ecall
   15fb2:	470d                	li	a4,3
   15fb4:	4595                	li	a1,5
   15fb6:	8526                	mv	a0,s1
   15fb8:	4601                	li	a2,0
   15fba:	4681                	li	a3,0
   15fbc:	00000073          	ecall
   15fc0:	00002297          	auipc	t0,0x2
   15fc4:	b14282e7          	jalr	t0,-1260(t0) # 17ad4 <OUTLINED_FUNCTION_17>
   15fc8:	6ac14a03          	lbu	s4,1708(sp)
   15fcc:	6ad14403          	lbu	s0,1709(sp)
   15fd0:	6ae14a83          	lbu	s5,1710(sp)
   15fd4:	3ca11623          	sh	a0,972(sp)
   15fd8:	3cc10723          	sb	a2,974(sp)
   15fdc:	6af10593          	addi	a1,sp,1711
   15fe0:	52c10513          	addi	a0,sp,1324
   15fe4:	465d                	li	a2,23
   15fe6:	00002097          	auipc	ra,0x2
   15fea:	e3e080e7          	jalr	-450(ra) # 17e24 <memcpy>
   15fee:	00002297          	auipc	t0,0x2
   15ff2:	c9a282e7          	jalr	t0,-870(t0) # 17c88 <OUTLINED_FUNCTION_40>
   15ff6:	00000073          	ecall
   15ffa:	00002297          	auipc	t0,0x2
   15ffe:	d9a282e7          	jalr	t0,-614(t0) # 17d94 <OUTLINED_FUNCTION_60>
   16002:	00000073          	ecall
   16006:	5f310513          	addi	a0,sp,1523
   1600a:	52c10593          	addi	a1,sp,1324
   1600e:	465d                	li	a2,23
   16010:	00002097          	auipc	ra,0x2
   16014:	e14080e7          	jalr	-492(ra) # 17e24 <memcpy>
   16018:	3cc11503          	lh	a0,972(sp)
   1601c:	3ce14583          	lbu	a1,974(sp)
   16020:	5e8108a3          	sb	s0,1521(sp)
   16024:	5f510923          	sb	s5,1522(sp)
   16028:	00002297          	auipc	t0,0x2
   1602c:	cc0282e7          	jalr	t0,-832(t0) # 17ce8 <OUTLINED_FUNCTION_48>
   16030:	03c00613          	li	a2,60
   16034:	4581                	li	a1,0
   16036:	00002097          	auipc	ra,0x2
   1603a:	d82080e7          	jalr	-638(ra) # 17db8 <memset>
   1603e:	b3c98513          	addi	a0,s3,-1220
   16042:	4589                	li	a1,2
   16044:	5ec10613          	addi	a2,sp,1516
   16048:	46f9                	li	a3,30
   1604a:	ffffb097          	auipc	ra,0xffffb
   1604e:	0ea080e7          	jalr	234(ra) # 11134 <_ZN9allow_pin10no_dynamic11allow_inner17h151634b71b3fc351E>
   16052:	8905                	andi	a0,a0,1
   16054:	e90d                	bnez	a0,16086 <_start+0x4f28>
   16056:	6505                	lui	a0,0x1
   16058:	458d                	li	a1,3
   1605a:	6a810613          	addi	a2,sp,1704
   1605e:	b3c50413          	addi	s0,a0,-1220 # b3c <.Lline_table_start1+0x911>
   16062:	03c00693          	li	a3,60
   16066:	8522                	mv	a0,s0
   16068:	ffffb097          	auipc	ra,0xffffb
   1606c:	0da080e7          	jalr	218(ra) # 11142 <_ZN9allow_pin10no_dynamic11allow_inner17ha2b744c817d78427E>
   16070:	8905                	andi	a0,a0,1
   16072:	e911                	bnez	a0,16086 <_start+0x4f28>
   16074:	4589                	li	a1,2
   16076:	460d                	li	a2,3
   16078:	8522                	mv	a0,s0
   1607a:	ffffb097          	auipc	ra,0xffffb
   1607e:	0d6080e7          	jalr	214(ra) # 11150 <_ZN9allow_pin7command17h1eb46760111c3605E>
   16082:	8905                	andi	a0,a0,1
   16084:	c50d                	beqz	a0,160ae <_start+0x4f50>
   16086:	87ae                	mv	a5,a1
   16088:	4601                	li	a2,0
   1608a:	4681                	li	a3,0
   1608c:	6505                	lui	a0,0x1
   1608e:	458d                	li	a1,3
   16090:	b3c50493          	addi	s1,a0,-1220 # b3c <.Lline_table_start1+0x911>
   16094:	470d                	li	a4,3
   16096:	8526                	mv	a0,s1
   16098:	00000073          	ecall
   1609c:	4589                	li	a1,2
   1609e:	4711                	li	a4,4
   160a0:	8526                	mv	a0,s1
   160a2:	4601                	li	a2,0
   160a4:	4681                	li	a3,0
   160a6:	00000073          	ecall
   160aa:	966fb06f          	j	11210 <_start+0xb2>
   160ae:	4601                	li	a2,0
   160b0:	4681                	li	a3,0
   160b2:	6505                	lui	a0,0x1
   160b4:	458d                	li	a1,3
   160b6:	b3c50413          	addi	s0,a0,-1220 # b3c <.Lline_table_start1+0x911>
   160ba:	470d                	li	a4,3
   160bc:	8522                	mv	a0,s0
   160be:	00000073          	ecall
   160c2:	00002297          	auipc	t0,0x2
   160c6:	bde282e7          	jalr	t0,-1058(t0) # 17ca0 <OUTLINED_FUNCTION_42>
   160ca:	00000073          	ecall
   160ce:	00002297          	auipc	t0,0x2
   160d2:	8a4282e7          	jalr	t0,-1884(t0) # 17972 <OUTLINED_FUNCTION_4>
   160d6:	6ad14483          	lbu	s1,1709(sp)
   160da:	6ae14a03          	lbu	s4,1710(sp)
   160de:	3ca11823          	sh	a0,976(sp)
   160e2:	3cc10923          	sb	a2,978(sp)
   160e6:	6af10593          	addi	a1,sp,1711
   160ea:	64410513          	addi	a0,sp,1604
   160ee:	03500613          	li	a2,53
   160f2:	00002097          	auipc	ra,0x2
   160f6:	d32080e7          	jalr	-718(ra) # 17e24 <memcpy>
   160fa:	00002297          	auipc	t0,0x2
   160fe:	b52282e7          	jalr	t0,-1198(t0) # 17c4c <OUTLINED_FUNCTION_35>
   16102:	00000073          	ecall
   16106:	00002297          	auipc	t0,0x2
   1610a:	bb2282e7          	jalr	t0,-1102(t0) # 17cb8 <OUTLINED_FUNCTION_44>
   1610e:	00000073          	ecall
   16112:	6af10513          	addi	a0,sp,1711
   16116:	64410593          	addi	a1,sp,1604
   1611a:	03500613          	li	a2,53
   1611e:	00002097          	auipc	ra,0x2
   16122:	d06080e7          	jalr	-762(ra) # 17e24 <memcpy>
   16126:	3d011503          	lh	a0,976(sp)
   1612a:	3d214583          	lbu	a1,978(sp)
   1612e:	6a9106a3          	sb	s1,1709(sp)
   16132:	00002297          	auipc	t0,0x2
   16136:	93a282e7          	jalr	t0,-1734(t0) # 17a6c <OUTLINED_FUNCTION_13>
   1613a:	02c00613          	li	a2,44
   1613e:	4581                	li	a1,0
   16140:	00002097          	auipc	ra,0x2
   16144:	c78080e7          	jalr	-904(ra) # 17db8 <memset>
   16148:	6509                	lui	a0,0x2
   1614a:	4595                	li	a1,5
   1614c:	6a810613          	addi	a2,sp,1704
   16150:	eac50413          	addi	s0,a0,-340 # 1eac <.Lline_table_start1+0x1c81>
   16154:	03c00693          	li	a3,60
   16158:	8522                	mv	a0,s0
   1615a:	ffffb097          	auipc	ra,0xffffb
   1615e:	fda080e7          	jalr	-38(ra) # 11134 <_ZN9allow_pin10no_dynamic11allow_inner17h151634b71b3fc351E>
   16162:	8905                	andi	a0,a0,1
   16164:	e90d                	bnez	a0,16196 <_start+0x5038>
   16166:	459d                	li	a1,7
   16168:	64410613          	addi	a2,sp,1604
   1616c:	02c00693          	li	a3,44
   16170:	8522                	mv	a0,s0
   16172:	ffffb097          	auipc	ra,0xffffb
   16176:	fd0080e7          	jalr	-48(ra) # 11142 <_ZN9allow_pin10no_dynamic11allow_inner17ha2b744c817d78427E>
   1617a:	8905                	andi	a0,a0,1
   1617c:	ed09                	bnez	a0,16196 <_start+0x5038>
   1617e:	6509                	lui	a0,0x2
   16180:	4595                	li	a1,5
   16182:	eac50493          	addi	s1,a0,-340 # 1eac <.Lline_table_start1+0x1c81>
   16186:	461d                	li	a2,7
   16188:	8526                	mv	a0,s1
   1618a:	ffffb097          	auipc	ra,0xffffb
   1618e:	fc6080e7          	jalr	-58(ra) # 11150 <_ZN9allow_pin7command17h1eb46760111c3605E>
   16192:	8905                	andi	a0,a0,1
   16194:	c115                	beqz	a0,161b8 <_start+0x505a>
   16196:	87ae                	mv	a5,a1
   16198:	8522                	mv	a0,s0
   1619a:	4601                	li	a2,0
   1619c:	4681                	li	a3,0
   1619e:	459d                	li	a1,7
   161a0:	470d                	li	a4,3
   161a2:	00000073          	ecall
   161a6:	4595                	li	a1,5
   161a8:	4711                	li	a4,4
   161aa:	8522                	mv	a0,s0
   161ac:	4601                	li	a2,0
   161ae:	4681                	li	a3,0
   161b0:	00000073          	ecall
   161b4:	85cfb06f          	j	11210 <_start+0xb2>
   161b8:	8526                	mv	a0,s1
   161ba:	4601                	li	a2,0
   161bc:	4681                	li	a3,0
   161be:	459d                	li	a1,7
   161c0:	470d                	li	a4,3
   161c2:	00000073          	ecall
   161c6:	470d                	li	a4,3
   161c8:	459d                	li	a1,7
   161ca:	8526                	mv	a0,s1
   161cc:	4601                	li	a2,0
   161ce:	4681                	li	a3,0
   161d0:	00000073          	ecall
   161d4:	00001297          	auipc	t0,0x1
   161d8:	71e282e7          	jalr	t0,1822(t0) # 178f2 <OUTLINED_FUNCTION_0>
   161dc:	3ca11a23          	sh	a0,980(sp)
   161e0:	3cc10b23          	sb	a2,982(sp)
   161e4:	64b10593          	addi	a1,sp,1611
   161e8:	5ec10513          	addi	a0,sp,1516
   161ec:	02500613          	li	a2,37
   161f0:	00002097          	auipc	ra,0x2
   161f4:	c34080e7          	jalr	-972(ra) # 17e24 <memcpy>
   161f8:	8526                	mv	a0,s1
   161fa:	4601                	li	a2,0
   161fc:	4681                	li	a3,0
   161fe:	459d                	li	a1,7
   16200:	470d                	li	a4,3
   16202:	00000073          	ecall
   16206:	4595                	li	a1,5
   16208:	4711                	li	a4,4
   1620a:	8526                	mv	a0,s1
   1620c:	4601                	li	a2,0
   1620e:	4681                	li	a3,0
   16210:	00000073          	ecall
   16214:	6af10513          	addi	a0,sp,1711
   16218:	5ec10593          	addi	a1,sp,1516
   1621c:	02500613          	li	a2,37
   16220:	00002097          	auipc	ra,0x2
   16224:	c04080e7          	jalr	-1020(ra) # 17e24 <memcpy>
   16228:	3d411503          	lh	a0,980(sp)
   1622c:	3d614583          	lbu	a1,982(sp)
   16230:	00001297          	auipc	t0,0x1
   16234:	7b6282e7          	jalr	t0,1974(t0) # 179e6 <OUTLINED_FUNCTION_8>
   16238:	02700613          	li	a2,39
   1623c:	4581                	li	a1,0
   1623e:	00002097          	auipc	ra,0x2
   16242:	b7a080e7          	jalr	-1158(ra) # 17db8 <memset>
   16246:	6505                	lui	a0,0x1
   16248:	4591                	li	a1,4
   1624a:	6a810613          	addi	a2,sp,1704
   1624e:	1b550413          	addi	s0,a0,437 # 11b5 <.Lline_table_start1+0xf8a>
   16252:	02c00693          	li	a3,44
   16256:	8522                	mv	a0,s0
   16258:	ffffb097          	auipc	ra,0xffffb
   1625c:	edc080e7          	jalr	-292(ra) # 11134 <_ZN9allow_pin10no_dynamic11allow_inner17h151634b71b3fc351E>
   16260:	8905                	andi	a0,a0,1
   16262:	e90d                	bnez	a0,16294 <_start+0x5136>
   16264:	458d                	li	a1,3
   16266:	64410613          	addi	a2,sp,1604
   1626a:	02700693          	li	a3,39
   1626e:	8522                	mv	a0,s0
   16270:	ffffb097          	auipc	ra,0xffffb
   16274:	ed2080e7          	jalr	-302(ra) # 11142 <_ZN9allow_pin10no_dynamic11allow_inner17ha2b744c817d78427E>
   16278:	8905                	andi	a0,a0,1
   1627a:	ed09                	bnez	a0,16294 <_start+0x5136>
   1627c:	6905                	lui	s2,0x1
   1627e:	4591                	li	a1,4
   16280:	1b590493          	addi	s1,s2,437 # 11b5 <.Lline_table_start1+0xf8a>
   16284:	460d                	li	a2,3
   16286:	8526                	mv	a0,s1
   16288:	ffffb097          	auipc	ra,0xffffb
   1628c:	ec8080e7          	jalr	-312(ra) # 11150 <_ZN9allow_pin7command17h1eb46760111c3605E>
   16290:	8905                	andi	a0,a0,1
   16292:	cd19                	beqz	a0,162b0 <_start+0x5152>
   16294:	00002297          	auipc	t0,0x2
   16298:	95e282e7          	jalr	t0,-1698(t0) # 17bf2 <OUTLINED_FUNCTION_29>
   1629c:	00000073          	ecall
   162a0:	00002297          	auipc	t0,0x2
   162a4:	a30282e7          	jalr	t0,-1488(t0) # 17cd0 <OUTLINED_FUNCTION_46>
   162a8:	00000073          	ecall
   162ac:	f65fa06f          	j	11210 <_start+0xb2>
   162b0:	00002297          	auipc	t0,0x2
   162b4:	96a282e7          	jalr	t0,-1686(t0) # 17c1a <OUTLINED_FUNCTION_32>
   162b8:	00000073          	ecall
   162bc:	00002297          	auipc	t0,0x2
   162c0:	9d8282e7          	jalr	t0,-1576(t0) # 17c94 <OUTLINED_FUNCTION_41>
   162c4:	00000073          	ecall
   162c8:	00001297          	auipc	t0,0x1
   162cc:	6de282e7          	jalr	t0,1758(t0) # 179a6 <OUTLINED_FUNCTION_6>
   162d0:	3ea11c23          	sh	a0,1016(sp)
   162d4:	3ec10d23          	sb	a2,1018(sp)
   162d8:	64b10593          	addi	a1,sp,1611
   162dc:	0fa8                	addi	a0,sp,984
   162de:	02000613          	li	a2,32
   162e2:	00002097          	auipc	ra,0x2
   162e6:	b42080e7          	jalr	-1214(ra) # 17e24 <memcpy>
   162ea:	00002297          	auipc	t0,0x2
   162ee:	930282e7          	jalr	t0,-1744(t0) # 17c1a <OUTLINED_FUNCTION_32>
   162f2:	00000073          	ecall
   162f6:	4711                	li	a4,4
   162f8:	4591                	li	a1,4
   162fa:	8526                	mv	a0,s1
   162fc:	4601                	li	a2,0
   162fe:	4681                	li	a3,0
   16300:	00000073          	ecall
   16304:	3f811503          	lh	a0,1016(sp)
   16308:	3fa14583          	lbu	a1,1018(sp)
   1630c:	648104a3          	sb	s0,1609(sp)
   16310:	65510523          	sb	s5,1610(sp)
   16314:	00002297          	auipc	t0,0x2
   16318:	862282e7          	jalr	t0,-1950(t0) # 17b76 <OUTLINED_FUNCTION_24>
   1631c:	64b10513          	addi	a0,sp,1611
   16320:	0fac                	addi	a1,sp,984
   16322:	02000613          	li	a2,32
   16326:	00002097          	auipc	ra,0x2
   1632a:	afe080e7          	jalr	-1282(ra) # 17e24 <memcpy>
   1632e:	6a810513          	addi	a0,sp,1704
   16332:	04f00613          	li	a2,79
   16336:	4581                	li	a1,0
   16338:	00002097          	auipc	ra,0x2
   1633c:	a80080e7          	jalr	-1408(ra) # 17db8 <memset>
   16340:	b4c90513          	addi	a0,s2,-1204
   16344:	45a5                	li	a1,9
   16346:	64410613          	addi	a2,sp,1604
   1634a:	02700693          	li	a3,39
   1634e:	ffffb097          	auipc	ra,0xffffb
   16352:	de6080e7          	jalr	-538(ra) # 11134 <_ZN9allow_pin10no_dynamic11allow_inner17h151634b71b3fc351E>
   16356:	8905                	andi	a0,a0,1
   16358:	e90d                	bnez	a0,1638a <_start+0x522c>
   1635a:	6505                	lui	a0,0x1
   1635c:	6a810613          	addi	a2,sp,1704
   16360:	b4c50413          	addi	s0,a0,-1204 # b4c <.Lline_table_start1+0x921>
   16364:	04f00693          	li	a3,79
   16368:	8522                	mv	a0,s0
   1636a:	4581                	li	a1,0
   1636c:	ffffb097          	auipc	ra,0xffffb
   16370:	dd6080e7          	jalr	-554(ra) # 11142 <_ZN9allow_pin10no_dynamic11allow_inner17ha2b744c817d78427E>
   16374:	8905                	andi	a0,a0,1
   16376:	e911                	bnez	a0,1638a <_start+0x522c>
   16378:	45a5                	li	a1,9
   1637a:	8522                	mv	a0,s0
   1637c:	4601                	li	a2,0
   1637e:	ffffb097          	auipc	ra,0xffffb
   16382:	dd2080e7          	jalr	-558(ra) # 11150 <_ZN9allow_pin7command17h1eb46760111c3605E>
   16386:	8905                	andi	a0,a0,1
   16388:	c505                	beqz	a0,163b0 <_start+0x5252>
   1638a:	87ae                	mv	a5,a1
   1638c:	4581                	li	a1,0
   1638e:	4601                	li	a2,0
   16390:	4681                	li	a3,0
   16392:	6505                	lui	a0,0x1
   16394:	b4c50493          	addi	s1,a0,-1204 # b4c <.Lline_table_start1+0x921>
   16398:	470d                	li	a4,3
   1639a:	8526                	mv	a0,s1
   1639c:	00000073          	ecall
   163a0:	00002297          	auipc	t0,0x2
   163a4:	9f4282e7          	jalr	t0,-1548(t0) # 17d94 <OUTLINED_FUNCTION_60>
   163a8:	00000073          	ecall
   163ac:	e65fa06f          	j	11210 <_start+0xb2>
   163b0:	4581                	li	a1,0
   163b2:	4601                	li	a2,0
   163b4:	4681                	li	a3,0
   163b6:	6905                	lui	s2,0x1
   163b8:	b4c90413          	addi	s0,s2,-1204 # b4c <.Lline_table_start1+0x921>
   163bc:	470d                	li	a4,3
   163be:	8522                	mv	a0,s0
   163c0:	00000073          	ecall
   163c4:	470d                	li	a4,3
   163c6:	8522                	mv	a0,s0
   163c8:	4581                	li	a1,0
   163ca:	4601                	li	a2,0
   163cc:	4681                	li	a3,0
   163ce:	00000073          	ecall
   163d2:	00001297          	auipc	t0,0x1
   163d6:	57e282e7          	jalr	t0,1406(t0) # 17950 <OUTLINED_FUNCTION_3>
   163da:	44a11223          	sh	a0,1092(sp)
   163de:	44c10323          	sb	a2,1094(sp)
   163e2:	6af10593          	addi	a1,sp,1711
   163e6:	1fe8                	addi	a0,sp,1020
   163e8:	04800613          	li	a2,72
   163ec:	00002097          	auipc	ra,0x2
   163f0:	a38080e7          	jalr	-1480(ra) # 17e24 <memcpy>
   163f4:	00002297          	auipc	t0,0x2
   163f8:	8e8282e7          	jalr	t0,-1816(t0) # 17cdc <OUTLINED_FUNCTION_47>
   163fc:	00000073          	ecall
   16400:	8522                	mv	a0,s0
   16402:	4601                	li	a2,0
   16404:	4681                	li	a3,0
   16406:	4711                	li	a4,4
   16408:	45a5                	li	a1,9
   1640a:	00000073          	ecall
   1640e:	44411503          	lh	a0,1092(sp)
   16412:	44614583          	lbu	a1,1094(sp)
   16416:	00001297          	auipc	t0,0x1
   1641a:	608282e7          	jalr	t0,1544(t0) # 17a1e <OUTLINED_FUNCTION_10>
   1641e:	6af10513          	addi	a0,sp,1711
   16422:	1fec                	addi	a1,sp,1020
   16424:	04800613          	li	a2,72
   16428:	00002097          	auipc	ra,0x2
   1642c:	9fc080e7          	jalr	-1540(ra) # 17e24 <memcpy>
   16430:	64410513          	addi	a0,sp,1604
   16434:	03500613          	li	a2,53
   16438:	4581                	li	a1,0
   1643a:	00002097          	auipc	ra,0x2
   1643e:	97e080e7          	jalr	-1666(ra) # 17db8 <memset>
   16442:	6d790413          	addi	s0,s2,1751
   16446:	459d                	li	a1,7
   16448:	6a810613          	addi	a2,sp,1704
   1644c:	04f00693          	li	a3,79
   16450:	8522                	mv	a0,s0
   16452:	ffffb097          	auipc	ra,0xffffb
   16456:	ce2080e7          	jalr	-798(ra) # 11134 <_ZN9allow_pin10no_dynamic11allow_inner17h151634b71b3fc351E>
   1645a:	8905                	andi	a0,a0,1
   1645c:	e90d                	bnez	a0,1648e <_start+0x5330>
   1645e:	4585                	li	a1,1
   16460:	64410613          	addi	a2,sp,1604
   16464:	03500693          	li	a3,53
   16468:	8522                	mv	a0,s0
   1646a:	ffffb097          	auipc	ra,0xffffb
   1646e:	cd8080e7          	jalr	-808(ra) # 11142 <_ZN9allow_pin10no_dynamic11allow_inner17ha2b744c817d78427E>
   16472:	8905                	andi	a0,a0,1
   16474:	ed09                	bnez	a0,1648e <_start+0x5330>
   16476:	6905                	lui	s2,0x1
   16478:	459d                	li	a1,7
   1647a:	6d790493          	addi	s1,s2,1751 # 16d7 <.Lline_table_start1+0x14ac>
   1647e:	4605                	li	a2,1
   16480:	8526                	mv	a0,s1
   16482:	ffffb097          	auipc	ra,0xffffb
   16486:	cce080e7          	jalr	-818(ra) # 11150 <_ZN9allow_pin7command17h1eb46760111c3605E>
   1648a:	8905                	andi	a0,a0,1
   1648c:	c10d                	beqz	a0,164ae <_start+0x5350>
   1648e:	87ae                	mv	a5,a1
   16490:	8522                	mv	a0,s0
   16492:	4601                	li	a2,0
   16494:	4681                	li	a3,0
   16496:	4585                	li	a1,1
   16498:	470d                	li	a4,3
   1649a:	00000073          	ecall
   1649e:	00002297          	auipc	t0,0x2
   164a2:	826282e7          	jalr	t0,-2010(t0) # 17cc4 <OUTLINED_FUNCTION_45>
   164a6:	00000073          	ecall
   164aa:	d67fa06f          	j	11210 <_start+0xb2>
   164ae:	8526                	mv	a0,s1
   164b0:	4601                	li	a2,0
   164b2:	4681                	li	a3,0
   164b4:	4585                	li	a1,1
   164b6:	470d                	li	a4,3
   164b8:	00000073          	ecall
   164bc:	470d                	li	a4,3
   164be:	4585                	li	a1,1
   164c0:	8526                	mv	a0,s1
   164c2:	4601                	li	a2,0
   164c4:	4681                	li	a3,0
   164c6:	00000073          	ecall
   164ca:	00001297          	auipc	t0,0x1
   164ce:	6d4282e7          	jalr	t0,1748(t0) # 17b9e <OUTLINED_FUNCTION_26>
   164d2:	44a11423          	sh	a0,1096(sp)
   164d6:	44c10523          	sb	a2,1098(sp)
   164da:	64b10593          	addi	a1,sp,1611
   164de:	5ec10513          	addi	a0,sp,1516
   164e2:	02e00613          	li	a2,46
   164e6:	00002097          	auipc	ra,0x2
   164ea:	93e080e7          	jalr	-1730(ra) # 17e24 <memcpy>
   164ee:	8526                	mv	a0,s1
   164f0:	4601                	li	a2,0
   164f2:	4681                	li	a3,0
   164f4:	4585                	li	a1,1
   164f6:	470d                	li	a4,3
   164f8:	00000073          	ecall
   164fc:	00001297          	auipc	t0,0x1
   16500:	780282e7          	jalr	t0,1920(t0) # 17c7c <OUTLINED_FUNCTION_39>
   16504:	00000073          	ecall
   16508:	64b10513          	addi	a0,sp,1611
   1650c:	5ec10593          	addi	a1,sp,1516
   16510:	02e00613          	li	a2,46
   16514:	00002097          	auipc	ra,0x2
   16518:	910080e7          	jalr	-1776(ra) # 17e24 <memcpy>
   1651c:	44811503          	lh	a0,1096(sp)
   16520:	44a14583          	lbu	a1,1098(sp)
   16524:	655104a3          	sb	s5,1609(sp)
   16528:	65610523          	sb	s6,1610(sp)
   1652c:	00001297          	auipc	t0,0x1
   16530:	64a282e7          	jalr	t0,1610(t0) # 17b76 <OUTLINED_FUNCTION_24>
   16534:	6a810513          	addi	a0,sp,1704
   16538:	03f00613          	li	a2,63
   1653c:	4581                	li	a1,0
   1653e:	00002097          	auipc	ra,0x2
   16542:	87a080e7          	jalr	-1926(ra) # 17db8 <memset>
   16546:	e5790513          	addi	a0,s2,-425
   1654a:	64410613          	addi	a2,sp,1604
   1654e:	03500693          	li	a3,53
   16552:	4581                	li	a1,0
   16554:	ffffb097          	auipc	ra,0xffffb
   16558:	be0080e7          	jalr	-1056(ra) # 11134 <_ZN9allow_pin10no_dynamic11allow_inner17h151634b71b3fc351E>
   1655c:	8905                	andi	a0,a0,1
   1655e:	e90d                	bnez	a0,16590 <_start+0x5432>
   16560:	6505                	lui	a0,0x1
   16562:	458d                	li	a1,3
   16564:	6a810613          	addi	a2,sp,1704
   16568:	e5750493          	addi	s1,a0,-425 # e57 <.Lline_table_start1+0xc2c>
   1656c:	03f00693          	li	a3,63
   16570:	8526                	mv	a0,s1
   16572:	ffffb097          	auipc	ra,0xffffb
   16576:	bd0080e7          	jalr	-1072(ra) # 11142 <_ZN9allow_pin10no_dynamic11allow_inner17ha2b744c817d78427E>
   1657a:	8905                	andi	a0,a0,1
   1657c:	e911                	bnez	a0,16590 <_start+0x5432>
   1657e:	460d                	li	a2,3
   16580:	8526                	mv	a0,s1
   16582:	4581                	li	a1,0
   16584:	ffffb097          	auipc	ra,0xffffb
   16588:	bcc080e7          	jalr	-1076(ra) # 11150 <_ZN9allow_pin7command17h1eb46760111c3605E>
   1658c:	8905                	andi	a0,a0,1
   1658e:	c505                	beqz	a0,165b6 <_start+0x5458>
   16590:	87ae                	mv	a5,a1
   16592:	6505                	lui	a0,0x1
   16594:	e5750493          	addi	s1,a0,-425 # e57 <.Lline_table_start1+0xc2c>
   16598:	458d                	li	a1,3
   1659a:	470d                	li	a4,3
   1659c:	8526                	mv	a0,s1
   1659e:	4601                	li	a2,0
   165a0:	4681                	li	a3,0
   165a2:	00000073          	ecall
   165a6:	00001297          	auipc	t0,0x1
   165aa:	706282e7          	jalr	t0,1798(t0) # 17cac <OUTLINED_FUNCTION_43>
   165ae:	00000073          	ecall
   165b2:	c61fa06f          	j	11212 <_start+0xb4>
   165b6:	4601                	li	a2,0
   165b8:	4681                	li	a3,0
   165ba:	6905                	lui	s2,0x1
   165bc:	458d                	li	a1,3
   165be:	e5790413          	addi	s0,s2,-425 # e57 <.Lline_table_start1+0xc2c>
   165c2:	470d                	li	a4,3
   165c4:	8522                	mv	a0,s0
   165c6:	00000073          	ecall
   165ca:	00001297          	auipc	t0,0x1
   165ce:	6d6282e7          	jalr	t0,1750(t0) # 17ca0 <OUTLINED_FUNCTION_42>
   165d2:	00000073          	ecall
   165d6:	00001297          	auipc	t0,0x1
   165da:	37a282e7          	jalr	t0,890(t0) # 17950 <OUTLINED_FUNCTION_3>
   165de:	48a11223          	sh	a0,1156(sp)
   165e2:	48c10323          	sb	a2,1158(sp)
   165e6:	6af10593          	addi	a1,sp,1711
   165ea:	44c10513          	addi	a0,sp,1100
   165ee:	03800613          	li	a2,56
   165f2:	00002097          	auipc	ra,0x2
   165f6:	832080e7          	jalr	-1998(ra) # 17e24 <memcpy>
   165fa:	00001297          	auipc	t0,0x1
   165fe:	652282e7          	jalr	t0,1618(t0) # 17c4c <OUTLINED_FUNCTION_35>
   16602:	00000073          	ecall
   16606:	00001297          	auipc	t0,0x1
   1660a:	7a6282e7          	jalr	t0,1958(t0) # 17dac <OUTLINED_FUNCTION_62>
   1660e:	00000073          	ecall
   16612:	48411503          	lh	a0,1156(sp)
   16616:	48614583          	lbu	a1,1158(sp)
   1661a:	00001297          	auipc	t0,0x1
   1661e:	404282e7          	jalr	t0,1028(t0) # 17a1e <OUTLINED_FUNCTION_10>
   16622:	6af10513          	addi	a0,sp,1711
   16626:	44c10593          	addi	a1,sp,1100
   1662a:	03800613          	li	a2,56
   1662e:	00001097          	auipc	ra,0x1
   16632:	7f6080e7          	jalr	2038(ra) # 17e24 <memcpy>
   16636:	64410513          	addi	a0,sp,1604
   1663a:	4645                	li	a2,17
   1663c:	4581                	li	a1,0
   1663e:	00001097          	auipc	ra,0x1
   16642:	77a080e7          	jalr	1914(ra) # 17db8 <memset>
   16646:	4d790493          	addi	s1,s2,1239
   1664a:	4591                	li	a1,4
   1664c:	6a810613          	addi	a2,sp,1704
   16650:	03f00693          	li	a3,63
   16654:	8526                	mv	a0,s1
   16656:	ffffb097          	auipc	ra,0xffffb
   1665a:	ade080e7          	jalr	-1314(ra) # 11134 <_ZN9allow_pin10no_dynamic11allow_inner17h151634b71b3fc351E>
   1665e:	8905                	andi	a0,a0,1
   16660:	e905                	bnez	a0,16690 <_start+0x5532>
   16662:	458d                	li	a1,3
   16664:	64410613          	addi	a2,sp,1604
   16668:	46c5                	li	a3,17
   1666a:	8526                	mv	a0,s1
   1666c:	ffffb097          	auipc	ra,0xffffb
   16670:	ad6080e7          	jalr	-1322(ra) # 11142 <_ZN9allow_pin10no_dynamic11allow_inner17ha2b744c817d78427E>
   16674:	8905                	andi	a0,a0,1
   16676:	ed09                	bnez	a0,16690 <_start+0x5532>
   16678:	6905                	lui	s2,0x1
   1667a:	4591                	li	a1,4
   1667c:	4d790413          	addi	s0,s2,1239 # 14d7 <.Lline_table_start1+0x12ac>
   16680:	460d                	li	a2,3
   16682:	8522                	mv	a0,s0
   16684:	ffffb097          	auipc	ra,0xffffb
   16688:	acc080e7          	jalr	-1332(ra) # 11150 <_ZN9allow_pin7command17h1eb46760111c3605E>
   1668c:	8905                	andi	a0,a0,1
   1668e:	c105                	beqz	a0,166ae <_start+0x5550>
   16690:	87ae                	mv	a5,a1
   16692:	00001297          	auipc	t0,0x1
   16696:	588282e7          	jalr	t0,1416(t0) # 17c1a <OUTLINED_FUNCTION_32>
   1669a:	00000073          	ecall
   1669e:	00001297          	auipc	t0,0x1
   166a2:	6d2282e7          	jalr	t0,1746(t0) # 17d70 <OUTLINED_FUNCTION_57>
   166a6:	00000073          	ecall
   166aa:	b67fa06f          	j	11210 <_start+0xb2>
   166ae:	00001297          	auipc	t0,0x1
   166b2:	59e282e7          	jalr	t0,1438(t0) # 17c4c <OUTLINED_FUNCTION_35>
   166b6:	00000073          	ecall
   166ba:	00001297          	auipc	t0,0x1
   166be:	5e6282e7          	jalr	t0,1510(t0) # 17ca0 <OUTLINED_FUNCTION_42>
   166c2:	00000073          	ecall
   166c6:	64414883          	lbu	a7,1604(sp)
   166ca:	64514583          	lbu	a1,1605(sp)
   166ce:	64614803          	lbu	a6,1606(sp)
   166d2:	64714983          	lbu	s3,1607(sp)
   166d6:	65414683          	lbu	a3,1620(sp)
   166da:	65014283          	lbu	t0,1616(sp)
   166de:	65114303          	lbu	t1,1617(sp)
   166e2:	65214483          	lbu	s1,1618(sp)
   166e6:	65314603          	lbu	a2,1619(sp)
   166ea:	64814a03          	lbu	s4,1608(sp)
   166ee:	64914b03          	lbu	s6,1609(sp)
   166f2:	64a14a83          	lbu	s5,1610(sp)
   166f6:	64b14503          	lbu	a0,1611(sp)
   166fa:	05a2                	slli	a1,a1,0x8
   166fc:	06a2                	slli	a3,a3,0x8
   166fe:	0115e5b3          	or	a1,a1,a7
   16702:	00c6e8b3          	or	a7,a3,a2
   16706:	64c14683          	lbu	a3,1612(sp)
   1670a:	64d14603          	lbu	a2,1613(sp)
   1670e:	64e14703          	lbu	a4,1614(sp)
   16712:	64f14783          	lbu	a5,1615(sp)
   16716:	06a2                	slli	a3,a3,0x8
   16718:	8d55                	or	a0,a0,a3
   1671a:	0642                	slli	a2,a2,0x10
   1671c:	0762                	slli	a4,a4,0x18
   1671e:	8e59                	or	a2,a2,a4
   16720:	02a2                	slli	t0,t0,0x8
   16722:	00f2e6b3          	or	a3,t0,a5
   16726:	0342                	slli	t1,t1,0x10
   16728:	04e2                	slli	s1,s1,0x18
   1672a:	0064e7b3          	or	a5,s1,t1
   1672e:	48b11423          	sh	a1,1160(sp)
   16732:	49010523          	sb	a6,1162(sp)
   16736:	8d51                	or	a0,a0,a2
   16738:	470d                	li	a4,3
   1673a:	8edd                	or	a3,a3,a5
   1673c:	458d                	li	a1,3
   1673e:	5ea12623          	sw	a0,1516(sp)
   16742:	5ed12823          	sw	a3,1520(sp)
   16746:	5f111a23          	sh	a7,1524(sp)
   1674a:	8522                	mv	a0,s0
   1674c:	4601                	li	a2,0
   1674e:	4681                	li	a3,0
   16750:	00000073          	ecall
   16754:	00001297          	auipc	t0,0x1
   16758:	57c282e7          	jalr	t0,1404(t0) # 17cd0 <OUTLINED_FUNCTION_46>
   1675c:	00000073          	ecall
   16760:	64b10513          	addi	a0,sp,1611
   16764:	5ec10593          	addi	a1,sp,1516
   16768:	4629                	li	a2,10
   1676a:	00001097          	auipc	ra,0x1
   1676e:	6ba080e7          	jalr	1722(ra) # 17e24 <memcpy>
   16772:	48811503          	lh	a0,1160(sp)
   16776:	48a14583          	lbu	a1,1162(sp)
   1677a:	656104a3          	sb	s6,1609(sp)
   1677e:	00001297          	auipc	t0,0x1
   16782:	3de282e7          	jalr	t0,990(t0) # 17b5c <OUTLINED_FUNCTION_23>
   16786:	03f00613          	li	a2,63
   1678a:	4581                	li	a1,0
   1678c:	00001097          	auipc	ra,0x1
   16790:	62c080e7          	jalr	1580(ra) # 17db8 <memset>
   16794:	cb090513          	addi	a0,s2,-848
   16798:	459d                	li	a1,7
   1679a:	64410613          	addi	a2,sp,1604
   1679e:	46c5                	li	a3,17
   167a0:	ffffb097          	auipc	ra,0xffffb
   167a4:	994080e7          	jalr	-1644(ra) # 11134 <_ZN9allow_pin10no_dynamic11allow_inner17h151634b71b3fc351E>
   167a8:	8905                	andi	a0,a0,1
   167aa:	e90d                	bnez	a0,167dc <_start+0x567e>
   167ac:	6505                	lui	a0,0x1
   167ae:	4591                	li	a1,4
   167b0:	6a810613          	addi	a2,sp,1704
   167b4:	cb050413          	addi	s0,a0,-848 # cb0 <.Lline_table_start1+0xa85>
   167b8:	03f00693          	li	a3,63
   167bc:	8522                	mv	a0,s0
   167be:	ffffb097          	auipc	ra,0xffffb
   167c2:	984080e7          	jalr	-1660(ra) # 11142 <_ZN9allow_pin10no_dynamic11allow_inner17ha2b744c817d78427E>
   167c6:	8905                	andi	a0,a0,1
   167c8:	e911                	bnez	a0,167dc <_start+0x567e>
   167ca:	459d                	li	a1,7
   167cc:	4611                	li	a2,4
   167ce:	8522                	mv	a0,s0
   167d0:	ffffb097          	auipc	ra,0xffffb
   167d4:	980080e7          	jalr	-1664(ra) # 11150 <_ZN9allow_pin7command17h1eb46760111c3605E>
   167d8:	8905                	andi	a0,a0,1
   167da:	c505                	beqz	a0,16802 <_start+0x56a4>
   167dc:	87ae                	mv	a5,a1
   167de:	4601                	li	a2,0
   167e0:	4681                	li	a3,0
   167e2:	6505                	lui	a0,0x1
   167e4:	4591                	li	a1,4
   167e6:	cb050493          	addi	s1,a0,-848 # cb0 <.Lline_table_start1+0xa85>
   167ea:	470d                	li	a4,3
   167ec:	8526                	mv	a0,s1
   167ee:	00000073          	ecall
   167f2:	00001297          	auipc	t0,0x1
   167f6:	48a282e7          	jalr	t0,1162(t0) # 17c7c <OUTLINED_FUNCTION_39>
   167fa:	00000073          	ecall
   167fe:	a13fa06f          	j	11210 <_start+0xb2>
   16802:	4601                	li	a2,0
   16804:	4681                	li	a3,0
   16806:	6905                	lui	s2,0x1
   16808:	4591                	li	a1,4
   1680a:	cb090413          	addi	s0,s2,-848 # cb0 <.Lline_table_start1+0xa85>
   1680e:	470d                	li	a4,3
   16810:	8522                	mv	a0,s0
   16812:	00000073          	ecall
   16816:	470d                	li	a4,3
   16818:	4591                	li	a1,4
   1681a:	8522                	mv	a0,s0
   1681c:	4601                	li	a2,0
   1681e:	4681                	li	a3,0
   16820:	00000073          	ecall
   16824:	00001297          	auipc	t0,0x1
   16828:	12c282e7          	jalr	t0,300(t0) # 17950 <OUTLINED_FUNCTION_3>
   1682c:	4ca11223          	sh	a0,1220(sp)
   16830:	4cc10323          	sb	a2,1222(sp)
   16834:	6af10593          	addi	a1,sp,1711
   16838:	48c10513          	addi	a0,sp,1164
   1683c:	03800613          	li	a2,56
   16840:	00001097          	auipc	ra,0x1
   16844:	5e4080e7          	jalr	1508(ra) # 17e24 <memcpy>
   16848:	00001297          	auipc	t0,0x1
   1684c:	534282e7          	jalr	t0,1332(t0) # 17d7c <OUTLINED_FUNCTION_58>
   16850:	00000073          	ecall
   16854:	4711                	li	a4,4
   16856:	459d                	li	a1,7
   16858:	8522                	mv	a0,s0
   1685a:	4601                	li	a2,0
   1685c:	4681                	li	a3,0
   1685e:	00000073          	ecall
   16862:	4c411503          	lh	a0,1220(sp)
   16866:	4c614583          	lbu	a1,1222(sp)
   1686a:	00001297          	auipc	t0,0x1
   1686e:	1b4282e7          	jalr	t0,436(t0) # 17a1e <OUTLINED_FUNCTION_10>
   16872:	6af10513          	addi	a0,sp,1711
   16876:	48c10593          	addi	a1,sp,1164
   1687a:	03800613          	li	a2,56
   1687e:	00001097          	auipc	ra,0x1
   16882:	5a6080e7          	jalr	1446(ra) # 17e24 <memcpy>
   16886:	64410513          	addi	a0,sp,1604
   1688a:	4671                	li	a2,28
   1688c:	4581                	li	a1,0
   1688e:	00001097          	auipc	ra,0x1
   16892:	52a080e7          	jalr	1322(ra) # 17db8 <memset>
   16896:	69490413          	addi	s0,s2,1684
   1689a:	4595                	li	a1,5
   1689c:	6a810613          	addi	a2,sp,1704
   168a0:	03f00693          	li	a3,63
   168a4:	8522                	mv	a0,s0
   168a6:	ffffb097          	auipc	ra,0xffffb
   168aa:	88e080e7          	jalr	-1906(ra) # 11134 <_ZN9allow_pin10no_dynamic11allow_inner17h151634b71b3fc351E>
   168ae:	8905                	andi	a0,a0,1
   168b0:	e905                	bnez	a0,168e0 <_start+0x5782>
   168b2:	45a5                	li	a1,9
   168b4:	64410613          	addi	a2,sp,1604
   168b8:	46f1                	li	a3,28
   168ba:	8522                	mv	a0,s0
   168bc:	ffffb097          	auipc	ra,0xffffb
   168c0:	886080e7          	jalr	-1914(ra) # 11142 <_ZN9allow_pin10no_dynamic11allow_inner17ha2b744c817d78427E>
   168c4:	8905                	andi	a0,a0,1
   168c6:	ed09                	bnez	a0,168e0 <_start+0x5782>
   168c8:	6905                	lui	s2,0x1
   168ca:	4595                	li	a1,5
   168cc:	69490493          	addi	s1,s2,1684 # 1694 <.Lline_table_start1+0x1469>
   168d0:	4625                	li	a2,9
   168d2:	8526                	mv	a0,s1
   168d4:	ffffb097          	auipc	ra,0xffffb
   168d8:	87c080e7          	jalr	-1924(ra) # 11150 <_ZN9allow_pin7command17h1eb46760111c3605E>
   168dc:	8905                	andi	a0,a0,1
   168de:	c105                	beqz	a0,168fe <_start+0x57a0>
   168e0:	00001297          	auipc	t0,0x1
   168e4:	304282e7          	jalr	t0,772(t0) # 17be4 <OUTLINED_FUNCTION_28>
   168e8:	00000073          	ecall
   168ec:	4595                	li	a1,5
   168ee:	4711                	li	a4,4
   168f0:	8522                	mv	a0,s0
   168f2:	4601                	li	a2,0
   168f4:	4681                	li	a3,0
   168f6:	00000073          	ecall
   168fa:	917fa06f          	j	11210 <_start+0xb2>
   168fe:	00001297          	auipc	t0,0x1
   16902:	310282e7          	jalr	t0,784(t0) # 17c0e <OUTLINED_FUNCTION_31>
   16906:	00000073          	ecall
   1690a:	00001297          	auipc	t0,0x1
   1690e:	366282e7          	jalr	t0,870(t0) # 17c70 <OUTLINED_FUNCTION_38>
   16912:	00000073          	ecall
   16916:	00001297          	auipc	t0,0x1
   1691a:	090282e7          	jalr	t0,144(t0) # 179a6 <OUTLINED_FUNCTION_6>
   1691e:	4ca11423          	sh	a0,1224(sp)
   16922:	4cc10523          	sb	a2,1226(sp)
   16926:	64b10593          	addi	a1,sp,1611
   1692a:	52c10513          	addi	a0,sp,1324
   1692e:	4655                	li	a2,21
   16930:	00001097          	auipc	ra,0x1
   16934:	4f4080e7          	jalr	1268(ra) # 17e24 <memcpy>
   16938:	00001297          	auipc	t0,0x1
   1693c:	2d6282e7          	jalr	t0,726(t0) # 17c0e <OUTLINED_FUNCTION_31>
   16940:	00000073          	ecall
   16944:	4595                	li	a1,5
   16946:	4711                	li	a4,4
   16948:	8526                	mv	a0,s1
   1694a:	4601                	li	a2,0
   1694c:	4681                	li	a3,0
   1694e:	00000073          	ecall
   16952:	5f310513          	addi	a0,sp,1523
   16956:	52c10593          	addi	a1,sp,1324
   1695a:	4655                	li	a2,21
   1695c:	00001097          	auipc	ra,0x1
   16960:	4c8080e7          	jalr	1224(ra) # 17e24 <memcpy>
   16964:	4c811503          	lh	a0,1224(sp)
   16968:	4ca14583          	lbu	a1,1226(sp)
   1696c:	5e8108a3          	sb	s0,1521(sp)
   16970:	00001297          	auipc	t0,0x1
   16974:	218282e7          	jalr	t0,536(t0) # 17b88 <OUTLINED_FUNCTION_25>
   16978:	6a810513          	addi	a0,sp,1704
   1697c:	05d00613          	li	a2,93
   16980:	4581                	li	a1,0
   16982:	00001097          	auipc	ra,0x1
   16986:	436080e7          	jalr	1078(ra) # 17db8 <memset>
   1698a:	c3e90513          	addi	a0,s2,-962
   1698e:	45a1                	li	a1,8
   16990:	5ec10613          	addi	a2,sp,1516
   16994:	46f1                	li	a3,28
   16996:	ffffa097          	auipc	ra,0xffffa
   1699a:	79e080e7          	jalr	1950(ra) # 11134 <_ZN9allow_pin10no_dynamic11allow_inner17h151634b71b3fc351E>
   1699e:	8905                	andi	a0,a0,1
   169a0:	e90d                	bnez	a0,169d2 <_start+0x5874>
   169a2:	6505                	lui	a0,0x1
   169a4:	4595                	li	a1,5
   169a6:	6a810613          	addi	a2,sp,1704
   169aa:	c3e50413          	addi	s0,a0,-962 # c3e <.Lline_table_start1+0xa13>
   169ae:	05d00693          	li	a3,93
   169b2:	8522                	mv	a0,s0
   169b4:	ffffa097          	auipc	ra,0xffffa
   169b8:	78e080e7          	jalr	1934(ra) # 11142 <_ZN9allow_pin10no_dynamic11allow_inner17ha2b744c817d78427E>
   169bc:	8905                	andi	a0,a0,1
   169be:	e911                	bnez	a0,169d2 <_start+0x5874>
   169c0:	45a1                	li	a1,8
   169c2:	4615                	li	a2,5
   169c4:	8522                	mv	a0,s0
   169c6:	ffffa097          	auipc	ra,0xffffa
   169ca:	78a080e7          	jalr	1930(ra) # 11150 <_ZN9allow_pin7command17h1eb46760111c3605E>
   169ce:	8905                	andi	a0,a0,1
   169d0:	c505                	beqz	a0,169f8 <_start+0x589a>
   169d2:	87ae                	mv	a5,a1
   169d4:	4601                	li	a2,0
   169d6:	4681                	li	a3,0
   169d8:	6505                	lui	a0,0x1
   169da:	4595                	li	a1,5
   169dc:	c3e50493          	addi	s1,a0,-962 # c3e <.Lline_table_start1+0xa13>
   169e0:	470d                	li	a4,3
   169e2:	8526                	mv	a0,s1
   169e4:	00000073          	ecall
   169e8:	00001297          	auipc	t0,0x1
   169ec:	37c282e7          	jalr	t0,892(t0) # 17d64 <OUTLINED_FUNCTION_56>
   169f0:	00000073          	ecall
   169f4:	81dfa06f          	j	11210 <_start+0xb2>
   169f8:	4601                	li	a2,0
   169fa:	4681                	li	a3,0
   169fc:	6905                	lui	s2,0x1
   169fe:	4595                	li	a1,5
   16a00:	c3e90413          	addi	s0,s2,-962 # c3e <.Lline_table_start1+0xa13>
   16a04:	470d                	li	a4,3
   16a06:	8522                	mv	a0,s0
   16a08:	00000073          	ecall
   16a0c:	470d                	li	a4,3
   16a0e:	4595                	li	a1,5
   16a10:	8522                	mv	a0,s0
   16a12:	4601                	li	a2,0
   16a14:	4681                	li	a3,0
   16a16:	00000073          	ecall
   16a1a:	00001297          	auipc	t0,0x1
   16a1e:	f36282e7          	jalr	t0,-202(t0) # 17950 <OUTLINED_FUNCTION_3>
   16a22:	4ca11623          	sh	a0,1228(sp)
   16a26:	4cc10723          	sb	a2,1230(sp)
   16a2a:	6af10593          	addi	a1,sp,1711
   16a2e:	64410513          	addi	a0,sp,1604
   16a32:	05600613          	li	a2,86
   16a36:	00001097          	auipc	ra,0x1
   16a3a:	3ee080e7          	jalr	1006(ra) # 17e24 <memcpy>
   16a3e:	00001297          	auipc	t0,0x1
   16a42:	34a282e7          	jalr	t0,842(t0) # 17d88 <OUTLINED_FUNCTION_59>
   16a46:	00000073          	ecall
   16a4a:	45a1                	li	a1,8
   16a4c:	4711                	li	a4,4
   16a4e:	8522                	mv	a0,s0
   16a50:	4601                	li	a2,0
   16a52:	4681                	li	a3,0
   16a54:	00000073          	ecall
   16a58:	6af10513          	addi	a0,sp,1711
   16a5c:	64410593          	addi	a1,sp,1604
   16a60:	05600613          	li	a2,86
   16a64:	00001097          	auipc	ra,0x1
   16a68:	3c0080e7          	jalr	960(ra) # 17e24 <memcpy>
   16a6c:	4cc11503          	lh	a0,1228(sp)
   16a70:	4ce14583          	lbu	a1,1230(sp)
   16a74:	00001297          	auipc	t0,0x1
   16a78:	faa282e7          	jalr	t0,-86(t0) # 17a1e <OUTLINED_FUNCTION_10>
   16a7c:	64410513          	addi	a0,sp,1604
   16a80:	4649                	li	a2,18
   16a82:	4581                	li	a1,0
   16a84:	00001097          	auipc	ra,0x1
   16a88:	334080e7          	jalr	820(ra) # 17db8 <memset>
   16a8c:	5f190493          	addi	s1,s2,1521
   16a90:	6a810613          	addi	a2,sp,1704
   16a94:	05d00693          	li	a3,93
   16a98:	8526                	mv	a0,s1
   16a9a:	4581                	li	a1,0
   16a9c:	ffffa097          	auipc	ra,0xffffa
   16aa0:	698080e7          	jalr	1688(ra) # 11134 <_ZN9allow_pin10no_dynamic11allow_inner17h151634b71b3fc351E>
   16aa4:	8905                	andi	a0,a0,1
   16aa6:	e905                	bnez	a0,16ad6 <_start+0x5978>
   16aa8:	4589                	li	a1,2
   16aaa:	64410613          	addi	a2,sp,1604
   16aae:	46c9                	li	a3,18
   16ab0:	8526                	mv	a0,s1
   16ab2:	ffffa097          	auipc	ra,0xffffa
   16ab6:	690080e7          	jalr	1680(ra) # 11142 <_ZN9allow_pin10no_dynamic11allow_inner17ha2b744c817d78427E>
   16aba:	8905                	andi	a0,a0,1
   16abc:	ed09                	bnez	a0,16ad6 <_start+0x5978>
   16abe:	6505                	lui	a0,0x1
   16ac0:	5f150413          	addi	s0,a0,1521 # 15f1 <.Lline_table_start1+0x13c6>
   16ac4:	4609                	li	a2,2
   16ac6:	8522                	mv	a0,s0
   16ac8:	4581                	li	a1,0
   16aca:	ffffa097          	auipc	ra,0xffffa
   16ace:	686080e7          	jalr	1670(ra) # 11150 <_ZN9allow_pin7command17h1eb46760111c3605E>
   16ad2:	8905                	andi	a0,a0,1
   16ad4:	c10d                	beqz	a0,16af6 <_start+0x5998>
   16ad6:	87ae                	mv	a5,a1
   16ad8:	4589                	li	a1,2
   16ada:	470d                	li	a4,3
   16adc:	8526                	mv	a0,s1
   16ade:	4601                	li	a2,0
   16ae0:	4681                	li	a3,0
   16ae2:	00000073          	ecall
   16ae6:	00001297          	auipc	t0,0x1
   16aea:	1c6282e7          	jalr	t0,454(t0) # 17cac <OUTLINED_FUNCTION_43>
   16aee:	00000073          	ecall
   16af2:	f1efa06f          	j	11210 <_start+0xb2>
   16af6:	8522                	mv	a0,s0
   16af8:	4601                	li	a2,0
   16afa:	4681                	li	a3,0
   16afc:	4589                	li	a1,2
   16afe:	470d                	li	a4,3
   16b00:	00000073          	ecall
   16b04:	470d                	li	a4,3
   16b06:	4589                	li	a1,2
   16b08:	8522                	mv	a0,s0
   16b0a:	4601                	li	a2,0
   16b0c:	4681                	li	a3,0
   16b0e:	00000073          	ecall
   16b12:	64414283          	lbu	t0,1604(sp)
   16b16:	64514603          	lbu	a2,1605(sp)
   16b1a:	64614803          	lbu	a6,1606(sp)
   16b1e:	64714903          	lbu	s2,1607(sp)
   16b22:	65414683          	lbu	a3,1620(sp)
   16b26:	65514883          	lbu	a7,1621(sp)
   16b2a:	65014303          	lbu	t1,1616(sp)
   16b2e:	65114383          	lbu	t2,1617(sp)
   16b32:	65214503          	lbu	a0,1618(sp)
   16b36:	65314703          	lbu	a4,1619(sp)
   16b3a:	64814983          	lbu	s3,1608(sp)
   16b3e:	64914a83          	lbu	s5,1609(sp)
   16b42:	64a14a03          	lbu	s4,1610(sp)
   16b46:	64b14583          	lbu	a1,1611(sp)
   16b4a:	0622                	slli	a2,a2,0x8
   16b4c:	06a2                	slli	a3,a3,0x8
   16b4e:	00566633          	or	a2,a2,t0
   16b52:	00e6e2b3          	or	t0,a3,a4
   16b56:	64c14703          	lbu	a4,1612(sp)
   16b5a:	64d14783          	lbu	a5,1613(sp)
   16b5e:	64e14683          	lbu	a3,1614(sp)
   16b62:	64f14483          	lbu	s1,1615(sp)
   16b66:	0722                	slli	a4,a4,0x8
   16b68:	8dd9                	or	a1,a1,a4
   16b6a:	07c2                	slli	a5,a5,0x10
   16b6c:	06e2                	slli	a3,a3,0x18
   16b6e:	8edd                	or	a3,a3,a5
   16b70:	0322                	slli	t1,t1,0x8
   16b72:	00936733          	or	a4,t1,s1
   16b76:	03c2                	slli	t2,t2,0x10
   16b78:	0562                	slli	a0,a0,0x18
   16b7a:	00756533          	or	a0,a0,t2
   16b7e:	4cc11823          	sh	a2,1232(sp)
   16b82:	4d010923          	sb	a6,1234(sp)
   16b86:	8ecd                	or	a3,a3,a1
   16b88:	8d59                	or	a0,a0,a4
   16b8a:	4589                	li	a1,2
   16b8c:	52d12623          	sw	a3,1324(sp)
   16b90:	52a12823          	sw	a0,1328(sp)
   16b94:	52511a23          	sh	t0,1332(sp)
   16b98:	53110b23          	sb	a7,1334(sp)
   16b9c:	470d                	li	a4,3
   16b9e:	8522                	mv	a0,s0
   16ba0:	4601                	li	a2,0
   16ba2:	4681                	li	a3,0
   16ba4:	00000073          	ecall
   16ba8:	00001297          	auipc	t0,0x1
   16bac:	204282e7          	jalr	t0,516(t0) # 17dac <OUTLINED_FUNCTION_62>
   16bb0:	00000073          	ecall
   16bb4:	5f310513          	addi	a0,sp,1523
   16bb8:	52c10593          	addi	a1,sp,1324
   16bbc:	462d                	li	a2,11
   16bbe:	00001097          	auipc	ra,0x1
   16bc2:	266080e7          	jalr	614(ra) # 17e24 <memcpy>
   16bc6:	4d011503          	lh	a0,1232(sp)
   16bca:	4d214583          	lbu	a1,1234(sp)
   16bce:	5f5108a3          	sb	s5,1521(sp)
   16bd2:	5f410923          	sb	s4,1522(sp)
   16bd6:	00001297          	auipc	t0,0x1
   16bda:	f5a282e7          	jalr	t0,-166(t0) # 17b30 <OUTLINED_FUNCTION_21>
   16bde:	04400613          	li	a2,68
   16be2:	4581                	li	a1,0
   16be4:	00001097          	auipc	ra,0x1
   16be8:	1d4080e7          	jalr	468(ra) # 17db8 <memset>
   16bec:	6509                	lui	a0,0x2
   16bee:	4589                	li	a1,2
   16bf0:	5ec10613          	addi	a2,sp,1516
   16bf4:	43250413          	addi	s0,a0,1074 # 2432 <.Lline_table_start1+0x2207>
   16bf8:	46c9                	li	a3,18
   16bfa:	8522                	mv	a0,s0
   16bfc:	ffffa097          	auipc	ra,0xffffa
   16c00:	538080e7          	jalr	1336(ra) # 11134 <_ZN9allow_pin10no_dynamic11allow_inner17h151634b71b3fc351E>
   16c04:	8905                	andi	a0,a0,1
   16c06:	e90d                	bnez	a0,16c38 <_start+0x5ada>
   16c08:	45a5                	li	a1,9
   16c0a:	6a810613          	addi	a2,sp,1704
   16c0e:	04400693          	li	a3,68
   16c12:	8522                	mv	a0,s0
   16c14:	ffffa097          	auipc	ra,0xffffa
   16c18:	52e080e7          	jalr	1326(ra) # 11142 <_ZN9allow_pin10no_dynamic11allow_inner17ha2b744c817d78427E>
   16c1c:	8905                	andi	a0,a0,1
   16c1e:	ed09                	bnez	a0,16c38 <_start+0x5ada>
   16c20:	6509                	lui	a0,0x2
   16c22:	4589                	li	a1,2
   16c24:	43250493          	addi	s1,a0,1074 # 2432 <.Lline_table_start1+0x2207>
   16c28:	4625                	li	a2,9
   16c2a:	8526                	mv	a0,s1
   16c2c:	ffffa097          	auipc	ra,0xffffa
   16c30:	524080e7          	jalr	1316(ra) # 11150 <_ZN9allow_pin7command17h1eb46760111c3605E>
   16c34:	8905                	andi	a0,a0,1
   16c36:	cd19                	beqz	a0,16c54 <_start+0x5af6>
   16c38:	00001297          	auipc	t0,0x1
   16c3c:	fac282e7          	jalr	t0,-84(t0) # 17be4 <OUTLINED_FUNCTION_28>
   16c40:	00000073          	ecall
   16c44:	00001297          	auipc	t0,0x1
   16c48:	074282e7          	jalr	t0,116(t0) # 17cb8 <OUTLINED_FUNCTION_44>
   16c4c:	00000073          	ecall
   16c50:	dc0fa06f          	j	11210 <_start+0xb2>
   16c54:	00001297          	auipc	t0,0x1
   16c58:	fba282e7          	jalr	t0,-70(t0) # 17c0e <OUTLINED_FUNCTION_31>
   16c5c:	00000073          	ecall
   16c60:	00001297          	auipc	t0,0x1
   16c64:	010282e7          	jalr	t0,16(t0) # 17c70 <OUTLINED_FUNCTION_38>
   16c68:	00000073          	ecall
   16c6c:	00001297          	auipc	t0,0x1
   16c70:	cc6282e7          	jalr	t0,-826(t0) # 17932 <OUTLINED_FUNCTION_2>
   16c74:	6ae14a03          	lbu	s4,1710(sp)
   16c78:	4ca11a23          	sh	a0,1236(sp)
   16c7c:	4cc10b23          	sb	a2,1238(sp)
   16c80:	6af10593          	addi	a1,sp,1711
   16c84:	64410513          	addi	a0,sp,1604
   16c88:	03d00613          	li	a2,61
   16c8c:	00001097          	auipc	ra,0x1
   16c90:	198080e7          	jalr	408(ra) # 17e24 <memcpy>
   16c94:	00001297          	auipc	t0,0x1
   16c98:	f7a282e7          	jalr	t0,-134(t0) # 17c0e <OUTLINED_FUNCTION_31>
   16c9c:	00000073          	ecall
   16ca0:	4589                	li	a1,2
   16ca2:	4711                	li	a4,4
   16ca4:	8526                	mv	a0,s1
   16ca6:	4601                	li	a2,0
   16ca8:	4681                	li	a3,0
   16caa:	00000073          	ecall
   16cae:	6af10513          	addi	a0,sp,1711
   16cb2:	64410593          	addi	a1,sp,1604
   16cb6:	03d00613          	li	a2,61
   16cba:	00001097          	auipc	ra,0x1
   16cbe:	16a080e7          	jalr	362(ra) # 17e24 <memcpy>
   16cc2:	4d411503          	lh	a0,1236(sp)
   16cc6:	4d614583          	lbu	a1,1238(sp)
   16cca:	00001297          	auipc	t0,0x1
   16cce:	d1c282e7          	jalr	t0,-740(t0) # 179e6 <OUTLINED_FUNCTION_8>
   16cd2:	02300613          	li	a2,35
   16cd6:	4581                	li	a1,0
   16cd8:	00001097          	auipc	ra,0x1
   16cdc:	0e0080e7          	jalr	224(ra) # 17db8 <memset>
   16ce0:	6505                	lui	a0,0x1
   16ce2:	4599                	li	a1,6
   16ce4:	6a810613          	addi	a2,sp,1704
   16ce8:	9bf50413          	addi	s0,a0,-1601 # 9bf <.Lline_table_start1+0x794>
   16cec:	04400693          	li	a3,68
   16cf0:	8522                	mv	a0,s0
   16cf2:	ffffa097          	auipc	ra,0xffffa
   16cf6:	442080e7          	jalr	1090(ra) # 11134 <_ZN9allow_pin10no_dynamic11allow_inner17h151634b71b3fc351E>
   16cfa:	8905                	andi	a0,a0,1
   16cfc:	e90d                	bnez	a0,16d2e <_start+0x5bd0>
   16cfe:	458d                	li	a1,3
   16d00:	64410613          	addi	a2,sp,1604
   16d04:	02300693          	li	a3,35
   16d08:	8522                	mv	a0,s0
   16d0a:	ffffa097          	auipc	ra,0xffffa
   16d0e:	438080e7          	jalr	1080(ra) # 11142 <_ZN9allow_pin10no_dynamic11allow_inner17ha2b744c817d78427E>
   16d12:	8905                	andi	a0,a0,1
   16d14:	ed09                	bnez	a0,16d2e <_start+0x5bd0>
   16d16:	6505                	lui	a0,0x1
   16d18:	4599                	li	a1,6
   16d1a:	9bf50493          	addi	s1,a0,-1601 # 9bf <.Lline_table_start1+0x794>
   16d1e:	460d                	li	a2,3
   16d20:	8526                	mv	a0,s1
   16d22:	ffffa097          	auipc	ra,0xffffa
   16d26:	42e080e7          	jalr	1070(ra) # 11150 <_ZN9allow_pin7command17h1eb46760111c3605E>
   16d2a:	8905                	andi	a0,a0,1
   16d2c:	cd19                	beqz	a0,16d4a <_start+0x5bec>
   16d2e:	00001297          	auipc	t0,0x1
   16d32:	ec4282e7          	jalr	t0,-316(t0) # 17bf2 <OUTLINED_FUNCTION_29>
   16d36:	00000073          	ecall
   16d3a:	00001297          	auipc	t0,0x1
   16d3e:	01e282e7          	jalr	t0,30(t0) # 17d58 <OUTLINED_FUNCTION_55>
   16d42:	00000073          	ecall
   16d46:	ccafa06f          	j	11210 <_start+0xb2>
   16d4a:	00001297          	auipc	t0,0x1
   16d4e:	ed0282e7          	jalr	t0,-304(t0) # 17c1a <OUTLINED_FUNCTION_32>
   16d52:	00000073          	ecall
   16d56:	00001297          	auipc	t0,0x1
   16d5a:	f3e282e7          	jalr	t0,-194(t0) # 17c94 <OUTLINED_FUNCTION_41>
   16d5e:	00000073          	ecall
   16d62:	00001297          	auipc	t0,0x1
   16d66:	b90282e7          	jalr	t0,-1136(t0) # 178f2 <OUTLINED_FUNCTION_0>
   16d6a:	4ea11a23          	sh	a0,1268(sp)
   16d6e:	4ec10b23          	sb	a2,1270(sp)
   16d72:	64b10593          	addi	a1,sp,1611
   16d76:	4d810513          	addi	a0,sp,1240
   16d7a:	4671                	li	a2,28
   16d7c:	00001097          	auipc	ra,0x1
   16d80:	0a8080e7          	jalr	168(ra) # 17e24 <memcpy>
   16d84:	00001297          	auipc	t0,0x1
   16d88:	e96282e7          	jalr	t0,-362(t0) # 17c1a <OUTLINED_FUNCTION_32>
   16d8c:	00000073          	ecall
   16d90:	4711                	li	a4,4
   16d92:	4599                	li	a1,6
   16d94:	8526                	mv	a0,s1
   16d96:	4601                	li	a2,0
   16d98:	4681                	li	a3,0
   16d9a:	00000073          	ecall
   16d9e:	4f411503          	lh	a0,1268(sp)
   16da2:	4f614583          	lbu	a1,1270(sp)
   16da6:	648104a3          	sb	s0,1609(sp)
   16daa:	65410523          	sb	s4,1610(sp)
   16dae:	64a11223          	sh	a0,1604(sp)
   16db2:	64b10323          	sb	a1,1606(sp)
   16db6:	652103a3          	sb	s2,1607(sp)
   16dba:	65310423          	sb	s3,1608(sp)
   16dbe:	64b10513          	addi	a0,sp,1611
   16dc2:	4d810593          	addi	a1,sp,1240
   16dc6:	4671                	li	a2,28
   16dc8:	00001097          	auipc	ra,0x1
   16dcc:	05c080e7          	jalr	92(ra) # 17e24 <memcpy>
   16dd0:	6a810513          	addi	a0,sp,1704
   16dd4:	02400613          	li	a2,36
   16dd8:	4581                	li	a1,0
   16dda:	00001097          	auipc	ra,0x1
   16dde:	fde080e7          	jalr	-34(ra) # 17db8 <memset>
   16de2:	6509                	lui	a0,0x2
   16de4:	4591                	li	a1,4
   16de6:	64410613          	addi	a2,sp,1604
   16dea:	bd650413          	addi	s0,a0,-1066 # 1bd6 <.Lline_table_start1+0x19ab>
   16dee:	02300693          	li	a3,35
   16df2:	8522                	mv	a0,s0
   16df4:	ffffa097          	auipc	ra,0xffffa
   16df8:	340080e7          	jalr	832(ra) # 11134 <_ZN9allow_pin10no_dynamic11allow_inner17h151634b71b3fc351E>
   16dfc:	8905                	andi	a0,a0,1
   16dfe:	e90d                	bnez	a0,16e30 <_start+0x5cd2>
   16e00:	45a1                	li	a1,8
   16e02:	6a810613          	addi	a2,sp,1704
   16e06:	02400693          	li	a3,36
   16e0a:	8522                	mv	a0,s0
   16e0c:	ffffa097          	auipc	ra,0xffffa
   16e10:	336080e7          	jalr	822(ra) # 11142 <_ZN9allow_pin10no_dynamic11allow_inner17ha2b744c817d78427E>
   16e14:	8905                	andi	a0,a0,1
   16e16:	ed09                	bnez	a0,16e30 <_start+0x5cd2>
   16e18:	6509                	lui	a0,0x2
   16e1a:	4591                	li	a1,4
   16e1c:	bd650493          	addi	s1,a0,-1066 # 1bd6 <.Lline_table_start1+0x19ab>
   16e20:	4621                	li	a2,8
   16e22:	8526                	mv	a0,s1
   16e24:	ffffa097          	auipc	ra,0xffffa
   16e28:	32c080e7          	jalr	812(ra) # 11150 <_ZN9allow_pin7command17h1eb46760111c3605E>
   16e2c:	8905                	andi	a0,a0,1
   16e2e:	cd19                	beqz	a0,16e4c <_start+0x5cee>
   16e30:	00001297          	auipc	t0,0x1
   16e34:	dd0282e7          	jalr	t0,-560(t0) # 17c00 <OUTLINED_FUNCTION_30>
   16e38:	00000073          	ecall
   16e3c:	00001297          	auipc	t0,0x1
   16e40:	e94282e7          	jalr	t0,-364(t0) # 17cd0 <OUTLINED_FUNCTION_46>
   16e44:	00000073          	ecall
   16e48:	bc8fa06f          	j	11210 <_start+0xb2>
   16e4c:	00001297          	auipc	t0,0x1
   16e50:	e0c282e7          	jalr	t0,-500(t0) # 17c58 <OUTLINED_FUNCTION_36>
   16e54:	00000073          	ecall
   16e58:	00001297          	auipc	t0,0x1
   16e5c:	f48282e7          	jalr	t0,-184(t0) # 17da0 <OUTLINED_FUNCTION_61>
   16e60:	00000073          	ecall
   16e64:	00001297          	auipc	t0,0x1
   16e68:	ace282e7          	jalr	t0,-1330(t0) # 17932 <OUTLINED_FUNCTION_2>
   16e6c:	6ae14a03          	lbu	s4,1710(sp)
   16e70:	4ea11c23          	sh	a0,1272(sp)
   16e74:	4ec10d23          	sb	a2,1274(sp)
   16e78:	6af10593          	addi	a1,sp,1711
   16e7c:	5ec10513          	addi	a0,sp,1516
   16e80:	4675                	li	a2,29
   16e82:	00001097          	auipc	ra,0x1
   16e86:	fa2080e7          	jalr	-94(ra) # 17e24 <memcpy>
   16e8a:	00001297          	auipc	t0,0x1
   16e8e:	dce282e7          	jalr	t0,-562(t0) # 17c58 <OUTLINED_FUNCTION_36>
   16e92:	00000073          	ecall
   16e96:	00001297          	auipc	t0,0x1
   16e9a:	eda282e7          	jalr	t0,-294(t0) # 17d70 <OUTLINED_FUNCTION_57>
   16e9e:	00000073          	ecall
   16ea2:	64b10513          	addi	a0,sp,1611
   16ea6:	5ec10593          	addi	a1,sp,1516
   16eaa:	4675                	li	a2,29
   16eac:	00001097          	auipc	ra,0x1
   16eb0:	f78080e7          	jalr	-136(ra) # 17e24 <memcpy>
   16eb4:	4f811503          	lh	a0,1272(sp)
   16eb8:	4fa14583          	lbu	a1,1274(sp)
   16ebc:	648104a3          	sb	s0,1609(sp)
   16ec0:	65410523          	sb	s4,1610(sp)
   16ec4:	00001297          	auipc	t0,0x1
   16ec8:	c82282e7          	jalr	t0,-894(t0) # 17b46 <OUTLINED_FUNCTION_22>
   16ecc:	02f00613          	li	a2,47
   16ed0:	4581                	li	a1,0
   16ed2:	00001097          	auipc	ra,0x1
   16ed6:	ee6080e7          	jalr	-282(ra) # 17db8 <memset>
   16eda:	6505                	lui	a0,0x1
   16edc:	4599                	li	a1,6
   16ede:	64410613          	addi	a2,sp,1604
   16ee2:	27350413          	addi	s0,a0,627 # 1273 <.Lline_table_start1+0x1048>
   16ee6:	02400693          	li	a3,36
   16eea:	8522                	mv	a0,s0
   16eec:	ffffa097          	auipc	ra,0xffffa
   16ef0:	248080e7          	jalr	584(ra) # 11134 <_ZN9allow_pin10no_dynamic11allow_inner17h151634b71b3fc351E>
   16ef4:	8905                	andi	a0,a0,1
   16ef6:	e90d                	bnez	a0,16f28 <_start+0x5dca>
   16ef8:	45a5                	li	a1,9
   16efa:	6a810613          	addi	a2,sp,1704
   16efe:	02f00693          	li	a3,47
   16f02:	8522                	mv	a0,s0
   16f04:	ffffa097          	auipc	ra,0xffffa
   16f08:	23e080e7          	jalr	574(ra) # 11142 <_ZN9allow_pin10no_dynamic11allow_inner17ha2b744c817d78427E>
   16f0c:	8905                	andi	a0,a0,1
   16f0e:	ed09                	bnez	a0,16f28 <_start+0x5dca>
   16f10:	6505                	lui	a0,0x1
   16f12:	4599                	li	a1,6
   16f14:	27350493          	addi	s1,a0,627 # 1273 <.Lline_table_start1+0x1048>
   16f18:	4625                	li	a2,9
   16f1a:	8526                	mv	a0,s1
   16f1c:	ffffa097          	auipc	ra,0xffffa
   16f20:	234080e7          	jalr	564(ra) # 11150 <_ZN9allow_pin7command17h1eb46760111c3605E>
   16f24:	8905                	andi	a0,a0,1
   16f26:	cd19                	beqz	a0,16f44 <_start+0x5de6>
   16f28:	00001297          	auipc	t0,0x1
   16f2c:	cbc282e7          	jalr	t0,-836(t0) # 17be4 <OUTLINED_FUNCTION_28>
   16f30:	00000073          	ecall
   16f34:	00001297          	auipc	t0,0x1
   16f38:	e24282e7          	jalr	t0,-476(t0) # 17d58 <OUTLINED_FUNCTION_55>
   16f3c:	00000073          	ecall
   16f40:	ad0fa06f          	j	11210 <_start+0xb2>
   16f44:	00001297          	auipc	t0,0x1
   16f48:	cca282e7          	jalr	t0,-822(t0) # 17c0e <OUTLINED_FUNCTION_31>
   16f4c:	00000073          	ecall
   16f50:	00001297          	auipc	t0,0x1
   16f54:	d20282e7          	jalr	t0,-736(t0) # 17c70 <OUTLINED_FUNCTION_38>
   16f58:	00000073          	ecall
   16f5c:	00001297          	auipc	t0,0x1
   16f60:	9d6282e7          	jalr	t0,-1578(t0) # 17932 <OUTLINED_FUNCTION_2>
   16f64:	6ae14a03          	lbu	s4,1710(sp)
   16f68:	52a11223          	sh	a0,1316(sp)
   16f6c:	52c10323          	sb	a2,1318(sp)
   16f70:	6af10593          	addi	a1,sp,1711
   16f74:	4fc10513          	addi	a0,sp,1276
   16f78:	02800613          	li	a2,40
   16f7c:	00001097          	auipc	ra,0x1
   16f80:	ea8080e7          	jalr	-344(ra) # 17e24 <memcpy>
   16f84:	00001297          	auipc	t0,0x1
   16f88:	c8a282e7          	jalr	t0,-886(t0) # 17c0e <OUTLINED_FUNCTION_31>
   16f8c:	00000073          	ecall
   16f90:	4711                	li	a4,4
   16f92:	4599                	li	a1,6
   16f94:	8526                	mv	a0,s1
   16f96:	4601                	li	a2,0
   16f98:	4681                	li	a3,0
   16f9a:	00000073          	ecall
   16f9e:	52411503          	lh	a0,1316(sp)
   16fa2:	52614583          	lbu	a1,1318(sp)
   16fa6:	00001297          	auipc	t0,0x1
   16faa:	b44282e7          	jalr	t0,-1212(t0) # 17aea <OUTLINED_FUNCTION_18>
   16fae:	5f310513          	addi	a0,sp,1523
   16fb2:	4fc10593          	addi	a1,sp,1276
   16fb6:	02800613          	li	a2,40
   16fba:	00001097          	auipc	ra,0x1
   16fbe:	e6a080e7          	jalr	-406(ra) # 17e24 <memcpy>
   16fc2:	6a810513          	addi	a0,sp,1704
   16fc6:	05e00613          	li	a2,94
   16fca:	4581                	li	a1,0
   16fcc:	00001097          	auipc	ra,0x1
   16fd0:	dec080e7          	jalr	-532(ra) # 17db8 <memset>
   16fd4:	22b00513          	li	a0,555
   16fd8:	4595                	li	a1,5
   16fda:	5ec10613          	addi	a2,sp,1516
   16fde:	02f00693          	li	a3,47
   16fe2:	ffffa097          	auipc	ra,0xffffa
   16fe6:	152080e7          	jalr	338(ra) # 11134 <_ZN9allow_pin10no_dynamic11allow_inner17h151634b71b3fc351E>
   16fea:	8905                	andi	a0,a0,1
   16fec:	e905                	bnez	a0,1701c <_start+0x5ebe>
   16fee:	22b00513          	li	a0,555
   16ff2:	4589                	li	a1,2
   16ff4:	6a810613          	addi	a2,sp,1704
   16ff8:	05e00693          	li	a3,94
   16ffc:	ffffa097          	auipc	ra,0xffffa
   17000:	146080e7          	jalr	326(ra) # 11142 <_ZN9allow_pin10no_dynamic11allow_inner17ha2b744c817d78427E>
   17004:	8905                	andi	a0,a0,1
   17006:	e919                	bnez	a0,1701c <_start+0x5ebe>
   17008:	22b00513          	li	a0,555
   1700c:	4595                	li	a1,5
   1700e:	4609                	li	a2,2
   17010:	ffffa097          	auipc	ra,0xffffa
   17014:	140080e7          	jalr	320(ra) # 11150 <_ZN9allow_pin7command17h1eb46760111c3605E>
   17018:	8905                	andi	a0,a0,1
   1701a:	c505                	beqz	a0,17042 <_start+0x5ee4>
   1701c:	87ae                	mv	a5,a1
   1701e:	4601                	li	a2,0
   17020:	4681                	li	a3,0
   17022:	22b00513          	li	a0,555
   17026:	4589                	li	a1,2
   17028:	470d                	li	a4,3
   1702a:	00000073          	ecall
   1702e:	22b00513          	li	a0,555
   17032:	4595                	li	a1,5
   17034:	4711                	li	a4,4
   17036:	4601                	li	a2,0
   17038:	4681                	li	a3,0
   1703a:	00000073          	ecall
   1703e:	9d2fa06f          	j	11210 <_start+0xb2>
   17042:	4601                	li	a2,0
   17044:	4681                	li	a3,0
   17046:	22b00513          	li	a0,555
   1704a:	4589                	li	a1,2
   1704c:	470d                	li	a4,3
   1704e:	00000073          	ecall
   17052:	470d                	li	a4,3
   17054:	22b00513          	li	a0,555
   17058:	4589                	li	a1,2
   1705a:	4601                	li	a2,0
   1705c:	4681                	li	a3,0
   1705e:	00000073          	ecall
   17062:	00001297          	auipc	t0,0x1
   17066:	8d0282e7          	jalr	t0,-1840(t0) # 17932 <OUTLINED_FUNCTION_2>
   1706a:	6ae14483          	lbu	s1,1710(sp)
   1706e:	52a11423          	sh	a0,1320(sp)
   17072:	52c10523          	sb	a2,1322(sp)
   17076:	6af10593          	addi	a1,sp,1711
   1707a:	64410513          	addi	a0,sp,1604
   1707e:	05700613          	li	a2,87
   17082:	00001097          	auipc	ra,0x1
   17086:	da2080e7          	jalr	-606(ra) # 17e24 <memcpy>
   1708a:	4601                	li	a2,0
   1708c:	4681                	li	a3,0
   1708e:	22b00513          	li	a0,555
   17092:	4589                	li	a1,2
   17094:	470d                	li	a4,3
   17096:	00000073          	ecall
   1709a:	22b00513          	li	a0,555
   1709e:	4595                	li	a1,5
   170a0:	4711                	li	a4,4
   170a2:	4601                	li	a2,0
   170a4:	4681                	li	a3,0
   170a6:	00000073          	ecall
   170aa:	6af10513          	addi	a0,sp,1711
   170ae:	64410593          	addi	a1,sp,1604
   170b2:	05700613          	li	a2,87
   170b6:	00001097          	auipc	ra,0x1
   170ba:	d6e080e7          	jalr	-658(ra) # 17e24 <memcpy>
   170be:	52811503          	lh	a0,1320(sp)
   170c2:	52a14583          	lbu	a1,1322(sp)
   170c6:	6a8106a3          	sb	s0,1709(sp)
   170ca:	6a910723          	sb	s1,1710(sp)
   170ce:	6aa11423          	sh	a0,1704(sp)
   170d2:	6ab10523          	sb	a1,1706(sp)
   170d6:	6b2105a3          	sb	s2,1707(sp)
   170da:	6b310623          	sb	s3,1708(sp)
   170de:	5ec10513          	addi	a0,sp,1516
   170e2:	05500613          	li	a2,85
   170e6:	4581                	li	a1,0
   170e8:	00001097          	auipc	ra,0x1
   170ec:	cd0080e7          	jalr	-816(ra) # 17db8 <memset>
   170f0:	6505                	lui	a0,0x1
   170f2:	459d                	li	a1,7
   170f4:	6a810613          	addi	a2,sp,1704
   170f8:	78a50413          	addi	s0,a0,1930 # 178a <.Lline_table_start1+0x155f>
   170fc:	05e00693          	li	a3,94
   17100:	8522                	mv	a0,s0
   17102:	ffffa097          	auipc	ra,0xffffa
   17106:	032080e7          	jalr	50(ra) # 11134 <_ZN9allow_pin10no_dynamic11allow_inner17h151634b71b3fc351E>
   1710a:	8905                	andi	a0,a0,1
   1710c:	e90d                	bnez	a0,1713e <_start+0x5fe0>
   1710e:	458d                	li	a1,3
   17110:	5ec10613          	addi	a2,sp,1516
   17114:	05500693          	li	a3,85
   17118:	8522                	mv	a0,s0
   1711a:	ffffa097          	auipc	ra,0xffffa
   1711e:	028080e7          	jalr	40(ra) # 11142 <_ZN9allow_pin10no_dynamic11allow_inner17ha2b744c817d78427E>
   17122:	8905                	andi	a0,a0,1
   17124:	ed09                	bnez	a0,1713e <_start+0x5fe0>
   17126:	6905                	lui	s2,0x1
   17128:	459d                	li	a1,7
   1712a:	78a90493          	addi	s1,s2,1930 # 178a <.Lline_table_start1+0x155f>
   1712e:	460d                	li	a2,3
   17130:	8526                	mv	a0,s1
   17132:	ffffa097          	auipc	ra,0xffffa
   17136:	01e080e7          	jalr	30(ra) # 11150 <_ZN9allow_pin7command17h1eb46760111c3605E>
   1713a:	8905                	andi	a0,a0,1
   1713c:	cd19                	beqz	a0,1715a <_start+0x5ffc>
   1713e:	00001297          	auipc	t0,0x1
   17142:	ab4282e7          	jalr	t0,-1356(t0) # 17bf2 <OUTLINED_FUNCTION_29>
   17146:	00000073          	ecall
   1714a:	00001297          	auipc	t0,0x1
   1714e:	b7a282e7          	jalr	t0,-1158(t0) # 17cc4 <OUTLINED_FUNCTION_45>
   17152:	00000073          	ecall
   17156:	8bafa06f          	j	11210 <_start+0xb2>
   1715a:	00001297          	auipc	t0,0x1
   1715e:	ac0282e7          	jalr	t0,-1344(t0) # 17c1a <OUTLINED_FUNCTION_32>
   17162:	00000073          	ecall
   17166:	00001297          	auipc	t0,0x1
   1716a:	b2e282e7          	jalr	t0,-1234(t0) # 17c94 <OUTLINED_FUNCTION_41>
   1716e:	00000073          	ecall
   17172:	00001297          	auipc	t0,0x1
   17176:	a50282e7          	jalr	t0,-1456(t0) # 17bc2 <OUTLINED_FUNCTION_27>
   1717a:	64a11223          	sh	a0,1604(sp)
   1717e:	64c10323          	sb	a2,1606(sp)
   17182:	5f310593          	addi	a1,sp,1523
   17186:	52c10513          	addi	a0,sp,1324
   1718a:	04e00613          	li	a2,78
   1718e:	00001097          	auipc	ra,0x1
   17192:	c96080e7          	jalr	-874(ra) # 17e24 <memcpy>
   17196:	00001297          	auipc	t0,0x1
   1719a:	a84282e7          	jalr	t0,-1404(t0) # 17c1a <OUTLINED_FUNCTION_32>
   1719e:	00000073          	ecall
   171a2:	00001297          	auipc	t0,0x1
   171a6:	ada282e7          	jalr	t0,-1318(t0) # 17c7c <OUTLINED_FUNCTION_39>
   171aa:	00000073          	ecall
   171ae:	64b10513          	addi	a0,sp,1611
   171b2:	52c10593          	addi	a1,sp,1324
   171b6:	04e00613          	li	a2,78
   171ba:	00001097          	auipc	ra,0x1
   171be:	c6a080e7          	jalr	-918(ra) # 17e24 <memcpy>
   171c2:	653103a3          	sb	s3,1607(sp)
   171c6:	64810423          	sb	s0,1608(sp)
   171ca:	654104a3          	sb	s4,1609(sp)
   171ce:	65510523          	sb	s5,1610(sp)
   171d2:	6a810513          	addi	a0,sp,1704
   171d6:	4645                	li	a2,17
   171d8:	4581                	li	a1,0
   171da:	00001097          	auipc	ra,0x1
   171de:	bde080e7          	jalr	-1058(ra) # 17db8 <memset>
   171e2:	c8990513          	addi	a0,s2,-887
   171e6:	4589                	li	a1,2
   171e8:	64410613          	addi	a2,sp,1604
   171ec:	05500693          	li	a3,85
   171f0:	ffffa097          	auipc	ra,0xffffa
   171f4:	f44080e7          	jalr	-188(ra) # 11134 <_ZN9allow_pin10no_dynamic11allow_inner17h151634b71b3fc351E>
   171f8:	8905                	andi	a0,a0,1
   171fa:	e905                	bnez	a0,1722a <_start+0x60cc>
   171fc:	6505                	lui	a0,0x1
   171fe:	4589                	li	a1,2
   17200:	6a810613          	addi	a2,sp,1704
   17204:	c8950413          	addi	s0,a0,-887 # c89 <.Lline_table_start1+0xa5e>
   17208:	46c5                	li	a3,17
   1720a:	8522                	mv	a0,s0
   1720c:	ffffa097          	auipc	ra,0xffffa
   17210:	f36080e7          	jalr	-202(ra) # 11142 <_ZN9allow_pin10no_dynamic11allow_inner17ha2b744c817d78427E>
   17214:	8905                	andi	a0,a0,1
   17216:	e911                	bnez	a0,1722a <_start+0x60cc>
   17218:	4589                	li	a1,2
   1721a:	4609                	li	a2,2
   1721c:	8522                	mv	a0,s0
   1721e:	ffffa097          	auipc	ra,0xffffa
   17222:	f32080e7          	jalr	-206(ra) # 11150 <_ZN9allow_pin7command17h1eb46760111c3605E>
   17226:	8905                	andi	a0,a0,1
   17228:	c50d                	beqz	a0,17252 <_start+0x60f4>
   1722a:	87ae                	mv	a5,a1
   1722c:	4601                	li	a2,0
   1722e:	4681                	li	a3,0
   17230:	6505                	lui	a0,0x1
   17232:	4589                	li	a1,2
   17234:	c8950493          	addi	s1,a0,-887 # c89 <.Lline_table_start1+0xa5e>
   17238:	470d                	li	a4,3
   1723a:	8526                	mv	a0,s1
   1723c:	00000073          	ecall
   17240:	4589                	li	a1,2
   17242:	4711                	li	a4,4
   17244:	8526                	mv	a0,s1
   17246:	4601                	li	a2,0
   17248:	4681                	li	a3,0
   1724a:	00000073          	ecall
   1724e:	fc3f906f          	j	11210 <_start+0xb2>
   17252:	4601                	li	a2,0
   17254:	4681                	li	a3,0
   17256:	6505                	lui	a0,0x1
   17258:	4589                	li	a1,2
   1725a:	c8950313          	addi	t1,a0,-887 # c89 <.Lline_table_start1+0xa5e>
   1725e:	470d                	li	a4,3
   17260:	851a                	mv	a0,t1
   17262:	00000073          	ecall
   17266:	470d                	li	a4,3
   17268:	4589                	li	a1,2
   1726a:	851a                	mv	a0,t1
   1726c:	4601                	li	a2,0
   1726e:	4681                	li	a3,0
   17270:	00000073          	ecall
   17274:	6a814883          	lbu	a7,1704(sp)
   17278:	6a914583          	lbu	a1,1705(sp)
   1727c:	6aa14803          	lbu	a6,1706(sp)
   17280:	6ab14903          	lbu	s2,1707(sp)
   17284:	6b814683          	lbu	a3,1720(sp)
   17288:	6b414283          	lbu	t0,1716(sp)
   1728c:	6b514403          	lbu	s0,1717(sp)
   17290:	6b614483          	lbu	s1,1718(sp)
   17294:	6b714603          	lbu	a2,1719(sp)
   17298:	6ac14a83          	lbu	s5,1708(sp)
   1729c:	6ad14a03          	lbu	s4,1709(sp)
   172a0:	6ae14983          	lbu	s3,1710(sp)
   172a4:	6af14503          	lbu	a0,1711(sp)
   172a8:	05a2                	slli	a1,a1,0x8
   172aa:	06a2                	slli	a3,a3,0x8
   172ac:	0115e5b3          	or	a1,a1,a7
   172b0:	00c6e8b3          	or	a7,a3,a2
   172b4:	6b014683          	lbu	a3,1712(sp)
   172b8:	6b114603          	lbu	a2,1713(sp)
   172bc:	6b214703          	lbu	a4,1714(sp)
   172c0:	6b314783          	lbu	a5,1715(sp)
   172c4:	06a2                	slli	a3,a3,0x8
   172c6:	8d55                	or	a0,a0,a3
   172c8:	0642                	slli	a2,a2,0x10
   172ca:	0762                	slli	a4,a4,0x18
   172cc:	8e59                	or	a2,a2,a4
   172ce:	02a2                	slli	t0,t0,0x8
   172d0:	00f2e6b3          	or	a3,t0,a5
   172d4:	0442                	slli	s0,s0,0x10
   172d6:	04e2                	slli	s1,s1,0x18
   172d8:	8c45                	or	s0,s0,s1
   172da:	52b11623          	sh	a1,1324(sp)
   172de:	53010723          	sb	a6,1326(sp)
   172e2:	8d51                	or	a0,a0,a2
   172e4:	470d                	li	a4,3
   172e6:	8ec1                	or	a3,a3,s0
   172e8:	4589                	li	a1,2
   172ea:	5ea12623          	sw	a0,1516(sp)
   172ee:	5ed12823          	sw	a3,1520(sp)
   172f2:	5f111a23          	sh	a7,1524(sp)
   172f6:	851a                	mv	a0,t1
   172f8:	4601                	li	a2,0
   172fa:	4681                	li	a3,0
   172fc:	00000073          	ecall
   17300:	4589                	li	a1,2
   17302:	4711                	li	a4,4
   17304:	851a                	mv	a0,t1
   17306:	4601                	li	a2,0
   17308:	4681                	li	a3,0
   1730a:	00000073          	ecall
   1730e:	53310513          	addi	a0,sp,1331
   17312:	5ec10593          	addi	a1,sp,1516
   17316:	4629                	li	a2,10
   17318:	00001097          	auipc	ra,0x1
   1731c:	b0c080e7          	jalr	-1268(ra) # 17e24 <memcpy>
   17320:	532107a3          	sb	s2,1327(sp)
   17324:	53510823          	sb	s5,1328(sp)
   17328:	534108a3          	sb	s4,1329(sp)
   1732c:	53310923          	sb	s3,1330(sp)
   17330:	64410513          	addi	a0,sp,1604
   17334:	05000613          	li	a2,80
   17338:	4581                	li	a1,0
   1733a:	00001097          	auipc	ra,0x1
   1733e:	a7e080e7          	jalr	-1410(ra) # 17db8 <memset>
   17342:	6509                	lui	a0,0x2
   17344:	4599                	li	a1,6
   17346:	52c10613          	addi	a2,sp,1324
   1734a:	aa950413          	addi	s0,a0,-1367 # 1aa9 <.Lline_table_start1+0x187e>
   1734e:	46c5                	li	a3,17
   17350:	8522                	mv	a0,s0
   17352:	ffffa097          	auipc	ra,0xffffa
   17356:	de2080e7          	jalr	-542(ra) # 11134 <_ZN9allow_pin10no_dynamic11allow_inner17h151634b71b3fc351E>
   1735a:	8905                	andi	a0,a0,1
   1735c:	e90d                	bnez	a0,1738e <_start+0x6230>
   1735e:	4595                	li	a1,5
   17360:	64410613          	addi	a2,sp,1604
   17364:	05000693          	li	a3,80
   17368:	8522                	mv	a0,s0
   1736a:	ffffa097          	auipc	ra,0xffffa
   1736e:	dd8080e7          	jalr	-552(ra) # 11142 <_ZN9allow_pin10no_dynamic11allow_inner17ha2b744c817d78427E>
   17372:	8905                	andi	a0,a0,1
   17374:	ed09                	bnez	a0,1738e <_start+0x6230>
   17376:	6509                	lui	a0,0x2
   17378:	4599                	li	a1,6
   1737a:	aa950493          	addi	s1,a0,-1367 # 1aa9 <.Lline_table_start1+0x187e>
   1737e:	4615                	li	a2,5
   17380:	8526                	mv	a0,s1
   17382:	ffffa097          	auipc	ra,0xffffa
   17386:	dce080e7          	jalr	-562(ra) # 11150 <_ZN9allow_pin7command17h1eb46760111c3605E>
   1738a:	8905                	andi	a0,a0,1
   1738c:	c105                	beqz	a0,173ac <_start+0x624e>
   1738e:	87ae                	mv	a5,a1
   17390:	00001297          	auipc	t0,0x1
   17394:	9f8282e7          	jalr	t0,-1544(t0) # 17d88 <OUTLINED_FUNCTION_59>
   17398:	00000073          	ecall
   1739c:	00001297          	auipc	t0,0x1
   173a0:	9bc282e7          	jalr	t0,-1604(t0) # 17d58 <OUTLINED_FUNCTION_55>
   173a4:	00000073          	ecall
   173a8:	e69f906f          	j	11210 <_start+0xb2>
   173ac:	00001297          	auipc	t0,0x1
   173b0:	8dc282e7          	jalr	t0,-1828(t0) # 17c88 <OUTLINED_FUNCTION_40>
   173b4:	00000073          	ecall
   173b8:	470d                	li	a4,3
   173ba:	4595                	li	a1,5
   173bc:	8526                	mv	a0,s1
   173be:	4601                	li	a2,0
   173c0:	4681                	li	a3,0
   173c2:	00000073          	ecall
   173c6:	00000297          	auipc	t0,0x0
   173ca:	6f8282e7          	jalr	t0,1784(t0) # 17abe <OUTLINED_FUNCTION_16>
   173ce:	00001297          	auipc	t0,0x1
   173d2:	864282e7          	jalr	t0,-1948(t0) # 17c32 <OUTLINED_FUNCTION_34>
   173d6:	5ec10513          	addi	a0,sp,1516
   173da:	04900613          	li	a2,73
   173de:	00001097          	auipc	ra,0x1
   173e2:	a46080e7          	jalr	-1466(ra) # 17e24 <memcpy>
   173e6:	00001297          	auipc	t0,0x1
   173ea:	8a2282e7          	jalr	t0,-1886(t0) # 17c88 <OUTLINED_FUNCTION_40>
   173ee:	00000073          	ecall
   173f2:	00001297          	auipc	t0,0x1
   173f6:	95a282e7          	jalr	t0,-1702(t0) # 17d4c <OUTLINED_FUNCTION_54>
   173fa:	00000073          	ecall
   173fe:	6af10513          	addi	a0,sp,1711
   17402:	5ec10593          	addi	a1,sp,1516
   17406:	04900613          	li	a2,73
   1740a:	00001097          	auipc	ra,0x1
   1740e:	a1a080e7          	jalr	-1510(ra) # 17e24 <memcpy>
   17412:	6b2105a3          	sb	s2,1707(sp)
   17416:	6a810623          	sb	s0,1708(sp)
   1741a:	6b3106a3          	sb	s3,1709(sp)
   1741e:	6b410723          	sb	s4,1710(sp)
   17422:	64410513          	addi	a0,sp,1604
   17426:	466d                	li	a2,27
   17428:	4581                	li	a1,0
   1742a:	00001097          	auipc	ra,0x1
   1742e:	98e080e7          	jalr	-1650(ra) # 17db8 <memset>
   17432:	3d900513          	li	a0,985
   17436:	4585                	li	a1,1
   17438:	6a810613          	addi	a2,sp,1704
   1743c:	05000693          	li	a3,80
   17440:	4405                	li	s0,1
   17442:	ffffa097          	auipc	ra,0xffffa
   17446:	cf2080e7          	jalr	-782(ra) # 11134 <_ZN9allow_pin10no_dynamic11allow_inner17h151634b71b3fc351E>
   1744a:	8905                	andi	a0,a0,1
   1744c:	e51d                	bnez	a0,1747a <_start+0x631c>
   1744e:	3d900513          	li	a0,985
   17452:	4589                	li	a1,2
   17454:	64410613          	addi	a2,sp,1604
   17458:	46ed                	li	a3,27
   1745a:	ffffa097          	auipc	ra,0xffffa
   1745e:	ce8080e7          	jalr	-792(ra) # 11142 <_ZN9allow_pin10no_dynamic11allow_inner17ha2b744c817d78427E>
   17462:	8905                	andi	a0,a0,1
   17464:	e919                	bnez	a0,1747a <_start+0x631c>
   17466:	3d900513          	li	a0,985
   1746a:	4585                	li	a1,1
   1746c:	4609                	li	a2,2
   1746e:	ffffa097          	auipc	ra,0xffffa
   17472:	ce2080e7          	jalr	-798(ra) # 11150 <_ZN9allow_pin7command17h1eb46760111c3605E>
   17476:	8905                	andi	a0,a0,1
   17478:	c505                	beqz	a0,174a0 <_start+0x6342>
   1747a:	87ae                	mv	a5,a1
   1747c:	4601                	li	a2,0
   1747e:	4681                	li	a3,0
   17480:	3d900513          	li	a0,985
   17484:	4589                	li	a1,2
   17486:	470d                	li	a4,3
   17488:	00000073          	ecall
   1748c:	3d900513          	li	a0,985
   17490:	4585                	li	a1,1
   17492:	4711                	li	a4,4
   17494:	4601                	li	a2,0
   17496:	4681                	li	a3,0
   17498:	00000073          	ecall
   1749c:	d77f906f          	j	11212 <_start+0xb4>
   174a0:	4601                	li	a2,0
   174a2:	4681                	li	a3,0
   174a4:	3d900513          	li	a0,985
   174a8:	4589                	li	a1,2
   174aa:	470d                	li	a4,3
   174ac:	00000073          	ecall
   174b0:	470d                	li	a4,3
   174b2:	3d900513          	li	a0,985
   174b6:	4589                	li	a1,2
   174b8:	4601                	li	a2,0
   174ba:	4681                	li	a3,0
   174bc:	00000073          	ecall
   174c0:	00000297          	auipc	t0,0x0
   174c4:	5fe282e7          	jalr	t0,1534(t0) # 17abe <OUTLINED_FUNCTION_16>
   174c8:	64814483          	lbu	s1,1608(sp)
   174cc:	64914983          	lbu	s3,1609(sp)
   174d0:	64a14a03          	lbu	s4,1610(sp)
   174d4:	5ea11623          	sh	a0,1516(sp)
   174d8:	5ec10723          	sb	a2,1518(sp)
   174dc:	64b10593          	addi	a1,sp,1611
   174e0:	57c10513          	addi	a0,sp,1404
   174e4:	4651                	li	a2,20
   174e6:	00001097          	auipc	ra,0x1
   174ea:	93e080e7          	jalr	-1730(ra) # 17e24 <memcpy>
   174ee:	4601                	li	a2,0
   174f0:	4681                	li	a3,0
   174f2:	3d900513          	li	a0,985
   174f6:	4589                	li	a1,2
   174f8:	470d                	li	a4,3
   174fa:	4405                	li	s0,1
   174fc:	00000073          	ecall
   17500:	4711                	li	a4,4
   17502:	3d900513          	li	a0,985
   17506:	4585                	li	a1,1
   17508:	4601                	li	a2,0
   1750a:	4681                	li	a3,0
   1750c:	00000073          	ecall
   17510:	5f2107a3          	sb	s2,1519(sp)
   17514:	5e910823          	sb	s1,1520(sp)
   17518:	5f3108a3          	sb	s3,1521(sp)
   1751c:	5f410923          	sb	s4,1522(sp)
   17520:	5f310513          	addi	a0,sp,1523
   17524:	57c10593          	addi	a1,sp,1404
   17528:	4651                	li	a2,20
   1752a:	00001097          	auipc	ra,0x1
   1752e:	8fa080e7          	jalr	-1798(ra) # 17e24 <memcpy>
   17532:	64410513          	addi	a0,sp,1604
   17536:	06300613          	li	a2,99
   1753a:	4581                	li	a1,0
   1753c:	00001097          	auipc	ra,0x1
   17540:	87c080e7          	jalr	-1924(ra) # 17db8 <memset>
   17544:	6509                	lui	a0,0x2
   17546:	458d                	li	a1,3
   17548:	5ec10613          	addi	a2,sp,1516
   1754c:	54850913          	addi	s2,a0,1352 # 2548 <.Lline_table_start1+0x231d>
   17550:	46ed                	li	a3,27
   17552:	854a                	mv	a0,s2
   17554:	ffffa097          	auipc	ra,0xffffa
   17558:	be0080e7          	jalr	-1056(ra) # 11134 <_ZN9allow_pin10no_dynamic11allow_inner17h151634b71b3fc351E>
   1755c:	8905                	andi	a0,a0,1
   1755e:	e90d                	bnez	a0,17590 <_start+0x6432>
   17560:	458d                	li	a1,3
   17562:	64410613          	addi	a2,sp,1604
   17566:	06300693          	li	a3,99
   1756a:	854a                	mv	a0,s2
   1756c:	ffffa097          	auipc	ra,0xffffa
   17570:	bd6080e7          	jalr	-1066(ra) # 11142 <_ZN9allow_pin10no_dynamic11allow_inner17ha2b744c817d78427E>
   17574:	8905                	andi	a0,a0,1
   17576:	ed09                	bnez	a0,17590 <_start+0x6432>
   17578:	6509                	lui	a0,0x2
   1757a:	458d                	li	a1,3
   1757c:	54850493          	addi	s1,a0,1352 # 2548 <.Lline_table_start1+0x231d>
   17580:	460d                	li	a2,3
   17582:	8526                	mv	a0,s1
   17584:	ffffa097          	auipc	ra,0xffffa
   17588:	bcc080e7          	jalr	-1076(ra) # 11150 <_ZN9allow_pin7command17h1eb46760111c3605E>
   1758c:	8905                	andi	a0,a0,1
   1758e:	c115                	beqz	a0,175b2 <_start+0x6454>
   17590:	87ae                	mv	a5,a1
   17592:	854a                	mv	a0,s2
   17594:	4601                	li	a2,0
   17596:	4681                	li	a3,0
   17598:	458d                	li	a1,3
   1759a:	470d                	li	a4,3
   1759c:	00000073          	ecall
   175a0:	458d                	li	a1,3
   175a2:	4711                	li	a4,4
   175a4:	854a                	mv	a0,s2
   175a6:	4601                	li	a2,0
   175a8:	4681                	li	a3,0
   175aa:	00000073          	ecall
   175ae:	c65f906f          	j	11212 <_start+0xb4>
   175b2:	00000297          	auipc	t0,0x0
   175b6:	668282e7          	jalr	t0,1640(t0) # 17c1a <OUTLINED_FUNCTION_32>
   175ba:	00000073          	ecall
   175be:	00000297          	auipc	t0,0x0
   175c2:	6d6282e7          	jalr	t0,1750(t0) # 17c94 <OUTLINED_FUNCTION_41>
   175c6:	00000073          	ecall
   175ca:	00000297          	auipc	t0,0x0
   175ce:	4f4282e7          	jalr	t0,1268(t0) # 17abe <OUTLINED_FUNCTION_16>
   175d2:	00000297          	auipc	t0,0x0
   175d6:	660282e7          	jalr	t0,1632(t0) # 17c32 <OUTLINED_FUNCTION_34>
   175da:	59010513          	addi	a0,sp,1424
   175de:	05c00613          	li	a2,92
   175e2:	00001097          	auipc	ra,0x1
   175e6:	842080e7          	jalr	-1982(ra) # 17e24 <memcpy>
   175ea:	00000297          	auipc	t0,0x0
   175ee:	630282e7          	jalr	t0,1584(t0) # 17c1a <OUTLINED_FUNCTION_32>
   175f2:	00000073          	ecall
   175f6:	4711                	li	a4,4
   175f8:	458d                	li	a1,3
   175fa:	8526                	mv	a0,s1
   175fc:	4601                	li	a2,0
   175fe:	4681                	li	a3,0
   17600:	00000073          	ecall
   17604:	6b2105a3          	sb	s2,1707(sp)
   17608:	6a810623          	sb	s0,1708(sp)
   1760c:	6b3106a3          	sb	s3,1709(sp)
   17610:	6b410723          	sb	s4,1710(sp)
   17614:	6af10513          	addi	a0,sp,1711
   17618:	59010593          	addi	a1,sp,1424
   1761c:	05c00613          	li	a2,92
   17620:	00001097          	auipc	ra,0x1
   17624:	804080e7          	jalr	-2044(ra) # 17e24 <memcpy>
   17628:	5ec10513          	addi	a0,sp,1516
   1762c:	02c00613          	li	a2,44
   17630:	4581                	li	a1,0
   17632:	00000097          	auipc	ra,0x0
   17636:	786080e7          	jalr	1926(ra) # 17db8 <memset>
   1763a:	4561                	li	a0,24
   1763c:	4595                	li	a1,5
   1763e:	6a810613          	addi	a2,sp,1704
   17642:	06300693          	li	a3,99
   17646:	ffffa097          	auipc	ra,0xffffa
   1764a:	aee080e7          	jalr	-1298(ra) # 11134 <_ZN9allow_pin10no_dynamic11allow_inner17h151634b71b3fc351E>
   1764e:	8905                	andi	a0,a0,1
   17650:	e515                	bnez	a0,1767c <_start+0x651e>
   17652:	4561                	li	a0,24
   17654:	458d                	li	a1,3
   17656:	5ec10613          	addi	a2,sp,1516
   1765a:	02c00693          	li	a3,44
   1765e:	ffffa097          	auipc	ra,0xffffa
   17662:	ae4080e7          	jalr	-1308(ra) # 11142 <_ZN9allow_pin10no_dynamic11allow_inner17ha2b744c817d78427E>
   17666:	8905                	andi	a0,a0,1
   17668:	e911                	bnez	a0,1767c <_start+0x651e>
   1766a:	4561                	li	a0,24
   1766c:	4595                	li	a1,5
   1766e:	460d                	li	a2,3
   17670:	ffffa097          	auipc	ra,0xffffa
   17674:	ae0080e7          	jalr	-1312(ra) # 11150 <_ZN9allow_pin7command17h1eb46760111c3605E>
   17678:	8905                	andi	a0,a0,1
   1767a:	c115                	beqz	a0,1769e <_start+0x6540>
   1767c:	87ae                	mv	a5,a1
   1767e:	4601                	li	a2,0
   17680:	4681                	li	a3,0
   17682:	4561                	li	a0,24
   17684:	458d                	li	a1,3
   17686:	470d                	li	a4,3
   17688:	00000073          	ecall
   1768c:	4561                	li	a0,24
   1768e:	4595                	li	a1,5
   17690:	4711                	li	a4,4
   17692:	4601                	li	a2,0
   17694:	4681                	li	a3,0
   17696:	00000073          	ecall
   1769a:	b77f906f          	j	11210 <_start+0xb2>
   1769e:	4601                	li	a2,0
   176a0:	4681                	li	a3,0
   176a2:	4561                	li	a0,24
   176a4:	458d                	li	a1,3
   176a6:	470d                	li	a4,3
   176a8:	00000073          	ecall
   176ac:	470d                	li	a4,3
   176ae:	4561                	li	a0,24
   176b0:	458d                	li	a1,3
   176b2:	4601                	li	a2,0
   176b4:	4681                	li	a3,0
   176b6:	00000073          	ecall
   176ba:	5ed14503          	lbu	a0,1517(sp)
   176be:	5ec14583          	lbu	a1,1516(sp)
   176c2:	5ee14603          	lbu	a2,1518(sp)
   176c6:	5ef14903          	lbu	s2,1519(sp)
   176ca:	0522                	slli	a0,a0,0x8
   176cc:	8d4d                	or	a0,a0,a1
   176ce:	5f014483          	lbu	s1,1520(sp)
   176d2:	5f114403          	lbu	s0,1521(sp)
   176d6:	5f214983          	lbu	s3,1522(sp)
   176da:	64a11223          	sh	a0,1604(sp)
   176de:	64c10323          	sb	a2,1606(sp)
   176e2:	5f310593          	addi	a1,sp,1523
   176e6:	52c10513          	addi	a0,sp,1324
   176ea:	02500613          	li	a2,37
   176ee:	00000097          	auipc	ra,0x0
   176f2:	736080e7          	jalr	1846(ra) # 17e24 <memcpy>
   176f6:	4601                	li	a2,0
   176f8:	4681                	li	a3,0
   176fa:	4561                	li	a0,24
   176fc:	458d                	li	a1,3
   176fe:	470d                	li	a4,3
   17700:	00000073          	ecall
   17704:	4561                	li	a0,24
   17706:	4595                	li	a1,5
   17708:	4711                	li	a4,4
   1770a:	4601                	li	a2,0
   1770c:	4681                	li	a3,0
   1770e:	00000073          	ecall
   17712:	64b10513          	addi	a0,sp,1611
   17716:	52c10593          	addi	a1,sp,1324
   1771a:	02500613          	li	a2,37
   1771e:	00000097          	auipc	ra,0x0
   17722:	706080e7          	jalr	1798(ra) # 17e24 <memcpy>
   17726:	652103a3          	sb	s2,1607(sp)
   1772a:	64910423          	sb	s1,1608(sp)
   1772e:	648104a3          	sb	s0,1609(sp)
   17732:	65310523          	sb	s3,1610(sp)
   17736:	5ec10513          	addi	a0,sp,1516
   1773a:	02a00613          	li	a2,42
   1773e:	4581                	li	a1,0
   17740:	00000097          	auipc	ra,0x0
   17744:	678080e7          	jalr	1656(ra) # 17db8 <memset>
   17748:	6509                	lui	a0,0x2
   1774a:	458d                	li	a1,3
   1774c:	64410613          	addi	a2,sp,1604
   17750:	4f050413          	addi	s0,a0,1264 # 24f0 <.Lline_table_start1+0x22c5>
   17754:	02c00693          	li	a3,44
   17758:	8522                	mv	a0,s0
   1775a:	ffffa097          	auipc	ra,0xffffa
   1775e:	9da080e7          	jalr	-1574(ra) # 11134 <_ZN9allow_pin10no_dynamic11allow_inner17h151634b71b3fc351E>
   17762:	8905                	andi	a0,a0,1
   17764:	e90d                	bnez	a0,17796 <_start+0x6638>
   17766:	5ec10613          	addi	a2,sp,1516
   1776a:	02a00693          	li	a3,42
   1776e:	8522                	mv	a0,s0
   17770:	4581                	li	a1,0
   17772:	ffffa097          	auipc	ra,0xffffa
   17776:	9d0080e7          	jalr	-1584(ra) # 11142 <_ZN9allow_pin10no_dynamic11allow_inner17ha2b744c817d78427E>
   1777a:	8905                	andi	a0,a0,1
   1777c:	ed09                	bnez	a0,17796 <_start+0x6638>
   1777e:	6909                	lui	s2,0x2
   17780:	4f090493          	addi	s1,s2,1264 # 24f0 <.Lline_table_start1+0x22c5>
   17784:	458d                	li	a1,3
   17786:	8526                	mv	a0,s1
   17788:	4601                	li	a2,0
   1778a:	ffffa097          	auipc	ra,0xffffa
   1778e:	9c6080e7          	jalr	-1594(ra) # 11150 <_ZN9allow_pin7command17h1eb46760111c3605E>
   17792:	8905                	andi	a0,a0,1
   17794:	c105                	beqz	a0,177b4 <_start+0x6656>
   17796:	87ae                	mv	a5,a1
   17798:	00000297          	auipc	t0,0x0
   1779c:	544282e7          	jalr	t0,1348(t0) # 17cdc <OUTLINED_FUNCTION_47>
   177a0:	00000073          	ecall
   177a4:	00000297          	auipc	t0,0x0
   177a8:	59c282e7          	jalr	t0,1436(t0) # 17d40 <OUTLINED_FUNCTION_53>
   177ac:	00000073          	ecall
   177b0:	a61f906f          	j	11210 <_start+0xb2>
   177b4:	00000297          	auipc	t0,0x0
   177b8:	472282e7          	jalr	t0,1138(t0) # 17c26 <OUTLINED_FUNCTION_33>
   177bc:	00000073          	ecall
   177c0:	00000297          	auipc	t0,0x0
   177c4:	466282e7          	jalr	t0,1126(t0) # 17c26 <OUTLINED_FUNCTION_33>
   177c8:	00000073          	ecall
   177cc:	00000297          	auipc	t0,0x0
   177d0:	3f6282e7          	jalr	t0,1014(t0) # 17bc2 <OUTLINED_FUNCTION_27>
   177d4:	6aa11423          	sh	a0,1704(sp)
   177d8:	6ac10523          	sb	a2,1706(sp)
   177dc:	5f310593          	addi	a1,sp,1523
   177e0:	52c10513          	addi	a0,sp,1324
   177e4:	02300613          	li	a2,35
   177e8:	00000097          	auipc	ra,0x0
   177ec:	63c080e7          	jalr	1596(ra) # 17e24 <memcpy>
   177f0:	00000297          	auipc	t0,0x0
   177f4:	436282e7          	jalr	t0,1078(t0) # 17c26 <OUTLINED_FUNCTION_33>
   177f8:	00000073          	ecall
   177fc:	00000297          	auipc	t0,0x0
   17800:	468282e7          	jalr	t0,1128(t0) # 17c64 <OUTLINED_FUNCTION_37>
   17804:	00000073          	ecall
   17808:	6af10513          	addi	a0,sp,1711
   1780c:	52c10593          	addi	a1,sp,1324
   17810:	02300613          	li	a2,35
   17814:	00000097          	auipc	ra,0x0
   17818:	610080e7          	jalr	1552(ra) # 17e24 <memcpy>
   1781c:	6b3105a3          	sb	s3,1707(sp)
   17820:	6a810623          	sb	s0,1708(sp)
   17824:	6b4106a3          	sb	s4,1709(sp)
   17828:	6b510723          	sb	s5,1710(sp)
   1782c:	64410513          	addi	a0,sp,1604
   17830:	02800613          	li	a2,40
   17834:	4581                	li	a1,0
   17836:	00000097          	auipc	ra,0x0
   1783a:	582080e7          	jalr	1410(ra) # 17db8 <memset>
   1783e:	efa90513          	addi	a0,s2,-262
   17842:	4591                	li	a1,4
   17844:	6a810613          	addi	a2,sp,1704
   17848:	02a00693          	li	a3,42
   1784c:	ffffa097          	auipc	ra,0xffffa
   17850:	8e8080e7          	jalr	-1816(ra) # 11134 <_ZN9allow_pin10no_dynamic11allow_inner17h151634b71b3fc351E>
   17854:	8905                	andi	a0,a0,1
   17856:	e90d                	bnez	a0,17888 <_start+0x672a>
   17858:	6509                	lui	a0,0x2
   1785a:	45a1                	li	a1,8
   1785c:	64410613          	addi	a2,sp,1604
   17860:	efa50413          	addi	s0,a0,-262 # 1efa <.Lline_table_start1+0x1ccf>
   17864:	02800693          	li	a3,40
   17868:	8522                	mv	a0,s0
   1786a:	ffffa097          	auipc	ra,0xffffa
   1786e:	8d8080e7          	jalr	-1832(ra) # 11142 <_ZN9allow_pin10no_dynamic11allow_inner17ha2b744c817d78427E>
   17872:	8905                	andi	a0,a0,1
   17874:	e911                	bnez	a0,17888 <_start+0x672a>
   17876:	4591                	li	a1,4
   17878:	4621                	li	a2,8
   1787a:	8522                	mv	a0,s0
   1787c:	ffffa097          	auipc	ra,0xffffa
   17880:	8d4080e7          	jalr	-1836(ra) # 11150 <_ZN9allow_pin7command17h1eb46760111c3605E>
   17884:	8905                	andi	a0,a0,1
   17886:	c505                	beqz	a0,178ae <_start+0x6750>
   17888:	87ae                	mv	a5,a1
   1788a:	4601                	li	a2,0
   1788c:	4681                	li	a3,0
   1788e:	6509                	lui	a0,0x2
   17890:	45a1                	li	a1,8
   17892:	efa50493          	addi	s1,a0,-262 # 1efa <.Lline_table_start1+0x1ccf>
   17896:	470d                	li	a4,3
   17898:	8526                	mv	a0,s1
   1789a:	00000073          	ecall
   1789e:	00000297          	auipc	t0,0x0
   178a2:	4d2282e7          	jalr	t0,1234(t0) # 17d70 <OUTLINED_FUNCTION_57>
   178a6:	00000073          	ecall
   178aa:	967f906f          	j	11210 <_start+0xb2>
   178ae:	4601                	li	a2,0
   178b0:	4681                	li	a3,0
   178b2:	4401                	li	s0,0
   178b4:	6509                	lui	a0,0x2
   178b6:	45a1                	li	a1,8
   178b8:	efa50793          	addi	a5,a0,-262 # 1efa <.Lline_table_start1+0x1ccf>
   178bc:	470d                	li	a4,3
   178be:	853e                	mv	a0,a5
   178c0:	00000073          	ecall
   178c4:	470d                	li	a4,3
   178c6:	45a1                	li	a1,8
   178c8:	853e                	mv	a0,a5
   178ca:	4601                	li	a2,0
   178cc:	4681                	li	a3,0
   178ce:	00000073          	ecall
   178d2:	470d                	li	a4,3
   178d4:	45a1                	li	a1,8
   178d6:	853e                	mv	a0,a5
   178d8:	4601                	li	a2,0
   178da:	4681                	li	a3,0
   178dc:	00000073          	ecall
   178e0:	4591                	li	a1,4
   178e2:	4711                	li	a4,4
   178e4:	853e                	mv	a0,a5
   178e6:	4601                	li	a2,0
   178e8:	4681                	li	a3,0
   178ea:	00000073          	ecall
   178ee:	925f906f          	j	11212 <_start+0xb4>

000178f2 <OUTLINED_FUNCTION_0>:
   178f2:	64514503          	lbu	a0,1605(sp)
   178f6:	64414583          	lbu	a1,1604(sp)
   178fa:	64614603          	lbu	a2,1606(sp)
   178fe:	64714903          	lbu	s2,1607(sp)
   17902:	0522                	slli	a0,a0,0x8
   17904:	8d4d                	or	a0,a0,a1
   17906:	64814983          	lbu	s3,1608(sp)
   1790a:	64914403          	lbu	s0,1609(sp)
   1790e:	64a14a03          	lbu	s4,1610(sp)
   17912:	8282                	jr	t0

00017914 <OUTLINED_FUNCTION_1>:
   17914:	64514503          	lbu	a0,1605(sp)
   17918:	64414583          	lbu	a1,1604(sp)
   1791c:	64614603          	lbu	a2,1606(sp)
   17920:	64714903          	lbu	s2,1607(sp)
   17924:	0522                	slli	a0,a0,0x8
   17926:	8d4d                	or	a0,a0,a1
   17928:	64814983          	lbu	s3,1608(sp)
   1792c:	64914403          	lbu	s0,1609(sp)
   17930:	8282                	jr	t0

00017932 <OUTLINED_FUNCTION_2>:
   17932:	6a914503          	lbu	a0,1705(sp)
   17936:	6a814583          	lbu	a1,1704(sp)
   1793a:	6aa14603          	lbu	a2,1706(sp)
   1793e:	6ab14903          	lbu	s2,1707(sp)
   17942:	0522                	slli	a0,a0,0x8
   17944:	8d4d                	or	a0,a0,a1
   17946:	6ac14983          	lbu	s3,1708(sp)
   1794a:	6ad14403          	lbu	s0,1709(sp)
   1794e:	8282                	jr	t0

00017950 <OUTLINED_FUNCTION_3>:
   17950:	6a914503          	lbu	a0,1705(sp)
   17954:	6a814583          	lbu	a1,1704(sp)
   17958:	6aa14603          	lbu	a2,1706(sp)
   1795c:	6ab14983          	lbu	s3,1707(sp)
   17960:	0522                	slli	a0,a0,0x8
   17962:	8d4d                	or	a0,a0,a1
   17964:	6ac14a03          	lbu	s4,1708(sp)
   17968:	6ad14483          	lbu	s1,1709(sp)
   1796c:	6ae14a83          	lbu	s5,1710(sp)
   17970:	8282                	jr	t0

00017972 <OUTLINED_FUNCTION_4>:
   17972:	6a914503          	lbu	a0,1705(sp)
   17976:	6a814583          	lbu	a1,1704(sp)
   1797a:	6aa14603          	lbu	a2,1706(sp)
   1797e:	6ab14903          	lbu	s2,1707(sp)
   17982:	0522                	slli	a0,a0,0x8
   17984:	8d4d                	or	a0,a0,a1
   17986:	6ac14983          	lbu	s3,1708(sp)
   1798a:	8282                	jr	t0

0001798c <OUTLINED_FUNCTION_5>:
   1798c:	64514503          	lbu	a0,1605(sp)
   17990:	64414583          	lbu	a1,1604(sp)
   17994:	64614603          	lbu	a2,1606(sp)
   17998:	64714903          	lbu	s2,1607(sp)
   1799c:	0522                	slli	a0,a0,0x8
   1799e:	8d4d                	or	a0,a0,a1
   179a0:	64814983          	lbu	s3,1608(sp)
   179a4:	8282                	jr	t0

000179a6 <OUTLINED_FUNCTION_6>:
   179a6:	64514503          	lbu	a0,1605(sp)
   179aa:	64414583          	lbu	a1,1604(sp)
   179ae:	64614603          	lbu	a2,1606(sp)
   179b2:	64714983          	lbu	s3,1607(sp)
   179b6:	0522                	slli	a0,a0,0x8
   179b8:	8d4d                	or	a0,a0,a1
   179ba:	64814a03          	lbu	s4,1608(sp)
   179be:	64914403          	lbu	s0,1609(sp)
   179c2:	64a14a83          	lbu	s5,1610(sp)
   179c6:	8282                	jr	t0

000179c8 <OUTLINED_FUNCTION_7>:
   179c8:	6a8106a3          	sb	s0,1709(sp)
   179cc:	6a910723          	sb	s1,1710(sp)
   179d0:	6aa11423          	sh	a0,1704(sp)
   179d4:	6ab10523          	sb	a1,1706(sp)
   179d8:	6b2105a3          	sb	s2,1707(sp)
   179dc:	6b310623          	sb	s3,1708(sp)
   179e0:	64410513          	addi	a0,sp,1604
   179e4:	8282                	jr	t0

000179e6 <OUTLINED_FUNCTION_8>:
   179e6:	6a8106a3          	sb	s0,1709(sp)
   179ea:	6b410723          	sb	s4,1710(sp)
   179ee:	6aa11423          	sh	a0,1704(sp)
   179f2:	6ab10523          	sb	a1,1706(sp)
   179f6:	6b2105a3          	sb	s2,1707(sp)
   179fa:	6b310623          	sb	s3,1708(sp)
   179fe:	64410513          	addi	a0,sp,1604
   17a02:	8282                	jr	t0

00017a04 <OUTLINED_FUNCTION_9>:
   17a04:	6a914503          	lbu	a0,1705(sp)
   17a08:	6a814583          	lbu	a1,1704(sp)
   17a0c:	6aa14603          	lbu	a2,1706(sp)
   17a10:	6ab14983          	lbu	s3,1707(sp)
   17a14:	0522                	slli	a0,a0,0x8
   17a16:	8d4d                	or	a0,a0,a1
   17a18:	6ac14a03          	lbu	s4,1708(sp)
   17a1c:	8282                	jr	t0

00017a1e <OUTLINED_FUNCTION_10>:
   17a1e:	6a9106a3          	sb	s1,1709(sp)
   17a22:	6b510723          	sb	s5,1710(sp)
   17a26:	6aa11423          	sh	a0,1704(sp)
   17a2a:	6ab10523          	sb	a1,1706(sp)
   17a2e:	6b3105a3          	sb	s3,1707(sp)
   17a32:	6b410623          	sb	s4,1708(sp)
   17a36:	8282                	jr	t0

00017a38 <OUTLINED_FUNCTION_11>:
   17a38:	64514503          	lbu	a0,1605(sp)
   17a3c:	64414583          	lbu	a1,1604(sp)
   17a40:	64614603          	lbu	a2,1606(sp)
   17a44:	64714983          	lbu	s3,1607(sp)
   17a48:	0522                	slli	a0,a0,0x8
   17a4a:	8d4d                	or	a0,a0,a1
   17a4c:	64814a03          	lbu	s4,1608(sp)
   17a50:	8282                	jr	t0

00017a52 <OUTLINED_FUNCTION_12>:
   17a52:	6a8106a3          	sb	s0,1709(sp)
   17a56:	6b410723          	sb	s4,1710(sp)
   17a5a:	6aa11423          	sh	a0,1704(sp)
   17a5e:	6ab10523          	sb	a1,1706(sp)
   17a62:	6b2105a3          	sb	s2,1707(sp)
   17a66:	6b310623          	sb	s3,1708(sp)
   17a6a:	8282                	jr	t0

00017a6c <OUTLINED_FUNCTION_13>:
   17a6c:	6b410723          	sb	s4,1710(sp)
   17a70:	6aa11423          	sh	a0,1704(sp)
   17a74:	6ab10523          	sb	a1,1706(sp)
   17a78:	6b2105a3          	sb	s2,1707(sp)
   17a7c:	6b310623          	sb	s3,1708(sp)
   17a80:	64410513          	addi	a0,sp,1604
   17a84:	8282                	jr	t0

00017a86 <OUTLINED_FUNCTION_14>:
   17a86:	6b510723          	sb	s5,1710(sp)
   17a8a:	6aa11423          	sh	a0,1704(sp)
   17a8e:	6ab10523          	sb	a1,1706(sp)
   17a92:	6b3105a3          	sb	s3,1707(sp)
   17a96:	6b410623          	sb	s4,1708(sp)
   17a9a:	64410513          	addi	a0,sp,1604
   17a9e:	8282                	jr	t0

00017aa0 <OUTLINED_FUNCTION_15>:
   17aa0:	5e8108a3          	sb	s0,1521(sp)
   17aa4:	5f410923          	sb	s4,1522(sp)
   17aa8:	5ea11623          	sh	a0,1516(sp)
   17aac:	5eb10723          	sb	a1,1518(sp)
   17ab0:	5f2107a3          	sb	s2,1519(sp)
   17ab4:	5f310823          	sb	s3,1520(sp)
   17ab8:	6a810513          	addi	a0,sp,1704
   17abc:	8282                	jr	t0

00017abe <OUTLINED_FUNCTION_16>:
   17abe:	64514503          	lbu	a0,1605(sp)
   17ac2:	64414583          	lbu	a1,1604(sp)
   17ac6:	64614603          	lbu	a2,1606(sp)
   17aca:	64714903          	lbu	s2,1607(sp)
   17ace:	0522                	slli	a0,a0,0x8
   17ad0:	8d4d                	or	a0,a0,a1
   17ad2:	8282                	jr	t0

00017ad4 <OUTLINED_FUNCTION_17>:
   17ad4:	6a914503          	lbu	a0,1705(sp)
   17ad8:	6a814583          	lbu	a1,1704(sp)
   17adc:	6aa14603          	lbu	a2,1706(sp)
   17ae0:	6ab14903          	lbu	s2,1707(sp)
   17ae4:	0522                	slli	a0,a0,0x8
   17ae6:	8d4d                	or	a0,a0,a1
   17ae8:	8282                	jr	t0

00017aea <OUTLINED_FUNCTION_18>:
   17aea:	5e8108a3          	sb	s0,1521(sp)
   17aee:	5f410923          	sb	s4,1522(sp)
   17af2:	5ea11623          	sh	a0,1516(sp)
   17af6:	5eb10723          	sb	a1,1518(sp)
   17afa:	5f2107a3          	sb	s2,1519(sp)
   17afe:	5f310823          	sb	s3,1520(sp)
   17b02:	8282                	jr	t0

00017b04 <OUTLINED_FUNCTION_19>:
   17b04:	6b510723          	sb	s5,1710(sp)
   17b08:	6aa11423          	sh	a0,1704(sp)
   17b0c:	6ab10523          	sb	a1,1706(sp)
   17b10:	6b3105a3          	sb	s3,1707(sp)
   17b14:	6b410623          	sb	s4,1708(sp)
   17b18:	8282                	jr	t0

00017b1a <OUTLINED_FUNCTION_20>:
   17b1a:	6b410723          	sb	s4,1710(sp)
   17b1e:	6aa11423          	sh	a0,1704(sp)
   17b22:	6ab10523          	sb	a1,1706(sp)
   17b26:	6b2105a3          	sb	s2,1707(sp)
   17b2a:	6b310623          	sb	s3,1708(sp)
   17b2e:	8282                	jr	t0

00017b30 <OUTLINED_FUNCTION_21>:
   17b30:	5ea11623          	sh	a0,1516(sp)
   17b34:	5eb10723          	sb	a1,1518(sp)
   17b38:	5f2107a3          	sb	s2,1519(sp)
   17b3c:	5f310823          	sb	s3,1520(sp)
   17b40:	6a810513          	addi	a0,sp,1704
   17b44:	8282                	jr	t0

00017b46 <OUTLINED_FUNCTION_22>:
   17b46:	64a11223          	sh	a0,1604(sp)
   17b4a:	64b10323          	sb	a1,1606(sp)
   17b4e:	652103a3          	sb	s2,1607(sp)
   17b52:	65310423          	sb	s3,1608(sp)
   17b56:	6a810513          	addi	a0,sp,1704
   17b5a:	8282                	jr	t0

00017b5c <OUTLINED_FUNCTION_23>:
   17b5c:	65510523          	sb	s5,1610(sp)
   17b60:	64a11223          	sh	a0,1604(sp)
   17b64:	64b10323          	sb	a1,1606(sp)
   17b68:	653103a3          	sb	s3,1607(sp)
   17b6c:	65410423          	sb	s4,1608(sp)
   17b70:	6a810513          	addi	a0,sp,1704
   17b74:	8282                	jr	t0

00017b76 <OUTLINED_FUNCTION_24>:
   17b76:	64a11223          	sh	a0,1604(sp)
   17b7a:	64b10323          	sb	a1,1606(sp)
   17b7e:	653103a3          	sb	s3,1607(sp)
   17b82:	65410423          	sb	s4,1608(sp)
   17b86:	8282                	jr	t0

00017b88 <OUTLINED_FUNCTION_25>:
   17b88:	5f510923          	sb	s5,1522(sp)
   17b8c:	5ea11623          	sh	a0,1516(sp)
   17b90:	5eb10723          	sb	a1,1518(sp)
   17b94:	5f3107a3          	sb	s3,1519(sp)
   17b98:	5f410823          	sb	s4,1520(sp)
   17b9c:	8282                	jr	t0

00017b9e <OUTLINED_FUNCTION_26>:
   17b9e:	64414503          	lbu	a0,1604(sp)
   17ba2:	64514583          	lbu	a1,1605(sp)
   17ba6:	4405                	li	s0,1
   17ba8:	64614603          	lbu	a2,1606(sp)
   17bac:	64714983          	lbu	s3,1607(sp)
   17bb0:	05a2                	slli	a1,a1,0x8
   17bb2:	8d4d                	or	a0,a0,a1
   17bb4:	64814a03          	lbu	s4,1608(sp)
   17bb8:	64914a83          	lbu	s5,1609(sp)
   17bbc:	64a14b03          	lbu	s6,1610(sp)
   17bc0:	8282                	jr	t0

00017bc2 <OUTLINED_FUNCTION_27>:
   17bc2:	5ed14503          	lbu	a0,1517(sp)
   17bc6:	5ec14583          	lbu	a1,1516(sp)
   17bca:	5ee14603          	lbu	a2,1518(sp)
   17bce:	5ef14983          	lbu	s3,1519(sp)
   17bd2:	0522                	slli	a0,a0,0x8
   17bd4:	8d4d                	or	a0,a0,a1
   17bd6:	5f014403          	lbu	s0,1520(sp)
   17bda:	5f114a03          	lbu	s4,1521(sp)
   17bde:	5f214a83          	lbu	s5,1522(sp)
   17be2:	8282                	jr	t0

00017be4 <OUTLINED_FUNCTION_28>:
   17be4:	87ae                	mv	a5,a1
   17be6:	8522                	mv	a0,s0
   17be8:	4601                	li	a2,0
   17bea:	4681                	li	a3,0
   17bec:	45a5                	li	a1,9
   17bee:	470d                	li	a4,3
   17bf0:	8282                	jr	t0

00017bf2 <OUTLINED_FUNCTION_29>:
   17bf2:	87ae                	mv	a5,a1
   17bf4:	8522                	mv	a0,s0
   17bf6:	4601                	li	a2,0
   17bf8:	4681                	li	a3,0
   17bfa:	458d                	li	a1,3
   17bfc:	470d                	li	a4,3
   17bfe:	8282                	jr	t0

00017c00 <OUTLINED_FUNCTION_30>:
   17c00:	87ae                	mv	a5,a1
   17c02:	8522                	mv	a0,s0
   17c04:	4601                	li	a2,0
   17c06:	4681                	li	a3,0
   17c08:	45a1                	li	a1,8
   17c0a:	470d                	li	a4,3
   17c0c:	8282                	jr	t0

00017c0e <OUTLINED_FUNCTION_31>:
   17c0e:	8526                	mv	a0,s1
   17c10:	4601                	li	a2,0
   17c12:	4681                	li	a3,0
   17c14:	45a5                	li	a1,9
   17c16:	470d                	li	a4,3
   17c18:	8282                	jr	t0

00017c1a <OUTLINED_FUNCTION_32>:
   17c1a:	8526                	mv	a0,s1
   17c1c:	4601                	li	a2,0
   17c1e:	4681                	li	a3,0
   17c20:	458d                	li	a1,3
   17c22:	470d                	li	a4,3
   17c24:	8282                	jr	t0

00017c26 <OUTLINED_FUNCTION_33>:
   17c26:	8526                	mv	a0,s1
   17c28:	4581                	li	a1,0
   17c2a:	4601                	li	a2,0
   17c2c:	4681                	li	a3,0
   17c2e:	470d                	li	a4,3
   17c30:	8282                	jr	t0

00017c32 <OUTLINED_FUNCTION_34>:
   17c32:	64814403          	lbu	s0,1608(sp)
   17c36:	64914983          	lbu	s3,1609(sp)
   17c3a:	64a14a03          	lbu	s4,1610(sp)
   17c3e:	6aa11423          	sh	a0,1704(sp)
   17c42:	6ac10523          	sb	a2,1706(sp)
   17c46:	64b10593          	addi	a1,sp,1611
   17c4a:	8282                	jr	t0

00017c4c <OUTLINED_FUNCTION_35>:
   17c4c:	8522                	mv	a0,s0
   17c4e:	4601                	li	a2,0
   17c50:	4681                	li	a3,0
   17c52:	458d                	li	a1,3
   17c54:	470d                	li	a4,3
   17c56:	8282                	jr	t0

00017c58 <OUTLINED_FUNCTION_36>:
   17c58:	8526                	mv	a0,s1
   17c5a:	4601                	li	a2,0
   17c5c:	4681                	li	a3,0
   17c5e:	45a1                	li	a1,8
   17c60:	470d                	li	a4,3
   17c62:	8282                	jr	t0

00017c64 <OUTLINED_FUNCTION_37>:
   17c64:	458d                	li	a1,3
   17c66:	4711                	li	a4,4
   17c68:	8526                	mv	a0,s1
   17c6a:	4601                	li	a2,0
   17c6c:	4681                	li	a3,0
   17c6e:	8282                	jr	t0

00017c70 <OUTLINED_FUNCTION_38>:
   17c70:	470d                	li	a4,3
   17c72:	45a5                	li	a1,9
   17c74:	8526                	mv	a0,s1
   17c76:	4601                	li	a2,0
   17c78:	4681                	li	a3,0
   17c7a:	8282                	jr	t0

00017c7c <OUTLINED_FUNCTION_39>:
   17c7c:	459d                	li	a1,7
   17c7e:	4711                	li	a4,4
   17c80:	8526                	mv	a0,s1
   17c82:	4601                	li	a2,0
   17c84:	4681                	li	a3,0
   17c86:	8282                	jr	t0

00017c88 <OUTLINED_FUNCTION_40>:
   17c88:	8526                	mv	a0,s1
   17c8a:	4601                	li	a2,0
   17c8c:	4681                	li	a3,0
   17c8e:	4595                	li	a1,5
   17c90:	470d                	li	a4,3
   17c92:	8282                	jr	t0

00017c94 <OUTLINED_FUNCTION_41>:
   17c94:	470d                	li	a4,3
   17c96:	458d                	li	a1,3
   17c98:	8526                	mv	a0,s1
   17c9a:	4601                	li	a2,0
   17c9c:	4681                	li	a3,0
   17c9e:	8282                	jr	t0

00017ca0 <OUTLINED_FUNCTION_42>:
   17ca0:	470d                	li	a4,3
   17ca2:	458d                	li	a1,3
   17ca4:	8522                	mv	a0,s0
   17ca6:	4601                	li	a2,0
   17ca8:	4681                	li	a3,0
   17caa:	8282                	jr	t0

00017cac <OUTLINED_FUNCTION_43>:
   17cac:	4711                	li	a4,4
   17cae:	8526                	mv	a0,s1
   17cb0:	4581                	li	a1,0
   17cb2:	4601                	li	a2,0
   17cb4:	4681                	li	a3,0
   17cb6:	8282                	jr	t0

00017cb8 <OUTLINED_FUNCTION_44>:
   17cb8:	4589                	li	a1,2
   17cba:	4711                	li	a4,4
   17cbc:	8522                	mv	a0,s0
   17cbe:	4601                	li	a2,0
   17cc0:	4681                	li	a3,0
   17cc2:	8282                	jr	t0

00017cc4 <OUTLINED_FUNCTION_45>:
   17cc4:	459d                	li	a1,7
   17cc6:	4711                	li	a4,4
   17cc8:	8522                	mv	a0,s0
   17cca:	4601                	li	a2,0
   17ccc:	4681                	li	a3,0
   17cce:	8282                	jr	t0

00017cd0 <OUTLINED_FUNCTION_46>:
   17cd0:	4591                	li	a1,4
   17cd2:	4711                	li	a4,4
   17cd4:	8522                	mv	a0,s0
   17cd6:	4601                	li	a2,0
   17cd8:	4681                	li	a3,0
   17cda:	8282                	jr	t0

00017cdc <OUTLINED_FUNCTION_47>:
   17cdc:	8522                	mv	a0,s0
   17cde:	4581                	li	a1,0
   17ce0:	4601                	li	a2,0
   17ce2:	4681                	li	a3,0
   17ce4:	470d                	li	a4,3
   17ce6:	8282                	jr	t0

00017ce8 <OUTLINED_FUNCTION_48>:
   17ce8:	5ea11623          	sh	a0,1516(sp)
   17cec:	5eb10723          	sb	a1,1518(sp)
   17cf0:	5f2107a3          	sb	s2,1519(sp)
   17cf4:	5f410823          	sb	s4,1520(sp)
   17cf8:	6a810513          	addi	a0,sp,1704
   17cfc:	8282                	jr	t0

00017cfe <OUTLINED_FUNCTION_49>:
   17cfe:	64a11223          	sh	a0,1604(sp)
   17d02:	64b10323          	sb	a1,1606(sp)
   17d06:	654103a3          	sb	s4,1607(sp)
   17d0a:	65310423          	sb	s3,1608(sp)
   17d0e:	6a810513          	addi	a0,sp,1704
   17d12:	8282                	jr	t0

00017d14 <OUTLINED_FUNCTION_50>:
   17d14:	60010513          	addi	a0,sp,1536
   17d18:	04052223          	sw	zero,68(a0)
   17d1c:	4581                	li	a1,0
   17d1e:	c52c                	sw	a1,72(a0)
   17d20:	c56c                	sw	a1,76(a0)
   17d22:	8282                	jr	t0

00017d24 <OUTLINED_FUNCTION_51>:
   17d24:	6af10513          	addi	a0,sp,1711
   17d28:	64410593          	addi	a1,sp,1604
   17d2c:	04a00613          	li	a2,74
   17d30:	8282                	jr	t0

00017d32 <OUTLINED_FUNCTION_52>:
   17d32:	6af10593          	addi	a1,sp,1711
   17d36:	64410513          	addi	a0,sp,1604
   17d3a:	04a00613          	li	a2,74
   17d3e:	8282                	jr	t0

00017d40 <OUTLINED_FUNCTION_53>:
   17d40:	458d                	li	a1,3
   17d42:	4711                	li	a4,4
   17d44:	8522                	mv	a0,s0
   17d46:	4601                	li	a2,0
   17d48:	4681                	li	a3,0
   17d4a:	8282                	jr	t0

00017d4c <OUTLINED_FUNCTION_54>:
   17d4c:	4599                	li	a1,6
   17d4e:	4711                	li	a4,4
   17d50:	8526                	mv	a0,s1
   17d52:	4601                	li	a2,0
   17d54:	4681                	li	a3,0
   17d56:	8282                	jr	t0

00017d58 <OUTLINED_FUNCTION_55>:
   17d58:	4599                	li	a1,6
   17d5a:	4711                	li	a4,4
   17d5c:	8522                	mv	a0,s0
   17d5e:	4601                	li	a2,0
   17d60:	4681                	li	a3,0
   17d62:	8282                	jr	t0

00017d64 <OUTLINED_FUNCTION_56>:
   17d64:	45a1                	li	a1,8
   17d66:	4711                	li	a4,4
   17d68:	8526                	mv	a0,s1
   17d6a:	4601                	li	a2,0
   17d6c:	4681                	li	a3,0
   17d6e:	8282                	jr	t0

00017d70 <OUTLINED_FUNCTION_57>:
   17d70:	4591                	li	a1,4
   17d72:	4711                	li	a4,4
   17d74:	8526                	mv	a0,s1
   17d76:	4601                	li	a2,0
   17d78:	4681                	li	a3,0
   17d7a:	8282                	jr	t0

00017d7c <OUTLINED_FUNCTION_58>:
   17d7c:	8522                	mv	a0,s0
   17d7e:	4601                	li	a2,0
   17d80:	4681                	li	a3,0
   17d82:	4591                	li	a1,4
   17d84:	470d                	li	a4,3
   17d86:	8282                	jr	t0

00017d88 <OUTLINED_FUNCTION_59>:
   17d88:	8522                	mv	a0,s0
   17d8a:	4601                	li	a2,0
   17d8c:	4681                	li	a3,0
   17d8e:	4595                	li	a1,5
   17d90:	470d                	li	a4,3
   17d92:	8282                	jr	t0

00017d94 <OUTLINED_FUNCTION_60>:
   17d94:	45a5                	li	a1,9
   17d96:	4711                	li	a4,4
   17d98:	8526                	mv	a0,s1
   17d9a:	4601                	li	a2,0
   17d9c:	4681                	li	a3,0
   17d9e:	8282                	jr	t0

00017da0 <OUTLINED_FUNCTION_61>:
   17da0:	470d                	li	a4,3
   17da2:	45a1                	li	a1,8
   17da4:	8526                	mv	a0,s1
   17da6:	4601                	li	a2,0
   17da8:	4681                	li	a3,0
   17daa:	8282                	jr	t0

00017dac <OUTLINED_FUNCTION_62>:
   17dac:	4711                	li	a4,4
   17dae:	8522                	mv	a0,s0
   17db0:	4581                	li	a1,0
   17db2:	4601                	li	a2,0
   17db4:	4681                	li	a3,0
   17db6:	8282                	jr	t0

00017db8 <memset>:
   17db8:	46c1                	li	a3,16
   17dba:	04d66f63          	bltu	a2,a3,17e18 <memset+0x60>
   17dbe:	40a006b3          	neg	a3,a0
   17dc2:	0036f813          	andi	a6,a3,3
   17dc6:	01050733          	add	a4,a0,a6
   17dca:	00e57963          	bgeu	a0,a4,17ddc <memset+0x24>
   17dce:	87c2                	mv	a5,a6
   17dd0:	86aa                	mv	a3,a0
   17dd2:	00b68023          	sb	a1,0(a3)
   17dd6:	17fd                	addi	a5,a5,-1
   17dd8:	0685                	addi	a3,a3,1
   17dda:	ffe5                	bnez	a5,17dd2 <memset+0x1a>
   17ddc:	41060633          	sub	a2,a2,a6
   17de0:	ffc67693          	andi	a3,a2,-4
   17de4:	96ba                	add	a3,a3,a4
   17de6:	00d77e63          	bgeu	a4,a3,17e02 <memset+0x4a>
   17dea:	0ff5f813          	zext.b	a6,a1
   17dee:	010107b7          	lui	a5,0x1010
   17df2:	10178793          	addi	a5,a5,257 # 1010101 <_ZN17compiler_builtins3mem6memcpy17h90d0c987d2ef5a79E+0xff82d5>
   17df6:	02f807b3          	mul	a5,a6,a5
   17dfa:	c31c                	sw	a5,0(a4)
   17dfc:	0711                	addi	a4,a4,4
   17dfe:	fed76ee3          	bltu	a4,a3,17dfa <memset+0x42>
   17e02:	8a0d                	andi	a2,a2,3
   17e04:	00c68733          	add	a4,a3,a2
   17e08:	00e6f763          	bgeu	a3,a4,17e16 <memset+0x5e>
   17e0c:	00b68023          	sb	a1,0(a3)
   17e10:	167d                	addi	a2,a2,-1
   17e12:	0685                	addi	a3,a3,1
   17e14:	fe65                	bnez	a2,17e0c <memset+0x54>
   17e16:	8082                	ret
   17e18:	86aa                	mv	a3,a0
   17e1a:	00c50733          	add	a4,a0,a2
   17e1e:	fee567e3          	bltu	a0,a4,17e0c <memset+0x54>
   17e22:	bfd5                	j	17e16 <memset+0x5e>

00017e24 <memcpy>:
   17e24:	00000317          	auipc	t1,0x0
   17e28:	00830067          	jr	8(t1) # 17e2c <_ZN17compiler_builtins3mem6memcpy17h90d0c987d2ef5a79E>

00017e2c <_ZN17compiler_builtins3mem6memcpy17h90d0c987d2ef5a79E>:
   17e2c:	1141                	addi	sp,sp,-16
   17e2e:	c622                	sw	s0,12(sp)
   17e30:	46c1                	li	a3,16
   17e32:	06d66363          	bltu	a2,a3,17e98 <_ZN17compiler_builtins3mem6memcpy17h90d0c987d2ef5a79E+0x6c>
   17e36:	40a006b3          	neg	a3,a0
   17e3a:	0036f813          	andi	a6,a3,3
   17e3e:	01050fb3          	add	t6,a0,a6
   17e42:	01f57d63          	bgeu	a0,t6,17e5c <_ZN17compiler_builtins3mem6memcpy17h90d0c987d2ef5a79E+0x30>
   17e46:	8742                	mv	a4,a6
   17e48:	86aa                	mv	a3,a0
   17e4a:	87ae                	mv	a5,a1
   17e4c:	0007c883          	lbu	a7,0(a5)
   17e50:	177d                	addi	a4,a4,-1
   17e52:	01168023          	sb	a7,0(a3)
   17e56:	0685                	addi	a3,a3,1
   17e58:	0785                	addi	a5,a5,1
   17e5a:	fb6d                	bnez	a4,17e4c <_ZN17compiler_builtins3mem6memcpy17h90d0c987d2ef5a79E+0x20>
   17e5c:	01058433          	add	s0,a1,a6
   17e60:	410608b3          	sub	a7,a2,a6
   17e64:	ffc8f713          	andi	a4,a7,-4
   17e68:	00347613          	andi	a2,s0,3
   17e6c:	00ef86b3          	add	a3,t6,a4
   17e70:	e621                	bnez	a2,17eb8 <_ZN17compiler_builtins3mem6memcpy17h90d0c987d2ef5a79E+0x8c>
   17e72:	00dffa63          	bgeu	t6,a3,17e86 <_ZN17compiler_builtins3mem6memcpy17h90d0c987d2ef5a79E+0x5a>
   17e76:	8622                	mv	a2,s0
   17e78:	421c                	lw	a5,0(a2)
   17e7a:	00ffa023          	sw	a5,0(t6)
   17e7e:	0f91                	addi	t6,t6,4
   17e80:	0611                	addi	a2,a2,4
   17e82:	fedfebe3          	bltu	t6,a3,17e78 <_ZN17compiler_builtins3mem6memcpy17h90d0c987d2ef5a79E+0x4c>
   17e86:	00e405b3          	add	a1,s0,a4
   17e8a:	0038f613          	andi	a2,a7,3
   17e8e:	00c68733          	add	a4,a3,a2
   17e92:	00e6e863          	bltu	a3,a4,17ea2 <_ZN17compiler_builtins3mem6memcpy17h90d0c987d2ef5a79E+0x76>
   17e96:	a831                	j	17eb2 <_ZN17compiler_builtins3mem6memcpy17h90d0c987d2ef5a79E+0x86>
   17e98:	86aa                	mv	a3,a0
   17e9a:	00c50733          	add	a4,a0,a2
   17e9e:	00e57a63          	bgeu	a0,a4,17eb2 <_ZN17compiler_builtins3mem6memcpy17h90d0c987d2ef5a79E+0x86>
   17ea2:	0005c703          	lbu	a4,0(a1)
   17ea6:	167d                	addi	a2,a2,-1
   17ea8:	00e68023          	sb	a4,0(a3)
   17eac:	0685                	addi	a3,a3,1
   17eae:	0585                	addi	a1,a1,1
   17eb0:	fa6d                	bnez	a2,17ea2 <_ZN17compiler_builtins3mem6memcpy17h90d0c987d2ef5a79E+0x76>
   17eb2:	4432                	lw	s0,12(sp)
   17eb4:	0141                	addi	sp,sp,16
   17eb6:	8082                	ret
   17eb8:	4801                	li	a6,0
   17eba:	4791                	li	a5,4
   17ebc:	c402                	sw	zero,8(sp)
   17ebe:	40c783b3          	sub	t2,a5,a2
   17ec2:	00810293          	addi	t0,sp,8
   17ec6:	0013f313          	andi	t1,t2,1
   17eca:	00c2e2b3          	or	t0,t0,a2
   17ece:	04031763          	bnez	t1,17f1c <_ZN17compiler_builtins3mem6memcpy17h90d0c987d2ef5a79E+0xf0>
   17ed2:	0023f793          	andi	a5,t2,2
   17ed6:	ebb9                	bnez	a5,17f2c <_ZN17compiler_builtins3mem6memcpy17h90d0c987d2ef5a79E+0x100>
   17ed8:	4ea2                	lw	t4,8(sp)
   17eda:	00361813          	slli	a6,a2,0x3
   17ede:	004f8793          	addi	a5,t6,4
   17ee2:	40c40f33          	sub	t5,s0,a2
   17ee6:	06d7f363          	bgeu	a5,a3,17f4c <_ZN17compiler_builtins3mem6memcpy17h90d0c987d2ef5a79E+0x120>
   17eea:	410007b3          	neg	a5,a6
   17eee:	0187fe13          	andi	t3,a5,24
   17ef2:	004f2283          	lw	t0,4(t5)
   17ef6:	004f0393          	addi	t2,t5,4
   17efa:	010ed5b3          	srl	a1,t4,a6
   17efe:	004f8313          	addi	t1,t6,4
   17f02:	01c297b3          	sll	a5,t0,t3
   17f06:	8ddd                	or	a1,a1,a5
   17f08:	008f8793          	addi	a5,t6,8
   17f0c:	00bfa023          	sw	a1,0(t6)
   17f10:	8f9a                	mv	t6,t1
   17f12:	8f1e                	mv	t5,t2
   17f14:	8e96                	mv	t4,t0
   17f16:	fcd7eee3          	bltu	a5,a3,17ef2 <_ZN17compiler_builtins3mem6memcpy17h90d0c987d2ef5a79E+0xc6>
   17f1a:	a825                	j	17f52 <_ZN17compiler_builtins3mem6memcpy17h90d0c987d2ef5a79E+0x126>
   17f1c:	00044783          	lbu	a5,0(s0)
   17f20:	00f28023          	sb	a5,0(t0)
   17f24:	4805                	li	a6,1
   17f26:	0023f793          	andi	a5,t2,2
   17f2a:	d7dd                	beqz	a5,17ed8 <_ZN17compiler_builtins3mem6memcpy17h90d0c987d2ef5a79E+0xac>
   17f2c:	010407b3          	add	a5,s0,a6
   17f30:	00079783          	lh	a5,0(a5)
   17f34:	9816                	add	a6,a6,t0
   17f36:	00f81023          	sh	a5,0(a6)
   17f3a:	4ea2                	lw	t4,8(sp)
   17f3c:	00361813          	slli	a6,a2,0x3
   17f40:	004f8793          	addi	a5,t6,4
   17f44:	40c40f33          	sub	t5,s0,a2
   17f48:	fad7e1e3          	bltu	a5,a3,17eea <_ZN17compiler_builtins3mem6memcpy17h90d0c987d2ef5a79E+0xbe>
   17f4c:	82f6                	mv	t0,t4
   17f4e:	83fa                	mv	t2,t5
   17f50:	837e                	mv	t1,t6
   17f52:	00010223          	sb	zero,4(sp)
   17f56:	4785                	li	a5,1
   17f58:	00010123          	sb	zero,2(sp)
   17f5c:	00f61763          	bne	a2,a5,17f6a <_ZN17compiler_builtins3mem6memcpy17h90d0c987d2ef5a79E+0x13e>
   17f60:	4781                	li	a5,0
   17f62:	4e01                	li	t3,0
   17f64:	4e81                	li	t4,0
   17f66:	0050                	addi	a2,sp,4
   17f68:	a819                	j	17f7e <_ZN17compiler_builtins3mem6memcpy17h90d0c987d2ef5a79E+0x152>
   17f6a:	0043c783          	lbu	a5,4(t2)
   17f6e:	0053ce03          	lbu	t3,5(t2)
   17f72:	4e89                	li	t4,2
   17f74:	00f10223          	sb	a5,4(sp)
   17f78:	0e22                	slli	t3,t3,0x8
   17f7a:	00210613          	addi	a2,sp,2
   17f7e:	00147593          	andi	a1,s0,1
   17f82:	e199                	bnez	a1,17f88 <_ZN17compiler_builtins3mem6memcpy17h90d0c987d2ef5a79E+0x15c>
   17f84:	4601                	li	a2,0
   17f86:	a821                	j	17f9e <_ZN17compiler_builtins3mem6memcpy17h90d0c987d2ef5a79E+0x172>
   17f88:	0391                	addi	t2,t2,4
   17f8a:	93f6                	add	t2,t2,t4
   17f8c:	0003c583          	lbu	a1,0(t2)
   17f90:	00b60023          	sb	a1,0(a2)
   17f94:	00214603          	lbu	a2,2(sp)
   17f98:	00414783          	lbu	a5,4(sp)
   17f9c:	0642                	slli	a2,a2,0x10
   17f9e:	8e5d                	or	a2,a2,a5
   17fa0:	0102d5b3          	srl	a1,t0,a6
   17fa4:	410007b3          	neg	a5,a6
   17fa8:	00ce6633          	or	a2,t3,a2
   17fac:	8be1                	andi	a5,a5,24
   17fae:	00f61633          	sll	a2,a2,a5
   17fb2:	8dd1                	or	a1,a1,a2
   17fb4:	00b32023          	sw	a1,0(t1)
   17fb8:	00e405b3          	add	a1,s0,a4
   17fbc:	0038f613          	andi	a2,a7,3
   17fc0:	00c68733          	add	a4,a3,a2
   17fc4:	ece6efe3          	bltu	a3,a4,17ea2 <_ZN17compiler_builtins3mem6memcpy17h90d0c987d2ef5a79E+0x76>
   17fc8:	b5ed                	j	17eb2 <_ZN17compiler_builtins3mem6memcpy17h90d0c987d2ef5a79E+0x86>
