
target/riscv32imc-unknown-none-elf/opt-z/examples/complex_dynamic_type:     file format elf32-littleriscv

Sections:
Idx Name          Size      VMA       LMA       File off  Algn
  0 .rodata       000001b7  000100d4  000100d4  000000d4  2**0
                  CONTENTS, ALLOC, LOAD, READONLY, DATA
  1 .eh_frame     00000060  0001028c  0001028c  0000028c  2**2
                  CONTENTS, ALLOC, LOAD, READONLY, DATA
  2 .text         00008834  000112ec  000112ec  000002ec  2**1
                  CONTENTS, ALLOC, LOAD, READONLY, CODE
  3 .comment      0000008b  00000000  00000000  00008b20  2**0
                  CONTENTS, READONLY
  4 .riscv.attributes 0000002f  00000000  00000000  00008bab  2**0
                  CONTENTS, READONLY

Disassembly of section .text:

000112ec <_ZN9allow_pin12dynamic_type11allow_inner17h0123a3b9d8c67b48E>:
   112ec:	00000073          	ecall
   112f0:	1579                	addi	a0,a0,-2
   112f2:	00153513          	seqz	a0,a0
   112f6:	8082                	ret

000112f8 <_ZN9allow_pin12dynamic_type23Buffer$LT$B$C$_$C$_$GT$5allow17h0edf0a9be50f20f3E>:
   112f8:	00008297          	auipc	t0,0x8
   112fc:	300282e7          	jalr	t0,768(t0) # 195f8 <OUTLINED_FUNCTION_21>
   11300:	02b51363          	bne	a0,a1,11326 <_ZN9allow_pin12dynamic_type23Buffer$LT$B$C$_$C$_$GT$5allow17h0edf0a9be50f20f3E+0x2e>
   11304:	8932                	mv	s2,a2
   11306:	00148613          	addi	a2,s1,1
   1130a:	55e00513          	li	a0,1374
   1130e:	45a5                	li	a1,9
   11310:	874a                	mv	a4,s2
   11312:	00000097          	auipc	ra,0x0
   11316:	fda080e7          	jalr	-38(ra) # 112ec <_ZN9allow_pin12dynamic_type11allow_inner17h0123a3b9d8c67b48E>
   1131a:	8905                	andi	a0,a0,1
   1131c:	e511                	bnez	a0,11328 <_ZN9allow_pin12dynamic_type23Buffer$LT$B$C$_$C$_$GT$5allow17h0edf0a9be50f20f3E+0x30>
   1131e:	4401                	li	s0,0
   11320:	01248023          	sb	s2,0(s1)
   11324:	a011                	j	11328 <_ZN9allow_pin12dynamic_type23Buffer$LT$B$C$_$C$_$GT$5allow17h0edf0a9be50f20f3E+0x30>
   11326:	458d                	li	a1,3
   11328:	00008317          	auipc	t1,0x8
   1132c:	2e830067          	jr	744(t1) # 19610 <OUTLINED_FUNCTION_22>

00011330 <_ZN9allow_pin12dynamic_type23Buffer$LT$B$C$_$C$_$GT$5allow17h257e0e199a080bcdE>:
   11330:	00008297          	auipc	t0,0x8
   11334:	2c8282e7          	jalr	t0,712(t0) # 195f8 <OUTLINED_FUNCTION_21>
   11338:	02b51463          	bne	a0,a1,11360 <_ZN9allow_pin12dynamic_type23Buffer$LT$B$C$_$C$_$GT$5allow17h257e0e199a080bcdE+0x30>
   1133c:	8932                	mv	s2,a2
   1133e:	00148613          	addi	a2,s1,1
   11342:	6505                	lui	a0,0x1
   11344:	a9d50513          	addi	a0,a0,-1379 # a9d <.Lline_table_start1+0x872>
   11348:	45a5                	li	a1,9
   1134a:	874a                	mv	a4,s2
   1134c:	00000097          	auipc	ra,0x0
   11350:	fa0080e7          	jalr	-96(ra) # 112ec <_ZN9allow_pin12dynamic_type11allow_inner17h0123a3b9d8c67b48E>
   11354:	8905                	andi	a0,a0,1
   11356:	e511                	bnez	a0,11362 <_ZN9allow_pin12dynamic_type23Buffer$LT$B$C$_$C$_$GT$5allow17h257e0e199a080bcdE+0x32>
   11358:	4401                	li	s0,0
   1135a:	01248023          	sb	s2,0(s1)
   1135e:	a011                	j	11362 <_ZN9allow_pin12dynamic_type23Buffer$LT$B$C$_$C$_$GT$5allow17h257e0e199a080bcdE+0x32>
   11360:	458d                	li	a1,3
   11362:	00008317          	auipc	t1,0x8
   11366:	2ae30067          	jr	686(t1) # 19610 <OUTLINED_FUNCTION_22>

0001136a <_ZN9allow_pin12dynamic_type23Buffer$LT$B$C$_$C$_$GT$5allow17h3a5e801415c5edc3E>:
   1136a:	00008297          	auipc	t0,0x8
   1136e:	28e282e7          	jalr	t0,654(t0) # 195f8 <OUTLINED_FUNCTION_21>
   11372:	02b51463          	bne	a0,a1,1139a <_ZN9allow_pin12dynamic_type23Buffer$LT$B$C$_$C$_$GT$5allow17h3a5e801415c5edc3E+0x30>
   11376:	8932                	mv	s2,a2
   11378:	00148613          	addi	a2,s1,1
   1137c:	6509                	lui	a0,0x2
   1137e:	54850513          	addi	a0,a0,1352 # 2548 <.Lline_table_start1+0x231d>
   11382:	458d                	li	a1,3
   11384:	874a                	mv	a4,s2
   11386:	00000097          	auipc	ra,0x0
   1138a:	f66080e7          	jalr	-154(ra) # 112ec <_ZN9allow_pin12dynamic_type11allow_inner17h0123a3b9d8c67b48E>
   1138e:	8905                	andi	a0,a0,1
   11390:	e511                	bnez	a0,1139c <_ZN9allow_pin12dynamic_type23Buffer$LT$B$C$_$C$_$GT$5allow17h3a5e801415c5edc3E+0x32>
   11392:	4401                	li	s0,0
   11394:	01248023          	sb	s2,0(s1)
   11398:	a011                	j	1139c <_ZN9allow_pin12dynamic_type23Buffer$LT$B$C$_$C$_$GT$5allow17h3a5e801415c5edc3E+0x32>
   1139a:	458d                	li	a1,3
   1139c:	00008317          	auipc	t1,0x8
   113a0:	27430067          	jr	628(t1) # 19610 <OUTLINED_FUNCTION_22>

000113a4 <_ZN9allow_pin12dynamic_type23Buffer$LT$B$C$_$C$_$GT$5allow17h4031926fc054d9f8E>:
   113a4:	00008297          	auipc	t0,0x8
   113a8:	254282e7          	jalr	t0,596(t0) # 195f8 <OUTLINED_FUNCTION_21>
   113ac:	02b51463          	bne	a0,a1,113d4 <_ZN9allow_pin12dynamic_type23Buffer$LT$B$C$_$C$_$GT$5allow17h4031926fc054d9f8E+0x30>
   113b0:	8932                	mv	s2,a2
   113b2:	00148613          	addi	a2,s1,1
   113b6:	6509                	lui	a0,0x2
   113b8:	09550513          	addi	a0,a0,149 # 2095 <.Lline_table_start1+0x1e6a>
   113bc:	45a1                	li	a1,8
   113be:	874a                	mv	a4,s2
   113c0:	00000097          	auipc	ra,0x0
   113c4:	f2c080e7          	jalr	-212(ra) # 112ec <_ZN9allow_pin12dynamic_type11allow_inner17h0123a3b9d8c67b48E>
   113c8:	8905                	andi	a0,a0,1
   113ca:	e511                	bnez	a0,113d6 <_ZN9allow_pin12dynamic_type23Buffer$LT$B$C$_$C$_$GT$5allow17h4031926fc054d9f8E+0x32>
   113cc:	4401                	li	s0,0
   113ce:	01248023          	sb	s2,0(s1)
   113d2:	a011                	j	113d6 <_ZN9allow_pin12dynamic_type23Buffer$LT$B$C$_$C$_$GT$5allow17h4031926fc054d9f8E+0x32>
   113d4:	458d                	li	a1,3
   113d6:	00008317          	auipc	t1,0x8
   113da:	23a30067          	jr	570(t1) # 19610 <OUTLINED_FUNCTION_22>

000113de <_ZN9allow_pin12dynamic_type23Buffer$LT$B$C$_$C$_$GT$5allow17h4a38eadd1fee01e0E>:
   113de:	00008297          	auipc	t0,0x8
   113e2:	21a282e7          	jalr	t0,538(t0) # 195f8 <OUTLINED_FUNCTION_21>
   113e6:	02b51463          	bne	a0,a1,1140e <_ZN9allow_pin12dynamic_type23Buffer$LT$B$C$_$C$_$GT$5allow17h4a38eadd1fee01e0E+0x30>
   113ea:	8932                	mv	s2,a2
   113ec:	00148613          	addi	a2,s1,1
   113f0:	6505                	lui	a0,0x1
   113f2:	6b050513          	addi	a0,a0,1712 # 16b0 <.Lline_table_start1+0x1485>
   113f6:	4581                	li	a1,0
   113f8:	874a                	mv	a4,s2
   113fa:	00000097          	auipc	ra,0x0
   113fe:	ef2080e7          	jalr	-270(ra) # 112ec <_ZN9allow_pin12dynamic_type11allow_inner17h0123a3b9d8c67b48E>
   11402:	8905                	andi	a0,a0,1
   11404:	e511                	bnez	a0,11410 <_ZN9allow_pin12dynamic_type23Buffer$LT$B$C$_$C$_$GT$5allow17h4a38eadd1fee01e0E+0x32>
   11406:	4401                	li	s0,0
   11408:	01248023          	sb	s2,0(s1)
   1140c:	a011                	j	11410 <_ZN9allow_pin12dynamic_type23Buffer$LT$B$C$_$C$_$GT$5allow17h4a38eadd1fee01e0E+0x32>
   1140e:	458d                	li	a1,3
   11410:	00008317          	auipc	t1,0x8
   11414:	20030067          	jr	512(t1) # 19610 <OUTLINED_FUNCTION_22>

00011418 <_ZN9allow_pin12dynamic_type23Buffer$LT$B$C$_$C$_$GT$5allow17h4c25bcceeb786d4dE>:
   11418:	00008297          	auipc	t0,0x8
   1141c:	1e0282e7          	jalr	t0,480(t0) # 195f8 <OUTLINED_FUNCTION_21>
   11420:	02b51463          	bne	a0,a1,11448 <_ZN9allow_pin12dynamic_type23Buffer$LT$B$C$_$C$_$GT$5allow17h4c25bcceeb786d4dE+0x30>
   11424:	8932                	mv	s2,a2
   11426:	00148613          	addi	a2,s1,1
   1142a:	6509                	lui	a0,0x2
   1142c:	d1950513          	addi	a0,a0,-743 # 1d19 <.Lline_table_start1+0x1aee>
   11430:	458d                	li	a1,3
   11432:	874a                	mv	a4,s2
   11434:	00000097          	auipc	ra,0x0
   11438:	eb8080e7          	jalr	-328(ra) # 112ec <_ZN9allow_pin12dynamic_type11allow_inner17h0123a3b9d8c67b48E>
   1143c:	8905                	andi	a0,a0,1
   1143e:	e511                	bnez	a0,1144a <_ZN9allow_pin12dynamic_type23Buffer$LT$B$C$_$C$_$GT$5allow17h4c25bcceeb786d4dE+0x32>
   11440:	4401                	li	s0,0
   11442:	01248023          	sb	s2,0(s1)
   11446:	a011                	j	1144a <_ZN9allow_pin12dynamic_type23Buffer$LT$B$C$_$C$_$GT$5allow17h4c25bcceeb786d4dE+0x32>
   11448:	458d                	li	a1,3
   1144a:	00008317          	auipc	t1,0x8
   1144e:	1c630067          	jr	454(t1) # 19610 <OUTLINED_FUNCTION_22>

00011452 <_ZN9allow_pin12dynamic_type23Buffer$LT$B$C$_$C$_$GT$5allow17haf0565a91a1cf8aeE>:
   11452:	00008297          	auipc	t0,0x8
   11456:	1a6282e7          	jalr	t0,422(t0) # 195f8 <OUTLINED_FUNCTION_21>
   1145a:	02b51463          	bne	a0,a1,11482 <_ZN9allow_pin12dynamic_type23Buffer$LT$B$C$_$C$_$GT$5allow17haf0565a91a1cf8aeE+0x30>
   1145e:	8932                	mv	s2,a2
   11460:	00148613          	addi	a2,s1,1
   11464:	6505                	lui	a0,0x1
   11466:	c8950513          	addi	a0,a0,-887 # c89 <.Lline_table_start1+0xa5e>
   1146a:	4589                	li	a1,2
   1146c:	874a                	mv	a4,s2
   1146e:	00000097          	auipc	ra,0x0
   11472:	e7e080e7          	jalr	-386(ra) # 112ec <_ZN9allow_pin12dynamic_type11allow_inner17h0123a3b9d8c67b48E>
   11476:	8905                	andi	a0,a0,1
   11478:	e511                	bnez	a0,11484 <_ZN9allow_pin12dynamic_type23Buffer$LT$B$C$_$C$_$GT$5allow17haf0565a91a1cf8aeE+0x32>
   1147a:	4401                	li	s0,0
   1147c:	01248023          	sb	s2,0(s1)
   11480:	a011                	j	11484 <_ZN9allow_pin12dynamic_type23Buffer$LT$B$C$_$C$_$GT$5allow17haf0565a91a1cf8aeE+0x32>
   11482:	458d                	li	a1,3
   11484:	00008317          	auipc	t1,0x8
   11488:	18c30067          	jr	396(t1) # 19610 <OUTLINED_FUNCTION_22>

0001148c <_ZN9allow_pin12dynamic_type23Buffer$LT$B$C$_$C$_$GT$5allow17hbcd4b227da7fe99fE>:
   1148c:	00008297          	auipc	t0,0x8
   11490:	16c282e7          	jalr	t0,364(t0) # 195f8 <OUTLINED_FUNCTION_21>
   11494:	02b51363          	bne	a0,a1,114ba <_ZN9allow_pin12dynamic_type23Buffer$LT$B$C$_$C$_$GT$5allow17hbcd4b227da7fe99fE+0x2e>
   11498:	8932                	mv	s2,a2
   1149a:	00148613          	addi	a2,s1,1
   1149e:	6509                	lui	a0,0x2
   114a0:	0519                	addi	a0,a0,6 # 2006 <.Lline_table_start1+0x1ddb>
   114a2:	45a5                	li	a1,9
   114a4:	874a                	mv	a4,s2
   114a6:	00000097          	auipc	ra,0x0
   114aa:	e46080e7          	jalr	-442(ra) # 112ec <_ZN9allow_pin12dynamic_type11allow_inner17h0123a3b9d8c67b48E>
   114ae:	8905                	andi	a0,a0,1
   114b0:	e511                	bnez	a0,114bc <_ZN9allow_pin12dynamic_type23Buffer$LT$B$C$_$C$_$GT$5allow17hbcd4b227da7fe99fE+0x30>
   114b2:	4401                	li	s0,0
   114b4:	01248023          	sb	s2,0(s1)
   114b8:	a011                	j	114bc <_ZN9allow_pin12dynamic_type23Buffer$LT$B$C$_$C$_$GT$5allow17hbcd4b227da7fe99fE+0x30>
   114ba:	458d                	li	a1,3
   114bc:	00008317          	auipc	t1,0x8
   114c0:	15430067          	jr	340(t1) # 19610 <OUTLINED_FUNCTION_22>

000114c4 <_ZN9allow_pin12dynamic_type23Buffer$LT$B$C$_$C$_$GT$5allow17hcb5376a51e920b20E>:
   114c4:	00008297          	auipc	t0,0x8
   114c8:	134282e7          	jalr	t0,308(t0) # 195f8 <OUTLINED_FUNCTION_21>
   114cc:	02b51463          	bne	a0,a1,114f4 <_ZN9allow_pin12dynamic_type23Buffer$LT$B$C$_$C$_$GT$5allow17hcb5376a51e920b20E+0x30>
   114d0:	8932                	mv	s2,a2
   114d2:	00148613          	addi	a2,s1,1
   114d6:	6509                	lui	a0,0x2
   114d8:	c6b50513          	addi	a0,a0,-917 # 1c6b <.Lline_table_start1+0x1a40>
   114dc:	4599                	li	a1,6
   114de:	874a                	mv	a4,s2
   114e0:	00000097          	auipc	ra,0x0
   114e4:	e0c080e7          	jalr	-500(ra) # 112ec <_ZN9allow_pin12dynamic_type11allow_inner17h0123a3b9d8c67b48E>
   114e8:	8905                	andi	a0,a0,1
   114ea:	e511                	bnez	a0,114f6 <_ZN9allow_pin12dynamic_type23Buffer$LT$B$C$_$C$_$GT$5allow17hcb5376a51e920b20E+0x32>
   114ec:	4401                	li	s0,0
   114ee:	01248023          	sb	s2,0(s1)
   114f2:	a011                	j	114f6 <_ZN9allow_pin12dynamic_type23Buffer$LT$B$C$_$C$_$GT$5allow17hcb5376a51e920b20E+0x32>
   114f4:	458d                	li	a1,3
   114f6:	00008317          	auipc	t1,0x8
   114fa:	11a30067          	jr	282(t1) # 19610 <OUTLINED_FUNCTION_22>

000114fe <_ZN9allow_pin12dynamic_type23Buffer$LT$B$C$_$C$_$GT$5allow17he52992a718527229E>:
   114fe:	00008297          	auipc	t0,0x8
   11502:	0fa282e7          	jalr	t0,250(t0) # 195f8 <OUTLINED_FUNCTION_21>
   11506:	02b51463          	bne	a0,a1,1152e <_ZN9allow_pin12dynamic_type23Buffer$LT$B$C$_$C$_$GT$5allow17he52992a718527229E+0x30>
   1150a:	8932                	mv	s2,a2
   1150c:	00148613          	addi	a2,s1,1
   11510:	6505                	lui	a0,0x1
   11512:	0e250513          	addi	a0,a0,226 # 10e2 <.Lline_table_start1+0xeb7>
   11516:	458d                	li	a1,3
   11518:	874a                	mv	a4,s2
   1151a:	00000097          	auipc	ra,0x0
   1151e:	dd2080e7          	jalr	-558(ra) # 112ec <_ZN9allow_pin12dynamic_type11allow_inner17h0123a3b9d8c67b48E>
   11522:	8905                	andi	a0,a0,1
   11524:	e511                	bnez	a0,11530 <_ZN9allow_pin12dynamic_type23Buffer$LT$B$C$_$C$_$GT$5allow17he52992a718527229E+0x32>
   11526:	4401                	li	s0,0
   11528:	01248023          	sb	s2,0(s1)
   1152c:	a011                	j	11530 <_ZN9allow_pin12dynamic_type23Buffer$LT$B$C$_$C$_$GT$5allow17he52992a718527229E+0x32>
   1152e:	458d                	li	a1,3
   11530:	00008317          	auipc	t1,0x8
   11534:	0e030067          	jr	224(t1) # 19610 <OUTLINED_FUNCTION_22>

00011538 <_ZN9allow_pin12dynamic_type23Buffer$LT$B$C$_$C$_$GT$7unallow17h004c0eb1339abef1E>:
   11538:	87aa                	mv	a5,a0
   1153a:	00054703          	lbu	a4,0(a0)
   1153e:	4809                	li	a6,2
   11540:	01070a63          	beq	a4,a6,11554 <_ZN9allow_pin12dynamic_type23Buffer$LT$B$C$_$C$_$GT$7unallow17h004c0eb1339abef1E+0x1c>
   11544:	6505                	lui	a0,0x1
   11546:	0e250513          	addi	a0,a0,226 # 10e2 <.Lline_table_start1+0xeb7>
   1154a:	458d                	li	a1,3
   1154c:	4601                	li	a2,0
   1154e:	4681                	li	a3,0
   11550:	00000073          	ecall
   11554:	00008317          	auipc	t1,0x8
   11558:	31830067          	jr	792(t1) # 1986c <OUTLINED_FUNCTION_48>

0001155c <_ZN9allow_pin12dynamic_type23Buffer$LT$B$C$_$C$_$GT$7unallow17h184144af6537db74E>:
   1155c:	87aa                	mv	a5,a0
   1155e:	00054703          	lbu	a4,0(a0)
   11562:	4809                	li	a6,2
   11564:	01070a63          	beq	a4,a6,11578 <_ZN9allow_pin12dynamic_type23Buffer$LT$B$C$_$C$_$GT$7unallow17h184144af6537db74E+0x1c>
   11568:	6505                	lui	a0,0x1
   1156a:	6b050513          	addi	a0,a0,1712 # 16b0 <.Lline_table_start1+0x1485>
   1156e:	4581                	li	a1,0
   11570:	4601                	li	a2,0
   11572:	4681                	li	a3,0
   11574:	00000073          	ecall
   11578:	00008317          	auipc	t1,0x8
   1157c:	2f430067          	jr	756(t1) # 1986c <OUTLINED_FUNCTION_48>

00011580 <_ZN9allow_pin12dynamic_type23Buffer$LT$B$C$_$C$_$GT$7unallow17h2a88d12a30fe1850E>:
   11580:	87aa                	mv	a5,a0
   11582:	00054703          	lbu	a4,0(a0)
   11586:	4809                	li	a6,2
   11588:	01070963          	beq	a4,a6,1159a <_ZN9allow_pin12dynamic_type23Buffer$LT$B$C$_$C$_$GT$7unallow17h2a88d12a30fe1850E+0x1a>
   1158c:	6509                	lui	a0,0x2
   1158e:	0519                	addi	a0,a0,6 # 2006 <.Lline_table_start1+0x1ddb>
   11590:	45a5                	li	a1,9
   11592:	4601                	li	a2,0
   11594:	4681                	li	a3,0
   11596:	00000073          	ecall
   1159a:	00008317          	auipc	t1,0x8
   1159e:	2d230067          	jr	722(t1) # 1986c <OUTLINED_FUNCTION_48>

000115a2 <_ZN9allow_pin12dynamic_type23Buffer$LT$B$C$_$C$_$GT$7unallow17h39523eacccb2eadcE>:
   115a2:	87aa                	mv	a5,a0
   115a4:	00054703          	lbu	a4,0(a0)
   115a8:	4809                	li	a6,2
   115aa:	01070a63          	beq	a4,a6,115be <_ZN9allow_pin12dynamic_type23Buffer$LT$B$C$_$C$_$GT$7unallow17h39523eacccb2eadcE+0x1c>
   115ae:	6505                	lui	a0,0x1
   115b0:	a9d50513          	addi	a0,a0,-1379 # a9d <.Lline_table_start1+0x872>
   115b4:	45a5                	li	a1,9
   115b6:	4601                	li	a2,0
   115b8:	4681                	li	a3,0
   115ba:	00000073          	ecall
   115be:	00008317          	auipc	t1,0x8
   115c2:	2ae30067          	jr	686(t1) # 1986c <OUTLINED_FUNCTION_48>

000115c6 <_ZN9allow_pin12dynamic_type23Buffer$LT$B$C$_$C$_$GT$7unallow17h5f7482dd87f86bceE>:
   115c6:	87aa                	mv	a5,a0
   115c8:	00054703          	lbu	a4,0(a0)
   115cc:	4809                	li	a6,2
   115ce:	01070a63          	beq	a4,a6,115e2 <_ZN9allow_pin12dynamic_type23Buffer$LT$B$C$_$C$_$GT$7unallow17h5f7482dd87f86bceE+0x1c>
   115d2:	6505                	lui	a0,0x1
   115d4:	c8950513          	addi	a0,a0,-887 # c89 <.Lline_table_start1+0xa5e>
   115d8:	4589                	li	a1,2
   115da:	4601                	li	a2,0
   115dc:	4681                	li	a3,0
   115de:	00000073          	ecall
   115e2:	00008317          	auipc	t1,0x8
   115e6:	28a30067          	jr	650(t1) # 1986c <OUTLINED_FUNCTION_48>

000115ea <_ZN9allow_pin12dynamic_type23Buffer$LT$B$C$_$C$_$GT$7unallow17h72282c4967f0efdfE>:
   115ea:	87aa                	mv	a5,a0
   115ec:	00054703          	lbu	a4,0(a0)
   115f0:	4809                	li	a6,2
   115f2:	01070a63          	beq	a4,a6,11606 <_ZN9allow_pin12dynamic_type23Buffer$LT$B$C$_$C$_$GT$7unallow17h72282c4967f0efdfE+0x1c>
   115f6:	6509                	lui	a0,0x2
   115f8:	c6b50513          	addi	a0,a0,-917 # 1c6b <.Lline_table_start1+0x1a40>
   115fc:	4599                	li	a1,6
   115fe:	4601                	li	a2,0
   11600:	4681                	li	a3,0
   11602:	00000073          	ecall
   11606:	00008317          	auipc	t1,0x8
   1160a:	26630067          	jr	614(t1) # 1986c <OUTLINED_FUNCTION_48>

0001160e <_ZN9allow_pin12dynamic_type23Buffer$LT$B$C$_$C$_$GT$7unallow17h73d48311e15db622E>:
   1160e:	87aa                	mv	a5,a0
   11610:	00054703          	lbu	a4,0(a0)
   11614:	4809                	li	a6,2
   11616:	01070a63          	beq	a4,a6,1162a <_ZN9allow_pin12dynamic_type23Buffer$LT$B$C$_$C$_$GT$7unallow17h73d48311e15db622E+0x1c>
   1161a:	6509                	lui	a0,0x2
   1161c:	09550513          	addi	a0,a0,149 # 2095 <.Lline_table_start1+0x1e6a>
   11620:	45a1                	li	a1,8
   11622:	4601                	li	a2,0
   11624:	4681                	li	a3,0
   11626:	00000073          	ecall
   1162a:	00008317          	auipc	t1,0x8
   1162e:	24230067          	jr	578(t1) # 1986c <OUTLINED_FUNCTION_48>

00011632 <_ZN9allow_pin12dynamic_type23Buffer$LT$B$C$_$C$_$GT$7unallow17hd74e3cd4c632fd0dE>:
   11632:	87aa                	mv	a5,a0
   11634:	00054703          	lbu	a4,0(a0)
   11638:	4809                	li	a6,2
   1163a:	01070963          	beq	a4,a6,1164c <_ZN9allow_pin12dynamic_type23Buffer$LT$B$C$_$C$_$GT$7unallow17hd74e3cd4c632fd0dE+0x1a>
   1163e:	55e00513          	li	a0,1374
   11642:	45a5                	li	a1,9
   11644:	4601                	li	a2,0
   11646:	4681                	li	a3,0
   11648:	00000073          	ecall
   1164c:	00008317          	auipc	t1,0x8
   11650:	22030067          	jr	544(t1) # 1986c <OUTLINED_FUNCTION_48>

00011654 <_ZN9allow_pin12dynamic_type23Buffer$LT$B$C$_$C$_$GT$7unallow17hd9110e20ea887c65E>:
   11654:	87aa                	mv	a5,a0
   11656:	00054703          	lbu	a4,0(a0)
   1165a:	4809                	li	a6,2
   1165c:	01070a63          	beq	a4,a6,11670 <_ZN9allow_pin12dynamic_type23Buffer$LT$B$C$_$C$_$GT$7unallow17hd9110e20ea887c65E+0x1c>
   11660:	6509                	lui	a0,0x2
   11662:	d1950513          	addi	a0,a0,-743 # 1d19 <.Lline_table_start1+0x1aee>
   11666:	458d                	li	a1,3
   11668:	4601                	li	a2,0
   1166a:	4681                	li	a3,0
   1166c:	00000073          	ecall
   11670:	00008317          	auipc	t1,0x8
   11674:	1fc30067          	jr	508(t1) # 1986c <OUTLINED_FUNCTION_48>

00011678 <_ZN9allow_pin12dynamic_type23Buffer$LT$B$C$_$C$_$GT$7unallow17hdb5e7205b953f800E>:
   11678:	87aa                	mv	a5,a0
   1167a:	00054703          	lbu	a4,0(a0)
   1167e:	4809                	li	a6,2
   11680:	01070a63          	beq	a4,a6,11694 <_ZN9allow_pin12dynamic_type23Buffer$LT$B$C$_$C$_$GT$7unallow17hdb5e7205b953f800E+0x1c>
   11684:	6509                	lui	a0,0x2
   11686:	54850513          	addi	a0,a0,1352 # 2548 <.Lline_table_start1+0x231d>
   1168a:	458d                	li	a1,3
   1168c:	4601                	li	a2,0
   1168e:	4681                	li	a3,0
   11690:	00000073          	ecall
   11694:	00008317          	auipc	t1,0x8
   11698:	1d830067          	jr	472(t1) # 1986c <OUTLINED_FUNCTION_48>

0001169c <_ZN9allow_pin7command17h1eb46760111c3605E>:
   1169c:	4709                	li	a4,2
   1169e:	4681                	li	a3,0
   116a0:	00000073          	ecall
   116a4:	08053513          	sltiu	a0,a0,128
   116a8:	8082                	ret

000116aa <_start>:
   116aa:	a1010113          	addi	sp,sp,-1520
   116ae:	58010513          	addi	a0,sp,1408
   116b2:	06152623          	sw	ra,108(a0)
   116b6:	d520                	sw	s0,104(a0)
   116b8:	d164                	sw	s1,100(a0)
   116ba:	07252023          	sw	s2,96(a0)
   116be:	05352e23          	sw	s3,92(a0)
   116c2:	05452c23          	sw	s4,88(a0)
   116c6:	05552a23          	sw	s5,84(a0)
   116ca:	05652823          	sw	s6,80(a0)
   116ce:	51d10513          	addi	a0,sp,1309
   116d2:	02800613          	li	a2,40
   116d6:	4581                	li	a1,0
   116d8:	00008097          	auipc	ra,0x8
   116dc:	236080e7          	jalr	566(ra) # 1990e <memset>
   116e0:	4489                	li	s1,2
   116e2:	50910e23          	sb	s1,1308(sp)
   116e6:	56d10413          	addi	s0,sp,1389
   116ea:	05100613          	li	a2,81
   116ee:	8522                	mv	a0,s0
   116f0:	4581                	li	a1,0
   116f2:	00008097          	auipc	ra,0x8
   116f6:	21c080e7          	jalr	540(ra) # 1990e <memset>
   116fa:	56910623          	sb	s1,1388(sp)
   116fe:	51c10513          	addi	a0,sp,1308
   11702:	02800593          	li	a1,40
   11706:	4611                	li	a2,4
   11708:	00000097          	auipc	ra,0x0
   1170c:	d84080e7          	jalr	-636(ra) # 1148c <_ZN9allow_pin12dynamic_type23Buffer$LT$B$C$_$C$_$GT$5allow17hbcd4b227da7fe99fE>
   11710:	8905                	andi	a0,a0,1
   11712:	e51d                	bnez	a0,11740 <_start+0x96>
   11714:	56c10513          	addi	a0,sp,1388
   11718:	05100593          	li	a1,81
   1171c:	460d                	li	a2,3
   1171e:	00000097          	auipc	ra,0x0
   11722:	d6e080e7          	jalr	-658(ra) # 1148c <_ZN9allow_pin12dynamic_type23Buffer$LT$B$C$_$C$_$GT$5allow17hbcd4b227da7fe99fE>
   11726:	8905                	andi	a0,a0,1
   11728:	ed01                	bnez	a0,11740 <_start+0x96>
   1172a:	6509                	lui	a0,0x2
   1172c:	45a5                	li	a1,9
   1172e:	0519                	addi	a0,a0,6 # 2006 <.Lline_table_start1+0x1ddb>
   11730:	4625                	li	a2,9
   11732:	00000097          	auipc	ra,0x0
   11736:	f6a080e7          	jalr	-150(ra) # 1169c <_ZN9allow_pin7command17h1eb46760111c3605E>
   1173a:	8905                	andi	a0,a0,1
   1173c:	360503e3          	beqz	a0,122a2 <_start+0xbf8>
   11740:	8b2e                	mv	s6,a1
   11742:	56c14483          	lbu	s1,1388(sp)
   11746:	4785                	li	a5,1
   11748:	4409                	li	s0,2
   1174a:	00848a63          	beq	s1,s0,1175e <_start+0xb4>
   1174e:	6509                	lui	a0,0x2
   11750:	0519                	addi	a0,a0,6 # 2006 <.Lline_table_start1+0x1ddb>
   11752:	45a5                	li	a1,9
   11754:	4601                	li	a2,0
   11756:	4681                	li	a3,0
   11758:	8726                	mv	a4,s1
   1175a:	00000073          	ecall
   1175e:	51c14703          	lbu	a4,1308(sp)
   11762:	00870963          	beq	a4,s0,11774 <_start+0xca>
   11766:	6509                	lui	a0,0x2
   11768:	0519                	addi	a0,a0,6 # 2006 <.Lline_table_start1+0x1ddb>
   1176a:	45a5                	li	a1,9
   1176c:	4601                	li	a2,0
   1176e:	4681                	li	a3,0
   11770:	00000073          	ecall
   11774:	c399                	beqz	a5,1177a <_start+0xd0>
   11776:	1bb0706f          	j	19130 <_start+0x7a86>
   1177a:	00008297          	auipc	t0,0x8
   1177e:	d54282e7          	jalr	t0,-684(t0) # 194ce <OUTLINED_FUNCTION_12>
   11782:	04a00613          	li	a2,74
   11786:	00008097          	auipc	ra,0x8
   1178a:	1f4080e7          	jalr	500(ra) # 1997a <memcpy>
   1178e:	00008297          	auipc	t0,0x8
   11792:	142282e7          	jalr	t0,322(t0) # 198d0 <OUTLINED_FUNCTION_56>
   11796:	00008097          	auipc	ra,0x8
   1179a:	1e4080e7          	jalr	484(ra) # 1997a <memcpy>
   1179e:	00008297          	auipc	t0,0x8
   117a2:	ce8282e7          	jalr	t0,-792(t0) # 19486 <OUTLINED_FUNCTION_10>
   117a6:	46510993          	addi	s3,sp,1125
   117aa:	04600613          	li	a2,70
   117ae:	854e                	mv	a0,s3
   117b0:	4581                	li	a1,0
   117b2:	00008097          	auipc	ra,0x8
   117b6:	15c080e7          	jalr	348(ra) # 1990e <memset>
   117ba:	8622                	mv	a2,s0
   117bc:	46910223          	sb	s1,1124(sp)
   117c0:	6509                	lui	a0,0x2
   117c2:	4411                	li	s0,4
   117c4:	459d                	li	a1,7
   117c6:	0c450793          	addi	a5,a0,196 # 20c4 <.Lline_table_start1+0x1e99>
   117ca:	05100693          	li	a3,81
   117ce:	4711                	li	a4,4
   117d0:	853e                	mv	a0,a5
   117d2:	00000073          	ecall
   117d6:	02950d63          	beq	a0,s1,11810 <_start+0x166>
   117da:	853e                	mv	a0,a5
   117dc:	4581                	li	a1,0
   117de:	864e                	mv	a2,s3
   117e0:	56810623          	sb	s0,1388(sp)
   117e4:	478d                	li	a5,3
   117e6:	04600693          	li	a3,70
   117ea:	470d                	li	a4,3
   117ec:	00000073          	ecall
   117f0:	02950063          	beq	a0,s1,11810 <_start+0x166>
   117f4:	46f10223          	sb	a5,1124(sp)
   117f8:	6509                	lui	a0,0x2
   117fa:	0c450513          	addi	a0,a0,196 # 20c4 <.Lline_table_start1+0x1e99>
   117fe:	459d                	li	a1,7
   11800:	4601                	li	a2,0
   11802:	00000097          	auipc	ra,0x0
   11806:	e9a080e7          	jalr	-358(ra) # 1169c <_ZN9allow_pin7command17h1eb46760111c3605E>
   1180a:	8905                	andi	a0,a0,1
   1180c:	2e0506e3          	beqz	a0,122f8 <_start+0xc4e>
   11810:	8b2e                	mv	s6,a1
   11812:	4785                	li	a5,1
   11814:	46414703          	lbu	a4,1124(sp)
   11818:	4489                	li	s1,2
   1181a:	00970a63          	beq	a4,s1,1182e <_start+0x184>
   1181e:	6509                	lui	a0,0x2
   11820:	0c450513          	addi	a0,a0,196 # 20c4 <.Lline_table_start1+0x1e99>
   11824:	4581                	li	a1,0
   11826:	4601                	li	a2,0
   11828:	4681                	li	a3,0
   1182a:	00000073          	ecall
   1182e:	56c14703          	lbu	a4,1388(sp)
   11832:	00970a63          	beq	a4,s1,11846 <_start+0x19c>
   11836:	6509                	lui	a0,0x2
   11838:	0c450513          	addi	a0,a0,196 # 20c4 <.Lline_table_start1+0x1e99>
   1183c:	459d                	li	a1,7
   1183e:	4601                	li	a2,0
   11840:	4681                	li	a3,0
   11842:	00000073          	ecall
   11846:	c399                	beqz	a5,1184c <_start+0x1a2>
   11848:	0e90706f          	j	19130 <_start+0x7a86>
   1184c:	00008297          	auipc	t0,0x8
   11850:	d04282e7          	jalr	t0,-764(t0) # 19550 <OUTLINED_FUNCTION_16>
   11854:	03f00613          	li	a2,63
   11858:	00008097          	auipc	ra,0x8
   1185c:	122080e7          	jalr	290(ra) # 1997a <memcpy>
   11860:	57410513          	addi	a0,sp,1396
   11864:	048c                	addi	a1,sp,576
   11866:	03f00613          	li	a2,63
   1186a:	00008097          	auipc	ra,0x8
   1186e:	110080e7          	jalr	272(ra) # 1997a <memcpy>
   11872:	00008297          	auipc	t0,0x8
   11876:	bf0282e7          	jalr	t0,-1040(t0) # 19462 <OUTLINED_FUNCTION_9>
   1187a:	4661                	li	a2,24
   1187c:	854e                	mv	a0,s3
   1187e:	4581                	li	a1,0
   11880:	00008097          	auipc	ra,0x8
   11884:	08e080e7          	jalr	142(ra) # 1990e <memset>
   11888:	864a                	mv	a2,s2
   1188a:	46810223          	sb	s0,1124(sp)
   1188e:	6509                	lui	a0,0x2
   11890:	4491                	li	s1,4
   11892:	458d                	li	a1,3
   11894:	3cf50793          	addi	a5,a0,975 # 23cf <.Lline_table_start1+0x21a4>
   11898:	04600693          	li	a3,70
   1189c:	4711                	li	a4,4
   1189e:	853e                	mv	a0,a5
   118a0:	00000073          	ecall
   118a4:	02850c63          	beq	a0,s0,118dc <_start+0x232>
   118a8:	00008297          	auipc	t0,0x8
   118ac:	042282e7          	jalr	t0,66(t0) # 198ea <OUTLINED_FUNCTION_58>
   118b0:	4589                	li	a1,2
   118b2:	46e1                	li	a3,24
   118b4:	470d                	li	a4,3
   118b6:	00000073          	ecall
   118ba:	02850163          	beq	a0,s0,118dc <_start+0x232>
   118be:	46f10223          	sb	a5,1124(sp)
   118c2:	6509                	lui	a0,0x2
   118c4:	458d                	li	a1,3
   118c6:	3cf50513          	addi	a0,a0,975 # 23cf <.Lline_table_start1+0x21a4>
   118ca:	4609                	li	a2,2
   118cc:	4409                	li	s0,2
   118ce:	00000097          	auipc	ra,0x0
   118d2:	dce080e7          	jalr	-562(ra) # 1169c <_ZN9allow_pin7command17h1eb46760111c3605E>
   118d6:	8905                	andi	a0,a0,1
   118d8:	240505e3          	beqz	a0,12322 <_start+0xc78>
   118dc:	8b2e                	mv	s6,a1
   118de:	4785                	li	a5,1
   118e0:	46414703          	lbu	a4,1124(sp)
   118e4:	4489                	li	s1,2
   118e6:	00970a63          	beq	a4,s1,118fa <_start+0x250>
   118ea:	6509                	lui	a0,0x2
   118ec:	3cf50513          	addi	a0,a0,975 # 23cf <.Lline_table_start1+0x21a4>
   118f0:	4589                	li	a1,2
   118f2:	4601                	li	a2,0
   118f4:	4681                	li	a3,0
   118f6:	00000073          	ecall
   118fa:	56c14703          	lbu	a4,1388(sp)
   118fe:	00970a63          	beq	a4,s1,11912 <_start+0x268>
   11902:	6509                	lui	a0,0x2
   11904:	3cf50513          	addi	a0,a0,975 # 23cf <.Lline_table_start1+0x21a4>
   11908:	458d                	li	a1,3
   1190a:	4601                	li	a2,0
   1190c:	4681                	li	a3,0
   1190e:	00000073          	ecall
   11912:	c399                	beqz	a5,11918 <_start+0x26e>
   11914:	01d0706f          	j	19130 <_start+0x7a86>
   11918:	00008297          	auipc	t0,0x8
   1191c:	bda282e7          	jalr	t0,-1062(t0) # 194f2 <OUTLINED_FUNCTION_13>
   11920:	4645                	li	a2,17
   11922:	00008097          	auipc	ra,0x8
   11926:	058080e7          	jalr	88(ra) # 1997a <memcpy>
   1192a:	52410513          	addi	a0,sp,1316
   1192e:	048c                	addi	a1,sp,576
   11930:	4645                	li	a2,17
   11932:	00008097          	auipc	ra,0x8
   11936:	048080e7          	jalr	72(ra) # 1997a <memcpy>
   1193a:	00008297          	auipc	t0,0x8
   1193e:	b70282e7          	jalr	t0,-1168(t0) # 194aa <OUTLINED_FUNCTION_11>
   11942:	03600613          	li	a2,54
   11946:	854a                	mv	a0,s2
   11948:	4581                	li	a1,0
   1194a:	00008097          	auipc	ra,0x8
   1194e:	fc4080e7          	jalr	-60(ra) # 1990e <memset>
   11952:	4581                	li	a1,0
   11954:	8622                	mv	a2,s0
   11956:	56910623          	sb	s1,1388(sp)
   1195a:	4791                	li	a5,4
   1195c:	21f00513          	li	a0,543
   11960:	46e1                	li	a3,24
   11962:	4711                	li	a4,4
   11964:	00000073          	ecall
   11968:	02950d63          	beq	a0,s1,119a2 <_start+0x2f8>
   1196c:	864a                	mv	a2,s2
   1196e:	50f10e23          	sb	a5,1308(sp)
   11972:	478d                	li	a5,3
   11974:	21f00513          	li	a0,543
   11978:	459d                	li	a1,7
   1197a:	03600693          	li	a3,54
   1197e:	470d                	li	a4,3
   11980:	00000073          	ecall
   11984:	00950f63          	beq	a0,s1,119a2 <_start+0x2f8>
   11988:	56f10623          	sb	a5,1388(sp)
   1198c:	21f00513          	li	a0,543
   11990:	461d                	li	a2,7
   11992:	4581                	li	a1,0
   11994:	00000097          	auipc	ra,0x0
   11998:	d08080e7          	jalr	-760(ra) # 1169c <_ZN9allow_pin7command17h1eb46760111c3605E>
   1199c:	8905                	andi	a0,a0,1
   1199e:	1c050fe3          	beqz	a0,1237c <_start+0xcd2>
   119a2:	8b2e                	mv	s6,a1
   119a4:	4785                	li	a5,1
   119a6:	56c14703          	lbu	a4,1388(sp)
   119aa:	4489                	li	s1,2
   119ac:	00970963          	beq	a4,s1,119be <_start+0x314>
   119b0:	21f00513          	li	a0,543
   119b4:	459d                	li	a1,7
   119b6:	4601                	li	a2,0
   119b8:	4681                	li	a3,0
   119ba:	00000073          	ecall
   119be:	51c14703          	lbu	a4,1308(sp)
   119c2:	00970963          	beq	a4,s1,119d4 <_start+0x32a>
   119c6:	21f00513          	li	a0,543
   119ca:	4581                	li	a1,0
   119cc:	4601                	li	a2,0
   119ce:	4681                	li	a3,0
   119d0:	00000073          	ecall
   119d4:	c399                	beqz	a5,119da <_start+0x330>
   119d6:	75a0706f          	j	19130 <_start+0x7a86>
   119da:	00008297          	auipc	t0,0x8
   119de:	af4282e7          	jalr	t0,-1292(t0) # 194ce <OUTLINED_FUNCTION_12>
   119e2:	02f00613          	li	a2,47
   119e6:	00008097          	auipc	ra,0x8
   119ea:	f94080e7          	jalr	-108(ra) # 1997a <memcpy>
   119ee:	57410513          	addi	a0,sp,1396
   119f2:	46410593          	addi	a1,sp,1124
   119f6:	02f00613          	li	a2,47
   119fa:	00008097          	auipc	ra,0x8
   119fe:	f80080e7          	jalr	-128(ra) # 1997a <memcpy>
   11a02:	00008297          	auipc	t0,0x8
   11a06:	a84282e7          	jalr	t0,-1404(t0) # 19486 <OUTLINED_FUNCTION_10>
   11a0a:	02500613          	li	a2,37
   11a0e:	854e                	mv	a0,s3
   11a10:	4581                	li	a1,0
   11a12:	00008097          	auipc	ra,0x8
   11a16:	efc080e7          	jalr	-260(ra) # 1990e <memset>
   11a1a:	00008297          	auipc	t0,0x8
   11a1e:	e8a282e7          	jalr	t0,-374(t0) # 198a4 <OUTLINED_FUNCTION_53>
   11a22:	459d                	li	a1,7
   11a24:	59750793          	addi	a5,a0,1431
   11a28:	03600693          	li	a3,54
   11a2c:	4711                	li	a4,4
   11a2e:	853e                	mv	a0,a5
   11a30:	00000073          	ecall
   11a34:	02950d63          	beq	a0,s1,11a6e <_start+0x3c4>
   11a38:	853e                	mv	a0,a5
   11a3a:	4581                	li	a1,0
   11a3c:	864e                	mv	a2,s3
   11a3e:	56810623          	sb	s0,1388(sp)
   11a42:	478d                	li	a5,3
   11a44:	02500693          	li	a3,37
   11a48:	470d                	li	a4,3
   11a4a:	00000073          	ecall
   11a4e:	02950063          	beq	a0,s1,11a6e <_start+0x3c4>
   11a52:	46f10223          	sb	a5,1124(sp)
   11a56:	6505                	lui	a0,0x1
   11a58:	59750513          	addi	a0,a0,1431 # 1597 <.Lline_table_start1+0x136c>
   11a5c:	459d                	li	a1,7
   11a5e:	4601                	li	a2,0
   11a60:	00000097          	auipc	ra,0x0
   11a64:	c3c080e7          	jalr	-964(ra) # 1169c <_ZN9allow_pin7command17h1eb46760111c3605E>
   11a68:	8905                	andi	a0,a0,1
   11a6a:	160506e3          	beqz	a0,123d6 <_start+0xd2c>
   11a6e:	8b2e                	mv	s6,a1
   11a70:	4785                	li	a5,1
   11a72:	46414703          	lbu	a4,1124(sp)
   11a76:	4489                	li	s1,2
   11a78:	00970a63          	beq	a4,s1,11a8c <_start+0x3e2>
   11a7c:	6505                	lui	a0,0x1
   11a7e:	59750513          	addi	a0,a0,1431 # 1597 <.Lline_table_start1+0x136c>
   11a82:	4581                	li	a1,0
   11a84:	4601                	li	a2,0
   11a86:	4681                	li	a3,0
   11a88:	00000073          	ecall
   11a8c:	56c14703          	lbu	a4,1388(sp)
   11a90:	00970a63          	beq	a4,s1,11aa4 <_start+0x3fa>
   11a94:	6505                	lui	a0,0x1
   11a96:	59750513          	addi	a0,a0,1431 # 1597 <.Lline_table_start1+0x136c>
   11a9a:	459d                	li	a1,7
   11a9c:	4601                	li	a2,0
   11a9e:	4681                	li	a3,0
   11aa0:	00000073          	ecall
   11aa4:	c399                	beqz	a5,11aaa <_start+0x400>
   11aa6:	68a0706f          	j	19130 <_start+0x7a86>
   11aaa:	00008297          	auipc	t0,0x8
   11aae:	aa6282e7          	jalr	t0,-1370(t0) # 19550 <OUTLINED_FUNCTION_16>
   11ab2:	4679                	li	a2,30
   11ab4:	00008097          	auipc	ra,0x8
   11ab8:	ec6080e7          	jalr	-314(ra) # 1997a <memcpy>
   11abc:	57410513          	addi	a0,sp,1396
   11ac0:	048c                	addi	a1,sp,576
   11ac2:	4679                	li	a2,30
   11ac4:	00008097          	auipc	ra,0x8
   11ac8:	eb6080e7          	jalr	-330(ra) # 1997a <memcpy>
   11acc:	00008297          	auipc	t0,0x8
   11ad0:	996282e7          	jalr	t0,-1642(t0) # 19462 <OUTLINED_FUNCTION_9>
   11ad4:	4639                	li	a2,14
   11ad6:	854e                	mv	a0,s3
   11ad8:	4581                	li	a1,0
   11ada:	00008097          	auipc	ra,0x8
   11ade:	e34080e7          	jalr	-460(ra) # 1990e <memset>
   11ae2:	864a                	mv	a2,s2
   11ae4:	46810223          	sb	s0,1124(sp)
   11ae8:	4791                	li	a5,4
   11aea:	66700513          	li	a0,1639
   11aee:	4589                	li	a1,2
   11af0:	02500693          	li	a3,37
   11af4:	4711                	li	a4,4
   11af6:	00000073          	ecall
   11afa:	02850d63          	beq	a0,s0,11b34 <_start+0x48a>
   11afe:	864e                	mv	a2,s3
   11b00:	56f10623          	sb	a5,1388(sp)
   11b04:	478d                	li	a5,3
   11b06:	66700513          	li	a0,1639
   11b0a:	45a1                	li	a1,8
   11b0c:	46b9                	li	a3,14
   11b0e:	470d                	li	a4,3
   11b10:	00000073          	ecall
   11b14:	02850063          	beq	a0,s0,11b34 <_start+0x48a>
   11b18:	46f10223          	sb	a5,1124(sp)
   11b1c:	66700513          	li	a0,1639
   11b20:	4589                	li	a1,2
   11b22:	4621                	li	a2,8
   11b24:	4409                	li	s0,2
   11b26:	00000097          	auipc	ra,0x0
   11b2a:	b76080e7          	jalr	-1162(ra) # 1169c <_ZN9allow_pin7command17h1eb46760111c3605E>
   11b2e:	8905                	andi	a0,a0,1
   11b30:	0e050fe3          	beqz	a0,1242e <_start+0xd84>
   11b34:	8b2e                	mv	s6,a1
   11b36:	4785                	li	a5,1
   11b38:	46414703          	lbu	a4,1124(sp)
   11b3c:	4489                	li	s1,2
   11b3e:	00970963          	beq	a4,s1,11b50 <_start+0x4a6>
   11b42:	66700513          	li	a0,1639
   11b46:	45a1                	li	a1,8
   11b48:	4601                	li	a2,0
   11b4a:	4681                	li	a3,0
   11b4c:	00000073          	ecall
   11b50:	56c14703          	lbu	a4,1388(sp)
   11b54:	00970963          	beq	a4,s1,11b66 <_start+0x4bc>
   11b58:	66700513          	li	a0,1639
   11b5c:	4589                	li	a1,2
   11b5e:	4601                	li	a2,0
   11b60:	4681                	li	a3,0
   11b62:	00000073          	ecall
   11b66:	c399                	beqz	a5,11b6c <_start+0x4c2>
   11b68:	5c80706f          	j	19130 <_start+0x7a86>
   11b6c:	00008297          	auipc	t0,0x8
   11b70:	c60282e7          	jalr	t0,-928(t0) # 197cc <OUTLINED_FUNCTION_40>
   11b74:	2e812683          	lw	a3,744(sp)
   11b78:	2ec11703          	lh	a4,748(sp)
   11b7c:	2ee14783          	lbu	a5,750(sp)
   11b80:	00008297          	auipc	t0,0x8
   11b84:	c5a282e7          	jalr	t0,-934(t0) # 197da <OUTLINED_FUNCTION_41>
   11b88:	51d10413          	addi	s0,sp,1309
   11b8c:	24d12023          	sw	a3,576(sp)
   11b90:	24e11223          	sh	a4,580(sp)
   11b94:	24f10323          	sb	a5,582(sp)
   11b98:	52410513          	addi	a0,sp,1316
   11b9c:	048c                	addi	a1,sp,576
   11b9e:	461d                	li	a2,7
   11ba0:	00008097          	auipc	ra,0x8
   11ba4:	dda080e7          	jalr	-550(ra) # 1997a <memcpy>
   11ba8:	00008297          	auipc	t0,0x8
   11bac:	902282e7          	jalr	t0,-1790(t0) # 194aa <OUTLINED_FUNCTION_11>
   11bb0:	04800613          	li	a2,72
   11bb4:	854a                	mv	a0,s2
   11bb6:	4581                	li	a1,0
   11bb8:	00008097          	auipc	ra,0x8
   11bbc:	d56080e7          	jalr	-682(ra) # 1990e <memset>
   11bc0:	00008297          	auipc	t0,0x8
   11bc4:	cc0282e7          	jalr	t0,-832(t0) # 19880 <OUTLINED_FUNCTION_50>
   11bc8:	458d                	li	a1,3
   11bca:	2d150793          	addi	a5,a0,721
   11bce:	46b9                	li	a3,14
   11bd0:	4711                	li	a4,4
   11bd2:	853e                	mv	a0,a5
   11bd4:	00000073          	ecall
   11bd8:	02950d63          	beq	a0,s1,11c12 <_start+0x568>
   11bdc:	853e                	mv	a0,a5
   11bde:	864a                	mv	a2,s2
   11be0:	50810e23          	sb	s0,1308(sp)
   11be4:	478d                	li	a5,3
   11be6:	45a1                	li	a1,8
   11be8:	04800693          	li	a3,72
   11bec:	470d                	li	a4,3
   11bee:	00000073          	ecall
   11bf2:	02950063          	beq	a0,s1,11c12 <_start+0x568>
   11bf6:	56f10623          	sb	a5,1388(sp)
   11bfa:	6505                	lui	a0,0x1
   11bfc:	458d                	li	a1,3
   11bfe:	2d150513          	addi	a0,a0,721 # 12d1 <.Lline_table_start1+0x10a6>
   11c02:	4621                	li	a2,8
   11c04:	00000097          	auipc	ra,0x0
   11c08:	a98080e7          	jalr	-1384(ra) # 1169c <_ZN9allow_pin7command17h1eb46760111c3605E>
   11c0c:	8905                	andi	a0,a0,1
   11c0e:	06050ce3          	beqz	a0,12486 <_start+0xddc>
   11c12:	8b2e                	mv	s6,a1
   11c14:	4785                	li	a5,1
   11c16:	56c14703          	lbu	a4,1388(sp)
   11c1a:	4489                	li	s1,2
   11c1c:	00970a63          	beq	a4,s1,11c30 <_start+0x586>
   11c20:	6505                	lui	a0,0x1
   11c22:	2d150513          	addi	a0,a0,721 # 12d1 <.Lline_table_start1+0x10a6>
   11c26:	45a1                	li	a1,8
   11c28:	4601                	li	a2,0
   11c2a:	4681                	li	a3,0
   11c2c:	00000073          	ecall
   11c30:	51c14703          	lbu	a4,1308(sp)
   11c34:	00970a63          	beq	a4,s1,11c48 <_start+0x59e>
   11c38:	6505                	lui	a0,0x1
   11c3a:	2d150513          	addi	a0,a0,721 # 12d1 <.Lline_table_start1+0x10a6>
   11c3e:	458d                	li	a1,3
   11c40:	4601                	li	a2,0
   11c42:	4681                	li	a3,0
   11c44:	00000073          	ecall
   11c48:	c399                	beqz	a5,11c4e <_start+0x5a4>
   11c4a:	4e60706f          	j	19130 <_start+0x7a86>
   11c4e:	00008297          	auipc	t0,0x8
   11c52:	94a282e7          	jalr	t0,-1718(t0) # 19598 <OUTLINED_FUNCTION_18>
   11c56:	46410513          	addi	a0,sp,1124
   11c5a:	048c                	addi	a1,sp,576
   11c5c:	04100613          	li	a2,65
   11c60:	00008097          	auipc	ra,0x8
   11c64:	d1a080e7          	jalr	-742(ra) # 1997a <memcpy>
   11c68:	57410513          	addi	a0,sp,1396
   11c6c:	46410593          	addi	a1,sp,1124
   11c70:	04100613          	li	a2,65
   11c74:	00008097          	auipc	ra,0x8
   11c78:	d06080e7          	jalr	-762(ra) # 1997a <memcpy>
   11c7c:	00007297          	auipc	t0,0x7
   11c80:	7e6282e7          	jalr	t0,2022(t0) # 19462 <OUTLINED_FUNCTION_9>
   11c84:	463d                	li	a2,15
   11c86:	854e                	mv	a0,s3
   11c88:	4581                	li	a1,0
   11c8a:	00008097          	auipc	ra,0x8
   11c8e:	c84080e7          	jalr	-892(ra) # 1990e <memset>
   11c92:	864a                	mv	a2,s2
   11c94:	46810223          	sb	s0,1124(sp)
   11c98:	6505                	lui	a0,0x1
   11c9a:	4491                	li	s1,4
   11c9c:	45a1                	li	a1,8
   11c9e:	11d50793          	addi	a5,a0,285 # 111d <.Lline_table_start1+0xef2>
   11ca2:	04800693          	li	a3,72
   11ca6:	4711                	li	a4,4
   11ca8:	853e                	mv	a0,a5
   11caa:	00000073          	ecall
   11cae:	02850b63          	beq	a0,s0,11ce4 <_start+0x63a>
   11cb2:	00008297          	auipc	t0,0x8
   11cb6:	c38282e7          	jalr	t0,-968(t0) # 198ea <OUTLINED_FUNCTION_58>
   11cba:	45a5                	li	a1,9
   11cbc:	46bd                	li	a3,15
   11cbe:	470d                	li	a4,3
   11cc0:	00000073          	ecall
   11cc4:	02850063          	beq	a0,s0,11ce4 <_start+0x63a>
   11cc8:	46f10223          	sb	a5,1124(sp)
   11ccc:	6505                	lui	a0,0x1
   11cce:	45a1                	li	a1,8
   11cd0:	11d50513          	addi	a0,a0,285 # 111d <.Lline_table_start1+0xef2>
   11cd4:	4625                	li	a2,9
   11cd6:	00000097          	auipc	ra,0x0
   11cda:	9c6080e7          	jalr	-1594(ra) # 1169c <_ZN9allow_pin7command17h1eb46760111c3605E>
   11cde:	8905                	andi	a0,a0,1
   11ce0:	04050ee3          	beqz	a0,1253c <_start+0xe92>
   11ce4:	8b2e                	mv	s6,a1
   11ce6:	4805                	li	a6,1
   11ce8:	46414703          	lbu	a4,1124(sp)
   11cec:	4789                	li	a5,2
   11cee:	00f70a63          	beq	a4,a5,11d02 <_start+0x658>
   11cf2:	6505                	lui	a0,0x1
   11cf4:	11d50513          	addi	a0,a0,285 # 111d <.Lline_table_start1+0xef2>
   11cf8:	45a5                	li	a1,9
   11cfa:	4601                	li	a2,0
   11cfc:	4681                	li	a3,0
   11cfe:	00000073          	ecall
   11d02:	56c14703          	lbu	a4,1388(sp)
   11d06:	00f70a63          	beq	a4,a5,11d1a <_start+0x670>
   11d0a:	6505                	lui	a0,0x1
   11d0c:	11d50513          	addi	a0,a0,285 # 111d <.Lline_table_start1+0xef2>
   11d10:	45a1                	li	a1,8
   11d12:	4601                	li	a2,0
   11d14:	4681                	li	a3,0
   11d16:	00000073          	ecall
   11d1a:	00080463          	beqz	a6,11d22 <_start+0x678>
   11d1e:	4120706f          	j	19130 <_start+0x7a86>
   11d22:	46510993          	addi	s3,sp,1125
   11d26:	24014803          	lbu	a6,576(sp)
   11d2a:	24114583          	lbu	a1,577(sp)
   11d2e:	24214603          	lbu	a2,578(sp)
   11d32:	4a09                	li	s4,2
   11d34:	018b5693          	srli	a3,s6,0x18
   11d38:	010b5713          	srli	a4,s6,0x10
   11d3c:	008b5793          	srli	a5,s6,0x8
   11d40:	0182d413          	srli	s0,t0,0x18
   11d44:	0102d493          	srli	s1,t0,0x10
   11d48:	0082d513          	srli	a0,t0,0x8
   11d4c:	47610423          	sb	s6,1128(sp)
   11d50:	46f104a3          	sb	a5,1129(sp)
   11d54:	46e10523          	sb	a4,1130(sp)
   11d58:	46d105a3          	sb	a3,1131(sp)
   11d5c:	0188d693          	srli	a3,a7,0x18
   11d60:	46510623          	sb	t0,1132(sp)
   11d64:	46a106a3          	sb	a0,1133(sp)
   11d68:	46910723          	sb	s1,1134(sp)
   11d6c:	468107a3          	sb	s0,1135(sp)
   11d70:	0108d513          	srli	a0,a7,0x10
   11d74:	47410223          	sb	s4,1124(sp)
   11d78:	00008297          	auipc	t0,0x8
   11d7c:	ab6282e7          	jalr	t0,-1354(t0) # 1982e <OUTLINED_FUNCTION_45>
   11d80:	02500613          	li	a2,37
   11d84:	854a                	mv	a0,s2
   11d86:	4581                	li	a1,0
   11d88:	00008097          	auipc	ra,0x8
   11d8c:	b86080e7          	jalr	-1146(ra) # 1990e <memset>
   11d90:	864e                	mv	a2,s3
   11d92:	57410623          	sb	s4,1388(sp)
   11d96:	4791                	li	a5,4
   11d98:	0a200513          	li	a0,162
   11d9c:	45a1                	li	a1,8
   11d9e:	46bd                	li	a3,15
   11da0:	4711                	li	a4,4
   11da2:	00000073          	ecall
   11da6:	03450d63          	beq	a0,s4,11de0 <_start+0x736>
   11daa:	4581                	li	a1,0
   11dac:	864a                	mv	a2,s2
   11dae:	46f10223          	sb	a5,1124(sp)
   11db2:	478d                	li	a5,3
   11db4:	0a200513          	li	a0,162
   11db8:	02500693          	li	a3,37
   11dbc:	470d                	li	a4,3
   11dbe:	00000073          	ecall
   11dc2:	01450f63          	beq	a0,s4,11de0 <_start+0x736>
   11dc6:	56f10623          	sb	a5,1388(sp)
   11dca:	0a200513          	li	a0,162
   11dce:	45a1                	li	a1,8
   11dd0:	4601                	li	a2,0
   11dd2:	00000097          	auipc	ra,0x0
   11dd6:	8ca080e7          	jalr	-1846(ra) # 1169c <_ZN9allow_pin7command17h1eb46760111c3605E>
   11dda:	8905                	andi	a0,a0,1
   11ddc:	7a050e63          	beqz	a0,12598 <_start+0xeee>
   11de0:	8b2e                	mv	s6,a1
   11de2:	4785                	li	a5,1
   11de4:	56c14703          	lbu	a4,1388(sp)
   11de8:	4489                	li	s1,2
   11dea:	00970963          	beq	a4,s1,11dfc <_start+0x752>
   11dee:	0a200513          	li	a0,162
   11df2:	4581                	li	a1,0
   11df4:	4601                	li	a2,0
   11df6:	4681                	li	a3,0
   11df8:	00000073          	ecall
   11dfc:	46414703          	lbu	a4,1124(sp)
   11e00:	00970963          	beq	a4,s1,11e12 <_start+0x768>
   11e04:	0a200513          	li	a0,162
   11e08:	45a1                	li	a1,8
   11e0a:	4601                	li	a2,0
   11e0c:	4681                	li	a3,0
   11e0e:	00000073          	ecall
   11e12:	c399                	beqz	a5,11e18 <_start+0x76e>
   11e14:	31c0706f          	j	19130 <_start+0x7a86>
   11e18:	00008297          	auipc	t0,0x8
   11e1c:	960282e7          	jalr	t0,-1696(t0) # 19778 <OUTLINED_FUNCTION_37>
   11e20:	46510a13          	addi	s4,sp,1125
   11e24:	00008297          	auipc	t0,0x8
   11e28:	a3a282e7          	jalr	t0,-1478(t0) # 1985e <OUTLINED_FUNCTION_47>
   11e2c:	0488                	addi	a0,sp,576
   11e2e:	51c10593          	addi	a1,sp,1308
   11e32:	4679                	li	a2,30
   11e34:	00008097          	auipc	ra,0x8
   11e38:	b46080e7          	jalr	-1210(ra) # 1997a <memcpy>
   11e3c:	46c10993          	addi	s3,sp,1132
   11e40:	048c                	addi	a1,sp,576
   11e42:	4679                	li	a2,30
   11e44:	854e                	mv	a0,s3
   11e46:	00008097          	auipc	ra,0x8
   11e4a:	b34080e7          	jalr	-1228(ra) # 1997a <memcpy>
   11e4e:	00007297          	auipc	t0,0x7
   11e52:	768282e7          	jalr	t0,1896(t0) # 195b6 <OUTLINED_FUNCTION_19>
   11e56:	02a00613          	li	a2,42
   11e5a:	854a                	mv	a0,s2
   11e5c:	4581                	li	a1,0
   11e5e:	00008097          	auipc	ra,0x8
   11e62:	ab0080e7          	jalr	-1360(ra) # 1990e <memset>
   11e66:	4581                	li	a1,0
   11e68:	8652                	mv	a2,s4
   11e6a:	56810623          	sb	s0,1388(sp)
   11e6e:	6505                	lui	a0,0x1
   11e70:	4491                	li	s1,4
   11e72:	93c50793          	addi	a5,a0,-1732 # 93c <.Lline_table_start1+0x711>
   11e76:	02500693          	li	a3,37
   11e7a:	4711                	li	a4,4
   11e7c:	853e                	mv	a0,a5
   11e7e:	00000073          	ecall
   11e82:	02850d63          	beq	a0,s0,11ebc <_start+0x812>
   11e86:	853e                	mv	a0,a5
   11e88:	864a                	mv	a2,s2
   11e8a:	46910223          	sb	s1,1124(sp)
   11e8e:	478d                	li	a5,3
   11e90:	458d                	li	a1,3
   11e92:	02a00693          	li	a3,42
   11e96:	470d                	li	a4,3
   11e98:	00000073          	ecall
   11e9c:	02850063          	beq	a0,s0,11ebc <_start+0x812>
   11ea0:	56f10623          	sb	a5,1388(sp)
   11ea4:	6505                	lui	a0,0x1
   11ea6:	93c50513          	addi	a0,a0,-1732 # 93c <.Lline_table_start1+0x711>
   11eaa:	460d                	li	a2,3
   11eac:	4581                	li	a1,0
   11eae:	fffff097          	auipc	ra,0xfffff
   11eb2:	7ee080e7          	jalr	2030(ra) # 1169c <_ZN9allow_pin7command17h1eb46760111c3605E>
   11eb6:	8905                	andi	a0,a0,1
   11eb8:	7a050063          	beqz	a0,12658 <_start+0xfae>
   11ebc:	8b2e                	mv	s6,a1
   11ebe:	4785                	li	a5,1
   11ec0:	56c14703          	lbu	a4,1388(sp)
   11ec4:	4489                	li	s1,2
   11ec6:	00970a63          	beq	a4,s1,11eda <_start+0x830>
   11eca:	6505                	lui	a0,0x1
   11ecc:	93c50513          	addi	a0,a0,-1732 # 93c <.Lline_table_start1+0x711>
   11ed0:	458d                	li	a1,3
   11ed2:	4601                	li	a2,0
   11ed4:	4681                	li	a3,0
   11ed6:	00000073          	ecall
   11eda:	46414703          	lbu	a4,1124(sp)
   11ede:	00970a63          	beq	a4,s1,11ef2 <_start+0x848>
   11ee2:	6505                	lui	a0,0x1
   11ee4:	93c50513          	addi	a0,a0,-1732 # 93c <.Lline_table_start1+0x711>
   11ee8:	4581                	li	a1,0
   11eea:	4601                	li	a2,0
   11eec:	4681                	li	a3,0
   11eee:	00000073          	ecall
   11ef2:	c399                	beqz	a5,11ef8 <_start+0x84e>
   11ef4:	23c0706f          	j	19130 <_start+0x7a86>
   11ef8:	00007297          	auipc	t0,0x7
   11efc:	73a282e7          	jalr	t0,1850(t0) # 19632 <OUTLINED_FUNCTION_24>
   11f00:	51c10513          	addi	a0,sp,1308
   11f04:	15ac                	addi	a1,sp,744
   11f06:	02300613          	li	a2,35
   11f0a:	00008097          	auipc	ra,0x8
   11f0e:	a70080e7          	jalr	-1424(ra) # 1997a <memcpy>
   11f12:	04a8                	addi	a0,sp,584
   11f14:	51c10593          	addi	a1,sp,1308
   11f18:	02300613          	li	a2,35
   11f1c:	00008097          	auipc	ra,0x8
   11f20:	a5e080e7          	jalr	-1442(ra) # 1997a <memcpy>
   11f24:	00007297          	auipc	t0,0x7
   11f28:	650282e7          	jalr	t0,1616(t0) # 19574 <OUTLINED_FUNCTION_17>
   11f2c:	06300613          	li	a2,99
   11f30:	854a                	mv	a0,s2
   11f32:	4581                	li	a1,0
   11f34:	00008097          	auipc	ra,0x8
   11f38:	9da080e7          	jalr	-1574(ra) # 1990e <memset>
   11f3c:	00008297          	auipc	t0,0x8
   11f40:	9c6282e7          	jalr	t0,-1594(t0) # 19902 <OUTLINED_FUNCTION_60>
   11f44:	4591                	li	a1,4
   11f46:	c7c50793          	addi	a5,a0,-900
   11f4a:	02a00693          	li	a3,42
   11f4e:	4711                	li	a4,4
   11f50:	853e                	mv	a0,a5
   11f52:	00000073          	ecall
   11f56:	02950d63          	beq	a0,s1,11f90 <_start+0x8e6>
   11f5a:	853e                	mv	a0,a5
   11f5c:	4581                	li	a1,0
   11f5e:	864a                	mv	a2,s2
   11f60:	24810023          	sb	s0,576(sp)
   11f64:	478d                	li	a5,3
   11f66:	06300693          	li	a3,99
   11f6a:	470d                	li	a4,3
   11f6c:	00000073          	ecall
   11f70:	02950063          	beq	a0,s1,11f90 <_start+0x8e6>
   11f74:	56f10623          	sb	a5,1388(sp)
   11f78:	6509                	lui	a0,0x2
   11f7a:	c7c50513          	addi	a0,a0,-900 # 1c7c <.Lline_table_start1+0x1a51>
   11f7e:	4591                	li	a1,4
   11f80:	4601                	li	a2,0
   11f82:	fffff097          	auipc	ra,0xfffff
   11f86:	71a080e7          	jalr	1818(ra) # 1169c <_ZN9allow_pin7command17h1eb46760111c3605E>
   11f8a:	8905                	andi	a0,a0,1
   11f8c:	72050363          	beqz	a0,126b2 <_start+0x1008>
   11f90:	8b2e                	mv	s6,a1
   11f92:	4785                	li	a5,1
   11f94:	56c14703          	lbu	a4,1388(sp)
   11f98:	4489                	li	s1,2
   11f9a:	00970a63          	beq	a4,s1,11fae <_start+0x904>
   11f9e:	6509                	lui	a0,0x2
   11fa0:	c7c50513          	addi	a0,a0,-900 # 1c7c <.Lline_table_start1+0x1a51>
   11fa4:	4581                	li	a1,0
   11fa6:	4601                	li	a2,0
   11fa8:	4681                	li	a3,0
   11faa:	00000073          	ecall
   11fae:	24014703          	lbu	a4,576(sp)
   11fb2:	00970a63          	beq	a4,s1,11fc6 <_start+0x91c>
   11fb6:	6509                	lui	a0,0x2
   11fb8:	c7c50513          	addi	a0,a0,-900 # 1c7c <.Lline_table_start1+0x1a51>
   11fbc:	4591                	li	a1,4
   11fbe:	4601                	li	a2,0
   11fc0:	4681                	li	a3,0
   11fc2:	00000073          	ecall
   11fc6:	c399                	beqz	a5,11fcc <_start+0x922>
   11fc8:	1680706f          	j	19130 <_start+0x7a86>
   11fcc:	00008297          	auipc	t0,0x8
   11fd0:	830282e7          	jalr	t0,-2000(t0) # 197fc <OUTLINED_FUNCTION_43>
   11fd4:	00007297          	auipc	t0,0x7
   11fd8:	6f6282e7          	jalr	t0,1782(t0) # 196ca <OUTLINED_FUNCTION_30>
   11fdc:	0048                	addi	a0,sp,4
   11fde:	46410593          	addi	a1,sp,1124
   11fe2:	05c00613          	li	a2,92
   11fe6:	00008097          	auipc	ra,0x8
   11fea:	994080e7          	jalr	-1644(ra) # 1997a <memcpy>
   11fee:	00007297          	auipc	t0,0x7
   11ff2:	474282e7          	jalr	t0,1140(t0) # 19462 <OUTLINED_FUNCTION_9>
   11ff6:	57410513          	addi	a0,sp,1396
   11ffa:	004c                	addi	a1,sp,4
   11ffc:	05c00613          	li	a2,92
   12000:	00008097          	auipc	ra,0x8
   12004:	97a080e7          	jalr	-1670(ra) # 1997a <memcpy>
   12008:	02700613          	li	a2,39
   1200c:	8552                	mv	a0,s4
   1200e:	4581                	li	a1,0
   12010:	00008097          	auipc	ra,0x8
   12014:	8fe080e7          	jalr	-1794(ra) # 1990e <memset>
   12018:	864a                	mv	a2,s2
   1201a:	46810223          	sb	s0,1124(sp)
   1201e:	6509                	lui	a0,0x2
   12020:	4491                	li	s1,4
   12022:	459d                	li	a1,7
   12024:	e5450793          	addi	a5,a0,-428 # 1e54 <.Lline_table_start1+0x1c29>
   12028:	06300693          	li	a3,99
   1202c:	4711                	li	a4,4
   1202e:	853e                	mv	a0,a5
   12030:	00000073          	ecall
   12034:	02850d63          	beq	a0,s0,1206e <_start+0x9c4>
   12038:	853e                	mv	a0,a5
   1203a:	4581                	li	a1,0
   1203c:	8652                	mv	a2,s4
   1203e:	56910623          	sb	s1,1388(sp)
   12042:	478d                	li	a5,3
   12044:	02700693          	li	a3,39
   12048:	470d                	li	a4,3
   1204a:	00000073          	ecall
   1204e:	02850063          	beq	a0,s0,1206e <_start+0x9c4>
   12052:	46f10223          	sb	a5,1124(sp)
   12056:	6509                	lui	a0,0x2
   12058:	e5450513          	addi	a0,a0,-428 # 1e54 <.Lline_table_start1+0x1c29>
   1205c:	459d                	li	a1,7
   1205e:	4601                	li	a2,0
   12060:	fffff097          	auipc	ra,0xfffff
   12064:	63c080e7          	jalr	1596(ra) # 1169c <_ZN9allow_pin7command17h1eb46760111c3605E>
   12068:	8905                	andi	a0,a0,1
   1206a:	6a050263          	beqz	a0,1270e <_start+0x1064>
   1206e:	8b2e                	mv	s6,a1
   12070:	4785                	li	a5,1
   12072:	46414703          	lbu	a4,1124(sp)
   12076:	4489                	li	s1,2
   12078:	00970a63          	beq	a4,s1,1208c <_start+0x9e2>
   1207c:	6509                	lui	a0,0x2
   1207e:	e5450513          	addi	a0,a0,-428 # 1e54 <.Lline_table_start1+0x1c29>
   12082:	4581                	li	a1,0
   12084:	4601                	li	a2,0
   12086:	4681                	li	a3,0
   12088:	00000073          	ecall
   1208c:	56c14703          	lbu	a4,1388(sp)
   12090:	00970a63          	beq	a4,s1,120a4 <_start+0x9fa>
   12094:	6509                	lui	a0,0x2
   12096:	e5450513          	addi	a0,a0,-428 # 1e54 <.Lline_table_start1+0x1c29>
   1209a:	459d                	li	a1,7
   1209c:	4601                	li	a2,0
   1209e:	4681                	li	a3,0
   120a0:	00000073          	ecall
   120a4:	c399                	beqz	a5,120aa <_start+0xa00>
   120a6:	08a0706f          	j	19130 <_start+0x7a86>
   120aa:	00007297          	auipc	t0,0x7
   120ae:	752282e7          	jalr	t0,1874(t0) # 197fc <OUTLINED_FUNCTION_43>
   120b2:	56a106a3          	sb	a0,1389(sp)
   120b6:	56b10723          	sb	a1,1390(sp)
   120ba:	56c107a3          	sb	a2,1391(sp)
   120be:	1088                	addi	a0,sp,96
   120c0:	048c                	addi	a1,sp,576
   120c2:	02000613          	li	a2,32
   120c6:	00008097          	auipc	ra,0x8
   120ca:	8b4080e7          	jalr	-1868(ra) # 1997a <memcpy>
   120ce:	00007297          	auipc	t0,0x7
   120d2:	394282e7          	jalr	t0,916(t0) # 19462 <OUTLINED_FUNCTION_9>
   120d6:	57410513          	addi	a0,sp,1396
   120da:	108c                	addi	a1,sp,96
   120dc:	02000613          	li	a2,32
   120e0:	00008097          	auipc	ra,0x8
   120e4:	89a080e7          	jalr	-1894(ra) # 1997a <memcpy>
   120e8:	4679                	li	a2,30
   120ea:	8552                	mv	a0,s4
   120ec:	4581                	li	a1,0
   120ee:	00008097          	auipc	ra,0x8
   120f2:	820080e7          	jalr	-2016(ra) # 1990e <memset>
   120f6:	46810223          	sb	s0,1124(sp)
   120fa:	56c10513          	addi	a0,sp,1388
   120fe:	02700593          	li	a1,39
   12102:	4611                	li	a2,4
   12104:	fffff097          	auipc	ra,0xfffff
   12108:	3fa080e7          	jalr	1018(ra) # 114fe <_ZN9allow_pin12dynamic_type23Buffer$LT$B$C$_$C$_$GT$5allow17he52992a718527229E>
   1210c:	8905                	andi	a0,a0,1
   1210e:	e51d                	bnez	a0,1213c <_start+0xa92>
   12110:	46410513          	addi	a0,sp,1124
   12114:	45f9                	li	a1,30
   12116:	460d                	li	a2,3
   12118:	fffff097          	auipc	ra,0xfffff
   1211c:	3e6080e7          	jalr	998(ra) # 114fe <_ZN9allow_pin12dynamic_type23Buffer$LT$B$C$_$C$_$GT$5allow17he52992a718527229E>
   12120:	8905                	andi	a0,a0,1
   12122:	ed09                	bnez	a0,1213c <_start+0xa92>
   12124:	6505                	lui	a0,0x1
   12126:	458d                	li	a1,3
   12128:	0e250513          	addi	a0,a0,226 # 10e2 <.Lline_table_start1+0xeb7>
   1212c:	460d                	li	a2,3
   1212e:	fffff097          	auipc	ra,0xfffff
   12132:	56e080e7          	jalr	1390(ra) # 1169c <_ZN9allow_pin7command17h1eb46760111c3605E>
   12136:	8905                	andi	a0,a0,1
   12138:	62050863          	beqz	a0,12768 <_start+0x10be>
   1213c:	8b2e                	mv	s6,a1
   1213e:	46414483          	lbu	s1,1124(sp)
   12142:	4785                	li	a5,1
   12144:	4409                	li	s0,2
   12146:	00848b63          	beq	s1,s0,1215c <_start+0xab2>
   1214a:	6505                	lui	a0,0x1
   1214c:	0e250513          	addi	a0,a0,226 # 10e2 <.Lline_table_start1+0xeb7>
   12150:	458d                	li	a1,3
   12152:	4601                	li	a2,0
   12154:	4681                	li	a3,0
   12156:	8726                	mv	a4,s1
   12158:	00000073          	ecall
   1215c:	56c14703          	lbu	a4,1388(sp)
   12160:	00870a63          	beq	a4,s0,12174 <_start+0xaca>
   12164:	6505                	lui	a0,0x1
   12166:	0e250513          	addi	a0,a0,226 # 10e2 <.Lline_table_start1+0xeb7>
   1216a:	458d                	li	a1,3
   1216c:	4601                	li	a2,0
   1216e:	4681                	li	a3,0
   12170:	00000073          	ecall
   12174:	c399                	beqz	a5,1217a <_start+0xad0>
   12176:	7bb0606f          	j	19130 <_start+0x7a86>
   1217a:	00007297          	auipc	t0,0x7
   1217e:	378282e7          	jalr	t0,888(t0) # 194f2 <OUTLINED_FUNCTION_13>
   12182:	465d                	li	a2,23
   12184:	00007097          	auipc	ra,0x7
   12188:	7f6080e7          	jalr	2038(ra) # 1997a <memcpy>
   1218c:	52410513          	addi	a0,sp,1316
   12190:	048c                	addi	a1,sp,576
   12192:	465d                	li	a2,23
   12194:	00007097          	auipc	ra,0x7
   12198:	7e6080e7          	jalr	2022(ra) # 1997a <memcpy>
   1219c:	00007297          	auipc	t0,0x7
   121a0:	30e282e7          	jalr	t0,782(t0) # 194aa <OUTLINED_FUNCTION_11>
   121a4:	02c00613          	li	a2,44
   121a8:	854a                	mv	a0,s2
   121aa:	4581                	li	a1,0
   121ac:	00007097          	auipc	ra,0x7
   121b0:	762080e7          	jalr	1890(ra) # 1990e <memset>
   121b4:	8622                	mv	a2,s0
   121b6:	56910623          	sb	s1,1388(sp)
   121ba:	4791                	li	a5,4
   121bc:	3fb00513          	li	a0,1019
   121c0:	459d                	li	a1,7
   121c2:	46f9                	li	a3,30
   121c4:	4711                	li	a4,4
   121c6:	00000073          	ecall
   121ca:	02950d63          	beq	a0,s1,12204 <_start+0xb5a>
   121ce:	4581                	li	a1,0
   121d0:	864a                	mv	a2,s2
   121d2:	50f10e23          	sb	a5,1308(sp)
   121d6:	478d                	li	a5,3
   121d8:	3fb00513          	li	a0,1019
   121dc:	02c00693          	li	a3,44
   121e0:	470d                	li	a4,3
   121e2:	00000073          	ecall
   121e6:	00950f63          	beq	a0,s1,12204 <_start+0xb5a>
   121ea:	56f10623          	sb	a5,1388(sp)
   121ee:	3fb00513          	li	a0,1019
   121f2:	459d                	li	a1,7
   121f4:	4601                	li	a2,0
   121f6:	fffff097          	auipc	ra,0xfffff
   121fa:	4a6080e7          	jalr	1190(ra) # 1169c <_ZN9allow_pin7command17h1eb46760111c3605E>
   121fe:	8905                	andi	a0,a0,1
   12200:	68050063          	beqz	a0,12880 <_start+0x11d6>
   12204:	8b2e                	mv	s6,a1
   12206:	4785                	li	a5,1
   12208:	56c14703          	lbu	a4,1388(sp)
   1220c:	4489                	li	s1,2
   1220e:	00970963          	beq	a4,s1,12220 <_start+0xb76>
   12212:	3fb00513          	li	a0,1019
   12216:	4581                	li	a1,0
   12218:	4601                	li	a2,0
   1221a:	4681                	li	a3,0
   1221c:	00000073          	ecall
   12220:	51c14703          	lbu	a4,1308(sp)
   12224:	00970963          	beq	a4,s1,12236 <_start+0xb8c>
   12228:	3fb00513          	li	a0,1019
   1222c:	459d                	li	a1,7
   1222e:	4601                	li	a2,0
   12230:	4681                	li	a3,0
   12232:	00000073          	ecall
   12236:	c399                	beqz	a5,1223c <_start+0xb92>
   12238:	6f90606f          	j	19130 <_start+0x7a86>
   1223c:	00007297          	auipc	t0,0x7
   12240:	292282e7          	jalr	t0,658(t0) # 194ce <OUTLINED_FUNCTION_12>
   12244:	02500613          	li	a2,37
   12248:	00007097          	auipc	ra,0x7
   1224c:	732080e7          	jalr	1842(ra) # 1997a <memcpy>
   12250:	57410513          	addi	a0,sp,1396
   12254:	46410593          	addi	a1,sp,1124
   12258:	02500613          	li	a2,37
   1225c:	00007097          	auipc	ra,0x7
   12260:	71e080e7          	jalr	1822(ra) # 1997a <memcpy>
   12264:	00007297          	auipc	t0,0x7
   12268:	222282e7          	jalr	t0,546(t0) # 19486 <OUTLINED_FUNCTION_10>
   1226c:	46510993          	addi	s3,sp,1125
   12270:	02500613          	li	a2,37
   12274:	854e                	mv	a0,s3
   12276:	4581                	li	a1,0
   12278:	00007097          	auipc	ra,0x7
   1227c:	696080e7          	jalr	1686(ra) # 1990e <memset>
   12280:	8622                	mv	a2,s0
   12282:	46910223          	sb	s1,1124(sp)
   12286:	4791                	li	a5,4
   12288:	77f00513          	li	a0,1919
   1228c:	458d                	li	a1,3
   1228e:	02c00693          	li	a3,44
   12292:	4711                	li	a4,4
   12294:	00000073          	ecall
   12298:	52951f63          	bne	a0,s1,127d6 <_start+0x112c>
   1229c:	8b2e                	mv	s6,a1
   1229e:	4785                	li	a5,1
   122a0:	a561                	j	12928 <_start+0x127e>
   122a2:	00010937          	lui	s2,0x10
   122a6:	13790913          	addi	s2,s2,311 # 10137 <.Lanon.49c9f8067fe4468184af16d7576940c9.1>
   122aa:	51c10513          	addi	a0,sp,1308
   122ae:	fffff097          	auipc	ra,0xfffff
   122b2:	2d2080e7          	jalr	722(ra) # 11580 <_ZN9allow_pin12dynamic_type23Buffer$LT$B$C$_$C$_$GT$7unallow17h2a88d12a30fe1850E>
   122b6:	56c10513          	addi	a0,sp,1388
   122ba:	fffff097          	auipc	ra,0xfffff
   122be:	2c6080e7          	jalr	710(ra) # 11580 <_ZN9allow_pin12dynamic_type23Buffer$LT$B$C$_$C$_$GT$7unallow17h2a88d12a30fe1850E>
   122c2:	56c14483          	lbu	s1,1388(sp)
   122c6:	ffe48593          	addi	a1,s1,-2
   122ca:	4809                	li	a6,2
   122cc:	00b035b3          	snez	a1,a1
   122d0:	01048363          	beq	s1,a6,122d6 <_start+0xc2c>
   122d4:	844a                	mv	s0,s2
   122d6:	00144603          	lbu	a2,1(s0)
   122da:	00044683          	lbu	a3,0(s0)
   122de:	00244703          	lbu	a4,2(s0)
   122e2:	00007297          	auipc	t0,0x7
   122e6:	4be282e7          	jalr	t0,1214(t0) # 197a0 <OUTLINED_FUNCTION_39>
   122ea:	fff58693          	addi	a3,a1,-1
   122ee:	01048c63          	beq	s1,a6,12306 <_start+0xc5c>
   122f2:	00790593          	addi	a1,s2,7
   122f6:	a811                	j	1230a <_start+0xc60>
   122f8:	56c14703          	lbu	a4,1388(sp)
   122fc:	4789                	li	a5,2
   122fe:	02f71863          	bne	a4,a5,1232e <_start+0xc84>
   12302:	470d                	li	a4,3
   12304:	a099                	j	1234a <_start+0xca0>
   12306:	57410593          	addi	a1,sp,1396
   1230a:	00c6fb33          	and	s6,a3,a2
   1230e:	0488                	addi	a0,sp,576
   12310:	04a00613          	li	a2,74
   12314:	00007097          	auipc	ra,0x7
   12318:	666080e7          	jalr	1638(ra) # 1997a <memcpy>
   1231c:	4781                	li	a5,0
   1231e:	c2aff06f          	j	11748 <_start+0x9e>
   12322:	56c14703          	lbu	a4,1388(sp)
   12326:	06871263          	bne	a4,s0,1238a <_start+0xce0>
   1232a:	470d                	li	a4,3
   1232c:	a8ad                	j	123a6 <_start+0xcfc>
   1232e:	6509                	lui	a0,0x2
   12330:	0c450513          	addi	a0,a0,196 # 20c4 <.Lline_table_start1+0x1e99>
   12334:	459d                	li	a1,7
   12336:	4601                	li	a2,0
   12338:	4681                	li	a3,0
   1233a:	00000073          	ecall
   1233e:	46414703          	lbu	a4,1124(sp)
   12342:	56f10623          	sb	a5,1388(sp)
   12346:	00f70a63          	beq	a4,a5,1235a <_start+0xcb0>
   1234a:	6509                	lui	a0,0x2
   1234c:	0c450513          	addi	a0,a0,196 # 20c4 <.Lline_table_start1+0x1e99>
   12350:	4581                	li	a1,0
   12352:	4601                	li	a2,0
   12354:	4681                	li	a3,0
   12356:	00000073          	ecall
   1235a:	00007297          	auipc	t0,0x7
   1235e:	3ca282e7          	jalr	t0,970(t0) # 19724 <OUTLINED_FUNCTION_33>
   12362:	00007297          	auipc	t0,0x7
   12366:	f66282e7          	jalr	t0,-154(t0) # 192c8 <OUTLINED_FUNCTION_1>
   1236a:	03f00613          	li	a2,63
   1236e:	00007097          	auipc	ra,0x7
   12372:	60c080e7          	jalr	1548(ra) # 1997a <memcpy>
   12376:	4781                	li	a5,0
   12378:	c9cff06f          	j	11814 <_start+0x16a>
   1237c:	51c14703          	lbu	a4,1308(sp)
   12380:	4789                	li	a5,2
   12382:	06f71163          	bne	a4,a5,123e4 <_start+0xd3a>
   12386:	470d                	li	a4,3
   12388:	a89d                	j	123fe <_start+0xd54>
   1238a:	6509                	lui	a0,0x2
   1238c:	3cf50513          	addi	a0,a0,975 # 23cf <.Lline_table_start1+0x21a4>
   12390:	458d                	li	a1,3
   12392:	4601                	li	a2,0
   12394:	4681                	li	a3,0
   12396:	00000073          	ecall
   1239a:	00007297          	auipc	t0,0x7
   1239e:	4fe282e7          	jalr	t0,1278(t0) # 19898 <OUTLINED_FUNCTION_52>
   123a2:	00a70a63          	beq	a4,a0,123b6 <_start+0xd0c>
   123a6:	6509                	lui	a0,0x2
   123a8:	3cf50513          	addi	a0,a0,975 # 23cf <.Lline_table_start1+0x21a4>
   123ac:	4589                	li	a1,2
   123ae:	4601                	li	a2,0
   123b0:	4681                	li	a3,0
   123b2:	00000073          	ecall
   123b6:	00007297          	auipc	t0,0x7
   123ba:	024282e7          	jalr	t0,36(t0) # 193da <OUTLINED_FUNCTION_6>
   123be:	00007297          	auipc	t0,0x7
   123c2:	2a6282e7          	jalr	t0,678(t0) # 19664 <OUTLINED_FUNCTION_26>
   123c6:	4645                	li	a2,17
   123c8:	00007097          	auipc	ra,0x7
   123cc:	5b2080e7          	jalr	1458(ra) # 1997a <memcpy>
   123d0:	4781                	li	a5,0
   123d2:	d0eff06f          	j	118e0 <_start+0x236>
   123d6:	56c14703          	lbu	a4,1388(sp)
   123da:	4789                	li	a5,2
   123dc:	04f71f63          	bne	a4,a5,1243a <_start+0xd90>
   123e0:	470d                	li	a4,3
   123e2:	a895                	j	12456 <_start+0xdac>
   123e4:	21f00513          	li	a0,543
   123e8:	4581                	li	a1,0
   123ea:	4601                	li	a2,0
   123ec:	4681                	li	a3,0
   123ee:	00000073          	ecall
   123f2:	56c14703          	lbu	a4,1388(sp)
   123f6:	50f10e23          	sb	a5,1308(sp)
   123fa:	00f70963          	beq	a4,a5,1240c <_start+0xd62>
   123fe:	21f00513          	li	a0,543
   12402:	459d                	li	a1,7
   12404:	4601                	li	a2,0
   12406:	4681                	li	a3,0
   12408:	00000073          	ecall
   1240c:	00007297          	auipc	t0,0x7
   12410:	328282e7          	jalr	t0,808(t0) # 19734 <OUTLINED_FUNCTION_34>
   12414:	00007297          	auipc	t0,0x7
   12418:	e7e282e7          	jalr	t0,-386(t0) # 19292 <OUTLINED_FUNCTION_0>
   1241c:	02f00613          	li	a2,47
   12420:	00007097          	auipc	ra,0x7
   12424:	55a080e7          	jalr	1370(ra) # 1997a <memcpy>
   12428:	4781                	li	a5,0
   1242a:	d7cff06f          	j	119a6 <_start+0x2fc>
   1242e:	56c14703          	lbu	a4,1388(sp)
   12432:	06871163          	bne	a4,s0,12494 <_start+0xdea>
   12436:	470d                	li	a4,3
   12438:	a89d                	j	124ae <_start+0xe04>
   1243a:	6505                	lui	a0,0x1
   1243c:	59750513          	addi	a0,a0,1431 # 1597 <.Lline_table_start1+0x136c>
   12440:	459d                	li	a1,7
   12442:	4601                	li	a2,0
   12444:	4681                	li	a3,0
   12446:	00000073          	ecall
   1244a:	46414703          	lbu	a4,1124(sp)
   1244e:	56f10623          	sb	a5,1388(sp)
   12452:	00f70a63          	beq	a4,a5,12466 <_start+0xdbc>
   12456:	6505                	lui	a0,0x1
   12458:	59750513          	addi	a0,a0,1431 # 1597 <.Lline_table_start1+0x136c>
   1245c:	4581                	li	a1,0
   1245e:	4601                	li	a2,0
   12460:	4681                	li	a3,0
   12462:	00000073          	ecall
   12466:	00007297          	auipc	t0,0x7
   1246a:	2be282e7          	jalr	t0,702(t0) # 19724 <OUTLINED_FUNCTION_33>
   1246e:	00007297          	auipc	t0,0x7
   12472:	e5a282e7          	jalr	t0,-422(t0) # 192c8 <OUTLINED_FUNCTION_1>
   12476:	4679                	li	a2,30
   12478:	00007097          	auipc	ra,0x7
   1247c:	502080e7          	jalr	1282(ra) # 1997a <memcpy>
   12480:	4781                	li	a5,0
   12482:	df0ff06f          	j	11a72 <_start+0x3c8>
   12486:	51c14703          	lbu	a4,1308(sp)
   1248a:	4789                	li	a5,2
   1248c:	0af71f63          	bne	a4,a5,1254a <_start+0xea0>
   12490:	470d                	li	a4,3
   12492:	a8d1                	j	12566 <_start+0xebc>
   12494:	66700513          	li	a0,1639
   12498:	4589                	li	a1,2
   1249a:	4601                	li	a2,0
   1249c:	4681                	li	a3,0
   1249e:	00000073          	ecall
   124a2:	00007297          	auipc	t0,0x7
   124a6:	3f6282e7          	jalr	t0,1014(t0) # 19898 <OUTLINED_FUNCTION_52>
   124aa:	00a70963          	beq	a4,a0,124bc <_start+0xe12>
   124ae:	66700513          	li	a0,1639
   124b2:	45a1                	li	a1,8
   124b4:	4601                	li	a2,0
   124b6:	4681                	li	a3,0
   124b8:	00000073          	ecall
   124bc:	4781                	li	a5,0
   124be:	4809                	li	a6,2
   124c0:	0009c583          	lbu	a1,0(s3)
   124c4:	0019c603          	lbu	a2,1(s3)
   124c8:	0029c883          	lbu	a7,2(s3)
   124cc:	46814283          	lbu	t0,1128(sp)
   124d0:	46d14303          	lbu	t1,1133(sp)
   124d4:	46e14383          	lbu	t2,1134(sp)
   124d8:	46f14e03          	lbu	t3,1135(sp)
   124dc:	47014683          	lbu	a3,1136(sp)
   124e0:	47010223          	sb	a6,1124(sp)
   124e4:	0622                	slli	a2,a2,0x8
   124e6:	8dd1                	or	a1,a1,a2
   124e8:	46914603          	lbu	a2,1129(sp)
   124ec:	46a14703          	lbu	a4,1130(sp)
   124f0:	46b14483          	lbu	s1,1131(sp)
   124f4:	46c14403          	lbu	s0,1132(sp)
   124f8:	0622                	slli	a2,a2,0x8
   124fa:	0742                	slli	a4,a4,0x10
   124fc:	00566633          	or	a2,a2,t0
   12500:	47114503          	lbu	a0,1137(sp)
   12504:	04e2                	slli	s1,s1,0x18
   12506:	8f45                	or	a4,a4,s1
   12508:	47214483          	lbu	s1,1138(sp)
   1250c:	0522                	slli	a0,a0,0x8
   1250e:	8d55                	or	a0,a0,a3
   12510:	0322                	slli	t1,t1,0x8
   12512:	008366b3          	or	a3,t1,s0
   12516:	03c2                	slli	t2,t2,0x10
   12518:	0e62                	slli	t3,t3,0x18
   1251a:	007e6433          	or	s0,t3,t2
   1251e:	44b11623          	sh	a1,1100(sp)
   12522:	45110723          	sb	a7,1102(sp)
   12526:	00c76b33          	or	s6,a4,a2
   1252a:	8ec1                	or	a3,a3,s0
   1252c:	2ed12423          	sw	a3,744(sp)
   12530:	2ea11623          	sh	a0,748(sp)
   12534:	2e910723          	sb	s1,750(sp)
   12538:	e00ff06f          	j	11b38 <_start+0x48e>
   1253c:	56c14703          	lbu	a4,1388(sp)
   12540:	4789                	li	a5,2
   12542:	06f71263          	bne	a4,a5,125a6 <_start+0xefc>
   12546:	470d                	li	a4,3
   12548:	a8ad                	j	125c2 <_start+0xf18>
   1254a:	6505                	lui	a0,0x1
   1254c:	2d150513          	addi	a0,a0,721 # 12d1 <.Lline_table_start1+0x10a6>
   12550:	458d                	li	a1,3
   12552:	4601                	li	a2,0
   12554:	4681                	li	a3,0
   12556:	00000073          	ecall
   1255a:	56c14703          	lbu	a4,1388(sp)
   1255e:	50f10e23          	sb	a5,1308(sp)
   12562:	00f70a63          	beq	a4,a5,12576 <_start+0xecc>
   12566:	6505                	lui	a0,0x1
   12568:	2d150513          	addi	a0,a0,721 # 12d1 <.Lline_table_start1+0x10a6>
   1256c:	45a1                	li	a1,8
   1256e:	4601                	li	a2,0
   12570:	4681                	li	a3,0
   12572:	00000073          	ecall
   12576:	00007297          	auipc	t0,0x7
   1257a:	1be282e7          	jalr	t0,446(t0) # 19734 <OUTLINED_FUNCTION_34>
   1257e:	00007297          	auipc	t0,0x7
   12582:	d14282e7          	jalr	t0,-748(t0) # 19292 <OUTLINED_FUNCTION_0>
   12586:	04100613          	li	a2,65
   1258a:	00007097          	auipc	ra,0x7
   1258e:	3f0080e7          	jalr	1008(ra) # 1997a <memcpy>
   12592:	4781                	li	a5,0
   12594:	e82ff06f          	j	11c16 <_start+0x56c>
   12598:	46414703          	lbu	a4,1124(sp)
   1259c:	4789                	li	a5,2
   1259e:	0cf71463          	bne	a4,a5,12666 <_start+0xfbc>
   125a2:	470d                	li	a4,3
   125a4:	a8f1                	j	12680 <_start+0xfd6>
   125a6:	6505                	lui	a0,0x1
   125a8:	11d50513          	addi	a0,a0,285 # 111d <.Lline_table_start1+0xef2>
   125ac:	45a1                	li	a1,8
   125ae:	4601                	li	a2,0
   125b0:	4681                	li	a3,0
   125b2:	00000073          	ecall
   125b6:	46414703          	lbu	a4,1124(sp)
   125ba:	56f10623          	sb	a5,1388(sp)
   125be:	00f70a63          	beq	a4,a5,125d2 <_start+0xf28>
   125c2:	6505                	lui	a0,0x1
   125c4:	11d50513          	addi	a0,a0,285 # 111d <.Lline_table_start1+0xef2>
   125c8:	45a5                	li	a1,9
   125ca:	4601                	li	a2,0
   125cc:	4681                	li	a3,0
   125ce:	00000073          	ecall
   125d2:	4801                	li	a6,0
   125d4:	4889                	li	a7,2
   125d6:	0009c303          	lbu	t1,0(s3)
   125da:	0019c383          	lbu	t2,1(s3)
   125de:	0029c283          	lbu	t0,2(s3)
   125e2:	46814e03          	lbu	t3,1128(sp)
   125e6:	46d14e83          	lbu	t4,1133(sp)
   125ea:	46e14f03          	lbu	t5,1134(sp)
   125ee:	46f14f83          	lbu	t6,1135(sp)
   125f2:	47014583          	lbu	a1,1136(sp)
   125f6:	47110223          	sb	a7,1124(sp)
   125fa:	46914503          	lbu	a0,1129(sp)
   125fe:	46a14603          	lbu	a2,1130(sp)
   12602:	46b14683          	lbu	a3,1131(sp)
   12606:	46c14703          	lbu	a4,1132(sp)
   1260a:	03a2                	slli	t2,t2,0x8
   1260c:	0522                	slli	a0,a0,0x8
   1260e:	0642                	slli	a2,a2,0x10
   12610:	06e2                	slli	a3,a3,0x18
   12612:	0063e7b3          	or	a5,t2,t1
   12616:	01c56533          	or	a0,a0,t3
   1261a:	47114483          	lbu	s1,1137(sp)
   1261e:	8e55                	or	a2,a2,a3
   12620:	47214683          	lbu	a3,1138(sp)
   12624:	47314403          	lbu	s0,1139(sp)
   12628:	04a2                	slli	s1,s1,0x8
   1262a:	8dc5                	or	a1,a1,s1
   1262c:	06c2                	slli	a3,a3,0x10
   1262e:	0462                	slli	s0,s0,0x18
   12630:	8ec1                	or	a3,a3,s0
   12632:	0ea2                	slli	t4,t4,0x8
   12634:	00eee733          	or	a4,t4,a4
   12638:	0f42                	slli	t5,t5,0x10
   1263a:	0fe2                	slli	t6,t6,0x18
   1263c:	01efe433          	or	s0,t6,t5
   12640:	24f11023          	sh	a5,576(sp)
   12644:	24510123          	sb	t0,578(sp)
   12648:	00a66b33          	or	s6,a2,a0
   1264c:	00b6e8b3          	or	a7,a3,a1
   12650:	00e462b3          	or	t0,s0,a4
   12654:	e94ff06f          	j	11ce8 <_start+0x63e>
   12658:	46414703          	lbu	a4,1124(sp)
   1265c:	4789                	li	a5,2
   1265e:	06f71163          	bne	a4,a5,126c0 <_start+0x1016>
   12662:	470d                	li	a4,3
   12664:	a8a5                	j	126dc <_start+0x1032>
   12666:	0a200513          	li	a0,162
   1266a:	45a1                	li	a1,8
   1266c:	4601                	li	a2,0
   1266e:	4681                	li	a3,0
   12670:	00000073          	ecall
   12674:	56c14703          	lbu	a4,1388(sp)
   12678:	46f10223          	sb	a5,1124(sp)
   1267c:	00f70963          	beq	a4,a5,1268e <_start+0xfe4>
   12680:	0a200513          	li	a0,162
   12684:	4581                	li	a1,0
   12686:	4601                	li	a2,0
   12688:	4681                	li	a3,0
   1268a:	00000073          	ecall
   1268e:	00007297          	auipc	t0,0x7
   12692:	0a6282e7          	jalr	t0,166(t0) # 19734 <OUTLINED_FUNCTION_34>
   12696:	00007297          	auipc	t0,0x7
   1269a:	c6a282e7          	jalr	t0,-918(t0) # 19300 <OUTLINED_FUNCTION_2>
   1269e:	51c10513          	addi	a0,sp,1308
   126a2:	4679                	li	a2,30
   126a4:	00007097          	auipc	ra,0x7
   126a8:	2d6080e7          	jalr	726(ra) # 1997a <memcpy>
   126ac:	4781                	li	a5,0
   126ae:	f36ff06f          	j	11de4 <_start+0x73a>
   126b2:	24014703          	lbu	a4,576(sp)
   126b6:	4789                	li	a5,2
   126b8:	06f71263          	bne	a4,a5,1271c <_start+0x1072>
   126bc:	470d                	li	a4,3
   126be:	a8ad                	j	12738 <_start+0x108e>
   126c0:	6505                	lui	a0,0x1
   126c2:	93c50513          	addi	a0,a0,-1732 # 93c <.Lline_table_start1+0x711>
   126c6:	4581                	li	a1,0
   126c8:	4601                	li	a2,0
   126ca:	4681                	li	a3,0
   126cc:	00000073          	ecall
   126d0:	56c14703          	lbu	a4,1388(sp)
   126d4:	46f10223          	sb	a5,1124(sp)
   126d8:	00f70a63          	beq	a4,a5,126ec <_start+0x1042>
   126dc:	6505                	lui	a0,0x1
   126de:	93c50513          	addi	a0,a0,-1732 # 93c <.Lline_table_start1+0x711>
   126e2:	458d                	li	a1,3
   126e4:	4601                	li	a2,0
   126e6:	4681                	li	a3,0
   126e8:	00000073          	ecall
   126ec:	00007297          	auipc	t0,0x7
   126f0:	d20282e7          	jalr	t0,-736(t0) # 1940c <OUTLINED_FUNCTION_7>
   126f4:	00007297          	auipc	t0,0x7
   126f8:	0f4282e7          	jalr	t0,244(t0) # 197e8 <OUTLINED_FUNCTION_42>
   126fc:	02300613          	li	a2,35
   12700:	00007097          	auipc	ra,0x7
   12704:	27a080e7          	jalr	634(ra) # 1997a <memcpy>
   12708:	4781                	li	a5,0
   1270a:	fb6ff06f          	j	11ec0 <_start+0x816>
   1270e:	56c14703          	lbu	a4,1388(sp)
   12712:	4789                	li	a5,2
   12714:	0ef71e63          	bne	a4,a5,12810 <_start+0x1166>
   12718:	470d                	li	a4,3
   1271a:	aa09                	j	1282c <_start+0x1182>
   1271c:	6509                	lui	a0,0x2
   1271e:	c7c50513          	addi	a0,a0,-900 # 1c7c <.Lline_table_start1+0x1a51>
   12722:	4591                	li	a1,4
   12724:	4601                	li	a2,0
   12726:	4681                	li	a3,0
   12728:	00000073          	ecall
   1272c:	56c14703          	lbu	a4,1388(sp)
   12730:	24f10023          	sb	a5,576(sp)
   12734:	00f70a63          	beq	a4,a5,12748 <_start+0x109e>
   12738:	6509                	lui	a0,0x2
   1273a:	c7c50513          	addi	a0,a0,-900 # 1c7c <.Lline_table_start1+0x1a51>
   1273e:	4581                	li	a1,0
   12740:	4601                	li	a2,0
   12742:	4681                	li	a3,0
   12744:	00000073          	ecall
   12748:	00007297          	auipc	t0,0x7
   1274c:	cc4282e7          	jalr	t0,-828(t0) # 1940c <OUTLINED_FUNCTION_7>
   12750:	00007297          	auipc	t0,0x7
   12754:	f64282e7          	jalr	t0,-156(t0) # 196b4 <OUTLINED_FUNCTION_29>
   12758:	05c00613          	li	a2,92
   1275c:	00007097          	auipc	ra,0x7
   12760:	21e080e7          	jalr	542(ra) # 1997a <memcpy>
   12764:	4781                	li	a5,0
   12766:	b03d                	j	11f94 <_start+0x8ea>
   12768:	56c10513          	addi	a0,sp,1388
   1276c:	fffff097          	auipc	ra,0xfffff
   12770:	dcc080e7          	jalr	-564(ra) # 11538 <_ZN9allow_pin12dynamic_type23Buffer$LT$B$C$_$C$_$GT$7unallow17h004c0eb1339abef1E>
   12774:	46410513          	addi	a0,sp,1124
   12778:	fffff097          	auipc	ra,0xfffff
   1277c:	dc0080e7          	jalr	-576(ra) # 11538 <_ZN9allow_pin12dynamic_type23Buffer$LT$B$C$_$C$_$GT$7unallow17h004c0eb1339abef1E>
   12780:	00007297          	auipc	t0,0x7
   12784:	140282e7          	jalr	t0,320(t0) # 198c0 <OUTLINED_FUNCTION_55>
   12788:	00010837          	lui	a6,0x10
   1278c:	1cb80813          	addi	a6,a6,459 # 101cb <.Lanon.49c9f8067fe4468184af16d7576940c9.4>
   12790:	01148363          	beq	s1,a7,12796 <_start+0x10ec>
   12794:	8a42                	mv	s4,a6
   12796:	001a4683          	lbu	a3,1(s4)
   1279a:	000a4703          	lbu	a4,0(s4)
   1279e:	002a4783          	lbu	a5,2(s4)
   127a2:	00007297          	auipc	t0,0x7
   127a6:	fa2282e7          	jalr	t0,-94(t0) # 19744 <OUTLINED_FUNCTION_35>
   127aa:	44d11623          	sh	a3,1100(sp)
   127ae:	44f10723          	sb	a5,1102(sp)
   127b2:	00b566b3          	or	a3,a0,a1
   127b6:	167d                	addi	a2,a2,-1
   127b8:	01148463          	beq	s1,a7,127c0 <_start+0x1116>
   127bc:	00780993          	addi	s3,a6,7
   127c0:	00d67b33          	and	s6,a2,a3
   127c4:	15a8                	addi	a0,sp,744
   127c6:	465d                	li	a2,23
   127c8:	85ce                	mv	a1,s3
   127ca:	00007097          	auipc	ra,0x7
   127ce:	1b0080e7          	jalr	432(ra) # 1997a <memcpy>
   127d2:	4781                	li	a5,0
   127d4:	ba85                	j	12144 <_start+0xa9a>
   127d6:	4581                	li	a1,0
   127d8:	864e                	mv	a2,s3
   127da:	56f10623          	sb	a5,1388(sp)
   127de:	478d                	li	a5,3
   127e0:	77f00513          	li	a0,1919
   127e4:	02500693          	li	a3,37
   127e8:	470d                	li	a4,3
   127ea:	00000073          	ecall
   127ee:	00950e63          	beq	a0,s1,1280a <_start+0x1160>
   127f2:	46f10223          	sb	a5,1124(sp)
   127f6:	77f00513          	li	a0,1919
   127fa:	458d                	li	a1,3
   127fc:	4601                	li	a2,0
   127fe:	fffff097          	auipc	ra,0xfffff
   12802:	e9e080e7          	jalr	-354(ra) # 1169c <_ZN9allow_pin7command17h1eb46760111c3605E>
   12806:	8905                	andi	a0,a0,1
   12808:	c159                	beqz	a0,1288e <_start+0x11e4>
   1280a:	4785                	li	a5,1
   1280c:	8b2e                	mv	s6,a1
   1280e:	aa29                	j	12928 <_start+0x127e>
   12810:	6509                	lui	a0,0x2
   12812:	e5450513          	addi	a0,a0,-428 # 1e54 <.Lline_table_start1+0x1c29>
   12816:	459d                	li	a1,7
   12818:	4601                	li	a2,0
   1281a:	4681                	li	a3,0
   1281c:	00000073          	ecall
   12820:	46414703          	lbu	a4,1124(sp)
   12824:	56f10623          	sb	a5,1388(sp)
   12828:	00f70a63          	beq	a4,a5,1283c <_start+0x1192>
   1282c:	6509                	lui	a0,0x2
   1282e:	e5450513          	addi	a0,a0,-428 # 1e54 <.Lline_table_start1+0x1c29>
   12832:	4581                	li	a1,0
   12834:	4601                	li	a2,0
   12836:	4681                	li	a3,0
   12838:	00000073          	ecall
   1283c:	00007297          	auipc	t0,0x7
   12840:	074282e7          	jalr	t0,116(t0) # 198b0 <OUTLINED_FUNCTION_54>
   12844:	46814703          	lbu	a4,1128(sp)
   12848:	46a10223          	sb	a0,1124(sp)
   1284c:	0622                	slli	a2,a2,0x8
   1284e:	46914503          	lbu	a0,1129(sp)
   12852:	8dd1                	or	a1,a1,a2
   12854:	46a14603          	lbu	a2,1130(sp)
   12858:	46b14783          	lbu	a5,1131(sp)
   1285c:	0522                	slli	a0,a0,0x8
   1285e:	8d59                	or	a0,a0,a4
   12860:	0642                	slli	a2,a2,0x10
   12862:	07e2                	slli	a5,a5,0x18
   12864:	8e5d                	or	a2,a2,a5
   12866:	00007297          	auipc	t0,0x7
   1286a:	efe282e7          	jalr	t0,-258(t0) # 19764 <OUTLINED_FUNCTION_36>
   1286e:	02000613          	li	a2,32
   12872:	00007097          	auipc	ra,0x7
   12876:	108080e7          	jalr	264(ra) # 1997a <memcpy>
   1287a:	4781                	li	a5,0
   1287c:	ff6ff06f          	j	12072 <_start+0x9c8>
   12880:	51c14703          	lbu	a4,1308(sp)
   12884:	4789                	li	a5,2
   12886:	00f71b63          	bne	a4,a5,1289c <_start+0x11f2>
   1288a:	470d                	li	a4,3
   1288c:	a02d                	j	128b6 <_start+0x120c>
   1288e:	56c14703          	lbu	a4,1388(sp)
   12892:	4789                	li	a5,2
   12894:	04f71863          	bne	a4,a5,128e4 <_start+0x123a>
   12898:	470d                	li	a4,3
   1289a:	a095                	j	128fe <_start+0x1254>
   1289c:	3fb00513          	li	a0,1019
   128a0:	459d                	li	a1,7
   128a2:	4601                	li	a2,0
   128a4:	4681                	li	a3,0
   128a6:	00000073          	ecall
   128aa:	56c14703          	lbu	a4,1388(sp)
   128ae:	50f10e23          	sb	a5,1308(sp)
   128b2:	00f70963          	beq	a4,a5,128c4 <_start+0x121a>
   128b6:	3fb00513          	li	a0,1019
   128ba:	4581                	li	a1,0
   128bc:	4601                	li	a2,0
   128be:	4681                	li	a3,0
   128c0:	00000073          	ecall
   128c4:	00007297          	auipc	t0,0x7
   128c8:	e70282e7          	jalr	t0,-400(t0) # 19734 <OUTLINED_FUNCTION_34>
   128cc:	00007297          	auipc	t0,0x7
   128d0:	9c6282e7          	jalr	t0,-1594(t0) # 19292 <OUTLINED_FUNCTION_0>
   128d4:	02500613          	li	a2,37
   128d8:	00007097          	auipc	ra,0x7
   128dc:	0a2080e7          	jalr	162(ra) # 1997a <memcpy>
   128e0:	4781                	li	a5,0
   128e2:	b21d                	j	12208 <_start+0xb5e>
   128e4:	77f00513          	li	a0,1919
   128e8:	458d                	li	a1,3
   128ea:	4601                	li	a2,0
   128ec:	4681                	li	a3,0
   128ee:	00000073          	ecall
   128f2:	46414703          	lbu	a4,1124(sp)
   128f6:	56f10623          	sb	a5,1388(sp)
   128fa:	00f70963          	beq	a4,a5,1290c <_start+0x1262>
   128fe:	77f00513          	li	a0,1919
   12902:	4581                	li	a1,0
   12904:	4601                	li	a2,0
   12906:	4681                	li	a3,0
   12908:	00000073          	ecall
   1290c:	00007297          	auipc	t0,0x7
   12910:	e18282e7          	jalr	t0,-488(t0) # 19724 <OUTLINED_FUNCTION_33>
   12914:	00007297          	auipc	t0,0x7
   12918:	9b4282e7          	jalr	t0,-1612(t0) # 192c8 <OUTLINED_FUNCTION_1>
   1291c:	4679                	li	a2,30
   1291e:	00007097          	auipc	ra,0x7
   12922:	05c080e7          	jalr	92(ra) # 1997a <memcpy>
   12926:	4781                	li	a5,0
   12928:	46414703          	lbu	a4,1124(sp)
   1292c:	4489                	li	s1,2
   1292e:	00970963          	beq	a4,s1,12940 <_start+0x1296>
   12932:	77f00513          	li	a0,1919
   12936:	4581                	li	a1,0
   12938:	4601                	li	a2,0
   1293a:	4681                	li	a3,0
   1293c:	00000073          	ecall
   12940:	56c14703          	lbu	a4,1388(sp)
   12944:	00970963          	beq	a4,s1,12956 <_start+0x12ac>
   12948:	77f00513          	li	a0,1919
   1294c:	458d                	li	a1,3
   1294e:	4601                	li	a2,0
   12950:	4681                	li	a3,0
   12952:	00000073          	ecall
   12956:	c399                	beqz	a5,1295c <_start+0x12b2>
   12958:	7d80606f          	j	19130 <_start+0x7a86>
   1295c:	00007297          	auipc	t0,0x7
   12960:	bf4282e7          	jalr	t0,-1036(t0) # 19550 <OUTLINED_FUNCTION_16>
   12964:	4679                	li	a2,30
   12966:	00007097          	auipc	ra,0x7
   1296a:	014080e7          	jalr	20(ra) # 1997a <memcpy>
   1296e:	57410513          	addi	a0,sp,1396
   12972:	048c                	addi	a1,sp,576
   12974:	4679                	li	a2,30
   12976:	00007097          	auipc	ra,0x7
   1297a:	004080e7          	jalr	4(ra) # 1997a <memcpy>
   1297e:	00007297          	auipc	t0,0x7
   12982:	ae4282e7          	jalr	t0,-1308(t0) # 19462 <OUTLINED_FUNCTION_9>
   12986:	4661                	li	a2,24
   12988:	854e                	mv	a0,s3
   1298a:	4581                	li	a1,0
   1298c:	00007097          	auipc	ra,0x7
   12990:	f82080e7          	jalr	-126(ra) # 1990e <memset>
   12994:	864a                	mv	a2,s2
   12996:	46810223          	sb	s0,1124(sp)
   1299a:	6505                	lui	a0,0x1
   1299c:	4491                	li	s1,4
   1299e:	45a5                	li	a1,9
   129a0:	a7050793          	addi	a5,a0,-1424 # a70 <.Lline_table_start1+0x845>
   129a4:	02500693          	li	a3,37
   129a8:	4711                	li	a4,4
   129aa:	853e                	mv	a0,a5
   129ac:	00000073          	ecall
   129b0:	02850b63          	beq	a0,s0,129e6 <_start+0x133c>
   129b4:	00007297          	auipc	t0,0x7
   129b8:	f36282e7          	jalr	t0,-202(t0) # 198ea <OUTLINED_FUNCTION_58>
   129bc:	45a1                	li	a1,8
   129be:	46e1                	li	a3,24
   129c0:	470d                	li	a4,3
   129c2:	00000073          	ecall
   129c6:	02850063          	beq	a0,s0,129e6 <_start+0x133c>
   129ca:	46f10223          	sb	a5,1124(sp)
   129ce:	6505                	lui	a0,0x1
   129d0:	45a5                	li	a1,9
   129d2:	a7050513          	addi	a0,a0,-1424 # a70 <.Lline_table_start1+0x845>
   129d6:	4621                	li	a2,8
   129d8:	fffff097          	auipc	ra,0xfffff
   129dc:	cc4080e7          	jalr	-828(ra) # 1169c <_ZN9allow_pin7command17h1eb46760111c3605E>
   129e0:	8905                	andi	a0,a0,1
   129e2:	000502e3          	beqz	a0,131e6 <_start+0x1b3c>
   129e6:	4785                	li	a5,1
   129e8:	8b2e                	mv	s6,a1
   129ea:	46414703          	lbu	a4,1124(sp)
   129ee:	4489                	li	s1,2
   129f0:	00970a63          	beq	a4,s1,12a04 <_start+0x135a>
   129f4:	6505                	lui	a0,0x1
   129f6:	a7050513          	addi	a0,a0,-1424 # a70 <.Lline_table_start1+0x845>
   129fa:	45a1                	li	a1,8
   129fc:	4601                	li	a2,0
   129fe:	4681                	li	a3,0
   12a00:	00000073          	ecall
   12a04:	56c14703          	lbu	a4,1388(sp)
   12a08:	00970a63          	beq	a4,s1,12a1c <_start+0x1372>
   12a0c:	6505                	lui	a0,0x1
   12a0e:	a7050513          	addi	a0,a0,-1424 # a70 <.Lline_table_start1+0x845>
   12a12:	45a5                	li	a1,9
   12a14:	4601                	li	a2,0
   12a16:	4681                	li	a3,0
   12a18:	00000073          	ecall
   12a1c:	c399                	beqz	a5,12a22 <_start+0x1378>
   12a1e:	7120606f          	j	19130 <_start+0x7a86>
   12a22:	00007297          	auipc	t0,0x7
   12a26:	ad0282e7          	jalr	t0,-1328(t0) # 194f2 <OUTLINED_FUNCTION_13>
   12a2a:	4645                	li	a2,17
   12a2c:	00007097          	auipc	ra,0x7
   12a30:	f4e080e7          	jalr	-178(ra) # 1997a <memcpy>
   12a34:	52410513          	addi	a0,sp,1316
   12a38:	048c                	addi	a1,sp,576
   12a3a:	4645                	li	a2,17
   12a3c:	00007097          	auipc	ra,0x7
   12a40:	f3e080e7          	jalr	-194(ra) # 1997a <memcpy>
   12a44:	00007297          	auipc	t0,0x7
   12a48:	a66282e7          	jalr	t0,-1434(t0) # 194aa <OUTLINED_FUNCTION_11>
   12a4c:	03600613          	li	a2,54
   12a50:	854a                	mv	a0,s2
   12a52:	4581                	li	a1,0
   12a54:	00007097          	auipc	ra,0x7
   12a58:	eba080e7          	jalr	-326(ra) # 1990e <memset>
   12a5c:	8622                	mv	a2,s0
   12a5e:	56910623          	sb	s1,1388(sp)
   12a62:	4791                	li	a5,4
   12a64:	0f300513          	li	a0,243
   12a68:	45a1                	li	a1,8
   12a6a:	46e1                	li	a3,24
   12a6c:	4711                	li	a4,4
   12a6e:	00000073          	ecall
   12a72:	02950d63          	beq	a0,s1,12aac <_start+0x1402>
   12a76:	864a                	mv	a2,s2
   12a78:	50f10e23          	sb	a5,1308(sp)
   12a7c:	478d                	li	a5,3
   12a7e:	0f300513          	li	a0,243
   12a82:	4591                	li	a1,4
   12a84:	03600693          	li	a3,54
   12a88:	470d                	li	a4,3
   12a8a:	00000073          	ecall
   12a8e:	00950f63          	beq	a0,s1,12aac <_start+0x1402>
   12a92:	56f10623          	sb	a5,1388(sp)
   12a96:	0f300513          	li	a0,243
   12a9a:	45a1                	li	a1,8
   12a9c:	4611                	li	a2,4
   12a9e:	fffff097          	auipc	ra,0xfffff
   12aa2:	bfe080e7          	jalr	-1026(ra) # 1169c <_ZN9allow_pin7command17h1eb46760111c3605E>
   12aa6:	8905                	andi	a0,a0,1
   12aa8:	74050663          	beqz	a0,131f4 <_start+0x1b4a>
   12aac:	4785                	li	a5,1
   12aae:	8b2e                	mv	s6,a1
   12ab0:	56c14703          	lbu	a4,1388(sp)
   12ab4:	4489                	li	s1,2
   12ab6:	00970963          	beq	a4,s1,12ac8 <_start+0x141e>
   12aba:	0f300513          	li	a0,243
   12abe:	4591                	li	a1,4
   12ac0:	4601                	li	a2,0
   12ac2:	4681                	li	a3,0
   12ac4:	00000073          	ecall
   12ac8:	51c14703          	lbu	a4,1308(sp)
   12acc:	00970963          	beq	a4,s1,12ade <_start+0x1434>
   12ad0:	0f300513          	li	a0,243
   12ad4:	45a1                	li	a1,8
   12ad6:	4601                	li	a2,0
   12ad8:	4681                	li	a3,0
   12ada:	00000073          	ecall
   12ade:	c399                	beqz	a5,12ae4 <_start+0x143a>
   12ae0:	6500606f          	j	19130 <_start+0x7a86>
   12ae4:	00007297          	auipc	t0,0x7
   12ae8:	9ea282e7          	jalr	t0,-1558(t0) # 194ce <OUTLINED_FUNCTION_12>
   12aec:	02f00613          	li	a2,47
   12af0:	00007097          	auipc	ra,0x7
   12af4:	e8a080e7          	jalr	-374(ra) # 1997a <memcpy>
   12af8:	57410513          	addi	a0,sp,1396
   12afc:	46410593          	addi	a1,sp,1124
   12b00:	02f00613          	li	a2,47
   12b04:	00007097          	auipc	ra,0x7
   12b08:	e76080e7          	jalr	-394(ra) # 1997a <memcpy>
   12b0c:	00007297          	auipc	t0,0x7
   12b10:	97a282e7          	jalr	t0,-1670(t0) # 19486 <OUTLINED_FUNCTION_10>
   12b14:	03400613          	li	a2,52
   12b18:	854e                	mv	a0,s3
   12b1a:	4581                	li	a1,0
   12b1c:	00007097          	auipc	ra,0x7
   12b20:	df2080e7          	jalr	-526(ra) # 1990e <memset>
   12b24:	8622                	mv	a2,s0
   12b26:	46910223          	sb	s1,1124(sp)
   12b2a:	6509                	lui	a0,0x2
   12b2c:	4411                	li	s0,4
   12b2e:	4591                	li	a1,4
   12b30:	3c650793          	addi	a5,a0,966 # 23c6 <.Lline_table_start1+0x219b>
   12b34:	03600693          	li	a3,54
   12b38:	4711                	li	a4,4
   12b3a:	853e                	mv	a0,a5
   12b3c:	00000073          	ecall
   12b40:	02950d63          	beq	a0,s1,12b7a <_start+0x14d0>
   12b44:	00007297          	auipc	t0,0x7
   12b48:	db2282e7          	jalr	t0,-590(t0) # 198f6 <OUTLINED_FUNCTION_59>
   12b4c:	4589                	li	a1,2
   12b4e:	03400693          	li	a3,52
   12b52:	470d                	li	a4,3
   12b54:	00000073          	ecall
   12b58:	02950163          	beq	a0,s1,12b7a <_start+0x14d0>
   12b5c:	46f10223          	sb	a5,1124(sp)
   12b60:	6509                	lui	a0,0x2
   12b62:	4591                	li	a1,4
   12b64:	3c650513          	addi	a0,a0,966 # 23c6 <.Lline_table_start1+0x219b>
   12b68:	4609                	li	a2,2
   12b6a:	4409                	li	s0,2
   12b6c:	fffff097          	auipc	ra,0xfffff
   12b70:	b30080e7          	jalr	-1232(ra) # 1169c <_ZN9allow_pin7command17h1eb46760111c3605E>
   12b74:	8905                	andi	a0,a0,1
   12b76:	6c050c63          	beqz	a0,1324e <_start+0x1ba4>
   12b7a:	4785                	li	a5,1
   12b7c:	8b2e                	mv	s6,a1
   12b7e:	46414703          	lbu	a4,1124(sp)
   12b82:	4489                	li	s1,2
   12b84:	00970a63          	beq	a4,s1,12b98 <_start+0x14ee>
   12b88:	6509                	lui	a0,0x2
   12b8a:	3c650513          	addi	a0,a0,966 # 23c6 <.Lline_table_start1+0x219b>
   12b8e:	4589                	li	a1,2
   12b90:	4601                	li	a2,0
   12b92:	4681                	li	a3,0
   12b94:	00000073          	ecall
   12b98:	56c14703          	lbu	a4,1388(sp)
   12b9c:	00970a63          	beq	a4,s1,12bb0 <_start+0x1506>
   12ba0:	6509                	lui	a0,0x2
   12ba2:	3c650513          	addi	a0,a0,966 # 23c6 <.Lline_table_start1+0x219b>
   12ba6:	4591                	li	a1,4
   12ba8:	4601                	li	a2,0
   12baa:	4681                	li	a3,0
   12bac:	00000073          	ecall
   12bb0:	c399                	beqz	a5,12bb6 <_start+0x150c>
   12bb2:	57e0606f          	j	19130 <_start+0x7a86>
   12bb6:	00007297          	auipc	t0,0x7
   12bba:	bc2282e7          	jalr	t0,-1086(t0) # 19778 <OUTLINED_FUNCTION_37>
   12bbe:	56d10a13          	addi	s4,sp,1389
   12bc2:	00007297          	auipc	t0,0x7
   12bc6:	a8e282e7          	jalr	t0,-1394(t0) # 19650 <OUTLINED_FUNCTION_25>
   12bca:	02d00613          	li	a2,45
   12bce:	00007097          	auipc	ra,0x7
   12bd2:	dac080e7          	jalr	-596(ra) # 1997a <memcpy>
   12bd6:	57410913          	addi	s2,sp,1396
   12bda:	048c                	addi	a1,sp,576
   12bdc:	02d00613          	li	a2,45
   12be0:	854a                	mv	a0,s2
   12be2:	00007097          	auipc	ra,0x7
   12be6:	d98080e7          	jalr	-616(ra) # 1997a <memcpy>
   12bea:	00007297          	auipc	t0,0x7
   12bee:	878282e7          	jalr	t0,-1928(t0) # 19462 <OUTLINED_FUNCTION_9>
   12bf2:	02e00613          	li	a2,46
   12bf6:	854e                	mv	a0,s3
   12bf8:	4581                	li	a1,0
   12bfa:	00007097          	auipc	ra,0x7
   12bfe:	d14080e7          	jalr	-748(ra) # 1990e <memset>
   12c02:	8652                	mv	a2,s4
   12c04:	46810223          	sb	s0,1124(sp)
   12c08:	4791                	li	a5,4
   12c0a:	20900513          	li	a0,521
   12c0e:	4589                	li	a1,2
   12c10:	03400693          	li	a3,52
   12c14:	4711                	li	a4,4
   12c16:	00000073          	ecall
   12c1a:	02850e63          	beq	a0,s0,12c56 <_start+0x15ac>
   12c1e:	864e                	mv	a2,s3
   12c20:	56f10623          	sb	a5,1388(sp)
   12c24:	478d                	li	a5,3
   12c26:	20900513          	li	a0,521
   12c2a:	45a1                	li	a1,8
   12c2c:	02e00693          	li	a3,46
   12c30:	470d                	li	a4,3
   12c32:	00000073          	ecall
   12c36:	02850063          	beq	a0,s0,12c56 <_start+0x15ac>
   12c3a:	46f10223          	sb	a5,1124(sp)
   12c3e:	20900513          	li	a0,521
   12c42:	4589                	li	a1,2
   12c44:	4621                	li	a2,8
   12c46:	4409                	li	s0,2
   12c48:	fffff097          	auipc	ra,0xfffff
   12c4c:	a54080e7          	jalr	-1452(ra) # 1169c <_ZN9allow_pin7command17h1eb46760111c3605E>
   12c50:	8905                	andi	a0,a0,1
   12c52:	64050863          	beqz	a0,132a2 <_start+0x1bf8>
   12c56:	4785                	li	a5,1
   12c58:	8b2e                	mv	s6,a1
   12c5a:	46414703          	lbu	a4,1124(sp)
   12c5e:	4489                	li	s1,2
   12c60:	00970963          	beq	a4,s1,12c72 <_start+0x15c8>
   12c64:	20900513          	li	a0,521
   12c68:	45a1                	li	a1,8
   12c6a:	4601                	li	a2,0
   12c6c:	4681                	li	a3,0
   12c6e:	00000073          	ecall
   12c72:	56c14703          	lbu	a4,1388(sp)
   12c76:	00970963          	beq	a4,s1,12c88 <_start+0x15de>
   12c7a:	20900513          	li	a0,521
   12c7e:	4589                	li	a1,2
   12c80:	4601                	li	a2,0
   12c82:	4681                	li	a3,0
   12c84:	00000073          	ecall
   12c88:	c399                	beqz	a5,12c8e <_start+0x15e4>
   12c8a:	4a60606f          	j	19130 <_start+0x7a86>
   12c8e:	00007297          	auipc	t0,0x7
   12c92:	b3e282e7          	jalr	t0,-1218(t0) # 197cc <OUTLINED_FUNCTION_40>
   12c96:	00007297          	auipc	t0,0x7
   12c9a:	b44282e7          	jalr	t0,-1212(t0) # 197da <OUTLINED_FUNCTION_41>
   12c9e:	0488                	addi	a0,sp,576
   12ca0:	15ac                	addi	a1,sp,744
   12ca2:	02700613          	li	a2,39
   12ca6:	00007097          	auipc	ra,0x7
   12caa:	cd4080e7          	jalr	-812(ra) # 1997a <memcpy>
   12cae:	52410513          	addi	a0,sp,1316
   12cb2:	048c                	addi	a1,sp,576
   12cb4:	02700613          	li	a2,39
   12cb8:	00007097          	auipc	ra,0x7
   12cbc:	cc2080e7          	jalr	-830(ra) # 1997a <memcpy>
   12cc0:	00007297          	auipc	t0,0x7
   12cc4:	b4a282e7          	jalr	t0,-1206(t0) # 1980a <OUTLINED_FUNCTION_44>
   12cc8:	03800613          	li	a2,56
   12ccc:	8552                	mv	a0,s4
   12cce:	4581                	li	a1,0
   12cd0:	00007097          	auipc	ra,0x7
   12cd4:	c3e080e7          	jalr	-962(ra) # 1990e <memset>
   12cd8:	56810623          	sb	s0,1388(sp)
   12cdc:	51c10513          	addi	a0,sp,1308
   12ce0:	02e00593          	li	a1,46
   12ce4:	4611                	li	a2,4
   12ce6:	ffffe097          	auipc	ra,0xffffe
   12cea:	64a080e7          	jalr	1610(ra) # 11330 <_ZN9allow_pin12dynamic_type23Buffer$LT$B$C$_$C$_$GT$5allow17h257e0e199a080bcdE>
   12cee:	8905                	andi	a0,a0,1
   12cf0:	e905                	bnez	a0,12d20 <_start+0x1676>
   12cf2:	56c10513          	addi	a0,sp,1388
   12cf6:	03800593          	li	a1,56
   12cfa:	460d                	li	a2,3
   12cfc:	ffffe097          	auipc	ra,0xffffe
   12d00:	634080e7          	jalr	1588(ra) # 11330 <_ZN9allow_pin12dynamic_type23Buffer$LT$B$C$_$C$_$GT$5allow17h257e0e199a080bcdE>
   12d04:	8905                	andi	a0,a0,1
   12d06:	ed09                	bnez	a0,12d20 <_start+0x1676>
   12d08:	6505                	lui	a0,0x1
   12d0a:	45a5                	li	a1,9
   12d0c:	a9d50513          	addi	a0,a0,-1379 # a9d <.Lline_table_start1+0x872>
   12d10:	4625                	li	a2,9
   12d12:	fffff097          	auipc	ra,0xfffff
   12d16:	98a080e7          	jalr	-1654(ra) # 1169c <_ZN9allow_pin7command17h1eb46760111c3605E>
   12d1a:	8905                	andi	a0,a0,1
   12d1c:	5c050f63          	beqz	a0,132fa <_start+0x1c50>
   12d20:	8b2e                	mv	s6,a1
   12d22:	56c14483          	lbu	s1,1388(sp)
   12d26:	4785                	li	a5,1
   12d28:	4409                	li	s0,2
   12d2a:	00848b63          	beq	s1,s0,12d40 <_start+0x1696>
   12d2e:	6505                	lui	a0,0x1
   12d30:	a9d50513          	addi	a0,a0,-1379 # a9d <.Lline_table_start1+0x872>
   12d34:	45a5                	li	a1,9
   12d36:	4601                	li	a2,0
   12d38:	4681                	li	a3,0
   12d3a:	8726                	mv	a4,s1
   12d3c:	00000073          	ecall
   12d40:	51c14703          	lbu	a4,1308(sp)
   12d44:	00870a63          	beq	a4,s0,12d58 <_start+0x16ae>
   12d48:	6505                	lui	a0,0x1
   12d4a:	a9d50513          	addi	a0,a0,-1379 # a9d <.Lline_table_start1+0x872>
   12d4e:	45a5                	li	a1,9
   12d50:	4601                	li	a2,0
   12d52:	4681                	li	a3,0
   12d54:	00000073          	ecall
   12d58:	c399                	beqz	a5,12d5e <_start+0x16b4>
   12d5a:	3d60606f          	j	19130 <_start+0x7a86>
   12d5e:	00006297          	auipc	t0,0x6
   12d62:	770282e7          	jalr	t0,1904(t0) # 194ce <OUTLINED_FUNCTION_12>
   12d66:	03100613          	li	a2,49
   12d6a:	00007097          	auipc	ra,0x7
   12d6e:	c10080e7          	jalr	-1008(ra) # 1997a <memcpy>
   12d72:	57410513          	addi	a0,sp,1396
   12d76:	46410593          	addi	a1,sp,1124
   12d7a:	03100613          	li	a2,49
   12d7e:	00007097          	auipc	ra,0x7
   12d82:	bfc080e7          	jalr	-1028(ra) # 1997a <memcpy>
   12d86:	00006297          	auipc	t0,0x6
   12d8a:	700282e7          	jalr	t0,1792(t0) # 19486 <OUTLINED_FUNCTION_10>
   12d8e:	03400613          	li	a2,52
   12d92:	854e                	mv	a0,s3
   12d94:	4581                	li	a1,0
   12d96:	00007097          	auipc	ra,0x7
   12d9a:	b78080e7          	jalr	-1160(ra) # 1990e <memset>
   12d9e:	8622                	mv	a2,s0
   12da0:	46910223          	sb	s1,1124(sp)
   12da4:	4791                	li	a5,4
   12da6:	12e00513          	li	a0,302
   12daa:	45a1                	li	a1,8
   12dac:	03800693          	li	a3,56
   12db0:	4711                	li	a4,4
   12db2:	00000073          	ecall
   12db6:	02950d63          	beq	a0,s1,12df0 <_start+0x1746>
   12dba:	864e                	mv	a2,s3
   12dbc:	56f10623          	sb	a5,1388(sp)
   12dc0:	478d                	li	a5,3
   12dc2:	12e00513          	li	a0,302
   12dc6:	458d                	li	a1,3
   12dc8:	03400693          	li	a3,52
   12dcc:	470d                	li	a4,3
   12dce:	00000073          	ecall
   12dd2:	00950f63          	beq	a0,s1,12df0 <_start+0x1746>
   12dd6:	46f10223          	sb	a5,1124(sp)
   12dda:	12e00513          	li	a0,302
   12dde:	45a1                	li	a1,8
   12de0:	460d                	li	a2,3
   12de2:	fffff097          	auipc	ra,0xfffff
   12de6:	8ba080e7          	jalr	-1862(ra) # 1169c <_ZN9allow_pin7command17h1eb46760111c3605E>
   12dea:	8905                	andi	a0,a0,1
   12dec:	5c050063          	beqz	a0,133ac <_start+0x1d02>
   12df0:	4785                	li	a5,1
   12df2:	8b2e                	mv	s6,a1
   12df4:	46414703          	lbu	a4,1124(sp)
   12df8:	4489                	li	s1,2
   12dfa:	00970963          	beq	a4,s1,12e0c <_start+0x1762>
   12dfe:	12e00513          	li	a0,302
   12e02:	458d                	li	a1,3
   12e04:	4601                	li	a2,0
   12e06:	4681                	li	a3,0
   12e08:	00000073          	ecall
   12e0c:	56c14703          	lbu	a4,1388(sp)
   12e10:	00970963          	beq	a4,s1,12e22 <_start+0x1778>
   12e14:	12e00513          	li	a0,302
   12e18:	45a1                	li	a1,8
   12e1a:	4601                	li	a2,0
   12e1c:	4681                	li	a3,0
   12e1e:	00000073          	ecall
   12e22:	c399                	beqz	a5,12e28 <_start+0x177e>
   12e24:	30c0606f          	j	19130 <_start+0x7a86>
   12e28:	00006297          	auipc	t0,0x6
   12e2c:	728282e7          	jalr	t0,1832(t0) # 19550 <OUTLINED_FUNCTION_16>
   12e30:	02d00613          	li	a2,45
   12e34:	00007097          	auipc	ra,0x7
   12e38:	b46080e7          	jalr	-1210(ra) # 1997a <memcpy>
   12e3c:	57410513          	addi	a0,sp,1396
   12e40:	048c                	addi	a1,sp,576
   12e42:	02d00613          	li	a2,45
   12e46:	00007097          	auipc	ra,0x7
   12e4a:	b34080e7          	jalr	-1228(ra) # 1997a <memcpy>
   12e4e:	00006297          	auipc	t0,0x6
   12e52:	614282e7          	jalr	t0,1556(t0) # 19462 <OUTLINED_FUNCTION_9>
   12e56:	4669                	li	a2,26
   12e58:	854e                	mv	a0,s3
   12e5a:	4581                	li	a1,0
   12e5c:	00007097          	auipc	ra,0x7
   12e60:	ab2080e7          	jalr	-1358(ra) # 1990e <memset>
   12e64:	4581                	li	a1,0
   12e66:	864a                	mv	a2,s2
   12e68:	46810223          	sb	s0,1124(sp)
   12e6c:	6505                	lui	a0,0x1
   12e6e:	4491                	li	s1,4
   12e70:	2cc50793          	addi	a5,a0,716 # 12cc <.Lline_table_start1+0x10a1>
   12e74:	03400693          	li	a3,52
   12e78:	4711                	li	a4,4
   12e7a:	853e                	mv	a0,a5
   12e7c:	00000073          	ecall
   12e80:	02850b63          	beq	a0,s0,12eb6 <_start+0x180c>
   12e84:	00007297          	auipc	t0,0x7
   12e88:	a66282e7          	jalr	t0,-1434(t0) # 198ea <OUTLINED_FUNCTION_58>
   12e8c:	4595                	li	a1,5
   12e8e:	46e9                	li	a3,26
   12e90:	470d                	li	a4,3
   12e92:	00000073          	ecall
   12e96:	02850063          	beq	a0,s0,12eb6 <_start+0x180c>
   12e9a:	46f10223          	sb	a5,1124(sp)
   12e9e:	6505                	lui	a0,0x1
   12ea0:	2cc50513          	addi	a0,a0,716 # 12cc <.Lline_table_start1+0x10a1>
   12ea4:	4615                	li	a2,5
   12ea6:	4581                	li	a1,0
   12ea8:	ffffe097          	auipc	ra,0xffffe
   12eac:	7f4080e7          	jalr	2036(ra) # 1169c <_ZN9allow_pin7command17h1eb46760111c3605E>
   12eb0:	8905                	andi	a0,a0,1
   12eb2:	50050463          	beqz	a0,133ba <_start+0x1d10>
   12eb6:	4785                	li	a5,1
   12eb8:	8b2e                	mv	s6,a1
   12eba:	46414703          	lbu	a4,1124(sp)
   12ebe:	4489                	li	s1,2
   12ec0:	00970a63          	beq	a4,s1,12ed4 <_start+0x182a>
   12ec4:	6505                	lui	a0,0x1
   12ec6:	2cc50513          	addi	a0,a0,716 # 12cc <.Lline_table_start1+0x10a1>
   12eca:	4595                	li	a1,5
   12ecc:	4601                	li	a2,0
   12ece:	4681                	li	a3,0
   12ed0:	00000073          	ecall
   12ed4:	56c14703          	lbu	a4,1388(sp)
   12ed8:	00970a63          	beq	a4,s1,12eec <_start+0x1842>
   12edc:	6505                	lui	a0,0x1
   12ede:	2cc50513          	addi	a0,a0,716 # 12cc <.Lline_table_start1+0x10a1>
   12ee2:	4581                	li	a1,0
   12ee4:	4601                	li	a2,0
   12ee6:	4681                	li	a3,0
   12ee8:	00000073          	ecall
   12eec:	c399                	beqz	a5,12ef2 <_start+0x1848>
   12eee:	2420606f          	j	19130 <_start+0x7a86>
   12ef2:	00006297          	auipc	t0,0x6
   12ef6:	600282e7          	jalr	t0,1536(t0) # 194f2 <OUTLINED_FUNCTION_13>
   12efa:	464d                	li	a2,19
   12efc:	00007097          	auipc	ra,0x7
   12f00:	a7e080e7          	jalr	-1410(ra) # 1997a <memcpy>
   12f04:	52410513          	addi	a0,sp,1316
   12f08:	048c                	addi	a1,sp,576
   12f0a:	464d                	li	a2,19
   12f0c:	00007097          	auipc	ra,0x7
   12f10:	a6e080e7          	jalr	-1426(ra) # 1997a <memcpy>
   12f14:	00006297          	auipc	t0,0x6
   12f18:	596282e7          	jalr	t0,1430(t0) # 194aa <OUTLINED_FUNCTION_11>
   12f1c:	05000613          	li	a2,80
   12f20:	854a                	mv	a0,s2
   12f22:	4581                	li	a1,0
   12f24:	00007097          	auipc	ra,0x7
   12f28:	9ea080e7          	jalr	-1558(ra) # 1990e <memset>
   12f2c:	00007297          	auipc	t0,0x7
   12f30:	954282e7          	jalr	t0,-1708(t0) # 19880 <OUTLINED_FUNCTION_50>
   12f34:	459d                	li	a1,7
   12f36:	aee50793          	addi	a5,a0,-1298
   12f3a:	46e9                	li	a3,26
   12f3c:	4711                	li	a4,4
   12f3e:	853e                	mv	a0,a5
   12f40:	00000073          	ecall
   12f44:	02950d63          	beq	a0,s1,12f7e <_start+0x18d4>
   12f48:	853e                	mv	a0,a5
   12f4a:	864a                	mv	a2,s2
   12f4c:	50810e23          	sb	s0,1308(sp)
   12f50:	478d                	li	a5,3
   12f52:	4591                	li	a1,4
   12f54:	05000693          	li	a3,80
   12f58:	470d                	li	a4,3
   12f5a:	00000073          	ecall
   12f5e:	02950063          	beq	a0,s1,12f7e <_start+0x18d4>
   12f62:	56f10623          	sb	a5,1388(sp)
   12f66:	6505                	lui	a0,0x1
   12f68:	459d                	li	a1,7
   12f6a:	aee50513          	addi	a0,a0,-1298 # aee <.Lline_table_start1+0x8c3>
   12f6e:	4611                	li	a2,4
   12f70:	ffffe097          	auipc	ra,0xffffe
   12f74:	72c080e7          	jalr	1836(ra) # 1169c <_ZN9allow_pin7command17h1eb46760111c3605E>
   12f78:	8905                	andi	a0,a0,1
   12f7a:	48050b63          	beqz	a0,13410 <_start+0x1d66>
   12f7e:	4785                	li	a5,1
   12f80:	8b2e                	mv	s6,a1
   12f82:	56c14703          	lbu	a4,1388(sp)
   12f86:	4489                	li	s1,2
   12f88:	00970a63          	beq	a4,s1,12f9c <_start+0x18f2>
   12f8c:	6505                	lui	a0,0x1
   12f8e:	aee50513          	addi	a0,a0,-1298 # aee <.Lline_table_start1+0x8c3>
   12f92:	4591                	li	a1,4
   12f94:	4601                	li	a2,0
   12f96:	4681                	li	a3,0
   12f98:	00000073          	ecall
   12f9c:	51c14703          	lbu	a4,1308(sp)
   12fa0:	00970a63          	beq	a4,s1,12fb4 <_start+0x190a>
   12fa4:	6505                	lui	a0,0x1
   12fa6:	aee50513          	addi	a0,a0,-1298 # aee <.Lline_table_start1+0x8c3>
   12faa:	459d                	li	a1,7
   12fac:	4601                	li	a2,0
   12fae:	4681                	li	a3,0
   12fb0:	00000073          	ecall
   12fb4:	c399                	beqz	a5,12fba <_start+0x1910>
   12fb6:	17a0606f          	j	19130 <_start+0x7a86>
   12fba:	00006297          	auipc	t0,0x6
   12fbe:	514282e7          	jalr	t0,1300(t0) # 194ce <OUTLINED_FUNCTION_12>
   12fc2:	04900613          	li	a2,73
   12fc6:	00007097          	auipc	ra,0x7
   12fca:	9b4080e7          	jalr	-1612(ra) # 1997a <memcpy>
   12fce:	57410513          	addi	a0,sp,1396
   12fd2:	46410593          	addi	a1,sp,1124
   12fd6:	04900613          	li	a2,73
   12fda:	00007097          	auipc	ra,0x7
   12fde:	9a0080e7          	jalr	-1632(ra) # 1997a <memcpy>
   12fe2:	00006297          	auipc	t0,0x6
   12fe6:	4a4282e7          	jalr	t0,1188(t0) # 19486 <OUTLINED_FUNCTION_10>
   12fea:	03c00613          	li	a2,60
   12fee:	854e                	mv	a0,s3
   12ff0:	4581                	li	a1,0
   12ff2:	00007097          	auipc	ra,0x7
   12ff6:	91c080e7          	jalr	-1764(ra) # 1990e <memset>
   12ffa:	00007297          	auipc	t0,0x7
   12ffe:	8aa282e7          	jalr	t0,-1878(t0) # 198a4 <OUTLINED_FUNCTION_53>
   13002:	458d                	li	a1,3
   13004:	d7a50793          	addi	a5,a0,-646
   13008:	05000693          	li	a3,80
   1300c:	4711                	li	a4,4
   1300e:	853e                	mv	a0,a5
   13010:	00000073          	ecall
   13014:	02950c63          	beq	a0,s1,1304c <_start+0x19a2>
   13018:	00007297          	auipc	t0,0x7
   1301c:	8de282e7          	jalr	t0,-1826(t0) # 198f6 <OUTLINED_FUNCTION_59>
   13020:	45a5                	li	a1,9
   13022:	03c00693          	li	a3,60
   13026:	470d                	li	a4,3
   13028:	00000073          	ecall
   1302c:	02950063          	beq	a0,s1,1304c <_start+0x19a2>
   13030:	46f10223          	sb	a5,1124(sp)
   13034:	6505                	lui	a0,0x1
   13036:	458d                	li	a1,3
   13038:	d7a50513          	addi	a0,a0,-646 # d7a <.Lline_table_start1+0xb4f>
   1303c:	4625                	li	a2,9
   1303e:	ffffe097          	auipc	ra,0xffffe
   13042:	65e080e7          	jalr	1630(ra) # 1169c <_ZN9allow_pin7command17h1eb46760111c3605E>
   13046:	8905                	andi	a0,a0,1
   13048:	42050063          	beqz	a0,13468 <_start+0x1dbe>
   1304c:	4785                	li	a5,1
   1304e:	8b2e                	mv	s6,a1
   13050:	46414703          	lbu	a4,1124(sp)
   13054:	4489                	li	s1,2
   13056:	00970a63          	beq	a4,s1,1306a <_start+0x19c0>
   1305a:	6505                	lui	a0,0x1
   1305c:	d7a50513          	addi	a0,a0,-646 # d7a <.Lline_table_start1+0xb4f>
   13060:	45a5                	li	a1,9
   13062:	4601                	li	a2,0
   13064:	4681                	li	a3,0
   13066:	00000073          	ecall
   1306a:	56c14703          	lbu	a4,1388(sp)
   1306e:	00970a63          	beq	a4,s1,13082 <_start+0x19d8>
   13072:	6505                	lui	a0,0x1
   13074:	d7a50513          	addi	a0,a0,-646 # d7a <.Lline_table_start1+0xb4f>
   13078:	458d                	li	a1,3
   1307a:	4601                	li	a2,0
   1307c:	4681                	li	a3,0
   1307e:	00000073          	ecall
   13082:	c399                	beqz	a5,13088 <_start+0x19de>
   13084:	0ac0606f          	j	19130 <_start+0x7a86>
   13088:	00006297          	auipc	t0,0x6
   1308c:	4c8282e7          	jalr	t0,1224(t0) # 19550 <OUTLINED_FUNCTION_16>
   13090:	03500613          	li	a2,53
   13094:	00007097          	auipc	ra,0x7
   13098:	8e6080e7          	jalr	-1818(ra) # 1997a <memcpy>
   1309c:	57410513          	addi	a0,sp,1396
   130a0:	048c                	addi	a1,sp,576
   130a2:	03500613          	li	a2,53
   130a6:	00007097          	auipc	ra,0x7
   130aa:	8d4080e7          	jalr	-1836(ra) # 1997a <memcpy>
   130ae:	00006297          	auipc	t0,0x6
   130b2:	3b4282e7          	jalr	t0,948(t0) # 19462 <OUTLINED_FUNCTION_9>
   130b6:	03200613          	li	a2,50
   130ba:	854e                	mv	a0,s3
   130bc:	4581                	li	a1,0
   130be:	00007097          	auipc	ra,0x7
   130c2:	850080e7          	jalr	-1968(ra) # 1990e <memset>
   130c6:	864a                	mv	a2,s2
   130c8:	46810223          	sb	s0,1124(sp)
   130cc:	6509                	lui	a0,0x2
   130ce:	4491                	li	s1,4
   130d0:	4599                	li	a1,6
   130d2:	b1e50793          	addi	a5,a0,-1250 # 1b1e <.Lline_table_start1+0x18f3>
   130d6:	03c00693          	li	a3,60
   130da:	4711                	li	a4,4
   130dc:	853e                	mv	a0,a5
   130de:	00000073          	ecall
   130e2:	02850c63          	beq	a0,s0,1311a <_start+0x1a70>
   130e6:	00007297          	auipc	t0,0x7
   130ea:	804282e7          	jalr	t0,-2044(t0) # 198ea <OUTLINED_FUNCTION_58>
   130ee:	45a1                	li	a1,8
   130f0:	03200693          	li	a3,50
   130f4:	470d                	li	a4,3
   130f6:	00000073          	ecall
   130fa:	02850063          	beq	a0,s0,1311a <_start+0x1a70>
   130fe:	46f10223          	sb	a5,1124(sp)
   13102:	6509                	lui	a0,0x2
   13104:	4599                	li	a1,6
   13106:	b1e50513          	addi	a0,a0,-1250 # 1b1e <.Lline_table_start1+0x18f3>
   1310a:	4621                	li	a2,8
   1310c:	ffffe097          	auipc	ra,0xffffe
   13110:	590080e7          	jalr	1424(ra) # 1169c <_ZN9allow_pin7command17h1eb46760111c3605E>
   13114:	8905                	andi	a0,a0,1
   13116:	56050f63          	beqz	a0,13694 <_start+0x1fea>
   1311a:	4785                	li	a5,1
   1311c:	8b2e                	mv	s6,a1
   1311e:	46414703          	lbu	a4,1124(sp)
   13122:	4489                	li	s1,2
   13124:	00970a63          	beq	a4,s1,13138 <_start+0x1a8e>
   13128:	6509                	lui	a0,0x2
   1312a:	b1e50513          	addi	a0,a0,-1250 # 1b1e <.Lline_table_start1+0x18f3>
   1312e:	45a1                	li	a1,8
   13130:	4601                	li	a2,0
   13132:	4681                	li	a3,0
   13134:	00000073          	ecall
   13138:	56c14703          	lbu	a4,1388(sp)
   1313c:	00970a63          	beq	a4,s1,13150 <_start+0x1aa6>
   13140:	6509                	lui	a0,0x2
   13142:	b1e50513          	addi	a0,a0,-1250 # 1b1e <.Lline_table_start1+0x18f3>
   13146:	4599                	li	a1,6
   13148:	4601                	li	a2,0
   1314a:	4681                	li	a3,0
   1314c:	00000073          	ecall
   13150:	c399                	beqz	a5,13156 <_start+0x1aac>
   13152:	7df0506f          	j	19130 <_start+0x7a86>
   13156:	00006297          	auipc	t0,0x6
   1315a:	622282e7          	jalr	t0,1570(t0) # 19778 <OUTLINED_FUNCTION_37>
   1315e:	46510a13          	addi	s4,sp,1125
   13162:	00006297          	auipc	t0,0x6
   13166:	6fc282e7          	jalr	t0,1788(t0) # 1985e <OUTLINED_FUNCTION_47>
   1316a:	0488                	addi	a0,sp,576
   1316c:	51c10593          	addi	a1,sp,1308
   13170:	02b00613          	li	a2,43
   13174:	00007097          	auipc	ra,0x7
   13178:	806080e7          	jalr	-2042(ra) # 1997a <memcpy>
   1317c:	46c10993          	addi	s3,sp,1132
   13180:	048c                	addi	a1,sp,576
   13182:	02b00613          	li	a2,43
   13186:	854e                	mv	a0,s3
   13188:	00006097          	auipc	ra,0x6
   1318c:	7f2080e7          	jalr	2034(ra) # 1997a <memcpy>
   13190:	4489                	li	s1,2
   13192:	018b5513          	srli	a0,s6,0x18
   13196:	010b5593          	srli	a1,s6,0x10
   1319a:	46a105a3          	sb	a0,1131(sp)
   1319e:	008b5513          	srli	a0,s6,0x8
   131a2:	46910223          	sb	s1,1124(sp)
   131a6:	47610423          	sb	s6,1128(sp)
   131aa:	46a104a3          	sb	a0,1129(sp)
   131ae:	46b10523          	sb	a1,1130(sp)
   131b2:	03200613          	li	a2,50
   131b6:	854a                	mv	a0,s2
   131b8:	4581                	li	a1,0
   131ba:	00006097          	auipc	ra,0x6
   131be:	754080e7          	jalr	1876(ra) # 1990e <memset>
   131c2:	8652                	mv	a2,s4
   131c4:	56910623          	sb	s1,1388(sp)
   131c8:	6509                	lui	a0,0x2
   131ca:	4411                	li	s0,4
   131cc:	458d                	li	a1,3
   131ce:	f0750793          	addi	a5,a0,-249 # 1f07 <.Lline_table_start1+0x1cdc>
   131d2:	03200693          	li	a3,50
   131d6:	4711                	li	a4,4
   131d8:	853e                	mv	a0,a5
   131da:	00000073          	ecall
   131de:	28951c63          	bne	a0,s1,13476 <_start+0x1dcc>
   131e2:	4405                	li	s0,1
   131e4:	a4f1                	j	134b0 <_start+0x1e06>
   131e6:	56c14703          	lbu	a4,1388(sp)
   131ea:	4789                	li	a5,2
   131ec:	00f71b63          	bne	a4,a5,13202 <_start+0x1b58>
   131f0:	470d                	li	a4,3
   131f2:	a035                	j	1321e <_start+0x1b74>
   131f4:	51c14703          	lbu	a4,1308(sp)
   131f8:	4789                	li	a5,2
   131fa:	06f71063          	bne	a4,a5,1325a <_start+0x1bb0>
   131fe:	470d                	li	a4,3
   13200:	a895                	j	13274 <_start+0x1bca>
   13202:	6505                	lui	a0,0x1
   13204:	a7050513          	addi	a0,a0,-1424 # a70 <.Lline_table_start1+0x845>
   13208:	45a5                	li	a1,9
   1320a:	4601                	li	a2,0
   1320c:	4681                	li	a3,0
   1320e:	00000073          	ecall
   13212:	46414703          	lbu	a4,1124(sp)
   13216:	56f10623          	sb	a5,1388(sp)
   1321a:	00f70a63          	beq	a4,a5,1322e <_start+0x1b84>
   1321e:	6505                	lui	a0,0x1
   13220:	a7050513          	addi	a0,a0,-1424 # a70 <.Lline_table_start1+0x845>
   13224:	45a1                	li	a1,8
   13226:	4601                	li	a2,0
   13228:	4681                	li	a3,0
   1322a:	00000073          	ecall
   1322e:	00006297          	auipc	t0,0x6
   13232:	1ac282e7          	jalr	t0,428(t0) # 193da <OUTLINED_FUNCTION_6>
   13236:	00006297          	auipc	t0,0x6
   1323a:	42e282e7          	jalr	t0,1070(t0) # 19664 <OUTLINED_FUNCTION_26>
   1323e:	4645                	li	a2,17
   13240:	00006097          	auipc	ra,0x6
   13244:	73a080e7          	jalr	1850(ra) # 1997a <memcpy>
   13248:	4781                	li	a5,0
   1324a:	fa0ff06f          	j	129ea <_start+0x1340>
   1324e:	56c14703          	lbu	a4,1388(sp)
   13252:	04871e63          	bne	a4,s0,132ae <_start+0x1c04>
   13256:	470d                	li	a4,3
   13258:	a88d                	j	132ca <_start+0x1c20>
   1325a:	0f300513          	li	a0,243
   1325e:	45a1                	li	a1,8
   13260:	4601                	li	a2,0
   13262:	4681                	li	a3,0
   13264:	00000073          	ecall
   13268:	56c14703          	lbu	a4,1388(sp)
   1326c:	50f10e23          	sb	a5,1308(sp)
   13270:	00f70963          	beq	a4,a5,13282 <_start+0x1bd8>
   13274:	0f300513          	li	a0,243
   13278:	4591                	li	a1,4
   1327a:	4601                	li	a2,0
   1327c:	4681                	li	a3,0
   1327e:	00000073          	ecall
   13282:	00006297          	auipc	t0,0x6
   13286:	4b2282e7          	jalr	t0,1202(t0) # 19734 <OUTLINED_FUNCTION_34>
   1328a:	00006297          	auipc	t0,0x6
   1328e:	008282e7          	jalr	t0,8(t0) # 19292 <OUTLINED_FUNCTION_0>
   13292:	02f00613          	li	a2,47
   13296:	00006097          	auipc	ra,0x6
   1329a:	6e4080e7          	jalr	1764(ra) # 1997a <memcpy>
   1329e:	4781                	li	a5,0
   132a0:	b801                	j	12ab0 <_start+0x1406>
   132a2:	56c14703          	lbu	a4,1388(sp)
   132a6:	0a871f63          	bne	a4,s0,13364 <_start+0x1cba>
   132aa:	470d                	li	a4,3
   132ac:	a8c9                	j	1337e <_start+0x1cd4>
   132ae:	6509                	lui	a0,0x2
   132b0:	3c650513          	addi	a0,a0,966 # 23c6 <.Lline_table_start1+0x219b>
   132b4:	4591                	li	a1,4
   132b6:	4601                	li	a2,0
   132b8:	4681                	li	a3,0
   132ba:	00000073          	ecall
   132be:	00006297          	auipc	t0,0x6
   132c2:	5da282e7          	jalr	t0,1498(t0) # 19898 <OUTLINED_FUNCTION_52>
   132c6:	00a70a63          	beq	a4,a0,132da <_start+0x1c30>
   132ca:	6509                	lui	a0,0x2
   132cc:	3c650513          	addi	a0,a0,966 # 23c6 <.Lline_table_start1+0x219b>
   132d0:	4589                	li	a1,2
   132d2:	4601                	li	a2,0
   132d4:	4681                	li	a3,0
   132d6:	00000073          	ecall
   132da:	00006297          	auipc	t0,0x6
   132de:	44a282e7          	jalr	t0,1098(t0) # 19724 <OUTLINED_FUNCTION_33>
   132e2:	00006297          	auipc	t0,0x6
   132e6:	fe6282e7          	jalr	t0,-26(t0) # 192c8 <OUTLINED_FUNCTION_1>
   132ea:	02d00613          	li	a2,45
   132ee:	00006097          	auipc	ra,0x6
   132f2:	68c080e7          	jalr	1676(ra) # 1997a <memcpy>
   132f6:	4781                	li	a5,0
   132f8:	b059                	j	12b7e <_start+0x14d4>
   132fa:	00010ab7          	lui	s5,0x10
   132fe:	232a8a93          	addi	s5,s5,562 # 10232 <.Lanon.49c9f8067fe4468184af16d7576940c9.6>
   13302:	51c10513          	addi	a0,sp,1308
   13306:	ffffe097          	auipc	ra,0xffffe
   1330a:	29c080e7          	jalr	668(ra) # 115a2 <_ZN9allow_pin12dynamic_type23Buffer$LT$B$C$_$C$_$GT$7unallow17h39523eacccb2eadcE>
   1330e:	56c10513          	addi	a0,sp,1388
   13312:	ffffe097          	auipc	ra,0xffffe
   13316:	290080e7          	jalr	656(ra) # 115a2 <_ZN9allow_pin12dynamic_type23Buffer$LT$B$C$_$C$_$GT$7unallow17h39523eacccb2eadcE>
   1331a:	56c14483          	lbu	s1,1388(sp)
   1331e:	ffe48593          	addi	a1,s1,-2
   13322:	4809                	li	a6,2
   13324:	00b035b3          	snez	a1,a1
   13328:	01048363          	beq	s1,a6,1332e <_start+0x1c84>
   1332c:	8a56                	mv	s4,s5
   1332e:	001a4603          	lbu	a2,1(s4)
   13332:	000a4683          	lbu	a3,0(s4)
   13336:	002a4703          	lbu	a4,2(s4)
   1333a:	00006297          	auipc	t0,0x6
   1333e:	466282e7          	jalr	t0,1126(t0) # 197a0 <OUTLINED_FUNCTION_39>
   13342:	15fd                	addi	a1,a1,-1
   13344:	01048463          	beq	s1,a6,1334c <_start+0x1ca2>
   13348:	007a8913          	addi	s2,s5,7
   1334c:	00c5fb33          	and	s6,a1,a2
   13350:	0488                	addi	a0,sp,576
   13352:	03100613          	li	a2,49
   13356:	85ca                	mv	a1,s2
   13358:	00006097          	auipc	ra,0x6
   1335c:	622080e7          	jalr	1570(ra) # 1997a <memcpy>
   13360:	4781                	li	a5,0
   13362:	b2d9                	j	12d28 <_start+0x167e>
   13364:	20900513          	li	a0,521
   13368:	4589                	li	a1,2
   1336a:	4601                	li	a2,0
   1336c:	4681                	li	a3,0
   1336e:	00000073          	ecall
   13372:	00006297          	auipc	t0,0x6
   13376:	526282e7          	jalr	t0,1318(t0) # 19898 <OUTLINED_FUNCTION_52>
   1337a:	00a70963          	beq	a4,a0,1338c <_start+0x1ce2>
   1337e:	20900513          	li	a0,521
   13382:	45a1                	li	a1,8
   13384:	4601                	li	a2,0
   13386:	4681                	li	a3,0
   13388:	00000073          	ecall
   1338c:	00006297          	auipc	t0,0x6
   13390:	04e282e7          	jalr	t0,78(t0) # 193da <OUTLINED_FUNCTION_6>
   13394:	00006297          	auipc	t0,0x6
   13398:	2d0282e7          	jalr	t0,720(t0) # 19664 <OUTLINED_FUNCTION_26>
   1339c:	02700613          	li	a2,39
   133a0:	00006097          	auipc	ra,0x6
   133a4:	5da080e7          	jalr	1498(ra) # 1997a <memcpy>
   133a8:	4781                	li	a5,0
   133aa:	b845                	j	12c5a <_start+0x15b0>
   133ac:	56c14703          	lbu	a4,1388(sp)
   133b0:	4789                	li	a5,2
   133b2:	00f71b63          	bne	a4,a5,133c8 <_start+0x1d1e>
   133b6:	470d                	li	a4,3
   133b8:	a02d                	j	133e2 <_start+0x1d38>
   133ba:	56c14703          	lbu	a4,1388(sp)
   133be:	4789                	li	a5,2
   133c0:	04f71f63          	bne	a4,a5,1341e <_start+0x1d74>
   133c4:	470d                	li	a4,3
   133c6:	a895                	j	1343a <_start+0x1d90>
   133c8:	12e00513          	li	a0,302
   133cc:	45a1                	li	a1,8
   133ce:	4601                	li	a2,0
   133d0:	4681                	li	a3,0
   133d2:	00000073          	ecall
   133d6:	46414703          	lbu	a4,1124(sp)
   133da:	56f10623          	sb	a5,1388(sp)
   133de:	00f70963          	beq	a4,a5,133f0 <_start+0x1d46>
   133e2:	12e00513          	li	a0,302
   133e6:	458d                	li	a1,3
   133e8:	4601                	li	a2,0
   133ea:	4681                	li	a3,0
   133ec:	00000073          	ecall
   133f0:	00006297          	auipc	t0,0x6
   133f4:	334282e7          	jalr	t0,820(t0) # 19724 <OUTLINED_FUNCTION_33>
   133f8:	00006297          	auipc	t0,0x6
   133fc:	ed0282e7          	jalr	t0,-304(t0) # 192c8 <OUTLINED_FUNCTION_1>
   13400:	02d00613          	li	a2,45
   13404:	00006097          	auipc	ra,0x6
   13408:	576080e7          	jalr	1398(ra) # 1997a <memcpy>
   1340c:	4781                	li	a5,0
   1340e:	b2dd                	j	12df4 <_start+0x174a>
   13410:	51c14703          	lbu	a4,1308(sp)
   13414:	4789                	li	a5,2
   13416:	22f71963          	bne	a4,a5,13648 <_start+0x1f9e>
   1341a:	470d                	li	a4,3
   1341c:	a4a1                	j	13664 <_start+0x1fba>
   1341e:	6505                	lui	a0,0x1
   13420:	2cc50513          	addi	a0,a0,716 # 12cc <.Lline_table_start1+0x10a1>
   13424:	4581                	li	a1,0
   13426:	4601                	li	a2,0
   13428:	4681                	li	a3,0
   1342a:	00000073          	ecall
   1342e:	46414703          	lbu	a4,1124(sp)
   13432:	56f10623          	sb	a5,1388(sp)
   13436:	00f70a63          	beq	a4,a5,1344a <_start+0x1da0>
   1343a:	6505                	lui	a0,0x1
   1343c:	2cc50513          	addi	a0,a0,716 # 12cc <.Lline_table_start1+0x10a1>
   13440:	4595                	li	a1,5
   13442:	4601                	li	a2,0
   13444:	4681                	li	a3,0
   13446:	00000073          	ecall
   1344a:	00006297          	auipc	t0,0x6
   1344e:	f90282e7          	jalr	t0,-112(t0) # 193da <OUTLINED_FUNCTION_6>
   13452:	00006297          	auipc	t0,0x6
   13456:	212282e7          	jalr	t0,530(t0) # 19664 <OUTLINED_FUNCTION_26>
   1345a:	464d                	li	a2,19
   1345c:	00006097          	auipc	ra,0x6
   13460:	51e080e7          	jalr	1310(ra) # 1997a <memcpy>
   13464:	4781                	li	a5,0
   13466:	bc91                	j	12eba <_start+0x1810>
   13468:	56c14703          	lbu	a4,1388(sp)
   1346c:	4789                	li	a5,2
   1346e:	22f71a63          	bne	a4,a5,136a2 <_start+0x1ff8>
   13472:	470d                	li	a4,3
   13474:	a4a9                	j	136be <_start+0x2014>
   13476:	853e                	mv	a0,a5
   13478:	864a                	mv	a2,s2
   1347a:	46810223          	sb	s0,1124(sp)
   1347e:	4405                	li	s0,1
   13480:	478d                	li	a5,3
   13482:	4585                	li	a1,1
   13484:	03200693          	li	a3,50
   13488:	470d                	li	a4,3
   1348a:	00000073          	ecall
   1348e:	02950163          	beq	a0,s1,134b0 <_start+0x1e06>
   13492:	56f10623          	sb	a5,1388(sp)
   13496:	6509                	lui	a0,0x2
   13498:	458d                	li	a1,3
   1349a:	f0750513          	addi	a0,a0,-249 # 1f07 <.Lline_table_start1+0x1cdc>
   1349e:	4605                	li	a2,1
   134a0:	4405                	li	s0,1
   134a2:	ffffe097          	auipc	ra,0xffffe
   134a6:	1fa080e7          	jalr	506(ra) # 1169c <_ZN9allow_pin7command17h1eb46760111c3605E>
   134aa:	8905                	andi	a0,a0,1
   134ac:	24050163          	beqz	a0,136ee <_start+0x2044>
   134b0:	8b2e                	mv	s6,a1
   134b2:	56c14703          	lbu	a4,1388(sp)
   134b6:	4789                	li	a5,2
   134b8:	00f70a63          	beq	a4,a5,134cc <_start+0x1e22>
   134bc:	6509                	lui	a0,0x2
   134be:	f0750513          	addi	a0,a0,-249 # 1f07 <.Lline_table_start1+0x1cdc>
   134c2:	4585                	li	a1,1
   134c4:	4601                	li	a2,0
   134c6:	4681                	li	a3,0
   134c8:	00000073          	ecall
   134cc:	46414703          	lbu	a4,1124(sp)
   134d0:	00f70a63          	beq	a4,a5,134e4 <_start+0x1e3a>
   134d4:	6509                	lui	a0,0x2
   134d6:	f0750513          	addi	a0,a0,-249 # 1f07 <.Lline_table_start1+0x1cdc>
   134da:	458d                	li	a1,3
   134dc:	4601                	li	a2,0
   134de:	4681                	li	a3,0
   134e0:	00000073          	ecall
   134e4:	c019                	beqz	s0,134ea <_start+0x1e40>
   134e6:	44b0506f          	j	19130 <_start+0x7a86>
   134ea:	00006297          	auipc	t0,0x6
   134ee:	066282e7          	jalr	t0,102(t0) # 19550 <OUTLINED_FUNCTION_16>
   134f2:	02b00613          	li	a2,43
   134f6:	00006097          	auipc	ra,0x6
   134fa:	484080e7          	jalr	1156(ra) # 1997a <memcpy>
   134fe:	57410513          	addi	a0,sp,1396
   13502:	048c                	addi	a1,sp,576
   13504:	02b00613          	li	a2,43
   13508:	00006097          	auipc	ra,0x6
   1350c:	472080e7          	jalr	1138(ra) # 1997a <memcpy>
   13510:	00006297          	auipc	t0,0x6
   13514:	f52282e7          	jalr	t0,-174(t0) # 19462 <OUTLINED_FUNCTION_9>
   13518:	4641                	li	a2,16
   1351a:	8552                	mv	a0,s4
   1351c:	4581                	li	a1,0
   1351e:	00006097          	auipc	ra,0x6
   13522:	3f0080e7          	jalr	1008(ra) # 1990e <memset>
   13526:	864a                	mv	a2,s2
   13528:	46810223          	sb	s0,1124(sp)
   1352c:	6509                	lui	a0,0x2
   1352e:	4491                	li	s1,4
   13530:	4591                	li	a1,4
   13532:	9d650793          	addi	a5,a0,-1578 # 19d6 <.Lline_table_start1+0x17ab>
   13536:	03200693          	li	a3,50
   1353a:	4711                	li	a4,4
   1353c:	853e                	mv	a0,a5
   1353e:	00000073          	ecall
   13542:	02850c63          	beq	a0,s0,1357a <_start+0x1ed0>
   13546:	853e                	mv	a0,a5
   13548:	8652                	mv	a2,s4
   1354a:	56910623          	sb	s1,1388(sp)
   1354e:	478d                	li	a5,3
   13550:	45a5                	li	a1,9
   13552:	46c1                	li	a3,16
   13554:	470d                	li	a4,3
   13556:	00000073          	ecall
   1355a:	02850063          	beq	a0,s0,1357a <_start+0x1ed0>
   1355e:	46f10223          	sb	a5,1124(sp)
   13562:	6509                	lui	a0,0x2
   13564:	4591                	li	a1,4
   13566:	9d650513          	addi	a0,a0,-1578 # 19d6 <.Lline_table_start1+0x17ab>
   1356a:	4625                	li	a2,9
   1356c:	ffffe097          	auipc	ra,0xffffe
   13570:	130080e7          	jalr	304(ra) # 1169c <_ZN9allow_pin7command17h1eb46760111c3605E>
   13574:	8905                	andi	a0,a0,1
   13576:	1c050963          	beqz	a0,13748 <_start+0x209e>
   1357a:	4785                	li	a5,1
   1357c:	8b2e                	mv	s6,a1
   1357e:	46414703          	lbu	a4,1124(sp)
   13582:	4489                	li	s1,2
   13584:	00970a63          	beq	a4,s1,13598 <_start+0x1eee>
   13588:	6509                	lui	a0,0x2
   1358a:	9d650513          	addi	a0,a0,-1578 # 19d6 <.Lline_table_start1+0x17ab>
   1358e:	45a5                	li	a1,9
   13590:	4601                	li	a2,0
   13592:	4681                	li	a3,0
   13594:	00000073          	ecall
   13598:	56c14703          	lbu	a4,1388(sp)
   1359c:	00970a63          	beq	a4,s1,135b0 <_start+0x1f06>
   135a0:	6509                	lui	a0,0x2
   135a2:	9d650513          	addi	a0,a0,-1578 # 19d6 <.Lline_table_start1+0x17ab>
   135a6:	4591                	li	a1,4
   135a8:	4601                	li	a2,0
   135aa:	4681                	li	a3,0
   135ac:	00000073          	ecall
   135b0:	c399                	beqz	a5,135b6 <_start+0x1f0c>
   135b2:	37f0506f          	j	19130 <_start+0x7a86>
   135b6:	00006297          	auipc	t0,0x6
   135ba:	216282e7          	jalr	t0,534(t0) # 197cc <OUTLINED_FUNCTION_40>
   135be:	2e812683          	lw	a3,744(sp)
   135c2:	2ec12703          	lw	a4,748(sp)
   135c6:	2f014783          	lbu	a5,752(sp)
   135ca:	00006297          	auipc	t0,0x6
   135ce:	210282e7          	jalr	t0,528(t0) # 197da <OUTLINED_FUNCTION_41>
   135d2:	51d10413          	addi	s0,sp,1309
   135d6:	24d12023          	sw	a3,576(sp)
   135da:	24e12223          	sw	a4,580(sp)
   135de:	24f10423          	sb	a5,584(sp)
   135e2:	52410513          	addi	a0,sp,1316
   135e6:	048c                	addi	a1,sp,576
   135e8:	4625                	li	a2,9
   135ea:	00006097          	auipc	ra,0x6
   135ee:	390080e7          	jalr	912(ra) # 1997a <memcpy>
   135f2:	00006297          	auipc	t0,0x6
   135f6:	eb8282e7          	jalr	t0,-328(t0) # 194aa <OUTLINED_FUNCTION_11>
   135fa:	03600613          	li	a2,54
   135fe:	854a                	mv	a0,s2
   13600:	4581                	li	a1,0
   13602:	00006097          	auipc	ra,0x6
   13606:	30c080e7          	jalr	780(ra) # 1990e <memset>
   1360a:	8622                	mv	a2,s0
   1360c:	56910623          	sb	s1,1388(sp)
   13610:	6509                	lui	a0,0x2
   13612:	4405                	li	s0,1
   13614:	4811                	li	a6,4
   13616:	4585                	li	a1,1
   13618:	98950793          	addi	a5,a0,-1655 # 1989 <.Lline_table_start1+0x175e>
   1361c:	46c1                	li	a3,16
   1361e:	4711                	li	a4,4
   13620:	853e                	mv	a0,a5
   13622:	00000073          	ecall
   13626:	14950763          	beq	a0,s1,13774 <_start+0x20ca>
   1362a:	853e                	mv	a0,a5
   1362c:	864a                	mv	a2,s2
   1362e:	51010e23          	sb	a6,1308(sp)
   13632:	478d                	li	a5,3
   13634:	459d                	li	a1,7
   13636:	03600693          	li	a3,54
   1363a:	470d                	li	a4,3
   1363c:	00000073          	ecall
   13640:	10951b63          	bne	a0,s1,13756 <_start+0x20ac>
   13644:	4405                	li	s0,1
   13646:	a23d                	j	13774 <_start+0x20ca>
   13648:	6505                	lui	a0,0x1
   1364a:	aee50513          	addi	a0,a0,-1298 # aee <.Lline_table_start1+0x8c3>
   1364e:	459d                	li	a1,7
   13650:	4601                	li	a2,0
   13652:	4681                	li	a3,0
   13654:	00000073          	ecall
   13658:	56c14703          	lbu	a4,1388(sp)
   1365c:	50f10e23          	sb	a5,1308(sp)
   13660:	00f70a63          	beq	a4,a5,13674 <_start+0x1fca>
   13664:	6505                	lui	a0,0x1
   13666:	aee50513          	addi	a0,a0,-1298 # aee <.Lline_table_start1+0x8c3>
   1366a:	4591                	li	a1,4
   1366c:	4601                	li	a2,0
   1366e:	4681                	li	a3,0
   13670:	00000073          	ecall
   13674:	00006297          	auipc	t0,0x6
   13678:	0c0282e7          	jalr	t0,192(t0) # 19734 <OUTLINED_FUNCTION_34>
   1367c:	00006297          	auipc	t0,0x6
   13680:	c16282e7          	jalr	t0,-1002(t0) # 19292 <OUTLINED_FUNCTION_0>
   13684:	04900613          	li	a2,73
   13688:	00006097          	auipc	ra,0x6
   1368c:	2f2080e7          	jalr	754(ra) # 1997a <memcpy>
   13690:	4781                	li	a5,0
   13692:	b8c5                	j	12f82 <_start+0x18d8>
   13694:	56c14703          	lbu	a4,1388(sp)
   13698:	4789                	li	a5,2
   1369a:	06f71163          	bne	a4,a5,136fc <_start+0x2052>
   1369e:	470d                	li	a4,3
   136a0:	a8a5                	j	13718 <_start+0x206e>
   136a2:	6505                	lui	a0,0x1
   136a4:	d7a50513          	addi	a0,a0,-646 # d7a <.Lline_table_start1+0xb4f>
   136a8:	458d                	li	a1,3
   136aa:	4601                	li	a2,0
   136ac:	4681                	li	a3,0
   136ae:	00000073          	ecall
   136b2:	46414703          	lbu	a4,1124(sp)
   136b6:	56f10623          	sb	a5,1388(sp)
   136ba:	00f70a63          	beq	a4,a5,136ce <_start+0x2024>
   136be:	6505                	lui	a0,0x1
   136c0:	d7a50513          	addi	a0,a0,-646 # d7a <.Lline_table_start1+0xb4f>
   136c4:	45a5                	li	a1,9
   136c6:	4601                	li	a2,0
   136c8:	4681                	li	a3,0
   136ca:	00000073          	ecall
   136ce:	00006297          	auipc	t0,0x6
   136d2:	056282e7          	jalr	t0,86(t0) # 19724 <OUTLINED_FUNCTION_33>
   136d6:	00006297          	auipc	t0,0x6
   136da:	bf2282e7          	jalr	t0,-1038(t0) # 192c8 <OUTLINED_FUNCTION_1>
   136de:	03500613          	li	a2,53
   136e2:	00006097          	auipc	ra,0x6
   136e6:	298080e7          	jalr	664(ra) # 1997a <memcpy>
   136ea:	4781                	li	a5,0
   136ec:	b295                	j	13050 <_start+0x19a6>
   136ee:	46414703          	lbu	a4,1124(sp)
   136f2:	4789                	li	a5,2
   136f4:	5af71263          	bne	a4,a5,13c98 <_start+0x25ee>
   136f8:	470d                	li	a4,3
   136fa:	ab6d                	j	13cb4 <_start+0x260a>
   136fc:	6509                	lui	a0,0x2
   136fe:	b1e50513          	addi	a0,a0,-1250 # 1b1e <.Lline_table_start1+0x18f3>
   13702:	4599                	li	a1,6
   13704:	4601                	li	a2,0
   13706:	4681                	li	a3,0
   13708:	00000073          	ecall
   1370c:	46414703          	lbu	a4,1124(sp)
   13710:	56f10623          	sb	a5,1388(sp)
   13714:	00f70a63          	beq	a4,a5,13728 <_start+0x207e>
   13718:	6509                	lui	a0,0x2
   1371a:	b1e50513          	addi	a0,a0,-1250 # 1b1e <.Lline_table_start1+0x18f3>
   1371e:	45a1                	li	a1,8
   13720:	4601                	li	a2,0
   13722:	4681                	li	a3,0
   13724:	00000073          	ecall
   13728:	00006297          	auipc	t0,0x6
   1372c:	ffc282e7          	jalr	t0,-4(t0) # 19724 <OUTLINED_FUNCTION_33>
   13730:	00006297          	auipc	t0,0x6
   13734:	b98282e7          	jalr	t0,-1128(t0) # 192c8 <OUTLINED_FUNCTION_1>
   13738:	02b00613          	li	a2,43
   1373c:	00006097          	auipc	ra,0x6
   13740:	23e080e7          	jalr	574(ra) # 1997a <memcpy>
   13744:	4781                	li	a5,0
   13746:	bae1                	j	1311e <_start+0x1a74>
   13748:	56c14703          	lbu	a4,1388(sp)
   1374c:	4789                	li	a5,2
   1374e:	58f71e63          	bne	a4,a5,13cea <_start+0x2640>
   13752:	470d                	li	a4,3
   13754:	ab4d                	j	13d06 <_start+0x265c>
   13756:	56f10623          	sb	a5,1388(sp)
   1375a:	6509                	lui	a0,0x2
   1375c:	4585                	li	a1,1
   1375e:	98950513          	addi	a0,a0,-1655 # 1989 <.Lline_table_start1+0x175e>
   13762:	461d                	li	a2,7
   13764:	4405                	li	s0,1
   13766:	ffffe097          	auipc	ra,0xffffe
   1376a:	f36080e7          	jalr	-202(ra) # 1169c <_ZN9allow_pin7command17h1eb46760111c3605E>
   1376e:	8905                	andi	a0,a0,1
   13770:	62050c63          	beqz	a0,13da8 <_start+0x26fe>
   13774:	8b2e                	mv	s6,a1
   13776:	56c14703          	lbu	a4,1388(sp)
   1377a:	4789                	li	a5,2
   1377c:	00f70a63          	beq	a4,a5,13790 <_start+0x20e6>
   13780:	6509                	lui	a0,0x2
   13782:	98950513          	addi	a0,a0,-1655 # 1989 <.Lline_table_start1+0x175e>
   13786:	459d                	li	a1,7
   13788:	4601                	li	a2,0
   1378a:	4681                	li	a3,0
   1378c:	00000073          	ecall
   13790:	51c14703          	lbu	a4,1308(sp)
   13794:	00f70a63          	beq	a4,a5,137a8 <_start+0x20fe>
   13798:	6509                	lui	a0,0x2
   1379a:	98950513          	addi	a0,a0,-1655 # 1989 <.Lline_table_start1+0x175e>
   1379e:	4585                	li	a1,1
   137a0:	4601                	li	a2,0
   137a2:	4681                	li	a3,0
   137a4:	00000073          	ecall
   137a8:	c019                	beqz	s0,137ae <_start+0x2104>
   137aa:	1870506f          	j	19130 <_start+0x7a86>
   137ae:	00006297          	auipc	t0,0x6
   137b2:	dea282e7          	jalr	t0,-534(t0) # 19598 <OUTLINED_FUNCTION_18>
   137b6:	46410513          	addi	a0,sp,1124
   137ba:	048c                	addi	a1,sp,576
   137bc:	02f00613          	li	a2,47
   137c0:	00006097          	auipc	ra,0x6
   137c4:	1ba080e7          	jalr	442(ra) # 1997a <memcpy>
   137c8:	57410513          	addi	a0,sp,1396
   137cc:	46410593          	addi	a1,sp,1124
   137d0:	02f00613          	li	a2,47
   137d4:	00006097          	auipc	ra,0x6
   137d8:	1a6080e7          	jalr	422(ra) # 1997a <memcpy>
   137dc:	00006297          	auipc	t0,0x6
   137e0:	c86282e7          	jalr	t0,-890(t0) # 19462 <OUTLINED_FUNCTION_9>
   137e4:	463d                	li	a2,15
   137e6:	8552                	mv	a0,s4
   137e8:	4581                	li	a1,0
   137ea:	00006097          	auipc	ra,0x6
   137ee:	124080e7          	jalr	292(ra) # 1990e <memset>
   137f2:	864a                	mv	a2,s2
   137f4:	46810223          	sb	s0,1124(sp)
   137f8:	4791                	li	a5,4
   137fa:	65300513          	li	a0,1619
   137fe:	4595                	li	a1,5
   13800:	03600693          	li	a3,54
   13804:	4711                	li	a4,4
   13806:	00000073          	ecall
   1380a:	02850c63          	beq	a0,s0,13842 <_start+0x2198>
   1380e:	8652                	mv	a2,s4
   13810:	56f10623          	sb	a5,1388(sp)
   13814:	478d                	li	a5,3
   13816:	65300513          	li	a0,1619
   1381a:	458d                	li	a1,3
   1381c:	46bd                	li	a3,15
   1381e:	470d                	li	a4,3
   13820:	00000073          	ecall
   13824:	00850f63          	beq	a0,s0,13842 <_start+0x2198>
   13828:	46f10223          	sb	a5,1124(sp)
   1382c:	65300513          	li	a0,1619
   13830:	4595                	li	a1,5
   13832:	460d                	li	a2,3
   13834:	ffffe097          	auipc	ra,0xffffe
   13838:	e68080e7          	jalr	-408(ra) # 1169c <_ZN9allow_pin7command17h1eb46760111c3605E>
   1383c:	8905                	andi	a0,a0,1
   1383e:	56050c63          	beqz	a0,13db6 <_start+0x270c>
   13842:	4805                	li	a6,1
   13844:	8b2e                	mv	s6,a1
   13846:	46414703          	lbu	a4,1124(sp)
   1384a:	4789                	li	a5,2
   1384c:	00f70963          	beq	a4,a5,1385e <_start+0x21b4>
   13850:	65300513          	li	a0,1619
   13854:	458d                	li	a1,3
   13856:	4601                	li	a2,0
   13858:	4681                	li	a3,0
   1385a:	00000073          	ecall
   1385e:	56c14703          	lbu	a4,1388(sp)
   13862:	00f70963          	beq	a4,a5,13874 <_start+0x21ca>
   13866:	65300513          	li	a0,1619
   1386a:	4595                	li	a1,5
   1386c:	4601                	li	a2,0
   1386e:	4681                	li	a3,0
   13870:	00000073          	ecall
   13874:	00080463          	beqz	a6,1387c <_start+0x21d2>
   13878:	0b90506f          	j	19130 <_start+0x7a86>
   1387c:	46510a13          	addi	s4,sp,1125
   13880:	24014803          	lbu	a6,576(sp)
   13884:	24114583          	lbu	a1,577(sp)
   13888:	24214603          	lbu	a2,578(sp)
   1388c:	4a89                	li	s5,2
   1388e:	018b5693          	srli	a3,s6,0x18
   13892:	010b5713          	srli	a4,s6,0x10
   13896:	008b5793          	srli	a5,s6,0x8
   1389a:	0182d413          	srli	s0,t0,0x18
   1389e:	0102d493          	srli	s1,t0,0x10
   138a2:	0082d513          	srli	a0,t0,0x8
   138a6:	47610423          	sb	s6,1128(sp)
   138aa:	46f104a3          	sb	a5,1129(sp)
   138ae:	46e10523          	sb	a4,1130(sp)
   138b2:	46d105a3          	sb	a3,1131(sp)
   138b6:	0188d693          	srli	a3,a7,0x18
   138ba:	46510623          	sb	t0,1132(sp)
   138be:	46a106a3          	sb	a0,1133(sp)
   138c2:	46910723          	sb	s1,1134(sp)
   138c6:	468107a3          	sb	s0,1135(sp)
   138ca:	0108d513          	srli	a0,a7,0x10
   138ce:	47510223          	sb	s5,1124(sp)
   138d2:	00006297          	auipc	t0,0x6
   138d6:	f5c282e7          	jalr	t0,-164(t0) # 1982e <OUTLINED_FUNCTION_45>
   138da:	464d                	li	a2,19
   138dc:	854a                	mv	a0,s2
   138de:	4581                	li	a1,0
   138e0:	00006097          	auipc	ra,0x6
   138e4:	02e080e7          	jalr	46(ra) # 1990e <memset>
   138e8:	8652                	mv	a2,s4
   138ea:	57510623          	sb	s5,1388(sp)
   138ee:	6509                	lui	a0,0x2
   138f0:	4491                	li	s1,4
   138f2:	458d                	li	a1,3
   138f4:	e4b50793          	addi	a5,a0,-437 # 1e4b <.Lline_table_start1+0x1c20>
   138f8:	46bd                	li	a3,15
   138fa:	4711                	li	a4,4
   138fc:	853e                	mv	a0,a5
   138fe:	00000073          	ecall
   13902:	03550c63          	beq	a0,s5,1393a <_start+0x2290>
   13906:	853e                	mv	a0,a5
   13908:	4581                	li	a1,0
   1390a:	864a                	mv	a2,s2
   1390c:	46910223          	sb	s1,1124(sp)
   13910:	478d                	li	a5,3
   13912:	46cd                	li	a3,19
   13914:	470d                	li	a4,3
   13916:	00000073          	ecall
   1391a:	03550063          	beq	a0,s5,1393a <_start+0x2290>
   1391e:	56f10623          	sb	a5,1388(sp)
   13922:	6509                	lui	a0,0x2
   13924:	e4b50513          	addi	a0,a0,-437 # 1e4b <.Lline_table_start1+0x1c20>
   13928:	458d                	li	a1,3
   1392a:	4601                	li	a2,0
   1392c:	ffffe097          	auipc	ra,0xffffe
   13930:	d70080e7          	jalr	-656(ra) # 1169c <_ZN9allow_pin7command17h1eb46760111c3605E>
   13934:	8905                	andi	a0,a0,1
   13936:	4c050d63          	beqz	a0,13e10 <_start+0x2766>
   1393a:	4785                	li	a5,1
   1393c:	8b2e                	mv	s6,a1
   1393e:	56c14703          	lbu	a4,1388(sp)
   13942:	4489                	li	s1,2
   13944:	00970a63          	beq	a4,s1,13958 <_start+0x22ae>
   13948:	6509                	lui	a0,0x2
   1394a:	e4b50513          	addi	a0,a0,-437 # 1e4b <.Lline_table_start1+0x1c20>
   1394e:	4581                	li	a1,0
   13950:	4601                	li	a2,0
   13952:	4681                	li	a3,0
   13954:	00000073          	ecall
   13958:	46414703          	lbu	a4,1124(sp)
   1395c:	00970a63          	beq	a4,s1,13970 <_start+0x22c6>
   13960:	6509                	lui	a0,0x2
   13962:	e4b50513          	addi	a0,a0,-437 # 1e4b <.Lline_table_start1+0x1c20>
   13966:	458d                	li	a1,3
   13968:	4601                	li	a2,0
   1396a:	4681                	li	a3,0
   1396c:	00000073          	ecall
   13970:	c399                	beqz	a5,13976 <_start+0x22cc>
   13972:	7be0506f          	j	19130 <_start+0x7a86>
   13976:	2e814803          	lbu	a6,744(sp)
   1397a:	2e914583          	lbu	a1,745(sp)
   1397e:	2ea14603          	lbu	a2,746(sp)
   13982:	0408                	addi	a0,sp,512
   13984:	4134                	lw	a3,64(a0)
   13986:	4178                	lw	a4,68(a0)
   13988:	453c                	lw	a5,72(a0)
   1398a:	018b5493          	srli	s1,s6,0x18
   1398e:	010b5413          	srli	s0,s6,0x10
   13992:	008b5513          	srli	a0,s6,0x8
   13996:	53610023          	sb	s6,1312(sp)
   1399a:	52a100a3          	sb	a0,1313(sp)
   1399e:	52810123          	sb	s0,1314(sp)
   139a2:	529101a3          	sb	s1,1315(sp)
   139a6:	4489                	li	s1,2
   139a8:	50910e23          	sb	s1,1308(sp)
   139ac:	51010ea3          	sb	a6,1309(sp)
   139b0:	50b10f23          	sb	a1,1310(sp)
   139b4:	50c10fa3          	sb	a2,1311(sp)
   139b8:	51d10413          	addi	s0,sp,1309
   139bc:	c136                	sw	a3,128(sp)
   139be:	c33a                	sw	a4,132(sp)
   139c0:	c53e                	sw	a5,136(sp)
   139c2:	52410513          	addi	a0,sp,1316
   139c6:	010c                	addi	a1,sp,128
   139c8:	4631                	li	a2,12
   139ca:	00006097          	auipc	ra,0x6
   139ce:	fb0080e7          	jalr	-80(ra) # 1997a <memcpy>
   139d2:	05500613          	li	a2,85
   139d6:	854a                	mv	a0,s2
   139d8:	4581                	li	a1,0
   139da:	00006097          	auipc	ra,0x6
   139de:	f34080e7          	jalr	-204(ra) # 1990e <memset>
   139e2:	8622                	mv	a2,s0
   139e4:	56910623          	sb	s1,1388(sp)
   139e8:	4791                	li	a5,4
   139ea:	32e00513          	li	a0,814
   139ee:	45a5                	li	a1,9
   139f0:	46cd                	li	a3,19
   139f2:	4711                	li	a4,4
   139f4:	00000073          	ecall
   139f8:	02950d63          	beq	a0,s1,13a32 <_start+0x2388>
   139fc:	864a                	mv	a2,s2
   139fe:	50f10e23          	sb	a5,1308(sp)
   13a02:	478d                	li	a5,3
   13a04:	32e00513          	li	a0,814
   13a08:	459d                	li	a1,7
   13a0a:	05500693          	li	a3,85
   13a0e:	470d                	li	a4,3
   13a10:	00000073          	ecall
   13a14:	00950f63          	beq	a0,s1,13a32 <_start+0x2388>
   13a18:	56f10623          	sb	a5,1388(sp)
   13a1c:	32e00513          	li	a0,814
   13a20:	45a5                	li	a1,9
   13a22:	461d                	li	a2,7
   13a24:	ffffe097          	auipc	ra,0xffffe
   13a28:	c78080e7          	jalr	-904(ra) # 1169c <_ZN9allow_pin7command17h1eb46760111c3605E>
   13a2c:	8905                	andi	a0,a0,1
   13a2e:	48050e63          	beqz	a0,13eca <_start+0x2820>
   13a32:	4785                	li	a5,1
   13a34:	8b2e                	mv	s6,a1
   13a36:	56c14703          	lbu	a4,1388(sp)
   13a3a:	4489                	li	s1,2
   13a3c:	00970963          	beq	a4,s1,13a4e <_start+0x23a4>
   13a40:	32e00513          	li	a0,814
   13a44:	459d                	li	a1,7
   13a46:	4601                	li	a2,0
   13a48:	4681                	li	a3,0
   13a4a:	00000073          	ecall
   13a4e:	51c14703          	lbu	a4,1308(sp)
   13a52:	00970963          	beq	a4,s1,13a64 <_start+0x23ba>
   13a56:	32e00513          	li	a0,814
   13a5a:	45a5                	li	a1,9
   13a5c:	4601                	li	a2,0
   13a5e:	4681                	li	a3,0
   13a60:	00000073          	ecall
   13a64:	c399                	beqz	a5,13a6a <_start+0x23c0>
   13a66:	6ca0506f          	j	19130 <_start+0x7a86>
   13a6a:	00006297          	auipc	t0,0x6
   13a6e:	d0e282e7          	jalr	t0,-754(t0) # 19778 <OUTLINED_FUNCTION_37>
   13a72:	00006297          	auipc	t0,0x6
   13a76:	bac282e7          	jalr	t0,-1108(t0) # 1961e <OUTLINED_FUNCTION_23>
   13a7a:	04e00613          	li	a2,78
   13a7e:	00006097          	auipc	ra,0x6
   13a82:	efc080e7          	jalr	-260(ra) # 1997a <memcpy>
   13a86:	57410513          	addi	a0,sp,1396
   13a8a:	46410593          	addi	a1,sp,1124
   13a8e:	04e00613          	li	a2,78
   13a92:	00006097          	auipc	ra,0x6
   13a96:	ee8080e7          	jalr	-280(ra) # 1997a <memcpy>
   13a9a:	00006297          	auipc	t0,0x6
   13a9e:	9c8282e7          	jalr	t0,-1592(t0) # 19462 <OUTLINED_FUNCTION_9>
   13aa2:	03200613          	li	a2,50
   13aa6:	8552                	mv	a0,s4
   13aa8:	4581                	li	a1,0
   13aaa:	00006097          	auipc	ra,0x6
   13aae:	e64080e7          	jalr	-412(ra) # 1990e <memset>
   13ab2:	46810223          	sb	s0,1124(sp)
   13ab6:	56c10513          	addi	a0,sp,1388
   13aba:	05500593          	li	a1,85
   13abe:	4611                	li	a2,4
   13ac0:	ffffe097          	auipc	ra,0xffffe
   13ac4:	8e4080e7          	jalr	-1820(ra) # 113a4 <_ZN9allow_pin12dynamic_type23Buffer$LT$B$C$_$C$_$GT$5allow17h4031926fc054d9f8E>
   13ac8:	8905                	andi	a0,a0,1
   13aca:	e905                	bnez	a0,13afa <_start+0x2450>
   13acc:	46410513          	addi	a0,sp,1124
   13ad0:	03200593          	li	a1,50
   13ad4:	460d                	li	a2,3
   13ad6:	ffffe097          	auipc	ra,0xffffe
   13ada:	8ce080e7          	jalr	-1842(ra) # 113a4 <_ZN9allow_pin12dynamic_type23Buffer$LT$B$C$_$C$_$GT$5allow17h4031926fc054d9f8E>
   13ade:	8905                	andi	a0,a0,1
   13ae0:	ed09                	bnez	a0,13afa <_start+0x2450>
   13ae2:	6509                	lui	a0,0x2
   13ae4:	45a1                	li	a1,8
   13ae6:	09550513          	addi	a0,a0,149 # 2095 <.Lline_table_start1+0x1e6a>
   13aea:	4621                	li	a2,8
   13aec:	ffffe097          	auipc	ra,0xffffe
   13af0:	bb0080e7          	jalr	-1104(ra) # 1169c <_ZN9allow_pin7command17h1eb46760111c3605E>
   13af4:	8905                	andi	a0,a0,1
   13af6:	4a050b63          	beqz	a0,13fac <_start+0x2902>
   13afa:	8b2e                	mv	s6,a1
   13afc:	46414483          	lbu	s1,1124(sp)
   13b00:	4785                	li	a5,1
   13b02:	4409                	li	s0,2
   13b04:	00848b63          	beq	s1,s0,13b1a <_start+0x2470>
   13b08:	6509                	lui	a0,0x2
   13b0a:	09550513          	addi	a0,a0,149 # 2095 <.Lline_table_start1+0x1e6a>
   13b0e:	45a1                	li	a1,8
   13b10:	4601                	li	a2,0
   13b12:	4681                	li	a3,0
   13b14:	8726                	mv	a4,s1
   13b16:	00000073          	ecall
   13b1a:	56c14703          	lbu	a4,1388(sp)
   13b1e:	00870a63          	beq	a4,s0,13b32 <_start+0x2488>
   13b22:	6509                	lui	a0,0x2
   13b24:	09550513          	addi	a0,a0,149 # 2095 <.Lline_table_start1+0x1e6a>
   13b28:	45a1                	li	a1,8
   13b2a:	4601                	li	a2,0
   13b2c:	4681                	li	a3,0
   13b2e:	00000073          	ecall
   13b32:	c399                	beqz	a5,13b38 <_start+0x248e>
   13b34:	5fc0506f          	j	19130 <_start+0x7a86>
   13b38:	00006297          	auipc	t0,0x6
   13b3c:	9ba282e7          	jalr	t0,-1606(t0) # 194f2 <OUTLINED_FUNCTION_13>
   13b40:	02b00613          	li	a2,43
   13b44:	00006097          	auipc	ra,0x6
   13b48:	e36080e7          	jalr	-458(ra) # 1997a <memcpy>
   13b4c:	52410513          	addi	a0,sp,1316
   13b50:	048c                	addi	a1,sp,576
   13b52:	02b00613          	li	a2,43
   13b56:	00006097          	auipc	ra,0x6
   13b5a:	e24080e7          	jalr	-476(ra) # 1997a <memcpy>
   13b5e:	00006297          	auipc	t0,0x6
   13b62:	94c282e7          	jalr	t0,-1716(t0) # 194aa <OUTLINED_FUNCTION_11>
   13b66:	04100613          	li	a2,65
   13b6a:	854a                	mv	a0,s2
   13b6c:	4581                	li	a1,0
   13b6e:	00006097          	auipc	ra,0x6
   13b72:	da0080e7          	jalr	-608(ra) # 1990e <memset>
   13b76:	00006297          	auipc	t0,0x6
   13b7a:	d0a282e7          	jalr	t0,-758(t0) # 19880 <OUTLINED_FUNCTION_50>
   13b7e:	459d                	li	a1,7
   13b80:	91d50793          	addi	a5,a0,-1763
   13b84:	03200693          	li	a3,50
   13b88:	4711                	li	a4,4
   13b8a:	853e                	mv	a0,a5
   13b8c:	00000073          	ecall
   13b90:	02950d63          	beq	a0,s1,13bca <_start+0x2520>
   13b94:	853e                	mv	a0,a5
   13b96:	864a                	mv	a2,s2
   13b98:	50810e23          	sb	s0,1308(sp)
   13b9c:	478d                	li	a5,3
   13b9e:	4595                	li	a1,5
   13ba0:	04100693          	li	a3,65
   13ba4:	470d                	li	a4,3
   13ba6:	00000073          	ecall
   13baa:	02950063          	beq	a0,s1,13bca <_start+0x2520>
   13bae:	56f10623          	sb	a5,1388(sp)
   13bb2:	6505                	lui	a0,0x1
   13bb4:	459d                	li	a1,7
   13bb6:	91d50513          	addi	a0,a0,-1763 # 91d <.Lline_table_start1+0x6f2>
   13bba:	4615                	li	a2,5
   13bbc:	ffffe097          	auipc	ra,0xffffe
   13bc0:	ae0080e7          	jalr	-1312(ra) # 1169c <_ZN9allow_pin7command17h1eb46760111c3605E>
   13bc4:	8905                	andi	a0,a0,1
   13bc6:	48050f63          	beqz	a0,14064 <_start+0x29ba>
   13bca:	4785                	li	a5,1
   13bcc:	8b2e                	mv	s6,a1
   13bce:	56c14703          	lbu	a4,1388(sp)
   13bd2:	4489                	li	s1,2
   13bd4:	00970a63          	beq	a4,s1,13be8 <_start+0x253e>
   13bd8:	6505                	lui	a0,0x1
   13bda:	91d50513          	addi	a0,a0,-1763 # 91d <.Lline_table_start1+0x6f2>
   13bde:	4595                	li	a1,5
   13be0:	4601                	li	a2,0
   13be2:	4681                	li	a3,0
   13be4:	00000073          	ecall
   13be8:	51c14703          	lbu	a4,1308(sp)
   13bec:	00970a63          	beq	a4,s1,13c00 <_start+0x2556>
   13bf0:	6505                	lui	a0,0x1
   13bf2:	91d50513          	addi	a0,a0,-1763 # 91d <.Lline_table_start1+0x6f2>
   13bf6:	459d                	li	a1,7
   13bf8:	4601                	li	a2,0
   13bfa:	4681                	li	a3,0
   13bfc:	00000073          	ecall
   13c00:	c399                	beqz	a5,13c06 <_start+0x255c>
   13c02:	52e0506f          	j	19130 <_start+0x7a86>
   13c06:	00006297          	auipc	t0,0x6
   13c0a:	b72282e7          	jalr	t0,-1166(t0) # 19778 <OUTLINED_FUNCTION_37>
   13c0e:	56d10a13          	addi	s4,sp,1389
   13c12:	00006297          	auipc	t0,0x6
   13c16:	a0c282e7          	jalr	t0,-1524(t0) # 1961e <OUTLINED_FUNCTION_23>
   13c1a:	03a00613          	li	a2,58
   13c1e:	00006097          	auipc	ra,0x6
   13c22:	d5c080e7          	jalr	-676(ra) # 1997a <memcpy>
   13c26:	57410913          	addi	s2,sp,1396
   13c2a:	46410593          	addi	a1,sp,1124
   13c2e:	03a00613          	li	a2,58
   13c32:	854a                	mv	a0,s2
   13c34:	00006097          	auipc	ra,0x6
   13c38:	d46080e7          	jalr	-698(ra) # 1997a <memcpy>
   13c3c:	00006297          	auipc	t0,0x6
   13c40:	84a282e7          	jalr	t0,-1974(t0) # 19486 <OUTLINED_FUNCTION_10>
   13c44:	46510993          	addi	s3,sp,1125
   13c48:	02200613          	li	a2,34
   13c4c:	854e                	mv	a0,s3
   13c4e:	4581                	li	a1,0
   13c50:	00006097          	auipc	ra,0x6
   13c54:	cbe080e7          	jalr	-834(ra) # 1990e <memset>
   13c58:	8652                	mv	a2,s4
   13c5a:	46910223          	sb	s1,1124(sp)
   13c5e:	6509                	lui	a0,0x2
   13c60:	4405                	li	s0,1
   13c62:	4811                	li	a6,4
   13c64:	4585                	li	a1,1
   13c66:	47c50793          	addi	a5,a0,1148 # 247c <.Lline_table_start1+0x2251>
   13c6a:	04100693          	li	a3,65
   13c6e:	4711                	li	a4,4
   13c70:	853e                	mv	a0,a5
   13c72:	00000073          	ecall
   13c76:	40950e63          	beq	a0,s1,14092 <_start+0x29e8>
   13c7a:	853e                	mv	a0,a5
   13c7c:	4581                	li	a1,0
   13c7e:	864e                	mv	a2,s3
   13c80:	57010623          	sb	a6,1388(sp)
   13c84:	478d                	li	a5,3
   13c86:	02200693          	li	a3,34
   13c8a:	470d                	li	a4,3
   13c8c:	00000073          	ecall
   13c90:	3e951263          	bne	a0,s1,14074 <_start+0x29ca>
   13c94:	4405                	li	s0,1
   13c96:	aef5                	j	14092 <_start+0x29e8>
   13c98:	6509                	lui	a0,0x2
   13c9a:	f0750513          	addi	a0,a0,-249 # 1f07 <.Lline_table_start1+0x1cdc>
   13c9e:	458d                	li	a1,3
   13ca0:	4601                	li	a2,0
   13ca2:	4681                	li	a3,0
   13ca4:	00000073          	ecall
   13ca8:	56c14703          	lbu	a4,1388(sp)
   13cac:	46f10223          	sb	a5,1124(sp)
   13cb0:	00f70a63          	beq	a4,a5,13cc4 <_start+0x261a>
   13cb4:	6509                	lui	a0,0x2
   13cb6:	f0750513          	addi	a0,a0,-249 # 1f07 <.Lline_table_start1+0x1cdc>
   13cba:	4585                	li	a1,1
   13cbc:	4601                	li	a2,0
   13cbe:	4681                	li	a3,0
   13cc0:	00000073          	ecall
   13cc4:	00006297          	auipc	t0,0x6
   13cc8:	a70282e7          	jalr	t0,-1424(t0) # 19734 <OUTLINED_FUNCTION_34>
   13ccc:	00005297          	auipc	t0,0x5
   13cd0:	634282e7          	jalr	t0,1588(t0) # 19300 <OUTLINED_FUNCTION_2>
   13cd4:	51c10513          	addi	a0,sp,1308
   13cd8:	02b00613          	li	a2,43
   13cdc:	00006097          	auipc	ra,0x6
   13ce0:	c9e080e7          	jalr	-866(ra) # 1997a <memcpy>
   13ce4:	4401                	li	s0,0
   13ce6:	fccff06f          	j	134b2 <_start+0x1e08>
   13cea:	6509                	lui	a0,0x2
   13cec:	9d650513          	addi	a0,a0,-1578 # 19d6 <.Lline_table_start1+0x17ab>
   13cf0:	4591                	li	a1,4
   13cf2:	4601                	li	a2,0
   13cf4:	4681                	li	a3,0
   13cf6:	00000073          	ecall
   13cfa:	46414703          	lbu	a4,1124(sp)
   13cfe:	56f10623          	sb	a5,1388(sp)
   13d02:	00f70a63          	beq	a4,a5,13d16 <_start+0x266c>
   13d06:	6509                	lui	a0,0x2
   13d08:	9d650513          	addi	a0,a0,-1578 # 19d6 <.Lline_table_start1+0x17ab>
   13d0c:	45a5                	li	a1,9
   13d0e:	4601                	li	a2,0
   13d10:	4681                	li	a3,0
   13d12:	00000073          	ecall
   13d16:	4781                	li	a5,0
   13d18:	4809                	li	a6,2
   13d1a:	000a4603          	lbu	a2,0(s4)
   13d1e:	001a4683          	lbu	a3,1(s4)
   13d22:	002a4883          	lbu	a7,2(s4)
   13d26:	46814283          	lbu	t0,1128(sp)
   13d2a:	46914303          	lbu	t1,1129(sp)
   13d2e:	46a14403          	lbu	s0,1130(sp)
   13d32:	46b14583          	lbu	a1,1131(sp)
   13d36:	46c14383          	lbu	t2,1132(sp)
   13d3a:	47010223          	sb	a6,1124(sp)
   13d3e:	06a2                	slli	a3,a3,0x8
   13d40:	00c6e833          	or	a6,a3,a2
   13d44:	46d14683          	lbu	a3,1133(sp)
   13d48:	46e14703          	lbu	a4,1134(sp)
   13d4c:	46f14603          	lbu	a2,1135(sp)
   13d50:	47014e03          	lbu	t3,1136(sp)
   13d54:	0322                	slli	t1,t1,0x8
   13d56:	0442                	slli	s0,s0,0x10
   13d58:	05e2                	slli	a1,a1,0x18
   13d5a:	06a2                	slli	a3,a3,0x8
   13d5c:	0742                	slli	a4,a4,0x10
   13d5e:	0662                	slli	a2,a2,0x18
   13d60:	005362b3          	or	t0,t1,t0
   13d64:	8dc1                	or	a1,a1,s0
   13d66:	0076e6b3          	or	a3,a3,t2
   13d6a:	8e59                	or	a2,a2,a4
   13d6c:	47114703          	lbu	a4,1137(sp)
   13d70:	47214403          	lbu	s0,1138(sp)
   13d74:	47314483          	lbu	s1,1139(sp)
   13d78:	47414503          	lbu	a0,1140(sp)
   13d7c:	0722                	slli	a4,a4,0x8
   13d7e:	01c76733          	or	a4,a4,t3
   13d82:	0442                	slli	s0,s0,0x10
   13d84:	04e2                	slli	s1,s1,0x18
   13d86:	8c45                	or	s0,s0,s1
   13d88:	45011623          	sh	a6,1100(sp)
   13d8c:	45110723          	sb	a7,1102(sp)
   13d90:	0055eb33          	or	s6,a1,t0
   13d94:	8e55                	or	a2,a2,a3
   13d96:	8f41                	or	a4,a4,s0
   13d98:	2ec12423          	sw	a2,744(sp)
   13d9c:	2ee12623          	sw	a4,748(sp)
   13da0:	2ea10823          	sb	a0,752(sp)
   13da4:	fdaff06f          	j	1357e <_start+0x1ed4>
   13da8:	51c14703          	lbu	a4,1308(sp)
   13dac:	4789                	li	a5,2
   13dae:	00f71b63          	bne	a4,a5,13dc4 <_start+0x271a>
   13db2:	470d                	li	a4,3
   13db4:	a035                	j	13de0 <_start+0x2736>
   13db6:	56c14703          	lbu	a4,1388(sp)
   13dba:	4789                	li	a5,2
   13dbc:	06f71163          	bne	a4,a5,13e1e <_start+0x2774>
   13dc0:	470d                	li	a4,3
   13dc2:	a89d                	j	13e38 <_start+0x278e>
   13dc4:	6509                	lui	a0,0x2
   13dc6:	98950513          	addi	a0,a0,-1655 # 1989 <.Lline_table_start1+0x175e>
   13dca:	4585                	li	a1,1
   13dcc:	4601                	li	a2,0
   13dce:	4681                	li	a3,0
   13dd0:	00000073          	ecall
   13dd4:	56c14703          	lbu	a4,1388(sp)
   13dd8:	50f10e23          	sb	a5,1308(sp)
   13ddc:	00f70a63          	beq	a4,a5,13df0 <_start+0x2746>
   13de0:	6509                	lui	a0,0x2
   13de2:	98950513          	addi	a0,a0,-1655 # 1989 <.Lline_table_start1+0x175e>
   13de6:	459d                	li	a1,7
   13de8:	4601                	li	a2,0
   13dea:	4681                	li	a3,0
   13dec:	00000073          	ecall
   13df0:	00006297          	auipc	t0,0x6
   13df4:	944282e7          	jalr	t0,-1724(t0) # 19734 <OUTLINED_FUNCTION_34>
   13df8:	00005297          	auipc	t0,0x5
   13dfc:	49a282e7          	jalr	t0,1178(t0) # 19292 <OUTLINED_FUNCTION_0>
   13e00:	02f00613          	li	a2,47
   13e04:	00006097          	auipc	ra,0x6
   13e08:	b76080e7          	jalr	-1162(ra) # 1997a <memcpy>
   13e0c:	4401                	li	s0,0
   13e0e:	b2a5                	j	13776 <_start+0x20cc>
   13e10:	46414703          	lbu	a4,1124(sp)
   13e14:	4789                	li	a5,2
   13e16:	0cf71163          	bne	a4,a5,13ed8 <_start+0x282e>
   13e1a:	470d                	li	a4,3
   13e1c:	a8e1                	j	13ef4 <_start+0x284a>
   13e1e:	65300513          	li	a0,1619
   13e22:	4595                	li	a1,5
   13e24:	4601                	li	a2,0
   13e26:	4681                	li	a3,0
   13e28:	00000073          	ecall
   13e2c:	46414703          	lbu	a4,1124(sp)
   13e30:	56f10623          	sb	a5,1388(sp)
   13e34:	00f70963          	beq	a4,a5,13e46 <_start+0x279c>
   13e38:	65300513          	li	a0,1619
   13e3c:	458d                	li	a1,3
   13e3e:	4601                	li	a2,0
   13e40:	4681                	li	a3,0
   13e42:	00000073          	ecall
   13e46:	4801                	li	a6,0
   13e48:	4889                	li	a7,2
   13e4a:	000a4303          	lbu	t1,0(s4)
   13e4e:	001a4383          	lbu	t2,1(s4)
   13e52:	002a4283          	lbu	t0,2(s4)
   13e56:	46814e03          	lbu	t3,1128(sp)
   13e5a:	46d14e83          	lbu	t4,1133(sp)
   13e5e:	46e14f03          	lbu	t5,1134(sp)
   13e62:	46f14f83          	lbu	t6,1135(sp)
   13e66:	47014583          	lbu	a1,1136(sp)
   13e6a:	47110223          	sb	a7,1124(sp)
   13e6e:	46914503          	lbu	a0,1129(sp)
   13e72:	46a14603          	lbu	a2,1130(sp)
   13e76:	46b14683          	lbu	a3,1131(sp)
   13e7a:	46c14703          	lbu	a4,1132(sp)
   13e7e:	03a2                	slli	t2,t2,0x8
   13e80:	0522                	slli	a0,a0,0x8
   13e82:	0642                	slli	a2,a2,0x10
   13e84:	06e2                	slli	a3,a3,0x18
   13e86:	0063e7b3          	or	a5,t2,t1
   13e8a:	01c56533          	or	a0,a0,t3
   13e8e:	47114483          	lbu	s1,1137(sp)
   13e92:	8e55                	or	a2,a2,a3
   13e94:	47214683          	lbu	a3,1138(sp)
   13e98:	47314403          	lbu	s0,1139(sp)
   13e9c:	04a2                	slli	s1,s1,0x8
   13e9e:	8dc5                	or	a1,a1,s1
   13ea0:	06c2                	slli	a3,a3,0x10
   13ea2:	0462                	slli	s0,s0,0x18
   13ea4:	8ec1                	or	a3,a3,s0
   13ea6:	0ea2                	slli	t4,t4,0x8
   13ea8:	00eee733          	or	a4,t4,a4
   13eac:	0f42                	slli	t5,t5,0x10
   13eae:	0fe2                	slli	t6,t6,0x18
   13eb0:	01efe433          	or	s0,t6,t5
   13eb4:	24f11023          	sh	a5,576(sp)
   13eb8:	24510123          	sb	t0,578(sp)
   13ebc:	00a66b33          	or	s6,a2,a0
   13ec0:	00b6e8b3          	or	a7,a3,a1
   13ec4:	00e462b3          	or	t0,s0,a4
   13ec8:	babd                	j	13846 <_start+0x219c>
   13eca:	51c14703          	lbu	a4,1308(sp)
   13ece:	4789                	li	a5,2
   13ed0:	14f71663          	bne	a4,a5,1401c <_start+0x2972>
   13ed4:	470d                	li	a4,3
   13ed6:	a285                	j	14036 <_start+0x298c>
   13ed8:	6509                	lui	a0,0x2
   13eda:	e4b50513          	addi	a0,a0,-437 # 1e4b <.Lline_table_start1+0x1c20>
   13ede:	458d                	li	a1,3
   13ee0:	4601                	li	a2,0
   13ee2:	4681                	li	a3,0
   13ee4:	00000073          	ecall
   13ee8:	56c14703          	lbu	a4,1388(sp)
   13eec:	46f10223          	sb	a5,1124(sp)
   13ef0:	00f70a63          	beq	a4,a5,13f04 <_start+0x285a>
   13ef4:	6509                	lui	a0,0x2
   13ef6:	e4b50513          	addi	a0,a0,-437 # 1e4b <.Lline_table_start1+0x1c20>
   13efa:	4581                	li	a1,0
   13efc:	4601                	li	a2,0
   13efe:	4681                	li	a3,0
   13f00:	00000073          	ecall
   13f04:	4781                	li	a5,0
   13f06:	4809                	li	a6,2
   13f08:	00094283          	lbu	t0,0(s2)
   13f0c:	00194303          	lbu	t1,1(s2)
   13f10:	00294883          	lbu	a7,2(s2)
   13f14:	57014383          	lbu	t2,1392(sp)
   13f18:	57114483          	lbu	s1,1393(sp)
   13f1c:	57214403          	lbu	s0,1394(sp)
   13f20:	57314583          	lbu	a1,1395(sp)
   13f24:	57414503          	lbu	a0,1396(sp)
   13f28:	57010623          	sb	a6,1388(sp)
   13f2c:	57514603          	lbu	a2,1397(sp)
   13f30:	57614803          	lbu	a6,1398(sp)
   13f34:	57714683          	lbu	a3,1399(sp)
   13f38:	57814703          	lbu	a4,1400(sp)
   13f3c:	0322                	slli	t1,t1,0x8
   13f3e:	04a2                	slli	s1,s1,0x8
   13f40:	0442                	slli	s0,s0,0x10
   13f42:	05e2                	slli	a1,a1,0x18
   13f44:	0622                	slli	a2,a2,0x8
   13f46:	005362b3          	or	t0,t1,t0
   13f4a:	0074e333          	or	t1,s1,t2
   13f4e:	0085ee33          	or	t3,a1,s0
   13f52:	00a663b3          	or	t2,a2,a0
   13f56:	57914603          	lbu	a2,1401(sp)
   13f5a:	57a14403          	lbu	s0,1402(sp)
   13f5e:	57b14483          	lbu	s1,1403(sp)
   13f62:	57c14503          	lbu	a0,1404(sp)
   13f66:	0842                	slli	a6,a6,0x10
   13f68:	06e2                	slli	a3,a3,0x18
   13f6a:	0622                	slli	a2,a2,0x8
   13f6c:	0442                	slli	s0,s0,0x10
   13f6e:	04e2                	slli	s1,s1,0x18
   13f70:	0106e6b3          	or	a3,a3,a6
   13f74:	8e59                	or	a2,a2,a4
   13f76:	57d14703          	lbu	a4,1405(sp)
   13f7a:	8c45                	or	s0,s0,s1
   13f7c:	57e14483          	lbu	s1,1406(sp)
   13f80:	57f14583          	lbu	a1,1407(sp)
   13f84:	0722                	slli	a4,a4,0x8
   13f86:	8d59                	or	a0,a0,a4
   13f88:	04c2                	slli	s1,s1,0x10
   13f8a:	05e2                	slli	a1,a1,0x18
   13f8c:	8dc5                	or	a1,a1,s1
   13f8e:	2e511423          	sh	t0,744(sp)
   13f92:	2f110523          	sb	a7,746(sp)
   13f96:	006e6b33          	or	s6,t3,t1
   13f9a:	0076e6b3          	or	a3,a3,t2
   13f9e:	8e41                	or	a2,a2,s0
   13fa0:	8d4d                	or	a0,a0,a1
   13fa2:	040c                	addi	a1,sp,512
   13fa4:	c1b4                	sw	a3,64(a1)
   13fa6:	c1f0                	sw	a2,68(a1)
   13fa8:	c5a8                	sw	a0,72(a1)
   13faa:	ba51                	j	1393e <_start+0x2294>
   13fac:	56c10513          	addi	a0,sp,1388
   13fb0:	ffffd097          	auipc	ra,0xffffd
   13fb4:	65e080e7          	jalr	1630(ra) # 1160e <_ZN9allow_pin12dynamic_type23Buffer$LT$B$C$_$C$_$GT$7unallow17h73d48311e15db622E>
   13fb8:	46410513          	addi	a0,sp,1124
   13fbc:	ffffd097          	auipc	ra,0xffffd
   13fc0:	652080e7          	jalr	1618(ra) # 1160e <_ZN9allow_pin12dynamic_type23Buffer$LT$B$C$_$C$_$GT$7unallow17h73d48311e15db622E>
   13fc4:	00006297          	auipc	t0,0x6
   13fc8:	8fc282e7          	jalr	t0,-1796(t0) # 198c0 <OUTLINED_FUNCTION_55>
   13fcc:	00010837          	lui	a6,0x10
   13fd0:	19980813          	addi	a6,a6,409 # 10199 <.Lanon.49c9f8067fe4468184af16d7576940c9.3>
   13fd4:	01148363          	beq	s1,a7,13fda <_start+0x2930>
   13fd8:	8a42                	mv	s4,a6
   13fda:	001a4683          	lbu	a3,1(s4)
   13fde:	000a4703          	lbu	a4,0(s4)
   13fe2:	002a4783          	lbu	a5,2(s4)
   13fe6:	00005297          	auipc	t0,0x5
   13fea:	75e282e7          	jalr	t0,1886(t0) # 19744 <OUTLINED_FUNCTION_35>
   13fee:	44d11623          	sh	a3,1100(sp)
   13ff2:	44f10723          	sb	a5,1102(sp)
   13ff6:	00b566b3          	or	a3,a0,a1
   13ffa:	167d                	addi	a2,a2,-1
   13ffc:	01148463          	beq	s1,a7,14004 <_start+0x295a>
   14000:	00780993          	addi	s3,a6,7
   14004:	00d67b33          	and	s6,a2,a3
   14008:	15a8                	addi	a0,sp,744
   1400a:	02b00613          	li	a2,43
   1400e:	85ce                	mv	a1,s3
   14010:	00006097          	auipc	ra,0x6
   14014:	96a080e7          	jalr	-1686(ra) # 1997a <memcpy>
   14018:	4781                	li	a5,0
   1401a:	b4e5                	j	13b02 <_start+0x2458>
   1401c:	32e00513          	li	a0,814
   14020:	45a5                	li	a1,9
   14022:	4601                	li	a2,0
   14024:	4681                	li	a3,0
   14026:	00000073          	ecall
   1402a:	56c14703          	lbu	a4,1388(sp)
   1402e:	50f10e23          	sb	a5,1308(sp)
   14032:	00f70963          	beq	a4,a5,14044 <_start+0x299a>
   14036:	32e00513          	li	a0,814
   1403a:	459d                	li	a1,7
   1403c:	4601                	li	a2,0
   1403e:	4681                	li	a3,0
   14040:	00000073          	ecall
   14044:	00005297          	auipc	t0,0x5
   14048:	6f0282e7          	jalr	t0,1776(t0) # 19734 <OUTLINED_FUNCTION_34>
   1404c:	00005297          	auipc	t0,0x5
   14050:	246282e7          	jalr	t0,582(t0) # 19292 <OUTLINED_FUNCTION_0>
   14054:	04e00613          	li	a2,78
   14058:	00006097          	auipc	ra,0x6
   1405c:	922080e7          	jalr	-1758(ra) # 1997a <memcpy>
   14060:	4781                	li	a5,0
   14062:	bad1                	j	13a36 <_start+0x238c>
   14064:	51c14703          	lbu	a4,1308(sp)
   14068:	4789                	li	a5,2
   1406a:	2cf71ee3          	bne	a4,a5,14b46 <_start+0x349c>
   1406e:	470d                	li	a4,3
   14070:	2f30006f          	j	14b62 <_start+0x34b8>
   14074:	46f10223          	sb	a5,1124(sp)
   14078:	6509                	lui	a0,0x2
   1407a:	47c50513          	addi	a0,a0,1148 # 247c <.Lline_table_start1+0x2251>
   1407e:	4585                	li	a1,1
   14080:	4405                	li	s0,1
   14082:	4601                	li	a2,0
   14084:	ffffd097          	auipc	ra,0xffffd
   14088:	618080e7          	jalr	1560(ra) # 1169c <_ZN9allow_pin7command17h1eb46760111c3605E>
   1408c:	8905                	andi	a0,a0,1
   1408e:	300503e3          	beqz	a0,14b94 <_start+0x34ea>
   14092:	8b2e                	mv	s6,a1
   14094:	46414703          	lbu	a4,1124(sp)
   14098:	4789                	li	a5,2
   1409a:	00f70a63          	beq	a4,a5,140ae <_start+0x2a04>
   1409e:	6509                	lui	a0,0x2
   140a0:	47c50513          	addi	a0,a0,1148 # 247c <.Lline_table_start1+0x2251>
   140a4:	4581                	li	a1,0
   140a6:	4601                	li	a2,0
   140a8:	4681                	li	a3,0
   140aa:	00000073          	ecall
   140ae:	56c14703          	lbu	a4,1388(sp)
   140b2:	00f70a63          	beq	a4,a5,140c6 <_start+0x2a1c>
   140b6:	6509                	lui	a0,0x2
   140b8:	47c50513          	addi	a0,a0,1148 # 247c <.Lline_table_start1+0x2251>
   140bc:	4585                	li	a1,1
   140be:	4601                	li	a2,0
   140c0:	4681                	li	a3,0
   140c2:	00000073          	ecall
   140c6:	c019                	beqz	s0,140cc <_start+0x2a22>
   140c8:	0680506f          	j	19130 <_start+0x7a86>
   140cc:	00005297          	auipc	t0,0x5
   140d0:	700282e7          	jalr	t0,1792(t0) # 197cc <OUTLINED_FUNCTION_40>
   140d4:	00005297          	auipc	t0,0x5
   140d8:	706282e7          	jalr	t0,1798(t0) # 197da <OUTLINED_FUNCTION_41>
   140dc:	0488                	addi	a0,sp,576
   140de:	15ac                	addi	a1,sp,744
   140e0:	466d                	li	a2,27
   140e2:	00006097          	auipc	ra,0x6
   140e6:	898080e7          	jalr	-1896(ra) # 1997a <memcpy>
   140ea:	52410513          	addi	a0,sp,1316
   140ee:	048c                	addi	a1,sp,576
   140f0:	466d                	li	a2,27
   140f2:	00006097          	auipc	ra,0x6
   140f6:	888080e7          	jalr	-1912(ra) # 1997a <memcpy>
   140fa:	00005297          	auipc	t0,0x5
   140fe:	710282e7          	jalr	t0,1808(t0) # 1980a <OUTLINED_FUNCTION_44>
   14102:	05100613          	li	a2,81
   14106:	8552                	mv	a0,s4
   14108:	4581                	li	a1,0
   1410a:	00006097          	auipc	ra,0x6
   1410e:	804080e7          	jalr	-2044(ra) # 1990e <memset>
   14112:	56810623          	sb	s0,1388(sp)
   14116:	51c10513          	addi	a0,sp,1308
   1411a:	02200593          	li	a1,34
   1411e:	4611                	li	a2,4
   14120:	ffffd097          	auipc	ra,0xffffd
   14124:	1d8080e7          	jalr	472(ra) # 112f8 <_ZN9allow_pin12dynamic_type23Buffer$LT$B$C$_$C$_$GT$5allow17h0edf0a9be50f20f3E>
   14128:	8905                	andi	a0,a0,1
   1412a:	e51d                	bnez	a0,14158 <_start+0x2aae>
   1412c:	56c10513          	addi	a0,sp,1388
   14130:	05100593          	li	a1,81
   14134:	460d                	li	a2,3
   14136:	ffffd097          	auipc	ra,0xffffd
   1413a:	1c2080e7          	jalr	450(ra) # 112f8 <_ZN9allow_pin12dynamic_type23Buffer$LT$B$C$_$C$_$GT$5allow17h0edf0a9be50f20f3E>
   1413e:	8905                	andi	a0,a0,1
   14140:	ed01                	bnez	a0,14158 <_start+0x2aae>
   14142:	55e00513          	li	a0,1374
   14146:	45a5                	li	a1,9
   14148:	4625                	li	a2,9
   1414a:	ffffd097          	auipc	ra,0xffffd
   1414e:	552080e7          	jalr	1362(ra) # 1169c <_ZN9allow_pin7command17h1eb46760111c3605E>
   14152:	8905                	andi	a0,a0,1
   14154:	240507e3          	beqz	a0,14ba2 <_start+0x34f8>
   14158:	8b2e                	mv	s6,a1
   1415a:	56c14483          	lbu	s1,1388(sp)
   1415e:	4785                	li	a5,1
   14160:	4409                	li	s0,2
   14162:	00848a63          	beq	s1,s0,14176 <_start+0x2acc>
   14166:	55e00513          	li	a0,1374
   1416a:	45a5                	li	a1,9
   1416c:	4601                	li	a2,0
   1416e:	4681                	li	a3,0
   14170:	8726                	mv	a4,s1
   14172:	00000073          	ecall
   14176:	51c14703          	lbu	a4,1308(sp)
   1417a:	00870963          	beq	a4,s0,1418c <_start+0x2ae2>
   1417e:	55e00513          	li	a0,1374
   14182:	45a5                	li	a1,9
   14184:	4601                	li	a2,0
   14186:	4681                	li	a3,0
   14188:	00000073          	ecall
   1418c:	c399                	beqz	a5,14192 <_start+0x2ae8>
   1418e:	7a30406f          	j	19130 <_start+0x7a86>
   14192:	00005297          	auipc	t0,0x5
   14196:	33c282e7          	jalr	t0,828(t0) # 194ce <OUTLINED_FUNCTION_12>
   1419a:	04a00613          	li	a2,74
   1419e:	00005097          	auipc	ra,0x5
   141a2:	7dc080e7          	jalr	2012(ra) # 1997a <memcpy>
   141a6:	00005297          	auipc	t0,0x5
   141aa:	72a282e7          	jalr	t0,1834(t0) # 198d0 <OUTLINED_FUNCTION_56>
   141ae:	00005097          	auipc	ra,0x5
   141b2:	7cc080e7          	jalr	1996(ra) # 1997a <memcpy>
   141b6:	00005297          	auipc	t0,0x5
   141ba:	2d0282e7          	jalr	t0,720(t0) # 19486 <OUTLINED_FUNCTION_10>
   141be:	04f00613          	li	a2,79
   141c2:	854e                	mv	a0,s3
   141c4:	4581                	li	a1,0
   141c6:	00005097          	auipc	ra,0x5
   141ca:	748080e7          	jalr	1864(ra) # 1990e <memset>
   141ce:	00005297          	auipc	t0,0x5
   141d2:	6d6282e7          	jalr	t0,1750(t0) # 198a4 <OUTLINED_FUNCTION_53>
   141d6:	4589                	li	a1,2
   141d8:	e1650793          	addi	a5,a0,-490
   141dc:	05100693          	li	a3,81
   141e0:	4711                	li	a4,4
   141e2:	853e                	mv	a0,a5
   141e4:	00000073          	ecall
   141e8:	02950d63          	beq	a0,s1,14222 <_start+0x2b78>
   141ec:	00005297          	auipc	t0,0x5
   141f0:	70a282e7          	jalr	t0,1802(t0) # 198f6 <OUTLINED_FUNCTION_59>
   141f4:	4591                	li	a1,4
   141f6:	04f00693          	li	a3,79
   141fa:	470d                	li	a4,3
   141fc:	00000073          	ecall
   14200:	02950163          	beq	a0,s1,14222 <_start+0x2b78>
   14204:	46f10223          	sb	a5,1124(sp)
   14208:	6505                	lui	a0,0x1
   1420a:	4589                	li	a1,2
   1420c:	e1650513          	addi	a0,a0,-490 # e16 <.Lline_table_start1+0xbeb>
   14210:	4611                	li	a2,4
   14212:	4409                	li	s0,2
   14214:	ffffd097          	auipc	ra,0xffffd
   14218:	488080e7          	jalr	1160(ra) # 1169c <_ZN9allow_pin7command17h1eb46760111c3605E>
   1421c:	8905                	andi	a0,a0,1
   1421e:	240507e3          	beqz	a0,14c6c <_start+0x35c2>
   14222:	4785                	li	a5,1
   14224:	8b2e                	mv	s6,a1
   14226:	46414703          	lbu	a4,1124(sp)
   1422a:	4489                	li	s1,2
   1422c:	00970a63          	beq	a4,s1,14240 <_start+0x2b96>
   14230:	6505                	lui	a0,0x1
   14232:	e1650513          	addi	a0,a0,-490 # e16 <.Lline_table_start1+0xbeb>
   14236:	4591                	li	a1,4
   14238:	4601                	li	a2,0
   1423a:	4681                	li	a3,0
   1423c:	00000073          	ecall
   14240:	56c14703          	lbu	a4,1388(sp)
   14244:	00970a63          	beq	a4,s1,14258 <_start+0x2bae>
   14248:	6505                	lui	a0,0x1
   1424a:	e1650513          	addi	a0,a0,-490 # e16 <.Lline_table_start1+0xbeb>
   1424e:	4589                	li	a1,2
   14250:	4601                	li	a2,0
   14252:	4681                	li	a3,0
   14254:	00000073          	ecall
   14258:	c399                	beqz	a5,1425e <_start+0x2bb4>
   1425a:	6d70406f          	j	19130 <_start+0x7a86>
   1425e:	00005297          	auipc	t0,0x5
   14262:	41a282e7          	jalr	t0,1050(t0) # 19678 <OUTLINED_FUNCTION_27>
   14266:	0168                	addi	a0,sp,140
   14268:	048c                	addi	a1,sp,576
   1426a:	04800613          	li	a2,72
   1426e:	00005097          	auipc	ra,0x5
   14272:	70c080e7          	jalr	1804(ra) # 1997a <memcpy>
   14276:	00005297          	auipc	t0,0x5
   1427a:	210282e7          	jalr	t0,528(t0) # 19486 <OUTLINED_FUNCTION_10>
   1427e:	57410513          	addi	a0,sp,1396
   14282:	016c                	addi	a1,sp,140
   14284:	04800613          	li	a2,72
   14288:	00005097          	auipc	ra,0x5
   1428c:	6f2080e7          	jalr	1778(ra) # 1997a <memcpy>
   14290:	03b00613          	li	a2,59
   14294:	854e                	mv	a0,s3
   14296:	4581                	li	a1,0
   14298:	00005097          	auipc	ra,0x5
   1429c:	676080e7          	jalr	1654(ra) # 1990e <memset>
   142a0:	00005297          	auipc	t0,0x5
   142a4:	604282e7          	jalr	t0,1540(t0) # 198a4 <OUTLINED_FUNCTION_53>
   142a8:	45a1                	li	a1,8
   142aa:	a0650793          	addi	a5,a0,-1530
   142ae:	04f00693          	li	a3,79
   142b2:	4711                	li	a4,4
   142b4:	853e                	mv	a0,a5
   142b6:	00000073          	ecall
   142ba:	02950c63          	beq	a0,s1,142f2 <_start+0x2c48>
   142be:	00005297          	auipc	t0,0x5
   142c2:	638282e7          	jalr	t0,1592(t0) # 198f6 <OUTLINED_FUNCTION_59>
   142c6:	4595                	li	a1,5
   142c8:	03b00693          	li	a3,59
   142cc:	470d                	li	a4,3
   142ce:	00000073          	ecall
   142d2:	02950063          	beq	a0,s1,142f2 <_start+0x2c48>
   142d6:	46f10223          	sb	a5,1124(sp)
   142da:	6505                	lui	a0,0x1
   142dc:	45a1                	li	a1,8
   142de:	a0650513          	addi	a0,a0,-1530 # a06 <.Lline_table_start1+0x7db>
   142e2:	4615                	li	a2,5
   142e4:	ffffd097          	auipc	ra,0xffffd
   142e8:	3b8080e7          	jalr	952(ra) # 1169c <_ZN9allow_pin7command17h1eb46760111c3605E>
   142ec:	8905                	andi	a0,a0,1
   142ee:	180505e3          	beqz	a0,14c78 <_start+0x35ce>
   142f2:	4785                	li	a5,1
   142f4:	8b2e                	mv	s6,a1
   142f6:	46414703          	lbu	a4,1124(sp)
   142fa:	4489                	li	s1,2
   142fc:	00970a63          	beq	a4,s1,14310 <_start+0x2c66>
   14300:	6505                	lui	a0,0x1
   14302:	a0650513          	addi	a0,a0,-1530 # a06 <.Lline_table_start1+0x7db>
   14306:	4595                	li	a1,5
   14308:	4601                	li	a2,0
   1430a:	4681                	li	a3,0
   1430c:	00000073          	ecall
   14310:	56c14703          	lbu	a4,1388(sp)
   14314:	00970a63          	beq	a4,s1,14328 <_start+0x2c7e>
   14318:	6505                	lui	a0,0x1
   1431a:	a0650513          	addi	a0,a0,-1530 # a06 <.Lline_table_start1+0x7db>
   1431e:	45a1                	li	a1,8
   14320:	4601                	li	a2,0
   14322:	4681                	li	a3,0
   14324:	00000073          	ecall
   14328:	c399                	beqz	a5,1432e <_start+0x2c84>
   1432a:	6070406f          	j	19130 <_start+0x7a86>
   1432e:	00005297          	auipc	t0,0x5
   14332:	34a282e7          	jalr	t0,842(t0) # 19678 <OUTLINED_FUNCTION_27>
   14336:	09c8                	addi	a0,sp,212
   14338:	048c                	addi	a1,sp,576
   1433a:	03400613          	li	a2,52
   1433e:	00005097          	auipc	ra,0x5
   14342:	63c080e7          	jalr	1596(ra) # 1997a <memcpy>
   14346:	00005297          	auipc	t0,0x5
   1434a:	140282e7          	jalr	t0,320(t0) # 19486 <OUTLINED_FUNCTION_10>
   1434e:	57410513          	addi	a0,sp,1396
   14352:	09cc                	addi	a1,sp,212
   14354:	03400613          	li	a2,52
   14358:	00005097          	auipc	ra,0x5
   1435c:	622080e7          	jalr	1570(ra) # 1997a <memcpy>
   14360:	02700613          	li	a2,39
   14364:	854e                	mv	a0,s3
   14366:	4581                	li	a1,0
   14368:	00005097          	auipc	ra,0x5
   1436c:	5a6080e7          	jalr	1446(ra) # 1990e <memset>
   14370:	00005297          	auipc	t0,0x5
   14374:	534282e7          	jalr	t0,1332(t0) # 198a4 <OUTLINED_FUNCTION_53>
   14378:	4595                	li	a1,5
   1437a:	bd350793          	addi	a5,a0,-1069
   1437e:	03b00693          	li	a3,59
   14382:	4711                	li	a4,4
   14384:	853e                	mv	a0,a5
   14386:	00000073          	ecall
   1438a:	02950c63          	beq	a0,s1,143c2 <_start+0x2d18>
   1438e:	00005297          	auipc	t0,0x5
   14392:	568282e7          	jalr	t0,1384(t0) # 198f6 <OUTLINED_FUNCTION_59>
   14396:	458d                	li	a1,3
   14398:	02700693          	li	a3,39
   1439c:	470d                	li	a4,3
   1439e:	00000073          	ecall
   143a2:	02950063          	beq	a0,s1,143c2 <_start+0x2d18>
   143a6:	46f10223          	sb	a5,1124(sp)
   143aa:	6505                	lui	a0,0x1
   143ac:	4595                	li	a1,5
   143ae:	bd350513          	addi	a0,a0,-1069 # bd3 <.Lline_table_start1+0x9a8>
   143b2:	460d                	li	a2,3
   143b4:	ffffd097          	auipc	ra,0xffffd
   143b8:	2e8080e7          	jalr	744(ra) # 1169c <_ZN9allow_pin7command17h1eb46760111c3605E>
   143bc:	8905                	andi	a0,a0,1
   143be:	10050be3          	beqz	a0,14cd4 <_start+0x362a>
   143c2:	4785                	li	a5,1
   143c4:	8b2e                	mv	s6,a1
   143c6:	46414703          	lbu	a4,1124(sp)
   143ca:	4489                	li	s1,2
   143cc:	00970a63          	beq	a4,s1,143e0 <_start+0x2d36>
   143d0:	6505                	lui	a0,0x1
   143d2:	bd350513          	addi	a0,a0,-1069 # bd3 <.Lline_table_start1+0x9a8>
   143d6:	458d                	li	a1,3
   143d8:	4601                	li	a2,0
   143da:	4681                	li	a3,0
   143dc:	00000073          	ecall
   143e0:	56c14703          	lbu	a4,1388(sp)
   143e4:	00970a63          	beq	a4,s1,143f8 <_start+0x2d4e>
   143e8:	6505                	lui	a0,0x1
   143ea:	bd350513          	addi	a0,a0,-1069 # bd3 <.Lline_table_start1+0x9a8>
   143ee:	4595                	li	a1,5
   143f0:	4601                	li	a2,0
   143f2:	4681                	li	a3,0
   143f4:	00000073          	ecall
   143f8:	c399                	beqz	a5,143fe <_start+0x2d54>
   143fa:	5370406f          	j	19130 <_start+0x7a86>
   143fe:	00005297          	auipc	t0,0x5
   14402:	3fe282e7          	jalr	t0,1022(t0) # 197fc <OUTLINED_FUNCTION_43>
   14406:	00005297          	auipc	t0,0x5
   1440a:	2c4282e7          	jalr	t0,708(t0) # 196ca <OUTLINED_FUNCTION_30>
   1440e:	0228                	addi	a0,sp,264
   14410:	048c                	addi	a1,sp,576
   14412:	02000613          	li	a2,32
   14416:	00005097          	auipc	ra,0x5
   1441a:	564080e7          	jalr	1380(ra) # 1997a <memcpy>
   1441e:	00005297          	auipc	t0,0x5
   14422:	044282e7          	jalr	t0,68(t0) # 19462 <OUTLINED_FUNCTION_9>
   14426:	57410513          	addi	a0,sp,1396
   1442a:	022c                	addi	a1,sp,264
   1442c:	02000613          	li	a2,32
   14430:	00005097          	auipc	ra,0x5
   14434:	54a080e7          	jalr	1354(ra) # 1997a <memcpy>
   14438:	4651                	li	a2,20
   1443a:	854e                	mv	a0,s3
   1443c:	4581                	li	a1,0
   1443e:	00005097          	auipc	ra,0x5
   14442:	4d0080e7          	jalr	1232(ra) # 1990e <memset>
   14446:	864a                	mv	a2,s2
   14448:	46810223          	sb	s0,1124(sp)
   1444c:	6509                	lui	a0,0x2
   1444e:	4491                	li	s1,4
   14450:	4599                	li	a1,6
   14452:	2c950793          	addi	a5,a0,713 # 22c9 <.Lline_table_start1+0x209e>
   14456:	02700693          	li	a3,39
   1445a:	4711                	li	a4,4
   1445c:	853e                	mv	a0,a5
   1445e:	00000073          	ecall
   14462:	02850b63          	beq	a0,s0,14498 <_start+0x2dee>
   14466:	00005297          	auipc	t0,0x5
   1446a:	484282e7          	jalr	t0,1156(t0) # 198ea <OUTLINED_FUNCTION_58>
   1446e:	4595                	li	a1,5
   14470:	46d1                	li	a3,20
   14472:	470d                	li	a4,3
   14474:	00000073          	ecall
   14478:	02850063          	beq	a0,s0,14498 <_start+0x2dee>
   1447c:	46f10223          	sb	a5,1124(sp)
   14480:	6509                	lui	a0,0x2
   14482:	4599                	li	a1,6
   14484:	2c950513          	addi	a0,a0,713 # 22c9 <.Lline_table_start1+0x209e>
   14488:	4615                	li	a2,5
   1448a:	ffffd097          	auipc	ra,0xffffd
   1448e:	212080e7          	jalr	530(ra) # 1169c <_ZN9allow_pin7command17h1eb46760111c3605E>
   14492:	8905                	andi	a0,a0,1
   14494:	08050ee3          	beqz	a0,14d30 <_start+0x3686>
   14498:	4785                	li	a5,1
   1449a:	8b2e                	mv	s6,a1
   1449c:	46414703          	lbu	a4,1124(sp)
   144a0:	4489                	li	s1,2
   144a2:	00970a63          	beq	a4,s1,144b6 <_start+0x2e0c>
   144a6:	6509                	lui	a0,0x2
   144a8:	2c950513          	addi	a0,a0,713 # 22c9 <.Lline_table_start1+0x209e>
   144ac:	4595                	li	a1,5
   144ae:	4601                	li	a2,0
   144b0:	4681                	li	a3,0
   144b2:	00000073          	ecall
   144b6:	56c14703          	lbu	a4,1388(sp)
   144ba:	00970a63          	beq	a4,s1,144ce <_start+0x2e24>
   144be:	6509                	lui	a0,0x2
   144c0:	2c950513          	addi	a0,a0,713 # 22c9 <.Lline_table_start1+0x209e>
   144c4:	4599                	li	a1,6
   144c6:	4601                	li	a2,0
   144c8:	4681                	li	a3,0
   144ca:	00000073          	ecall
   144ce:	c399                	beqz	a5,144d4 <_start+0x2e2a>
   144d0:	4610406f          	j	19130 <_start+0x7a86>
   144d4:	00005297          	auipc	t0,0x5
   144d8:	15e282e7          	jalr	t0,350(t0) # 19632 <OUTLINED_FUNCTION_24>
   144dc:	0514                	addi	a3,sp,640
   144de:	56a8                	lw	a0,104(a3)
   144e0:	56ec                	lw	a1,108(a3)
   144e2:	5ab0                	lw	a2,112(a3)
   144e4:	2f414683          	lbu	a3,756(sp)
   144e8:	50010713          	addi	a4,sp,1280
   144ec:	cf48                	sw	a0,28(a4)
   144ee:	d30c                	sw	a1,32(a4)
   144f0:	d350                	sw	a2,36(a4)
   144f2:	52d10423          	sb	a3,1320(sp)
   144f6:	04a8                	addi	a0,sp,584
   144f8:	51c10593          	addi	a1,sp,1308
   144fc:	4635                	li	a2,13
   144fe:	00005097          	auipc	ra,0x5
   14502:	47c080e7          	jalr	1148(ra) # 1997a <memcpy>
   14506:	00005297          	auipc	t0,0x5
   1450a:	06e282e7          	jalr	t0,110(t0) # 19574 <OUTLINED_FUNCTION_17>
   1450e:	02b00613          	li	a2,43
   14512:	854a                	mv	a0,s2
   14514:	4581                	li	a1,0
   14516:	00005097          	auipc	ra,0x5
   1451a:	3f8080e7          	jalr	1016(ra) # 1990e <memset>
   1451e:	00005297          	auipc	t0,0x5
   14522:	3e4282e7          	jalr	t0,996(t0) # 19902 <OUTLINED_FUNCTION_60>
   14526:	45a1                	li	a1,8
   14528:	39f50793          	addi	a5,a0,927
   1452c:	46d1                	li	a3,20
   1452e:	4711                	li	a4,4
   14530:	853e                	mv	a0,a5
   14532:	00000073          	ecall
   14536:	02950d63          	beq	a0,s1,14570 <_start+0x2ec6>
   1453a:	853e                	mv	a0,a5
   1453c:	864a                	mv	a2,s2
   1453e:	24810023          	sb	s0,576(sp)
   14542:	478d                	li	a5,3
   14544:	4591                	li	a1,4
   14546:	02b00693          	li	a3,43
   1454a:	470d                	li	a4,3
   1454c:	00000073          	ecall
   14550:	02950063          	beq	a0,s1,14570 <_start+0x2ec6>
   14554:	56f10623          	sb	a5,1388(sp)
   14558:	6509                	lui	a0,0x2
   1455a:	45a1                	li	a1,8
   1455c:	39f50513          	addi	a0,a0,927 # 239f <.Lline_table_start1+0x2174>
   14560:	4611                	li	a2,4
   14562:	ffffd097          	auipc	ra,0xffffd
   14566:	13a080e7          	jalr	314(ra) # 1169c <_ZN9allow_pin7command17h1eb46760111c3605E>
   1456a:	8905                	andi	a0,a0,1
   1456c:	020500e3          	beqz	a0,14d8c <_start+0x36e2>
   14570:	4785                	li	a5,1
   14572:	8b2e                	mv	s6,a1
   14574:	56c14703          	lbu	a4,1388(sp)
   14578:	4489                	li	s1,2
   1457a:	00970a63          	beq	a4,s1,1458e <_start+0x2ee4>
   1457e:	6509                	lui	a0,0x2
   14580:	39f50513          	addi	a0,a0,927 # 239f <.Lline_table_start1+0x2174>
   14584:	4591                	li	a1,4
   14586:	4601                	li	a2,0
   14588:	4681                	li	a3,0
   1458a:	00000073          	ecall
   1458e:	24014703          	lbu	a4,576(sp)
   14592:	00970a63          	beq	a4,s1,145a6 <_start+0x2efc>
   14596:	6509                	lui	a0,0x2
   14598:	39f50513          	addi	a0,a0,927 # 239f <.Lline_table_start1+0x2174>
   1459c:	45a1                	li	a1,8
   1459e:	4601                	li	a2,0
   145a0:	4681                	li	a3,0
   145a2:	00000073          	ecall
   145a6:	c399                	beqz	a5,145ac <_start+0x2f02>
   145a8:	3890406f          	j	19130 <_start+0x7a86>
   145ac:	00005297          	auipc	t0,0x5
   145b0:	250282e7          	jalr	t0,592(t0) # 197fc <OUTLINED_FUNCTION_43>
   145b4:	00005297          	auipc	t0,0x5
   145b8:	116282e7          	jalr	t0,278(t0) # 196ca <OUTLINED_FUNCTION_30>
   145bc:	1228                	addi	a0,sp,296
   145be:	46410593          	addi	a1,sp,1124
   145c2:	02400613          	li	a2,36
   145c6:	00005097          	auipc	ra,0x5
   145ca:	3b4080e7          	jalr	948(ra) # 1997a <memcpy>
   145ce:	00005297          	auipc	t0,0x5
   145d2:	e94282e7          	jalr	t0,-364(t0) # 19462 <OUTLINED_FUNCTION_9>
   145d6:	57410513          	addi	a0,sp,1396
   145da:	122c                	addi	a1,sp,296
   145dc:	02400613          	li	a2,36
   145e0:	00005097          	auipc	ra,0x5
   145e4:	39a080e7          	jalr	922(ra) # 1997a <memcpy>
   145e8:	4679                	li	a2,30
   145ea:	854e                	mv	a0,s3
   145ec:	4581                	li	a1,0
   145ee:	00005097          	auipc	ra,0x5
   145f2:	320080e7          	jalr	800(ra) # 1990e <memset>
   145f6:	864a                	mv	a2,s2
   145f8:	46810223          	sb	s0,1124(sp)
   145fc:	4791                	li	a5,4
   145fe:	7e300513          	li	a0,2019
   14602:	459d                	li	a1,7
   14604:	02b00693          	li	a3,43
   14608:	4711                	li	a4,4
   1460a:	00000073          	ecall
   1460e:	02850c63          	beq	a0,s0,14646 <_start+0x2f9c>
   14612:	864e                	mv	a2,s3
   14614:	56f10623          	sb	a5,1388(sp)
   14618:	478d                	li	a5,3
   1461a:	7e300513          	li	a0,2019
   1461e:	45a1                	li	a1,8
   14620:	46f9                	li	a3,30
   14622:	470d                	li	a4,3
   14624:	00000073          	ecall
   14628:	00850f63          	beq	a0,s0,14646 <_start+0x2f9c>
   1462c:	46f10223          	sb	a5,1124(sp)
   14630:	7e300513          	li	a0,2019
   14634:	459d                	li	a1,7
   14636:	4621                	li	a2,8
   14638:	ffffd097          	auipc	ra,0xffffd
   1463c:	064080e7          	jalr	100(ra) # 1169c <_ZN9allow_pin7command17h1eb46760111c3605E>
   14640:	8905                	andi	a0,a0,1
   14642:	02050ce3          	beqz	a0,14e7a <_start+0x37d0>
   14646:	4785                	li	a5,1
   14648:	8b2e                	mv	s6,a1
   1464a:	46414703          	lbu	a4,1124(sp)
   1464e:	4489                	li	s1,2
   14650:	00970963          	beq	a4,s1,14662 <_start+0x2fb8>
   14654:	7e300513          	li	a0,2019
   14658:	45a1                	li	a1,8
   1465a:	4601                	li	a2,0
   1465c:	4681                	li	a3,0
   1465e:	00000073          	ecall
   14662:	56c14703          	lbu	a4,1388(sp)
   14666:	00970963          	beq	a4,s1,14678 <_start+0x2fce>
   1466a:	7e300513          	li	a0,2019
   1466e:	459d                	li	a1,7
   14670:	4601                	li	a2,0
   14672:	4681                	li	a3,0
   14674:	00000073          	ecall
   14678:	c399                	beqz	a5,1467e <_start+0x2fd4>
   1467a:	2b70406f          	j	19130 <_start+0x7a86>
   1467e:	00005297          	auipc	t0,0x5
   14682:	e74282e7          	jalr	t0,-396(t0) # 194f2 <OUTLINED_FUNCTION_13>
   14686:	465d                	li	a2,23
   14688:	00005097          	auipc	ra,0x5
   1468c:	2f2080e7          	jalr	754(ra) # 1997a <memcpy>
   14690:	52410513          	addi	a0,sp,1316
   14694:	048c                	addi	a1,sp,576
   14696:	465d                	li	a2,23
   14698:	00005097          	auipc	ra,0x5
   1469c:	2e2080e7          	jalr	738(ra) # 1997a <memcpy>
   146a0:	00005297          	auipc	t0,0x5
   146a4:	e0a282e7          	jalr	t0,-502(t0) # 194aa <OUTLINED_FUNCTION_11>
   146a8:	05100613          	li	a2,81
   146ac:	854a                	mv	a0,s2
   146ae:	4581                	li	a1,0
   146b0:	00005097          	auipc	ra,0x5
   146b4:	25e080e7          	jalr	606(ra) # 1990e <memset>
   146b8:	00005297          	auipc	t0,0x5
   146bc:	24a282e7          	jalr	t0,586(t0) # 19902 <OUTLINED_FUNCTION_60>
   146c0:	4589                	li	a1,2
   146c2:	96b50793          	addi	a5,a0,-1685
   146c6:	46f9                	li	a3,30
   146c8:	4711                	li	a4,4
   146ca:	853e                	mv	a0,a5
   146cc:	00000073          	ecall
   146d0:	02950e63          	beq	a0,s1,1470c <_start+0x3062>
   146d4:	853e                	mv	a0,a5
   146d6:	4581                	li	a1,0
   146d8:	864a                	mv	a2,s2
   146da:	50810e23          	sb	s0,1308(sp)
   146de:	478d                	li	a5,3
   146e0:	05100693          	li	a3,81
   146e4:	470d                	li	a4,3
   146e6:	00000073          	ecall
   146ea:	02950163          	beq	a0,s1,1470c <_start+0x3062>
   146ee:	56f10623          	sb	a5,1388(sp)
   146f2:	6509                	lui	a0,0x2
   146f4:	96b50513          	addi	a0,a0,-1685 # 196b <.Lline_table_start1+0x1740>
   146f8:	4589                	li	a1,2
   146fa:	4409                	li	s0,2
   146fc:	4601                	li	a2,0
   146fe:	ffffd097          	auipc	ra,0xffffd
   14702:	f9e080e7          	jalr	-98(ra) # 1169c <_ZN9allow_pin7command17h1eb46760111c3605E>
   14706:	8905                	andi	a0,a0,1
   14708:	7c050763          	beqz	a0,14ed6 <_start+0x382c>
   1470c:	4785                	li	a5,1
   1470e:	8b2e                	mv	s6,a1
   14710:	56c14703          	lbu	a4,1388(sp)
   14714:	4489                	li	s1,2
   14716:	00970a63          	beq	a4,s1,1472a <_start+0x3080>
   1471a:	6509                	lui	a0,0x2
   1471c:	96b50513          	addi	a0,a0,-1685 # 196b <.Lline_table_start1+0x1740>
   14720:	4581                	li	a1,0
   14722:	4601                	li	a2,0
   14724:	4681                	li	a3,0
   14726:	00000073          	ecall
   1472a:	51c14703          	lbu	a4,1308(sp)
   1472e:	00970a63          	beq	a4,s1,14742 <_start+0x3098>
   14732:	6509                	lui	a0,0x2
   14734:	96b50513          	addi	a0,a0,-1685 # 196b <.Lline_table_start1+0x1740>
   14738:	4589                	li	a1,2
   1473a:	4601                	li	a2,0
   1473c:	4681                	li	a3,0
   1473e:	00000073          	ecall
   14742:	c399                	beqz	a5,14748 <_start+0x309e>
   14744:	1ed0406f          	j	19130 <_start+0x7a86>
   14748:	00005297          	auipc	t0,0x5
   1474c:	e50282e7          	jalr	t0,-432(t0) # 19598 <OUTLINED_FUNCTION_18>
   14750:	46410513          	addi	a0,sp,1124
   14754:	048c                	addi	a1,sp,576
   14756:	04a00613          	li	a2,74
   1475a:	00005097          	auipc	ra,0x5
   1475e:	220080e7          	jalr	544(ra) # 1997a <memcpy>
   14762:	00005297          	auipc	t0,0x5
   14766:	16e282e7          	jalr	t0,366(t0) # 198d0 <OUTLINED_FUNCTION_56>
   1476a:	00005097          	auipc	ra,0x5
   1476e:	210080e7          	jalr	528(ra) # 1997a <memcpy>
   14772:	00005297          	auipc	t0,0x5
   14776:	cf0282e7          	jalr	t0,-784(t0) # 19462 <OUTLINED_FUNCTION_9>
   1477a:	463d                	li	a2,15
   1477c:	854e                	mv	a0,s3
   1477e:	4581                	li	a1,0
   14780:	00005097          	auipc	ra,0x5
   14784:	18e080e7          	jalr	398(ra) # 1990e <memset>
   14788:	4581                	li	a1,0
   1478a:	864a                	mv	a2,s2
   1478c:	46810223          	sb	s0,1124(sp)
   14790:	6505                	lui	a0,0x1
   14792:	4491                	li	s1,4
   14794:	3bf50793          	addi	a5,a0,959 # 13bf <.Lline_table_start1+0x1194>
   14798:	05100693          	li	a3,81
   1479c:	4711                	li	a4,4
   1479e:	853e                	mv	a0,a5
   147a0:	00000073          	ecall
   147a4:	02850b63          	beq	a0,s0,147da <_start+0x3130>
   147a8:	00005297          	auipc	t0,0x5
   147ac:	142282e7          	jalr	t0,322(t0) # 198ea <OUTLINED_FUNCTION_58>
   147b0:	458d                	li	a1,3
   147b2:	46bd                	li	a3,15
   147b4:	470d                	li	a4,3
   147b6:	00000073          	ecall
   147ba:	02850063          	beq	a0,s0,147da <_start+0x3130>
   147be:	46f10223          	sb	a5,1124(sp)
   147c2:	6505                	lui	a0,0x1
   147c4:	3bf50513          	addi	a0,a0,959 # 13bf <.Lline_table_start1+0x1194>
   147c8:	460d                	li	a2,3
   147ca:	4581                	li	a1,0
   147cc:	ffffd097          	auipc	ra,0xffffd
   147d0:	ed0080e7          	jalr	-304(ra) # 1169c <_ZN9allow_pin7command17h1eb46760111c3605E>
   147d4:	8905                	andi	a0,a0,1
   147d6:	74050a63          	beqz	a0,14f2a <_start+0x3880>
   147da:	4805                	li	a6,1
   147dc:	8b2e                	mv	s6,a1
   147de:	46414703          	lbu	a4,1124(sp)
   147e2:	4789                	li	a5,2
   147e4:	00f70a63          	beq	a4,a5,147f8 <_start+0x314e>
   147e8:	6505                	lui	a0,0x1
   147ea:	3bf50513          	addi	a0,a0,959 # 13bf <.Lline_table_start1+0x1194>
   147ee:	458d                	li	a1,3
   147f0:	4601                	li	a2,0
   147f2:	4681                	li	a3,0
   147f4:	00000073          	ecall
   147f8:	56c14703          	lbu	a4,1388(sp)
   147fc:	00f70a63          	beq	a4,a5,14810 <_start+0x3166>
   14800:	6505                	lui	a0,0x1
   14802:	3bf50513          	addi	a0,a0,959 # 13bf <.Lline_table_start1+0x1194>
   14806:	4581                	li	a1,0
   14808:	4601                	li	a2,0
   1480a:	4681                	li	a3,0
   1480c:	00000073          	ecall
   14810:	00080463          	beqz	a6,14818 <_start+0x316e>
   14814:	11d0406f          	j	19130 <_start+0x7a86>
   14818:	51d10a13          	addi	s4,sp,1309
   1481c:	24014803          	lbu	a6,576(sp)
   14820:	24114583          	lbu	a1,577(sp)
   14824:	24214603          	lbu	a2,578(sp)
   14828:	4a89                	li	s5,2
   1482a:	018b5693          	srli	a3,s6,0x18
   1482e:	010b5713          	srli	a4,s6,0x10
   14832:	008b5793          	srli	a5,s6,0x8
   14836:	0182d413          	srli	s0,t0,0x18
   1483a:	0102d493          	srli	s1,t0,0x10
   1483e:	0082d513          	srli	a0,t0,0x8
   14842:	53610023          	sb	s6,1312(sp)
   14846:	52f100a3          	sb	a5,1313(sp)
   1484a:	52e10123          	sb	a4,1314(sp)
   1484e:	52d101a3          	sb	a3,1315(sp)
   14852:	0188d693          	srli	a3,a7,0x18
   14856:	52510223          	sb	t0,1316(sp)
   1485a:	52a102a3          	sb	a0,1317(sp)
   1485e:	52910323          	sb	s1,1318(sp)
   14862:	528103a3          	sb	s0,1319(sp)
   14866:	0108d513          	srli	a0,a7,0x10
   1486a:	51510e23          	sb	s5,1308(sp)
   1486e:	51010ea3          	sb	a6,1309(sp)
   14872:	50b10f23          	sb	a1,1310(sp)
   14876:	50c10fa3          	sb	a2,1311(sp)
   1487a:	0088d593          	srli	a1,a7,0x8
   1487e:	53110423          	sb	a7,1320(sp)
   14882:	52b104a3          	sb	a1,1321(sp)
   14886:	52a10523          	sb	a0,1322(sp)
   1488a:	52d105a3          	sb	a3,1323(sp)
   1488e:	04600613          	li	a2,70
   14892:	854a                	mv	a0,s2
   14894:	4581                	li	a1,0
   14896:	00005097          	auipc	ra,0x5
   1489a:	078080e7          	jalr	120(ra) # 1990e <memset>
   1489e:	8652                	mv	a2,s4
   148a0:	57510623          	sb	s5,1388(sp)
   148a4:	6509                	lui	a0,0x2
   148a6:	4491                	li	s1,4
   148a8:	45a5                	li	a1,9
   148aa:	d7e50793          	addi	a5,a0,-642 # 1d7e <.Lline_table_start1+0x1b53>
   148ae:	46bd                	li	a3,15
   148b0:	4711                	li	a4,4
   148b2:	853e                	mv	a0,a5
   148b4:	00000073          	ecall
   148b8:	03550e63          	beq	a0,s5,148f4 <_start+0x324a>
   148bc:	853e                	mv	a0,a5
   148be:	864a                	mv	a2,s2
   148c0:	50910e23          	sb	s1,1308(sp)
   148c4:	478d                	li	a5,3
   148c6:	4589                	li	a1,2
   148c8:	04600693          	li	a3,70
   148cc:	470d                	li	a4,3
   148ce:	00000073          	ecall
   148d2:	03550163          	beq	a0,s5,148f4 <_start+0x324a>
   148d6:	56f10623          	sb	a5,1388(sp)
   148da:	6509                	lui	a0,0x2
   148dc:	45a5                	li	a1,9
   148de:	d7e50513          	addi	a0,a0,-642 # 1d7e <.Lline_table_start1+0x1b53>
   148e2:	4609                	li	a2,2
   148e4:	4409                	li	s0,2
   148e6:	ffffd097          	auipc	ra,0xffffd
   148ea:	db6080e7          	jalr	-586(ra) # 1169c <_ZN9allow_pin7command17h1eb46760111c3605E>
   148ee:	8905                	andi	a0,a0,1
   148f0:	68050c63          	beqz	a0,14f88 <_start+0x38de>
   148f4:	4785                	li	a5,1
   148f6:	8b2e                	mv	s6,a1
   148f8:	56c14703          	lbu	a4,1388(sp)
   148fc:	4489                	li	s1,2
   148fe:	00970a63          	beq	a4,s1,14912 <_start+0x3268>
   14902:	6509                	lui	a0,0x2
   14904:	d7e50513          	addi	a0,a0,-642 # 1d7e <.Lline_table_start1+0x1b53>
   14908:	4589                	li	a1,2
   1490a:	4601                	li	a2,0
   1490c:	4681                	li	a3,0
   1490e:	00000073          	ecall
   14912:	51c14703          	lbu	a4,1308(sp)
   14916:	00970a63          	beq	a4,s1,1492a <_start+0x3280>
   1491a:	6509                	lui	a0,0x2
   1491c:	d7e50513          	addi	a0,a0,-642 # 1d7e <.Lline_table_start1+0x1b53>
   14920:	45a5                	li	a1,9
   14922:	4601                	li	a2,0
   14924:	4681                	li	a3,0
   14926:	00000073          	ecall
   1492a:	c399                	beqz	a5,14930 <_start+0x3286>
   1492c:	0050406f          	j	19130 <_start+0x7a86>
   14930:	00005297          	auipc	t0,0x5
   14934:	caa282e7          	jalr	t0,-854(t0) # 195da <OUTLINED_FUNCTION_20>
   14938:	46410513          	addi	a0,sp,1124
   1493c:	048c                	addi	a1,sp,576
   1493e:	03f00613          	li	a2,63
   14942:	00005097          	auipc	ra,0x5
   14946:	038080e7          	jalr	56(ra) # 1997a <memcpy>
   1494a:	52410513          	addi	a0,sp,1316
   1494e:	46410593          	addi	a1,sp,1124
   14952:	03f00613          	li	a2,63
   14956:	00005097          	auipc	ra,0x5
   1495a:	024080e7          	jalr	36(ra) # 1997a <memcpy>
   1495e:	00005297          	auipc	t0,0x5
   14962:	b4c282e7          	jalr	t0,-1204(t0) # 194aa <OUTLINED_FUNCTION_11>
   14966:	05600613          	li	a2,86
   1496a:	854a                	mv	a0,s2
   1496c:	4581                	li	a1,0
   1496e:	00005097          	auipc	ra,0x5
   14972:	fa0080e7          	jalr	-96(ra) # 1990e <memset>
   14976:	00005297          	auipc	t0,0x5
   1497a:	f8c282e7          	jalr	t0,-116(t0) # 19902 <OUTLINED_FUNCTION_60>
   1497e:	459d                	li	a1,7
   14980:	e5050793          	addi	a5,a0,-432
   14984:	04600693          	li	a3,70
   14988:	4711                	li	a4,4
   1498a:	853e                	mv	a0,a5
   1498c:	00000073          	ecall
   14990:	02950d63          	beq	a0,s1,149ca <_start+0x3320>
   14994:	853e                	mv	a0,a5
   14996:	864a                	mv	a2,s2
   14998:	50810e23          	sb	s0,1308(sp)
   1499c:	478d                	li	a5,3
   1499e:	458d                	li	a1,3
   149a0:	05600693          	li	a3,86
   149a4:	470d                	li	a4,3
   149a6:	00000073          	ecall
   149aa:	02950063          	beq	a0,s1,149ca <_start+0x3320>
   149ae:	56f10623          	sb	a5,1388(sp)
   149b2:	6509                	lui	a0,0x2
   149b4:	459d                	li	a1,7
   149b6:	e5050513          	addi	a0,a0,-432 # 1e50 <.Lline_table_start1+0x1c25>
   149ba:	460d                	li	a2,3
   149bc:	ffffd097          	auipc	ra,0xffffd
   149c0:	ce0080e7          	jalr	-800(ra) # 1169c <_ZN9allow_pin7command17h1eb46760111c3605E>
   149c4:	8905                	andi	a0,a0,1
   149c6:	68050063          	beqz	a0,15046 <_start+0x399c>
   149ca:	4785                	li	a5,1
   149cc:	8b2e                	mv	s6,a1
   149ce:	56c14703          	lbu	a4,1388(sp)
   149d2:	4489                	li	s1,2
   149d4:	00970a63          	beq	a4,s1,149e8 <_start+0x333e>
   149d8:	6509                	lui	a0,0x2
   149da:	e5050513          	addi	a0,a0,-432 # 1e50 <.Lline_table_start1+0x1c25>
   149de:	458d                	li	a1,3
   149e0:	4601                	li	a2,0
   149e2:	4681                	li	a3,0
   149e4:	00000073          	ecall
   149e8:	51c14703          	lbu	a4,1308(sp)
   149ec:	00970a63          	beq	a4,s1,14a00 <_start+0x3356>
   149f0:	6509                	lui	a0,0x2
   149f2:	e5050513          	addi	a0,a0,-432 # 1e50 <.Lline_table_start1+0x1c25>
   149f6:	459d                	li	a1,7
   149f8:	4601                	li	a2,0
   149fa:	4681                	li	a3,0
   149fc:	00000073          	ecall
   14a00:	c399                	beqz	a5,14a06 <_start+0x335c>
   14a02:	72e0406f          	j	19130 <_start+0x7a86>
   14a06:	00005297          	auipc	t0,0x5
   14a0a:	d72282e7          	jalr	t0,-654(t0) # 19778 <OUTLINED_FUNCTION_37>
   14a0e:	00005297          	auipc	t0,0x5
   14a12:	c10282e7          	jalr	t0,-1008(t0) # 1961e <OUTLINED_FUNCTION_23>
   14a16:	04f00613          	li	a2,79
   14a1a:	00005097          	auipc	ra,0x5
   14a1e:	f60080e7          	jalr	-160(ra) # 1997a <memcpy>
   14a22:	57410513          	addi	a0,sp,1396
   14a26:	46410593          	addi	a1,sp,1124
   14a2a:	04f00613          	li	a2,79
   14a2e:	00005097          	auipc	ra,0x5
   14a32:	f4c080e7          	jalr	-180(ra) # 1997a <memcpy>
   14a36:	00005297          	auipc	t0,0x5
   14a3a:	a2c282e7          	jalr	t0,-1492(t0) # 19462 <OUTLINED_FUNCTION_9>
   14a3e:	04900613          	li	a2,73
   14a42:	854e                	mv	a0,s3
   14a44:	4581                	li	a1,0
   14a46:	00005097          	auipc	ra,0x5
   14a4a:	ec8080e7          	jalr	-312(ra) # 1990e <memset>
   14a4e:	46810223          	sb	s0,1124(sp)
   14a52:	56c10513          	addi	a0,sp,1388
   14a56:	05600593          	li	a1,86
   14a5a:	4611                	li	a2,4
   14a5c:	ffffd097          	auipc	ra,0xffffd
   14a60:	a68080e7          	jalr	-1432(ra) # 114c4 <_ZN9allow_pin12dynamic_type23Buffer$LT$B$C$_$C$_$GT$5allow17hcb5376a51e920b20E>
   14a64:	8905                	andi	a0,a0,1
   14a66:	e905                	bnez	a0,14a96 <_start+0x33ec>
   14a68:	46410513          	addi	a0,sp,1124
   14a6c:	04900593          	li	a1,73
   14a70:	460d                	li	a2,3
   14a72:	ffffd097          	auipc	ra,0xffffd
   14a76:	a52080e7          	jalr	-1454(ra) # 114c4 <_ZN9allow_pin12dynamic_type23Buffer$LT$B$C$_$C$_$GT$5allow17hcb5376a51e920b20E>
   14a7a:	8905                	andi	a0,a0,1
   14a7c:	ed09                	bnez	a0,14a96 <_start+0x33ec>
   14a7e:	6509                	lui	a0,0x2
   14a80:	4599                	li	a1,6
   14a82:	c6b50513          	addi	a0,a0,-917 # 1c6b <.Lline_table_start1+0x1a40>
   14a86:	4619                	li	a2,6
   14a88:	ffffd097          	auipc	ra,0xffffd
   14a8c:	c14080e7          	jalr	-1004(ra) # 1169c <_ZN9allow_pin7command17h1eb46760111c3605E>
   14a90:	8905                	andi	a0,a0,1
   14a92:	340506e3          	beqz	a0,155de <_start+0x3f34>
   14a96:	8b2e                	mv	s6,a1
   14a98:	46414483          	lbu	s1,1124(sp)
   14a9c:	4785                	li	a5,1
   14a9e:	4409                	li	s0,2
   14aa0:	00848b63          	beq	s1,s0,14ab6 <_start+0x340c>
   14aa4:	6509                	lui	a0,0x2
   14aa6:	c6b50513          	addi	a0,a0,-917 # 1c6b <.Lline_table_start1+0x1a40>
   14aaa:	4599                	li	a1,6
   14aac:	4601                	li	a2,0
   14aae:	4681                	li	a3,0
   14ab0:	8726                	mv	a4,s1
   14ab2:	00000073          	ecall
   14ab6:	56c14703          	lbu	a4,1388(sp)
   14aba:	00870a63          	beq	a4,s0,14ace <_start+0x3424>
   14abe:	6509                	lui	a0,0x2
   14ac0:	c6b50513          	addi	a0,a0,-917 # 1c6b <.Lline_table_start1+0x1a40>
   14ac4:	4599                	li	a1,6
   14ac6:	4601                	li	a2,0
   14ac8:	4681                	li	a3,0
   14aca:	00000073          	ecall
   14ace:	c399                	beqz	a5,14ad4 <_start+0x342a>
   14ad0:	6600406f          	j	19130 <_start+0x7a86>
   14ad4:	00005297          	auipc	t0,0x5
   14ad8:	ca4282e7          	jalr	t0,-860(t0) # 19778 <OUTLINED_FUNCTION_37>
   14adc:	56d10a13          	addi	s4,sp,1389
   14ae0:	00005297          	auipc	t0,0x5
   14ae4:	b70282e7          	jalr	t0,-1168(t0) # 19650 <OUTLINED_FUNCTION_25>
   14ae8:	04200613          	li	a2,66
   14aec:	00005097          	auipc	ra,0x5
   14af0:	e8e080e7          	jalr	-370(ra) # 1997a <memcpy>
   14af4:	57410513          	addi	a0,sp,1396
   14af8:	048c                	addi	a1,sp,576
   14afa:	04200613          	li	a2,66
   14afe:	00005097          	auipc	ra,0x5
   14b02:	e7c080e7          	jalr	-388(ra) # 1997a <memcpy>
   14b06:	00005297          	auipc	t0,0x5
   14b0a:	95c282e7          	jalr	t0,-1700(t0) # 19462 <OUTLINED_FUNCTION_9>
   14b0e:	46510913          	addi	s2,sp,1125
   14b12:	02300613          	li	a2,35
   14b16:	854a                	mv	a0,s2
   14b18:	4581                	li	a1,0
   14b1a:	00005097          	auipc	ra,0x5
   14b1e:	df4080e7          	jalr	-524(ra) # 1990e <memset>
   14b22:	8652                	mv	a2,s4
   14b24:	46810223          	sb	s0,1124(sp)
   14b28:	6505                	lui	a0,0x1
   14b2a:	4491                	li	s1,4
   14b2c:	459d                	li	a1,7
   14b2e:	55150793          	addi	a5,a0,1361 # 1551 <.Lline_table_start1+0x1326>
   14b32:	04900693          	li	a3,73
   14b36:	4711                	li	a4,4
   14b38:	853e                	mv	a0,a5
   14b3a:	00000073          	ecall
   14b3e:	50851b63          	bne	a0,s0,15054 <_start+0x39aa>
   14b42:	4485                	li	s1,1
   14b44:	a3a9                	j	1508e <_start+0x39e4>
   14b46:	6505                	lui	a0,0x1
   14b48:	91d50513          	addi	a0,a0,-1763 # 91d <.Lline_table_start1+0x6f2>
   14b4c:	459d                	li	a1,7
   14b4e:	4601                	li	a2,0
   14b50:	4681                	li	a3,0
   14b52:	00000073          	ecall
   14b56:	56c14703          	lbu	a4,1388(sp)
   14b5a:	50f10e23          	sb	a5,1308(sp)
   14b5e:	00f70a63          	beq	a4,a5,14b72 <_start+0x34c8>
   14b62:	6505                	lui	a0,0x1
   14b64:	91d50513          	addi	a0,a0,-1763 # 91d <.Lline_table_start1+0x6f2>
   14b68:	4595                	li	a1,5
   14b6a:	4601                	li	a2,0
   14b6c:	4681                	li	a3,0
   14b6e:	00000073          	ecall
   14b72:	00005297          	auipc	t0,0x5
   14b76:	bc2282e7          	jalr	t0,-1086(t0) # 19734 <OUTLINED_FUNCTION_34>
   14b7a:	00004297          	auipc	t0,0x4
   14b7e:	718282e7          	jalr	t0,1816(t0) # 19292 <OUTLINED_FUNCTION_0>
   14b82:	03a00613          	li	a2,58
   14b86:	00005097          	auipc	ra,0x5
   14b8a:	df4080e7          	jalr	-524(ra) # 1997a <memcpy>
   14b8e:	4781                	li	a5,0
   14b90:	83eff06f          	j	13bce <_start+0x2524>
   14b94:	56c14703          	lbu	a4,1388(sp)
   14b98:	4789                	li	a5,2
   14b9a:	08f71363          	bne	a4,a5,14c20 <_start+0x3576>
   14b9e:	470d                	li	a4,3
   14ba0:	a871                	j	14c3c <_start+0x3592>
   14ba2:	51c10513          	addi	a0,sp,1308
   14ba6:	ffffd097          	auipc	ra,0xffffd
   14baa:	a8c080e7          	jalr	-1396(ra) # 11632 <_ZN9allow_pin12dynamic_type23Buffer$LT$B$C$_$C$_$GT$7unallow17hd74e3cd4c632fd0dE>
   14bae:	56c10513          	addi	a0,sp,1388
   14bb2:	ffffd097          	auipc	ra,0xffffd
   14bb6:	a80080e7          	jalr	-1408(ra) # 11632 <_ZN9allow_pin12dynamic_type23Buffer$LT$B$C$_$C$_$GT$7unallow17hd74e3cd4c632fd0dE>
   14bba:	56c14483          	lbu	s1,1388(sp)
   14bbe:	4889                	li	a7,2
   14bc0:	ffe48593          	addi	a1,s1,-2
   14bc4:	00b03633          	snez	a2,a1
   14bc8:	00010837          	lui	a6,0x10
   14bcc:	13780813          	addi	a6,a6,311 # 10137 <.Lanon.49c9f8067fe4468184af16d7576940c9.1>
   14bd0:	01148363          	beq	s1,a7,14bd6 <_start+0x352c>
   14bd4:	8a42                	mv	s4,a6
   14bd6:	001a4683          	lbu	a3,1(s4)
   14bda:	000a4703          	lbu	a4,0(s4)
   14bde:	002a4783          	lbu	a5,2(s4)
   14be2:	06a2                	slli	a3,a3,0x8
   14be4:	57014403          	lbu	s0,1392(sp)
   14be8:	57114583          	lbu	a1,1393(sp)
   14bec:	8ed9                	or	a3,a3,a4
   14bee:	57214703          	lbu	a4,1394(sp)
   14bf2:	57314503          	lbu	a0,1395(sp)
   14bf6:	00005297          	auipc	t0,0x5
   14bfa:	b90282e7          	jalr	t0,-1136(t0) # 19786 <OUTLINED_FUNCTION_38>
   14bfe:	01148463          	beq	s1,a7,14c06 <_start+0x355c>
   14c02:	00780913          	addi	s2,a6,7
   14c06:	00d67b33          	and	s6,a2,a3
   14c0a:	0488                	addi	a0,sp,576
   14c0c:	04a00613          	li	a2,74
   14c10:	85ca                	mv	a1,s2
   14c12:	00005097          	auipc	ra,0x5
   14c16:	d68080e7          	jalr	-664(ra) # 1997a <memcpy>
   14c1a:	4781                	li	a5,0
   14c1c:	d44ff06f          	j	14160 <_start+0x2ab6>
   14c20:	6509                	lui	a0,0x2
   14c22:	47c50513          	addi	a0,a0,1148 # 247c <.Lline_table_start1+0x2251>
   14c26:	4585                	li	a1,1
   14c28:	4601                	li	a2,0
   14c2a:	4681                	li	a3,0
   14c2c:	00000073          	ecall
   14c30:	46414703          	lbu	a4,1124(sp)
   14c34:	56f10623          	sb	a5,1388(sp)
   14c38:	00f70a63          	beq	a4,a5,14c4c <_start+0x35a2>
   14c3c:	6509                	lui	a0,0x2
   14c3e:	47c50513          	addi	a0,a0,1148 # 247c <.Lline_table_start1+0x2251>
   14c42:	4581                	li	a1,0
   14c44:	4601                	li	a2,0
   14c46:	4681                	li	a3,0
   14c48:	00000073          	ecall
   14c4c:	00004297          	auipc	t0,0x4
   14c50:	78e282e7          	jalr	t0,1934(t0) # 193da <OUTLINED_FUNCTION_6>
   14c54:	00005297          	auipc	t0,0x5
   14c58:	a10282e7          	jalr	t0,-1520(t0) # 19664 <OUTLINED_FUNCTION_26>
   14c5c:	466d                	li	a2,27
   14c5e:	00005097          	auipc	ra,0x5
   14c62:	d1c080e7          	jalr	-740(ra) # 1997a <memcpy>
   14c66:	4401                	li	s0,0
   14c68:	c2cff06f          	j	14094 <_start+0x29ea>
   14c6c:	56c14703          	lbu	a4,1388(sp)
   14c70:	00871b63          	bne	a4,s0,14c86 <_start+0x35dc>
   14c74:	470d                	li	a4,3
   14c76:	a035                	j	14ca2 <_start+0x35f8>
   14c78:	56c14703          	lbu	a4,1388(sp)
   14c7c:	4789                	li	a5,2
   14c7e:	06f71263          	bne	a4,a5,14ce2 <_start+0x3638>
   14c82:	470d                	li	a4,3
   14c84:	a8ad                	j	14cfe <_start+0x3654>
   14c86:	6505                	lui	a0,0x1
   14c88:	e1650513          	addi	a0,a0,-490 # e16 <.Lline_table_start1+0xbeb>
   14c8c:	4589                	li	a1,2
   14c8e:	4601                	li	a2,0
   14c90:	4681                	li	a3,0
   14c92:	00000073          	ecall
   14c96:	00005297          	auipc	t0,0x5
   14c9a:	c02282e7          	jalr	t0,-1022(t0) # 19898 <OUTLINED_FUNCTION_52>
   14c9e:	00a70a63          	beq	a4,a0,14cb2 <_start+0x3608>
   14ca2:	6505                	lui	a0,0x1
   14ca4:	e1650513          	addi	a0,a0,-490 # e16 <.Lline_table_start1+0xbeb>
   14ca8:	4591                	li	a1,4
   14caa:	4601                	li	a2,0
   14cac:	4681                	li	a3,0
   14cae:	00000073          	ecall
   14cb2:	00004297          	auipc	t0,0x4
   14cb6:	728282e7          	jalr	t0,1832(t0) # 193da <OUTLINED_FUNCTION_6>
   14cba:	00005297          	auipc	t0,0x5
   14cbe:	aaa282e7          	jalr	t0,-1366(t0) # 19764 <OUTLINED_FUNCTION_36>
   14cc2:	04800613          	li	a2,72
   14cc6:	00005097          	auipc	ra,0x5
   14cca:	cb4080e7          	jalr	-844(ra) # 1997a <memcpy>
   14cce:	4781                	li	a5,0
   14cd0:	d56ff06f          	j	14226 <_start+0x2b7c>
   14cd4:	56c14703          	lbu	a4,1388(sp)
   14cd8:	4789                	li	a5,2
   14cda:	06f71263          	bne	a4,a5,14d3e <_start+0x3694>
   14cde:	470d                	li	a4,3
   14ce0:	a8ad                	j	14d5a <_start+0x36b0>
   14ce2:	6505                	lui	a0,0x1
   14ce4:	a0650513          	addi	a0,a0,-1530 # a06 <.Lline_table_start1+0x7db>
   14ce8:	45a1                	li	a1,8
   14cea:	4601                	li	a2,0
   14cec:	4681                	li	a3,0
   14cee:	00000073          	ecall
   14cf2:	46414703          	lbu	a4,1124(sp)
   14cf6:	56f10623          	sb	a5,1388(sp)
   14cfa:	00f70a63          	beq	a4,a5,14d0e <_start+0x3664>
   14cfe:	6505                	lui	a0,0x1
   14d00:	a0650513          	addi	a0,a0,-1530 # a06 <.Lline_table_start1+0x7db>
   14d04:	4595                	li	a1,5
   14d06:	4601                	li	a2,0
   14d08:	4681                	li	a3,0
   14d0a:	00000073          	ecall
   14d0e:	00004297          	auipc	t0,0x4
   14d12:	6cc282e7          	jalr	t0,1740(t0) # 193da <OUTLINED_FUNCTION_6>
   14d16:	00005297          	auipc	t0,0x5
   14d1a:	a4e282e7          	jalr	t0,-1458(t0) # 19764 <OUTLINED_FUNCTION_36>
   14d1e:	03400613          	li	a2,52
   14d22:	00005097          	auipc	ra,0x5
   14d26:	c58080e7          	jalr	-936(ra) # 1997a <memcpy>
   14d2a:	4781                	li	a5,0
   14d2c:	dcaff06f          	j	142f6 <_start+0x2c4c>
   14d30:	56c14703          	lbu	a4,1388(sp)
   14d34:	4789                	li	a5,2
   14d36:	06f71263          	bne	a4,a5,14d9a <_start+0x36f0>
   14d3a:	470d                	li	a4,3
   14d3c:	a8ad                	j	14db6 <_start+0x370c>
   14d3e:	6505                	lui	a0,0x1
   14d40:	bd350513          	addi	a0,a0,-1069 # bd3 <.Lline_table_start1+0x9a8>
   14d44:	4595                	li	a1,5
   14d46:	4601                	li	a2,0
   14d48:	4681                	li	a3,0
   14d4a:	00000073          	ecall
   14d4e:	46414703          	lbu	a4,1124(sp)
   14d52:	56f10623          	sb	a5,1388(sp)
   14d56:	00f70a63          	beq	a4,a5,14d6a <_start+0x36c0>
   14d5a:	6505                	lui	a0,0x1
   14d5c:	bd350513          	addi	a0,a0,-1069 # bd3 <.Lline_table_start1+0x9a8>
   14d60:	458d                	li	a1,3
   14d62:	4601                	li	a2,0
   14d64:	4681                	li	a3,0
   14d66:	00000073          	ecall
   14d6a:	00004297          	auipc	t0,0x4
   14d6e:	670282e7          	jalr	t0,1648(t0) # 193da <OUTLINED_FUNCTION_6>
   14d72:	00005297          	auipc	t0,0x5
   14d76:	9f2282e7          	jalr	t0,-1550(t0) # 19764 <OUTLINED_FUNCTION_36>
   14d7a:	02000613          	li	a2,32
   14d7e:	00005097          	auipc	ra,0x5
   14d82:	bfc080e7          	jalr	-1028(ra) # 1997a <memcpy>
   14d86:	4781                	li	a5,0
   14d88:	e3eff06f          	j	143c6 <_start+0x2d1c>
   14d8c:	24014703          	lbu	a4,576(sp)
   14d90:	4789                	li	a5,2
   14d92:	0ef71b63          	bne	a4,a5,14e88 <_start+0x37de>
   14d96:	470d                	li	a4,3
   14d98:	a231                	j	14ea4 <_start+0x37fa>
   14d9a:	6509                	lui	a0,0x2
   14d9c:	2c950513          	addi	a0,a0,713 # 22c9 <.Lline_table_start1+0x209e>
   14da0:	4599                	li	a1,6
   14da2:	4601                	li	a2,0
   14da4:	4681                	li	a3,0
   14da6:	00000073          	ecall
   14daa:	46414703          	lbu	a4,1124(sp)
   14dae:	56f10623          	sb	a5,1388(sp)
   14db2:	00f70a63          	beq	a4,a5,14dc6 <_start+0x371c>
   14db6:	6509                	lui	a0,0x2
   14db8:	2c950513          	addi	a0,a0,713 # 22c9 <.Lline_table_start1+0x209e>
   14dbc:	4595                	li	a1,5
   14dbe:	4601                	li	a2,0
   14dc0:	4681                	li	a3,0
   14dc2:	00000073          	ecall
   14dc6:	4781                	li	a5,0
   14dc8:	4809                	li	a6,2
   14dca:	0009c303          	lbu	t1,0(s3)
   14dce:	0019c383          	lbu	t2,1(s3)
   14dd2:	0029c883          	lbu	a7,2(s3)
   14dd6:	46814703          	lbu	a4,1128(sp)
   14dda:	46914483          	lbu	s1,1129(sp)
   14dde:	46a14403          	lbu	s0,1130(sp)
   14de2:	46b14583          	lbu	a1,1131(sp)
   14de6:	46c14283          	lbu	t0,1132(sp)
   14dea:	46d14e03          	lbu	t3,1133(sp)
   14dee:	46e14603          	lbu	a2,1134(sp)
   14df2:	46f14683          	lbu	a3,1135(sp)
   14df6:	47014e83          	lbu	t4,1136(sp)
   14dfa:	47010223          	sb	a6,1124(sp)
   14dfe:	03a2                	slli	t2,t2,0x8
   14e00:	04a2                	slli	s1,s1,0x8
   14e02:	0442                	slli	s0,s0,0x10
   14e04:	05e2                	slli	a1,a1,0x18
   14e06:	0063e833          	or	a6,t2,t1
   14e0a:	00e4e333          	or	t1,s1,a4
   14e0e:	0085e3b3          	or	t2,a1,s0
   14e12:	47114483          	lbu	s1,1137(sp)
   14e16:	47214403          	lbu	s0,1138(sp)
   14e1a:	47314703          	lbu	a4,1139(sp)
   14e1e:	47414f03          	lbu	t5,1140(sp)
   14e22:	0e22                	slli	t3,t3,0x8
   14e24:	0642                	slli	a2,a2,0x10
   14e26:	06e2                	slli	a3,a3,0x18
   14e28:	04a2                	slli	s1,s1,0x8
   14e2a:	0442                	slli	s0,s0,0x10
   14e2c:	0762                	slli	a4,a4,0x18
   14e2e:	005e62b3          	or	t0,t3,t0
   14e32:	8e55                	or	a2,a2,a3
   14e34:	01d4e6b3          	or	a3,s1,t4
   14e38:	8f41                	or	a4,a4,s0
   14e3a:	47514483          	lbu	s1,1141(sp)
   14e3e:	47614403          	lbu	s0,1142(sp)
   14e42:	47714503          	lbu	a0,1143(sp)
   14e46:	47814583          	lbu	a1,1144(sp)
   14e4a:	04a2                	slli	s1,s1,0x8
   14e4c:	01e4e4b3          	or	s1,s1,t5
   14e50:	0442                	slli	s0,s0,0x10
   14e52:	0562                	slli	a0,a0,0x18
   14e54:	8d41                	or	a0,a0,s0
   14e56:	45011623          	sh	a6,1100(sp)
   14e5a:	45110723          	sb	a7,1102(sp)
   14e5e:	0063eb33          	or	s6,t2,t1
   14e62:	00566633          	or	a2,a2,t0
   14e66:	8ed9                	or	a3,a3,a4
   14e68:	8d45                	or	a0,a0,s1
   14e6a:	0518                	addi	a4,sp,640
   14e6c:	d730                	sw	a2,104(a4)
   14e6e:	d774                	sw	a3,108(a4)
   14e70:	db28                	sw	a0,112(a4)
   14e72:	2eb10a23          	sb	a1,756(sp)
   14e76:	e26ff06f          	j	1449c <_start+0x2df2>
   14e7a:	56c14703          	lbu	a4,1388(sp)
   14e7e:	4789                	li	a5,2
   14e80:	06f71163          	bne	a4,a5,14ee2 <_start+0x3838>
   14e84:	470d                	li	a4,3
   14e86:	a89d                	j	14efc <_start+0x3852>
   14e88:	6509                	lui	a0,0x2
   14e8a:	39f50513          	addi	a0,a0,927 # 239f <.Lline_table_start1+0x2174>
   14e8e:	45a1                	li	a1,8
   14e90:	4601                	li	a2,0
   14e92:	4681                	li	a3,0
   14e94:	00000073          	ecall
   14e98:	56c14703          	lbu	a4,1388(sp)
   14e9c:	24f10023          	sb	a5,576(sp)
   14ea0:	00f70a63          	beq	a4,a5,14eb4 <_start+0x380a>
   14ea4:	6509                	lui	a0,0x2
   14ea6:	39f50513          	addi	a0,a0,927 # 239f <.Lline_table_start1+0x2174>
   14eaa:	4591                	li	a1,4
   14eac:	4601                	li	a2,0
   14eae:	4681                	li	a3,0
   14eb0:	00000073          	ecall
   14eb4:	00004297          	auipc	t0,0x4
   14eb8:	558282e7          	jalr	t0,1368(t0) # 1940c <OUTLINED_FUNCTION_7>
   14ebc:	00004297          	auipc	t0,0x4
   14ec0:	7f8282e7          	jalr	t0,2040(t0) # 196b4 <OUTLINED_FUNCTION_29>
   14ec4:	02400613          	li	a2,36
   14ec8:	00005097          	auipc	ra,0x5
   14ecc:	ab2080e7          	jalr	-1358(ra) # 1997a <memcpy>
   14ed0:	4781                	li	a5,0
   14ed2:	ea2ff06f          	j	14574 <_start+0x2eca>
   14ed6:	51c14703          	lbu	a4,1308(sp)
   14eda:	04871f63          	bne	a4,s0,14f38 <_start+0x388e>
   14ede:	470d                	li	a4,3
   14ee0:	a89d                	j	14f56 <_start+0x38ac>
   14ee2:	7e300513          	li	a0,2019
   14ee6:	459d                	li	a1,7
   14ee8:	4601                	li	a2,0
   14eea:	4681                	li	a3,0
   14eec:	00000073          	ecall
   14ef0:	46414703          	lbu	a4,1124(sp)
   14ef4:	56f10623          	sb	a5,1388(sp)
   14ef8:	00f70963          	beq	a4,a5,14f0a <_start+0x3860>
   14efc:	7e300513          	li	a0,2019
   14f00:	45a1                	li	a1,8
   14f02:	4601                	li	a2,0
   14f04:	4681                	li	a3,0
   14f06:	00000073          	ecall
   14f0a:	00004297          	auipc	t0,0x4
   14f0e:	4d0282e7          	jalr	t0,1232(t0) # 193da <OUTLINED_FUNCTION_6>
   14f12:	00004297          	auipc	t0,0x4
   14f16:	752282e7          	jalr	t0,1874(t0) # 19664 <OUTLINED_FUNCTION_26>
   14f1a:	465d                	li	a2,23
   14f1c:	00005097          	auipc	ra,0x5
   14f20:	a5e080e7          	jalr	-1442(ra) # 1997a <memcpy>
   14f24:	4781                	li	a5,0
   14f26:	f24ff06f          	j	1464a <_start+0x2fa0>
   14f2a:	56c14703          	lbu	a4,1388(sp)
   14f2e:	4789                	li	a5,2
   14f30:	06f71263          	bne	a4,a5,14f94 <_start+0x38ea>
   14f34:	470d                	li	a4,3
   14f36:	a8ad                	j	14fb0 <_start+0x3906>
   14f38:	6509                	lui	a0,0x2
   14f3a:	96b50513          	addi	a0,a0,-1685 # 196b <.Lline_table_start1+0x1740>
   14f3e:	4589                	li	a1,2
   14f40:	4601                	li	a2,0
   14f42:	4681                	li	a3,0
   14f44:	00000073          	ecall
   14f48:	56c14703          	lbu	a4,1388(sp)
   14f4c:	4509                	li	a0,2
   14f4e:	50a10e23          	sb	a0,1308(sp)
   14f52:	00a70a63          	beq	a4,a0,14f66 <_start+0x38bc>
   14f56:	6509                	lui	a0,0x2
   14f58:	96b50513          	addi	a0,a0,-1685 # 196b <.Lline_table_start1+0x1740>
   14f5c:	4581                	li	a1,0
   14f5e:	4601                	li	a2,0
   14f60:	4681                	li	a3,0
   14f62:	00000073          	ecall
   14f66:	00004297          	auipc	t0,0x4
   14f6a:	7ce282e7          	jalr	t0,1998(t0) # 19734 <OUTLINED_FUNCTION_34>
   14f6e:	00004297          	auipc	t0,0x4
   14f72:	324282e7          	jalr	t0,804(t0) # 19292 <OUTLINED_FUNCTION_0>
   14f76:	04a00613          	li	a2,74
   14f7a:	00005097          	auipc	ra,0x5
   14f7e:	a00080e7          	jalr	-1536(ra) # 1997a <memcpy>
   14f82:	4781                	li	a5,0
   14f84:	f8cff06f          	j	14710 <_start+0x3066>
   14f88:	51c14703          	lbu	a4,1308(sp)
   14f8c:	60871163          	bne	a4,s0,1558e <_start+0x3ee4>
   14f90:	470d                	li	a4,3
   14f92:	ad29                	j	155ac <_start+0x3f02>
   14f94:	6505                	lui	a0,0x1
   14f96:	3bf50513          	addi	a0,a0,959 # 13bf <.Lline_table_start1+0x1194>
   14f9a:	4581                	li	a1,0
   14f9c:	4601                	li	a2,0
   14f9e:	4681                	li	a3,0
   14fa0:	00000073          	ecall
   14fa4:	46414703          	lbu	a4,1124(sp)
   14fa8:	56f10623          	sb	a5,1388(sp)
   14fac:	00f70a63          	beq	a4,a5,14fc0 <_start+0x3916>
   14fb0:	6505                	lui	a0,0x1
   14fb2:	3bf50513          	addi	a0,a0,959 # 13bf <.Lline_table_start1+0x1194>
   14fb6:	458d                	li	a1,3
   14fb8:	4601                	li	a2,0
   14fba:	4681                	li	a3,0
   14fbc:	00000073          	ecall
   14fc0:	4801                	li	a6,0
   14fc2:	4889                	li	a7,2
   14fc4:	0009c303          	lbu	t1,0(s3)
   14fc8:	0019c383          	lbu	t2,1(s3)
   14fcc:	0029c283          	lbu	t0,2(s3)
   14fd0:	46814e03          	lbu	t3,1128(sp)
   14fd4:	46d14e83          	lbu	t4,1133(sp)
   14fd8:	46e14f03          	lbu	t5,1134(sp)
   14fdc:	46f14f83          	lbu	t6,1135(sp)
   14fe0:	47014583          	lbu	a1,1136(sp)
   14fe4:	47110223          	sb	a7,1124(sp)
   14fe8:	46914503          	lbu	a0,1129(sp)
   14fec:	46a14603          	lbu	a2,1130(sp)
   14ff0:	46b14683          	lbu	a3,1131(sp)
   14ff4:	46c14703          	lbu	a4,1132(sp)
   14ff8:	03a2                	slli	t2,t2,0x8
   14ffa:	0522                	slli	a0,a0,0x8
   14ffc:	0642                	slli	a2,a2,0x10
   14ffe:	06e2                	slli	a3,a3,0x18
   15000:	0063e7b3          	or	a5,t2,t1
   15004:	01c56533          	or	a0,a0,t3
   15008:	47114483          	lbu	s1,1137(sp)
   1500c:	8e55                	or	a2,a2,a3
   1500e:	47214683          	lbu	a3,1138(sp)
   15012:	47314403          	lbu	s0,1139(sp)
   15016:	04a2                	slli	s1,s1,0x8
   15018:	8dc5                	or	a1,a1,s1
   1501a:	06c2                	slli	a3,a3,0x10
   1501c:	0462                	slli	s0,s0,0x18
   1501e:	8ec1                	or	a3,a3,s0
   15020:	0ea2                	slli	t4,t4,0x8
   15022:	00eee733          	or	a4,t4,a4
   15026:	0f42                	slli	t5,t5,0x10
   15028:	0fe2                	slli	t6,t6,0x18
   1502a:	01efe433          	or	s0,t6,t5
   1502e:	24f11023          	sh	a5,576(sp)
   15032:	24510123          	sb	t0,578(sp)
   15036:	00a66b33          	or	s6,a2,a0
   1503a:	00b6e8b3          	or	a7,a3,a1
   1503e:	00e462b3          	or	t0,s0,a4
   15042:	f9cff06f          	j	147de <_start+0x3134>
   15046:	51c14703          	lbu	a4,1308(sp)
   1504a:	4789                	li	a5,2
   1504c:	5ef71663          	bne	a4,a5,15638 <_start+0x3f8e>
   15050:	470d                	li	a4,3
   15052:	a509                	j	15654 <_start+0x3faa>
   15054:	853e                	mv	a0,a5
   15056:	864a                	mv	a2,s2
   15058:	56910623          	sb	s1,1388(sp)
   1505c:	4485                	li	s1,1
   1505e:	478d                	li	a5,3
   15060:	4585                	li	a1,1
   15062:	02300693          	li	a3,35
   15066:	470d                	li	a4,3
   15068:	00000073          	ecall
   1506c:	02850163          	beq	a0,s0,1508e <_start+0x39e4>
   15070:	46f10223          	sb	a5,1124(sp)
   15074:	6505                	lui	a0,0x1
   15076:	459d                	li	a1,7
   15078:	55150513          	addi	a0,a0,1361 # 1551 <.Lline_table_start1+0x1326>
   1507c:	4605                	li	a2,1
   1507e:	4485                	li	s1,1
   15080:	ffffc097          	auipc	ra,0xffffc
   15084:	61c080e7          	jalr	1564(ra) # 1169c <_ZN9allow_pin7command17h1eb46760111c3605E>
   15088:	8905                	andi	a0,a0,1
   1508a:	5e050e63          	beqz	a0,15686 <_start+0x3fdc>
   1508e:	8b2e                	mv	s6,a1
   15090:	46414703          	lbu	a4,1124(sp)
   15094:	4789                	li	a5,2
   15096:	00f70a63          	beq	a4,a5,150aa <_start+0x3a00>
   1509a:	6505                	lui	a0,0x1
   1509c:	55150513          	addi	a0,a0,1361 # 1551 <.Lline_table_start1+0x1326>
   150a0:	4585                	li	a1,1
   150a2:	4601                	li	a2,0
   150a4:	4681                	li	a3,0
   150a6:	00000073          	ecall
   150aa:	56c14703          	lbu	a4,1388(sp)
   150ae:	00f70a63          	beq	a4,a5,150c2 <_start+0x3a18>
   150b2:	6505                	lui	a0,0x1
   150b4:	55150513          	addi	a0,a0,1361 # 1551 <.Lline_table_start1+0x1326>
   150b8:	459d                	li	a1,7
   150ba:	4601                	li	a2,0
   150bc:	4681                	li	a3,0
   150be:	00000073          	ecall
   150c2:	c099                	beqz	s1,150c8 <_start+0x3a1e>
   150c4:	06c0406f          	j	19130 <_start+0x7a86>
   150c8:	00004297          	auipc	t0,0x4
   150cc:	734282e7          	jalr	t0,1844(t0) # 197fc <OUTLINED_FUNCTION_43>
   150d0:	46510993          	addi	s3,sp,1125
   150d4:	00004297          	auipc	t0,0x4
   150d8:	78a282e7          	jalr	t0,1930(t0) # 1985e <OUTLINED_FUNCTION_47>
   150dc:	02e8                	addi	a0,sp,332
   150de:	048c                	addi	a1,sp,576
   150e0:	4671                	li	a2,28
   150e2:	00005097          	auipc	ra,0x5
   150e6:	898080e7          	jalr	-1896(ra) # 1997a <memcpy>
   150ea:	00004297          	auipc	t0,0x4
   150ee:	4cc282e7          	jalr	t0,1228(t0) # 195b6 <OUTLINED_FUNCTION_19>
   150f2:	46c10913          	addi	s2,sp,1132
   150f6:	02ec                	addi	a1,sp,332
   150f8:	4671                	li	a2,28
   150fa:	854a                	mv	a0,s2
   150fc:	00005097          	auipc	ra,0x5
   15100:	87e080e7          	jalr	-1922(ra) # 1997a <memcpy>
   15104:	02b00613          	li	a2,43
   15108:	8552                	mv	a0,s4
   1510a:	4581                	li	a1,0
   1510c:	00005097          	auipc	ra,0x5
   15110:	802080e7          	jalr	-2046(ra) # 1990e <memset>
   15114:	864e                	mv	a2,s3
   15116:	56810623          	sb	s0,1388(sp)
   1511a:	6505                	lui	a0,0x1
   1511c:	4491                	li	s1,4
   1511e:	4589                	li	a1,2
   15120:	d5d50793          	addi	a5,a0,-675 # d5d <.Lline_table_start1+0xb32>
   15124:	02300693          	li	a3,35
   15128:	4711                	li	a4,4
   1512a:	853e                	mv	a0,a5
   1512c:	00000073          	ecall
   15130:	02850e63          	beq	a0,s0,1516c <_start+0x3ac2>
   15134:	853e                	mv	a0,a5
   15136:	4581                	li	a1,0
   15138:	8652                	mv	a2,s4
   1513a:	46910223          	sb	s1,1124(sp)
   1513e:	478d                	li	a5,3
   15140:	02b00693          	li	a3,43
   15144:	470d                	li	a4,3
   15146:	00000073          	ecall
   1514a:	02850163          	beq	a0,s0,1516c <_start+0x3ac2>
   1514e:	56f10623          	sb	a5,1388(sp)
   15152:	6505                	lui	a0,0x1
   15154:	d5d50513          	addi	a0,a0,-675 # d5d <.Lline_table_start1+0xb32>
   15158:	4589                	li	a1,2
   1515a:	4409                	li	s0,2
   1515c:	4601                	li	a2,0
   1515e:	ffffc097          	auipc	ra,0xffffc
   15162:	53e080e7          	jalr	1342(ra) # 1169c <_ZN9allow_pin7command17h1eb46760111c3605E>
   15166:	8905                	andi	a0,a0,1
   15168:	54050563          	beqz	a0,156b2 <_start+0x4008>
   1516c:	4785                	li	a5,1
   1516e:	8b2e                	mv	s6,a1
   15170:	56c14703          	lbu	a4,1388(sp)
   15174:	4489                	li	s1,2
   15176:	00970a63          	beq	a4,s1,1518a <_start+0x3ae0>
   1517a:	6505                	lui	a0,0x1
   1517c:	d5d50513          	addi	a0,a0,-675 # d5d <.Lline_table_start1+0xb32>
   15180:	4581                	li	a1,0
   15182:	4601                	li	a2,0
   15184:	4681                	li	a3,0
   15186:	00000073          	ecall
   1518a:	46414703          	lbu	a4,1124(sp)
   1518e:	00970a63          	beq	a4,s1,151a2 <_start+0x3af8>
   15192:	6505                	lui	a0,0x1
   15194:	d5d50513          	addi	a0,a0,-675 # d5d <.Lline_table_start1+0xb32>
   15198:	4589                	li	a1,2
   1519a:	4601                	li	a2,0
   1519c:	4681                	li	a3,0
   1519e:	00000073          	ecall
   151a2:	c399                	beqz	a5,151a8 <_start+0x3afe>
   151a4:	78d0306f          	j	19130 <_start+0x7a86>
   151a8:	00004297          	auipc	t0,0x4
   151ac:	654282e7          	jalr	t0,1620(t0) # 197fc <OUTLINED_FUNCTION_43>
   151b0:	56d10a93          	addi	s5,sp,1389
   151b4:	56a106a3          	sb	a0,1389(sp)
   151b8:	56b10723          	sb	a1,1390(sp)
   151bc:	56c107a3          	sb	a2,1391(sp)
   151c0:	12a8                	addi	a0,sp,360
   151c2:	048c                	addi	a1,sp,576
   151c4:	02400613          	li	a2,36
   151c8:	00004097          	auipc	ra,0x4
   151cc:	7b2080e7          	jalr	1970(ra) # 1997a <memcpy>
   151d0:	00004297          	auipc	t0,0x4
   151d4:	292282e7          	jalr	t0,658(t0) # 19462 <OUTLINED_FUNCTION_9>
   151d8:	57410a13          	addi	s4,sp,1396
   151dc:	12ac                	addi	a1,sp,360
   151de:	02400613          	li	a2,36
   151e2:	8552                	mv	a0,s4
   151e4:	00004097          	auipc	ra,0x4
   151e8:	796080e7          	jalr	1942(ra) # 1997a <memcpy>
   151ec:	4635                	li	a2,13
   151ee:	854e                	mv	a0,s3
   151f0:	4581                	li	a1,0
   151f2:	00004097          	auipc	ra,0x4
   151f6:	71c080e7          	jalr	1820(ra) # 1990e <memset>
   151fa:	8656                	mv	a2,s5
   151fc:	46810223          	sb	s0,1124(sp)
   15200:	6505                	lui	a0,0x1
   15202:	4491                	li	s1,4
   15204:	4599                	li	a1,6
   15206:	46550793          	addi	a5,a0,1125 # 1465 <.Lline_table_start1+0x123a>
   1520a:	02b00693          	li	a3,43
   1520e:	4711                	li	a4,4
   15210:	853e                	mv	a0,a5
   15212:	00000073          	ecall
   15216:	02850c63          	beq	a0,s0,1524e <_start+0x3ba4>
   1521a:	853e                	mv	a0,a5
   1521c:	4581                	li	a1,0
   1521e:	864e                	mv	a2,s3
   15220:	56910623          	sb	s1,1388(sp)
   15224:	478d                	li	a5,3
   15226:	46b5                	li	a3,13
   15228:	470d                	li	a4,3
   1522a:	00000073          	ecall
   1522e:	02850063          	beq	a0,s0,1524e <_start+0x3ba4>
   15232:	46f10223          	sb	a5,1124(sp)
   15236:	6505                	lui	a0,0x1
   15238:	46550513          	addi	a0,a0,1125 # 1465 <.Lline_table_start1+0x123a>
   1523c:	4599                	li	a1,6
   1523e:	4601                	li	a2,0
   15240:	ffffc097          	auipc	ra,0xffffc
   15244:	45c080e7          	jalr	1116(ra) # 1169c <_ZN9allow_pin7command17h1eb46760111c3605E>
   15248:	8905                	andi	a0,a0,1
   1524a:	4a050f63          	beqz	a0,15708 <_start+0x405e>
   1524e:	4785                	li	a5,1
   15250:	8b2e                	mv	s6,a1
   15252:	46414703          	lbu	a4,1124(sp)
   15256:	4489                	li	s1,2
   15258:	00970a63          	beq	a4,s1,1526c <_start+0x3bc2>
   1525c:	6505                	lui	a0,0x1
   1525e:	46550513          	addi	a0,a0,1125 # 1465 <.Lline_table_start1+0x123a>
   15262:	4581                	li	a1,0
   15264:	4601                	li	a2,0
   15266:	4681                	li	a3,0
   15268:	00000073          	ecall
   1526c:	56c14703          	lbu	a4,1388(sp)
   15270:	00970a63          	beq	a4,s1,15284 <_start+0x3bda>
   15274:	6505                	lui	a0,0x1
   15276:	46550513          	addi	a0,a0,1125 # 1465 <.Lline_table_start1+0x123a>
   1527a:	4599                	li	a1,6
   1527c:	4601                	li	a2,0
   1527e:	4681                	li	a3,0
   15280:	00000073          	ecall
   15284:	c399                	beqz	a5,1528a <_start+0x3be0>
   15286:	6ab0306f          	j	19130 <_start+0x7a86>
   1528a:	00004297          	auipc	t0,0x4
   1528e:	542282e7          	jalr	t0,1346(t0) # 197cc <OUTLINED_FUNCTION_40>
   15292:	2e812683          	lw	a3,744(sp)
   15296:	2ec11703          	lh	a4,748(sp)
   1529a:	00004297          	auipc	t0,0x4
   1529e:	5b6282e7          	jalr	t0,1462(t0) # 19850 <OUTLINED_FUNCTION_46>
   152a2:	50d12e23          	sw	a3,1308(sp)
   152a6:	52e11023          	sh	a4,1312(sp)
   152aa:	04a8                	addi	a0,sp,584
   152ac:	51c10593          	addi	a1,sp,1308
   152b0:	4619                	li	a2,6
   152b2:	00004097          	auipc	ra,0x4
   152b6:	6c8080e7          	jalr	1736(ra) # 1997a <memcpy>
   152ba:	00004297          	auipc	t0,0x4
   152be:	446282e7          	jalr	t0,1094(t0) # 19700 <OUTLINED_FUNCTION_32>
   152c2:	02100613          	li	a2,33
   152c6:	8556                	mv	a0,s5
   152c8:	4581                	li	a1,0
   152ca:	00004097          	auipc	ra,0x4
   152ce:	644080e7          	jalr	1604(ra) # 1990e <memset>
   152d2:	56810623          	sb	s0,1388(sp)
   152d6:	0488                	addi	a0,sp,576
   152d8:	45b5                	li	a1,13
   152da:	4611                	li	a2,4
   152dc:	ffffc097          	auipc	ra,0xffffc
   152e0:	102080e7          	jalr	258(ra) # 113de <_ZN9allow_pin12dynamic_type23Buffer$LT$B$C$_$C$_$GT$5allow17h4a38eadd1fee01e0E>
   152e4:	8905                	andi	a0,a0,1
   152e6:	e905                	bnez	a0,15316 <_start+0x3c6c>
   152e8:	56c10513          	addi	a0,sp,1388
   152ec:	02100593          	li	a1,33
   152f0:	460d                	li	a2,3
   152f2:	ffffc097          	auipc	ra,0xffffc
   152f6:	0ec080e7          	jalr	236(ra) # 113de <_ZN9allow_pin12dynamic_type23Buffer$LT$B$C$_$C$_$GT$5allow17h4a38eadd1fee01e0E>
   152fa:	8905                	andi	a0,a0,1
   152fc:	ed09                	bnez	a0,15316 <_start+0x3c6c>
   152fe:	6505                	lui	a0,0x1
   15300:	6b050513          	addi	a0,a0,1712 # 16b0 <.Lline_table_start1+0x1485>
   15304:	4581                	li	a1,0
   15306:	4601                	li	a2,0
   15308:	ffffc097          	auipc	ra,0xffffc
   1530c:	394080e7          	jalr	916(ra) # 1169c <_ZN9allow_pin7command17h1eb46760111c3605E>
   15310:	8905                	andi	a0,a0,1
   15312:	46050263          	beqz	a0,15776 <_start+0x40cc>
   15316:	8b2e                	mv	s6,a1
   15318:	56c14483          	lbu	s1,1388(sp)
   1531c:	4785                	li	a5,1
   1531e:	4409                	li	s0,2
   15320:	00848b63          	beq	s1,s0,15336 <_start+0x3c8c>
   15324:	6505                	lui	a0,0x1
   15326:	6b050513          	addi	a0,a0,1712 # 16b0 <.Lline_table_start1+0x1485>
   1532a:	4581                	li	a1,0
   1532c:	4601                	li	a2,0
   1532e:	4681                	li	a3,0
   15330:	8726                	mv	a4,s1
   15332:	00000073          	ecall
   15336:	24014703          	lbu	a4,576(sp)
   1533a:	00870a63          	beq	a4,s0,1534e <_start+0x3ca4>
   1533e:	6505                	lui	a0,0x1
   15340:	6b050513          	addi	a0,a0,1712 # 16b0 <.Lline_table_start1+0x1485>
   15344:	4581                	li	a1,0
   15346:	4601                	li	a2,0
   15348:	4681                	li	a3,0
   1534a:	00000073          	ecall
   1534e:	c399                	beqz	a5,15354 <_start+0x3caa>
   15350:	5e10306f          	j	19130 <_start+0x7a86>
   15354:	00004297          	auipc	t0,0x4
   15358:	424282e7          	jalr	t0,1060(t0) # 19778 <OUTLINED_FUNCTION_37>
   1535c:	24110493          	addi	s1,sp,577
   15360:	00004297          	auipc	t0,0x4
   15364:	4f0282e7          	jalr	t0,1264(t0) # 19850 <OUTLINED_FUNCTION_46>
   15368:	46410513          	addi	a0,sp,1124
   1536c:	51c10593          	addi	a1,sp,1308
   15370:	4669                	li	a2,26
   15372:	00004097          	auipc	ra,0x4
   15376:	608080e7          	jalr	1544(ra) # 1997a <memcpy>
   1537a:	04a8                	addi	a0,sp,584
   1537c:	46410593          	addi	a1,sp,1124
   15380:	4669                	li	a2,26
   15382:	00004097          	auipc	ra,0x4
   15386:	5f8080e7          	jalr	1528(ra) # 1997a <memcpy>
   1538a:	00004297          	auipc	t0,0x4
   1538e:	376282e7          	jalr	t0,886(t0) # 19700 <OUTLINED_FUNCTION_32>
   15392:	56d10a13          	addi	s4,sp,1389
   15396:	05300613          	li	a2,83
   1539a:	8552                	mv	a0,s4
   1539c:	4581                	li	a1,0
   1539e:	00004097          	auipc	ra,0x4
   153a2:	570080e7          	jalr	1392(ra) # 1990e <memset>
   153a6:	8626                	mv	a2,s1
   153a8:	56810623          	sb	s0,1388(sp)
   153ac:	6509                	lui	a0,0x2
   153ae:	4491                	li	s1,4
   153b0:	4589                	li	a1,2
   153b2:	53e50793          	addi	a5,a0,1342 # 253e <.Lline_table_start1+0x2313>
   153b6:	02100693          	li	a3,33
   153ba:	4711                	li	a4,4
   153bc:	853e                	mv	a0,a5
   153be:	00000073          	ecall
   153c2:	02850e63          	beq	a0,s0,153fe <_start+0x3d54>
   153c6:	853e                	mv	a0,a5
   153c8:	8652                	mv	a2,s4
   153ca:	24910023          	sb	s1,576(sp)
   153ce:	478d                	li	a5,3
   153d0:	45a1                	li	a1,8
   153d2:	05300693          	li	a3,83
   153d6:	470d                	li	a4,3
   153d8:	00000073          	ecall
   153dc:	02850163          	beq	a0,s0,153fe <_start+0x3d54>
   153e0:	56f10623          	sb	a5,1388(sp)
   153e4:	6509                	lui	a0,0x2
   153e6:	4589                	li	a1,2
   153e8:	53e50513          	addi	a0,a0,1342 # 253e <.Lline_table_start1+0x2313>
   153ec:	4621                	li	a2,8
   153ee:	4409                	li	s0,2
   153f0:	ffffc097          	auipc	ra,0xffffc
   153f4:	2ac080e7          	jalr	684(ra) # 1169c <_ZN9allow_pin7command17h1eb46760111c3605E>
   153f8:	8905                	andi	a0,a0,1
   153fa:	48050d63          	beqz	a0,15894 <_start+0x41ea>
   153fe:	4785                	li	a5,1
   15400:	8b2e                	mv	s6,a1
   15402:	56c14703          	lbu	a4,1388(sp)
   15406:	4489                	li	s1,2
   15408:	00970a63          	beq	a4,s1,1541c <_start+0x3d72>
   1540c:	6509                	lui	a0,0x2
   1540e:	53e50513          	addi	a0,a0,1342 # 253e <.Lline_table_start1+0x2313>
   15412:	45a1                	li	a1,8
   15414:	4601                	li	a2,0
   15416:	4681                	li	a3,0
   15418:	00000073          	ecall
   1541c:	24014703          	lbu	a4,576(sp)
   15420:	00970a63          	beq	a4,s1,15434 <_start+0x3d8a>
   15424:	6509                	lui	a0,0x2
   15426:	53e50513          	addi	a0,a0,1342 # 253e <.Lline_table_start1+0x2313>
   1542a:	4589                	li	a1,2
   1542c:	4601                	li	a2,0
   1542e:	4681                	li	a3,0
   15430:	00000073          	ecall
   15434:	c399                	beqz	a5,1543a <_start+0x3d90>
   15436:	4fb0306f          	j	19130 <_start+0x7a86>
   1543a:	00004297          	auipc	t0,0x4
   1543e:	23e282e7          	jalr	t0,574(t0) # 19678 <OUTLINED_FUNCTION_27>
   15442:	0368                	addi	a0,sp,396
   15444:	46410593          	addi	a1,sp,1124
   15448:	04c00613          	li	a2,76
   1544c:	00004097          	auipc	ra,0x4
   15450:	52e080e7          	jalr	1326(ra) # 1997a <memcpy>
   15454:	00004297          	auipc	t0,0x4
   15458:	032282e7          	jalr	t0,50(t0) # 19486 <OUTLINED_FUNCTION_10>
   1545c:	57410513          	addi	a0,sp,1396
   15460:	036c                	addi	a1,sp,396
   15462:	04c00613          	li	a2,76
   15466:	00004097          	auipc	ra,0x4
   1546a:	514080e7          	jalr	1300(ra) # 1997a <memcpy>
   1546e:	04d00613          	li	a2,77
   15472:	854e                	mv	a0,s3
   15474:	4581                	li	a1,0
   15476:	00004097          	auipc	ra,0x4
   1547a:	498080e7          	jalr	1176(ra) # 1990e <memset>
   1547e:	00004297          	auipc	t0,0x4
   15482:	426282e7          	jalr	t0,1062(t0) # 198a4 <OUTLINED_FUNCTION_53>
   15486:	45a5                	li	a1,9
   15488:	6ba50793          	addi	a5,a0,1722
   1548c:	05300693          	li	a3,83
   15490:	4711                	li	a4,4
   15492:	853e                	mv	a0,a5
   15494:	00000073          	ecall
   15498:	02950c63          	beq	a0,s1,154d0 <_start+0x3e26>
   1549c:	00004297          	auipc	t0,0x4
   154a0:	45a282e7          	jalr	t0,1114(t0) # 198f6 <OUTLINED_FUNCTION_59>
   154a4:	4591                	li	a1,4
   154a6:	04d00693          	li	a3,77
   154aa:	470d                	li	a4,3
   154ac:	00000073          	ecall
   154b0:	02950063          	beq	a0,s1,154d0 <_start+0x3e26>
   154b4:	46f10223          	sb	a5,1124(sp)
   154b8:	6505                	lui	a0,0x1
   154ba:	45a5                	li	a1,9
   154bc:	6ba50513          	addi	a0,a0,1722 # 16ba <.Lline_table_start1+0x148f>
   154c0:	4611                	li	a2,4
   154c2:	ffffc097          	auipc	ra,0xffffc
   154c6:	1da080e7          	jalr	474(ra) # 1169c <_ZN9allow_pin7command17h1eb46760111c3605E>
   154ca:	8905                	andi	a0,a0,1
   154cc:	3c050a63          	beqz	a0,158a0 <_start+0x41f6>
   154d0:	4785                	li	a5,1
   154d2:	8b2e                	mv	s6,a1
   154d4:	46414703          	lbu	a4,1124(sp)
   154d8:	4489                	li	s1,2
   154da:	00970a63          	beq	a4,s1,154ee <_start+0x3e44>
   154de:	6505                	lui	a0,0x1
   154e0:	6ba50513          	addi	a0,a0,1722 # 16ba <.Lline_table_start1+0x148f>
   154e4:	4591                	li	a1,4
   154e6:	4601                	li	a2,0
   154e8:	4681                	li	a3,0
   154ea:	00000073          	ecall
   154ee:	56c14703          	lbu	a4,1388(sp)
   154f2:	00970a63          	beq	a4,s1,15506 <_start+0x3e5c>
   154f6:	6505                	lui	a0,0x1
   154f8:	6ba50513          	addi	a0,a0,1722 # 16ba <.Lline_table_start1+0x148f>
   154fc:	45a5                	li	a1,9
   154fe:	4601                	li	a2,0
   15500:	4681                	li	a3,0
   15502:	00000073          	ecall
   15506:	c399                	beqz	a5,1550c <_start+0x3e62>
   15508:	4290306f          	j	19130 <_start+0x7a86>
   1550c:	00004297          	auipc	t0,0x4
   15510:	008282e7          	jalr	t0,8(t0) # 19514 <OUTLINED_FUNCTION_14>
   15514:	0488                	addi	a0,sp,576
   15516:	51c10593          	addi	a1,sp,1308
   1551a:	04600613          	li	a2,70
   1551e:	00004097          	auipc	ra,0x4
   15522:	45c080e7          	jalr	1116(ra) # 1997a <memcpy>
   15526:	57410513          	addi	a0,sp,1396
   1552a:	048c                	addi	a1,sp,576
   1552c:	04600613          	li	a2,70
   15530:	00004097          	auipc	ra,0x4
   15534:	44a080e7          	jalr	1098(ra) # 1997a <memcpy>
   15538:	00004297          	auipc	t0,0x4
   1553c:	f4e282e7          	jalr	t0,-178(t0) # 19486 <OUTLINED_FUNCTION_10>
   15540:	03c00613          	li	a2,60
   15544:	854e                	mv	a0,s3
   15546:	4581                	li	a1,0
   15548:	00004097          	auipc	ra,0x4
   1554c:	3c6080e7          	jalr	966(ra) # 1990e <memset>
   15550:	8622                	mv	a2,s0
   15552:	46910223          	sb	s1,1124(sp)
   15556:	6509                	lui	a0,0x2
   15558:	4411                	li	s0,4
   1555a:	4591                	li	a1,4
   1555c:	1ab50793          	addi	a5,a0,427 # 21ab <.Lline_table_start1+0x1f80>
   15560:	04d00693          	li	a3,77
   15564:	4711                	li	a4,4
   15566:	853e                	mv	a0,a5
   15568:	00000073          	ecall
   1556c:	00950e63          	beq	a0,s1,15588 <_start+0x3ede>
   15570:	00004297          	auipc	t0,0x4
   15574:	386282e7          	jalr	t0,902(t0) # 198f6 <OUTLINED_FUNCTION_59>
   15578:	45a5                	li	a1,9
   1557a:	03c00693          	li	a3,60
   1557e:	470d                	li	a4,3
   15580:	00000073          	ecall
   15584:	32951563          	bne	a0,s1,158ae <_start+0x4204>
   15588:	4785                	li	a5,1
   1558a:	8b2e                	mv	s6,a1
   1558c:	a935                	j	159c8 <_start+0x431e>
   1558e:	6509                	lui	a0,0x2
   15590:	d7e50513          	addi	a0,a0,-642 # 1d7e <.Lline_table_start1+0x1b53>
   15594:	45a5                	li	a1,9
   15596:	4601                	li	a2,0
   15598:	4681                	li	a3,0
   1559a:	00000073          	ecall
   1559e:	56c14703          	lbu	a4,1388(sp)
   155a2:	4509                	li	a0,2
   155a4:	50a10e23          	sb	a0,1308(sp)
   155a8:	00a70a63          	beq	a4,a0,155bc <_start+0x3f12>
   155ac:	6509                	lui	a0,0x2
   155ae:	d7e50513          	addi	a0,a0,-642 # 1d7e <.Lline_table_start1+0x1b53>
   155b2:	4589                	li	a1,2
   155b4:	4601                	li	a2,0
   155b6:	4681                	li	a3,0
   155b8:	00000073          	ecall
   155bc:	00004297          	auipc	t0,0x4
   155c0:	178282e7          	jalr	t0,376(t0) # 19734 <OUTLINED_FUNCTION_34>
   155c4:	00004297          	auipc	t0,0x4
   155c8:	cce282e7          	jalr	t0,-818(t0) # 19292 <OUTLINED_FUNCTION_0>
   155cc:	03f00613          	li	a2,63
   155d0:	00004097          	auipc	ra,0x4
   155d4:	3aa080e7          	jalr	938(ra) # 1997a <memcpy>
   155d8:	4781                	li	a5,0
   155da:	b1eff06f          	j	148f8 <_start+0x324e>
   155de:	56c10513          	addi	a0,sp,1388
   155e2:	ffffc097          	auipc	ra,0xffffc
   155e6:	008080e7          	jalr	8(ra) # 115ea <_ZN9allow_pin12dynamic_type23Buffer$LT$B$C$_$C$_$GT$7unallow17h72282c4967f0efdfE>
   155ea:	46410513          	addi	a0,sp,1124
   155ee:	ffffc097          	auipc	ra,0xffffc
   155f2:	ffc080e7          	jalr	-4(ra) # 115ea <_ZN9allow_pin12dynamic_type23Buffer$LT$B$C$_$C$_$GT$7unallow17h72282c4967f0efdfE>
   155f6:	00004297          	auipc	t0,0x4
   155fa:	2ca282e7          	jalr	t0,714(t0) # 198c0 <OUTLINED_FUNCTION_55>
   155fe:	00010837          	lui	a6,0x10
   15602:	1e980813          	addi	a6,a6,489 # 101e9 <.Lanon.49c9f8067fe4468184af16d7576940c9.5>
   15606:	01148363          	beq	s1,a7,1560c <_start+0x3f62>
   1560a:	89c2                	mv	s3,a6
   1560c:	0019c683          	lbu	a3,1(s3)
   15610:	0009c703          	lbu	a4,0(s3)
   15614:	0029c783          	lbu	a5,2(s3)
   15618:	00004297          	auipc	t0,0x4
   1561c:	12c282e7          	jalr	t0,300(t0) # 19744 <OUTLINED_FUNCTION_35>
   15620:	2ed11423          	sh	a3,744(sp)
   15624:	2ef10523          	sb	a5,746(sp)
   15628:	00b566b3          	or	a3,a0,a1
   1562c:	167d                	addi	a2,a2,-1
   1562e:	07148363          	beq	s1,a7,15694 <_start+0x3fea>
   15632:	00780593          	addi	a1,a6,7
   15636:	a08d                	j	15698 <_start+0x3fee>
   15638:	6509                	lui	a0,0x2
   1563a:	e5050513          	addi	a0,a0,-432 # 1e50 <.Lline_table_start1+0x1c25>
   1563e:	459d                	li	a1,7
   15640:	4601                	li	a2,0
   15642:	4681                	li	a3,0
   15644:	00000073          	ecall
   15648:	56c14703          	lbu	a4,1388(sp)
   1564c:	50f10e23          	sb	a5,1308(sp)
   15650:	00f70a63          	beq	a4,a5,15664 <_start+0x3fba>
   15654:	6509                	lui	a0,0x2
   15656:	e5050513          	addi	a0,a0,-432 # 1e50 <.Lline_table_start1+0x1c25>
   1565a:	458d                	li	a1,3
   1565c:	4601                	li	a2,0
   1565e:	4681                	li	a3,0
   15660:	00000073          	ecall
   15664:	00004297          	auipc	t0,0x4
   15668:	0d0282e7          	jalr	t0,208(t0) # 19734 <OUTLINED_FUNCTION_34>
   1566c:	00004297          	auipc	t0,0x4
   15670:	c26282e7          	jalr	t0,-986(t0) # 19292 <OUTLINED_FUNCTION_0>
   15674:	04f00613          	li	a2,79
   15678:	00004097          	auipc	ra,0x4
   1567c:	302080e7          	jalr	770(ra) # 1997a <memcpy>
   15680:	4781                	li	a5,0
   15682:	b4cff06f          	j	149ce <_start+0x3324>
   15686:	56c14703          	lbu	a4,1388(sp)
   1568a:	4789                	li	a5,2
   1568c:	02f71963          	bne	a4,a5,156be <_start+0x4014>
   15690:	470d                	li	a4,3
   15692:	a0a1                	j	156da <_start+0x4030>
   15694:	46c10593          	addi	a1,sp,1132
   15698:	00d67b33          	and	s6,a2,a3
   1569c:	51c10513          	addi	a0,sp,1308
   156a0:	04200613          	li	a2,66
   156a4:	00004097          	auipc	ra,0x4
   156a8:	2d6080e7          	jalr	726(ra) # 1997a <memcpy>
   156ac:	4781                	li	a5,0
   156ae:	bf0ff06f          	j	14a9e <_start+0x33f4>
   156b2:	46414703          	lbu	a4,1124(sp)
   156b6:	06871063          	bne	a4,s0,15716 <_start+0x406c>
   156ba:	470d                	li	a4,3
   156bc:	a8a5                	j	15734 <_start+0x408a>
   156be:	6505                	lui	a0,0x1
   156c0:	55150513          	addi	a0,a0,1361 # 1551 <.Lline_table_start1+0x1326>
   156c4:	459d                	li	a1,7
   156c6:	4601                	li	a2,0
   156c8:	4681                	li	a3,0
   156ca:	00000073          	ecall
   156ce:	46414703          	lbu	a4,1124(sp)
   156d2:	56f10623          	sb	a5,1388(sp)
   156d6:	00f70a63          	beq	a4,a5,156ea <_start+0x4040>
   156da:	6505                	lui	a0,0x1
   156dc:	55150513          	addi	a0,a0,1361 # 1551 <.Lline_table_start1+0x1326>
   156e0:	4585                	li	a1,1
   156e2:	4601                	li	a2,0
   156e4:	4681                	li	a3,0
   156e6:	00000073          	ecall
   156ea:	00004297          	auipc	t0,0x4
   156ee:	cbe282e7          	jalr	t0,-834(t0) # 193a8 <OUTLINED_FUNCTION_5>
   156f2:	00004297          	auipc	t0,0x4
   156f6:	072282e7          	jalr	t0,114(t0) # 19764 <OUTLINED_FUNCTION_36>
   156fa:	4671                	li	a2,28
   156fc:	00004097          	auipc	ra,0x4
   15700:	27e080e7          	jalr	638(ra) # 1997a <memcpy>
   15704:	4481                	li	s1,0
   15706:	b269                	j	15090 <_start+0x39e6>
   15708:	56c14703          	lbu	a4,1388(sp)
   1570c:	4789                	li	a5,2
   1570e:	0ef71163          	bne	a4,a5,157f0 <_start+0x4146>
   15712:	470d                	li	a4,3
   15714:	a8e5                	j	1580c <_start+0x4162>
   15716:	6505                	lui	a0,0x1
   15718:	d5d50513          	addi	a0,a0,-675 # d5d <.Lline_table_start1+0xb32>
   1571c:	4589                	li	a1,2
   1571e:	4601                	li	a2,0
   15720:	4681                	li	a3,0
   15722:	00000073          	ecall
   15726:	56c14703          	lbu	a4,1388(sp)
   1572a:	4509                	li	a0,2
   1572c:	46a10223          	sb	a0,1124(sp)
   15730:	00a70a63          	beq	a4,a0,15744 <_start+0x409a>
   15734:	6505                	lui	a0,0x1
   15736:	d5d50513          	addi	a0,a0,-675 # d5d <.Lline_table_start1+0xb32>
   1573a:	4581                	li	a1,0
   1573c:	4601                	li	a2,0
   1573e:	4681                	li	a3,0
   15740:	00000073          	ecall
   15744:	00004297          	auipc	t0,0x4
   15748:	16c282e7          	jalr	t0,364(t0) # 198b0 <OUTLINED_FUNCTION_54>
   1574c:	00004297          	auipc	t0,0x4
   15750:	cf2282e7          	jalr	t0,-782(t0) # 1943e <OUTLINED_FUNCTION_8>
   15754:	50b11e23          	sh	a1,1308(sp)
   15758:	50d10f23          	sb	a3,1310(sp)
   1575c:	00a66b33          	or	s6,a2,a0
   15760:	57410593          	addi	a1,sp,1396
   15764:	0488                	addi	a0,sp,576
   15766:	02400613          	li	a2,36
   1576a:	00004097          	auipc	ra,0x4
   1576e:	210080e7          	jalr	528(ra) # 1997a <memcpy>
   15772:	4781                	li	a5,0
   15774:	baf5                	j	15170 <_start+0x3ac6>
   15776:	0488                	addi	a0,sp,576
   15778:	ffffc097          	auipc	ra,0xffffc
   1577c:	de4080e7          	jalr	-540(ra) # 1155c <_ZN9allow_pin12dynamic_type23Buffer$LT$B$C$_$C$_$GT$7unallow17h184144af6537db74E>
   15780:	56c10513          	addi	a0,sp,1388
   15784:	ffffc097          	auipc	ra,0xffffc
   15788:	dd8080e7          	jalr	-552(ra) # 1155c <_ZN9allow_pin12dynamic_type23Buffer$LT$B$C$_$C$_$GT$7unallow17h184144af6537db74E>
   1578c:	56c14483          	lbu	s1,1388(sp)
   15790:	4889                	li	a7,2
   15792:	ffe48593          	addi	a1,s1,-2
   15796:	00b03633          	snez	a2,a1
   1579a:	00010837          	lui	a6,0x10
   1579e:	26a80813          	addi	a6,a6,618 # 1026a <.Lanon.49c9f8067fe4468184af16d7576940c9.7>
   157a2:	01148363          	beq	s1,a7,157a8 <_start+0x40fe>
   157a6:	8ac2                	mv	s5,a6
   157a8:	001ac683          	lbu	a3,1(s5)
   157ac:	000ac703          	lbu	a4,0(s5)
   157b0:	002ac783          	lbu	a5,2(s5)
   157b4:	06a2                	slli	a3,a3,0x8
   157b6:	57014403          	lbu	s0,1392(sp)
   157ba:	57114583          	lbu	a1,1393(sp)
   157be:	8ed9                	or	a3,a3,a4
   157c0:	57214703          	lbu	a4,1394(sp)
   157c4:	57314503          	lbu	a0,1395(sp)
   157c8:	00004297          	auipc	t0,0x4
   157cc:	fbe282e7          	jalr	t0,-66(t0) # 19786 <OUTLINED_FUNCTION_38>
   157d0:	01148463          	beq	s1,a7,157d8 <_start+0x412e>
   157d4:	00780a13          	addi	s4,a6,7
   157d8:	00d67b33          	and	s6,a2,a3
   157dc:	51c10513          	addi	a0,sp,1308
   157e0:	4669                	li	a2,26
   157e2:	85d2                	mv	a1,s4
   157e4:	00004097          	auipc	ra,0x4
   157e8:	196080e7          	jalr	406(ra) # 1997a <memcpy>
   157ec:	4781                	li	a5,0
   157ee:	be05                	j	1531e <_start+0x3c74>
   157f0:	6505                	lui	a0,0x1
   157f2:	46550513          	addi	a0,a0,1125 # 1465 <.Lline_table_start1+0x123a>
   157f6:	4599                	li	a1,6
   157f8:	4601                	li	a2,0
   157fa:	4681                	li	a3,0
   157fc:	00000073          	ecall
   15800:	46414703          	lbu	a4,1124(sp)
   15804:	56f10623          	sb	a5,1388(sp)
   15808:	00f70a63          	beq	a4,a5,1581c <_start+0x4172>
   1580c:	6505                	lui	a0,0x1
   1580e:	46550513          	addi	a0,a0,1125 # 1465 <.Lline_table_start1+0x123a>
   15812:	4581                	li	a1,0
   15814:	4601                	li	a2,0
   15816:	4681                	li	a3,0
   15818:	00000073          	ecall
   1581c:	4781                	li	a5,0
   1581e:	4809                	li	a6,2
   15820:	0009c283          	lbu	t0,0(s3)
   15824:	0019c603          	lbu	a2,1(s3)
   15828:	0029c883          	lbu	a7,2(s3)
   1582c:	46814703          	lbu	a4,1128(sp)
   15830:	47114303          	lbu	t1,1137(sp)
   15834:	46914403          	lbu	s0,1129(sp)
   15838:	46a14383          	lbu	t2,1130(sp)
   1583c:	46b14e03          	lbu	t3,1131(sp)
   15840:	46c14583          	lbu	a1,1132(sp)
   15844:	47010223          	sb	a6,1124(sp)
   15848:	0622                	slli	a2,a2,0x8
   1584a:	0422                	slli	s0,s0,0x8
   1584c:	00566633          	or	a2,a2,t0
   15850:	00e46833          	or	a6,s0,a4
   15854:	46d14403          	lbu	s0,1133(sp)
   15858:	46e14483          	lbu	s1,1134(sp)
   1585c:	46f14503          	lbu	a0,1135(sp)
   15860:	47014683          	lbu	a3,1136(sp)
   15864:	03c2                	slli	t2,t2,0x10
   15866:	0e62                	slli	t3,t3,0x18
   15868:	007e6733          	or	a4,t3,t2
   1586c:	0322                	slli	t1,t1,0x8
   1586e:	00d366b3          	or	a3,t1,a3
   15872:	0422                	slli	s0,s0,0x8
   15874:	8dc1                	or	a1,a1,s0
   15876:	04c2                	slli	s1,s1,0x10
   15878:	0562                	slli	a0,a0,0x18
   1587a:	8d45                	or	a0,a0,s1
   1587c:	44c11623          	sh	a2,1100(sp)
   15880:	45110723          	sb	a7,1102(sp)
   15884:	01076b33          	or	s6,a4,a6
   15888:	8d4d                	or	a0,a0,a1
   1588a:	2ea12423          	sw	a0,744(sp)
   1588e:	2ed11623          	sh	a3,748(sp)
   15892:	b2c1                	j	15252 <_start+0x3ba8>
   15894:	24014703          	lbu	a4,576(sp)
   15898:	02871b63          	bne	a4,s0,158ce <_start+0x4224>
   1589c:	470d                	li	a4,3
   1589e:	a0b9                	j	158ec <_start+0x4242>
   158a0:	56c14703          	lbu	a4,1388(sp)
   158a4:	4789                	li	a5,2
   158a6:	06f71f63          	bne	a4,a5,15924 <_start+0x427a>
   158aa:	470d                	li	a4,3
   158ac:	a851                	j	15940 <_start+0x4296>
   158ae:	46f10223          	sb	a5,1124(sp)
   158b2:	6509                	lui	a0,0x2
   158b4:	4591                	li	a1,4
   158b6:	1ab50513          	addi	a0,a0,427 # 21ab <.Lline_table_start1+0x1f80>
   158ba:	4625                	li	a2,9
   158bc:	ffffc097          	auipc	ra,0xffffc
   158c0:	de0080e7          	jalr	-544(ra) # 1169c <_ZN9allow_pin7command17h1eb46760111c3605E>
   158c4:	8905                	andi	a0,a0,1
   158c6:	c54d                	beqz	a0,15970 <_start+0x42c6>
   158c8:	8b2e                	mv	s6,a1
   158ca:	4785                	li	a5,1
   158cc:	a8f5                	j	159c8 <_start+0x431e>
   158ce:	6509                	lui	a0,0x2
   158d0:	53e50513          	addi	a0,a0,1342 # 253e <.Lline_table_start1+0x2313>
   158d4:	4589                	li	a1,2
   158d6:	4601                	li	a2,0
   158d8:	4681                	li	a3,0
   158da:	00000073          	ecall
   158de:	56c14703          	lbu	a4,1388(sp)
   158e2:	4509                	li	a0,2
   158e4:	24a10023          	sb	a0,576(sp)
   158e8:	00a70a63          	beq	a4,a0,158fc <_start+0x4252>
   158ec:	6509                	lui	a0,0x2
   158ee:	53e50513          	addi	a0,a0,1342 # 253e <.Lline_table_start1+0x2313>
   158f2:	45a1                	li	a1,8
   158f4:	4601                	li	a2,0
   158f6:	4681                	li	a3,0
   158f8:	00000073          	ecall
   158fc:	00004297          	auipc	t0,0x4
   15900:	fb4282e7          	jalr	t0,-76(t0) # 198b0 <OUTLINED_FUNCTION_54>
   15904:	00004297          	auipc	t0,0x4
   15908:	b3a282e7          	jalr	t0,-1222(t0) # 1943e <OUTLINED_FUNCTION_8>
   1590c:	00004297          	auipc	t0,0x4
   15910:	da8282e7          	jalr	t0,-600(t0) # 196b4 <OUTLINED_FUNCTION_29>
   15914:	04c00613          	li	a2,76
   15918:	00004097          	auipc	ra,0x4
   1591c:	062080e7          	jalr	98(ra) # 1997a <memcpy>
   15920:	4781                	li	a5,0
   15922:	b4c5                	j	15402 <_start+0x3d58>
   15924:	6505                	lui	a0,0x1
   15926:	6ba50513          	addi	a0,a0,1722 # 16ba <.Lline_table_start1+0x148f>
   1592a:	45a5                	li	a1,9
   1592c:	4601                	li	a2,0
   1592e:	4681                	li	a3,0
   15930:	00000073          	ecall
   15934:	46414703          	lbu	a4,1124(sp)
   15938:	56f10623          	sb	a5,1388(sp)
   1593c:	00f70a63          	beq	a4,a5,15950 <_start+0x42a6>
   15940:	6505                	lui	a0,0x1
   15942:	6ba50513          	addi	a0,a0,1722 # 16ba <.Lline_table_start1+0x148f>
   15946:	4591                	li	a1,4
   15948:	4601                	li	a2,0
   1594a:	4681                	li	a3,0
   1594c:	00000073          	ecall
   15950:	00004297          	auipc	t0,0x4
   15954:	dd4282e7          	jalr	t0,-556(t0) # 19724 <OUTLINED_FUNCTION_33>
   15958:	00004297          	auipc	t0,0x4
   1595c:	970282e7          	jalr	t0,-1680(t0) # 192c8 <OUTLINED_FUNCTION_1>
   15960:	04600613          	li	a2,70
   15964:	00004097          	auipc	ra,0x4
   15968:	016080e7          	jalr	22(ra) # 1997a <memcpy>
   1596c:	4781                	li	a5,0
   1596e:	b69d                	j	154d4 <_start+0x3e2a>
   15970:	56c14703          	lbu	a4,1388(sp)
   15974:	4789                	li	a5,2
   15976:	00f71463          	bne	a4,a5,1597e <_start+0x42d4>
   1597a:	470d                	li	a4,3
   1597c:	a839                	j	1599a <_start+0x42f0>
   1597e:	6509                	lui	a0,0x2
   15980:	1ab50513          	addi	a0,a0,427 # 21ab <.Lline_table_start1+0x1f80>
   15984:	4591                	li	a1,4
   15986:	4601                	li	a2,0
   15988:	4681                	li	a3,0
   1598a:	00000073          	ecall
   1598e:	46414703          	lbu	a4,1124(sp)
   15992:	56f10623          	sb	a5,1388(sp)
   15996:	00f70a63          	beq	a4,a5,159aa <_start+0x4300>
   1599a:	6509                	lui	a0,0x2
   1599c:	1ab50513          	addi	a0,a0,427 # 21ab <.Lline_table_start1+0x1f80>
   159a0:	45a5                	li	a1,9
   159a2:	4601                	li	a2,0
   159a4:	4681                	li	a3,0
   159a6:	00000073          	ecall
   159aa:	00004297          	auipc	t0,0x4
   159ae:	d7a282e7          	jalr	t0,-646(t0) # 19724 <OUTLINED_FUNCTION_33>
   159b2:	00004297          	auipc	t0,0x4
   159b6:	916282e7          	jalr	t0,-1770(t0) # 192c8 <OUTLINED_FUNCTION_1>
   159ba:	03500613          	li	a2,53
   159be:	00004097          	auipc	ra,0x4
   159c2:	fbc080e7          	jalr	-68(ra) # 1997a <memcpy>
   159c6:	4781                	li	a5,0
   159c8:	46414703          	lbu	a4,1124(sp)
   159cc:	4489                	li	s1,2
   159ce:	00970a63          	beq	a4,s1,159e2 <_start+0x4338>
   159d2:	6509                	lui	a0,0x2
   159d4:	1ab50513          	addi	a0,a0,427 # 21ab <.Lline_table_start1+0x1f80>
   159d8:	45a5                	li	a1,9
   159da:	4601                	li	a2,0
   159dc:	4681                	li	a3,0
   159de:	00000073          	ecall
   159e2:	56c14703          	lbu	a4,1388(sp)
   159e6:	00970a63          	beq	a4,s1,159fa <_start+0x4350>
   159ea:	6509                	lui	a0,0x2
   159ec:	1ab50513          	addi	a0,a0,427 # 21ab <.Lline_table_start1+0x1f80>
   159f0:	4591                	li	a1,4
   159f2:	4601                	li	a2,0
   159f4:	4681                	li	a3,0
   159f6:	00000073          	ecall
   159fa:	c399                	beqz	a5,15a00 <_start+0x4356>
   159fc:	7340306f          	j	19130 <_start+0x7a86>
   15a00:	00004297          	auipc	t0,0x4
   15a04:	d78282e7          	jalr	t0,-648(t0) # 19778 <OUTLINED_FUNCTION_37>
   15a08:	00004297          	auipc	t0,0x4
   15a0c:	c48282e7          	jalr	t0,-952(t0) # 19650 <OUTLINED_FUNCTION_25>
   15a10:	03500613          	li	a2,53
   15a14:	00004097          	auipc	ra,0x4
   15a18:	f66080e7          	jalr	-154(ra) # 1997a <memcpy>
   15a1c:	57410513          	addi	a0,sp,1396
   15a20:	048c                	addi	a1,sp,576
   15a22:	03500613          	li	a2,53
   15a26:	00004097          	auipc	ra,0x4
   15a2a:	f54080e7          	jalr	-172(ra) # 1997a <memcpy>
   15a2e:	00004297          	auipc	t0,0x4
   15a32:	a34282e7          	jalr	t0,-1484(t0) # 19462 <OUTLINED_FUNCTION_9>
   15a36:	03800613          	li	a2,56
   15a3a:	854e                	mv	a0,s3
   15a3c:	4581                	li	a1,0
   15a3e:	00004097          	auipc	ra,0x4
   15a42:	ed0080e7          	jalr	-304(ra) # 1990e <memset>
   15a46:	46810223          	sb	s0,1124(sp)
   15a4a:	56c10513          	addi	a0,sp,1388
   15a4e:	03c00593          	li	a1,60
   15a52:	4611                	li	a2,4
   15a54:	ffffc097          	auipc	ra,0xffffc
   15a58:	9c4080e7          	jalr	-1596(ra) # 11418 <_ZN9allow_pin12dynamic_type23Buffer$LT$B$C$_$C$_$GT$5allow17h4c25bcceeb786d4dE>
   15a5c:	8905                	andi	a0,a0,1
   15a5e:	e51d                	bnez	a0,15a8c <_start+0x43e2>
   15a60:	46410513          	addi	a0,sp,1124
   15a64:	03800593          	li	a1,56
   15a68:	460d                	li	a2,3
   15a6a:	ffffc097          	auipc	ra,0xffffc
   15a6e:	9ae080e7          	jalr	-1618(ra) # 11418 <_ZN9allow_pin12dynamic_type23Buffer$LT$B$C$_$C$_$GT$5allow17h4c25bcceeb786d4dE>
   15a72:	8905                	andi	a0,a0,1
   15a74:	ed01                	bnez	a0,15a8c <_start+0x43e2>
   15a76:	6509                	lui	a0,0x2
   15a78:	458d                	li	a1,3
   15a7a:	d1950513          	addi	a0,a0,-743 # 1d19 <.Lline_table_start1+0x1aee>
   15a7e:	460d                	li	a2,3
   15a80:	ffffc097          	auipc	ra,0xffffc
   15a84:	c1c080e7          	jalr	-996(ra) # 1169c <_ZN9allow_pin7command17h1eb46760111c3605E>
   15a88:	8905                	andi	a0,a0,1
   15a8a:	c511                	beqz	a0,15a96 <_start+0x43ec>
   15a8c:	8b2e                	mv	s6,a1
   15a8e:	46414483          	lbu	s1,1124(sp)
   15a92:	4785                	li	a5,1
   15a94:	a079                	j	15b22 <_start+0x4478>
   15a96:	56c10513          	addi	a0,sp,1388
   15a9a:	ffffc097          	auipc	ra,0xffffc
   15a9e:	bba080e7          	jalr	-1094(ra) # 11654 <_ZN9allow_pin12dynamic_type23Buffer$LT$B$C$_$C$_$GT$7unallow17hd9110e20ea887c65E>
   15aa2:	46410513          	addi	a0,sp,1124
   15aa6:	ffffc097          	auipc	ra,0xffffc
   15aaa:	bae080e7          	jalr	-1106(ra) # 11654 <_ZN9allow_pin12dynamic_type23Buffer$LT$B$C$_$C$_$GT$7unallow17hd9110e20ea887c65E>
   15aae:	46414483          	lbu	s1,1124(sp)
   15ab2:	4809                	li	a6,2
   15ab4:	ffe48593          	addi	a1,s1,-2
   15ab8:	00b03633          	snez	a2,a1
   15abc:	000108b7          	lui	a7,0x10
   15ac0:	23288893          	addi	a7,a7,562 # 10232 <.Lanon.49c9f8067fe4468184af16d7576940c9.6>
   15ac4:	01048363          	beq	s1,a6,15aca <_start+0x4420>
   15ac8:	89c6                	mv	s3,a7
   15aca:	0019c683          	lbu	a3,1(s3)
   15ace:	0009c703          	lbu	a4,0(s3)
   15ad2:	0029c783          	lbu	a5,2(s3)
   15ad6:	06a2                	slli	a3,a3,0x8
   15ad8:	46814403          	lbu	s0,1128(sp)
   15adc:	46914503          	lbu	a0,1129(sp)
   15ae0:	8ed9                	or	a3,a3,a4
   15ae2:	46a14703          	lbu	a4,1130(sp)
   15ae6:	46b14583          	lbu	a1,1131(sp)
   15aea:	0522                	slli	a0,a0,0x8
   15aec:	8d41                	or	a0,a0,s0
   15aee:	0742                	slli	a4,a4,0x10
   15af0:	05e2                	slli	a1,a1,0x18
   15af2:	8dd9                	or	a1,a1,a4
   15af4:	2ed11423          	sh	a3,744(sp)
   15af8:	2ef10523          	sb	a5,746(sp)
   15afc:	00a5e6b3          	or	a3,a1,a0
   15b00:	167d                	addi	a2,a2,-1
   15b02:	01048463          	beq	s1,a6,15b0a <_start+0x4460>
   15b06:	00788913          	addi	s2,a7,7
   15b0a:	00d67b33          	and	s6,a2,a3
   15b0e:	51c10513          	addi	a0,sp,1308
   15b12:	03100613          	li	a2,49
   15b16:	85ca                	mv	a1,s2
   15b18:	00004097          	auipc	ra,0x4
   15b1c:	e62080e7          	jalr	-414(ra) # 1997a <memcpy>
   15b20:	4781                	li	a5,0
   15b22:	4409                	li	s0,2
   15b24:	00848b63          	beq	s1,s0,15b3a <_start+0x4490>
   15b28:	6509                	lui	a0,0x2
   15b2a:	d1950513          	addi	a0,a0,-743 # 1d19 <.Lline_table_start1+0x1aee>
   15b2e:	458d                	li	a1,3
   15b30:	4601                	li	a2,0
   15b32:	4681                	li	a3,0
   15b34:	8726                	mv	a4,s1
   15b36:	00000073          	ecall
   15b3a:	56c14703          	lbu	a4,1388(sp)
   15b3e:	00870a63          	beq	a4,s0,15b52 <_start+0x44a8>
   15b42:	6509                	lui	a0,0x2
   15b44:	d1950513          	addi	a0,a0,-743 # 1d19 <.Lline_table_start1+0x1aee>
   15b48:	458d                	li	a1,3
   15b4a:	4601                	li	a2,0
   15b4c:	4681                	li	a3,0
   15b4e:	00000073          	ecall
   15b52:	c399                	beqz	a5,15b58 <_start+0x44ae>
   15b54:	5dc0306f          	j	19130 <_start+0x7a86>
   15b58:	00004297          	auipc	t0,0x4
   15b5c:	9da282e7          	jalr	t0,-1574(t0) # 19532 <OUTLINED_FUNCTION_15>
   15b60:	0488                	addi	a0,sp,576
   15b62:	51c10593          	addi	a1,sp,1308
   15b66:	03100613          	li	a2,49
   15b6a:	00004097          	auipc	ra,0x4
   15b6e:	e10080e7          	jalr	-496(ra) # 1997a <memcpy>
   15b72:	57410513          	addi	a0,sp,1396
   15b76:	048c                	addi	a1,sp,576
   15b78:	03100613          	li	a2,49
   15b7c:	00004097          	auipc	ra,0x4
   15b80:	dfe080e7          	jalr	-514(ra) # 1997a <memcpy>
   15b84:	00004297          	auipc	t0,0x4
   15b88:	8de282e7          	jalr	t0,-1826(t0) # 19462 <OUTLINED_FUNCTION_9>
   15b8c:	46510913          	addi	s2,sp,1125
   15b90:	02700613          	li	a2,39
   15b94:	854a                	mv	a0,s2
   15b96:	4581                	li	a1,0
   15b98:	00004097          	auipc	ra,0x4
   15b9c:	d76080e7          	jalr	-650(ra) # 1990e <memset>
   15ba0:	00004297          	auipc	t0,0x4
   15ba4:	cec282e7          	jalr	t0,-788(t0) # 1988c <OUTLINED_FUNCTION_51>
   15ba8:	4589                	li	a1,2
   15baa:	e2b50793          	addi	a5,a0,-469
   15bae:	03800693          	li	a3,56
   15bb2:	4711                	li	a4,4
   15bb4:	853e                	mv	a0,a5
   15bb6:	00000073          	ecall
   15bba:	02850d63          	beq	a0,s0,15bf4 <_start+0x454a>
   15bbe:	853e                	mv	a0,a5
   15bc0:	864a                	mv	a2,s2
   15bc2:	56910623          	sb	s1,1388(sp)
   15bc6:	478d                	li	a5,3
   15bc8:	45a1                	li	a1,8
   15bca:	02700693          	li	a3,39
   15bce:	470d                	li	a4,3
   15bd0:	00000073          	ecall
   15bd4:	02850063          	beq	a0,s0,15bf4 <_start+0x454a>
   15bd8:	46f10223          	sb	a5,1124(sp)
   15bdc:	6505                	lui	a0,0x1
   15bde:	4589                	li	a1,2
   15be0:	e2b50513          	addi	a0,a0,-469 # e2b <.Lline_table_start1+0xc00>
   15be4:	4621                	li	a2,8
   15be6:	4409                	li	s0,2
   15be8:	ffffc097          	auipc	ra,0xffffc
   15bec:	ab4080e7          	jalr	-1356(ra) # 1169c <_ZN9allow_pin7command17h1eb46760111c3605E>
   15bf0:	8905                	andi	a0,a0,1
   15bf2:	c501                	beqz	a0,15bfa <_start+0x4550>
   15bf4:	8b2e                	mv	s6,a1
   15bf6:	4785                	li	a5,1
   15bf8:	a889                	j	15c4a <_start+0x45a0>
   15bfa:	56c14703          	lbu	a4,1388(sp)
   15bfe:	00871463          	bne	a4,s0,15c06 <_start+0x455c>
   15c02:	470d                	li	a4,3
   15c04:	a839                	j	15c22 <_start+0x4578>
   15c06:	6505                	lui	a0,0x1
   15c08:	e2b50513          	addi	a0,a0,-469 # e2b <.Lline_table_start1+0xc00>
   15c0c:	4589                	li	a1,2
   15c0e:	4601                	li	a2,0
   15c10:	4681                	li	a3,0
   15c12:	00000073          	ecall
   15c16:	00004297          	auipc	t0,0x4
   15c1a:	c82282e7          	jalr	t0,-894(t0) # 19898 <OUTLINED_FUNCTION_52>
   15c1e:	00a70a63          	beq	a4,a0,15c32 <_start+0x4588>
   15c22:	6505                	lui	a0,0x1
   15c24:	e2b50513          	addi	a0,a0,-469 # e2b <.Lline_table_start1+0xc00>
   15c28:	45a1                	li	a1,8
   15c2a:	4601                	li	a2,0
   15c2c:	4681                	li	a3,0
   15c2e:	00000073          	ecall
   15c32:	00003297          	auipc	t0,0x3
   15c36:	702282e7          	jalr	t0,1794(t0) # 19334 <OUTLINED_FUNCTION_3>
   15c3a:	0488                	addi	a0,sp,576
   15c3c:	02000613          	li	a2,32
   15c40:	00004097          	auipc	ra,0x4
   15c44:	d3a080e7          	jalr	-710(ra) # 1997a <memcpy>
   15c48:	4781                	li	a5,0
   15c4a:	46414703          	lbu	a4,1124(sp)
   15c4e:	4489                	li	s1,2
   15c50:	00970a63          	beq	a4,s1,15c64 <_start+0x45ba>
   15c54:	6505                	lui	a0,0x1
   15c56:	e2b50513          	addi	a0,a0,-469 # e2b <.Lline_table_start1+0xc00>
   15c5a:	45a1                	li	a1,8
   15c5c:	4601                	li	a2,0
   15c5e:	4681                	li	a3,0
   15c60:	00000073          	ecall
   15c64:	56c14703          	lbu	a4,1388(sp)
   15c68:	00970a63          	beq	a4,s1,15c7c <_start+0x45d2>
   15c6c:	6505                	lui	a0,0x1
   15c6e:	e2b50513          	addi	a0,a0,-469 # e2b <.Lline_table_start1+0xc00>
   15c72:	4589                	li	a1,2
   15c74:	4601                	li	a2,0
   15c76:	4681                	li	a3,0
   15c78:	00000073          	ecall
   15c7c:	c399                	beqz	a5,15c82 <_start+0x45d8>
   15c7e:	4b20306f          	j	19130 <_start+0x7a86>
   15c82:	00004297          	auipc	t0,0x4
   15c86:	958282e7          	jalr	t0,-1704(t0) # 195da <OUTLINED_FUNCTION_20>
   15c8a:	0ba8                	addi	a0,sp,472
   15c8c:	048c                	addi	a1,sp,576
   15c8e:	02000613          	li	a2,32
   15c92:	00004097          	auipc	ra,0x4
   15c96:	ce8080e7          	jalr	-792(ra) # 1997a <memcpy>
   15c9a:	00004297          	auipc	t0,0x4
   15c9e:	810282e7          	jalr	t0,-2032(t0) # 194aa <OUTLINED_FUNCTION_11>
   15ca2:	52410513          	addi	a0,sp,1316
   15ca6:	0bac                	addi	a1,sp,472
   15ca8:	02000613          	li	a2,32
   15cac:	00004097          	auipc	ra,0x4
   15cb0:	cce080e7          	jalr	-818(ra) # 1997a <memcpy>
   15cb4:	05100613          	li	a2,81
   15cb8:	854e                	mv	a0,s3
   15cba:	4581                	li	a1,0
   15cbc:	00004097          	auipc	ra,0x4
   15cc0:	c52080e7          	jalr	-942(ra) # 1990e <memset>
   15cc4:	4581                	li	a1,0
   15cc6:	00004297          	auipc	t0,0x4
   15cca:	bba282e7          	jalr	t0,-1094(t0) # 19880 <OUTLINED_FUNCTION_50>
   15cce:	a3650793          	addi	a5,a0,-1482
   15cd2:	02700693          	li	a3,39
   15cd6:	4711                	li	a4,4
   15cd8:	853e                	mv	a0,a5
   15cda:	00000073          	ecall
   15cde:	02950b63          	beq	a0,s1,15d14 <_start+0x466a>
   15ce2:	00004297          	auipc	t0,0x4
   15ce6:	bfc282e7          	jalr	t0,-1028(t0) # 198de <OUTLINED_FUNCTION_57>
   15cea:	4591                	li	a1,4
   15cec:	05100693          	li	a3,81
   15cf0:	470d                	li	a4,3
   15cf2:	00000073          	ecall
   15cf6:	00950f63          	beq	a0,s1,15d14 <_start+0x466a>
   15cfa:	56f10623          	sb	a5,1388(sp)
   15cfe:	6505                	lui	a0,0x1
   15d00:	a3650513          	addi	a0,a0,-1482 # a36 <.Lline_table_start1+0x80b>
   15d04:	4611                	li	a2,4
   15d06:	4581                	li	a1,0
   15d08:	ffffc097          	auipc	ra,0xffffc
   15d0c:	994080e7          	jalr	-1644(ra) # 1169c <_ZN9allow_pin7command17h1eb46760111c3605E>
   15d10:	8905                	andi	a0,a0,1
   15d12:	c501                	beqz	a0,15d1a <_start+0x4670>
   15d14:	8b2e                	mv	s6,a1
   15d16:	4785                	li	a5,1
   15d18:	a8a9                	j	15d72 <_start+0x46c8>
   15d1a:	51c14703          	lbu	a4,1308(sp)
   15d1e:	4789                	li	a5,2
   15d20:	00f71463          	bne	a4,a5,15d28 <_start+0x467e>
   15d24:	470d                	li	a4,3
   15d26:	a839                	j	15d44 <_start+0x469a>
   15d28:	6505                	lui	a0,0x1
   15d2a:	a3650513          	addi	a0,a0,-1482 # a36 <.Lline_table_start1+0x80b>
   15d2e:	4581                	li	a1,0
   15d30:	4601                	li	a2,0
   15d32:	4681                	li	a3,0
   15d34:	00000073          	ecall
   15d38:	56c14703          	lbu	a4,1388(sp)
   15d3c:	50f10e23          	sb	a5,1308(sp)
   15d40:	00f70a63          	beq	a4,a5,15d54 <_start+0x46aa>
   15d44:	6505                	lui	a0,0x1
   15d46:	a3650513          	addi	a0,a0,-1482 # a36 <.Lline_table_start1+0x80b>
   15d4a:	4591                	li	a1,4
   15d4c:	4601                	li	a2,0
   15d4e:	4681                	li	a3,0
   15d50:	00000073          	ecall
   15d54:	00004297          	auipc	t0,0x4
   15d58:	9d0282e7          	jalr	t0,-1584(t0) # 19724 <OUTLINED_FUNCTION_33>
   15d5c:	00003297          	auipc	t0,0x3
   15d60:	536282e7          	jalr	t0,1334(t0) # 19292 <OUTLINED_FUNCTION_0>
   15d64:	04a00613          	li	a2,74
   15d68:	00004097          	auipc	ra,0x4
   15d6c:	c12080e7          	jalr	-1006(ra) # 1997a <memcpy>
   15d70:	4781                	li	a5,0
   15d72:	56c14703          	lbu	a4,1388(sp)
   15d76:	4489                	li	s1,2
   15d78:	00970a63          	beq	a4,s1,15d8c <_start+0x46e2>
   15d7c:	6505                	lui	a0,0x1
   15d7e:	a3650513          	addi	a0,a0,-1482 # a36 <.Lline_table_start1+0x80b>
   15d82:	4591                	li	a1,4
   15d84:	4601                	li	a2,0
   15d86:	4681                	li	a3,0
   15d88:	00000073          	ecall
   15d8c:	51c14703          	lbu	a4,1308(sp)
   15d90:	00970a63          	beq	a4,s1,15da4 <_start+0x46fa>
   15d94:	6505                	lui	a0,0x1
   15d96:	a3650513          	addi	a0,a0,-1482 # a36 <.Lline_table_start1+0x80b>
   15d9a:	4581                	li	a1,0
   15d9c:	4601                	li	a2,0
   15d9e:	4681                	li	a3,0
   15da0:	00000073          	ecall
   15da4:	c399                	beqz	a5,15daa <_start+0x4700>
   15da6:	38a0306f          	j	19130 <_start+0x7a86>
   15daa:	00003297          	auipc	t0,0x3
   15dae:	788282e7          	jalr	t0,1928(t0) # 19532 <OUTLINED_FUNCTION_15>
   15db2:	46410513          	addi	a0,sp,1124
   15db6:	048c                	addi	a1,sp,576
   15db8:	04a00613          	li	a2,74
   15dbc:	00004097          	auipc	ra,0x4
   15dc0:	bbe080e7          	jalr	-1090(ra) # 1997a <memcpy>
   15dc4:	00004297          	auipc	t0,0x4
   15dc8:	b0c282e7          	jalr	t0,-1268(t0) # 198d0 <OUTLINED_FUNCTION_56>
   15dcc:	00004097          	auipc	ra,0x4
   15dd0:	bae080e7          	jalr	-1106(ra) # 1997a <memcpy>
   15dd4:	00003297          	auipc	t0,0x3
   15dd8:	68e282e7          	jalr	t0,1678(t0) # 19462 <OUTLINED_FUNCTION_9>
   15ddc:	04f00613          	li	a2,79
   15de0:	854a                	mv	a0,s2
   15de2:	4581                	li	a1,0
   15de4:	00004097          	auipc	ra,0x4
   15de8:	b2a080e7          	jalr	-1238(ra) # 1990e <memset>
   15dec:	864e                	mv	a2,s3
   15dee:	46810223          	sb	s0,1124(sp)
   15df2:	6509                	lui	a0,0x2
   15df4:	4491                	li	s1,4
   15df6:	4591                	li	a1,4
   15df8:	0ee50793          	addi	a5,a0,238 # 20ee <.Lline_table_start1+0x1ec3>
   15dfc:	05100693          	li	a3,81
   15e00:	4711                	li	a4,4
   15e02:	853e                	mv	a0,a5
   15e04:	00000073          	ecall
   15e08:	02850c63          	beq	a0,s0,15e40 <_start+0x4796>
   15e0c:	853e                	mv	a0,a5
   15e0e:	864a                	mv	a2,s2
   15e10:	56910623          	sb	s1,1388(sp)
   15e14:	478d                	li	a5,3
   15e16:	45a5                	li	a1,9
   15e18:	04f00693          	li	a3,79
   15e1c:	470d                	li	a4,3
   15e1e:	00000073          	ecall
   15e22:	00850f63          	beq	a0,s0,15e40 <_start+0x4796>
   15e26:	46f10223          	sb	a5,1124(sp)
   15e2a:	6509                	lui	a0,0x2
   15e2c:	4591                	li	a1,4
   15e2e:	0ee50513          	addi	a0,a0,238 # 20ee <.Lline_table_start1+0x1ec3>
   15e32:	4625                	li	a2,9
   15e34:	ffffc097          	auipc	ra,0xffffc
   15e38:	868080e7          	jalr	-1944(ra) # 1169c <_ZN9allow_pin7command17h1eb46760111c3605E>
   15e3c:	8905                	andi	a0,a0,1
   15e3e:	c501                	beqz	a0,15e46 <_start+0x479c>
   15e40:	8b2e                	mv	s6,a1
   15e42:	4785                	li	a5,1
   15e44:	a891                	j	15e98 <_start+0x47ee>
   15e46:	56c14703          	lbu	a4,1388(sp)
   15e4a:	4789                	li	a5,2
   15e4c:	00f71463          	bne	a4,a5,15e54 <_start+0x47aa>
   15e50:	470d                	li	a4,3
   15e52:	a839                	j	15e70 <_start+0x47c6>
   15e54:	6509                	lui	a0,0x2
   15e56:	0ee50513          	addi	a0,a0,238 # 20ee <.Lline_table_start1+0x1ec3>
   15e5a:	4591                	li	a1,4
   15e5c:	4601                	li	a2,0
   15e5e:	4681                	li	a3,0
   15e60:	00000073          	ecall
   15e64:	46414703          	lbu	a4,1124(sp)
   15e68:	56f10623          	sb	a5,1388(sp)
   15e6c:	00f70a63          	beq	a4,a5,15e80 <_start+0x47d6>
   15e70:	6509                	lui	a0,0x2
   15e72:	0ee50513          	addi	a0,a0,238 # 20ee <.Lline_table_start1+0x1ec3>
   15e76:	45a5                	li	a1,9
   15e78:	4601                	li	a2,0
   15e7a:	4681                	li	a3,0
   15e7c:	00000073          	ecall
   15e80:	00003297          	auipc	t0,0x3
   15e84:	4b4282e7          	jalr	t0,1204(t0) # 19334 <OUTLINED_FUNCTION_3>
   15e88:	0488                	addi	a0,sp,576
   15e8a:	04800613          	li	a2,72
   15e8e:	00004097          	auipc	ra,0x4
   15e92:	aec080e7          	jalr	-1300(ra) # 1997a <memcpy>
   15e96:	4781                	li	a5,0
   15e98:	46414703          	lbu	a4,1124(sp)
   15e9c:	4489                	li	s1,2
   15e9e:	00970a63          	beq	a4,s1,15eb2 <_start+0x4808>
   15ea2:	6509                	lui	a0,0x2
   15ea4:	0ee50513          	addi	a0,a0,238 # 20ee <.Lline_table_start1+0x1ec3>
   15ea8:	45a5                	li	a1,9
   15eaa:	4601                	li	a2,0
   15eac:	4681                	li	a3,0
   15eae:	00000073          	ecall
   15eb2:	56c14703          	lbu	a4,1388(sp)
   15eb6:	00970a63          	beq	a4,s1,15eca <_start+0x4820>
   15eba:	6509                	lui	a0,0x2
   15ebc:	0ee50513          	addi	a0,a0,238 # 20ee <.Lline_table_start1+0x1ec3>
   15ec0:	4591                	li	a1,4
   15ec2:	4601                	li	a2,0
   15ec4:	4681                	li	a3,0
   15ec6:	00000073          	ecall
   15eca:	c399                	beqz	a5,15ed0 <_start+0x4826>
   15ecc:	2640306f          	j	19130 <_start+0x7a86>
   15ed0:	00003297          	auipc	t0,0x3
   15ed4:	70a282e7          	jalr	t0,1802(t0) # 195da <OUTLINED_FUNCTION_20>
   15ed8:	1ba8                	addi	a0,sp,504
   15eda:	048c                	addi	a1,sp,576
   15edc:	04800613          	li	a2,72
   15ee0:	00004097          	auipc	ra,0x4
   15ee4:	a9a080e7          	jalr	-1382(ra) # 1997a <memcpy>
   15ee8:	00003297          	auipc	t0,0x3
   15eec:	5c2282e7          	jalr	t0,1474(t0) # 194aa <OUTLINED_FUNCTION_11>
   15ef0:	52410513          	addi	a0,sp,1316
   15ef4:	1bac                	addi	a1,sp,504
   15ef6:	04800613          	li	a2,72
   15efa:	00004097          	auipc	ra,0x4
   15efe:	a80080e7          	jalr	-1408(ra) # 1997a <memcpy>
   15f02:	06100613          	li	a2,97
   15f06:	854e                	mv	a0,s3
   15f08:	4581                	li	a1,0
   15f0a:	00004097          	auipc	ra,0x4
   15f0e:	a04080e7          	jalr	-1532(ra) # 1990e <memset>
   15f12:	8622                	mv	a2,s0
   15f14:	56910623          	sb	s1,1388(sp)
   15f18:	4791                	li	a5,4
   15f1a:	1b600513          	li	a0,438
   15f1e:	4589                	li	a1,2
   15f20:	04f00693          	li	a3,79
   15f24:	4711                	li	a4,4
   15f26:	00000073          	ecall
   15f2a:	02950d63          	beq	a0,s1,15f64 <_start+0x48ba>
   15f2e:	864e                	mv	a2,s3
   15f30:	50f10e23          	sb	a5,1308(sp)
   15f34:	478d                	li	a5,3
   15f36:	1b600513          	li	a0,438
   15f3a:	45a1                	li	a1,8
   15f3c:	06100693          	li	a3,97
   15f40:	470d                	li	a4,3
   15f42:	00000073          	ecall
   15f46:	00950f63          	beq	a0,s1,15f64 <_start+0x48ba>
   15f4a:	56f10623          	sb	a5,1388(sp)
   15f4e:	1b600513          	li	a0,438
   15f52:	4589                	li	a1,2
   15f54:	4621                	li	a2,8
   15f56:	4409                	li	s0,2
   15f58:	ffffb097          	auipc	ra,0xffffb
   15f5c:	744080e7          	jalr	1860(ra) # 1169c <_ZN9allow_pin7command17h1eb46760111c3605E>
   15f60:	8905                	andi	a0,a0,1
   15f62:	c501                	beqz	a0,15f6a <_start+0x48c0>
   15f64:	8b2e                	mv	s6,a1
   15f66:	4785                	li	a5,1
   15f68:	a899                	j	15fbe <_start+0x4914>
   15f6a:	51c14703          	lbu	a4,1308(sp)
   15f6e:	00871463          	bne	a4,s0,15f76 <_start+0x48cc>
   15f72:	470d                	li	a4,3
   15f74:	a839                	j	15f92 <_start+0x48e8>
   15f76:	1b600513          	li	a0,438
   15f7a:	4589                	li	a1,2
   15f7c:	4601                	li	a2,0
   15f7e:	4681                	li	a3,0
   15f80:	00000073          	ecall
   15f84:	56c14703          	lbu	a4,1388(sp)
   15f88:	4509                	li	a0,2
   15f8a:	50a10e23          	sb	a0,1308(sp)
   15f8e:	00a70963          	beq	a4,a0,15fa0 <_start+0x48f6>
   15f92:	1b600513          	li	a0,438
   15f96:	45a1                	li	a1,8
   15f98:	4601                	li	a2,0
   15f9a:	4681                	li	a3,0
   15f9c:	00000073          	ecall
   15fa0:	00003297          	auipc	t0,0x3
   15fa4:	784282e7          	jalr	t0,1924(t0) # 19724 <OUTLINED_FUNCTION_33>
   15fa8:	00003297          	auipc	t0,0x3
   15fac:	2ea282e7          	jalr	t0,746(t0) # 19292 <OUTLINED_FUNCTION_0>
   15fb0:	05a00613          	li	a2,90
   15fb4:	00004097          	auipc	ra,0x4
   15fb8:	9c6080e7          	jalr	-1594(ra) # 1997a <memcpy>
   15fbc:	4781                	li	a5,0
   15fbe:	56c14703          	lbu	a4,1388(sp)
   15fc2:	4489                	li	s1,2
   15fc4:	00970963          	beq	a4,s1,15fd6 <_start+0x492c>
   15fc8:	1b600513          	li	a0,438
   15fcc:	45a1                	li	a1,8
   15fce:	4601                	li	a2,0
   15fd0:	4681                	li	a3,0
   15fd2:	00000073          	ecall
   15fd6:	51c14703          	lbu	a4,1308(sp)
   15fda:	00970963          	beq	a4,s1,15fec <_start+0x4942>
   15fde:	1b600513          	li	a0,438
   15fe2:	4589                	li	a1,2
   15fe4:	4601                	li	a2,0
   15fe6:	4681                	li	a3,0
   15fe8:	00000073          	ecall
   15fec:	c399                	beqz	a5,15ff2 <_start+0x4948>
   15fee:	1420306f          	j	19130 <_start+0x7a86>
   15ff2:	00003297          	auipc	t0,0x3
   15ff6:	540282e7          	jalr	t0,1344(t0) # 19532 <OUTLINED_FUNCTION_15>
   15ffa:	46410513          	addi	a0,sp,1124
   15ffe:	048c                	addi	a1,sp,576
   16000:	05a00613          	li	a2,90
   16004:	00004097          	auipc	ra,0x4
   16008:	976080e7          	jalr	-1674(ra) # 1997a <memcpy>
   1600c:	57410513          	addi	a0,sp,1396
   16010:	46410593          	addi	a1,sp,1124
   16014:	05a00613          	li	a2,90
   16018:	00004097          	auipc	ra,0x4
   1601c:	962080e7          	jalr	-1694(ra) # 1997a <memcpy>
   16020:	00003297          	auipc	t0,0x3
   16024:	442282e7          	jalr	t0,1090(t0) # 19462 <OUTLINED_FUNCTION_9>
   16028:	4679                	li	a2,30
   1602a:	854a                	mv	a0,s2
   1602c:	4581                	li	a1,0
   1602e:	00004097          	auipc	ra,0x4
   16032:	8e0080e7          	jalr	-1824(ra) # 1990e <memset>
   16036:	864e                	mv	a2,s3
   16038:	46810223          	sb	s0,1124(sp)
   1603c:	4791                	li	a5,4
   1603e:	18800513          	li	a0,392
   16042:	4591                	li	a1,4
   16044:	06100693          	li	a3,97
   16048:	4711                	li	a4,4
   1604a:	00000073          	ecall
   1604e:	02850b63          	beq	a0,s0,16084 <_start+0x49da>
   16052:	864a                	mv	a2,s2
   16054:	56f10623          	sb	a5,1388(sp)
   16058:	478d                	li	a5,3
   1605a:	18800513          	li	a0,392
   1605e:	4599                	li	a1,6
   16060:	46f9                	li	a3,30
   16062:	470d                	li	a4,3
   16064:	00000073          	ecall
   16068:	00850e63          	beq	a0,s0,16084 <_start+0x49da>
   1606c:	46f10223          	sb	a5,1124(sp)
   16070:	18800513          	li	a0,392
   16074:	4591                	li	a1,4
   16076:	4619                	li	a2,6
   16078:	ffffb097          	auipc	ra,0xffffb
   1607c:	624080e7          	jalr	1572(ra) # 1169c <_ZN9allow_pin7command17h1eb46760111c3605E>
   16080:	8905                	andi	a0,a0,1
   16082:	c501                	beqz	a0,1608a <_start+0x49e0>
   16084:	8b2e                	mv	s6,a1
   16086:	4785                	li	a5,1
   16088:	a891                	j	160dc <_start+0x4a32>
   1608a:	56c14703          	lbu	a4,1388(sp)
   1608e:	4789                	li	a5,2
   16090:	00f71463          	bne	a4,a5,16098 <_start+0x49ee>
   16094:	470d                	li	a4,3
   16096:	a831                	j	160b2 <_start+0x4a08>
   16098:	18800513          	li	a0,392
   1609c:	4591                	li	a1,4
   1609e:	4601                	li	a2,0
   160a0:	4681                	li	a3,0
   160a2:	00000073          	ecall
   160a6:	46414703          	lbu	a4,1124(sp)
   160aa:	56f10623          	sb	a5,1388(sp)
   160ae:	00f70963          	beq	a4,a5,160c0 <_start+0x4a16>
   160b2:	18800513          	li	a0,392
   160b6:	4599                	li	a1,6
   160b8:	4601                	li	a2,0
   160ba:	4681                	li	a3,0
   160bc:	00000073          	ecall
   160c0:	00003297          	auipc	t0,0x3
   160c4:	674282e7          	jalr	t0,1652(t0) # 19734 <OUTLINED_FUNCTION_34>
   160c8:	00003297          	auipc	t0,0x3
   160cc:	200282e7          	jalr	t0,512(t0) # 192c8 <OUTLINED_FUNCTION_1>
   160d0:	465d                	li	a2,23
   160d2:	00004097          	auipc	ra,0x4
   160d6:	8a8080e7          	jalr	-1880(ra) # 1997a <memcpy>
   160da:	4781                	li	a5,0
   160dc:	46414703          	lbu	a4,1124(sp)
   160e0:	4489                	li	s1,2
   160e2:	00970963          	beq	a4,s1,160f4 <_start+0x4a4a>
   160e6:	18800513          	li	a0,392
   160ea:	4599                	li	a1,6
   160ec:	4601                	li	a2,0
   160ee:	4681                	li	a3,0
   160f0:	00000073          	ecall
   160f4:	56c14703          	lbu	a4,1388(sp)
   160f8:	00970963          	beq	a4,s1,1610a <_start+0x4a60>
   160fc:	18800513          	li	a0,392
   16100:	4591                	li	a1,4
   16102:	4601                	li	a2,0
   16104:	4681                	li	a3,0
   16106:	00000073          	ecall
   1610a:	c399                	beqz	a5,16110 <_start+0x4a66>
   1610c:	0240306f          	j	19130 <_start+0x7a86>
   16110:	00003297          	auipc	t0,0x3
   16114:	5cc282e7          	jalr	t0,1484(t0) # 196dc <OUTLINED_FUNCTION_31>
   16118:	465d                	li	a2,23
   1611a:	00004097          	auipc	ra,0x4
   1611e:	860080e7          	jalr	-1952(ra) # 1997a <memcpy>
   16122:	46c10513          	addi	a0,sp,1132
   16126:	048c                	addi	a1,sp,576
   16128:	465d                	li	a2,23
   1612a:	00004097          	auipc	ra,0x4
   1612e:	850080e7          	jalr	-1968(ra) # 1997a <memcpy>
   16132:	00003297          	auipc	t0,0x3
   16136:	484282e7          	jalr	t0,1156(t0) # 195b6 <OUTLINED_FUNCTION_19>
   1613a:	02100613          	li	a2,33
   1613e:	854e                	mv	a0,s3
   16140:	4581                	li	a1,0
   16142:	00003097          	auipc	ra,0x3
   16146:	7cc080e7          	jalr	1996(ra) # 1990e <memset>
   1614a:	864a                	mv	a2,s2
   1614c:	56810623          	sb	s0,1388(sp)
   16150:	6509                	lui	a0,0x2
   16152:	4491                	li	s1,4
   16154:	4599                	li	a1,6
   16156:	9b550793          	addi	a5,a0,-1611 # 19b5 <.Lline_table_start1+0x178a>
   1615a:	46f9                	li	a3,30
   1615c:	4711                	li	a4,4
   1615e:	853e                	mv	a0,a5
   16160:	00000073          	ecall
   16164:	02850c63          	beq	a0,s0,1619c <_start+0x4af2>
   16168:	853e                	mv	a0,a5
   1616a:	864e                	mv	a2,s3
   1616c:	46910223          	sb	s1,1124(sp)
   16170:	478d                	li	a5,3
   16172:	45a5                	li	a1,9
   16174:	02100693          	li	a3,33
   16178:	470d                	li	a4,3
   1617a:	00000073          	ecall
   1617e:	00850f63          	beq	a0,s0,1619c <_start+0x4af2>
   16182:	56f10623          	sb	a5,1388(sp)
   16186:	6509                	lui	a0,0x2
   16188:	4599                	li	a1,6
   1618a:	9b550513          	addi	a0,a0,-1611 # 19b5 <.Lline_table_start1+0x178a>
   1618e:	4625                	li	a2,9
   16190:	ffffb097          	auipc	ra,0xffffb
   16194:	50c080e7          	jalr	1292(ra) # 1169c <_ZN9allow_pin7command17h1eb46760111c3605E>
   16198:	8905                	andi	a0,a0,1
   1619a:	c501                	beqz	a0,161a2 <_start+0x4af8>
   1619c:	8b2e                	mv	s6,a1
   1619e:	4785                	li	a5,1
   161a0:	a8a1                	j	161f8 <_start+0x4b4e>
   161a2:	46414703          	lbu	a4,1124(sp)
   161a6:	4789                	li	a5,2
   161a8:	00f71463          	bne	a4,a5,161b0 <_start+0x4b06>
   161ac:	470d                	li	a4,3
   161ae:	a839                	j	161cc <_start+0x4b22>
   161b0:	6509                	lui	a0,0x2
   161b2:	9b550513          	addi	a0,a0,-1611 # 19b5 <.Lline_table_start1+0x178a>
   161b6:	4599                	li	a1,6
   161b8:	4601                	li	a2,0
   161ba:	4681                	li	a3,0
   161bc:	00000073          	ecall
   161c0:	56c14703          	lbu	a4,1388(sp)
   161c4:	46f10223          	sb	a5,1124(sp)
   161c8:	00f70a63          	beq	a4,a5,161dc <_start+0x4b32>
   161cc:	6509                	lui	a0,0x2
   161ce:	9b550513          	addi	a0,a0,-1611 # 19b5 <.Lline_table_start1+0x178a>
   161d2:	45a5                	li	a1,9
   161d4:	4601                	li	a2,0
   161d6:	4681                	li	a3,0
   161d8:	00000073          	ecall
   161dc:	00003297          	auipc	t0,0x3
   161e0:	19a282e7          	jalr	t0,410(t0) # 19376 <OUTLINED_FUNCTION_4>
   161e4:	00003297          	auipc	t0,0x3
   161e8:	604282e7          	jalr	t0,1540(t0) # 197e8 <OUTLINED_FUNCTION_42>
   161ec:	4669                	li	a2,26
   161ee:	00003097          	auipc	ra,0x3
   161f2:	78c080e7          	jalr	1932(ra) # 1997a <memcpy>
   161f6:	4781                	li	a5,0
   161f8:	56c14703          	lbu	a4,1388(sp)
   161fc:	4489                	li	s1,2
   161fe:	00970a63          	beq	a4,s1,16212 <_start+0x4b68>
   16202:	6509                	lui	a0,0x2
   16204:	9b550513          	addi	a0,a0,-1611 # 19b5 <.Lline_table_start1+0x178a>
   16208:	45a5                	li	a1,9
   1620a:	4601                	li	a2,0
   1620c:	4681                	li	a3,0
   1620e:	00000073          	ecall
   16212:	46414703          	lbu	a4,1124(sp)
   16216:	00970a63          	beq	a4,s1,1622a <_start+0x4b80>
   1621a:	6509                	lui	a0,0x2
   1621c:	9b550513          	addi	a0,a0,-1611 # 19b5 <.Lline_table_start1+0x178a>
   16220:	4599                	li	a1,6
   16222:	4601                	li	a2,0
   16224:	4681                	li	a3,0
   16226:	00000073          	ecall
   1622a:	c399                	beqz	a5,16230 <_start+0x4b86>
   1622c:	7050206f          	j	19130 <_start+0x7a86>
   16230:	00003297          	auipc	t0,0x3
   16234:	2c2282e7          	jalr	t0,706(t0) # 194f2 <OUTLINED_FUNCTION_13>
   16238:	4669                	li	a2,26
   1623a:	00003097          	auipc	ra,0x3
   1623e:	740080e7          	jalr	1856(ra) # 1997a <memcpy>
   16242:	52410513          	addi	a0,sp,1316
   16246:	048c                	addi	a1,sp,576
   16248:	4669                	li	a2,26
   1624a:	00003097          	auipc	ra,0x3
   1624e:	730080e7          	jalr	1840(ra) # 1997a <memcpy>
   16252:	00003297          	auipc	t0,0x3
   16256:	258282e7          	jalr	t0,600(t0) # 194aa <OUTLINED_FUNCTION_11>
   1625a:	02a00613          	li	a2,42
   1625e:	854e                	mv	a0,s3
   16260:	4581                	li	a1,0
   16262:	00003097          	auipc	ra,0x3
   16266:	6ac080e7          	jalr	1708(ra) # 1990e <memset>
   1626a:	8622                	mv	a2,s0
   1626c:	56910623          	sb	s1,1388(sp)
   16270:	6505                	lui	a0,0x1
   16272:	4405                	li	s0,1
   16274:	4811                	li	a6,4
   16276:	4585                	li	a1,1
   16278:	5f350793          	addi	a5,a0,1523 # 15f3 <.Lline_table_start1+0x13c8>
   1627c:	02100693          	li	a3,33
   16280:	4711                	li	a4,4
   16282:	853e                	mv	a0,a5
   16284:	00000073          	ecall
   16288:	04950063          	beq	a0,s1,162c8 <_start+0x4c1e>
   1628c:	853e                	mv	a0,a5
   1628e:	864e                	mv	a2,s3
   16290:	51010e23          	sb	a6,1308(sp)
   16294:	478d                	li	a5,3
   16296:	458d                	li	a1,3
   16298:	02a00693          	li	a3,42
   1629c:	470d                	li	a4,3
   1629e:	00000073          	ecall
   162a2:	00951563          	bne	a0,s1,162ac <_start+0x4c02>
   162a6:	8b2e                	mv	s6,a1
   162a8:	4405                	li	s0,1
   162aa:	a8ad                	j	16324 <_start+0x4c7a>
   162ac:	56f10623          	sb	a5,1388(sp)
   162b0:	6505                	lui	a0,0x1
   162b2:	4585                	li	a1,1
   162b4:	5f350513          	addi	a0,a0,1523 # 15f3 <.Lline_table_start1+0x13c8>
   162b8:	460d                	li	a2,3
   162ba:	4405                	li	s0,1
   162bc:	ffffb097          	auipc	ra,0xffffb
   162c0:	3e0080e7          	jalr	992(ra) # 1169c <_ZN9allow_pin7command17h1eb46760111c3605E>
   162c4:	8905                	andi	a0,a0,1
   162c6:	c119                	beqz	a0,162cc <_start+0x4c22>
   162c8:	8b2e                	mv	s6,a1
   162ca:	a8a9                	j	16324 <_start+0x4c7a>
   162cc:	51c14703          	lbu	a4,1308(sp)
   162d0:	4789                	li	a5,2
   162d2:	00f71463          	bne	a4,a5,162da <_start+0x4c30>
   162d6:	470d                	li	a4,3
   162d8:	a839                	j	162f6 <_start+0x4c4c>
   162da:	6505                	lui	a0,0x1
   162dc:	5f350513          	addi	a0,a0,1523 # 15f3 <.Lline_table_start1+0x13c8>
   162e0:	4585                	li	a1,1
   162e2:	4601                	li	a2,0
   162e4:	4681                	li	a3,0
   162e6:	00000073          	ecall
   162ea:	56c14703          	lbu	a4,1388(sp)
   162ee:	50f10e23          	sb	a5,1308(sp)
   162f2:	00f70a63          	beq	a4,a5,16306 <_start+0x4c5c>
   162f6:	6505                	lui	a0,0x1
   162f8:	5f350513          	addi	a0,a0,1523 # 15f3 <.Lline_table_start1+0x13c8>
   162fc:	458d                	li	a1,3
   162fe:	4601                	li	a2,0
   16300:	4681                	li	a3,0
   16302:	00000073          	ecall
   16306:	00003297          	auipc	t0,0x3
   1630a:	41e282e7          	jalr	t0,1054(t0) # 19724 <OUTLINED_FUNCTION_33>
   1630e:	00003297          	auipc	t0,0x3
   16312:	f84282e7          	jalr	t0,-124(t0) # 19292 <OUTLINED_FUNCTION_0>
   16316:	02300613          	li	a2,35
   1631a:	00003097          	auipc	ra,0x3
   1631e:	660080e7          	jalr	1632(ra) # 1997a <memcpy>
   16322:	4401                	li	s0,0
   16324:	56c14703          	lbu	a4,1388(sp)
   16328:	4789                	li	a5,2
   1632a:	00f70a63          	beq	a4,a5,1633e <_start+0x4c94>
   1632e:	6505                	lui	a0,0x1
   16330:	5f350513          	addi	a0,a0,1523 # 15f3 <.Lline_table_start1+0x13c8>
   16334:	458d                	li	a1,3
   16336:	4601                	li	a2,0
   16338:	4681                	li	a3,0
   1633a:	00000073          	ecall
   1633e:	51c14703          	lbu	a4,1308(sp)
   16342:	00f70a63          	beq	a4,a5,16356 <_start+0x4cac>
   16346:	6505                	lui	a0,0x1
   16348:	5f350513          	addi	a0,a0,1523 # 15f3 <.Lline_table_start1+0x13c8>
   1634c:	4585                	li	a1,1
   1634e:	4601                	li	a2,0
   16350:	4681                	li	a3,0
   16352:	00000073          	ecall
   16356:	c019                	beqz	s0,1635c <_start+0x4cb2>
   16358:	5d90206f          	j	19130 <_start+0x7a86>
   1635c:	00003297          	auipc	t0,0x3
   16360:	27e282e7          	jalr	t0,638(t0) # 195da <OUTLINED_FUNCTION_20>
   16364:	46410513          	addi	a0,sp,1124
   16368:	048c                	addi	a1,sp,576
   1636a:	02300613          	li	a2,35
   1636e:	00003097          	auipc	ra,0x3
   16372:	60c080e7          	jalr	1548(ra) # 1997a <memcpy>
   16376:	52410513          	addi	a0,sp,1316
   1637a:	46410593          	addi	a1,sp,1124
   1637e:	02300613          	li	a2,35
   16382:	00003097          	auipc	ra,0x3
   16386:	5f8080e7          	jalr	1528(ra) # 1997a <memcpy>
   1638a:	00003297          	auipc	t0,0x3
   1638e:	120282e7          	jalr	t0,288(t0) # 194aa <OUTLINED_FUNCTION_11>
   16392:	05900613          	li	a2,89
   16396:	854e                	mv	a0,s3
   16398:	4581                	li	a1,0
   1639a:	00003097          	auipc	ra,0x3
   1639e:	574080e7          	jalr	1396(ra) # 1990e <memset>
   163a2:	8622                	mv	a2,s0
   163a4:	56910623          	sb	s1,1388(sp)
   163a8:	6505                	lui	a0,0x1
   163aa:	4405                	li	s0,1
   163ac:	4811                	li	a6,4
   163ae:	4585                	li	a1,1
   163b0:	ed250793          	addi	a5,a0,-302 # ed2 <.Lline_table_start1+0xca7>
   163b4:	02a00693          	li	a3,42
   163b8:	4711                	li	a4,4
   163ba:	853e                	mv	a0,a5
   163bc:	00000073          	ecall
   163c0:	04950063          	beq	a0,s1,16400 <_start+0x4d56>
   163c4:	853e                	mv	a0,a5
   163c6:	864e                	mv	a2,s3
   163c8:	51010e23          	sb	a6,1308(sp)
   163cc:	478d                	li	a5,3
   163ce:	458d                	li	a1,3
   163d0:	05900693          	li	a3,89
   163d4:	470d                	li	a4,3
   163d6:	00000073          	ecall
   163da:	00951563          	bne	a0,s1,163e4 <_start+0x4d3a>
   163de:	8b2e                	mv	s6,a1
   163e0:	4405                	li	s0,1
   163e2:	a8ad                	j	1645c <_start+0x4db2>
   163e4:	56f10623          	sb	a5,1388(sp)
   163e8:	6505                	lui	a0,0x1
   163ea:	4585                	li	a1,1
   163ec:	ed250513          	addi	a0,a0,-302 # ed2 <.Lline_table_start1+0xca7>
   163f0:	460d                	li	a2,3
   163f2:	4405                	li	s0,1
   163f4:	ffffb097          	auipc	ra,0xffffb
   163f8:	2a8080e7          	jalr	680(ra) # 1169c <_ZN9allow_pin7command17h1eb46760111c3605E>
   163fc:	8905                	andi	a0,a0,1
   163fe:	c119                	beqz	a0,16404 <_start+0x4d5a>
   16400:	8b2e                	mv	s6,a1
   16402:	a8a9                	j	1645c <_start+0x4db2>
   16404:	51c14703          	lbu	a4,1308(sp)
   16408:	4789                	li	a5,2
   1640a:	00f71463          	bne	a4,a5,16412 <_start+0x4d68>
   1640e:	470d                	li	a4,3
   16410:	a839                	j	1642e <_start+0x4d84>
   16412:	6505                	lui	a0,0x1
   16414:	ed250513          	addi	a0,a0,-302 # ed2 <.Lline_table_start1+0xca7>
   16418:	4585                	li	a1,1
   1641a:	4601                	li	a2,0
   1641c:	4681                	li	a3,0
   1641e:	00000073          	ecall
   16422:	56c14703          	lbu	a4,1388(sp)
   16426:	50f10e23          	sb	a5,1308(sp)
   1642a:	00f70a63          	beq	a4,a5,1643e <_start+0x4d94>
   1642e:	6505                	lui	a0,0x1
   16430:	ed250513          	addi	a0,a0,-302 # ed2 <.Lline_table_start1+0xca7>
   16434:	458d                	li	a1,3
   16436:	4601                	li	a2,0
   16438:	4681                	li	a3,0
   1643a:	00000073          	ecall
   1643e:	00003297          	auipc	t0,0x3
   16442:	2e6282e7          	jalr	t0,742(t0) # 19724 <OUTLINED_FUNCTION_33>
   16446:	00003297          	auipc	t0,0x3
   1644a:	e4c282e7          	jalr	t0,-436(t0) # 19292 <OUTLINED_FUNCTION_0>
   1644e:	05200613          	li	a2,82
   16452:	00003097          	auipc	ra,0x3
   16456:	528080e7          	jalr	1320(ra) # 1997a <memcpy>
   1645a:	4401                	li	s0,0
   1645c:	56c14703          	lbu	a4,1388(sp)
   16460:	4789                	li	a5,2
   16462:	00f70a63          	beq	a4,a5,16476 <_start+0x4dcc>
   16466:	6505                	lui	a0,0x1
   16468:	ed250513          	addi	a0,a0,-302 # ed2 <.Lline_table_start1+0xca7>
   1646c:	458d                	li	a1,3
   1646e:	4601                	li	a2,0
   16470:	4681                	li	a3,0
   16472:	00000073          	ecall
   16476:	51c14703          	lbu	a4,1308(sp)
   1647a:	00f70a63          	beq	a4,a5,1648e <_start+0x4de4>
   1647e:	6505                	lui	a0,0x1
   16480:	ed250513          	addi	a0,a0,-302 # ed2 <.Lline_table_start1+0xca7>
   16484:	4585                	li	a1,1
   16486:	4601                	li	a2,0
   16488:	4681                	li	a3,0
   1648a:	00000073          	ecall
   1648e:	c019                	beqz	s0,16494 <_start+0x4dea>
   16490:	4a10206f          	j	19130 <_start+0x7a86>
   16494:	00003297          	auipc	t0,0x3
   16498:	03a282e7          	jalr	t0,58(t0) # 194ce <OUTLINED_FUNCTION_12>
   1649c:	05200613          	li	a2,82
   164a0:	00003097          	auipc	ra,0x3
   164a4:	4da080e7          	jalr	1242(ra) # 1997a <memcpy>
   164a8:	57410513          	addi	a0,sp,1396
   164ac:	46410593          	addi	a1,sp,1124
   164b0:	05200613          	li	a2,82
   164b4:	00003097          	auipc	ra,0x3
   164b8:	4c6080e7          	jalr	1222(ra) # 1997a <memcpy>
   164bc:	00003297          	auipc	t0,0x3
   164c0:	fca282e7          	jalr	t0,-54(t0) # 19486 <OUTLINED_FUNCTION_10>
   164c4:	04a00613          	li	a2,74
   164c8:	854a                	mv	a0,s2
   164ca:	4581                	li	a1,0
   164cc:	00003097          	auipc	ra,0x3
   164d0:	442080e7          	jalr	1090(ra) # 1990e <memset>
   164d4:	4581                	li	a1,0
   164d6:	00003297          	auipc	t0,0x3
   164da:	3ce282e7          	jalr	t0,974(t0) # 198a4 <OUTLINED_FUNCTION_53>
   164de:	48450793          	addi	a5,a0,1156
   164e2:	05900693          	li	a3,89
   164e6:	4711                	li	a4,4
   164e8:	853e                	mv	a0,a5
   164ea:	00000073          	ecall
   164ee:	02950c63          	beq	a0,s1,16526 <_start+0x4e7c>
   164f2:	853e                	mv	a0,a5
   164f4:	864a                	mv	a2,s2
   164f6:	56810623          	sb	s0,1388(sp)
   164fa:	478d                	li	a5,3
   164fc:	4591                	li	a1,4
   164fe:	04a00693          	li	a3,74
   16502:	470d                	li	a4,3
   16504:	00000073          	ecall
   16508:	00950f63          	beq	a0,s1,16526 <_start+0x4e7c>
   1650c:	46f10223          	sb	a5,1124(sp)
   16510:	6505                	lui	a0,0x1
   16512:	48450513          	addi	a0,a0,1156 # 1484 <.Lline_table_start1+0x1259>
   16516:	4611                	li	a2,4
   16518:	4581                	li	a1,0
   1651a:	ffffb097          	auipc	ra,0xffffb
   1651e:	182080e7          	jalr	386(ra) # 1169c <_ZN9allow_pin7command17h1eb46760111c3605E>
   16522:	8905                	andi	a0,a0,1
   16524:	c501                	beqz	a0,1652c <_start+0x4e82>
   16526:	8b2e                	mv	s6,a1
   16528:	4785                	li	a5,1
   1652a:	a8a9                	j	16584 <_start+0x4eda>
   1652c:	56c14703          	lbu	a4,1388(sp)
   16530:	4789                	li	a5,2
   16532:	00f71463          	bne	a4,a5,1653a <_start+0x4e90>
   16536:	470d                	li	a4,3
   16538:	a839                	j	16556 <_start+0x4eac>
   1653a:	6505                	lui	a0,0x1
   1653c:	48450513          	addi	a0,a0,1156 # 1484 <.Lline_table_start1+0x1259>
   16540:	4581                	li	a1,0
   16542:	4601                	li	a2,0
   16544:	4681                	li	a3,0
   16546:	00000073          	ecall
   1654a:	46414703          	lbu	a4,1124(sp)
   1654e:	56f10623          	sb	a5,1388(sp)
   16552:	00f70a63          	beq	a4,a5,16566 <_start+0x4ebc>
   16556:	6505                	lui	a0,0x1
   16558:	48450513          	addi	a0,a0,1156 # 1484 <.Lline_table_start1+0x1259>
   1655c:	4591                	li	a1,4
   1655e:	4601                	li	a2,0
   16560:	4681                	li	a3,0
   16562:	00000073          	ecall
   16566:	00003297          	auipc	t0,0x3
   1656a:	1ce282e7          	jalr	t0,462(t0) # 19734 <OUTLINED_FUNCTION_34>
   1656e:	00003297          	auipc	t0,0x3
   16572:	d5a282e7          	jalr	t0,-678(t0) # 192c8 <OUTLINED_FUNCTION_1>
   16576:	04300613          	li	a2,67
   1657a:	00003097          	auipc	ra,0x3
   1657e:	400080e7          	jalr	1024(ra) # 1997a <memcpy>
   16582:	4781                	li	a5,0
   16584:	46414703          	lbu	a4,1124(sp)
   16588:	4489                	li	s1,2
   1658a:	00970a63          	beq	a4,s1,1659e <_start+0x4ef4>
   1658e:	6505                	lui	a0,0x1
   16590:	48450513          	addi	a0,a0,1156 # 1484 <.Lline_table_start1+0x1259>
   16594:	4591                	li	a1,4
   16596:	4601                	li	a2,0
   16598:	4681                	li	a3,0
   1659a:	00000073          	ecall
   1659e:	56c14703          	lbu	a4,1388(sp)
   165a2:	00970a63          	beq	a4,s1,165b6 <_start+0x4f0c>
   165a6:	6505                	lui	a0,0x1
   165a8:	48450513          	addi	a0,a0,1156 # 1484 <.Lline_table_start1+0x1259>
   165ac:	4581                	li	a1,0
   165ae:	4601                	li	a2,0
   165b0:	4681                	li	a3,0
   165b2:	00000073          	ecall
   165b6:	c399                	beqz	a5,165bc <_start+0x4f12>
   165b8:	3790206f          	j	19130 <_start+0x7a86>
   165bc:	00003297          	auipc	t0,0x3
   165c0:	f76282e7          	jalr	t0,-138(t0) # 19532 <OUTLINED_FUNCTION_15>
   165c4:	0488                	addi	a0,sp,576
   165c6:	51c10593          	addi	a1,sp,1308
   165ca:	04300613          	li	a2,67
   165ce:	00003097          	auipc	ra,0x3
   165d2:	3ac080e7          	jalr	940(ra) # 1997a <memcpy>
   165d6:	57410513          	addi	a0,sp,1396
   165da:	048c                	addi	a1,sp,576
   165dc:	04300613          	li	a2,67
   165e0:	00003097          	auipc	ra,0x3
   165e4:	39a080e7          	jalr	922(ra) # 1997a <memcpy>
   165e8:	00003297          	auipc	t0,0x3
   165ec:	e7a282e7          	jalr	t0,-390(t0) # 19462 <OUTLINED_FUNCTION_9>
   165f0:	02d00613          	li	a2,45
   165f4:	854a                	mv	a0,s2
   165f6:	4581                	li	a1,0
   165f8:	00003097          	auipc	ra,0x3
   165fc:	316080e7          	jalr	790(ra) # 1990e <memset>
   16600:	00003297          	auipc	t0,0x3
   16604:	28c282e7          	jalr	t0,652(t0) # 1988c <OUTLINED_FUNCTION_51>
   16608:	4589                	li	a1,2
   1660a:	e3d50793          	addi	a5,a0,-451
   1660e:	04a00693          	li	a3,74
   16612:	4711                	li	a4,4
   16614:	853e                	mv	a0,a5
   16616:	00000073          	ecall
   1661a:	02850b63          	beq	a0,s0,16650 <_start+0x4fa6>
   1661e:	00003297          	auipc	t0,0x3
   16622:	254282e7          	jalr	t0,596(t0) # 19872 <OUTLINED_FUNCTION_49>
   16626:	02d00693          	li	a3,45
   1662a:	470d                	li	a4,3
   1662c:	00000073          	ecall
   16630:	02850063          	beq	a0,s0,16650 <_start+0x4fa6>
   16634:	46f10223          	sb	a5,1124(sp)
   16638:	6505                	lui	a0,0x1
   1663a:	4589                	li	a1,2
   1663c:	e3d50513          	addi	a0,a0,-451 # e3d <.Lline_table_start1+0xc12>
   16640:	460d                	li	a2,3
   16642:	4409                	li	s0,2
   16644:	ffffb097          	auipc	ra,0xffffb
   16648:	058080e7          	jalr	88(ra) # 1169c <_ZN9allow_pin7command17h1eb46760111c3605E>
   1664c:	8905                	andi	a0,a0,1
   1664e:	c501                	beqz	a0,16656 <_start+0x4fac>
   16650:	8b2e                	mv	s6,a1
   16652:	4785                	li	a5,1
   16654:	a8a1                	j	166ac <_start+0x5002>
   16656:	56c14703          	lbu	a4,1388(sp)
   1665a:	00871463          	bne	a4,s0,16662 <_start+0x4fb8>
   1665e:	470d                	li	a4,3
   16660:	a839                	j	1667e <_start+0x4fd4>
   16662:	6505                	lui	a0,0x1
   16664:	e3d50513          	addi	a0,a0,-451 # e3d <.Lline_table_start1+0xc12>
   16668:	4589                	li	a1,2
   1666a:	4601                	li	a2,0
   1666c:	4681                	li	a3,0
   1666e:	00000073          	ecall
   16672:	00003297          	auipc	t0,0x3
   16676:	226282e7          	jalr	t0,550(t0) # 19898 <OUTLINED_FUNCTION_52>
   1667a:	00a70a63          	beq	a4,a0,1668e <_start+0x4fe4>
   1667e:	6505                	lui	a0,0x1
   16680:	e3d50513          	addi	a0,a0,-451 # e3d <.Lline_table_start1+0xc12>
   16684:	458d                	li	a1,3
   16686:	4601                	li	a2,0
   16688:	4681                	li	a3,0
   1668a:	00000073          	ecall
   1668e:	00003297          	auipc	t0,0x3
   16692:	d1a282e7          	jalr	t0,-742(t0) # 193a8 <OUTLINED_FUNCTION_5>
   16696:	00003297          	auipc	t0,0x3
   1669a:	fce282e7          	jalr	t0,-50(t0) # 19664 <OUTLINED_FUNCTION_26>
   1669e:	02600613          	li	a2,38
   166a2:	00003097          	auipc	ra,0x3
   166a6:	2d8080e7          	jalr	728(ra) # 1997a <memcpy>
   166aa:	4781                	li	a5,0
   166ac:	46414703          	lbu	a4,1124(sp)
   166b0:	4489                	li	s1,2
   166b2:	00970a63          	beq	a4,s1,166c6 <_start+0x501c>
   166b6:	6505                	lui	a0,0x1
   166b8:	e3d50513          	addi	a0,a0,-451 # e3d <.Lline_table_start1+0xc12>
   166bc:	458d                	li	a1,3
   166be:	4601                	li	a2,0
   166c0:	4681                	li	a3,0
   166c2:	00000073          	ecall
   166c6:	56c14703          	lbu	a4,1388(sp)
   166ca:	00970a63          	beq	a4,s1,166de <_start+0x5034>
   166ce:	6505                	lui	a0,0x1
   166d0:	e3d50513          	addi	a0,a0,-451 # e3d <.Lline_table_start1+0xc12>
   166d4:	4589                	li	a1,2
   166d6:	4601                	li	a2,0
   166d8:	4681                	li	a3,0
   166da:	00000073          	ecall
   166de:	c399                	beqz	a5,166e4 <_start+0x503a>
   166e0:	2510206f          	j	19130 <_start+0x7a86>
   166e4:	00003297          	auipc	t0,0x3
   166e8:	f4e282e7          	jalr	t0,-178(t0) # 19632 <OUTLINED_FUNCTION_24>
   166ec:	51c10513          	addi	a0,sp,1308
   166f0:	15ac                	addi	a1,sp,744
   166f2:	02600613          	li	a2,38
   166f6:	00003097          	auipc	ra,0x3
   166fa:	284080e7          	jalr	644(ra) # 1997a <memcpy>
   166fe:	04a8                	addi	a0,sp,584
   16700:	51c10593          	addi	a1,sp,1308
   16704:	02600613          	li	a2,38
   16708:	00003097          	auipc	ra,0x3
   1670c:	272080e7          	jalr	626(ra) # 1997a <memcpy>
   16710:	00003297          	auipc	t0,0x3
   16714:	e64282e7          	jalr	t0,-412(t0) # 19574 <OUTLINED_FUNCTION_17>
   16718:	05300613          	li	a2,83
   1671c:	854e                	mv	a0,s3
   1671e:	4581                	li	a1,0
   16720:	00003097          	auipc	ra,0x3
   16724:	1ee080e7          	jalr	494(ra) # 1990e <memset>
   16728:	00003297          	auipc	t0,0x3
   1672c:	158282e7          	jalr	t0,344(t0) # 19880 <OUTLINED_FUNCTION_50>
   16730:	4589                	li	a1,2
   16732:	ec350793          	addi	a5,a0,-317
   16736:	02d00693          	li	a3,45
   1673a:	4711                	li	a4,4
   1673c:	853e                	mv	a0,a5
   1673e:	00000073          	ecall
   16742:	02950d63          	beq	a0,s1,1677c <_start+0x50d2>
   16746:	853e                	mv	a0,a5
   16748:	864e                	mv	a2,s3
   1674a:	24810023          	sb	s0,576(sp)
   1674e:	478d                	li	a5,3
   16750:	459d                	li	a1,7
   16752:	05300693          	li	a3,83
   16756:	470d                	li	a4,3
   16758:	00000073          	ecall
   1675c:	02950063          	beq	a0,s1,1677c <_start+0x50d2>
   16760:	56f10623          	sb	a5,1388(sp)
   16764:	6505                	lui	a0,0x1
   16766:	4589                	li	a1,2
   16768:	ec350513          	addi	a0,a0,-317 # ec3 <.Lline_table_start1+0xc98>
   1676c:	461d                	li	a2,7
   1676e:	4409                	li	s0,2
   16770:	ffffb097          	auipc	ra,0xffffb
   16774:	f2c080e7          	jalr	-212(ra) # 1169c <_ZN9allow_pin7command17h1eb46760111c3605E>
   16778:	8905                	andi	a0,a0,1
   1677a:	c501                	beqz	a0,16782 <_start+0x50d8>
   1677c:	8b2e                	mv	s6,a1
   1677e:	4785                	li	a5,1
   16780:	a8a9                	j	167da <_start+0x5130>
   16782:	24014703          	lbu	a4,576(sp)
   16786:	00871463          	bne	a4,s0,1678e <_start+0x50e4>
   1678a:	470d                	li	a4,3
   1678c:	a005                	j	167ac <_start+0x5102>
   1678e:	6505                	lui	a0,0x1
   16790:	ec350513          	addi	a0,a0,-317 # ec3 <.Lline_table_start1+0xc98>
   16794:	4589                	li	a1,2
   16796:	4601                	li	a2,0
   16798:	4681                	li	a3,0
   1679a:	00000073          	ecall
   1679e:	56c14703          	lbu	a4,1388(sp)
   167a2:	4509                	li	a0,2
   167a4:	24a10023          	sb	a0,576(sp)
   167a8:	00a70a63          	beq	a4,a0,167bc <_start+0x5112>
   167ac:	6505                	lui	a0,0x1
   167ae:	ec350513          	addi	a0,a0,-317 # ec3 <.Lline_table_start1+0xc98>
   167b2:	459d                	li	a1,7
   167b4:	4601                	li	a2,0
   167b6:	4681                	li	a3,0
   167b8:	00000073          	ecall
   167bc:	00003297          	auipc	t0,0x3
   167c0:	bba282e7          	jalr	t0,-1094(t0) # 19376 <OUTLINED_FUNCTION_4>
   167c4:	00003297          	auipc	t0,0x3
   167c8:	ef0282e7          	jalr	t0,-272(t0) # 196b4 <OUTLINED_FUNCTION_29>
   167cc:	04c00613          	li	a2,76
   167d0:	00003097          	auipc	ra,0x3
   167d4:	1aa080e7          	jalr	426(ra) # 1997a <memcpy>
   167d8:	4781                	li	a5,0
   167da:	56c14703          	lbu	a4,1388(sp)
   167de:	4489                	li	s1,2
   167e0:	00970a63          	beq	a4,s1,167f4 <_start+0x514a>
   167e4:	6505                	lui	a0,0x1
   167e6:	ec350513          	addi	a0,a0,-317 # ec3 <.Lline_table_start1+0xc98>
   167ea:	459d                	li	a1,7
   167ec:	4601                	li	a2,0
   167ee:	4681                	li	a3,0
   167f0:	00000073          	ecall
   167f4:	24014703          	lbu	a4,576(sp)
   167f8:	00970a63          	beq	a4,s1,1680c <_start+0x5162>
   167fc:	6505                	lui	a0,0x1
   167fe:	ec350513          	addi	a0,a0,-317 # ec3 <.Lline_table_start1+0xc98>
   16802:	4589                	li	a1,2
   16804:	4601                	li	a2,0
   16806:	4681                	li	a3,0
   16808:	00000073          	ecall
   1680c:	c399                	beqz	a5,16812 <_start+0x5168>
   1680e:	1230206f          	j	19130 <_start+0x7a86>
   16812:	00003297          	auipc	t0,0x3
   16816:	e84282e7          	jalr	t0,-380(t0) # 19696 <OUTLINED_FUNCTION_28>
   1681a:	0d68                	addi	a0,sp,668
   1681c:	46410593          	addi	a1,sp,1124
   16820:	04c00613          	li	a2,76
   16824:	00003097          	auipc	ra,0x3
   16828:	156080e7          	jalr	342(ra) # 1997a <memcpy>
   1682c:	00003297          	auipc	t0,0x3
   16830:	c36282e7          	jalr	t0,-970(t0) # 19462 <OUTLINED_FUNCTION_9>
   16834:	57410513          	addi	a0,sp,1396
   16838:	0d6c                	addi	a1,sp,668
   1683a:	04c00613          	li	a2,76
   1683e:	00003097          	auipc	ra,0x3
   16842:	13c080e7          	jalr	316(ra) # 1997a <memcpy>
   16846:	03a00613          	li	a2,58
   1684a:	854a                	mv	a0,s2
   1684c:	4581                	li	a1,0
   1684e:	00003097          	auipc	ra,0x3
   16852:	0c0080e7          	jalr	192(ra) # 1990e <memset>
   16856:	864e                	mv	a2,s3
   16858:	46810223          	sb	s0,1124(sp)
   1685c:	6509                	lui	a0,0x2
   1685e:	4491                	li	s1,4
   16860:	4599                	li	a1,6
   16862:	64550793          	addi	a5,a0,1605 # 2645 <.Lline_table_start1+0x241a>
   16866:	05300693          	li	a3,83
   1686a:	4711                	li	a4,4
   1686c:	853e                	mv	a0,a5
   1686e:	00000073          	ecall
   16872:	02850c63          	beq	a0,s0,168aa <_start+0x5200>
   16876:	853e                	mv	a0,a5
   16878:	864a                	mv	a2,s2
   1687a:	56910623          	sb	s1,1388(sp)
   1687e:	478d                	li	a5,3
   16880:	459d                	li	a1,7
   16882:	03a00693          	li	a3,58
   16886:	470d                	li	a4,3
   16888:	00000073          	ecall
   1688c:	00850f63          	beq	a0,s0,168aa <_start+0x5200>
   16890:	46f10223          	sb	a5,1124(sp)
   16894:	6509                	lui	a0,0x2
   16896:	4599                	li	a1,6
   16898:	64550513          	addi	a0,a0,1605 # 2645 <.Lline_table_start1+0x241a>
   1689c:	461d                	li	a2,7
   1689e:	ffffb097          	auipc	ra,0xffffb
   168a2:	dfe080e7          	jalr	-514(ra) # 1169c <_ZN9allow_pin7command17h1eb46760111c3605E>
   168a6:	8905                	andi	a0,a0,1
   168a8:	c501                	beqz	a0,168b0 <_start+0x5206>
   168aa:	8b2e                	mv	s6,a1
   168ac:	4785                	li	a5,1
   168ae:	a8a9                	j	16908 <_start+0x525e>
   168b0:	56c14703          	lbu	a4,1388(sp)
   168b4:	4789                	li	a5,2
   168b6:	00f71463          	bne	a4,a5,168be <_start+0x5214>
   168ba:	470d                	li	a4,3
   168bc:	a839                	j	168da <_start+0x5230>
   168be:	6509                	lui	a0,0x2
   168c0:	64550513          	addi	a0,a0,1605 # 2645 <.Lline_table_start1+0x241a>
   168c4:	4599                	li	a1,6
   168c6:	4601                	li	a2,0
   168c8:	4681                	li	a3,0
   168ca:	00000073          	ecall
   168ce:	46414703          	lbu	a4,1124(sp)
   168d2:	56f10623          	sb	a5,1388(sp)
   168d6:	00f70a63          	beq	a4,a5,168ea <_start+0x5240>
   168da:	6509                	lui	a0,0x2
   168dc:	64550513          	addi	a0,a0,1605 # 2645 <.Lline_table_start1+0x241a>
   168e0:	459d                	li	a1,7
   168e2:	4601                	li	a2,0
   168e4:	4681                	li	a3,0
   168e6:	00000073          	ecall
   168ea:	00003297          	auipc	t0,0x3
   168ee:	abe282e7          	jalr	t0,-1346(t0) # 193a8 <OUTLINED_FUNCTION_5>
   168f2:	00003297          	auipc	t0,0x3
   168f6:	d72282e7          	jalr	t0,-654(t0) # 19664 <OUTLINED_FUNCTION_26>
   168fa:	03300613          	li	a2,51
   168fe:	00003097          	auipc	ra,0x3
   16902:	07c080e7          	jalr	124(ra) # 1997a <memcpy>
   16906:	4781                	li	a5,0
   16908:	46414703          	lbu	a4,1124(sp)
   1690c:	4489                	li	s1,2
   1690e:	00970a63          	beq	a4,s1,16922 <_start+0x5278>
   16912:	6509                	lui	a0,0x2
   16914:	64550513          	addi	a0,a0,1605 # 2645 <.Lline_table_start1+0x241a>
   16918:	459d                	li	a1,7
   1691a:	4601                	li	a2,0
   1691c:	4681                	li	a3,0
   1691e:	00000073          	ecall
   16922:	56c14703          	lbu	a4,1388(sp)
   16926:	00970a63          	beq	a4,s1,1693a <_start+0x5290>
   1692a:	6509                	lui	a0,0x2
   1692c:	64550513          	addi	a0,a0,1605 # 2645 <.Lline_table_start1+0x241a>
   16930:	4599                	li	a1,6
   16932:	4601                	li	a2,0
   16934:	4681                	li	a3,0
   16936:	00000073          	ecall
   1693a:	c399                	beqz	a5,16940 <_start+0x5296>
   1693c:	7f40206f          	j	19130 <_start+0x7a86>
   16940:	00003297          	auipc	t0,0x3
   16944:	bb2282e7          	jalr	t0,-1102(t0) # 194f2 <OUTLINED_FUNCTION_13>
   16948:	03300613          	li	a2,51
   1694c:	00003097          	auipc	ra,0x3
   16950:	02e080e7          	jalr	46(ra) # 1997a <memcpy>
   16954:	52410513          	addi	a0,sp,1316
   16958:	048c                	addi	a1,sp,576
   1695a:	03300613          	li	a2,51
   1695e:	00003097          	auipc	ra,0x3
   16962:	01c080e7          	jalr	28(ra) # 1997a <memcpy>
   16966:	00003297          	auipc	t0,0x3
   1696a:	b44282e7          	jalr	t0,-1212(t0) # 194aa <OUTLINED_FUNCTION_11>
   1696e:	05d00613          	li	a2,93
   16972:	854e                	mv	a0,s3
   16974:	4581                	li	a1,0
   16976:	00003097          	auipc	ra,0x3
   1697a:	f98080e7          	jalr	-104(ra) # 1990e <memset>
   1697e:	4581                	li	a1,0
   16980:	00003297          	auipc	t0,0x3
   16984:	f00282e7          	jalr	t0,-256(t0) # 19880 <OUTLINED_FUNCTION_50>
   16988:	4a450793          	addi	a5,a0,1188
   1698c:	03a00693          	li	a3,58
   16990:	4711                	li	a4,4
   16992:	853e                	mv	a0,a5
   16994:	00000073          	ecall
   16998:	02950b63          	beq	a0,s1,169ce <_start+0x5324>
   1699c:	00003297          	auipc	t0,0x3
   169a0:	f42282e7          	jalr	t0,-190(t0) # 198de <OUTLINED_FUNCTION_57>
   169a4:	4595                	li	a1,5
   169a6:	05d00693          	li	a3,93
   169aa:	470d                	li	a4,3
   169ac:	00000073          	ecall
   169b0:	00950f63          	beq	a0,s1,169ce <_start+0x5324>
   169b4:	56f10623          	sb	a5,1388(sp)
   169b8:	6505                	lui	a0,0x1
   169ba:	4a450513          	addi	a0,a0,1188 # 14a4 <.Lline_table_start1+0x1279>
   169be:	4615                	li	a2,5
   169c0:	4581                	li	a1,0
   169c2:	ffffb097          	auipc	ra,0xffffb
   169c6:	cda080e7          	jalr	-806(ra) # 1169c <_ZN9allow_pin7command17h1eb46760111c3605E>
   169ca:	8905                	andi	a0,a0,1
   169cc:	c501                	beqz	a0,169d4 <_start+0x532a>
   169ce:	8b2e                	mv	s6,a1
   169d0:	4785                	li	a5,1
   169d2:	a8a9                	j	16a2c <_start+0x5382>
   169d4:	51c14703          	lbu	a4,1308(sp)
   169d8:	4789                	li	a5,2
   169da:	00f71463          	bne	a4,a5,169e2 <_start+0x5338>
   169de:	470d                	li	a4,3
   169e0:	a839                	j	169fe <_start+0x5354>
   169e2:	6505                	lui	a0,0x1
   169e4:	4a450513          	addi	a0,a0,1188 # 14a4 <.Lline_table_start1+0x1279>
   169e8:	4581                	li	a1,0
   169ea:	4601                	li	a2,0
   169ec:	4681                	li	a3,0
   169ee:	00000073          	ecall
   169f2:	56c14703          	lbu	a4,1388(sp)
   169f6:	50f10e23          	sb	a5,1308(sp)
   169fa:	00f70a63          	beq	a4,a5,16a0e <_start+0x5364>
   169fe:	6505                	lui	a0,0x1
   16a00:	4a450513          	addi	a0,a0,1188 # 14a4 <.Lline_table_start1+0x1279>
   16a04:	4595                	li	a1,5
   16a06:	4601                	li	a2,0
   16a08:	4681                	li	a3,0
   16a0a:	00000073          	ecall
   16a0e:	00003297          	auipc	t0,0x3
   16a12:	d16282e7          	jalr	t0,-746(t0) # 19724 <OUTLINED_FUNCTION_33>
   16a16:	00003297          	auipc	t0,0x3
   16a1a:	87c282e7          	jalr	t0,-1924(t0) # 19292 <OUTLINED_FUNCTION_0>
   16a1e:	05600613          	li	a2,86
   16a22:	00003097          	auipc	ra,0x3
   16a26:	f58080e7          	jalr	-168(ra) # 1997a <memcpy>
   16a2a:	4781                	li	a5,0
   16a2c:	56c14703          	lbu	a4,1388(sp)
   16a30:	4489                	li	s1,2
   16a32:	00970a63          	beq	a4,s1,16a46 <_start+0x539c>
   16a36:	6505                	lui	a0,0x1
   16a38:	4a450513          	addi	a0,a0,1188 # 14a4 <.Lline_table_start1+0x1279>
   16a3c:	4595                	li	a1,5
   16a3e:	4601                	li	a2,0
   16a40:	4681                	li	a3,0
   16a42:	00000073          	ecall
   16a46:	51c14703          	lbu	a4,1308(sp)
   16a4a:	00970a63          	beq	a4,s1,16a5e <_start+0x53b4>
   16a4e:	6505                	lui	a0,0x1
   16a50:	4a450513          	addi	a0,a0,1188 # 14a4 <.Lline_table_start1+0x1279>
   16a54:	4581                	li	a1,0
   16a56:	4601                	li	a2,0
   16a58:	4681                	li	a3,0
   16a5a:	00000073          	ecall
   16a5e:	c399                	beqz	a5,16a64 <_start+0x53ba>
   16a60:	6d00206f          	j	19130 <_start+0x7a86>
   16a64:	00003297          	auipc	t0,0x3
   16a68:	a6a282e7          	jalr	t0,-1430(t0) # 194ce <OUTLINED_FUNCTION_12>
   16a6c:	05600613          	li	a2,86
   16a70:	00003097          	auipc	ra,0x3
   16a74:	f0a080e7          	jalr	-246(ra) # 1997a <memcpy>
   16a78:	57410513          	addi	a0,sp,1396
   16a7c:	46410593          	addi	a1,sp,1124
   16a80:	05600613          	li	a2,86
   16a84:	00003097          	auipc	ra,0x3
   16a88:	ef6080e7          	jalr	-266(ra) # 1997a <memcpy>
   16a8c:	00003297          	auipc	t0,0x3
   16a90:	9fa282e7          	jalr	t0,-1542(t0) # 19486 <OUTLINED_FUNCTION_10>
   16a94:	04000613          	li	a2,64
   16a98:	854a                	mv	a0,s2
   16a9a:	4581                	li	a1,0
   16a9c:	00003097          	auipc	ra,0x3
   16aa0:	e72080e7          	jalr	-398(ra) # 1990e <memset>
   16aa4:	00003297          	auipc	t0,0x3
   16aa8:	e00282e7          	jalr	t0,-512(t0) # 198a4 <OUTLINED_FUNCTION_53>
   16aac:	45a1                	li	a1,8
   16aae:	02850793          	addi	a5,a0,40
   16ab2:	05d00693          	li	a3,93
   16ab6:	4711                	li	a4,4
   16ab8:	853e                	mv	a0,a5
   16aba:	00000073          	ecall
   16abe:	02950c63          	beq	a0,s1,16af6 <_start+0x544c>
   16ac2:	853e                	mv	a0,a5
   16ac4:	864a                	mv	a2,s2
   16ac6:	56810623          	sb	s0,1388(sp)
   16aca:	478d                	li	a5,3
   16acc:	4591                	li	a1,4
   16ace:	04000693          	li	a3,64
   16ad2:	470d                	li	a4,3
   16ad4:	00000073          	ecall
   16ad8:	00950f63          	beq	a0,s1,16af6 <_start+0x544c>
   16adc:	46f10223          	sb	a5,1124(sp)
   16ae0:	6505                	lui	a0,0x1
   16ae2:	45a1                	li	a1,8
   16ae4:	02850513          	addi	a0,a0,40 # 1028 <.Lline_table_start1+0xdfd>
   16ae8:	4611                	li	a2,4
   16aea:	ffffb097          	auipc	ra,0xffffb
   16aee:	bb2080e7          	jalr	-1102(ra) # 1169c <_ZN9allow_pin7command17h1eb46760111c3605E>
   16af2:	8905                	andi	a0,a0,1
   16af4:	c501                	beqz	a0,16afc <_start+0x5452>
   16af6:	8b2e                	mv	s6,a1
   16af8:	4785                	li	a5,1
   16afa:	a8a9                	j	16b54 <_start+0x54aa>
   16afc:	56c14703          	lbu	a4,1388(sp)
   16b00:	4789                	li	a5,2
   16b02:	00f71463          	bne	a4,a5,16b0a <_start+0x5460>
   16b06:	470d                	li	a4,3
   16b08:	a839                	j	16b26 <_start+0x547c>
   16b0a:	6505                	lui	a0,0x1
   16b0c:	02850513          	addi	a0,a0,40 # 1028 <.Lline_table_start1+0xdfd>
   16b10:	45a1                	li	a1,8
   16b12:	4601                	li	a2,0
   16b14:	4681                	li	a3,0
   16b16:	00000073          	ecall
   16b1a:	46414703          	lbu	a4,1124(sp)
   16b1e:	56f10623          	sb	a5,1388(sp)
   16b22:	00f70a63          	beq	a4,a5,16b36 <_start+0x548c>
   16b26:	6505                	lui	a0,0x1
   16b28:	02850513          	addi	a0,a0,40 # 1028 <.Lline_table_start1+0xdfd>
   16b2c:	4591                	li	a1,4
   16b2e:	4601                	li	a2,0
   16b30:	4681                	li	a3,0
   16b32:	00000073          	ecall
   16b36:	00003297          	auipc	t0,0x3
   16b3a:	bfe282e7          	jalr	t0,-1026(t0) # 19734 <OUTLINED_FUNCTION_34>
   16b3e:	00002297          	auipc	t0,0x2
   16b42:	78a282e7          	jalr	t0,1930(t0) # 192c8 <OUTLINED_FUNCTION_1>
   16b46:	03900613          	li	a2,57
   16b4a:	00003097          	auipc	ra,0x3
   16b4e:	e30080e7          	jalr	-464(ra) # 1997a <memcpy>
   16b52:	4781                	li	a5,0
   16b54:	46414703          	lbu	a4,1124(sp)
   16b58:	4489                	li	s1,2
   16b5a:	00970a63          	beq	a4,s1,16b6e <_start+0x54c4>
   16b5e:	6505                	lui	a0,0x1
   16b60:	02850513          	addi	a0,a0,40 # 1028 <.Lline_table_start1+0xdfd>
   16b64:	4591                	li	a1,4
   16b66:	4601                	li	a2,0
   16b68:	4681                	li	a3,0
   16b6a:	00000073          	ecall
   16b6e:	56c14703          	lbu	a4,1388(sp)
   16b72:	00970a63          	beq	a4,s1,16b86 <_start+0x54dc>
   16b76:	6505                	lui	a0,0x1
   16b78:	02850513          	addi	a0,a0,40 # 1028 <.Lline_table_start1+0xdfd>
   16b7c:	45a1                	li	a1,8
   16b7e:	4601                	li	a2,0
   16b80:	4681                	li	a3,0
   16b82:	00000073          	ecall
   16b86:	c399                	beqz	a5,16b8c <_start+0x54e2>
   16b88:	5a80206f          	j	19130 <_start+0x7a86>
   16b8c:	00003297          	auipc	t0,0x3
   16b90:	9a6282e7          	jalr	t0,-1626(t0) # 19532 <OUTLINED_FUNCTION_15>
   16b94:	0488                	addi	a0,sp,576
   16b96:	51c10593          	addi	a1,sp,1308
   16b9a:	03900613          	li	a2,57
   16b9e:	00003097          	auipc	ra,0x3
   16ba2:	ddc080e7          	jalr	-548(ra) # 1997a <memcpy>
   16ba6:	57410513          	addi	a0,sp,1396
   16baa:	048c                	addi	a1,sp,576
   16bac:	03900613          	li	a2,57
   16bb0:	00003097          	auipc	ra,0x3
   16bb4:	dca080e7          	jalr	-566(ra) # 1997a <memcpy>
   16bb8:	00003297          	auipc	t0,0x3
   16bbc:	8aa282e7          	jalr	t0,-1878(t0) # 19462 <OUTLINED_FUNCTION_9>
   16bc0:	03100613          	li	a2,49
   16bc4:	854a                	mv	a0,s2
   16bc6:	4581                	li	a1,0
   16bc8:	00003097          	auipc	ra,0x3
   16bcc:	d46080e7          	jalr	-698(ra) # 1990e <memset>
   16bd0:	00003297          	auipc	t0,0x3
   16bd4:	cbc282e7          	jalr	t0,-836(t0) # 1988c <OUTLINED_FUNCTION_51>
   16bd8:	45a1                	li	a1,8
   16bda:	fce50793          	addi	a5,a0,-50
   16bde:	04000693          	li	a3,64
   16be2:	4711                	li	a4,4
   16be4:	853e                	mv	a0,a5
   16be6:	00000073          	ecall
   16bea:	02850c63          	beq	a0,s0,16c22 <_start+0x5578>
   16bee:	853e                	mv	a0,a5
   16bf0:	864a                	mv	a2,s2
   16bf2:	56910623          	sb	s1,1388(sp)
   16bf6:	478d                	li	a5,3
   16bf8:	4595                	li	a1,5
   16bfa:	03100693          	li	a3,49
   16bfe:	470d                	li	a4,3
   16c00:	00000073          	ecall
   16c04:	00850f63          	beq	a0,s0,16c22 <_start+0x5578>
   16c08:	46f10223          	sb	a5,1124(sp)
   16c0c:	6505                	lui	a0,0x1
   16c0e:	45a1                	li	a1,8
   16c10:	fce50513          	addi	a0,a0,-50 # fce <.Lline_table_start1+0xda3>
   16c14:	4615                	li	a2,5
   16c16:	ffffb097          	auipc	ra,0xffffb
   16c1a:	a86080e7          	jalr	-1402(ra) # 1169c <_ZN9allow_pin7command17h1eb46760111c3605E>
   16c1e:	8905                	andi	a0,a0,1
   16c20:	c501                	beqz	a0,16c28 <_start+0x557e>
   16c22:	8b2e                	mv	s6,a1
   16c24:	4785                	li	a5,1
   16c26:	a8a9                	j	16c80 <_start+0x55d6>
   16c28:	56c14703          	lbu	a4,1388(sp)
   16c2c:	4789                	li	a5,2
   16c2e:	00f71463          	bne	a4,a5,16c36 <_start+0x558c>
   16c32:	470d                	li	a4,3
   16c34:	a839                	j	16c52 <_start+0x55a8>
   16c36:	6505                	lui	a0,0x1
   16c38:	fce50513          	addi	a0,a0,-50 # fce <.Lline_table_start1+0xda3>
   16c3c:	45a1                	li	a1,8
   16c3e:	4601                	li	a2,0
   16c40:	4681                	li	a3,0
   16c42:	00000073          	ecall
   16c46:	46414703          	lbu	a4,1124(sp)
   16c4a:	56f10623          	sb	a5,1388(sp)
   16c4e:	00f70a63          	beq	a4,a5,16c62 <_start+0x55b8>
   16c52:	6505                	lui	a0,0x1
   16c54:	fce50513          	addi	a0,a0,-50 # fce <.Lline_table_start1+0xda3>
   16c58:	4595                	li	a1,5
   16c5a:	4601                	li	a2,0
   16c5c:	4681                	li	a3,0
   16c5e:	00000073          	ecall
   16c62:	00002297          	auipc	t0,0x2
   16c66:	746282e7          	jalr	t0,1862(t0) # 193a8 <OUTLINED_FUNCTION_5>
   16c6a:	00003297          	auipc	t0,0x3
   16c6e:	9fa282e7          	jalr	t0,-1542(t0) # 19664 <OUTLINED_FUNCTION_26>
   16c72:	02a00613          	li	a2,42
   16c76:	00003097          	auipc	ra,0x3
   16c7a:	d04080e7          	jalr	-764(ra) # 1997a <memcpy>
   16c7e:	4781                	li	a5,0
   16c80:	46414703          	lbu	a4,1124(sp)
   16c84:	4489                	li	s1,2
   16c86:	00970a63          	beq	a4,s1,16c9a <_start+0x55f0>
   16c8a:	6505                	lui	a0,0x1
   16c8c:	fce50513          	addi	a0,a0,-50 # fce <.Lline_table_start1+0xda3>
   16c90:	4595                	li	a1,5
   16c92:	4601                	li	a2,0
   16c94:	4681                	li	a3,0
   16c96:	00000073          	ecall
   16c9a:	56c14703          	lbu	a4,1388(sp)
   16c9e:	00970a63          	beq	a4,s1,16cb2 <_start+0x5608>
   16ca2:	6505                	lui	a0,0x1
   16ca4:	fce50513          	addi	a0,a0,-50 # fce <.Lline_table_start1+0xda3>
   16ca8:	45a1                	li	a1,8
   16caa:	4601                	li	a2,0
   16cac:	4681                	li	a3,0
   16cae:	00000073          	ecall
   16cb2:	c399                	beqz	a5,16cb8 <_start+0x560e>
   16cb4:	47c0206f          	j	19130 <_start+0x7a86>
   16cb8:	00003297          	auipc	t0,0x3
   16cbc:	83a282e7          	jalr	t0,-1990(t0) # 194f2 <OUTLINED_FUNCTION_13>
   16cc0:	02a00613          	li	a2,42
   16cc4:	00003097          	auipc	ra,0x3
   16cc8:	cb6080e7          	jalr	-842(ra) # 1997a <memcpy>
   16ccc:	52410513          	addi	a0,sp,1316
   16cd0:	048c                	addi	a1,sp,576
   16cd2:	02a00613          	li	a2,42
   16cd6:	00003097          	auipc	ra,0x3
   16cda:	ca4080e7          	jalr	-860(ra) # 1997a <memcpy>
   16cde:	00002297          	auipc	t0,0x2
   16ce2:	7cc282e7          	jalr	t0,1996(t0) # 194aa <OUTLINED_FUNCTION_11>
   16ce6:	04800613          	li	a2,72
   16cea:	854e                	mv	a0,s3
   16cec:	4581                	li	a1,0
   16cee:	00003097          	auipc	ra,0x3
   16cf2:	c20080e7          	jalr	-992(ra) # 1990e <memset>
   16cf6:	00003297          	auipc	t0,0x3
   16cfa:	c0c282e7          	jalr	t0,-1012(t0) # 19902 <OUTLINED_FUNCTION_60>
   16cfe:	4591                	li	a1,4
   16d00:	80e50793          	addi	a5,a0,-2034
   16d04:	03100693          	li	a3,49
   16d08:	4711                	li	a4,4
   16d0a:	853e                	mv	a0,a5
   16d0c:	00000073          	ecall
   16d10:	02950b63          	beq	a0,s1,16d46 <_start+0x569c>
   16d14:	00003297          	auipc	t0,0x3
   16d18:	bca282e7          	jalr	t0,-1078(t0) # 198de <OUTLINED_FUNCTION_57>
   16d1c:	458d                	li	a1,3
   16d1e:	04800693          	li	a3,72
   16d22:	470d                	li	a4,3
   16d24:	00000073          	ecall
   16d28:	00950f63          	beq	a0,s1,16d46 <_start+0x569c>
   16d2c:	56f10623          	sb	a5,1388(sp)
   16d30:	6509                	lui	a0,0x2
   16d32:	4591                	li	a1,4
   16d34:	80e50513          	addi	a0,a0,-2034 # 180e <.Lline_table_start1+0x15e3>
   16d38:	460d                	li	a2,3
   16d3a:	ffffb097          	auipc	ra,0xffffb
   16d3e:	962080e7          	jalr	-1694(ra) # 1169c <_ZN9allow_pin7command17h1eb46760111c3605E>
   16d42:	8905                	andi	a0,a0,1
   16d44:	c501                	beqz	a0,16d4c <_start+0x56a2>
   16d46:	8b2e                	mv	s6,a1
   16d48:	4785                	li	a5,1
   16d4a:	a8a9                	j	16da4 <_start+0x56fa>
   16d4c:	51c14703          	lbu	a4,1308(sp)
   16d50:	4789                	li	a5,2
   16d52:	00f71463          	bne	a4,a5,16d5a <_start+0x56b0>
   16d56:	470d                	li	a4,3
   16d58:	a839                	j	16d76 <_start+0x56cc>
   16d5a:	6509                	lui	a0,0x2
   16d5c:	80e50513          	addi	a0,a0,-2034 # 180e <.Lline_table_start1+0x15e3>
   16d60:	4591                	li	a1,4
   16d62:	4601                	li	a2,0
   16d64:	4681                	li	a3,0
   16d66:	00000073          	ecall
   16d6a:	56c14703          	lbu	a4,1388(sp)
   16d6e:	50f10e23          	sb	a5,1308(sp)
   16d72:	00f70a63          	beq	a4,a5,16d86 <_start+0x56dc>
   16d76:	6509                	lui	a0,0x2
   16d78:	80e50513          	addi	a0,a0,-2034 # 180e <.Lline_table_start1+0x15e3>
   16d7c:	458d                	li	a1,3
   16d7e:	4601                	li	a2,0
   16d80:	4681                	li	a3,0
   16d82:	00000073          	ecall
   16d86:	00003297          	auipc	t0,0x3
   16d8a:	99e282e7          	jalr	t0,-1634(t0) # 19724 <OUTLINED_FUNCTION_33>
   16d8e:	00002297          	auipc	t0,0x2
   16d92:	504282e7          	jalr	t0,1284(t0) # 19292 <OUTLINED_FUNCTION_0>
   16d96:	04100613          	li	a2,65
   16d9a:	00003097          	auipc	ra,0x3
   16d9e:	be0080e7          	jalr	-1056(ra) # 1997a <memcpy>
   16da2:	4781                	li	a5,0
   16da4:	56c14703          	lbu	a4,1388(sp)
   16da8:	4489                	li	s1,2
   16daa:	00970a63          	beq	a4,s1,16dbe <_start+0x5714>
   16dae:	6509                	lui	a0,0x2
   16db0:	80e50513          	addi	a0,a0,-2034 # 180e <.Lline_table_start1+0x15e3>
   16db4:	458d                	li	a1,3
   16db6:	4601                	li	a2,0
   16db8:	4681                	li	a3,0
   16dba:	00000073          	ecall
   16dbe:	51c14703          	lbu	a4,1308(sp)
   16dc2:	00970a63          	beq	a4,s1,16dd6 <_start+0x572c>
   16dc6:	6509                	lui	a0,0x2
   16dc8:	80e50513          	addi	a0,a0,-2034 # 180e <.Lline_table_start1+0x15e3>
   16dcc:	4591                	li	a1,4
   16dce:	4601                	li	a2,0
   16dd0:	4681                	li	a3,0
   16dd2:	00000073          	ecall
   16dd6:	c399                	beqz	a5,16ddc <_start+0x5732>
   16dd8:	3580206f          	j	19130 <_start+0x7a86>
   16ddc:	00002297          	auipc	t0,0x2
   16de0:	6f2282e7          	jalr	t0,1778(t0) # 194ce <OUTLINED_FUNCTION_12>
   16de4:	04100613          	li	a2,65
   16de8:	00003097          	auipc	ra,0x3
   16dec:	b92080e7          	jalr	-1134(ra) # 1997a <memcpy>
   16df0:	57410513          	addi	a0,sp,1396
   16df4:	46410593          	addi	a1,sp,1124
   16df8:	04100613          	li	a2,65
   16dfc:	00003097          	auipc	ra,0x3
   16e00:	b7e080e7          	jalr	-1154(ra) # 1997a <memcpy>
   16e04:	00002297          	auipc	t0,0x2
   16e08:	682282e7          	jalr	t0,1666(t0) # 19486 <OUTLINED_FUNCTION_10>
   16e0c:	02900613          	li	a2,41
   16e10:	854a                	mv	a0,s2
   16e12:	4581                	li	a1,0
   16e14:	00003097          	auipc	ra,0x3
   16e18:	afa080e7          	jalr	-1286(ra) # 1990e <memset>
   16e1c:	8622                	mv	a2,s0
   16e1e:	46910223          	sb	s1,1124(sp)
   16e22:	6509                	lui	a0,0x2
   16e24:	4411                	li	s0,4
   16e26:	458d                	li	a1,3
   16e28:	6a450793          	addi	a5,a0,1700 # 26a4 <.Lline_table_start1+0x2479>
   16e2c:	04800693          	li	a3,72
   16e30:	4711                	li	a4,4
   16e32:	853e                	mv	a0,a5
   16e34:	00000073          	ecall
   16e38:	02950c63          	beq	a0,s1,16e70 <_start+0x57c6>
   16e3c:	853e                	mv	a0,a5
   16e3e:	864a                	mv	a2,s2
   16e40:	56810623          	sb	s0,1388(sp)
   16e44:	478d                	li	a5,3
   16e46:	4591                	li	a1,4
   16e48:	02900693          	li	a3,41
   16e4c:	470d                	li	a4,3
   16e4e:	00000073          	ecall
   16e52:	00950f63          	beq	a0,s1,16e70 <_start+0x57c6>
   16e56:	46f10223          	sb	a5,1124(sp)
   16e5a:	6509                	lui	a0,0x2
   16e5c:	458d                	li	a1,3
   16e5e:	6a450513          	addi	a0,a0,1700 # 26a4 <.Lline_table_start1+0x2479>
   16e62:	4611                	li	a2,4
   16e64:	ffffb097          	auipc	ra,0xffffb
   16e68:	838080e7          	jalr	-1992(ra) # 1169c <_ZN9allow_pin7command17h1eb46760111c3605E>
   16e6c:	8905                	andi	a0,a0,1
   16e6e:	c501                	beqz	a0,16e76 <_start+0x57cc>
   16e70:	8b2e                	mv	s6,a1
   16e72:	4785                	li	a5,1
   16e74:	a8a9                	j	16ece <_start+0x5824>
   16e76:	56c14703          	lbu	a4,1388(sp)
   16e7a:	4789                	li	a5,2
   16e7c:	00f71463          	bne	a4,a5,16e84 <_start+0x57da>
   16e80:	470d                	li	a4,3
   16e82:	a839                	j	16ea0 <_start+0x57f6>
   16e84:	6509                	lui	a0,0x2
   16e86:	6a450513          	addi	a0,a0,1700 # 26a4 <.Lline_table_start1+0x2479>
   16e8a:	458d                	li	a1,3
   16e8c:	4601                	li	a2,0
   16e8e:	4681                	li	a3,0
   16e90:	00000073          	ecall
   16e94:	46414703          	lbu	a4,1124(sp)
   16e98:	56f10623          	sb	a5,1388(sp)
   16e9c:	00f70a63          	beq	a4,a5,16eb0 <_start+0x5806>
   16ea0:	6509                	lui	a0,0x2
   16ea2:	6a450513          	addi	a0,a0,1700 # 26a4 <.Lline_table_start1+0x2479>
   16ea6:	4591                	li	a1,4
   16ea8:	4601                	li	a2,0
   16eaa:	4681                	li	a3,0
   16eac:	00000073          	ecall
   16eb0:	00003297          	auipc	t0,0x3
   16eb4:	884282e7          	jalr	t0,-1916(t0) # 19734 <OUTLINED_FUNCTION_34>
   16eb8:	00002297          	auipc	t0,0x2
   16ebc:	410282e7          	jalr	t0,1040(t0) # 192c8 <OUTLINED_FUNCTION_1>
   16ec0:	02200613          	li	a2,34
   16ec4:	00003097          	auipc	ra,0x3
   16ec8:	ab6080e7          	jalr	-1354(ra) # 1997a <memcpy>
   16ecc:	4781                	li	a5,0
   16ece:	46414703          	lbu	a4,1124(sp)
   16ed2:	4489                	li	s1,2
   16ed4:	00970a63          	beq	a4,s1,16ee8 <_start+0x583e>
   16ed8:	6509                	lui	a0,0x2
   16eda:	6a450513          	addi	a0,a0,1700 # 26a4 <.Lline_table_start1+0x2479>
   16ede:	4591                	li	a1,4
   16ee0:	4601                	li	a2,0
   16ee2:	4681                	li	a3,0
   16ee4:	00000073          	ecall
   16ee8:	56c14703          	lbu	a4,1388(sp)
   16eec:	00970a63          	beq	a4,s1,16f00 <_start+0x5856>
   16ef0:	6509                	lui	a0,0x2
   16ef2:	6a450513          	addi	a0,a0,1700 # 26a4 <.Lline_table_start1+0x2479>
   16ef6:	458d                	li	a1,3
   16ef8:	4601                	li	a2,0
   16efa:	4681                	li	a3,0
   16efc:	00000073          	ecall
   16f00:	c399                	beqz	a5,16f06 <_start+0x585c>
   16f02:	22e0206f          	j	19130 <_start+0x7a86>
   16f06:	00002297          	auipc	t0,0x2
   16f0a:	62c282e7          	jalr	t0,1580(t0) # 19532 <OUTLINED_FUNCTION_15>
   16f0e:	0488                	addi	a0,sp,576
   16f10:	51c10593          	addi	a1,sp,1308
   16f14:	02200613          	li	a2,34
   16f18:	00003097          	auipc	ra,0x3
   16f1c:	a62080e7          	jalr	-1438(ra) # 1997a <memcpy>
   16f20:	57410513          	addi	a0,sp,1396
   16f24:	048c                	addi	a1,sp,576
   16f26:	02200613          	li	a2,34
   16f2a:	00003097          	auipc	ra,0x3
   16f2e:	a50080e7          	jalr	-1456(ra) # 1997a <memcpy>
   16f32:	00002297          	auipc	t0,0x2
   16f36:	530282e7          	jalr	t0,1328(t0) # 19462 <OUTLINED_FUNCTION_9>
   16f3a:	4669                	li	a2,26
   16f3c:	854a                	mv	a0,s2
   16f3e:	4581                	li	a1,0
   16f40:	00003097          	auipc	ra,0x3
   16f44:	9ce080e7          	jalr	-1586(ra) # 1990e <memset>
   16f48:	864e                	mv	a2,s3
   16f4a:	46810223          	sb	s0,1124(sp)
   16f4e:	6509                	lui	a0,0x2
   16f50:	4491                	li	s1,4
   16f52:	4595                	li	a1,5
   16f54:	04850793          	addi	a5,a0,72 # 2048 <.Lline_table_start1+0x1e1d>
   16f58:	02900693          	li	a3,41
   16f5c:	4711                	li	a4,4
   16f5e:	853e                	mv	a0,a5
   16f60:	00000073          	ecall
   16f64:	02850963          	beq	a0,s0,16f96 <_start+0x58ec>
   16f68:	00003297          	auipc	t0,0x3
   16f6c:	90a282e7          	jalr	t0,-1782(t0) # 19872 <OUTLINED_FUNCTION_49>
   16f70:	46e9                	li	a3,26
   16f72:	470d                	li	a4,3
   16f74:	00000073          	ecall
   16f78:	00850f63          	beq	a0,s0,16f96 <_start+0x58ec>
   16f7c:	46f10223          	sb	a5,1124(sp)
   16f80:	6509                	lui	a0,0x2
   16f82:	4595                	li	a1,5
   16f84:	04850513          	addi	a0,a0,72 # 2048 <.Lline_table_start1+0x1e1d>
   16f88:	460d                	li	a2,3
   16f8a:	ffffa097          	auipc	ra,0xffffa
   16f8e:	712080e7          	jalr	1810(ra) # 1169c <_ZN9allow_pin7command17h1eb46760111c3605E>
   16f92:	8905                	andi	a0,a0,1
   16f94:	c501                	beqz	a0,16f9c <_start+0x58f2>
   16f96:	8b2e                	mv	s6,a1
   16f98:	4785                	li	a5,1
   16f9a:	a8a1                	j	16ff2 <_start+0x5948>
   16f9c:	56c14703          	lbu	a4,1388(sp)
   16fa0:	4789                	li	a5,2
   16fa2:	00f71463          	bne	a4,a5,16faa <_start+0x5900>
   16fa6:	470d                	li	a4,3
   16fa8:	a839                	j	16fc6 <_start+0x591c>
   16faa:	6509                	lui	a0,0x2
   16fac:	04850513          	addi	a0,a0,72 # 2048 <.Lline_table_start1+0x1e1d>
   16fb0:	4595                	li	a1,5
   16fb2:	4601                	li	a2,0
   16fb4:	4681                	li	a3,0
   16fb6:	00000073          	ecall
   16fba:	46414703          	lbu	a4,1124(sp)
   16fbe:	56f10623          	sb	a5,1388(sp)
   16fc2:	00f70a63          	beq	a4,a5,16fd6 <_start+0x592c>
   16fc6:	6509                	lui	a0,0x2
   16fc8:	04850513          	addi	a0,a0,72 # 2048 <.Lline_table_start1+0x1e1d>
   16fcc:	458d                	li	a1,3
   16fce:	4601                	li	a2,0
   16fd0:	4681                	li	a3,0
   16fd2:	00000073          	ecall
   16fd6:	00002297          	auipc	t0,0x2
   16fda:	75e282e7          	jalr	t0,1886(t0) # 19734 <OUTLINED_FUNCTION_34>
   16fde:	00002297          	auipc	t0,0x2
   16fe2:	2ea282e7          	jalr	t0,746(t0) # 192c8 <OUTLINED_FUNCTION_1>
   16fe6:	464d                	li	a2,19
   16fe8:	00003097          	auipc	ra,0x3
   16fec:	992080e7          	jalr	-1646(ra) # 1997a <memcpy>
   16ff0:	4781                	li	a5,0
   16ff2:	46414703          	lbu	a4,1124(sp)
   16ff6:	4489                	li	s1,2
   16ff8:	00970a63          	beq	a4,s1,1700c <_start+0x5962>
   16ffc:	6509                	lui	a0,0x2
   16ffe:	04850513          	addi	a0,a0,72 # 2048 <.Lline_table_start1+0x1e1d>
   17002:	458d                	li	a1,3
   17004:	4601                	li	a2,0
   17006:	4681                	li	a3,0
   17008:	00000073          	ecall
   1700c:	56c14703          	lbu	a4,1388(sp)
   17010:	00970a63          	beq	a4,s1,17024 <_start+0x597a>
   17014:	6509                	lui	a0,0x2
   17016:	04850513          	addi	a0,a0,72 # 2048 <.Lline_table_start1+0x1e1d>
   1701a:	4595                	li	a1,5
   1701c:	4601                	li	a2,0
   1701e:	4681                	li	a3,0
   17020:	00000073          	ecall
   17024:	c399                	beqz	a5,1702a <_start+0x5980>
   17026:	10a0206f          	j	19130 <_start+0x7a86>
   1702a:	00002297          	auipc	t0,0x2
   1702e:	6b2282e7          	jalr	t0,1714(t0) # 196dc <OUTLINED_FUNCTION_31>
   17032:	464d                	li	a2,19
   17034:	00003097          	auipc	ra,0x3
   17038:	946080e7          	jalr	-1722(ra) # 1997a <memcpy>
   1703c:	46c10513          	addi	a0,sp,1132
   17040:	048c                	addi	a1,sp,576
   17042:	464d                	li	a2,19
   17044:	00003097          	auipc	ra,0x3
   17048:	936080e7          	jalr	-1738(ra) # 1997a <memcpy>
   1704c:	00002297          	auipc	t0,0x2
   17050:	56a282e7          	jalr	t0,1386(t0) # 195b6 <OUTLINED_FUNCTION_19>
   17054:	466d                	li	a2,27
   17056:	854e                	mv	a0,s3
   17058:	4581                	li	a1,0
   1705a:	00003097          	auipc	ra,0x3
   1705e:	8b4080e7          	jalr	-1868(ra) # 1990e <memset>
   17062:	864a                	mv	a2,s2
   17064:	56810623          	sb	s0,1388(sp)
   17068:	6509                	lui	a0,0x2
   1706a:	4491                	li	s1,4
   1706c:	4595                	li	a1,5
   1706e:	cce50793          	addi	a5,a0,-818 # 1cce <.Lline_table_start1+0x1aa3>
   17072:	46e9                	li	a3,26
   17074:	4711                	li	a4,4
   17076:	853e                	mv	a0,a5
   17078:	00000073          	ecall
   1707c:	02850c63          	beq	a0,s0,170b4 <_start+0x5a0a>
   17080:	853e                	mv	a0,a5
   17082:	864e                	mv	a2,s3
   17084:	46910223          	sb	s1,1124(sp)
   17088:	478d                	li	a5,3
   1708a:	4589                	li	a1,2
   1708c:	46ed                	li	a3,27
   1708e:	470d                	li	a4,3
   17090:	00000073          	ecall
   17094:	02850063          	beq	a0,s0,170b4 <_start+0x5a0a>
   17098:	56f10623          	sb	a5,1388(sp)
   1709c:	6509                	lui	a0,0x2
   1709e:	4595                	li	a1,5
   170a0:	cce50513          	addi	a0,a0,-818 # 1cce <.Lline_table_start1+0x1aa3>
   170a4:	4609                	li	a2,2
   170a6:	4409                	li	s0,2
   170a8:	ffffa097          	auipc	ra,0xffffa
   170ac:	5f4080e7          	jalr	1524(ra) # 1169c <_ZN9allow_pin7command17h1eb46760111c3605E>
   170b0:	8905                	andi	a0,a0,1
   170b2:	c501                	beqz	a0,170ba <_start+0x5a10>
   170b4:	8b2e                	mv	s6,a1
   170b6:	4785                	li	a5,1
   170b8:	a8a1                	j	17110 <_start+0x5a66>
   170ba:	46414703          	lbu	a4,1124(sp)
   170be:	00871463          	bne	a4,s0,170c6 <_start+0x5a1c>
   170c2:	470d                	li	a4,3
   170c4:	a005                	j	170e4 <_start+0x5a3a>
   170c6:	6509                	lui	a0,0x2
   170c8:	cce50513          	addi	a0,a0,-818 # 1cce <.Lline_table_start1+0x1aa3>
   170cc:	4595                	li	a1,5
   170ce:	4601                	li	a2,0
   170d0:	4681                	li	a3,0
   170d2:	00000073          	ecall
   170d6:	56c14703          	lbu	a4,1388(sp)
   170da:	4509                	li	a0,2
   170dc:	46a10223          	sb	a0,1124(sp)
   170e0:	00a70a63          	beq	a4,a0,170f4 <_start+0x5a4a>
   170e4:	6509                	lui	a0,0x2
   170e6:	cce50513          	addi	a0,a0,-818 # 1cce <.Lline_table_start1+0x1aa3>
   170ea:	4589                	li	a1,2
   170ec:	4601                	li	a2,0
   170ee:	4681                	li	a3,0
   170f0:	00000073          	ecall
   170f4:	00002297          	auipc	t0,0x2
   170f8:	630282e7          	jalr	t0,1584(t0) # 19724 <OUTLINED_FUNCTION_33>
   170fc:	00002297          	auipc	t0,0x2
   17100:	196282e7          	jalr	t0,406(t0) # 19292 <OUTLINED_FUNCTION_0>
   17104:	4651                	li	a2,20
   17106:	00003097          	auipc	ra,0x3
   1710a:	874080e7          	jalr	-1932(ra) # 1997a <memcpy>
   1710e:	4781                	li	a5,0
   17110:	56c14703          	lbu	a4,1388(sp)
   17114:	4489                	li	s1,2
   17116:	00970a63          	beq	a4,s1,1712a <_start+0x5a80>
   1711a:	6509                	lui	a0,0x2
   1711c:	cce50513          	addi	a0,a0,-818 # 1cce <.Lline_table_start1+0x1aa3>
   17120:	4589                	li	a1,2
   17122:	4601                	li	a2,0
   17124:	4681                	li	a3,0
   17126:	00000073          	ecall
   1712a:	46414703          	lbu	a4,1124(sp)
   1712e:	00970a63          	beq	a4,s1,17142 <_start+0x5a98>
   17132:	6509                	lui	a0,0x2
   17134:	cce50513          	addi	a0,a0,-818 # 1cce <.Lline_table_start1+0x1aa3>
   17138:	4595                	li	a1,5
   1713a:	4601                	li	a2,0
   1713c:	4681                	li	a3,0
   1713e:	00000073          	ecall
   17142:	c399                	beqz	a5,17148 <_start+0x5a9e>
   17144:	7ed0106f          	j	19130 <_start+0x7a86>
   17148:	00002297          	auipc	t0,0x2
   1714c:	492282e7          	jalr	t0,1170(t0) # 195da <OUTLINED_FUNCTION_20>
   17150:	0e68                	addi	a0,sp,796
   17152:	048c                	addi	a1,sp,576
   17154:	4651                	li	a2,20
   17156:	00003097          	auipc	ra,0x3
   1715a:	824080e7          	jalr	-2012(ra) # 1997a <memcpy>
   1715e:	00002297          	auipc	t0,0x2
   17162:	34c282e7          	jalr	t0,844(t0) # 194aa <OUTLINED_FUNCTION_11>
   17166:	52410513          	addi	a0,sp,1316
   1716a:	0e6c                	addi	a1,sp,796
   1716c:	4651                	li	a2,20
   1716e:	00003097          	auipc	ra,0x3
   17172:	80c080e7          	jalr	-2036(ra) # 1997a <memcpy>
   17176:	04100613          	li	a2,65
   1717a:	854e                	mv	a0,s3
   1717c:	4581                	li	a1,0
   1717e:	00002097          	auipc	ra,0x2
   17182:	790080e7          	jalr	1936(ra) # 1990e <memset>
   17186:	8622                	mv	a2,s0
   17188:	56910623          	sb	s1,1388(sp)
   1718c:	4791                	li	a5,4
   1718e:	14000513          	li	a0,320
   17192:	45a1                	li	a1,8
   17194:	46ed                	li	a3,27
   17196:	4711                	li	a4,4
   17198:	00000073          	ecall
   1719c:	02950c63          	beq	a0,s1,171d4 <_start+0x5b2a>
   171a0:	864e                	mv	a2,s3
   171a2:	50f10e23          	sb	a5,1308(sp)
   171a6:	478d                	li	a5,3
   171a8:	14000513          	li	a0,320
   171ac:	45a5                	li	a1,9
   171ae:	04100693          	li	a3,65
   171b2:	470d                	li	a4,3
   171b4:	00000073          	ecall
   171b8:	00950e63          	beq	a0,s1,171d4 <_start+0x5b2a>
   171bc:	56f10623          	sb	a5,1388(sp)
   171c0:	14000513          	li	a0,320
   171c4:	45a1                	li	a1,8
   171c6:	4625                	li	a2,9
   171c8:	ffffa097          	auipc	ra,0xffffa
   171cc:	4d4080e7          	jalr	1236(ra) # 1169c <_ZN9allow_pin7command17h1eb46760111c3605E>
   171d0:	8905                	andi	a0,a0,1
   171d2:	c501                	beqz	a0,171da <_start+0x5b30>
   171d4:	8b2e                	mv	s6,a1
   171d6:	4785                	li	a5,1
   171d8:	a899                	j	1722e <_start+0x5b84>
   171da:	51c14703          	lbu	a4,1308(sp)
   171de:	4789                	li	a5,2
   171e0:	00f71463          	bne	a4,a5,171e8 <_start+0x5b3e>
   171e4:	470d                	li	a4,3
   171e6:	a831                	j	17202 <_start+0x5b58>
   171e8:	14000513          	li	a0,320
   171ec:	45a1                	li	a1,8
   171ee:	4601                	li	a2,0
   171f0:	4681                	li	a3,0
   171f2:	00000073          	ecall
   171f6:	56c14703          	lbu	a4,1388(sp)
   171fa:	50f10e23          	sb	a5,1308(sp)
   171fe:	00f70963          	beq	a4,a5,17210 <_start+0x5b66>
   17202:	14000513          	li	a0,320
   17206:	45a5                	li	a1,9
   17208:	4601                	li	a2,0
   1720a:	4681                	li	a3,0
   1720c:	00000073          	ecall
   17210:	00002297          	auipc	t0,0x2
   17214:	514282e7          	jalr	t0,1300(t0) # 19724 <OUTLINED_FUNCTION_33>
   17218:	00002297          	auipc	t0,0x2
   1721c:	07a282e7          	jalr	t0,122(t0) # 19292 <OUTLINED_FUNCTION_0>
   17220:	03a00613          	li	a2,58
   17224:	00002097          	auipc	ra,0x2
   17228:	756080e7          	jalr	1878(ra) # 1997a <memcpy>
   1722c:	4781                	li	a5,0
   1722e:	56c14703          	lbu	a4,1388(sp)
   17232:	4489                	li	s1,2
   17234:	00970963          	beq	a4,s1,17246 <_start+0x5b9c>
   17238:	14000513          	li	a0,320
   1723c:	45a5                	li	a1,9
   1723e:	4601                	li	a2,0
   17240:	4681                	li	a3,0
   17242:	00000073          	ecall
   17246:	51c14703          	lbu	a4,1308(sp)
   1724a:	00970963          	beq	a4,s1,1725c <_start+0x5bb2>
   1724e:	14000513          	li	a0,320
   17252:	45a1                	li	a1,8
   17254:	4601                	li	a2,0
   17256:	4681                	li	a3,0
   17258:	00000073          	ecall
   1725c:	c399                	beqz	a5,17262 <_start+0x5bb8>
   1725e:	6d30106f          	j	19130 <_start+0x7a86>
   17262:	00002297          	auipc	t0,0x2
   17266:	2d0282e7          	jalr	t0,720(t0) # 19532 <OUTLINED_FUNCTION_15>
   1726a:	46410513          	addi	a0,sp,1124
   1726e:	048c                	addi	a1,sp,576
   17270:	03a00613          	li	a2,58
   17274:	00002097          	auipc	ra,0x2
   17278:	706080e7          	jalr	1798(ra) # 1997a <memcpy>
   1727c:	57410513          	addi	a0,sp,1396
   17280:	46410593          	addi	a1,sp,1124
   17284:	03a00613          	li	a2,58
   17288:	00002097          	auipc	ra,0x2
   1728c:	6f2080e7          	jalr	1778(ra) # 1997a <memcpy>
   17290:	00002297          	auipc	t0,0x2
   17294:	1f6282e7          	jalr	t0,502(t0) # 19486 <OUTLINED_FUNCTION_10>
   17298:	4661                	li	a2,24
   1729a:	854a                	mv	a0,s2
   1729c:	4581                	li	a1,0
   1729e:	00002097          	auipc	ra,0x2
   172a2:	670080e7          	jalr	1648(ra) # 1990e <memset>
   172a6:	864e                	mv	a2,s3
   172a8:	46910223          	sb	s1,1124(sp)
   172ac:	6509                	lui	a0,0x2
   172ae:	4405                	li	s0,1
   172b0:	4811                	li	a6,4
   172b2:	4585                	li	a1,1
   172b4:	15650793          	addi	a5,a0,342 # 2156 <.Lline_table_start1+0x1f2b>
   172b8:	04100693          	li	a3,65
   172bc:	4711                	li	a4,4
   172be:	853e                	mv	a0,a5
   172c0:	00000073          	ecall
   172c4:	02950f63          	beq	a0,s1,17302 <_start+0x5c58>
   172c8:	853e                	mv	a0,a5
   172ca:	864a                	mv	a2,s2
   172cc:	57010623          	sb	a6,1388(sp)
   172d0:	478d                	li	a5,3
   172d2:	45a5                	li	a1,9
   172d4:	46e1                	li	a3,24
   172d6:	470d                	li	a4,3
   172d8:	00000073          	ecall
   172dc:	00951563          	bne	a0,s1,172e6 <_start+0x5c3c>
   172e0:	8b2e                	mv	s6,a1
   172e2:	4405                	li	s0,1
   172e4:	a8a5                	j	1735c <_start+0x5cb2>
   172e6:	46f10223          	sb	a5,1124(sp)
   172ea:	6509                	lui	a0,0x2
   172ec:	4585                	li	a1,1
   172ee:	15650513          	addi	a0,a0,342 # 2156 <.Lline_table_start1+0x1f2b>
   172f2:	4625                	li	a2,9
   172f4:	4405                	li	s0,1
   172f6:	ffffa097          	auipc	ra,0xffffa
   172fa:	3a6080e7          	jalr	934(ra) # 1169c <_ZN9allow_pin7command17h1eb46760111c3605E>
   172fe:	8905                	andi	a0,a0,1
   17300:	c119                	beqz	a0,17306 <_start+0x5c5c>
   17302:	8b2e                	mv	s6,a1
   17304:	a8a1                	j	1735c <_start+0x5cb2>
   17306:	56c14703          	lbu	a4,1388(sp)
   1730a:	4789                	li	a5,2
   1730c:	00f71463          	bne	a4,a5,17314 <_start+0x5c6a>
   17310:	470d                	li	a4,3
   17312:	a839                	j	17330 <_start+0x5c86>
   17314:	6509                	lui	a0,0x2
   17316:	15650513          	addi	a0,a0,342 # 2156 <.Lline_table_start1+0x1f2b>
   1731a:	4585                	li	a1,1
   1731c:	4601                	li	a2,0
   1731e:	4681                	li	a3,0
   17320:	00000073          	ecall
   17324:	46414703          	lbu	a4,1124(sp)
   17328:	56f10623          	sb	a5,1388(sp)
   1732c:	00f70a63          	beq	a4,a5,17340 <_start+0x5c96>
   17330:	6509                	lui	a0,0x2
   17332:	15650513          	addi	a0,a0,342 # 2156 <.Lline_table_start1+0x1f2b>
   17336:	45a5                	li	a1,9
   17338:	4601                	li	a2,0
   1733a:	4681                	li	a3,0
   1733c:	00000073          	ecall
   17340:	00002297          	auipc	t0,0x2
   17344:	3f4282e7          	jalr	t0,1012(t0) # 19734 <OUTLINED_FUNCTION_34>
   17348:	00002297          	auipc	t0,0x2
   1734c:	f80282e7          	jalr	t0,-128(t0) # 192c8 <OUTLINED_FUNCTION_1>
   17350:	4645                	li	a2,17
   17352:	00002097          	auipc	ra,0x2
   17356:	628080e7          	jalr	1576(ra) # 1997a <memcpy>
   1735a:	4401                	li	s0,0
   1735c:	46414703          	lbu	a4,1124(sp)
   17360:	4789                	li	a5,2
   17362:	00f70a63          	beq	a4,a5,17376 <_start+0x5ccc>
   17366:	6509                	lui	a0,0x2
   17368:	15650513          	addi	a0,a0,342 # 2156 <.Lline_table_start1+0x1f2b>
   1736c:	45a5                	li	a1,9
   1736e:	4601                	li	a2,0
   17370:	4681                	li	a3,0
   17372:	00000073          	ecall
   17376:	56c14703          	lbu	a4,1388(sp)
   1737a:	00f70a63          	beq	a4,a5,1738e <_start+0x5ce4>
   1737e:	6509                	lui	a0,0x2
   17380:	15650513          	addi	a0,a0,342 # 2156 <.Lline_table_start1+0x1f2b>
   17384:	4585                	li	a1,1
   17386:	4601                	li	a2,0
   17388:	4681                	li	a3,0
   1738a:	00000073          	ecall
   1738e:	c019                	beqz	s0,17394 <_start+0x5cea>
   17390:	5a10106f          	j	19130 <_start+0x7a86>
   17394:	00002297          	auipc	t0,0x2
   17398:	348282e7          	jalr	t0,840(t0) # 196dc <OUTLINED_FUNCTION_31>
   1739c:	4645                	li	a2,17
   1739e:	00002097          	auipc	ra,0x2
   173a2:	5dc080e7          	jalr	1500(ra) # 1997a <memcpy>
   173a6:	46c10513          	addi	a0,sp,1132
   173aa:	048c                	addi	a1,sp,576
   173ac:	4645                	li	a2,17
   173ae:	00002097          	auipc	ra,0x2
   173b2:	5cc080e7          	jalr	1484(ra) # 1997a <memcpy>
   173b6:	00002297          	auipc	t0,0x2
   173ba:	200282e7          	jalr	t0,512(t0) # 195b6 <OUTLINED_FUNCTION_19>
   173be:	4679                	li	a2,30
   173c0:	854e                	mv	a0,s3
   173c2:	4581                	li	a1,0
   173c4:	00002097          	auipc	ra,0x2
   173c8:	54a080e7          	jalr	1354(ra) # 1990e <memset>
   173cc:	864a                	mv	a2,s2
   173ce:	56810623          	sb	s0,1388(sp)
   173d2:	6505                	lui	a0,0x1
   173d4:	4491                	li	s1,4
   173d6:	45a5                	li	a1,9
   173d8:	cbb50793          	addi	a5,a0,-837 # cbb <.Lline_table_start1+0xa90>
   173dc:	46e1                	li	a3,24
   173de:	4711                	li	a4,4
   173e0:	853e                	mv	a0,a5
   173e2:	00000073          	ecall
   173e6:	02850b63          	beq	a0,s0,1741c <_start+0x5d72>
   173ea:	853e                	mv	a0,a5
   173ec:	864e                	mv	a2,s3
   173ee:	46910223          	sb	s1,1124(sp)
   173f2:	478d                	li	a5,3
   173f4:	4595                	li	a1,5
   173f6:	46f9                	li	a3,30
   173f8:	470d                	li	a4,3
   173fa:	00000073          	ecall
   173fe:	00850f63          	beq	a0,s0,1741c <_start+0x5d72>
   17402:	56f10623          	sb	a5,1388(sp)
   17406:	6505                	lui	a0,0x1
   17408:	45a5                	li	a1,9
   1740a:	cbb50513          	addi	a0,a0,-837 # cbb <.Lline_table_start1+0xa90>
   1740e:	4615                	li	a2,5
   17410:	ffffa097          	auipc	ra,0xffffa
   17414:	28c080e7          	jalr	652(ra) # 1169c <_ZN9allow_pin7command17h1eb46760111c3605E>
   17418:	8905                	andi	a0,a0,1
   1741a:	c501                	beqz	a0,17422 <_start+0x5d78>
   1741c:	8b2e                	mv	s6,a1
   1741e:	4785                	li	a5,1
   17420:	a8a1                	j	17478 <_start+0x5dce>
   17422:	46414703          	lbu	a4,1124(sp)
   17426:	4789                	li	a5,2
   17428:	00f71463          	bne	a4,a5,17430 <_start+0x5d86>
   1742c:	470d                	li	a4,3
   1742e:	a839                	j	1744c <_start+0x5da2>
   17430:	6505                	lui	a0,0x1
   17432:	cbb50513          	addi	a0,a0,-837 # cbb <.Lline_table_start1+0xa90>
   17436:	45a5                	li	a1,9
   17438:	4601                	li	a2,0
   1743a:	4681                	li	a3,0
   1743c:	00000073          	ecall
   17440:	56c14703          	lbu	a4,1388(sp)
   17444:	46f10223          	sb	a5,1124(sp)
   17448:	00f70a63          	beq	a4,a5,1745c <_start+0x5db2>
   1744c:	6505                	lui	a0,0x1
   1744e:	cbb50513          	addi	a0,a0,-837 # cbb <.Lline_table_start1+0xa90>
   17452:	4595                	li	a1,5
   17454:	4601                	li	a2,0
   17456:	4681                	li	a3,0
   17458:	00000073          	ecall
   1745c:	00002297          	auipc	t0,0x2
   17460:	f1a282e7          	jalr	t0,-230(t0) # 19376 <OUTLINED_FUNCTION_4>
   17464:	00002297          	auipc	t0,0x2
   17468:	384282e7          	jalr	t0,900(t0) # 197e8 <OUTLINED_FUNCTION_42>
   1746c:	465d                	li	a2,23
   1746e:	00002097          	auipc	ra,0x2
   17472:	50c080e7          	jalr	1292(ra) # 1997a <memcpy>
   17476:	4781                	li	a5,0
   17478:	56c14703          	lbu	a4,1388(sp)
   1747c:	4489                	li	s1,2
   1747e:	00970a63          	beq	a4,s1,17492 <_start+0x5de8>
   17482:	6505                	lui	a0,0x1
   17484:	cbb50513          	addi	a0,a0,-837 # cbb <.Lline_table_start1+0xa90>
   17488:	4595                	li	a1,5
   1748a:	4601                	li	a2,0
   1748c:	4681                	li	a3,0
   1748e:	00000073          	ecall
   17492:	46414703          	lbu	a4,1124(sp)
   17496:	00970a63          	beq	a4,s1,174aa <_start+0x5e00>
   1749a:	6505                	lui	a0,0x1
   1749c:	cbb50513          	addi	a0,a0,-837 # cbb <.Lline_table_start1+0xa90>
   174a0:	45a5                	li	a1,9
   174a2:	4601                	li	a2,0
   174a4:	4681                	li	a3,0
   174a6:	00000073          	ecall
   174aa:	c399                	beqz	a5,174b0 <_start+0x5e06>
   174ac:	4850106f          	j	19130 <_start+0x7a86>
   174b0:	00002297          	auipc	t0,0x2
   174b4:	042282e7          	jalr	t0,66(t0) # 194f2 <OUTLINED_FUNCTION_13>
   174b8:	465d                	li	a2,23
   174ba:	00002097          	auipc	ra,0x2
   174be:	4c0080e7          	jalr	1216(ra) # 1997a <memcpy>
   174c2:	52410513          	addi	a0,sp,1316
   174c6:	048c                	addi	a1,sp,576
   174c8:	465d                	li	a2,23
   174ca:	00002097          	auipc	ra,0x2
   174ce:	4b0080e7          	jalr	1200(ra) # 1997a <memcpy>
   174d2:	00002297          	auipc	t0,0x2
   174d6:	fd8282e7          	jalr	t0,-40(t0) # 194aa <OUTLINED_FUNCTION_11>
   174da:	03c00613          	li	a2,60
   174de:	854e                	mv	a0,s3
   174e0:	4581                	li	a1,0
   174e2:	00002097          	auipc	ra,0x2
   174e6:	42c080e7          	jalr	1068(ra) # 1990e <memset>
   174ea:	00002297          	auipc	t0,0x2
   174ee:	396282e7          	jalr	t0,918(t0) # 19880 <OUTLINED_FUNCTION_50>
   174f2:	4589                	li	a1,2
   174f4:	b3c50793          	addi	a5,a0,-1220
   174f8:	46f9                	li	a3,30
   174fa:	4711                	li	a4,4
   174fc:	853e                	mv	a0,a5
   174fe:	00000073          	ecall
   17502:	02950c63          	beq	a0,s1,1753a <_start+0x5e90>
   17506:	00002297          	auipc	t0,0x2
   1750a:	3d8282e7          	jalr	t0,984(t0) # 198de <OUTLINED_FUNCTION_57>
   1750e:	458d                	li	a1,3
   17510:	03c00693          	li	a3,60
   17514:	470d                	li	a4,3
   17516:	00000073          	ecall
   1751a:	02950063          	beq	a0,s1,1753a <_start+0x5e90>
   1751e:	56f10623          	sb	a5,1388(sp)
   17522:	6505                	lui	a0,0x1
   17524:	4589                	li	a1,2
   17526:	b3c50513          	addi	a0,a0,-1220 # b3c <.Lline_table_start1+0x911>
   1752a:	460d                	li	a2,3
   1752c:	4409                	li	s0,2
   1752e:	ffffa097          	auipc	ra,0xffffa
   17532:	16e080e7          	jalr	366(ra) # 1169c <_ZN9allow_pin7command17h1eb46760111c3605E>
   17536:	8905                	andi	a0,a0,1
   17538:	c501                	beqz	a0,17540 <_start+0x5e96>
   1753a:	8b2e                	mv	s6,a1
   1753c:	4785                	li	a5,1
   1753e:	a8a9                	j	17598 <_start+0x5eee>
   17540:	51c14703          	lbu	a4,1308(sp)
   17544:	00871463          	bne	a4,s0,1754c <_start+0x5ea2>
   17548:	470d                	li	a4,3
   1754a:	a005                	j	1756a <_start+0x5ec0>
   1754c:	6505                	lui	a0,0x1
   1754e:	b3c50513          	addi	a0,a0,-1220 # b3c <.Lline_table_start1+0x911>
   17552:	4589                	li	a1,2
   17554:	4601                	li	a2,0
   17556:	4681                	li	a3,0
   17558:	00000073          	ecall
   1755c:	56c14703          	lbu	a4,1388(sp)
   17560:	4509                	li	a0,2
   17562:	50a10e23          	sb	a0,1308(sp)
   17566:	00a70a63          	beq	a4,a0,1757a <_start+0x5ed0>
   1756a:	6505                	lui	a0,0x1
   1756c:	b3c50513          	addi	a0,a0,-1220 # b3c <.Lline_table_start1+0x911>
   17570:	458d                	li	a1,3
   17572:	4601                	li	a2,0
   17574:	4681                	li	a3,0
   17576:	00000073          	ecall
   1757a:	00002297          	auipc	t0,0x2
   1757e:	1aa282e7          	jalr	t0,426(t0) # 19724 <OUTLINED_FUNCTION_33>
   17582:	00002297          	auipc	t0,0x2
   17586:	d10282e7          	jalr	t0,-752(t0) # 19292 <OUTLINED_FUNCTION_0>
   1758a:	03500613          	li	a2,53
   1758e:	00002097          	auipc	ra,0x2
   17592:	3ec080e7          	jalr	1004(ra) # 1997a <memcpy>
   17596:	4781                	li	a5,0
   17598:	56c14703          	lbu	a4,1388(sp)
   1759c:	4489                	li	s1,2
   1759e:	00970a63          	beq	a4,s1,175b2 <_start+0x5f08>
   175a2:	6505                	lui	a0,0x1
   175a4:	b3c50513          	addi	a0,a0,-1220 # b3c <.Lline_table_start1+0x911>
   175a8:	458d                	li	a1,3
   175aa:	4601                	li	a2,0
   175ac:	4681                	li	a3,0
   175ae:	00000073          	ecall
   175b2:	51c14703          	lbu	a4,1308(sp)
   175b6:	00970a63          	beq	a4,s1,175ca <_start+0x5f20>
   175ba:	6505                	lui	a0,0x1
   175bc:	b3c50513          	addi	a0,a0,-1220 # b3c <.Lline_table_start1+0x911>
   175c0:	4589                	li	a1,2
   175c2:	4601                	li	a2,0
   175c4:	4681                	li	a3,0
   175c6:	00000073          	ecall
   175ca:	c399                	beqz	a5,175d0 <_start+0x5f26>
   175cc:	3650106f          	j	19130 <_start+0x7a86>
   175d0:	00002297          	auipc	t0,0x2
   175d4:	efe282e7          	jalr	t0,-258(t0) # 194ce <OUTLINED_FUNCTION_12>
   175d8:	03500613          	li	a2,53
   175dc:	00002097          	auipc	ra,0x2
   175e0:	39e080e7          	jalr	926(ra) # 1997a <memcpy>
   175e4:	57410513          	addi	a0,sp,1396
   175e8:	46410593          	addi	a1,sp,1124
   175ec:	03500613          	li	a2,53
   175f0:	00002097          	auipc	ra,0x2
   175f4:	38a080e7          	jalr	906(ra) # 1997a <memcpy>
   175f8:	00002297          	auipc	t0,0x2
   175fc:	e8e282e7          	jalr	t0,-370(t0) # 19486 <OUTLINED_FUNCTION_10>
   17600:	02c00613          	li	a2,44
   17604:	854a                	mv	a0,s2
   17606:	4581                	li	a1,0
   17608:	00002097          	auipc	ra,0x2
   1760c:	306080e7          	jalr	774(ra) # 1990e <memset>
   17610:	8622                	mv	a2,s0
   17612:	46910223          	sb	s1,1124(sp)
   17616:	6509                	lui	a0,0x2
   17618:	4411                	li	s0,4
   1761a:	4595                	li	a1,5
   1761c:	eac50793          	addi	a5,a0,-340 # 1eac <.Lline_table_start1+0x1c81>
   17620:	03c00693          	li	a3,60
   17624:	4711                	li	a4,4
   17626:	853e                	mv	a0,a5
   17628:	00000073          	ecall
   1762c:	02950c63          	beq	a0,s1,17664 <_start+0x5fba>
   17630:	853e                	mv	a0,a5
   17632:	864a                	mv	a2,s2
   17634:	56810623          	sb	s0,1388(sp)
   17638:	478d                	li	a5,3
   1763a:	459d                	li	a1,7
   1763c:	02c00693          	li	a3,44
   17640:	470d                	li	a4,3
   17642:	00000073          	ecall
   17646:	00950f63          	beq	a0,s1,17664 <_start+0x5fba>
   1764a:	46f10223          	sb	a5,1124(sp)
   1764e:	6509                	lui	a0,0x2
   17650:	4595                	li	a1,5
   17652:	eac50513          	addi	a0,a0,-340 # 1eac <.Lline_table_start1+0x1c81>
   17656:	461d                	li	a2,7
   17658:	ffffa097          	auipc	ra,0xffffa
   1765c:	044080e7          	jalr	68(ra) # 1169c <_ZN9allow_pin7command17h1eb46760111c3605E>
   17660:	8905                	andi	a0,a0,1
   17662:	c501                	beqz	a0,1766a <_start+0x5fc0>
   17664:	8b2e                	mv	s6,a1
   17666:	4785                	li	a5,1
   17668:	a8a9                	j	176c2 <_start+0x6018>
   1766a:	56c14703          	lbu	a4,1388(sp)
   1766e:	4789                	li	a5,2
   17670:	00f71463          	bne	a4,a5,17678 <_start+0x5fce>
   17674:	470d                	li	a4,3
   17676:	a839                	j	17694 <_start+0x5fea>
   17678:	6509                	lui	a0,0x2
   1767a:	eac50513          	addi	a0,a0,-340 # 1eac <.Lline_table_start1+0x1c81>
   1767e:	4595                	li	a1,5
   17680:	4601                	li	a2,0
   17682:	4681                	li	a3,0
   17684:	00000073          	ecall
   17688:	46414703          	lbu	a4,1124(sp)
   1768c:	56f10623          	sb	a5,1388(sp)
   17690:	00f70a63          	beq	a4,a5,176a4 <_start+0x5ffa>
   17694:	6509                	lui	a0,0x2
   17696:	eac50513          	addi	a0,a0,-340 # 1eac <.Lline_table_start1+0x1c81>
   1769a:	459d                	li	a1,7
   1769c:	4601                	li	a2,0
   1769e:	4681                	li	a3,0
   176a0:	00000073          	ecall
   176a4:	00002297          	auipc	t0,0x2
   176a8:	090282e7          	jalr	t0,144(t0) # 19734 <OUTLINED_FUNCTION_34>
   176ac:	00002297          	auipc	t0,0x2
   176b0:	c1c282e7          	jalr	t0,-996(t0) # 192c8 <OUTLINED_FUNCTION_1>
   176b4:	02500613          	li	a2,37
   176b8:	00002097          	auipc	ra,0x2
   176bc:	2c2080e7          	jalr	706(ra) # 1997a <memcpy>
   176c0:	4781                	li	a5,0
   176c2:	46414703          	lbu	a4,1124(sp)
   176c6:	4489                	li	s1,2
   176c8:	00970a63          	beq	a4,s1,176dc <_start+0x6032>
   176cc:	6509                	lui	a0,0x2
   176ce:	eac50513          	addi	a0,a0,-340 # 1eac <.Lline_table_start1+0x1c81>
   176d2:	459d                	li	a1,7
   176d4:	4601                	li	a2,0
   176d6:	4681                	li	a3,0
   176d8:	00000073          	ecall
   176dc:	56c14703          	lbu	a4,1388(sp)
   176e0:	00970a63          	beq	a4,s1,176f4 <_start+0x604a>
   176e4:	6509                	lui	a0,0x2
   176e6:	eac50513          	addi	a0,a0,-340 # 1eac <.Lline_table_start1+0x1c81>
   176ea:	4595                	li	a1,5
   176ec:	4601                	li	a2,0
   176ee:	4681                	li	a3,0
   176f0:	00000073          	ecall
   176f4:	c399                	beqz	a5,176fa <_start+0x6050>
   176f6:	23b0106f          	j	19130 <_start+0x7a86>
   176fa:	00002297          	auipc	t0,0x2
   176fe:	e38282e7          	jalr	t0,-456(t0) # 19532 <OUTLINED_FUNCTION_15>
   17702:	0488                	addi	a0,sp,576
   17704:	51c10593          	addi	a1,sp,1308
   17708:	02500613          	li	a2,37
   1770c:	00002097          	auipc	ra,0x2
   17710:	26e080e7          	jalr	622(ra) # 1997a <memcpy>
   17714:	57410513          	addi	a0,sp,1396
   17718:	048c                	addi	a1,sp,576
   1771a:	02500613          	li	a2,37
   1771e:	00002097          	auipc	ra,0x2
   17722:	25c080e7          	jalr	604(ra) # 1997a <memcpy>
   17726:	00002297          	auipc	t0,0x2
   1772a:	d3c282e7          	jalr	t0,-708(t0) # 19462 <OUTLINED_FUNCTION_9>
   1772e:	02700613          	li	a2,39
   17732:	854a                	mv	a0,s2
   17734:	4581                	li	a1,0
   17736:	00002097          	auipc	ra,0x2
   1773a:	1d8080e7          	jalr	472(ra) # 1990e <memset>
   1773e:	00002297          	auipc	t0,0x2
   17742:	14e282e7          	jalr	t0,334(t0) # 1988c <OUTLINED_FUNCTION_51>
   17746:	4591                	li	a1,4
   17748:	1b550793          	addi	a5,a0,437
   1774c:	02c00693          	li	a3,44
   17750:	4711                	li	a4,4
   17752:	853e                	mv	a0,a5
   17754:	00000073          	ecall
   17758:	02850a63          	beq	a0,s0,1778c <_start+0x60e2>
   1775c:	00002297          	auipc	t0,0x2
   17760:	116282e7          	jalr	t0,278(t0) # 19872 <OUTLINED_FUNCTION_49>
   17764:	02700693          	li	a3,39
   17768:	470d                	li	a4,3
   1776a:	00000073          	ecall
   1776e:	00850f63          	beq	a0,s0,1778c <_start+0x60e2>
   17772:	46f10223          	sb	a5,1124(sp)
   17776:	6505                	lui	a0,0x1
   17778:	4591                	li	a1,4
   1777a:	1b550513          	addi	a0,a0,437 # 11b5 <.Lline_table_start1+0xf8a>
   1777e:	460d                	li	a2,3
   17780:	ffffa097          	auipc	ra,0xffffa
   17784:	f1c080e7          	jalr	-228(ra) # 1169c <_ZN9allow_pin7command17h1eb46760111c3605E>
   17788:	8905                	andi	a0,a0,1
   1778a:	c501                	beqz	a0,17792 <_start+0x60e8>
   1778c:	8b2e                	mv	s6,a1
   1778e:	4785                	li	a5,1
   17790:	a8a9                	j	177ea <_start+0x6140>
   17792:	56c14703          	lbu	a4,1388(sp)
   17796:	4789                	li	a5,2
   17798:	00f71463          	bne	a4,a5,177a0 <_start+0x60f6>
   1779c:	470d                	li	a4,3
   1779e:	a839                	j	177bc <_start+0x6112>
   177a0:	6505                	lui	a0,0x1
   177a2:	1b550513          	addi	a0,a0,437 # 11b5 <.Lline_table_start1+0xf8a>
   177a6:	4591                	li	a1,4
   177a8:	4601                	li	a2,0
   177aa:	4681                	li	a3,0
   177ac:	00000073          	ecall
   177b0:	46414703          	lbu	a4,1124(sp)
   177b4:	56f10623          	sb	a5,1388(sp)
   177b8:	00f70a63          	beq	a4,a5,177cc <_start+0x6122>
   177bc:	6505                	lui	a0,0x1
   177be:	1b550513          	addi	a0,a0,437 # 11b5 <.Lline_table_start1+0xf8a>
   177c2:	458d                	li	a1,3
   177c4:	4601                	li	a2,0
   177c6:	4681                	li	a3,0
   177c8:	00000073          	ecall
   177cc:	00002297          	auipc	t0,0x2
   177d0:	f68282e7          	jalr	t0,-152(t0) # 19734 <OUTLINED_FUNCTION_34>
   177d4:	00002297          	auipc	t0,0x2
   177d8:	af4282e7          	jalr	t0,-1292(t0) # 192c8 <OUTLINED_FUNCTION_1>
   177dc:	02000613          	li	a2,32
   177e0:	00002097          	auipc	ra,0x2
   177e4:	19a080e7          	jalr	410(ra) # 1997a <memcpy>
   177e8:	4781                	li	a5,0
   177ea:	46414703          	lbu	a4,1124(sp)
   177ee:	4489                	li	s1,2
   177f0:	00970a63          	beq	a4,s1,17804 <_start+0x615a>
   177f4:	6505                	lui	a0,0x1
   177f6:	1b550513          	addi	a0,a0,437 # 11b5 <.Lline_table_start1+0xf8a>
   177fa:	458d                	li	a1,3
   177fc:	4601                	li	a2,0
   177fe:	4681                	li	a3,0
   17800:	00000073          	ecall
   17804:	56c14703          	lbu	a4,1388(sp)
   17808:	00970a63          	beq	a4,s1,1781c <_start+0x6172>
   1780c:	6505                	lui	a0,0x1
   1780e:	1b550513          	addi	a0,a0,437 # 11b5 <.Lline_table_start1+0xf8a>
   17812:	4591                	li	a1,4
   17814:	4601                	li	a2,0
   17816:	4681                	li	a3,0
   17818:	00000073          	ecall
   1781c:	c399                	beqz	a5,17822 <_start+0x6178>
   1781e:	1130106f          	j	19130 <_start+0x7a86>
   17822:	00002297          	auipc	t0,0x2
   17826:	f56282e7          	jalr	t0,-170(t0) # 19778 <OUTLINED_FUNCTION_37>
   1782a:	24110413          	addi	s0,sp,577
   1782e:	00002297          	auipc	t0,0x2
   17832:	022282e7          	jalr	t0,34(t0) # 19850 <OUTLINED_FUNCTION_46>
   17836:	1e08                	addi	a0,sp,816
   17838:	51c10593          	addi	a1,sp,1308
   1783c:	02000613          	li	a2,32
   17840:	00002097          	auipc	ra,0x2
   17844:	13a080e7          	jalr	314(ra) # 1997a <memcpy>
   17848:	00002297          	auipc	t0,0x2
   1784c:	d2c282e7          	jalr	t0,-724(t0) # 19574 <OUTLINED_FUNCTION_17>
   17850:	04a8                	addi	a0,sp,584
   17852:	1e0c                	addi	a1,sp,816
   17854:	02000613          	li	a2,32
   17858:	00002097          	auipc	ra,0x2
   1785c:	122080e7          	jalr	290(ra) # 1997a <memcpy>
   17860:	04f00613          	li	a2,79
   17864:	854e                	mv	a0,s3
   17866:	4581                	li	a1,0
   17868:	00002097          	auipc	ra,0x2
   1786c:	0a6080e7          	jalr	166(ra) # 1990e <memset>
   17870:	00002297          	auipc	t0,0x2
   17874:	010282e7          	jalr	t0,16(t0) # 19880 <OUTLINED_FUNCTION_50>
   17878:	45a5                	li	a1,9
   1787a:	b4c50793          	addi	a5,a0,-1204
   1787e:	02700693          	li	a3,39
   17882:	4711                	li	a4,4
   17884:	853e                	mv	a0,a5
   17886:	00000073          	ecall
   1788a:	02950c63          	beq	a0,s1,178c2 <_start+0x6218>
   1788e:	853e                	mv	a0,a5
   17890:	4581                	li	a1,0
   17892:	864e                	mv	a2,s3
   17894:	24810023          	sb	s0,576(sp)
   17898:	478d                	li	a5,3
   1789a:	04f00693          	li	a3,79
   1789e:	470d                	li	a4,3
   178a0:	00000073          	ecall
   178a4:	00950f63          	beq	a0,s1,178c2 <_start+0x6218>
   178a8:	56f10623          	sb	a5,1388(sp)
   178ac:	6505                	lui	a0,0x1
   178ae:	b4c50513          	addi	a0,a0,-1204 # b4c <.Lline_table_start1+0x921>
   178b2:	45a5                	li	a1,9
   178b4:	4601                	li	a2,0
   178b6:	ffffa097          	auipc	ra,0xffffa
   178ba:	de6080e7          	jalr	-538(ra) # 1169c <_ZN9allow_pin7command17h1eb46760111c3605E>
   178be:	8905                	andi	a0,a0,1
   178c0:	c501                	beqz	a0,178c8 <_start+0x621e>
   178c2:	8b2e                	mv	s6,a1
   178c4:	4785                	li	a5,1
   178c6:	a8a9                	j	17920 <_start+0x6276>
   178c8:	24014703          	lbu	a4,576(sp)
   178cc:	4789                	li	a5,2
   178ce:	00f71463          	bne	a4,a5,178d6 <_start+0x622c>
   178d2:	470d                	li	a4,3
   178d4:	a839                	j	178f2 <_start+0x6248>
   178d6:	6505                	lui	a0,0x1
   178d8:	b4c50513          	addi	a0,a0,-1204 # b4c <.Lline_table_start1+0x921>
   178dc:	45a5                	li	a1,9
   178de:	4601                	li	a2,0
   178e0:	4681                	li	a3,0
   178e2:	00000073          	ecall
   178e6:	56c14703          	lbu	a4,1388(sp)
   178ea:	24f10023          	sb	a5,576(sp)
   178ee:	00f70a63          	beq	a4,a5,17902 <_start+0x6258>
   178f2:	6505                	lui	a0,0x1
   178f4:	b4c50513          	addi	a0,a0,-1204 # b4c <.Lline_table_start1+0x921>
   178f8:	4581                	li	a1,0
   178fa:	4601                	li	a2,0
   178fc:	4681                	li	a3,0
   178fe:	00000073          	ecall
   17902:	00002297          	auipc	t0,0x2
   17906:	a74282e7          	jalr	t0,-1420(t0) # 19376 <OUTLINED_FUNCTION_4>
   1790a:	00002297          	auipc	t0,0x2
   1790e:	daa282e7          	jalr	t0,-598(t0) # 196b4 <OUTLINED_FUNCTION_29>
   17912:	04800613          	li	a2,72
   17916:	00002097          	auipc	ra,0x2
   1791a:	064080e7          	jalr	100(ra) # 1997a <memcpy>
   1791e:	4781                	li	a5,0
   17920:	56c14703          	lbu	a4,1388(sp)
   17924:	4489                	li	s1,2
   17926:	00970a63          	beq	a4,s1,1793a <_start+0x6290>
   1792a:	6505                	lui	a0,0x1
   1792c:	b4c50513          	addi	a0,a0,-1204 # b4c <.Lline_table_start1+0x921>
   17930:	4581                	li	a1,0
   17932:	4601                	li	a2,0
   17934:	4681                	li	a3,0
   17936:	00000073          	ecall
   1793a:	24014703          	lbu	a4,576(sp)
   1793e:	00970a63          	beq	a4,s1,17952 <_start+0x62a8>
   17942:	6505                	lui	a0,0x1
   17944:	b4c50513          	addi	a0,a0,-1204 # b4c <.Lline_table_start1+0x921>
   17948:	45a5                	li	a1,9
   1794a:	4601                	li	a2,0
   1794c:	4681                	li	a3,0
   1794e:	00000073          	ecall
   17952:	c399                	beqz	a5,17958 <_start+0x62ae>
   17954:	7dc0106f          	j	19130 <_start+0x7a86>
   17958:	00002297          	auipc	t0,0x2
   1795c:	d3e282e7          	jalr	t0,-706(t0) # 19696 <OUTLINED_FUNCTION_28>
   17960:	0e88                	addi	a0,sp,848
   17962:	46410593          	addi	a1,sp,1124
   17966:	04800613          	li	a2,72
   1796a:	00002097          	auipc	ra,0x2
   1796e:	010080e7          	jalr	16(ra) # 1997a <memcpy>
   17972:	00002297          	auipc	t0,0x2
   17976:	b14282e7          	jalr	t0,-1260(t0) # 19486 <OUTLINED_FUNCTION_10>
   1797a:	57410513          	addi	a0,sp,1396
   1797e:	0e8c                	addi	a1,sp,848
   17980:	04800613          	li	a2,72
   17984:	00002097          	auipc	ra,0x2
   17988:	ff6080e7          	jalr	-10(ra) # 1997a <memcpy>
   1798c:	03500613          	li	a2,53
   17990:	854a                	mv	a0,s2
   17992:	4581                	li	a1,0
   17994:	00002097          	auipc	ra,0x2
   17998:	f7a080e7          	jalr	-134(ra) # 1990e <memset>
   1799c:	864e                	mv	a2,s3
   1799e:	46910223          	sb	s1,1124(sp)
   179a2:	6505                	lui	a0,0x1
   179a4:	4411                	li	s0,4
   179a6:	459d                	li	a1,7
   179a8:	6d750793          	addi	a5,a0,1751 # 16d7 <.Lline_table_start1+0x14ac>
   179ac:	04f00693          	li	a3,79
   179b0:	4711                	li	a4,4
   179b2:	853e                	mv	a0,a5
   179b4:	00000073          	ecall
   179b8:	00951563          	bne	a0,s1,179c2 <_start+0x6318>
   179bc:	8b2e                	mv	s6,a1
   179be:	4405                	li	s0,1
   179c0:	a859                	j	17a56 <_start+0x63ac>
   179c2:	853e                	mv	a0,a5
   179c4:	864a                	mv	a2,s2
   179c6:	56810623          	sb	s0,1388(sp)
   179ca:	4405                	li	s0,1
   179cc:	478d                	li	a5,3
   179ce:	4585                	li	a1,1
   179d0:	03500693          	li	a3,53
   179d4:	470d                	li	a4,3
   179d6:	00000073          	ecall
   179da:	02950063          	beq	a0,s1,179fa <_start+0x6350>
   179de:	46f10223          	sb	a5,1124(sp)
   179e2:	6505                	lui	a0,0x1
   179e4:	459d                	li	a1,7
   179e6:	6d750513          	addi	a0,a0,1751 # 16d7 <.Lline_table_start1+0x14ac>
   179ea:	4605                	li	a2,1
   179ec:	4405                	li	s0,1
   179ee:	ffffa097          	auipc	ra,0xffffa
   179f2:	cae080e7          	jalr	-850(ra) # 1169c <_ZN9allow_pin7command17h1eb46760111c3605E>
   179f6:	8905                	andi	a0,a0,1
   179f8:	c119                	beqz	a0,179fe <_start+0x6354>
   179fa:	8b2e                	mv	s6,a1
   179fc:	a8a9                	j	17a56 <_start+0x63ac>
   179fe:	56c14703          	lbu	a4,1388(sp)
   17a02:	4789                	li	a5,2
   17a04:	00f71463          	bne	a4,a5,17a0c <_start+0x6362>
   17a08:	470d                	li	a4,3
   17a0a:	a839                	j	17a28 <_start+0x637e>
   17a0c:	6505                	lui	a0,0x1
   17a0e:	6d750513          	addi	a0,a0,1751 # 16d7 <.Lline_table_start1+0x14ac>
   17a12:	459d                	li	a1,7
   17a14:	4601                	li	a2,0
   17a16:	4681                	li	a3,0
   17a18:	00000073          	ecall
   17a1c:	46414703          	lbu	a4,1124(sp)
   17a20:	56f10623          	sb	a5,1388(sp)
   17a24:	00f70a63          	beq	a4,a5,17a38 <_start+0x638e>
   17a28:	6505                	lui	a0,0x1
   17a2a:	6d750513          	addi	a0,a0,1751 # 16d7 <.Lline_table_start1+0x14ac>
   17a2e:	4585                	li	a1,1
   17a30:	4601                	li	a2,0
   17a32:	4681                	li	a3,0
   17a34:	00000073          	ecall
   17a38:	00002297          	auipc	t0,0x2
   17a3c:	970282e7          	jalr	t0,-1680(t0) # 193a8 <OUTLINED_FUNCTION_5>
   17a40:	00002297          	auipc	t0,0x2
   17a44:	c24282e7          	jalr	t0,-988(t0) # 19664 <OUTLINED_FUNCTION_26>
   17a48:	02e00613          	li	a2,46
   17a4c:	00002097          	auipc	ra,0x2
   17a50:	f2e080e7          	jalr	-210(ra) # 1997a <memcpy>
   17a54:	4401                	li	s0,0
   17a56:	46414703          	lbu	a4,1124(sp)
   17a5a:	4789                	li	a5,2
   17a5c:	00f70a63          	beq	a4,a5,17a70 <_start+0x63c6>
   17a60:	6505                	lui	a0,0x1
   17a62:	6d750513          	addi	a0,a0,1751 # 16d7 <.Lline_table_start1+0x14ac>
   17a66:	4585                	li	a1,1
   17a68:	4601                	li	a2,0
   17a6a:	4681                	li	a3,0
   17a6c:	00000073          	ecall
   17a70:	56c14703          	lbu	a4,1388(sp)
   17a74:	00f70a63          	beq	a4,a5,17a88 <_start+0x63de>
   17a78:	6505                	lui	a0,0x1
   17a7a:	6d750513          	addi	a0,a0,1751 # 16d7 <.Lline_table_start1+0x14ac>
   17a7e:	459d                	li	a1,7
   17a80:	4601                	li	a2,0
   17a82:	4681                	li	a3,0
   17a84:	00000073          	ecall
   17a88:	c019                	beqz	s0,17a8e <_start+0x63e4>
   17a8a:	6a60106f          	j	19130 <_start+0x7a86>
   17a8e:	00002297          	auipc	t0,0x2
   17a92:	ba4282e7          	jalr	t0,-1116(t0) # 19632 <OUTLINED_FUNCTION_24>
   17a96:	51c10513          	addi	a0,sp,1308
   17a9a:	15ac                	addi	a1,sp,744
   17a9c:	02e00613          	li	a2,46
   17aa0:	00002097          	auipc	ra,0x2
   17aa4:	eda080e7          	jalr	-294(ra) # 1997a <memcpy>
   17aa8:	04a8                	addi	a0,sp,584
   17aaa:	51c10593          	addi	a1,sp,1308
   17aae:	02e00613          	li	a2,46
   17ab2:	00002097          	auipc	ra,0x2
   17ab6:	ec8080e7          	jalr	-312(ra) # 1997a <memcpy>
   17aba:	00002297          	auipc	t0,0x2
   17abe:	aba282e7          	jalr	t0,-1350(t0) # 19574 <OUTLINED_FUNCTION_17>
   17ac2:	03f00613          	li	a2,63
   17ac6:	854e                	mv	a0,s3
   17ac8:	4581                	li	a1,0
   17aca:	00002097          	auipc	ra,0x2
   17ace:	e44080e7          	jalr	-444(ra) # 1990e <memset>
   17ad2:	4581                	li	a1,0
   17ad4:	00002297          	auipc	t0,0x2
   17ad8:	dac282e7          	jalr	t0,-596(t0) # 19880 <OUTLINED_FUNCTION_50>
   17adc:	e5750793          	addi	a5,a0,-425
   17ae0:	03500693          	li	a3,53
   17ae4:	4711                	li	a4,4
   17ae6:	853e                	mv	a0,a5
   17ae8:	00000073          	ecall
   17aec:	02950c63          	beq	a0,s1,17b24 <_start+0x647a>
   17af0:	853e                	mv	a0,a5
   17af2:	864e                	mv	a2,s3
   17af4:	24810023          	sb	s0,576(sp)
   17af8:	478d                	li	a5,3
   17afa:	458d                	li	a1,3
   17afc:	03f00693          	li	a3,63
   17b00:	470d                	li	a4,3
   17b02:	00000073          	ecall
   17b06:	00950f63          	beq	a0,s1,17b24 <_start+0x647a>
   17b0a:	56f10623          	sb	a5,1388(sp)
   17b0e:	6505                	lui	a0,0x1
   17b10:	e5750513          	addi	a0,a0,-425 # e57 <.Lline_table_start1+0xc2c>
   17b14:	460d                	li	a2,3
   17b16:	4581                	li	a1,0
   17b18:	ffffa097          	auipc	ra,0xffffa
   17b1c:	b84080e7          	jalr	-1148(ra) # 1169c <_ZN9allow_pin7command17h1eb46760111c3605E>
   17b20:	8905                	andi	a0,a0,1
   17b22:	c501                	beqz	a0,17b2a <_start+0x6480>
   17b24:	8b2e                	mv	s6,a1
   17b26:	4785                	li	a5,1
   17b28:	a8a9                	j	17b82 <_start+0x64d8>
   17b2a:	24014703          	lbu	a4,576(sp)
   17b2e:	4789                	li	a5,2
   17b30:	00f71463          	bne	a4,a5,17b38 <_start+0x648e>
   17b34:	470d                	li	a4,3
   17b36:	a839                	j	17b54 <_start+0x64aa>
   17b38:	6505                	lui	a0,0x1
   17b3a:	e5750513          	addi	a0,a0,-425 # e57 <.Lline_table_start1+0xc2c>
   17b3e:	4581                	li	a1,0
   17b40:	4601                	li	a2,0
   17b42:	4681                	li	a3,0
   17b44:	00000073          	ecall
   17b48:	56c14703          	lbu	a4,1388(sp)
   17b4c:	24f10023          	sb	a5,576(sp)
   17b50:	00f70a63          	beq	a4,a5,17b64 <_start+0x64ba>
   17b54:	6505                	lui	a0,0x1
   17b56:	e5750513          	addi	a0,a0,-425 # e57 <.Lline_table_start1+0xc2c>
   17b5a:	458d                	li	a1,3
   17b5c:	4601                	li	a2,0
   17b5e:	4681                	li	a3,0
   17b60:	00000073          	ecall
   17b64:	00002297          	auipc	t0,0x2
   17b68:	812282e7          	jalr	t0,-2030(t0) # 19376 <OUTLINED_FUNCTION_4>
   17b6c:	00002297          	auipc	t0,0x2
   17b70:	b48282e7          	jalr	t0,-1208(t0) # 196b4 <OUTLINED_FUNCTION_29>
   17b74:	03800613          	li	a2,56
   17b78:	00002097          	auipc	ra,0x2
   17b7c:	e02080e7          	jalr	-510(ra) # 1997a <memcpy>
   17b80:	4781                	li	a5,0
   17b82:	56c14703          	lbu	a4,1388(sp)
   17b86:	4489                	li	s1,2
   17b88:	00970a63          	beq	a4,s1,17b9c <_start+0x64f2>
   17b8c:	6505                	lui	a0,0x1
   17b8e:	e5750513          	addi	a0,a0,-425 # e57 <.Lline_table_start1+0xc2c>
   17b92:	458d                	li	a1,3
   17b94:	4601                	li	a2,0
   17b96:	4681                	li	a3,0
   17b98:	00000073          	ecall
   17b9c:	24014703          	lbu	a4,576(sp)
   17ba0:	00970a63          	beq	a4,s1,17bb4 <_start+0x650a>
   17ba4:	6505                	lui	a0,0x1
   17ba6:	e5750513          	addi	a0,a0,-425 # e57 <.Lline_table_start1+0xc2c>
   17baa:	4581                	li	a1,0
   17bac:	4601                	li	a2,0
   17bae:	4681                	li	a3,0
   17bb0:	00000073          	ecall
   17bb4:	c399                	beqz	a5,17bba <_start+0x6510>
   17bb6:	57a0106f          	j	19130 <_start+0x7a86>
   17bba:	00002297          	auipc	t0,0x2
   17bbe:	adc282e7          	jalr	t0,-1316(t0) # 19696 <OUTLINED_FUNCTION_28>
   17bc2:	0f28                	addi	a0,sp,920
   17bc4:	46410593          	addi	a1,sp,1124
   17bc8:	03800613          	li	a2,56
   17bcc:	00002097          	auipc	ra,0x2
   17bd0:	dae080e7          	jalr	-594(ra) # 1997a <memcpy>
   17bd4:	00002297          	auipc	t0,0x2
   17bd8:	88e282e7          	jalr	t0,-1906(t0) # 19462 <OUTLINED_FUNCTION_9>
   17bdc:	57410513          	addi	a0,sp,1396
   17be0:	0f2c                	addi	a1,sp,920
   17be2:	03800613          	li	a2,56
   17be6:	00002097          	auipc	ra,0x2
   17bea:	d94080e7          	jalr	-620(ra) # 1997a <memcpy>
   17bee:	4645                	li	a2,17
   17bf0:	854a                	mv	a0,s2
   17bf2:	4581                	li	a1,0
   17bf4:	00002097          	auipc	ra,0x2
   17bf8:	d1a080e7          	jalr	-742(ra) # 1990e <memset>
   17bfc:	00002297          	auipc	t0,0x2
   17c00:	c90282e7          	jalr	t0,-880(t0) # 1988c <OUTLINED_FUNCTION_51>
   17c04:	4591                	li	a1,4
   17c06:	4d750793          	addi	a5,a0,1239
   17c0a:	03f00693          	li	a3,63
   17c0e:	4711                	li	a4,4
   17c10:	853e                	mv	a0,a5
   17c12:	00000073          	ecall
   17c16:	02850963          	beq	a0,s0,17c48 <_start+0x659e>
   17c1a:	00002297          	auipc	t0,0x2
   17c1e:	c58282e7          	jalr	t0,-936(t0) # 19872 <OUTLINED_FUNCTION_49>
   17c22:	46c5                	li	a3,17
   17c24:	470d                	li	a4,3
   17c26:	00000073          	ecall
   17c2a:	00850f63          	beq	a0,s0,17c48 <_start+0x659e>
   17c2e:	46f10223          	sb	a5,1124(sp)
   17c32:	6505                	lui	a0,0x1
   17c34:	4591                	li	a1,4
   17c36:	4d750513          	addi	a0,a0,1239 # 14d7 <.Lline_table_start1+0x12ac>
   17c3a:	460d                	li	a2,3
   17c3c:	ffffa097          	auipc	ra,0xffffa
   17c40:	a60080e7          	jalr	-1440(ra) # 1169c <_ZN9allow_pin7command17h1eb46760111c3605E>
   17c44:	8905                	andi	a0,a0,1
   17c46:	c501                	beqz	a0,17c4e <_start+0x65a4>
   17c48:	8b2e                	mv	s6,a1
   17c4a:	4e05                	li	t3,1
   17c4c:	a8d1                	j	17d20 <_start+0x6676>
   17c4e:	56c14703          	lbu	a4,1388(sp)
   17c52:	4789                	li	a5,2
   17c54:	00f71463          	bne	a4,a5,17c5c <_start+0x65b2>
   17c58:	470d                	li	a4,3
   17c5a:	a839                	j	17c78 <_start+0x65ce>
   17c5c:	6505                	lui	a0,0x1
   17c5e:	4d750513          	addi	a0,a0,1239 # 14d7 <.Lline_table_start1+0x12ac>
   17c62:	4591                	li	a1,4
   17c64:	4601                	li	a2,0
   17c66:	4681                	li	a3,0
   17c68:	00000073          	ecall
   17c6c:	46414703          	lbu	a4,1124(sp)
   17c70:	56f10623          	sb	a5,1388(sp)
   17c74:	00f70a63          	beq	a4,a5,17c88 <_start+0x65de>
   17c78:	6505                	lui	a0,0x1
   17c7a:	4d750513          	addi	a0,a0,1239 # 14d7 <.Lline_table_start1+0x12ac>
   17c7e:	458d                	li	a1,3
   17c80:	4601                	li	a2,0
   17c82:	4681                	li	a3,0
   17c84:	00000073          	ecall
   17c88:	4e01                	li	t3,0
   17c8a:	4809                	li	a6,2
   17c8c:	00094283          	lbu	t0,0(s2)
   17c90:	00194303          	lbu	t1,1(s2)
   17c94:	00294883          	lbu	a7,2(s2)
   17c98:	46814383          	lbu	t2,1128(sp)
   17c9c:	47514e83          	lbu	t4,1141(sp)
   17ca0:	47114f03          	lbu	t5,1137(sp)
   17ca4:	47214f83          	lbu	t6,1138(sp)
   17ca8:	47314a03          	lbu	s4,1139(sp)
   17cac:	47414603          	lbu	a2,1140(sp)
   17cb0:	47010223          	sb	a6,1124(sp)
   17cb4:	46914683          	lbu	a3,1129(sp)
   17cb8:	46a14703          	lbu	a4,1130(sp)
   17cbc:	46b14783          	lbu	a5,1131(sp)
   17cc0:	46c14483          	lbu	s1,1132(sp)
   17cc4:	0322                	slli	t1,t1,0x8
   17cc6:	06a2                	slli	a3,a3,0x8
   17cc8:	0742                	slli	a4,a4,0x10
   17cca:	07e2                	slli	a5,a5,0x18
   17ccc:	0ea2                	slli	t4,t4,0x8
   17cce:	00536433          	or	s0,t1,t0
   17cd2:	0076e6b3          	or	a3,a3,t2
   17cd6:	8f5d                	or	a4,a4,a5
   17cd8:	00cee833          	or	a6,t4,a2
   17cdc:	46d14783          	lbu	a5,1133(sp)
   17ce0:	46e14583          	lbu	a1,1134(sp)
   17ce4:	46f14503          	lbu	a0,1135(sp)
   17ce8:	47014603          	lbu	a2,1136(sp)
   17cec:	07a2                	slli	a5,a5,0x8
   17cee:	8fc5                	or	a5,a5,s1
   17cf0:	05c2                	slli	a1,a1,0x10
   17cf2:	0562                	slli	a0,a0,0x18
   17cf4:	8d4d                	or	a0,a0,a1
   17cf6:	0f22                	slli	t5,t5,0x8
   17cf8:	00cf65b3          	or	a1,t5,a2
   17cfc:	0fc2                	slli	t6,t6,0x10
   17cfe:	0a62                	slli	s4,s4,0x18
   17d00:	01fa6633          	or	a2,s4,t6
   17d04:	44811623          	sh	s0,1100(sp)
   17d08:	45110723          	sb	a7,1102(sp)
   17d0c:	00d76b33          	or	s6,a4,a3
   17d10:	8d5d                	or	a0,a0,a5
   17d12:	8dd1                	or	a1,a1,a2
   17d14:	2ea12423          	sw	a0,744(sp)
   17d18:	2eb12623          	sw	a1,748(sp)
   17d1c:	2f011823          	sh	a6,752(sp)
   17d20:	46414703          	lbu	a4,1124(sp)
   17d24:	4489                	li	s1,2
   17d26:	00970a63          	beq	a4,s1,17d3a <_start+0x6690>
   17d2a:	6505                	lui	a0,0x1
   17d2c:	4d750513          	addi	a0,a0,1239 # 14d7 <.Lline_table_start1+0x12ac>
   17d30:	458d                	li	a1,3
   17d32:	4601                	li	a2,0
   17d34:	4681                	li	a3,0
   17d36:	00000073          	ecall
   17d3a:	56c14703          	lbu	a4,1388(sp)
   17d3e:	00970a63          	beq	a4,s1,17d52 <_start+0x66a8>
   17d42:	6505                	lui	a0,0x1
   17d44:	4d750513          	addi	a0,a0,1239 # 14d7 <.Lline_table_start1+0x12ac>
   17d48:	4591                	li	a1,4
   17d4a:	4601                	li	a2,0
   17d4c:	4681                	li	a3,0
   17d4e:	00000073          	ecall
   17d52:	000e0463          	beqz	t3,17d5a <_start+0x66b0>
   17d56:	3da0106f          	j	19130 <_start+0x7a86>
   17d5a:	00002297          	auipc	t0,0x2
   17d5e:	a72282e7          	jalr	t0,-1422(t0) # 197cc <OUTLINED_FUNCTION_40>
   17d62:	2e812683          	lw	a3,744(sp)
   17d66:	2ec12703          	lw	a4,748(sp)
   17d6a:	2f011783          	lh	a5,752(sp)
   17d6e:	00002297          	auipc	t0,0x2
   17d72:	ae2282e7          	jalr	t0,-1310(t0) # 19850 <OUTLINED_FUNCTION_46>
   17d76:	24110413          	addi	s0,sp,577
   17d7a:	50d12e23          	sw	a3,1308(sp)
   17d7e:	52e12023          	sw	a4,1312(sp)
   17d82:	52f11223          	sh	a5,1316(sp)
   17d86:	04a8                	addi	a0,sp,584
   17d88:	51c10593          	addi	a1,sp,1308
   17d8c:	4629                	li	a2,10
   17d8e:	00002097          	auipc	ra,0x2
   17d92:	bec080e7          	jalr	-1044(ra) # 1997a <memcpy>
   17d96:	00001297          	auipc	t0,0x1
   17d9a:	7de282e7          	jalr	t0,2014(t0) # 19574 <OUTLINED_FUNCTION_17>
   17d9e:	03f00613          	li	a2,63
   17da2:	854e                	mv	a0,s3
   17da4:	4581                	li	a1,0
   17da6:	00002097          	auipc	ra,0x2
   17daa:	b68080e7          	jalr	-1176(ra) # 1990e <memset>
   17dae:	00002297          	auipc	t0,0x2
   17db2:	ad2282e7          	jalr	t0,-1326(t0) # 19880 <OUTLINED_FUNCTION_50>
   17db6:	459d                	li	a1,7
   17db8:	cb050793          	addi	a5,a0,-848
   17dbc:	46c5                	li	a3,17
   17dbe:	4711                	li	a4,4
   17dc0:	853e                	mv	a0,a5
   17dc2:	00000073          	ecall
   17dc6:	02950c63          	beq	a0,s1,17dfe <_start+0x6754>
   17dca:	853e                	mv	a0,a5
   17dcc:	864e                	mv	a2,s3
   17dce:	24810023          	sb	s0,576(sp)
   17dd2:	478d                	li	a5,3
   17dd4:	4591                	li	a1,4
   17dd6:	03f00693          	li	a3,63
   17dda:	470d                	li	a4,3
   17ddc:	00000073          	ecall
   17de0:	00950f63          	beq	a0,s1,17dfe <_start+0x6754>
   17de4:	56f10623          	sb	a5,1388(sp)
   17de8:	6505                	lui	a0,0x1
   17dea:	459d                	li	a1,7
   17dec:	cb050513          	addi	a0,a0,-848 # cb0 <.Lline_table_start1+0xa85>
   17df0:	4611                	li	a2,4
   17df2:	ffffa097          	auipc	ra,0xffffa
   17df6:	8aa080e7          	jalr	-1878(ra) # 1169c <_ZN9allow_pin7command17h1eb46760111c3605E>
   17dfa:	8905                	andi	a0,a0,1
   17dfc:	c501                	beqz	a0,17e04 <_start+0x675a>
   17dfe:	8b2e                	mv	s6,a1
   17e00:	4785                	li	a5,1
   17e02:	a8a9                	j	17e5c <_start+0x67b2>
   17e04:	24014703          	lbu	a4,576(sp)
   17e08:	4789                	li	a5,2
   17e0a:	00f71463          	bne	a4,a5,17e12 <_start+0x6768>
   17e0e:	470d                	li	a4,3
   17e10:	a839                	j	17e2e <_start+0x6784>
   17e12:	6505                	lui	a0,0x1
   17e14:	cb050513          	addi	a0,a0,-848 # cb0 <.Lline_table_start1+0xa85>
   17e18:	459d                	li	a1,7
   17e1a:	4601                	li	a2,0
   17e1c:	4681                	li	a3,0
   17e1e:	00000073          	ecall
   17e22:	56c14703          	lbu	a4,1388(sp)
   17e26:	24f10023          	sb	a5,576(sp)
   17e2a:	00f70a63          	beq	a4,a5,17e3e <_start+0x6794>
   17e2e:	6505                	lui	a0,0x1
   17e30:	cb050513          	addi	a0,a0,-848 # cb0 <.Lline_table_start1+0xa85>
   17e34:	4591                	li	a1,4
   17e36:	4601                	li	a2,0
   17e38:	4681                	li	a3,0
   17e3a:	00000073          	ecall
   17e3e:	00001297          	auipc	t0,0x1
   17e42:	538282e7          	jalr	t0,1336(t0) # 19376 <OUTLINED_FUNCTION_4>
   17e46:	00002297          	auipc	t0,0x2
   17e4a:	86e282e7          	jalr	t0,-1938(t0) # 196b4 <OUTLINED_FUNCTION_29>
   17e4e:	03800613          	li	a2,56
   17e52:	00002097          	auipc	ra,0x2
   17e56:	b28080e7          	jalr	-1240(ra) # 1997a <memcpy>
   17e5a:	4781                	li	a5,0
   17e5c:	56c14703          	lbu	a4,1388(sp)
   17e60:	4489                	li	s1,2
   17e62:	00970a63          	beq	a4,s1,17e76 <_start+0x67cc>
   17e66:	6505                	lui	a0,0x1
   17e68:	cb050513          	addi	a0,a0,-848 # cb0 <.Lline_table_start1+0xa85>
   17e6c:	4591                	li	a1,4
   17e6e:	4601                	li	a2,0
   17e70:	4681                	li	a3,0
   17e72:	00000073          	ecall
   17e76:	24014703          	lbu	a4,576(sp)
   17e7a:	00970a63          	beq	a4,s1,17e8e <_start+0x67e4>
   17e7e:	6505                	lui	a0,0x1
   17e80:	cb050513          	addi	a0,a0,-848 # cb0 <.Lline_table_start1+0xa85>
   17e84:	459d                	li	a1,7
   17e86:	4601                	li	a2,0
   17e88:	4681                	li	a3,0
   17e8a:	00000073          	ecall
   17e8e:	c399                	beqz	a5,17e94 <_start+0x67ea>
   17e90:	2a00106f          	j	19130 <_start+0x7a86>
   17e94:	00002297          	auipc	t0,0x2
   17e98:	802282e7          	jalr	t0,-2046(t0) # 19696 <OUTLINED_FUNCTION_28>
   17e9c:	0f88                	addi	a0,sp,976
   17e9e:	46410593          	addi	a1,sp,1124
   17ea2:	03800613          	li	a2,56
   17ea6:	00002097          	auipc	ra,0x2
   17eaa:	ad4080e7          	jalr	-1324(ra) # 1997a <memcpy>
   17eae:	00001297          	auipc	t0,0x1
   17eb2:	5b4282e7          	jalr	t0,1460(t0) # 19462 <OUTLINED_FUNCTION_9>
   17eb6:	57410513          	addi	a0,sp,1396
   17eba:	0f8c                	addi	a1,sp,976
   17ebc:	03800613          	li	a2,56
   17ec0:	00002097          	auipc	ra,0x2
   17ec4:	aba080e7          	jalr	-1350(ra) # 1997a <memcpy>
   17ec8:	4671                	li	a2,28
   17eca:	854a                	mv	a0,s2
   17ecc:	4581                	li	a1,0
   17ece:	00002097          	auipc	ra,0x2
   17ed2:	a40080e7          	jalr	-1472(ra) # 1990e <memset>
   17ed6:	00002297          	auipc	t0,0x2
   17eda:	9b6282e7          	jalr	t0,-1610(t0) # 1988c <OUTLINED_FUNCTION_51>
   17ede:	4595                	li	a1,5
   17ee0:	69450793          	addi	a5,a0,1684
   17ee4:	03f00693          	li	a3,63
   17ee8:	4711                	li	a4,4
   17eea:	853e                	mv	a0,a5
   17eec:	00000073          	ecall
   17ef0:	02850b63          	beq	a0,s0,17f26 <_start+0x687c>
   17ef4:	853e                	mv	a0,a5
   17ef6:	864a                	mv	a2,s2
   17ef8:	56910623          	sb	s1,1388(sp)
   17efc:	478d                	li	a5,3
   17efe:	45a5                	li	a1,9
   17f00:	46f1                	li	a3,28
   17f02:	470d                	li	a4,3
   17f04:	00000073          	ecall
   17f08:	00850f63          	beq	a0,s0,17f26 <_start+0x687c>
   17f0c:	46f10223          	sb	a5,1124(sp)
   17f10:	6505                	lui	a0,0x1
   17f12:	4595                	li	a1,5
   17f14:	69450513          	addi	a0,a0,1684 # 1694 <.Lline_table_start1+0x1469>
   17f18:	4625                	li	a2,9
   17f1a:	ffff9097          	auipc	ra,0xffff9
   17f1e:	782080e7          	jalr	1922(ra) # 1169c <_ZN9allow_pin7command17h1eb46760111c3605E>
   17f22:	8905                	andi	a0,a0,1
   17f24:	c501                	beqz	a0,17f2c <_start+0x6882>
   17f26:	8b2e                	mv	s6,a1
   17f28:	4785                	li	a5,1
   17f2a:	a8a1                	j	17f82 <_start+0x68d8>
   17f2c:	56c14703          	lbu	a4,1388(sp)
   17f30:	4789                	li	a5,2
   17f32:	00f71463          	bne	a4,a5,17f3a <_start+0x6890>
   17f36:	470d                	li	a4,3
   17f38:	a839                	j	17f56 <_start+0x68ac>
   17f3a:	6505                	lui	a0,0x1
   17f3c:	69450513          	addi	a0,a0,1684 # 1694 <.Lline_table_start1+0x1469>
   17f40:	4595                	li	a1,5
   17f42:	4601                	li	a2,0
   17f44:	4681                	li	a3,0
   17f46:	00000073          	ecall
   17f4a:	46414703          	lbu	a4,1124(sp)
   17f4e:	56f10623          	sb	a5,1388(sp)
   17f52:	00f70a63          	beq	a4,a5,17f66 <_start+0x68bc>
   17f56:	6505                	lui	a0,0x1
   17f58:	69450513          	addi	a0,a0,1684 # 1694 <.Lline_table_start1+0x1469>
   17f5c:	45a5                	li	a1,9
   17f5e:	4601                	li	a2,0
   17f60:	4681                	li	a3,0
   17f62:	00000073          	ecall
   17f66:	00001297          	auipc	t0,0x1
   17f6a:	442282e7          	jalr	t0,1090(t0) # 193a8 <OUTLINED_FUNCTION_5>
   17f6e:	00001297          	auipc	t0,0x1
   17f72:	6f6282e7          	jalr	t0,1782(t0) # 19664 <OUTLINED_FUNCTION_26>
   17f76:	4655                	li	a2,21
   17f78:	00002097          	auipc	ra,0x2
   17f7c:	a02080e7          	jalr	-1534(ra) # 1997a <memcpy>
   17f80:	4781                	li	a5,0
   17f82:	46414703          	lbu	a4,1124(sp)
   17f86:	4489                	li	s1,2
   17f88:	00970a63          	beq	a4,s1,17f9c <_start+0x68f2>
   17f8c:	6505                	lui	a0,0x1
   17f8e:	69450513          	addi	a0,a0,1684 # 1694 <.Lline_table_start1+0x1469>
   17f92:	45a5                	li	a1,9
   17f94:	4601                	li	a2,0
   17f96:	4681                	li	a3,0
   17f98:	00000073          	ecall
   17f9c:	56c14703          	lbu	a4,1388(sp)
   17fa0:	00970a63          	beq	a4,s1,17fb4 <_start+0x690a>
   17fa4:	6505                	lui	a0,0x1
   17fa6:	69450513          	addi	a0,a0,1684 # 1694 <.Lline_table_start1+0x1469>
   17faa:	4595                	li	a1,5
   17fac:	4601                	li	a2,0
   17fae:	4681                	li	a3,0
   17fb0:	00000073          	ecall
   17fb4:	c399                	beqz	a5,17fba <_start+0x6910>
   17fb6:	17a0106f          	j	19130 <_start+0x7a86>
   17fba:	00001297          	auipc	t0,0x1
   17fbe:	538282e7          	jalr	t0,1336(t0) # 194f2 <OUTLINED_FUNCTION_13>
   17fc2:	4655                	li	a2,21
   17fc4:	00002097          	auipc	ra,0x2
   17fc8:	9b6080e7          	jalr	-1610(ra) # 1997a <memcpy>
   17fcc:	52410513          	addi	a0,sp,1316
   17fd0:	048c                	addi	a1,sp,576
   17fd2:	4655                	li	a2,21
   17fd4:	00002097          	auipc	ra,0x2
   17fd8:	9a6080e7          	jalr	-1626(ra) # 1997a <memcpy>
   17fdc:	00001297          	auipc	t0,0x1
   17fe0:	4ce282e7          	jalr	t0,1230(t0) # 194aa <OUTLINED_FUNCTION_11>
   17fe4:	05d00613          	li	a2,93
   17fe8:	854e                	mv	a0,s3
   17fea:	4581                	li	a1,0
   17fec:	00002097          	auipc	ra,0x2
   17ff0:	922080e7          	jalr	-1758(ra) # 1990e <memset>
   17ff4:	00002297          	auipc	t0,0x2
   17ff8:	88c282e7          	jalr	t0,-1908(t0) # 19880 <OUTLINED_FUNCTION_50>
   17ffc:	45a1                	li	a1,8
   17ffe:	c3e50793          	addi	a5,a0,-962
   18002:	46f1                	li	a3,28
   18004:	4711                	li	a4,4
   18006:	853e                	mv	a0,a5
   18008:	00000073          	ecall
   1800c:	02950b63          	beq	a0,s1,18042 <_start+0x6998>
   18010:	00002297          	auipc	t0,0x2
   18014:	8ce282e7          	jalr	t0,-1842(t0) # 198de <OUTLINED_FUNCTION_57>
   18018:	4595                	li	a1,5
   1801a:	05d00693          	li	a3,93
   1801e:	470d                	li	a4,3
   18020:	00000073          	ecall
   18024:	00950f63          	beq	a0,s1,18042 <_start+0x6998>
   18028:	56f10623          	sb	a5,1388(sp)
   1802c:	6505                	lui	a0,0x1
   1802e:	45a1                	li	a1,8
   18030:	c3e50513          	addi	a0,a0,-962 # c3e <.Lline_table_start1+0xa13>
   18034:	4615                	li	a2,5
   18036:	ffff9097          	auipc	ra,0xffff9
   1803a:	666080e7          	jalr	1638(ra) # 1169c <_ZN9allow_pin7command17h1eb46760111c3605E>
   1803e:	8905                	andi	a0,a0,1
   18040:	c501                	beqz	a0,18048 <_start+0x699e>
   18042:	8b2e                	mv	s6,a1
   18044:	4785                	li	a5,1
   18046:	a8a9                	j	180a0 <_start+0x69f6>
   18048:	51c14703          	lbu	a4,1308(sp)
   1804c:	4789                	li	a5,2
   1804e:	00f71463          	bne	a4,a5,18056 <_start+0x69ac>
   18052:	470d                	li	a4,3
   18054:	a839                	j	18072 <_start+0x69c8>
   18056:	6505                	lui	a0,0x1
   18058:	c3e50513          	addi	a0,a0,-962 # c3e <.Lline_table_start1+0xa13>
   1805c:	45a1                	li	a1,8
   1805e:	4601                	li	a2,0
   18060:	4681                	li	a3,0
   18062:	00000073          	ecall
   18066:	56c14703          	lbu	a4,1388(sp)
   1806a:	50f10e23          	sb	a5,1308(sp)
   1806e:	00f70a63          	beq	a4,a5,18082 <_start+0x69d8>
   18072:	6505                	lui	a0,0x1
   18074:	c3e50513          	addi	a0,a0,-962 # c3e <.Lline_table_start1+0xa13>
   18078:	4595                	li	a1,5
   1807a:	4601                	li	a2,0
   1807c:	4681                	li	a3,0
   1807e:	00000073          	ecall
   18082:	00001297          	auipc	t0,0x1
   18086:	6a2282e7          	jalr	t0,1698(t0) # 19724 <OUTLINED_FUNCTION_33>
   1808a:	00001297          	auipc	t0,0x1
   1808e:	208282e7          	jalr	t0,520(t0) # 19292 <OUTLINED_FUNCTION_0>
   18092:	05600613          	li	a2,86
   18096:	00002097          	auipc	ra,0x2
   1809a:	8e4080e7          	jalr	-1820(ra) # 1997a <memcpy>
   1809e:	4781                	li	a5,0
   180a0:	56c14703          	lbu	a4,1388(sp)
   180a4:	4489                	li	s1,2
   180a6:	00970a63          	beq	a4,s1,180ba <_start+0x6a10>
   180aa:	6505                	lui	a0,0x1
   180ac:	c3e50513          	addi	a0,a0,-962 # c3e <.Lline_table_start1+0xa13>
   180b0:	4595                	li	a1,5
   180b2:	4601                	li	a2,0
   180b4:	4681                	li	a3,0
   180b6:	00000073          	ecall
   180ba:	51c14703          	lbu	a4,1308(sp)
   180be:	00970a63          	beq	a4,s1,180d2 <_start+0x6a28>
   180c2:	6505                	lui	a0,0x1
   180c4:	c3e50513          	addi	a0,a0,-962 # c3e <.Lline_table_start1+0xa13>
   180c8:	45a1                	li	a1,8
   180ca:	4601                	li	a2,0
   180cc:	4681                	li	a3,0
   180ce:	00000073          	ecall
   180d2:	c399                	beqz	a5,180d8 <_start+0x6a2e>
   180d4:	05c0106f          	j	19130 <_start+0x7a86>
   180d8:	00001297          	auipc	t0,0x1
   180dc:	45a282e7          	jalr	t0,1114(t0) # 19532 <OUTLINED_FUNCTION_15>
   180e0:	46410513          	addi	a0,sp,1124
   180e4:	048c                	addi	a1,sp,576
   180e6:	05600613          	li	a2,86
   180ea:	00002097          	auipc	ra,0x2
   180ee:	890080e7          	jalr	-1904(ra) # 1997a <memcpy>
   180f2:	57410513          	addi	a0,sp,1396
   180f6:	46410593          	addi	a1,sp,1124
   180fa:	05600613          	li	a2,86
   180fe:	00002097          	auipc	ra,0x2
   18102:	87c080e7          	jalr	-1924(ra) # 1997a <memcpy>
   18106:	00001297          	auipc	t0,0x1
   1810a:	35c282e7          	jalr	t0,860(t0) # 19462 <OUTLINED_FUNCTION_9>
   1810e:	4649                	li	a2,18
   18110:	854a                	mv	a0,s2
   18112:	4581                	li	a1,0
   18114:	00001097          	auipc	ra,0x1
   18118:	7fa080e7          	jalr	2042(ra) # 1990e <memset>
   1811c:	4581                	li	a1,0
   1811e:	00001297          	auipc	t0,0x1
   18122:	76e282e7          	jalr	t0,1902(t0) # 1988c <OUTLINED_FUNCTION_51>
   18126:	5f150793          	addi	a5,a0,1521
   1812a:	05d00693          	li	a3,93
   1812e:	4711                	li	a4,4
   18130:	853e                	mv	a0,a5
   18132:	00000073          	ecall
   18136:	02850c63          	beq	a0,s0,1816e <_start+0x6ac4>
   1813a:	853e                	mv	a0,a5
   1813c:	864a                	mv	a2,s2
   1813e:	56910623          	sb	s1,1388(sp)
   18142:	478d                	li	a5,3
   18144:	4589                	li	a1,2
   18146:	46c9                	li	a3,18
   18148:	470d                	li	a4,3
   1814a:	00000073          	ecall
   1814e:	02850063          	beq	a0,s0,1816e <_start+0x6ac4>
   18152:	46f10223          	sb	a5,1124(sp)
   18156:	6505                	lui	a0,0x1
   18158:	5f150513          	addi	a0,a0,1521 # 15f1 <.Lline_table_start1+0x13c6>
   1815c:	4609                	li	a2,2
   1815e:	4409                	li	s0,2
   18160:	4581                	li	a1,0
   18162:	ffff9097          	auipc	ra,0xffff9
   18166:	53a080e7          	jalr	1338(ra) # 1169c <_ZN9allow_pin7command17h1eb46760111c3605E>
   1816a:	8905                	andi	a0,a0,1
   1816c:	c501                	beqz	a0,18174 <_start+0x6aca>
   1816e:	8b2e                	mv	s6,a1
   18170:	4e85                	li	t4,1
   18172:	a8e9                	j	1824c <_start+0x6ba2>
   18174:	56c14703          	lbu	a4,1388(sp)
   18178:	00871463          	bne	a4,s0,18180 <_start+0x6ad6>
   1817c:	470d                	li	a4,3
   1817e:	a839                	j	1819c <_start+0x6af2>
   18180:	6505                	lui	a0,0x1
   18182:	5f150513          	addi	a0,a0,1521 # 15f1 <.Lline_table_start1+0x13c6>
   18186:	4581                	li	a1,0
   18188:	4601                	li	a2,0
   1818a:	4681                	li	a3,0
   1818c:	00000073          	ecall
   18190:	00001297          	auipc	t0,0x1
   18194:	708282e7          	jalr	t0,1800(t0) # 19898 <OUTLINED_FUNCTION_52>
   18198:	00a70a63          	beq	a4,a0,181ac <_start+0x6b02>
   1819c:	6505                	lui	a0,0x1
   1819e:	5f150513          	addi	a0,a0,1521 # 15f1 <.Lline_table_start1+0x13c6>
   181a2:	4589                	li	a1,2
   181a4:	4601                	li	a2,0
   181a6:	4681                	li	a3,0
   181a8:	00000073          	ecall
   181ac:	4e81                	li	t4,0
   181ae:	4809                	li	a6,2
   181b0:	00094303          	lbu	t1,0(s2)
   181b4:	00194383          	lbu	t2,1(s2)
   181b8:	00294883          	lbu	a7,2(s2)
   181bc:	46814e03          	lbu	t3,1128(sp)
   181c0:	47514f03          	lbu	t5,1141(sp)
   181c4:	47614283          	lbu	t0,1142(sp)
   181c8:	47114f83          	lbu	t6,1137(sp)
   181cc:	47214a03          	lbu	s4,1138(sp)
   181d0:	47314a83          	lbu	s5,1139(sp)
   181d4:	47414683          	lbu	a3,1140(sp)
   181d8:	47010223          	sb	a6,1124(sp)
   181dc:	46914703          	lbu	a4,1129(sp)
   181e0:	46a14483          	lbu	s1,1130(sp)
   181e4:	46b14783          	lbu	a5,1131(sp)
   181e8:	46c14403          	lbu	s0,1132(sp)
   181ec:	03a2                	slli	t2,t2,0x8
   181ee:	0722                	slli	a4,a4,0x8
   181f0:	04c2                	slli	s1,s1,0x10
   181f2:	07e2                	slli	a5,a5,0x18
   181f4:	0f22                	slli	t5,t5,0x8
   181f6:	0063e633          	or	a2,t2,t1
   181fa:	01c76733          	or	a4,a4,t3
   181fe:	8fc5                	or	a5,a5,s1
   18200:	00df6833          	or	a6,t5,a3
   18204:	46d14483          	lbu	s1,1133(sp)
   18208:	46e14503          	lbu	a0,1134(sp)
   1820c:	46f14583          	lbu	a1,1135(sp)
   18210:	47014683          	lbu	a3,1136(sp)
   18214:	04a2                	slli	s1,s1,0x8
   18216:	8c45                	or	s0,s0,s1
   18218:	0542                	slli	a0,a0,0x10
   1821a:	05e2                	slli	a1,a1,0x18
   1821c:	8d4d                	or	a0,a0,a1
   1821e:	0fa2                	slli	t6,t6,0x8
   18220:	00dfe5b3          	or	a1,t6,a3
   18224:	0a42                	slli	s4,s4,0x10
   18226:	0ae2                	slli	s5,s5,0x18
   18228:	014ae6b3          	or	a3,s5,s4
   1822c:	44c11623          	sh	a2,1100(sp)
   18230:	45110723          	sb	a7,1102(sp)
   18234:	00e7eb33          	or	s6,a5,a4
   18238:	8d41                	or	a0,a0,s0
   1823a:	8dd5                	or	a1,a1,a3
   1823c:	2ea12423          	sw	a0,744(sp)
   18240:	2eb12623          	sw	a1,748(sp)
   18244:	2f011823          	sh	a6,752(sp)
   18248:	2e510923          	sb	t0,754(sp)
   1824c:	46414703          	lbu	a4,1124(sp)
   18250:	4489                	li	s1,2
   18252:	00970a63          	beq	a4,s1,18266 <_start+0x6bbc>
   18256:	6505                	lui	a0,0x1
   18258:	5f150513          	addi	a0,a0,1521 # 15f1 <.Lline_table_start1+0x13c6>
   1825c:	4589                	li	a1,2
   1825e:	4601                	li	a2,0
   18260:	4681                	li	a3,0
   18262:	00000073          	ecall
   18266:	56c14703          	lbu	a4,1388(sp)
   1826a:	00970a63          	beq	a4,s1,1827e <_start+0x6bd4>
   1826e:	6505                	lui	a0,0x1
   18270:	5f150513          	addi	a0,a0,1521 # 15f1 <.Lline_table_start1+0x13c6>
   18274:	4581                	li	a1,0
   18276:	4601                	li	a2,0
   18278:	4681                	li	a3,0
   1827a:	00000073          	ecall
   1827e:	000e8463          	beqz	t4,18286 <_start+0x6bdc>
   18282:	6af0006f          	j	19130 <_start+0x7a86>
   18286:	00001297          	auipc	t0,0x1
   1828a:	546282e7          	jalr	t0,1350(t0) # 197cc <OUTLINED_FUNCTION_40>
   1828e:	51d10413          	addi	s0,sp,1309
   18292:	00001297          	auipc	t0,0x1
   18296:	548282e7          	jalr	t0,1352(t0) # 197da <OUTLINED_FUNCTION_41>
   1829a:	2e812503          	lw	a0,744(sp)
   1829e:	2ec12583          	lw	a1,748(sp)
   182a2:	2f011603          	lh	a2,752(sp)
   182a6:	2f214683          	lbu	a3,754(sp)
   182aa:	24a12023          	sw	a0,576(sp)
   182ae:	24b12223          	sw	a1,580(sp)
   182b2:	24c11423          	sh	a2,584(sp)
   182b6:	24d10523          	sb	a3,586(sp)
   182ba:	52410513          	addi	a0,sp,1316
   182be:	048c                	addi	a1,sp,576
   182c0:	462d                	li	a2,11
   182c2:	00001097          	auipc	ra,0x1
   182c6:	6b8080e7          	jalr	1720(ra) # 1997a <memcpy>
   182ca:	00001297          	auipc	t0,0x1
   182ce:	1e0282e7          	jalr	t0,480(t0) # 194aa <OUTLINED_FUNCTION_11>
   182d2:	04400613          	li	a2,68
   182d6:	854e                	mv	a0,s3
   182d8:	4581                	li	a1,0
   182da:	00001097          	auipc	ra,0x1
   182de:	634080e7          	jalr	1588(ra) # 1990e <memset>
   182e2:	00001297          	auipc	t0,0x1
   182e6:	620282e7          	jalr	t0,1568(t0) # 19902 <OUTLINED_FUNCTION_60>
   182ea:	4589                	li	a1,2
   182ec:	43250793          	addi	a5,a0,1074
   182f0:	46c9                	li	a3,18
   182f2:	4711                	li	a4,4
   182f4:	853e                	mv	a0,a5
   182f6:	00000073          	ecall
   182fa:	02950c63          	beq	a0,s1,18332 <_start+0x6c88>
   182fe:	00001297          	auipc	t0,0x1
   18302:	5e0282e7          	jalr	t0,1504(t0) # 198de <OUTLINED_FUNCTION_57>
   18306:	45a5                	li	a1,9
   18308:	04400693          	li	a3,68
   1830c:	470d                	li	a4,3
   1830e:	00000073          	ecall
   18312:	02950063          	beq	a0,s1,18332 <_start+0x6c88>
   18316:	56f10623          	sb	a5,1388(sp)
   1831a:	6509                	lui	a0,0x2
   1831c:	4589                	li	a1,2
   1831e:	43250513          	addi	a0,a0,1074 # 2432 <.Lline_table_start1+0x2207>
   18322:	4625                	li	a2,9
   18324:	4409                	li	s0,2
   18326:	ffff9097          	auipc	ra,0xffff9
   1832a:	376080e7          	jalr	886(ra) # 1169c <_ZN9allow_pin7command17h1eb46760111c3605E>
   1832e:	8905                	andi	a0,a0,1
   18330:	c501                	beqz	a0,18338 <_start+0x6c8e>
   18332:	8b2e                	mv	s6,a1
   18334:	4785                	li	a5,1
   18336:	a8a9                	j	18390 <_start+0x6ce6>
   18338:	51c14703          	lbu	a4,1308(sp)
   1833c:	00871463          	bne	a4,s0,18344 <_start+0x6c9a>
   18340:	470d                	li	a4,3
   18342:	a005                	j	18362 <_start+0x6cb8>
   18344:	6509                	lui	a0,0x2
   18346:	43250513          	addi	a0,a0,1074 # 2432 <.Lline_table_start1+0x2207>
   1834a:	4589                	li	a1,2
   1834c:	4601                	li	a2,0
   1834e:	4681                	li	a3,0
   18350:	00000073          	ecall
   18354:	56c14703          	lbu	a4,1388(sp)
   18358:	4509                	li	a0,2
   1835a:	50a10e23          	sb	a0,1308(sp)
   1835e:	00a70a63          	beq	a4,a0,18372 <_start+0x6cc8>
   18362:	6509                	lui	a0,0x2
   18364:	43250513          	addi	a0,a0,1074 # 2432 <.Lline_table_start1+0x2207>
   18368:	45a5                	li	a1,9
   1836a:	4601                	li	a2,0
   1836c:	4681                	li	a3,0
   1836e:	00000073          	ecall
   18372:	00001297          	auipc	t0,0x1
   18376:	3b2282e7          	jalr	t0,946(t0) # 19724 <OUTLINED_FUNCTION_33>
   1837a:	00001297          	auipc	t0,0x1
   1837e:	f18282e7          	jalr	t0,-232(t0) # 19292 <OUTLINED_FUNCTION_0>
   18382:	03d00613          	li	a2,61
   18386:	00001097          	auipc	ra,0x1
   1838a:	5f4080e7          	jalr	1524(ra) # 1997a <memcpy>
   1838e:	4781                	li	a5,0
   18390:	56c14703          	lbu	a4,1388(sp)
   18394:	4489                	li	s1,2
   18396:	00970a63          	beq	a4,s1,183aa <_start+0x6d00>
   1839a:	6509                	lui	a0,0x2
   1839c:	43250513          	addi	a0,a0,1074 # 2432 <.Lline_table_start1+0x2207>
   183a0:	45a5                	li	a1,9
   183a2:	4601                	li	a2,0
   183a4:	4681                	li	a3,0
   183a6:	00000073          	ecall
   183aa:	51c14703          	lbu	a4,1308(sp)
   183ae:	00970a63          	beq	a4,s1,183c2 <_start+0x6d18>
   183b2:	6509                	lui	a0,0x2
   183b4:	43250513          	addi	a0,a0,1074 # 2432 <.Lline_table_start1+0x2207>
   183b8:	4589                	li	a1,2
   183ba:	4601                	li	a2,0
   183bc:	4681                	li	a3,0
   183be:	00000073          	ecall
   183c2:	c399                	beqz	a5,183c8 <_start+0x6d1e>
   183c4:	56d0006f          	j	19130 <_start+0x7a86>
   183c8:	00001297          	auipc	t0,0x1
   183cc:	16a282e7          	jalr	t0,362(t0) # 19532 <OUTLINED_FUNCTION_15>
   183d0:	46410513          	addi	a0,sp,1124
   183d4:	048c                	addi	a1,sp,576
   183d6:	03d00613          	li	a2,61
   183da:	00001097          	auipc	ra,0x1
   183de:	5a0080e7          	jalr	1440(ra) # 1997a <memcpy>
   183e2:	57410513          	addi	a0,sp,1396
   183e6:	46410593          	addi	a1,sp,1124
   183ea:	03d00613          	li	a2,61
   183ee:	00001097          	auipc	ra,0x1
   183f2:	58c080e7          	jalr	1420(ra) # 1997a <memcpy>
   183f6:	00001297          	auipc	t0,0x1
   183fa:	06c282e7          	jalr	t0,108(t0) # 19462 <OUTLINED_FUNCTION_9>
   183fe:	02300613          	li	a2,35
   18402:	854a                	mv	a0,s2
   18404:	4581                	li	a1,0
   18406:	00001097          	auipc	ra,0x1
   1840a:	508080e7          	jalr	1288(ra) # 1990e <memset>
   1840e:	00001297          	auipc	t0,0x1
   18412:	47e282e7          	jalr	t0,1150(t0) # 1988c <OUTLINED_FUNCTION_51>
   18416:	4599                	li	a1,6
   18418:	9bf50793          	addi	a5,a0,-1601
   1841c:	04400693          	li	a3,68
   18420:	4711                	li	a4,4
   18422:	853e                	mv	a0,a5
   18424:	00000073          	ecall
   18428:	02850a63          	beq	a0,s0,1845c <_start+0x6db2>
   1842c:	00001297          	auipc	t0,0x1
   18430:	446282e7          	jalr	t0,1094(t0) # 19872 <OUTLINED_FUNCTION_49>
   18434:	02300693          	li	a3,35
   18438:	470d                	li	a4,3
   1843a:	00000073          	ecall
   1843e:	00850f63          	beq	a0,s0,1845c <_start+0x6db2>
   18442:	46f10223          	sb	a5,1124(sp)
   18446:	6505                	lui	a0,0x1
   18448:	4599                	li	a1,6
   1844a:	9bf50513          	addi	a0,a0,-1601 # 9bf <.Lline_table_start1+0x794>
   1844e:	460d                	li	a2,3
   18450:	ffff9097          	auipc	ra,0xffff9
   18454:	24c080e7          	jalr	588(ra) # 1169c <_ZN9allow_pin7command17h1eb46760111c3605E>
   18458:	8905                	andi	a0,a0,1
   1845a:	c501                	beqz	a0,18462 <_start+0x6db8>
   1845c:	8b2e                	mv	s6,a1
   1845e:	4785                	li	a5,1
   18460:	a8a1                	j	184b8 <_start+0x6e0e>
   18462:	56c14703          	lbu	a4,1388(sp)
   18466:	4789                	li	a5,2
   18468:	00f71463          	bne	a4,a5,18470 <_start+0x6dc6>
   1846c:	470d                	li	a4,3
   1846e:	a839                	j	1848c <_start+0x6de2>
   18470:	6505                	lui	a0,0x1
   18472:	9bf50513          	addi	a0,a0,-1601 # 9bf <.Lline_table_start1+0x794>
   18476:	4599                	li	a1,6
   18478:	4601                	li	a2,0
   1847a:	4681                	li	a3,0
   1847c:	00000073          	ecall
   18480:	46414703          	lbu	a4,1124(sp)
   18484:	56f10623          	sb	a5,1388(sp)
   18488:	00f70a63          	beq	a4,a5,1849c <_start+0x6df2>
   1848c:	6505                	lui	a0,0x1
   1848e:	9bf50513          	addi	a0,a0,-1601 # 9bf <.Lline_table_start1+0x794>
   18492:	458d                	li	a1,3
   18494:	4601                	li	a2,0
   18496:	4681                	li	a3,0
   18498:	00000073          	ecall
   1849c:	00001297          	auipc	t0,0x1
   184a0:	f0c282e7          	jalr	t0,-244(t0) # 193a8 <OUTLINED_FUNCTION_5>
   184a4:	00001297          	auipc	t0,0x1
   184a8:	2c0282e7          	jalr	t0,704(t0) # 19764 <OUTLINED_FUNCTION_36>
   184ac:	4671                	li	a2,28
   184ae:	00001097          	auipc	ra,0x1
   184b2:	4cc080e7          	jalr	1228(ra) # 1997a <memcpy>
   184b6:	4781                	li	a5,0
   184b8:	46414703          	lbu	a4,1124(sp)
   184bc:	4489                	li	s1,2
   184be:	00970a63          	beq	a4,s1,184d2 <_start+0x6e28>
   184c2:	6505                	lui	a0,0x1
   184c4:	9bf50513          	addi	a0,a0,-1601 # 9bf <.Lline_table_start1+0x794>
   184c8:	458d                	li	a1,3
   184ca:	4601                	li	a2,0
   184cc:	4681                	li	a3,0
   184ce:	00000073          	ecall
   184d2:	56c14703          	lbu	a4,1388(sp)
   184d6:	00970a63          	beq	a4,s1,184ea <_start+0x6e40>
   184da:	6505                	lui	a0,0x1
   184dc:	9bf50513          	addi	a0,a0,-1601 # 9bf <.Lline_table_start1+0x794>
   184e0:	4599                	li	a1,6
   184e2:	4601                	li	a2,0
   184e4:	4681                	li	a3,0
   184e6:	00000073          	ecall
   184ea:	440793e3          	bnez	a5,19130 <_start+0x7a86>
   184ee:	00001297          	auipc	t0,0x1
   184f2:	30e282e7          	jalr	t0,782(t0) # 197fc <OUTLINED_FUNCTION_43>
   184f6:	46510913          	addi	s2,sp,1125
   184fa:	00001297          	auipc	t0,0x1
   184fe:	364282e7          	jalr	t0,868(t0) # 1985e <OUTLINED_FUNCTION_47>
   18502:	40810513          	addi	a0,sp,1032
   18506:	048c                	addi	a1,sp,576
   18508:	4671                	li	a2,28
   1850a:	00001097          	auipc	ra,0x1
   1850e:	470080e7          	jalr	1136(ra) # 1997a <memcpy>
   18512:	00001297          	auipc	t0,0x1
   18516:	0a4282e7          	jalr	t0,164(t0) # 195b6 <OUTLINED_FUNCTION_19>
   1851a:	46c10a13          	addi	s4,sp,1132
   1851e:	40810593          	addi	a1,sp,1032
   18522:	4671                	li	a2,28
   18524:	8552                	mv	a0,s4
   18526:	00001097          	auipc	ra,0x1
   1852a:	454080e7          	jalr	1108(ra) # 1997a <memcpy>
   1852e:	02400613          	li	a2,36
   18532:	854e                	mv	a0,s3
   18534:	4581                	li	a1,0
   18536:	00001097          	auipc	ra,0x1
   1853a:	3d8080e7          	jalr	984(ra) # 1990e <memset>
   1853e:	864a                	mv	a2,s2
   18540:	56810623          	sb	s0,1388(sp)
   18544:	6509                	lui	a0,0x2
   18546:	4491                	li	s1,4
   18548:	4591                	li	a1,4
   1854a:	bd650793          	addi	a5,a0,-1066 # 1bd6 <.Lline_table_start1+0x19ab>
   1854e:	02300693          	li	a3,35
   18552:	4711                	li	a4,4
   18554:	853e                	mv	a0,a5
   18556:	00000073          	ecall
   1855a:	02850c63          	beq	a0,s0,18592 <_start+0x6ee8>
   1855e:	853e                	mv	a0,a5
   18560:	864e                	mv	a2,s3
   18562:	46910223          	sb	s1,1124(sp)
   18566:	478d                	li	a5,3
   18568:	45a1                	li	a1,8
   1856a:	02400693          	li	a3,36
   1856e:	470d                	li	a4,3
   18570:	00000073          	ecall
   18574:	00850f63          	beq	a0,s0,18592 <_start+0x6ee8>
   18578:	56f10623          	sb	a5,1388(sp)
   1857c:	6509                	lui	a0,0x2
   1857e:	4591                	li	a1,4
   18580:	bd650513          	addi	a0,a0,-1066 # 1bd6 <.Lline_table_start1+0x19ab>
   18584:	4621                	li	a2,8
   18586:	ffff9097          	auipc	ra,0xffff9
   1858a:	116080e7          	jalr	278(ra) # 1169c <_ZN9allow_pin7command17h1eb46760111c3605E>
   1858e:	8905                	andi	a0,a0,1
   18590:	c501                	beqz	a0,18598 <_start+0x6eee>
   18592:	8b2e                	mv	s6,a1
   18594:	4785                	li	a5,1
   18596:	a8a1                	j	185ee <_start+0x6f44>
   18598:	46414703          	lbu	a4,1124(sp)
   1859c:	4789                	li	a5,2
   1859e:	00f71463          	bne	a4,a5,185a6 <_start+0x6efc>
   185a2:	470d                	li	a4,3
   185a4:	a839                	j	185c2 <_start+0x6f18>
   185a6:	6509                	lui	a0,0x2
   185a8:	bd650513          	addi	a0,a0,-1066 # 1bd6 <.Lline_table_start1+0x19ab>
   185ac:	4591                	li	a1,4
   185ae:	4601                	li	a2,0
   185b0:	4681                	li	a3,0
   185b2:	00000073          	ecall
   185b6:	56c14703          	lbu	a4,1388(sp)
   185ba:	46f10223          	sb	a5,1124(sp)
   185be:	00f70a63          	beq	a4,a5,185d2 <_start+0x6f28>
   185c2:	6509                	lui	a0,0x2
   185c4:	bd650513          	addi	a0,a0,-1066 # 1bd6 <.Lline_table_start1+0x19ab>
   185c8:	45a1                	li	a1,8
   185ca:	4601                	li	a2,0
   185cc:	4681                	li	a3,0
   185ce:	00000073          	ecall
   185d2:	00001297          	auipc	t0,0x1
   185d6:	da4282e7          	jalr	t0,-604(t0) # 19376 <OUTLINED_FUNCTION_4>
   185da:	00001297          	auipc	t0,0x1
   185de:	20e282e7          	jalr	t0,526(t0) # 197e8 <OUTLINED_FUNCTION_42>
   185e2:	4675                	li	a2,29
   185e4:	00001097          	auipc	ra,0x1
   185e8:	396080e7          	jalr	918(ra) # 1997a <memcpy>
   185ec:	4781                	li	a5,0
   185ee:	56c14703          	lbu	a4,1388(sp)
   185f2:	4489                	li	s1,2
   185f4:	00970a63          	beq	a4,s1,18608 <_start+0x6f5e>
   185f8:	6509                	lui	a0,0x2
   185fa:	bd650513          	addi	a0,a0,-1066 # 1bd6 <.Lline_table_start1+0x19ab>
   185fe:	45a1                	li	a1,8
   18600:	4601                	li	a2,0
   18602:	4681                	li	a3,0
   18604:	00000073          	ecall
   18608:	46414703          	lbu	a4,1124(sp)
   1860c:	00970a63          	beq	a4,s1,18620 <_start+0x6f76>
   18610:	6509                	lui	a0,0x2
   18612:	bd650513          	addi	a0,a0,-1066 # 1bd6 <.Lline_table_start1+0x19ab>
   18616:	4591                	li	a1,4
   18618:	4601                	li	a2,0
   1861a:	4681                	li	a3,0
   1861c:	00000073          	ecall
   18620:	300798e3          	bnez	a5,19130 <_start+0x7a86>
   18624:	00001297          	auipc	t0,0x1
   18628:	00e282e7          	jalr	t0,14(t0) # 19632 <OUTLINED_FUNCTION_24>
   1862c:	51c10513          	addi	a0,sp,1308
   18630:	15ac                	addi	a1,sp,744
   18632:	4675                	li	a2,29
   18634:	00001097          	auipc	ra,0x1
   18638:	346080e7          	jalr	838(ra) # 1997a <memcpy>
   1863c:	04a8                	addi	a0,sp,584
   1863e:	51c10593          	addi	a1,sp,1308
   18642:	4675                	li	a2,29
   18644:	00001097          	auipc	ra,0x1
   18648:	336080e7          	jalr	822(ra) # 1997a <memcpy>
   1864c:	00001297          	auipc	t0,0x1
   18650:	f28282e7          	jalr	t0,-216(t0) # 19574 <OUTLINED_FUNCTION_17>
   18654:	02f00613          	li	a2,47
   18658:	854e                	mv	a0,s3
   1865a:	4581                	li	a1,0
   1865c:	00001097          	auipc	ra,0x1
   18660:	2b2080e7          	jalr	690(ra) # 1990e <memset>
   18664:	00001297          	auipc	t0,0x1
   18668:	21c282e7          	jalr	t0,540(t0) # 19880 <OUTLINED_FUNCTION_50>
   1866c:	4599                	li	a1,6
   1866e:	27350793          	addi	a5,a0,627
   18672:	02400693          	li	a3,36
   18676:	4711                	li	a4,4
   18678:	853e                	mv	a0,a5
   1867a:	00000073          	ecall
   1867e:	02950c63          	beq	a0,s1,186b6 <_start+0x700c>
   18682:	853e                	mv	a0,a5
   18684:	864e                	mv	a2,s3
   18686:	24810023          	sb	s0,576(sp)
   1868a:	478d                	li	a5,3
   1868c:	45a5                	li	a1,9
   1868e:	02f00693          	li	a3,47
   18692:	470d                	li	a4,3
   18694:	00000073          	ecall
   18698:	00950f63          	beq	a0,s1,186b6 <_start+0x700c>
   1869c:	56f10623          	sb	a5,1388(sp)
   186a0:	6505                	lui	a0,0x1
   186a2:	4599                	li	a1,6
   186a4:	27350513          	addi	a0,a0,627 # 1273 <.Lline_table_start1+0x1048>
   186a8:	4625                	li	a2,9
   186aa:	ffff9097          	auipc	ra,0xffff9
   186ae:	ff2080e7          	jalr	-14(ra) # 1169c <_ZN9allow_pin7command17h1eb46760111c3605E>
   186b2:	8905                	andi	a0,a0,1
   186b4:	c501                	beqz	a0,186bc <_start+0x7012>
   186b6:	8b2e                	mv	s6,a1
   186b8:	4785                	li	a5,1
   186ba:	a8b9                	j	18718 <_start+0x706e>
   186bc:	24014703          	lbu	a4,576(sp)
   186c0:	4789                	li	a5,2
   186c2:	00f71463          	bne	a4,a5,186ca <_start+0x7020>
   186c6:	470d                	li	a4,3
   186c8:	a839                	j	186e6 <_start+0x703c>
   186ca:	6505                	lui	a0,0x1
   186cc:	27350513          	addi	a0,a0,627 # 1273 <.Lline_table_start1+0x1048>
   186d0:	4599                	li	a1,6
   186d2:	4601                	li	a2,0
   186d4:	4681                	li	a3,0
   186d6:	00000073          	ecall
   186da:	56c14703          	lbu	a4,1388(sp)
   186de:	24f10023          	sb	a5,576(sp)
   186e2:	00f70a63          	beq	a4,a5,186f6 <_start+0x704c>
   186e6:	6505                	lui	a0,0x1
   186e8:	27350513          	addi	a0,a0,627 # 1273 <.Lline_table_start1+0x1048>
   186ec:	45a5                	li	a1,9
   186ee:	4601                	li	a2,0
   186f0:	4681                	li	a3,0
   186f2:	00000073          	ecall
   186f6:	00001297          	auipc	t0,0x1
   186fa:	02e282e7          	jalr	t0,46(t0) # 19724 <OUTLINED_FUNCTION_33>
   186fe:	00001297          	auipc	t0,0x1
   18702:	c02282e7          	jalr	t0,-1022(t0) # 19300 <OUTLINED_FUNCTION_2>
   18706:	46410513          	addi	a0,sp,1124
   1870a:	02800613          	li	a2,40
   1870e:	00001097          	auipc	ra,0x1
   18712:	26c080e7          	jalr	620(ra) # 1997a <memcpy>
   18716:	4781                	li	a5,0
   18718:	56c14703          	lbu	a4,1388(sp)
   1871c:	4489                	li	s1,2
   1871e:	00970a63          	beq	a4,s1,18732 <_start+0x7088>
   18722:	6505                	lui	a0,0x1
   18724:	27350513          	addi	a0,a0,627 # 1273 <.Lline_table_start1+0x1048>
   18728:	45a5                	li	a1,9
   1872a:	4601                	li	a2,0
   1872c:	4681                	li	a3,0
   1872e:	00000073          	ecall
   18732:	24014703          	lbu	a4,576(sp)
   18736:	00970a63          	beq	a4,s1,1874a <_start+0x70a0>
   1873a:	6505                	lui	a0,0x1
   1873c:	27350513          	addi	a0,a0,627 # 1273 <.Lline_table_start1+0x1048>
   18740:	4599                	li	a1,6
   18742:	4601                	li	a2,0
   18744:	4681                	li	a3,0
   18746:	00000073          	ecall
   1874a:	1e0793e3          	bnez	a5,19130 <_start+0x7a86>
   1874e:	00001297          	auipc	t0,0x1
   18752:	e8c282e7          	jalr	t0,-372(t0) # 195da <OUTLINED_FUNCTION_20>
   18756:	42410513          	addi	a0,sp,1060
   1875a:	46410593          	addi	a1,sp,1124
   1875e:	02800613          	li	a2,40
   18762:	00001097          	auipc	ra,0x1
   18766:	218080e7          	jalr	536(ra) # 1997a <memcpy>
   1876a:	00001297          	auipc	t0,0x1
   1876e:	d40282e7          	jalr	t0,-704(t0) # 194aa <OUTLINED_FUNCTION_11>
   18772:	52410513          	addi	a0,sp,1316
   18776:	42410593          	addi	a1,sp,1060
   1877a:	02800613          	li	a2,40
   1877e:	00001097          	auipc	ra,0x1
   18782:	1fc080e7          	jalr	508(ra) # 1997a <memcpy>
   18786:	05e00613          	li	a2,94
   1878a:	854e                	mv	a0,s3
   1878c:	4581                	li	a1,0
   1878e:	00001097          	auipc	ra,0x1
   18792:	180080e7          	jalr	384(ra) # 1990e <memset>
   18796:	8622                	mv	a2,s0
   18798:	56910623          	sb	s1,1388(sp)
   1879c:	4791                	li	a5,4
   1879e:	22b00513          	li	a0,555
   187a2:	4595                	li	a1,5
   187a4:	02f00693          	li	a3,47
   187a8:	4711                	li	a4,4
   187aa:	00000073          	ecall
   187ae:	02950d63          	beq	a0,s1,187e8 <_start+0x713e>
   187b2:	864e                	mv	a2,s3
   187b4:	50f10e23          	sb	a5,1308(sp)
   187b8:	478d                	li	a5,3
   187ba:	22b00513          	li	a0,555
   187be:	4589                	li	a1,2
   187c0:	05e00693          	li	a3,94
   187c4:	470d                	li	a4,3
   187c6:	00000073          	ecall
   187ca:	00950f63          	beq	a0,s1,187e8 <_start+0x713e>
   187ce:	56f10623          	sb	a5,1388(sp)
   187d2:	22b00513          	li	a0,555
   187d6:	4595                	li	a1,5
   187d8:	4609                	li	a2,2
   187da:	4409                	li	s0,2
   187dc:	ffff9097          	auipc	ra,0xffff9
   187e0:	ec0080e7          	jalr	-320(ra) # 1169c <_ZN9allow_pin7command17h1eb46760111c3605E>
   187e4:	8905                	andi	a0,a0,1
   187e6:	c501                	beqz	a0,187ee <_start+0x7144>
   187e8:	8b2e                	mv	s6,a1
   187ea:	4785                	li	a5,1
   187ec:	a899                	j	18842 <_start+0x7198>
   187ee:	51c14703          	lbu	a4,1308(sp)
   187f2:	00871463          	bne	a4,s0,187fa <_start+0x7150>
   187f6:	470d                	li	a4,3
   187f8:	a839                	j	18816 <_start+0x716c>
   187fa:	22b00513          	li	a0,555
   187fe:	4595                	li	a1,5
   18800:	4601                	li	a2,0
   18802:	4681                	li	a3,0
   18804:	00000073          	ecall
   18808:	56c14703          	lbu	a4,1388(sp)
   1880c:	4509                	li	a0,2
   1880e:	50a10e23          	sb	a0,1308(sp)
   18812:	00a70963          	beq	a4,a0,18824 <_start+0x717a>
   18816:	22b00513          	li	a0,555
   1881a:	4589                	li	a1,2
   1881c:	4601                	li	a2,0
   1881e:	4681                	li	a3,0
   18820:	00000073          	ecall
   18824:	00001297          	auipc	t0,0x1
   18828:	f00282e7          	jalr	t0,-256(t0) # 19724 <OUTLINED_FUNCTION_33>
   1882c:	00001297          	auipc	t0,0x1
   18830:	a66282e7          	jalr	t0,-1434(t0) # 19292 <OUTLINED_FUNCTION_0>
   18834:	05700613          	li	a2,87
   18838:	00001097          	auipc	ra,0x1
   1883c:	142080e7          	jalr	322(ra) # 1997a <memcpy>
   18840:	4781                	li	a5,0
   18842:	56c14703          	lbu	a4,1388(sp)
   18846:	4489                	li	s1,2
   18848:	00970963          	beq	a4,s1,1885a <_start+0x71b0>
   1884c:	22b00513          	li	a0,555
   18850:	4589                	li	a1,2
   18852:	4601                	li	a2,0
   18854:	4681                	li	a3,0
   18856:	00000073          	ecall
   1885a:	51c14703          	lbu	a4,1308(sp)
   1885e:	00970963          	beq	a4,s1,18870 <_start+0x71c6>
   18862:	22b00513          	li	a0,555
   18866:	4595                	li	a1,5
   18868:	4601                	li	a2,0
   1886a:	4681                	li	a3,0
   1886c:	00000073          	ecall
   18870:	0c0790e3          	bnez	a5,19130 <_start+0x7a86>
   18874:	00001297          	auipc	t0,0x1
   18878:	cbe282e7          	jalr	t0,-834(t0) # 19532 <OUTLINED_FUNCTION_15>
   1887c:	46410513          	addi	a0,sp,1124
   18880:	048c                	addi	a1,sp,576
   18882:	05700613          	li	a2,87
   18886:	00001097          	auipc	ra,0x1
   1888a:	0f4080e7          	jalr	244(ra) # 1997a <memcpy>
   1888e:	57410513          	addi	a0,sp,1396
   18892:	46410593          	addi	a1,sp,1124
   18896:	05700613          	li	a2,87
   1889a:	00001097          	auipc	ra,0x1
   1889e:	0e0080e7          	jalr	224(ra) # 1997a <memcpy>
   188a2:	00001297          	auipc	t0,0x1
   188a6:	bc0282e7          	jalr	t0,-1088(t0) # 19462 <OUTLINED_FUNCTION_9>
   188aa:	05500613          	li	a2,85
   188ae:	854a                	mv	a0,s2
   188b0:	4581                	li	a1,0
   188b2:	00001097          	auipc	ra,0x1
   188b6:	05c080e7          	jalr	92(ra) # 1990e <memset>
   188ba:	00001297          	auipc	t0,0x1
   188be:	fd2282e7          	jalr	t0,-46(t0) # 1988c <OUTLINED_FUNCTION_51>
   188c2:	459d                	li	a1,7
   188c4:	78a50793          	addi	a5,a0,1930
   188c8:	05e00693          	li	a3,94
   188cc:	4711                	li	a4,4
   188ce:	853e                	mv	a0,a5
   188d0:	00000073          	ecall
   188d4:	02850a63          	beq	a0,s0,18908 <_start+0x725e>
   188d8:	00001297          	auipc	t0,0x1
   188dc:	f9a282e7          	jalr	t0,-102(t0) # 19872 <OUTLINED_FUNCTION_49>
   188e0:	05500693          	li	a3,85
   188e4:	470d                	li	a4,3
   188e6:	00000073          	ecall
   188ea:	00850f63          	beq	a0,s0,18908 <_start+0x725e>
   188ee:	46f10223          	sb	a5,1124(sp)
   188f2:	6505                	lui	a0,0x1
   188f4:	459d                	li	a1,7
   188f6:	78a50513          	addi	a0,a0,1930 # 178a <.Lline_table_start1+0x155f>
   188fa:	460d                	li	a2,3
   188fc:	ffff9097          	auipc	ra,0xffff9
   18900:	da0080e7          	jalr	-608(ra) # 1169c <_ZN9allow_pin7command17h1eb46760111c3605E>
   18904:	8905                	andi	a0,a0,1
   18906:	c501                	beqz	a0,1890e <_start+0x7264>
   18908:	8b2e                	mv	s6,a1
   1890a:	4785                	li	a5,1
   1890c:	a8a9                	j	18966 <_start+0x72bc>
   1890e:	56c14703          	lbu	a4,1388(sp)
   18912:	4789                	li	a5,2
   18914:	00f71463          	bne	a4,a5,1891c <_start+0x7272>
   18918:	470d                	li	a4,3
   1891a:	a839                	j	18938 <_start+0x728e>
   1891c:	6505                	lui	a0,0x1
   1891e:	78a50513          	addi	a0,a0,1930 # 178a <.Lline_table_start1+0x155f>
   18922:	459d                	li	a1,7
   18924:	4601                	li	a2,0
   18926:	4681                	li	a3,0
   18928:	00000073          	ecall
   1892c:	46414703          	lbu	a4,1124(sp)
   18930:	56f10623          	sb	a5,1388(sp)
   18934:	00f70a63          	beq	a4,a5,18948 <_start+0x729e>
   18938:	6505                	lui	a0,0x1
   1893a:	78a50513          	addi	a0,a0,1930 # 178a <.Lline_table_start1+0x155f>
   1893e:	458d                	li	a1,3
   18940:	4601                	li	a2,0
   18942:	4681                	li	a3,0
   18944:	00000073          	ecall
   18948:	00001297          	auipc	t0,0x1
   1894c:	dec282e7          	jalr	t0,-532(t0) # 19734 <OUTLINED_FUNCTION_34>
   18950:	00001297          	auipc	t0,0x1
   18954:	978282e7          	jalr	t0,-1672(t0) # 192c8 <OUTLINED_FUNCTION_1>
   18958:	04e00613          	li	a2,78
   1895c:	00001097          	auipc	ra,0x1
   18960:	01e080e7          	jalr	30(ra) # 1997a <memcpy>
   18964:	4781                	li	a5,0
   18966:	46414703          	lbu	a4,1124(sp)
   1896a:	4489                	li	s1,2
   1896c:	00970a63          	beq	a4,s1,18980 <_start+0x72d6>
   18970:	6505                	lui	a0,0x1
   18972:	78a50513          	addi	a0,a0,1930 # 178a <.Lline_table_start1+0x155f>
   18976:	458d                	li	a1,3
   18978:	4601                	li	a2,0
   1897a:	4681                	li	a3,0
   1897c:	00000073          	ecall
   18980:	56c14703          	lbu	a4,1388(sp)
   18984:	00970a63          	beq	a4,s1,18998 <_start+0x72ee>
   18988:	6505                	lui	a0,0x1
   1898a:	78a50513          	addi	a0,a0,1930 # 178a <.Lline_table_start1+0x155f>
   1898e:	459d                	li	a1,7
   18990:	4601                	li	a2,0
   18992:	4681                	li	a3,0
   18994:	00000073          	ecall
   18998:	78079c63          	bnez	a5,19130 <_start+0x7a86>
   1899c:	00001297          	auipc	t0,0x1
   189a0:	ddc282e7          	jalr	t0,-548(t0) # 19778 <OUTLINED_FUNCTION_37>
   189a4:	00001297          	auipc	t0,0x1
   189a8:	cac282e7          	jalr	t0,-852(t0) # 19650 <OUTLINED_FUNCTION_25>
   189ac:	04e00613          	li	a2,78
   189b0:	00001097          	auipc	ra,0x1
   189b4:	fca080e7          	jalr	-54(ra) # 1997a <memcpy>
   189b8:	57410513          	addi	a0,sp,1396
   189bc:	048c                	addi	a1,sp,576
   189be:	04e00613          	li	a2,78
   189c2:	00001097          	auipc	ra,0x1
   189c6:	fb8080e7          	jalr	-72(ra) # 1997a <memcpy>
   189ca:	00001297          	auipc	t0,0x1
   189ce:	a98282e7          	jalr	t0,-1384(t0) # 19462 <OUTLINED_FUNCTION_9>
   189d2:	4645                	li	a2,17
   189d4:	854a                	mv	a0,s2
   189d6:	4581                	li	a1,0
   189d8:	00001097          	auipc	ra,0x1
   189dc:	f36080e7          	jalr	-202(ra) # 1990e <memset>
   189e0:	46810223          	sb	s0,1124(sp)
   189e4:	56c10513          	addi	a0,sp,1388
   189e8:	05500593          	li	a1,85
   189ec:	4611                	li	a2,4
   189ee:	ffff9097          	auipc	ra,0xffff9
   189f2:	a64080e7          	jalr	-1436(ra) # 11452 <_ZN9allow_pin12dynamic_type23Buffer$LT$B$C$_$C$_$GT$5allow17haf0565a91a1cf8aeE>
   189f6:	8905                	andi	a0,a0,1
   189f8:	e51d                	bnez	a0,18a26 <_start+0x737c>
   189fa:	46410513          	addi	a0,sp,1124
   189fe:	45c5                	li	a1,17
   18a00:	460d                	li	a2,3
   18a02:	ffff9097          	auipc	ra,0xffff9
   18a06:	a50080e7          	jalr	-1456(ra) # 11452 <_ZN9allow_pin12dynamic_type23Buffer$LT$B$C$_$C$_$GT$5allow17haf0565a91a1cf8aeE>
   18a0a:	8905                	andi	a0,a0,1
   18a0c:	ed09                	bnez	a0,18a26 <_start+0x737c>
   18a0e:	6505                	lui	a0,0x1
   18a10:	4589                	li	a1,2
   18a12:	c8950513          	addi	a0,a0,-887 # c89 <.Lline_table_start1+0xa5e>
   18a16:	4609                	li	a2,2
   18a18:	4a89                	li	s5,2
   18a1a:	ffff9097          	auipc	ra,0xffff9
   18a1e:	c82080e7          	jalr	-894(ra) # 1169c <_ZN9allow_pin7command17h1eb46760111c3605E>
   18a22:	8905                	andi	a0,a0,1
   18a24:	c511                	beqz	a0,18a30 <_start+0x7386>
   18a26:	8b2e                	mv	s6,a1
   18a28:	46414703          	lbu	a4,1124(sp)
   18a2c:	4805                	li	a6,1
   18a2e:	a0e9                	j	18af8 <_start+0x744e>
   18a30:	56c10513          	addi	a0,sp,1388
   18a34:	ffff9097          	auipc	ra,0xffff9
   18a38:	b92080e7          	jalr	-1134(ra) # 115c6 <_ZN9allow_pin12dynamic_type23Buffer$LT$B$C$_$C$_$GT$7unallow17h5f7482dd87f86bceE>
   18a3c:	46410513          	addi	a0,sp,1124
   18a40:	ffff9097          	auipc	ra,0xffff9
   18a44:	b86080e7          	jalr	-1146(ra) # 115c6 <_ZN9allow_pin12dynamic_type23Buffer$LT$B$C$_$C$_$GT$7unallow17h5f7482dd87f86bceE>
   18a48:	46414703          	lbu	a4,1124(sp)
   18a4c:	ffe70513          	addi	a0,a4,-2
   18a50:	00a035b3          	snez	a1,a0
   18a54:	00010837          	lui	a6,0x10
   18a58:	18880813          	addi	a6,a6,392 # 10188 <.Lanon.49c9f8067fe4468184af16d7576940c9.2>
   18a5c:	01570363          	beq	a4,s5,18a62 <_start+0x73b8>
   18a60:	8942                	mv	s2,a6
   18a62:	00194603          	lbu	a2,1(s2)
   18a66:	00094683          	lbu	a3,0(s2)
   18a6a:	00294783          	lbu	a5,2(s2)
   18a6e:	0622                	slli	a2,a2,0x8
   18a70:	46814483          	lbu	s1,1128(sp)
   18a74:	46914403          	lbu	s0,1129(sp)
   18a78:	8e55                	or	a2,a2,a3
   18a7a:	46a14683          	lbu	a3,1130(sp)
   18a7e:	46b14503          	lbu	a0,1131(sp)
   18a82:	0422                	slli	s0,s0,0x8
   18a84:	8c45                	or	s0,s0,s1
   18a86:	06c2                	slli	a3,a3,0x10
   18a88:	0562                	slli	a0,a0,0x18
   18a8a:	8d55                	or	a0,a0,a3
   18a8c:	44c11623          	sh	a2,1100(sp)
   18a90:	44f10723          	sb	a5,1102(sp)
   18a94:	00856633          	or	a2,a0,s0
   18a98:	15fd                	addi	a1,a1,-1
   18a9a:	01570463          	beq	a4,s5,18aa2 <_start+0x73f8>
   18a9e:	00780a13          	addi	s4,a6,7
   18aa2:	4801                	li	a6,0
   18aa4:	00c5fb33          	and	s6,a1,a2
   18aa8:	008a4503          	lbu	a0,8(s4)
   18aac:	009a4583          	lbu	a1,9(s4)
   18ab0:	000a4603          	lbu	a2,0(s4)
   18ab4:	001a4683          	lbu	a3,1(s4)
   18ab8:	002a4483          	lbu	s1,2(s4)
   18abc:	003a4403          	lbu	s0,3(s4)
   18ac0:	05a2                	slli	a1,a1,0x8
   18ac2:	06a2                	slli	a3,a3,0x8
   18ac4:	04c2                	slli	s1,s1,0x10
   18ac6:	0462                	slli	s0,s0,0x18
   18ac8:	8d4d                	or	a0,a0,a1
   18aca:	8e55                	or	a2,a2,a3
   18acc:	004a4583          	lbu	a1,4(s4)
   18ad0:	005a4683          	lbu	a3,5(s4)
   18ad4:	8c45                	or	s0,s0,s1
   18ad6:	006a4483          	lbu	s1,6(s4)
   18ada:	007a4783          	lbu	a5,7(s4)
   18ade:	06a2                	slli	a3,a3,0x8
   18ae0:	8dd5                	or	a1,a1,a3
   18ae2:	04c2                	slli	s1,s1,0x10
   18ae4:	07e2                	slli	a5,a5,0x18
   18ae6:	8fc5                	or	a5,a5,s1
   18ae8:	8e41                	or	a2,a2,s0
   18aea:	8ddd                	or	a1,a1,a5
   18aec:	2ec12423          	sw	a2,744(sp)
   18af0:	2eb12623          	sw	a1,748(sp)
   18af4:	2ea11823          	sh	a0,752(sp)
   18af8:	4489                	li	s1,2
   18afa:	00970a63          	beq	a4,s1,18b0e <_start+0x7464>
   18afe:	6505                	lui	a0,0x1
   18b00:	c8950513          	addi	a0,a0,-887 # c89 <.Lline_table_start1+0xa5e>
   18b04:	4589                	li	a1,2
   18b06:	4601                	li	a2,0
   18b08:	4681                	li	a3,0
   18b0a:	00000073          	ecall
   18b0e:	56c14703          	lbu	a4,1388(sp)
   18b12:	00970a63          	beq	a4,s1,18b26 <_start+0x747c>
   18b16:	6505                	lui	a0,0x1
   18b18:	c8950513          	addi	a0,a0,-887 # c89 <.Lline_table_start1+0xa5e>
   18b1c:	4589                	li	a1,2
   18b1e:	4601                	li	a2,0
   18b20:	4681                	li	a3,0
   18b22:	00000073          	ecall
   18b26:	60081563          	bnez	a6,19130 <_start+0x7a86>
   18b2a:	00001297          	auipc	t0,0x1
   18b2e:	ca2282e7          	jalr	t0,-862(t0) # 197cc <OUTLINED_FUNCTION_40>
   18b32:	2e812683          	lw	a3,744(sp)
   18b36:	2ec12703          	lw	a4,748(sp)
   18b3a:	2f011783          	lh	a5,752(sp)
   18b3e:	00001297          	auipc	t0,0x1
   18b42:	c9c282e7          	jalr	t0,-868(t0) # 197da <OUTLINED_FUNCTION_41>
   18b46:	51d10413          	addi	s0,sp,1309
   18b4a:	24d12023          	sw	a3,576(sp)
   18b4e:	24e12223          	sw	a4,580(sp)
   18b52:	24f11423          	sh	a5,584(sp)
   18b56:	52410513          	addi	a0,sp,1316
   18b5a:	048c                	addi	a1,sp,576
   18b5c:	4629                	li	a2,10
   18b5e:	00001097          	auipc	ra,0x1
   18b62:	e1c080e7          	jalr	-484(ra) # 1997a <memcpy>
   18b66:	00001297          	auipc	t0,0x1
   18b6a:	944282e7          	jalr	t0,-1724(t0) # 194aa <OUTLINED_FUNCTION_11>
   18b6e:	05000613          	li	a2,80
   18b72:	854e                	mv	a0,s3
   18b74:	4581                	li	a1,0
   18b76:	00001097          	auipc	ra,0x1
   18b7a:	d98080e7          	jalr	-616(ra) # 1990e <memset>
   18b7e:	00001297          	auipc	t0,0x1
   18b82:	d84282e7          	jalr	t0,-636(t0) # 19902 <OUTLINED_FUNCTION_60>
   18b86:	4599                	li	a1,6
   18b88:	aa950793          	addi	a5,a0,-1367
   18b8c:	46c5                	li	a3,17
   18b8e:	4711                	li	a4,4
   18b90:	853e                	mv	a0,a5
   18b92:	00000073          	ecall
   18b96:	02950b63          	beq	a0,s1,18bcc <_start+0x7522>
   18b9a:	00001297          	auipc	t0,0x1
   18b9e:	d44282e7          	jalr	t0,-700(t0) # 198de <OUTLINED_FUNCTION_57>
   18ba2:	4595                	li	a1,5
   18ba4:	05000693          	li	a3,80
   18ba8:	470d                	li	a4,3
   18baa:	00000073          	ecall
   18bae:	00950f63          	beq	a0,s1,18bcc <_start+0x7522>
   18bb2:	56f10623          	sb	a5,1388(sp)
   18bb6:	6509                	lui	a0,0x2
   18bb8:	4599                	li	a1,6
   18bba:	aa950513          	addi	a0,a0,-1367 # 1aa9 <.Lline_table_start1+0x187e>
   18bbe:	4615                	li	a2,5
   18bc0:	ffff9097          	auipc	ra,0xffff9
   18bc4:	adc080e7          	jalr	-1316(ra) # 1169c <_ZN9allow_pin7command17h1eb46760111c3605E>
   18bc8:	8905                	andi	a0,a0,1
   18bca:	c501                	beqz	a0,18bd2 <_start+0x7528>
   18bcc:	8b2e                	mv	s6,a1
   18bce:	4785                	li	a5,1
   18bd0:	a8a9                	j	18c2a <_start+0x7580>
   18bd2:	51c14703          	lbu	a4,1308(sp)
   18bd6:	4789                	li	a5,2
   18bd8:	00f71463          	bne	a4,a5,18be0 <_start+0x7536>
   18bdc:	470d                	li	a4,3
   18bde:	a839                	j	18bfc <_start+0x7552>
   18be0:	6509                	lui	a0,0x2
   18be2:	aa950513          	addi	a0,a0,-1367 # 1aa9 <.Lline_table_start1+0x187e>
   18be6:	4599                	li	a1,6
   18be8:	4601                	li	a2,0
   18bea:	4681                	li	a3,0
   18bec:	00000073          	ecall
   18bf0:	56c14703          	lbu	a4,1388(sp)
   18bf4:	50f10e23          	sb	a5,1308(sp)
   18bf8:	00f70a63          	beq	a4,a5,18c0c <_start+0x7562>
   18bfc:	6509                	lui	a0,0x2
   18bfe:	aa950513          	addi	a0,a0,-1367 # 1aa9 <.Lline_table_start1+0x187e>
   18c02:	4595                	li	a1,5
   18c04:	4601                	li	a2,0
   18c06:	4681                	li	a3,0
   18c08:	00000073          	ecall
   18c0c:	00001297          	auipc	t0,0x1
   18c10:	b18282e7          	jalr	t0,-1256(t0) # 19724 <OUTLINED_FUNCTION_33>
   18c14:	00000297          	auipc	t0,0x0
   18c18:	67e282e7          	jalr	t0,1662(t0) # 19292 <OUTLINED_FUNCTION_0>
   18c1c:	04900613          	li	a2,73
   18c20:	00001097          	auipc	ra,0x1
   18c24:	d5a080e7          	jalr	-678(ra) # 1997a <memcpy>
   18c28:	4781                	li	a5,0
   18c2a:	56c14703          	lbu	a4,1388(sp)
   18c2e:	4489                	li	s1,2
   18c30:	00970a63          	beq	a4,s1,18c44 <_start+0x759a>
   18c34:	6509                	lui	a0,0x2
   18c36:	aa950513          	addi	a0,a0,-1367 # 1aa9 <.Lline_table_start1+0x187e>
   18c3a:	4595                	li	a1,5
   18c3c:	4601                	li	a2,0
   18c3e:	4681                	li	a3,0
   18c40:	00000073          	ecall
   18c44:	51c14703          	lbu	a4,1308(sp)
   18c48:	00970a63          	beq	a4,s1,18c5c <_start+0x75b2>
   18c4c:	6509                	lui	a0,0x2
   18c4e:	aa950513          	addi	a0,a0,-1367 # 1aa9 <.Lline_table_start1+0x187e>
   18c52:	4599                	li	a1,6
   18c54:	4601                	li	a2,0
   18c56:	4681                	li	a3,0
   18c58:	00000073          	ecall
   18c5c:	4c079a63          	bnez	a5,19130 <_start+0x7a86>
   18c60:	00001297          	auipc	t0,0x1
   18c64:	b18282e7          	jalr	t0,-1256(t0) # 19778 <OUTLINED_FUNCTION_37>
   18c68:	56d10a13          	addi	s4,sp,1389
   18c6c:	00001297          	auipc	t0,0x1
   18c70:	9b2282e7          	jalr	t0,-1614(t0) # 1961e <OUTLINED_FUNCTION_23>
   18c74:	04900613          	li	a2,73
   18c78:	00001097          	auipc	ra,0x1
   18c7c:	d02080e7          	jalr	-766(ra) # 1997a <memcpy>
   18c80:	57410993          	addi	s3,sp,1396
   18c84:	46410593          	addi	a1,sp,1124
   18c88:	04900613          	li	a2,73
   18c8c:	854e                	mv	a0,s3
   18c8e:	00001097          	auipc	ra,0x1
   18c92:	cec080e7          	jalr	-788(ra) # 1997a <memcpy>
   18c96:	00000297          	auipc	t0,0x0
   18c9a:	7f0282e7          	jalr	t0,2032(t0) # 19486 <OUTLINED_FUNCTION_10>
   18c9e:	46510913          	addi	s2,sp,1125
   18ca2:	466d                	li	a2,27
   18ca4:	854a                	mv	a0,s2
   18ca6:	4581                	li	a1,0
   18ca8:	00001097          	auipc	ra,0x1
   18cac:	c66080e7          	jalr	-922(ra) # 1990e <memset>
   18cb0:	8652                	mv	a2,s4
   18cb2:	46910223          	sb	s1,1124(sp)
   18cb6:	4405                	li	s0,1
   18cb8:	4791                	li	a5,4
   18cba:	3d900513          	li	a0,985
   18cbe:	4585                	li	a1,1
   18cc0:	05000693          	li	a3,80
   18cc4:	4711                	li	a4,4
   18cc6:	00000073          	ecall
   18cca:	04950063          	beq	a0,s1,18d0a <_start+0x7660>
   18cce:	864a                	mv	a2,s2
   18cd0:	56f10623          	sb	a5,1388(sp)
   18cd4:	478d                	li	a5,3
   18cd6:	3d900513          	li	a0,985
   18cda:	4589                	li	a1,2
   18cdc:	46ed                	li	a3,27
   18cde:	470d                	li	a4,3
   18ce0:	00000073          	ecall
   18ce4:	00951563          	bne	a0,s1,18cee <_start+0x7644>
   18ce8:	8b2e                	mv	s6,a1
   18cea:	4405                	li	s0,1
   18cec:	a88d                	j	18d5e <_start+0x76b4>
   18cee:	46f10223          	sb	a5,1124(sp)
   18cf2:	4405                	li	s0,1
   18cf4:	3d900513          	li	a0,985
   18cf8:	4585                	li	a1,1
   18cfa:	4609                	li	a2,2
   18cfc:	4489                	li	s1,2
   18cfe:	ffff9097          	auipc	ra,0xffff9
   18d02:	99e080e7          	jalr	-1634(ra) # 1169c <_ZN9allow_pin7command17h1eb46760111c3605E>
   18d06:	8905                	andi	a0,a0,1
   18d08:	c119                	beqz	a0,18d0e <_start+0x7664>
   18d0a:	8b2e                	mv	s6,a1
   18d0c:	a889                	j	18d5e <_start+0x76b4>
   18d0e:	56c14703          	lbu	a4,1388(sp)
   18d12:	00971463          	bne	a4,s1,18d1a <_start+0x7670>
   18d16:	470d                	li	a4,3
   18d18:	a831                	j	18d34 <_start+0x768a>
   18d1a:	3d900513          	li	a0,985
   18d1e:	4585                	li	a1,1
   18d20:	4601                	li	a2,0
   18d22:	4681                	li	a3,0
   18d24:	00000073          	ecall
   18d28:	00001297          	auipc	t0,0x1
   18d2c:	b70282e7          	jalr	t0,-1168(t0) # 19898 <OUTLINED_FUNCTION_52>
   18d30:	00a70963          	beq	a4,a0,18d42 <_start+0x7698>
   18d34:	3d900513          	li	a0,985
   18d38:	4589                	li	a1,2
   18d3a:	4601                	li	a2,0
   18d3c:	4681                	li	a3,0
   18d3e:	00000073          	ecall
   18d42:	00001297          	auipc	t0,0x1
   18d46:	9f2282e7          	jalr	t0,-1550(t0) # 19734 <OUTLINED_FUNCTION_34>
   18d4a:	00000297          	auipc	t0,0x0
   18d4e:	57e282e7          	jalr	t0,1406(t0) # 192c8 <OUTLINED_FUNCTION_1>
   18d52:	4651                	li	a2,20
   18d54:	00001097          	auipc	ra,0x1
   18d58:	c26080e7          	jalr	-986(ra) # 1997a <memcpy>
   18d5c:	4401                	li	s0,0
   18d5e:	46414703          	lbu	a4,1124(sp)
   18d62:	4789                	li	a5,2
   18d64:	00f70963          	beq	a4,a5,18d76 <_start+0x76cc>
   18d68:	3d900513          	li	a0,985
   18d6c:	4589                	li	a1,2
   18d6e:	4601                	li	a2,0
   18d70:	4681                	li	a3,0
   18d72:	00000073          	ecall
   18d76:	56c14703          	lbu	a4,1388(sp)
   18d7a:	00f70963          	beq	a4,a5,18d8c <_start+0x76e2>
   18d7e:	3d900513          	li	a0,985
   18d82:	4585                	li	a1,1
   18d84:	4601                	li	a2,0
   18d86:	4681                	li	a3,0
   18d88:	00000073          	ecall
   18d8c:	3a041263          	bnez	s0,19130 <_start+0x7a86>
   18d90:	00001297          	auipc	t0,0x1
   18d94:	9e8282e7          	jalr	t0,-1560(t0) # 19778 <OUTLINED_FUNCTION_37>
   18d98:	00001297          	auipc	t0,0x1
   18d9c:	ab8282e7          	jalr	t0,-1352(t0) # 19850 <OUTLINED_FUNCTION_46>
   18da0:	45010513          	addi	a0,sp,1104
   18da4:	51c10593          	addi	a1,sp,1308
   18da8:	4651                	li	a2,20
   18daa:	00001097          	auipc	ra,0x1
   18dae:	bd0080e7          	jalr	-1072(ra) # 1997a <memcpy>
   18db2:	00001297          	auipc	t0,0x1
   18db6:	94e282e7          	jalr	t0,-1714(t0) # 19700 <OUTLINED_FUNCTION_32>
   18dba:	04a8                	addi	a0,sp,584
   18dbc:	45010593          	addi	a1,sp,1104
   18dc0:	4651                	li	a2,20
   18dc2:	00001097          	auipc	ra,0x1
   18dc6:	bb8080e7          	jalr	-1096(ra) # 1997a <memcpy>
   18dca:	06300613          	li	a2,99
   18dce:	8552                	mv	a0,s4
   18dd0:	4581                	li	a1,0
   18dd2:	00001097          	auipc	ra,0x1
   18dd6:	b3c080e7          	jalr	-1220(ra) # 1990e <memset>
   18dda:	56810623          	sb	s0,1388(sp)
   18dde:	0488                	addi	a0,sp,576
   18de0:	45ed                	li	a1,27
   18de2:	4611                	li	a2,4
   18de4:	ffff8097          	auipc	ra,0xffff8
   18de8:	586080e7          	jalr	1414(ra) # 1136a <_ZN9allow_pin12dynamic_type23Buffer$LT$B$C$_$C$_$GT$5allow17h3a5e801415c5edc3E>
   18dec:	8905                	andi	a0,a0,1
   18dee:	e51d                	bnez	a0,18e1c <_start+0x7772>
   18df0:	56c10513          	addi	a0,sp,1388
   18df4:	06300593          	li	a1,99
   18df8:	460d                	li	a2,3
   18dfa:	ffff8097          	auipc	ra,0xffff8
   18dfe:	570080e7          	jalr	1392(ra) # 1136a <_ZN9allow_pin12dynamic_type23Buffer$LT$B$C$_$C$_$GT$5allow17h3a5e801415c5edc3E>
   18e02:	8905                	andi	a0,a0,1
   18e04:	ed01                	bnez	a0,18e1c <_start+0x7772>
   18e06:	6509                	lui	a0,0x2
   18e08:	458d                	li	a1,3
   18e0a:	54850513          	addi	a0,a0,1352 # 2548 <.Lline_table_start1+0x231d>
   18e0e:	460d                	li	a2,3
   18e10:	ffff9097          	auipc	ra,0xffff9
   18e14:	88c080e7          	jalr	-1908(ra) # 1169c <_ZN9allow_pin7command17h1eb46760111c3605E>
   18e18:	8905                	andi	a0,a0,1
   18e1a:	c511                	beqz	a0,18e26 <_start+0x777c>
   18e1c:	8b2e                	mv	s6,a1
   18e1e:	56c14483          	lbu	s1,1388(sp)
   18e22:	4785                	li	a5,1
   18e24:	a071                	j	18eb0 <_start+0x7806>
   18e26:	0488                	addi	a0,sp,576
   18e28:	ffff9097          	auipc	ra,0xffff9
   18e2c:	850080e7          	jalr	-1968(ra) # 11678 <_ZN9allow_pin12dynamic_type23Buffer$LT$B$C$_$C$_$GT$7unallow17hdb5e7205b953f800E>
   18e30:	56c10513          	addi	a0,sp,1388
   18e34:	ffff9097          	auipc	ra,0xffff9
   18e38:	844080e7          	jalr	-1980(ra) # 11678 <_ZN9allow_pin12dynamic_type23Buffer$LT$B$C$_$C$_$GT$7unallow17hdb5e7205b953f800E>
   18e3c:	56c14483          	lbu	s1,1388(sp)
   18e40:	4809                	li	a6,2
   18e42:	ffe48593          	addi	a1,s1,-2
   18e46:	00b03633          	snez	a2,a1
   18e4a:	000108b7          	lui	a7,0x10
   18e4e:	0d488893          	addi	a7,a7,212 # 100d4 <.Lanon.49c9f8067fe4468184af16d7576940c9.0>
   18e52:	01048363          	beq	s1,a6,18e58 <_start+0x77ae>
   18e56:	8a46                	mv	s4,a7
   18e58:	001a4683          	lbu	a3,1(s4)
   18e5c:	000a4703          	lbu	a4,0(s4)
   18e60:	002a4783          	lbu	a5,2(s4)
   18e64:	06a2                	slli	a3,a3,0x8
   18e66:	57014403          	lbu	s0,1392(sp)
   18e6a:	57114503          	lbu	a0,1393(sp)
   18e6e:	8ed9                	or	a3,a3,a4
   18e70:	57214703          	lbu	a4,1394(sp)
   18e74:	57314583          	lbu	a1,1395(sp)
   18e78:	0522                	slli	a0,a0,0x8
   18e7a:	8d41                	or	a0,a0,s0
   18e7c:	0742                	slli	a4,a4,0x10
   18e7e:	05e2                	slli	a1,a1,0x18
   18e80:	8dd9                	or	a1,a1,a4
   18e82:	50d11e23          	sh	a3,1308(sp)
   18e86:	50f10f23          	sb	a5,1310(sp)
   18e8a:	00a5e6b3          	or	a3,a1,a0
   18e8e:	167d                	addi	a2,a2,-1
   18e90:	01048463          	beq	s1,a6,18e98 <_start+0x77ee>
   18e94:	00788993          	addi	s3,a7,7
   18e98:	00d67b33          	and	s6,a2,a3
   18e9c:	46410513          	addi	a0,sp,1124
   18ea0:	05c00613          	li	a2,92
   18ea4:	85ce                	mv	a1,s3
   18ea6:	00001097          	auipc	ra,0x1
   18eaa:	ad4080e7          	jalr	-1324(ra) # 1997a <memcpy>
   18eae:	4781                	li	a5,0
   18eb0:	4409                	li	s0,2
   18eb2:	00848b63          	beq	s1,s0,18ec8 <_start+0x781e>
   18eb6:	6509                	lui	a0,0x2
   18eb8:	54850513          	addi	a0,a0,1352 # 2548 <.Lline_table_start1+0x231d>
   18ebc:	458d                	li	a1,3
   18ebe:	4601                	li	a2,0
   18ec0:	4681                	li	a3,0
   18ec2:	8726                	mv	a4,s1
   18ec4:	00000073          	ecall
   18ec8:	24014703          	lbu	a4,576(sp)
   18ecc:	00870a63          	beq	a4,s0,18ee0 <_start+0x7836>
   18ed0:	6509                	lui	a0,0x2
   18ed2:	54850513          	addi	a0,a0,1352 # 2548 <.Lline_table_start1+0x231d>
   18ed6:	458d                	li	a1,3
   18ed8:	4601                	li	a2,0
   18eda:	4681                	li	a3,0
   18edc:	00000073          	ecall
   18ee0:	24079863          	bnez	a5,19130 <_start+0x7a86>
   18ee4:	00000297          	auipc	t0,0x0
   18ee8:	794282e7          	jalr	t0,1940(t0) # 19678 <OUTLINED_FUNCTION_27>
   18eec:	4c010513          	addi	a0,sp,1216
   18ef0:	46410593          	addi	a1,sp,1124
   18ef4:	05c00613          	li	a2,92
   18ef8:	00001097          	auipc	ra,0x1
   18efc:	a82080e7          	jalr	-1406(ra) # 1997a <memcpy>
   18f00:	00000297          	auipc	t0,0x0
   18f04:	586282e7          	jalr	t0,1414(t0) # 19486 <OUTLINED_FUNCTION_10>
   18f08:	57410513          	addi	a0,sp,1396
   18f0c:	4c010593          	addi	a1,sp,1216
   18f10:	05c00613          	li	a2,92
   18f14:	00001097          	auipc	ra,0x1
   18f18:	a66080e7          	jalr	-1434(ra) # 1997a <memcpy>
   18f1c:	02c00613          	li	a2,44
   18f20:	854a                	mv	a0,s2
   18f22:	4581                	li	a1,0
   18f24:	00001097          	auipc	ra,0x1
   18f28:	9ea080e7          	jalr	-1558(ra) # 1990e <memset>
   18f2c:	8622                	mv	a2,s0
   18f2e:	46910223          	sb	s1,1124(sp)
   18f32:	4791                	li	a5,4
   18f34:	4561                	li	a0,24
   18f36:	4595                	li	a1,5
   18f38:	06300693          	li	a3,99
   18f3c:	4711                	li	a4,4
   18f3e:	00000073          	ecall
   18f42:	02950a63          	beq	a0,s1,18f76 <_start+0x78cc>
   18f46:	864a                	mv	a2,s2
   18f48:	56f10623          	sb	a5,1388(sp)
   18f4c:	478d                	li	a5,3
   18f4e:	4561                	li	a0,24
   18f50:	458d                	li	a1,3
   18f52:	02c00693          	li	a3,44
   18f56:	470d                	li	a4,3
   18f58:	00000073          	ecall
   18f5c:	00950d63          	beq	a0,s1,18f76 <_start+0x78cc>
   18f60:	46f10223          	sb	a5,1124(sp)
   18f64:	4561                	li	a0,24
   18f66:	4595                	li	a1,5
   18f68:	460d                	li	a2,3
   18f6a:	ffff8097          	auipc	ra,0xffff8
   18f6e:	732080e7          	jalr	1842(ra) # 1169c <_ZN9allow_pin7command17h1eb46760111c3605E>
   18f72:	8905                	andi	a0,a0,1
   18f74:	c501                	beqz	a0,18f7c <_start+0x78d2>
   18f76:	8b2e                	mv	s6,a1
   18f78:	4785                	li	a5,1
   18f7a:	a889                	j	18fcc <_start+0x7922>
   18f7c:	56c14703          	lbu	a4,1388(sp)
   18f80:	4789                	li	a5,2
   18f82:	00f71463          	bne	a4,a5,18f8a <_start+0x78e0>
   18f86:	470d                	li	a4,3
   18f88:	a829                	j	18fa2 <_start+0x78f8>
   18f8a:	4561                	li	a0,24
   18f8c:	4595                	li	a1,5
   18f8e:	4601                	li	a2,0
   18f90:	4681                	li	a3,0
   18f92:	00000073          	ecall
   18f96:	46414703          	lbu	a4,1124(sp)
   18f9a:	56f10623          	sb	a5,1388(sp)
   18f9e:	00f70863          	beq	a4,a5,18fae <_start+0x7904>
   18fa2:	4561                	li	a0,24
   18fa4:	458d                	li	a1,3
   18fa6:	4601                	li	a2,0
   18fa8:	4681                	li	a3,0
   18faa:	00000073          	ecall
   18fae:	00000297          	auipc	t0,0x0
   18fb2:	786282e7          	jalr	t0,1926(t0) # 19734 <OUTLINED_FUNCTION_34>
   18fb6:	00000297          	auipc	t0,0x0
   18fba:	312282e7          	jalr	t0,786(t0) # 192c8 <OUTLINED_FUNCTION_1>
   18fbe:	02500613          	li	a2,37
   18fc2:	00001097          	auipc	ra,0x1
   18fc6:	9b8080e7          	jalr	-1608(ra) # 1997a <memcpy>
   18fca:	4781                	li	a5,0
   18fcc:	46414703          	lbu	a4,1124(sp)
   18fd0:	4489                	li	s1,2
   18fd2:	00970863          	beq	a4,s1,18fe2 <_start+0x7938>
   18fd6:	4561                	li	a0,24
   18fd8:	458d                	li	a1,3
   18fda:	4601                	li	a2,0
   18fdc:	4681                	li	a3,0
   18fde:	00000073          	ecall
   18fe2:	56c14703          	lbu	a4,1388(sp)
   18fe6:	00970863          	beq	a4,s1,18ff6 <_start+0x794c>
   18fea:	4561                	li	a0,24
   18fec:	4595                	li	a1,5
   18fee:	4601                	li	a2,0
   18ff0:	4681                	li	a3,0
   18ff2:	00000073          	ecall
   18ff6:	12079d63          	bnez	a5,19130 <_start+0x7a86>
   18ffa:	00000297          	auipc	t0,0x0
   18ffe:	51a282e7          	jalr	t0,1306(t0) # 19514 <OUTLINED_FUNCTION_14>
   19002:	0488                	addi	a0,sp,576
   19004:	51c10593          	addi	a1,sp,1308
   19008:	02500613          	li	a2,37
   1900c:	00001097          	auipc	ra,0x1
   19010:	96e080e7          	jalr	-1682(ra) # 1997a <memcpy>
   19014:	57410513          	addi	a0,sp,1396
   19018:	048c                	addi	a1,sp,576
   1901a:	02500613          	li	a2,37
   1901e:	00001097          	auipc	ra,0x1
   19022:	95c080e7          	jalr	-1700(ra) # 1997a <memcpy>
   19026:	00000297          	auipc	t0,0x0
   1902a:	460282e7          	jalr	t0,1120(t0) # 19486 <OUTLINED_FUNCTION_10>
   1902e:	02a00613          	li	a2,42
   19032:	854a                	mv	a0,s2
   19034:	4581                	li	a1,0
   19036:	00001097          	auipc	ra,0x1
   1903a:	8d8080e7          	jalr	-1832(ra) # 1990e <memset>
   1903e:	8622                	mv	a2,s0
   19040:	46910223          	sb	s1,1124(sp)
   19044:	6509                	lui	a0,0x2
   19046:	4411                	li	s0,4
   19048:	458d                	li	a1,3
   1904a:	4f050793          	addi	a5,a0,1264 # 24f0 <.Lline_table_start1+0x22c5>
   1904e:	02c00693          	li	a3,44
   19052:	4711                	li	a4,4
   19054:	853e                	mv	a0,a5
   19056:	00000073          	ecall
   1905a:	00951463          	bne	a0,s1,19062 <_start+0x79b8>
   1905e:	8b2e                	mv	s6,a1
   19060:	a8a1                	j	190b8 <_start+0x7a0e>
   19062:	853e                	mv	a0,a5
   19064:	4581                	li	a1,0
   19066:	864a                	mv	a2,s2
   19068:	56810623          	sb	s0,1388(sp)
   1906c:	478d                	li	a5,3
   1906e:	02a00693          	li	a3,42
   19072:	470d                	li	a4,3
   19074:	00000073          	ecall
   19078:	00951963          	bne	a0,s1,1908a <_start+0x79e0>
   1907c:	8b2e                	mv	s6,a1
   1907e:	46414703          	lbu	a4,1124(sp)
   19082:	4509                	li	a0,2
   19084:	02a71263          	bne	a4,a0,190a8 <_start+0x79fe>
   19088:	a805                	j	190b8 <_start+0x7a0e>
   1908a:	46f10223          	sb	a5,1124(sp)
   1908e:	6509                	lui	a0,0x2
   19090:	4f050513          	addi	a0,a0,1264 # 24f0 <.Lline_table_start1+0x22c5>
   19094:	458d                	li	a1,3
   19096:	4601                	li	a2,0
   19098:	ffff8097          	auipc	ra,0xffff8
   1909c:	604080e7          	jalr	1540(ra) # 1169c <_ZN9allow_pin7command17h1eb46760111c3605E>
   190a0:	8905                	andi	a0,a0,1
   190a2:	cd09                	beqz	a0,190bc <_start+0x7a12>
   190a4:	8b2e                	mv	s6,a1
   190a6:	470d                	li	a4,3
   190a8:	6509                	lui	a0,0x2
   190aa:	4f050513          	addi	a0,a0,1264 # 24f0 <.Lline_table_start1+0x22c5>
   190ae:	4581                	li	a1,0
   190b0:	4601                	li	a2,0
   190b2:	4681                	li	a3,0
   190b4:	00000073          	ecall
   190b8:	4785                	li	a5,1
   190ba:	a8a9                	j	19114 <_start+0x7a6a>
   190bc:	56c14703          	lbu	a4,1388(sp)
   190c0:	4789                	li	a5,2
   190c2:	00f71463          	bne	a4,a5,190ca <_start+0x7a20>
   190c6:	470d                	li	a4,3
   190c8:	a839                	j	190e6 <_start+0x7a3c>
   190ca:	6509                	lui	a0,0x2
   190cc:	4f050513          	addi	a0,a0,1264 # 24f0 <.Lline_table_start1+0x22c5>
   190d0:	458d                	li	a1,3
   190d2:	4601                	li	a2,0
   190d4:	4681                	li	a3,0
   190d6:	00000073          	ecall
   190da:	46414703          	lbu	a4,1124(sp)
   190de:	56f10623          	sb	a5,1388(sp)
   190e2:	00f70a63          	beq	a4,a5,190f6 <_start+0x7a4c>
   190e6:	6509                	lui	a0,0x2
   190e8:	4f050513          	addi	a0,a0,1264 # 24f0 <.Lline_table_start1+0x22c5>
   190ec:	4581                	li	a1,0
   190ee:	4601                	li	a2,0
   190f0:	4681                	li	a3,0
   190f2:	00000073          	ecall
   190f6:	00000297          	auipc	t0,0x0
   190fa:	63e282e7          	jalr	t0,1598(t0) # 19734 <OUTLINED_FUNCTION_34>
   190fe:	00000297          	auipc	t0,0x0
   19102:	1ca282e7          	jalr	t0,458(t0) # 192c8 <OUTLINED_FUNCTION_1>
   19106:	02300613          	li	a2,35
   1910a:	00001097          	auipc	ra,0x1
   1910e:	870080e7          	jalr	-1936(ra) # 1997a <memcpy>
   19112:	4781                	li	a5,0
   19114:	56c14703          	lbu	a4,1388(sp)
   19118:	4509                	li	a0,2
   1911a:	00a70a63          	beq	a4,a0,1912e <_start+0x7a84>
   1911e:	6509                	lui	a0,0x2
   19120:	4f050513          	addi	a0,a0,1264 # 24f0 <.Lline_table_start1+0x22c5>
   19124:	458d                	li	a1,3
   19126:	4601                	li	a2,0
   19128:	4681                	li	a3,0
   1912a:	00000073          	ecall
   1912e:	c79d                	beqz	a5,1915c <_start+0x7ab2>
   19130:	4785                	li	a5,1
   19132:	853e                	mv	a0,a5
   19134:	85da                	mv	a1,s6
   19136:	58010613          	addi	a2,sp,1408
   1913a:	06c62083          	lw	ra,108(a2)
   1913e:	5620                	lw	s0,104(a2)
   19140:	5264                	lw	s1,100(a2)
   19142:	06062903          	lw	s2,96(a2)
   19146:	05c62983          	lw	s3,92(a2)
   1914a:	05862a03          	lw	s4,88(a2)
   1914e:	05462a83          	lw	s5,84(a2)
   19152:	05062b03          	lw	s6,80(a2)
   19156:	5f010113          	addi	sp,sp,1520
   1915a:	8082                	ret
   1915c:	00000297          	auipc	t0,0x0
   19160:	3f4282e7          	jalr	t0,1012(t0) # 19550 <OUTLINED_FUNCTION_16>
   19164:	02300613          	li	a2,35
   19168:	00001097          	auipc	ra,0x1
   1916c:	812080e7          	jalr	-2030(ra) # 1997a <memcpy>
   19170:	57410513          	addi	a0,sp,1396
   19174:	048c                	addi	a1,sp,576
   19176:	02300613          	li	a2,35
   1917a:	00001097          	auipc	ra,0x1
   1917e:	800080e7          	jalr	-2048(ra) # 1997a <memcpy>
   19182:	00000297          	auipc	t0,0x0
   19186:	304282e7          	jalr	t0,772(t0) # 19486 <OUTLINED_FUNCTION_10>
   1918a:	46510413          	addi	s0,sp,1125
   1918e:	02800613          	li	a2,40
   19192:	8522                	mv	a0,s0
   19194:	4581                	li	a1,0
   19196:	00000097          	auipc	ra,0x0
   1919a:	778080e7          	jalr	1912(ra) # 1990e <memset>
   1919e:	864a                	mv	a2,s2
   191a0:	46910223          	sb	s1,1124(sp)
   191a4:	6509                	lui	a0,0x2
   191a6:	4811                	li	a6,4
   191a8:	4591                	li	a1,4
   191aa:	efa50793          	addi	a5,a0,-262 # 1efa <.Lline_table_start1+0x1ccf>
   191ae:	02a00693          	li	a3,42
   191b2:	4711                	li	a4,4
   191b4:	853e                	mv	a0,a5
   191b6:	00000073          	ecall
   191ba:	00951463          	bne	a0,s1,191c2 <_start+0x7b18>
   191be:	8b2e                	mv	s6,a1
   191c0:	a8a1                	j	19218 <_start+0x7b6e>
   191c2:	853e                	mv	a0,a5
   191c4:	8622                	mv	a2,s0
   191c6:	57010623          	sb	a6,1388(sp)
   191ca:	478d                	li	a5,3
   191cc:	45a1                	li	a1,8
   191ce:	02800693          	li	a3,40
   191d2:	470d                	li	a4,3
   191d4:	00000073          	ecall
   191d8:	00951963          	bne	a0,s1,191ea <_start+0x7b40>
   191dc:	8b2e                	mv	s6,a1
   191de:	46414703          	lbu	a4,1124(sp)
   191e2:	4509                	li	a0,2
   191e4:	02a71263          	bne	a4,a0,19208 <_start+0x7b5e>
   191e8:	a805                	j	19218 <_start+0x7b6e>
   191ea:	46f10223          	sb	a5,1124(sp)
   191ee:	6509                	lui	a0,0x2
   191f0:	4591                	li	a1,4
   191f2:	efa50513          	addi	a0,a0,-262 # 1efa <.Lline_table_start1+0x1ccf>
   191f6:	4621                	li	a2,8
   191f8:	ffff8097          	auipc	ra,0xffff8
   191fc:	4a4080e7          	jalr	1188(ra) # 1169c <_ZN9allow_pin7command17h1eb46760111c3605E>
   19200:	8905                	andi	a0,a0,1
   19202:	cd09                	beqz	a0,1921c <_start+0x7b72>
   19204:	8b2e                	mv	s6,a1
   19206:	470d                	li	a4,3
   19208:	6509                	lui	a0,0x2
   1920a:	efa50513          	addi	a0,a0,-262 # 1efa <.Lline_table_start1+0x1ccf>
   1920e:	45a1                	li	a1,8
   19210:	4601                	li	a2,0
   19212:	4681                	li	a3,0
   19214:	00000073          	ecall
   19218:	4785                	li	a5,1
   1921a:	a8b1                	j	19276 <_start+0x7bcc>
   1921c:	56c14703          	lbu	a4,1388(sp)
   19220:	4789                	li	a5,2
   19222:	00f71463          	bne	a4,a5,1922a <_start+0x7b80>
   19226:	470d                	li	a4,3
   19228:	a839                	j	19246 <_start+0x7b9c>
   1922a:	6509                	lui	a0,0x2
   1922c:	efa50513          	addi	a0,a0,-262 # 1efa <.Lline_table_start1+0x1ccf>
   19230:	4591                	li	a1,4
   19232:	4601                	li	a2,0
   19234:	4681                	li	a3,0
   19236:	00000073          	ecall
   1923a:	46414703          	lbu	a4,1124(sp)
   1923e:	56f10623          	sb	a5,1388(sp)
   19242:	00f70a63          	beq	a4,a5,19256 <_start+0x7bac>
   19246:	6509                	lui	a0,0x2
   19248:	efa50513          	addi	a0,a0,-262 # 1efa <.Lline_table_start1+0x1ccf>
   1924c:	45a1                	li	a1,8
   1924e:	4601                	li	a2,0
   19250:	4681                	li	a3,0
   19252:	00000073          	ecall
   19256:	4781                	li	a5,0
   19258:	46914503          	lbu	a0,1129(sp)
   1925c:	46814583          	lbu	a1,1128(sp)
   19260:	46a14603          	lbu	a2,1130(sp)
   19264:	46b14683          	lbu	a3,1131(sp)
   19268:	0522                	slli	a0,a0,0x8
   1926a:	8d4d                	or	a0,a0,a1
   1926c:	0642                	slli	a2,a2,0x10
   1926e:	06e2                	slli	a3,a3,0x18
   19270:	8e55                	or	a2,a2,a3
   19272:	00a66b33          	or	s6,a2,a0
   19276:	56c14703          	lbu	a4,1388(sp)
   1927a:	4509                	li	a0,2
   1927c:	eaa70be3          	beq	a4,a0,19132 <_start+0x7a88>
   19280:	6509                	lui	a0,0x2
   19282:	efa50513          	addi	a0,a0,-262 # 1efa <.Lline_table_start1+0x1ccf>
   19286:	4591                	li	a1,4
   19288:	4601                	li	a2,0
   1928a:	4681                	li	a3,0
   1928c:	00000073          	ecall
   19290:	b54d                	j	19132 <_start+0x7a88>

00019292 <OUTLINED_FUNCTION_0>:
   19292:	57014703          	lbu	a4,1392(sp)
   19296:	56a10623          	sb	a0,1388(sp)
   1929a:	0622                	slli	a2,a2,0x8
   1929c:	57114503          	lbu	a0,1393(sp)
   192a0:	8dd1                	or	a1,a1,a2
   192a2:	57214603          	lbu	a2,1394(sp)
   192a6:	57314783          	lbu	a5,1395(sp)
   192aa:	0522                	slli	a0,a0,0x8
   192ac:	8d59                	or	a0,a0,a4
   192ae:	0642                	slli	a2,a2,0x10
   192b0:	07e2                	slli	a5,a5,0x18
   192b2:	8e5d                	or	a2,a2,a5
   192b4:	2eb11423          	sh	a1,744(sp)
   192b8:	2ed10523          	sb	a3,746(sp)
   192bc:	00a66b33          	or	s6,a2,a0
   192c0:	57410593          	addi	a1,sp,1396
   192c4:	0488                	addi	a0,sp,576
   192c6:	8282                	jr	t0

000192c8 <OUTLINED_FUNCTION_1>:
   192c8:	46814703          	lbu	a4,1128(sp)
   192cc:	46a10223          	sb	a0,1124(sp)
   192d0:	0622                	slli	a2,a2,0x8
   192d2:	46914503          	lbu	a0,1129(sp)
   192d6:	8dd1                	or	a1,a1,a2
   192d8:	46a14603          	lbu	a2,1130(sp)
   192dc:	46b14783          	lbu	a5,1131(sp)
   192e0:	0522                	slli	a0,a0,0x8
   192e2:	8d59                	or	a0,a0,a4
   192e4:	0642                	slli	a2,a2,0x10
   192e6:	07e2                	slli	a5,a5,0x18
   192e8:	8e5d                	or	a2,a2,a5
   192ea:	2eb11423          	sh	a1,744(sp)
   192ee:	2ed10523          	sb	a3,746(sp)
   192f2:	00a66b33          	or	s6,a2,a0
   192f6:	46c10593          	addi	a1,sp,1132
   192fa:	51c10513          	addi	a0,sp,1308
   192fe:	8282                	jr	t0

00019300 <OUTLINED_FUNCTION_2>:
   19300:	57014703          	lbu	a4,1392(sp)
   19304:	56a10623          	sb	a0,1388(sp)
   19308:	0622                	slli	a2,a2,0x8
   1930a:	57114503          	lbu	a0,1393(sp)
   1930e:	8dd1                	or	a1,a1,a2
   19310:	57214603          	lbu	a2,1394(sp)
   19314:	57314783          	lbu	a5,1395(sp)
   19318:	0522                	slli	a0,a0,0x8
   1931a:	8d59                	or	a0,a0,a4
   1931c:	0642                	slli	a2,a2,0x10
   1931e:	07e2                	slli	a5,a5,0x18
   19320:	8e5d                	or	a2,a2,a5
   19322:	2eb11423          	sh	a1,744(sp)
   19326:	2ed10523          	sb	a3,746(sp)
   1932a:	00a66b33          	or	s6,a2,a0
   1932e:	57410593          	addi	a1,sp,1396
   19332:	8282                	jr	t0

00019334 <OUTLINED_FUNCTION_3>:
   19334:	4509                	li	a0,2
   19336:	00094583          	lbu	a1,0(s2)
   1933a:	00194603          	lbu	a2,1(s2)
   1933e:	00294683          	lbu	a3,2(s2)
   19342:	46814703          	lbu	a4,1128(sp)
   19346:	46a10223          	sb	a0,1124(sp)
   1934a:	0622                	slli	a2,a2,0x8
   1934c:	46914503          	lbu	a0,1129(sp)
   19350:	8dd1                	or	a1,a1,a2
   19352:	46a14603          	lbu	a2,1130(sp)
   19356:	46b14783          	lbu	a5,1131(sp)
   1935a:	0522                	slli	a0,a0,0x8
   1935c:	8d59                	or	a0,a0,a4
   1935e:	0642                	slli	a2,a2,0x10
   19360:	07e2                	slli	a5,a5,0x18
   19362:	8e5d                	or	a2,a2,a5
   19364:	2eb11423          	sh	a1,744(sp)
   19368:	2ed10523          	sb	a3,746(sp)
   1936c:	00a66b33          	or	s6,a2,a0
   19370:	46c10593          	addi	a1,sp,1132
   19374:	8282                	jr	t0

00019376 <OUTLINED_FUNCTION_4>:
   19376:	4509                	li	a0,2
   19378:	0009c583          	lbu	a1,0(s3)
   1937c:	0019c603          	lbu	a2,1(s3)
   19380:	0029c683          	lbu	a3,2(s3)
   19384:	57014703          	lbu	a4,1392(sp)
   19388:	56a10623          	sb	a0,1388(sp)
   1938c:	0622                	slli	a2,a2,0x8
   1938e:	57114503          	lbu	a0,1393(sp)
   19392:	8dd1                	or	a1,a1,a2
   19394:	57214603          	lbu	a2,1394(sp)
   19398:	57314783          	lbu	a5,1395(sp)
   1939c:	0522                	slli	a0,a0,0x8
   1939e:	8d59                	or	a0,a0,a4
   193a0:	0642                	slli	a2,a2,0x10
   193a2:	07e2                	slli	a5,a5,0x18
   193a4:	8e5d                	or	a2,a2,a5
   193a6:	8282                	jr	t0

000193a8 <OUTLINED_FUNCTION_5>:
   193a8:	4509                	li	a0,2
   193aa:	00094583          	lbu	a1,0(s2)
   193ae:	00194603          	lbu	a2,1(s2)
   193b2:	00294683          	lbu	a3,2(s2)
   193b6:	46814703          	lbu	a4,1128(sp)
   193ba:	46a10223          	sb	a0,1124(sp)
   193be:	0622                	slli	a2,a2,0x8
   193c0:	46914503          	lbu	a0,1129(sp)
   193c4:	8dd1                	or	a1,a1,a2
   193c6:	46a14603          	lbu	a2,1130(sp)
   193ca:	46b14783          	lbu	a5,1131(sp)
   193ce:	0522                	slli	a0,a0,0x8
   193d0:	8d59                	or	a0,a0,a4
   193d2:	0642                	slli	a2,a2,0x10
   193d4:	07e2                	slli	a5,a5,0x18
   193d6:	8e5d                	or	a2,a2,a5
   193d8:	8282                	jr	t0

000193da <OUTLINED_FUNCTION_6>:
   193da:	4509                	li	a0,2
   193dc:	0009c583          	lbu	a1,0(s3)
   193e0:	0019c603          	lbu	a2,1(s3)
   193e4:	0029c683          	lbu	a3,2(s3)
   193e8:	46814703          	lbu	a4,1128(sp)
   193ec:	46a10223          	sb	a0,1124(sp)
   193f0:	0622                	slli	a2,a2,0x8
   193f2:	46914503          	lbu	a0,1129(sp)
   193f6:	8dd1                	or	a1,a1,a2
   193f8:	46a14603          	lbu	a2,1130(sp)
   193fc:	46b14783          	lbu	a5,1131(sp)
   19400:	0522                	slli	a0,a0,0x8
   19402:	8d59                	or	a0,a0,a4
   19404:	0642                	slli	a2,a2,0x10
   19406:	07e2                	slli	a5,a5,0x18
   19408:	8e5d                	or	a2,a2,a5
   1940a:	8282                	jr	t0

0001940c <OUTLINED_FUNCTION_7>:
   1940c:	4509                	li	a0,2
   1940e:	00094583          	lbu	a1,0(s2)
   19412:	00194603          	lbu	a2,1(s2)
   19416:	00294683          	lbu	a3,2(s2)
   1941a:	57014703          	lbu	a4,1392(sp)
   1941e:	56a10623          	sb	a0,1388(sp)
   19422:	0622                	slli	a2,a2,0x8
   19424:	57114503          	lbu	a0,1393(sp)
   19428:	8dd1                	or	a1,a1,a2
   1942a:	57214603          	lbu	a2,1394(sp)
   1942e:	57314783          	lbu	a5,1395(sp)
   19432:	0522                	slli	a0,a0,0x8
   19434:	8d59                	or	a0,a0,a4
   19436:	0642                	slli	a2,a2,0x10
   19438:	07e2                	slli	a5,a5,0x18
   1943a:	8e5d                	or	a2,a2,a5
   1943c:	8282                	jr	t0

0001943e <OUTLINED_FUNCTION_8>:
   1943e:	57014703          	lbu	a4,1392(sp)
   19442:	56a10623          	sb	a0,1388(sp)
   19446:	0622                	slli	a2,a2,0x8
   19448:	57114503          	lbu	a0,1393(sp)
   1944c:	8dd1                	or	a1,a1,a2
   1944e:	57214603          	lbu	a2,1394(sp)
   19452:	57314783          	lbu	a5,1395(sp)
   19456:	0522                	slli	a0,a0,0x8
   19458:	8d59                	or	a0,a0,a4
   1945a:	0642                	slli	a2,a2,0x10
   1945c:	07e2                	slli	a5,a5,0x18
   1945e:	8e5d                	or	a2,a2,a5
   19460:	8282                	jr	t0

00019462 <OUTLINED_FUNCTION_9>:
   19462:	4409                	li	s0,2
   19464:	018b5513          	srli	a0,s6,0x18
   19468:	010b5593          	srli	a1,s6,0x10
   1946c:	56a109a3          	sb	a0,1395(sp)
   19470:	008b5513          	srli	a0,s6,0x8
   19474:	56810623          	sb	s0,1388(sp)
   19478:	57610823          	sb	s6,1392(sp)
   1947c:	56a108a3          	sb	a0,1393(sp)
   19480:	56b10923          	sb	a1,1394(sp)
   19484:	8282                	jr	t0

00019486 <OUTLINED_FUNCTION_10>:
   19486:	4489                	li	s1,2
   19488:	018b5513          	srli	a0,s6,0x18
   1948c:	010b5593          	srli	a1,s6,0x10
   19490:	56a109a3          	sb	a0,1395(sp)
   19494:	008b5513          	srli	a0,s6,0x8
   19498:	56910623          	sb	s1,1388(sp)
   1949c:	57610823          	sb	s6,1392(sp)
   194a0:	56a108a3          	sb	a0,1393(sp)
   194a4:	56b10923          	sb	a1,1394(sp)
   194a8:	8282                	jr	t0

000194aa <OUTLINED_FUNCTION_11>:
   194aa:	4489                	li	s1,2
   194ac:	018b5513          	srli	a0,s6,0x18
   194b0:	010b5593          	srli	a1,s6,0x10
   194b4:	52a101a3          	sb	a0,1315(sp)
   194b8:	008b5513          	srli	a0,s6,0x8
   194bc:	50910e23          	sb	s1,1308(sp)
   194c0:	53610023          	sb	s6,1312(sp)
   194c4:	52a100a3          	sb	a0,1313(sp)
   194c8:	52b10123          	sb	a1,1314(sp)
   194cc:	8282                	jr	t0

000194ce <OUTLINED_FUNCTION_12>:
   194ce:	2e814503          	lbu	a0,744(sp)
   194d2:	2e914583          	lbu	a1,745(sp)
   194d6:	2ea14603          	lbu	a2,746(sp)
   194da:	56d10413          	addi	s0,sp,1389
   194de:	56a106a3          	sb	a0,1389(sp)
   194e2:	56b10723          	sb	a1,1390(sp)
   194e6:	56c107a3          	sb	a2,1391(sp)
   194ea:	46410513          	addi	a0,sp,1124
   194ee:	048c                	addi	a1,sp,576
   194f0:	8282                	jr	t0

000194f2 <OUTLINED_FUNCTION_13>:
   194f2:	44c14503          	lbu	a0,1100(sp)
   194f6:	44d14583          	lbu	a1,1101(sp)
   194fa:	44e14603          	lbu	a2,1102(sp)
   194fe:	51d10413          	addi	s0,sp,1309
   19502:	50a10ea3          	sb	a0,1309(sp)
   19506:	50b10f23          	sb	a1,1310(sp)
   1950a:	50c10fa3          	sb	a2,1311(sp)
   1950e:	0488                	addi	a0,sp,576
   19510:	15ac                	addi	a1,sp,744
   19512:	8282                	jr	t0

00019514 <OUTLINED_FUNCTION_14>:
   19514:	2e814503          	lbu	a0,744(sp)
   19518:	2e914583          	lbu	a1,745(sp)
   1951c:	2ea14603          	lbu	a2,746(sp)
   19520:	56d10413          	addi	s0,sp,1389
   19524:	56a106a3          	sb	a0,1389(sp)
   19528:	56b10723          	sb	a1,1390(sp)
   1952c:	56c107a3          	sb	a2,1391(sp)
   19530:	8282                	jr	t0

00019532 <OUTLINED_FUNCTION_15>:
   19532:	2e814503          	lbu	a0,744(sp)
   19536:	2e914583          	lbu	a1,745(sp)
   1953a:	2ea14603          	lbu	a2,746(sp)
   1953e:	56d10993          	addi	s3,sp,1389
   19542:	56a106a3          	sb	a0,1389(sp)
   19546:	56b10723          	sb	a1,1390(sp)
   1954a:	56c107a3          	sb	a2,1391(sp)
   1954e:	8282                	jr	t0

00019550 <OUTLINED_FUNCTION_16>:
   19550:	2e814503          	lbu	a0,744(sp)
   19554:	2e914583          	lbu	a1,745(sp)
   19558:	2ea14603          	lbu	a2,746(sp)
   1955c:	56d10913          	addi	s2,sp,1389
   19560:	56a106a3          	sb	a0,1389(sp)
   19564:	56b10723          	sb	a1,1390(sp)
   19568:	56c107a3          	sb	a2,1391(sp)
   1956c:	0488                	addi	a0,sp,576
   1956e:	51c10593          	addi	a1,sp,1308
   19572:	8282                	jr	t0

00019574 <OUTLINED_FUNCTION_17>:
   19574:	4489                	li	s1,2
   19576:	018b5513          	srli	a0,s6,0x18
   1957a:	010b5593          	srli	a1,s6,0x10
   1957e:	24a103a3          	sb	a0,583(sp)
   19582:	008b5513          	srli	a0,s6,0x8
   19586:	24910023          	sb	s1,576(sp)
   1958a:	25610223          	sb	s6,580(sp)
   1958e:	24a102a3          	sb	a0,581(sp)
   19592:	24b10323          	sb	a1,582(sp)
   19596:	8282                	jr	t0

00019598 <OUTLINED_FUNCTION_18>:
   19598:	2e814503          	lbu	a0,744(sp)
   1959c:	2e914583          	lbu	a1,745(sp)
   195a0:	2ea14603          	lbu	a2,746(sp)
   195a4:	56d10913          	addi	s2,sp,1389
   195a8:	56a106a3          	sb	a0,1389(sp)
   195ac:	56b10723          	sb	a1,1390(sp)
   195b0:	56c107a3          	sb	a2,1391(sp)
   195b4:	8282                	jr	t0

000195b6 <OUTLINED_FUNCTION_19>:
   195b6:	4409                	li	s0,2
   195b8:	018b5513          	srli	a0,s6,0x18
   195bc:	010b5593          	srli	a1,s6,0x10
   195c0:	46a105a3          	sb	a0,1131(sp)
   195c4:	008b5513          	srli	a0,s6,0x8
   195c8:	46810223          	sb	s0,1124(sp)
   195cc:	47610423          	sb	s6,1128(sp)
   195d0:	46a104a3          	sb	a0,1129(sp)
   195d4:	46b10523          	sb	a1,1130(sp)
   195d8:	8282                	jr	t0

000195da <OUTLINED_FUNCTION_20>:
   195da:	2e814503          	lbu	a0,744(sp)
   195de:	2e914583          	lbu	a1,745(sp)
   195e2:	2ea14603          	lbu	a2,746(sp)
   195e6:	51d10413          	addi	s0,sp,1309
   195ea:	50a10ea3          	sb	a0,1309(sp)
   195ee:	50b10f23          	sb	a1,1310(sp)
   195f2:	50c10fa3          	sb	a2,1311(sp)
   195f6:	8282                	jr	t0

000195f8 <OUTLINED_FUNCTION_21>:
   195f8:	1141                	addi	sp,sp,-16
   195fa:	c606                	sw	ra,12(sp)
   195fc:	c422                	sw	s0,8(sp)
   195fe:	c226                	sw	s1,4(sp)
   19600:	c04a                	sw	s2,0(sp)
   19602:	86ae                	mv	a3,a1
   19604:	84aa                	mv	s1,a0
   19606:	00054503          	lbu	a0,0(a0)
   1960a:	4589                	li	a1,2
   1960c:	4405                	li	s0,1
   1960e:	8282                	jr	t0

00019610 <OUTLINED_FUNCTION_22>:
   19610:	8522                	mv	a0,s0
   19612:	40b2                	lw	ra,12(sp)
   19614:	4422                	lw	s0,8(sp)
   19616:	4492                	lw	s1,4(sp)
   19618:	4902                	lw	s2,0(sp)
   1961a:	0141                	addi	sp,sp,16
   1961c:	8082                	ret

0001961e <OUTLINED_FUNCTION_23>:
   1961e:	56a106a3          	sb	a0,1389(sp)
   19622:	56b10723          	sb	a1,1390(sp)
   19626:	56c107a3          	sb	a2,1391(sp)
   1962a:	46410513          	addi	a0,sp,1124
   1962e:	048c                	addi	a1,sp,576
   19630:	8282                	jr	t0

00019632 <OUTLINED_FUNCTION_24>:
   19632:	44c14503          	lbu	a0,1100(sp)
   19636:	44d14583          	lbu	a1,1101(sp)
   1963a:	44e14603          	lbu	a2,1102(sp)
   1963e:	24110413          	addi	s0,sp,577
   19642:	24a100a3          	sb	a0,577(sp)
   19646:	24b10123          	sb	a1,578(sp)
   1964a:	24c101a3          	sb	a2,579(sp)
   1964e:	8282                	jr	t0

00019650 <OUTLINED_FUNCTION_25>:
   19650:	56a106a3          	sb	a0,1389(sp)
   19654:	56b10723          	sb	a1,1390(sp)
   19658:	56c107a3          	sb	a2,1391(sp)
   1965c:	0488                	addi	a0,sp,576
   1965e:	51c10593          	addi	a1,sp,1308
   19662:	8282                	jr	t0

00019664 <OUTLINED_FUNCTION_26>:
   19664:	44b11623          	sh	a1,1100(sp)
   19668:	44d10723          	sb	a3,1102(sp)
   1966c:	00a66b33          	or	s6,a2,a0
   19670:	46c10593          	addi	a1,sp,1132
   19674:	15a8                	addi	a0,sp,744
   19676:	8282                	jr	t0

00019678 <OUTLINED_FUNCTION_27>:
   19678:	51c14503          	lbu	a0,1308(sp)
   1967c:	51d14583          	lbu	a1,1309(sp)
   19680:	51e14603          	lbu	a2,1310(sp)
   19684:	56d10413          	addi	s0,sp,1389
   19688:	56a106a3          	sb	a0,1389(sp)
   1968c:	56b10723          	sb	a1,1390(sp)
   19690:	56c107a3          	sb	a2,1391(sp)
   19694:	8282                	jr	t0

00019696 <OUTLINED_FUNCTION_28>:
   19696:	51c14503          	lbu	a0,1308(sp)
   1969a:	51d14583          	lbu	a1,1309(sp)
   1969e:	51e14603          	lbu	a2,1310(sp)
   196a2:	56d10993          	addi	s3,sp,1389
   196a6:	56a106a3          	sb	a0,1389(sp)
   196aa:	56b10723          	sb	a1,1390(sp)
   196ae:	56c107a3          	sb	a2,1391(sp)
   196b2:	8282                	jr	t0

000196b4 <OUTLINED_FUNCTION_29>:
   196b4:	50b11e23          	sh	a1,1308(sp)
   196b8:	50d10f23          	sb	a3,1310(sp)
   196bc:	00a66b33          	or	s6,a2,a0
   196c0:	57410593          	addi	a1,sp,1396
   196c4:	46410513          	addi	a0,sp,1124
   196c8:	8282                	jr	t0

000196ca <OUTLINED_FUNCTION_30>:
   196ca:	56d10913          	addi	s2,sp,1389
   196ce:	56a106a3          	sb	a0,1389(sp)
   196d2:	56b10723          	sb	a1,1390(sp)
   196d6:	56c107a3          	sb	a2,1391(sp)
   196da:	8282                	jr	t0

000196dc <OUTLINED_FUNCTION_31>:
   196dc:	2e814503          	lbu	a0,744(sp)
   196e0:	2e914583          	lbu	a1,745(sp)
   196e4:	2ea14603          	lbu	a2,746(sp)
   196e8:	46510913          	addi	s2,sp,1125
   196ec:	46a102a3          	sb	a0,1125(sp)
   196f0:	46b10323          	sb	a1,1126(sp)
   196f4:	46c103a3          	sb	a2,1127(sp)
   196f8:	0488                	addi	a0,sp,576
   196fa:	51c10593          	addi	a1,sp,1308
   196fe:	8282                	jr	t0

00019700 <OUTLINED_FUNCTION_32>:
   19700:	4409                	li	s0,2
   19702:	018b5513          	srli	a0,s6,0x18
   19706:	010b5593          	srli	a1,s6,0x10
   1970a:	24a103a3          	sb	a0,583(sp)
   1970e:	008b5513          	srli	a0,s6,0x8
   19712:	24810023          	sb	s0,576(sp)
   19716:	25610223          	sb	s6,580(sp)
   1971a:	24a102a3          	sb	a0,581(sp)
   1971e:	24b10323          	sb	a1,582(sp)
   19722:	8282                	jr	t0

00019724 <OUTLINED_FUNCTION_33>:
   19724:	4509                	li	a0,2
   19726:	0009c583          	lbu	a1,0(s3)
   1972a:	0019c603          	lbu	a2,1(s3)
   1972e:	0029c683          	lbu	a3,2(s3)
   19732:	8282                	jr	t0

00019734 <OUTLINED_FUNCTION_34>:
   19734:	4509                	li	a0,2
   19736:	00094583          	lbu	a1,0(s2)
   1973a:	00194603          	lbu	a2,1(s2)
   1973e:	00294683          	lbu	a3,2(s2)
   19742:	8282                	jr	t0

00019744 <OUTLINED_FUNCTION_35>:
   19744:	06a2                	slli	a3,a3,0x8
   19746:	46814403          	lbu	s0,1128(sp)
   1974a:	46914583          	lbu	a1,1129(sp)
   1974e:	8ed9                	or	a3,a3,a4
   19750:	46a14703          	lbu	a4,1130(sp)
   19754:	46b14503          	lbu	a0,1131(sp)
   19758:	05a2                	slli	a1,a1,0x8
   1975a:	8dc1                	or	a1,a1,s0
   1975c:	0742                	slli	a4,a4,0x10
   1975e:	0562                	slli	a0,a0,0x18
   19760:	8d59                	or	a0,a0,a4
   19762:	8282                	jr	t0

00019764 <OUTLINED_FUNCTION_36>:
   19764:	50b11e23          	sh	a1,1308(sp)
   19768:	50d10f23          	sb	a3,1310(sp)
   1976c:	00a66b33          	or	s6,a2,a0
   19770:	46c10593          	addi	a1,sp,1132
   19774:	0488                	addi	a0,sp,576
   19776:	8282                	jr	t0

00019778 <OUTLINED_FUNCTION_37>:
   19778:	2e814503          	lbu	a0,744(sp)
   1977c:	2e914583          	lbu	a1,745(sp)
   19780:	2ea14603          	lbu	a2,746(sp)
   19784:	8282                	jr	t0

00019786 <OUTLINED_FUNCTION_38>:
   19786:	05a2                	slli	a1,a1,0x8
   19788:	8dc1                	or	a1,a1,s0
   1978a:	0742                	slli	a4,a4,0x10
   1978c:	0562                	slli	a0,a0,0x18
   1978e:	8d59                	or	a0,a0,a4
   19790:	2ed11423          	sh	a3,744(sp)
   19794:	2ef10523          	sb	a5,746(sp)
   19798:	00b566b3          	or	a3,a0,a1
   1979c:	167d                	addi	a2,a2,-1
   1979e:	8282                	jr	t0

000197a0 <OUTLINED_FUNCTION_39>:
   197a0:	0622                	slli	a2,a2,0x8
   197a2:	57014783          	lbu	a5,1392(sp)
   197a6:	57114403          	lbu	s0,1393(sp)
   197aa:	8e55                	or	a2,a2,a3
   197ac:	57214683          	lbu	a3,1394(sp)
   197b0:	57314503          	lbu	a0,1395(sp)
   197b4:	0422                	slli	s0,s0,0x8
   197b6:	8fc1                	or	a5,a5,s0
   197b8:	06c2                	slli	a3,a3,0x10
   197ba:	0562                	slli	a0,a0,0x18
   197bc:	8d55                	or	a0,a0,a3
   197be:	2ec11423          	sh	a2,744(sp)
   197c2:	2ee10523          	sb	a4,746(sp)
   197c6:	00f56633          	or	a2,a0,a5
   197ca:	8282                	jr	t0

000197cc <OUTLINED_FUNCTION_40>:
   197cc:	44c14503          	lbu	a0,1100(sp)
   197d0:	44d14583          	lbu	a1,1101(sp)
   197d4:	44e14603          	lbu	a2,1102(sp)
   197d8:	8282                	jr	t0

000197da <OUTLINED_FUNCTION_41>:
   197da:	50a10ea3          	sb	a0,1309(sp)
   197de:	50b10f23          	sb	a1,1310(sp)
   197e2:	50c10fa3          	sb	a2,1311(sp)
   197e6:	8282                	jr	t0

000197e8 <OUTLINED_FUNCTION_42>:
   197e8:	44b11623          	sh	a1,1100(sp)
   197ec:	44d10723          	sb	a3,1102(sp)
   197f0:	00a66b33          	or	s6,a2,a0
   197f4:	57410593          	addi	a1,sp,1396
   197f8:	15a8                	addi	a0,sp,744
   197fa:	8282                	jr	t0

000197fc <OUTLINED_FUNCTION_43>:
   197fc:	51c14503          	lbu	a0,1308(sp)
   19800:	51d14583          	lbu	a1,1309(sp)
   19804:	51e14603          	lbu	a2,1310(sp)
   19808:	8282                	jr	t0

0001980a <OUTLINED_FUNCTION_44>:
   1980a:	4409                	li	s0,2
   1980c:	018b5513          	srli	a0,s6,0x18
   19810:	010b5593          	srli	a1,s6,0x10
   19814:	52a101a3          	sb	a0,1315(sp)
   19818:	008b5513          	srli	a0,s6,0x8
   1981c:	50810e23          	sb	s0,1308(sp)
   19820:	53610023          	sb	s6,1312(sp)
   19824:	52a100a3          	sb	a0,1313(sp)
   19828:	52b10123          	sb	a1,1314(sp)
   1982c:	8282                	jr	t0

0001982e <OUTLINED_FUNCTION_45>:
   1982e:	470102a3          	sb	a6,1125(sp)
   19832:	46b10323          	sb	a1,1126(sp)
   19836:	46c103a3          	sb	a2,1127(sp)
   1983a:	0088d593          	srli	a1,a7,0x8
   1983e:	47110823          	sb	a7,1136(sp)
   19842:	46b108a3          	sb	a1,1137(sp)
   19846:	46a10923          	sb	a0,1138(sp)
   1984a:	46d109a3          	sb	a3,1139(sp)
   1984e:	8282                	jr	t0

00019850 <OUTLINED_FUNCTION_46>:
   19850:	24a100a3          	sb	a0,577(sp)
   19854:	24b10123          	sb	a1,578(sp)
   19858:	24c101a3          	sb	a2,579(sp)
   1985c:	8282                	jr	t0

0001985e <OUTLINED_FUNCTION_47>:
   1985e:	46a102a3          	sb	a0,1125(sp)
   19862:	46b10323          	sb	a1,1126(sp)
   19866:	46c103a3          	sb	a2,1127(sp)
   1986a:	8282                	jr	t0

0001986c <OUTLINED_FUNCTION_48>:
   1986c:	01078023          	sb	a6,0(a5)
   19870:	8082                	ret

00019872 <OUTLINED_FUNCTION_49>:
   19872:	853e                	mv	a0,a5
   19874:	864a                	mv	a2,s2
   19876:	56910623          	sb	s1,1388(sp)
   1987a:	478d                	li	a5,3
   1987c:	458d                	li	a1,3
   1987e:	8282                	jr	t0

00019880 <OUTLINED_FUNCTION_50>:
   19880:	8622                	mv	a2,s0
   19882:	56910623          	sb	s1,1388(sp)
   19886:	6505                	lui	a0,0x1
   19888:	4411                	li	s0,4
   1988a:	8282                	jr	t0

0001988c <OUTLINED_FUNCTION_51>:
   1988c:	864e                	mv	a2,s3
   1988e:	46810223          	sb	s0,1124(sp)
   19892:	6505                	lui	a0,0x1
   19894:	4491                	li	s1,4
   19896:	8282                	jr	t0

00019898 <OUTLINED_FUNCTION_52>:
   19898:	46414703          	lbu	a4,1124(sp)
   1989c:	4509                	li	a0,2
   1989e:	56a10623          	sb	a0,1388(sp)
   198a2:	8282                	jr	t0

000198a4 <OUTLINED_FUNCTION_53>:
   198a4:	8622                	mv	a2,s0
   198a6:	46910223          	sb	s1,1124(sp)
   198aa:	6505                	lui	a0,0x1
   198ac:	4411                	li	s0,4
   198ae:	8282                	jr	t0

000198b0 <OUTLINED_FUNCTION_54>:
   198b0:	4509                	li	a0,2
   198b2:	000a4583          	lbu	a1,0(s4)
   198b6:	001a4603          	lbu	a2,1(s4)
   198ba:	002a4683          	lbu	a3,2(s4)
   198be:	8282                	jr	t0

000198c0 <OUTLINED_FUNCTION_55>:
   198c0:	46414483          	lbu	s1,1124(sp)
   198c4:	4889                	li	a7,2
   198c6:	ffe48593          	addi	a1,s1,-2
   198ca:	00b03633          	snez	a2,a1
   198ce:	8282                	jr	t0

000198d0 <OUTLINED_FUNCTION_56>:
   198d0:	57410513          	addi	a0,sp,1396
   198d4:	46410593          	addi	a1,sp,1124
   198d8:	04a00613          	li	a2,74
   198dc:	8282                	jr	t0

000198de <OUTLINED_FUNCTION_57>:
   198de:	853e                	mv	a0,a5
   198e0:	864e                	mv	a2,s3
   198e2:	50810e23          	sb	s0,1308(sp)
   198e6:	478d                	li	a5,3
   198e8:	8282                	jr	t0

000198ea <OUTLINED_FUNCTION_58>:
   198ea:	853e                	mv	a0,a5
   198ec:	864e                	mv	a2,s3
   198ee:	56910623          	sb	s1,1388(sp)
   198f2:	478d                	li	a5,3
   198f4:	8282                	jr	t0

000198f6 <OUTLINED_FUNCTION_59>:
   198f6:	853e                	mv	a0,a5
   198f8:	864e                	mv	a2,s3
   198fa:	56810623          	sb	s0,1388(sp)
   198fe:	478d                	li	a5,3
   19900:	8282                	jr	t0

00019902 <OUTLINED_FUNCTION_60>:
   19902:	8622                	mv	a2,s0
   19904:	56910623          	sb	s1,1388(sp)
   19908:	6509                	lui	a0,0x2
   1990a:	4411                	li	s0,4
   1990c:	8282                	jr	t0

0001990e <memset>:
   1990e:	46c1                	li	a3,16
   19910:	04d66f63          	bltu	a2,a3,1996e <memset+0x60>
   19914:	40a006b3          	neg	a3,a0
   19918:	0036f813          	andi	a6,a3,3
   1991c:	01050733          	add	a4,a0,a6
   19920:	00e57963          	bgeu	a0,a4,19932 <memset+0x24>
   19924:	87c2                	mv	a5,a6
   19926:	86aa                	mv	a3,a0
   19928:	00b68023          	sb	a1,0(a3)
   1992c:	17fd                	addi	a5,a5,-1
   1992e:	0685                	addi	a3,a3,1
   19930:	ffe5                	bnez	a5,19928 <memset+0x1a>
   19932:	41060633          	sub	a2,a2,a6
   19936:	ffc67693          	andi	a3,a2,-4
   1993a:	96ba                	add	a3,a3,a4
   1993c:	00d77e63          	bgeu	a4,a3,19958 <memset+0x4a>
   19940:	0ff5f813          	zext.b	a6,a1
   19944:	010107b7          	lui	a5,0x1010
   19948:	10178793          	addi	a5,a5,257 # 1010101 <_ZN17compiler_builtins3mem6memcpy17h90d0c987d2ef5a79E+0xff677f>
   1994c:	02f807b3          	mul	a5,a6,a5
   19950:	c31c                	sw	a5,0(a4)
   19952:	0711                	addi	a4,a4,4
   19954:	fed76ee3          	bltu	a4,a3,19950 <memset+0x42>
   19958:	8a0d                	andi	a2,a2,3
   1995a:	00c68733          	add	a4,a3,a2
   1995e:	00e6f763          	bgeu	a3,a4,1996c <memset+0x5e>
   19962:	00b68023          	sb	a1,0(a3)
   19966:	167d                	addi	a2,a2,-1
   19968:	0685                	addi	a3,a3,1
   1996a:	fe65                	bnez	a2,19962 <memset+0x54>
   1996c:	8082                	ret
   1996e:	86aa                	mv	a3,a0
   19970:	00c50733          	add	a4,a0,a2
   19974:	fee567e3          	bltu	a0,a4,19962 <memset+0x54>
   19978:	bfd5                	j	1996c <memset+0x5e>

0001997a <memcpy>:
   1997a:	00000317          	auipc	t1,0x0
   1997e:	00830067          	jr	8(t1) # 19982 <_ZN17compiler_builtins3mem6memcpy17h90d0c987d2ef5a79E>

00019982 <_ZN17compiler_builtins3mem6memcpy17h90d0c987d2ef5a79E>:
   19982:	1141                	addi	sp,sp,-16
   19984:	c622                	sw	s0,12(sp)
   19986:	46c1                	li	a3,16
   19988:	06d66363          	bltu	a2,a3,199ee <_ZN17compiler_builtins3mem6memcpy17h90d0c987d2ef5a79E+0x6c>
   1998c:	40a006b3          	neg	a3,a0
   19990:	0036f813          	andi	a6,a3,3
   19994:	01050fb3          	add	t6,a0,a6
   19998:	01f57d63          	bgeu	a0,t6,199b2 <_ZN17compiler_builtins3mem6memcpy17h90d0c987d2ef5a79E+0x30>
   1999c:	8742                	mv	a4,a6
   1999e:	86aa                	mv	a3,a0
   199a0:	87ae                	mv	a5,a1
   199a2:	0007c883          	lbu	a7,0(a5)
   199a6:	177d                	addi	a4,a4,-1
   199a8:	01168023          	sb	a7,0(a3)
   199ac:	0685                	addi	a3,a3,1
   199ae:	0785                	addi	a5,a5,1
   199b0:	fb6d                	bnez	a4,199a2 <_ZN17compiler_builtins3mem6memcpy17h90d0c987d2ef5a79E+0x20>
   199b2:	01058433          	add	s0,a1,a6
   199b6:	410608b3          	sub	a7,a2,a6
   199ba:	ffc8f713          	andi	a4,a7,-4
   199be:	00347613          	andi	a2,s0,3
   199c2:	00ef86b3          	add	a3,t6,a4
   199c6:	e621                	bnez	a2,19a0e <_ZN17compiler_builtins3mem6memcpy17h90d0c987d2ef5a79E+0x8c>
   199c8:	00dffa63          	bgeu	t6,a3,199dc <_ZN17compiler_builtins3mem6memcpy17h90d0c987d2ef5a79E+0x5a>
   199cc:	8622                	mv	a2,s0
   199ce:	421c                	lw	a5,0(a2)
   199d0:	00ffa023          	sw	a5,0(t6)
   199d4:	0f91                	addi	t6,t6,4
   199d6:	0611                	addi	a2,a2,4
   199d8:	fedfebe3          	bltu	t6,a3,199ce <_ZN17compiler_builtins3mem6memcpy17h90d0c987d2ef5a79E+0x4c>
   199dc:	00e405b3          	add	a1,s0,a4
   199e0:	0038f613          	andi	a2,a7,3
   199e4:	00c68733          	add	a4,a3,a2
   199e8:	00e6e863          	bltu	a3,a4,199f8 <_ZN17compiler_builtins3mem6memcpy17h90d0c987d2ef5a79E+0x76>
   199ec:	a831                	j	19a08 <_ZN17compiler_builtins3mem6memcpy17h90d0c987d2ef5a79E+0x86>
   199ee:	86aa                	mv	a3,a0
   199f0:	00c50733          	add	a4,a0,a2
   199f4:	00e57a63          	bgeu	a0,a4,19a08 <_ZN17compiler_builtins3mem6memcpy17h90d0c987d2ef5a79E+0x86>
   199f8:	0005c703          	lbu	a4,0(a1)
   199fc:	167d                	addi	a2,a2,-1
   199fe:	00e68023          	sb	a4,0(a3)
   19a02:	0685                	addi	a3,a3,1
   19a04:	0585                	addi	a1,a1,1
   19a06:	fa6d                	bnez	a2,199f8 <_ZN17compiler_builtins3mem6memcpy17h90d0c987d2ef5a79E+0x76>
   19a08:	4432                	lw	s0,12(sp)
   19a0a:	0141                	addi	sp,sp,16
   19a0c:	8082                	ret
   19a0e:	4801                	li	a6,0
   19a10:	4791                	li	a5,4
   19a12:	c402                	sw	zero,8(sp)
   19a14:	40c783b3          	sub	t2,a5,a2
   19a18:	00810293          	addi	t0,sp,8
   19a1c:	0013f313          	andi	t1,t2,1
   19a20:	00c2e2b3          	or	t0,t0,a2
   19a24:	04031763          	bnez	t1,19a72 <_ZN17compiler_builtins3mem6memcpy17h90d0c987d2ef5a79E+0xf0>
   19a28:	0023f793          	andi	a5,t2,2
   19a2c:	ebb9                	bnez	a5,19a82 <_ZN17compiler_builtins3mem6memcpy17h90d0c987d2ef5a79E+0x100>
   19a2e:	4ea2                	lw	t4,8(sp)
   19a30:	00361813          	slli	a6,a2,0x3
   19a34:	004f8793          	addi	a5,t6,4
   19a38:	40c40f33          	sub	t5,s0,a2
   19a3c:	06d7f363          	bgeu	a5,a3,19aa2 <_ZN17compiler_builtins3mem6memcpy17h90d0c987d2ef5a79E+0x120>
   19a40:	410007b3          	neg	a5,a6
   19a44:	0187fe13          	andi	t3,a5,24
   19a48:	004f2283          	lw	t0,4(t5)
   19a4c:	004f0393          	addi	t2,t5,4
   19a50:	010ed5b3          	srl	a1,t4,a6
   19a54:	004f8313          	addi	t1,t6,4
   19a58:	01c297b3          	sll	a5,t0,t3
   19a5c:	8ddd                	or	a1,a1,a5
   19a5e:	008f8793          	addi	a5,t6,8
   19a62:	00bfa023          	sw	a1,0(t6)
   19a66:	8f9a                	mv	t6,t1
   19a68:	8f1e                	mv	t5,t2
   19a6a:	8e96                	mv	t4,t0
   19a6c:	fcd7eee3          	bltu	a5,a3,19a48 <_ZN17compiler_builtins3mem6memcpy17h90d0c987d2ef5a79E+0xc6>
   19a70:	a825                	j	19aa8 <_ZN17compiler_builtins3mem6memcpy17h90d0c987d2ef5a79E+0x126>
   19a72:	00044783          	lbu	a5,0(s0)
   19a76:	00f28023          	sb	a5,0(t0)
   19a7a:	4805                	li	a6,1
   19a7c:	0023f793          	andi	a5,t2,2
   19a80:	d7dd                	beqz	a5,19a2e <_ZN17compiler_builtins3mem6memcpy17h90d0c987d2ef5a79E+0xac>
   19a82:	010407b3          	add	a5,s0,a6
   19a86:	00079783          	lh	a5,0(a5)
   19a8a:	9816                	add	a6,a6,t0
   19a8c:	00f81023          	sh	a5,0(a6)
   19a90:	4ea2                	lw	t4,8(sp)
   19a92:	00361813          	slli	a6,a2,0x3
   19a96:	004f8793          	addi	a5,t6,4
   19a9a:	40c40f33          	sub	t5,s0,a2
   19a9e:	fad7e1e3          	bltu	a5,a3,19a40 <_ZN17compiler_builtins3mem6memcpy17h90d0c987d2ef5a79E+0xbe>
   19aa2:	82f6                	mv	t0,t4
   19aa4:	83fa                	mv	t2,t5
   19aa6:	837e                	mv	t1,t6
   19aa8:	00010223          	sb	zero,4(sp)
   19aac:	4785                	li	a5,1
   19aae:	00010123          	sb	zero,2(sp)
   19ab2:	00f61763          	bne	a2,a5,19ac0 <_ZN17compiler_builtins3mem6memcpy17h90d0c987d2ef5a79E+0x13e>
   19ab6:	4781                	li	a5,0
   19ab8:	4e01                	li	t3,0
   19aba:	4e81                	li	t4,0
   19abc:	0050                	addi	a2,sp,4
   19abe:	a819                	j	19ad4 <_ZN17compiler_builtins3mem6memcpy17h90d0c987d2ef5a79E+0x152>
   19ac0:	0043c783          	lbu	a5,4(t2)
   19ac4:	0053ce03          	lbu	t3,5(t2)
   19ac8:	4e89                	li	t4,2
   19aca:	00f10223          	sb	a5,4(sp)
   19ace:	0e22                	slli	t3,t3,0x8
   19ad0:	00210613          	addi	a2,sp,2
   19ad4:	00147593          	andi	a1,s0,1
   19ad8:	e199                	bnez	a1,19ade <_ZN17compiler_builtins3mem6memcpy17h90d0c987d2ef5a79E+0x15c>
   19ada:	4601                	li	a2,0
   19adc:	a821                	j	19af4 <_ZN17compiler_builtins3mem6memcpy17h90d0c987d2ef5a79E+0x172>
   19ade:	0391                	addi	t2,t2,4
   19ae0:	93f6                	add	t2,t2,t4
   19ae2:	0003c583          	lbu	a1,0(t2)
   19ae6:	00b60023          	sb	a1,0(a2)
   19aea:	00214603          	lbu	a2,2(sp)
   19aee:	00414783          	lbu	a5,4(sp)
   19af2:	0642                	slli	a2,a2,0x10
   19af4:	8e5d                	or	a2,a2,a5
   19af6:	0102d5b3          	srl	a1,t0,a6
   19afa:	410007b3          	neg	a5,a6
   19afe:	00ce6633          	or	a2,t3,a2
   19b02:	8be1                	andi	a5,a5,24
   19b04:	00f61633          	sll	a2,a2,a5
   19b08:	8dd1                	or	a1,a1,a2
   19b0a:	00b32023          	sw	a1,0(t1)
   19b0e:	00e405b3          	add	a1,s0,a4
   19b12:	0038f613          	andi	a2,a7,3
   19b16:	00c68733          	add	a4,a3,a2
   19b1a:	ece6efe3          	bltu	a3,a4,199f8 <_ZN17compiler_builtins3mem6memcpy17h90d0c987d2ef5a79E+0x76>
   19b1e:	b5ed                	j	19a08 <_ZN17compiler_builtins3mem6memcpy17h90d0c987d2ef5a79E+0x86>
