
target/riscv32imc-unknown-none-elf/opt-3/examples/complex_no_dynamic:     file format elf32-littleriscv

Sections:
Idx Name          Size      VMA       LMA       File off  Algn
  0 .eh_frame     00000060  000100d4  000100d4  000000d4  2**2
                  CONTENTS, ALLOC, LOAD, READONLY, DATA
  1 .text         0000adc6  00011134  00011134  00000134  2**1
                  CONTENTS, ALLOC, LOAD, READONLY, CODE
  2 .comment      00000099  00000000  00000000  0000aefa  2**0
                  CONTENTS, READONLY
  3 .riscv.attributes 0000002f  00000000  00000000  0000af93  2**0
                  CONTENTS, READONLY

Disassembly of section .text:

00011134 <_ZN18complex_no_dynamic3app17h02d2cd979ebc4e26E>:
   11134:	7119                	addi	sp,sp,-128
   11136:	de86                	sw	ra,124(sp)
   11138:	dca2                	sw	s0,120(sp)
   1113a:	daa6                	sw	s1,116(sp)
   1113c:	842a                	mv	s0,a0
   1113e:	850a                	mv	a0,sp
   11140:	02100613          	li	a2,33
   11144:	0000b097          	auipc	ra,0xb
   11148:	c10080e7          	jalr	-1008(ra) # 1bd54 <memcpy>
   1114c:	02110513          	addi	a0,sp,33
   11150:	05300613          	li	a2,83
   11154:	4581                	li	a1,0
   11156:	0000b097          	auipc	ra,0xb
   1115a:	b92080e7          	jalr	-1134(ra) # 1bce8 <memset>
   1115e:	6509                	lui	a0,0x2
   11160:	4489                	li	s1,2
   11162:	4589                	li	a1,2
   11164:	860a                	mv	a2,sp
   11166:	53e50793          	addi	a5,a0,1342 # 253e <.Lline_table_start1+0x2313>
   1116a:	02100693          	li	a3,33
   1116e:	4711                	li	a4,4
   11170:	853e                	mv	a0,a5
   11172:	00000073          	ecall
   11176:	02950b63          	beq	a0,s1,111ac <_ZN18complex_no_dynamic3app17h02d2cd979ebc4e26E+0x78>
   1117a:	45a1                	li	a1,8
   1117c:	02110613          	addi	a2,sp,33
   11180:	05300693          	li	a3,83
   11184:	470d                	li	a4,3
   11186:	853e                	mv	a0,a5
   11188:	00000073          	ecall
   1118c:	02950063          	beq	a0,s1,111ac <_ZN18complex_no_dynamic3app17h02d2cd979ebc4e26E+0x78>
   11190:	6509                	lui	a0,0x2
   11192:	4589                	li	a1,2
   11194:	4621                	li	a2,8
   11196:	53e50493          	addi	s1,a0,1342 # 253e <.Lline_table_start1+0x2313>
   1119a:	4709                	li	a4,2
   1119c:	07f00813          	li	a6,127
   111a0:	8526                	mv	a0,s1
   111a2:	4681                	li	a3,0
   111a4:	00000073          	ecall
   111a8:	02a86963          	bltu	a6,a0,111da <_ZN18complex_no_dynamic3app17h02d2cd979ebc4e26E+0xa6>
   111ac:	853e                	mv	a0,a5
   111ae:	4601                	li	a2,0
   111b0:	4681                	li	a3,0
   111b2:	4705                	li	a4,1
   111b4:	00e40023          	sb	a4,0(s0)
   111b8:	c04c                	sw	a1,4(s0)
   111ba:	45a1                	li	a1,8
   111bc:	470d                	li	a4,3
   111be:	00000073          	ecall
   111c2:	4589                	li	a1,2
   111c4:	4711                	li	a4,4
   111c6:	853e                	mv	a0,a5
   111c8:	4601                	li	a2,0
   111ca:	4681                	li	a3,0
   111cc:	00000073          	ecall
   111d0:	50f6                	lw	ra,124(sp)
   111d2:	5466                	lw	s0,120(sp)
   111d4:	54d6                	lw	s1,116(sp)
   111d6:	6109                	addi	sp,sp,128
   111d8:	8082                	ret
   111da:	8526                	mv	a0,s1
   111dc:	4601                	li	a2,0
   111de:	4681                	li	a3,0
   111e0:	45a1                	li	a1,8
   111e2:	470d                	li	a4,3
   111e4:	00000073          	ecall
   111e8:	45a1                	li	a1,8
   111ea:	470d                	li	a4,3
   111ec:	8526                	mv	a0,s1
   111ee:	4601                	li	a2,0
   111f0:	4681                	li	a3,0
   111f2:	00000073          	ecall
   111f6:	00140513          	addi	a0,s0,1
   111fa:	02110593          	addi	a1,sp,33
   111fe:	05300613          	li	a2,83
   11202:	0000b097          	auipc	ra,0xb
   11206:	b52080e7          	jalr	-1198(ra) # 1bd54 <memcpy>
   1120a:	8526                	mv	a0,s1
   1120c:	4601                	li	a2,0
   1120e:	4681                	li	a3,0
   11210:	00040023          	sb	zero,0(s0)
   11214:	45a1                	li	a1,8
   11216:	470d                	li	a4,3
   11218:	00000073          	ecall
   1121c:	4589                	li	a1,2
   1121e:	4711                	li	a4,4
   11220:	8526                	mv	a0,s1
   11222:	4601                	li	a2,0
   11224:	4681                	li	a3,0
   11226:	00000073          	ecall
   1122a:	50f6                	lw	ra,124(sp)
   1122c:	5466                	lw	s0,120(sp)
   1122e:	54d6                	lw	s1,116(sp)
   11230:	6109                	addi	sp,sp,128
   11232:	8082                	ret

00011234 <_ZN18complex_no_dynamic3app17h03ede6a235bedf99E>:
   11234:	7135                	addi	sp,sp,-160
   11236:	cf06                	sw	ra,156(sp)
   11238:	cd22                	sw	s0,152(sp)
   1123a:	842a                	mv	s0,a0
   1123c:	00910513          	addi	a0,sp,9
   11240:	06300613          	li	a2,99
   11244:	0000b097          	auipc	ra,0xb
   11248:	b10080e7          	jalr	-1264(ra) # 1bd54 <memcpy>
   1124c:	10e8                	addi	a0,sp,108
   1124e:	02c00613          	li	a2,44
   11252:	4581                	li	a1,0
   11254:	0000b097          	auipc	ra,0xb
   11258:	a94080e7          	jalr	-1388(ra) # 1bce8 <memset>
   1125c:	4561                	li	a0,24
   1125e:	4595                	li	a1,5
   11260:	00910613          	addi	a2,sp,9
   11264:	06300693          	li	a3,99
   11268:	4711                	li	a4,4
   1126a:	4789                	li	a5,2
   1126c:	00000073          	ecall
   11270:	02f50763          	beq	a0,a5,1129e <_ZN18complex_no_dynamic3app17h03ede6a235bedf99E+0x6a>
   11274:	4561                	li	a0,24
   11276:	458d                	li	a1,3
   11278:	10f0                	addi	a2,sp,108
   1127a:	02c00693          	li	a3,44
   1127e:	470d                	li	a4,3
   11280:	00000073          	ecall
   11284:	00f50d63          	beq	a0,a5,1129e <_ZN18complex_no_dynamic3app17h03ede6a235bedf99E+0x6a>
   11288:	4561                	li	a0,24
   1128a:	4595                	li	a1,5
   1128c:	460d                	li	a2,3
   1128e:	4709                	li	a4,2
   11290:	07f00793          	li	a5,127
   11294:	4681                	li	a3,0
   11296:	00000073          	ecall
   1129a:	02a7e863          	bltu	a5,a0,112ca <_ZN18complex_no_dynamic3app17h03ede6a235bedf99E+0x96>
   1129e:	4601                	li	a2,0
   112a0:	4681                	li	a3,0
   112a2:	4705                	li	a4,1
   112a4:	4561                	li	a0,24
   112a6:	00e40023          	sb	a4,0(s0)
   112aa:	c04c                	sw	a1,4(s0)
   112ac:	458d                	li	a1,3
   112ae:	470d                	li	a4,3
   112b0:	00000073          	ecall
   112b4:	4561                	li	a0,24
   112b6:	4595                	li	a1,5
   112b8:	4711                	li	a4,4
   112ba:	4601                	li	a2,0
   112bc:	4681                	li	a3,0
   112be:	00000073          	ecall
   112c2:	40fa                	lw	ra,156(sp)
   112c4:	446a                	lw	s0,152(sp)
   112c6:	610d                	addi	sp,sp,160
   112c8:	8082                	ret
   112ca:	4601                	li	a2,0
   112cc:	4681                	li	a3,0
   112ce:	4561                	li	a0,24
   112d0:	458d                	li	a1,3
   112d2:	470d                	li	a4,3
   112d4:	00000073          	ecall
   112d8:	4561                	li	a0,24
   112da:	458d                	li	a1,3
   112dc:	470d                	li	a4,3
   112de:	4601                	li	a2,0
   112e0:	4681                	li	a3,0
   112e2:	00000073          	ecall
   112e6:	00140513          	addi	a0,s0,1
   112ea:	10ec                	addi	a1,sp,108
   112ec:	02c00613          	li	a2,44
   112f0:	0000b097          	auipc	ra,0xb
   112f4:	a64080e7          	jalr	-1436(ra) # 1bd54 <memcpy>
   112f8:	4601                	li	a2,0
   112fa:	4681                	li	a3,0
   112fc:	00040023          	sb	zero,0(s0)
   11300:	4561                	li	a0,24
   11302:	458d                	li	a1,3
   11304:	470d                	li	a4,3
   11306:	00000073          	ecall
   1130a:	4561                	li	a0,24
   1130c:	4595                	li	a1,5
   1130e:	4711                	li	a4,4
   11310:	4601                	li	a2,0
   11312:	4681                	li	a3,0
   11314:	00000073          	ecall
   11318:	40fa                	lw	ra,156(sp)
   1131a:	446a                	lw	s0,152(sp)
   1131c:	610d                	addi	sp,sp,160
   1131e:	8082                	ret

00011320 <_ZN18complex_no_dynamic3app17h0437c19c6dcbfb11E>:
   11320:	7119                	addi	sp,sp,-128
   11322:	de86                	sw	ra,124(sp)
   11324:	dca2                	sw	s0,120(sp)
   11326:	daa6                	sw	s1,116(sp)
   11328:	842a                	mv	s0,a0
   1132a:	00110513          	addi	a0,sp,1
   1132e:	03200613          	li	a2,50
   11332:	0000b097          	auipc	ra,0xb
   11336:	a22080e7          	jalr	-1502(ra) # 1bd54 <memcpy>
   1133a:	03310513          	addi	a0,sp,51
   1133e:	04100613          	li	a2,65
   11342:	4581                	li	a1,0
   11344:	0000b097          	auipc	ra,0xb
   11348:	9a4080e7          	jalr	-1628(ra) # 1bce8 <memset>
   1134c:	6505                	lui	a0,0x1
   1134e:	459d                	li	a1,7
   11350:	00110613          	addi	a2,sp,1
   11354:	03200693          	li	a3,50
   11358:	91d50793          	addi	a5,a0,-1763 # 91d <.Lline_table_start1+0x6f2>
   1135c:	4711                	li	a4,4
   1135e:	4489                	li	s1,2
   11360:	853e                	mv	a0,a5
   11362:	00000073          	ecall
   11366:	02950b63          	beq	a0,s1,1139c <_ZN18complex_no_dynamic3app17h0437c19c6dcbfb11E+0x7c>
   1136a:	4595                	li	a1,5
   1136c:	03310613          	addi	a2,sp,51
   11370:	04100693          	li	a3,65
   11374:	470d                	li	a4,3
   11376:	853e                	mv	a0,a5
   11378:	00000073          	ecall
   1137c:	02950063          	beq	a0,s1,1139c <_ZN18complex_no_dynamic3app17h0437c19c6dcbfb11E+0x7c>
   11380:	6505                	lui	a0,0x1
   11382:	459d                	li	a1,7
   11384:	4615                	li	a2,5
   11386:	91d50493          	addi	s1,a0,-1763 # 91d <.Lline_table_start1+0x6f2>
   1138a:	4709                	li	a4,2
   1138c:	07f00813          	li	a6,127
   11390:	8526                	mv	a0,s1
   11392:	4681                	li	a3,0
   11394:	00000073          	ecall
   11398:	02a86963          	bltu	a6,a0,113ca <_ZN18complex_no_dynamic3app17h0437c19c6dcbfb11E+0xaa>
   1139c:	853e                	mv	a0,a5
   1139e:	4601                	li	a2,0
   113a0:	4681                	li	a3,0
   113a2:	4705                	li	a4,1
   113a4:	00e40023          	sb	a4,0(s0)
   113a8:	c04c                	sw	a1,4(s0)
   113aa:	4595                	li	a1,5
   113ac:	470d                	li	a4,3
   113ae:	00000073          	ecall
   113b2:	459d                	li	a1,7
   113b4:	4711                	li	a4,4
   113b6:	853e                	mv	a0,a5
   113b8:	4601                	li	a2,0
   113ba:	4681                	li	a3,0
   113bc:	00000073          	ecall
   113c0:	50f6                	lw	ra,124(sp)
   113c2:	5466                	lw	s0,120(sp)
   113c4:	54d6                	lw	s1,116(sp)
   113c6:	6109                	addi	sp,sp,128
   113c8:	8082                	ret
   113ca:	8526                	mv	a0,s1
   113cc:	4601                	li	a2,0
   113ce:	4681                	li	a3,0
   113d0:	4595                	li	a1,5
   113d2:	470d                	li	a4,3
   113d4:	00000073          	ecall
   113d8:	4595                	li	a1,5
   113da:	470d                	li	a4,3
   113dc:	8526                	mv	a0,s1
   113de:	4601                	li	a2,0
   113e0:	4681                	li	a3,0
   113e2:	00000073          	ecall
   113e6:	00140513          	addi	a0,s0,1
   113ea:	03310593          	addi	a1,sp,51
   113ee:	04100613          	li	a2,65
   113f2:	0000b097          	auipc	ra,0xb
   113f6:	962080e7          	jalr	-1694(ra) # 1bd54 <memcpy>
   113fa:	8526                	mv	a0,s1
   113fc:	4601                	li	a2,0
   113fe:	4681                	li	a3,0
   11400:	00040023          	sb	zero,0(s0)
   11404:	4595                	li	a1,5
   11406:	470d                	li	a4,3
   11408:	00000073          	ecall
   1140c:	459d                	li	a1,7
   1140e:	4711                	li	a4,4
   11410:	8526                	mv	a0,s1
   11412:	4601                	li	a2,0
   11414:	4681                	li	a3,0
   11416:	00000073          	ecall
   1141a:	50f6                	lw	ra,124(sp)
   1141c:	5466                	lw	s0,120(sp)
   1141e:	54d6                	lw	s1,116(sp)
   11420:	6109                	addi	sp,sp,128
   11422:	8082                	ret

00011424 <_ZN18complex_no_dynamic3app17h06f4f5c60a83d149E>:
   11424:	7159                	addi	sp,sp,-112
   11426:	d686                	sw	ra,108(sp)
   11428:	d4a2                	sw	s0,104(sp)
   1142a:	d2a6                	sw	s1,100(sp)
   1142c:	842a                	mv	s0,a0
   1142e:	00510513          	addi	a0,sp,5
   11432:	03800613          	li	a2,56
   11436:	0000b097          	auipc	ra,0xb
   1143a:	91e080e7          	jalr	-1762(ra) # 1bd54 <memcpy>
   1143e:	03d10513          	addi	a0,sp,61
   11442:	02700613          	li	a2,39
   11446:	4581                	li	a1,0
   11448:	0000b097          	auipc	ra,0xb
   1144c:	8a0080e7          	jalr	-1888(ra) # 1bce8 <memset>
   11450:	6505                	lui	a0,0x1
   11452:	4489                	li	s1,2
   11454:	4589                	li	a1,2
   11456:	00510613          	addi	a2,sp,5
   1145a:	e2b50793          	addi	a5,a0,-469 # e2b <.Lline_table_start1+0xc00>
   1145e:	03800693          	li	a3,56
   11462:	4711                	li	a4,4
   11464:	853e                	mv	a0,a5
   11466:	00000073          	ecall
   1146a:	02950b63          	beq	a0,s1,114a0 <_ZN18complex_no_dynamic3app17h06f4f5c60a83d149E+0x7c>
   1146e:	45a1                	li	a1,8
   11470:	03d10613          	addi	a2,sp,61
   11474:	02700693          	li	a3,39
   11478:	470d                	li	a4,3
   1147a:	853e                	mv	a0,a5
   1147c:	00000073          	ecall
   11480:	02950063          	beq	a0,s1,114a0 <_ZN18complex_no_dynamic3app17h06f4f5c60a83d149E+0x7c>
   11484:	6505                	lui	a0,0x1
   11486:	4589                	li	a1,2
   11488:	4621                	li	a2,8
   1148a:	e2b50493          	addi	s1,a0,-469 # e2b <.Lline_table_start1+0xc00>
   1148e:	4709                	li	a4,2
   11490:	07f00813          	li	a6,127
   11494:	8526                	mv	a0,s1
   11496:	4681                	li	a3,0
   11498:	00000073          	ecall
   1149c:	02a86963          	bltu	a6,a0,114ce <_ZN18complex_no_dynamic3app17h06f4f5c60a83d149E+0xaa>
   114a0:	853e                	mv	a0,a5
   114a2:	4601                	li	a2,0
   114a4:	4681                	li	a3,0
   114a6:	4705                	li	a4,1
   114a8:	00e40023          	sb	a4,0(s0)
   114ac:	c04c                	sw	a1,4(s0)
   114ae:	45a1                	li	a1,8
   114b0:	470d                	li	a4,3
   114b2:	00000073          	ecall
   114b6:	4589                	li	a1,2
   114b8:	4711                	li	a4,4
   114ba:	853e                	mv	a0,a5
   114bc:	4601                	li	a2,0
   114be:	4681                	li	a3,0
   114c0:	00000073          	ecall
   114c4:	50b6                	lw	ra,108(sp)
   114c6:	5426                	lw	s0,104(sp)
   114c8:	5496                	lw	s1,100(sp)
   114ca:	6165                	addi	sp,sp,112
   114cc:	8082                	ret
   114ce:	8526                	mv	a0,s1
   114d0:	4601                	li	a2,0
   114d2:	4681                	li	a3,0
   114d4:	45a1                	li	a1,8
   114d6:	470d                	li	a4,3
   114d8:	00000073          	ecall
   114dc:	45a1                	li	a1,8
   114de:	470d                	li	a4,3
   114e0:	8526                	mv	a0,s1
   114e2:	4601                	li	a2,0
   114e4:	4681                	li	a3,0
   114e6:	00000073          	ecall
   114ea:	00140513          	addi	a0,s0,1
   114ee:	03d10593          	addi	a1,sp,61
   114f2:	02700613          	li	a2,39
   114f6:	0000b097          	auipc	ra,0xb
   114fa:	85e080e7          	jalr	-1954(ra) # 1bd54 <memcpy>
   114fe:	8526                	mv	a0,s1
   11500:	4601                	li	a2,0
   11502:	4681                	li	a3,0
   11504:	00040023          	sb	zero,0(s0)
   11508:	45a1                	li	a1,8
   1150a:	470d                	li	a4,3
   1150c:	00000073          	ecall
   11510:	4589                	li	a1,2
   11512:	4711                	li	a4,4
   11514:	8526                	mv	a0,s1
   11516:	4601                	li	a2,0
   11518:	4681                	li	a3,0
   1151a:	00000073          	ecall
   1151e:	50b6                	lw	ra,108(sp)
   11520:	5426                	lw	s0,104(sp)
   11522:	5496                	lw	s1,100(sp)
   11524:	6165                	addi	sp,sp,112
   11526:	8082                	ret

00011528 <_ZN18complex_no_dynamic3app17h086cdcef19b0830cE>:
   11528:	7175                	addi	sp,sp,-144
   1152a:	c706                	sw	ra,140(sp)
   1152c:	c522                	sw	s0,136(sp)
   1152e:	c326                	sw	s1,132(sp)
   11530:	c14a                	sw	s2,128(sp)
   11532:	892a                	mv	s2,a0
   11534:	0185c883          	lbu	a7,24(a1)
   11538:	0195c303          	lbu	t1,25(a1)
   1153c:	01a5c803          	lbu	a6,26(a1)
   11540:	0145c283          	lbu	t0,20(a1)
   11544:	0155cf03          	lbu	t5,21(a1)
   11548:	0165c483          	lbu	s1,22(a1)
   1154c:	0175c403          	lbu	s0,23(a1)
   11550:	0105c703          	lbu	a4,16(a1)
   11554:	0115c603          	lbu	a2,17(a1)
   11558:	0125ce03          	lbu	t3,18(a1)
   1155c:	0135ce83          	lbu	t4,19(a1)
   11560:	00c5c383          	lbu	t2,12(a1)
   11564:	00d5cf83          	lbu	t6,13(a1)
   11568:	00e5c683          	lbu	a3,14(a1)
   1156c:	00f5c783          	lbu	a5,15(a1)
   11570:	0322                	slli	t1,t1,0x8
   11572:	0f22                	slli	t5,t5,0x8
   11574:	04c2                	slli	s1,s1,0x10
   11576:	0462                	slli	s0,s0,0x18
   11578:	00861513          	slli	a0,a2,0x8
   1157c:	011368b3          	or	a7,t1,a7
   11580:	005f62b3          	or	t0,t5,t0
   11584:	00946f33          	or	t5,s0,s1
   11588:	00e56333          	or	t1,a0,a4
   1158c:	0085c703          	lbu	a4,8(a1)
   11590:	0095c403          	lbu	s0,9(a1)
   11594:	00a5c603          	lbu	a2,10(a1)
   11598:	00b5c503          	lbu	a0,11(a1)
   1159c:	0e42                	slli	t3,t3,0x10
   1159e:	0ee2                	slli	t4,t4,0x18
   115a0:	0fa2                	slli	t6,t6,0x8
   115a2:	06c2                	slli	a3,a3,0x10
   115a4:	07e2                	slli	a5,a5,0x18
   115a6:	0422                	slli	s0,s0,0x8
   115a8:	01ceee33          	or	t3,t4,t3
   115ac:	007fe3b3          	or	t2,t6,t2
   115b0:	00d7eeb3          	or	t4,a5,a3
   115b4:	00e46fb3          	or	t6,s0,a4
   115b8:	0045c783          	lbu	a5,4(a1)
   115bc:	0055c403          	lbu	s0,5(a1)
   115c0:	0065c483          	lbu	s1,6(a1)
   115c4:	0075c683          	lbu	a3,7(a1)
   115c8:	0642                	slli	a2,a2,0x10
   115ca:	0562                	slli	a0,a0,0x18
   115cc:	0422                	slli	s0,s0,0x8
   115ce:	04c2                	slli	s1,s1,0x10
   115d0:	06e2                	slli	a3,a3,0x18
   115d2:	8d51                	or	a0,a0,a2
   115d4:	8fc1                	or	a5,a5,s0
   115d6:	0005c603          	lbu	a2,0(a1)
   115da:	0015c403          	lbu	s0,1(a1)
   115de:	8ec5                	or	a3,a3,s1
   115e0:	0025c483          	lbu	s1,2(a1)
   115e4:	0035c583          	lbu	a1,3(a1)
   115e8:	0422                	slli	s0,s0,0x8
   115ea:	8e41                	or	a2,a2,s0
   115ec:	04c2                	slli	s1,s1,0x10
   115ee:	05e2                	slli	a1,a1,0x18
   115f0:	8dc5                	or	a1,a1,s1
   115f2:	005f64b3          	or	s1,t5,t0
   115f6:	006e6433          	or	s0,t3,t1
   115fa:	007ee733          	or	a4,t4,t2
   115fe:	01f56533          	or	a0,a0,t6
   11602:	8edd                	or	a3,a3,a5
   11604:	8dd1                	or	a1,a1,a2
   11606:	c822                	sw	s0,16(sp)
   11608:	ca26                	sw	s1,20(sp)
   1160a:	01111c23          	sh	a7,24(sp)
   1160e:	01010d23          	sb	a6,26(sp)
   11612:	c02e                	sw	a1,0(sp)
   11614:	c236                	sw	a3,4(sp)
   11616:	c42a                	sw	a0,8(sp)
   11618:	c63a                	sw	a4,12(sp)
   1161a:	01d10513          	addi	a0,sp,29
   1161e:	06300613          	li	a2,99
   11622:	4581                	li	a1,0
   11624:	0000a097          	auipc	ra,0xa
   11628:	6c4080e7          	jalr	1732(ra) # 1bce8 <memset>
   1162c:	6509                	lui	a0,0x2
   1162e:	458d                	li	a1,3
   11630:	860a                	mv	a2,sp
   11632:	46ed                	li	a3,27
   11634:	54850793          	addi	a5,a0,1352 # 2548 <.Lline_table_start1+0x231d>
   11638:	4711                	li	a4,4
   1163a:	4489                	li	s1,2
   1163c:	853e                	mv	a0,a5
   1163e:	00000073          	ecall
   11642:	02950b63          	beq	a0,s1,11678 <_ZN18complex_no_dynamic3app17h086cdcef19b0830cE+0x150>
   11646:	458d                	li	a1,3
   11648:	01d10613          	addi	a2,sp,29
   1164c:	06300693          	li	a3,99
   11650:	470d                	li	a4,3
   11652:	853e                	mv	a0,a5
   11654:	00000073          	ecall
   11658:	02950063          	beq	a0,s1,11678 <_ZN18complex_no_dynamic3app17h086cdcef19b0830cE+0x150>
   1165c:	6509                	lui	a0,0x2
   1165e:	458d                	li	a1,3
   11660:	460d                	li	a2,3
   11662:	54850493          	addi	s1,a0,1352 # 2548 <.Lline_table_start1+0x231d>
   11666:	4709                	li	a4,2
   11668:	07f00413          	li	s0,127
   1166c:	8526                	mv	a0,s1
   1166e:	4681                	li	a3,0
   11670:	00000073          	ecall
   11674:	02a46b63          	bltu	s0,a0,116aa <_ZN18complex_no_dynamic3app17h086cdcef19b0830cE+0x182>
   11678:	853e                	mv	a0,a5
   1167a:	4601                	li	a2,0
   1167c:	4681                	li	a3,0
   1167e:	4705                	li	a4,1
   11680:	00e90023          	sb	a4,0(s2)
   11684:	00b92223          	sw	a1,4(s2)
   11688:	458d                	li	a1,3
   1168a:	470d                	li	a4,3
   1168c:	00000073          	ecall
   11690:	458d                	li	a1,3
   11692:	4711                	li	a4,4
   11694:	853e                	mv	a0,a5
   11696:	4601                	li	a2,0
   11698:	4681                	li	a3,0
   1169a:	00000073          	ecall
   1169e:	40ba                	lw	ra,140(sp)
   116a0:	442a                	lw	s0,136(sp)
   116a2:	449a                	lw	s1,132(sp)
   116a4:	490a                	lw	s2,128(sp)
   116a6:	6149                	addi	sp,sp,144
   116a8:	8082                	ret
   116aa:	8526                	mv	a0,s1
   116ac:	4601                	li	a2,0
   116ae:	4681                	li	a3,0
   116b0:	458d                	li	a1,3
   116b2:	470d                	li	a4,3
   116b4:	00000073          	ecall
   116b8:	458d                	li	a1,3
   116ba:	470d                	li	a4,3
   116bc:	8526                	mv	a0,s1
   116be:	4601                	li	a2,0
   116c0:	4681                	li	a3,0
   116c2:	00000073          	ecall
   116c6:	00190513          	addi	a0,s2,1
   116ca:	01d10593          	addi	a1,sp,29
   116ce:	06300613          	li	a2,99
   116d2:	0000a097          	auipc	ra,0xa
   116d6:	682080e7          	jalr	1666(ra) # 1bd54 <memcpy>
   116da:	8526                	mv	a0,s1
   116dc:	4601                	li	a2,0
   116de:	4681                	li	a3,0
   116e0:	00090023          	sb	zero,0(s2)
   116e4:	458d                	li	a1,3
   116e6:	470d                	li	a4,3
   116e8:	00000073          	ecall
   116ec:	458d                	li	a1,3
   116ee:	4711                	li	a4,4
   116f0:	8526                	mv	a0,s1
   116f2:	4601                	li	a2,0
   116f4:	4681                	li	a3,0
   116f6:	00000073          	ecall
   116fa:	40ba                	lw	ra,140(sp)
   116fc:	442a                	lw	s0,136(sp)
   116fe:	449a                	lw	s1,132(sp)
   11700:	490a                	lw	s2,128(sp)
   11702:	6149                	addi	sp,sp,144
   11704:	8082                	ret

00011706 <_ZN18complex_no_dynamic3app17h0b7b5d79ca5fd947E>:
   11706:	711d                	addi	sp,sp,-96
   11708:	ce86                	sw	ra,92(sp)
   1170a:	cca2                	sw	s0,88(sp)
   1170c:	caa6                	sw	s1,84(sp)
   1170e:	842a                	mv	s0,a0
   11710:	00210513          	addi	a0,sp,2
   11714:	02a00613          	li	a2,42
   11718:	0000a097          	auipc	ra,0xa
   1171c:	63c080e7          	jalr	1596(ra) # 1bd54 <memcpy>
   11720:	1068                	addi	a0,sp,44
   11722:	02800613          	li	a2,40
   11726:	4581                	li	a1,0
   11728:	0000a097          	auipc	ra,0xa
   1172c:	5c0080e7          	jalr	1472(ra) # 1bce8 <memset>
   11730:	6509                	lui	a0,0x2
   11732:	4591                	li	a1,4
   11734:	00210613          	addi	a2,sp,2
   11738:	02a00693          	li	a3,42
   1173c:	efa50793          	addi	a5,a0,-262 # 1efa <.Lline_table_start1+0x1ccf>
   11740:	4711                	li	a4,4
   11742:	4489                	li	s1,2
   11744:	853e                	mv	a0,a5
   11746:	00000073          	ecall
   1174a:	02950a63          	beq	a0,s1,1177e <_ZN18complex_no_dynamic3app17h0b7b5d79ca5fd947E+0x78>
   1174e:	45a1                	li	a1,8
   11750:	1070                	addi	a2,sp,44
   11752:	02800693          	li	a3,40
   11756:	470d                	li	a4,3
   11758:	853e                	mv	a0,a5
   1175a:	00000073          	ecall
   1175e:	02950063          	beq	a0,s1,1177e <_ZN18complex_no_dynamic3app17h0b7b5d79ca5fd947E+0x78>
   11762:	6509                	lui	a0,0x2
   11764:	4591                	li	a1,4
   11766:	4621                	li	a2,8
   11768:	efa50493          	addi	s1,a0,-262 # 1efa <.Lline_table_start1+0x1ccf>
   1176c:	4709                	li	a4,2
   1176e:	07f00813          	li	a6,127
   11772:	8526                	mv	a0,s1
   11774:	4681                	li	a3,0
   11776:	00000073          	ecall
   1177a:	02a86963          	bltu	a6,a0,117ac <_ZN18complex_no_dynamic3app17h0b7b5d79ca5fd947E+0xa6>
   1177e:	853e                	mv	a0,a5
   11780:	4601                	li	a2,0
   11782:	4681                	li	a3,0
   11784:	4705                	li	a4,1
   11786:	00e40023          	sb	a4,0(s0)
   1178a:	c04c                	sw	a1,4(s0)
   1178c:	45a1                	li	a1,8
   1178e:	470d                	li	a4,3
   11790:	00000073          	ecall
   11794:	4591                	li	a1,4
   11796:	4711                	li	a4,4
   11798:	853e                	mv	a0,a5
   1179a:	4601                	li	a2,0
   1179c:	4681                	li	a3,0
   1179e:	00000073          	ecall
   117a2:	40f6                	lw	ra,92(sp)
   117a4:	4466                	lw	s0,88(sp)
   117a6:	44d6                	lw	s1,84(sp)
   117a8:	6125                	addi	sp,sp,96
   117aa:	8082                	ret
   117ac:	8526                	mv	a0,s1
   117ae:	4601                	li	a2,0
   117b0:	4681                	li	a3,0
   117b2:	45a1                	li	a1,8
   117b4:	470d                	li	a4,3
   117b6:	00000073          	ecall
   117ba:	45a1                	li	a1,8
   117bc:	470d                	li	a4,3
   117be:	8526                	mv	a0,s1
   117c0:	4601                	li	a2,0
   117c2:	4681                	li	a3,0
   117c4:	00000073          	ecall
   117c8:	00140513          	addi	a0,s0,1
   117cc:	106c                	addi	a1,sp,44
   117ce:	02800613          	li	a2,40
   117d2:	0000a097          	auipc	ra,0xa
   117d6:	582080e7          	jalr	1410(ra) # 1bd54 <memcpy>
   117da:	8526                	mv	a0,s1
   117dc:	4601                	li	a2,0
   117de:	4681                	li	a3,0
   117e0:	00040023          	sb	zero,0(s0)
   117e4:	45a1                	li	a1,8
   117e6:	470d                	li	a4,3
   117e8:	00000073          	ecall
   117ec:	4591                	li	a1,4
   117ee:	4711                	li	a4,4
   117f0:	8526                	mv	a0,s1
   117f2:	4601                	li	a2,0
   117f4:	4681                	li	a3,0
   117f6:	00000073          	ecall
   117fa:	40f6                	lw	ra,92(sp)
   117fc:	4466                	lw	s0,88(sp)
   117fe:	44d6                	lw	s1,84(sp)
   11800:	6125                	addi	sp,sp,96
   11802:	8082                	ret

00011804 <_ZN18complex_no_dynamic3app17h0ea6a3797b0a3407E>:
   11804:	7159                	addi	sp,sp,-112
   11806:	d686                	sw	ra,108(sp)
   11808:	d4a2                	sw	s0,104(sp)
   1180a:	d2a6                	sw	s1,100(sp)
   1180c:	842a                	mv	s0,a0
   1180e:	0068                	addi	a0,sp,12
   11810:	04800613          	li	a2,72
   11814:	0000a097          	auipc	ra,0xa
   11818:	540080e7          	jalr	1344(ra) # 1bd54 <memcpy>
   1181c:	06010123          	sb	zero,98(sp)
   11820:	ca82                	sw	zero,84(sp)
   11822:	cc82                	sw	zero,88(sp)
   11824:	ce82                	sw	zero,92(sp)
   11826:	06011023          	sh	zero,96(sp)
   1182a:	6505                	lui	a0,0x1
   1182c:	45a1                	li	a1,8
   1182e:	0070                	addi	a2,sp,12
   11830:	04800693          	li	a3,72
   11834:	11d50793          	addi	a5,a0,285 # 111d <.Lline_table_start1+0xef2>
   11838:	4711                	li	a4,4
   1183a:	4489                	li	s1,2
   1183c:	853e                	mv	a0,a5
   1183e:	00000073          	ecall
   11842:	02950963          	beq	a0,s1,11874 <_ZN18complex_no_dynamic3app17h0ea6a3797b0a3407E+0x70>
   11846:	45a5                	li	a1,9
   11848:	08d0                	addi	a2,sp,84
   1184a:	46bd                	li	a3,15
   1184c:	470d                	li	a4,3
   1184e:	853e                	mv	a0,a5
   11850:	00000073          	ecall
   11854:	02950063          	beq	a0,s1,11874 <_ZN18complex_no_dynamic3app17h0ea6a3797b0a3407E+0x70>
   11858:	6505                	lui	a0,0x1
   1185a:	45a1                	li	a1,8
   1185c:	4625                	li	a2,9
   1185e:	11d50493          	addi	s1,a0,285 # 111d <.Lline_table_start1+0xef2>
   11862:	4709                	li	a4,2
   11864:	07f00813          	li	a6,127
   11868:	8526                	mv	a0,s1
   1186a:	4681                	li	a3,0
   1186c:	00000073          	ecall
   11870:	02a86963          	bltu	a6,a0,118a2 <_ZN18complex_no_dynamic3app17h0ea6a3797b0a3407E+0x9e>
   11874:	853e                	mv	a0,a5
   11876:	4601                	li	a2,0
   11878:	4681                	li	a3,0
   1187a:	4705                	li	a4,1
   1187c:	00e40023          	sb	a4,0(s0)
   11880:	c04c                	sw	a1,4(s0)
   11882:	45a5                	li	a1,9
   11884:	470d                	li	a4,3
   11886:	00000073          	ecall
   1188a:	45a1                	li	a1,8
   1188c:	4711                	li	a4,4
   1188e:	853e                	mv	a0,a5
   11890:	4601                	li	a2,0
   11892:	4681                	li	a3,0
   11894:	00000073          	ecall
   11898:	50b6                	lw	ra,108(sp)
   1189a:	5426                	lw	s0,104(sp)
   1189c:	5496                	lw	s1,100(sp)
   1189e:	6165                	addi	sp,sp,112
   118a0:	8082                	ret
   118a2:	8526                	mv	a0,s1
   118a4:	4601                	li	a2,0
   118a6:	4681                	li	a3,0
   118a8:	45a5                	li	a1,9
   118aa:	470d                	li	a4,3
   118ac:	00000073          	ecall
   118b0:	45a5                	li	a1,9
   118b2:	470d                	li	a4,3
   118b4:	8526                	mv	a0,s1
   118b6:	4601                	li	a2,0
   118b8:	4681                	li	a3,0
   118ba:	00000073          	ecall
   118be:	00140513          	addi	a0,s0,1
   118c2:	08cc                	addi	a1,sp,84
   118c4:	463d                	li	a2,15
   118c6:	0000a097          	auipc	ra,0xa
   118ca:	48e080e7          	jalr	1166(ra) # 1bd54 <memcpy>
   118ce:	8526                	mv	a0,s1
   118d0:	4601                	li	a2,0
   118d2:	4681                	li	a3,0
   118d4:	00040023          	sb	zero,0(s0)
   118d8:	45a5                	li	a1,9
   118da:	470d                	li	a4,3
   118dc:	00000073          	ecall
   118e0:	45a1                	li	a1,8
   118e2:	4711                	li	a4,4
   118e4:	8526                	mv	a0,s1
   118e6:	4601                	li	a2,0
   118e8:	4681                	li	a3,0
   118ea:	00000073          	ecall
   118ee:	50b6                	lw	ra,108(sp)
   118f0:	5426                	lw	s0,104(sp)
   118f2:	5496                	lw	s1,100(sp)
   118f4:	6165                	addi	sp,sp,112
   118f6:	8082                	ret

000118f8 <_ZN18complex_no_dynamic3app17h0ff44722eaa37e68E>:
   118f8:	711d                	addi	sp,sp,-96
   118fa:	ce86                	sw	ra,92(sp)
   118fc:	cca2                	sw	s0,88(sp)
   118fe:	caa6                	sw	s1,84(sp)
   11900:	842a                	mv	s0,a0
   11902:	00110513          	addi	a0,sp,1
   11906:	02400613          	li	a2,36
   1190a:	0000a097          	auipc	ra,0xa
   1190e:	44a080e7          	jalr	1098(ra) # 1bd54 <memcpy>
   11912:	02510513          	addi	a0,sp,37
   11916:	02f00613          	li	a2,47
   1191a:	4581                	li	a1,0
   1191c:	0000a097          	auipc	ra,0xa
   11920:	3cc080e7          	jalr	972(ra) # 1bce8 <memset>
   11924:	6505                	lui	a0,0x1
   11926:	4599                	li	a1,6
   11928:	00110613          	addi	a2,sp,1
   1192c:	02400693          	li	a3,36
   11930:	27350793          	addi	a5,a0,627 # 1273 <.Lline_table_start1+0x1048>
   11934:	4711                	li	a4,4
   11936:	4489                	li	s1,2
   11938:	853e                	mv	a0,a5
   1193a:	00000073          	ecall
   1193e:	02950b63          	beq	a0,s1,11974 <_ZN18complex_no_dynamic3app17h0ff44722eaa37e68E+0x7c>
   11942:	45a5                	li	a1,9
   11944:	02510613          	addi	a2,sp,37
   11948:	02f00693          	li	a3,47
   1194c:	470d                	li	a4,3
   1194e:	853e                	mv	a0,a5
   11950:	00000073          	ecall
   11954:	02950063          	beq	a0,s1,11974 <_ZN18complex_no_dynamic3app17h0ff44722eaa37e68E+0x7c>
   11958:	6505                	lui	a0,0x1
   1195a:	4599                	li	a1,6
   1195c:	4625                	li	a2,9
   1195e:	27350493          	addi	s1,a0,627 # 1273 <.Lline_table_start1+0x1048>
   11962:	4709                	li	a4,2
   11964:	07f00813          	li	a6,127
   11968:	8526                	mv	a0,s1
   1196a:	4681                	li	a3,0
   1196c:	00000073          	ecall
   11970:	02a86963          	bltu	a6,a0,119a2 <_ZN18complex_no_dynamic3app17h0ff44722eaa37e68E+0xaa>
   11974:	853e                	mv	a0,a5
   11976:	4601                	li	a2,0
   11978:	4681                	li	a3,0
   1197a:	4705                	li	a4,1
   1197c:	00e40023          	sb	a4,0(s0)
   11980:	c04c                	sw	a1,4(s0)
   11982:	45a5                	li	a1,9
   11984:	470d                	li	a4,3
   11986:	00000073          	ecall
   1198a:	4599                	li	a1,6
   1198c:	4711                	li	a4,4
   1198e:	853e                	mv	a0,a5
   11990:	4601                	li	a2,0
   11992:	4681                	li	a3,0
   11994:	00000073          	ecall
   11998:	40f6                	lw	ra,92(sp)
   1199a:	4466                	lw	s0,88(sp)
   1199c:	44d6                	lw	s1,84(sp)
   1199e:	6125                	addi	sp,sp,96
   119a0:	8082                	ret
   119a2:	8526                	mv	a0,s1
   119a4:	4601                	li	a2,0
   119a6:	4681                	li	a3,0
   119a8:	45a5                	li	a1,9
   119aa:	470d                	li	a4,3
   119ac:	00000073          	ecall
   119b0:	45a5                	li	a1,9
   119b2:	470d                	li	a4,3
   119b4:	8526                	mv	a0,s1
   119b6:	4601                	li	a2,0
   119b8:	4681                	li	a3,0
   119ba:	00000073          	ecall
   119be:	00140513          	addi	a0,s0,1
   119c2:	02510593          	addi	a1,sp,37
   119c6:	02f00613          	li	a2,47
   119ca:	0000a097          	auipc	ra,0xa
   119ce:	38a080e7          	jalr	906(ra) # 1bd54 <memcpy>
   119d2:	8526                	mv	a0,s1
   119d4:	4601                	li	a2,0
   119d6:	4681                	li	a3,0
   119d8:	00040023          	sb	zero,0(s0)
   119dc:	45a5                	li	a1,9
   119de:	470d                	li	a4,3
   119e0:	00000073          	ecall
   119e4:	4599                	li	a1,6
   119e6:	4711                	li	a4,4
   119e8:	8526                	mv	a0,s1
   119ea:	4601                	li	a2,0
   119ec:	4681                	li	a3,0
   119ee:	00000073          	ecall
   119f2:	40f6                	lw	ra,92(sp)
   119f4:	4466                	lw	s0,88(sp)
   119f6:	44d6                	lw	s1,84(sp)
   119f8:	6125                	addi	sp,sp,96
   119fa:	8082                	ret

000119fc <_ZN18complex_no_dynamic3app17h105b5d237bbddadfE>:
   119fc:	7119                	addi	sp,sp,-128
   119fe:	de86                	sw	ra,124(sp)
   11a00:	dca2                	sw	s0,120(sp)
   11a02:	daa6                	sw	s1,116(sp)
   11a04:	d8ca                	sw	s2,112(sp)
   11a06:	892a                	mv	s2,a0
   11a08:	0105c883          	lbu	a7,16(a1)
   11a0c:	0115c303          	lbu	t1,17(a1)
   11a10:	0125c803          	lbu	a6,18(a1)
   11a14:	00c5c283          	lbu	t0,12(a1)
   11a18:	00d5c783          	lbu	a5,13(a1)
   11a1c:	00e5c403          	lbu	s0,14(a1)
   11a20:	00f5c483          	lbu	s1,15(a1)
   11a24:	0085c503          	lbu	a0,8(a1)
   11a28:	0095c603          	lbu	a2,9(a1)
   11a2c:	00a5c703          	lbu	a4,10(a1)
   11a30:	00b5c683          	lbu	a3,11(a1)
   11a34:	0322                	slli	t1,t1,0x8
   11a36:	07a2                	slli	a5,a5,0x8
   11a38:	0442                	slli	s0,s0,0x10
   11a3a:	04e2                	slli	s1,s1,0x18
   11a3c:	0622                	slli	a2,a2,0x8
   11a3e:	011368b3          	or	a7,t1,a7
   11a42:	0057e2b3          	or	t0,a5,t0
   11a46:	8c45                	or	s0,s0,s1
   11a48:	00a66333          	or	t1,a2,a0
   11a4c:	0045c603          	lbu	a2,4(a1)
   11a50:	0055c483          	lbu	s1,5(a1)
   11a54:	0065c783          	lbu	a5,6(a1)
   11a58:	0075c503          	lbu	a0,7(a1)
   11a5c:	0742                	slli	a4,a4,0x10
   11a5e:	06e2                	slli	a3,a3,0x18
   11a60:	04a2                	slli	s1,s1,0x8
   11a62:	07c2                	slli	a5,a5,0x10
   11a64:	0562                	slli	a0,a0,0x18
   11a66:	8ed9                	or	a3,a3,a4
   11a68:	8e45                	or	a2,a2,s1
   11a6a:	0005c703          	lbu	a4,0(a1)
   11a6e:	0015c483          	lbu	s1,1(a1)
   11a72:	8d5d                	or	a0,a0,a5
   11a74:	0025c783          	lbu	a5,2(a1)
   11a78:	0035c583          	lbu	a1,3(a1)
   11a7c:	04a2                	slli	s1,s1,0x8
   11a7e:	8f45                	or	a4,a4,s1
   11a80:	07c2                	slli	a5,a5,0x10
   11a82:	05e2                	slli	a1,a1,0x18
   11a84:	8ddd                	or	a1,a1,a5
   11a86:	01111c23          	sh	a7,24(sp)
   11a8a:	01010d23          	sb	a6,26(sp)
   11a8e:	005467b3          	or	a5,s0,t0
   11a92:	0066e6b3          	or	a3,a3,t1
   11a96:	8d51                	or	a0,a0,a2
   11a98:	8dd9                	or	a1,a1,a4
   11a9a:	c42e                	sw	a1,8(sp)
   11a9c:	c62a                	sw	a0,12(sp)
   11a9e:	c836                	sw	a3,16(sp)
   11aa0:	ca3e                	sw	a5,20(sp)
   11aa2:	01b10513          	addi	a0,sp,27
   11aa6:	05500613          	li	a2,85
   11aaa:	4581                	li	a1,0
   11aac:	0000a097          	auipc	ra,0xa
   11ab0:	23c080e7          	jalr	572(ra) # 1bce8 <memset>
   11ab4:	32e00513          	li	a0,814
   11ab8:	45a5                	li	a1,9
   11aba:	0030                	addi	a2,sp,8
   11abc:	46cd                	li	a3,19
   11abe:	4711                	li	a4,4
   11ac0:	4789                	li	a5,2
   11ac2:	00000073          	ecall
   11ac6:	02f50a63          	beq	a0,a5,11afa <_ZN18complex_no_dynamic3app17h105b5d237bbddadfE+0xfe>
   11aca:	32e00513          	li	a0,814
   11ace:	459d                	li	a1,7
   11ad0:	01b10613          	addi	a2,sp,27
   11ad4:	05500693          	li	a3,85
   11ad8:	470d                	li	a4,3
   11ada:	00000073          	ecall
   11ade:	00f50e63          	beq	a0,a5,11afa <_ZN18complex_no_dynamic3app17h105b5d237bbddadfE+0xfe>
   11ae2:	32e00513          	li	a0,814
   11ae6:	45a5                	li	a1,9
   11ae8:	461d                	li	a2,7
   11aea:	4709                	li	a4,2
   11aec:	07f00793          	li	a5,127
   11af0:	4681                	li	a3,0
   11af2:	00000073          	ecall
   11af6:	02a7ed63          	bltu	a5,a0,11b30 <_ZN18complex_no_dynamic3app17h105b5d237bbddadfE+0x134>
   11afa:	4601                	li	a2,0
   11afc:	4681                	li	a3,0
   11afe:	4705                	li	a4,1
   11b00:	32e00513          	li	a0,814
   11b04:	00e90023          	sb	a4,0(s2)
   11b08:	00b92223          	sw	a1,4(s2)
   11b0c:	459d                	li	a1,7
   11b0e:	470d                	li	a4,3
   11b10:	00000073          	ecall
   11b14:	32e00513          	li	a0,814
   11b18:	45a5                	li	a1,9
   11b1a:	4711                	li	a4,4
   11b1c:	4601                	li	a2,0
   11b1e:	4681                	li	a3,0
   11b20:	00000073          	ecall
   11b24:	50f6                	lw	ra,124(sp)
   11b26:	5466                	lw	s0,120(sp)
   11b28:	54d6                	lw	s1,116(sp)
   11b2a:	5946                	lw	s2,112(sp)
   11b2c:	6109                	addi	sp,sp,128
   11b2e:	8082                	ret
   11b30:	4601                	li	a2,0
   11b32:	4681                	li	a3,0
   11b34:	32e00513          	li	a0,814
   11b38:	459d                	li	a1,7
   11b3a:	470d                	li	a4,3
   11b3c:	00000073          	ecall
   11b40:	32e00513          	li	a0,814
   11b44:	459d                	li	a1,7
   11b46:	470d                	li	a4,3
   11b48:	4601                	li	a2,0
   11b4a:	4681                	li	a3,0
   11b4c:	00000073          	ecall
   11b50:	00190513          	addi	a0,s2,1
   11b54:	01b10593          	addi	a1,sp,27
   11b58:	05500613          	li	a2,85
   11b5c:	0000a097          	auipc	ra,0xa
   11b60:	1f8080e7          	jalr	504(ra) # 1bd54 <memcpy>
   11b64:	4601                	li	a2,0
   11b66:	4681                	li	a3,0
   11b68:	00090023          	sb	zero,0(s2)
   11b6c:	32e00513          	li	a0,814
   11b70:	459d                	li	a1,7
   11b72:	470d                	li	a4,3
   11b74:	00000073          	ecall
   11b78:	32e00513          	li	a0,814
   11b7c:	45a5                	li	a1,9
   11b7e:	4711                	li	a4,4
   11b80:	4601                	li	a2,0
   11b82:	4681                	li	a3,0
   11b84:	00000073          	ecall
   11b88:	50f6                	lw	ra,124(sp)
   11b8a:	5466                	lw	s0,120(sp)
   11b8c:	54d6                	lw	s1,116(sp)
   11b8e:	5946                	lw	s2,112(sp)
   11b90:	6109                	addi	sp,sp,128
   11b92:	8082                	ret

00011b94 <_ZN18complex_no_dynamic3app17h15b0edae025a02b8E>:
   11b94:	7119                	addi	sp,sp,-128
   11b96:	de86                	sw	ra,124(sp)
   11b98:	dca2                	sw	s0,120(sp)
   11b9a:	842a                	mv	s0,a0
   11b9c:	00510513          	addi	a0,sp,5
   11ba0:	02200613          	li	a2,34
   11ba4:	0000a097          	auipc	ra,0xa
   11ba8:	1b0080e7          	jalr	432(ra) # 1bd54 <memcpy>
   11bac:	02710513          	addi	a0,sp,39
   11bb0:	05100613          	li	a2,81
   11bb4:	4581                	li	a1,0
   11bb6:	0000a097          	auipc	ra,0xa
   11bba:	132080e7          	jalr	306(ra) # 1bce8 <memset>
   11bbe:	55e00513          	li	a0,1374
   11bc2:	45a5                	li	a1,9
   11bc4:	00510613          	addi	a2,sp,5
   11bc8:	02200693          	li	a3,34
   11bcc:	4711                	li	a4,4
   11bce:	4789                	li	a5,2
   11bd0:	00000073          	ecall
   11bd4:	02f50a63          	beq	a0,a5,11c08 <_ZN18complex_no_dynamic3app17h15b0edae025a02b8E+0x74>
   11bd8:	55e00513          	li	a0,1374
   11bdc:	45a5                	li	a1,9
   11bde:	02710613          	addi	a2,sp,39
   11be2:	05100693          	li	a3,81
   11be6:	470d                	li	a4,3
   11be8:	00000073          	ecall
   11bec:	00f50e63          	beq	a0,a5,11c08 <_ZN18complex_no_dynamic3app17h15b0edae025a02b8E+0x74>
   11bf0:	55e00513          	li	a0,1374
   11bf4:	45a5                	li	a1,9
   11bf6:	4625                	li	a2,9
   11bf8:	4709                	li	a4,2
   11bfa:	07f00793          	li	a5,127
   11bfe:	4681                	li	a3,0
   11c00:	00000073          	ecall
   11c04:	02a7ea63          	bltu	a5,a0,11c38 <_ZN18complex_no_dynamic3app17h15b0edae025a02b8E+0xa4>
   11c08:	4601                	li	a2,0
   11c0a:	4681                	li	a3,0
   11c0c:	4705                	li	a4,1
   11c0e:	55e00513          	li	a0,1374
   11c12:	00e40023          	sb	a4,0(s0)
   11c16:	c04c                	sw	a1,4(s0)
   11c18:	45a5                	li	a1,9
   11c1a:	470d                	li	a4,3
   11c1c:	00000073          	ecall
   11c20:	55e00513          	li	a0,1374
   11c24:	45a5                	li	a1,9
   11c26:	4711                	li	a4,4
   11c28:	4601                	li	a2,0
   11c2a:	4681                	li	a3,0
   11c2c:	00000073          	ecall
   11c30:	50f6                	lw	ra,124(sp)
   11c32:	5466                	lw	s0,120(sp)
   11c34:	6109                	addi	sp,sp,128
   11c36:	8082                	ret
   11c38:	4601                	li	a2,0
   11c3a:	4681                	li	a3,0
   11c3c:	55e00513          	li	a0,1374
   11c40:	45a5                	li	a1,9
   11c42:	470d                	li	a4,3
   11c44:	00000073          	ecall
   11c48:	55e00513          	li	a0,1374
   11c4c:	45a5                	li	a1,9
   11c4e:	470d                	li	a4,3
   11c50:	4601                	li	a2,0
   11c52:	4681                	li	a3,0
   11c54:	00000073          	ecall
   11c58:	00140513          	addi	a0,s0,1
   11c5c:	02710593          	addi	a1,sp,39
   11c60:	05100613          	li	a2,81
   11c64:	0000a097          	auipc	ra,0xa
   11c68:	0f0080e7          	jalr	240(ra) # 1bd54 <memcpy>
   11c6c:	4601                	li	a2,0
   11c6e:	4681                	li	a3,0
   11c70:	00040023          	sb	zero,0(s0)
   11c74:	55e00513          	li	a0,1374
   11c78:	45a5                	li	a1,9
   11c7a:	470d                	li	a4,3
   11c7c:	00000073          	ecall
   11c80:	55e00513          	li	a0,1374
   11c84:	45a5                	li	a1,9
   11c86:	4711                	li	a4,4
   11c88:	4601                	li	a2,0
   11c8a:	4681                	li	a3,0
   11c8c:	00000073          	ecall
   11c90:	50f6                	lw	ra,124(sp)
   11c92:	5466                	lw	s0,120(sp)
   11c94:	6109                	addi	sp,sp,128
   11c96:	8082                	ret

00011c98 <_ZN18complex_no_dynamic3app17h16237b8448dcd48dE>:
   11c98:	715d                	addi	sp,sp,-80
   11c9a:	c686                	sw	ra,76(sp)
   11c9c:	c4a2                	sw	s0,72(sp)
   11c9e:	c2a6                	sw	s1,68(sp)
   11ca0:	c0ca                	sw	s2,64(sp)
   11ca2:	892a                	mv	s2,a0
   11ca4:	0105c503          	lbu	a0,16(a1)
   11ca8:	0115c603          	lbu	a2,17(a1)
   11cac:	0125c803          	lbu	a6,18(a1)
   11cb0:	0135c303          	lbu	t1,19(a1)
   11cb4:	00c5c283          	lbu	t0,12(a1)
   11cb8:	00d5c483          	lbu	s1,13(a1)
   11cbc:	00e5c403          	lbu	s0,14(a1)
   11cc0:	00f5c683          	lbu	a3,15(a1)
   11cc4:	0622                	slli	a2,a2,0x8
   11cc6:	00a668b3          	or	a7,a2,a0
   11cca:	0085c603          	lbu	a2,8(a1)
   11cce:	0095c503          	lbu	a0,9(a1)
   11cd2:	00a5c783          	lbu	a5,10(a1)
   11cd6:	00b5c703          	lbu	a4,11(a1)
   11cda:	0842                	slli	a6,a6,0x10
   11cdc:	0362                	slli	t1,t1,0x18
   11cde:	04a2                	slli	s1,s1,0x8
   11ce0:	0442                	slli	s0,s0,0x10
   11ce2:	06e2                	slli	a3,a3,0x18
   11ce4:	0522                	slli	a0,a0,0x8
   11ce6:	01036833          	or	a6,t1,a6
   11cea:	0054e2b3          	or	t0,s1,t0
   11cee:	8ec1                	or	a3,a3,s0
   11cf0:	00c56333          	or	t1,a0,a2
   11cf4:	0045c603          	lbu	a2,4(a1)
   11cf8:	0055c403          	lbu	s0,5(a1)
   11cfc:	0065c483          	lbu	s1,6(a1)
   11d00:	0075c503          	lbu	a0,7(a1)
   11d04:	07c2                	slli	a5,a5,0x10
   11d06:	0762                	slli	a4,a4,0x18
   11d08:	0422                	slli	s0,s0,0x8
   11d0a:	04c2                	slli	s1,s1,0x10
   11d0c:	0562                	slli	a0,a0,0x18
   11d0e:	8f5d                	or	a4,a4,a5
   11d10:	8e41                	or	a2,a2,s0
   11d12:	0005c783          	lbu	a5,0(a1)
   11d16:	0015c403          	lbu	s0,1(a1)
   11d1a:	8d45                	or	a0,a0,s1
   11d1c:	0025c483          	lbu	s1,2(a1)
   11d20:	0035c583          	lbu	a1,3(a1)
   11d24:	0422                	slli	s0,s0,0x8
   11d26:	8fc1                	or	a5,a5,s0
   11d28:	04c2                	slli	s1,s1,0x10
   11d2a:	05e2                	slli	a1,a1,0x18
   11d2c:	8dc5                	or	a1,a1,s1
   11d2e:	011864b3          	or	s1,a6,a7
   11d32:	0056e6b3          	or	a3,a3,t0
   11d36:	00676733          	or	a4,a4,t1
   11d3a:	8d51                	or	a0,a0,a2
   11d3c:	8ddd                	or	a1,a1,a5
   11d3e:	c826                	sw	s1,16(sp)
   11d40:	c02e                	sw	a1,0(sp)
   11d42:	c22a                	sw	a0,4(sp)
   11d44:	c43a                	sw	a4,8(sp)
   11d46:	c636                	sw	a3,12(sp)
   11d48:	01510513          	addi	a0,sp,21
   11d4c:	02b00613          	li	a2,43
   11d50:	4581                	li	a1,0
   11d52:	0000a097          	auipc	ra,0xa
   11d56:	f96080e7          	jalr	-106(ra) # 1bce8 <memset>
   11d5a:	6509                	lui	a0,0x2
   11d5c:	45a1                	li	a1,8
   11d5e:	860a                	mv	a2,sp
   11d60:	46d1                	li	a3,20
   11d62:	39f50793          	addi	a5,a0,927 # 239f <.Lline_table_start1+0x2174>
   11d66:	4711                	li	a4,4
   11d68:	4489                	li	s1,2
   11d6a:	853e                	mv	a0,a5
   11d6c:	00000073          	ecall
   11d70:	02950b63          	beq	a0,s1,11da6 <_ZN18complex_no_dynamic3app17h16237b8448dcd48dE+0x10e>
   11d74:	4591                	li	a1,4
   11d76:	01510613          	addi	a2,sp,21
   11d7a:	02b00693          	li	a3,43
   11d7e:	470d                	li	a4,3
   11d80:	853e                	mv	a0,a5
   11d82:	00000073          	ecall
   11d86:	02950063          	beq	a0,s1,11da6 <_ZN18complex_no_dynamic3app17h16237b8448dcd48dE+0x10e>
   11d8a:	6509                	lui	a0,0x2
   11d8c:	45a1                	li	a1,8
   11d8e:	4611                	li	a2,4
   11d90:	39f50493          	addi	s1,a0,927 # 239f <.Lline_table_start1+0x2174>
   11d94:	4709                	li	a4,2
   11d96:	07f00413          	li	s0,127
   11d9a:	8526                	mv	a0,s1
   11d9c:	4681                	li	a3,0
   11d9e:	00000073          	ecall
   11da2:	02a46b63          	bltu	s0,a0,11dd8 <_ZN18complex_no_dynamic3app17h16237b8448dcd48dE+0x140>
   11da6:	853e                	mv	a0,a5
   11da8:	4601                	li	a2,0
   11daa:	4681                	li	a3,0
   11dac:	4705                	li	a4,1
   11dae:	00e90023          	sb	a4,0(s2)
   11db2:	00b92223          	sw	a1,4(s2)
   11db6:	4591                	li	a1,4
   11db8:	470d                	li	a4,3
   11dba:	00000073          	ecall
   11dbe:	45a1                	li	a1,8
   11dc0:	4711                	li	a4,4
   11dc2:	853e                	mv	a0,a5
   11dc4:	4601                	li	a2,0
   11dc6:	4681                	li	a3,0
   11dc8:	00000073          	ecall
   11dcc:	40b6                	lw	ra,76(sp)
   11dce:	4426                	lw	s0,72(sp)
   11dd0:	4496                	lw	s1,68(sp)
   11dd2:	4906                	lw	s2,64(sp)
   11dd4:	6161                	addi	sp,sp,80
   11dd6:	8082                	ret
   11dd8:	8526                	mv	a0,s1
   11dda:	4601                	li	a2,0
   11ddc:	4681                	li	a3,0
   11dde:	4591                	li	a1,4
   11de0:	470d                	li	a4,3
   11de2:	00000073          	ecall
   11de6:	4591                	li	a1,4
   11de8:	470d                	li	a4,3
   11dea:	8526                	mv	a0,s1
   11dec:	4601                	li	a2,0
   11dee:	4681                	li	a3,0
   11df0:	00000073          	ecall
   11df4:	00190513          	addi	a0,s2,1
   11df8:	01510593          	addi	a1,sp,21
   11dfc:	02b00613          	li	a2,43
   11e00:	0000a097          	auipc	ra,0xa
   11e04:	f54080e7          	jalr	-172(ra) # 1bd54 <memcpy>
   11e08:	8526                	mv	a0,s1
   11e0a:	4601                	li	a2,0
   11e0c:	4681                	li	a3,0
   11e0e:	00090023          	sb	zero,0(s2)
   11e12:	4591                	li	a1,4
   11e14:	470d                	li	a4,3
   11e16:	00000073          	ecall
   11e1a:	45a1                	li	a1,8
   11e1c:	4711                	li	a4,4
   11e1e:	8526                	mv	a0,s1
   11e20:	4601                	li	a2,0
   11e22:	4681                	li	a3,0
   11e24:	00000073          	ecall
   11e28:	40b6                	lw	ra,76(sp)
   11e2a:	4426                	lw	s0,72(sp)
   11e2c:	4496                	lw	s1,68(sp)
   11e2e:	4906                	lw	s2,64(sp)
   11e30:	6161                	addi	sp,sp,80
   11e32:	8082                	ret

00011e34 <_ZN18complex_no_dynamic3app17h1b0b3264ac2c84fbE>:
   11e34:	7159                	addi	sp,sp,-112
   11e36:	d686                	sw	ra,108(sp)
   11e38:	d4a2                	sw	s0,104(sp)
   11e3a:	d2a6                	sw	s1,100(sp)
   11e3c:	842a                	mv	s0,a0
   11e3e:	850a                	mv	a0,sp
   11e40:	03200613          	li	a2,50
   11e44:	0000a097          	auipc	ra,0xa
   11e48:	f10080e7          	jalr	-240(ra) # 1bd54 <memcpy>
   11e4c:	03210513          	addi	a0,sp,50
   11e50:	03200613          	li	a2,50
   11e54:	4581                	li	a1,0
   11e56:	0000a097          	auipc	ra,0xa
   11e5a:	e92080e7          	jalr	-366(ra) # 1bce8 <memset>
   11e5e:	6509                	lui	a0,0x2
   11e60:	458d                	li	a1,3
   11e62:	860a                	mv	a2,sp
   11e64:	03200693          	li	a3,50
   11e68:	f0750793          	addi	a5,a0,-249 # 1f07 <.Lline_table_start1+0x1cdc>
   11e6c:	4711                	li	a4,4
   11e6e:	4489                	li	s1,2
   11e70:	853e                	mv	a0,a5
   11e72:	00000073          	ecall
   11e76:	02950b63          	beq	a0,s1,11eac <_ZN18complex_no_dynamic3app17h1b0b3264ac2c84fbE+0x78>
   11e7a:	4585                	li	a1,1
   11e7c:	03210613          	addi	a2,sp,50
   11e80:	03200693          	li	a3,50
   11e84:	470d                	li	a4,3
   11e86:	853e                	mv	a0,a5
   11e88:	00000073          	ecall
   11e8c:	02950063          	beq	a0,s1,11eac <_ZN18complex_no_dynamic3app17h1b0b3264ac2c84fbE+0x78>
   11e90:	6509                	lui	a0,0x2
   11e92:	458d                	li	a1,3
   11e94:	4605                	li	a2,1
   11e96:	f0750493          	addi	s1,a0,-249 # 1f07 <.Lline_table_start1+0x1cdc>
   11e9a:	4709                	li	a4,2
   11e9c:	07f00813          	li	a6,127
   11ea0:	8526                	mv	a0,s1
   11ea2:	4681                	li	a3,0
   11ea4:	00000073          	ecall
   11ea8:	02a86963          	bltu	a6,a0,11eda <_ZN18complex_no_dynamic3app17h1b0b3264ac2c84fbE+0xa6>
   11eac:	853e                	mv	a0,a5
   11eae:	4601                	li	a2,0
   11eb0:	4681                	li	a3,0
   11eb2:	4705                	li	a4,1
   11eb4:	00e40023          	sb	a4,0(s0)
   11eb8:	c04c                	sw	a1,4(s0)
   11eba:	4585                	li	a1,1
   11ebc:	470d                	li	a4,3
   11ebe:	00000073          	ecall
   11ec2:	458d                	li	a1,3
   11ec4:	4711                	li	a4,4
   11ec6:	853e                	mv	a0,a5
   11ec8:	4601                	li	a2,0
   11eca:	4681                	li	a3,0
   11ecc:	00000073          	ecall
   11ed0:	50b6                	lw	ra,108(sp)
   11ed2:	5426                	lw	s0,104(sp)
   11ed4:	5496                	lw	s1,100(sp)
   11ed6:	6165                	addi	sp,sp,112
   11ed8:	8082                	ret
   11eda:	8526                	mv	a0,s1
   11edc:	4601                	li	a2,0
   11ede:	4681                	li	a3,0
   11ee0:	4585                	li	a1,1
   11ee2:	470d                	li	a4,3
   11ee4:	00000073          	ecall
   11ee8:	4585                	li	a1,1
   11eea:	470d                	li	a4,3
   11eec:	8526                	mv	a0,s1
   11eee:	4601                	li	a2,0
   11ef0:	4681                	li	a3,0
   11ef2:	00000073          	ecall
   11ef6:	00140513          	addi	a0,s0,1
   11efa:	03210593          	addi	a1,sp,50
   11efe:	03200613          	li	a2,50
   11f02:	0000a097          	auipc	ra,0xa
   11f06:	e52080e7          	jalr	-430(ra) # 1bd54 <memcpy>
   11f0a:	8526                	mv	a0,s1
   11f0c:	4601                	li	a2,0
   11f0e:	4681                	li	a3,0
   11f10:	00040023          	sb	zero,0(s0)
   11f14:	4585                	li	a1,1
   11f16:	470d                	li	a4,3
   11f18:	00000073          	ecall
   11f1c:	458d                	li	a1,3
   11f1e:	4711                	li	a4,4
   11f20:	8526                	mv	a0,s1
   11f22:	4601                	li	a2,0
   11f24:	4681                	li	a3,0
   11f26:	00000073          	ecall
   11f2a:	50b6                	lw	ra,108(sp)
   11f2c:	5426                	lw	s0,104(sp)
   11f2e:	5496                	lw	s1,100(sp)
   11f30:	6165                	addi	sp,sp,112
   11f32:	8082                	ret

00011f34 <_ZN18complex_no_dynamic3app17h20b22f0482dd44bcE>:
   11f34:	711d                	addi	sp,sp,-96
   11f36:	ce86                	sw	ra,92(sp)
   11f38:	cca2                	sw	s0,88(sp)
   11f3a:	caa6                	sw	s1,84(sp)
   11f3c:	842a                	mv	s0,a0
   11f3e:	00510513          	addi	a0,sp,5
   11f42:	02500613          	li	a2,37
   11f46:	0000a097          	auipc	ra,0xa
   11f4a:	e0e080e7          	jalr	-498(ra) # 1bd54 <memcpy>
   11f4e:	02a10513          	addi	a0,sp,42
   11f52:	02a00613          	li	a2,42
   11f56:	4581                	li	a1,0
   11f58:	0000a097          	auipc	ra,0xa
   11f5c:	d90080e7          	jalr	-624(ra) # 1bce8 <memset>
   11f60:	6505                	lui	a0,0x1
   11f62:	00510613          	addi	a2,sp,5
   11f66:	02500693          	li	a3,37
   11f6a:	93c50793          	addi	a5,a0,-1732 # 93c <.Lline_table_start1+0x711>
   11f6e:	4711                	li	a4,4
   11f70:	4489                	li	s1,2
   11f72:	853e                	mv	a0,a5
   11f74:	4581                	li	a1,0
   11f76:	00000073          	ecall
   11f7a:	02950b63          	beq	a0,s1,11fb0 <_ZN18complex_no_dynamic3app17h20b22f0482dd44bcE+0x7c>
   11f7e:	458d                	li	a1,3
   11f80:	02a10613          	addi	a2,sp,42
   11f84:	02a00693          	li	a3,42
   11f88:	470d                	li	a4,3
   11f8a:	853e                	mv	a0,a5
   11f8c:	00000073          	ecall
   11f90:	02950063          	beq	a0,s1,11fb0 <_ZN18complex_no_dynamic3app17h20b22f0482dd44bcE+0x7c>
   11f94:	6505                	lui	a0,0x1
   11f96:	460d                	li	a2,3
   11f98:	93c50493          	addi	s1,a0,-1732 # 93c <.Lline_table_start1+0x711>
   11f9c:	4709                	li	a4,2
   11f9e:	07f00813          	li	a6,127
   11fa2:	8526                	mv	a0,s1
   11fa4:	4581                	li	a1,0
   11fa6:	4681                	li	a3,0
   11fa8:	00000073          	ecall
   11fac:	02a86a63          	bltu	a6,a0,11fe0 <_ZN18complex_no_dynamic3app17h20b22f0482dd44bcE+0xac>
   11fb0:	862e                	mv	a2,a1
   11fb2:	4505                	li	a0,1
   11fb4:	458d                	li	a1,3
   11fb6:	00a40023          	sb	a0,0(s0)
   11fba:	c050                	sw	a2,4(s0)
   11fbc:	470d                	li	a4,3
   11fbe:	853e                	mv	a0,a5
   11fc0:	4601                	li	a2,0
   11fc2:	4681                	li	a3,0
   11fc4:	00000073          	ecall
   11fc8:	4711                	li	a4,4
   11fca:	853e                	mv	a0,a5
   11fcc:	4581                	li	a1,0
   11fce:	4601                	li	a2,0
   11fd0:	4681                	li	a3,0
   11fd2:	00000073          	ecall
   11fd6:	40f6                	lw	ra,92(sp)
   11fd8:	4466                	lw	s0,88(sp)
   11fda:	44d6                	lw	s1,84(sp)
   11fdc:	6125                	addi	sp,sp,96
   11fde:	8082                	ret
   11fe0:	8526                	mv	a0,s1
   11fe2:	4601                	li	a2,0
   11fe4:	4681                	li	a3,0
   11fe6:	458d                	li	a1,3
   11fe8:	470d                	li	a4,3
   11fea:	00000073          	ecall
   11fee:	458d                	li	a1,3
   11ff0:	470d                	li	a4,3
   11ff2:	8526                	mv	a0,s1
   11ff4:	4601                	li	a2,0
   11ff6:	4681                	li	a3,0
   11ff8:	00000073          	ecall
   11ffc:	00140513          	addi	a0,s0,1
   12000:	02a10593          	addi	a1,sp,42
   12004:	02a00613          	li	a2,42
   12008:	0000a097          	auipc	ra,0xa
   1200c:	d4c080e7          	jalr	-692(ra) # 1bd54 <memcpy>
   12010:	00040023          	sb	zero,0(s0)
   12014:	458d                	li	a1,3
   12016:	470d                	li	a4,3
   12018:	8526                	mv	a0,s1
   1201a:	4601                	li	a2,0
   1201c:	4681                	li	a3,0
   1201e:	00000073          	ecall
   12022:	4711                	li	a4,4
   12024:	8526                	mv	a0,s1
   12026:	4581                	li	a1,0
   12028:	4601                	li	a2,0
   1202a:	4681                	li	a3,0
   1202c:	00000073          	ecall
   12030:	40f6                	lw	ra,92(sp)
   12032:	4466                	lw	s0,88(sp)
   12034:	44d6                	lw	s1,84(sp)
   12036:	6125                	addi	sp,sp,96
   12038:	8082                	ret

0001203a <_ZN18complex_no_dynamic3app17h20ffa4dfd5e42bc3E>:
   1203a:	711d                	addi	sp,sp,-96
   1203c:	ce86                	sw	ra,92(sp)
   1203e:	cca2                	sw	s0,88(sp)
   12040:	caa6                	sw	s1,84(sp)
   12042:	842a                	mv	s0,a0
   12044:	00610513          	addi	a0,sp,6
   12048:	02300613          	li	a2,35
   1204c:	0000a097          	auipc	ra,0xa
   12050:	d08080e7          	jalr	-760(ra) # 1bd54 <memcpy>
   12054:	02910513          	addi	a0,sp,41
   12058:	02b00613          	li	a2,43
   1205c:	4581                	li	a1,0
   1205e:	0000a097          	auipc	ra,0xa
   12062:	c8a080e7          	jalr	-886(ra) # 1bce8 <memset>
   12066:	6505                	lui	a0,0x1
   12068:	4489                	li	s1,2
   1206a:	4589                	li	a1,2
   1206c:	00610613          	addi	a2,sp,6
   12070:	d5d50793          	addi	a5,a0,-675 # d5d <.Lline_table_start1+0xb32>
   12074:	02300693          	li	a3,35
   12078:	4711                	li	a4,4
   1207a:	853e                	mv	a0,a5
   1207c:	00000073          	ecall
   12080:	02950b63          	beq	a0,s1,120b6 <_ZN18complex_no_dynamic3app17h20ffa4dfd5e42bc3E+0x7c>
   12084:	02910613          	addi	a2,sp,41
   12088:	02b00693          	li	a3,43
   1208c:	470d                	li	a4,3
   1208e:	853e                	mv	a0,a5
   12090:	4581                	li	a1,0
   12092:	00000073          	ecall
   12096:	02950063          	beq	a0,s1,120b6 <_ZN18complex_no_dynamic3app17h20ffa4dfd5e42bc3E+0x7c>
   1209a:	6505                	lui	a0,0x1
   1209c:	4589                	li	a1,2
   1209e:	d5d50493          	addi	s1,a0,-675 # d5d <.Lline_table_start1+0xb32>
   120a2:	4709                	li	a4,2
   120a4:	07f00813          	li	a6,127
   120a8:	8526                	mv	a0,s1
   120aa:	4601                	li	a2,0
   120ac:	4681                	li	a3,0
   120ae:	00000073          	ecall
   120b2:	02a86a63          	bltu	a6,a0,120e6 <_ZN18complex_no_dynamic3app17h20ffa4dfd5e42bc3E+0xac>
   120b6:	872e                	mv	a4,a1
   120b8:	853e                	mv	a0,a5
   120ba:	4581                	li	a1,0
   120bc:	4601                	li	a2,0
   120be:	4681                	li	a3,0
   120c0:	4485                	li	s1,1
   120c2:	00940023          	sb	s1,0(s0)
   120c6:	c058                	sw	a4,4(s0)
   120c8:	470d                	li	a4,3
   120ca:	00000073          	ecall
   120ce:	4589                	li	a1,2
   120d0:	4711                	li	a4,4
   120d2:	853e                	mv	a0,a5
   120d4:	4601                	li	a2,0
   120d6:	4681                	li	a3,0
   120d8:	00000073          	ecall
   120dc:	40f6                	lw	ra,92(sp)
   120de:	4466                	lw	s0,88(sp)
   120e0:	44d6                	lw	s1,84(sp)
   120e2:	6125                	addi	sp,sp,96
   120e4:	8082                	ret
   120e6:	470d                	li	a4,3
   120e8:	8526                	mv	a0,s1
   120ea:	4581                	li	a1,0
   120ec:	4601                	li	a2,0
   120ee:	4681                	li	a3,0
   120f0:	00000073          	ecall
   120f4:	470d                	li	a4,3
   120f6:	8526                	mv	a0,s1
   120f8:	4581                	li	a1,0
   120fa:	4601                	li	a2,0
   120fc:	4681                	li	a3,0
   120fe:	00000073          	ecall
   12102:	00140513          	addi	a0,s0,1
   12106:	02910593          	addi	a1,sp,41
   1210a:	02b00613          	li	a2,43
   1210e:	0000a097          	auipc	ra,0xa
   12112:	c46080e7          	jalr	-954(ra) # 1bd54 <memcpy>
   12116:	8526                	mv	a0,s1
   12118:	4581                	li	a1,0
   1211a:	4601                	li	a2,0
   1211c:	4681                	li	a3,0
   1211e:	00040023          	sb	zero,0(s0)
   12122:	470d                	li	a4,3
   12124:	00000073          	ecall
   12128:	4589                	li	a1,2
   1212a:	4711                	li	a4,4
   1212c:	8526                	mv	a0,s1
   1212e:	4601                	li	a2,0
   12130:	4681                	li	a3,0
   12132:	00000073          	ecall
   12136:	40f6                	lw	ra,92(sp)
   12138:	4466                	lw	s0,88(sp)
   1213a:	44d6                	lw	s1,84(sp)
   1213c:	6125                	addi	sp,sp,96
   1213e:	8082                	ret

00012140 <_ZN18complex_no_dynamic3app17h22ce6be9ee6c1847E>:
   12140:	715d                	addi	sp,sp,-80
   12142:	c686                	sw	ra,76(sp)
   12144:	c4a2                	sw	s0,72(sp)
   12146:	c2a6                	sw	s1,68(sp)
   12148:	c0ca                	sw	s2,64(sp)
   1214a:	892a                	mv	s2,a0
   1214c:	0145c803          	lbu	a6,20(a1)
   12150:	0155c383          	lbu	t2,21(a1)
   12154:	0165c483          	lbu	s1,22(a1)
   12158:	0175c703          	lbu	a4,23(a1)
   1215c:	0105c783          	lbu	a5,16(a1)
   12160:	0115c683          	lbu	a3,17(a1)
   12164:	0125c283          	lbu	t0,18(a1)
   12168:	0135c303          	lbu	t1,19(a1)
   1216c:	00c5c883          	lbu	a7,12(a1)
   12170:	00d5c403          	lbu	s0,13(a1)
   12174:	00e5c503          	lbu	a0,14(a1)
   12178:	00f5c603          	lbu	a2,15(a1)
   1217c:	03a2                	slli	t2,t2,0x8
   1217e:	04c2                	slli	s1,s1,0x10
   12180:	0762                	slli	a4,a4,0x18
   12182:	06a2                	slli	a3,a3,0x8
   12184:	0103e833          	or	a6,t2,a6
   12188:	00976e33          	or	t3,a4,s1
   1218c:	00f6e3b3          	or	t2,a3,a5
   12190:	0085c703          	lbu	a4,8(a1)
   12194:	0095c783          	lbu	a5,9(a1)
   12198:	00a5c683          	lbu	a3,10(a1)
   1219c:	00b5c483          	lbu	s1,11(a1)
   121a0:	02c2                	slli	t0,t0,0x10
   121a2:	0362                	slli	t1,t1,0x18
   121a4:	0422                	slli	s0,s0,0x8
   121a6:	0542                	slli	a0,a0,0x10
   121a8:	0662                	slli	a2,a2,0x18
   121aa:	07a2                	slli	a5,a5,0x8
   121ac:	005362b3          	or	t0,t1,t0
   121b0:	01146333          	or	t1,s0,a7
   121b4:	00a66eb3          	or	t4,a2,a0
   121b8:	00e7e8b3          	or	a7,a5,a4
   121bc:	0045c603          	lbu	a2,4(a1)
   121c0:	0055c783          	lbu	a5,5(a1)
   121c4:	0065c703          	lbu	a4,6(a1)
   121c8:	0075c403          	lbu	s0,7(a1)
   121cc:	06c2                	slli	a3,a3,0x10
   121ce:	04e2                	slli	s1,s1,0x18
   121d0:	07a2                	slli	a5,a5,0x8
   121d2:	0742                	slli	a4,a4,0x10
   121d4:	0462                	slli	s0,s0,0x18
   121d6:	00d4e533          	or	a0,s1,a3
   121da:	00c7ef33          	or	t5,a5,a2
   121de:	0005c783          	lbu	a5,0(a1)
   121e2:	0015c483          	lbu	s1,1(a1)
   121e6:	00e46633          	or	a2,s0,a4
   121ea:	0025c403          	lbu	s0,2(a1)
   121ee:	0035c583          	lbu	a1,3(a1)
   121f2:	04a2                	slli	s1,s1,0x8
   121f4:	00f4efb3          	or	t6,s1,a5
   121f8:	0442                	slli	s0,s0,0x10
   121fa:	05e2                	slli	a1,a1,0x18
   121fc:	0085e6b3          	or	a3,a1,s0
   12200:	010e6e33          	or	t3,t3,a6
   12204:	0072e733          	or	a4,t0,t2
   12208:	d802                	sw	zero,48(sp)
   1220a:	da02                	sw	zero,52(sp)
   1220c:	dc02                	sw	zero,56(sp)
   1220e:	02011e23          	sh	zero,60(sp)
   12212:	d002                	sw	zero,32(sp)
   12214:	d202                	sw	zero,36(sp)
   12216:	d402                	sw	zero,40(sp)
   12218:	d602                	sw	zero,44(sp)
   1221a:	006ee4b3          	or	s1,t4,t1
   1221e:	6805                	lui	a6,0x1
   12220:	01156533          	or	a0,a0,a7
   12224:	45a5                	li	a1,9
   12226:	01e66433          	or	s0,a2,t5
   1222a:	0030                	addi	a2,sp,8
   1222c:	01f6e7b3          	or	a5,a3,t6
   12230:	46e1                	li	a3,24
   12232:	cc3a                	sw	a4,24(sp)
   12234:	ce72                	sw	t3,28(sp)
   12236:	4711                	li	a4,4
   12238:	cbb80813          	addi	a6,a6,-837 # cbb <.Lline_table_start1+0xa90>
   1223c:	c43e                	sw	a5,8(sp)
   1223e:	c622                	sw	s0,12(sp)
   12240:	c82a                	sw	a0,16(sp)
   12242:	ca26                	sw	s1,20(sp)
   12244:	4489                	li	s1,2
   12246:	8542                	mv	a0,a6
   12248:	00000073          	ecall
   1224c:	02950963          	beq	a0,s1,1227e <_ZN18complex_no_dynamic3app17h22ce6be9ee6c1847E+0x13e>
   12250:	4595                	li	a1,5
   12252:	1010                	addi	a2,sp,32
   12254:	46f9                	li	a3,30
   12256:	470d                	li	a4,3
   12258:	8542                	mv	a0,a6
   1225a:	00000073          	ecall
   1225e:	02950063          	beq	a0,s1,1227e <_ZN18complex_no_dynamic3app17h22ce6be9ee6c1847E+0x13e>
   12262:	6505                	lui	a0,0x1
   12264:	45a5                	li	a1,9
   12266:	4615                	li	a2,5
   12268:	cbb50493          	addi	s1,a0,-837 # cbb <.Lline_table_start1+0xa90>
   1226c:	4709                	li	a4,2
   1226e:	07f00793          	li	a5,127
   12272:	8526                	mv	a0,s1
   12274:	4681                	li	a3,0
   12276:	00000073          	ecall
   1227a:	02a7eb63          	bltu	a5,a0,122b0 <_ZN18complex_no_dynamic3app17h22ce6be9ee6c1847E+0x170>
   1227e:	8542                	mv	a0,a6
   12280:	4601                	li	a2,0
   12282:	4681                	li	a3,0
   12284:	4705                	li	a4,1
   12286:	00e90023          	sb	a4,0(s2)
   1228a:	00b92223          	sw	a1,4(s2)
   1228e:	4595                	li	a1,5
   12290:	470d                	li	a4,3
   12292:	00000073          	ecall
   12296:	45a5                	li	a1,9
   12298:	4711                	li	a4,4
   1229a:	8542                	mv	a0,a6
   1229c:	4601                	li	a2,0
   1229e:	4681                	li	a3,0
   122a0:	00000073          	ecall
   122a4:	40b6                	lw	ra,76(sp)
   122a6:	4426                	lw	s0,72(sp)
   122a8:	4496                	lw	s1,68(sp)
   122aa:	4906                	lw	s2,64(sp)
   122ac:	6161                	addi	sp,sp,80
   122ae:	8082                	ret
   122b0:	8526                	mv	a0,s1
   122b2:	4601                	li	a2,0
   122b4:	4681                	li	a3,0
   122b6:	4595                	li	a1,5
   122b8:	470d                	li	a4,3
   122ba:	00000073          	ecall
   122be:	4595                	li	a1,5
   122c0:	470d                	li	a4,3
   122c2:	8526                	mv	a0,s1
   122c4:	4601                	li	a2,0
   122c6:	4681                	li	a3,0
   122c8:	00000073          	ecall
   122cc:	00190513          	addi	a0,s2,1
   122d0:	100c                	addi	a1,sp,32
   122d2:	4679                	li	a2,30
   122d4:	0000a097          	auipc	ra,0xa
   122d8:	a80080e7          	jalr	-1408(ra) # 1bd54 <memcpy>
   122dc:	8526                	mv	a0,s1
   122de:	4601                	li	a2,0
   122e0:	4681                	li	a3,0
   122e2:	00090023          	sb	zero,0(s2)
   122e6:	4595                	li	a1,5
   122e8:	470d                	li	a4,3
   122ea:	00000073          	ecall
   122ee:	45a5                	li	a1,9
   122f0:	4711                	li	a4,4
   122f2:	8526                	mv	a0,s1
   122f4:	4601                	li	a2,0
   122f6:	4681                	li	a3,0
   122f8:	00000073          	ecall
   122fc:	40b6                	lw	ra,76(sp)
   122fe:	4426                	lw	s0,72(sp)
   12300:	4496                	lw	s1,68(sp)
   12302:	4906                	lw	s2,64(sp)
   12304:	6161                	addi	sp,sp,80
   12306:	8082                	ret

00012308 <_ZN18complex_no_dynamic3app17h2470d1a6c21a90d0E>:
   12308:	7119                	addi	sp,sp,-128
   1230a:	de86                	sw	ra,124(sp)
   1230c:	dca2                	sw	s0,120(sp)
   1230e:	daa6                	sw	s1,116(sp)
   12310:	d8ca                	sw	s2,112(sp)
   12312:	892a                	mv	s2,a0
   12314:	0185c803          	lbu	a6,24(a1)
   12318:	0195c383          	lbu	t2,25(a1)
   1231c:	0145c883          	lbu	a7,20(a1)
   12320:	0155ce83          	lbu	t4,21(a1)
   12324:	0165c783          	lbu	a5,22(a1)
   12328:	0175c483          	lbu	s1,23(a1)
   1232c:	0105c403          	lbu	s0,16(a1)
   12330:	0115c503          	lbu	a0,17(a1)
   12334:	0125c283          	lbu	t0,18(a1)
   12338:	0135ce03          	lbu	t3,19(a1)
   1233c:	00c5c303          	lbu	t1,12(a1)
   12340:	00d5cf03          	lbu	t5,13(a1)
   12344:	00e5c683          	lbu	a3,14(a1)
   12348:	00f5c703          	lbu	a4,15(a1)
   1234c:	03a2                	slli	t2,t2,0x8
   1234e:	0ea2                	slli	t4,t4,0x8
   12350:	01079613          	slli	a2,a5,0x10
   12354:	01849793          	slli	a5,s1,0x18
   12358:	0522                	slli	a0,a0,0x8
   1235a:	0103e833          	or	a6,t2,a6
   1235e:	011ee8b3          	or	a7,t4,a7
   12362:	00c7e3b3          	or	t2,a5,a2
   12366:	00856eb3          	or	t4,a0,s0
   1236a:	0085c503          	lbu	a0,8(a1)
   1236e:	0095c603          	lbu	a2,9(a1)
   12372:	00a5c483          	lbu	s1,10(a1)
   12376:	00b5c783          	lbu	a5,11(a1)
   1237a:	02c2                	slli	t0,t0,0x10
   1237c:	0e62                	slli	t3,t3,0x18
   1237e:	0f22                	slli	t5,t5,0x8
   12380:	06c2                	slli	a3,a3,0x10
   12382:	0762                	slli	a4,a4,0x18
   12384:	0622                	slli	a2,a2,0x8
   12386:	005e6e33          	or	t3,t3,t0
   1238a:	006f62b3          	or	t0,t5,t1
   1238e:	8ed9                	or	a3,a3,a4
   12390:	00a66333          	or	t1,a2,a0
   12394:	0045c603          	lbu	a2,4(a1)
   12398:	0055c703          	lbu	a4,5(a1)
   1239c:	0065c403          	lbu	s0,6(a1)
   123a0:	0075c503          	lbu	a0,7(a1)
   123a4:	04c2                	slli	s1,s1,0x10
   123a6:	07e2                	slli	a5,a5,0x18
   123a8:	0722                	slli	a4,a4,0x8
   123aa:	0442                	slli	s0,s0,0x10
   123ac:	0562                	slli	a0,a0,0x18
   123ae:	8fc5                	or	a5,a5,s1
   123b0:	8e59                	or	a2,a2,a4
   123b2:	0005c703          	lbu	a4,0(a1)
   123b6:	0015c483          	lbu	s1,1(a1)
   123ba:	8d41                	or	a0,a0,s0
   123bc:	0025c403          	lbu	s0,2(a1)
   123c0:	0035c583          	lbu	a1,3(a1)
   123c4:	04a2                	slli	s1,s1,0x8
   123c6:	8f45                	or	a4,a4,s1
   123c8:	0442                	slli	s0,s0,0x10
   123ca:	05e2                	slli	a1,a1,0x18
   123cc:	8dc1                	or	a1,a1,s0
   123ce:	0113e4b3          	or	s1,t2,a7
   123d2:	01de6433          	or	s0,t3,t4
   123d6:	0056e6b3          	or	a3,a3,t0
   123da:	0067e7b3          	or	a5,a5,t1
   123de:	8d51                	or	a0,a0,a2
   123e0:	8dd9                	or	a1,a1,a4
   123e2:	ca22                	sw	s0,20(sp)
   123e4:	cc26                	sw	s1,24(sp)
   123e6:	01011e23          	sh	a6,28(sp)
   123ea:	c22e                	sw	a1,4(sp)
   123ec:	c42a                	sw	a0,8(sp)
   123ee:	c63e                	sw	a5,12(sp)
   123f0:	c836                	sw	a3,16(sp)
   123f2:	1008                	addi	a0,sp,32
   123f4:	05000613          	li	a2,80
   123f8:	4581                	li	a1,0
   123fa:	0000a097          	auipc	ra,0xa
   123fe:	8ee080e7          	jalr	-1810(ra) # 1bce8 <memset>
   12402:	6505                	lui	a0,0x1
   12404:	459d                	li	a1,7
   12406:	0050                	addi	a2,sp,4
   12408:	46e9                	li	a3,26
   1240a:	aee50793          	addi	a5,a0,-1298 # aee <.Lline_table_start1+0x8c3>
   1240e:	4711                	li	a4,4
   12410:	4489                	li	s1,2
   12412:	853e                	mv	a0,a5
   12414:	00000073          	ecall
   12418:	02950a63          	beq	a0,s1,1244c <_ZN18complex_no_dynamic3app17h2470d1a6c21a90d0E+0x144>
   1241c:	4591                	li	a1,4
   1241e:	1010                	addi	a2,sp,32
   12420:	05000693          	li	a3,80
   12424:	470d                	li	a4,3
   12426:	853e                	mv	a0,a5
   12428:	00000073          	ecall
   1242c:	02950063          	beq	a0,s1,1244c <_ZN18complex_no_dynamic3app17h2470d1a6c21a90d0E+0x144>
   12430:	6505                	lui	a0,0x1
   12432:	459d                	li	a1,7
   12434:	4611                	li	a2,4
   12436:	aee50493          	addi	s1,a0,-1298 # aee <.Lline_table_start1+0x8c3>
   1243a:	4709                	li	a4,2
   1243c:	07f00413          	li	s0,127
   12440:	8526                	mv	a0,s1
   12442:	4681                	li	a3,0
   12444:	00000073          	ecall
   12448:	02a46b63          	bltu	s0,a0,1247e <_ZN18complex_no_dynamic3app17h2470d1a6c21a90d0E+0x176>
   1244c:	853e                	mv	a0,a5
   1244e:	4601                	li	a2,0
   12450:	4681                	li	a3,0
   12452:	4705                	li	a4,1
   12454:	00e90023          	sb	a4,0(s2)
   12458:	00b92223          	sw	a1,4(s2)
   1245c:	4591                	li	a1,4
   1245e:	470d                	li	a4,3
   12460:	00000073          	ecall
   12464:	459d                	li	a1,7
   12466:	4711                	li	a4,4
   12468:	853e                	mv	a0,a5
   1246a:	4601                	li	a2,0
   1246c:	4681                	li	a3,0
   1246e:	00000073          	ecall
   12472:	50f6                	lw	ra,124(sp)
   12474:	5466                	lw	s0,120(sp)
   12476:	54d6                	lw	s1,116(sp)
   12478:	5946                	lw	s2,112(sp)
   1247a:	6109                	addi	sp,sp,128
   1247c:	8082                	ret
   1247e:	8526                	mv	a0,s1
   12480:	4601                	li	a2,0
   12482:	4681                	li	a3,0
   12484:	4591                	li	a1,4
   12486:	470d                	li	a4,3
   12488:	00000073          	ecall
   1248c:	4591                	li	a1,4
   1248e:	470d                	li	a4,3
   12490:	8526                	mv	a0,s1
   12492:	4601                	li	a2,0
   12494:	4681                	li	a3,0
   12496:	00000073          	ecall
   1249a:	00190513          	addi	a0,s2,1
   1249e:	100c                	addi	a1,sp,32
   124a0:	05000613          	li	a2,80
   124a4:	0000a097          	auipc	ra,0xa
   124a8:	8b0080e7          	jalr	-1872(ra) # 1bd54 <memcpy>
   124ac:	8526                	mv	a0,s1
   124ae:	4601                	li	a2,0
   124b0:	4681                	li	a3,0
   124b2:	00090023          	sb	zero,0(s2)
   124b6:	4591                	li	a1,4
   124b8:	470d                	li	a4,3
   124ba:	00000073          	ecall
   124be:	459d                	li	a1,7
   124c0:	4711                	li	a4,4
   124c2:	8526                	mv	a0,s1
   124c4:	4601                	li	a2,0
   124c6:	4681                	li	a3,0
   124c8:	00000073          	ecall
   124cc:	50f6                	lw	ra,124(sp)
   124ce:	5466                	lw	s0,120(sp)
   124d0:	54d6                	lw	s1,116(sp)
   124d2:	5946                	lw	s2,112(sp)
   124d4:	6109                	addi	sp,sp,128
   124d6:	8082                	ret

000124d8 <_ZN18complex_no_dynamic3app17h28375f79aab14c62E>:
   124d8:	7135                	addi	sp,sp,-160
   124da:	cf06                	sw	ra,156(sp)
   124dc:	cd22                	sw	s0,152(sp)
   124de:	cb26                	sw	s1,148(sp)
   124e0:	842a                	mv	s0,a0
   124e2:	0028                	addi	a0,sp,8
   124e4:	05000613          	li	a2,80
   124e8:	0000a097          	auipc	ra,0xa
   124ec:	86c080e7          	jalr	-1940(ra) # 1bd54 <memcpy>
   124f0:	08a8                	addi	a0,sp,88
   124f2:	03c00613          	li	a2,60
   124f6:	4581                	li	a1,0
   124f8:	00009097          	auipc	ra,0x9
   124fc:	7f0080e7          	jalr	2032(ra) # 1bce8 <memset>
   12500:	6505                	lui	a0,0x1
   12502:	458d                	li	a1,3
   12504:	0030                	addi	a2,sp,8
   12506:	05000693          	li	a3,80
   1250a:	d7a50793          	addi	a5,a0,-646 # d7a <.Lline_table_start1+0xb4f>
   1250e:	4711                	li	a4,4
   12510:	4489                	li	s1,2
   12512:	853e                	mv	a0,a5
   12514:	00000073          	ecall
   12518:	02950a63          	beq	a0,s1,1254c <_ZN18complex_no_dynamic3app17h28375f79aab14c62E+0x74>
   1251c:	45a5                	li	a1,9
   1251e:	08b0                	addi	a2,sp,88
   12520:	03c00693          	li	a3,60
   12524:	470d                	li	a4,3
   12526:	853e                	mv	a0,a5
   12528:	00000073          	ecall
   1252c:	02950063          	beq	a0,s1,1254c <_ZN18complex_no_dynamic3app17h28375f79aab14c62E+0x74>
   12530:	6505                	lui	a0,0x1
   12532:	458d                	li	a1,3
   12534:	4625                	li	a2,9
   12536:	d7a50493          	addi	s1,a0,-646 # d7a <.Lline_table_start1+0xb4f>
   1253a:	4709                	li	a4,2
   1253c:	07f00813          	li	a6,127
   12540:	8526                	mv	a0,s1
   12542:	4681                	li	a3,0
   12544:	00000073          	ecall
   12548:	02a86963          	bltu	a6,a0,1257a <_ZN18complex_no_dynamic3app17h28375f79aab14c62E+0xa2>
   1254c:	853e                	mv	a0,a5
   1254e:	4601                	li	a2,0
   12550:	4681                	li	a3,0
   12552:	4705                	li	a4,1
   12554:	00e40023          	sb	a4,0(s0)
   12558:	c04c                	sw	a1,4(s0)
   1255a:	45a5                	li	a1,9
   1255c:	470d                	li	a4,3
   1255e:	00000073          	ecall
   12562:	458d                	li	a1,3
   12564:	4711                	li	a4,4
   12566:	853e                	mv	a0,a5
   12568:	4601                	li	a2,0
   1256a:	4681                	li	a3,0
   1256c:	00000073          	ecall
   12570:	40fa                	lw	ra,156(sp)
   12572:	446a                	lw	s0,152(sp)
   12574:	44da                	lw	s1,148(sp)
   12576:	610d                	addi	sp,sp,160
   12578:	8082                	ret
   1257a:	8526                	mv	a0,s1
   1257c:	4601                	li	a2,0
   1257e:	4681                	li	a3,0
   12580:	45a5                	li	a1,9
   12582:	470d                	li	a4,3
   12584:	00000073          	ecall
   12588:	45a5                	li	a1,9
   1258a:	470d                	li	a4,3
   1258c:	8526                	mv	a0,s1
   1258e:	4601                	li	a2,0
   12590:	4681                	li	a3,0
   12592:	00000073          	ecall
   12596:	00140513          	addi	a0,s0,1
   1259a:	08ac                	addi	a1,sp,88
   1259c:	03c00613          	li	a2,60
   125a0:	00009097          	auipc	ra,0x9
   125a4:	7b4080e7          	jalr	1972(ra) # 1bd54 <memcpy>
   125a8:	8526                	mv	a0,s1
   125aa:	4601                	li	a2,0
   125ac:	4681                	li	a3,0
   125ae:	00040023          	sb	zero,0(s0)
   125b2:	45a5                	li	a1,9
   125b4:	470d                	li	a4,3
   125b6:	00000073          	ecall
   125ba:	458d                	li	a1,3
   125bc:	4711                	li	a4,4
   125be:	8526                	mv	a0,s1
   125c0:	4601                	li	a2,0
   125c2:	4681                	li	a3,0
   125c4:	00000073          	ecall
   125c8:	40fa                	lw	ra,156(sp)
   125ca:	446a                	lw	s0,152(sp)
   125cc:	44da                	lw	s1,148(sp)
   125ce:	610d                	addi	sp,sp,160
   125d0:	8082                	ret

000125d2 <_ZN18complex_no_dynamic3app17h287ea74023adf37cE>:
   125d2:	7175                	addi	sp,sp,-144
   125d4:	c706                	sw	ra,140(sp)
   125d6:	c522                	sw	s0,136(sp)
   125d8:	842a                	mv	s0,a0
   125da:	00710513          	addi	a0,sp,7
   125de:	06100613          	li	a2,97
   125e2:	00009097          	auipc	ra,0x9
   125e6:	772080e7          	jalr	1906(ra) # 1bd54 <memcpy>
   125ea:	dc82                	sw	zero,120(sp)
   125ec:	de82                	sw	zero,124(sp)
   125ee:	c102                	sw	zero,128(sp)
   125f0:	08011223          	sh	zero,132(sp)
   125f4:	d482                	sw	zero,104(sp)
   125f6:	d682                	sw	zero,108(sp)
   125f8:	d882                	sw	zero,112(sp)
   125fa:	da82                	sw	zero,116(sp)
   125fc:	18800513          	li	a0,392
   12600:	4591                	li	a1,4
   12602:	00710613          	addi	a2,sp,7
   12606:	06100693          	li	a3,97
   1260a:	4711                	li	a4,4
   1260c:	4789                	li	a5,2
   1260e:	00000073          	ecall
   12612:	02f50863          	beq	a0,a5,12642 <_ZN18complex_no_dynamic3app17h287ea74023adf37cE+0x70>
   12616:	18800513          	li	a0,392
   1261a:	4599                	li	a1,6
   1261c:	10b0                	addi	a2,sp,104
   1261e:	46f9                	li	a3,30
   12620:	470d                	li	a4,3
   12622:	00000073          	ecall
   12626:	00f50e63          	beq	a0,a5,12642 <_ZN18complex_no_dynamic3app17h287ea74023adf37cE+0x70>
   1262a:	18800513          	li	a0,392
   1262e:	4591                	li	a1,4
   12630:	4619                	li	a2,6
   12632:	4709                	li	a4,2
   12634:	07f00793          	li	a5,127
   12638:	4681                	li	a3,0
   1263a:	00000073          	ecall
   1263e:	02a7ea63          	bltu	a5,a0,12672 <_ZN18complex_no_dynamic3app17h287ea74023adf37cE+0xa0>
   12642:	4601                	li	a2,0
   12644:	4681                	li	a3,0
   12646:	4705                	li	a4,1
   12648:	18800513          	li	a0,392
   1264c:	00e40023          	sb	a4,0(s0)
   12650:	c04c                	sw	a1,4(s0)
   12652:	4599                	li	a1,6
   12654:	470d                	li	a4,3
   12656:	00000073          	ecall
   1265a:	18800513          	li	a0,392
   1265e:	4591                	li	a1,4
   12660:	4711                	li	a4,4
   12662:	4601                	li	a2,0
   12664:	4681                	li	a3,0
   12666:	00000073          	ecall
   1266a:	40ba                	lw	ra,140(sp)
   1266c:	442a                	lw	s0,136(sp)
   1266e:	6149                	addi	sp,sp,144
   12670:	8082                	ret
   12672:	4601                	li	a2,0
   12674:	4681                	li	a3,0
   12676:	18800513          	li	a0,392
   1267a:	4599                	li	a1,6
   1267c:	470d                	li	a4,3
   1267e:	00000073          	ecall
   12682:	18800513          	li	a0,392
   12686:	4599                	li	a1,6
   12688:	470d                	li	a4,3
   1268a:	4601                	li	a2,0
   1268c:	4681                	li	a3,0
   1268e:	00000073          	ecall
   12692:	00140513          	addi	a0,s0,1
   12696:	10ac                	addi	a1,sp,104
   12698:	4679                	li	a2,30
   1269a:	00009097          	auipc	ra,0x9
   1269e:	6ba080e7          	jalr	1722(ra) # 1bd54 <memcpy>
   126a2:	4601                	li	a2,0
   126a4:	4681                	li	a3,0
   126a6:	00040023          	sb	zero,0(s0)
   126aa:	18800513          	li	a0,392
   126ae:	4599                	li	a1,6
   126b0:	470d                	li	a4,3
   126b2:	00000073          	ecall
   126b6:	18800513          	li	a0,392
   126ba:	4591                	li	a1,4
   126bc:	4711                	li	a4,4
   126be:	4601                	li	a2,0
   126c0:	4681                	li	a3,0
   126c2:	00000073          	ecall
   126c6:	40ba                	lw	ra,140(sp)
   126c8:	442a                	lw	s0,136(sp)
   126ca:	6149                	addi	sp,sp,144
   126cc:	8082                	ret

000126ce <_ZN18complex_no_dynamic3app17h28f2c9b208419f2eE>:
   126ce:	7135                	addi	sp,sp,-160
   126d0:	cf06                	sw	ra,156(sp)
   126d2:	cd22                	sw	s0,152(sp)
   126d4:	cb26                	sw	s1,148(sp)
   126d6:	842a                	mv	s0,a0
   126d8:	00710513          	addi	a0,sp,7
   126dc:	05300613          	li	a2,83
   126e0:	00009097          	auipc	ra,0x9
   126e4:	674080e7          	jalr	1652(ra) # 1bd54 <memcpy>
   126e8:	05a10513          	addi	a0,sp,90
   126ec:	03a00613          	li	a2,58
   126f0:	4581                	li	a1,0
   126f2:	00009097          	auipc	ra,0x9
   126f6:	5f6080e7          	jalr	1526(ra) # 1bce8 <memset>
   126fa:	6509                	lui	a0,0x2
   126fc:	4599                	li	a1,6
   126fe:	00710613          	addi	a2,sp,7
   12702:	05300693          	li	a3,83
   12706:	64550793          	addi	a5,a0,1605 # 2645 <.Lline_table_start1+0x241a>
   1270a:	4711                	li	a4,4
   1270c:	4489                	li	s1,2
   1270e:	853e                	mv	a0,a5
   12710:	00000073          	ecall
   12714:	02950b63          	beq	a0,s1,1274a <_ZN18complex_no_dynamic3app17h28f2c9b208419f2eE+0x7c>
   12718:	459d                	li	a1,7
   1271a:	05a10613          	addi	a2,sp,90
   1271e:	03a00693          	li	a3,58
   12722:	470d                	li	a4,3
   12724:	853e                	mv	a0,a5
   12726:	00000073          	ecall
   1272a:	02950063          	beq	a0,s1,1274a <_ZN18complex_no_dynamic3app17h28f2c9b208419f2eE+0x7c>
   1272e:	6509                	lui	a0,0x2
   12730:	4599                	li	a1,6
   12732:	461d                	li	a2,7
   12734:	64550493          	addi	s1,a0,1605 # 2645 <.Lline_table_start1+0x241a>
   12738:	4709                	li	a4,2
   1273a:	07f00813          	li	a6,127
   1273e:	8526                	mv	a0,s1
   12740:	4681                	li	a3,0
   12742:	00000073          	ecall
   12746:	02a86963          	bltu	a6,a0,12778 <_ZN18complex_no_dynamic3app17h28f2c9b208419f2eE+0xaa>
   1274a:	853e                	mv	a0,a5
   1274c:	4601                	li	a2,0
   1274e:	4681                	li	a3,0
   12750:	4705                	li	a4,1
   12752:	00e40023          	sb	a4,0(s0)
   12756:	c04c                	sw	a1,4(s0)
   12758:	459d                	li	a1,7
   1275a:	470d                	li	a4,3
   1275c:	00000073          	ecall
   12760:	4599                	li	a1,6
   12762:	4711                	li	a4,4
   12764:	853e                	mv	a0,a5
   12766:	4601                	li	a2,0
   12768:	4681                	li	a3,0
   1276a:	00000073          	ecall
   1276e:	40fa                	lw	ra,156(sp)
   12770:	446a                	lw	s0,152(sp)
   12772:	44da                	lw	s1,148(sp)
   12774:	610d                	addi	sp,sp,160
   12776:	8082                	ret
   12778:	8526                	mv	a0,s1
   1277a:	4601                	li	a2,0
   1277c:	4681                	li	a3,0
   1277e:	459d                	li	a1,7
   12780:	470d                	li	a4,3
   12782:	00000073          	ecall
   12786:	459d                	li	a1,7
   12788:	470d                	li	a4,3
   1278a:	8526                	mv	a0,s1
   1278c:	4601                	li	a2,0
   1278e:	4681                	li	a3,0
   12790:	00000073          	ecall
   12794:	00140513          	addi	a0,s0,1
   12798:	05a10593          	addi	a1,sp,90
   1279c:	03a00613          	li	a2,58
   127a0:	00009097          	auipc	ra,0x9
   127a4:	5b4080e7          	jalr	1460(ra) # 1bd54 <memcpy>
   127a8:	8526                	mv	a0,s1
   127aa:	4601                	li	a2,0
   127ac:	4681                	li	a3,0
   127ae:	00040023          	sb	zero,0(s0)
   127b2:	459d                	li	a1,7
   127b4:	470d                	li	a4,3
   127b6:	00000073          	ecall
   127ba:	4599                	li	a1,6
   127bc:	4711                	li	a4,4
   127be:	8526                	mv	a0,s1
   127c0:	4601                	li	a2,0
   127c2:	4681                	li	a3,0
   127c4:	00000073          	ecall
   127c8:	40fa                	lw	ra,156(sp)
   127ca:	446a                	lw	s0,152(sp)
   127cc:	44da                	lw	s1,148(sp)
   127ce:	610d                	addi	sp,sp,160
   127d0:	8082                	ret

000127d2 <_ZN18complex_no_dynamic3app17h29199432b58f7834E>:
   127d2:	7159                	addi	sp,sp,-112
   127d4:	d686                	sw	ra,108(sp)
   127d6:	d4a2                	sw	s0,104(sp)
   127d8:	d2a6                	sw	s1,100(sp)
   127da:	842a                	mv	s0,a0
   127dc:	00210513          	addi	a0,sp,2
   127e0:	03b00613          	li	a2,59
   127e4:	00009097          	auipc	ra,0x9
   127e8:	570080e7          	jalr	1392(ra) # 1bd54 <memcpy>
   127ec:	03d10513          	addi	a0,sp,61
   127f0:	02700613          	li	a2,39
   127f4:	4581                	li	a1,0
   127f6:	00009097          	auipc	ra,0x9
   127fa:	4f2080e7          	jalr	1266(ra) # 1bce8 <memset>
   127fe:	6505                	lui	a0,0x1
   12800:	4595                	li	a1,5
   12802:	00210613          	addi	a2,sp,2
   12806:	03b00693          	li	a3,59
   1280a:	bd350793          	addi	a5,a0,-1069 # bd3 <.Lline_table_start1+0x9a8>
   1280e:	4711                	li	a4,4
   12810:	4489                	li	s1,2
   12812:	853e                	mv	a0,a5
   12814:	00000073          	ecall
   12818:	02950b63          	beq	a0,s1,1284e <_ZN18complex_no_dynamic3app17h29199432b58f7834E+0x7c>
   1281c:	458d                	li	a1,3
   1281e:	03d10613          	addi	a2,sp,61
   12822:	02700693          	li	a3,39
   12826:	470d                	li	a4,3
   12828:	853e                	mv	a0,a5
   1282a:	00000073          	ecall
   1282e:	02950063          	beq	a0,s1,1284e <_ZN18complex_no_dynamic3app17h29199432b58f7834E+0x7c>
   12832:	6505                	lui	a0,0x1
   12834:	4595                	li	a1,5
   12836:	460d                	li	a2,3
   12838:	bd350493          	addi	s1,a0,-1069 # bd3 <.Lline_table_start1+0x9a8>
   1283c:	4709                	li	a4,2
   1283e:	07f00813          	li	a6,127
   12842:	8526                	mv	a0,s1
   12844:	4681                	li	a3,0
   12846:	00000073          	ecall
   1284a:	02a86963          	bltu	a6,a0,1287c <_ZN18complex_no_dynamic3app17h29199432b58f7834E+0xaa>
   1284e:	853e                	mv	a0,a5
   12850:	4601                	li	a2,0
   12852:	4681                	li	a3,0
   12854:	4705                	li	a4,1
   12856:	00e40023          	sb	a4,0(s0)
   1285a:	c04c                	sw	a1,4(s0)
   1285c:	458d                	li	a1,3
   1285e:	470d                	li	a4,3
   12860:	00000073          	ecall
   12864:	4595                	li	a1,5
   12866:	4711                	li	a4,4
   12868:	853e                	mv	a0,a5
   1286a:	4601                	li	a2,0
   1286c:	4681                	li	a3,0
   1286e:	00000073          	ecall
   12872:	50b6                	lw	ra,108(sp)
   12874:	5426                	lw	s0,104(sp)
   12876:	5496                	lw	s1,100(sp)
   12878:	6165                	addi	sp,sp,112
   1287a:	8082                	ret
   1287c:	8526                	mv	a0,s1
   1287e:	4601                	li	a2,0
   12880:	4681                	li	a3,0
   12882:	458d                	li	a1,3
   12884:	470d                	li	a4,3
   12886:	00000073          	ecall
   1288a:	458d                	li	a1,3
   1288c:	470d                	li	a4,3
   1288e:	8526                	mv	a0,s1
   12890:	4601                	li	a2,0
   12892:	4681                	li	a3,0
   12894:	00000073          	ecall
   12898:	00140513          	addi	a0,s0,1
   1289c:	03d10593          	addi	a1,sp,61
   128a0:	02700613          	li	a2,39
   128a4:	00009097          	auipc	ra,0x9
   128a8:	4b0080e7          	jalr	1200(ra) # 1bd54 <memcpy>
   128ac:	8526                	mv	a0,s1
   128ae:	4601                	li	a2,0
   128b0:	4681                	li	a3,0
   128b2:	00040023          	sb	zero,0(s0)
   128b6:	458d                	li	a1,3
   128b8:	470d                	li	a4,3
   128ba:	00000073          	ecall
   128be:	4595                	li	a1,5
   128c0:	4711                	li	a4,4
   128c2:	8526                	mv	a0,s1
   128c4:	4601                	li	a2,0
   128c6:	4681                	li	a3,0
   128c8:	00000073          	ecall
   128cc:	50b6                	lw	ra,108(sp)
   128ce:	5426                	lw	s0,104(sp)
   128d0:	5496                	lw	s1,100(sp)
   128d2:	6165                	addi	sp,sp,112
   128d4:	8082                	ret

000128d6 <_ZN18complex_no_dynamic3app17h2b788820dd0979dbE>:
   128d6:	7175                	addi	sp,sp,-144
   128d8:	c706                	sw	ra,140(sp)
   128da:	c522                	sw	s0,136(sp)
   128dc:	c326                	sw	s1,132(sp)
   128de:	842a                	mv	s0,a0
   128e0:	00e10513          	addi	a0,sp,14
   128e4:	02700613          	li	a2,39
   128e8:	00009097          	auipc	ra,0x9
   128ec:	46c080e7          	jalr	1132(ra) # 1bd54 <memcpy>
   128f0:	03510513          	addi	a0,sp,53
   128f4:	04f00613          	li	a2,79
   128f8:	4581                	li	a1,0
   128fa:	00009097          	auipc	ra,0x9
   128fe:	3ee080e7          	jalr	1006(ra) # 1bce8 <memset>
   12902:	6505                	lui	a0,0x1
   12904:	45a5                	li	a1,9
   12906:	00e10613          	addi	a2,sp,14
   1290a:	02700693          	li	a3,39
   1290e:	b4c50793          	addi	a5,a0,-1204 # b4c <.Lline_table_start1+0x921>
   12912:	4711                	li	a4,4
   12914:	4489                	li	s1,2
   12916:	853e                	mv	a0,a5
   12918:	00000073          	ecall
   1291c:	02950b63          	beq	a0,s1,12952 <_ZN18complex_no_dynamic3app17h2b788820dd0979dbE+0x7c>
   12920:	03510613          	addi	a2,sp,53
   12924:	04f00693          	li	a3,79
   12928:	470d                	li	a4,3
   1292a:	853e                	mv	a0,a5
   1292c:	4581                	li	a1,0
   1292e:	00000073          	ecall
   12932:	02950063          	beq	a0,s1,12952 <_ZN18complex_no_dynamic3app17h2b788820dd0979dbE+0x7c>
   12936:	6505                	lui	a0,0x1
   12938:	45a5                	li	a1,9
   1293a:	b4c50493          	addi	s1,a0,-1204 # b4c <.Lline_table_start1+0x921>
   1293e:	4709                	li	a4,2
   12940:	07f00813          	li	a6,127
   12944:	8526                	mv	a0,s1
   12946:	4601                	li	a2,0
   12948:	4681                	li	a3,0
   1294a:	00000073          	ecall
   1294e:	02a86a63          	bltu	a6,a0,12982 <_ZN18complex_no_dynamic3app17h2b788820dd0979dbE+0xac>
   12952:	872e                	mv	a4,a1
   12954:	853e                	mv	a0,a5
   12956:	4581                	li	a1,0
   12958:	4601                	li	a2,0
   1295a:	4681                	li	a3,0
   1295c:	4485                	li	s1,1
   1295e:	00940023          	sb	s1,0(s0)
   12962:	c058                	sw	a4,4(s0)
   12964:	470d                	li	a4,3
   12966:	00000073          	ecall
   1296a:	45a5                	li	a1,9
   1296c:	4711                	li	a4,4
   1296e:	853e                	mv	a0,a5
   12970:	4601                	li	a2,0
   12972:	4681                	li	a3,0
   12974:	00000073          	ecall
   12978:	40ba                	lw	ra,140(sp)
   1297a:	442a                	lw	s0,136(sp)
   1297c:	449a                	lw	s1,132(sp)
   1297e:	6149                	addi	sp,sp,144
   12980:	8082                	ret
   12982:	470d                	li	a4,3
   12984:	8526                	mv	a0,s1
   12986:	4581                	li	a1,0
   12988:	4601                	li	a2,0
   1298a:	4681                	li	a3,0
   1298c:	00000073          	ecall
   12990:	470d                	li	a4,3
   12992:	8526                	mv	a0,s1
   12994:	4581                	li	a1,0
   12996:	4601                	li	a2,0
   12998:	4681                	li	a3,0
   1299a:	00000073          	ecall
   1299e:	00140513          	addi	a0,s0,1
   129a2:	03510593          	addi	a1,sp,53
   129a6:	04f00613          	li	a2,79
   129aa:	00009097          	auipc	ra,0x9
   129ae:	3aa080e7          	jalr	938(ra) # 1bd54 <memcpy>
   129b2:	8526                	mv	a0,s1
   129b4:	4581                	li	a1,0
   129b6:	4601                	li	a2,0
   129b8:	4681                	li	a3,0
   129ba:	00040023          	sb	zero,0(s0)
   129be:	470d                	li	a4,3
   129c0:	00000073          	ecall
   129c4:	45a5                	li	a1,9
   129c6:	4711                	li	a4,4
   129c8:	8526                	mv	a0,s1
   129ca:	4601                	li	a2,0
   129cc:	4681                	li	a3,0
   129ce:	00000073          	ecall
   129d2:	40ba                	lw	ra,140(sp)
   129d4:	442a                	lw	s0,136(sp)
   129d6:	449a                	lw	s1,132(sp)
   129d8:	6149                	addi	sp,sp,144
   129da:	8082                	ret

000129dc <_ZN18complex_no_dynamic3app17h2bee3b25e1af3963E>:
   129dc:	7175                	addi	sp,sp,-144
   129de:	c706                	sw	ra,140(sp)
   129e0:	c522                	sw	s0,136(sp)
   129e2:	c326                	sw	s1,132(sp)
   129e4:	842a                	mv	s0,a0
   129e6:	0048                	addi	a0,sp,4
   129e8:	02d00613          	li	a2,45
   129ec:	00009097          	auipc	ra,0x9
   129f0:	368080e7          	jalr	872(ra) # 1bd54 <memcpy>
   129f4:	03110513          	addi	a0,sp,49
   129f8:	05300613          	li	a2,83
   129fc:	4581                	li	a1,0
   129fe:	00009097          	auipc	ra,0x9
   12a02:	2ea080e7          	jalr	746(ra) # 1bce8 <memset>
   12a06:	6505                	lui	a0,0x1
   12a08:	4489                	li	s1,2
   12a0a:	4589                	li	a1,2
   12a0c:	0050                	addi	a2,sp,4
   12a0e:	ec350793          	addi	a5,a0,-317 # ec3 <.Lline_table_start1+0xc98>
   12a12:	02d00693          	li	a3,45
   12a16:	4711                	li	a4,4
   12a18:	853e                	mv	a0,a5
   12a1a:	00000073          	ecall
   12a1e:	02950b63          	beq	a0,s1,12a54 <_ZN18complex_no_dynamic3app17h2bee3b25e1af3963E+0x78>
   12a22:	459d                	li	a1,7
   12a24:	03110613          	addi	a2,sp,49
   12a28:	05300693          	li	a3,83
   12a2c:	470d                	li	a4,3
   12a2e:	853e                	mv	a0,a5
   12a30:	00000073          	ecall
   12a34:	02950063          	beq	a0,s1,12a54 <_ZN18complex_no_dynamic3app17h2bee3b25e1af3963E+0x78>
   12a38:	6505                	lui	a0,0x1
   12a3a:	4589                	li	a1,2
   12a3c:	461d                	li	a2,7
   12a3e:	ec350493          	addi	s1,a0,-317 # ec3 <.Lline_table_start1+0xc98>
   12a42:	4709                	li	a4,2
   12a44:	07f00813          	li	a6,127
   12a48:	8526                	mv	a0,s1
   12a4a:	4681                	li	a3,0
   12a4c:	00000073          	ecall
   12a50:	02a86963          	bltu	a6,a0,12a82 <_ZN18complex_no_dynamic3app17h2bee3b25e1af3963E+0xa6>
   12a54:	853e                	mv	a0,a5
   12a56:	4601                	li	a2,0
   12a58:	4681                	li	a3,0
   12a5a:	4705                	li	a4,1
   12a5c:	00e40023          	sb	a4,0(s0)
   12a60:	c04c                	sw	a1,4(s0)
   12a62:	459d                	li	a1,7
   12a64:	470d                	li	a4,3
   12a66:	00000073          	ecall
   12a6a:	4589                	li	a1,2
   12a6c:	4711                	li	a4,4
   12a6e:	853e                	mv	a0,a5
   12a70:	4601                	li	a2,0
   12a72:	4681                	li	a3,0
   12a74:	00000073          	ecall
   12a78:	40ba                	lw	ra,140(sp)
   12a7a:	442a                	lw	s0,136(sp)
   12a7c:	449a                	lw	s1,132(sp)
   12a7e:	6149                	addi	sp,sp,144
   12a80:	8082                	ret
   12a82:	8526                	mv	a0,s1
   12a84:	4601                	li	a2,0
   12a86:	4681                	li	a3,0
   12a88:	459d                	li	a1,7
   12a8a:	470d                	li	a4,3
   12a8c:	00000073          	ecall
   12a90:	459d                	li	a1,7
   12a92:	470d                	li	a4,3
   12a94:	8526                	mv	a0,s1
   12a96:	4601                	li	a2,0
   12a98:	4681                	li	a3,0
   12a9a:	00000073          	ecall
   12a9e:	00140513          	addi	a0,s0,1
   12aa2:	03110593          	addi	a1,sp,49
   12aa6:	05300613          	li	a2,83
   12aaa:	00009097          	auipc	ra,0x9
   12aae:	2aa080e7          	jalr	682(ra) # 1bd54 <memcpy>
   12ab2:	8526                	mv	a0,s1
   12ab4:	4601                	li	a2,0
   12ab6:	4681                	li	a3,0
   12ab8:	00040023          	sb	zero,0(s0)
   12abc:	459d                	li	a1,7
   12abe:	470d                	li	a4,3
   12ac0:	00000073          	ecall
   12ac4:	4589                	li	a1,2
   12ac6:	4711                	li	a4,4
   12ac8:	8526                	mv	a0,s1
   12aca:	4601                	li	a2,0
   12acc:	4681                	li	a3,0
   12ace:	00000073          	ecall
   12ad2:	40ba                	lw	ra,140(sp)
   12ad4:	442a                	lw	s0,136(sp)
   12ad6:	449a                	lw	s1,132(sp)
   12ad8:	6149                	addi	sp,sp,144
   12ada:	8082                	ret

00012adc <_ZN18complex_no_dynamic3app17h2c6bd6613b476f28E>:
   12adc:	7175                	addi	sp,sp,-144
   12ade:	c706                	sw	ra,140(sp)
   12ae0:	c522                	sw	s0,136(sp)
   12ae2:	c326                	sw	s1,132(sp)
   12ae4:	c14a                	sw	s2,128(sp)
   12ae6:	dece                	sw	s3,124(sp)
   12ae8:	dcd2                	sw	s4,120(sp)
   12aea:	892a                	mv	s2,a0
   12aec:	01c5c303          	lbu	t1,28(a1)
   12af0:	01d5c603          	lbu	a2,29(a1)
   12af4:	0185c683          	lbu	a3,24(a1)
   12af8:	0195c703          	lbu	a4,25(a1)
   12afc:	01a5c803          	lbu	a6,26(a1)
   12b00:	01b5c283          	lbu	t0,27(a1)
   12b04:	0145c883          	lbu	a7,20(a1)
   12b08:	0155c383          	lbu	t2,21(a1)
   12b0c:	0165c403          	lbu	s0,22(a1)
   12b10:	0175c483          	lbu	s1,23(a1)
   12b14:	0105c503          	lbu	a0,16(a1)
   12b18:	0115c783          	lbu	a5,17(a1)
   12b1c:	0125ce03          	lbu	t3,18(a1)
   12b20:	0135ce83          	lbu	t4,19(a1)
   12b24:	0622                	slli	a2,a2,0x8
   12b26:	0722                	slli	a4,a4,0x8
   12b28:	00666333          	or	t1,a2,t1
   12b2c:	00d76f33          	or	t5,a4,a3
   12b30:	00c5cf83          	lbu	t6,12(a1)
   12b34:	00d5c683          	lbu	a3,13(a1)
   12b38:	00e5c703          	lbu	a4,14(a1)
   12b3c:	00f5c603          	lbu	a2,15(a1)
   12b40:	0842                	slli	a6,a6,0x10
   12b42:	02e2                	slli	t0,t0,0x18
   12b44:	03a2                	slli	t2,t2,0x8
   12b46:	0442                	slli	s0,s0,0x10
   12b48:	04e2                	slli	s1,s1,0x18
   12b4a:	07a2                	slli	a5,a5,0x8
   12b4c:	0102e2b3          	or	t0,t0,a6
   12b50:	0113e833          	or	a6,t2,a7
   12b54:	0084e8b3          	or	a7,s1,s0
   12b58:	00a7e3b3          	or	t2,a5,a0
   12b5c:	0085c503          	lbu	a0,8(a1)
   12b60:	0095c783          	lbu	a5,9(a1)
   12b64:	00a5c403          	lbu	s0,10(a1)
   12b68:	00b5c483          	lbu	s1,11(a1)
   12b6c:	0e42                	slli	t3,t3,0x10
   12b6e:	0ee2                	slli	t4,t4,0x18
   12b70:	06a2                	slli	a3,a3,0x8
   12b72:	0742                	slli	a4,a4,0x10
   12b74:	0662                	slli	a2,a2,0x18
   12b76:	07a2                	slli	a5,a5,0x8
   12b78:	01ceee33          	or	t3,t4,t3
   12b7c:	01f6eeb3          	or	t4,a3,t6
   12b80:	00e669b3          	or	s3,a2,a4
   12b84:	00a7efb3          	or	t6,a5,a0
   12b88:	0045c703          	lbu	a4,4(a1)
   12b8c:	0055c783          	lbu	a5,5(a1)
   12b90:	0065c683          	lbu	a3,6(a1)
   12b94:	0075c503          	lbu	a0,7(a1)
   12b98:	0442                	slli	s0,s0,0x10
   12b9a:	04e2                	slli	s1,s1,0x18
   12b9c:	07a2                	slli	a5,a5,0x8
   12b9e:	06c2                	slli	a3,a3,0x10
   12ba0:	0562                	slli	a0,a0,0x18
   12ba2:	8c45                	or	s0,s0,s1
   12ba4:	00e7ea33          	or	s4,a5,a4
   12ba8:	0005c783          	lbu	a5,0(a1)
   12bac:	0015c483          	lbu	s1,1(a1)
   12bb0:	8d55                	or	a0,a0,a3
   12bb2:	0025c683          	lbu	a3,2(a1)
   12bb6:	0035c583          	lbu	a1,3(a1)
   12bba:	04a2                	slli	s1,s1,0x8
   12bbc:	8fc5                	or	a5,a5,s1
   12bbe:	06c2                	slli	a3,a3,0x10
   12bc0:	05e2                	slli	a1,a1,0x18
   12bc2:	8dd5                	or	a1,a1,a3
   12bc4:	01e2e6b3          	or	a3,t0,t5
   12bc8:	0108e4b3          	or	s1,a7,a6
   12bcc:	007e6633          	or	a2,t3,t2
   12bd0:	01d9e733          	or	a4,s3,t4
   12bd4:	01f46433          	or	s0,s0,t6
   12bd8:	01456533          	or	a0,a0,s4
   12bdc:	8ddd                	or	a1,a1,a5
   12bde:	cc32                	sw	a2,24(sp)
   12be0:	ce26                	sw	s1,28(sp)
   12be2:	d036                	sw	a3,32(sp)
   12be4:	02611223          	sh	t1,36(sp)
   12be8:	c42e                	sw	a1,8(sp)
   12bea:	c62a                	sw	a0,12(sp)
   12bec:	c822                	sw	s0,16(sp)
   12bee:	ca3a                	sw	a4,20(sp)
   12bf0:	02710513          	addi	a0,sp,39
   12bf4:	05100613          	li	a2,81
   12bf8:	4581                	li	a1,0
   12bfa:	00009097          	auipc	ra,0x9
   12bfe:	0ee080e7          	jalr	238(ra) # 1bce8 <memset>
   12c02:	6509                	lui	a0,0x2
   12c04:	4489                	li	s1,2
   12c06:	4589                	li	a1,2
   12c08:	0030                	addi	a2,sp,8
   12c0a:	96b50793          	addi	a5,a0,-1685 # 196b <.Lline_table_start1+0x1740>
   12c0e:	46f9                	li	a3,30
   12c10:	4711                	li	a4,4
   12c12:	853e                	mv	a0,a5
   12c14:	00000073          	ecall
   12c18:	02950b63          	beq	a0,s1,12c4e <_ZN18complex_no_dynamic3app17h2c6bd6613b476f28E+0x172>
   12c1c:	02710613          	addi	a2,sp,39
   12c20:	05100693          	li	a3,81
   12c24:	470d                	li	a4,3
   12c26:	853e                	mv	a0,a5
   12c28:	4581                	li	a1,0
   12c2a:	00000073          	ecall
   12c2e:	02950063          	beq	a0,s1,12c4e <_ZN18complex_no_dynamic3app17h2c6bd6613b476f28E+0x172>
   12c32:	6509                	lui	a0,0x2
   12c34:	4589                	li	a1,2
   12c36:	96b50493          	addi	s1,a0,-1685 # 196b <.Lline_table_start1+0x1740>
   12c3a:	4709                	li	a4,2
   12c3c:	07f00413          	li	s0,127
   12c40:	8526                	mv	a0,s1
   12c42:	4601                	li	a2,0
   12c44:	4681                	li	a3,0
   12c46:	00000073          	ecall
   12c4a:	02a46e63          	bltu	s0,a0,12c86 <_ZN18complex_no_dynamic3app17h2c6bd6613b476f28E+0x1aa>
   12c4e:	872e                	mv	a4,a1
   12c50:	853e                	mv	a0,a5
   12c52:	4581                	li	a1,0
   12c54:	4601                	li	a2,0
   12c56:	4681                	li	a3,0
   12c58:	4485                	li	s1,1
   12c5a:	00990023          	sb	s1,0(s2)
   12c5e:	00e92223          	sw	a4,4(s2)
   12c62:	470d                	li	a4,3
   12c64:	00000073          	ecall
   12c68:	4589                	li	a1,2
   12c6a:	4711                	li	a4,4
   12c6c:	853e                	mv	a0,a5
   12c6e:	4601                	li	a2,0
   12c70:	4681                	li	a3,0
   12c72:	00000073          	ecall
   12c76:	40ba                	lw	ra,140(sp)
   12c78:	442a                	lw	s0,136(sp)
   12c7a:	449a                	lw	s1,132(sp)
   12c7c:	490a                	lw	s2,128(sp)
   12c7e:	59f6                	lw	s3,124(sp)
   12c80:	5a66                	lw	s4,120(sp)
   12c82:	6149                	addi	sp,sp,144
   12c84:	8082                	ret
   12c86:	470d                	li	a4,3
   12c88:	8526                	mv	a0,s1
   12c8a:	4581                	li	a1,0
   12c8c:	4601                	li	a2,0
   12c8e:	4681                	li	a3,0
   12c90:	00000073          	ecall
   12c94:	470d                	li	a4,3
   12c96:	8526                	mv	a0,s1
   12c98:	4581                	li	a1,0
   12c9a:	4601                	li	a2,0
   12c9c:	4681                	li	a3,0
   12c9e:	00000073          	ecall
   12ca2:	00190513          	addi	a0,s2,1
   12ca6:	02710593          	addi	a1,sp,39
   12caa:	05100613          	li	a2,81
   12cae:	00009097          	auipc	ra,0x9
   12cb2:	0a6080e7          	jalr	166(ra) # 1bd54 <memcpy>
   12cb6:	8526                	mv	a0,s1
   12cb8:	4581                	li	a1,0
   12cba:	4601                	li	a2,0
   12cbc:	4681                	li	a3,0
   12cbe:	00090023          	sb	zero,0(s2)
   12cc2:	470d                	li	a4,3
   12cc4:	00000073          	ecall
   12cc8:	4589                	li	a1,2
   12cca:	4711                	li	a4,4
   12ccc:	8526                	mv	a0,s1
   12cce:	4601                	li	a2,0
   12cd0:	4681                	li	a3,0
   12cd2:	00000073          	ecall
   12cd6:	b745                	j	12c76 <_ZN18complex_no_dynamic3app17h2c6bd6613b476f28E+0x19a>

00012cd8 <_ZN18complex_no_dynamic3app17h3363a6009a1b5621E>:
   12cd8:	7119                	addi	sp,sp,-128
   12cda:	de86                	sw	ra,124(sp)
   12cdc:	dca2                	sw	s0,120(sp)
   12cde:	daa6                	sw	s1,116(sp)
   12ce0:	842a                	mv	s0,a0
   12ce2:	0068                	addi	a0,sp,12
   12ce4:	03c00613          	li	a2,60
   12ce8:	00009097          	auipc	ra,0x9
   12cec:	06c080e7          	jalr	108(ra) # 1bd54 <memcpy>
   12cf0:	00a8                	addi	a0,sp,72
   12cf2:	02c00613          	li	a2,44
   12cf6:	4581                	li	a1,0
   12cf8:	00009097          	auipc	ra,0x9
   12cfc:	ff0080e7          	jalr	-16(ra) # 1bce8 <memset>
   12d00:	6509                	lui	a0,0x2
   12d02:	4595                	li	a1,5
   12d04:	0070                	addi	a2,sp,12
   12d06:	03c00693          	li	a3,60
   12d0a:	eac50793          	addi	a5,a0,-340 # 1eac <.Lline_table_start1+0x1c81>
   12d0e:	4711                	li	a4,4
   12d10:	4489                	li	s1,2
   12d12:	853e                	mv	a0,a5
   12d14:	00000073          	ecall
   12d18:	02950a63          	beq	a0,s1,12d4c <_ZN18complex_no_dynamic3app17h3363a6009a1b5621E+0x74>
   12d1c:	459d                	li	a1,7
   12d1e:	00b0                	addi	a2,sp,72
   12d20:	02c00693          	li	a3,44
   12d24:	470d                	li	a4,3
   12d26:	853e                	mv	a0,a5
   12d28:	00000073          	ecall
   12d2c:	02950063          	beq	a0,s1,12d4c <_ZN18complex_no_dynamic3app17h3363a6009a1b5621E+0x74>
   12d30:	6509                	lui	a0,0x2
   12d32:	4595                	li	a1,5
   12d34:	461d                	li	a2,7
   12d36:	eac50493          	addi	s1,a0,-340 # 1eac <.Lline_table_start1+0x1c81>
   12d3a:	4709                	li	a4,2
   12d3c:	07f00813          	li	a6,127
   12d40:	8526                	mv	a0,s1
   12d42:	4681                	li	a3,0
   12d44:	00000073          	ecall
   12d48:	02a86963          	bltu	a6,a0,12d7a <_ZN18complex_no_dynamic3app17h3363a6009a1b5621E+0xa2>
   12d4c:	853e                	mv	a0,a5
   12d4e:	4601                	li	a2,0
   12d50:	4681                	li	a3,0
   12d52:	4705                	li	a4,1
   12d54:	00e40023          	sb	a4,0(s0)
   12d58:	c04c                	sw	a1,4(s0)
   12d5a:	459d                	li	a1,7
   12d5c:	470d                	li	a4,3
   12d5e:	00000073          	ecall
   12d62:	4595                	li	a1,5
   12d64:	4711                	li	a4,4
   12d66:	853e                	mv	a0,a5
   12d68:	4601                	li	a2,0
   12d6a:	4681                	li	a3,0
   12d6c:	00000073          	ecall
   12d70:	50f6                	lw	ra,124(sp)
   12d72:	5466                	lw	s0,120(sp)
   12d74:	54d6                	lw	s1,116(sp)
   12d76:	6109                	addi	sp,sp,128
   12d78:	8082                	ret
   12d7a:	8526                	mv	a0,s1
   12d7c:	4601                	li	a2,0
   12d7e:	4681                	li	a3,0
   12d80:	459d                	li	a1,7
   12d82:	470d                	li	a4,3
   12d84:	00000073          	ecall
   12d88:	459d                	li	a1,7
   12d8a:	470d                	li	a4,3
   12d8c:	8526                	mv	a0,s1
   12d8e:	4601                	li	a2,0
   12d90:	4681                	li	a3,0
   12d92:	00000073          	ecall
   12d96:	00140513          	addi	a0,s0,1
   12d9a:	00ac                	addi	a1,sp,72
   12d9c:	02c00613          	li	a2,44
   12da0:	00009097          	auipc	ra,0x9
   12da4:	fb4080e7          	jalr	-76(ra) # 1bd54 <memcpy>
   12da8:	8526                	mv	a0,s1
   12daa:	4601                	li	a2,0
   12dac:	4681                	li	a3,0
   12dae:	00040023          	sb	zero,0(s0)
   12db2:	459d                	li	a1,7
   12db4:	470d                	li	a4,3
   12db6:	00000073          	ecall
   12dba:	4595                	li	a1,5
   12dbc:	4711                	li	a4,4
   12dbe:	8526                	mv	a0,s1
   12dc0:	4601                	li	a2,0
   12dc2:	4681                	li	a3,0
   12dc4:	00000073          	ecall
   12dc8:	50f6                	lw	ra,124(sp)
   12dca:	5466                	lw	s0,120(sp)
   12dcc:	54d6                	lw	s1,116(sp)
   12dce:	6109                	addi	sp,sp,128
   12dd0:	8082                	ret

00012dd2 <_ZN18complex_no_dynamic3app17h3922dab211d5b1f5E>:
   12dd2:	7119                	addi	sp,sp,-128
   12dd4:	de86                	sw	ra,124(sp)
   12dd6:	dca2                	sw	s0,120(sp)
   12dd8:	daa6                	sw	s1,116(sp)
   12dda:	842a                	mv	s0,a0
   12ddc:	850a                	mv	a0,sp
   12dde:	03500613          	li	a2,53
   12de2:	00009097          	auipc	ra,0x9
   12de6:	f72080e7          	jalr	-142(ra) # 1bd54 <memcpy>
   12dea:	03510513          	addi	a0,sp,53
   12dee:	03f00613          	li	a2,63
   12df2:	4581                	li	a1,0
   12df4:	00009097          	auipc	ra,0x9
   12df8:	ef4080e7          	jalr	-268(ra) # 1bce8 <memset>
   12dfc:	6505                	lui	a0,0x1
   12dfe:	860a                	mv	a2,sp
   12e00:	03500693          	li	a3,53
   12e04:	e5750793          	addi	a5,a0,-425 # e57 <.Lline_table_start1+0xc2c>
   12e08:	4711                	li	a4,4
   12e0a:	4489                	li	s1,2
   12e0c:	853e                	mv	a0,a5
   12e0e:	4581                	li	a1,0
   12e10:	00000073          	ecall
   12e14:	02950b63          	beq	a0,s1,12e4a <_ZN18complex_no_dynamic3app17h3922dab211d5b1f5E+0x78>
   12e18:	458d                	li	a1,3
   12e1a:	03510613          	addi	a2,sp,53
   12e1e:	03f00693          	li	a3,63
   12e22:	470d                	li	a4,3
   12e24:	853e                	mv	a0,a5
   12e26:	00000073          	ecall
   12e2a:	02950063          	beq	a0,s1,12e4a <_ZN18complex_no_dynamic3app17h3922dab211d5b1f5E+0x78>
   12e2e:	6505                	lui	a0,0x1
   12e30:	460d                	li	a2,3
   12e32:	e5750493          	addi	s1,a0,-425 # e57 <.Lline_table_start1+0xc2c>
   12e36:	4709                	li	a4,2
   12e38:	07f00813          	li	a6,127
   12e3c:	8526                	mv	a0,s1
   12e3e:	4581                	li	a1,0
   12e40:	4681                	li	a3,0
   12e42:	00000073          	ecall
   12e46:	02a86a63          	bltu	a6,a0,12e7a <_ZN18complex_no_dynamic3app17h3922dab211d5b1f5E+0xa8>
   12e4a:	862e                	mv	a2,a1
   12e4c:	4505                	li	a0,1
   12e4e:	458d                	li	a1,3
   12e50:	00a40023          	sb	a0,0(s0)
   12e54:	c050                	sw	a2,4(s0)
   12e56:	470d                	li	a4,3
   12e58:	853e                	mv	a0,a5
   12e5a:	4601                	li	a2,0
   12e5c:	4681                	li	a3,0
   12e5e:	00000073          	ecall
   12e62:	4711                	li	a4,4
   12e64:	853e                	mv	a0,a5
   12e66:	4581                	li	a1,0
   12e68:	4601                	li	a2,0
   12e6a:	4681                	li	a3,0
   12e6c:	00000073          	ecall
   12e70:	50f6                	lw	ra,124(sp)
   12e72:	5466                	lw	s0,120(sp)
   12e74:	54d6                	lw	s1,116(sp)
   12e76:	6109                	addi	sp,sp,128
   12e78:	8082                	ret
   12e7a:	8526                	mv	a0,s1
   12e7c:	4601                	li	a2,0
   12e7e:	4681                	li	a3,0
   12e80:	458d                	li	a1,3
   12e82:	470d                	li	a4,3
   12e84:	00000073          	ecall
   12e88:	458d                	li	a1,3
   12e8a:	470d                	li	a4,3
   12e8c:	8526                	mv	a0,s1
   12e8e:	4601                	li	a2,0
   12e90:	4681                	li	a3,0
   12e92:	00000073          	ecall
   12e96:	00140513          	addi	a0,s0,1
   12e9a:	03510593          	addi	a1,sp,53
   12e9e:	03f00613          	li	a2,63
   12ea2:	00009097          	auipc	ra,0x9
   12ea6:	eb2080e7          	jalr	-334(ra) # 1bd54 <memcpy>
   12eaa:	00040023          	sb	zero,0(s0)
   12eae:	458d                	li	a1,3
   12eb0:	470d                	li	a4,3
   12eb2:	8526                	mv	a0,s1
   12eb4:	4601                	li	a2,0
   12eb6:	4681                	li	a3,0
   12eb8:	00000073          	ecall
   12ebc:	4711                	li	a4,4
   12ebe:	8526                	mv	a0,s1
   12ec0:	4581                	li	a1,0
   12ec2:	4601                	li	a2,0
   12ec4:	4681                	li	a3,0
   12ec6:	00000073          	ecall
   12eca:	50f6                	lw	ra,124(sp)
   12ecc:	5466                	lw	s0,120(sp)
   12ece:	54d6                	lw	s1,116(sp)
   12ed0:	6109                	addi	sp,sp,128
   12ed2:	8082                	ret

00012ed4 <_ZN18complex_no_dynamic3app17h3bdc9e4b0a84085dE>:
   12ed4:	7135                	addi	sp,sp,-160
   12ed6:	cf06                	sw	ra,156(sp)
   12ed8:	cd22                	sw	s0,152(sp)
   12eda:	cb26                	sw	s1,148(sp)
   12edc:	c94a                	sw	s2,144(sp)
   12ede:	c74e                	sw	s3,140(sp)
   12ee0:	c552                	sw	s4,136(sp)
   12ee2:	892a                	mv	s2,a0
   12ee4:	0185c503          	lbu	a0,24(a1)
   12ee8:	0195c603          	lbu	a2,25(a1)
   12eec:	01a5c803          	lbu	a6,26(a1)
   12ef0:	01b5c283          	lbu	t0,27(a1)
   12ef4:	0145c883          	lbu	a7,20(a1)
   12ef8:	0155cf03          	lbu	t5,21(a1)
   12efc:	0165c403          	lbu	s0,22(a1)
   12f00:	0175c683          	lbu	a3,23(a1)
   12f04:	0105c783          	lbu	a5,16(a1)
   12f08:	0115c703          	lbu	a4,17(a1)
   12f0c:	0125c303          	lbu	t1,18(a1)
   12f10:	0135c383          	lbu	t2,19(a1)
   12f14:	0622                	slli	a2,a2,0x8
   12f16:	00a66e33          	or	t3,a2,a0
   12f1a:	00c5ce83          	lbu	t4,12(a1)
   12f1e:	00d5c603          	lbu	a2,13(a1)
   12f22:	00e5c503          	lbu	a0,14(a1)
   12f26:	00f5c483          	lbu	s1,15(a1)
   12f2a:	0842                	slli	a6,a6,0x10
   12f2c:	02e2                	slli	t0,t0,0x18
   12f2e:	0f22                	slli	t5,t5,0x8
   12f30:	0442                	slli	s0,s0,0x10
   12f32:	06e2                	slli	a3,a3,0x18
   12f34:	0722                	slli	a4,a4,0x8
   12f36:	0102e833          	or	a6,t0,a6
   12f3a:	011f68b3          	or	a7,t5,a7
   12f3e:	0086e2b3          	or	t0,a3,s0
   12f42:	00f76f33          	or	t5,a4,a5
   12f46:	0085c703          	lbu	a4,8(a1)
   12f4a:	0095c403          	lbu	s0,9(a1)
   12f4e:	00a5c683          	lbu	a3,10(a1)
   12f52:	00b5c783          	lbu	a5,11(a1)
   12f56:	0342                	slli	t1,t1,0x10
   12f58:	03e2                	slli	t2,t2,0x18
   12f5a:	0622                	slli	a2,a2,0x8
   12f5c:	0542                	slli	a0,a0,0x10
   12f5e:	04e2                	slli	s1,s1,0x18
   12f60:	0422                	slli	s0,s0,0x8
   12f62:	0063e333          	or	t1,t2,t1
   12f66:	01d663b3          	or	t2,a2,t4
   12f6a:	00a4eeb3          	or	t4,s1,a0
   12f6e:	00e46fb3          	or	t6,s0,a4
   12f72:	0045c483          	lbu	s1,4(a1)
   12f76:	0055c403          	lbu	s0,5(a1)
   12f7a:	0065c603          	lbu	a2,6(a1)
   12f7e:	0075c503          	lbu	a0,7(a1)
   12f82:	06c2                	slli	a3,a3,0x10
   12f84:	07e2                	slli	a5,a5,0x18
   12f86:	0422                	slli	s0,s0,0x8
   12f88:	0642                	slli	a2,a2,0x10
   12f8a:	0562                	slli	a0,a0,0x18
   12f8c:	00d7e9b3          	or	s3,a5,a3
   12f90:	00946a33          	or	s4,s0,s1
   12f94:	0005c783          	lbu	a5,0(a1)
   12f98:	0015c483          	lbu	s1,1(a1)
   12f9c:	8d51                	or	a0,a0,a2
   12f9e:	0025c603          	lbu	a2,2(a1)
   12fa2:	0035c583          	lbu	a1,3(a1)
   12fa6:	04a2                	slli	s1,s1,0x8
   12fa8:	8fc5                	or	a5,a5,s1
   12faa:	0642                	slli	a2,a2,0x10
   12fac:	05e2                	slli	a1,a1,0x18
   12fae:	8dd1                	or	a1,a1,a2
   12fb0:	01c86633          	or	a2,a6,t3
   12fb4:	0112e4b3          	or	s1,t0,a7
   12fb8:	01e36733          	or	a4,t1,t5
   12fbc:	007ee6b3          	or	a3,t4,t2
   12fc0:	01f9e433          	or	s0,s3,t6
   12fc4:	01456533          	or	a0,a0,s4
   12fc8:	8ddd                	or	a1,a1,a5
   12fca:	ce3a                	sw	a4,28(sp)
   12fcc:	d026                	sw	s1,32(sp)
   12fce:	d232                	sw	a2,36(sp)
   12fd0:	c62e                	sw	a1,12(sp)
   12fd2:	c82a                	sw	a0,16(sp)
   12fd4:	ca22                	sw	s0,20(sp)
   12fd6:	cc36                	sw	a3,24(sp)
   12fd8:	02b10513          	addi	a0,sp,43
   12fdc:	05d00613          	li	a2,93
   12fe0:	4581                	li	a1,0
   12fe2:	00009097          	auipc	ra,0x9
   12fe6:	d06080e7          	jalr	-762(ra) # 1bce8 <memset>
   12fea:	6505                	lui	a0,0x1
   12fec:	45a1                	li	a1,8
   12fee:	0070                	addi	a2,sp,12
   12ff0:	46f1                	li	a3,28
   12ff2:	c3e50793          	addi	a5,a0,-962 # c3e <.Lline_table_start1+0xa13>
   12ff6:	4711                	li	a4,4
   12ff8:	4489                	li	s1,2
   12ffa:	853e                	mv	a0,a5
   12ffc:	00000073          	ecall
   13000:	02950b63          	beq	a0,s1,13036 <_ZN18complex_no_dynamic3app17h3bdc9e4b0a84085dE+0x162>
   13004:	4595                	li	a1,5
   13006:	02b10613          	addi	a2,sp,43
   1300a:	05d00693          	li	a3,93
   1300e:	470d                	li	a4,3
   13010:	853e                	mv	a0,a5
   13012:	00000073          	ecall
   13016:	02950063          	beq	a0,s1,13036 <_ZN18complex_no_dynamic3app17h3bdc9e4b0a84085dE+0x162>
   1301a:	6505                	lui	a0,0x1
   1301c:	45a1                	li	a1,8
   1301e:	4615                	li	a2,5
   13020:	c3e50493          	addi	s1,a0,-962 # c3e <.Lline_table_start1+0xa13>
   13024:	4709                	li	a4,2
   13026:	07f00413          	li	s0,127
   1302a:	8526                	mv	a0,s1
   1302c:	4681                	li	a3,0
   1302e:	00000073          	ecall
   13032:	02a46d63          	bltu	s0,a0,1306c <_ZN18complex_no_dynamic3app17h3bdc9e4b0a84085dE+0x198>
   13036:	853e                	mv	a0,a5
   13038:	4601                	li	a2,0
   1303a:	4681                	li	a3,0
   1303c:	4705                	li	a4,1
   1303e:	00e90023          	sb	a4,0(s2)
   13042:	00b92223          	sw	a1,4(s2)
   13046:	4595                	li	a1,5
   13048:	470d                	li	a4,3
   1304a:	00000073          	ecall
   1304e:	45a1                	li	a1,8
   13050:	4711                	li	a4,4
   13052:	853e                	mv	a0,a5
   13054:	4601                	li	a2,0
   13056:	4681                	li	a3,0
   13058:	00000073          	ecall
   1305c:	40fa                	lw	ra,156(sp)
   1305e:	446a                	lw	s0,152(sp)
   13060:	44da                	lw	s1,148(sp)
   13062:	494a                	lw	s2,144(sp)
   13064:	49ba                	lw	s3,140(sp)
   13066:	4a2a                	lw	s4,136(sp)
   13068:	610d                	addi	sp,sp,160
   1306a:	8082                	ret
   1306c:	8526                	mv	a0,s1
   1306e:	4601                	li	a2,0
   13070:	4681                	li	a3,0
   13072:	4595                	li	a1,5
   13074:	470d                	li	a4,3
   13076:	00000073          	ecall
   1307a:	4595                	li	a1,5
   1307c:	470d                	li	a4,3
   1307e:	8526                	mv	a0,s1
   13080:	4601                	li	a2,0
   13082:	4681                	li	a3,0
   13084:	00000073          	ecall
   13088:	00190513          	addi	a0,s2,1
   1308c:	02b10593          	addi	a1,sp,43
   13090:	05d00613          	li	a2,93
   13094:	00009097          	auipc	ra,0x9
   13098:	cc0080e7          	jalr	-832(ra) # 1bd54 <memcpy>
   1309c:	8526                	mv	a0,s1
   1309e:	4601                	li	a2,0
   130a0:	4681                	li	a3,0
   130a2:	00090023          	sb	zero,0(s2)
   130a6:	4595                	li	a1,5
   130a8:	470d                	li	a4,3
   130aa:	00000073          	ecall
   130ae:	45a1                	li	a1,8
   130b0:	4711                	li	a4,4
   130b2:	8526                	mv	a0,s1
   130b4:	4601                	li	a2,0
   130b6:	4681                	li	a3,0
   130b8:	00000073          	ecall
   130bc:	b745                	j	1305c <_ZN18complex_no_dynamic3app17h3bdc9e4b0a84085dE+0x188>

000130be <_ZN18complex_no_dynamic3app17h3ff0d6f7a35d76f2E>:
   130be:	7135                	addi	sp,sp,-160
   130c0:	cf06                	sw	ra,156(sp)
   130c2:	cd22                	sw	s0,152(sp)
   130c4:	cb26                	sw	s1,148(sp)
   130c6:	842a                	mv	s0,a0
   130c8:	00d10513          	addi	a0,sp,13
   130cc:	05500613          	li	a2,85
   130d0:	00009097          	auipc	ra,0x9
   130d4:	c84080e7          	jalr	-892(ra) # 1bd54 <memcpy>
   130d8:	06210513          	addi	a0,sp,98
   130dc:	03200613          	li	a2,50
   130e0:	4581                	li	a1,0
   130e2:	00009097          	auipc	ra,0x9
   130e6:	c06080e7          	jalr	-1018(ra) # 1bce8 <memset>
   130ea:	6509                	lui	a0,0x2
   130ec:	45a1                	li	a1,8
   130ee:	00d10613          	addi	a2,sp,13
   130f2:	05500693          	li	a3,85
   130f6:	09550793          	addi	a5,a0,149 # 2095 <.Lline_table_start1+0x1e6a>
   130fa:	4711                	li	a4,4
   130fc:	4489                	li	s1,2
   130fe:	853e                	mv	a0,a5
   13100:	00000073          	ecall
   13104:	02950b63          	beq	a0,s1,1313a <_ZN18complex_no_dynamic3app17h3ff0d6f7a35d76f2E+0x7c>
   13108:	45a1                	li	a1,8
   1310a:	06210613          	addi	a2,sp,98
   1310e:	03200693          	li	a3,50
   13112:	470d                	li	a4,3
   13114:	853e                	mv	a0,a5
   13116:	00000073          	ecall
   1311a:	02950063          	beq	a0,s1,1313a <_ZN18complex_no_dynamic3app17h3ff0d6f7a35d76f2E+0x7c>
   1311e:	6509                	lui	a0,0x2
   13120:	45a1                	li	a1,8
   13122:	4621                	li	a2,8
   13124:	09550493          	addi	s1,a0,149 # 2095 <.Lline_table_start1+0x1e6a>
   13128:	4709                	li	a4,2
   1312a:	07f00813          	li	a6,127
   1312e:	8526                	mv	a0,s1
   13130:	4681                	li	a3,0
   13132:	00000073          	ecall
   13136:	02a86963          	bltu	a6,a0,13168 <_ZN18complex_no_dynamic3app17h3ff0d6f7a35d76f2E+0xaa>
   1313a:	853e                	mv	a0,a5
   1313c:	4601                	li	a2,0
   1313e:	4681                	li	a3,0
   13140:	4705                	li	a4,1
   13142:	00e40023          	sb	a4,0(s0)
   13146:	c04c                	sw	a1,4(s0)
   13148:	45a1                	li	a1,8
   1314a:	470d                	li	a4,3
   1314c:	00000073          	ecall
   13150:	45a1                	li	a1,8
   13152:	4711                	li	a4,4
   13154:	853e                	mv	a0,a5
   13156:	4601                	li	a2,0
   13158:	4681                	li	a3,0
   1315a:	00000073          	ecall
   1315e:	40fa                	lw	ra,156(sp)
   13160:	446a                	lw	s0,152(sp)
   13162:	44da                	lw	s1,148(sp)
   13164:	610d                	addi	sp,sp,160
   13166:	8082                	ret
   13168:	8526                	mv	a0,s1
   1316a:	4601                	li	a2,0
   1316c:	4681                	li	a3,0
   1316e:	45a1                	li	a1,8
   13170:	470d                	li	a4,3
   13172:	00000073          	ecall
   13176:	45a1                	li	a1,8
   13178:	470d                	li	a4,3
   1317a:	8526                	mv	a0,s1
   1317c:	4601                	li	a2,0
   1317e:	4681                	li	a3,0
   13180:	00000073          	ecall
   13184:	00140513          	addi	a0,s0,1
   13188:	06210593          	addi	a1,sp,98
   1318c:	03200613          	li	a2,50
   13190:	00009097          	auipc	ra,0x9
   13194:	bc4080e7          	jalr	-1084(ra) # 1bd54 <memcpy>
   13198:	8526                	mv	a0,s1
   1319a:	4601                	li	a2,0
   1319c:	4681                	li	a3,0
   1319e:	00040023          	sb	zero,0(s0)
   131a2:	45a1                	li	a1,8
   131a4:	470d                	li	a4,3
   131a6:	00000073          	ecall
   131aa:	45a1                	li	a1,8
   131ac:	4711                	li	a4,4
   131ae:	8526                	mv	a0,s1
   131b0:	4601                	li	a2,0
   131b2:	4681                	li	a3,0
   131b4:	00000073          	ecall
   131b8:	40fa                	lw	ra,156(sp)
   131ba:	446a                	lw	s0,152(sp)
   131bc:	44da                	lw	s1,148(sp)
   131be:	610d                	addi	sp,sp,160
   131c0:	8082                	ret

000131c2 <_ZN18complex_no_dynamic3app17h416ae4034d6a8c48E>:
   131c2:	7171                	addi	sp,sp,-176
   131c4:	d706                	sw	ra,172(sp)
   131c6:	d522                	sw	s0,168(sp)
   131c8:	d326                	sw	s1,164(sp)
   131ca:	842a                	mv	s0,a0
   131cc:	0048                	addi	a0,sp,4
   131ce:	05100613          	li	a2,81
   131d2:	00009097          	auipc	ra,0x9
   131d6:	b82080e7          	jalr	-1150(ra) # 1bd54 <memcpy>
   131da:	05510513          	addi	a0,sp,85
   131de:	04f00613          	li	a2,79
   131e2:	4581                	li	a1,0
   131e4:	00009097          	auipc	ra,0x9
   131e8:	b04080e7          	jalr	-1276(ra) # 1bce8 <memset>
   131ec:	6509                	lui	a0,0x2
   131ee:	4591                	li	a1,4
   131f0:	0050                	addi	a2,sp,4
   131f2:	05100693          	li	a3,81
   131f6:	0ee50793          	addi	a5,a0,238 # 20ee <.Lline_table_start1+0x1ec3>
   131fa:	4711                	li	a4,4
   131fc:	4489                	li	s1,2
   131fe:	853e                	mv	a0,a5
   13200:	00000073          	ecall
   13204:	02950b63          	beq	a0,s1,1323a <_ZN18complex_no_dynamic3app17h416ae4034d6a8c48E+0x78>
   13208:	45a5                	li	a1,9
   1320a:	05510613          	addi	a2,sp,85
   1320e:	04f00693          	li	a3,79
   13212:	470d                	li	a4,3
   13214:	853e                	mv	a0,a5
   13216:	00000073          	ecall
   1321a:	02950063          	beq	a0,s1,1323a <_ZN18complex_no_dynamic3app17h416ae4034d6a8c48E+0x78>
   1321e:	6509                	lui	a0,0x2
   13220:	4591                	li	a1,4
   13222:	4625                	li	a2,9
   13224:	0ee50493          	addi	s1,a0,238 # 20ee <.Lline_table_start1+0x1ec3>
   13228:	4709                	li	a4,2
   1322a:	07f00813          	li	a6,127
   1322e:	8526                	mv	a0,s1
   13230:	4681                	li	a3,0
   13232:	00000073          	ecall
   13236:	02a86963          	bltu	a6,a0,13268 <_ZN18complex_no_dynamic3app17h416ae4034d6a8c48E+0xa6>
   1323a:	853e                	mv	a0,a5
   1323c:	4601                	li	a2,0
   1323e:	4681                	li	a3,0
   13240:	4705                	li	a4,1
   13242:	00e40023          	sb	a4,0(s0)
   13246:	c04c                	sw	a1,4(s0)
   13248:	45a5                	li	a1,9
   1324a:	470d                	li	a4,3
   1324c:	00000073          	ecall
   13250:	4591                	li	a1,4
   13252:	4711                	li	a4,4
   13254:	853e                	mv	a0,a5
   13256:	4601                	li	a2,0
   13258:	4681                	li	a3,0
   1325a:	00000073          	ecall
   1325e:	50ba                	lw	ra,172(sp)
   13260:	542a                	lw	s0,168(sp)
   13262:	549a                	lw	s1,164(sp)
   13264:	614d                	addi	sp,sp,176
   13266:	8082                	ret
   13268:	8526                	mv	a0,s1
   1326a:	4601                	li	a2,0
   1326c:	4681                	li	a3,0
   1326e:	45a5                	li	a1,9
   13270:	470d                	li	a4,3
   13272:	00000073          	ecall
   13276:	45a5                	li	a1,9
   13278:	470d                	li	a4,3
   1327a:	8526                	mv	a0,s1
   1327c:	4601                	li	a2,0
   1327e:	4681                	li	a3,0
   13280:	00000073          	ecall
   13284:	00140513          	addi	a0,s0,1
   13288:	05510593          	addi	a1,sp,85
   1328c:	04f00613          	li	a2,79
   13290:	00009097          	auipc	ra,0x9
   13294:	ac4080e7          	jalr	-1340(ra) # 1bd54 <memcpy>
   13298:	8526                	mv	a0,s1
   1329a:	4601                	li	a2,0
   1329c:	4681                	li	a3,0
   1329e:	00040023          	sb	zero,0(s0)
   132a2:	45a5                	li	a1,9
   132a4:	470d                	li	a4,3
   132a6:	00000073          	ecall
   132aa:	4591                	li	a1,4
   132ac:	4711                	li	a4,4
   132ae:	8526                	mv	a0,s1
   132b0:	4601                	li	a2,0
   132b2:	4681                	li	a3,0
   132b4:	00000073          	ecall
   132b8:	50ba                	lw	ra,172(sp)
   132ba:	542a                	lw	s0,168(sp)
   132bc:	549a                	lw	s1,164(sp)
   132be:	614d                	addi	sp,sp,176
   132c0:	8082                	ret

000132c2 <_ZN18complex_no_dynamic3app17h41d8c54bcb057ef5E>:
   132c2:	7119                	addi	sp,sp,-128
   132c4:	de86                	sw	ra,124(sp)
   132c6:	dca2                	sw	s0,120(sp)
   132c8:	daa6                	sw	s1,116(sp)
   132ca:	842a                	mv	s0,a0
   132cc:	00310513          	addi	a0,sp,3
   132d0:	05d00613          	li	a2,93
   132d4:	00009097          	auipc	ra,0x9
   132d8:	a80080e7          	jalr	-1408(ra) # 1bd54 <memcpy>
   132dc:	06011823          	sh	zero,112(sp)
   132e0:	d082                	sw	zero,96(sp)
   132e2:	d282                	sw	zero,100(sp)
   132e4:	d482                	sw	zero,104(sp)
   132e6:	d682                	sw	zero,108(sp)
   132e8:	6505                	lui	a0,0x1
   132ea:	00310613          	addi	a2,sp,3
   132ee:	05d00693          	li	a3,93
   132f2:	5f150793          	addi	a5,a0,1521 # 15f1 <.Lline_table_start1+0x13c6>
   132f6:	4711                	li	a4,4
   132f8:	4489                	li	s1,2
   132fa:	853e                	mv	a0,a5
   132fc:	4581                	li	a1,0
   132fe:	00000073          	ecall
   13302:	02950963          	beq	a0,s1,13334 <_ZN18complex_no_dynamic3app17h41d8c54bcb057ef5E+0x72>
   13306:	4589                	li	a1,2
   13308:	1090                	addi	a2,sp,96
   1330a:	46c9                	li	a3,18
   1330c:	470d                	li	a4,3
   1330e:	853e                	mv	a0,a5
   13310:	00000073          	ecall
   13314:	02950063          	beq	a0,s1,13334 <_ZN18complex_no_dynamic3app17h41d8c54bcb057ef5E+0x72>
   13318:	6505                	lui	a0,0x1
   1331a:	4609                	li	a2,2
   1331c:	5f150493          	addi	s1,a0,1521 # 15f1 <.Lline_table_start1+0x13c6>
   13320:	4709                	li	a4,2
   13322:	07f00813          	li	a6,127
   13326:	8526                	mv	a0,s1
   13328:	4581                	li	a1,0
   1332a:	4681                	li	a3,0
   1332c:	00000073          	ecall
   13330:	02a86a63          	bltu	a6,a0,13364 <_ZN18complex_no_dynamic3app17h41d8c54bcb057ef5E+0xa2>
   13334:	862e                	mv	a2,a1
   13336:	4505                	li	a0,1
   13338:	4589                	li	a1,2
   1333a:	00a40023          	sb	a0,0(s0)
   1333e:	c050                	sw	a2,4(s0)
   13340:	470d                	li	a4,3
   13342:	853e                	mv	a0,a5
   13344:	4601                	li	a2,0
   13346:	4681                	li	a3,0
   13348:	00000073          	ecall
   1334c:	4711                	li	a4,4
   1334e:	853e                	mv	a0,a5
   13350:	4581                	li	a1,0
   13352:	4601                	li	a2,0
   13354:	4681                	li	a3,0
   13356:	00000073          	ecall
   1335a:	50f6                	lw	ra,124(sp)
   1335c:	5466                	lw	s0,120(sp)
   1335e:	54d6                	lw	s1,116(sp)
   13360:	6109                	addi	sp,sp,128
   13362:	8082                	ret
   13364:	8526                	mv	a0,s1
   13366:	4601                	li	a2,0
   13368:	4681                	li	a3,0
   1336a:	4589                	li	a1,2
   1336c:	470d                	li	a4,3
   1336e:	00000073          	ecall
   13372:	4589                	li	a1,2
   13374:	470d                	li	a4,3
   13376:	8526                	mv	a0,s1
   13378:	4601                	li	a2,0
   1337a:	4681                	li	a3,0
   1337c:	00000073          	ecall
   13380:	00140513          	addi	a0,s0,1
   13384:	108c                	addi	a1,sp,96
   13386:	4649                	li	a2,18
   13388:	00009097          	auipc	ra,0x9
   1338c:	9cc080e7          	jalr	-1588(ra) # 1bd54 <memcpy>
   13390:	00040023          	sb	zero,0(s0)
   13394:	4589                	li	a1,2
   13396:	470d                	li	a4,3
   13398:	8526                	mv	a0,s1
   1339a:	4601                	li	a2,0
   1339c:	4681                	li	a3,0
   1339e:	00000073          	ecall
   133a2:	4711                	li	a4,4
   133a4:	8526                	mv	a0,s1
   133a6:	4581                	li	a1,0
   133a8:	4601                	li	a2,0
   133aa:	4681                	li	a3,0
   133ac:	00000073          	ecall
   133b0:	50f6                	lw	ra,124(sp)
   133b2:	5466                	lw	s0,120(sp)
   133b4:	54d6                	lw	s1,116(sp)
   133b6:	6109                	addi	sp,sp,128
   133b8:	8082                	ret

000133ba <_ZN18complex_no_dynamic3app17h421cb4e871388735E>:
   133ba:	715d                	addi	sp,sp,-80
   133bc:	c686                	sw	ra,76(sp)
   133be:	c4a2                	sw	s0,72(sp)
   133c0:	c2a6                	sw	s1,68(sp)
   133c2:	842a                	mv	s0,a0
   133c4:	00210513          	addi	a0,sp,2
   133c8:	03200613          	li	a2,50
   133cc:	00009097          	auipc	ra,0x9
   133d0:	988080e7          	jalr	-1656(ra) # 1bd54 <memcpy>
   133d4:	da02                	sw	zero,52(sp)
   133d6:	dc02                	sw	zero,56(sp)
   133d8:	de02                	sw	zero,60(sp)
   133da:	c082                	sw	zero,64(sp)
   133dc:	6509                	lui	a0,0x2
   133de:	4591                	li	a1,4
   133e0:	00210613          	addi	a2,sp,2
   133e4:	03200693          	li	a3,50
   133e8:	9d650793          	addi	a5,a0,-1578 # 19d6 <.Lline_table_start1+0x17ab>
   133ec:	4711                	li	a4,4
   133ee:	4489                	li	s1,2
   133f0:	853e                	mv	a0,a5
   133f2:	00000073          	ecall
   133f6:	02950963          	beq	a0,s1,13428 <_ZN18complex_no_dynamic3app17h421cb4e871388735E+0x6e>
   133fa:	45a5                	li	a1,9
   133fc:	1850                	addi	a2,sp,52
   133fe:	46c1                	li	a3,16
   13400:	470d                	li	a4,3
   13402:	853e                	mv	a0,a5
   13404:	00000073          	ecall
   13408:	02950063          	beq	a0,s1,13428 <_ZN18complex_no_dynamic3app17h421cb4e871388735E+0x6e>
   1340c:	6509                	lui	a0,0x2
   1340e:	4591                	li	a1,4
   13410:	4625                	li	a2,9
   13412:	9d650493          	addi	s1,a0,-1578 # 19d6 <.Lline_table_start1+0x17ab>
   13416:	4709                	li	a4,2
   13418:	07f00813          	li	a6,127
   1341c:	8526                	mv	a0,s1
   1341e:	4681                	li	a3,0
   13420:	00000073          	ecall
   13424:	02a86963          	bltu	a6,a0,13456 <_ZN18complex_no_dynamic3app17h421cb4e871388735E+0x9c>
   13428:	853e                	mv	a0,a5
   1342a:	4601                	li	a2,0
   1342c:	4681                	li	a3,0
   1342e:	4705                	li	a4,1
   13430:	00e40023          	sb	a4,0(s0)
   13434:	c04c                	sw	a1,4(s0)
   13436:	45a5                	li	a1,9
   13438:	470d                	li	a4,3
   1343a:	00000073          	ecall
   1343e:	4591                	li	a1,4
   13440:	4711                	li	a4,4
   13442:	853e                	mv	a0,a5
   13444:	4601                	li	a2,0
   13446:	4681                	li	a3,0
   13448:	00000073          	ecall
   1344c:	40b6                	lw	ra,76(sp)
   1344e:	4426                	lw	s0,72(sp)
   13450:	4496                	lw	s1,68(sp)
   13452:	6161                	addi	sp,sp,80
   13454:	8082                	ret
   13456:	8526                	mv	a0,s1
   13458:	4601                	li	a2,0
   1345a:	4681                	li	a3,0
   1345c:	45a5                	li	a1,9
   1345e:	470d                	li	a4,3
   13460:	00000073          	ecall
   13464:	45a5                	li	a1,9
   13466:	470d                	li	a4,3
   13468:	8526                	mv	a0,s1
   1346a:	4601                	li	a2,0
   1346c:	4681                	li	a3,0
   1346e:	00000073          	ecall
   13472:	00140513          	addi	a0,s0,1
   13476:	184c                	addi	a1,sp,52
   13478:	4641                	li	a2,16
   1347a:	00009097          	auipc	ra,0x9
   1347e:	8da080e7          	jalr	-1830(ra) # 1bd54 <memcpy>
   13482:	8526                	mv	a0,s1
   13484:	4601                	li	a2,0
   13486:	4681                	li	a3,0
   13488:	00040023          	sb	zero,0(s0)
   1348c:	45a5                	li	a1,9
   1348e:	470d                	li	a4,3
   13490:	00000073          	ecall
   13494:	4591                	li	a1,4
   13496:	4711                	li	a4,4
   13498:	8526                	mv	a0,s1
   1349a:	4601                	li	a2,0
   1349c:	4681                	li	a3,0
   1349e:	00000073          	ecall
   134a2:	40b6                	lw	ra,76(sp)
   134a4:	4426                	lw	s0,72(sp)
   134a6:	4496                	lw	s1,68(sp)
   134a8:	6161                	addi	sp,sp,80
   134aa:	8082                	ret

000134ac <_ZN18complex_no_dynamic3app17h428566e17e8c047fE>:
   134ac:	715d                	addi	sp,sp,-80
   134ae:	c686                	sw	ra,76(sp)
   134b0:	c4a2                	sw	s0,72(sp)
   134b2:	c2a6                	sw	s1,68(sp)
   134b4:	c0ca                	sw	s2,64(sp)
   134b6:	de4e                	sw	s3,60(sp)
   134b8:	892a                	mv	s2,a0
   134ba:	0185c803          	lbu	a6,24(a1)
   134be:	0195c383          	lbu	t2,25(a1)
   134c2:	0145c883          	lbu	a7,20(a1)
   134c6:	0155ce83          	lbu	t4,21(a1)
   134ca:	0165c783          	lbu	a5,22(a1)
   134ce:	0175c483          	lbu	s1,23(a1)
   134d2:	0105c403          	lbu	s0,16(a1)
   134d6:	0115c503          	lbu	a0,17(a1)
   134da:	0125c283          	lbu	t0,18(a1)
   134de:	0135ce03          	lbu	t3,19(a1)
   134e2:	00c5c303          	lbu	t1,12(a1)
   134e6:	00d5cf03          	lbu	t5,13(a1)
   134ea:	00e5c683          	lbu	a3,14(a1)
   134ee:	00f5c703          	lbu	a4,15(a1)
   134f2:	03a2                	slli	t2,t2,0x8
   134f4:	0ea2                	slli	t4,t4,0x8
   134f6:	01079613          	slli	a2,a5,0x10
   134fa:	01849793          	slli	a5,s1,0x18
   134fe:	0522                	slli	a0,a0,0x8
   13500:	0103e833          	or	a6,t2,a6
   13504:	011ee8b3          	or	a7,t4,a7
   13508:	00c7e3b3          	or	t2,a5,a2
   1350c:	00856eb3          	or	t4,a0,s0
   13510:	0085c503          	lbu	a0,8(a1)
   13514:	0095c603          	lbu	a2,9(a1)
   13518:	00a5c483          	lbu	s1,10(a1)
   1351c:	00b5c783          	lbu	a5,11(a1)
   13520:	02c2                	slli	t0,t0,0x10
   13522:	0e62                	slli	t3,t3,0x18
   13524:	0f22                	slli	t5,t5,0x8
   13526:	06c2                	slli	a3,a3,0x10
   13528:	0762                	slli	a4,a4,0x18
   1352a:	0622                	slli	a2,a2,0x8
   1352c:	005e6433          	or	s0,t3,t0
   13530:	006f62b3          	or	t0,t5,t1
   13534:	00d76e33          	or	t3,a4,a3
   13538:	00a66333          	or	t1,a2,a0
   1353c:	0045c603          	lbu	a2,4(a1)
   13540:	0055c703          	lbu	a4,5(a1)
   13544:	0065c503          	lbu	a0,6(a1)
   13548:	0075c683          	lbu	a3,7(a1)
   1354c:	04c2                	slli	s1,s1,0x10
   1354e:	07e2                	slli	a5,a5,0x18
   13550:	0722                	slli	a4,a4,0x8
   13552:	0542                	slli	a0,a0,0x10
   13554:	06e2                	slli	a3,a3,0x18
   13556:	0097efb3          	or	t6,a5,s1
   1355a:	00c76f33          	or	t5,a4,a2
   1355e:	0005c703          	lbu	a4,0(a1)
   13562:	0015c483          	lbu	s1,1(a1)
   13566:	00a6e633          	or	a2,a3,a0
   1356a:	0025c683          	lbu	a3,2(a1)
   1356e:	0035c583          	lbu	a1,3(a1)
   13572:	04a2                	slli	s1,s1,0x8
   13574:	00e4e9b3          	or	s3,s1,a4
   13578:	06c2                	slli	a3,a3,0x10
   1357a:	05e2                	slli	a1,a1,0x18
   1357c:	8ecd                	or	a3,a3,a1
   1357e:	0113e3b3          	or	t2,t2,a7
   13582:	01d46733          	or	a4,s0,t4
   13586:	d802                	sw	zero,48(sp)
   13588:	da02                	sw	zero,52(sp)
   1358a:	02011c23          	sh	zero,56(sp)
   1358e:	02010d23          	sb	zero,58(sp)
   13592:	d002                	sw	zero,32(sp)
   13594:	d202                	sw	zero,36(sp)
   13596:	d402                	sw	zero,40(sp)
   13598:	d602                	sw	zero,44(sp)
   1359a:	005e6533          	or	a0,t3,t0
   1359e:	6889                	lui	a7,0x2
   135a0:	006fe4b3          	or	s1,t6,t1
   135a4:	4595                	li	a1,5
   135a6:	01e66433          	or	s0,a2,t5
   135aa:	0050                	addi	a2,sp,4
   135ac:	0136e7b3          	or	a5,a3,s3
   135b0:	46e9                	li	a3,26
   135b2:	ca3a                	sw	a4,20(sp)
   135b4:	cc1e                	sw	t2,24(sp)
   135b6:	01011e23          	sh	a6,28(sp)
   135ba:	4711                	li	a4,4
   135bc:	cce88813          	addi	a6,a7,-818 # 1cce <.Lline_table_start1+0x1aa3>
   135c0:	c23e                	sw	a5,4(sp)
   135c2:	c422                	sw	s0,8(sp)
   135c4:	c626                	sw	s1,12(sp)
   135c6:	c82a                	sw	a0,16(sp)
   135c8:	4489                	li	s1,2
   135ca:	8542                	mv	a0,a6
   135cc:	00000073          	ecall
   135d0:	02950963          	beq	a0,s1,13602 <_ZN18complex_no_dynamic3app17h428566e17e8c047fE+0x156>
   135d4:	4589                	li	a1,2
   135d6:	1010                	addi	a2,sp,32
   135d8:	46ed                	li	a3,27
   135da:	470d                	li	a4,3
   135dc:	8542                	mv	a0,a6
   135de:	00000073          	ecall
   135e2:	02950063          	beq	a0,s1,13602 <_ZN18complex_no_dynamic3app17h428566e17e8c047fE+0x156>
   135e6:	6509                	lui	a0,0x2
   135e8:	4595                	li	a1,5
   135ea:	4609                	li	a2,2
   135ec:	cce50493          	addi	s1,a0,-818 # 1cce <.Lline_table_start1+0x1aa3>
   135f0:	4709                	li	a4,2
   135f2:	07f00793          	li	a5,127
   135f6:	8526                	mv	a0,s1
   135f8:	4681                	li	a3,0
   135fa:	00000073          	ecall
   135fe:	02a7ec63          	bltu	a5,a0,13636 <_ZN18complex_no_dynamic3app17h428566e17e8c047fE+0x18a>
   13602:	8542                	mv	a0,a6
   13604:	4601                	li	a2,0
   13606:	4681                	li	a3,0
   13608:	4705                	li	a4,1
   1360a:	00e90023          	sb	a4,0(s2)
   1360e:	00b92223          	sw	a1,4(s2)
   13612:	4589                	li	a1,2
   13614:	470d                	li	a4,3
   13616:	00000073          	ecall
   1361a:	4595                	li	a1,5
   1361c:	4711                	li	a4,4
   1361e:	8542                	mv	a0,a6
   13620:	4601                	li	a2,0
   13622:	4681                	li	a3,0
   13624:	00000073          	ecall
   13628:	40b6                	lw	ra,76(sp)
   1362a:	4426                	lw	s0,72(sp)
   1362c:	4496                	lw	s1,68(sp)
   1362e:	4906                	lw	s2,64(sp)
   13630:	59f2                	lw	s3,60(sp)
   13632:	6161                	addi	sp,sp,80
   13634:	8082                	ret
   13636:	8526                	mv	a0,s1
   13638:	4601                	li	a2,0
   1363a:	4681                	li	a3,0
   1363c:	4589                	li	a1,2
   1363e:	470d                	li	a4,3
   13640:	00000073          	ecall
   13644:	4589                	li	a1,2
   13646:	470d                	li	a4,3
   13648:	8526                	mv	a0,s1
   1364a:	4601                	li	a2,0
   1364c:	4681                	li	a3,0
   1364e:	00000073          	ecall
   13652:	00190513          	addi	a0,s2,1
   13656:	100c                	addi	a1,sp,32
   13658:	466d                	li	a2,27
   1365a:	00008097          	auipc	ra,0x8
   1365e:	6fa080e7          	jalr	1786(ra) # 1bd54 <memcpy>
   13662:	8526                	mv	a0,s1
   13664:	4601                	li	a2,0
   13666:	4681                	li	a3,0
   13668:	00090023          	sb	zero,0(s2)
   1366c:	4589                	li	a1,2
   1366e:	470d                	li	a4,3
   13670:	00000073          	ecall
   13674:	4595                	li	a1,5
   13676:	4711                	li	a4,4
   13678:	8526                	mv	a0,s1
   1367a:	4601                	li	a2,0
   1367c:	4681                	li	a3,0
   1367e:	00000073          	ecall
   13682:	b75d                	j	13628 <_ZN18complex_no_dynamic3app17h428566e17e8c047fE+0x17c>

00013684 <_ZN18complex_no_dynamic3app17h42b6757196b3fa85E>:
   13684:	7171                	addi	sp,sp,-176
   13686:	d706                	sw	ra,172(sp)
   13688:	d522                	sw	s0,168(sp)
   1368a:	d326                	sw	s1,164(sp)
   1368c:	842a                	mv	s0,a0
   1368e:	00d10513          	addi	a0,sp,13
   13692:	03a00613          	li	a2,58
   13696:	00008097          	auipc	ra,0x8
   1369a:	6be080e7          	jalr	1726(ra) # 1bd54 <memcpy>
   1369e:	04710513          	addi	a0,sp,71
   136a2:	05d00613          	li	a2,93
   136a6:	4581                	li	a1,0
   136a8:	00008097          	auipc	ra,0x8
   136ac:	640080e7          	jalr	1600(ra) # 1bce8 <memset>
   136b0:	6505                	lui	a0,0x1
   136b2:	00d10613          	addi	a2,sp,13
   136b6:	03a00693          	li	a3,58
   136ba:	4a450793          	addi	a5,a0,1188 # 14a4 <.Lline_table_start1+0x1279>
   136be:	4711                	li	a4,4
   136c0:	4489                	li	s1,2
   136c2:	853e                	mv	a0,a5
   136c4:	4581                	li	a1,0
   136c6:	00000073          	ecall
   136ca:	02950b63          	beq	a0,s1,13700 <_ZN18complex_no_dynamic3app17h42b6757196b3fa85E+0x7c>
   136ce:	4595                	li	a1,5
   136d0:	04710613          	addi	a2,sp,71
   136d4:	05d00693          	li	a3,93
   136d8:	470d                	li	a4,3
   136da:	853e                	mv	a0,a5
   136dc:	00000073          	ecall
   136e0:	02950063          	beq	a0,s1,13700 <_ZN18complex_no_dynamic3app17h42b6757196b3fa85E+0x7c>
   136e4:	6505                	lui	a0,0x1
   136e6:	4615                	li	a2,5
   136e8:	4a450493          	addi	s1,a0,1188 # 14a4 <.Lline_table_start1+0x1279>
   136ec:	4709                	li	a4,2
   136ee:	07f00813          	li	a6,127
   136f2:	8526                	mv	a0,s1
   136f4:	4581                	li	a1,0
   136f6:	4681                	li	a3,0
   136f8:	00000073          	ecall
   136fc:	02a86a63          	bltu	a6,a0,13730 <_ZN18complex_no_dynamic3app17h42b6757196b3fa85E+0xac>
   13700:	862e                	mv	a2,a1
   13702:	4505                	li	a0,1
   13704:	4595                	li	a1,5
   13706:	00a40023          	sb	a0,0(s0)
   1370a:	c050                	sw	a2,4(s0)
   1370c:	470d                	li	a4,3
   1370e:	853e                	mv	a0,a5
   13710:	4601                	li	a2,0
   13712:	4681                	li	a3,0
   13714:	00000073          	ecall
   13718:	4711                	li	a4,4
   1371a:	853e                	mv	a0,a5
   1371c:	4581                	li	a1,0
   1371e:	4601                	li	a2,0
   13720:	4681                	li	a3,0
   13722:	00000073          	ecall
   13726:	50ba                	lw	ra,172(sp)
   13728:	542a                	lw	s0,168(sp)
   1372a:	549a                	lw	s1,164(sp)
   1372c:	614d                	addi	sp,sp,176
   1372e:	8082                	ret
   13730:	8526                	mv	a0,s1
   13732:	4601                	li	a2,0
   13734:	4681                	li	a3,0
   13736:	4595                	li	a1,5
   13738:	470d                	li	a4,3
   1373a:	00000073          	ecall
   1373e:	4595                	li	a1,5
   13740:	470d                	li	a4,3
   13742:	8526                	mv	a0,s1
   13744:	4601                	li	a2,0
   13746:	4681                	li	a3,0
   13748:	00000073          	ecall
   1374c:	00140513          	addi	a0,s0,1
   13750:	04710593          	addi	a1,sp,71
   13754:	05d00613          	li	a2,93
   13758:	00008097          	auipc	ra,0x8
   1375c:	5fc080e7          	jalr	1532(ra) # 1bd54 <memcpy>
   13760:	00040023          	sb	zero,0(s0)
   13764:	4595                	li	a1,5
   13766:	470d                	li	a4,3
   13768:	8526                	mv	a0,s1
   1376a:	4601                	li	a2,0
   1376c:	4681                	li	a3,0
   1376e:	00000073          	ecall
   13772:	4711                	li	a4,4
   13774:	8526                	mv	a0,s1
   13776:	4581                	li	a1,0
   13778:	4601                	li	a2,0
   1377a:	4681                	li	a3,0
   1377c:	00000073          	ecall
   13780:	50ba                	lw	ra,172(sp)
   13782:	542a                	lw	s0,168(sp)
   13784:	549a                	lw	s1,164(sp)
   13786:	614d                	addi	sp,sp,176
   13788:	8082                	ret

0001378a <_ZN18complex_no_dynamic3app17h46220ee49ba748f2E>:
   1378a:	7159                	addi	sp,sp,-112
   1378c:	d686                	sw	ra,108(sp)
   1378e:	d4a2                	sw	s0,104(sp)
   13790:	d2a6                	sw	s1,100(sp)
   13792:	d0ca                	sw	s2,96(sp)
   13794:	892a                	mv	s2,a0
   13796:	0105c803          	lbu	a6,16(a1)
   1379a:	0115c603          	lbu	a2,17(a1)
   1379e:	00c5c883          	lbu	a7,12(a1)
   137a2:	00d5c703          	lbu	a4,13(a1)
   137a6:	00e5c783          	lbu	a5,14(a1)
   137aa:	00f5c483          	lbu	s1,15(a1)
   137ae:	0085c403          	lbu	s0,8(a1)
   137b2:	0095c503          	lbu	a0,9(a1)
   137b6:	00a5c283          	lbu	t0,10(a1)
   137ba:	00b5c683          	lbu	a3,11(a1)
   137be:	0622                	slli	a2,a2,0x8
   137c0:	0722                	slli	a4,a4,0x8
   137c2:	07c2                	slli	a5,a5,0x10
   137c4:	04e2                	slli	s1,s1,0x18
   137c6:	0522                	slli	a0,a0,0x8
   137c8:	01066833          	or	a6,a2,a6
   137cc:	011768b3          	or	a7,a4,a7
   137d0:	8fc5                	or	a5,a5,s1
   137d2:	00856333          	or	t1,a0,s0
   137d6:	0045c483          	lbu	s1,4(a1)
   137da:	0055c403          	lbu	s0,5(a1)
   137de:	0065c603          	lbu	a2,6(a1)
   137e2:	0075c703          	lbu	a4,7(a1)
   137e6:	02c2                	slli	t0,t0,0x10
   137e8:	06e2                	slli	a3,a3,0x18
   137ea:	0422                	slli	s0,s0,0x8
   137ec:	0642                	slli	a2,a2,0x10
   137ee:	0762                	slli	a4,a4,0x18
   137f0:	0056e6b3          	or	a3,a3,t0
   137f4:	8c45                	or	s0,s0,s1
   137f6:	0005c483          	lbu	s1,0(a1)
   137fa:	0015c503          	lbu	a0,1(a1)
   137fe:	8e59                	or	a2,a2,a4
   13800:	0025c703          	lbu	a4,2(a1)
   13804:	0035c583          	lbu	a1,3(a1)
   13808:	0522                	slli	a0,a0,0x8
   1380a:	8d45                	or	a0,a0,s1
   1380c:	0742                	slli	a4,a4,0x10
   1380e:	05e2                	slli	a1,a1,0x18
   13810:	8dd9                	or	a1,a1,a4
   13812:	01011c23          	sh	a6,24(sp)
   13816:	0117e733          	or	a4,a5,a7
   1381a:	0066e6b3          	or	a3,a3,t1
   1381e:	8e41                	or	a2,a2,s0
   13820:	8d4d                	or	a0,a0,a1
   13822:	c42a                	sw	a0,8(sp)
   13824:	c632                	sw	a2,12(sp)
   13826:	c836                	sw	a3,16(sp)
   13828:	ca3a                	sw	a4,20(sp)
   1382a:	0868                	addi	a0,sp,28
   1382c:	04400613          	li	a2,68
   13830:	4581                	li	a1,0
   13832:	00008097          	auipc	ra,0x8
   13836:	4b6080e7          	jalr	1206(ra) # 1bce8 <memset>
   1383a:	6509                	lui	a0,0x2
   1383c:	4489                	li	s1,2
   1383e:	4589                	li	a1,2
   13840:	0030                	addi	a2,sp,8
   13842:	43250793          	addi	a5,a0,1074 # 2432 <.Lline_table_start1+0x2207>
   13846:	46c9                	li	a3,18
   13848:	4711                	li	a4,4
   1384a:	853e                	mv	a0,a5
   1384c:	00000073          	ecall
   13850:	02950a63          	beq	a0,s1,13884 <_ZN18complex_no_dynamic3app17h46220ee49ba748f2E+0xfa>
   13854:	45a5                	li	a1,9
   13856:	0870                	addi	a2,sp,28
   13858:	04400693          	li	a3,68
   1385c:	470d                	li	a4,3
   1385e:	853e                	mv	a0,a5
   13860:	00000073          	ecall
   13864:	02950063          	beq	a0,s1,13884 <_ZN18complex_no_dynamic3app17h46220ee49ba748f2E+0xfa>
   13868:	6509                	lui	a0,0x2
   1386a:	4589                	li	a1,2
   1386c:	4625                	li	a2,9
   1386e:	43250493          	addi	s1,a0,1074 # 2432 <.Lline_table_start1+0x2207>
   13872:	4709                	li	a4,2
   13874:	07f00413          	li	s0,127
   13878:	8526                	mv	a0,s1
   1387a:	4681                	li	a3,0
   1387c:	00000073          	ecall
   13880:	02a46b63          	bltu	s0,a0,138b6 <_ZN18complex_no_dynamic3app17h46220ee49ba748f2E+0x12c>
   13884:	853e                	mv	a0,a5
   13886:	4601                	li	a2,0
   13888:	4681                	li	a3,0
   1388a:	4705                	li	a4,1
   1388c:	00e90023          	sb	a4,0(s2)
   13890:	00b92223          	sw	a1,4(s2)
   13894:	45a5                	li	a1,9
   13896:	470d                	li	a4,3
   13898:	00000073          	ecall
   1389c:	4589                	li	a1,2
   1389e:	4711                	li	a4,4
   138a0:	853e                	mv	a0,a5
   138a2:	4601                	li	a2,0
   138a4:	4681                	li	a3,0
   138a6:	00000073          	ecall
   138aa:	50b6                	lw	ra,108(sp)
   138ac:	5426                	lw	s0,104(sp)
   138ae:	5496                	lw	s1,100(sp)
   138b0:	5906                	lw	s2,96(sp)
   138b2:	6165                	addi	sp,sp,112
   138b4:	8082                	ret
   138b6:	8526                	mv	a0,s1
   138b8:	4601                	li	a2,0
   138ba:	4681                	li	a3,0
   138bc:	45a5                	li	a1,9
   138be:	470d                	li	a4,3
   138c0:	00000073          	ecall
   138c4:	45a5                	li	a1,9
   138c6:	470d                	li	a4,3
   138c8:	8526                	mv	a0,s1
   138ca:	4601                	li	a2,0
   138cc:	4681                	li	a3,0
   138ce:	00000073          	ecall
   138d2:	00190513          	addi	a0,s2,1
   138d6:	086c                	addi	a1,sp,28
   138d8:	04400613          	li	a2,68
   138dc:	00008097          	auipc	ra,0x8
   138e0:	478080e7          	jalr	1144(ra) # 1bd54 <memcpy>
   138e4:	8526                	mv	a0,s1
   138e6:	4601                	li	a2,0
   138e8:	4681                	li	a3,0
   138ea:	00090023          	sb	zero,0(s2)
   138ee:	45a5                	li	a1,9
   138f0:	470d                	li	a4,3
   138f2:	00000073          	ecall
   138f6:	4589                	li	a1,2
   138f8:	4711                	li	a4,4
   138fa:	8526                	mv	a0,s1
   138fc:	4601                	li	a2,0
   138fe:	4681                	li	a3,0
   13900:	00000073          	ecall
   13904:	50b6                	lw	ra,108(sp)
   13906:	5426                	lw	s0,104(sp)
   13908:	5496                	lw	s1,100(sp)
   1390a:	5906                	lw	s2,96(sp)
   1390c:	6165                	addi	sp,sp,112
   1390e:	8082                	ret

00013910 <_ZN18complex_no_dynamic3app17h47ca065de2a0f58eE>:
   13910:	7159                	addi	sp,sp,-112
   13912:	d686                	sw	ra,108(sp)
   13914:	d4a2                	sw	s0,104(sp)
   13916:	d2a6                	sw	s1,100(sp)
   13918:	d0ca                	sw	s2,96(sp)
   1391a:	892a                	mv	s2,a0
   1391c:	0185c883          	lbu	a7,24(a1)
   13920:	0195c303          	lbu	t1,25(a1)
   13924:	01a5c803          	lbu	a6,26(a1)
   13928:	0145c283          	lbu	t0,20(a1)
   1392c:	0155cf03          	lbu	t5,21(a1)
   13930:	0165c403          	lbu	s0,22(a1)
   13934:	0175c483          	lbu	s1,23(a1)
   13938:	0105c703          	lbu	a4,16(a1)
   1393c:	0115c603          	lbu	a2,17(a1)
   13940:	0125ce03          	lbu	t3,18(a1)
   13944:	0135ce83          	lbu	t4,19(a1)
   13948:	00c5c383          	lbu	t2,12(a1)
   1394c:	00d5cf83          	lbu	t6,13(a1)
   13950:	00e5c683          	lbu	a3,14(a1)
   13954:	00f5c783          	lbu	a5,15(a1)
   13958:	0322                	slli	t1,t1,0x8
   1395a:	0f22                	slli	t5,t5,0x8
   1395c:	0442                	slli	s0,s0,0x10
   1395e:	04e2                	slli	s1,s1,0x18
   13960:	00861513          	slli	a0,a2,0x8
   13964:	011368b3          	or	a7,t1,a7
   13968:	005f62b3          	or	t0,t5,t0
   1396c:	0084ef33          	or	t5,s1,s0
   13970:	00e56333          	or	t1,a0,a4
   13974:	0085c703          	lbu	a4,8(a1)
   13978:	0095c403          	lbu	s0,9(a1)
   1397c:	00a5c603          	lbu	a2,10(a1)
   13980:	00b5c503          	lbu	a0,11(a1)
   13984:	0e42                	slli	t3,t3,0x10
   13986:	0ee2                	slli	t4,t4,0x18
   13988:	0fa2                	slli	t6,t6,0x8
   1398a:	06c2                	slli	a3,a3,0x10
   1398c:	07e2                	slli	a5,a5,0x18
   1398e:	0422                	slli	s0,s0,0x8
   13990:	01ceee33          	or	t3,t4,t3
   13994:	007fe3b3          	or	t2,t6,t2
   13998:	00d7eeb3          	or	t4,a5,a3
   1399c:	00e46fb3          	or	t6,s0,a4
   139a0:	0045c783          	lbu	a5,4(a1)
   139a4:	0055c403          	lbu	s0,5(a1)
   139a8:	0065c483          	lbu	s1,6(a1)
   139ac:	0075c683          	lbu	a3,7(a1)
   139b0:	0642                	slli	a2,a2,0x10
   139b2:	0562                	slli	a0,a0,0x18
   139b4:	0422                	slli	s0,s0,0x8
   139b6:	04c2                	slli	s1,s1,0x10
   139b8:	06e2                	slli	a3,a3,0x18
   139ba:	8d51                	or	a0,a0,a2
   139bc:	8fc1                	or	a5,a5,s0
   139be:	0005c603          	lbu	a2,0(a1)
   139c2:	0015c403          	lbu	s0,1(a1)
   139c6:	8ec5                	or	a3,a3,s1
   139c8:	0025c483          	lbu	s1,2(a1)
   139cc:	0035c583          	lbu	a1,3(a1)
   139d0:	0422                	slli	s0,s0,0x8
   139d2:	8e41                	or	a2,a2,s0
   139d4:	04c2                	slli	s1,s1,0x10
   139d6:	05e2                	slli	a1,a1,0x18
   139d8:	8dc5                	or	a1,a1,s1
   139da:	005f64b3          	or	s1,t5,t0
   139de:	006e6433          	or	s0,t3,t1
   139e2:	007ee733          	or	a4,t4,t2
   139e6:	01f56533          	or	a0,a0,t6
   139ea:	8edd                	or	a3,a3,a5
   139ec:	8dd1                	or	a1,a1,a2
   139ee:	ca22                	sw	s0,20(sp)
   139f0:	cc26                	sw	s1,24(sp)
   139f2:	01111e23          	sh	a7,28(sp)
   139f6:	01010f23          	sb	a6,30(sp)
   139fa:	c22e                	sw	a1,4(sp)
   139fc:	c436                	sw	a3,8(sp)
   139fe:	c62a                	sw	a0,12(sp)
   13a00:	c83a                	sw	a4,16(sp)
   13a02:	01f10513          	addi	a0,sp,31
   13a06:	04100613          	li	a2,65
   13a0a:	4581                	li	a1,0
   13a0c:	00008097          	auipc	ra,0x8
   13a10:	2dc080e7          	jalr	732(ra) # 1bce8 <memset>
   13a14:	14000513          	li	a0,320
   13a18:	45a1                	li	a1,8
   13a1a:	0050                	addi	a2,sp,4
   13a1c:	46ed                	li	a3,27
   13a1e:	4711                	li	a4,4
   13a20:	4789                	li	a5,2
   13a22:	00000073          	ecall
   13a26:	02f50a63          	beq	a0,a5,13a5a <_ZN18complex_no_dynamic3app17h47ca065de2a0f58eE+0x14a>
   13a2a:	14000513          	li	a0,320
   13a2e:	45a5                	li	a1,9
   13a30:	01f10613          	addi	a2,sp,31
   13a34:	04100693          	li	a3,65
   13a38:	470d                	li	a4,3
   13a3a:	00000073          	ecall
   13a3e:	00f50e63          	beq	a0,a5,13a5a <_ZN18complex_no_dynamic3app17h47ca065de2a0f58eE+0x14a>
   13a42:	14000513          	li	a0,320
   13a46:	45a1                	li	a1,8
   13a48:	4625                	li	a2,9
   13a4a:	4709                	li	a4,2
   13a4c:	07f00793          	li	a5,127
   13a50:	4681                	li	a3,0
   13a52:	00000073          	ecall
   13a56:	02a7ed63          	bltu	a5,a0,13a90 <_ZN18complex_no_dynamic3app17h47ca065de2a0f58eE+0x180>
   13a5a:	4601                	li	a2,0
   13a5c:	4681                	li	a3,0
   13a5e:	4705                	li	a4,1
   13a60:	14000513          	li	a0,320
   13a64:	00e90023          	sb	a4,0(s2)
   13a68:	00b92223          	sw	a1,4(s2)
   13a6c:	45a5                	li	a1,9
   13a6e:	470d                	li	a4,3
   13a70:	00000073          	ecall
   13a74:	14000513          	li	a0,320
   13a78:	45a1                	li	a1,8
   13a7a:	4711                	li	a4,4
   13a7c:	4601                	li	a2,0
   13a7e:	4681                	li	a3,0
   13a80:	00000073          	ecall
   13a84:	50b6                	lw	ra,108(sp)
   13a86:	5426                	lw	s0,104(sp)
   13a88:	5496                	lw	s1,100(sp)
   13a8a:	5906                	lw	s2,96(sp)
   13a8c:	6165                	addi	sp,sp,112
   13a8e:	8082                	ret
   13a90:	4601                	li	a2,0
   13a92:	4681                	li	a3,0
   13a94:	14000513          	li	a0,320
   13a98:	45a5                	li	a1,9
   13a9a:	470d                	li	a4,3
   13a9c:	00000073          	ecall
   13aa0:	14000513          	li	a0,320
   13aa4:	45a5                	li	a1,9
   13aa6:	470d                	li	a4,3
   13aa8:	4601                	li	a2,0
   13aaa:	4681                	li	a3,0
   13aac:	00000073          	ecall
   13ab0:	00190513          	addi	a0,s2,1
   13ab4:	01f10593          	addi	a1,sp,31
   13ab8:	04100613          	li	a2,65
   13abc:	00008097          	auipc	ra,0x8
   13ac0:	298080e7          	jalr	664(ra) # 1bd54 <memcpy>
   13ac4:	4601                	li	a2,0
   13ac6:	4681                	li	a3,0
   13ac8:	00090023          	sb	zero,0(s2)
   13acc:	14000513          	li	a0,320
   13ad0:	45a5                	li	a1,9
   13ad2:	470d                	li	a4,3
   13ad4:	00000073          	ecall
   13ad8:	14000513          	li	a0,320
   13adc:	45a1                	li	a1,8
   13ade:	4711                	li	a4,4
   13ae0:	4601                	li	a2,0
   13ae2:	4681                	li	a3,0
   13ae4:	00000073          	ecall
   13ae8:	50b6                	lw	ra,108(sp)
   13aea:	5426                	lw	s0,104(sp)
   13aec:	5496                	lw	s1,100(sp)
   13aee:	5906                	lw	s2,96(sp)
   13af0:	6165                	addi	sp,sp,112
   13af2:	8082                	ret

00013af4 <_ZN18complex_no_dynamic3app17h486f8e41689b481dE>:
   13af4:	7135                	addi	sp,sp,-160
   13af6:	cf06                	sw	ra,156(sp)
   13af8:	cd22                	sw	s0,152(sp)
   13afa:	cb26                	sw	s1,148(sp)
   13afc:	842a                	mv	s0,a0
   13afe:	00a10513          	addi	a0,sp,10
   13b02:	04f00613          	li	a2,79
   13b06:	00008097          	auipc	ra,0x8
   13b0a:	24e080e7          	jalr	590(ra) # 1bd54 <memcpy>
   13b0e:	05910513          	addi	a0,sp,89
   13b12:	03b00613          	li	a2,59
   13b16:	4581                	li	a1,0
   13b18:	00008097          	auipc	ra,0x8
   13b1c:	1d0080e7          	jalr	464(ra) # 1bce8 <memset>
   13b20:	6505                	lui	a0,0x1
   13b22:	45a1                	li	a1,8
   13b24:	00a10613          	addi	a2,sp,10
   13b28:	04f00693          	li	a3,79
   13b2c:	a0650793          	addi	a5,a0,-1530 # a06 <.Lline_table_start1+0x7db>
   13b30:	4711                	li	a4,4
   13b32:	4489                	li	s1,2
   13b34:	853e                	mv	a0,a5
   13b36:	00000073          	ecall
   13b3a:	02950b63          	beq	a0,s1,13b70 <_ZN18complex_no_dynamic3app17h486f8e41689b481dE+0x7c>
   13b3e:	4595                	li	a1,5
   13b40:	05910613          	addi	a2,sp,89
   13b44:	03b00693          	li	a3,59
   13b48:	470d                	li	a4,3
   13b4a:	853e                	mv	a0,a5
   13b4c:	00000073          	ecall
   13b50:	02950063          	beq	a0,s1,13b70 <_ZN18complex_no_dynamic3app17h486f8e41689b481dE+0x7c>
   13b54:	6505                	lui	a0,0x1
   13b56:	45a1                	li	a1,8
   13b58:	4615                	li	a2,5
   13b5a:	a0650493          	addi	s1,a0,-1530 # a06 <.Lline_table_start1+0x7db>
   13b5e:	4709                	li	a4,2
   13b60:	07f00813          	li	a6,127
   13b64:	8526                	mv	a0,s1
   13b66:	4681                	li	a3,0
   13b68:	00000073          	ecall
   13b6c:	02a86963          	bltu	a6,a0,13b9e <_ZN18complex_no_dynamic3app17h486f8e41689b481dE+0xaa>
   13b70:	853e                	mv	a0,a5
   13b72:	4601                	li	a2,0
   13b74:	4681                	li	a3,0
   13b76:	4705                	li	a4,1
   13b78:	00e40023          	sb	a4,0(s0)
   13b7c:	c04c                	sw	a1,4(s0)
   13b7e:	4595                	li	a1,5
   13b80:	470d                	li	a4,3
   13b82:	00000073          	ecall
   13b86:	45a1                	li	a1,8
   13b88:	4711                	li	a4,4
   13b8a:	853e                	mv	a0,a5
   13b8c:	4601                	li	a2,0
   13b8e:	4681                	li	a3,0
   13b90:	00000073          	ecall
   13b94:	40fa                	lw	ra,156(sp)
   13b96:	446a                	lw	s0,152(sp)
   13b98:	44da                	lw	s1,148(sp)
   13b9a:	610d                	addi	sp,sp,160
   13b9c:	8082                	ret
   13b9e:	8526                	mv	a0,s1
   13ba0:	4601                	li	a2,0
   13ba2:	4681                	li	a3,0
   13ba4:	4595                	li	a1,5
   13ba6:	470d                	li	a4,3
   13ba8:	00000073          	ecall
   13bac:	4595                	li	a1,5
   13bae:	470d                	li	a4,3
   13bb0:	8526                	mv	a0,s1
   13bb2:	4601                	li	a2,0
   13bb4:	4681                	li	a3,0
   13bb6:	00000073          	ecall
   13bba:	00140513          	addi	a0,s0,1
   13bbe:	05910593          	addi	a1,sp,89
   13bc2:	03b00613          	li	a2,59
   13bc6:	00008097          	auipc	ra,0x8
   13bca:	18e080e7          	jalr	398(ra) # 1bd54 <memcpy>
   13bce:	8526                	mv	a0,s1
   13bd0:	4601                	li	a2,0
   13bd2:	4681                	li	a3,0
   13bd4:	00040023          	sb	zero,0(s0)
   13bd8:	4595                	li	a1,5
   13bda:	470d                	li	a4,3
   13bdc:	00000073          	ecall
   13be0:	45a1                	li	a1,8
   13be2:	4711                	li	a4,4
   13be4:	8526                	mv	a0,s1
   13be6:	4601                	li	a2,0
   13be8:	4681                	li	a3,0
   13bea:	00000073          	ecall
   13bee:	40fa                	lw	ra,156(sp)
   13bf0:	446a                	lw	s0,152(sp)
   13bf2:	44da                	lw	s1,148(sp)
   13bf4:	610d                	addi	sp,sp,160
   13bf6:	8082                	ret

00013bf8 <_ZN18complex_no_dynamic3app17h4dba417c1c4e72beE>:
   13bf8:	711d                	addi	sp,sp,-96
   13bfa:	ce86                	sw	ra,92(sp)
   13bfc:	cca2                	sw	s0,88(sp)
   13bfe:	caa6                	sw	s1,84(sp)
   13c00:	842a                	mv	s0,a0
   13c02:	00d10513          	addi	a0,sp,13
   13c06:	02700613          	li	a2,39
   13c0a:	00008097          	auipc	ra,0x8
   13c0e:	14a080e7          	jalr	330(ra) # 1bd54 <memcpy>
   13c12:	c282                	sw	zero,68(sp)
   13c14:	c482                	sw	zero,72(sp)
   13c16:	c682                	sw	zero,76(sp)
   13c18:	04011823          	sh	zero,80(sp)
   13c1c:	da02                	sw	zero,52(sp)
   13c1e:	dc02                	sw	zero,56(sp)
   13c20:	de02                	sw	zero,60(sp)
   13c22:	c082                	sw	zero,64(sp)
   13c24:	6505                	lui	a0,0x1
   13c26:	458d                	li	a1,3
   13c28:	00d10613          	addi	a2,sp,13
   13c2c:	02700693          	li	a3,39
   13c30:	0e250793          	addi	a5,a0,226 # 10e2 <.Lline_table_start1+0xeb7>
   13c34:	4711                	li	a4,4
   13c36:	4489                	li	s1,2
   13c38:	853e                	mv	a0,a5
   13c3a:	00000073          	ecall
   13c3e:	02950963          	beq	a0,s1,13c70 <_ZN18complex_no_dynamic3app17h4dba417c1c4e72beE+0x78>
   13c42:	458d                	li	a1,3
   13c44:	1850                	addi	a2,sp,52
   13c46:	46f9                	li	a3,30
   13c48:	470d                	li	a4,3
   13c4a:	853e                	mv	a0,a5
   13c4c:	00000073          	ecall
   13c50:	02950063          	beq	a0,s1,13c70 <_ZN18complex_no_dynamic3app17h4dba417c1c4e72beE+0x78>
   13c54:	6505                	lui	a0,0x1
   13c56:	458d                	li	a1,3
   13c58:	460d                	li	a2,3
   13c5a:	0e250493          	addi	s1,a0,226 # 10e2 <.Lline_table_start1+0xeb7>
   13c5e:	4709                	li	a4,2
   13c60:	07f00813          	li	a6,127
   13c64:	8526                	mv	a0,s1
   13c66:	4681                	li	a3,0
   13c68:	00000073          	ecall
   13c6c:	02a86963          	bltu	a6,a0,13c9e <_ZN18complex_no_dynamic3app17h4dba417c1c4e72beE+0xa6>
   13c70:	853e                	mv	a0,a5
   13c72:	4601                	li	a2,0
   13c74:	4681                	li	a3,0
   13c76:	4705                	li	a4,1
   13c78:	00e40023          	sb	a4,0(s0)
   13c7c:	c04c                	sw	a1,4(s0)
   13c7e:	458d                	li	a1,3
   13c80:	470d                	li	a4,3
   13c82:	00000073          	ecall
   13c86:	458d                	li	a1,3
   13c88:	4711                	li	a4,4
   13c8a:	853e                	mv	a0,a5
   13c8c:	4601                	li	a2,0
   13c8e:	4681                	li	a3,0
   13c90:	00000073          	ecall
   13c94:	40f6                	lw	ra,92(sp)
   13c96:	4466                	lw	s0,88(sp)
   13c98:	44d6                	lw	s1,84(sp)
   13c9a:	6125                	addi	sp,sp,96
   13c9c:	8082                	ret
   13c9e:	8526                	mv	a0,s1
   13ca0:	4601                	li	a2,0
   13ca2:	4681                	li	a3,0
   13ca4:	458d                	li	a1,3
   13ca6:	470d                	li	a4,3
   13ca8:	00000073          	ecall
   13cac:	458d                	li	a1,3
   13cae:	470d                	li	a4,3
   13cb0:	8526                	mv	a0,s1
   13cb2:	4601                	li	a2,0
   13cb4:	4681                	li	a3,0
   13cb6:	00000073          	ecall
   13cba:	00140513          	addi	a0,s0,1
   13cbe:	184c                	addi	a1,sp,52
   13cc0:	4679                	li	a2,30
   13cc2:	00008097          	auipc	ra,0x8
   13cc6:	092080e7          	jalr	146(ra) # 1bd54 <memcpy>
   13cca:	8526                	mv	a0,s1
   13ccc:	4601                	li	a2,0
   13cce:	4681                	li	a3,0
   13cd0:	00040023          	sb	zero,0(s0)
   13cd4:	458d                	li	a1,3
   13cd6:	470d                	li	a4,3
   13cd8:	00000073          	ecall
   13cdc:	458d                	li	a1,3
   13cde:	4711                	li	a4,4
   13ce0:	8526                	mv	a0,s1
   13ce2:	4601                	li	a2,0
   13ce4:	4681                	li	a3,0
   13ce6:	00000073          	ecall
   13cea:	40f6                	lw	ra,92(sp)
   13cec:	4466                	lw	s0,88(sp)
   13cee:	44d6                	lw	s1,84(sp)
   13cf0:	6125                	addi	sp,sp,96
   13cf2:	8082                	ret

00013cf4 <_ZN18complex_no_dynamic3app17h50f34e6d197d5b32E>:
   13cf4:	711d                	addi	sp,sp,-96
   13cf6:	ce86                	sw	ra,92(sp)
   13cf8:	cca2                	sw	s0,88(sp)
   13cfa:	caa6                	sw	s1,84(sp)
   13cfc:	c8ca                	sw	s2,80(sp)
   13cfe:	892a                	mv	s2,a0
   13d00:	0105c503          	lbu	a0,16(a1)
   13d04:	00c5c803          	lbu	a6,12(a1)
   13d08:	00d5c683          	lbu	a3,13(a1)
   13d0c:	00e5c703          	lbu	a4,14(a1)
   13d10:	00f5c783          	lbu	a5,15(a1)
   13d14:	0085c483          	lbu	s1,8(a1)
   13d18:	0095c403          	lbu	s0,9(a1)
   13d1c:	00a5c883          	lbu	a7,10(a1)
   13d20:	00b5c603          	lbu	a2,11(a1)
   13d24:	00a10823          	sb	a0,16(sp)
   13d28:	06a2                	slli	a3,a3,0x8
   13d2a:	0742                	slli	a4,a4,0x10
   13d2c:	07e2                	slli	a5,a5,0x18
   13d2e:	0422                	slli	s0,s0,0x8
   13d30:	0106e833          	or	a6,a3,a6
   13d34:	00e7e2b3          	or	t0,a5,a4
   13d38:	8c45                	or	s0,s0,s1
   13d3a:	0045c683          	lbu	a3,4(a1)
   13d3e:	0055c783          	lbu	a5,5(a1)
   13d42:	0065c483          	lbu	s1,6(a1)
   13d46:	0075c503          	lbu	a0,7(a1)
   13d4a:	08c2                	slli	a7,a7,0x10
   13d4c:	0662                	slli	a2,a2,0x18
   13d4e:	07a2                	slli	a5,a5,0x8
   13d50:	04c2                	slli	s1,s1,0x10
   13d52:	0562                	slli	a0,a0,0x18
   13d54:	01166633          	or	a2,a2,a7
   13d58:	8edd                	or	a3,a3,a5
   13d5a:	0005c783          	lbu	a5,0(a1)
   13d5e:	0015c703          	lbu	a4,1(a1)
   13d62:	8d45                	or	a0,a0,s1
   13d64:	0025c483          	lbu	s1,2(a1)
   13d68:	0035c583          	lbu	a1,3(a1)
   13d6c:	0722                	slli	a4,a4,0x8
   13d6e:	8f5d                	or	a4,a4,a5
   13d70:	04c2                	slli	s1,s1,0x10
   13d72:	05e2                	slli	a1,a1,0x18
   13d74:	8dc5                	or	a1,a1,s1
   13d76:	0102e7b3          	or	a5,t0,a6
   13d7a:	8e41                	or	a2,a2,s0
   13d7c:	8d55                	or	a0,a0,a3
   13d7e:	8dd9                	or	a1,a1,a4
   13d80:	c02e                	sw	a1,0(sp)
   13d82:	c22a                	sw	a0,4(sp)
   13d84:	c432                	sw	a2,8(sp)
   13d86:	c63e                	sw	a5,12(sp)
   13d88:	01110513          	addi	a0,sp,17
   13d8c:	03f00613          	li	a2,63
   13d90:	4581                	li	a1,0
   13d92:	00008097          	auipc	ra,0x8
   13d96:	f56080e7          	jalr	-170(ra) # 1bce8 <memset>
   13d9a:	6505                	lui	a0,0x1
   13d9c:	459d                	li	a1,7
   13d9e:	860a                	mv	a2,sp
   13da0:	46c5                	li	a3,17
   13da2:	cb050793          	addi	a5,a0,-848 # cb0 <.Lline_table_start1+0xa85>
   13da6:	4711                	li	a4,4
   13da8:	4489                	li	s1,2
   13daa:	853e                	mv	a0,a5
   13dac:	00000073          	ecall
   13db0:	02950b63          	beq	a0,s1,13de6 <_ZN18complex_no_dynamic3app17h50f34e6d197d5b32E+0xf2>
   13db4:	4591                	li	a1,4
   13db6:	01110613          	addi	a2,sp,17
   13dba:	03f00693          	li	a3,63
   13dbe:	470d                	li	a4,3
   13dc0:	853e                	mv	a0,a5
   13dc2:	00000073          	ecall
   13dc6:	02950063          	beq	a0,s1,13de6 <_ZN18complex_no_dynamic3app17h50f34e6d197d5b32E+0xf2>
   13dca:	6505                	lui	a0,0x1
   13dcc:	459d                	li	a1,7
   13dce:	4611                	li	a2,4
   13dd0:	cb050493          	addi	s1,a0,-848 # cb0 <.Lline_table_start1+0xa85>
   13dd4:	4709                	li	a4,2
   13dd6:	07f00413          	li	s0,127
   13dda:	8526                	mv	a0,s1
   13ddc:	4681                	li	a3,0
   13dde:	00000073          	ecall
   13de2:	02a46b63          	bltu	s0,a0,13e18 <_ZN18complex_no_dynamic3app17h50f34e6d197d5b32E+0x124>
   13de6:	853e                	mv	a0,a5
   13de8:	4601                	li	a2,0
   13dea:	4681                	li	a3,0
   13dec:	4705                	li	a4,1
   13dee:	00e90023          	sb	a4,0(s2)
   13df2:	00b92223          	sw	a1,4(s2)
   13df6:	4591                	li	a1,4
   13df8:	470d                	li	a4,3
   13dfa:	00000073          	ecall
   13dfe:	459d                	li	a1,7
   13e00:	4711                	li	a4,4
   13e02:	853e                	mv	a0,a5
   13e04:	4601                	li	a2,0
   13e06:	4681                	li	a3,0
   13e08:	00000073          	ecall
   13e0c:	40f6                	lw	ra,92(sp)
   13e0e:	4466                	lw	s0,88(sp)
   13e10:	44d6                	lw	s1,84(sp)
   13e12:	4946                	lw	s2,80(sp)
   13e14:	6125                	addi	sp,sp,96
   13e16:	8082                	ret
   13e18:	8526                	mv	a0,s1
   13e1a:	4601                	li	a2,0
   13e1c:	4681                	li	a3,0
   13e1e:	4591                	li	a1,4
   13e20:	470d                	li	a4,3
   13e22:	00000073          	ecall
   13e26:	4591                	li	a1,4
   13e28:	470d                	li	a4,3
   13e2a:	8526                	mv	a0,s1
   13e2c:	4601                	li	a2,0
   13e2e:	4681                	li	a3,0
   13e30:	00000073          	ecall
   13e34:	00190513          	addi	a0,s2,1
   13e38:	01110593          	addi	a1,sp,17
   13e3c:	03f00613          	li	a2,63
   13e40:	00008097          	auipc	ra,0x8
   13e44:	f14080e7          	jalr	-236(ra) # 1bd54 <memcpy>
   13e48:	8526                	mv	a0,s1
   13e4a:	4601                	li	a2,0
   13e4c:	4681                	li	a3,0
   13e4e:	00090023          	sb	zero,0(s2)
   13e52:	4591                	li	a1,4
   13e54:	470d                	li	a4,3
   13e56:	00000073          	ecall
   13e5a:	459d                	li	a1,7
   13e5c:	4711                	li	a4,4
   13e5e:	8526                	mv	a0,s1
   13e60:	4601                	li	a2,0
   13e62:	4681                	li	a3,0
   13e64:	00000073          	ecall
   13e68:	40f6                	lw	ra,92(sp)
   13e6a:	4466                	lw	s0,88(sp)
   13e6c:	44d6                	lw	s1,84(sp)
   13e6e:	4946                	lw	s2,80(sp)
   13e70:	6125                	addi	sp,sp,96
   13e72:	8082                	ret

00013e74 <_ZN18complex_no_dynamic3app17h514aa169052276b1E>:
   13e74:	7171                	addi	sp,sp,-176
   13e76:	d706                	sw	ra,172(sp)
   13e78:	d522                	sw	s0,168(sp)
   13e7a:	d326                	sw	s1,164(sp)
   13e7c:	842a                	mv	s0,a0
   13e7e:	0048                	addi	a0,sp,4
   13e80:	05300613          	li	a2,83
   13e84:	00008097          	auipc	ra,0x8
   13e88:	ed0080e7          	jalr	-304(ra) # 1bd54 <memcpy>
   13e8c:	05710513          	addi	a0,sp,87
   13e90:	04d00613          	li	a2,77
   13e94:	4581                	li	a1,0
   13e96:	00008097          	auipc	ra,0x8
   13e9a:	e52080e7          	jalr	-430(ra) # 1bce8 <memset>
   13e9e:	6505                	lui	a0,0x1
   13ea0:	45a5                	li	a1,9
   13ea2:	0050                	addi	a2,sp,4
   13ea4:	05300693          	li	a3,83
   13ea8:	6ba50793          	addi	a5,a0,1722 # 16ba <.Lline_table_start1+0x148f>
   13eac:	4711                	li	a4,4
   13eae:	4489                	li	s1,2
   13eb0:	853e                	mv	a0,a5
   13eb2:	00000073          	ecall
   13eb6:	02950b63          	beq	a0,s1,13eec <_ZN18complex_no_dynamic3app17h514aa169052276b1E+0x78>
   13eba:	4591                	li	a1,4
   13ebc:	05710613          	addi	a2,sp,87
   13ec0:	04d00693          	li	a3,77
   13ec4:	470d                	li	a4,3
   13ec6:	853e                	mv	a0,a5
   13ec8:	00000073          	ecall
   13ecc:	02950063          	beq	a0,s1,13eec <_ZN18complex_no_dynamic3app17h514aa169052276b1E+0x78>
   13ed0:	6505                	lui	a0,0x1
   13ed2:	45a5                	li	a1,9
   13ed4:	4611                	li	a2,4
   13ed6:	6ba50493          	addi	s1,a0,1722 # 16ba <.Lline_table_start1+0x148f>
   13eda:	4709                	li	a4,2
   13edc:	07f00813          	li	a6,127
   13ee0:	8526                	mv	a0,s1
   13ee2:	4681                	li	a3,0
   13ee4:	00000073          	ecall
   13ee8:	02a86963          	bltu	a6,a0,13f1a <_ZN18complex_no_dynamic3app17h514aa169052276b1E+0xa6>
   13eec:	853e                	mv	a0,a5
   13eee:	4601                	li	a2,0
   13ef0:	4681                	li	a3,0
   13ef2:	4705                	li	a4,1
   13ef4:	00e40023          	sb	a4,0(s0)
   13ef8:	c04c                	sw	a1,4(s0)
   13efa:	4591                	li	a1,4
   13efc:	470d                	li	a4,3
   13efe:	00000073          	ecall
   13f02:	45a5                	li	a1,9
   13f04:	4711                	li	a4,4
   13f06:	853e                	mv	a0,a5
   13f08:	4601                	li	a2,0
   13f0a:	4681                	li	a3,0
   13f0c:	00000073          	ecall
   13f10:	50ba                	lw	ra,172(sp)
   13f12:	542a                	lw	s0,168(sp)
   13f14:	549a                	lw	s1,164(sp)
   13f16:	614d                	addi	sp,sp,176
   13f18:	8082                	ret
   13f1a:	8526                	mv	a0,s1
   13f1c:	4601                	li	a2,0
   13f1e:	4681                	li	a3,0
   13f20:	4591                	li	a1,4
   13f22:	470d                	li	a4,3
   13f24:	00000073          	ecall
   13f28:	4591                	li	a1,4
   13f2a:	470d                	li	a4,3
   13f2c:	8526                	mv	a0,s1
   13f2e:	4601                	li	a2,0
   13f30:	4681                	li	a3,0
   13f32:	00000073          	ecall
   13f36:	00140513          	addi	a0,s0,1
   13f3a:	05710593          	addi	a1,sp,87
   13f3e:	04d00613          	li	a2,77
   13f42:	00008097          	auipc	ra,0x8
   13f46:	e12080e7          	jalr	-494(ra) # 1bd54 <memcpy>
   13f4a:	8526                	mv	a0,s1
   13f4c:	4601                	li	a2,0
   13f4e:	4681                	li	a3,0
   13f50:	00040023          	sb	zero,0(s0)
   13f54:	4591                	li	a1,4
   13f56:	470d                	li	a4,3
   13f58:	00000073          	ecall
   13f5c:	45a5                	li	a1,9
   13f5e:	4711                	li	a4,4
   13f60:	8526                	mv	a0,s1
   13f62:	4601                	li	a2,0
   13f64:	4681                	li	a3,0
   13f66:	00000073          	ecall
   13f6a:	50ba                	lw	ra,172(sp)
   13f6c:	542a                	lw	s0,168(sp)
   13f6e:	549a                	lw	s1,164(sp)
   13f70:	614d                	addi	sp,sp,176
   13f72:	8082                	ret

00013f74 <_ZN18complex_no_dynamic3app17h51bdf92b6ee0844cE>:
   13f74:	711d                	addi	sp,sp,-96
   13f76:	ce86                	sw	ra,92(sp)
   13f78:	cca2                	sw	s0,88(sp)
   13f7a:	caa6                	sw	s1,84(sp)
   13f7c:	842a                	mv	s0,a0
   13f7e:	00110513          	addi	a0,sp,1
   13f82:	03f00613          	li	a2,63
   13f86:	00008097          	auipc	ra,0x8
   13f8a:	dce080e7          	jalr	-562(ra) # 1bd54 <memcpy>
   13f8e:	04010823          	sb	zero,80(sp)
   13f92:	c082                	sw	zero,64(sp)
   13f94:	c282                	sw	zero,68(sp)
   13f96:	c482                	sw	zero,72(sp)
   13f98:	c682                	sw	zero,76(sp)
   13f9a:	6505                	lui	a0,0x1
   13f9c:	4591                	li	a1,4
   13f9e:	00110613          	addi	a2,sp,1
   13fa2:	03f00693          	li	a3,63
   13fa6:	4d750793          	addi	a5,a0,1239 # 14d7 <.Lline_table_start1+0x12ac>
   13faa:	4711                	li	a4,4
   13fac:	4489                	li	s1,2
   13fae:	853e                	mv	a0,a5
   13fb0:	00000073          	ecall
   13fb4:	02950963          	beq	a0,s1,13fe6 <_ZN18complex_no_dynamic3app17h51bdf92b6ee0844cE+0x72>
   13fb8:	458d                	li	a1,3
   13fba:	0090                	addi	a2,sp,64
   13fbc:	46c5                	li	a3,17
   13fbe:	470d                	li	a4,3
   13fc0:	853e                	mv	a0,a5
   13fc2:	00000073          	ecall
   13fc6:	02950063          	beq	a0,s1,13fe6 <_ZN18complex_no_dynamic3app17h51bdf92b6ee0844cE+0x72>
   13fca:	6505                	lui	a0,0x1
   13fcc:	4591                	li	a1,4
   13fce:	460d                	li	a2,3
   13fd0:	4d750493          	addi	s1,a0,1239 # 14d7 <.Lline_table_start1+0x12ac>
   13fd4:	4709                	li	a4,2
   13fd6:	07f00813          	li	a6,127
   13fda:	8526                	mv	a0,s1
   13fdc:	4681                	li	a3,0
   13fde:	00000073          	ecall
   13fe2:	02a86963          	bltu	a6,a0,14014 <_ZN18complex_no_dynamic3app17h51bdf92b6ee0844cE+0xa0>
   13fe6:	853e                	mv	a0,a5
   13fe8:	4601                	li	a2,0
   13fea:	4681                	li	a3,0
   13fec:	4705                	li	a4,1
   13fee:	00e40023          	sb	a4,0(s0)
   13ff2:	c04c                	sw	a1,4(s0)
   13ff4:	458d                	li	a1,3
   13ff6:	470d                	li	a4,3
   13ff8:	00000073          	ecall
   13ffc:	4591                	li	a1,4
   13ffe:	4711                	li	a4,4
   14000:	853e                	mv	a0,a5
   14002:	4601                	li	a2,0
   14004:	4681                	li	a3,0
   14006:	00000073          	ecall
   1400a:	40f6                	lw	ra,92(sp)
   1400c:	4466                	lw	s0,88(sp)
   1400e:	44d6                	lw	s1,84(sp)
   14010:	6125                	addi	sp,sp,96
   14012:	8082                	ret
   14014:	8526                	mv	a0,s1
   14016:	4601                	li	a2,0
   14018:	4681                	li	a3,0
   1401a:	458d                	li	a1,3
   1401c:	470d                	li	a4,3
   1401e:	00000073          	ecall
   14022:	458d                	li	a1,3
   14024:	470d                	li	a4,3
   14026:	8526                	mv	a0,s1
   14028:	4601                	li	a2,0
   1402a:	4681                	li	a3,0
   1402c:	00000073          	ecall
   14030:	00140513          	addi	a0,s0,1
   14034:	008c                	addi	a1,sp,64
   14036:	4645                	li	a2,17
   14038:	00008097          	auipc	ra,0x8
   1403c:	d1c080e7          	jalr	-740(ra) # 1bd54 <memcpy>
   14040:	8526                	mv	a0,s1
   14042:	4601                	li	a2,0
   14044:	4681                	li	a3,0
   14046:	00040023          	sb	zero,0(s0)
   1404a:	458d                	li	a1,3
   1404c:	470d                	li	a4,3
   1404e:	00000073          	ecall
   14052:	4591                	li	a1,4
   14054:	4711                	li	a4,4
   14056:	8526                	mv	a0,s1
   14058:	4601                	li	a2,0
   1405a:	4681                	li	a3,0
   1405c:	00000073          	ecall
   14060:	40f6                	lw	ra,92(sp)
   14062:	4466                	lw	s0,88(sp)
   14064:	44d6                	lw	s1,84(sp)
   14066:	6125                	addi	sp,sp,96
   14068:	8082                	ret

0001406a <_ZN18complex_no_dynamic3app17h559d3adb514a058aE>:
   1406a:	7171                	addi	sp,sp,-176
   1406c:	d706                	sw	ra,172(sp)
   1406e:	d522                	sw	s0,168(sp)
   14070:	d326                	sw	s1,164(sp)
   14072:	842a                	mv	s0,a0
   14074:	0028                	addi	a0,sp,8
   14076:	04600613          	li	a2,70
   1407a:	00008097          	auipc	ra,0x8
   1407e:	cda080e7          	jalr	-806(ra) # 1bd54 <memcpy>
   14082:	04e10513          	addi	a0,sp,78
   14086:	05600613          	li	a2,86
   1408a:	4581                	li	a1,0
   1408c:	00008097          	auipc	ra,0x8
   14090:	c5c080e7          	jalr	-932(ra) # 1bce8 <memset>
   14094:	6509                	lui	a0,0x2
   14096:	459d                	li	a1,7
   14098:	0030                	addi	a2,sp,8
   1409a:	04600693          	li	a3,70
   1409e:	e5050793          	addi	a5,a0,-432 # 1e50 <.Lline_table_start1+0x1c25>
   140a2:	4711                	li	a4,4
   140a4:	4489                	li	s1,2
   140a6:	853e                	mv	a0,a5
   140a8:	00000073          	ecall
   140ac:	02950b63          	beq	a0,s1,140e2 <_ZN18complex_no_dynamic3app17h559d3adb514a058aE+0x78>
   140b0:	458d                	li	a1,3
   140b2:	04e10613          	addi	a2,sp,78
   140b6:	05600693          	li	a3,86
   140ba:	470d                	li	a4,3
   140bc:	853e                	mv	a0,a5
   140be:	00000073          	ecall
   140c2:	02950063          	beq	a0,s1,140e2 <_ZN18complex_no_dynamic3app17h559d3adb514a058aE+0x78>
   140c6:	6509                	lui	a0,0x2
   140c8:	459d                	li	a1,7
   140ca:	460d                	li	a2,3
   140cc:	e5050493          	addi	s1,a0,-432 # 1e50 <.Lline_table_start1+0x1c25>
   140d0:	4709                	li	a4,2
   140d2:	07f00813          	li	a6,127
   140d6:	8526                	mv	a0,s1
   140d8:	4681                	li	a3,0
   140da:	00000073          	ecall
   140de:	02a86963          	bltu	a6,a0,14110 <_ZN18complex_no_dynamic3app17h559d3adb514a058aE+0xa6>
   140e2:	853e                	mv	a0,a5
   140e4:	4601                	li	a2,0
   140e6:	4681                	li	a3,0
   140e8:	4705                	li	a4,1
   140ea:	00e40023          	sb	a4,0(s0)
   140ee:	c04c                	sw	a1,4(s0)
   140f0:	458d                	li	a1,3
   140f2:	470d                	li	a4,3
   140f4:	00000073          	ecall
   140f8:	459d                	li	a1,7
   140fa:	4711                	li	a4,4
   140fc:	853e                	mv	a0,a5
   140fe:	4601                	li	a2,0
   14100:	4681                	li	a3,0
   14102:	00000073          	ecall
   14106:	50ba                	lw	ra,172(sp)
   14108:	542a                	lw	s0,168(sp)
   1410a:	549a                	lw	s1,164(sp)
   1410c:	614d                	addi	sp,sp,176
   1410e:	8082                	ret
   14110:	8526                	mv	a0,s1
   14112:	4601                	li	a2,0
   14114:	4681                	li	a3,0
   14116:	458d                	li	a1,3
   14118:	470d                	li	a4,3
   1411a:	00000073          	ecall
   1411e:	458d                	li	a1,3
   14120:	470d                	li	a4,3
   14122:	8526                	mv	a0,s1
   14124:	4601                	li	a2,0
   14126:	4681                	li	a3,0
   14128:	00000073          	ecall
   1412c:	00140513          	addi	a0,s0,1
   14130:	04e10593          	addi	a1,sp,78
   14134:	05600613          	li	a2,86
   14138:	00008097          	auipc	ra,0x8
   1413c:	c1c080e7          	jalr	-996(ra) # 1bd54 <memcpy>
   14140:	8526                	mv	a0,s1
   14142:	4601                	li	a2,0
   14144:	4681                	li	a3,0
   14146:	00040023          	sb	zero,0(s0)
   1414a:	458d                	li	a1,3
   1414c:	470d                	li	a4,3
   1414e:	00000073          	ecall
   14152:	459d                	li	a1,7
   14154:	4711                	li	a4,4
   14156:	8526                	mv	a0,s1
   14158:	4601                	li	a2,0
   1415a:	4681                	li	a3,0
   1415c:	00000073          	ecall
   14160:	50ba                	lw	ra,172(sp)
   14162:	542a                	lw	s0,168(sp)
   14164:	549a                	lw	s1,164(sp)
   14166:	614d                	addi	sp,sp,176
   14168:	8082                	ret

0001416a <_ZN18complex_no_dynamic3app17h569a846e308d6fc1E>:
   1416a:	711d                	addi	sp,sp,-96
   1416c:	ce86                	sw	ra,92(sp)
   1416e:	cca2                	sw	s0,88(sp)
   14170:	caa6                	sw	s1,84(sp)
   14172:	842a                	mv	s0,a0
   14174:	0048                	addi	a0,sp,4
   14176:	03400613          	li	a2,52
   1417a:	00008097          	auipc	ra,0x8
   1417e:	bda080e7          	jalr	-1062(ra) # 1bd54 <memcpy>
   14182:	c482                	sw	zero,72(sp)
   14184:	c682                	sw	zero,76(sp)
   14186:	04011823          	sh	zero,80(sp)
   1418a:	dc02                	sw	zero,56(sp)
   1418c:	de02                	sw	zero,60(sp)
   1418e:	c082                	sw	zero,64(sp)
   14190:	c282                	sw	zero,68(sp)
   14192:	6505                	lui	a0,0x1
   14194:	0050                	addi	a2,sp,4
   14196:	03400693          	li	a3,52
   1419a:	2cc50793          	addi	a5,a0,716 # 12cc <.Lline_table_start1+0x10a1>
   1419e:	4711                	li	a4,4
   141a0:	4489                	li	s1,2
   141a2:	853e                	mv	a0,a5
   141a4:	4581                	li	a1,0
   141a6:	00000073          	ecall
   141aa:	02950963          	beq	a0,s1,141dc <_ZN18complex_no_dynamic3app17h569a846e308d6fc1E+0x72>
   141ae:	4595                	li	a1,5
   141b0:	1830                	addi	a2,sp,56
   141b2:	46e9                	li	a3,26
   141b4:	470d                	li	a4,3
   141b6:	853e                	mv	a0,a5
   141b8:	00000073          	ecall
   141bc:	02950063          	beq	a0,s1,141dc <_ZN18complex_no_dynamic3app17h569a846e308d6fc1E+0x72>
   141c0:	6505                	lui	a0,0x1
   141c2:	4615                	li	a2,5
   141c4:	2cc50493          	addi	s1,a0,716 # 12cc <.Lline_table_start1+0x10a1>
   141c8:	4709                	li	a4,2
   141ca:	07f00813          	li	a6,127
   141ce:	8526                	mv	a0,s1
   141d0:	4581                	li	a1,0
   141d2:	4681                	li	a3,0
   141d4:	00000073          	ecall
   141d8:	02a86a63          	bltu	a6,a0,1420c <_ZN18complex_no_dynamic3app17h569a846e308d6fc1E+0xa2>
   141dc:	862e                	mv	a2,a1
   141de:	4505                	li	a0,1
   141e0:	4595                	li	a1,5
   141e2:	00a40023          	sb	a0,0(s0)
   141e6:	c050                	sw	a2,4(s0)
   141e8:	470d                	li	a4,3
   141ea:	853e                	mv	a0,a5
   141ec:	4601                	li	a2,0
   141ee:	4681                	li	a3,0
   141f0:	00000073          	ecall
   141f4:	4711                	li	a4,4
   141f6:	853e                	mv	a0,a5
   141f8:	4581                	li	a1,0
   141fa:	4601                	li	a2,0
   141fc:	4681                	li	a3,0
   141fe:	00000073          	ecall
   14202:	40f6                	lw	ra,92(sp)
   14204:	4466                	lw	s0,88(sp)
   14206:	44d6                	lw	s1,84(sp)
   14208:	6125                	addi	sp,sp,96
   1420a:	8082                	ret
   1420c:	8526                	mv	a0,s1
   1420e:	4601                	li	a2,0
   14210:	4681                	li	a3,0
   14212:	4595                	li	a1,5
   14214:	470d                	li	a4,3
   14216:	00000073          	ecall
   1421a:	4595                	li	a1,5
   1421c:	470d                	li	a4,3
   1421e:	8526                	mv	a0,s1
   14220:	4601                	li	a2,0
   14222:	4681                	li	a3,0
   14224:	00000073          	ecall
   14228:	00140513          	addi	a0,s0,1
   1422c:	182c                	addi	a1,sp,56
   1422e:	4669                	li	a2,26
   14230:	00008097          	auipc	ra,0x8
   14234:	b24080e7          	jalr	-1244(ra) # 1bd54 <memcpy>
   14238:	00040023          	sb	zero,0(s0)
   1423c:	4595                	li	a1,5
   1423e:	470d                	li	a4,3
   14240:	8526                	mv	a0,s1
   14242:	4601                	li	a2,0
   14244:	4681                	li	a3,0
   14246:	00000073          	ecall
   1424a:	4711                	li	a4,4
   1424c:	8526                	mv	a0,s1
   1424e:	4581                	li	a1,0
   14250:	4601                	li	a2,0
   14252:	4681                	li	a3,0
   14254:	00000073          	ecall
   14258:	40f6                	lw	ra,92(sp)
   1425a:	4466                	lw	s0,88(sp)
   1425c:	44d6                	lw	s1,84(sp)
   1425e:	6125                	addi	sp,sp,96
   14260:	8082                	ret

00014262 <_ZN18complex_no_dynamic3app17h57ee97f9acf1bc56E>:
   14262:	711d                	addi	sp,sp,-96
   14264:	ce86                	sw	ra,92(sp)
   14266:	cca2                	sw	s0,88(sp)
   14268:	caa6                	sw	s1,84(sp)
   1426a:	842a                	mv	s0,a0
   1426c:	00d10513          	addi	a0,sp,13
   14270:	02300613          	li	a2,35
   14274:	00008097          	auipc	ra,0x8
   14278:	ae0080e7          	jalr	-1312(ra) # 1bd54 <memcpy>
   1427c:	1808                	addi	a0,sp,48
   1427e:	02400613          	li	a2,36
   14282:	4581                	li	a1,0
   14284:	00008097          	auipc	ra,0x8
   14288:	a64080e7          	jalr	-1436(ra) # 1bce8 <memset>
   1428c:	6509                	lui	a0,0x2
   1428e:	4591                	li	a1,4
   14290:	00d10613          	addi	a2,sp,13
   14294:	02300693          	li	a3,35
   14298:	bd650793          	addi	a5,a0,-1066 # 1bd6 <.Lline_table_start1+0x19ab>
   1429c:	4711                	li	a4,4
   1429e:	4489                	li	s1,2
   142a0:	853e                	mv	a0,a5
   142a2:	00000073          	ecall
   142a6:	02950a63          	beq	a0,s1,142da <_ZN18complex_no_dynamic3app17h57ee97f9acf1bc56E+0x78>
   142aa:	45a1                	li	a1,8
   142ac:	1810                	addi	a2,sp,48
   142ae:	02400693          	li	a3,36
   142b2:	470d                	li	a4,3
   142b4:	853e                	mv	a0,a5
   142b6:	00000073          	ecall
   142ba:	02950063          	beq	a0,s1,142da <_ZN18complex_no_dynamic3app17h57ee97f9acf1bc56E+0x78>
   142be:	6509                	lui	a0,0x2
   142c0:	4591                	li	a1,4
   142c2:	4621                	li	a2,8
   142c4:	bd650493          	addi	s1,a0,-1066 # 1bd6 <.Lline_table_start1+0x19ab>
   142c8:	4709                	li	a4,2
   142ca:	07f00813          	li	a6,127
   142ce:	8526                	mv	a0,s1
   142d0:	4681                	li	a3,0
   142d2:	00000073          	ecall
   142d6:	02a86963          	bltu	a6,a0,14308 <_ZN18complex_no_dynamic3app17h57ee97f9acf1bc56E+0xa6>
   142da:	853e                	mv	a0,a5
   142dc:	4601                	li	a2,0
   142de:	4681                	li	a3,0
   142e0:	4705                	li	a4,1
   142e2:	00e40023          	sb	a4,0(s0)
   142e6:	c04c                	sw	a1,4(s0)
   142e8:	45a1                	li	a1,8
   142ea:	470d                	li	a4,3
   142ec:	00000073          	ecall
   142f0:	4591                	li	a1,4
   142f2:	4711                	li	a4,4
   142f4:	853e                	mv	a0,a5
   142f6:	4601                	li	a2,0
   142f8:	4681                	li	a3,0
   142fa:	00000073          	ecall
   142fe:	40f6                	lw	ra,92(sp)
   14300:	4466                	lw	s0,88(sp)
   14302:	44d6                	lw	s1,84(sp)
   14304:	6125                	addi	sp,sp,96
   14306:	8082                	ret
   14308:	8526                	mv	a0,s1
   1430a:	4601                	li	a2,0
   1430c:	4681                	li	a3,0
   1430e:	45a1                	li	a1,8
   14310:	470d                	li	a4,3
   14312:	00000073          	ecall
   14316:	45a1                	li	a1,8
   14318:	470d                	li	a4,3
   1431a:	8526                	mv	a0,s1
   1431c:	4601                	li	a2,0
   1431e:	4681                	li	a3,0
   14320:	00000073          	ecall
   14324:	00140513          	addi	a0,s0,1
   14328:	180c                	addi	a1,sp,48
   1432a:	02400613          	li	a2,36
   1432e:	00008097          	auipc	ra,0x8
   14332:	a26080e7          	jalr	-1498(ra) # 1bd54 <memcpy>
   14336:	8526                	mv	a0,s1
   14338:	4601                	li	a2,0
   1433a:	4681                	li	a3,0
   1433c:	00040023          	sb	zero,0(s0)
   14340:	45a1                	li	a1,8
   14342:	470d                	li	a4,3
   14344:	00000073          	ecall
   14348:	4591                	li	a1,4
   1434a:	4711                	li	a4,4
   1434c:	8526                	mv	a0,s1
   1434e:	4601                	li	a2,0
   14350:	4681                	li	a3,0
   14352:	00000073          	ecall
   14356:	40f6                	lw	ra,92(sp)
   14358:	4466                	lw	s0,88(sp)
   1435a:	44d6                	lw	s1,84(sp)
   1435c:	6125                	addi	sp,sp,96
   1435e:	8082                	ret

00014360 <_ZN18complex_no_dynamic3app17h58a515326b8c5d42E>:
   14360:	7119                	addi	sp,sp,-128
   14362:	de86                	sw	ra,124(sp)
   14364:	dca2                	sw	s0,120(sp)
   14366:	daa6                	sw	s1,116(sp)
   14368:	842a                	mv	s0,a0
   1436a:	850a                	mv	a0,sp
   1436c:	03c00613          	li	a2,60
   14370:	00008097          	auipc	ra,0x8
   14374:	9e4080e7          	jalr	-1564(ra) # 1bd54 <memcpy>
   14378:	1868                	addi	a0,sp,60
   1437a:	03800613          	li	a2,56
   1437e:	4581                	li	a1,0
   14380:	00008097          	auipc	ra,0x8
   14384:	968080e7          	jalr	-1688(ra) # 1bce8 <memset>
   14388:	6509                	lui	a0,0x2
   1438a:	458d                	li	a1,3
   1438c:	860a                	mv	a2,sp
   1438e:	03c00693          	li	a3,60
   14392:	d1950793          	addi	a5,a0,-743 # 1d19 <.Lline_table_start1+0x1aee>
   14396:	4711                	li	a4,4
   14398:	4489                	li	s1,2
   1439a:	853e                	mv	a0,a5
   1439c:	00000073          	ecall
   143a0:	02950a63          	beq	a0,s1,143d4 <_ZN18complex_no_dynamic3app17h58a515326b8c5d42E+0x74>
   143a4:	458d                	li	a1,3
   143a6:	1870                	addi	a2,sp,60
   143a8:	03800693          	li	a3,56
   143ac:	470d                	li	a4,3
   143ae:	853e                	mv	a0,a5
   143b0:	00000073          	ecall
   143b4:	02950063          	beq	a0,s1,143d4 <_ZN18complex_no_dynamic3app17h58a515326b8c5d42E+0x74>
   143b8:	6509                	lui	a0,0x2
   143ba:	458d                	li	a1,3
   143bc:	460d                	li	a2,3
   143be:	d1950493          	addi	s1,a0,-743 # 1d19 <.Lline_table_start1+0x1aee>
   143c2:	4709                	li	a4,2
   143c4:	07f00813          	li	a6,127
   143c8:	8526                	mv	a0,s1
   143ca:	4681                	li	a3,0
   143cc:	00000073          	ecall
   143d0:	02a86963          	bltu	a6,a0,14402 <_ZN18complex_no_dynamic3app17h58a515326b8c5d42E+0xa2>
   143d4:	853e                	mv	a0,a5
   143d6:	4601                	li	a2,0
   143d8:	4681                	li	a3,0
   143da:	4705                	li	a4,1
   143dc:	00e40023          	sb	a4,0(s0)
   143e0:	c04c                	sw	a1,4(s0)
   143e2:	458d                	li	a1,3
   143e4:	470d                	li	a4,3
   143e6:	00000073          	ecall
   143ea:	458d                	li	a1,3
   143ec:	4711                	li	a4,4
   143ee:	853e                	mv	a0,a5
   143f0:	4601                	li	a2,0
   143f2:	4681                	li	a3,0
   143f4:	00000073          	ecall
   143f8:	50f6                	lw	ra,124(sp)
   143fa:	5466                	lw	s0,120(sp)
   143fc:	54d6                	lw	s1,116(sp)
   143fe:	6109                	addi	sp,sp,128
   14400:	8082                	ret
   14402:	8526                	mv	a0,s1
   14404:	4601                	li	a2,0
   14406:	4681                	li	a3,0
   14408:	458d                	li	a1,3
   1440a:	470d                	li	a4,3
   1440c:	00000073          	ecall
   14410:	458d                	li	a1,3
   14412:	470d                	li	a4,3
   14414:	8526                	mv	a0,s1
   14416:	4601                	li	a2,0
   14418:	4681                	li	a3,0
   1441a:	00000073          	ecall
   1441e:	00140513          	addi	a0,s0,1
   14422:	186c                	addi	a1,sp,60
   14424:	03800613          	li	a2,56
   14428:	00008097          	auipc	ra,0x8
   1442c:	92c080e7          	jalr	-1748(ra) # 1bd54 <memcpy>
   14430:	8526                	mv	a0,s1
   14432:	4601                	li	a2,0
   14434:	4681                	li	a3,0
   14436:	00040023          	sb	zero,0(s0)
   1443a:	458d                	li	a1,3
   1443c:	470d                	li	a4,3
   1443e:	00000073          	ecall
   14442:	458d                	li	a1,3
   14444:	4711                	li	a4,4
   14446:	8526                	mv	a0,s1
   14448:	4601                	li	a2,0
   1444a:	4681                	li	a3,0
   1444c:	00000073          	ecall
   14450:	50f6                	lw	ra,124(sp)
   14452:	5466                	lw	s0,120(sp)
   14454:	54d6                	lw	s1,116(sp)
   14456:	6109                	addi	sp,sp,128
   14458:	8082                	ret

0001445a <_ZN18complex_no_dynamic3app17h5f97481fea1c0f57E>:
   1445a:	7159                	addi	sp,sp,-112
   1445c:	d686                	sw	ra,108(sp)
   1445e:	d4a2                	sw	s0,104(sp)
   14460:	d2a6                	sw	s1,100(sp)
   14462:	d0ca                	sw	s2,96(sp)
   14464:	892a                	mv	s2,a0
   14466:	00c5c503          	lbu	a0,12(a1)
   1446a:	00d5c603          	lbu	a2,13(a1)
   1446e:	0085c683          	lbu	a3,8(a1)
   14472:	0095c703          	lbu	a4,9(a1)
   14476:	00a5c783          	lbu	a5,10(a1)
   1447a:	00b5c483          	lbu	s1,11(a1)
   1447e:	0622                	slli	a2,a2,0x8
   14480:	0722                	slli	a4,a4,0x8
   14482:	00a66833          	or	a6,a2,a0
   14486:	8ed9                	or	a3,a3,a4
   14488:	0045c603          	lbu	a2,4(a1)
   1448c:	0055c703          	lbu	a4,5(a1)
   14490:	0065c403          	lbu	s0,6(a1)
   14494:	0075c503          	lbu	a0,7(a1)
   14498:	07c2                	slli	a5,a5,0x10
   1449a:	04e2                	slli	s1,s1,0x18
   1449c:	0722                	slli	a4,a4,0x8
   1449e:	0442                	slli	s0,s0,0x10
   144a0:	0562                	slli	a0,a0,0x18
   144a2:	8fc5                	or	a5,a5,s1
   144a4:	8e59                	or	a2,a2,a4
   144a6:	0005c703          	lbu	a4,0(a1)
   144aa:	0015c483          	lbu	s1,1(a1)
   144ae:	8d41                	or	a0,a0,s0
   144b0:	0025c403          	lbu	s0,2(a1)
   144b4:	0035c583          	lbu	a1,3(a1)
   144b8:	04a2                	slli	s1,s1,0x8
   144ba:	8f45                	or	a4,a4,s1
   144bc:	0442                	slli	s0,s0,0x10
   144be:	05e2                	slli	a1,a1,0x18
   144c0:	8dc1                	or	a1,a1,s0
   144c2:	8edd                	or	a3,a3,a5
   144c4:	8d51                	or	a0,a0,a2
   144c6:	8dd9                	or	a1,a1,a4
   144c8:	c42e                	sw	a1,8(sp)
   144ca:	c62a                	sw	a0,12(sp)
   144cc:	c836                	sw	a3,16(sp)
   144ce:	01011a23          	sh	a6,20(sp)
   144d2:	0828                	addi	a0,sp,24
   144d4:	04800613          	li	a2,72
   144d8:	4581                	li	a1,0
   144da:	00008097          	auipc	ra,0x8
   144de:	80e080e7          	jalr	-2034(ra) # 1bce8 <memset>
   144e2:	6505                	lui	a0,0x1
   144e4:	458d                	li	a1,3
   144e6:	0030                	addi	a2,sp,8
   144e8:	46b9                	li	a3,14
   144ea:	2d150793          	addi	a5,a0,721 # 12d1 <.Lline_table_start1+0x10a6>
   144ee:	4711                	li	a4,4
   144f0:	4489                	li	s1,2
   144f2:	853e                	mv	a0,a5
   144f4:	00000073          	ecall
   144f8:	02950a63          	beq	a0,s1,1452c <_ZN18complex_no_dynamic3app17h5f97481fea1c0f57E+0xd2>
   144fc:	45a1                	li	a1,8
   144fe:	0830                	addi	a2,sp,24
   14500:	04800693          	li	a3,72
   14504:	470d                	li	a4,3
   14506:	853e                	mv	a0,a5
   14508:	00000073          	ecall
   1450c:	02950063          	beq	a0,s1,1452c <_ZN18complex_no_dynamic3app17h5f97481fea1c0f57E+0xd2>
   14510:	6505                	lui	a0,0x1
   14512:	458d                	li	a1,3
   14514:	4621                	li	a2,8
   14516:	2d150493          	addi	s1,a0,721 # 12d1 <.Lline_table_start1+0x10a6>
   1451a:	4709                	li	a4,2
   1451c:	07f00413          	li	s0,127
   14520:	8526                	mv	a0,s1
   14522:	4681                	li	a3,0
   14524:	00000073          	ecall
   14528:	02a46b63          	bltu	s0,a0,1455e <_ZN18complex_no_dynamic3app17h5f97481fea1c0f57E+0x104>
   1452c:	853e                	mv	a0,a5
   1452e:	4601                	li	a2,0
   14530:	4681                	li	a3,0
   14532:	4705                	li	a4,1
   14534:	00e90023          	sb	a4,0(s2)
   14538:	00b92223          	sw	a1,4(s2)
   1453c:	45a1                	li	a1,8
   1453e:	470d                	li	a4,3
   14540:	00000073          	ecall
   14544:	458d                	li	a1,3
   14546:	4711                	li	a4,4
   14548:	853e                	mv	a0,a5
   1454a:	4601                	li	a2,0
   1454c:	4681                	li	a3,0
   1454e:	00000073          	ecall
   14552:	50b6                	lw	ra,108(sp)
   14554:	5426                	lw	s0,104(sp)
   14556:	5496                	lw	s1,100(sp)
   14558:	5906                	lw	s2,96(sp)
   1455a:	6165                	addi	sp,sp,112
   1455c:	8082                	ret
   1455e:	8526                	mv	a0,s1
   14560:	4601                	li	a2,0
   14562:	4681                	li	a3,0
   14564:	45a1                	li	a1,8
   14566:	470d                	li	a4,3
   14568:	00000073          	ecall
   1456c:	45a1                	li	a1,8
   1456e:	470d                	li	a4,3
   14570:	8526                	mv	a0,s1
   14572:	4601                	li	a2,0
   14574:	4681                	li	a3,0
   14576:	00000073          	ecall
   1457a:	00190513          	addi	a0,s2,1
   1457e:	082c                	addi	a1,sp,24
   14580:	04800613          	li	a2,72
   14584:	00007097          	auipc	ra,0x7
   14588:	7d0080e7          	jalr	2000(ra) # 1bd54 <memcpy>
   1458c:	8526                	mv	a0,s1
   1458e:	4601                	li	a2,0
   14590:	4681                	li	a3,0
   14592:	00090023          	sb	zero,0(s2)
   14596:	45a1                	li	a1,8
   14598:	470d                	li	a4,3
   1459a:	00000073          	ecall
   1459e:	458d                	li	a1,3
   145a0:	4711                	li	a4,4
   145a2:	8526                	mv	a0,s1
   145a4:	4601                	li	a2,0
   145a6:	4681                	li	a3,0
   145a8:	00000073          	ecall
   145ac:	50b6                	lw	ra,108(sp)
   145ae:	5426                	lw	s0,104(sp)
   145b0:	5496                	lw	s1,100(sp)
   145b2:	5906                	lw	s2,96(sp)
   145b4:	6165                	addi	sp,sp,112
   145b6:	8082                	ret

000145b8 <_ZN18complex_no_dynamic3app17h634975364d5e4938E>:
   145b8:	7119                	addi	sp,sp,-128
   145ba:	de86                	sw	ra,124(sp)
   145bc:	dca2                	sw	s0,120(sp)
   145be:	842a                	mv	s0,a0
   145c0:	0068                	addi	a0,sp,12
   145c2:	05000613          	li	a2,80
   145c6:	00007097          	auipc	ra,0x7
   145ca:	78e080e7          	jalr	1934(ra) # 1bd54 <memcpy>
   145ce:	d682                	sw	zero,108(sp)
   145d0:	d882                	sw	zero,112(sp)
   145d2:	06011a23          	sh	zero,116(sp)
   145d6:	06010b23          	sb	zero,118(sp)
   145da:	ce82                	sw	zero,92(sp)
   145dc:	d082                	sw	zero,96(sp)
   145de:	d282                	sw	zero,100(sp)
   145e0:	d482                	sw	zero,104(sp)
   145e2:	3d900513          	li	a0,985
   145e6:	4585                	li	a1,1
   145e8:	0070                	addi	a2,sp,12
   145ea:	05000693          	li	a3,80
   145ee:	4711                	li	a4,4
   145f0:	4789                	li	a5,2
   145f2:	00000073          	ecall
   145f6:	4805                	li	a6,1
   145f8:	02f50863          	beq	a0,a5,14628 <_ZN18complex_no_dynamic3app17h634975364d5e4938E+0x70>
   145fc:	3d900513          	li	a0,985
   14600:	4589                	li	a1,2
   14602:	08f0                	addi	a2,sp,92
   14604:	46ed                	li	a3,27
   14606:	470d                	li	a4,3
   14608:	00000073          	ecall
   1460c:	00f50e63          	beq	a0,a5,14628 <_ZN18complex_no_dynamic3app17h634975364d5e4938E+0x70>
   14610:	3d900513          	li	a0,985
   14614:	4585                	li	a1,1
   14616:	4609                	li	a2,2
   14618:	4709                	li	a4,2
   1461a:	07f00793          	li	a5,127
   1461e:	4681                	li	a3,0
   14620:	00000073          	ecall
   14624:	02a7e963          	bltu	a5,a0,14656 <_ZN18complex_no_dynamic3app17h634975364d5e4938E+0x9e>
   14628:	4601                	li	a2,0
   1462a:	4681                	li	a3,0
   1462c:	01040023          	sb	a6,0(s0)
   14630:	c04c                	sw	a1,4(s0)
   14632:	3d900513          	li	a0,985
   14636:	4589                	li	a1,2
   14638:	470d                	li	a4,3
   1463a:	00000073          	ecall
   1463e:	3d900513          	li	a0,985
   14642:	4585                	li	a1,1
   14644:	4711                	li	a4,4
   14646:	4601                	li	a2,0
   14648:	4681                	li	a3,0
   1464a:	00000073          	ecall
   1464e:	50f6                	lw	ra,124(sp)
   14650:	5466                	lw	s0,120(sp)
   14652:	6109                	addi	sp,sp,128
   14654:	8082                	ret
   14656:	4601                	li	a2,0
   14658:	4681                	li	a3,0
   1465a:	3d900513          	li	a0,985
   1465e:	4589                	li	a1,2
   14660:	470d                	li	a4,3
   14662:	00000073          	ecall
   14666:	3d900513          	li	a0,985
   1466a:	4589                	li	a1,2
   1466c:	470d                	li	a4,3
   1466e:	4601                	li	a2,0
   14670:	4681                	li	a3,0
   14672:	00000073          	ecall
   14676:	00140513          	addi	a0,s0,1
   1467a:	08ec                	addi	a1,sp,92
   1467c:	466d                	li	a2,27
   1467e:	00007097          	auipc	ra,0x7
   14682:	6d6080e7          	jalr	1750(ra) # 1bd54 <memcpy>
   14686:	4601                	li	a2,0
   14688:	4681                	li	a3,0
   1468a:	00040023          	sb	zero,0(s0)
   1468e:	3d900513          	li	a0,985
   14692:	4589                	li	a1,2
   14694:	470d                	li	a4,3
   14696:	00000073          	ecall
   1469a:	3d900513          	li	a0,985
   1469e:	4585                	li	a1,1
   146a0:	4711                	li	a4,4
   146a2:	4601                	li	a2,0
   146a4:	4681                	li	a3,0
   146a6:	00000073          	ecall
   146aa:	50f6                	lw	ra,124(sp)
   146ac:	5466                	lw	s0,120(sp)
   146ae:	6109                	addi	sp,sp,128
   146b0:	8082                	ret

000146b2 <_ZN18complex_no_dynamic3app17h6591b44eb831b0eeE>:
   146b2:	711d                	addi	sp,sp,-96
   146b4:	ce86                	sw	ra,92(sp)
   146b6:	cca2                	sw	s0,88(sp)
   146b8:	caa6                	sw	s1,84(sp)
   146ba:	c8ca                	sw	s2,80(sp)
   146bc:	892a                	mv	s2,a0
   146be:	0145c803          	lbu	a6,20(a1)
   146c2:	0155c383          	lbu	t2,21(a1)
   146c6:	0165c403          	lbu	s0,22(a1)
   146ca:	0175c703          	lbu	a4,23(a1)
   146ce:	0105c783          	lbu	a5,16(a1)
   146d2:	0115c683          	lbu	a3,17(a1)
   146d6:	0125c283          	lbu	t0,18(a1)
   146da:	0135c303          	lbu	t1,19(a1)
   146de:	00c5c883          	lbu	a7,12(a1)
   146e2:	00d5c483          	lbu	s1,13(a1)
   146e6:	00e5c503          	lbu	a0,14(a1)
   146ea:	00f5c603          	lbu	a2,15(a1)
   146ee:	03a2                	slli	t2,t2,0x8
   146f0:	0442                	slli	s0,s0,0x10
   146f2:	0762                	slli	a4,a4,0x18
   146f4:	06a2                	slli	a3,a3,0x8
   146f6:	0103e833          	or	a6,t2,a6
   146fa:	00876e33          	or	t3,a4,s0
   146fe:	00f6e3b3          	or	t2,a3,a5
   14702:	0085c703          	lbu	a4,8(a1)
   14706:	0095c783          	lbu	a5,9(a1)
   1470a:	00a5c683          	lbu	a3,10(a1)
   1470e:	00b5c403          	lbu	s0,11(a1)
   14712:	02c2                	slli	t0,t0,0x10
   14714:	0362                	slli	t1,t1,0x18
   14716:	04a2                	slli	s1,s1,0x8
   14718:	0542                	slli	a0,a0,0x10
   1471a:	0662                	slli	a2,a2,0x18
   1471c:	07a2                	slli	a5,a5,0x8
   1471e:	005362b3          	or	t0,t1,t0
   14722:	0114e8b3          	or	a7,s1,a7
   14726:	00a66333          	or	t1,a2,a0
   1472a:	00e7eeb3          	or	t4,a5,a4
   1472e:	0045c603          	lbu	a2,4(a1)
   14732:	0055c783          	lbu	a5,5(a1)
   14736:	0065c483          	lbu	s1,6(a1)
   1473a:	0075c503          	lbu	a0,7(a1)
   1473e:	06c2                	slli	a3,a3,0x10
   14740:	0462                	slli	s0,s0,0x18
   14742:	07a2                	slli	a5,a5,0x8
   14744:	04c2                	slli	s1,s1,0x10
   14746:	0562                	slli	a0,a0,0x18
   14748:	8ec1                	or	a3,a3,s0
   1474a:	8e5d                	or	a2,a2,a5
   1474c:	0005c783          	lbu	a5,0(a1)
   14750:	0015c403          	lbu	s0,1(a1)
   14754:	8d45                	or	a0,a0,s1
   14756:	0025c483          	lbu	s1,2(a1)
   1475a:	0035c583          	lbu	a1,3(a1)
   1475e:	0422                	slli	s0,s0,0x8
   14760:	8fc1                	or	a5,a5,s0
   14762:	04c2                	slli	s1,s1,0x10
   14764:	05e2                	slli	a1,a1,0x18
   14766:	8dc5                	or	a1,a1,s1
   14768:	010e64b3          	or	s1,t3,a6
   1476c:	0072e433          	or	s0,t0,t2
   14770:	01136733          	or	a4,t1,a7
   14774:	01d6e6b3          	or	a3,a3,t4
   14778:	8d51                	or	a0,a0,a2
   1477a:	8ddd                	or	a1,a1,a5
   1477c:	c822                	sw	s0,16(sp)
   1477e:	ca26                	sw	s1,20(sp)
   14780:	c02e                	sw	a1,0(sp)
   14782:	c22a                	sw	a0,4(sp)
   14784:	c436                	sw	a3,8(sp)
   14786:	c63a                	sw	a4,12(sp)
   14788:	01a10513          	addi	a0,sp,26
   1478c:	03600613          	li	a2,54
   14790:	4581                	li	a1,0
   14792:	00007097          	auipc	ra,0x7
   14796:	556080e7          	jalr	1366(ra) # 1bce8 <memset>
   1479a:	0f300513          	li	a0,243
   1479e:	45a1                	li	a1,8
   147a0:	860a                	mv	a2,sp
   147a2:	46e1                	li	a3,24
   147a4:	4711                	li	a4,4
   147a6:	4789                	li	a5,2
   147a8:	00000073          	ecall
   147ac:	02f50a63          	beq	a0,a5,147e0 <_ZN18complex_no_dynamic3app17h6591b44eb831b0eeE+0x12e>
   147b0:	0f300513          	li	a0,243
   147b4:	4591                	li	a1,4
   147b6:	01a10613          	addi	a2,sp,26
   147ba:	03600693          	li	a3,54
   147be:	470d                	li	a4,3
   147c0:	00000073          	ecall
   147c4:	00f50e63          	beq	a0,a5,147e0 <_ZN18complex_no_dynamic3app17h6591b44eb831b0eeE+0x12e>
   147c8:	0f300513          	li	a0,243
   147cc:	45a1                	li	a1,8
   147ce:	4611                	li	a2,4
   147d0:	4709                	li	a4,2
   147d2:	07f00793          	li	a5,127
   147d6:	4681                	li	a3,0
   147d8:	00000073          	ecall
   147dc:	02a7ed63          	bltu	a5,a0,14816 <_ZN18complex_no_dynamic3app17h6591b44eb831b0eeE+0x164>
   147e0:	4601                	li	a2,0
   147e2:	4681                	li	a3,0
   147e4:	4705                	li	a4,1
   147e6:	0f300513          	li	a0,243
   147ea:	00e90023          	sb	a4,0(s2)
   147ee:	00b92223          	sw	a1,4(s2)
   147f2:	4591                	li	a1,4
   147f4:	470d                	li	a4,3
   147f6:	00000073          	ecall
   147fa:	0f300513          	li	a0,243
   147fe:	45a1                	li	a1,8
   14800:	4711                	li	a4,4
   14802:	4601                	li	a2,0
   14804:	4681                	li	a3,0
   14806:	00000073          	ecall
   1480a:	40f6                	lw	ra,92(sp)
   1480c:	4466                	lw	s0,88(sp)
   1480e:	44d6                	lw	s1,84(sp)
   14810:	4946                	lw	s2,80(sp)
   14812:	6125                	addi	sp,sp,96
   14814:	8082                	ret
   14816:	4601                	li	a2,0
   14818:	4681                	li	a3,0
   1481a:	0f300513          	li	a0,243
   1481e:	4591                	li	a1,4
   14820:	470d                	li	a4,3
   14822:	00000073          	ecall
   14826:	0f300513          	li	a0,243
   1482a:	4591                	li	a1,4
   1482c:	470d                	li	a4,3
   1482e:	4601                	li	a2,0
   14830:	4681                	li	a3,0
   14832:	00000073          	ecall
   14836:	00190513          	addi	a0,s2,1
   1483a:	01a10593          	addi	a1,sp,26
   1483e:	03600613          	li	a2,54
   14842:	00007097          	auipc	ra,0x7
   14846:	512080e7          	jalr	1298(ra) # 1bd54 <memcpy>
   1484a:	4601                	li	a2,0
   1484c:	4681                	li	a3,0
   1484e:	00090023          	sb	zero,0(s2)
   14852:	0f300513          	li	a0,243
   14856:	4591                	li	a1,4
   14858:	470d                	li	a4,3
   1485a:	00000073          	ecall
   1485e:	0f300513          	li	a0,243
   14862:	45a1                	li	a1,8
   14864:	4711                	li	a4,4
   14866:	4601                	li	a2,0
   14868:	4681                	li	a3,0
   1486a:	00000073          	ecall
   1486e:	40f6                	lw	ra,92(sp)
   14870:	4466                	lw	s0,88(sp)
   14872:	44d6                	lw	s1,84(sp)
   14874:	4946                	lw	s2,80(sp)
   14876:	6125                	addi	sp,sp,96
   14878:	8082                	ret

0001487a <_ZN18complex_no_dynamic3app17h65b3e0da9010a6b0E>:
   1487a:	7131                	addi	sp,sp,-192
   1487c:	df06                	sw	ra,188(sp)
   1487e:	dd22                	sw	s0,184(sp)
   14880:	842a                	mv	s0,a0
   14882:	0028                	addi	a0,sp,8
   14884:	04f00613          	li	a2,79
   14888:	00007097          	auipc	ra,0x7
   1488c:	4cc080e7          	jalr	1228(ra) # 1bd54 <memcpy>
   14890:	05710513          	addi	a0,sp,87
   14894:	06100613          	li	a2,97
   14898:	4581                	li	a1,0
   1489a:	00007097          	auipc	ra,0x7
   1489e:	44e080e7          	jalr	1102(ra) # 1bce8 <memset>
   148a2:	4789                	li	a5,2
   148a4:	1b600513          	li	a0,438
   148a8:	4589                	li	a1,2
   148aa:	0030                	addi	a2,sp,8
   148ac:	04f00693          	li	a3,79
   148b0:	4711                	li	a4,4
   148b2:	00000073          	ecall
   148b6:	02f50a63          	beq	a0,a5,148ea <_ZN18complex_no_dynamic3app17h65b3e0da9010a6b0E+0x70>
   148ba:	1b600513          	li	a0,438
   148be:	45a1                	li	a1,8
   148c0:	05710613          	addi	a2,sp,87
   148c4:	06100693          	li	a3,97
   148c8:	470d                	li	a4,3
   148ca:	00000073          	ecall
   148ce:	00f50e63          	beq	a0,a5,148ea <_ZN18complex_no_dynamic3app17h65b3e0da9010a6b0E+0x70>
   148d2:	1b600513          	li	a0,438
   148d6:	4589                	li	a1,2
   148d8:	4621                	li	a2,8
   148da:	4709                	li	a4,2
   148dc:	07f00793          	li	a5,127
   148e0:	4681                	li	a3,0
   148e2:	00000073          	ecall
   148e6:	02a7ea63          	bltu	a5,a0,1491a <_ZN18complex_no_dynamic3app17h65b3e0da9010a6b0E+0xa0>
   148ea:	4601                	li	a2,0
   148ec:	4681                	li	a3,0
   148ee:	4705                	li	a4,1
   148f0:	1b600513          	li	a0,438
   148f4:	00e40023          	sb	a4,0(s0)
   148f8:	c04c                	sw	a1,4(s0)
   148fa:	45a1                	li	a1,8
   148fc:	470d                	li	a4,3
   148fe:	00000073          	ecall
   14902:	1b600513          	li	a0,438
   14906:	4589                	li	a1,2
   14908:	4711                	li	a4,4
   1490a:	4601                	li	a2,0
   1490c:	4681                	li	a3,0
   1490e:	00000073          	ecall
   14912:	50fa                	lw	ra,188(sp)
   14914:	546a                	lw	s0,184(sp)
   14916:	6129                	addi	sp,sp,192
   14918:	8082                	ret
   1491a:	4601                	li	a2,0
   1491c:	4681                	li	a3,0
   1491e:	1b600513          	li	a0,438
   14922:	45a1                	li	a1,8
   14924:	470d                	li	a4,3
   14926:	00000073          	ecall
   1492a:	1b600513          	li	a0,438
   1492e:	45a1                	li	a1,8
   14930:	470d                	li	a4,3
   14932:	4601                	li	a2,0
   14934:	4681                	li	a3,0
   14936:	00000073          	ecall
   1493a:	00140513          	addi	a0,s0,1
   1493e:	05710593          	addi	a1,sp,87
   14942:	06100613          	li	a2,97
   14946:	00007097          	auipc	ra,0x7
   1494a:	40e080e7          	jalr	1038(ra) # 1bd54 <memcpy>
   1494e:	4601                	li	a2,0
   14950:	4681                	li	a3,0
   14952:	00040023          	sb	zero,0(s0)
   14956:	1b600513          	li	a0,438
   1495a:	45a1                	li	a1,8
   1495c:	470d                	li	a4,3
   1495e:	00000073          	ecall
   14962:	1b600513          	li	a0,438
   14966:	4589                	li	a1,2
   14968:	4711                	li	a4,4
   1496a:	4601                	li	a2,0
   1496c:	4681                	li	a3,0
   1496e:	00000073          	ecall
   14972:	50fa                	lw	ra,188(sp)
   14974:	546a                	lw	s0,184(sp)
   14976:	6129                	addi	sp,sp,192
   14978:	8082                	ret

0001497a <_ZN18complex_no_dynamic3app17h68331e8bd701bbafE>:
   1497a:	7159                	addi	sp,sp,-112
   1497c:	d686                	sw	ra,108(sp)
   1497e:	d4a2                	sw	s0,104(sp)
   14980:	d2a6                	sw	s1,100(sp)
   14982:	842a                	mv	s0,a0
   14984:	00e10513          	addi	a0,sp,14
   14988:	02c00613          	li	a2,44
   1498c:	00007097          	auipc	ra,0x7
   14990:	3c8080e7          	jalr	968(ra) # 1bd54 <memcpy>
   14994:	03a10513          	addi	a0,sp,58
   14998:	02a00613          	li	a2,42
   1499c:	4581                	li	a1,0
   1499e:	00007097          	auipc	ra,0x7
   149a2:	34a080e7          	jalr	842(ra) # 1bce8 <memset>
   149a6:	6509                	lui	a0,0x2
   149a8:	458d                	li	a1,3
   149aa:	00e10613          	addi	a2,sp,14
   149ae:	02c00693          	li	a3,44
   149b2:	4f050793          	addi	a5,a0,1264 # 24f0 <.Lline_table_start1+0x22c5>
   149b6:	4711                	li	a4,4
   149b8:	4489                	li	s1,2
   149ba:	853e                	mv	a0,a5
   149bc:	00000073          	ecall
   149c0:	02950b63          	beq	a0,s1,149f6 <_ZN18complex_no_dynamic3app17h68331e8bd701bbafE+0x7c>
   149c4:	03a10613          	addi	a2,sp,58
   149c8:	02a00693          	li	a3,42
   149cc:	470d                	li	a4,3
   149ce:	853e                	mv	a0,a5
   149d0:	4581                	li	a1,0
   149d2:	00000073          	ecall
   149d6:	02950063          	beq	a0,s1,149f6 <_ZN18complex_no_dynamic3app17h68331e8bd701bbafE+0x7c>
   149da:	6509                	lui	a0,0x2
   149dc:	458d                	li	a1,3
   149de:	4f050493          	addi	s1,a0,1264 # 24f0 <.Lline_table_start1+0x22c5>
   149e2:	4709                	li	a4,2
   149e4:	07f00813          	li	a6,127
   149e8:	8526                	mv	a0,s1
   149ea:	4601                	li	a2,0
   149ec:	4681                	li	a3,0
   149ee:	00000073          	ecall
   149f2:	02a86a63          	bltu	a6,a0,14a26 <_ZN18complex_no_dynamic3app17h68331e8bd701bbafE+0xac>
   149f6:	872e                	mv	a4,a1
   149f8:	853e                	mv	a0,a5
   149fa:	4581                	li	a1,0
   149fc:	4601                	li	a2,0
   149fe:	4681                	li	a3,0
   14a00:	4485                	li	s1,1
   14a02:	00940023          	sb	s1,0(s0)
   14a06:	c058                	sw	a4,4(s0)
   14a08:	470d                	li	a4,3
   14a0a:	00000073          	ecall
   14a0e:	458d                	li	a1,3
   14a10:	4711                	li	a4,4
   14a12:	853e                	mv	a0,a5
   14a14:	4601                	li	a2,0
   14a16:	4681                	li	a3,0
   14a18:	00000073          	ecall
   14a1c:	50b6                	lw	ra,108(sp)
   14a1e:	5426                	lw	s0,104(sp)
   14a20:	5496                	lw	s1,100(sp)
   14a22:	6165                	addi	sp,sp,112
   14a24:	8082                	ret
   14a26:	470d                	li	a4,3
   14a28:	8526                	mv	a0,s1
   14a2a:	4581                	li	a1,0
   14a2c:	4601                	li	a2,0
   14a2e:	4681                	li	a3,0
   14a30:	00000073          	ecall
   14a34:	470d                	li	a4,3
   14a36:	8526                	mv	a0,s1
   14a38:	4581                	li	a1,0
   14a3a:	4601                	li	a2,0
   14a3c:	4681                	li	a3,0
   14a3e:	00000073          	ecall
   14a42:	00140513          	addi	a0,s0,1
   14a46:	03a10593          	addi	a1,sp,58
   14a4a:	02a00613          	li	a2,42
   14a4e:	00007097          	auipc	ra,0x7
   14a52:	306080e7          	jalr	774(ra) # 1bd54 <memcpy>
   14a56:	8526                	mv	a0,s1
   14a58:	4581                	li	a1,0
   14a5a:	4601                	li	a2,0
   14a5c:	4681                	li	a3,0
   14a5e:	00040023          	sb	zero,0(s0)
   14a62:	470d                	li	a4,3
   14a64:	00000073          	ecall
   14a68:	458d                	li	a1,3
   14a6a:	4711                	li	a4,4
   14a6c:	8526                	mv	a0,s1
   14a6e:	4601                	li	a2,0
   14a70:	4681                	li	a3,0
   14a72:	00000073          	ecall
   14a76:	50b6                	lw	ra,108(sp)
   14a78:	5426                	lw	s0,104(sp)
   14a7a:	5496                	lw	s1,100(sp)
   14a7c:	6165                	addi	sp,sp,112
   14a7e:	8082                	ret

00014a80 <_ZN18complex_no_dynamic3app17h6970839df8723ff8E>:
   14a80:	7119                	addi	sp,sp,-128
   14a82:	de86                	sw	ra,124(sp)
   14a84:	dca2                	sw	s0,120(sp)
   14a86:	daa6                	sw	s1,116(sp)
   14a88:	842a                	mv	s0,a0
   14a8a:	00d10513          	addi	a0,sp,13
   14a8e:	04400613          	li	a2,68
   14a92:	00007097          	auipc	ra,0x7
   14a96:	2c2080e7          	jalr	706(ra) # 1bd54 <memcpy>
   14a9a:	05110513          	addi	a0,sp,81
   14a9e:	02300613          	li	a2,35
   14aa2:	4581                	li	a1,0
   14aa4:	00007097          	auipc	ra,0x7
   14aa8:	244080e7          	jalr	580(ra) # 1bce8 <memset>
   14aac:	6505                	lui	a0,0x1
   14aae:	4599                	li	a1,6
   14ab0:	00d10613          	addi	a2,sp,13
   14ab4:	04400693          	li	a3,68
   14ab8:	9bf50793          	addi	a5,a0,-1601 # 9bf <.Lline_table_start1+0x794>
   14abc:	4711                	li	a4,4
   14abe:	4489                	li	s1,2
   14ac0:	853e                	mv	a0,a5
   14ac2:	00000073          	ecall
   14ac6:	02950b63          	beq	a0,s1,14afc <_ZN18complex_no_dynamic3app17h6970839df8723ff8E+0x7c>
   14aca:	458d                	li	a1,3
   14acc:	05110613          	addi	a2,sp,81
   14ad0:	02300693          	li	a3,35
   14ad4:	470d                	li	a4,3
   14ad6:	853e                	mv	a0,a5
   14ad8:	00000073          	ecall
   14adc:	02950063          	beq	a0,s1,14afc <_ZN18complex_no_dynamic3app17h6970839df8723ff8E+0x7c>
   14ae0:	6505                	lui	a0,0x1
   14ae2:	4599                	li	a1,6
   14ae4:	460d                	li	a2,3
   14ae6:	9bf50493          	addi	s1,a0,-1601 # 9bf <.Lline_table_start1+0x794>
   14aea:	4709                	li	a4,2
   14aec:	07f00813          	li	a6,127
   14af0:	8526                	mv	a0,s1
   14af2:	4681                	li	a3,0
   14af4:	00000073          	ecall
   14af8:	02a86963          	bltu	a6,a0,14b2a <_ZN18complex_no_dynamic3app17h6970839df8723ff8E+0xaa>
   14afc:	853e                	mv	a0,a5
   14afe:	4601                	li	a2,0
   14b00:	4681                	li	a3,0
   14b02:	4705                	li	a4,1
   14b04:	00e40023          	sb	a4,0(s0)
   14b08:	c04c                	sw	a1,4(s0)
   14b0a:	458d                	li	a1,3
   14b0c:	470d                	li	a4,3
   14b0e:	00000073          	ecall
   14b12:	4599                	li	a1,6
   14b14:	4711                	li	a4,4
   14b16:	853e                	mv	a0,a5
   14b18:	4601                	li	a2,0
   14b1a:	4681                	li	a3,0
   14b1c:	00000073          	ecall
   14b20:	50f6                	lw	ra,124(sp)
   14b22:	5466                	lw	s0,120(sp)
   14b24:	54d6                	lw	s1,116(sp)
   14b26:	6109                	addi	sp,sp,128
   14b28:	8082                	ret
   14b2a:	8526                	mv	a0,s1
   14b2c:	4601                	li	a2,0
   14b2e:	4681                	li	a3,0
   14b30:	458d                	li	a1,3
   14b32:	470d                	li	a4,3
   14b34:	00000073          	ecall
   14b38:	458d                	li	a1,3
   14b3a:	470d                	li	a4,3
   14b3c:	8526                	mv	a0,s1
   14b3e:	4601                	li	a2,0
   14b40:	4681                	li	a3,0
   14b42:	00000073          	ecall
   14b46:	00140513          	addi	a0,s0,1
   14b4a:	05110593          	addi	a1,sp,81
   14b4e:	02300613          	li	a2,35
   14b52:	00007097          	auipc	ra,0x7
   14b56:	202080e7          	jalr	514(ra) # 1bd54 <memcpy>
   14b5a:	8526                	mv	a0,s1
   14b5c:	4601                	li	a2,0
   14b5e:	4681                	li	a3,0
   14b60:	00040023          	sb	zero,0(s0)
   14b64:	458d                	li	a1,3
   14b66:	470d                	li	a4,3
   14b68:	00000073          	ecall
   14b6c:	4599                	li	a1,6
   14b6e:	4711                	li	a4,4
   14b70:	8526                	mv	a0,s1
   14b72:	4601                	li	a2,0
   14b74:	4681                	li	a3,0
   14b76:	00000073          	ecall
   14b7a:	50f6                	lw	ra,124(sp)
   14b7c:	5466                	lw	s0,120(sp)
   14b7e:	54d6                	lw	s1,116(sp)
   14b80:	6109                	addi	sp,sp,128
   14b82:	8082                	ret

00014b84 <_ZN18complex_no_dynamic3app17h6a4864b91f958e15E>:
   14b84:	7171                	addi	sp,sp,-176
   14b86:	d706                	sw	ra,172(sp)
   14b88:	d522                	sw	s0,168(sp)
   14b8a:	d326                	sw	s1,164(sp)
   14b8c:	842a                	mv	s0,a0
   14b8e:	00510513          	addi	a0,sp,5
   14b92:	05600613          	li	a2,86
   14b96:	00007097          	auipc	ra,0x7
   14b9a:	1be080e7          	jalr	446(ra) # 1bd54 <memcpy>
   14b9e:	05b10513          	addi	a0,sp,91
   14ba2:	04900613          	li	a2,73
   14ba6:	4581                	li	a1,0
   14ba8:	00007097          	auipc	ra,0x7
   14bac:	140080e7          	jalr	320(ra) # 1bce8 <memset>
   14bb0:	6509                	lui	a0,0x2
   14bb2:	4599                	li	a1,6
   14bb4:	00510613          	addi	a2,sp,5
   14bb8:	05600693          	li	a3,86
   14bbc:	c6b50793          	addi	a5,a0,-917 # 1c6b <.Lline_table_start1+0x1a40>
   14bc0:	4711                	li	a4,4
   14bc2:	4489                	li	s1,2
   14bc4:	853e                	mv	a0,a5
   14bc6:	00000073          	ecall
   14bca:	02950b63          	beq	a0,s1,14c00 <_ZN18complex_no_dynamic3app17h6a4864b91f958e15E+0x7c>
   14bce:	4599                	li	a1,6
   14bd0:	05b10613          	addi	a2,sp,91
   14bd4:	04900693          	li	a3,73
   14bd8:	470d                	li	a4,3
   14bda:	853e                	mv	a0,a5
   14bdc:	00000073          	ecall
   14be0:	02950063          	beq	a0,s1,14c00 <_ZN18complex_no_dynamic3app17h6a4864b91f958e15E+0x7c>
   14be4:	6509                	lui	a0,0x2
   14be6:	4599                	li	a1,6
   14be8:	4619                	li	a2,6
   14bea:	c6b50493          	addi	s1,a0,-917 # 1c6b <.Lline_table_start1+0x1a40>
   14bee:	4709                	li	a4,2
   14bf0:	07f00813          	li	a6,127
   14bf4:	8526                	mv	a0,s1
   14bf6:	4681                	li	a3,0
   14bf8:	00000073          	ecall
   14bfc:	02a86963          	bltu	a6,a0,14c2e <_ZN18complex_no_dynamic3app17h6a4864b91f958e15E+0xaa>
   14c00:	853e                	mv	a0,a5
   14c02:	4601                	li	a2,0
   14c04:	4681                	li	a3,0
   14c06:	4705                	li	a4,1
   14c08:	00e40023          	sb	a4,0(s0)
   14c0c:	c04c                	sw	a1,4(s0)
   14c0e:	4599                	li	a1,6
   14c10:	470d                	li	a4,3
   14c12:	00000073          	ecall
   14c16:	4599                	li	a1,6
   14c18:	4711                	li	a4,4
   14c1a:	853e                	mv	a0,a5
   14c1c:	4601                	li	a2,0
   14c1e:	4681                	li	a3,0
   14c20:	00000073          	ecall
   14c24:	50ba                	lw	ra,172(sp)
   14c26:	542a                	lw	s0,168(sp)
   14c28:	549a                	lw	s1,164(sp)
   14c2a:	614d                	addi	sp,sp,176
   14c2c:	8082                	ret
   14c2e:	8526                	mv	a0,s1
   14c30:	4601                	li	a2,0
   14c32:	4681                	li	a3,0
   14c34:	4599                	li	a1,6
   14c36:	470d                	li	a4,3
   14c38:	00000073          	ecall
   14c3c:	4599                	li	a1,6
   14c3e:	470d                	li	a4,3
   14c40:	8526                	mv	a0,s1
   14c42:	4601                	li	a2,0
   14c44:	4681                	li	a3,0
   14c46:	00000073          	ecall
   14c4a:	00140513          	addi	a0,s0,1
   14c4e:	05b10593          	addi	a1,sp,91
   14c52:	04900613          	li	a2,73
   14c56:	00007097          	auipc	ra,0x7
   14c5a:	0fe080e7          	jalr	254(ra) # 1bd54 <memcpy>
   14c5e:	8526                	mv	a0,s1
   14c60:	4601                	li	a2,0
   14c62:	4681                	li	a3,0
   14c64:	00040023          	sb	zero,0(s0)
   14c68:	4599                	li	a1,6
   14c6a:	470d                	li	a4,3
   14c6c:	00000073          	ecall
   14c70:	4599                	li	a1,6
   14c72:	4711                	li	a4,4
   14c74:	8526                	mv	a0,s1
   14c76:	4601                	li	a2,0
   14c78:	4681                	li	a3,0
   14c7a:	00000073          	ecall
   14c7e:	50ba                	lw	ra,172(sp)
   14c80:	542a                	lw	s0,168(sp)
   14c82:	549a                	lw	s1,164(sp)
   14c84:	614d                	addi	sp,sp,176
   14c86:	8082                	ret

00014c88 <_ZN18complex_no_dynamic3app17h71377809033a85b1E>:
   14c88:	7175                	addi	sp,sp,-144
   14c8a:	c706                	sw	ra,140(sp)
   14c8c:	c522                	sw	s0,136(sp)
   14c8e:	c326                	sw	s1,132(sp)
   14c90:	842a                	mv	s0,a0
   14c92:	00b10513          	addi	a0,sp,11
   14c96:	03100613          	li	a2,49
   14c9a:	00007097          	auipc	ra,0x7
   14c9e:	0ba080e7          	jalr	186(ra) # 1bd54 <memcpy>
   14ca2:	1868                	addi	a0,sp,60
   14ca4:	04800613          	li	a2,72
   14ca8:	4581                	li	a1,0
   14caa:	00007097          	auipc	ra,0x7
   14cae:	03e080e7          	jalr	62(ra) # 1bce8 <memset>
   14cb2:	6509                	lui	a0,0x2
   14cb4:	4591                	li	a1,4
   14cb6:	00b10613          	addi	a2,sp,11
   14cba:	03100693          	li	a3,49
   14cbe:	80e50793          	addi	a5,a0,-2034 # 180e <.Lline_table_start1+0x15e3>
   14cc2:	4711                	li	a4,4
   14cc4:	4489                	li	s1,2
   14cc6:	853e                	mv	a0,a5
   14cc8:	00000073          	ecall
   14ccc:	02950a63          	beq	a0,s1,14d00 <_ZN18complex_no_dynamic3app17h71377809033a85b1E+0x78>
   14cd0:	458d                	li	a1,3
   14cd2:	1870                	addi	a2,sp,60
   14cd4:	04800693          	li	a3,72
   14cd8:	470d                	li	a4,3
   14cda:	853e                	mv	a0,a5
   14cdc:	00000073          	ecall
   14ce0:	02950063          	beq	a0,s1,14d00 <_ZN18complex_no_dynamic3app17h71377809033a85b1E+0x78>
   14ce4:	6509                	lui	a0,0x2
   14ce6:	4591                	li	a1,4
   14ce8:	460d                	li	a2,3
   14cea:	80e50493          	addi	s1,a0,-2034 # 180e <.Lline_table_start1+0x15e3>
   14cee:	4709                	li	a4,2
   14cf0:	07f00813          	li	a6,127
   14cf4:	8526                	mv	a0,s1
   14cf6:	4681                	li	a3,0
   14cf8:	00000073          	ecall
   14cfc:	02a86963          	bltu	a6,a0,14d2e <_ZN18complex_no_dynamic3app17h71377809033a85b1E+0xa6>
   14d00:	853e                	mv	a0,a5
   14d02:	4601                	li	a2,0
   14d04:	4681                	li	a3,0
   14d06:	4705                	li	a4,1
   14d08:	00e40023          	sb	a4,0(s0)
   14d0c:	c04c                	sw	a1,4(s0)
   14d0e:	458d                	li	a1,3
   14d10:	470d                	li	a4,3
   14d12:	00000073          	ecall
   14d16:	4591                	li	a1,4
   14d18:	4711                	li	a4,4
   14d1a:	853e                	mv	a0,a5
   14d1c:	4601                	li	a2,0
   14d1e:	4681                	li	a3,0
   14d20:	00000073          	ecall
   14d24:	40ba                	lw	ra,140(sp)
   14d26:	442a                	lw	s0,136(sp)
   14d28:	449a                	lw	s1,132(sp)
   14d2a:	6149                	addi	sp,sp,144
   14d2c:	8082                	ret
   14d2e:	8526                	mv	a0,s1
   14d30:	4601                	li	a2,0
   14d32:	4681                	li	a3,0
   14d34:	458d                	li	a1,3
   14d36:	470d                	li	a4,3
   14d38:	00000073          	ecall
   14d3c:	458d                	li	a1,3
   14d3e:	470d                	li	a4,3
   14d40:	8526                	mv	a0,s1
   14d42:	4601                	li	a2,0
   14d44:	4681                	li	a3,0
   14d46:	00000073          	ecall
   14d4a:	00140513          	addi	a0,s0,1
   14d4e:	186c                	addi	a1,sp,60
   14d50:	04800613          	li	a2,72
   14d54:	00007097          	auipc	ra,0x7
   14d58:	000080e7          	jalr	ra # 1bd54 <memcpy>
   14d5c:	8526                	mv	a0,s1
   14d5e:	4601                	li	a2,0
   14d60:	4681                	li	a3,0
   14d62:	00040023          	sb	zero,0(s0)
   14d66:	458d                	li	a1,3
   14d68:	470d                	li	a4,3
   14d6a:	00000073          	ecall
   14d6e:	4591                	li	a1,4
   14d70:	4711                	li	a4,4
   14d72:	8526                	mv	a0,s1
   14d74:	4601                	li	a2,0
   14d76:	4681                	li	a3,0
   14d78:	00000073          	ecall
   14d7c:	40ba                	lw	ra,140(sp)
   14d7e:	442a                	lw	s0,136(sp)
   14d80:	449a                	lw	s1,132(sp)
   14d82:	6149                	addi	sp,sp,144
   14d84:	8082                	ret

00014d86 <_ZN18complex_no_dynamic3app17h726fe457844b1268E>:
   14d86:	7159                	addi	sp,sp,-112
   14d88:	d686                	sw	ra,108(sp)
   14d8a:	d4a2                	sw	s0,104(sp)
   14d8c:	d2a6                	sw	s1,100(sp)
   14d8e:	d0ca                	sw	s2,96(sp)
   14d90:	cece                	sw	s3,92(sp)
   14d92:	ccd2                	sw	s4,88(sp)
   14d94:	892a                	mv	s2,a0
   14d96:	01c5c303          	lbu	t1,28(a1)
   14d9a:	01d5c603          	lbu	a2,29(a1)
   14d9e:	0185c683          	lbu	a3,24(a1)
   14da2:	0195c703          	lbu	a4,25(a1)
   14da6:	01a5c803          	lbu	a6,26(a1)
   14daa:	01b5c283          	lbu	t0,27(a1)
   14dae:	0145c883          	lbu	a7,20(a1)
   14db2:	0155c383          	lbu	t2,21(a1)
   14db6:	0165c483          	lbu	s1,22(a1)
   14dba:	0175c403          	lbu	s0,23(a1)
   14dbe:	0105c503          	lbu	a0,16(a1)
   14dc2:	0115c783          	lbu	a5,17(a1)
   14dc6:	0125ce03          	lbu	t3,18(a1)
   14dca:	0135ce83          	lbu	t4,19(a1)
   14dce:	0622                	slli	a2,a2,0x8
   14dd0:	0722                	slli	a4,a4,0x8
   14dd2:	00666333          	or	t1,a2,t1
   14dd6:	00d76f33          	or	t5,a4,a3
   14dda:	00c5cf83          	lbu	t6,12(a1)
   14dde:	00d5c683          	lbu	a3,13(a1)
   14de2:	00e5c703          	lbu	a4,14(a1)
   14de6:	00f5c603          	lbu	a2,15(a1)
   14dea:	0842                	slli	a6,a6,0x10
   14dec:	02e2                	slli	t0,t0,0x18
   14dee:	03a2                	slli	t2,t2,0x8
   14df0:	04c2                	slli	s1,s1,0x10
   14df2:	0462                	slli	s0,s0,0x18
   14df4:	07a2                	slli	a5,a5,0x8
   14df6:	0102e2b3          	or	t0,t0,a6
   14dfa:	0113e833          	or	a6,t2,a7
   14dfe:	009463b3          	or	t2,s0,s1
   14e02:	00a7e8b3          	or	a7,a5,a0
   14e06:	0085c503          	lbu	a0,8(a1)
   14e0a:	0095c783          	lbu	a5,9(a1)
   14e0e:	00a5c403          	lbu	s0,10(a1)
   14e12:	00b5c483          	lbu	s1,11(a1)
   14e16:	0e42                	slli	t3,t3,0x10
   14e18:	0ee2                	slli	t4,t4,0x18
   14e1a:	06a2                	slli	a3,a3,0x8
   14e1c:	0742                	slli	a4,a4,0x10
   14e1e:	0662                	slli	a2,a2,0x18
   14e20:	07a2                	slli	a5,a5,0x8
   14e22:	01ceee33          	or	t3,t4,t3
   14e26:	01f6eeb3          	or	t4,a3,t6
   14e2a:	00e669b3          	or	s3,a2,a4
   14e2e:	00a7efb3          	or	t6,a5,a0
   14e32:	0045c703          	lbu	a4,4(a1)
   14e36:	0055c783          	lbu	a5,5(a1)
   14e3a:	0065c683          	lbu	a3,6(a1)
   14e3e:	0075c503          	lbu	a0,7(a1)
   14e42:	0442                	slli	s0,s0,0x10
   14e44:	04e2                	slli	s1,s1,0x18
   14e46:	07a2                	slli	a5,a5,0x8
   14e48:	06c2                	slli	a3,a3,0x10
   14e4a:	0562                	slli	a0,a0,0x18
   14e4c:	8c45                	or	s0,s0,s1
   14e4e:	00e7ea33          	or	s4,a5,a4
   14e52:	0005c783          	lbu	a5,0(a1)
   14e56:	0015c483          	lbu	s1,1(a1)
   14e5a:	8d55                	or	a0,a0,a3
   14e5c:	0025c683          	lbu	a3,2(a1)
   14e60:	0035c583          	lbu	a1,3(a1)
   14e64:	04a2                	slli	s1,s1,0x8
   14e66:	8fc5                	or	a5,a5,s1
   14e68:	06c2                	slli	a3,a3,0x10
   14e6a:	05e2                	slli	a1,a1,0x18
   14e6c:	8dd5                	or	a1,a1,a3
   14e6e:	01e2e6b3          	or	a3,t0,t5
   14e72:	0103e4b3          	or	s1,t2,a6
   14e76:	011e6633          	or	a2,t3,a7
   14e7a:	01d9e733          	or	a4,s3,t4
   14e7e:	01f46433          	or	s0,s0,t6
   14e82:	01456533          	or	a0,a0,s4
   14e86:	8ddd                	or	a1,a1,a5
   14e88:	ce32                	sw	a2,28(sp)
   14e8a:	d026                	sw	s1,32(sp)
   14e8c:	d236                	sw	a3,36(sp)
   14e8e:	02611423          	sh	t1,40(sp)
   14e92:	c62e                	sw	a1,12(sp)
   14e94:	c82a                	sw	a0,16(sp)
   14e96:	ca22                	sw	s0,20(sp)
   14e98:	cc3a                	sw	a4,24(sp)
   14e9a:	1068                	addi	a0,sp,44
   14e9c:	02c00613          	li	a2,44
   14ea0:	4581                	li	a1,0
   14ea2:	00007097          	auipc	ra,0x7
   14ea6:	e46080e7          	jalr	-442(ra) # 1bce8 <memset>
   14eaa:	3fb00513          	li	a0,1019
   14eae:	459d                	li	a1,7
   14eb0:	0070                	addi	a2,sp,12
   14eb2:	46f9                	li	a3,30
   14eb4:	4711                	li	a4,4
   14eb6:	4789                	li	a5,2
   14eb8:	00000073          	ecall
   14ebc:	02f50963          	beq	a0,a5,14eee <_ZN18complex_no_dynamic3app17h726fe457844b1268E+0x168>
   14ec0:	3fb00513          	li	a0,1019
   14ec4:	1070                	addi	a2,sp,44
   14ec6:	02c00693          	li	a3,44
   14eca:	470d                	li	a4,3
   14ecc:	4581                	li	a1,0
   14ece:	00000073          	ecall
   14ed2:	00f50e63          	beq	a0,a5,14eee <_ZN18complex_no_dynamic3app17h726fe457844b1268E+0x168>
   14ed6:	3fb00513          	li	a0,1019
   14eda:	459d                	li	a1,7
   14edc:	4709                	li	a4,2
   14ede:	07f00793          	li	a5,127
   14ee2:	4601                	li	a2,0
   14ee4:	4681                	li	a3,0
   14ee6:	00000073          	ecall
   14eea:	04a7e063          	bltu	a5,a0,14f2a <_ZN18complex_no_dynamic3app17h726fe457844b1268E+0x1a4>
   14eee:	872e                	mv	a4,a1
   14ef0:	4581                	li	a1,0
   14ef2:	4601                	li	a2,0
   14ef4:	4681                	li	a3,0
   14ef6:	4505                	li	a0,1
   14ef8:	00a90023          	sb	a0,0(s2)
   14efc:	00e92223          	sw	a4,4(s2)
   14f00:	3fb00513          	li	a0,1019
   14f04:	470d                	li	a4,3
   14f06:	00000073          	ecall
   14f0a:	3fb00513          	li	a0,1019
   14f0e:	459d                	li	a1,7
   14f10:	4711                	li	a4,4
   14f12:	4601                	li	a2,0
   14f14:	4681                	li	a3,0
   14f16:	00000073          	ecall
   14f1a:	50b6                	lw	ra,108(sp)
   14f1c:	5426                	lw	s0,104(sp)
   14f1e:	5496                	lw	s1,100(sp)
   14f20:	5906                	lw	s2,96(sp)
   14f22:	49f6                	lw	s3,92(sp)
   14f24:	4a66                	lw	s4,88(sp)
   14f26:	6165                	addi	sp,sp,112
   14f28:	8082                	ret
   14f2a:	4581                	li	a1,0
   14f2c:	4601                	li	a2,0
   14f2e:	4681                	li	a3,0
   14f30:	3fb00513          	li	a0,1019
   14f34:	470d                	li	a4,3
   14f36:	00000073          	ecall
   14f3a:	3fb00513          	li	a0,1019
   14f3e:	470d                	li	a4,3
   14f40:	4581                	li	a1,0
   14f42:	4601                	li	a2,0
   14f44:	4681                	li	a3,0
   14f46:	00000073          	ecall
   14f4a:	00190513          	addi	a0,s2,1
   14f4e:	106c                	addi	a1,sp,44
   14f50:	02c00613          	li	a2,44
   14f54:	00007097          	auipc	ra,0x7
   14f58:	e00080e7          	jalr	-512(ra) # 1bd54 <memcpy>
   14f5c:	4581                	li	a1,0
   14f5e:	4601                	li	a2,0
   14f60:	4681                	li	a3,0
   14f62:	00090023          	sb	zero,0(s2)
   14f66:	3fb00513          	li	a0,1019
   14f6a:	470d                	li	a4,3
   14f6c:	00000073          	ecall
   14f70:	3fb00513          	li	a0,1019
   14f74:	459d                	li	a1,7
   14f76:	4711                	li	a4,4
   14f78:	4601                	li	a2,0
   14f7a:	4681                	li	a3,0
   14f7c:	00000073          	ecall
   14f80:	bf69                	j	14f1a <_ZN18complex_no_dynamic3app17h726fe457844b1268E+0x194>

00014f82 <_ZN18complex_no_dynamic3app17h77d92d8e500d8084E>:
   14f82:	7159                	addi	sp,sp,-112
   14f84:	d686                	sw	ra,108(sp)
   14f86:	d4a2                	sw	s0,104(sp)
   14f88:	d2a6                	sw	s1,100(sp)
   14f8a:	842a                	mv	s0,a0
   14f8c:	00110513          	addi	a0,sp,1
   14f90:	04100613          	li	a2,65
   14f94:	00007097          	auipc	ra,0x7
   14f98:	dc0080e7          	jalr	-576(ra) # 1bd54 <memcpy>
   14f9c:	04210513          	addi	a0,sp,66
   14fa0:	02200613          	li	a2,34
   14fa4:	4581                	li	a1,0
   14fa6:	00007097          	auipc	ra,0x7
   14faa:	d42080e7          	jalr	-702(ra) # 1bce8 <memset>
   14fae:	6509                	lui	a0,0x2
   14fb0:	4585                	li	a1,1
   14fb2:	00110613          	addi	a2,sp,1
   14fb6:	04100693          	li	a3,65
   14fba:	4711                	li	a4,4
   14fbc:	47c50793          	addi	a5,a0,1148 # 247c <.Lline_table_start1+0x2251>
   14fc0:	4489                	li	s1,2
   14fc2:	853e                	mv	a0,a5
   14fc4:	00000073          	ecall
   14fc8:	4805                	li	a6,1
   14fca:	02950b63          	beq	a0,s1,15000 <_ZN18complex_no_dynamic3app17h77d92d8e500d8084E+0x7e>
   14fce:	04210613          	addi	a2,sp,66
   14fd2:	02200693          	li	a3,34
   14fd6:	470d                	li	a4,3
   14fd8:	853e                	mv	a0,a5
   14fda:	4581                	li	a1,0
   14fdc:	00000073          	ecall
   14fe0:	02950063          	beq	a0,s1,15000 <_ZN18complex_no_dynamic3app17h77d92d8e500d8084E+0x7e>
   14fe4:	6509                	lui	a0,0x2
   14fe6:	4585                	li	a1,1
   14fe8:	47c50493          	addi	s1,a0,1148 # 247c <.Lline_table_start1+0x2251>
   14fec:	4709                	li	a4,2
   14fee:	07f00893          	li	a7,127
   14ff2:	8526                	mv	a0,s1
   14ff4:	4601                	li	a2,0
   14ff6:	4681                	li	a3,0
   14ff8:	00000073          	ecall
   14ffc:	02a8e963          	bltu	a7,a0,1502e <_ZN18complex_no_dynamic3app17h77d92d8e500d8084E+0xac>
   15000:	872e                	mv	a4,a1
   15002:	853e                	mv	a0,a5
   15004:	4581                	li	a1,0
   15006:	4601                	li	a2,0
   15008:	4681                	li	a3,0
   1500a:	01040023          	sb	a6,0(s0)
   1500e:	c058                	sw	a4,4(s0)
   15010:	470d                	li	a4,3
   15012:	00000073          	ecall
   15016:	4585                	li	a1,1
   15018:	4711                	li	a4,4
   1501a:	853e                	mv	a0,a5
   1501c:	4601                	li	a2,0
   1501e:	4681                	li	a3,0
   15020:	00000073          	ecall
   15024:	50b6                	lw	ra,108(sp)
   15026:	5426                	lw	s0,104(sp)
   15028:	5496                	lw	s1,100(sp)
   1502a:	6165                	addi	sp,sp,112
   1502c:	8082                	ret
   1502e:	470d                	li	a4,3
   15030:	8526                	mv	a0,s1
   15032:	4581                	li	a1,0
   15034:	4601                	li	a2,0
   15036:	4681                	li	a3,0
   15038:	00000073          	ecall
   1503c:	470d                	li	a4,3
   1503e:	8526                	mv	a0,s1
   15040:	4581                	li	a1,0
   15042:	4601                	li	a2,0
   15044:	4681                	li	a3,0
   15046:	00000073          	ecall
   1504a:	00140513          	addi	a0,s0,1
   1504e:	04210593          	addi	a1,sp,66
   15052:	02200613          	li	a2,34
   15056:	00007097          	auipc	ra,0x7
   1505a:	cfe080e7          	jalr	-770(ra) # 1bd54 <memcpy>
   1505e:	8526                	mv	a0,s1
   15060:	4581                	li	a1,0
   15062:	4601                	li	a2,0
   15064:	4681                	li	a3,0
   15066:	00040023          	sb	zero,0(s0)
   1506a:	470d                	li	a4,3
   1506c:	00000073          	ecall
   15070:	4585                	li	a1,1
   15072:	4711                	li	a4,4
   15074:	8526                	mv	a0,s1
   15076:	4601                	li	a2,0
   15078:	4681                	li	a3,0
   1507a:	00000073          	ecall
   1507e:	50b6                	lw	ra,108(sp)
   15080:	5426                	lw	s0,104(sp)
   15082:	5496                	lw	s1,100(sp)
   15084:	6165                	addi	sp,sp,112
   15086:	8082                	ret

00015088 <_ZN18complex_no_dynamic3app17h7a99a3a1f1cc4fd0E>:
   15088:	7171                	addi	sp,sp,-176
   1508a:	d706                	sw	ra,172(sp)
   1508c:	d522                	sw	s0,168(sp)
   1508e:	d326                	sw	s1,164(sp)
   15090:	842a                	mv	s0,a0
   15092:	00710513          	addi	a0,sp,7
   15096:	05d00613          	li	a2,93
   1509a:	00007097          	auipc	ra,0x7
   1509e:	cba080e7          	jalr	-838(ra) # 1bd54 <memcpy>
   150a2:	10c8                	addi	a0,sp,100
   150a4:	04000613          	li	a2,64
   150a8:	4581                	li	a1,0
   150aa:	00007097          	auipc	ra,0x7
   150ae:	c3e080e7          	jalr	-962(ra) # 1bce8 <memset>
   150b2:	6505                	lui	a0,0x1
   150b4:	45a1                	li	a1,8
   150b6:	00710613          	addi	a2,sp,7
   150ba:	05d00693          	li	a3,93
   150be:	02850793          	addi	a5,a0,40 # 1028 <.Lline_table_start1+0xdfd>
   150c2:	4711                	li	a4,4
   150c4:	4489                	li	s1,2
   150c6:	853e                	mv	a0,a5
   150c8:	00000073          	ecall
   150cc:	02950a63          	beq	a0,s1,15100 <_ZN18complex_no_dynamic3app17h7a99a3a1f1cc4fd0E+0x78>
   150d0:	4591                	li	a1,4
   150d2:	10d0                	addi	a2,sp,100
   150d4:	04000693          	li	a3,64
   150d8:	470d                	li	a4,3
   150da:	853e                	mv	a0,a5
   150dc:	00000073          	ecall
   150e0:	02950063          	beq	a0,s1,15100 <_ZN18complex_no_dynamic3app17h7a99a3a1f1cc4fd0E+0x78>
   150e4:	6505                	lui	a0,0x1
   150e6:	45a1                	li	a1,8
   150e8:	4611                	li	a2,4
   150ea:	02850493          	addi	s1,a0,40 # 1028 <.Lline_table_start1+0xdfd>
   150ee:	4709                	li	a4,2
   150f0:	07f00813          	li	a6,127
   150f4:	8526                	mv	a0,s1
   150f6:	4681                	li	a3,0
   150f8:	00000073          	ecall
   150fc:	02a86963          	bltu	a6,a0,1512e <_ZN18complex_no_dynamic3app17h7a99a3a1f1cc4fd0E+0xa6>
   15100:	853e                	mv	a0,a5
   15102:	4601                	li	a2,0
   15104:	4681                	li	a3,0
   15106:	4705                	li	a4,1
   15108:	00e40023          	sb	a4,0(s0)
   1510c:	c04c                	sw	a1,4(s0)
   1510e:	4591                	li	a1,4
   15110:	470d                	li	a4,3
   15112:	00000073          	ecall
   15116:	45a1                	li	a1,8
   15118:	4711                	li	a4,4
   1511a:	853e                	mv	a0,a5
   1511c:	4601                	li	a2,0
   1511e:	4681                	li	a3,0
   15120:	00000073          	ecall
   15124:	50ba                	lw	ra,172(sp)
   15126:	542a                	lw	s0,168(sp)
   15128:	549a                	lw	s1,164(sp)
   1512a:	614d                	addi	sp,sp,176
   1512c:	8082                	ret
   1512e:	8526                	mv	a0,s1
   15130:	4601                	li	a2,0
   15132:	4681                	li	a3,0
   15134:	4591                	li	a1,4
   15136:	470d                	li	a4,3
   15138:	00000073          	ecall
   1513c:	4591                	li	a1,4
   1513e:	470d                	li	a4,3
   15140:	8526                	mv	a0,s1
   15142:	4601                	li	a2,0
   15144:	4681                	li	a3,0
   15146:	00000073          	ecall
   1514a:	00140513          	addi	a0,s0,1
   1514e:	10cc                	addi	a1,sp,100
   15150:	04000613          	li	a2,64
   15154:	00007097          	auipc	ra,0x7
   15158:	c00080e7          	jalr	-1024(ra) # 1bd54 <memcpy>
   1515c:	8526                	mv	a0,s1
   1515e:	4601                	li	a2,0
   15160:	4681                	li	a3,0
   15162:	00040023          	sb	zero,0(s0)
   15166:	4591                	li	a1,4
   15168:	470d                	li	a4,3
   1516a:	00000073          	ecall
   1516e:	45a1                	li	a1,8
   15170:	4711                	li	a4,4
   15172:	8526                	mv	a0,s1
   15174:	4601                	li	a2,0
   15176:	4681                	li	a3,0
   15178:	00000073          	ecall
   1517c:	50ba                	lw	ra,172(sp)
   1517e:	542a                	lw	s0,168(sp)
   15180:	549a                	lw	s1,164(sp)
   15182:	614d                	addi	sp,sp,176
   15184:	8082                	ret

00015186 <_ZN18complex_no_dynamic3app17h7ef29737027d874bE>:
   15186:	711d                	addi	sp,sp,-96
   15188:	ce86                	sw	ra,92(sp)
   1518a:	cca2                	sw	s0,88(sp)
   1518c:	caa6                	sw	s1,84(sp)
   1518e:	c8ca                	sw	s2,80(sp)
   15190:	c6ce                	sw	s3,76(sp)
   15192:	c4d2                	sw	s4,72(sp)
   15194:	892a                	mv	s2,a0
   15196:	01c5c303          	lbu	t1,28(a1)
   1519a:	01d5c603          	lbu	a2,29(a1)
   1519e:	0185c683          	lbu	a3,24(a1)
   151a2:	0195c703          	lbu	a4,25(a1)
   151a6:	01a5c803          	lbu	a6,26(a1)
   151aa:	01b5c283          	lbu	t0,27(a1)
   151ae:	0145c883          	lbu	a7,20(a1)
   151b2:	0155c383          	lbu	t2,21(a1)
   151b6:	0165c403          	lbu	s0,22(a1)
   151ba:	0175c483          	lbu	s1,23(a1)
   151be:	0105c503          	lbu	a0,16(a1)
   151c2:	0115c783          	lbu	a5,17(a1)
   151c6:	0125ce03          	lbu	t3,18(a1)
   151ca:	0135ce83          	lbu	t4,19(a1)
   151ce:	0622                	slli	a2,a2,0x8
   151d0:	0722                	slli	a4,a4,0x8
   151d2:	00666333          	or	t1,a2,t1
   151d6:	00d76f33          	or	t5,a4,a3
   151da:	00c5cf83          	lbu	t6,12(a1)
   151de:	00d5c683          	lbu	a3,13(a1)
   151e2:	00e5c703          	lbu	a4,14(a1)
   151e6:	00f5c603          	lbu	a2,15(a1)
   151ea:	0842                	slli	a6,a6,0x10
   151ec:	02e2                	slli	t0,t0,0x18
   151ee:	03a2                	slli	t2,t2,0x8
   151f0:	0442                	slli	s0,s0,0x10
   151f2:	04e2                	slli	s1,s1,0x18
   151f4:	07a2                	slli	a5,a5,0x8
   151f6:	0102e2b3          	or	t0,t0,a6
   151fa:	0113e833          	or	a6,t2,a7
   151fe:	0084e8b3          	or	a7,s1,s0
   15202:	00a7e3b3          	or	t2,a5,a0
   15206:	0085c503          	lbu	a0,8(a1)
   1520a:	0095c783          	lbu	a5,9(a1)
   1520e:	00a5c403          	lbu	s0,10(a1)
   15212:	00b5c483          	lbu	s1,11(a1)
   15216:	0e42                	slli	t3,t3,0x10
   15218:	0ee2                	slli	t4,t4,0x18
   1521a:	06a2                	slli	a3,a3,0x8
   1521c:	0742                	slli	a4,a4,0x10
   1521e:	0662                	slli	a2,a2,0x18
   15220:	07a2                	slli	a5,a5,0x8
   15222:	01ceee33          	or	t3,t4,t3
   15226:	01f6eeb3          	or	t4,a3,t6
   1522a:	00e669b3          	or	s3,a2,a4
   1522e:	00a7efb3          	or	t6,a5,a0
   15232:	0045c703          	lbu	a4,4(a1)
   15236:	0055c783          	lbu	a5,5(a1)
   1523a:	0065c683          	lbu	a3,6(a1)
   1523e:	0075c503          	lbu	a0,7(a1)
   15242:	0442                	slli	s0,s0,0x10
   15244:	04e2                	slli	s1,s1,0x18
   15246:	07a2                	slli	a5,a5,0x8
   15248:	06c2                	slli	a3,a3,0x10
   1524a:	0562                	slli	a0,a0,0x18
   1524c:	8c45                	or	s0,s0,s1
   1524e:	00e7ea33          	or	s4,a5,a4
   15252:	0005c783          	lbu	a5,0(a1)
   15256:	0015c483          	lbu	s1,1(a1)
   1525a:	8d55                	or	a0,a0,a3
   1525c:	0025c683          	lbu	a3,2(a1)
   15260:	0035c583          	lbu	a1,3(a1)
   15264:	04a2                	slli	s1,s1,0x8
   15266:	8fc5                	or	a5,a5,s1
   15268:	06c2                	slli	a3,a3,0x10
   1526a:	05e2                	slli	a1,a1,0x18
   1526c:	8dd5                	or	a1,a1,a3
   1526e:	01e2e6b3          	or	a3,t0,t5
   15272:	0108e4b3          	or	s1,a7,a6
   15276:	007e6633          	or	a2,t3,t2
   1527a:	01d9e733          	or	a4,s3,t4
   1527e:	01f46433          	or	s0,s0,t6
   15282:	01456533          	or	a0,a0,s4
   15286:	8ddd                	or	a1,a1,a5
   15288:	cc32                	sw	a2,24(sp)
   1528a:	ce26                	sw	s1,28(sp)
   1528c:	d036                	sw	a3,32(sp)
   1528e:	02611223          	sh	t1,36(sp)
   15292:	c42e                	sw	a1,8(sp)
   15294:	c62a                	sw	a0,12(sp)
   15296:	c822                	sw	s0,16(sp)
   15298:	ca3a                	sw	a4,20(sp)
   1529a:	02710513          	addi	a0,sp,39
   1529e:	02100613          	li	a2,33
   152a2:	4581                	li	a1,0
   152a4:	00007097          	auipc	ra,0x7
   152a8:	a44080e7          	jalr	-1468(ra) # 1bce8 <memset>
   152ac:	6509                	lui	a0,0x2
   152ae:	4599                	li	a1,6
   152b0:	0030                	addi	a2,sp,8
   152b2:	46f9                	li	a3,30
   152b4:	9b550793          	addi	a5,a0,-1611 # 19b5 <.Lline_table_start1+0x178a>
   152b8:	4711                	li	a4,4
   152ba:	4489                	li	s1,2
   152bc:	853e                	mv	a0,a5
   152be:	00000073          	ecall
   152c2:	02950b63          	beq	a0,s1,152f8 <_ZN18complex_no_dynamic3app17h7ef29737027d874bE+0x172>
   152c6:	45a5                	li	a1,9
   152c8:	02710613          	addi	a2,sp,39
   152cc:	02100693          	li	a3,33
   152d0:	470d                	li	a4,3
   152d2:	853e                	mv	a0,a5
   152d4:	00000073          	ecall
   152d8:	02950063          	beq	a0,s1,152f8 <_ZN18complex_no_dynamic3app17h7ef29737027d874bE+0x172>
   152dc:	6509                	lui	a0,0x2
   152de:	4599                	li	a1,6
   152e0:	4625                	li	a2,9
   152e2:	9b550493          	addi	s1,a0,-1611 # 19b5 <.Lline_table_start1+0x178a>
   152e6:	4709                	li	a4,2
   152e8:	07f00413          	li	s0,127
   152ec:	8526                	mv	a0,s1
   152ee:	4681                	li	a3,0
   152f0:	00000073          	ecall
   152f4:	02a46d63          	bltu	s0,a0,1532e <_ZN18complex_no_dynamic3app17h7ef29737027d874bE+0x1a8>
   152f8:	853e                	mv	a0,a5
   152fa:	4601                	li	a2,0
   152fc:	4681                	li	a3,0
   152fe:	4705                	li	a4,1
   15300:	00e90023          	sb	a4,0(s2)
   15304:	00b92223          	sw	a1,4(s2)
   15308:	45a5                	li	a1,9
   1530a:	470d                	li	a4,3
   1530c:	00000073          	ecall
   15310:	4599                	li	a1,6
   15312:	4711                	li	a4,4
   15314:	853e                	mv	a0,a5
   15316:	4601                	li	a2,0
   15318:	4681                	li	a3,0
   1531a:	00000073          	ecall
   1531e:	40f6                	lw	ra,92(sp)
   15320:	4466                	lw	s0,88(sp)
   15322:	44d6                	lw	s1,84(sp)
   15324:	4946                	lw	s2,80(sp)
   15326:	49b6                	lw	s3,76(sp)
   15328:	4a26                	lw	s4,72(sp)
   1532a:	6125                	addi	sp,sp,96
   1532c:	8082                	ret
   1532e:	8526                	mv	a0,s1
   15330:	4601                	li	a2,0
   15332:	4681                	li	a3,0
   15334:	45a5                	li	a1,9
   15336:	470d                	li	a4,3
   15338:	00000073          	ecall
   1533c:	45a5                	li	a1,9
   1533e:	470d                	li	a4,3
   15340:	8526                	mv	a0,s1
   15342:	4601                	li	a2,0
   15344:	4681                	li	a3,0
   15346:	00000073          	ecall
   1534a:	00190513          	addi	a0,s2,1
   1534e:	02710593          	addi	a1,sp,39
   15352:	02100613          	li	a2,33
   15356:	00007097          	auipc	ra,0x7
   1535a:	9fe080e7          	jalr	-1538(ra) # 1bd54 <memcpy>
   1535e:	8526                	mv	a0,s1
   15360:	4601                	li	a2,0
   15362:	4681                	li	a3,0
   15364:	00090023          	sb	zero,0(s2)
   15368:	45a5                	li	a1,9
   1536a:	470d                	li	a4,3
   1536c:	00000073          	ecall
   15370:	4599                	li	a1,6
   15372:	4711                	li	a4,4
   15374:	8526                	mv	a0,s1
   15376:	4601                	li	a2,0
   15378:	4681                	li	a3,0
   1537a:	00000073          	ecall
   1537e:	b745                	j	1531e <_ZN18complex_no_dynamic3app17h7ef29737027d874bE+0x198>

00015380 <_ZN18complex_no_dynamic3app17h82824b62f7873eebE>:
   15380:	7119                	addi	sp,sp,-128
   15382:	de86                	sw	ra,124(sp)
   15384:	dca2                	sw	s0,120(sp)
   15386:	daa6                	sw	s1,116(sp)
   15388:	842a                	mv	s0,a0
   1538a:	0028                	addi	a0,sp,8
   1538c:	04900613          	li	a2,73
   15390:	00007097          	auipc	ra,0x7
   15394:	9c4080e7          	jalr	-1596(ra) # 1bd54 <memcpy>
   15398:	05110513          	addi	a0,sp,81
   1539c:	02300613          	li	a2,35
   153a0:	4581                	li	a1,0
   153a2:	00007097          	auipc	ra,0x7
   153a6:	946080e7          	jalr	-1722(ra) # 1bce8 <memset>
   153aa:	6505                	lui	a0,0x1
   153ac:	459d                	li	a1,7
   153ae:	0030                	addi	a2,sp,8
   153b0:	04900693          	li	a3,73
   153b4:	55150793          	addi	a5,a0,1361 # 1551 <.Lline_table_start1+0x1326>
   153b8:	4711                	li	a4,4
   153ba:	4489                	li	s1,2
   153bc:	853e                	mv	a0,a5
   153be:	00000073          	ecall
   153c2:	02950b63          	beq	a0,s1,153f8 <_ZN18complex_no_dynamic3app17h82824b62f7873eebE+0x78>
   153c6:	4585                	li	a1,1
   153c8:	05110613          	addi	a2,sp,81
   153cc:	02300693          	li	a3,35
   153d0:	470d                	li	a4,3
   153d2:	853e                	mv	a0,a5
   153d4:	00000073          	ecall
   153d8:	02950063          	beq	a0,s1,153f8 <_ZN18complex_no_dynamic3app17h82824b62f7873eebE+0x78>
   153dc:	6505                	lui	a0,0x1
   153de:	459d                	li	a1,7
   153e0:	4605                	li	a2,1
   153e2:	55150493          	addi	s1,a0,1361 # 1551 <.Lline_table_start1+0x1326>
   153e6:	4709                	li	a4,2
   153e8:	07f00813          	li	a6,127
   153ec:	8526                	mv	a0,s1
   153ee:	4681                	li	a3,0
   153f0:	00000073          	ecall
   153f4:	02a86963          	bltu	a6,a0,15426 <_ZN18complex_no_dynamic3app17h82824b62f7873eebE+0xa6>
   153f8:	853e                	mv	a0,a5
   153fa:	4601                	li	a2,0
   153fc:	4681                	li	a3,0
   153fe:	4705                	li	a4,1
   15400:	00e40023          	sb	a4,0(s0)
   15404:	c04c                	sw	a1,4(s0)
   15406:	4585                	li	a1,1
   15408:	470d                	li	a4,3
   1540a:	00000073          	ecall
   1540e:	459d                	li	a1,7
   15410:	4711                	li	a4,4
   15412:	853e                	mv	a0,a5
   15414:	4601                	li	a2,0
   15416:	4681                	li	a3,0
   15418:	00000073          	ecall
   1541c:	50f6                	lw	ra,124(sp)
   1541e:	5466                	lw	s0,120(sp)
   15420:	54d6                	lw	s1,116(sp)
   15422:	6109                	addi	sp,sp,128
   15424:	8082                	ret
   15426:	8526                	mv	a0,s1
   15428:	4601                	li	a2,0
   1542a:	4681                	li	a3,0
   1542c:	4585                	li	a1,1
   1542e:	470d                	li	a4,3
   15430:	00000073          	ecall
   15434:	4585                	li	a1,1
   15436:	470d                	li	a4,3
   15438:	8526                	mv	a0,s1
   1543a:	4601                	li	a2,0
   1543c:	4681                	li	a3,0
   1543e:	00000073          	ecall
   15442:	00140513          	addi	a0,s0,1
   15446:	05110593          	addi	a1,sp,81
   1544a:	02300613          	li	a2,35
   1544e:	00007097          	auipc	ra,0x7
   15452:	906080e7          	jalr	-1786(ra) # 1bd54 <memcpy>
   15456:	8526                	mv	a0,s1
   15458:	4601                	li	a2,0
   1545a:	4681                	li	a3,0
   1545c:	00040023          	sb	zero,0(s0)
   15460:	4585                	li	a1,1
   15462:	470d                	li	a4,3
   15464:	00000073          	ecall
   15468:	459d                	li	a1,7
   1546a:	4711                	li	a4,4
   1546c:	8526                	mv	a0,s1
   1546e:	4601                	li	a2,0
   15470:	4681                	li	a3,0
   15472:	00000073          	ecall
   15476:	50f6                	lw	ra,124(sp)
   15478:	5466                	lw	s0,120(sp)
   1547a:	54d6                	lw	s1,116(sp)
   1547c:	6109                	addi	sp,sp,128
   1547e:	8082                	ret

00015480 <_ZN18complex_no_dynamic3app17h8f7530c7ae12b21dE>:
   15480:	7119                	addi	sp,sp,-128
   15482:	de86                	sw	ra,124(sp)
   15484:	dca2                	sw	s0,120(sp)
   15486:	daa6                	sw	s1,116(sp)
   15488:	842a                	mv	s0,a0
   1548a:	00b10513          	addi	a0,sp,11
   1548e:	05500613          	li	a2,85
   15492:	00007097          	auipc	ra,0x7
   15496:	8c2080e7          	jalr	-1854(ra) # 1bd54 <memcpy>
   1549a:	06010823          	sb	zero,112(sp)
   1549e:	d082                	sw	zero,96(sp)
   154a0:	d282                	sw	zero,100(sp)
   154a2:	d482                	sw	zero,104(sp)
   154a4:	d682                	sw	zero,108(sp)
   154a6:	6505                	lui	a0,0x1
   154a8:	4489                	li	s1,2
   154aa:	4589                	li	a1,2
   154ac:	00b10613          	addi	a2,sp,11
   154b0:	c8950793          	addi	a5,a0,-887 # c89 <.Lline_table_start1+0xa5e>
   154b4:	05500693          	li	a3,85
   154b8:	4711                	li	a4,4
   154ba:	853e                	mv	a0,a5
   154bc:	00000073          	ecall
   154c0:	02950963          	beq	a0,s1,154f2 <_ZN18complex_no_dynamic3app17h8f7530c7ae12b21dE+0x72>
   154c4:	4589                	li	a1,2
   154c6:	1090                	addi	a2,sp,96
   154c8:	46c5                	li	a3,17
   154ca:	470d                	li	a4,3
   154cc:	853e                	mv	a0,a5
   154ce:	00000073          	ecall
   154d2:	02950063          	beq	a0,s1,154f2 <_ZN18complex_no_dynamic3app17h8f7530c7ae12b21dE+0x72>
   154d6:	6505                	lui	a0,0x1
   154d8:	4589                	li	a1,2
   154da:	4609                	li	a2,2
   154dc:	c8950493          	addi	s1,a0,-887 # c89 <.Lline_table_start1+0xa5e>
   154e0:	4709                	li	a4,2
   154e2:	07f00813          	li	a6,127
   154e6:	8526                	mv	a0,s1
   154e8:	4681                	li	a3,0
   154ea:	00000073          	ecall
   154ee:	02a86963          	bltu	a6,a0,15520 <_ZN18complex_no_dynamic3app17h8f7530c7ae12b21dE+0xa0>
   154f2:	853e                	mv	a0,a5
   154f4:	4601                	li	a2,0
   154f6:	4681                	li	a3,0
   154f8:	4705                	li	a4,1
   154fa:	00e40023          	sb	a4,0(s0)
   154fe:	c04c                	sw	a1,4(s0)
   15500:	4589                	li	a1,2
   15502:	470d                	li	a4,3
   15504:	00000073          	ecall
   15508:	4589                	li	a1,2
   1550a:	4711                	li	a4,4
   1550c:	853e                	mv	a0,a5
   1550e:	4601                	li	a2,0
   15510:	4681                	li	a3,0
   15512:	00000073          	ecall
   15516:	50f6                	lw	ra,124(sp)
   15518:	5466                	lw	s0,120(sp)
   1551a:	54d6                	lw	s1,116(sp)
   1551c:	6109                	addi	sp,sp,128
   1551e:	8082                	ret
   15520:	8526                	mv	a0,s1
   15522:	4601                	li	a2,0
   15524:	4681                	li	a3,0
   15526:	4589                	li	a1,2
   15528:	470d                	li	a4,3
   1552a:	00000073          	ecall
   1552e:	4589                	li	a1,2
   15530:	470d                	li	a4,3
   15532:	8526                	mv	a0,s1
   15534:	4601                	li	a2,0
   15536:	4681                	li	a3,0
   15538:	00000073          	ecall
   1553c:	00140513          	addi	a0,s0,1
   15540:	108c                	addi	a1,sp,96
   15542:	4645                	li	a2,17
   15544:	00007097          	auipc	ra,0x7
   15548:	810080e7          	jalr	-2032(ra) # 1bd54 <memcpy>
   1554c:	8526                	mv	a0,s1
   1554e:	4601                	li	a2,0
   15550:	4681                	li	a3,0
   15552:	00040023          	sb	zero,0(s0)
   15556:	4589                	li	a1,2
   15558:	470d                	li	a4,3
   1555a:	00000073          	ecall
   1555e:	4589                	li	a1,2
   15560:	4711                	li	a4,4
   15562:	8526                	mv	a0,s1
   15564:	4601                	li	a2,0
   15566:	4681                	li	a3,0
   15568:	00000073          	ecall
   1556c:	50f6                	lw	ra,124(sp)
   1556e:	5466                	lw	s0,120(sp)
   15570:	54d6                	lw	s1,116(sp)
   15572:	6109                	addi	sp,sp,128
   15574:	8082                	ret

00015576 <_ZN18complex_no_dynamic3app17h91e56b1becf27becE>:
   15576:	7119                	addi	sp,sp,-128
   15578:	de86                	sw	ra,124(sp)
   1557a:	dca2                	sw	s0,120(sp)
   1557c:	daa6                	sw	s1,116(sp)
   1557e:	842a                	mv	s0,a0
   15580:	00a10513          	addi	a0,sp,10
   15584:	03600613          	li	a2,54
   15588:	00006097          	auipc	ra,0x6
   1558c:	7cc080e7          	jalr	1996(ra) # 1bd54 <memcpy>
   15590:	0088                	addi	a0,sp,64
   15592:	03400613          	li	a2,52
   15596:	4581                	li	a1,0
   15598:	00006097          	auipc	ra,0x6
   1559c:	750080e7          	jalr	1872(ra) # 1bce8 <memset>
   155a0:	6509                	lui	a0,0x2
   155a2:	4591                	li	a1,4
   155a4:	00a10613          	addi	a2,sp,10
   155a8:	03600693          	li	a3,54
   155ac:	3c650793          	addi	a5,a0,966 # 23c6 <.Lline_table_start1+0x219b>
   155b0:	4711                	li	a4,4
   155b2:	4489                	li	s1,2
   155b4:	853e                	mv	a0,a5
   155b6:	00000073          	ecall
   155ba:	02950a63          	beq	a0,s1,155ee <_ZN18complex_no_dynamic3app17h91e56b1becf27becE+0x78>
   155be:	4589                	li	a1,2
   155c0:	0090                	addi	a2,sp,64
   155c2:	03400693          	li	a3,52
   155c6:	470d                	li	a4,3
   155c8:	853e                	mv	a0,a5
   155ca:	00000073          	ecall
   155ce:	02950063          	beq	a0,s1,155ee <_ZN18complex_no_dynamic3app17h91e56b1becf27becE+0x78>
   155d2:	6509                	lui	a0,0x2
   155d4:	4591                	li	a1,4
   155d6:	4609                	li	a2,2
   155d8:	3c650493          	addi	s1,a0,966 # 23c6 <.Lline_table_start1+0x219b>
   155dc:	4709                	li	a4,2
   155de:	07f00813          	li	a6,127
   155e2:	8526                	mv	a0,s1
   155e4:	4681                	li	a3,0
   155e6:	00000073          	ecall
   155ea:	02a86963          	bltu	a6,a0,1561c <_ZN18complex_no_dynamic3app17h91e56b1becf27becE+0xa6>
   155ee:	853e                	mv	a0,a5
   155f0:	4601                	li	a2,0
   155f2:	4681                	li	a3,0
   155f4:	4705                	li	a4,1
   155f6:	00e40023          	sb	a4,0(s0)
   155fa:	c04c                	sw	a1,4(s0)
   155fc:	4589                	li	a1,2
   155fe:	470d                	li	a4,3
   15600:	00000073          	ecall
   15604:	4591                	li	a1,4
   15606:	4711                	li	a4,4
   15608:	853e                	mv	a0,a5
   1560a:	4601                	li	a2,0
   1560c:	4681                	li	a3,0
   1560e:	00000073          	ecall
   15612:	50f6                	lw	ra,124(sp)
   15614:	5466                	lw	s0,120(sp)
   15616:	54d6                	lw	s1,116(sp)
   15618:	6109                	addi	sp,sp,128
   1561a:	8082                	ret
   1561c:	8526                	mv	a0,s1
   1561e:	4601                	li	a2,0
   15620:	4681                	li	a3,0
   15622:	4589                	li	a1,2
   15624:	470d                	li	a4,3
   15626:	00000073          	ecall
   1562a:	4589                	li	a1,2
   1562c:	470d                	li	a4,3
   1562e:	8526                	mv	a0,s1
   15630:	4601                	li	a2,0
   15632:	4681                	li	a3,0
   15634:	00000073          	ecall
   15638:	00140513          	addi	a0,s0,1
   1563c:	008c                	addi	a1,sp,64
   1563e:	03400613          	li	a2,52
   15642:	00006097          	auipc	ra,0x6
   15646:	712080e7          	jalr	1810(ra) # 1bd54 <memcpy>
   1564a:	8526                	mv	a0,s1
   1564c:	4601                	li	a2,0
   1564e:	4681                	li	a3,0
   15650:	00040023          	sb	zero,0(s0)
   15654:	4589                	li	a1,2
   15656:	470d                	li	a4,3
   15658:	00000073          	ecall
   1565c:	4591                	li	a1,4
   1565e:	4711                	li	a4,4
   15660:	8526                	mv	a0,s1
   15662:	4601                	li	a2,0
   15664:	4681                	li	a3,0
   15666:	00000073          	ecall
   1566a:	50f6                	lw	ra,124(sp)
   1566c:	5466                	lw	s0,120(sp)
   1566e:	54d6                	lw	s1,116(sp)
   15670:	6109                	addi	sp,sp,128
   15672:	8082                	ret

00015674 <_ZN18complex_no_dynamic3app17h932d3e48e64fe33dE>:
   15674:	7119                	addi	sp,sp,-128
   15676:	de86                	sw	ra,124(sp)
   15678:	dca2                	sw	s0,120(sp)
   1567a:	daa6                	sw	s1,116(sp)
   1567c:	d8ca                	sw	s2,112(sp)
   1567e:	892a                	mv	s2,a0
   15680:	0105c503          	lbu	a0,16(a1)
   15684:	00c5c803          	lbu	a6,12(a1)
   15688:	00d5c683          	lbu	a3,13(a1)
   1568c:	00e5c703          	lbu	a4,14(a1)
   15690:	00f5c783          	lbu	a5,15(a1)
   15694:	0085c483          	lbu	s1,8(a1)
   15698:	0095c403          	lbu	s0,9(a1)
   1569c:	00a5c883          	lbu	a7,10(a1)
   156a0:	00b5c603          	lbu	a2,11(a1)
   156a4:	00a10e23          	sb	a0,28(sp)
   156a8:	06a2                	slli	a3,a3,0x8
   156aa:	0742                	slli	a4,a4,0x10
   156ac:	07e2                	slli	a5,a5,0x18
   156ae:	0422                	slli	s0,s0,0x8
   156b0:	0106e833          	or	a6,a3,a6
   156b4:	00e7e2b3          	or	t0,a5,a4
   156b8:	8c45                	or	s0,s0,s1
   156ba:	0045c683          	lbu	a3,4(a1)
   156be:	0055c783          	lbu	a5,5(a1)
   156c2:	0065c483          	lbu	s1,6(a1)
   156c6:	0075c503          	lbu	a0,7(a1)
   156ca:	08c2                	slli	a7,a7,0x10
   156cc:	0662                	slli	a2,a2,0x18
   156ce:	07a2                	slli	a5,a5,0x8
   156d0:	04c2                	slli	s1,s1,0x10
   156d2:	0562                	slli	a0,a0,0x18
   156d4:	01166633          	or	a2,a2,a7
   156d8:	8edd                	or	a3,a3,a5
   156da:	0005c783          	lbu	a5,0(a1)
   156de:	0015c703          	lbu	a4,1(a1)
   156e2:	8d45                	or	a0,a0,s1
   156e4:	0025c483          	lbu	s1,2(a1)
   156e8:	0035c583          	lbu	a1,3(a1)
   156ec:	0722                	slli	a4,a4,0x8
   156ee:	8f5d                	or	a4,a4,a5
   156f0:	04c2                	slli	s1,s1,0x10
   156f2:	05e2                	slli	a1,a1,0x18
   156f4:	8dc5                	or	a1,a1,s1
   156f6:	0102e7b3          	or	a5,t0,a6
   156fa:	8e41                	or	a2,a2,s0
   156fc:	8d55                	or	a0,a0,a3
   156fe:	8dd9                	or	a1,a1,a4
   15700:	c62e                	sw	a1,12(sp)
   15702:	c82a                	sw	a0,16(sp)
   15704:	ca32                	sw	a2,20(sp)
   15706:	cc3e                	sw	a5,24(sp)
   15708:	1008                	addi	a0,sp,32
   1570a:	05000613          	li	a2,80
   1570e:	4581                	li	a1,0
   15710:	00006097          	auipc	ra,0x6
   15714:	5d8080e7          	jalr	1496(ra) # 1bce8 <memset>
   15718:	6509                	lui	a0,0x2
   1571a:	4599                	li	a1,6
   1571c:	0070                	addi	a2,sp,12
   1571e:	46c5                	li	a3,17
   15720:	aa950793          	addi	a5,a0,-1367 # 1aa9 <.Lline_table_start1+0x187e>
   15724:	4711                	li	a4,4
   15726:	4489                	li	s1,2
   15728:	853e                	mv	a0,a5
   1572a:	00000073          	ecall
   1572e:	02950a63          	beq	a0,s1,15762 <_ZN18complex_no_dynamic3app17h932d3e48e64fe33dE+0xee>
   15732:	4595                	li	a1,5
   15734:	1010                	addi	a2,sp,32
   15736:	05000693          	li	a3,80
   1573a:	470d                	li	a4,3
   1573c:	853e                	mv	a0,a5
   1573e:	00000073          	ecall
   15742:	02950063          	beq	a0,s1,15762 <_ZN18complex_no_dynamic3app17h932d3e48e64fe33dE+0xee>
   15746:	6509                	lui	a0,0x2
   15748:	4599                	li	a1,6
   1574a:	4615                	li	a2,5
   1574c:	aa950493          	addi	s1,a0,-1367 # 1aa9 <.Lline_table_start1+0x187e>
   15750:	4709                	li	a4,2
   15752:	07f00413          	li	s0,127
   15756:	8526                	mv	a0,s1
   15758:	4681                	li	a3,0
   1575a:	00000073          	ecall
   1575e:	02a46b63          	bltu	s0,a0,15794 <_ZN18complex_no_dynamic3app17h932d3e48e64fe33dE+0x120>
   15762:	853e                	mv	a0,a5
   15764:	4601                	li	a2,0
   15766:	4681                	li	a3,0
   15768:	4705                	li	a4,1
   1576a:	00e90023          	sb	a4,0(s2)
   1576e:	00b92223          	sw	a1,4(s2)
   15772:	4595                	li	a1,5
   15774:	470d                	li	a4,3
   15776:	00000073          	ecall
   1577a:	4599                	li	a1,6
   1577c:	4711                	li	a4,4
   1577e:	853e                	mv	a0,a5
   15780:	4601                	li	a2,0
   15782:	4681                	li	a3,0
   15784:	00000073          	ecall
   15788:	50f6                	lw	ra,124(sp)
   1578a:	5466                	lw	s0,120(sp)
   1578c:	54d6                	lw	s1,116(sp)
   1578e:	5946                	lw	s2,112(sp)
   15790:	6109                	addi	sp,sp,128
   15792:	8082                	ret
   15794:	8526                	mv	a0,s1
   15796:	4601                	li	a2,0
   15798:	4681                	li	a3,0
   1579a:	4595                	li	a1,5
   1579c:	470d                	li	a4,3
   1579e:	00000073          	ecall
   157a2:	4595                	li	a1,5
   157a4:	470d                	li	a4,3
   157a6:	8526                	mv	a0,s1
   157a8:	4601                	li	a2,0
   157aa:	4681                	li	a3,0
   157ac:	00000073          	ecall
   157b0:	00190513          	addi	a0,s2,1
   157b4:	100c                	addi	a1,sp,32
   157b6:	05000613          	li	a2,80
   157ba:	00006097          	auipc	ra,0x6
   157be:	59a080e7          	jalr	1434(ra) # 1bd54 <memcpy>
   157c2:	8526                	mv	a0,s1
   157c4:	4601                	li	a2,0
   157c6:	4681                	li	a3,0
   157c8:	00090023          	sb	zero,0(s2)
   157cc:	4595                	li	a1,5
   157ce:	470d                	li	a4,3
   157d0:	00000073          	ecall
   157d4:	4599                	li	a1,6
   157d6:	4711                	li	a4,4
   157d8:	8526                	mv	a0,s1
   157da:	4601                	li	a2,0
   157dc:	4681                	li	a3,0
   157de:	00000073          	ecall
   157e2:	50f6                	lw	ra,124(sp)
   157e4:	5466                	lw	s0,120(sp)
   157e6:	54d6                	lw	s1,116(sp)
   157e8:	5946                	lw	s2,112(sp)
   157ea:	6109                	addi	sp,sp,128
   157ec:	8082                	ret

000157ee <_ZN18complex_no_dynamic3app17h94ab5b9dc32f1fe5E>:
   157ee:	7119                	addi	sp,sp,-128
   157f0:	de86                	sw	ra,124(sp)
   157f2:	dca2                	sw	s0,120(sp)
   157f4:	daa6                	sw	s1,116(sp)
   157f6:	842a                	mv	s0,a0
   157f8:	00610513          	addi	a0,sp,6
   157fc:	03c00613          	li	a2,60
   15800:	00006097          	auipc	ra,0x6
   15804:	554080e7          	jalr	1364(ra) # 1bd54 <memcpy>
   15808:	04210513          	addi	a0,sp,66
   1580c:	03200613          	li	a2,50
   15810:	4581                	li	a1,0
   15812:	00006097          	auipc	ra,0x6
   15816:	4d6080e7          	jalr	1238(ra) # 1bce8 <memset>
   1581a:	6509                	lui	a0,0x2
   1581c:	4599                	li	a1,6
   1581e:	00610613          	addi	a2,sp,6
   15822:	03c00693          	li	a3,60
   15826:	b1e50793          	addi	a5,a0,-1250 # 1b1e <.Lline_table_start1+0x18f3>
   1582a:	4711                	li	a4,4
   1582c:	4489                	li	s1,2
   1582e:	853e                	mv	a0,a5
   15830:	00000073          	ecall
   15834:	02950b63          	beq	a0,s1,1586a <_ZN18complex_no_dynamic3app17h94ab5b9dc32f1fe5E+0x7c>
   15838:	45a1                	li	a1,8
   1583a:	04210613          	addi	a2,sp,66
   1583e:	03200693          	li	a3,50
   15842:	470d                	li	a4,3
   15844:	853e                	mv	a0,a5
   15846:	00000073          	ecall
   1584a:	02950063          	beq	a0,s1,1586a <_ZN18complex_no_dynamic3app17h94ab5b9dc32f1fe5E+0x7c>
   1584e:	6509                	lui	a0,0x2
   15850:	4599                	li	a1,6
   15852:	4621                	li	a2,8
   15854:	b1e50493          	addi	s1,a0,-1250 # 1b1e <.Lline_table_start1+0x18f3>
   15858:	4709                	li	a4,2
   1585a:	07f00813          	li	a6,127
   1585e:	8526                	mv	a0,s1
   15860:	4681                	li	a3,0
   15862:	00000073          	ecall
   15866:	02a86963          	bltu	a6,a0,15898 <_ZN18complex_no_dynamic3app17h94ab5b9dc32f1fe5E+0xaa>
   1586a:	853e                	mv	a0,a5
   1586c:	4601                	li	a2,0
   1586e:	4681                	li	a3,0
   15870:	4705                	li	a4,1
   15872:	00e40023          	sb	a4,0(s0)
   15876:	c04c                	sw	a1,4(s0)
   15878:	45a1                	li	a1,8
   1587a:	470d                	li	a4,3
   1587c:	00000073          	ecall
   15880:	4599                	li	a1,6
   15882:	4711                	li	a4,4
   15884:	853e                	mv	a0,a5
   15886:	4601                	li	a2,0
   15888:	4681                	li	a3,0
   1588a:	00000073          	ecall
   1588e:	50f6                	lw	ra,124(sp)
   15890:	5466                	lw	s0,120(sp)
   15892:	54d6                	lw	s1,116(sp)
   15894:	6109                	addi	sp,sp,128
   15896:	8082                	ret
   15898:	8526                	mv	a0,s1
   1589a:	4601                	li	a2,0
   1589c:	4681                	li	a3,0
   1589e:	45a1                	li	a1,8
   158a0:	470d                	li	a4,3
   158a2:	00000073          	ecall
   158a6:	45a1                	li	a1,8
   158a8:	470d                	li	a4,3
   158aa:	8526                	mv	a0,s1
   158ac:	4601                	li	a2,0
   158ae:	4681                	li	a3,0
   158b0:	00000073          	ecall
   158b4:	00140513          	addi	a0,s0,1
   158b8:	04210593          	addi	a1,sp,66
   158bc:	03200613          	li	a2,50
   158c0:	00006097          	auipc	ra,0x6
   158c4:	494080e7          	jalr	1172(ra) # 1bd54 <memcpy>
   158c8:	8526                	mv	a0,s1
   158ca:	4601                	li	a2,0
   158cc:	4681                	li	a3,0
   158ce:	00040023          	sb	zero,0(s0)
   158d2:	45a1                	li	a1,8
   158d4:	470d                	li	a4,3
   158d6:	00000073          	ecall
   158da:	4599                	li	a1,6
   158dc:	4711                	li	a4,4
   158de:	8526                	mv	a0,s1
   158e0:	4601                	li	a2,0
   158e2:	4681                	li	a3,0
   158e4:	00000073          	ecall
   158e8:	50f6                	lw	ra,124(sp)
   158ea:	5466                	lw	s0,120(sp)
   158ec:	54d6                	lw	s1,116(sp)
   158ee:	6109                	addi	sp,sp,128
   158f0:	8082                	ret

000158f2 <_ZN18complex_no_dynamic3app17h9eb25b7da968066dE>:
   158f2:	7139                	addi	sp,sp,-64
   158f4:	de06                	sw	ra,60(sp)
   158f6:	dc22                	sw	s0,56(sp)
   158f8:	da26                	sw	s1,52(sp)
   158fa:	d84a                	sw	s2,48(sp)
   158fc:	892a                	mv	s2,a0
   158fe:	00c5c503          	lbu	a0,12(a1)
   15902:	00d5c603          	lbu	a2,13(a1)
   15906:	00e5c683          	lbu	a3,14(a1)
   1590a:	0085c703          	lbu	a4,8(a1)
   1590e:	0095c783          	lbu	a5,9(a1)
   15912:	00a5c483          	lbu	s1,10(a1)
   15916:	00b5c403          	lbu	s0,11(a1)
   1591a:	00d10d23          	sb	a3,26(sp)
   1591e:	0622                	slli	a2,a2,0x8
   15920:	07a2                	slli	a5,a5,0x8
   15922:	00a66833          	or	a6,a2,a0
   15926:	8f5d                	or	a4,a4,a5
   15928:	0045c603          	lbu	a2,4(a1)
   1592c:	0055c683          	lbu	a3,5(a1)
   15930:	0065c783          	lbu	a5,6(a1)
   15934:	0075c503          	lbu	a0,7(a1)
   15938:	04c2                	slli	s1,s1,0x10
   1593a:	0462                	slli	s0,s0,0x18
   1593c:	06a2                	slli	a3,a3,0x8
   1593e:	07c2                	slli	a5,a5,0x10
   15940:	0562                	slli	a0,a0,0x18
   15942:	8c45                	or	s0,s0,s1
   15944:	8ed1                	or	a3,a3,a2
   15946:	8d5d                	or	a0,a0,a5
   15948:	0005c603          	lbu	a2,0(a1)
   1594c:	0015c783          	lbu	a5,1(a1)
   15950:	0025c483          	lbu	s1,2(a1)
   15954:	0035c583          	lbu	a1,3(a1)
   15958:	02011623          	sh	zero,44(sp)
   1595c:	02010723          	sb	zero,46(sp)
   15960:	ce02                	sw	zero,28(sp)
   15962:	d002                	sw	zero,32(sp)
   15964:	d202                	sw	zero,36(sp)
   15966:	d402                	sw	zero,40(sp)
   15968:	07a2                	slli	a5,a5,0x8
   1596a:	8fd1                	or	a5,a5,a2
   1596c:	6889                	lui	a7,0x2
   1596e:	04c2                	slli	s1,s1,0x10
   15970:	05e2                	slli	a1,a1,0x18
   15972:	8ccd                	or	s1,s1,a1
   15974:	458d                	li	a1,3
   15976:	8c59                	or	s0,s0,a4
   15978:	0070                	addi	a2,sp,12
   1597a:	8d55                	or	a0,a0,a3
   1597c:	46bd                	li	a3,15
   1597e:	8cdd                	or	s1,s1,a5
   15980:	4711                	li	a4,4
   15982:	e4b88793          	addi	a5,a7,-437 # 1e4b <.Lline_table_start1+0x1c20>
   15986:	c626                	sw	s1,12(sp)
   15988:	c82a                	sw	a0,16(sp)
   1598a:	ca22                	sw	s0,20(sp)
   1598c:	01011c23          	sh	a6,24(sp)
   15990:	4489                	li	s1,2
   15992:	853e                	mv	a0,a5
   15994:	00000073          	ecall
   15998:	02950963          	beq	a0,s1,159ca <_ZN18complex_no_dynamic3app17h9eb25b7da968066dE+0xd8>
   1599c:	0870                	addi	a2,sp,28
   1599e:	46cd                	li	a3,19
   159a0:	470d                	li	a4,3
   159a2:	853e                	mv	a0,a5
   159a4:	4581                	li	a1,0
   159a6:	00000073          	ecall
   159aa:	02950063          	beq	a0,s1,159ca <_ZN18complex_no_dynamic3app17h9eb25b7da968066dE+0xd8>
   159ae:	6509                	lui	a0,0x2
   159b0:	458d                	li	a1,3
   159b2:	e4b50493          	addi	s1,a0,-437 # 1e4b <.Lline_table_start1+0x1c20>
   159b6:	4709                	li	a4,2
   159b8:	07f00413          	li	s0,127
   159bc:	8526                	mv	a0,s1
   159be:	4601                	li	a2,0
   159c0:	4681                	li	a3,0
   159c2:	00000073          	ecall
   159c6:	02a46c63          	bltu	s0,a0,159fe <_ZN18complex_no_dynamic3app17h9eb25b7da968066dE+0x10c>
   159ca:	872e                	mv	a4,a1
   159cc:	853e                	mv	a0,a5
   159ce:	4581                	li	a1,0
   159d0:	4601                	li	a2,0
   159d2:	4681                	li	a3,0
   159d4:	4485                	li	s1,1
   159d6:	00990023          	sb	s1,0(s2)
   159da:	00e92223          	sw	a4,4(s2)
   159de:	470d                	li	a4,3
   159e0:	00000073          	ecall
   159e4:	458d                	li	a1,3
   159e6:	4711                	li	a4,4
   159e8:	853e                	mv	a0,a5
   159ea:	4601                	li	a2,0
   159ec:	4681                	li	a3,0
   159ee:	00000073          	ecall
   159f2:	50f2                	lw	ra,60(sp)
   159f4:	5462                	lw	s0,56(sp)
   159f6:	54d2                	lw	s1,52(sp)
   159f8:	5942                	lw	s2,48(sp)
   159fa:	6121                	addi	sp,sp,64
   159fc:	8082                	ret
   159fe:	470d                	li	a4,3
   15a00:	8526                	mv	a0,s1
   15a02:	4581                	li	a1,0
   15a04:	4601                	li	a2,0
   15a06:	4681                	li	a3,0
   15a08:	00000073          	ecall
   15a0c:	470d                	li	a4,3
   15a0e:	8526                	mv	a0,s1
   15a10:	4581                	li	a1,0
   15a12:	4601                	li	a2,0
   15a14:	4681                	li	a3,0
   15a16:	00000073          	ecall
   15a1a:	00190513          	addi	a0,s2,1
   15a1e:	086c                	addi	a1,sp,28
   15a20:	464d                	li	a2,19
   15a22:	00006097          	auipc	ra,0x6
   15a26:	332080e7          	jalr	818(ra) # 1bd54 <memcpy>
   15a2a:	8526                	mv	a0,s1
   15a2c:	4581                	li	a1,0
   15a2e:	4601                	li	a2,0
   15a30:	4681                	li	a3,0
   15a32:	00090023          	sb	zero,0(s2)
   15a36:	470d                	li	a4,3
   15a38:	00000073          	ecall
   15a3c:	458d                	li	a1,3
   15a3e:	4711                	li	a4,4
   15a40:	8526                	mv	a0,s1
   15a42:	4601                	li	a2,0
   15a44:	4681                	li	a3,0
   15a46:	00000073          	ecall
   15a4a:	50f2                	lw	ra,60(sp)
   15a4c:	5462                	lw	s0,56(sp)
   15a4e:	54d2                	lw	s1,52(sp)
   15a50:	5942                	lw	s2,48(sp)
   15a52:	6121                	addi	sp,sp,64
   15a54:	8082                	ret

00015a56 <_ZN18complex_no_dynamic3app17ha084e1826b3fd60bE>:
   15a56:	7139                	addi	sp,sp,-64
   15a58:	de06                	sw	ra,60(sp)
   15a5a:	dc22                	sw	s0,56(sp)
   15a5c:	da26                	sw	s1,52(sp)
   15a5e:	d84a                	sw	s2,48(sp)
   15a60:	892a                	mv	s2,a0
   15a62:	0085c803          	lbu	a6,8(a1)
   15a66:	0095c603          	lbu	a2,9(a1)
   15a6a:	00a5c683          	lbu	a3,10(a1)
   15a6e:	00b5c703          	lbu	a4,11(a1)
   15a72:	0045c783          	lbu	a5,4(a1)
   15a76:	0055c483          	lbu	s1,5(a1)
   15a7a:	0065c403          	lbu	s0,6(a1)
   15a7e:	0075c503          	lbu	a0,7(a1)
   15a82:	0622                	slli	a2,a2,0x8
   15a84:	06c2                	slli	a3,a3,0x10
   15a86:	0762                	slli	a4,a4,0x18
   15a88:	04a2                	slli	s1,s1,0x8
   15a8a:	0442                	slli	s0,s0,0x10
   15a8c:	0562                	slli	a0,a0,0x18
   15a8e:	01066833          	or	a6,a2,a6
   15a92:	8ed9                	or	a3,a3,a4
   15a94:	8fc5                	or	a5,a5,s1
   15a96:	0005c703          	lbu	a4,0(a1)
   15a9a:	0015c483          	lbu	s1,1(a1)
   15a9e:	8d41                	or	a0,a0,s0
   15aa0:	0025c403          	lbu	s0,2(a1)
   15aa4:	0035c603          	lbu	a2,3(a1)
   15aa8:	04a2                	slli	s1,s1,0x8
   15aaa:	8f45                	or	a4,a4,s1
   15aac:	0442                	slli	s0,s0,0x10
   15aae:	0662                	slli	a2,a2,0x18
   15ab0:	8e41                	or	a2,a2,s0
   15ab2:	0106e6b3          	or	a3,a3,a6
   15ab6:	8d5d                	or	a0,a0,a5
   15ab8:	8e59                	or	a2,a2,a4
   15aba:	00c5c583          	lbu	a1,12(a1)
   15abe:	c032                	sw	a2,0(sp)
   15ac0:	c22a                	sw	a0,4(sp)
   15ac2:	c436                	sw	a3,8(sp)
   15ac4:	00b10623          	sb	a1,12(sp)
   15ac8:	00f10513          	addi	a0,sp,15
   15acc:	02100613          	li	a2,33
   15ad0:	4581                	li	a1,0
   15ad2:	00006097          	auipc	ra,0x6
   15ad6:	216080e7          	jalr	534(ra) # 1bce8 <memset>
   15ada:	6505                	lui	a0,0x1
   15adc:	860a                	mv	a2,sp
   15ade:	46b5                	li	a3,13
   15ae0:	6b050793          	addi	a5,a0,1712 # 16b0 <.Lline_table_start1+0x1485>
   15ae4:	4711                	li	a4,4
   15ae6:	4489                	li	s1,2
   15ae8:	853e                	mv	a0,a5
   15aea:	4581                	li	a1,0
   15aec:	00000073          	ecall
   15af0:	02950b63          	beq	a0,s1,15b26 <_ZN18complex_no_dynamic3app17ha084e1826b3fd60bE+0xd0>
   15af4:	00f10613          	addi	a2,sp,15
   15af8:	02100693          	li	a3,33
   15afc:	470d                	li	a4,3
   15afe:	853e                	mv	a0,a5
   15b00:	4581                	li	a1,0
   15b02:	00000073          	ecall
   15b06:	02950063          	beq	a0,s1,15b26 <_ZN18complex_no_dynamic3app17ha084e1826b3fd60bE+0xd0>
   15b0a:	6505                	lui	a0,0x1
   15b0c:	6b050493          	addi	s1,a0,1712 # 16b0 <.Lline_table_start1+0x1485>
   15b10:	4709                	li	a4,2
   15b12:	07f00413          	li	s0,127
   15b16:	8526                	mv	a0,s1
   15b18:	4581                	li	a1,0
   15b1a:	4601                	li	a2,0
   15b1c:	4681                	li	a3,0
   15b1e:	00000073          	ecall
   15b22:	02a46b63          	bltu	s0,a0,15b58 <_ZN18complex_no_dynamic3app17ha084e1826b3fd60bE+0x102>
   15b26:	4505                	li	a0,1
   15b28:	00a90023          	sb	a0,0(s2)
   15b2c:	00b92223          	sw	a1,4(s2)
   15b30:	470d                	li	a4,3
   15b32:	853e                	mv	a0,a5
   15b34:	4581                	li	a1,0
   15b36:	4601                	li	a2,0
   15b38:	4681                	li	a3,0
   15b3a:	00000073          	ecall
   15b3e:	4711                	li	a4,4
   15b40:	853e                	mv	a0,a5
   15b42:	4581                	li	a1,0
   15b44:	4601                	li	a2,0
   15b46:	4681                	li	a3,0
   15b48:	00000073          	ecall
   15b4c:	50f2                	lw	ra,60(sp)
   15b4e:	5462                	lw	s0,56(sp)
   15b50:	54d2                	lw	s1,52(sp)
   15b52:	5942                	lw	s2,48(sp)
   15b54:	6121                	addi	sp,sp,64
   15b56:	8082                	ret
   15b58:	470d                	li	a4,3
   15b5a:	8526                	mv	a0,s1
   15b5c:	4581                	li	a1,0
   15b5e:	4601                	li	a2,0
   15b60:	4681                	li	a3,0
   15b62:	00000073          	ecall
   15b66:	470d                	li	a4,3
   15b68:	8526                	mv	a0,s1
   15b6a:	4581                	li	a1,0
   15b6c:	4601                	li	a2,0
   15b6e:	4681                	li	a3,0
   15b70:	00000073          	ecall
   15b74:	00190513          	addi	a0,s2,1
   15b78:	00f10593          	addi	a1,sp,15
   15b7c:	02100613          	li	a2,33
   15b80:	00006097          	auipc	ra,0x6
   15b84:	1d4080e7          	jalr	468(ra) # 1bd54 <memcpy>
   15b88:	00090023          	sb	zero,0(s2)
   15b8c:	470d                	li	a4,3
   15b8e:	8526                	mv	a0,s1
   15b90:	4581                	li	a1,0
   15b92:	4601                	li	a2,0
   15b94:	4681                	li	a3,0
   15b96:	00000073          	ecall
   15b9a:	4711                	li	a4,4
   15b9c:	8526                	mv	a0,s1
   15b9e:	4581                	li	a1,0
   15ba0:	4601                	li	a2,0
   15ba2:	4681                	li	a3,0
   15ba4:	00000073          	ecall
   15ba8:	50f2                	lw	ra,60(sp)
   15baa:	5462                	lw	s0,56(sp)
   15bac:	54d2                	lw	s1,52(sp)
   15bae:	5942                	lw	s2,48(sp)
   15bb0:	6121                	addi	sp,sp,64
   15bb2:	8082                	ret

00015bb4 <_ZN18complex_no_dynamic3app17ha0d3afebe21433f6E>:
   15bb4:	711d                	addi	sp,sp,-96
   15bb6:	ce86                	sw	ra,92(sp)
   15bb8:	cca2                	sw	s0,88(sp)
   15bba:	caa6                	sw	s1,84(sp)
   15bbc:	842a                	mv	s0,a0
   15bbe:	00f10513          	addi	a0,sp,15
   15bc2:	02900613          	li	a2,41
   15bc6:	00006097          	auipc	ra,0x6
   15bca:	18e080e7          	jalr	398(ra) # 1bd54 <memcpy>
   15bce:	c482                	sw	zero,72(sp)
   15bd0:	c682                	sw	zero,76(sp)
   15bd2:	04011823          	sh	zero,80(sp)
   15bd6:	dc02                	sw	zero,56(sp)
   15bd8:	de02                	sw	zero,60(sp)
   15bda:	c082                	sw	zero,64(sp)
   15bdc:	c282                	sw	zero,68(sp)
   15bde:	6509                	lui	a0,0x2
   15be0:	4595                	li	a1,5
   15be2:	00f10613          	addi	a2,sp,15
   15be6:	02900693          	li	a3,41
   15bea:	04850793          	addi	a5,a0,72 # 2048 <.Lline_table_start1+0x1e1d>
   15bee:	4711                	li	a4,4
   15bf0:	4489                	li	s1,2
   15bf2:	853e                	mv	a0,a5
   15bf4:	00000073          	ecall
   15bf8:	02950963          	beq	a0,s1,15c2a <_ZN18complex_no_dynamic3app17ha0d3afebe21433f6E+0x76>
   15bfc:	458d                	li	a1,3
   15bfe:	1830                	addi	a2,sp,56
   15c00:	46e9                	li	a3,26
   15c02:	470d                	li	a4,3
   15c04:	853e                	mv	a0,a5
   15c06:	00000073          	ecall
   15c0a:	02950063          	beq	a0,s1,15c2a <_ZN18complex_no_dynamic3app17ha0d3afebe21433f6E+0x76>
   15c0e:	6509                	lui	a0,0x2
   15c10:	4595                	li	a1,5
   15c12:	460d                	li	a2,3
   15c14:	04850493          	addi	s1,a0,72 # 2048 <.Lline_table_start1+0x1e1d>
   15c18:	4709                	li	a4,2
   15c1a:	07f00813          	li	a6,127
   15c1e:	8526                	mv	a0,s1
   15c20:	4681                	li	a3,0
   15c22:	00000073          	ecall
   15c26:	02a86963          	bltu	a6,a0,15c58 <_ZN18complex_no_dynamic3app17ha0d3afebe21433f6E+0xa4>
   15c2a:	853e                	mv	a0,a5
   15c2c:	4601                	li	a2,0
   15c2e:	4681                	li	a3,0
   15c30:	4705                	li	a4,1
   15c32:	00e40023          	sb	a4,0(s0)
   15c36:	c04c                	sw	a1,4(s0)
   15c38:	458d                	li	a1,3
   15c3a:	470d                	li	a4,3
   15c3c:	00000073          	ecall
   15c40:	4595                	li	a1,5
   15c42:	4711                	li	a4,4
   15c44:	853e                	mv	a0,a5
   15c46:	4601                	li	a2,0
   15c48:	4681                	li	a3,0
   15c4a:	00000073          	ecall
   15c4e:	40f6                	lw	ra,92(sp)
   15c50:	4466                	lw	s0,88(sp)
   15c52:	44d6                	lw	s1,84(sp)
   15c54:	6125                	addi	sp,sp,96
   15c56:	8082                	ret
   15c58:	8526                	mv	a0,s1
   15c5a:	4601                	li	a2,0
   15c5c:	4681                	li	a3,0
   15c5e:	458d                	li	a1,3
   15c60:	470d                	li	a4,3
   15c62:	00000073          	ecall
   15c66:	458d                	li	a1,3
   15c68:	470d                	li	a4,3
   15c6a:	8526                	mv	a0,s1
   15c6c:	4601                	li	a2,0
   15c6e:	4681                	li	a3,0
   15c70:	00000073          	ecall
   15c74:	00140513          	addi	a0,s0,1
   15c78:	182c                	addi	a1,sp,56
   15c7a:	4669                	li	a2,26
   15c7c:	00006097          	auipc	ra,0x6
   15c80:	0d8080e7          	jalr	216(ra) # 1bd54 <memcpy>
   15c84:	8526                	mv	a0,s1
   15c86:	4601                	li	a2,0
   15c88:	4681                	li	a3,0
   15c8a:	00040023          	sb	zero,0(s0)
   15c8e:	458d                	li	a1,3
   15c90:	470d                	li	a4,3
   15c92:	00000073          	ecall
   15c96:	4595                	li	a1,5
   15c98:	4711                	li	a4,4
   15c9a:	8526                	mv	a0,s1
   15c9c:	4601                	li	a2,0
   15c9e:	4681                	li	a3,0
   15ca0:	00000073          	ecall
   15ca4:	40f6                	lw	ra,92(sp)
   15ca6:	4466                	lw	s0,88(sp)
   15ca8:	44d6                	lw	s1,84(sp)
   15caa:	6125                	addi	sp,sp,96
   15cac:	8082                	ret

00015cae <_ZN18complex_no_dynamic3app17ha9cb442621fa1373E>:
   15cae:	711d                	addi	sp,sp,-96
   15cb0:	ce86                	sw	ra,92(sp)
   15cb2:	cca2                	sw	s0,88(sp)
   15cb4:	842a                	mv	s0,a0
   15cb6:	00710513          	addi	a0,sp,7
   15cba:	02c00613          	li	a2,44
   15cbe:	00006097          	auipc	ra,0x6
   15cc2:	096080e7          	jalr	150(ra) # 1bd54 <memcpy>
   15cc6:	03310513          	addi	a0,sp,51
   15cca:	02500613          	li	a2,37
   15cce:	4581                	li	a1,0
   15cd0:	00006097          	auipc	ra,0x6
   15cd4:	018080e7          	jalr	24(ra) # 1bce8 <memset>
   15cd8:	77f00513          	li	a0,1919
   15cdc:	458d                	li	a1,3
   15cde:	00710613          	addi	a2,sp,7
   15ce2:	02c00693          	li	a3,44
   15ce6:	4711                	li	a4,4
   15ce8:	4789                	li	a5,2
   15cea:	00000073          	ecall
   15cee:	02f50a63          	beq	a0,a5,15d22 <_ZN18complex_no_dynamic3app17ha9cb442621fa1373E+0x74>
   15cf2:	77f00513          	li	a0,1919
   15cf6:	03310613          	addi	a2,sp,51
   15cfa:	02500693          	li	a3,37
   15cfe:	470d                	li	a4,3
   15d00:	4581                	li	a1,0
   15d02:	00000073          	ecall
   15d06:	00f50e63          	beq	a0,a5,15d22 <_ZN18complex_no_dynamic3app17ha9cb442621fa1373E+0x74>
   15d0a:	77f00513          	li	a0,1919
   15d0e:	458d                	li	a1,3
   15d10:	4709                	li	a4,2
   15d12:	07f00793          	li	a5,127
   15d16:	4601                	li	a2,0
   15d18:	4681                	li	a3,0
   15d1a:	00000073          	ecall
   15d1e:	02a7eb63          	bltu	a5,a0,15d54 <_ZN18complex_no_dynamic3app17ha9cb442621fa1373E+0xa6>
   15d22:	872e                	mv	a4,a1
   15d24:	4581                	li	a1,0
   15d26:	4601                	li	a2,0
   15d28:	4681                	li	a3,0
   15d2a:	4505                	li	a0,1
   15d2c:	00a40023          	sb	a0,0(s0)
   15d30:	c058                	sw	a4,4(s0)
   15d32:	77f00513          	li	a0,1919
   15d36:	470d                	li	a4,3
   15d38:	00000073          	ecall
   15d3c:	77f00513          	li	a0,1919
   15d40:	458d                	li	a1,3
   15d42:	4711                	li	a4,4
   15d44:	4601                	li	a2,0
   15d46:	4681                	li	a3,0
   15d48:	00000073          	ecall
   15d4c:	40f6                	lw	ra,92(sp)
   15d4e:	4466                	lw	s0,88(sp)
   15d50:	6125                	addi	sp,sp,96
   15d52:	8082                	ret
   15d54:	4581                	li	a1,0
   15d56:	4601                	li	a2,0
   15d58:	4681                	li	a3,0
   15d5a:	77f00513          	li	a0,1919
   15d5e:	470d                	li	a4,3
   15d60:	00000073          	ecall
   15d64:	77f00513          	li	a0,1919
   15d68:	470d                	li	a4,3
   15d6a:	4581                	li	a1,0
   15d6c:	4601                	li	a2,0
   15d6e:	4681                	li	a3,0
   15d70:	00000073          	ecall
   15d74:	00140513          	addi	a0,s0,1
   15d78:	03310593          	addi	a1,sp,51
   15d7c:	02500613          	li	a2,37
   15d80:	00006097          	auipc	ra,0x6
   15d84:	fd4080e7          	jalr	-44(ra) # 1bd54 <memcpy>
   15d88:	4581                	li	a1,0
   15d8a:	4601                	li	a2,0
   15d8c:	4681                	li	a3,0
   15d8e:	00040023          	sb	zero,0(s0)
   15d92:	77f00513          	li	a0,1919
   15d96:	470d                	li	a4,3
   15d98:	00000073          	ecall
   15d9c:	77f00513          	li	a0,1919
   15da0:	458d                	li	a1,3
   15da2:	4711                	li	a4,4
   15da4:	4601                	li	a2,0
   15da6:	4681                	li	a3,0
   15da8:	00000073          	ecall
   15dac:	40f6                	lw	ra,92(sp)
   15dae:	4466                	lw	s0,88(sp)
   15db0:	6125                	addi	sp,sp,96
   15db2:	8082                	ret

00015db4 <_ZN18complex_no_dynamic3app17haa019940f2eb7162E>:
   15db4:	7171                	addi	sp,sp,-176
   15db6:	d706                	sw	ra,172(sp)
   15db8:	d522                	sw	s0,168(sp)
   15dba:	d326                	sw	s1,164(sp)
   15dbc:	842a                	mv	s0,a0
   15dbe:	0048                	addi	a0,sp,4
   15dc0:	05100613          	li	a2,81
   15dc4:	00006097          	auipc	ra,0x6
   15dc8:	f90080e7          	jalr	-112(ra) # 1bd54 <memcpy>
   15dcc:	05510513          	addi	a0,sp,85
   15dd0:	04f00613          	li	a2,79
   15dd4:	4581                	li	a1,0
   15dd6:	00006097          	auipc	ra,0x6
   15dda:	f12080e7          	jalr	-238(ra) # 1bce8 <memset>
   15dde:	6505                	lui	a0,0x1
   15de0:	4489                	li	s1,2
   15de2:	4589                	li	a1,2
   15de4:	0050                	addi	a2,sp,4
   15de6:	e1650793          	addi	a5,a0,-490 # e16 <.Lline_table_start1+0xbeb>
   15dea:	05100693          	li	a3,81
   15dee:	4711                	li	a4,4
   15df0:	853e                	mv	a0,a5
   15df2:	00000073          	ecall
   15df6:	02950b63          	beq	a0,s1,15e2c <_ZN18complex_no_dynamic3app17haa019940f2eb7162E+0x78>
   15dfa:	4591                	li	a1,4
   15dfc:	05510613          	addi	a2,sp,85
   15e00:	04f00693          	li	a3,79
   15e04:	470d                	li	a4,3
   15e06:	853e                	mv	a0,a5
   15e08:	00000073          	ecall
   15e0c:	02950063          	beq	a0,s1,15e2c <_ZN18complex_no_dynamic3app17haa019940f2eb7162E+0x78>
   15e10:	6505                	lui	a0,0x1
   15e12:	4589                	li	a1,2
   15e14:	4611                	li	a2,4
   15e16:	e1650493          	addi	s1,a0,-490 # e16 <.Lline_table_start1+0xbeb>
   15e1a:	4709                	li	a4,2
   15e1c:	07f00813          	li	a6,127
   15e20:	8526                	mv	a0,s1
   15e22:	4681                	li	a3,0
   15e24:	00000073          	ecall
   15e28:	02a86963          	bltu	a6,a0,15e5a <_ZN18complex_no_dynamic3app17haa019940f2eb7162E+0xa6>
   15e2c:	853e                	mv	a0,a5
   15e2e:	4601                	li	a2,0
   15e30:	4681                	li	a3,0
   15e32:	4705                	li	a4,1
   15e34:	00e40023          	sb	a4,0(s0)
   15e38:	c04c                	sw	a1,4(s0)
   15e3a:	4591                	li	a1,4
   15e3c:	470d                	li	a4,3
   15e3e:	00000073          	ecall
   15e42:	4589                	li	a1,2
   15e44:	4711                	li	a4,4
   15e46:	853e                	mv	a0,a5
   15e48:	4601                	li	a2,0
   15e4a:	4681                	li	a3,0
   15e4c:	00000073          	ecall
   15e50:	50ba                	lw	ra,172(sp)
   15e52:	542a                	lw	s0,168(sp)
   15e54:	549a                	lw	s1,164(sp)
   15e56:	614d                	addi	sp,sp,176
   15e58:	8082                	ret
   15e5a:	8526                	mv	a0,s1
   15e5c:	4601                	li	a2,0
   15e5e:	4681                	li	a3,0
   15e60:	4591                	li	a1,4
   15e62:	470d                	li	a4,3
   15e64:	00000073          	ecall
   15e68:	4591                	li	a1,4
   15e6a:	470d                	li	a4,3
   15e6c:	8526                	mv	a0,s1
   15e6e:	4601                	li	a2,0
   15e70:	4681                	li	a3,0
   15e72:	00000073          	ecall
   15e76:	00140513          	addi	a0,s0,1
   15e7a:	05510593          	addi	a1,sp,85
   15e7e:	04f00613          	li	a2,79
   15e82:	00006097          	auipc	ra,0x6
   15e86:	ed2080e7          	jalr	-302(ra) # 1bd54 <memcpy>
   15e8a:	8526                	mv	a0,s1
   15e8c:	4601                	li	a2,0
   15e8e:	4681                	li	a3,0
   15e90:	00040023          	sb	zero,0(s0)
   15e94:	4591                	li	a1,4
   15e96:	470d                	li	a4,3
   15e98:	00000073          	ecall
   15e9c:	4589                	li	a1,2
   15e9e:	4711                	li	a4,4
   15ea0:	8526                	mv	a0,s1
   15ea2:	4601                	li	a2,0
   15ea4:	4681                	li	a3,0
   15ea6:	00000073          	ecall
   15eaa:	50ba                	lw	ra,172(sp)
   15eac:	542a                	lw	s0,168(sp)
   15eae:	549a                	lw	s1,164(sp)
   15eb0:	614d                	addi	sp,sp,176
   15eb2:	8082                	ret

00015eb4 <_ZN18complex_no_dynamic3app17hb103d22521799e85E>:
   15eb4:	7159                	addi	sp,sp,-112
   15eb6:	d686                	sw	ra,108(sp)
   15eb8:	d4a2                	sw	s0,104(sp)
   15eba:	d2a6                	sw	s1,100(sp)
   15ebc:	842a                	mv	s0,a0
   15ebe:	00b10513          	addi	a0,sp,11
   15ec2:	04100613          	li	a2,65
   15ec6:	00006097          	auipc	ra,0x6
   15eca:	e8e080e7          	jalr	-370(ra) # 1bd54 <memcpy>
   15ece:	ce82                	sw	zero,92(sp)
   15ed0:	d082                	sw	zero,96(sp)
   15ed2:	c682                	sw	zero,76(sp)
   15ed4:	c882                	sw	zero,80(sp)
   15ed6:	ca82                	sw	zero,84(sp)
   15ed8:	cc82                	sw	zero,88(sp)
   15eda:	6509                	lui	a0,0x2
   15edc:	4585                	li	a1,1
   15ede:	00b10613          	addi	a2,sp,11
   15ee2:	04100693          	li	a3,65
   15ee6:	4711                	li	a4,4
   15ee8:	15650793          	addi	a5,a0,342 # 2156 <.Lline_table_start1+0x1f2b>
   15eec:	4489                	li	s1,2
   15eee:	853e                	mv	a0,a5
   15ef0:	00000073          	ecall
   15ef4:	4805                	li	a6,1
   15ef6:	02950963          	beq	a0,s1,15f28 <_ZN18complex_no_dynamic3app17hb103d22521799e85E+0x74>
   15efa:	45a5                	li	a1,9
   15efc:	00f0                	addi	a2,sp,76
   15efe:	46e1                	li	a3,24
   15f00:	470d                	li	a4,3
   15f02:	853e                	mv	a0,a5
   15f04:	00000073          	ecall
   15f08:	02950063          	beq	a0,s1,15f28 <_ZN18complex_no_dynamic3app17hb103d22521799e85E+0x74>
   15f0c:	6509                	lui	a0,0x2
   15f0e:	4585                	li	a1,1
   15f10:	4625                	li	a2,9
   15f12:	15650493          	addi	s1,a0,342 # 2156 <.Lline_table_start1+0x1f2b>
   15f16:	4709                	li	a4,2
   15f18:	07f00893          	li	a7,127
   15f1c:	8526                	mv	a0,s1
   15f1e:	4681                	li	a3,0
   15f20:	00000073          	ecall
   15f24:	02a8e863          	bltu	a7,a0,15f54 <_ZN18complex_no_dynamic3app17hb103d22521799e85E+0xa0>
   15f28:	853e                	mv	a0,a5
   15f2a:	4601                	li	a2,0
   15f2c:	4681                	li	a3,0
   15f2e:	01040023          	sb	a6,0(s0)
   15f32:	c04c                	sw	a1,4(s0)
   15f34:	45a5                	li	a1,9
   15f36:	470d                	li	a4,3
   15f38:	00000073          	ecall
   15f3c:	4585                	li	a1,1
   15f3e:	4711                	li	a4,4
   15f40:	853e                	mv	a0,a5
   15f42:	4601                	li	a2,0
   15f44:	4681                	li	a3,0
   15f46:	00000073          	ecall
   15f4a:	50b6                	lw	ra,108(sp)
   15f4c:	5426                	lw	s0,104(sp)
   15f4e:	5496                	lw	s1,100(sp)
   15f50:	6165                	addi	sp,sp,112
   15f52:	8082                	ret
   15f54:	8526                	mv	a0,s1
   15f56:	4601                	li	a2,0
   15f58:	4681                	li	a3,0
   15f5a:	45a5                	li	a1,9
   15f5c:	470d                	li	a4,3
   15f5e:	00000073          	ecall
   15f62:	45a5                	li	a1,9
   15f64:	470d                	li	a4,3
   15f66:	8526                	mv	a0,s1
   15f68:	4601                	li	a2,0
   15f6a:	4681                	li	a3,0
   15f6c:	00000073          	ecall
   15f70:	00140513          	addi	a0,s0,1
   15f74:	00ec                	addi	a1,sp,76
   15f76:	4661                	li	a2,24
   15f78:	00006097          	auipc	ra,0x6
   15f7c:	ddc080e7          	jalr	-548(ra) # 1bd54 <memcpy>
   15f80:	8526                	mv	a0,s1
   15f82:	4601                	li	a2,0
   15f84:	4681                	li	a3,0
   15f86:	00040023          	sb	zero,0(s0)
   15f8a:	45a5                	li	a1,9
   15f8c:	470d                	li	a4,3
   15f8e:	00000073          	ecall
   15f92:	4585                	li	a1,1
   15f94:	4711                	li	a4,4
   15f96:	8526                	mv	a0,s1
   15f98:	4601                	li	a2,0
   15f9a:	4681                	li	a3,0
   15f9c:	00000073          	ecall
   15fa0:	50b6                	lw	ra,108(sp)
   15fa2:	5426                	lw	s0,104(sp)
   15fa4:	5496                	lw	s1,100(sp)
   15fa6:	6165                	addi	sp,sp,112
   15fa8:	8082                	ret

00015faa <_ZN18complex_no_dynamic3app17hb1080ecf8a44f3ceE>:
   15faa:	715d                	addi	sp,sp,-80
   15fac:	c686                	sw	ra,76(sp)
   15fae:	c4a2                	sw	s0,72(sp)
   15fb0:	c2a6                	sw	s1,68(sp)
   15fb2:	c0ca                	sw	s2,64(sp)
   15fb4:	892a                	mv	s2,a0
   15fb6:	00c5c503          	lbu	a0,12(a1)
   15fba:	00d5c603          	lbu	a2,13(a1)
   15fbe:	00e5c683          	lbu	a3,14(a1)
   15fc2:	0085c703          	lbu	a4,8(a1)
   15fc6:	0095c783          	lbu	a5,9(a1)
   15fca:	00a5c403          	lbu	s0,10(a1)
   15fce:	00b5c483          	lbu	s1,11(a1)
   15fd2:	00d10d23          	sb	a3,26(sp)
   15fd6:	0622                	slli	a2,a2,0x8
   15fd8:	07a2                	slli	a5,a5,0x8
   15fda:	00a66833          	or	a6,a2,a0
   15fde:	8f5d                	or	a4,a4,a5
   15fe0:	0045c603          	lbu	a2,4(a1)
   15fe4:	0055c683          	lbu	a3,5(a1)
   15fe8:	0065c783          	lbu	a5,6(a1)
   15fec:	0075c503          	lbu	a0,7(a1)
   15ff0:	0442                	slli	s0,s0,0x10
   15ff2:	04e2                	slli	s1,s1,0x18
   15ff4:	06a2                	slli	a3,a3,0x8
   15ff6:	07c2                	slli	a5,a5,0x10
   15ff8:	0562                	slli	a0,a0,0x18
   15ffa:	8c45                	or	s0,s0,s1
   15ffc:	8e55                	or	a2,a2,a3
   15ffe:	0005c683          	lbu	a3,0(a1)
   16002:	0015c483          	lbu	s1,1(a1)
   16006:	8d5d                	or	a0,a0,a5
   16008:	0025c783          	lbu	a5,2(a1)
   1600c:	0035c583          	lbu	a1,3(a1)
   16010:	04a2                	slli	s1,s1,0x8
   16012:	8ec5                	or	a3,a3,s1
   16014:	07c2                	slli	a5,a5,0x10
   16016:	05e2                	slli	a1,a1,0x18
   16018:	8ddd                	or	a1,a1,a5
   1601a:	8f41                	or	a4,a4,s0
   1601c:	8d51                	or	a0,a0,a2
   1601e:	8dd5                	or	a1,a1,a3
   16020:	c62e                	sw	a1,12(sp)
   16022:	c82a                	sw	a0,16(sp)
   16024:	ca3a                	sw	a4,20(sp)
   16026:	01011c23          	sh	a6,24(sp)
   1602a:	01b10513          	addi	a0,sp,27
   1602e:	02500613          	li	a2,37
   16032:	4581                	li	a1,0
   16034:	00006097          	auipc	ra,0x6
   16038:	cb4080e7          	jalr	-844(ra) # 1bce8 <memset>
   1603c:	0a200513          	li	a0,162
   16040:	45a1                	li	a1,8
   16042:	0070                	addi	a2,sp,12
   16044:	46bd                	li	a3,15
   16046:	4711                	li	a4,4
   16048:	4789                	li	a5,2
   1604a:	00000073          	ecall
   1604e:	02f50a63          	beq	a0,a5,16082 <_ZN18complex_no_dynamic3app17hb1080ecf8a44f3ceE+0xd8>
   16052:	0a200513          	li	a0,162
   16056:	01b10613          	addi	a2,sp,27
   1605a:	02500693          	li	a3,37
   1605e:	470d                	li	a4,3
   16060:	4581                	li	a1,0
   16062:	00000073          	ecall
   16066:	00f50e63          	beq	a0,a5,16082 <_ZN18complex_no_dynamic3app17hb1080ecf8a44f3ceE+0xd8>
   1606a:	0a200513          	li	a0,162
   1606e:	45a1                	li	a1,8
   16070:	4709                	li	a4,2
   16072:	07f00793          	li	a5,127
   16076:	4601                	li	a2,0
   16078:	4681                	li	a3,0
   1607a:	00000073          	ecall
   1607e:	02a7ee63          	bltu	a5,a0,160ba <_ZN18complex_no_dynamic3app17hb1080ecf8a44f3ceE+0x110>
   16082:	872e                	mv	a4,a1
   16084:	4581                	li	a1,0
   16086:	4601                	li	a2,0
   16088:	4681                	li	a3,0
   1608a:	4505                	li	a0,1
   1608c:	00a90023          	sb	a0,0(s2)
   16090:	00e92223          	sw	a4,4(s2)
   16094:	0a200513          	li	a0,162
   16098:	470d                	li	a4,3
   1609a:	00000073          	ecall
   1609e:	0a200513          	li	a0,162
   160a2:	45a1                	li	a1,8
   160a4:	4711                	li	a4,4
   160a6:	4601                	li	a2,0
   160a8:	4681                	li	a3,0
   160aa:	00000073          	ecall
   160ae:	40b6                	lw	ra,76(sp)
   160b0:	4426                	lw	s0,72(sp)
   160b2:	4496                	lw	s1,68(sp)
   160b4:	4906                	lw	s2,64(sp)
   160b6:	6161                	addi	sp,sp,80
   160b8:	8082                	ret
   160ba:	4581                	li	a1,0
   160bc:	4601                	li	a2,0
   160be:	4681                	li	a3,0
   160c0:	0a200513          	li	a0,162
   160c4:	470d                	li	a4,3
   160c6:	00000073          	ecall
   160ca:	0a200513          	li	a0,162
   160ce:	470d                	li	a4,3
   160d0:	4581                	li	a1,0
   160d2:	4601                	li	a2,0
   160d4:	4681                	li	a3,0
   160d6:	00000073          	ecall
   160da:	00190513          	addi	a0,s2,1
   160de:	01b10593          	addi	a1,sp,27
   160e2:	02500613          	li	a2,37
   160e6:	00006097          	auipc	ra,0x6
   160ea:	c6e080e7          	jalr	-914(ra) # 1bd54 <memcpy>
   160ee:	4581                	li	a1,0
   160f0:	4601                	li	a2,0
   160f2:	4681                	li	a3,0
   160f4:	00090023          	sb	zero,0(s2)
   160f8:	0a200513          	li	a0,162
   160fc:	470d                	li	a4,3
   160fe:	00000073          	ecall
   16102:	0a200513          	li	a0,162
   16106:	45a1                	li	a1,8
   16108:	4711                	li	a4,4
   1610a:	4601                	li	a2,0
   1610c:	4681                	li	a3,0
   1610e:	00000073          	ecall
   16112:	40b6                	lw	ra,76(sp)
   16114:	4426                	lw	s0,72(sp)
   16116:	4496                	lw	s1,68(sp)
   16118:	4906                	lw	s2,64(sp)
   1611a:	6161                	addi	sp,sp,80
   1611c:	8082                	ret

0001611e <_ZN18complex_no_dynamic3app17hb49248a947dbbbb9E>:
   1611e:	7175                	addi	sp,sp,-144
   16120:	c706                	sw	ra,140(sp)
   16122:	c522                	sw	s0,136(sp)
   16124:	c326                	sw	s1,132(sp)
   16126:	842a                	mv	s0,a0
   16128:	00110513          	addi	a0,sp,1
   1612c:	02a00613          	li	a2,42
   16130:	00006097          	auipc	ra,0x6
   16134:	c24080e7          	jalr	-988(ra) # 1bd54 <memcpy>
   16138:	02b10513          	addi	a0,sp,43
   1613c:	05900613          	li	a2,89
   16140:	4581                	li	a1,0
   16142:	00006097          	auipc	ra,0x6
   16146:	ba6080e7          	jalr	-1114(ra) # 1bce8 <memset>
   1614a:	6505                	lui	a0,0x1
   1614c:	4585                	li	a1,1
   1614e:	00110613          	addi	a2,sp,1
   16152:	02a00693          	li	a3,42
   16156:	4711                	li	a4,4
   16158:	ed250793          	addi	a5,a0,-302 # ed2 <.Lline_table_start1+0xca7>
   1615c:	4489                	li	s1,2
   1615e:	853e                	mv	a0,a5
   16160:	00000073          	ecall
   16164:	4805                	li	a6,1
   16166:	02950b63          	beq	a0,s1,1619c <_ZN18complex_no_dynamic3app17hb49248a947dbbbb9E+0x7e>
   1616a:	458d                	li	a1,3
   1616c:	02b10613          	addi	a2,sp,43
   16170:	05900693          	li	a3,89
   16174:	470d                	li	a4,3
   16176:	853e                	mv	a0,a5
   16178:	00000073          	ecall
   1617c:	02950063          	beq	a0,s1,1619c <_ZN18complex_no_dynamic3app17hb49248a947dbbbb9E+0x7e>
   16180:	6505                	lui	a0,0x1
   16182:	4585                	li	a1,1
   16184:	460d                	li	a2,3
   16186:	ed250493          	addi	s1,a0,-302 # ed2 <.Lline_table_start1+0xca7>
   1618a:	4709                	li	a4,2
   1618c:	07f00893          	li	a7,127
   16190:	8526                	mv	a0,s1
   16192:	4681                	li	a3,0
   16194:	00000073          	ecall
   16198:	02a8e863          	bltu	a7,a0,161c8 <_ZN18complex_no_dynamic3app17hb49248a947dbbbb9E+0xaa>
   1619c:	853e                	mv	a0,a5
   1619e:	4601                	li	a2,0
   161a0:	4681                	li	a3,0
   161a2:	01040023          	sb	a6,0(s0)
   161a6:	c04c                	sw	a1,4(s0)
   161a8:	458d                	li	a1,3
   161aa:	470d                	li	a4,3
   161ac:	00000073          	ecall
   161b0:	4585                	li	a1,1
   161b2:	4711                	li	a4,4
   161b4:	853e                	mv	a0,a5
   161b6:	4601                	li	a2,0
   161b8:	4681                	li	a3,0
   161ba:	00000073          	ecall
   161be:	40ba                	lw	ra,140(sp)
   161c0:	442a                	lw	s0,136(sp)
   161c2:	449a                	lw	s1,132(sp)
   161c4:	6149                	addi	sp,sp,144
   161c6:	8082                	ret
   161c8:	8526                	mv	a0,s1
   161ca:	4601                	li	a2,0
   161cc:	4681                	li	a3,0
   161ce:	458d                	li	a1,3
   161d0:	470d                	li	a4,3
   161d2:	00000073          	ecall
   161d6:	458d                	li	a1,3
   161d8:	470d                	li	a4,3
   161da:	8526                	mv	a0,s1
   161dc:	4601                	li	a2,0
   161de:	4681                	li	a3,0
   161e0:	00000073          	ecall
   161e4:	00140513          	addi	a0,s0,1
   161e8:	02b10593          	addi	a1,sp,43
   161ec:	05900613          	li	a2,89
   161f0:	00006097          	auipc	ra,0x6
   161f4:	b64080e7          	jalr	-1180(ra) # 1bd54 <memcpy>
   161f8:	8526                	mv	a0,s1
   161fa:	4601                	li	a2,0
   161fc:	4681                	li	a3,0
   161fe:	00040023          	sb	zero,0(s0)
   16202:	458d                	li	a1,3
   16204:	470d                	li	a4,3
   16206:	00000073          	ecall
   1620a:	4585                	li	a1,1
   1620c:	4711                	li	a4,4
   1620e:	8526                	mv	a0,s1
   16210:	4601                	li	a2,0
   16212:	4681                	li	a3,0
   16214:	00000073          	ecall
   16218:	40ba                	lw	ra,140(sp)
   1621a:	442a                	lw	s0,136(sp)
   1621c:	449a                	lw	s1,132(sp)
   1621e:	6149                	addi	sp,sp,144
   16220:	8082                	ret

00016222 <_ZN18complex_no_dynamic3app17hb4b7f1d704dc83e9E>:
   16222:	711d                	addi	sp,sp,-96
   16224:	ce86                	sw	ra,92(sp)
   16226:	cca2                	sw	s0,88(sp)
   16228:	caa6                	sw	s1,84(sp)
   1622a:	842a                	mv	s0,a0
   1622c:	00110513          	addi	a0,sp,1
   16230:	02c00613          	li	a2,44
   16234:	00006097          	auipc	ra,0x6
   16238:	b20080e7          	jalr	-1248(ra) # 1bd54 <memcpy>
   1623c:	02d10513          	addi	a0,sp,45
   16240:	02700613          	li	a2,39
   16244:	4581                	li	a1,0
   16246:	00006097          	auipc	ra,0x6
   1624a:	aa2080e7          	jalr	-1374(ra) # 1bce8 <memset>
   1624e:	6505                	lui	a0,0x1
   16250:	4591                	li	a1,4
   16252:	00110613          	addi	a2,sp,1
   16256:	02c00693          	li	a3,44
   1625a:	1b550793          	addi	a5,a0,437 # 11b5 <.Lline_table_start1+0xf8a>
   1625e:	4711                	li	a4,4
   16260:	4489                	li	s1,2
   16262:	853e                	mv	a0,a5
   16264:	00000073          	ecall
   16268:	02950b63          	beq	a0,s1,1629e <_ZN18complex_no_dynamic3app17hb4b7f1d704dc83e9E+0x7c>
   1626c:	458d                	li	a1,3
   1626e:	02d10613          	addi	a2,sp,45
   16272:	02700693          	li	a3,39
   16276:	470d                	li	a4,3
   16278:	853e                	mv	a0,a5
   1627a:	00000073          	ecall
   1627e:	02950063          	beq	a0,s1,1629e <_ZN18complex_no_dynamic3app17hb4b7f1d704dc83e9E+0x7c>
   16282:	6505                	lui	a0,0x1
   16284:	4591                	li	a1,4
   16286:	460d                	li	a2,3
   16288:	1b550493          	addi	s1,a0,437 # 11b5 <.Lline_table_start1+0xf8a>
   1628c:	4709                	li	a4,2
   1628e:	07f00813          	li	a6,127
   16292:	8526                	mv	a0,s1
   16294:	4681                	li	a3,0
   16296:	00000073          	ecall
   1629a:	02a86963          	bltu	a6,a0,162cc <_ZN18complex_no_dynamic3app17hb4b7f1d704dc83e9E+0xaa>
   1629e:	853e                	mv	a0,a5
   162a0:	4601                	li	a2,0
   162a2:	4681                	li	a3,0
   162a4:	4705                	li	a4,1
   162a6:	00e40023          	sb	a4,0(s0)
   162aa:	c04c                	sw	a1,4(s0)
   162ac:	458d                	li	a1,3
   162ae:	470d                	li	a4,3
   162b0:	00000073          	ecall
   162b4:	4591                	li	a1,4
   162b6:	4711                	li	a4,4
   162b8:	853e                	mv	a0,a5
   162ba:	4601                	li	a2,0
   162bc:	4681                	li	a3,0
   162be:	00000073          	ecall
   162c2:	40f6                	lw	ra,92(sp)
   162c4:	4466                	lw	s0,88(sp)
   162c6:	44d6                	lw	s1,84(sp)
   162c8:	6125                	addi	sp,sp,96
   162ca:	8082                	ret
   162cc:	8526                	mv	a0,s1
   162ce:	4601                	li	a2,0
   162d0:	4681                	li	a3,0
   162d2:	458d                	li	a1,3
   162d4:	470d                	li	a4,3
   162d6:	00000073          	ecall
   162da:	458d                	li	a1,3
   162dc:	470d                	li	a4,3
   162de:	8526                	mv	a0,s1
   162e0:	4601                	li	a2,0
   162e2:	4681                	li	a3,0
   162e4:	00000073          	ecall
   162e8:	00140513          	addi	a0,s0,1
   162ec:	02d10593          	addi	a1,sp,45
   162f0:	02700613          	li	a2,39
   162f4:	00006097          	auipc	ra,0x6
   162f8:	a60080e7          	jalr	-1440(ra) # 1bd54 <memcpy>
   162fc:	8526                	mv	a0,s1
   162fe:	4601                	li	a2,0
   16300:	4681                	li	a3,0
   16302:	00040023          	sb	zero,0(s0)
   16306:	458d                	li	a1,3
   16308:	470d                	li	a4,3
   1630a:	00000073          	ecall
   1630e:	4591                	li	a1,4
   16310:	4711                	li	a4,4
   16312:	8526                	mv	a0,s1
   16314:	4601                	li	a2,0
   16316:	4681                	li	a3,0
   16318:	00000073          	ecall
   1631c:	40f6                	lw	ra,92(sp)
   1631e:	4466                	lw	s0,88(sp)
   16320:	44d6                	lw	s1,84(sp)
   16322:	6125                	addi	sp,sp,96
   16324:	8082                	ret

00016326 <_ZN18complex_no_dynamic3app17hb4edb7dcf1e1beffE>:
   16326:	715d                	addi	sp,sp,-80
   16328:	c686                	sw	ra,76(sp)
   1632a:	c4a2                	sw	s0,72(sp)
   1632c:	c2a6                	sw	s1,68(sp)
   1632e:	842a                	mv	s0,a0
   16330:	00910513          	addi	a0,sp,9
   16334:	02700613          	li	a2,39
   16338:	00006097          	auipc	ra,0x6
   1633c:	a1c080e7          	jalr	-1508(ra) # 1bd54 <memcpy>
   16340:	c082                	sw	zero,64(sp)
   16342:	d802                	sw	zero,48(sp)
   16344:	da02                	sw	zero,52(sp)
   16346:	dc02                	sw	zero,56(sp)
   16348:	de02                	sw	zero,60(sp)
   1634a:	6509                	lui	a0,0x2
   1634c:	4599                	li	a1,6
   1634e:	00910613          	addi	a2,sp,9
   16352:	02700693          	li	a3,39
   16356:	2c950793          	addi	a5,a0,713 # 22c9 <.Lline_table_start1+0x209e>
   1635a:	4711                	li	a4,4
   1635c:	4489                	li	s1,2
   1635e:	853e                	mv	a0,a5
   16360:	00000073          	ecall
   16364:	02950963          	beq	a0,s1,16396 <_ZN18complex_no_dynamic3app17hb4edb7dcf1e1beffE+0x70>
   16368:	4595                	li	a1,5
   1636a:	1810                	addi	a2,sp,48
   1636c:	46d1                	li	a3,20
   1636e:	470d                	li	a4,3
   16370:	853e                	mv	a0,a5
   16372:	00000073          	ecall
   16376:	02950063          	beq	a0,s1,16396 <_ZN18complex_no_dynamic3app17hb4edb7dcf1e1beffE+0x70>
   1637a:	6509                	lui	a0,0x2
   1637c:	4599                	li	a1,6
   1637e:	4615                	li	a2,5
   16380:	2c950493          	addi	s1,a0,713 # 22c9 <.Lline_table_start1+0x209e>
   16384:	4709                	li	a4,2
   16386:	07f00813          	li	a6,127
   1638a:	8526                	mv	a0,s1
   1638c:	4681                	li	a3,0
   1638e:	00000073          	ecall
   16392:	02a86963          	bltu	a6,a0,163c4 <_ZN18complex_no_dynamic3app17hb4edb7dcf1e1beffE+0x9e>
   16396:	853e                	mv	a0,a5
   16398:	4601                	li	a2,0
   1639a:	4681                	li	a3,0
   1639c:	4705                	li	a4,1
   1639e:	00e40023          	sb	a4,0(s0)
   163a2:	c04c                	sw	a1,4(s0)
   163a4:	4595                	li	a1,5
   163a6:	470d                	li	a4,3
   163a8:	00000073          	ecall
   163ac:	4599                	li	a1,6
   163ae:	4711                	li	a4,4
   163b0:	853e                	mv	a0,a5
   163b2:	4601                	li	a2,0
   163b4:	4681                	li	a3,0
   163b6:	00000073          	ecall
   163ba:	40b6                	lw	ra,76(sp)
   163bc:	4426                	lw	s0,72(sp)
   163be:	4496                	lw	s1,68(sp)
   163c0:	6161                	addi	sp,sp,80
   163c2:	8082                	ret
   163c4:	8526                	mv	a0,s1
   163c6:	4601                	li	a2,0
   163c8:	4681                	li	a3,0
   163ca:	4595                	li	a1,5
   163cc:	470d                	li	a4,3
   163ce:	00000073          	ecall
   163d2:	4595                	li	a1,5
   163d4:	470d                	li	a4,3
   163d6:	8526                	mv	a0,s1
   163d8:	4601                	li	a2,0
   163da:	4681                	li	a3,0
   163dc:	00000073          	ecall
   163e0:	00140513          	addi	a0,s0,1
   163e4:	180c                	addi	a1,sp,48
   163e6:	4651                	li	a2,20
   163e8:	00006097          	auipc	ra,0x6
   163ec:	96c080e7          	jalr	-1684(ra) # 1bd54 <memcpy>
   163f0:	8526                	mv	a0,s1
   163f2:	4601                	li	a2,0
   163f4:	4681                	li	a3,0
   163f6:	00040023          	sb	zero,0(s0)
   163fa:	4595                	li	a1,5
   163fc:	470d                	li	a4,3
   163fe:	00000073          	ecall
   16402:	4599                	li	a1,6
   16404:	4711                	li	a4,4
   16406:	8526                	mv	a0,s1
   16408:	4601                	li	a2,0
   1640a:	4681                	li	a3,0
   1640c:	00000073          	ecall
   16410:	40b6                	lw	ra,76(sp)
   16412:	4426                	lw	s0,72(sp)
   16414:	4496                	lw	s1,68(sp)
   16416:	6161                	addi	sp,sp,80
   16418:	8082                	ret

0001641a <_ZN18complex_no_dynamic3app17hb8626b2a04109e71E>:
   1641a:	7119                	addi	sp,sp,-128
   1641c:	de86                	sw	ra,124(sp)
   1641e:	dca2                	sw	s0,120(sp)
   16420:	daa6                	sw	s1,116(sp)
   16422:	d8ca                	sw	s2,112(sp)
   16424:	d6ce                	sw	s3,108(sp)
   16426:	d4d2                	sw	s4,104(sp)
   16428:	892a                	mv	s2,a0
   1642a:	01c5c303          	lbu	t1,28(a1)
   1642e:	01d5c603          	lbu	a2,29(a1)
   16432:	0185c683          	lbu	a3,24(a1)
   16436:	0195c703          	lbu	a4,25(a1)
   1643a:	01a5c803          	lbu	a6,26(a1)
   1643e:	01b5c283          	lbu	t0,27(a1)
   16442:	0145c883          	lbu	a7,20(a1)
   16446:	0155c383          	lbu	t2,21(a1)
   1644a:	0165c403          	lbu	s0,22(a1)
   1644e:	0175c483          	lbu	s1,23(a1)
   16452:	0105c503          	lbu	a0,16(a1)
   16456:	0115c783          	lbu	a5,17(a1)
   1645a:	0125ce03          	lbu	t3,18(a1)
   1645e:	0135ce83          	lbu	t4,19(a1)
   16462:	0622                	slli	a2,a2,0x8
   16464:	0722                	slli	a4,a4,0x8
   16466:	00666333          	or	t1,a2,t1
   1646a:	00d76f33          	or	t5,a4,a3
   1646e:	00c5cf83          	lbu	t6,12(a1)
   16472:	00d5c683          	lbu	a3,13(a1)
   16476:	00e5c703          	lbu	a4,14(a1)
   1647a:	00f5c603          	lbu	a2,15(a1)
   1647e:	0842                	slli	a6,a6,0x10
   16480:	02e2                	slli	t0,t0,0x18
   16482:	03a2                	slli	t2,t2,0x8
   16484:	0442                	slli	s0,s0,0x10
   16486:	04e2                	slli	s1,s1,0x18
   16488:	07a2                	slli	a5,a5,0x8
   1648a:	0102e2b3          	or	t0,t0,a6
   1648e:	0113e833          	or	a6,t2,a7
   16492:	0084e8b3          	or	a7,s1,s0
   16496:	00a7e3b3          	or	t2,a5,a0
   1649a:	0085c503          	lbu	a0,8(a1)
   1649e:	0095c783          	lbu	a5,9(a1)
   164a2:	00a5c403          	lbu	s0,10(a1)
   164a6:	00b5c483          	lbu	s1,11(a1)
   164aa:	0e42                	slli	t3,t3,0x10
   164ac:	0ee2                	slli	t4,t4,0x18
   164ae:	06a2                	slli	a3,a3,0x8
   164b0:	0742                	slli	a4,a4,0x10
   164b2:	0662                	slli	a2,a2,0x18
   164b4:	07a2                	slli	a5,a5,0x8
   164b6:	01ceee33          	or	t3,t4,t3
   164ba:	01f6eeb3          	or	t4,a3,t6
   164be:	00e669b3          	or	s3,a2,a4
   164c2:	00a7efb3          	or	t6,a5,a0
   164c6:	0045c703          	lbu	a4,4(a1)
   164ca:	0055c783          	lbu	a5,5(a1)
   164ce:	0065c683          	lbu	a3,6(a1)
   164d2:	0075c503          	lbu	a0,7(a1)
   164d6:	0442                	slli	s0,s0,0x10
   164d8:	04e2                	slli	s1,s1,0x18
   164da:	07a2                	slli	a5,a5,0x8
   164dc:	06c2                	slli	a3,a3,0x10
   164de:	0562                	slli	a0,a0,0x18
   164e0:	8c45                	or	s0,s0,s1
   164e2:	00e7ea33          	or	s4,a5,a4
   164e6:	0005c783          	lbu	a5,0(a1)
   164ea:	0015c483          	lbu	s1,1(a1)
   164ee:	8d55                	or	a0,a0,a3
   164f0:	0025c683          	lbu	a3,2(a1)
   164f4:	0035c583          	lbu	a1,3(a1)
   164f8:	04a2                	slli	s1,s1,0x8
   164fa:	8fc5                	or	a5,a5,s1
   164fc:	06c2                	slli	a3,a3,0x10
   164fe:	05e2                	slli	a1,a1,0x18
   16500:	8dd5                	or	a1,a1,a3
   16502:	01e2e6b3          	or	a3,t0,t5
   16506:	0108e4b3          	or	s1,a7,a6
   1650a:	007e6633          	or	a2,t3,t2
   1650e:	01d9e733          	or	a4,s3,t4
   16512:	01f46433          	or	s0,s0,t6
   16516:	01456533          	or	a0,a0,s4
   1651a:	8ddd                	or	a1,a1,a5
   1651c:	ce32                	sw	a2,28(sp)
   1651e:	d026                	sw	s1,32(sp)
   16520:	d236                	sw	a3,36(sp)
   16522:	02611423          	sh	t1,40(sp)
   16526:	c62e                	sw	a1,12(sp)
   16528:	c82a                	sw	a0,16(sp)
   1652a:	ca22                	sw	s0,20(sp)
   1652c:	cc3a                	sw	a4,24(sp)
   1652e:	1068                	addi	a0,sp,44
   16530:	03c00613          	li	a2,60
   16534:	4581                	li	a1,0
   16536:	00005097          	auipc	ra,0x5
   1653a:	7b2080e7          	jalr	1970(ra) # 1bce8 <memset>
   1653e:	6505                	lui	a0,0x1
   16540:	4489                	li	s1,2
   16542:	4589                	li	a1,2
   16544:	0070                	addi	a2,sp,12
   16546:	b3c50793          	addi	a5,a0,-1220 # b3c <.Lline_table_start1+0x911>
   1654a:	46f9                	li	a3,30
   1654c:	4711                	li	a4,4
   1654e:	853e                	mv	a0,a5
   16550:	00000073          	ecall
   16554:	02950a63          	beq	a0,s1,16588 <_ZN18complex_no_dynamic3app17hb8626b2a04109e71E+0x16e>
   16558:	458d                	li	a1,3
   1655a:	1070                	addi	a2,sp,44
   1655c:	03c00693          	li	a3,60
   16560:	470d                	li	a4,3
   16562:	853e                	mv	a0,a5
   16564:	00000073          	ecall
   16568:	02950063          	beq	a0,s1,16588 <_ZN18complex_no_dynamic3app17hb8626b2a04109e71E+0x16e>
   1656c:	6505                	lui	a0,0x1
   1656e:	4589                	li	a1,2
   16570:	460d                	li	a2,3
   16572:	b3c50493          	addi	s1,a0,-1220 # b3c <.Lline_table_start1+0x911>
   16576:	4709                	li	a4,2
   16578:	07f00413          	li	s0,127
   1657c:	8526                	mv	a0,s1
   1657e:	4681                	li	a3,0
   16580:	00000073          	ecall
   16584:	02a46d63          	bltu	s0,a0,165be <_ZN18complex_no_dynamic3app17hb8626b2a04109e71E+0x1a4>
   16588:	853e                	mv	a0,a5
   1658a:	4601                	li	a2,0
   1658c:	4681                	li	a3,0
   1658e:	4705                	li	a4,1
   16590:	00e90023          	sb	a4,0(s2)
   16594:	00b92223          	sw	a1,4(s2)
   16598:	458d                	li	a1,3
   1659a:	470d                	li	a4,3
   1659c:	00000073          	ecall
   165a0:	4589                	li	a1,2
   165a2:	4711                	li	a4,4
   165a4:	853e                	mv	a0,a5
   165a6:	4601                	li	a2,0
   165a8:	4681                	li	a3,0
   165aa:	00000073          	ecall
   165ae:	50f6                	lw	ra,124(sp)
   165b0:	5466                	lw	s0,120(sp)
   165b2:	54d6                	lw	s1,116(sp)
   165b4:	5946                	lw	s2,112(sp)
   165b6:	59b6                	lw	s3,108(sp)
   165b8:	5a26                	lw	s4,104(sp)
   165ba:	6109                	addi	sp,sp,128
   165bc:	8082                	ret
   165be:	8526                	mv	a0,s1
   165c0:	4601                	li	a2,0
   165c2:	4681                	li	a3,0
   165c4:	458d                	li	a1,3
   165c6:	470d                	li	a4,3
   165c8:	00000073          	ecall
   165cc:	458d                	li	a1,3
   165ce:	470d                	li	a4,3
   165d0:	8526                	mv	a0,s1
   165d2:	4601                	li	a2,0
   165d4:	4681                	li	a3,0
   165d6:	00000073          	ecall
   165da:	00190513          	addi	a0,s2,1
   165de:	106c                	addi	a1,sp,44
   165e0:	03c00613          	li	a2,60
   165e4:	00005097          	auipc	ra,0x5
   165e8:	770080e7          	jalr	1904(ra) # 1bd54 <memcpy>
   165ec:	8526                	mv	a0,s1
   165ee:	4601                	li	a2,0
   165f0:	4681                	li	a3,0
   165f2:	00090023          	sb	zero,0(s2)
   165f6:	458d                	li	a1,3
   165f8:	470d                	li	a4,3
   165fa:	00000073          	ecall
   165fe:	4589                	li	a1,2
   16600:	4711                	li	a4,4
   16602:	8526                	mv	a0,s1
   16604:	4601                	li	a2,0
   16606:	4681                	li	a3,0
   16608:	00000073          	ecall
   1660c:	b74d                	j	165ae <_ZN18complex_no_dynamic3app17hb8626b2a04109e71E+0x194>

0001660e <_ZN18complex_no_dynamic3app17hbb643ed1a78319afE>:
   1660e:	711d                	addi	sp,sp,-96
   16610:	ce86                	sw	ra,92(sp)
   16612:	cca2                	sw	s0,88(sp)
   16614:	caa6                	sw	s1,84(sp)
   16616:	842a                	mv	s0,a0
   16618:	00910513          	addi	a0,sp,9
   1661c:	02100613          	li	a2,33
   16620:	00005097          	auipc	ra,0x5
   16624:	734080e7          	jalr	1844(ra) # 1bd54 <memcpy>
   16628:	02a10513          	addi	a0,sp,42
   1662c:	02a00613          	li	a2,42
   16630:	4581                	li	a1,0
   16632:	00005097          	auipc	ra,0x5
   16636:	6b6080e7          	jalr	1718(ra) # 1bce8 <memset>
   1663a:	6505                	lui	a0,0x1
   1663c:	4585                	li	a1,1
   1663e:	00910613          	addi	a2,sp,9
   16642:	02100693          	li	a3,33
   16646:	4711                	li	a4,4
   16648:	5f350793          	addi	a5,a0,1523 # 15f3 <.Lline_table_start1+0x13c8>
   1664c:	4489                	li	s1,2
   1664e:	853e                	mv	a0,a5
   16650:	00000073          	ecall
   16654:	4805                	li	a6,1
   16656:	02950b63          	beq	a0,s1,1668c <_ZN18complex_no_dynamic3app17hbb643ed1a78319afE+0x7e>
   1665a:	458d                	li	a1,3
   1665c:	02a10613          	addi	a2,sp,42
   16660:	02a00693          	li	a3,42
   16664:	470d                	li	a4,3
   16666:	853e                	mv	a0,a5
   16668:	00000073          	ecall
   1666c:	02950063          	beq	a0,s1,1668c <_ZN18complex_no_dynamic3app17hbb643ed1a78319afE+0x7e>
   16670:	6505                	lui	a0,0x1
   16672:	4585                	li	a1,1
   16674:	460d                	li	a2,3
   16676:	5f350493          	addi	s1,a0,1523 # 15f3 <.Lline_table_start1+0x13c8>
   1667a:	4709                	li	a4,2
   1667c:	07f00893          	li	a7,127
   16680:	8526                	mv	a0,s1
   16682:	4681                	li	a3,0
   16684:	00000073          	ecall
   16688:	02a8e863          	bltu	a7,a0,166b8 <_ZN18complex_no_dynamic3app17hbb643ed1a78319afE+0xaa>
   1668c:	853e                	mv	a0,a5
   1668e:	4601                	li	a2,0
   16690:	4681                	li	a3,0
   16692:	01040023          	sb	a6,0(s0)
   16696:	c04c                	sw	a1,4(s0)
   16698:	458d                	li	a1,3
   1669a:	470d                	li	a4,3
   1669c:	00000073          	ecall
   166a0:	4585                	li	a1,1
   166a2:	4711                	li	a4,4
   166a4:	853e                	mv	a0,a5
   166a6:	4601                	li	a2,0
   166a8:	4681                	li	a3,0
   166aa:	00000073          	ecall
   166ae:	40f6                	lw	ra,92(sp)
   166b0:	4466                	lw	s0,88(sp)
   166b2:	44d6                	lw	s1,84(sp)
   166b4:	6125                	addi	sp,sp,96
   166b6:	8082                	ret
   166b8:	8526                	mv	a0,s1
   166ba:	4601                	li	a2,0
   166bc:	4681                	li	a3,0
   166be:	458d                	li	a1,3
   166c0:	470d                	li	a4,3
   166c2:	00000073          	ecall
   166c6:	458d                	li	a1,3
   166c8:	470d                	li	a4,3
   166ca:	8526                	mv	a0,s1
   166cc:	4601                	li	a2,0
   166ce:	4681                	li	a3,0
   166d0:	00000073          	ecall
   166d4:	00140513          	addi	a0,s0,1
   166d8:	02a10593          	addi	a1,sp,42
   166dc:	02a00613          	li	a2,42
   166e0:	00005097          	auipc	ra,0x5
   166e4:	674080e7          	jalr	1652(ra) # 1bd54 <memcpy>
   166e8:	8526                	mv	a0,s1
   166ea:	4601                	li	a2,0
   166ec:	4681                	li	a3,0
   166ee:	00040023          	sb	zero,0(s0)
   166f2:	458d                	li	a1,3
   166f4:	470d                	li	a4,3
   166f6:	00000073          	ecall
   166fa:	4585                	li	a1,1
   166fc:	4711                	li	a4,4
   166fe:	8526                	mv	a0,s1
   16700:	4601                	li	a2,0
   16702:	4681                	li	a3,0
   16704:	00000073          	ecall
   16708:	40f6                	lw	ra,92(sp)
   1670a:	4466                	lw	s0,88(sp)
   1670c:	44d6                	lw	s1,84(sp)
   1670e:	6125                	addi	sp,sp,96
   16710:	8082                	ret

00016712 <_ZN18complex_no_dynamic3app17hbf70334dade3baf1E>:
   16712:	711d                	addi	sp,sp,-96
   16714:	ce86                	sw	ra,92(sp)
   16716:	cca2                	sw	s0,88(sp)
   16718:	caa6                	sw	s1,84(sp)
   1671a:	c8ca                	sw	s2,80(sp)
   1671c:	892a                	mv	s2,a0
   1671e:	00c5c803          	lbu	a6,12(a1)
   16722:	00d5c603          	lbu	a2,13(a1)
   16726:	00e5c683          	lbu	a3,14(a1)
   1672a:	00f5c703          	lbu	a4,15(a1)
   1672e:	0085c783          	lbu	a5,8(a1)
   16732:	0095c483          	lbu	s1,9(a1)
   16736:	00a5c403          	lbu	s0,10(a1)
   1673a:	00b5c503          	lbu	a0,11(a1)
   1673e:	0622                	slli	a2,a2,0x8
   16740:	06c2                	slli	a3,a3,0x10
   16742:	0762                	slli	a4,a4,0x18
   16744:	04a2                	slli	s1,s1,0x8
   16746:	01066833          	or	a6,a2,a6
   1674a:	00d768b3          	or	a7,a4,a3
   1674e:	8fc5                	or	a5,a5,s1
   16750:	0045c703          	lbu	a4,4(a1)
   16754:	0055c483          	lbu	s1,5(a1)
   16758:	0065c603          	lbu	a2,6(a1)
   1675c:	0075c683          	lbu	a3,7(a1)
   16760:	0442                	slli	s0,s0,0x10
   16762:	0562                	slli	a0,a0,0x18
   16764:	04a2                	slli	s1,s1,0x8
   16766:	0642                	slli	a2,a2,0x10
   16768:	06e2                	slli	a3,a3,0x18
   1676a:	8d41                	or	a0,a0,s0
   1676c:	8f45                	or	a4,a4,s1
   1676e:	0005c483          	lbu	s1,0(a1)
   16772:	0015c403          	lbu	s0,1(a1)
   16776:	8e55                	or	a2,a2,a3
   16778:	0025c683          	lbu	a3,2(a1)
   1677c:	0035c583          	lbu	a1,3(a1)
   16780:	0422                	slli	s0,s0,0x8
   16782:	8c45                	or	s0,s0,s1
   16784:	06c2                	slli	a3,a3,0x10
   16786:	05e2                	slli	a1,a1,0x18
   16788:	8dd5                	or	a1,a1,a3
   1678a:	0108e6b3          	or	a3,a7,a6
   1678e:	8d5d                	or	a0,a0,a5
   16790:	8e59                	or	a2,a2,a4
   16792:	8dc1                	or	a1,a1,s0
   16794:	c42e                	sw	a1,8(sp)
   16796:	c632                	sw	a2,12(sp)
   16798:	c82a                	sw	a0,16(sp)
   1679a:	ca36                	sw	a3,20(sp)
   1679c:	01a10513          	addi	a0,sp,26
   167a0:	03600613          	li	a2,54
   167a4:	4581                	li	a1,0
   167a6:	00005097          	auipc	ra,0x5
   167aa:	542080e7          	jalr	1346(ra) # 1bce8 <memset>
   167ae:	6509                	lui	a0,0x2
   167b0:	4585                	li	a1,1
   167b2:	0030                	addi	a2,sp,8
   167b4:	46c1                	li	a3,16
   167b6:	4711                	li	a4,4
   167b8:	98950793          	addi	a5,a0,-1655 # 1989 <.Lline_table_start1+0x175e>
   167bc:	4489                	li	s1,2
   167be:	853e                	mv	a0,a5
   167c0:	00000073          	ecall
   167c4:	4805                	li	a6,1
   167c6:	02950b63          	beq	a0,s1,167fc <_ZN18complex_no_dynamic3app17hbf70334dade3baf1E+0xea>
   167ca:	459d                	li	a1,7
   167cc:	01a10613          	addi	a2,sp,26
   167d0:	03600693          	li	a3,54
   167d4:	470d                	li	a4,3
   167d6:	853e                	mv	a0,a5
   167d8:	00000073          	ecall
   167dc:	02950063          	beq	a0,s1,167fc <_ZN18complex_no_dynamic3app17hbf70334dade3baf1E+0xea>
   167e0:	6509                	lui	a0,0x2
   167e2:	4585                	li	a1,1
   167e4:	461d                	li	a2,7
   167e6:	98950493          	addi	s1,a0,-1655 # 1989 <.Lline_table_start1+0x175e>
   167ea:	4709                	li	a4,2
   167ec:	07f00413          	li	s0,127
   167f0:	8526                	mv	a0,s1
   167f2:	4681                	li	a3,0
   167f4:	00000073          	ecall
   167f8:	02a46a63          	bltu	s0,a0,1682c <_ZN18complex_no_dynamic3app17hbf70334dade3baf1E+0x11a>
   167fc:	853e                	mv	a0,a5
   167fe:	4601                	li	a2,0
   16800:	4681                	li	a3,0
   16802:	01090023          	sb	a6,0(s2)
   16806:	00b92223          	sw	a1,4(s2)
   1680a:	459d                	li	a1,7
   1680c:	470d                	li	a4,3
   1680e:	00000073          	ecall
   16812:	4585                	li	a1,1
   16814:	4711                	li	a4,4
   16816:	853e                	mv	a0,a5
   16818:	4601                	li	a2,0
   1681a:	4681                	li	a3,0
   1681c:	00000073          	ecall
   16820:	40f6                	lw	ra,92(sp)
   16822:	4466                	lw	s0,88(sp)
   16824:	44d6                	lw	s1,84(sp)
   16826:	4946                	lw	s2,80(sp)
   16828:	6125                	addi	sp,sp,96
   1682a:	8082                	ret
   1682c:	8526                	mv	a0,s1
   1682e:	4601                	li	a2,0
   16830:	4681                	li	a3,0
   16832:	459d                	li	a1,7
   16834:	470d                	li	a4,3
   16836:	00000073          	ecall
   1683a:	459d                	li	a1,7
   1683c:	470d                	li	a4,3
   1683e:	8526                	mv	a0,s1
   16840:	4601                	li	a2,0
   16842:	4681                	li	a3,0
   16844:	00000073          	ecall
   16848:	00190513          	addi	a0,s2,1
   1684c:	01a10593          	addi	a1,sp,26
   16850:	03600613          	li	a2,54
   16854:	00005097          	auipc	ra,0x5
   16858:	500080e7          	jalr	1280(ra) # 1bd54 <memcpy>
   1685c:	8526                	mv	a0,s1
   1685e:	4601                	li	a2,0
   16860:	4681                	li	a3,0
   16862:	00090023          	sb	zero,0(s2)
   16866:	459d                	li	a1,7
   16868:	470d                	li	a4,3
   1686a:	00000073          	ecall
   1686e:	4585                	li	a1,1
   16870:	4711                	li	a4,4
   16872:	8526                	mv	a0,s1
   16874:	4601                	li	a2,0
   16876:	4681                	li	a3,0
   16878:	00000073          	ecall
   1687c:	40f6                	lw	ra,92(sp)
   1687e:	4466                	lw	s0,88(sp)
   16880:	44d6                	lw	s1,84(sp)
   16882:	4946                	lw	s2,80(sp)
   16884:	6125                	addi	sp,sp,96
   16886:	8082                	ret

00016888 <_ZN18complex_no_dynamic3app17hc253cc9063a8ce4eE>:
   16888:	7131                	addi	sp,sp,-192
   1688a:	df06                	sw	ra,188(sp)
   1688c:	dd22                	sw	s0,184(sp)
   1688e:	db26                	sw	s1,180(sp)
   16890:	842a                	mv	s0,a0
   16892:	00110513          	addi	a0,sp,1
   16896:	05e00613          	li	a2,94
   1689a:	00005097          	auipc	ra,0x5
   1689e:	4ba080e7          	jalr	1210(ra) # 1bd54 <memcpy>
   168a2:	05f10513          	addi	a0,sp,95
   168a6:	05500613          	li	a2,85
   168aa:	4581                	li	a1,0
   168ac:	00005097          	auipc	ra,0x5
   168b0:	43c080e7          	jalr	1084(ra) # 1bce8 <memset>
   168b4:	6505                	lui	a0,0x1
   168b6:	459d                	li	a1,7
   168b8:	00110613          	addi	a2,sp,1
   168bc:	05e00693          	li	a3,94
   168c0:	78a50793          	addi	a5,a0,1930 # 178a <.Lline_table_start1+0x155f>
   168c4:	4711                	li	a4,4
   168c6:	4489                	li	s1,2
   168c8:	853e                	mv	a0,a5
   168ca:	00000073          	ecall
   168ce:	02950b63          	beq	a0,s1,16904 <_ZN18complex_no_dynamic3app17hc253cc9063a8ce4eE+0x7c>
   168d2:	458d                	li	a1,3
   168d4:	05f10613          	addi	a2,sp,95
   168d8:	05500693          	li	a3,85
   168dc:	470d                	li	a4,3
   168de:	853e                	mv	a0,a5
   168e0:	00000073          	ecall
   168e4:	02950063          	beq	a0,s1,16904 <_ZN18complex_no_dynamic3app17hc253cc9063a8ce4eE+0x7c>
   168e8:	6505                	lui	a0,0x1
   168ea:	459d                	li	a1,7
   168ec:	460d                	li	a2,3
   168ee:	78a50493          	addi	s1,a0,1930 # 178a <.Lline_table_start1+0x155f>
   168f2:	4709                	li	a4,2
   168f4:	07f00813          	li	a6,127
   168f8:	8526                	mv	a0,s1
   168fa:	4681                	li	a3,0
   168fc:	00000073          	ecall
   16900:	02a86963          	bltu	a6,a0,16932 <_ZN18complex_no_dynamic3app17hc253cc9063a8ce4eE+0xaa>
   16904:	853e                	mv	a0,a5
   16906:	4601                	li	a2,0
   16908:	4681                	li	a3,0
   1690a:	4705                	li	a4,1
   1690c:	00e40023          	sb	a4,0(s0)
   16910:	c04c                	sw	a1,4(s0)
   16912:	458d                	li	a1,3
   16914:	470d                	li	a4,3
   16916:	00000073          	ecall
   1691a:	459d                	li	a1,7
   1691c:	4711                	li	a4,4
   1691e:	853e                	mv	a0,a5
   16920:	4601                	li	a2,0
   16922:	4681                	li	a3,0
   16924:	00000073          	ecall
   16928:	50fa                	lw	ra,188(sp)
   1692a:	546a                	lw	s0,184(sp)
   1692c:	54da                	lw	s1,180(sp)
   1692e:	6129                	addi	sp,sp,192
   16930:	8082                	ret
   16932:	8526                	mv	a0,s1
   16934:	4601                	li	a2,0
   16936:	4681                	li	a3,0
   16938:	458d                	li	a1,3
   1693a:	470d                	li	a4,3
   1693c:	00000073          	ecall
   16940:	458d                	li	a1,3
   16942:	470d                	li	a4,3
   16944:	8526                	mv	a0,s1
   16946:	4601                	li	a2,0
   16948:	4681                	li	a3,0
   1694a:	00000073          	ecall
   1694e:	00140513          	addi	a0,s0,1
   16952:	05f10593          	addi	a1,sp,95
   16956:	05500613          	li	a2,85
   1695a:	00005097          	auipc	ra,0x5
   1695e:	3fa080e7          	jalr	1018(ra) # 1bd54 <memcpy>
   16962:	8526                	mv	a0,s1
   16964:	4601                	li	a2,0
   16966:	4681                	li	a3,0
   16968:	00040023          	sb	zero,0(s0)
   1696c:	458d                	li	a1,3
   1696e:	470d                	li	a4,3
   16970:	00000073          	ecall
   16974:	459d                	li	a1,7
   16976:	4711                	li	a4,4
   16978:	8526                	mv	a0,s1
   1697a:	4601                	li	a2,0
   1697c:	4681                	li	a3,0
   1697e:	00000073          	ecall
   16982:	50fa                	lw	ra,188(sp)
   16984:	546a                	lw	s0,184(sp)
   16986:	54da                	lw	s1,180(sp)
   16988:	6129                	addi	sp,sp,192
   1698a:	8082                	ret

0001698c <_ZN18complex_no_dynamic3app17hc9559dd8524d1fd3E>:
   1698c:	7119                	addi	sp,sp,-128
   1698e:	de86                	sw	ra,124(sp)
   16990:	dca2                	sw	s0,120(sp)
   16992:	daa6                	sw	s1,116(sp)
   16994:	842a                	mv	s0,a0
   16996:	00e10513          	addi	a0,sp,14
   1699a:	02e00613          	li	a2,46
   1699e:	00005097          	auipc	ra,0x5
   169a2:	3b6080e7          	jalr	950(ra) # 1bd54 <memcpy>
   169a6:	1868                	addi	a0,sp,60
   169a8:	03800613          	li	a2,56
   169ac:	4581                	li	a1,0
   169ae:	00005097          	auipc	ra,0x5
   169b2:	33a080e7          	jalr	826(ra) # 1bce8 <memset>
   169b6:	6505                	lui	a0,0x1
   169b8:	45a5                	li	a1,9
   169ba:	00e10613          	addi	a2,sp,14
   169be:	02e00693          	li	a3,46
   169c2:	a9d50793          	addi	a5,a0,-1379 # a9d <.Lline_table_start1+0x872>
   169c6:	4711                	li	a4,4
   169c8:	4489                	li	s1,2
   169ca:	853e                	mv	a0,a5
   169cc:	00000073          	ecall
   169d0:	02950a63          	beq	a0,s1,16a04 <_ZN18complex_no_dynamic3app17hc9559dd8524d1fd3E+0x78>
   169d4:	45a5                	li	a1,9
   169d6:	1870                	addi	a2,sp,60
   169d8:	03800693          	li	a3,56
   169dc:	470d                	li	a4,3
   169de:	853e                	mv	a0,a5
   169e0:	00000073          	ecall
   169e4:	02950063          	beq	a0,s1,16a04 <_ZN18complex_no_dynamic3app17hc9559dd8524d1fd3E+0x78>
   169e8:	6505                	lui	a0,0x1
   169ea:	45a5                	li	a1,9
   169ec:	4625                	li	a2,9
   169ee:	a9d50493          	addi	s1,a0,-1379 # a9d <.Lline_table_start1+0x872>
   169f2:	4709                	li	a4,2
   169f4:	07f00813          	li	a6,127
   169f8:	8526                	mv	a0,s1
   169fa:	4681                	li	a3,0
   169fc:	00000073          	ecall
   16a00:	02a86963          	bltu	a6,a0,16a32 <_ZN18complex_no_dynamic3app17hc9559dd8524d1fd3E+0xa6>
   16a04:	853e                	mv	a0,a5
   16a06:	4601                	li	a2,0
   16a08:	4681                	li	a3,0
   16a0a:	4705                	li	a4,1
   16a0c:	00e40023          	sb	a4,0(s0)
   16a10:	c04c                	sw	a1,4(s0)
   16a12:	45a5                	li	a1,9
   16a14:	470d                	li	a4,3
   16a16:	00000073          	ecall
   16a1a:	45a5                	li	a1,9
   16a1c:	4711                	li	a4,4
   16a1e:	853e                	mv	a0,a5
   16a20:	4601                	li	a2,0
   16a22:	4681                	li	a3,0
   16a24:	00000073          	ecall
   16a28:	50f6                	lw	ra,124(sp)
   16a2a:	5466                	lw	s0,120(sp)
   16a2c:	54d6                	lw	s1,116(sp)
   16a2e:	6109                	addi	sp,sp,128
   16a30:	8082                	ret
   16a32:	8526                	mv	a0,s1
   16a34:	4601                	li	a2,0
   16a36:	4681                	li	a3,0
   16a38:	45a5                	li	a1,9
   16a3a:	470d                	li	a4,3
   16a3c:	00000073          	ecall
   16a40:	45a5                	li	a1,9
   16a42:	470d                	li	a4,3
   16a44:	8526                	mv	a0,s1
   16a46:	4601                	li	a2,0
   16a48:	4681                	li	a3,0
   16a4a:	00000073          	ecall
   16a4e:	00140513          	addi	a0,s0,1
   16a52:	186c                	addi	a1,sp,60
   16a54:	03800613          	li	a2,56
   16a58:	00005097          	auipc	ra,0x5
   16a5c:	2fc080e7          	jalr	764(ra) # 1bd54 <memcpy>
   16a60:	8526                	mv	a0,s1
   16a62:	4601                	li	a2,0
   16a64:	4681                	li	a3,0
   16a66:	00040023          	sb	zero,0(s0)
   16a6a:	45a5                	li	a1,9
   16a6c:	470d                	li	a4,3
   16a6e:	00000073          	ecall
   16a72:	45a5                	li	a1,9
   16a74:	4711                	li	a4,4
   16a76:	8526                	mv	a0,s1
   16a78:	4601                	li	a2,0
   16a7a:	4681                	li	a3,0
   16a7c:	00000073          	ecall
   16a80:	50f6                	lw	ra,124(sp)
   16a82:	5466                	lw	s0,120(sp)
   16a84:	54d6                	lw	s1,116(sp)
   16a86:	6109                	addi	sp,sp,128
   16a88:	8082                	ret

00016a8a <_ZN18complex_no_dynamic3app17hce3155ad034d041fE>:
   16a8a:	7159                	addi	sp,sp,-112
   16a8c:	d686                	sw	ra,108(sp)
   16a8e:	d4a2                	sw	s0,104(sp)
   16a90:	d2a6                	sw	s1,100(sp)
   16a92:	d0ca                	sw	s2,96(sp)
   16a94:	892a                	mv	s2,a0
   16a96:	00c5c503          	lbu	a0,12(a1)
   16a9a:	00d5c603          	lbu	a2,13(a1)
   16a9e:	00e5c683          	lbu	a3,14(a1)
   16aa2:	0085c703          	lbu	a4,8(a1)
   16aa6:	0095c783          	lbu	a5,9(a1)
   16aaa:	00a5c483          	lbu	s1,10(a1)
   16aae:	00b5c403          	lbu	s0,11(a1)
   16ab2:	00d10b23          	sb	a3,22(sp)
   16ab6:	0622                	slli	a2,a2,0x8
   16ab8:	07a2                	slli	a5,a5,0x8
   16aba:	00a66833          	or	a6,a2,a0
   16abe:	8f5d                	or	a4,a4,a5
   16ac0:	0045c603          	lbu	a2,4(a1)
   16ac4:	0055c683          	lbu	a3,5(a1)
   16ac8:	0065c783          	lbu	a5,6(a1)
   16acc:	0075c503          	lbu	a0,7(a1)
   16ad0:	04c2                	slli	s1,s1,0x10
   16ad2:	0462                	slli	s0,s0,0x18
   16ad4:	06a2                	slli	a3,a3,0x8
   16ad6:	07c2                	slli	a5,a5,0x10
   16ad8:	0562                	slli	a0,a0,0x18
   16ada:	8c45                	or	s0,s0,s1
   16adc:	8e55                	or	a2,a2,a3
   16ade:	0005c683          	lbu	a3,0(a1)
   16ae2:	0015c483          	lbu	s1,1(a1)
   16ae6:	8d5d                	or	a0,a0,a5
   16ae8:	0025c783          	lbu	a5,2(a1)
   16aec:	0035c583          	lbu	a1,3(a1)
   16af0:	04a2                	slli	s1,s1,0x8
   16af2:	8ec5                	or	a3,a3,s1
   16af4:	07c2                	slli	a5,a5,0x10
   16af6:	05e2                	slli	a1,a1,0x18
   16af8:	8ddd                	or	a1,a1,a5
   16afa:	8f41                	or	a4,a4,s0
   16afc:	8d51                	or	a0,a0,a2
   16afe:	8dd5                	or	a1,a1,a3
   16b00:	c42e                	sw	a1,8(sp)
   16b02:	c62a                	sw	a0,12(sp)
   16b04:	c83a                	sw	a4,16(sp)
   16b06:	01011a23          	sh	a6,20(sp)
   16b0a:	01a10513          	addi	a0,sp,26
   16b0e:	04600613          	li	a2,70
   16b12:	4581                	li	a1,0
   16b14:	00005097          	auipc	ra,0x5
   16b18:	1d4080e7          	jalr	468(ra) # 1bce8 <memset>
   16b1c:	6509                	lui	a0,0x2
   16b1e:	45a5                	li	a1,9
   16b20:	0030                	addi	a2,sp,8
   16b22:	46bd                	li	a3,15
   16b24:	d7e50793          	addi	a5,a0,-642 # 1d7e <.Lline_table_start1+0x1b53>
   16b28:	4711                	li	a4,4
   16b2a:	4489                	li	s1,2
   16b2c:	853e                	mv	a0,a5
   16b2e:	00000073          	ecall
   16b32:	02950b63          	beq	a0,s1,16b68 <_ZN18complex_no_dynamic3app17hce3155ad034d041fE+0xde>
   16b36:	4589                	li	a1,2
   16b38:	01a10613          	addi	a2,sp,26
   16b3c:	04600693          	li	a3,70
   16b40:	470d                	li	a4,3
   16b42:	853e                	mv	a0,a5
   16b44:	00000073          	ecall
   16b48:	02950063          	beq	a0,s1,16b68 <_ZN18complex_no_dynamic3app17hce3155ad034d041fE+0xde>
   16b4c:	6509                	lui	a0,0x2
   16b4e:	45a5                	li	a1,9
   16b50:	4609                	li	a2,2
   16b52:	d7e50493          	addi	s1,a0,-642 # 1d7e <.Lline_table_start1+0x1b53>
   16b56:	4709                	li	a4,2
   16b58:	07f00413          	li	s0,127
   16b5c:	8526                	mv	a0,s1
   16b5e:	4681                	li	a3,0
   16b60:	00000073          	ecall
   16b64:	02a46b63          	bltu	s0,a0,16b9a <_ZN18complex_no_dynamic3app17hce3155ad034d041fE+0x110>
   16b68:	853e                	mv	a0,a5
   16b6a:	4601                	li	a2,0
   16b6c:	4681                	li	a3,0
   16b6e:	4705                	li	a4,1
   16b70:	00e90023          	sb	a4,0(s2)
   16b74:	00b92223          	sw	a1,4(s2)
   16b78:	4589                	li	a1,2
   16b7a:	470d                	li	a4,3
   16b7c:	00000073          	ecall
   16b80:	45a5                	li	a1,9
   16b82:	4711                	li	a4,4
   16b84:	853e                	mv	a0,a5
   16b86:	4601                	li	a2,0
   16b88:	4681                	li	a3,0
   16b8a:	00000073          	ecall
   16b8e:	50b6                	lw	ra,108(sp)
   16b90:	5426                	lw	s0,104(sp)
   16b92:	5496                	lw	s1,100(sp)
   16b94:	5906                	lw	s2,96(sp)
   16b96:	6165                	addi	sp,sp,112
   16b98:	8082                	ret
   16b9a:	8526                	mv	a0,s1
   16b9c:	4601                	li	a2,0
   16b9e:	4681                	li	a3,0
   16ba0:	4589                	li	a1,2
   16ba2:	470d                	li	a4,3
   16ba4:	00000073          	ecall
   16ba8:	4589                	li	a1,2
   16baa:	470d                	li	a4,3
   16bac:	8526                	mv	a0,s1
   16bae:	4601                	li	a2,0
   16bb0:	4681                	li	a3,0
   16bb2:	00000073          	ecall
   16bb6:	00190513          	addi	a0,s2,1
   16bba:	01a10593          	addi	a1,sp,26
   16bbe:	04600613          	li	a2,70
   16bc2:	00005097          	auipc	ra,0x5
   16bc6:	192080e7          	jalr	402(ra) # 1bd54 <memcpy>
   16bca:	8526                	mv	a0,s1
   16bcc:	4601                	li	a2,0
   16bce:	4681                	li	a3,0
   16bd0:	00090023          	sb	zero,0(s2)
   16bd4:	4589                	li	a1,2
   16bd6:	470d                	li	a4,3
   16bd8:	00000073          	ecall
   16bdc:	45a5                	li	a1,9
   16bde:	4711                	li	a4,4
   16be0:	8526                	mv	a0,s1
   16be2:	4601                	li	a2,0
   16be4:	4681                	li	a3,0
   16be6:	00000073          	ecall
   16bea:	50b6                	lw	ra,108(sp)
   16bec:	5426                	lw	s0,104(sp)
   16bee:	5496                	lw	s1,100(sp)
   16bf0:	5906                	lw	s2,96(sp)
   16bf2:	6165                	addi	sp,sp,112
   16bf4:	8082                	ret

00016bf6 <_ZN18complex_no_dynamic3app17hcf74492623506c5cE>:
   16bf6:	7119                	addi	sp,sp,-128
   16bf8:	de86                	sw	ra,124(sp)
   16bfa:	dca2                	sw	s0,120(sp)
   16bfc:	842a                	mv	s0,a0
   16bfe:	0068                	addi	a0,sp,12
   16c00:	03800613          	li	a2,56
   16c04:	00005097          	auipc	ra,0x5
   16c08:	150080e7          	jalr	336(ra) # 1bd54 <memcpy>
   16c0c:	00c8                	addi	a0,sp,68
   16c0e:	03400613          	li	a2,52
   16c12:	4581                	li	a1,0
   16c14:	00005097          	auipc	ra,0x5
   16c18:	0d4080e7          	jalr	212(ra) # 1bce8 <memset>
   16c1c:	12e00513          	li	a0,302
   16c20:	45a1                	li	a1,8
   16c22:	0070                	addi	a2,sp,12
   16c24:	03800693          	li	a3,56
   16c28:	4711                	li	a4,4
   16c2a:	4789                	li	a5,2
   16c2c:	00000073          	ecall
   16c30:	02f50963          	beq	a0,a5,16c62 <_ZN18complex_no_dynamic3app17hcf74492623506c5cE+0x6c>
   16c34:	12e00513          	li	a0,302
   16c38:	458d                	li	a1,3
   16c3a:	00d0                	addi	a2,sp,68
   16c3c:	03400693          	li	a3,52
   16c40:	470d                	li	a4,3
   16c42:	00000073          	ecall
   16c46:	00f50e63          	beq	a0,a5,16c62 <_ZN18complex_no_dynamic3app17hcf74492623506c5cE+0x6c>
   16c4a:	12e00513          	li	a0,302
   16c4e:	45a1                	li	a1,8
   16c50:	460d                	li	a2,3
   16c52:	4709                	li	a4,2
   16c54:	07f00793          	li	a5,127
   16c58:	4681                	li	a3,0
   16c5a:	00000073          	ecall
   16c5e:	02a7ea63          	bltu	a5,a0,16c92 <_ZN18complex_no_dynamic3app17hcf74492623506c5cE+0x9c>
   16c62:	4601                	li	a2,0
   16c64:	4681                	li	a3,0
   16c66:	4705                	li	a4,1
   16c68:	12e00513          	li	a0,302
   16c6c:	00e40023          	sb	a4,0(s0)
   16c70:	c04c                	sw	a1,4(s0)
   16c72:	458d                	li	a1,3
   16c74:	470d                	li	a4,3
   16c76:	00000073          	ecall
   16c7a:	12e00513          	li	a0,302
   16c7e:	45a1                	li	a1,8
   16c80:	4711                	li	a4,4
   16c82:	4601                	li	a2,0
   16c84:	4681                	li	a3,0
   16c86:	00000073          	ecall
   16c8a:	50f6                	lw	ra,124(sp)
   16c8c:	5466                	lw	s0,120(sp)
   16c8e:	6109                	addi	sp,sp,128
   16c90:	8082                	ret
   16c92:	4601                	li	a2,0
   16c94:	4681                	li	a3,0
   16c96:	12e00513          	li	a0,302
   16c9a:	458d                	li	a1,3
   16c9c:	470d                	li	a4,3
   16c9e:	00000073          	ecall
   16ca2:	12e00513          	li	a0,302
   16ca6:	458d                	li	a1,3
   16ca8:	470d                	li	a4,3
   16caa:	4601                	li	a2,0
   16cac:	4681                	li	a3,0
   16cae:	00000073          	ecall
   16cb2:	00140513          	addi	a0,s0,1
   16cb6:	00cc                	addi	a1,sp,68
   16cb8:	03400613          	li	a2,52
   16cbc:	00005097          	auipc	ra,0x5
   16cc0:	098080e7          	jalr	152(ra) # 1bd54 <memcpy>
   16cc4:	4601                	li	a2,0
   16cc6:	4681                	li	a3,0
   16cc8:	00040023          	sb	zero,0(s0)
   16ccc:	12e00513          	li	a0,302
   16cd0:	458d                	li	a1,3
   16cd2:	470d                	li	a4,3
   16cd4:	00000073          	ecall
   16cd8:	12e00513          	li	a0,302
   16cdc:	45a1                	li	a1,8
   16cde:	4711                	li	a4,4
   16ce0:	4601                	li	a2,0
   16ce2:	4681                	li	a3,0
   16ce4:	00000073          	ecall
   16ce8:	50f6                	lw	ra,124(sp)
   16cea:	5466                	lw	s0,120(sp)
   16cec:	6109                	addi	sp,sp,128
   16cee:	8082                	ret

00016cf0 <_ZN18complex_no_dynamic3app17hd23c427d4844f3adE>:
   16cf0:	715d                	addi	sp,sp,-80
   16cf2:	c686                	sw	ra,76(sp)
   16cf4:	c4a2                	sw	s0,72(sp)
   16cf6:	c2a6                	sw	s1,68(sp)
   16cf8:	842a                	mv	s0,a0
   16cfa:	00910513          	addi	a0,sp,9
   16cfe:	02b00613          	li	a2,43
   16d02:	00005097          	auipc	ra,0x5
   16d06:	052080e7          	jalr	82(ra) # 1bd54 <memcpy>
   16d0a:	da02                	sw	zero,52(sp)
   16d0c:	dc02                	sw	zero,56(sp)
   16d0e:	de02                	sw	zero,60(sp)
   16d10:	04010023          	sb	zero,64(sp)
   16d14:	6505                	lui	a0,0x1
   16d16:	4599                	li	a1,6
   16d18:	00910613          	addi	a2,sp,9
   16d1c:	02b00693          	li	a3,43
   16d20:	46550793          	addi	a5,a0,1125 # 1465 <.Lline_table_start1+0x123a>
   16d24:	4711                	li	a4,4
   16d26:	4489                	li	s1,2
   16d28:	853e                	mv	a0,a5
   16d2a:	00000073          	ecall
   16d2e:	02950963          	beq	a0,s1,16d60 <_ZN18complex_no_dynamic3app17hd23c427d4844f3adE+0x70>
   16d32:	1850                	addi	a2,sp,52
   16d34:	46b5                	li	a3,13
   16d36:	470d                	li	a4,3
   16d38:	853e                	mv	a0,a5
   16d3a:	4581                	li	a1,0
   16d3c:	00000073          	ecall
   16d40:	02950063          	beq	a0,s1,16d60 <_ZN18complex_no_dynamic3app17hd23c427d4844f3adE+0x70>
   16d44:	6505                	lui	a0,0x1
   16d46:	4599                	li	a1,6
   16d48:	46550493          	addi	s1,a0,1125 # 1465 <.Lline_table_start1+0x123a>
   16d4c:	4709                	li	a4,2
   16d4e:	07f00813          	li	a6,127
   16d52:	8526                	mv	a0,s1
   16d54:	4601                	li	a2,0
   16d56:	4681                	li	a3,0
   16d58:	00000073          	ecall
   16d5c:	02a86a63          	bltu	a6,a0,16d90 <_ZN18complex_no_dynamic3app17hd23c427d4844f3adE+0xa0>
   16d60:	872e                	mv	a4,a1
   16d62:	853e                	mv	a0,a5
   16d64:	4581                	li	a1,0
   16d66:	4601                	li	a2,0
   16d68:	4681                	li	a3,0
   16d6a:	4485                	li	s1,1
   16d6c:	00940023          	sb	s1,0(s0)
   16d70:	c058                	sw	a4,4(s0)
   16d72:	470d                	li	a4,3
   16d74:	00000073          	ecall
   16d78:	4599                	li	a1,6
   16d7a:	4711                	li	a4,4
   16d7c:	853e                	mv	a0,a5
   16d7e:	4601                	li	a2,0
   16d80:	4681                	li	a3,0
   16d82:	00000073          	ecall
   16d86:	40b6                	lw	ra,76(sp)
   16d88:	4426                	lw	s0,72(sp)
   16d8a:	4496                	lw	s1,68(sp)
   16d8c:	6161                	addi	sp,sp,80
   16d8e:	8082                	ret
   16d90:	470d                	li	a4,3
   16d92:	8526                	mv	a0,s1
   16d94:	4581                	li	a1,0
   16d96:	4601                	li	a2,0
   16d98:	4681                	li	a3,0
   16d9a:	00000073          	ecall
   16d9e:	470d                	li	a4,3
   16da0:	8526                	mv	a0,s1
   16da2:	4581                	li	a1,0
   16da4:	4601                	li	a2,0
   16da6:	4681                	li	a3,0
   16da8:	00000073          	ecall
   16dac:	00140513          	addi	a0,s0,1
   16db0:	184c                	addi	a1,sp,52
   16db2:	4635                	li	a2,13
   16db4:	00005097          	auipc	ra,0x5
   16db8:	fa0080e7          	jalr	-96(ra) # 1bd54 <memcpy>
   16dbc:	8526                	mv	a0,s1
   16dbe:	4581                	li	a1,0
   16dc0:	4601                	li	a2,0
   16dc2:	4681                	li	a3,0
   16dc4:	00040023          	sb	zero,0(s0)
   16dc8:	470d                	li	a4,3
   16dca:	00000073          	ecall
   16dce:	4599                	li	a1,6
   16dd0:	4711                	li	a4,4
   16dd2:	8526                	mv	a0,s1
   16dd4:	4601                	li	a2,0
   16dd6:	4681                	li	a3,0
   16dd8:	00000073          	ecall
   16ddc:	40b6                	lw	ra,76(sp)
   16dde:	4426                	lw	s0,72(sp)
   16de0:	4496                	lw	s1,68(sp)
   16de2:	6161                	addi	sp,sp,80
   16de4:	8082                	ret

00016de6 <_ZN18complex_no_dynamic3app17hd92b656d6a0ce80fE>:
   16de6:	7119                	addi	sp,sp,-128
   16de8:	de86                	sw	ra,124(sp)
   16dea:	dca2                	sw	s0,120(sp)
   16dec:	daa6                	sw	s1,116(sp)
   16dee:	842a                	mv	s0,a0
   16df0:	00310513          	addi	a0,sp,3
   16df4:	04800613          	li	a2,72
   16df8:	00005097          	auipc	ra,0x5
   16dfc:	f5c080e7          	jalr	-164(ra) # 1bd54 <memcpy>
   16e00:	04b10513          	addi	a0,sp,75
   16e04:	02900613          	li	a2,41
   16e08:	4581                	li	a1,0
   16e0a:	00005097          	auipc	ra,0x5
   16e0e:	ede080e7          	jalr	-290(ra) # 1bce8 <memset>
   16e12:	6509                	lui	a0,0x2
   16e14:	458d                	li	a1,3
   16e16:	00310613          	addi	a2,sp,3
   16e1a:	04800693          	li	a3,72
   16e1e:	6a450793          	addi	a5,a0,1700 # 26a4 <.Lline_table_start1+0x2479>
   16e22:	4711                	li	a4,4
   16e24:	4489                	li	s1,2
   16e26:	853e                	mv	a0,a5
   16e28:	00000073          	ecall
   16e2c:	02950b63          	beq	a0,s1,16e62 <_ZN18complex_no_dynamic3app17hd92b656d6a0ce80fE+0x7c>
   16e30:	4591                	li	a1,4
   16e32:	04b10613          	addi	a2,sp,75
   16e36:	02900693          	li	a3,41
   16e3a:	470d                	li	a4,3
   16e3c:	853e                	mv	a0,a5
   16e3e:	00000073          	ecall
   16e42:	02950063          	beq	a0,s1,16e62 <_ZN18complex_no_dynamic3app17hd92b656d6a0ce80fE+0x7c>
   16e46:	6509                	lui	a0,0x2
   16e48:	458d                	li	a1,3
   16e4a:	4611                	li	a2,4
   16e4c:	6a450493          	addi	s1,a0,1700 # 26a4 <.Lline_table_start1+0x2479>
   16e50:	4709                	li	a4,2
   16e52:	07f00813          	li	a6,127
   16e56:	8526                	mv	a0,s1
   16e58:	4681                	li	a3,0
   16e5a:	00000073          	ecall
   16e5e:	02a86963          	bltu	a6,a0,16e90 <_ZN18complex_no_dynamic3app17hd92b656d6a0ce80fE+0xaa>
   16e62:	853e                	mv	a0,a5
   16e64:	4601                	li	a2,0
   16e66:	4681                	li	a3,0
   16e68:	4705                	li	a4,1
   16e6a:	00e40023          	sb	a4,0(s0)
   16e6e:	c04c                	sw	a1,4(s0)
   16e70:	4591                	li	a1,4
   16e72:	470d                	li	a4,3
   16e74:	00000073          	ecall
   16e78:	458d                	li	a1,3
   16e7a:	4711                	li	a4,4
   16e7c:	853e                	mv	a0,a5
   16e7e:	4601                	li	a2,0
   16e80:	4681                	li	a3,0
   16e82:	00000073          	ecall
   16e86:	50f6                	lw	ra,124(sp)
   16e88:	5466                	lw	s0,120(sp)
   16e8a:	54d6                	lw	s1,116(sp)
   16e8c:	6109                	addi	sp,sp,128
   16e8e:	8082                	ret
   16e90:	8526                	mv	a0,s1
   16e92:	4601                	li	a2,0
   16e94:	4681                	li	a3,0
   16e96:	4591                	li	a1,4
   16e98:	470d                	li	a4,3
   16e9a:	00000073          	ecall
   16e9e:	4591                	li	a1,4
   16ea0:	470d                	li	a4,3
   16ea2:	8526                	mv	a0,s1
   16ea4:	4601                	li	a2,0
   16ea6:	4681                	li	a3,0
   16ea8:	00000073          	ecall
   16eac:	00140513          	addi	a0,s0,1
   16eb0:	04b10593          	addi	a1,sp,75
   16eb4:	02900613          	li	a2,41
   16eb8:	00005097          	auipc	ra,0x5
   16ebc:	e9c080e7          	jalr	-356(ra) # 1bd54 <memcpy>
   16ec0:	8526                	mv	a0,s1
   16ec2:	4601                	li	a2,0
   16ec4:	4681                	li	a3,0
   16ec6:	00040023          	sb	zero,0(s0)
   16eca:	4591                	li	a1,4
   16ecc:	470d                	li	a4,3
   16ece:	00000073          	ecall
   16ed2:	458d                	li	a1,3
   16ed4:	4711                	li	a4,4
   16ed6:	8526                	mv	a0,s1
   16ed8:	4601                	li	a2,0
   16eda:	4681                	li	a3,0
   16edc:	00000073          	ecall
   16ee0:	50f6                	lw	ra,124(sp)
   16ee2:	5466                	lw	s0,120(sp)
   16ee4:	54d6                	lw	s1,116(sp)
   16ee6:	6109                	addi	sp,sp,128
   16ee8:	8082                	ret

00016eea <_ZN18complex_no_dynamic3app17hde58554ca0f2c45bE>:
   16eea:	7135                	addi	sp,sp,-160
   16eec:	cf06                	sw	ra,156(sp)
   16eee:	cd22                	sw	s0,152(sp)
   16ef0:	cb26                	sw	s1,148(sp)
   16ef2:	842a                	mv	s0,a0
   16ef4:	00b10513          	addi	a0,sp,11
   16ef8:	04d00613          	li	a2,77
   16efc:	00005097          	auipc	ra,0x5
   16f00:	e58080e7          	jalr	-424(ra) # 1bd54 <memcpy>
   16f04:	08a8                	addi	a0,sp,88
   16f06:	03c00613          	li	a2,60
   16f0a:	4581                	li	a1,0
   16f0c:	00005097          	auipc	ra,0x5
   16f10:	ddc080e7          	jalr	-548(ra) # 1bce8 <memset>
   16f14:	6509                	lui	a0,0x2
   16f16:	4591                	li	a1,4
   16f18:	00b10613          	addi	a2,sp,11
   16f1c:	04d00693          	li	a3,77
   16f20:	1ab50793          	addi	a5,a0,427 # 21ab <.Lline_table_start1+0x1f80>
   16f24:	4711                	li	a4,4
   16f26:	4489                	li	s1,2
   16f28:	853e                	mv	a0,a5
   16f2a:	00000073          	ecall
   16f2e:	02950a63          	beq	a0,s1,16f62 <_ZN18complex_no_dynamic3app17hde58554ca0f2c45bE+0x78>
   16f32:	45a5                	li	a1,9
   16f34:	08b0                	addi	a2,sp,88
   16f36:	03c00693          	li	a3,60
   16f3a:	470d                	li	a4,3
   16f3c:	853e                	mv	a0,a5
   16f3e:	00000073          	ecall
   16f42:	02950063          	beq	a0,s1,16f62 <_ZN18complex_no_dynamic3app17hde58554ca0f2c45bE+0x78>
   16f46:	6509                	lui	a0,0x2
   16f48:	4591                	li	a1,4
   16f4a:	4625                	li	a2,9
   16f4c:	1ab50493          	addi	s1,a0,427 # 21ab <.Lline_table_start1+0x1f80>
   16f50:	4709                	li	a4,2
   16f52:	07f00813          	li	a6,127
   16f56:	8526                	mv	a0,s1
   16f58:	4681                	li	a3,0
   16f5a:	00000073          	ecall
   16f5e:	02a86963          	bltu	a6,a0,16f90 <_ZN18complex_no_dynamic3app17hde58554ca0f2c45bE+0xa6>
   16f62:	853e                	mv	a0,a5
   16f64:	4601                	li	a2,0
   16f66:	4681                	li	a3,0
   16f68:	4705                	li	a4,1
   16f6a:	00e40023          	sb	a4,0(s0)
   16f6e:	c04c                	sw	a1,4(s0)
   16f70:	45a5                	li	a1,9
   16f72:	470d                	li	a4,3
   16f74:	00000073          	ecall
   16f78:	4591                	li	a1,4
   16f7a:	4711                	li	a4,4
   16f7c:	853e                	mv	a0,a5
   16f7e:	4601                	li	a2,0
   16f80:	4681                	li	a3,0
   16f82:	00000073          	ecall
   16f86:	40fa                	lw	ra,156(sp)
   16f88:	446a                	lw	s0,152(sp)
   16f8a:	44da                	lw	s1,148(sp)
   16f8c:	610d                	addi	sp,sp,160
   16f8e:	8082                	ret
   16f90:	8526                	mv	a0,s1
   16f92:	4601                	li	a2,0
   16f94:	4681                	li	a3,0
   16f96:	45a5                	li	a1,9
   16f98:	470d                	li	a4,3
   16f9a:	00000073          	ecall
   16f9e:	45a5                	li	a1,9
   16fa0:	470d                	li	a4,3
   16fa2:	8526                	mv	a0,s1
   16fa4:	4601                	li	a2,0
   16fa6:	4681                	li	a3,0
   16fa8:	00000073          	ecall
   16fac:	00140513          	addi	a0,s0,1
   16fb0:	08ac                	addi	a1,sp,88
   16fb2:	03c00613          	li	a2,60
   16fb6:	00005097          	auipc	ra,0x5
   16fba:	d9e080e7          	jalr	-610(ra) # 1bd54 <memcpy>
   16fbe:	8526                	mv	a0,s1
   16fc0:	4601                	li	a2,0
   16fc2:	4681                	li	a3,0
   16fc4:	00040023          	sb	zero,0(s0)
   16fc8:	45a5                	li	a1,9
   16fca:	470d                	li	a4,3
   16fcc:	00000073          	ecall
   16fd0:	4591                	li	a1,4
   16fd2:	4711                	li	a4,4
   16fd4:	8526                	mv	a0,s1
   16fd6:	4601                	li	a2,0
   16fd8:	4681                	li	a3,0
   16fda:	00000073          	ecall
   16fde:	40fa                	lw	ra,156(sp)
   16fe0:	446a                	lw	s0,152(sp)
   16fe2:	44da                	lw	s1,148(sp)
   16fe4:	610d                	addi	sp,sp,160
   16fe6:	8082                	ret

00016fe8 <_ZN18complex_no_dynamic3app17hdec833a6f031e443E>:
   16fe8:	7171                	addi	sp,sp,-176
   16fea:	d706                	sw	ra,172(sp)
   16fec:	d522                	sw	s0,168(sp)
   16fee:	d326                	sw	s1,164(sp)
   16ff0:	842a                	mv	s0,a0
   16ff2:	00110513          	addi	a0,sp,1
   16ff6:	05900613          	li	a2,89
   16ffa:	00005097          	auipc	ra,0x5
   16ffe:	d5a080e7          	jalr	-678(ra) # 1bd54 <memcpy>
   17002:	05a10513          	addi	a0,sp,90
   17006:	04a00613          	li	a2,74
   1700a:	4581                	li	a1,0
   1700c:	00005097          	auipc	ra,0x5
   17010:	cdc080e7          	jalr	-804(ra) # 1bce8 <memset>
   17014:	6505                	lui	a0,0x1
   17016:	00110613          	addi	a2,sp,1
   1701a:	05900693          	li	a3,89
   1701e:	48450793          	addi	a5,a0,1156 # 1484 <.Lline_table_start1+0x1259>
   17022:	4711                	li	a4,4
   17024:	4489                	li	s1,2
   17026:	853e                	mv	a0,a5
   17028:	4581                	li	a1,0
   1702a:	00000073          	ecall
   1702e:	02950b63          	beq	a0,s1,17064 <_ZN18complex_no_dynamic3app17hdec833a6f031e443E+0x7c>
   17032:	4591                	li	a1,4
   17034:	05a10613          	addi	a2,sp,90
   17038:	04a00693          	li	a3,74
   1703c:	470d                	li	a4,3
   1703e:	853e                	mv	a0,a5
   17040:	00000073          	ecall
   17044:	02950063          	beq	a0,s1,17064 <_ZN18complex_no_dynamic3app17hdec833a6f031e443E+0x7c>
   17048:	6505                	lui	a0,0x1
   1704a:	4611                	li	a2,4
   1704c:	48450493          	addi	s1,a0,1156 # 1484 <.Lline_table_start1+0x1259>
   17050:	4709                	li	a4,2
   17052:	07f00813          	li	a6,127
   17056:	8526                	mv	a0,s1
   17058:	4581                	li	a1,0
   1705a:	4681                	li	a3,0
   1705c:	00000073          	ecall
   17060:	02a86a63          	bltu	a6,a0,17094 <_ZN18complex_no_dynamic3app17hdec833a6f031e443E+0xac>
   17064:	862e                	mv	a2,a1
   17066:	4505                	li	a0,1
   17068:	4591                	li	a1,4
   1706a:	00a40023          	sb	a0,0(s0)
   1706e:	c050                	sw	a2,4(s0)
   17070:	470d                	li	a4,3
   17072:	853e                	mv	a0,a5
   17074:	4601                	li	a2,0
   17076:	4681                	li	a3,0
   17078:	00000073          	ecall
   1707c:	4711                	li	a4,4
   1707e:	853e                	mv	a0,a5
   17080:	4581                	li	a1,0
   17082:	4601                	li	a2,0
   17084:	4681                	li	a3,0
   17086:	00000073          	ecall
   1708a:	50ba                	lw	ra,172(sp)
   1708c:	542a                	lw	s0,168(sp)
   1708e:	549a                	lw	s1,164(sp)
   17090:	614d                	addi	sp,sp,176
   17092:	8082                	ret
   17094:	8526                	mv	a0,s1
   17096:	4601                	li	a2,0
   17098:	4681                	li	a3,0
   1709a:	4591                	li	a1,4
   1709c:	470d                	li	a4,3
   1709e:	00000073          	ecall
   170a2:	4591                	li	a1,4
   170a4:	470d                	li	a4,3
   170a6:	8526                	mv	a0,s1
   170a8:	4601                	li	a2,0
   170aa:	4681                	li	a3,0
   170ac:	00000073          	ecall
   170b0:	00140513          	addi	a0,s0,1
   170b4:	05a10593          	addi	a1,sp,90
   170b8:	04a00613          	li	a2,74
   170bc:	00005097          	auipc	ra,0x5
   170c0:	c98080e7          	jalr	-872(ra) # 1bd54 <memcpy>
   170c4:	00040023          	sb	zero,0(s0)
   170c8:	4591                	li	a1,4
   170ca:	470d                	li	a4,3
   170cc:	8526                	mv	a0,s1
   170ce:	4601                	li	a2,0
   170d0:	4681                	li	a3,0
   170d2:	00000073          	ecall
   170d6:	4711                	li	a4,4
   170d8:	8526                	mv	a0,s1
   170da:	4581                	li	a1,0
   170dc:	4601                	li	a2,0
   170de:	4681                	li	a3,0
   170e0:	00000073          	ecall
   170e4:	50ba                	lw	ra,172(sp)
   170e6:	542a                	lw	s0,168(sp)
   170e8:	549a                	lw	s1,164(sp)
   170ea:	614d                	addi	sp,sp,176
   170ec:	8082                	ret

000170ee <_ZN18complex_no_dynamic3app17he6970005dc662670E>:
   170ee:	7119                	addi	sp,sp,-128
   170f0:	de86                	sw	ra,124(sp)
   170f2:	dca2                	sw	s0,120(sp)
   170f4:	daa6                	sw	s1,116(sp)
   170f6:	842a                	mv	s0,a0
   170f8:	00310513          	addi	a0,sp,3
   170fc:	04000613          	li	a2,64
   17100:	00005097          	auipc	ra,0x5
   17104:	c54080e7          	jalr	-940(ra) # 1bd54 <memcpy>
   17108:	04310513          	addi	a0,sp,67
   1710c:	03100613          	li	a2,49
   17110:	4581                	li	a1,0
   17112:	00005097          	auipc	ra,0x5
   17116:	bd6080e7          	jalr	-1066(ra) # 1bce8 <memset>
   1711a:	6505                	lui	a0,0x1
   1711c:	45a1                	li	a1,8
   1711e:	00310613          	addi	a2,sp,3
   17122:	04000693          	li	a3,64
   17126:	fce50793          	addi	a5,a0,-50 # fce <.Lline_table_start1+0xda3>
   1712a:	4711                	li	a4,4
   1712c:	4489                	li	s1,2
   1712e:	853e                	mv	a0,a5
   17130:	00000073          	ecall
   17134:	02950b63          	beq	a0,s1,1716a <_ZN18complex_no_dynamic3app17he6970005dc662670E+0x7c>
   17138:	4595                	li	a1,5
   1713a:	04310613          	addi	a2,sp,67
   1713e:	03100693          	li	a3,49
   17142:	470d                	li	a4,3
   17144:	853e                	mv	a0,a5
   17146:	00000073          	ecall
   1714a:	02950063          	beq	a0,s1,1716a <_ZN18complex_no_dynamic3app17he6970005dc662670E+0x7c>
   1714e:	6505                	lui	a0,0x1
   17150:	45a1                	li	a1,8
   17152:	4615                	li	a2,5
   17154:	fce50493          	addi	s1,a0,-50 # fce <.Lline_table_start1+0xda3>
   17158:	4709                	li	a4,2
   1715a:	07f00813          	li	a6,127
   1715e:	8526                	mv	a0,s1
   17160:	4681                	li	a3,0
   17162:	00000073          	ecall
   17166:	02a86963          	bltu	a6,a0,17198 <_ZN18complex_no_dynamic3app17he6970005dc662670E+0xaa>
   1716a:	853e                	mv	a0,a5
   1716c:	4601                	li	a2,0
   1716e:	4681                	li	a3,0
   17170:	4705                	li	a4,1
   17172:	00e40023          	sb	a4,0(s0)
   17176:	c04c                	sw	a1,4(s0)
   17178:	4595                	li	a1,5
   1717a:	470d                	li	a4,3
   1717c:	00000073          	ecall
   17180:	45a1                	li	a1,8
   17182:	4711                	li	a4,4
   17184:	853e                	mv	a0,a5
   17186:	4601                	li	a2,0
   17188:	4681                	li	a3,0
   1718a:	00000073          	ecall
   1718e:	50f6                	lw	ra,124(sp)
   17190:	5466                	lw	s0,120(sp)
   17192:	54d6                	lw	s1,116(sp)
   17194:	6109                	addi	sp,sp,128
   17196:	8082                	ret
   17198:	8526                	mv	a0,s1
   1719a:	4601                	li	a2,0
   1719c:	4681                	li	a3,0
   1719e:	4595                	li	a1,5
   171a0:	470d                	li	a4,3
   171a2:	00000073          	ecall
   171a6:	4595                	li	a1,5
   171a8:	470d                	li	a4,3
   171aa:	8526                	mv	a0,s1
   171ac:	4601                	li	a2,0
   171ae:	4681                	li	a3,0
   171b0:	00000073          	ecall
   171b4:	00140513          	addi	a0,s0,1
   171b8:	04310593          	addi	a1,sp,67
   171bc:	03100613          	li	a2,49
   171c0:	00005097          	auipc	ra,0x5
   171c4:	b94080e7          	jalr	-1132(ra) # 1bd54 <memcpy>
   171c8:	8526                	mv	a0,s1
   171ca:	4601                	li	a2,0
   171cc:	4681                	li	a3,0
   171ce:	00040023          	sb	zero,0(s0)
   171d2:	4595                	li	a1,5
   171d4:	470d                	li	a4,3
   171d6:	00000073          	ecall
   171da:	45a1                	li	a1,8
   171dc:	4711                	li	a4,4
   171de:	8526                	mv	a0,s1
   171e0:	4601                	li	a2,0
   171e2:	4681                	li	a3,0
   171e4:	00000073          	ecall
   171e8:	50f6                	lw	ra,124(sp)
   171ea:	5466                	lw	s0,120(sp)
   171ec:	54d6                	lw	s1,116(sp)
   171ee:	6109                	addi	sp,sp,128
   171f0:	8082                	ret

000171f2 <_ZN18complex_no_dynamic3app17heb17ccd091e032c3E>:
   171f2:	715d                	addi	sp,sp,-80
   171f4:	c686                	sw	ra,76(sp)
   171f6:	c4a2                	sw	s0,72(sp)
   171f8:	842a                	mv	s0,a0
   171fa:	00210513          	addi	a0,sp,2
   171fe:	03600613          	li	a2,54
   17202:	00005097          	auipc	ra,0x5
   17206:	b52080e7          	jalr	-1198(ra) # 1bd54 <memcpy>
   1720a:	04010323          	sb	zero,70(sp)
   1720e:	dc02                	sw	zero,56(sp)
   17210:	de02                	sw	zero,60(sp)
   17212:	c082                	sw	zero,64(sp)
   17214:	04011223          	sh	zero,68(sp)
   17218:	65300513          	li	a0,1619
   1721c:	4595                	li	a1,5
   1721e:	00210613          	addi	a2,sp,2
   17222:	03600693          	li	a3,54
   17226:	4711                	li	a4,4
   17228:	4789                	li	a5,2
   1722a:	00000073          	ecall
   1722e:	02f50863          	beq	a0,a5,1725e <_ZN18complex_no_dynamic3app17heb17ccd091e032c3E+0x6c>
   17232:	65300513          	li	a0,1619
   17236:	458d                	li	a1,3
   17238:	1830                	addi	a2,sp,56
   1723a:	46bd                	li	a3,15
   1723c:	470d                	li	a4,3
   1723e:	00000073          	ecall
   17242:	00f50e63          	beq	a0,a5,1725e <_ZN18complex_no_dynamic3app17heb17ccd091e032c3E+0x6c>
   17246:	65300513          	li	a0,1619
   1724a:	4595                	li	a1,5
   1724c:	460d                	li	a2,3
   1724e:	4709                	li	a4,2
   17250:	07f00793          	li	a5,127
   17254:	4681                	li	a3,0
   17256:	00000073          	ecall
   1725a:	02a7ea63          	bltu	a5,a0,1728e <_ZN18complex_no_dynamic3app17heb17ccd091e032c3E+0x9c>
   1725e:	4601                	li	a2,0
   17260:	4681                	li	a3,0
   17262:	4705                	li	a4,1
   17264:	65300513          	li	a0,1619
   17268:	00e40023          	sb	a4,0(s0)
   1726c:	c04c                	sw	a1,4(s0)
   1726e:	458d                	li	a1,3
   17270:	470d                	li	a4,3
   17272:	00000073          	ecall
   17276:	65300513          	li	a0,1619
   1727a:	4595                	li	a1,5
   1727c:	4711                	li	a4,4
   1727e:	4601                	li	a2,0
   17280:	4681                	li	a3,0
   17282:	00000073          	ecall
   17286:	40b6                	lw	ra,76(sp)
   17288:	4426                	lw	s0,72(sp)
   1728a:	6161                	addi	sp,sp,80
   1728c:	8082                	ret
   1728e:	4601                	li	a2,0
   17290:	4681                	li	a3,0
   17292:	65300513          	li	a0,1619
   17296:	458d                	li	a1,3
   17298:	470d                	li	a4,3
   1729a:	00000073          	ecall
   1729e:	65300513          	li	a0,1619
   172a2:	458d                	li	a1,3
   172a4:	470d                	li	a4,3
   172a6:	4601                	li	a2,0
   172a8:	4681                	li	a3,0
   172aa:	00000073          	ecall
   172ae:	00140513          	addi	a0,s0,1
   172b2:	182c                	addi	a1,sp,56
   172b4:	463d                	li	a2,15
   172b6:	00005097          	auipc	ra,0x5
   172ba:	a9e080e7          	jalr	-1378(ra) # 1bd54 <memcpy>
   172be:	4601                	li	a2,0
   172c0:	4681                	li	a3,0
   172c2:	00040023          	sb	zero,0(s0)
   172c6:	65300513          	li	a0,1619
   172ca:	458d                	li	a1,3
   172cc:	470d                	li	a4,3
   172ce:	00000073          	ecall
   172d2:	65300513          	li	a0,1619
   172d6:	4595                	li	a1,5
   172d8:	4711                	li	a4,4
   172da:	4601                	li	a2,0
   172dc:	4681                	li	a3,0
   172de:	00000073          	ecall
   172e2:	40b6                	lw	ra,76(sp)
   172e4:	4426                	lw	s0,72(sp)
   172e6:	6161                	addi	sp,sp,80
   172e8:	8082                	ret

000172ea <_ZN18complex_no_dynamic3app17hebc51c17090029cfE>:
   172ea:	7159                	addi	sp,sp,-112
   172ec:	d686                	sw	ra,108(sp)
   172ee:	d4a2                	sw	s0,104(sp)
   172f0:	842a                	mv	s0,a0
   172f2:	00610513          	addi	a0,sp,6
   172f6:	03400613          	li	a2,52
   172fa:	00005097          	auipc	ra,0x5
   172fe:	a5a080e7          	jalr	-1446(ra) # 1bd54 <memcpy>
   17302:	03a10513          	addi	a0,sp,58
   17306:	02e00613          	li	a2,46
   1730a:	4581                	li	a1,0
   1730c:	00005097          	auipc	ra,0x5
   17310:	9dc080e7          	jalr	-1572(ra) # 1bce8 <memset>
   17314:	4789                	li	a5,2
   17316:	20900513          	li	a0,521
   1731a:	4589                	li	a1,2
   1731c:	00610613          	addi	a2,sp,6
   17320:	03400693          	li	a3,52
   17324:	4711                	li	a4,4
   17326:	00000073          	ecall
   1732a:	02f50a63          	beq	a0,a5,1735e <_ZN18complex_no_dynamic3app17hebc51c17090029cfE+0x74>
   1732e:	20900513          	li	a0,521
   17332:	45a1                	li	a1,8
   17334:	03a10613          	addi	a2,sp,58
   17338:	02e00693          	li	a3,46
   1733c:	470d                	li	a4,3
   1733e:	00000073          	ecall
   17342:	00f50e63          	beq	a0,a5,1735e <_ZN18complex_no_dynamic3app17hebc51c17090029cfE+0x74>
   17346:	20900513          	li	a0,521
   1734a:	4589                	li	a1,2
   1734c:	4621                	li	a2,8
   1734e:	4709                	li	a4,2
   17350:	07f00793          	li	a5,127
   17354:	4681                	li	a3,0
   17356:	00000073          	ecall
   1735a:	02a7ea63          	bltu	a5,a0,1738e <_ZN18complex_no_dynamic3app17hebc51c17090029cfE+0xa4>
   1735e:	4601                	li	a2,0
   17360:	4681                	li	a3,0
   17362:	4705                	li	a4,1
   17364:	20900513          	li	a0,521
   17368:	00e40023          	sb	a4,0(s0)
   1736c:	c04c                	sw	a1,4(s0)
   1736e:	45a1                	li	a1,8
   17370:	470d                	li	a4,3
   17372:	00000073          	ecall
   17376:	20900513          	li	a0,521
   1737a:	4589                	li	a1,2
   1737c:	4711                	li	a4,4
   1737e:	4601                	li	a2,0
   17380:	4681                	li	a3,0
   17382:	00000073          	ecall
   17386:	50b6                	lw	ra,108(sp)
   17388:	5426                	lw	s0,104(sp)
   1738a:	6165                	addi	sp,sp,112
   1738c:	8082                	ret
   1738e:	4601                	li	a2,0
   17390:	4681                	li	a3,0
   17392:	20900513          	li	a0,521
   17396:	45a1                	li	a1,8
   17398:	470d                	li	a4,3
   1739a:	00000073          	ecall
   1739e:	20900513          	li	a0,521
   173a2:	45a1                	li	a1,8
   173a4:	470d                	li	a4,3
   173a6:	4601                	li	a2,0
   173a8:	4681                	li	a3,0
   173aa:	00000073          	ecall
   173ae:	00140513          	addi	a0,s0,1
   173b2:	03a10593          	addi	a1,sp,58
   173b6:	02e00613          	li	a2,46
   173ba:	00005097          	auipc	ra,0x5
   173be:	99a080e7          	jalr	-1638(ra) # 1bd54 <memcpy>
   173c2:	4601                	li	a2,0
   173c4:	4681                	li	a3,0
   173c6:	00040023          	sb	zero,0(s0)
   173ca:	20900513          	li	a0,521
   173ce:	45a1                	li	a1,8
   173d0:	470d                	li	a4,3
   173d2:	00000073          	ecall
   173d6:	20900513          	li	a0,521
   173da:	4589                	li	a1,2
   173dc:	4711                	li	a4,4
   173de:	4601                	li	a2,0
   173e0:	4681                	li	a3,0
   173e2:	00000073          	ecall
   173e6:	50b6                	lw	ra,108(sp)
   173e8:	5426                	lw	s0,104(sp)
   173ea:	6165                	addi	sp,sp,112
   173ec:	8082                	ret

000173ee <_ZN18complex_no_dynamic3app17hecfdec870c88ff0cE>:
   173ee:	7135                	addi	sp,sp,-160
   173f0:	cf06                	sw	ra,156(sp)
   173f2:	cd22                	sw	s0,152(sp)
   173f4:	cb26                	sw	s1,148(sp)
   173f6:	842a                	mv	s0,a0
   173f8:	00710513          	addi	a0,sp,7
   173fc:	02a00613          	li	a2,42
   17400:	00005097          	auipc	ra,0x5
   17404:	954080e7          	jalr	-1708(ra) # 1bd54 <memcpy>
   17408:	03110513          	addi	a0,sp,49
   1740c:	06300613          	li	a2,99
   17410:	4581                	li	a1,0
   17412:	00005097          	auipc	ra,0x5
   17416:	8d6080e7          	jalr	-1834(ra) # 1bce8 <memset>
   1741a:	6509                	lui	a0,0x2
   1741c:	4591                	li	a1,4
   1741e:	00710613          	addi	a2,sp,7
   17422:	02a00693          	li	a3,42
   17426:	c7c50793          	addi	a5,a0,-900 # 1c7c <.Lline_table_start1+0x1a51>
   1742a:	4711                	li	a4,4
   1742c:	4489                	li	s1,2
   1742e:	853e                	mv	a0,a5
   17430:	00000073          	ecall
   17434:	02950b63          	beq	a0,s1,1746a <_ZN18complex_no_dynamic3app17hecfdec870c88ff0cE+0x7c>
   17438:	03110613          	addi	a2,sp,49
   1743c:	06300693          	li	a3,99
   17440:	470d                	li	a4,3
   17442:	853e                	mv	a0,a5
   17444:	4581                	li	a1,0
   17446:	00000073          	ecall
   1744a:	02950063          	beq	a0,s1,1746a <_ZN18complex_no_dynamic3app17hecfdec870c88ff0cE+0x7c>
   1744e:	6509                	lui	a0,0x2
   17450:	4591                	li	a1,4
   17452:	c7c50493          	addi	s1,a0,-900 # 1c7c <.Lline_table_start1+0x1a51>
   17456:	4709                	li	a4,2
   17458:	07f00813          	li	a6,127
   1745c:	8526                	mv	a0,s1
   1745e:	4601                	li	a2,0
   17460:	4681                	li	a3,0
   17462:	00000073          	ecall
   17466:	02a86a63          	bltu	a6,a0,1749a <_ZN18complex_no_dynamic3app17hecfdec870c88ff0cE+0xac>
   1746a:	872e                	mv	a4,a1
   1746c:	853e                	mv	a0,a5
   1746e:	4581                	li	a1,0
   17470:	4601                	li	a2,0
   17472:	4681                	li	a3,0
   17474:	4485                	li	s1,1
   17476:	00940023          	sb	s1,0(s0)
   1747a:	c058                	sw	a4,4(s0)
   1747c:	470d                	li	a4,3
   1747e:	00000073          	ecall
   17482:	4591                	li	a1,4
   17484:	4711                	li	a4,4
   17486:	853e                	mv	a0,a5
   17488:	4601                	li	a2,0
   1748a:	4681                	li	a3,0
   1748c:	00000073          	ecall
   17490:	40fa                	lw	ra,156(sp)
   17492:	446a                	lw	s0,152(sp)
   17494:	44da                	lw	s1,148(sp)
   17496:	610d                	addi	sp,sp,160
   17498:	8082                	ret
   1749a:	470d                	li	a4,3
   1749c:	8526                	mv	a0,s1
   1749e:	4581                	li	a1,0
   174a0:	4601                	li	a2,0
   174a2:	4681                	li	a3,0
   174a4:	00000073          	ecall
   174a8:	470d                	li	a4,3
   174aa:	8526                	mv	a0,s1
   174ac:	4581                	li	a1,0
   174ae:	4601                	li	a2,0
   174b0:	4681                	li	a3,0
   174b2:	00000073          	ecall
   174b6:	00140513          	addi	a0,s0,1
   174ba:	03110593          	addi	a1,sp,49
   174be:	06300613          	li	a2,99
   174c2:	00005097          	auipc	ra,0x5
   174c6:	892080e7          	jalr	-1902(ra) # 1bd54 <memcpy>
   174ca:	8526                	mv	a0,s1
   174cc:	4581                	li	a1,0
   174ce:	4601                	li	a2,0
   174d0:	4681                	li	a3,0
   174d2:	00040023          	sb	zero,0(s0)
   174d6:	470d                	li	a4,3
   174d8:	00000073          	ecall
   174dc:	4591                	li	a1,4
   174de:	4711                	li	a4,4
   174e0:	8526                	mv	a0,s1
   174e2:	4601                	li	a2,0
   174e4:	4681                	li	a3,0
   174e6:	00000073          	ecall
   174ea:	40fa                	lw	ra,156(sp)
   174ec:	446a                	lw	s0,152(sp)
   174ee:	44da                	lw	s1,148(sp)
   174f0:	610d                	addi	sp,sp,160
   174f2:	8082                	ret

000174f4 <_ZN18complex_no_dynamic3app17heea8281dd77529d2E>:
   174f4:	7175                	addi	sp,sp,-144
   174f6:	c706                	sw	ra,140(sp)
   174f8:	c522                	sw	s0,136(sp)
   174fa:	c326                	sw	s1,132(sp)
   174fc:	842a                	mv	s0,a0
   174fe:	00d10513          	addi	a0,sp,13
   17502:	04a00613          	li	a2,74
   17506:	00005097          	auipc	ra,0x5
   1750a:	84e080e7          	jalr	-1970(ra) # 1bd54 <memcpy>
   1750e:	05710513          	addi	a0,sp,87
   17512:	02d00613          	li	a2,45
   17516:	4581                	li	a1,0
   17518:	00004097          	auipc	ra,0x4
   1751c:	7d0080e7          	jalr	2000(ra) # 1bce8 <memset>
   17520:	6505                	lui	a0,0x1
   17522:	4489                	li	s1,2
   17524:	4589                	li	a1,2
   17526:	00d10613          	addi	a2,sp,13
   1752a:	e3d50793          	addi	a5,a0,-451 # e3d <.Lline_table_start1+0xc12>
   1752e:	04a00693          	li	a3,74
   17532:	4711                	li	a4,4
   17534:	853e                	mv	a0,a5
   17536:	00000073          	ecall
   1753a:	02950b63          	beq	a0,s1,17570 <_ZN18complex_no_dynamic3app17heea8281dd77529d2E+0x7c>
   1753e:	458d                	li	a1,3
   17540:	05710613          	addi	a2,sp,87
   17544:	02d00693          	li	a3,45
   17548:	470d                	li	a4,3
   1754a:	853e                	mv	a0,a5
   1754c:	00000073          	ecall
   17550:	02950063          	beq	a0,s1,17570 <_ZN18complex_no_dynamic3app17heea8281dd77529d2E+0x7c>
   17554:	6505                	lui	a0,0x1
   17556:	4589                	li	a1,2
   17558:	460d                	li	a2,3
   1755a:	e3d50493          	addi	s1,a0,-451 # e3d <.Lline_table_start1+0xc12>
   1755e:	4709                	li	a4,2
   17560:	07f00813          	li	a6,127
   17564:	8526                	mv	a0,s1
   17566:	4681                	li	a3,0
   17568:	00000073          	ecall
   1756c:	02a86963          	bltu	a6,a0,1759e <_ZN18complex_no_dynamic3app17heea8281dd77529d2E+0xaa>
   17570:	853e                	mv	a0,a5
   17572:	4601                	li	a2,0
   17574:	4681                	li	a3,0
   17576:	4705                	li	a4,1
   17578:	00e40023          	sb	a4,0(s0)
   1757c:	c04c                	sw	a1,4(s0)
   1757e:	458d                	li	a1,3
   17580:	470d                	li	a4,3
   17582:	00000073          	ecall
   17586:	4589                	li	a1,2
   17588:	4711                	li	a4,4
   1758a:	853e                	mv	a0,a5
   1758c:	4601                	li	a2,0
   1758e:	4681                	li	a3,0
   17590:	00000073          	ecall
   17594:	40ba                	lw	ra,140(sp)
   17596:	442a                	lw	s0,136(sp)
   17598:	449a                	lw	s1,132(sp)
   1759a:	6149                	addi	sp,sp,144
   1759c:	8082                	ret
   1759e:	8526                	mv	a0,s1
   175a0:	4601                	li	a2,0
   175a2:	4681                	li	a3,0
   175a4:	458d                	li	a1,3
   175a6:	470d                	li	a4,3
   175a8:	00000073          	ecall
   175ac:	458d                	li	a1,3
   175ae:	470d                	li	a4,3
   175b0:	8526                	mv	a0,s1
   175b2:	4601                	li	a2,0
   175b4:	4681                	li	a3,0
   175b6:	00000073          	ecall
   175ba:	00140513          	addi	a0,s0,1
   175be:	05710593          	addi	a1,sp,87
   175c2:	02d00613          	li	a2,45
   175c6:	00004097          	auipc	ra,0x4
   175ca:	78e080e7          	jalr	1934(ra) # 1bd54 <memcpy>
   175ce:	8526                	mv	a0,s1
   175d0:	4601                	li	a2,0
   175d2:	4681                	li	a3,0
   175d4:	00040023          	sb	zero,0(s0)
   175d8:	458d                	li	a1,3
   175da:	470d                	li	a4,3
   175dc:	00000073          	ecall
   175e0:	4589                	li	a1,2
   175e2:	4711                	li	a4,4
   175e4:	8526                	mv	a0,s1
   175e6:	4601                	li	a2,0
   175e8:	4681                	li	a3,0
   175ea:	00000073          	ecall
   175ee:	40ba                	lw	ra,140(sp)
   175f0:	442a                	lw	s0,136(sp)
   175f2:	449a                	lw	s1,132(sp)
   175f4:	6149                	addi	sp,sp,144
   175f6:	8082                	ret

000175f8 <_ZN18complex_no_dynamic3app17hf73025424a78ed54E>:
   175f8:	7135                	addi	sp,sp,-160
   175fa:	cf06                	sw	ra,156(sp)
   175fc:	cd22                	sw	s0,152(sp)
   175fe:	cb26                	sw	s1,148(sp)
   17600:	842a                	mv	s0,a0
   17602:	00a10513          	addi	a0,sp,10
   17606:	06300613          	li	a2,99
   1760a:	00004097          	auipc	ra,0x4
   1760e:	74a080e7          	jalr	1866(ra) # 1bd54 <memcpy>
   17612:	06d10513          	addi	a0,sp,109
   17616:	02700613          	li	a2,39
   1761a:	4581                	li	a1,0
   1761c:	00004097          	auipc	ra,0x4
   17620:	6cc080e7          	jalr	1740(ra) # 1bce8 <memset>
   17624:	6509                	lui	a0,0x2
   17626:	459d                	li	a1,7
   17628:	00a10613          	addi	a2,sp,10
   1762c:	06300693          	li	a3,99
   17630:	e5450793          	addi	a5,a0,-428 # 1e54 <.Lline_table_start1+0x1c29>
   17634:	4711                	li	a4,4
   17636:	4489                	li	s1,2
   17638:	853e                	mv	a0,a5
   1763a:	00000073          	ecall
   1763e:	02950b63          	beq	a0,s1,17674 <_ZN18complex_no_dynamic3app17hf73025424a78ed54E+0x7c>
   17642:	06d10613          	addi	a2,sp,109
   17646:	02700693          	li	a3,39
   1764a:	470d                	li	a4,3
   1764c:	853e                	mv	a0,a5
   1764e:	4581                	li	a1,0
   17650:	00000073          	ecall
   17654:	02950063          	beq	a0,s1,17674 <_ZN18complex_no_dynamic3app17hf73025424a78ed54E+0x7c>
   17658:	6509                	lui	a0,0x2
   1765a:	459d                	li	a1,7
   1765c:	e5450493          	addi	s1,a0,-428 # 1e54 <.Lline_table_start1+0x1c29>
   17660:	4709                	li	a4,2
   17662:	07f00813          	li	a6,127
   17666:	8526                	mv	a0,s1
   17668:	4601                	li	a2,0
   1766a:	4681                	li	a3,0
   1766c:	00000073          	ecall
   17670:	02a86a63          	bltu	a6,a0,176a4 <_ZN18complex_no_dynamic3app17hf73025424a78ed54E+0xac>
   17674:	872e                	mv	a4,a1
   17676:	853e                	mv	a0,a5
   17678:	4581                	li	a1,0
   1767a:	4601                	li	a2,0
   1767c:	4681                	li	a3,0
   1767e:	4485                	li	s1,1
   17680:	00940023          	sb	s1,0(s0)
   17684:	c058                	sw	a4,4(s0)
   17686:	470d                	li	a4,3
   17688:	00000073          	ecall
   1768c:	459d                	li	a1,7
   1768e:	4711                	li	a4,4
   17690:	853e                	mv	a0,a5
   17692:	4601                	li	a2,0
   17694:	4681                	li	a3,0
   17696:	00000073          	ecall
   1769a:	40fa                	lw	ra,156(sp)
   1769c:	446a                	lw	s0,152(sp)
   1769e:	44da                	lw	s1,148(sp)
   176a0:	610d                	addi	sp,sp,160
   176a2:	8082                	ret
   176a4:	470d                	li	a4,3
   176a6:	8526                	mv	a0,s1
   176a8:	4581                	li	a1,0
   176aa:	4601                	li	a2,0
   176ac:	4681                	li	a3,0
   176ae:	00000073          	ecall
   176b2:	470d                	li	a4,3
   176b4:	8526                	mv	a0,s1
   176b6:	4581                	li	a1,0
   176b8:	4601                	li	a2,0
   176ba:	4681                	li	a3,0
   176bc:	00000073          	ecall
   176c0:	00140513          	addi	a0,s0,1
   176c4:	06d10593          	addi	a1,sp,109
   176c8:	02700613          	li	a2,39
   176cc:	00004097          	auipc	ra,0x4
   176d0:	688080e7          	jalr	1672(ra) # 1bd54 <memcpy>
   176d4:	8526                	mv	a0,s1
   176d6:	4581                	li	a1,0
   176d8:	4601                	li	a2,0
   176da:	4681                	li	a3,0
   176dc:	00040023          	sb	zero,0(s0)
   176e0:	470d                	li	a4,3
   176e2:	00000073          	ecall
   176e6:	459d                	li	a1,7
   176e8:	4711                	li	a4,4
   176ea:	8526                	mv	a0,s1
   176ec:	4601                	li	a2,0
   176ee:	4681                	li	a3,0
   176f0:	00000073          	ecall
   176f4:	40fa                	lw	ra,156(sp)
   176f6:	446a                	lw	s0,152(sp)
   176f8:	44da                	lw	s1,148(sp)
   176fa:	610d                	addi	sp,sp,160
   176fc:	8082                	ret

000176fe <_ZN18complex_no_dynamic3app17hf87f6ff0a8e6eefcE>:
   176fe:	7175                	addi	sp,sp,-144
   17700:	c706                	sw	ra,140(sp)
   17702:	c522                	sw	s0,136(sp)
   17704:	c326                	sw	s1,132(sp)
   17706:	842a                	mv	s0,a0
   17708:	0068                	addi	a0,sp,12
   1770a:	02700613          	li	a2,39
   1770e:	00004097          	auipc	ra,0x4
   17712:	646080e7          	jalr	1606(ra) # 1bd54 <memcpy>
   17716:	03310513          	addi	a0,sp,51
   1771a:	05100613          	li	a2,81
   1771e:	4581                	li	a1,0
   17720:	00004097          	auipc	ra,0x4
   17724:	5c8080e7          	jalr	1480(ra) # 1bce8 <memset>
   17728:	6505                	lui	a0,0x1
   1772a:	0070                	addi	a2,sp,12
   1772c:	02700693          	li	a3,39
   17730:	a3650793          	addi	a5,a0,-1482 # a36 <.Lline_table_start1+0x80b>
   17734:	4711                	li	a4,4
   17736:	4489                	li	s1,2
   17738:	853e                	mv	a0,a5
   1773a:	4581                	li	a1,0
   1773c:	00000073          	ecall
   17740:	02950b63          	beq	a0,s1,17776 <_ZN18complex_no_dynamic3app17hf87f6ff0a8e6eefcE+0x78>
   17744:	4591                	li	a1,4
   17746:	03310613          	addi	a2,sp,51
   1774a:	05100693          	li	a3,81
   1774e:	470d                	li	a4,3
   17750:	853e                	mv	a0,a5
   17752:	00000073          	ecall
   17756:	02950063          	beq	a0,s1,17776 <_ZN18complex_no_dynamic3app17hf87f6ff0a8e6eefcE+0x78>
   1775a:	6505                	lui	a0,0x1
   1775c:	4611                	li	a2,4
   1775e:	a3650493          	addi	s1,a0,-1482 # a36 <.Lline_table_start1+0x80b>
   17762:	4709                	li	a4,2
   17764:	07f00813          	li	a6,127
   17768:	8526                	mv	a0,s1
   1776a:	4581                	li	a1,0
   1776c:	4681                	li	a3,0
   1776e:	00000073          	ecall
   17772:	02a86a63          	bltu	a6,a0,177a6 <_ZN18complex_no_dynamic3app17hf87f6ff0a8e6eefcE+0xa8>
   17776:	862e                	mv	a2,a1
   17778:	4505                	li	a0,1
   1777a:	4591                	li	a1,4
   1777c:	00a40023          	sb	a0,0(s0)
   17780:	c050                	sw	a2,4(s0)
   17782:	470d                	li	a4,3
   17784:	853e                	mv	a0,a5
   17786:	4601                	li	a2,0
   17788:	4681                	li	a3,0
   1778a:	00000073          	ecall
   1778e:	4711                	li	a4,4
   17790:	853e                	mv	a0,a5
   17792:	4581                	li	a1,0
   17794:	4601                	li	a2,0
   17796:	4681                	li	a3,0
   17798:	00000073          	ecall
   1779c:	40ba                	lw	ra,140(sp)
   1779e:	442a                	lw	s0,136(sp)
   177a0:	449a                	lw	s1,132(sp)
   177a2:	6149                	addi	sp,sp,144
   177a4:	8082                	ret
   177a6:	8526                	mv	a0,s1
   177a8:	4601                	li	a2,0
   177aa:	4681                	li	a3,0
   177ac:	4591                	li	a1,4
   177ae:	470d                	li	a4,3
   177b0:	00000073          	ecall
   177b4:	4591                	li	a1,4
   177b6:	470d                	li	a4,3
   177b8:	8526                	mv	a0,s1
   177ba:	4601                	li	a2,0
   177bc:	4681                	li	a3,0
   177be:	00000073          	ecall
   177c2:	00140513          	addi	a0,s0,1
   177c6:	03310593          	addi	a1,sp,51
   177ca:	05100613          	li	a2,81
   177ce:	00004097          	auipc	ra,0x4
   177d2:	586080e7          	jalr	1414(ra) # 1bd54 <memcpy>
   177d6:	00040023          	sb	zero,0(s0)
   177da:	4591                	li	a1,4
   177dc:	470d                	li	a4,3
   177de:	8526                	mv	a0,s1
   177e0:	4601                	li	a2,0
   177e2:	4681                	li	a3,0
   177e4:	00000073          	ecall
   177e8:	4711                	li	a4,4
   177ea:	8526                	mv	a0,s1
   177ec:	4581                	li	a1,0
   177ee:	4601                	li	a2,0
   177f0:	4681                	li	a3,0
   177f2:	00000073          	ecall
   177f6:	40ba                	lw	ra,140(sp)
   177f8:	442a                	lw	s0,136(sp)
   177fa:	449a                	lw	s1,132(sp)
   177fc:	6149                	addi	sp,sp,144
   177fe:	8082                	ret

00017800 <_ZN18complex_no_dynamic3app17hfc542869ddd2b2d1E>:
   17800:	711d                	addi	sp,sp,-96
   17802:	ce86                	sw	ra,92(sp)
   17804:	cca2                	sw	s0,88(sp)
   17806:	842a                	mv	s0,a0
   17808:	00d10513          	addi	a0,sp,13
   1780c:	02b00613          	li	a2,43
   17810:	00004097          	auipc	ra,0x4
   17814:	544080e7          	jalr	1348(ra) # 1bd54 <memcpy>
   17818:	c482                	sw	zero,72(sp)
   1781a:	c682                	sw	zero,76(sp)
   1781c:	c882                	sw	zero,80(sp)
   1781e:	04011a23          	sh	zero,84(sp)
   17822:	dc02                	sw	zero,56(sp)
   17824:	de02                	sw	zero,60(sp)
   17826:	c082                	sw	zero,64(sp)
   17828:	c282                	sw	zero,68(sp)
   1782a:	7e300513          	li	a0,2019
   1782e:	459d                	li	a1,7
   17830:	00d10613          	addi	a2,sp,13
   17834:	02b00693          	li	a3,43
   17838:	4711                	li	a4,4
   1783a:	4789                	li	a5,2
   1783c:	00000073          	ecall
   17840:	02f50863          	beq	a0,a5,17870 <_ZN18complex_no_dynamic3app17hfc542869ddd2b2d1E+0x70>
   17844:	7e300513          	li	a0,2019
   17848:	45a1                	li	a1,8
   1784a:	1830                	addi	a2,sp,56
   1784c:	46f9                	li	a3,30
   1784e:	470d                	li	a4,3
   17850:	00000073          	ecall
   17854:	00f50e63          	beq	a0,a5,17870 <_ZN18complex_no_dynamic3app17hfc542869ddd2b2d1E+0x70>
   17858:	7e300513          	li	a0,2019
   1785c:	459d                	li	a1,7
   1785e:	4621                	li	a2,8
   17860:	4709                	li	a4,2
   17862:	07f00793          	li	a5,127
   17866:	4681                	li	a3,0
   17868:	00000073          	ecall
   1786c:	02a7ea63          	bltu	a5,a0,178a0 <_ZN18complex_no_dynamic3app17hfc542869ddd2b2d1E+0xa0>
   17870:	4601                	li	a2,0
   17872:	4681                	li	a3,0
   17874:	4705                	li	a4,1
   17876:	7e300513          	li	a0,2019
   1787a:	00e40023          	sb	a4,0(s0)
   1787e:	c04c                	sw	a1,4(s0)
   17880:	45a1                	li	a1,8
   17882:	470d                	li	a4,3
   17884:	00000073          	ecall
   17888:	7e300513          	li	a0,2019
   1788c:	459d                	li	a1,7
   1788e:	4711                	li	a4,4
   17890:	4601                	li	a2,0
   17892:	4681                	li	a3,0
   17894:	00000073          	ecall
   17898:	40f6                	lw	ra,92(sp)
   1789a:	4466                	lw	s0,88(sp)
   1789c:	6125                	addi	sp,sp,96
   1789e:	8082                	ret
   178a0:	4601                	li	a2,0
   178a2:	4681                	li	a3,0
   178a4:	7e300513          	li	a0,2019
   178a8:	45a1                	li	a1,8
   178aa:	470d                	li	a4,3
   178ac:	00000073          	ecall
   178b0:	7e300513          	li	a0,2019
   178b4:	45a1                	li	a1,8
   178b6:	470d                	li	a4,3
   178b8:	4601                	li	a2,0
   178ba:	4681                	li	a3,0
   178bc:	00000073          	ecall
   178c0:	00140513          	addi	a0,s0,1
   178c4:	182c                	addi	a1,sp,56
   178c6:	4679                	li	a2,30
   178c8:	00004097          	auipc	ra,0x4
   178cc:	48c080e7          	jalr	1164(ra) # 1bd54 <memcpy>
   178d0:	4601                	li	a2,0
   178d2:	4681                	li	a3,0
   178d4:	00040023          	sb	zero,0(s0)
   178d8:	7e300513          	li	a0,2019
   178dc:	45a1                	li	a1,8
   178de:	470d                	li	a4,3
   178e0:	00000073          	ecall
   178e4:	7e300513          	li	a0,2019
   178e8:	459d                	li	a1,7
   178ea:	4711                	li	a4,4
   178ec:	4601                	li	a2,0
   178ee:	4681                	li	a3,0
   178f0:	00000073          	ecall
   178f4:	40f6                	lw	ra,92(sp)
   178f6:	4466                	lw	s0,88(sp)
   178f8:	6125                	addi	sp,sp,96
   178fa:	8082                	ret

000178fc <_ZN18complex_no_dynamic3app17hfcec716e40bbd146E>:
   178fc:	7135                	addi	sp,sp,-160
   178fe:	cf06                	sw	ra,156(sp)
   17900:	cd22                	sw	s0,152(sp)
   17902:	842a                	mv	s0,a0
   17904:	00b10513          	addi	a0,sp,11
   17908:	02f00613          	li	a2,47
   1790c:	00004097          	auipc	ra,0x4
   17910:	448080e7          	jalr	1096(ra) # 1bd54 <memcpy>
   17914:	03a10513          	addi	a0,sp,58
   17918:	05e00613          	li	a2,94
   1791c:	4581                	li	a1,0
   1791e:	00004097          	auipc	ra,0x4
   17922:	3ca080e7          	jalr	970(ra) # 1bce8 <memset>
   17926:	22b00513          	li	a0,555
   1792a:	4595                	li	a1,5
   1792c:	00b10613          	addi	a2,sp,11
   17930:	02f00693          	li	a3,47
   17934:	4711                	li	a4,4
   17936:	4789                	li	a5,2
   17938:	00000073          	ecall
   1793c:	02f50a63          	beq	a0,a5,17970 <_ZN18complex_no_dynamic3app17hfcec716e40bbd146E+0x74>
   17940:	22b00513          	li	a0,555
   17944:	4589                	li	a1,2
   17946:	03a10613          	addi	a2,sp,58
   1794a:	05e00693          	li	a3,94
   1794e:	470d                	li	a4,3
   17950:	00000073          	ecall
   17954:	00f50e63          	beq	a0,a5,17970 <_ZN18complex_no_dynamic3app17hfcec716e40bbd146E+0x74>
   17958:	22b00513          	li	a0,555
   1795c:	4595                	li	a1,5
   1795e:	4609                	li	a2,2
   17960:	4709                	li	a4,2
   17962:	07f00793          	li	a5,127
   17966:	4681                	li	a3,0
   17968:	00000073          	ecall
   1796c:	02a7ea63          	bltu	a5,a0,179a0 <_ZN18complex_no_dynamic3app17hfcec716e40bbd146E+0xa4>
   17970:	4601                	li	a2,0
   17972:	4681                	li	a3,0
   17974:	4705                	li	a4,1
   17976:	22b00513          	li	a0,555
   1797a:	00e40023          	sb	a4,0(s0)
   1797e:	c04c                	sw	a1,4(s0)
   17980:	4589                	li	a1,2
   17982:	470d                	li	a4,3
   17984:	00000073          	ecall
   17988:	22b00513          	li	a0,555
   1798c:	4595                	li	a1,5
   1798e:	4711                	li	a4,4
   17990:	4601                	li	a2,0
   17992:	4681                	li	a3,0
   17994:	00000073          	ecall
   17998:	40fa                	lw	ra,156(sp)
   1799a:	446a                	lw	s0,152(sp)
   1799c:	610d                	addi	sp,sp,160
   1799e:	8082                	ret
   179a0:	4601                	li	a2,0
   179a2:	4681                	li	a3,0
   179a4:	22b00513          	li	a0,555
   179a8:	4589                	li	a1,2
   179aa:	470d                	li	a4,3
   179ac:	00000073          	ecall
   179b0:	22b00513          	li	a0,555
   179b4:	4589                	li	a1,2
   179b6:	470d                	li	a4,3
   179b8:	4601                	li	a2,0
   179ba:	4681                	li	a3,0
   179bc:	00000073          	ecall
   179c0:	00140513          	addi	a0,s0,1
   179c4:	03a10593          	addi	a1,sp,58
   179c8:	05e00613          	li	a2,94
   179cc:	00004097          	auipc	ra,0x4
   179d0:	388080e7          	jalr	904(ra) # 1bd54 <memcpy>
   179d4:	4601                	li	a2,0
   179d6:	4681                	li	a3,0
   179d8:	00040023          	sb	zero,0(s0)
   179dc:	22b00513          	li	a0,555
   179e0:	4589                	li	a1,2
   179e2:	470d                	li	a4,3
   179e4:	00000073          	ecall
   179e8:	22b00513          	li	a0,555
   179ec:	4595                	li	a1,5
   179ee:	4711                	li	a4,4
   179f0:	4601                	li	a2,0
   179f2:	4681                	li	a3,0
   179f4:	00000073          	ecall
   179f8:	40fa                	lw	ra,156(sp)
   179fa:	446a                	lw	s0,152(sp)
   179fc:	610d                	addi	sp,sp,160
   179fe:	8082                	ret

00017a00 <_ZN18complex_no_dynamic3app17hfe9e9cd6334668f2E>:
   17a00:	7159                	addi	sp,sp,-112
   17a02:	d686                	sw	ra,108(sp)
   17a04:	d4a2                	sw	s0,104(sp)
   17a06:	d2a6                	sw	s1,100(sp)
   17a08:	842a                	mv	s0,a0
   17a0a:	00310513          	addi	a0,sp,3
   17a0e:	05100613          	li	a2,81
   17a12:	00004097          	auipc	ra,0x4
   17a16:	342080e7          	jalr	834(ra) # 1bd54 <memcpy>
   17a1a:	06010123          	sb	zero,98(sp)
   17a1e:	ca82                	sw	zero,84(sp)
   17a20:	cc82                	sw	zero,88(sp)
   17a22:	ce82                	sw	zero,92(sp)
   17a24:	06011023          	sh	zero,96(sp)
   17a28:	6505                	lui	a0,0x1
   17a2a:	00310613          	addi	a2,sp,3
   17a2e:	05100693          	li	a3,81
   17a32:	3bf50793          	addi	a5,a0,959 # 13bf <.Lline_table_start1+0x1194>
   17a36:	4711                	li	a4,4
   17a38:	4489                	li	s1,2
   17a3a:	853e                	mv	a0,a5
   17a3c:	4581                	li	a1,0
   17a3e:	00000073          	ecall
   17a42:	02950963          	beq	a0,s1,17a74 <_ZN18complex_no_dynamic3app17hfe9e9cd6334668f2E+0x74>
   17a46:	458d                	li	a1,3
   17a48:	08d0                	addi	a2,sp,84
   17a4a:	46bd                	li	a3,15
   17a4c:	470d                	li	a4,3
   17a4e:	853e                	mv	a0,a5
   17a50:	00000073          	ecall
   17a54:	02950063          	beq	a0,s1,17a74 <_ZN18complex_no_dynamic3app17hfe9e9cd6334668f2E+0x74>
   17a58:	6505                	lui	a0,0x1
   17a5a:	460d                	li	a2,3
   17a5c:	3bf50493          	addi	s1,a0,959 # 13bf <.Lline_table_start1+0x1194>
   17a60:	4709                	li	a4,2
   17a62:	07f00813          	li	a6,127
   17a66:	8526                	mv	a0,s1
   17a68:	4581                	li	a1,0
   17a6a:	4681                	li	a3,0
   17a6c:	00000073          	ecall
   17a70:	02a86a63          	bltu	a6,a0,17aa4 <_ZN18complex_no_dynamic3app17hfe9e9cd6334668f2E+0xa4>
   17a74:	862e                	mv	a2,a1
   17a76:	4505                	li	a0,1
   17a78:	458d                	li	a1,3
   17a7a:	00a40023          	sb	a0,0(s0)
   17a7e:	c050                	sw	a2,4(s0)
   17a80:	470d                	li	a4,3
   17a82:	853e                	mv	a0,a5
   17a84:	4601                	li	a2,0
   17a86:	4681                	li	a3,0
   17a88:	00000073          	ecall
   17a8c:	4711                	li	a4,4
   17a8e:	853e                	mv	a0,a5
   17a90:	4581                	li	a1,0
   17a92:	4601                	li	a2,0
   17a94:	4681                	li	a3,0
   17a96:	00000073          	ecall
   17a9a:	50b6                	lw	ra,108(sp)
   17a9c:	5426                	lw	s0,104(sp)
   17a9e:	5496                	lw	s1,100(sp)
   17aa0:	6165                	addi	sp,sp,112
   17aa2:	8082                	ret
   17aa4:	8526                	mv	a0,s1
   17aa6:	4601                	li	a2,0
   17aa8:	4681                	li	a3,0
   17aaa:	458d                	li	a1,3
   17aac:	470d                	li	a4,3
   17aae:	00000073          	ecall
   17ab2:	458d                	li	a1,3
   17ab4:	470d                	li	a4,3
   17ab6:	8526                	mv	a0,s1
   17ab8:	4601                	li	a2,0
   17aba:	4681                	li	a3,0
   17abc:	00000073          	ecall
   17ac0:	00140513          	addi	a0,s0,1
   17ac4:	08cc                	addi	a1,sp,84
   17ac6:	463d                	li	a2,15
   17ac8:	00004097          	auipc	ra,0x4
   17acc:	28c080e7          	jalr	652(ra) # 1bd54 <memcpy>
   17ad0:	00040023          	sb	zero,0(s0)
   17ad4:	458d                	li	a1,3
   17ad6:	470d                	li	a4,3
   17ad8:	8526                	mv	a0,s1
   17ada:	4601                	li	a2,0
   17adc:	4681                	li	a3,0
   17ade:	00000073          	ecall
   17ae2:	4711                	li	a4,4
   17ae4:	8526                	mv	a0,s1
   17ae6:	4581                	li	a1,0
   17ae8:	4601                	li	a2,0
   17aea:	4681                	li	a3,0
   17aec:	00000073          	ecall
   17af0:	50b6                	lw	ra,108(sp)
   17af2:	5426                	lw	s0,104(sp)
   17af4:	5496                	lw	s1,100(sp)
   17af6:	6165                	addi	sp,sp,112
   17af8:	8082                	ret

00017afa <_ZN18complex_no_dynamic3app17hfee4049911bf83beE>:
   17afa:	715d                	addi	sp,sp,-80
   17afc:	c686                	sw	ra,76(sp)
   17afe:	c4a2                	sw	s0,72(sp)
   17b00:	c2a6                	sw	s1,68(sp)
   17b02:	842a                	mv	s0,a0
   17b04:	00710513          	addi	a0,sp,7
   17b08:	02500613          	li	a2,37
   17b0c:	00004097          	auipc	ra,0x4
   17b10:	248080e7          	jalr	584(ra) # 1bd54 <memcpy>
   17b14:	de02                	sw	zero,60(sp)
   17b16:	c082                	sw	zero,64(sp)
   17b18:	d602                	sw	zero,44(sp)
   17b1a:	d802                	sw	zero,48(sp)
   17b1c:	da02                	sw	zero,52(sp)
   17b1e:	dc02                	sw	zero,56(sp)
   17b20:	6505                	lui	a0,0x1
   17b22:	45a5                	li	a1,9
   17b24:	00710613          	addi	a2,sp,7
   17b28:	02500693          	li	a3,37
   17b2c:	a7050793          	addi	a5,a0,-1424 # a70 <.Lline_table_start1+0x845>
   17b30:	4711                	li	a4,4
   17b32:	4489                	li	s1,2
   17b34:	853e                	mv	a0,a5
   17b36:	00000073          	ecall
   17b3a:	02950963          	beq	a0,s1,17b6c <_ZN18complex_no_dynamic3app17hfee4049911bf83beE+0x72>
   17b3e:	45a1                	li	a1,8
   17b40:	1070                	addi	a2,sp,44
   17b42:	46e1                	li	a3,24
   17b44:	470d                	li	a4,3
   17b46:	853e                	mv	a0,a5
   17b48:	00000073          	ecall
   17b4c:	02950063          	beq	a0,s1,17b6c <_ZN18complex_no_dynamic3app17hfee4049911bf83beE+0x72>
   17b50:	6505                	lui	a0,0x1
   17b52:	45a5                	li	a1,9
   17b54:	4621                	li	a2,8
   17b56:	a7050493          	addi	s1,a0,-1424 # a70 <.Lline_table_start1+0x845>
   17b5a:	4709                	li	a4,2
   17b5c:	07f00813          	li	a6,127
   17b60:	8526                	mv	a0,s1
   17b62:	4681                	li	a3,0
   17b64:	00000073          	ecall
   17b68:	02a86963          	bltu	a6,a0,17b9a <_ZN18complex_no_dynamic3app17hfee4049911bf83beE+0xa0>
   17b6c:	853e                	mv	a0,a5
   17b6e:	4601                	li	a2,0
   17b70:	4681                	li	a3,0
   17b72:	4705                	li	a4,1
   17b74:	00e40023          	sb	a4,0(s0)
   17b78:	c04c                	sw	a1,4(s0)
   17b7a:	45a1                	li	a1,8
   17b7c:	470d                	li	a4,3
   17b7e:	00000073          	ecall
   17b82:	45a5                	li	a1,9
   17b84:	4711                	li	a4,4
   17b86:	853e                	mv	a0,a5
   17b88:	4601                	li	a2,0
   17b8a:	4681                	li	a3,0
   17b8c:	00000073          	ecall
   17b90:	40b6                	lw	ra,76(sp)
   17b92:	4426                	lw	s0,72(sp)
   17b94:	4496                	lw	s1,68(sp)
   17b96:	6161                	addi	sp,sp,80
   17b98:	8082                	ret
   17b9a:	8526                	mv	a0,s1
   17b9c:	4601                	li	a2,0
   17b9e:	4681                	li	a3,0
   17ba0:	45a1                	li	a1,8
   17ba2:	470d                	li	a4,3
   17ba4:	00000073          	ecall
   17ba8:	45a1                	li	a1,8
   17baa:	470d                	li	a4,3
   17bac:	8526                	mv	a0,s1
   17bae:	4601                	li	a2,0
   17bb0:	4681                	li	a3,0
   17bb2:	00000073          	ecall
   17bb6:	00140513          	addi	a0,s0,1
   17bba:	106c                	addi	a1,sp,44
   17bbc:	4661                	li	a2,24
   17bbe:	00004097          	auipc	ra,0x4
   17bc2:	196080e7          	jalr	406(ra) # 1bd54 <memcpy>
   17bc6:	8526                	mv	a0,s1
   17bc8:	4601                	li	a2,0
   17bca:	4681                	li	a3,0
   17bcc:	00040023          	sb	zero,0(s0)
   17bd0:	45a1                	li	a1,8
   17bd2:	470d                	li	a4,3
   17bd4:	00000073          	ecall
   17bd8:	45a5                	li	a1,9
   17bda:	4711                	li	a4,4
   17bdc:	8526                	mv	a0,s1
   17bde:	4601                	li	a2,0
   17be0:	4681                	li	a3,0
   17be2:	00000073          	ecall
   17be6:	40b6                	lw	ra,76(sp)
   17be8:	4426                	lw	s0,72(sp)
   17bea:	4496                	lw	s1,68(sp)
   17bec:	6161                	addi	sp,sp,80
   17bee:	8082                	ret

00017bf0 <_ZN18complex_no_dynamic3app17hffa223c2c073ff28E>:
   17bf0:	7175                	addi	sp,sp,-144
   17bf2:	c706                	sw	ra,140(sp)
   17bf4:	c522                	sw	s0,136(sp)
   17bf6:	c326                	sw	s1,132(sp)
   17bf8:	842a                	mv	s0,a0
   17bfa:	850a                	mv	a0,sp
   17bfc:	04f00613          	li	a2,79
   17c00:	00004097          	auipc	ra,0x4
   17c04:	154080e7          	jalr	340(ra) # 1bd54 <memcpy>
   17c08:	04f10513          	addi	a0,sp,79
   17c0c:	03500613          	li	a2,53
   17c10:	4581                	li	a1,0
   17c12:	00004097          	auipc	ra,0x4
   17c16:	0d6080e7          	jalr	214(ra) # 1bce8 <memset>
   17c1a:	6505                	lui	a0,0x1
   17c1c:	459d                	li	a1,7
   17c1e:	860a                	mv	a2,sp
   17c20:	04f00693          	li	a3,79
   17c24:	6d750793          	addi	a5,a0,1751 # 16d7 <.Lline_table_start1+0x14ac>
   17c28:	4711                	li	a4,4
   17c2a:	4489                	li	s1,2
   17c2c:	853e                	mv	a0,a5
   17c2e:	00000073          	ecall
   17c32:	02950b63          	beq	a0,s1,17c68 <_ZN18complex_no_dynamic3app17hffa223c2c073ff28E+0x78>
   17c36:	4585                	li	a1,1
   17c38:	04f10613          	addi	a2,sp,79
   17c3c:	03500693          	li	a3,53
   17c40:	470d                	li	a4,3
   17c42:	853e                	mv	a0,a5
   17c44:	00000073          	ecall
   17c48:	02950063          	beq	a0,s1,17c68 <_ZN18complex_no_dynamic3app17hffa223c2c073ff28E+0x78>
   17c4c:	6505                	lui	a0,0x1
   17c4e:	459d                	li	a1,7
   17c50:	4605                	li	a2,1
   17c52:	6d750493          	addi	s1,a0,1751 # 16d7 <.Lline_table_start1+0x14ac>
   17c56:	4709                	li	a4,2
   17c58:	07f00813          	li	a6,127
   17c5c:	8526                	mv	a0,s1
   17c5e:	4681                	li	a3,0
   17c60:	00000073          	ecall
   17c64:	02a86963          	bltu	a6,a0,17c96 <_ZN18complex_no_dynamic3app17hffa223c2c073ff28E+0xa6>
   17c68:	853e                	mv	a0,a5
   17c6a:	4601                	li	a2,0
   17c6c:	4681                	li	a3,0
   17c6e:	4705                	li	a4,1
   17c70:	00e40023          	sb	a4,0(s0)
   17c74:	c04c                	sw	a1,4(s0)
   17c76:	4585                	li	a1,1
   17c78:	470d                	li	a4,3
   17c7a:	00000073          	ecall
   17c7e:	459d                	li	a1,7
   17c80:	4711                	li	a4,4
   17c82:	853e                	mv	a0,a5
   17c84:	4601                	li	a2,0
   17c86:	4681                	li	a3,0
   17c88:	00000073          	ecall
   17c8c:	40ba                	lw	ra,140(sp)
   17c8e:	442a                	lw	s0,136(sp)
   17c90:	449a                	lw	s1,132(sp)
   17c92:	6149                	addi	sp,sp,144
   17c94:	8082                	ret
   17c96:	8526                	mv	a0,s1
   17c98:	4601                	li	a2,0
   17c9a:	4681                	li	a3,0
   17c9c:	4585                	li	a1,1
   17c9e:	470d                	li	a4,3
   17ca0:	00000073          	ecall
   17ca4:	4585                	li	a1,1
   17ca6:	470d                	li	a4,3
   17ca8:	8526                	mv	a0,s1
   17caa:	4601                	li	a2,0
   17cac:	4681                	li	a3,0
   17cae:	00000073          	ecall
   17cb2:	00140513          	addi	a0,s0,1
   17cb6:	04f10593          	addi	a1,sp,79
   17cba:	03500613          	li	a2,53
   17cbe:	00004097          	auipc	ra,0x4
   17cc2:	096080e7          	jalr	150(ra) # 1bd54 <memcpy>
   17cc6:	8526                	mv	a0,s1
   17cc8:	4601                	li	a2,0
   17cca:	4681                	li	a3,0
   17ccc:	00040023          	sb	zero,0(s0)
   17cd0:	4585                	li	a1,1
   17cd2:	470d                	li	a4,3
   17cd4:	00000073          	ecall
   17cd8:	459d                	li	a1,7
   17cda:	4711                	li	a4,4
   17cdc:	8526                	mv	a0,s1
   17cde:	4601                	li	a2,0
   17ce0:	4681                	li	a3,0
   17ce2:	00000073          	ecall
   17ce6:	40ba                	lw	ra,140(sp)
   17ce8:	442a                	lw	s0,136(sp)
   17cea:	449a                	lw	s1,132(sp)
   17cec:	6149                	addi	sp,sp,144
   17cee:	8082                	ret

00017cf0 <_ZN18complex_no_dynamic3app17hffb7f6e1ed334226E>:
   17cf0:	7159                	addi	sp,sp,-112
   17cf2:	d686                	sw	ra,108(sp)
   17cf4:	d4a2                	sw	s0,104(sp)
   17cf6:	d2a6                	sw	s1,100(sp)
   17cf8:	842a                	mv	s0,a0
   17cfa:	00910513          	addi	a0,sp,9
   17cfe:	03f00613          	li	a2,63
   17d02:	00004097          	auipc	ra,0x4
   17d06:	052080e7          	jalr	82(ra) # 1bd54 <memcpy>
   17d0a:	cc82                	sw	zero,88(sp)
   17d0c:	ce82                	sw	zero,92(sp)
   17d0e:	d082                	sw	zero,96(sp)
   17d10:	c482                	sw	zero,72(sp)
   17d12:	c682                	sw	zero,76(sp)
   17d14:	c882                	sw	zero,80(sp)
   17d16:	ca82                	sw	zero,84(sp)
   17d18:	6505                	lui	a0,0x1
   17d1a:	4595                	li	a1,5
   17d1c:	00910613          	addi	a2,sp,9
   17d20:	03f00693          	li	a3,63
   17d24:	69450793          	addi	a5,a0,1684 # 1694 <.Lline_table_start1+0x1469>
   17d28:	4711                	li	a4,4
   17d2a:	4489                	li	s1,2
   17d2c:	853e                	mv	a0,a5
   17d2e:	00000073          	ecall
   17d32:	02950963          	beq	a0,s1,17d64 <_ZN18complex_no_dynamic3app17hffb7f6e1ed334226E+0x74>
   17d36:	45a5                	li	a1,9
   17d38:	00b0                	addi	a2,sp,72
   17d3a:	46f1                	li	a3,28
   17d3c:	470d                	li	a4,3
   17d3e:	853e                	mv	a0,a5
   17d40:	00000073          	ecall
   17d44:	02950063          	beq	a0,s1,17d64 <_ZN18complex_no_dynamic3app17hffb7f6e1ed334226E+0x74>
   17d48:	6505                	lui	a0,0x1
   17d4a:	4595                	li	a1,5
   17d4c:	4625                	li	a2,9
   17d4e:	69450493          	addi	s1,a0,1684 # 1694 <.Lline_table_start1+0x1469>
   17d52:	4709                	li	a4,2
   17d54:	07f00813          	li	a6,127
   17d58:	8526                	mv	a0,s1
   17d5a:	4681                	li	a3,0
   17d5c:	00000073          	ecall
   17d60:	02a86963          	bltu	a6,a0,17d92 <_ZN18complex_no_dynamic3app17hffb7f6e1ed334226E+0xa2>
   17d64:	853e                	mv	a0,a5
   17d66:	4601                	li	a2,0
   17d68:	4681                	li	a3,0
   17d6a:	4705                	li	a4,1
   17d6c:	00e40023          	sb	a4,0(s0)
   17d70:	c04c                	sw	a1,4(s0)
   17d72:	45a5                	li	a1,9
   17d74:	470d                	li	a4,3
   17d76:	00000073          	ecall
   17d7a:	4595                	li	a1,5
   17d7c:	4711                	li	a4,4
   17d7e:	853e                	mv	a0,a5
   17d80:	4601                	li	a2,0
   17d82:	4681                	li	a3,0
   17d84:	00000073          	ecall
   17d88:	50b6                	lw	ra,108(sp)
   17d8a:	5426                	lw	s0,104(sp)
   17d8c:	5496                	lw	s1,100(sp)
   17d8e:	6165                	addi	sp,sp,112
   17d90:	8082                	ret
   17d92:	8526                	mv	a0,s1
   17d94:	4601                	li	a2,0
   17d96:	4681                	li	a3,0
   17d98:	45a5                	li	a1,9
   17d9a:	470d                	li	a4,3
   17d9c:	00000073          	ecall
   17da0:	45a5                	li	a1,9
   17da2:	470d                	li	a4,3
   17da4:	8526                	mv	a0,s1
   17da6:	4601                	li	a2,0
   17da8:	4681                	li	a3,0
   17daa:	00000073          	ecall
   17dae:	00140513          	addi	a0,s0,1
   17db2:	00ac                	addi	a1,sp,72
   17db4:	4671                	li	a2,28
   17db6:	00004097          	auipc	ra,0x4
   17dba:	f9e080e7          	jalr	-98(ra) # 1bd54 <memcpy>
   17dbe:	8526                	mv	a0,s1
   17dc0:	4601                	li	a2,0
   17dc2:	4681                	li	a3,0
   17dc4:	00040023          	sb	zero,0(s0)
   17dc8:	45a5                	li	a1,9
   17dca:	470d                	li	a4,3
   17dcc:	00000073          	ecall
   17dd0:	4595                	li	a1,5
   17dd2:	4711                	li	a4,4
   17dd4:	8526                	mv	a0,s1
   17dd6:	4601                	li	a2,0
   17dd8:	4681                	li	a3,0
   17dda:	00000073          	ecall
   17dde:	50b6                	lw	ra,108(sp)
   17de0:	5426                	lw	s0,104(sp)
   17de2:	5496                	lw	s1,100(sp)
   17de4:	6165                	addi	sp,sp,112
   17de6:	8082                	ret

00017de8 <_start>:
   17de8:	81010113          	addi	sp,sp,-2032
   17dec:	7e112623          	sw	ra,2028(sp)
   17df0:	7e812423          	sw	s0,2024(sp)
   17df4:	7e912223          	sw	s1,2020(sp)
   17df8:	7f212023          	sw	s2,2016(sp)
   17dfc:	7d312e23          	sw	s3,2012(sp)
   17e00:	7d412c23          	sw	s4,2008(sp)
   17e04:	7d512a23          	sw	s5,2004(sp)
   17e08:	7d612823          	sw	s6,2000(sp)
   17e0c:	7d712623          	sw	s7,1996(sp)
   17e10:	7d812423          	sw	s8,1992(sp)
   17e14:	7d912223          	sw	s9,1988(sp)
   17e18:	7da12023          	sw	s10,1984(sp)
   17e1c:	7bb12e23          	sw	s11,1980(sp)
   17e20:	80010113          	addi	sp,sp,-2048
   17e24:	b4010113          	addi	sp,sp,-1216
   17e28:	1048                	addi	a0,sp,36
   17e2a:	02800613          	li	a2,40
   17e2e:	4581                	li	a1,0
   17e30:	00004097          	auipc	ra,0x4
   17e34:	eb8080e7          	jalr	-328(ra) # 1bce8 <memset>
   17e38:	6505                	lui	a0,0x1
   17e3a:	35c50513          	addi	a0,a0,860 # 135c <.Lline_table_start1+0x1131>
   17e3e:	950a                	add	a0,a0,sp
   17e40:	05100613          	li	a2,81
   17e44:	4581                	li	a1,0
   17e46:	00004097          	auipc	ra,0x4
   17e4a:	ea2080e7          	jalr	-350(ra) # 1bce8 <memset>
   17e4e:	6789                	lui	a5,0x2
   17e50:	45a5                	li	a1,9
   17e52:	1050                	addi	a2,sp,36
   17e54:	02800693          	li	a3,40
   17e58:	0799                	addi	a5,a5,6 # 2006 <.Lline_table_start1+0x1ddb>
   17e5a:	4711                	li	a4,4
   17e5c:	4489                	li	s1,2
   17e5e:	853e                	mv	a0,a5
   17e60:	00000073          	ecall
   17e64:	02950f63          	beq	a0,s1,17ea2 <_start+0xba>
   17e68:	45a5                	li	a1,9
   17e6a:	6505                	lui	a0,0x1
   17e6c:	35c50513          	addi	a0,a0,860 # 135c <.Lline_table_start1+0x1131>
   17e70:	00a10633          	add	a2,sp,a0
   17e74:	05100693          	li	a3,81
   17e78:	470d                	li	a4,3
   17e7a:	853e                	mv	a0,a5
   17e7c:	00000073          	ecall
   17e80:	02950163          	beq	a0,s1,17ea2 <_start+0xba>
   17e84:	4681                	li	a3,0
   17e86:	6989                	lui	s3,0x2
   17e88:	45a5                	li	a1,9
   17e8a:	4625                	li	a2,9
   17e8c:	4709                	li	a4,2
   17e8e:	00698413          	addi	s0,s3,6 # 2006 <.Lline_table_start1+0x1ddb>
   17e92:	07f00493          	li	s1,127
   17e96:	8522                	mv	a0,s0
   17e98:	00000073          	ecall
   17e9c:	4909                	li	s2,2
   17e9e:	06a4e463          	bltu	s1,a0,17f06 <_start+0x11e>
   17ea2:	82ae                	mv	t0,a1
   17ea4:	853e                	mv	a0,a5
   17ea6:	4601                	li	a2,0
   17ea8:	4681                	li	a3,0
   17eaa:	45a5                	li	a1,9
   17eac:	470d                	li	a4,3
   17eae:	00000073          	ecall
   17eb2:	45a5                	li	a1,9
   17eb4:	4711                	li	a4,4
   17eb6:	853e                	mv	a0,a5
   17eb8:	4601                	li	a2,0
   17eba:	4681                	li	a3,0
   17ebc:	00000073          	ecall
   17ec0:	4505                	li	a0,1
   17ec2:	8596                	mv	a1,t0
   17ec4:	7f010113          	addi	sp,sp,2032
   17ec8:	4d010113          	addi	sp,sp,1232
   17ecc:	7ec12083          	lw	ra,2028(sp)
   17ed0:	7e812403          	lw	s0,2024(sp)
   17ed4:	7e412483          	lw	s1,2020(sp)
   17ed8:	7e012903          	lw	s2,2016(sp)
   17edc:	7dc12983          	lw	s3,2012(sp)
   17ee0:	7d812a03          	lw	s4,2008(sp)
   17ee4:	7d412a83          	lw	s5,2004(sp)
   17ee8:	7d012b03          	lw	s6,2000(sp)
   17eec:	7cc12b83          	lw	s7,1996(sp)
   17ef0:	7c812c03          	lw	s8,1992(sp)
   17ef4:	7c412c83          	lw	s9,1988(sp)
   17ef8:	7c012d03          	lw	s10,1984(sp)
   17efc:	7bc12d83          	lw	s11,1980(sp)
   17f00:	7f010113          	addi	sp,sp,2032
   17f04:	8082                	ret
   17f06:	8522                	mv	a0,s0
   17f08:	4601                	li	a2,0
   17f0a:	4681                	li	a3,0
   17f0c:	7ff10b13          	addi	s6,sp,2047
   17f10:	7c5b0b13          	addi	s6,s6,1989
   17f14:	45a5                	li	a1,9
   17f16:	470d                	li	a4,3
   17f18:	00000073          	ecall
   17f1c:	470d                	li	a4,3
   17f1e:	45a5                	li	a1,9
   17f20:	8522                	mv	a0,s0
   17f22:	4601                	li	a2,0
   17f24:	4681                	li	a3,0
   17f26:	00000073          	ecall
   17f2a:	399b4503          	lbu	a0,921(s6)
   17f2e:	398b4583          	lbu	a1,920(s6)
   17f32:	39ab4603          	lbu	a2,922(s6)
   17f36:	39bb4a03          	lbu	s4,923(s6)
   17f3a:	0522                	slli	a0,a0,0x8
   17f3c:	8d4d                	or	a0,a0,a1
   17f3e:	39cb4a83          	lbu	s5,924(s6)
   17f42:	39db4483          	lbu	s1,925(s6)
   17f46:	39eb4b83          	lbu	s7,926(s6)
   17f4a:	02a11023          	sh	a0,32(sp)
   17f4e:	02c10123          	sb	a2,34(sp)
   17f52:	6505                	lui	a0,0x1
   17f54:	36350513          	addi	a0,a0,867 # 1363 <.Lline_table_start1+0x1138>
   17f58:	00a105b3          	add	a1,sp,a0
   17f5c:	454d                	li	a0,19
   17f5e:	0522                	slli	a0,a0,0x8
   17f60:	950a                	add	a0,a0,sp
   17f62:	04a00613          	li	a2,74
   17f66:	00004097          	auipc	ra,0x4
   17f6a:	dee080e7          	jalr	-530(ra) # 1bd54 <memcpy>
   17f6e:	8522                	mv	a0,s0
   17f70:	4601                	li	a2,0
   17f72:	4681                	li	a3,0
   17f74:	45a5                	li	a1,9
   17f76:	470d                	li	a4,3
   17f78:	00000073          	ecall
   17f7c:	45a5                	li	a1,9
   17f7e:	4711                	li	a4,4
   17f80:	8522                	mv	a0,s0
   17f82:	4601                	li	a2,0
   17f84:	4681                	li	a3,0
   17f86:	00000073          	ecall
   17f8a:	6505                	lui	a0,0x1
   17f8c:	36350513          	addi	a0,a0,867 # 1363 <.Lline_table_start1+0x1138>
   17f90:	950a                	add	a0,a0,sp
   17f92:	45cd                	li	a1,19
   17f94:	05a2                	slli	a1,a1,0x8
   17f96:	958a                	add	a1,a1,sp
   17f98:	04a00613          	li	a2,74
   17f9c:	00004097          	auipc	ra,0x4
   17fa0:	db8080e7          	jalr	-584(ra) # 1bd54 <memcpy>
   17fa4:	02011503          	lh	a0,32(sp)
   17fa8:	02214583          	lbu	a1,34(sp)
   17fac:	389b0ea3          	sb	s1,925(s6)
   17fb0:	397b0f23          	sb	s7,926(s6)
   17fb4:	38ab1c23          	sh	a0,920(s6)
   17fb8:	38bb0d23          	sb	a1,922(s6)
   17fbc:	394b0da3          	sb	s4,923(s6)
   17fc0:	395b0e23          	sb	s5,924(s6)
   17fc4:	454d                	li	a0,19
   17fc6:	0522                	slli	a0,a0,0x8
   17fc8:	950a                	add	a0,a0,sp
   17fca:	04600613          	li	a2,70
   17fce:	4581                	li	a1,0
   17fd0:	00004097          	auipc	ra,0x4
   17fd4:	d18080e7          	jalr	-744(ra) # 1bce8 <memset>
   17fd8:	0c498513          	addi	a0,s3,196
   17fdc:	459d                	li	a1,7
   17fde:	6605                	lui	a2,0x1
   17fe0:	35c60613          	addi	a2,a2,860 # 135c <.Lline_table_start1+0x1131>
   17fe4:	960a                	add	a2,a2,sp
   17fe6:	05100693          	li	a3,81
   17fea:	4711                	li	a4,4
   17fec:	00000073          	ecall
   17ff0:	03250f63          	beq	a0,s2,1802e <_start+0x246>
   17ff4:	6509                	lui	a0,0x2
   17ff6:	45cd                	li	a1,19
   17ff8:	05a2                	slli	a1,a1,0x8
   17ffa:	00b10633          	add	a2,sp,a1
   17ffe:	04600693          	li	a3,70
   18002:	0c450793          	addi	a5,a0,196 # 20c4 <.Lline_table_start1+0x1e99>
   18006:	470d                	li	a4,3
   18008:	4489                	li	s1,2
   1800a:	853e                	mv	a0,a5
   1800c:	4581                	li	a1,0
   1800e:	00000073          	ecall
   18012:	00950e63          	beq	a0,s1,1802e <_start+0x246>
   18016:	853e                	mv	a0,a5
   18018:	4601                	li	a2,0
   1801a:	4681                	li	a3,0
   1801c:	459d                	li	a1,7
   1801e:	4709                	li	a4,2
   18020:	07f00793          	li	a5,127
   18024:	00000073          	ecall
   18028:	4909                	li	s2,2
   1802a:	02a7e563          	bltu	a5,a0,18054 <_start+0x26c>
   1802e:	82ae                	mv	t0,a1
   18030:	4581                	li	a1,0
   18032:	4601                	li	a2,0
   18034:	4681                	li	a3,0
   18036:	6509                	lui	a0,0x2
   18038:	0c450793          	addi	a5,a0,196 # 20c4 <.Lline_table_start1+0x1e99>
   1803c:	470d                	li	a4,3
   1803e:	853e                	mv	a0,a5
   18040:	00000073          	ecall
   18044:	459d                	li	a1,7
   18046:	4711                	li	a4,4
   18048:	853e                	mv	a0,a5
   1804a:	4601                	li	a2,0
   1804c:	4681                	li	a3,0
   1804e:	00000073          	ecall
   18052:	b5bd                	j	17ec0 <_start+0xd8>
   18054:	4581                	li	a1,0
   18056:	4601                	li	a2,0
   18058:	4681                	li	a3,0
   1805a:	6989                	lui	s3,0x2
   1805c:	0c498413          	addi	s0,s3,196 # 20c4 <.Lline_table_start1+0x1e99>
   18060:	470d                	li	a4,3
   18062:	8522                	mv	a0,s0
   18064:	00000073          	ecall
   18068:	470d                	li	a4,3
   1806a:	8522                	mv	a0,s0
   1806c:	4581                	li	a1,0
   1806e:	4601                	li	a2,0
   18070:	4681                	li	a3,0
   18072:	00000073          	ecall
   18076:	33db4503          	lbu	a0,829(s6)
   1807a:	33cb4583          	lbu	a1,828(s6)
   1807e:	33eb4603          	lbu	a2,830(s6)
   18082:	33fb4a03          	lbu	s4,831(s6)
   18086:	0522                	slli	a0,a0,0x8
   18088:	8d4d                	or	a0,a0,a1
   1808a:	340b4a83          	lbu	s5,832(s6)
   1808e:	341b4483          	lbu	s1,833(s6)
   18092:	342b4b83          	lbu	s7,834(s6)
   18096:	06a11223          	sh	a0,100(sp)
   1809a:	06c10323          	sb	a2,102(sp)
   1809e:	6505                	lui	a0,0x1
   180a0:	30750513          	addi	a0,a0,775 # 1307 <.Lline_table_start1+0x10dc>
   180a4:	00a105b3          	add	a1,sp,a0
   180a8:	1048                	addi	a0,sp,36
   180aa:	03f00613          	li	a2,63
   180ae:	00004097          	auipc	ra,0x4
   180b2:	ca6080e7          	jalr	-858(ra) # 1bd54 <memcpy>
   180b6:	8522                	mv	a0,s0
   180b8:	4581                	li	a1,0
   180ba:	4601                	li	a2,0
   180bc:	4681                	li	a3,0
   180be:	470d                	li	a4,3
   180c0:	00000073          	ecall
   180c4:	459d                	li	a1,7
   180c6:	4711                	li	a4,4
   180c8:	8522                	mv	a0,s0
   180ca:	4601                	li	a2,0
   180cc:	4681                	li	a3,0
   180ce:	00000073          	ecall
   180d2:	6505                	lui	a0,0x1
   180d4:	36350513          	addi	a0,a0,867 # 1363 <.Lline_table_start1+0x1138>
   180d8:	950a                	add	a0,a0,sp
   180da:	104c                	addi	a1,sp,36
   180dc:	03f00613          	li	a2,63
   180e0:	00004097          	auipc	ra,0x4
   180e4:	c74080e7          	jalr	-908(ra) # 1bd54 <memcpy>
   180e8:	06411503          	lh	a0,100(sp)
   180ec:	06614703          	lbu	a4,102(sp)
   180f0:	389b0ea3          	sb	s1,925(s6)
   180f4:	397b0f23          	sb	s7,926(s6)
   180f8:	340b2623          	sw	zero,844(s6)
   180fc:	340b2823          	sw	zero,848(s6)
   18100:	320b2e23          	sw	zero,828(s6)
   18104:	340b2023          	sw	zero,832(s6)
   18108:	340b2223          	sw	zero,836(s6)
   1810c:	340b2423          	sw	zero,840(s6)
   18110:	3cf98813          	addi	a6,s3,975
   18114:	458d                	li	a1,3
   18116:	6605                	lui	a2,0x1
   18118:	35c60613          	addi	a2,a2,860 # 135c <.Lline_table_start1+0x1131>
   1811c:	960a                	add	a2,a2,sp
   1811e:	04600693          	li	a3,70
   18122:	38ab1c23          	sh	a0,920(s6)
   18126:	38eb0d23          	sb	a4,922(s6)
   1812a:	394b0da3          	sb	s4,923(s6)
   1812e:	395b0e23          	sb	s5,924(s6)
   18132:	4711                	li	a4,4
   18134:	8542                	mv	a0,a6
   18136:	00000073          	ecall
   1813a:	03250e63          	beq	a0,s2,18176 <_start+0x38e>
   1813e:	4789                	li	a5,2
   18140:	4589                	li	a1,2
   18142:	454d                	li	a0,19
   18144:	0522                	slli	a0,a0,0x8
   18146:	00a10633          	add	a2,sp,a0
   1814a:	46e1                	li	a3,24
   1814c:	470d                	li	a4,3
   1814e:	8542                	mv	a0,a6
   18150:	00000073          	ecall
   18154:	02f50163          	beq	a0,a5,18176 <_start+0x38e>
   18158:	4681                	li	a3,0
   1815a:	6509                	lui	a0,0x2
   1815c:	458d                	li	a1,3
   1815e:	4609                	li	a2,2
   18160:	4709                	li	a4,2
   18162:	3cf50393          	addi	t2,a0,975 # 23cf <.Lline_table_start1+0x21a4>
   18166:	07f00493          	li	s1,127
   1816a:	851e                	mv	a0,t2
   1816c:	00000073          	ecall
   18170:	4909                	li	s2,2
   18172:	02a4e263          	bltu	s1,a0,18196 <_start+0x3ae>
   18176:	82ae                	mv	t0,a1
   18178:	8542                	mv	a0,a6
   1817a:	4601                	li	a2,0
   1817c:	4681                	li	a3,0
   1817e:	4589                	li	a1,2
   18180:	470d                	li	a4,3
   18182:	00000073          	ecall
   18186:	458d                	li	a1,3
   18188:	4711                	li	a4,4
   1818a:	8542                	mv	a0,a6
   1818c:	4601                	li	a2,0
   1818e:	4681                	li	a3,0
   18190:	00000073          	ecall
   18194:	b335                	j	17ec0 <_start+0xd8>
   18196:	851e                	mv	a0,t2
   18198:	4601                	li	a2,0
   1819a:	4681                	li	a3,0
   1819c:	4589                	li	a1,2
   1819e:	470d                	li	a4,3
   181a0:	00000073          	ecall
   181a4:	470d                	li	a4,3
   181a6:	4589                	li	a1,2
   181a8:	851e                	mv	a0,t2
   181aa:	4601                	li	a2,0
   181ac:	4681                	li	a3,0
   181ae:	00000073          	ecall
   181b2:	33cb1803          	lh	a6,828(s6)
   181b6:	33eb4883          	lbu	a7,830(s6)
   181ba:	33fb4a03          	lbu	s4,831(s6)
   181be:	340b4983          	lbu	s3,832(s6)
   181c2:	351b4283          	lbu	t0,849(s6)
   181c6:	352b4303          	lbu	t1,850(s6)
   181ca:	353b4703          	lbu	a4,851(s6)
   181ce:	341b4b83          	lbu	s7,833(s6)
   181d2:	342b4a83          	lbu	s5,834(s6)
   181d6:	343b4403          	lbu	s0,835(s6)
   181da:	344b4483          	lbu	s1,836(s6)
   181de:	345b4503          	lbu	a0,837(s6)
   181e2:	346b4583          	lbu	a1,838(s6)
   181e6:	347b4603          	lbu	a2,839(s6)
   181ea:	348b4683          	lbu	a3,840(s6)
   181ee:	07011e23          	sh	a6,124(sp)
   181f2:	07110f23          	sb	a7,126(sp)
   181f6:	06e10c23          	sb	a4,120(sp)
   181fa:	04a2                	slli	s1,s1,0x8
   181fc:	0084e833          	or	a6,s1,s0
   18200:	349b4703          	lbu	a4,841(s6)
   18204:	34ab4483          	lbu	s1,842(s6)
   18208:	34bb4403          	lbu	s0,843(s6)
   1820c:	34cb4783          	lbu	a5,844(s6)
   18210:	0542                	slli	a0,a0,0x10
   18212:	05e2                	slli	a1,a1,0x18
   18214:	06a2                	slli	a3,a3,0x8
   18216:	0742                	slli	a4,a4,0x10
   18218:	04e2                	slli	s1,s1,0x18
   1821a:	07a2                	slli	a5,a5,0x8
   1821c:	8d4d                	or	a0,a0,a1
   1821e:	8e55                	or	a2,a2,a3
   18220:	8f45                	or	a4,a4,s1
   18222:	8fc1                	or	a5,a5,s0
   18224:	34db4583          	lbu	a1,845(s6)
   18228:	34eb4683          	lbu	a3,846(s6)
   1822c:	34fb4483          	lbu	s1,847(s6)
   18230:	350b4403          	lbu	s0,848(s6)
   18234:	05c2                	slli	a1,a1,0x10
   18236:	06e2                	slli	a3,a3,0x18
   18238:	8dd5                	or	a1,a1,a3
   1823a:	0422                	slli	s0,s0,0x8
   1823c:	8c45                	or	s0,s0,s1
   1823e:	02c2                	slli	t0,t0,0x10
   18240:	0362                	slli	t1,t1,0x18
   18242:	005366b3          	or	a3,t1,t0
   18246:	01056533          	or	a0,a0,a6
   1824a:	8e59                	or	a2,a2,a4
   1824c:	8fcd                	or	a5,a5,a1
   1824e:	470d                	li	a4,3
   18250:	8ec1                	or	a3,a3,s0
   18252:	4589                	li	a1,2
   18254:	d4aa                	sw	a0,104(sp)
   18256:	d6b2                	sw	a2,108(sp)
   18258:	d8be                	sw	a5,112(sp)
   1825a:	dab6                	sw	a3,116(sp)
   1825c:	851e                	mv	a0,t2
   1825e:	4601                	li	a2,0
   18260:	4681                	li	a3,0
   18262:	00000073          	ecall
   18266:	458d                	li	a1,3
   18268:	4711                	li	a4,4
   1826a:	851e                	mv	a0,t2
   1826c:	4601                	li	a2,0
   1826e:	4681                	li	a3,0
   18270:	00000073          	ecall
   18274:	02b10513          	addi	a0,sp,43
   18278:	10ac                	addi	a1,sp,104
   1827a:	4645                	li	a2,17
   1827c:	00004097          	auipc	ra,0x4
   18280:	ad8080e7          	jalr	-1320(ra) # 1bd54 <memcpy>
   18284:	07c11503          	lh	a0,124(sp)
   18288:	07e14583          	lbu	a1,126(sp)
   1828c:	037104a3          	sb	s7,41(sp)
   18290:	03510523          	sb	s5,42(sp)
   18294:	02a11223          	sh	a0,36(sp)
   18298:	02b10323          	sb	a1,38(sp)
   1829c:	034103a3          	sb	s4,39(sp)
   182a0:	03310423          	sb	s3,40(sp)
   182a4:	6505                	lui	a0,0x1
   182a6:	35c50513          	addi	a0,a0,860 # 135c <.Lline_table_start1+0x1131>
   182aa:	950a                	add	a0,a0,sp
   182ac:	03600613          	li	a2,54
   182b0:	4581                	li	a1,0
   182b2:	00004097          	auipc	ra,0x4
   182b6:	a36080e7          	jalr	-1482(ra) # 1bce8 <memset>
   182ba:	21f00513          	li	a0,543
   182be:	1050                	addi	a2,sp,36
   182c0:	46e1                	li	a3,24
   182c2:	4711                	li	a4,4
   182c4:	4581                	li	a1,0
   182c6:	00000073          	ecall
   182ca:	03250e63          	beq	a0,s2,18306 <_start+0x51e>
   182ce:	21f00513          	li	a0,543
   182d2:	459d                	li	a1,7
   182d4:	6605                	lui	a2,0x1
   182d6:	35c60613          	addi	a2,a2,860 # 135c <.Lline_table_start1+0x1131>
   182da:	960a                	add	a2,a2,sp
   182dc:	03600693          	li	a3,54
   182e0:	470d                	li	a4,3
   182e2:	4789                	li	a5,2
   182e4:	00000073          	ecall
   182e8:	00f50f63          	beq	a0,a5,18306 <_start+0x51e>
   182ec:	4581                	li	a1,0
   182ee:	4681                	li	a3,0
   182f0:	21f00513          	li	a0,543
   182f4:	461d                	li	a2,7
   182f6:	4709                	li	a4,2
   182f8:	07f00793          	li	a5,127
   182fc:	00000073          	ecall
   18300:	4909                	li	s2,2
   18302:	02a7e463          	bltu	a5,a0,1832a <_start+0x542>
   18306:	82ae                	mv	t0,a1
   18308:	4601                	li	a2,0
   1830a:	4681                	li	a3,0
   1830c:	21f00513          	li	a0,543
   18310:	459d                	li	a1,7
   18312:	470d                	li	a4,3
   18314:	00000073          	ecall
   18318:	21f00513          	li	a0,543
   1831c:	4711                	li	a4,4
   1831e:	4581                	li	a1,0
   18320:	4601                	li	a2,0
   18322:	4681                	li	a3,0
   18324:	00000073          	ecall
   18328:	be61                	j	17ec0 <_start+0xd8>
   1832a:	4601                	li	a2,0
   1832c:	4681                	li	a3,0
   1832e:	21f00513          	li	a0,543
   18332:	459d                	li	a1,7
   18334:	470d                	li	a4,3
   18336:	00000073          	ecall
   1833a:	470d                	li	a4,3
   1833c:	21f00513          	li	a0,543
   18340:	459d                	li	a1,7
   18342:	4601                	li	a2,0
   18344:	4681                	li	a3,0
   18346:	00000073          	ecall
   1834a:	399b4503          	lbu	a0,921(s6)
   1834e:	398b4583          	lbu	a1,920(s6)
   18352:	39ab4603          	lbu	a2,922(s6)
   18356:	39bb4983          	lbu	s3,923(s6)
   1835a:	0522                	slli	a0,a0,0x8
   1835c:	8d4d                	or	a0,a0,a1
   1835e:	39cb4a03          	lbu	s4,924(s6)
   18362:	39db4483          	lbu	s1,925(s6)
   18366:	39eb4403          	lbu	s0,926(s6)
   1836a:	08a11023          	sh	a0,128(sp)
   1836e:	08c10123          	sb	a2,130(sp)
   18372:	6505                	lui	a0,0x1
   18374:	36350513          	addi	a0,a0,867 # 1363 <.Lline_table_start1+0x1138>
   18378:	00a105b3          	add	a1,sp,a0
   1837c:	454d                	li	a0,19
   1837e:	0522                	slli	a0,a0,0x8
   18380:	950a                	add	a0,a0,sp
   18382:	02f00613          	li	a2,47
   18386:	00004097          	auipc	ra,0x4
   1838a:	9ce080e7          	jalr	-1586(ra) # 1bd54 <memcpy>
   1838e:	4601                	li	a2,0
   18390:	4681                	li	a3,0
   18392:	21f00513          	li	a0,543
   18396:	459d                	li	a1,7
   18398:	470d                	li	a4,3
   1839a:	00000073          	ecall
   1839e:	21f00513          	li	a0,543
   183a2:	4711                	li	a4,4
   183a4:	4581                	li	a1,0
   183a6:	4601                	li	a2,0
   183a8:	4681                	li	a3,0
   183aa:	00000073          	ecall
   183ae:	6505                	lui	a0,0x1
   183b0:	36350513          	addi	a0,a0,867 # 1363 <.Lline_table_start1+0x1138>
   183b4:	950a                	add	a0,a0,sp
   183b6:	45cd                	li	a1,19
   183b8:	05a2                	slli	a1,a1,0x8
   183ba:	958a                	add	a1,a1,sp
   183bc:	02f00613          	li	a2,47
   183c0:	00004097          	auipc	ra,0x4
   183c4:	994080e7          	jalr	-1644(ra) # 1bd54 <memcpy>
   183c8:	08011503          	lh	a0,128(sp)
   183cc:	08214583          	lbu	a1,130(sp)
   183d0:	389b0ea3          	sb	s1,925(s6)
   183d4:	388b0f23          	sb	s0,926(s6)
   183d8:	38ab1c23          	sh	a0,920(s6)
   183dc:	38bb0d23          	sb	a1,922(s6)
   183e0:	393b0da3          	sb	s3,923(s6)
   183e4:	394b0e23          	sb	s4,924(s6)
   183e8:	454d                	li	a0,19
   183ea:	0522                	slli	a0,a0,0x8
   183ec:	950a                	add	a0,a0,sp
   183ee:	02500613          	li	a2,37
   183f2:	4581                	li	a1,0
   183f4:	00004097          	auipc	ra,0x4
   183f8:	8f4080e7          	jalr	-1804(ra) # 1bce8 <memset>
   183fc:	6505                	lui	a0,0x1
   183fe:	459d                	li	a1,7
   18400:	6605                	lui	a2,0x1
   18402:	35c60613          	addi	a2,a2,860 # 135c <.Lline_table_start1+0x1131>
   18406:	960a                	add	a2,a2,sp
   18408:	59750893          	addi	a7,a0,1431 # 1597 <.Lline_table_start1+0x136c>
   1840c:	03600693          	li	a3,54
   18410:	4711                	li	a4,4
   18412:	8546                	mv	a0,a7
   18414:	00000073          	ecall
   18418:	03250e63          	beq	a0,s2,18454 <_start+0x66c>
   1841c:	454d                	li	a0,19
   1841e:	0522                	slli	a0,a0,0x8
   18420:	00a10633          	add	a2,sp,a0
   18424:	02500693          	li	a3,37
   18428:	470d                	li	a4,3
   1842a:	4789                	li	a5,2
   1842c:	8546                	mv	a0,a7
   1842e:	4581                	li	a1,0
   18430:	00000073          	ecall
   18434:	02f50063          	beq	a0,a5,18454 <_start+0x66c>
   18438:	4601                	li	a2,0
   1843a:	4681                	li	a3,0
   1843c:	6505                	lui	a0,0x1
   1843e:	459d                	li	a1,7
   18440:	4709                	li	a4,2
   18442:	59750813          	addi	a6,a0,1431 # 1597 <.Lline_table_start1+0x136c>
   18446:	07f00793          	li	a5,127
   1844a:	8542                	mv	a0,a6
   1844c:	00000073          	ecall
   18450:	02a7e263          	bltu	a5,a0,18474 <_start+0x68c>
   18454:	82ae                	mv	t0,a1
   18456:	8546                	mv	a0,a7
   18458:	4581                	li	a1,0
   1845a:	4601                	li	a2,0
   1845c:	4681                	li	a3,0
   1845e:	470d                	li	a4,3
   18460:	00000073          	ecall
   18464:	459d                	li	a1,7
   18466:	4711                	li	a4,4
   18468:	8546                	mv	a0,a7
   1846a:	4601                	li	a2,0
   1846c:	4681                	li	a3,0
   1846e:	00000073          	ecall
   18472:	b4b9                	j	17ec0 <_start+0xd8>
   18474:	8542                	mv	a0,a6
   18476:	4581                	li	a1,0
   18478:	4601                	li	a2,0
   1847a:	4681                	li	a3,0
   1847c:	470d                	li	a4,3
   1847e:	00000073          	ecall
   18482:	8542                	mv	a0,a6
   18484:	4581                	li	a1,0
   18486:	4601                	li	a2,0
   18488:	4681                	li	a3,0
   1848a:	470d                	li	a4,3
   1848c:	00000073          	ecall
   18490:	8542                	mv	a0,a6
   18492:	4581                	li	a1,0
   18494:	4601                	li	a2,0
   18496:	4681                	li	a3,0
   18498:	33cb4283          	lbu	t0,828(s6)
   1849c:	33db4303          	lbu	t1,829(s6)
   184a0:	33eb4703          	lbu	a4,830(s6)
   184a4:	c63a                	sw	a4,12(sp)
   184a6:	33fb4703          	lbu	a4,831(s6)
   184aa:	ce3a                	sw	a4,28(sp)
   184ac:	360b4383          	lbu	t2,864(s6)
   184b0:	35fb4f83          	lbu	t6,863(s6)
   184b4:	340b4703          	lbu	a4,832(s6)
   184b8:	cc3a                	sw	a4,24(sp)
   184ba:	341b4703          	lbu	a4,833(s6)
   184be:	ca3a                	sw	a4,20(sp)
   184c0:	342b4703          	lbu	a4,834(s6)
   184c4:	c83a                	sw	a4,16(sp)
   184c6:	343b4d03          	lbu	s10,835(s6)
   184ca:	344b4703          	lbu	a4,836(s6)
   184ce:	345b4e03          	lbu	t3,837(s6)
   184d2:	346b4e83          	lbu	t4,838(s6)
   184d6:	347b4f03          	lbu	t5,839(s6)
   184da:	348b4c03          	lbu	s8,840(s6)
   184de:	349b4c83          	lbu	s9,841(s6)
   184e2:	34ab4a03          	lbu	s4,842(s6)
   184e6:	34bb4a83          	lbu	s5,843(s6)
   184ea:	34cb4783          	lbu	a5,844(s6)
   184ee:	34db4d83          	lbu	s11,845(s6)
   184f2:	34eb4083          	lbu	ra,846(s6)
   184f6:	34fb4903          	lbu	s2,847(s6)
   184fa:	0322                	slli	t1,t1,0x8
   184fc:	03a2                	slli	t2,t2,0x8
   184fe:	0722                	slli	a4,a4,0x8
   18500:	005369b3          	or	s3,t1,t0
   18504:	01f3e2b3          	or	t0,t2,t6
   18508:	01a76333          	or	t1,a4,s10
   1850c:	350b4f83          	lbu	t6,848(s6)
   18510:	351b4d03          	lbu	s10,849(s6)
   18514:	352b4b83          	lbu	s7,850(s6)
   18518:	353b4883          	lbu	a7,851(s6)
   1851c:	0e42                	slli	t3,t3,0x10
   1851e:	0ee2                	slli	t4,t4,0x18
   18520:	0c22                	slli	s8,s8,0x8
   18522:	0cc2                	slli	s9,s9,0x10
   18524:	0a62                	slli	s4,s4,0x18
   18526:	07a2                	slli	a5,a5,0x8
   18528:	01cee3b3          	or	t2,t4,t3
   1852c:	01ec6e33          	or	t3,s8,t5
   18530:	019a6f33          	or	t5,s4,s9
   18534:	0157eeb3          	or	t4,a5,s5
   18538:	354b4783          	lbu	a5,852(s6)
   1853c:	355b4a83          	lbu	s5,853(s6)
   18540:	356b4c03          	lbu	s8,854(s6)
   18544:	357b4c83          	lbu	s9,855(s6)
   18548:	0dc2                	slli	s11,s11,0x10
   1854a:	00e2                	slli	ra,ra,0x18
   1854c:	0fa2                	slli	t6,t6,0x8
   1854e:	0d42                	slli	s10,s10,0x10
   18550:	0be2                	slli	s7,s7,0x18
   18552:	07a2                	slli	a5,a5,0x8
   18554:	01b0ea33          	or	s4,ra,s11
   18558:	012fefb3          	or	t6,t6,s2
   1855c:	01abe933          	or	s2,s7,s10
   18560:	0117e8b3          	or	a7,a5,a7
   18564:	358b4783          	lbu	a5,856(s6)
   18568:	359b4403          	lbu	s0,857(s6)
   1856c:	35ab4483          	lbu	s1,858(s6)
   18570:	35bb4703          	lbu	a4,859(s6)
   18574:	0ac2                	slli	s5,s5,0x10
   18576:	0c62                	slli	s8,s8,0x18
   18578:	07a2                	slli	a5,a5,0x8
   1857a:	0442                	slli	s0,s0,0x10
   1857c:	04e2                	slli	s1,s1,0x18
   1857e:	015c6ab3          	or	s5,s8,s5
   18582:	0197ebb3          	or	s7,a5,s9
   18586:	35cb4783          	lbu	a5,860(s6)
   1858a:	0084ec33          	or	s8,s1,s0
   1858e:	35db4483          	lbu	s1,861(s6)
   18592:	35eb4403          	lbu	s0,862(s6)
   18596:	07a2                	slli	a5,a5,0x8
   18598:	00e7ecb3          	or	s9,a5,a4
   1859c:	04c2                	slli	s1,s1,0x10
   1859e:	0462                	slli	s0,s0,0x18
   185a0:	8c45                	or	s0,s0,s1
   185a2:	09311223          	sh	s3,132(sp)
   185a6:	4732                	lw	a4,12(sp)
   185a8:	08e10323          	sb	a4,134(sp)
   185ac:	0063e9b3          	or	s3,t2,t1
   185b0:	01cf64b3          	or	s1,t5,t3
   185b4:	01da63b3          	or	t2,s4,t4
   185b8:	01f96333          	or	t1,s2,t6
   185bc:	011ae733          	or	a4,s5,a7
   185c0:	017c67b3          	or	a5,s8,s7
   185c4:	01946433          	or	s0,s0,s9
   185c8:	da3a                	sw	a4,52(sp)
   185ca:	dc3e                	sw	a5,56(sp)
   185cc:	de22                	sw	s0,60(sp)
   185ce:	04511023          	sh	t0,64(sp)
   185d2:	d24e                	sw	s3,36(sp)
   185d4:	d426                	sw	s1,40(sp)
   185d6:	d61e                	sw	t2,44(sp)
   185d8:	d81a                	sw	t1,48(sp)
   185da:	470d                	li	a4,3
   185dc:	00000073          	ecall
   185e0:	459d                	li	a1,7
   185e2:	4711                	li	a4,4
   185e4:	8542                	mv	a0,a6
   185e6:	4601                	li	a2,0
   185e8:	4681                	li	a3,0
   185ea:	00000073          	ecall
   185ee:	6505                	lui	a0,0x1
   185f0:	36350513          	addi	a0,a0,867 # 1363 <.Lline_table_start1+0x1138>
   185f4:	950a                	add	a0,a0,sp
   185f6:	104c                	addi	a1,sp,36
   185f8:	4679                	li	a2,30
   185fa:	00003097          	auipc	ra,0x3
   185fe:	75a080e7          	jalr	1882(ra) # 1bd54 <memcpy>
   18602:	08411703          	lh	a4,132(sp)
   18606:	08614783          	lbu	a5,134(sp)
   1860a:	4552                	lw	a0,20(sp)
   1860c:	38ab0ea3          	sb	a0,925(s6)
   18610:	4542                	lw	a0,16(sp)
   18612:	38ab0f23          	sb	a0,926(s6)
   18616:	320b2e23          	sw	zero,828(s6)
   1861a:	340b2023          	sw	zero,832(s6)
   1861e:	340b2223          	sw	zero,836(s6)
   18622:	340b1423          	sh	zero,840(s6)
   18626:	66700513          	li	a0,1639
   1862a:	4589                	li	a1,2
   1862c:	6605                	lui	a2,0x1
   1862e:	35c60613          	addi	a2,a2,860 # 135c <.Lline_table_start1+0x1131>
   18632:	960a                	add	a2,a2,sp
   18634:	02500693          	li	a3,37
   18638:	38eb1c23          	sh	a4,920(s6)
   1863c:	38fb0d23          	sb	a5,922(s6)
   18640:	4772                	lw	a4,28(sp)
   18642:	38eb0da3          	sb	a4,923(s6)
   18646:	4762                	lw	a4,24(sp)
   18648:	38eb0e23          	sb	a4,924(s6)
   1864c:	4711                	li	a4,4
   1864e:	00000073          	ecall
   18652:	82ae                	mv	t0,a1
   18654:	4589                	li	a1,2
   18656:	02b50c63          	beq	a0,a1,1868e <_start+0x8a6>
   1865a:	66700513          	li	a0,1639
   1865e:	45a1                	li	a1,8
   18660:	464d                	li	a2,19
   18662:	0622                	slli	a2,a2,0x8
   18664:	960a                	add	a2,a2,sp
   18666:	46b9                	li	a3,14
   18668:	470d                	li	a4,3
   1866a:	4789                	li	a5,2
   1866c:	00000073          	ecall
   18670:	00f50e63          	beq	a0,a5,1868c <_start+0x8a4>
   18674:	66700513          	li	a0,1639
   18678:	4589                	li	a1,2
   1867a:	4621                	li	a2,8
   1867c:	4709                	li	a4,2
   1867e:	07f00793          	li	a5,127
   18682:	4681                	li	a3,0
   18684:	00000073          	ecall
   18688:	02a7e463          	bltu	a5,a0,186b0 <_start+0x8c8>
   1868c:	82ae                	mv	t0,a1
   1868e:	4601                	li	a2,0
   18690:	4681                	li	a3,0
   18692:	66700513          	li	a0,1639
   18696:	45a1                	li	a1,8
   18698:	470d                	li	a4,3
   1869a:	00000073          	ecall
   1869e:	66700513          	li	a0,1639
   186a2:	4589                	li	a1,2
   186a4:	4711                	li	a4,4
   186a6:	4601                	li	a2,0
   186a8:	4681                	li	a3,0
   186aa:	00000073          	ecall
   186ae:	b809                	j	17ec0 <_start+0xd8>
   186b0:	4601                	li	a2,0
   186b2:	4681                	li	a3,0
   186b4:	66700513          	li	a0,1639
   186b8:	45a1                	li	a1,8
   186ba:	470d                	li	a4,3
   186bc:	00000073          	ecall
   186c0:	470d                	li	a4,3
   186c2:	66700513          	li	a0,1639
   186c6:	45a1                	li	a1,8
   186c8:	4601                	li	a2,0
   186ca:	4681                	li	a3,0
   186cc:	00000073          	ecall
   186d0:	33cb1503          	lh	a0,828(s6)
   186d4:	33eb4583          	lbu	a1,830(s6)
   186d8:	33fb4803          	lbu	a6,831(s6)
   186dc:	340b4883          	lbu	a7,832(s6)
   186e0:	345b4603          	lbu	a2,837(s6)
   186e4:	346b4683          	lbu	a3,838(s6)
   186e8:	347b4703          	lbu	a4,839(s6)
   186ec:	348b4403          	lbu	s0,840(s6)
   186f0:	08a11423          	sh	a0,136(sp)
   186f4:	08b10523          	sb	a1,138(sp)
   186f8:	341b4283          	lbu	t0,833(s6)
   186fc:	342b4483          	lbu	s1,834(s6)
   18700:	343b4503          	lbu	a0,835(s6)
   18704:	344b4583          	lbu	a1,836(s6)
   18708:	0422                	slli	s0,s0,0x8
   1870a:	8c59                	or	s0,s0,a4
   1870c:	470d                	li	a4,3
   1870e:	05a2                	slli	a1,a1,0x8
   18710:	8dc9                	or	a1,a1,a0
   18712:	349b4783          	lbu	a5,841(s6)
   18716:	0642                	slli	a2,a2,0x10
   18718:	06e2                	slli	a3,a3,0x18
   1871a:	8e55                	or	a2,a2,a3
   1871c:	66700513          	li	a0,1639
   18720:	8e4d                	or	a2,a2,a1
   18722:	45a1                	li	a1,8
   18724:	d232                	sw	a2,36(sp)
   18726:	02811423          	sh	s0,40(sp)
   1872a:	02f10523          	sb	a5,42(sp)
   1872e:	4601                	li	a2,0
   18730:	4681                	li	a3,0
   18732:	00000073          	ecall
   18736:	4711                	li	a4,4
   18738:	66700513          	li	a0,1639
   1873c:	4589                	li	a1,2
   1873e:	4601                	li	a2,0
   18740:	4681                	li	a3,0
   18742:	00000073          	ecall
   18746:	090105a3          	sb	a6,139(sp)
   1874a:	09110623          	sb	a7,140(sp)
   1874e:	085106a3          	sb	t0,141(sp)
   18752:	08910723          	sb	s1,142(sp)
   18756:	02414503          	lbu	a0,36(sp)
   1875a:	02514583          	lbu	a1,37(sp)
   1875e:	02614603          	lbu	a2,38(sp)
   18762:	02714683          	lbu	a3,39(sp)
   18766:	02814703          	lbu	a4,40(sp)
   1876a:	02914783          	lbu	a5,41(sp)
   1876e:	02a14483          	lbu	s1,42(sp)
   18772:	08a107a3          	sb	a0,143(sp)
   18776:	08b10823          	sb	a1,144(sp)
   1877a:	08c108a3          	sb	a2,145(sp)
   1877e:	08d10923          	sb	a3,146(sp)
   18782:	08e109a3          	sb	a4,147(sp)
   18786:	08f10a23          	sb	a5,148(sp)
   1878a:	08910aa3          	sb	s1,149(sp)
   1878e:	6505                	lui	a0,0x1
   18790:	35c50513          	addi	a0,a0,860 # 135c <.Lline_table_start1+0x1131>
   18794:	950a                	add	a0,a0,sp
   18796:	012c                	addi	a1,sp,136
   18798:	ffffc097          	auipc	ra,0xffffc
   1879c:	cc2080e7          	jalr	-830(ra) # 1445a <_ZN18complex_no_dynamic3app17h5f97481fea1c0f57E>
   187a0:	398b4503          	lbu	a0,920(s6)
   187a4:	c119                	beqz	a0,187aa <_start+0x9c2>
   187a6:	4a80306f          	j	1bc4e <_start+0x3e66>
   187aa:	39ab4503          	lbu	a0,922(s6)
   187ae:	399b4583          	lbu	a1,921(s6)
   187b2:	39bb4603          	lbu	a2,923(s6)
   187b6:	39cb2403          	lw	s0,924(s6)
   187ba:	0522                	slli	a0,a0,0x8
   187bc:	8d4d                	or	a0,a0,a1
   187be:	08a11b23          	sh	a0,150(sp)
   187c2:	08c10c23          	sb	a2,152(sp)
   187c6:	6505                	lui	a0,0x1
   187c8:	36450513          	addi	a0,a0,868 # 1364 <.Lline_table_start1+0x1139>
   187cc:	00a105b3          	add	a1,sp,a0
   187d0:	454d                	li	a0,19
   187d2:	0522                	slli	a0,a0,0x8
   187d4:	950a                	add	a0,a0,sp
   187d6:	04100613          	li	a2,65
   187da:	00003097          	auipc	ra,0x3
   187de:	57a080e7          	jalr	1402(ra) # 1bd54 <memcpy>
   187e2:	01845513          	srli	a0,s0,0x18
   187e6:	01045593          	srli	a1,s0,0x10
   187ea:	00845613          	srli	a2,s0,0x8
   187ee:	08810ca3          	sb	s0,153(sp)
   187f2:	08c10d23          	sb	a2,154(sp)
   187f6:	08b10da3          	sb	a1,155(sp)
   187fa:	08a10e23          	sb	a0,156(sp)
   187fe:	09d10513          	addi	a0,sp,157
   18802:	45cd                	li	a1,19
   18804:	05a2                	slli	a1,a1,0x8
   18806:	958a                	add	a1,a1,sp
   18808:	04100613          	li	a2,65
   1880c:	00003097          	auipc	ra,0x3
   18810:	548080e7          	jalr	1352(ra) # 1bd54 <memcpy>
   18814:	6505                	lui	a0,0x1
   18816:	35c50513          	addi	a0,a0,860 # 135c <.Lline_table_start1+0x1131>
   1881a:	950a                	add	a0,a0,sp
   1881c:	09610593          	addi	a1,sp,150
   18820:	ffff9097          	auipc	ra,0xffff9
   18824:	fe4080e7          	jalr	-28(ra) # 11804 <_ZN18complex_no_dynamic3app17h0ea6a3797b0a3407E>
   18828:	398b4503          	lbu	a0,920(s6)
   1882c:	c119                	beqz	a0,18832 <_start+0xa4a>
   1882e:	4200306f          	j	1bc4e <_start+0x3e66>
   18832:	399b4503          	lbu	a0,921(s6)
   18836:	39ab4583          	lbu	a1,922(s6)
   1883a:	39bb4803          	lbu	a6,923(s6)
   1883e:	39cb2683          	lw	a3,924(s6)
   18842:	3a0b2703          	lw	a4,928(s6)
   18846:	3a4b2783          	lw	a5,932(s6)
   1884a:	05a2                	slli	a1,a1,0x8
   1884c:	0186d893          	srli	a7,a3,0x18
   18850:	0106d293          	srli	t0,a3,0x10
   18854:	0187d613          	srli	a2,a5,0x18
   18858:	0107d493          	srli	s1,a5,0x10
   1885c:	0087d413          	srli	s0,a5,0x8
   18860:	8d4d                	or	a0,a0,a1
   18862:	01875593          	srli	a1,a4,0x18
   18866:	0e9105a3          	sb	s1,235(sp)
   1886a:	0ec10623          	sb	a2,236(sp)
   1886e:	01075613          	srli	a2,a4,0x10
   18872:	0ec103a3          	sb	a2,231(sp)
   18876:	0eb10423          	sb	a1,232(sp)
   1887a:	0ef104a3          	sb	a5,233(sp)
   1887e:	0e810523          	sb	s0,234(sp)
   18882:	0086d593          	srli	a1,a3,0x8
   18886:	0ca11f23          	sh	a0,222(sp)
   1888a:	0f010023          	sb	a6,224(sp)
   1888e:	0ed100a3          	sb	a3,225(sp)
   18892:	0eb10123          	sb	a1,226(sp)
   18896:	00875513          	srli	a0,a4,0x8
   1889a:	0e5101a3          	sb	t0,227(sp)
   1889e:	0f110223          	sb	a7,228(sp)
   188a2:	0ee102a3          	sb	a4,229(sp)
   188a6:	0ea10323          	sb	a0,230(sp)
   188aa:	6505                	lui	a0,0x1
   188ac:	35c50513          	addi	a0,a0,860 # 135c <.Lline_table_start1+0x1131>
   188b0:	950a                	add	a0,a0,sp
   188b2:	0de10593          	addi	a1,sp,222
   188b6:	ffffd097          	auipc	ra,0xffffd
   188ba:	6f4080e7          	jalr	1780(ra) # 15faa <_ZN18complex_no_dynamic3app17hb1080ecf8a44f3ceE>
   188be:	398b4503          	lbu	a0,920(s6)
   188c2:	c119                	beqz	a0,188c8 <_start+0xae0>
   188c4:	38a0306f          	j	1bc4e <_start+0x3e66>
   188c8:	399b4503          	lbu	a0,921(s6)
   188cc:	39ab4583          	lbu	a1,922(s6)
   188d0:	39bb4603          	lbu	a2,923(s6)
   188d4:	39cb2683          	lw	a3,924(s6)
   188d8:	3a0b2703          	lw	a4,928(s6)
   188dc:	3a4b2783          	lw	a5,932(s6)
   188e0:	3a8b2483          	lw	s1,936(s6)
   188e4:	3acb2403          	lw	s0,940(s6)
   188e8:	32eb2e23          	sw	a4,828(s6)
   188ec:	34fb2023          	sw	a5,832(s6)
   188f0:	349b2223          	sw	s1,836(s6)
   188f4:	348b2423          	sw	s0,840(s6)
   188f8:	3b0b2703          	lw	a4,944(s6)
   188fc:	3b4b2783          	lw	a5,948(s6)
   18900:	3b8b2483          	lw	s1,952(s6)
   18904:	3bcb1403          	lh	s0,956(s6)
   18908:	05a2                	slli	a1,a1,0x8
   1890a:	34eb2623          	sw	a4,844(s6)
   1890e:	34fb2823          	sw	a5,848(s6)
   18912:	349b2a23          	sw	s1,852(s6)
   18916:	348b1c23          	sh	s0,856(s6)
   1891a:	0186d713          	srli	a4,a3,0x18
   1891e:	8d4d                	or	a0,a0,a1
   18920:	0106d593          	srli	a1,a3,0x10
   18924:	0eb109a3          	sb	a1,243(sp)
   18928:	0ee10a23          	sb	a4,244(sp)
   1892c:	0086d593          	srli	a1,a3,0x8
   18930:	0ea11723          	sh	a0,238(sp)
   18934:	0ec10823          	sb	a2,240(sp)
   18938:	0ed108a3          	sb	a3,241(sp)
   1893c:	0eb10923          	sb	a1,242(sp)
   18940:	0f510513          	addi	a0,sp,245
   18944:	45cd                	li	a1,19
   18946:	05a2                	slli	a1,a1,0x8
   18948:	958a                	add	a1,a1,sp
   1894a:	4679                	li	a2,30
   1894c:	00003097          	auipc	ra,0x3
   18950:	408080e7          	jalr	1032(ra) # 1bd54 <memcpy>
   18954:	6505                	lui	a0,0x1
   18956:	35c50513          	addi	a0,a0,860 # 135c <.Lline_table_start1+0x1131>
   1895a:	950a                	add	a0,a0,sp
   1895c:	0ee10593          	addi	a1,sp,238
   18960:	ffff9097          	auipc	ra,0xffff9
   18964:	5d4080e7          	jalr	1492(ra) # 11f34 <_ZN18complex_no_dynamic3app17h20b22f0482dd44bcE>
   18968:	398b4503          	lbu	a0,920(s6)
   1896c:	c119                	beqz	a0,18972 <_start+0xb8a>
   1896e:	2e00306f          	j	1bc4e <_start+0x3e66>
   18972:	39ab4503          	lbu	a0,922(s6)
   18976:	399b4583          	lbu	a1,921(s6)
   1897a:	39bb4603          	lbu	a2,923(s6)
   1897e:	39cb2403          	lw	s0,924(s6)
   18982:	0522                	slli	a0,a0,0x8
   18984:	8d4d                	or	a0,a0,a1
   18986:	10a11a23          	sh	a0,276(sp)
   1898a:	10c10b23          	sb	a2,278(sp)
   1898e:	6505                	lui	a0,0x1
   18990:	36450513          	addi	a0,a0,868 # 1364 <.Lline_table_start1+0x1139>
   18994:	00a105b3          	add	a1,sp,a0
   18998:	454d                	li	a0,19
   1899a:	0522                	slli	a0,a0,0x8
   1899c:	950a                	add	a0,a0,sp
   1899e:	02300613          	li	a2,35
   189a2:	00003097          	auipc	ra,0x3
   189a6:	3b2080e7          	jalr	946(ra) # 1bd54 <memcpy>
   189aa:	01845513          	srli	a0,s0,0x18
   189ae:	01045593          	srli	a1,s0,0x10
   189b2:	00845613          	srli	a2,s0,0x8
   189b6:	10810ba3          	sb	s0,279(sp)
   189ba:	10c10c23          	sb	a2,280(sp)
   189be:	10b10ca3          	sb	a1,281(sp)
   189c2:	10a10d23          	sb	a0,282(sp)
   189c6:	11b10513          	addi	a0,sp,283
   189ca:	45cd                	li	a1,19
   189cc:	05a2                	slli	a1,a1,0x8
   189ce:	958a                	add	a1,a1,sp
   189d0:	02300613          	li	a2,35
   189d4:	00003097          	auipc	ra,0x3
   189d8:	380080e7          	jalr	896(ra) # 1bd54 <memcpy>
   189dc:	6505                	lui	a0,0x1
   189de:	35c50513          	addi	a0,a0,860 # 135c <.Lline_table_start1+0x1131>
   189e2:	950a                	add	a0,a0,sp
   189e4:	0a4c                	addi	a1,sp,276
   189e6:	fffff097          	auipc	ra,0xfffff
   189ea:	a08080e7          	jalr	-1528(ra) # 173ee <_ZN18complex_no_dynamic3app17hecfdec870c88ff0cE>
   189ee:	398b4503          	lbu	a0,920(s6)
   189f2:	c119                	beqz	a0,189f8 <_start+0xc10>
   189f4:	25a0306f          	j	1bc4e <_start+0x3e66>
   189f8:	39ab4503          	lbu	a0,922(s6)
   189fc:	399b4583          	lbu	a1,921(s6)
   18a00:	39bb4603          	lbu	a2,923(s6)
   18a04:	39cb2403          	lw	s0,924(s6)
   18a08:	0522                	slli	a0,a0,0x8
   18a0a:	8d4d                	or	a0,a0,a1
   18a0c:	12a11f23          	sh	a0,318(sp)
   18a10:	14c10023          	sb	a2,320(sp)
   18a14:	6505                	lui	a0,0x1
   18a16:	36450513          	addi	a0,a0,868 # 1364 <.Lline_table_start1+0x1139>
   18a1a:	00a105b3          	add	a1,sp,a0
   18a1e:	454d                	li	a0,19
   18a20:	0522                	slli	a0,a0,0x8
   18a22:	950a                	add	a0,a0,sp
   18a24:	05c00613          	li	a2,92
   18a28:	00003097          	auipc	ra,0x3
   18a2c:	32c080e7          	jalr	812(ra) # 1bd54 <memcpy>
   18a30:	01845513          	srli	a0,s0,0x18
   18a34:	01045593          	srli	a1,s0,0x10
   18a38:	00845613          	srli	a2,s0,0x8
   18a3c:	148100a3          	sb	s0,321(sp)
   18a40:	14c10123          	sb	a2,322(sp)
   18a44:	14b101a3          	sb	a1,323(sp)
   18a48:	14a10223          	sb	a0,324(sp)
   18a4c:	14510513          	addi	a0,sp,325
   18a50:	45cd                	li	a1,19
   18a52:	05a2                	slli	a1,a1,0x8
   18a54:	958a                	add	a1,a1,sp
   18a56:	05c00613          	li	a2,92
   18a5a:	00003097          	auipc	ra,0x3
   18a5e:	2fa080e7          	jalr	762(ra) # 1bd54 <memcpy>
   18a62:	6505                	lui	a0,0x1
   18a64:	35c50513          	addi	a0,a0,860 # 135c <.Lline_table_start1+0x1131>
   18a68:	950a                	add	a0,a0,sp
   18a6a:	13e10593          	addi	a1,sp,318
   18a6e:	fffff097          	auipc	ra,0xfffff
   18a72:	b8a080e7          	jalr	-1142(ra) # 175f8 <_ZN18complex_no_dynamic3app17hf73025424a78ed54E>
   18a76:	398b4503          	lbu	a0,920(s6)
   18a7a:	c119                	beqz	a0,18a80 <_start+0xc98>
   18a7c:	1d20306f          	j	1bc4e <_start+0x3e66>
   18a80:	399b4503          	lbu	a0,921(s6)
   18a84:	39ab4583          	lbu	a1,922(s6)
   18a88:	39bb4603          	lbu	a2,923(s6)
   18a8c:	39cb2683          	lw	a3,924(s6)
   18a90:	3a0b2703          	lw	a4,928(s6)
   18a94:	3a4b2783          	lw	a5,932(s6)
   18a98:	3a8b2483          	lw	s1,936(s6)
   18a9c:	3acb2403          	lw	s0,940(s6)
   18aa0:	32eb2e23          	sw	a4,828(s6)
   18aa4:	34fb2023          	sw	a5,832(s6)
   18aa8:	349b2223          	sw	s1,836(s6)
   18aac:	348b2423          	sw	s0,840(s6)
   18ab0:	3b0b2703          	lw	a4,944(s6)
   18ab4:	3b4b2783          	lw	a5,948(s6)
   18ab8:	3b8b2483          	lw	s1,952(s6)
   18abc:	3bcb2403          	lw	s0,956(s6)
   18ac0:	05a2                	slli	a1,a1,0x8
   18ac2:	34eb2623          	sw	a4,844(s6)
   18ac6:	34fb2823          	sw	a5,848(s6)
   18aca:	349b2a23          	sw	s1,852(s6)
   18ace:	348b2c23          	sw	s0,856(s6)
   18ad2:	0186d713          	srli	a4,a3,0x18
   18ad6:	8d4d                	or	a0,a0,a1
   18ad8:	0106d593          	srli	a1,a3,0x10
   18adc:	1ab103a3          	sb	a1,423(sp)
   18ae0:	1ae10423          	sb	a4,424(sp)
   18ae4:	0086d593          	srli	a1,a3,0x8
   18ae8:	1aa11123          	sh	a0,418(sp)
   18aec:	1ac10223          	sb	a2,420(sp)
   18af0:	1ad102a3          	sb	a3,421(sp)
   18af4:	1ab10323          	sb	a1,422(sp)
   18af8:	1a910513          	addi	a0,sp,425
   18afc:	45cd                	li	a1,19
   18afe:	05a2                	slli	a1,a1,0x8
   18b00:	958a                	add	a1,a1,sp
   18b02:	02000613          	li	a2,32
   18b06:	00003097          	auipc	ra,0x3
   18b0a:	24e080e7          	jalr	590(ra) # 1bd54 <memcpy>
   18b0e:	6505                	lui	a0,0x1
   18b10:	35c50513          	addi	a0,a0,860 # 135c <.Lline_table_start1+0x1131>
   18b14:	950a                	add	a0,a0,sp
   18b16:	1a210593          	addi	a1,sp,418
   18b1a:	ffffb097          	auipc	ra,0xffffb
   18b1e:	0de080e7          	jalr	222(ra) # 13bf8 <_ZN18complex_no_dynamic3app17h4dba417c1c4e72beE>
   18b22:	398b4503          	lbu	a0,920(s6)
   18b26:	c119                	beqz	a0,18b2c <_start+0xd44>
   18b28:	1260306f          	j	1bc4e <_start+0x3e66>
   18b2c:	399b4503          	lbu	a0,921(s6)
   18b30:	39ab4583          	lbu	a1,922(s6)
   18b34:	39bb4603          	lbu	a2,923(s6)
   18b38:	39cb2683          	lw	a3,924(s6)
   18b3c:	3a0b2703          	lw	a4,928(s6)
   18b40:	3a4b2783          	lw	a5,932(s6)
   18b44:	3a8b2483          	lw	s1,936(s6)
   18b48:	3acb2403          	lw	s0,940(s6)
   18b4c:	32eb2e23          	sw	a4,828(s6)
   18b50:	34fb2023          	sw	a5,832(s6)
   18b54:	349b2223          	sw	s1,836(s6)
   18b58:	348b2423          	sw	s0,840(s6)
   18b5c:	3b0b2703          	lw	a4,944(s6)
   18b60:	3b4b1783          	lh	a5,948(s6)
   18b64:	3b6b4483          	lbu	s1,950(s6)
   18b68:	05a2                	slli	a1,a1,0x8
   18b6a:	34eb2623          	sw	a4,844(s6)
   18b6e:	34fb1823          	sh	a5,848(s6)
   18b72:	349b0923          	sb	s1,850(s6)
   18b76:	0186d713          	srli	a4,a3,0x18
   18b7a:	8d4d                	or	a0,a0,a1
   18b7c:	0106d593          	srli	a1,a3,0x10
   18b80:	1cb107a3          	sb	a1,463(sp)
   18b84:	1ce10823          	sb	a4,464(sp)
   18b88:	0086d593          	srli	a1,a3,0x8
   18b8c:	1ca11523          	sh	a0,458(sp)
   18b90:	1cc10623          	sb	a2,460(sp)
   18b94:	1cd106a3          	sb	a3,461(sp)
   18b98:	1cb10723          	sb	a1,462(sp)
   18b9c:	1d110513          	addi	a0,sp,465
   18ba0:	45cd                	li	a1,19
   18ba2:	05a2                	slli	a1,a1,0x8
   18ba4:	958a                	add	a1,a1,sp
   18ba6:	465d                	li	a2,23
   18ba8:	00003097          	auipc	ra,0x3
   18bac:	1ac080e7          	jalr	428(ra) # 1bd54 <memcpy>
   18bb0:	6505                	lui	a0,0x1
   18bb2:	35c50513          	addi	a0,a0,860 # 135c <.Lline_table_start1+0x1131>
   18bb6:	950a                	add	a0,a0,sp
   18bb8:	1ca10593          	addi	a1,sp,458
   18bbc:	ffffc097          	auipc	ra,0xffffc
   18bc0:	1ca080e7          	jalr	458(ra) # 14d86 <_ZN18complex_no_dynamic3app17h726fe457844b1268E>
   18bc4:	398b4503          	lbu	a0,920(s6)
   18bc8:	c119                	beqz	a0,18bce <_start+0xde6>
   18bca:	0840306f          	j	1bc4e <_start+0x3e66>
   18bce:	39ab4503          	lbu	a0,922(s6)
   18bd2:	399b4583          	lbu	a1,921(s6)
   18bd6:	39bb4603          	lbu	a2,923(s6)
   18bda:	39cb2403          	lw	s0,924(s6)
   18bde:	0522                	slli	a0,a0,0x8
   18be0:	8d4d                	or	a0,a0,a1
   18be2:	1ea11423          	sh	a0,488(sp)
   18be6:	1ec10523          	sb	a2,490(sp)
   18bea:	6505                	lui	a0,0x1
   18bec:	36450513          	addi	a0,a0,868 # 1364 <.Lline_table_start1+0x1139>
   18bf0:	00a105b3          	add	a1,sp,a0
   18bf4:	454d                	li	a0,19
   18bf6:	0522                	slli	a0,a0,0x8
   18bf8:	950a                	add	a0,a0,sp
   18bfa:	02500613          	li	a2,37
   18bfe:	00003097          	auipc	ra,0x3
   18c02:	156080e7          	jalr	342(ra) # 1bd54 <memcpy>
   18c06:	01845513          	srli	a0,s0,0x18
   18c0a:	01045593          	srli	a1,s0,0x10
   18c0e:	00845613          	srli	a2,s0,0x8
   18c12:	1e8105a3          	sb	s0,491(sp)
   18c16:	1ec10623          	sb	a2,492(sp)
   18c1a:	1eb106a3          	sb	a1,493(sp)
   18c1e:	1ea10723          	sb	a0,494(sp)
   18c22:	1ef10513          	addi	a0,sp,495
   18c26:	45cd                	li	a1,19
   18c28:	05a2                	slli	a1,a1,0x8
   18c2a:	958a                	add	a1,a1,sp
   18c2c:	02500613          	li	a2,37
   18c30:	00003097          	auipc	ra,0x3
   18c34:	124080e7          	jalr	292(ra) # 1bd54 <memcpy>
   18c38:	6505                	lui	a0,0x1
   18c3a:	35c50513          	addi	a0,a0,860 # 135c <.Lline_table_start1+0x1131>
   18c3e:	950a                	add	a0,a0,sp
   18c40:	13ac                	addi	a1,sp,488
   18c42:	ffffd097          	auipc	ra,0xffffd
   18c46:	06c080e7          	jalr	108(ra) # 15cae <_ZN18complex_no_dynamic3app17ha9cb442621fa1373E>
   18c4a:	398b4503          	lbu	a0,920(s6)
   18c4e:	c119                	beqz	a0,18c54 <_start+0xe6c>
   18c50:	7ff0206f          	j	1bc4e <_start+0x3e66>
   18c54:	399b4503          	lbu	a0,921(s6)
   18c58:	39ab4583          	lbu	a1,922(s6)
   18c5c:	39bb4603          	lbu	a2,923(s6)
   18c60:	39cb2683          	lw	a3,924(s6)
   18c64:	3a0b2703          	lw	a4,928(s6)
   18c68:	3a4b2783          	lw	a5,932(s6)
   18c6c:	3a8b2483          	lw	s1,936(s6)
   18c70:	3acb2403          	lw	s0,940(s6)
   18c74:	32eb2e23          	sw	a4,828(s6)
   18c78:	34fb2023          	sw	a5,832(s6)
   18c7c:	349b2223          	sw	s1,836(s6)
   18c80:	348b2423          	sw	s0,840(s6)
   18c84:	3b0b2703          	lw	a4,944(s6)
   18c88:	3b4b2783          	lw	a5,948(s6)
   18c8c:	3b8b2483          	lw	s1,952(s6)
   18c90:	3bcb1403          	lh	s0,956(s6)
   18c94:	05a2                	slli	a1,a1,0x8
   18c96:	34eb2623          	sw	a4,844(s6)
   18c9a:	34fb2823          	sw	a5,848(s6)
   18c9e:	349b2a23          	sw	s1,852(s6)
   18ca2:	348b1c23          	sh	s0,856(s6)
   18ca6:	0186d713          	srli	a4,a3,0x18
   18caa:	8d4d                	or	a0,a0,a1
   18cac:	0106d593          	srli	a1,a3,0x10
   18cb0:	20b10ca3          	sb	a1,537(sp)
   18cb4:	20e10d23          	sb	a4,538(sp)
   18cb8:	0086d593          	srli	a1,a3,0x8
   18cbc:	20a11a23          	sh	a0,532(sp)
   18cc0:	20c10b23          	sb	a2,534(sp)
   18cc4:	20d10ba3          	sb	a3,535(sp)
   18cc8:	20b10c23          	sb	a1,536(sp)
   18ccc:	21b10513          	addi	a0,sp,539
   18cd0:	45cd                	li	a1,19
   18cd2:	05a2                	slli	a1,a1,0x8
   18cd4:	958a                	add	a1,a1,sp
   18cd6:	4679                	li	a2,30
   18cd8:	00003097          	auipc	ra,0x3
   18cdc:	07c080e7          	jalr	124(ra) # 1bd54 <memcpy>
   18ce0:	6505                	lui	a0,0x1
   18ce2:	35c50513          	addi	a0,a0,860 # 135c <.Lline_table_start1+0x1131>
   18ce6:	950a                	add	a0,a0,sp
   18ce8:	0c4c                	addi	a1,sp,532
   18cea:	fffff097          	auipc	ra,0xfffff
   18cee:	e10080e7          	jalr	-496(ra) # 17afa <_ZN18complex_no_dynamic3app17hfee4049911bf83beE>
   18cf2:	398b4503          	lbu	a0,920(s6)
   18cf6:	c119                	beqz	a0,18cfc <_start+0xf14>
   18cf8:	7570206f          	j	1bc4e <_start+0x3e66>
   18cfc:	399b4503          	lbu	a0,921(s6)
   18d00:	39ab4583          	lbu	a1,922(s6)
   18d04:	39bb4803          	lbu	a6,923(s6)
   18d08:	39cb2683          	lw	a3,924(s6)
   18d0c:	3a0b2703          	lw	a4,928(s6)
   18d10:	3a4b2783          	lw	a5,932(s6)
   18d14:	3a8b2483          	lw	s1,936(s6)
   18d18:	3acb2403          	lw	s0,940(s6)
   18d1c:	3b0b4603          	lbu	a2,944(s6)
   18d20:	32eb2e23          	sw	a4,828(s6)
   18d24:	34fb2023          	sw	a5,832(s6)
   18d28:	349b2223          	sw	s1,836(s6)
   18d2c:	348b2423          	sw	s0,840(s6)
   18d30:	05a2                	slli	a1,a1,0x8
   18d32:	34cb0623          	sb	a2,844(s6)
   18d36:	0186d613          	srli	a2,a3,0x18
   18d3a:	8d4d                	or	a0,a0,a1
   18d3c:	0106d593          	srli	a1,a3,0x10
   18d40:	22b10fa3          	sb	a1,575(sp)
   18d44:	24c10023          	sb	a2,576(sp)
   18d48:	0086d593          	srli	a1,a3,0x8
   18d4c:	22a11d23          	sh	a0,570(sp)
   18d50:	23010e23          	sb	a6,572(sp)
   18d54:	22d10ea3          	sb	a3,573(sp)
   18d58:	22b10f23          	sb	a1,574(sp)
   18d5c:	24110513          	addi	a0,sp,577
   18d60:	45cd                	li	a1,19
   18d62:	05a2                	slli	a1,a1,0x8
   18d64:	958a                	add	a1,a1,sp
   18d66:	4645                	li	a2,17
   18d68:	00003097          	auipc	ra,0x3
   18d6c:	fec080e7          	jalr	-20(ra) # 1bd54 <memcpy>
   18d70:	6505                	lui	a0,0x1
   18d72:	35c50513          	addi	a0,a0,860 # 135c <.Lline_table_start1+0x1131>
   18d76:	950a                	add	a0,a0,sp
   18d78:	23a10593          	addi	a1,sp,570
   18d7c:	ffffc097          	auipc	ra,0xffffc
   18d80:	936080e7          	jalr	-1738(ra) # 146b2 <_ZN18complex_no_dynamic3app17h6591b44eb831b0eeE>
   18d84:	398b4503          	lbu	a0,920(s6)
   18d88:	c119                	beqz	a0,18d8e <_start+0xfa6>
   18d8a:	6c50206f          	j	1bc4e <_start+0x3e66>
   18d8e:	39ab4503          	lbu	a0,922(s6)
   18d92:	399b4583          	lbu	a1,921(s6)
   18d96:	39bb4603          	lbu	a2,923(s6)
   18d9a:	39cb2403          	lw	s0,924(s6)
   18d9e:	0522                	slli	a0,a0,0x8
   18da0:	8d4d                	or	a0,a0,a1
   18da2:	24a11923          	sh	a0,594(sp)
   18da6:	24c10a23          	sb	a2,596(sp)
   18daa:	6505                	lui	a0,0x1
   18dac:	36450513          	addi	a0,a0,868 # 1364 <.Lline_table_start1+0x1139>
   18db0:	00a105b3          	add	a1,sp,a0
   18db4:	454d                	li	a0,19
   18db6:	0522                	slli	a0,a0,0x8
   18db8:	950a                	add	a0,a0,sp
   18dba:	02f00613          	li	a2,47
   18dbe:	00003097          	auipc	ra,0x3
   18dc2:	f96080e7          	jalr	-106(ra) # 1bd54 <memcpy>
   18dc6:	01845513          	srli	a0,s0,0x18
   18dca:	01045593          	srli	a1,s0,0x10
   18dce:	00845613          	srli	a2,s0,0x8
   18dd2:	24810aa3          	sb	s0,597(sp)
   18dd6:	24c10b23          	sb	a2,598(sp)
   18dda:	24b10ba3          	sb	a1,599(sp)
   18dde:	24a10c23          	sb	a0,600(sp)
   18de2:	25910513          	addi	a0,sp,601
   18de6:	45cd                	li	a1,19
   18de8:	05a2                	slli	a1,a1,0x8
   18dea:	958a                	add	a1,a1,sp
   18dec:	02f00613          	li	a2,47
   18df0:	00003097          	auipc	ra,0x3
   18df4:	f64080e7          	jalr	-156(ra) # 1bd54 <memcpy>
   18df8:	6505                	lui	a0,0x1
   18dfa:	35c50513          	addi	a0,a0,860 # 135c <.Lline_table_start1+0x1131>
   18dfe:	950a                	add	a0,a0,sp
   18e00:	25210593          	addi	a1,sp,594
   18e04:	ffffc097          	auipc	ra,0xffffc
   18e08:	772080e7          	jalr	1906(ra) # 15576 <_ZN18complex_no_dynamic3app17h91e56b1becf27becE>
   18e0c:	398b4503          	lbu	a0,920(s6)
   18e10:	c119                	beqz	a0,18e16 <_start+0x102e>
   18e12:	63d0206f          	j	1bc4e <_start+0x3e66>
   18e16:	39ab4503          	lbu	a0,922(s6)
   18e1a:	399b4583          	lbu	a1,921(s6)
   18e1e:	39bb4603          	lbu	a2,923(s6)
   18e22:	39cb2403          	lw	s0,924(s6)
   18e26:	0522                	slli	a0,a0,0x8
   18e28:	8d4d                	or	a0,a0,a1
   18e2a:	28a11423          	sh	a0,648(sp)
   18e2e:	28c10523          	sb	a2,650(sp)
   18e32:	6505                	lui	a0,0x1
   18e34:	36450513          	addi	a0,a0,868 # 1364 <.Lline_table_start1+0x1139>
   18e38:	00a105b3          	add	a1,sp,a0
   18e3c:	454d                	li	a0,19
   18e3e:	0522                	slli	a0,a0,0x8
   18e40:	950a                	add	a0,a0,sp
   18e42:	02d00613          	li	a2,45
   18e46:	00003097          	auipc	ra,0x3
   18e4a:	f0e080e7          	jalr	-242(ra) # 1bd54 <memcpy>
   18e4e:	01845513          	srli	a0,s0,0x18
   18e52:	01045593          	srli	a1,s0,0x10
   18e56:	00845613          	srli	a2,s0,0x8
   18e5a:	288105a3          	sb	s0,651(sp)
   18e5e:	28c10623          	sb	a2,652(sp)
   18e62:	28b106a3          	sb	a1,653(sp)
   18e66:	28a10723          	sb	a0,654(sp)
   18e6a:	28f10513          	addi	a0,sp,655
   18e6e:	45cd                	li	a1,19
   18e70:	05a2                	slli	a1,a1,0x8
   18e72:	958a                	add	a1,a1,sp
   18e74:	02d00613          	li	a2,45
   18e78:	00003097          	auipc	ra,0x3
   18e7c:	edc080e7          	jalr	-292(ra) # 1bd54 <memcpy>
   18e80:	6505                	lui	a0,0x1
   18e82:	35c50513          	addi	a0,a0,860 # 135c <.Lline_table_start1+0x1131>
   18e86:	950a                	add	a0,a0,sp
   18e88:	052c                	addi	a1,sp,648
   18e8a:	ffffe097          	auipc	ra,0xffffe
   18e8e:	460080e7          	jalr	1120(ra) # 172ea <_ZN18complex_no_dynamic3app17hebc51c17090029cfE>
   18e92:	398b4503          	lbu	a0,920(s6)
   18e96:	c119                	beqz	a0,18e9c <_start+0x10b4>
   18e98:	5b70206f          	j	1bc4e <_start+0x3e66>
   18e9c:	39ab4503          	lbu	a0,922(s6)
   18ea0:	399b4583          	lbu	a1,921(s6)
   18ea4:	39bb4603          	lbu	a2,923(s6)
   18ea8:	39cb2403          	lw	s0,924(s6)
   18eac:	0522                	slli	a0,a0,0x8
   18eae:	8d4d                	or	a0,a0,a1
   18eb0:	2aa11e23          	sh	a0,700(sp)
   18eb4:	2ac10f23          	sb	a2,702(sp)
   18eb8:	6505                	lui	a0,0x1
   18eba:	36450513          	addi	a0,a0,868 # 1364 <.Lline_table_start1+0x1139>
   18ebe:	00a105b3          	add	a1,sp,a0
   18ec2:	454d                	li	a0,19
   18ec4:	0522                	slli	a0,a0,0x8
   18ec6:	950a                	add	a0,a0,sp
   18ec8:	02700613          	li	a2,39
   18ecc:	00003097          	auipc	ra,0x3
   18ed0:	e88080e7          	jalr	-376(ra) # 1bd54 <memcpy>
   18ed4:	01845513          	srli	a0,s0,0x18
   18ed8:	01045593          	srli	a1,s0,0x10
   18edc:	00845613          	srli	a2,s0,0x8
   18ee0:	2a810fa3          	sb	s0,703(sp)
   18ee4:	2cc10023          	sb	a2,704(sp)
   18ee8:	2cb100a3          	sb	a1,705(sp)
   18eec:	2ca10123          	sb	a0,706(sp)
   18ef0:	2c310513          	addi	a0,sp,707
   18ef4:	45cd                	li	a1,19
   18ef6:	05a2                	slli	a1,a1,0x8
   18ef8:	958a                	add	a1,a1,sp
   18efa:	02700613          	li	a2,39
   18efe:	00003097          	auipc	ra,0x3
   18f02:	e56080e7          	jalr	-426(ra) # 1bd54 <memcpy>
   18f06:	6505                	lui	a0,0x1
   18f08:	35c50513          	addi	a0,a0,860 # 135c <.Lline_table_start1+0x1131>
   18f0c:	950a                	add	a0,a0,sp
   18f0e:	1d6c                	addi	a1,sp,700
   18f10:	ffffe097          	auipc	ra,0xffffe
   18f14:	a7c080e7          	jalr	-1412(ra) # 1698c <_ZN18complex_no_dynamic3app17hc9559dd8524d1fd3E>
   18f18:	398b4503          	lbu	a0,920(s6)
   18f1c:	c119                	beqz	a0,18f22 <_start+0x113a>
   18f1e:	5310206f          	j	1bc4e <_start+0x3e66>
   18f22:	39ab4503          	lbu	a0,922(s6)
   18f26:	399b4583          	lbu	a1,921(s6)
   18f2a:	39bb4603          	lbu	a2,923(s6)
   18f2e:	39cb2403          	lw	s0,924(s6)
   18f32:	0522                	slli	a0,a0,0x8
   18f34:	8d4d                	or	a0,a0,a1
   18f36:	2ea11523          	sh	a0,746(sp)
   18f3a:	2ec10623          	sb	a2,748(sp)
   18f3e:	6505                	lui	a0,0x1
   18f40:	36450513          	addi	a0,a0,868 # 1364 <.Lline_table_start1+0x1139>
   18f44:	00a105b3          	add	a1,sp,a0
   18f48:	454d                	li	a0,19
   18f4a:	0522                	slli	a0,a0,0x8
   18f4c:	950a                	add	a0,a0,sp
   18f4e:	03100613          	li	a2,49
   18f52:	00003097          	auipc	ra,0x3
   18f56:	e02080e7          	jalr	-510(ra) # 1bd54 <memcpy>
   18f5a:	01845513          	srli	a0,s0,0x18
   18f5e:	01045593          	srli	a1,s0,0x10
   18f62:	00845613          	srli	a2,s0,0x8
   18f66:	2e8106a3          	sb	s0,749(sp)
   18f6a:	2ec10723          	sb	a2,750(sp)
   18f6e:	2eb107a3          	sb	a1,751(sp)
   18f72:	2ea10823          	sb	a0,752(sp)
   18f76:	2f110513          	addi	a0,sp,753
   18f7a:	45cd                	li	a1,19
   18f7c:	05a2                	slli	a1,a1,0x8
   18f7e:	958a                	add	a1,a1,sp
   18f80:	03100613          	li	a2,49
   18f84:	00003097          	auipc	ra,0x3
   18f88:	dd0080e7          	jalr	-560(ra) # 1bd54 <memcpy>
   18f8c:	6505                	lui	a0,0x1
   18f8e:	35c50513          	addi	a0,a0,860 # 135c <.Lline_table_start1+0x1131>
   18f92:	950a                	add	a0,a0,sp
   18f94:	2ea10593          	addi	a1,sp,746
   18f98:	ffffe097          	auipc	ra,0xffffe
   18f9c:	c5e080e7          	jalr	-930(ra) # 16bf6 <_ZN18complex_no_dynamic3app17hcf74492623506c5cE>
   18fa0:	398b4503          	lbu	a0,920(s6)
   18fa4:	c119                	beqz	a0,18faa <_start+0x11c2>
   18fa6:	4a90206f          	j	1bc4e <_start+0x3e66>
   18faa:	39ab4503          	lbu	a0,922(s6)
   18fae:	399b4583          	lbu	a1,921(s6)
   18fb2:	39bb4603          	lbu	a2,923(s6)
   18fb6:	39cb2403          	lw	s0,924(s6)
   18fba:	0522                	slli	a0,a0,0x8
   18fbc:	8d4d                	or	a0,a0,a1
   18fbe:	32a11123          	sh	a0,802(sp)
   18fc2:	32c10223          	sb	a2,804(sp)
   18fc6:	6505                	lui	a0,0x1
   18fc8:	36450513          	addi	a0,a0,868 # 1364 <.Lline_table_start1+0x1139>
   18fcc:	00a105b3          	add	a1,sp,a0
   18fd0:	454d                	li	a0,19
   18fd2:	0522                	slli	a0,a0,0x8
   18fd4:	950a                	add	a0,a0,sp
   18fd6:	02d00613          	li	a2,45
   18fda:	00003097          	auipc	ra,0x3
   18fde:	d7a080e7          	jalr	-646(ra) # 1bd54 <memcpy>
   18fe2:	01845513          	srli	a0,s0,0x18
   18fe6:	01045593          	srli	a1,s0,0x10
   18fea:	00845613          	srli	a2,s0,0x8
   18fee:	328102a3          	sb	s0,805(sp)
   18ff2:	32c10323          	sb	a2,806(sp)
   18ff6:	32b103a3          	sb	a1,807(sp)
   18ffa:	32a10423          	sb	a0,808(sp)
   18ffe:	32910513          	addi	a0,sp,809
   19002:	45cd                	li	a1,19
   19004:	05a2                	slli	a1,a1,0x8
   19006:	958a                	add	a1,a1,sp
   19008:	02d00613          	li	a2,45
   1900c:	00003097          	auipc	ra,0x3
   19010:	d48080e7          	jalr	-696(ra) # 1bd54 <memcpy>
   19014:	6505                	lui	a0,0x1
   19016:	35c50513          	addi	a0,a0,860 # 135c <.Lline_table_start1+0x1131>
   1901a:	950a                	add	a0,a0,sp
   1901c:	32210593          	addi	a1,sp,802
   19020:	ffffb097          	auipc	ra,0xffffb
   19024:	14a080e7          	jalr	330(ra) # 1416a <_ZN18complex_no_dynamic3app17h569a846e308d6fc1E>
   19028:	398b4503          	lbu	a0,920(s6)
   1902c:	c119                	beqz	a0,19032 <_start+0x124a>
   1902e:	4210206f          	j	1bc4e <_start+0x3e66>
   19032:	399b4503          	lbu	a0,921(s6)
   19036:	39ab4583          	lbu	a1,922(s6)
   1903a:	3a0b2603          	lw	a2,928(s6)
   1903e:	3a4b2683          	lw	a3,932(s6)
   19042:	3a8b2703          	lw	a4,936(s6)
   19046:	3acb2783          	lw	a5,940(s6)
   1904a:	3b0b1483          	lh	s1,944(s6)
   1904e:	3b2b4403          	lbu	s0,946(s6)
   19052:	32cb2e23          	sw	a2,828(s6)
   19056:	34db2023          	sw	a3,832(s6)
   1905a:	34eb2223          	sw	a4,836(s6)
   1905e:	34fb2423          	sw	a5,840(s6)
   19062:	39bb4603          	lbu	a2,923(s6)
   19066:	39cb2683          	lw	a3,924(s6)
   1906a:	05a2                	slli	a1,a1,0x8
   1906c:	349b1623          	sh	s1,844(s6)
   19070:	348b0723          	sb	s0,846(s6)
   19074:	0186d713          	srli	a4,a3,0x18
   19078:	8d4d                	or	a0,a0,a1
   1907a:	0106d593          	srli	a1,a3,0x10
   1907e:	34b10da3          	sb	a1,859(sp)
   19082:	34e10e23          	sb	a4,860(sp)
   19086:	0086d593          	srli	a1,a3,0x8
   1908a:	34a11b23          	sh	a0,854(sp)
   1908e:	34c10c23          	sb	a2,856(sp)
   19092:	34d10ca3          	sb	a3,857(sp)
   19096:	34b10d23          	sb	a1,858(sp)
   1909a:	35d10513          	addi	a0,sp,861
   1909e:	45cd                	li	a1,19
   190a0:	05a2                	slli	a1,a1,0x8
   190a2:	958a                	add	a1,a1,sp
   190a4:	464d                	li	a2,19
   190a6:	00003097          	auipc	ra,0x3
   190aa:	cae080e7          	jalr	-850(ra) # 1bd54 <memcpy>
   190ae:	6505                	lui	a0,0x1
   190b0:	35c50513          	addi	a0,a0,860 # 135c <.Lline_table_start1+0x1131>
   190b4:	950a                	add	a0,a0,sp
   190b6:	35610593          	addi	a1,sp,854
   190ba:	ffff9097          	auipc	ra,0xffff9
   190be:	24e080e7          	jalr	590(ra) # 12308 <_ZN18complex_no_dynamic3app17h2470d1a6c21a90d0E>
   190c2:	398b4503          	lbu	a0,920(s6)
   190c6:	c119                	beqz	a0,190cc <_start+0x12e4>
   190c8:	3870206f          	j	1bc4e <_start+0x3e66>
   190cc:	39ab4503          	lbu	a0,922(s6)
   190d0:	399b4583          	lbu	a1,921(s6)
   190d4:	39bb4603          	lbu	a2,923(s6)
   190d8:	39cb2403          	lw	s0,924(s6)
   190dc:	0522                	slli	a0,a0,0x8
   190de:	8d4d                	or	a0,a0,a1
   190e0:	36a11823          	sh	a0,880(sp)
   190e4:	36c10923          	sb	a2,882(sp)
   190e8:	6505                	lui	a0,0x1
   190ea:	36450513          	addi	a0,a0,868 # 1364 <.Lline_table_start1+0x1139>
   190ee:	00a105b3          	add	a1,sp,a0
   190f2:	454d                	li	a0,19
   190f4:	0522                	slli	a0,a0,0x8
   190f6:	950a                	add	a0,a0,sp
   190f8:	04900613          	li	a2,73
   190fc:	00003097          	auipc	ra,0x3
   19100:	c58080e7          	jalr	-936(ra) # 1bd54 <memcpy>
   19104:	01845513          	srli	a0,s0,0x18
   19108:	01045593          	srli	a1,s0,0x10
   1910c:	00845613          	srli	a2,s0,0x8
   19110:	368109a3          	sb	s0,883(sp)
   19114:	36c10a23          	sb	a2,884(sp)
   19118:	36b10aa3          	sb	a1,885(sp)
   1911c:	36a10b23          	sb	a0,886(sp)
   19120:	37710513          	addi	a0,sp,887
   19124:	45cd                	li	a1,19
   19126:	05a2                	slli	a1,a1,0x8
   19128:	958a                	add	a1,a1,sp
   1912a:	04900613          	li	a2,73
   1912e:	00003097          	auipc	ra,0x3
   19132:	c26080e7          	jalr	-986(ra) # 1bd54 <memcpy>
   19136:	6505                	lui	a0,0x1
   19138:	35c50513          	addi	a0,a0,860 # 135c <.Lline_table_start1+0x1131>
   1913c:	950a                	add	a0,a0,sp
   1913e:	1e8c                	addi	a1,sp,880
   19140:	ffff9097          	auipc	ra,0xffff9
   19144:	398080e7          	jalr	920(ra) # 124d8 <_ZN18complex_no_dynamic3app17h28375f79aab14c62E>
   19148:	398b4503          	lbu	a0,920(s6)
   1914c:	c119                	beqz	a0,19152 <_start+0x136a>
   1914e:	3010206f          	j	1bc4e <_start+0x3e66>
   19152:	39ab4503          	lbu	a0,922(s6)
   19156:	399b4583          	lbu	a1,921(s6)
   1915a:	39bb4603          	lbu	a2,923(s6)
   1915e:	39cb2403          	lw	s0,924(s6)
   19162:	0522                	slli	a0,a0,0x8
   19164:	8d4d                	or	a0,a0,a1
   19166:	3ca11023          	sh	a0,960(sp)
   1916a:	3cc10123          	sb	a2,962(sp)
   1916e:	6505                	lui	a0,0x1
   19170:	36450513          	addi	a0,a0,868 # 1364 <.Lline_table_start1+0x1139>
   19174:	00a105b3          	add	a1,sp,a0
   19178:	454d                	li	a0,19
   1917a:	0522                	slli	a0,a0,0x8
   1917c:	950a                	add	a0,a0,sp
   1917e:	03500613          	li	a2,53
   19182:	00003097          	auipc	ra,0x3
   19186:	bd2080e7          	jalr	-1070(ra) # 1bd54 <memcpy>
   1918a:	01845513          	srli	a0,s0,0x18
   1918e:	01045593          	srli	a1,s0,0x10
   19192:	00845613          	srli	a2,s0,0x8
   19196:	3c8101a3          	sb	s0,963(sp)
   1919a:	3cc10223          	sb	a2,964(sp)
   1919e:	3cb102a3          	sb	a1,965(sp)
   191a2:	3ca10323          	sb	a0,966(sp)
   191a6:	3c710513          	addi	a0,sp,967
   191aa:	45cd                	li	a1,19
   191ac:	05a2                	slli	a1,a1,0x8
   191ae:	958a                	add	a1,a1,sp
   191b0:	03500613          	li	a2,53
   191b4:	00003097          	auipc	ra,0x3
   191b8:	ba0080e7          	jalr	-1120(ra) # 1bd54 <memcpy>
   191bc:	6505                	lui	a0,0x1
   191be:	35c50513          	addi	a0,a0,860 # 135c <.Lline_table_start1+0x1131>
   191c2:	950a                	add	a0,a0,sp
   191c4:	078c                	addi	a1,sp,960
   191c6:	ffffc097          	auipc	ra,0xffffc
   191ca:	628080e7          	jalr	1576(ra) # 157ee <_ZN18complex_no_dynamic3app17h94ab5b9dc32f1fe5E>
   191ce:	398b4503          	lbu	a0,920(s6)
   191d2:	c119                	beqz	a0,191d8 <_start+0x13f0>
   191d4:	27b0206f          	j	1bc4e <_start+0x3e66>
   191d8:	39ab4503          	lbu	a0,922(s6)
   191dc:	399b4583          	lbu	a1,921(s6)
   191e0:	39bb4603          	lbu	a2,923(s6)
   191e4:	39cb2403          	lw	s0,924(s6)
   191e8:	0522                	slli	a0,a0,0x8
   191ea:	8d4d                	or	a0,a0,a1
   191ec:	3ea11e23          	sh	a0,1020(sp)
   191f0:	3ec10f23          	sb	a2,1022(sp)
   191f4:	6505                	lui	a0,0x1
   191f6:	36450513          	addi	a0,a0,868 # 1364 <.Lline_table_start1+0x1139>
   191fa:	00a105b3          	add	a1,sp,a0
   191fe:	454d                	li	a0,19
   19200:	0522                	slli	a0,a0,0x8
   19202:	950a                	add	a0,a0,sp
   19204:	02b00613          	li	a2,43
   19208:	00003097          	auipc	ra,0x3
   1920c:	b4c080e7          	jalr	-1204(ra) # 1bd54 <memcpy>
   19210:	01845513          	srli	a0,s0,0x18
   19214:	01045593          	srli	a1,s0,0x10
   19218:	00845613          	srli	a2,s0,0x8
   1921c:	3e810fa3          	sb	s0,1023(sp)
   19220:	40c10023          	sb	a2,1024(sp)
   19224:	40b100a3          	sb	a1,1025(sp)
   19228:	40a10123          	sb	a0,1026(sp)
   1922c:	40310513          	addi	a0,sp,1027
   19230:	45cd                	li	a1,19
   19232:	05a2                	slli	a1,a1,0x8
   19234:	958a                	add	a1,a1,sp
   19236:	02b00613          	li	a2,43
   1923a:	00003097          	auipc	ra,0x3
   1923e:	b1a080e7          	jalr	-1254(ra) # 1bd54 <memcpy>
   19242:	6505                	lui	a0,0x1
   19244:	35c50513          	addi	a0,a0,860 # 135c <.Lline_table_start1+0x1131>
   19248:	950a                	add	a0,a0,sp
   1924a:	1fec                	addi	a1,sp,1020
   1924c:	ffff9097          	auipc	ra,0xffff9
   19250:	be8080e7          	jalr	-1048(ra) # 11e34 <_ZN18complex_no_dynamic3app17h1b0b3264ac2c84fbE>
   19254:	398b4503          	lbu	a0,920(s6)
   19258:	c119                	beqz	a0,1925e <_start+0x1476>
   1925a:	1f50206f          	j	1bc4e <_start+0x3e66>
   1925e:	39ab4503          	lbu	a0,922(s6)
   19262:	399b4583          	lbu	a1,921(s6)
   19266:	39bb4603          	lbu	a2,923(s6)
   1926a:	39cb2403          	lw	s0,924(s6)
   1926e:	0522                	slli	a0,a0,0x8
   19270:	8d4d                	or	a0,a0,a1
   19272:	42a11723          	sh	a0,1070(sp)
   19276:	42c10823          	sb	a2,1072(sp)
   1927a:	6505                	lui	a0,0x1
   1927c:	36450513          	addi	a0,a0,868 # 1364 <.Lline_table_start1+0x1139>
   19280:	00a105b3          	add	a1,sp,a0
   19284:	454d                	li	a0,19
   19286:	0522                	slli	a0,a0,0x8
   19288:	950a                	add	a0,a0,sp
   1928a:	02b00613          	li	a2,43
   1928e:	00003097          	auipc	ra,0x3
   19292:	ac6080e7          	jalr	-1338(ra) # 1bd54 <memcpy>
   19296:	01845513          	srli	a0,s0,0x18
   1929a:	01045593          	srli	a1,s0,0x10
   1929e:	00845613          	srli	a2,s0,0x8
   192a2:	428108a3          	sb	s0,1073(sp)
   192a6:	42c10923          	sb	a2,1074(sp)
   192aa:	42b109a3          	sb	a1,1075(sp)
   192ae:	42a10a23          	sb	a0,1076(sp)
   192b2:	43510513          	addi	a0,sp,1077
   192b6:	45cd                	li	a1,19
   192b8:	05a2                	slli	a1,a1,0x8
   192ba:	958a                	add	a1,a1,sp
   192bc:	02b00613          	li	a2,43
   192c0:	00003097          	auipc	ra,0x3
   192c4:	a94080e7          	jalr	-1388(ra) # 1bd54 <memcpy>
   192c8:	6505                	lui	a0,0x1
   192ca:	35c50513          	addi	a0,a0,860 # 135c <.Lline_table_start1+0x1131>
   192ce:	950a                	add	a0,a0,sp
   192d0:	42e10593          	addi	a1,sp,1070
   192d4:	ffffa097          	auipc	ra,0xffffa
   192d8:	0e6080e7          	jalr	230(ra) # 133ba <_ZN18complex_no_dynamic3app17h421cb4e871388735E>
   192dc:	398b4503          	lbu	a0,920(s6)
   192e0:	c119                	beqz	a0,192e6 <_start+0x14fe>
   192e2:	16d0206f          	j	1bc4e <_start+0x3e66>
   192e6:	399b4503          	lbu	a0,921(s6)
   192ea:	39ab4583          	lbu	a1,922(s6)
   192ee:	39bb4603          	lbu	a2,923(s6)
   192f2:	39cb2683          	lw	a3,924(s6)
   192f6:	3a0b2703          	lw	a4,928(s6)
   192fa:	3a4b2783          	lw	a5,932(s6)
   192fe:	3a8b4483          	lbu	s1,936(s6)
   19302:	05a2                	slli	a1,a1,0x8
   19304:	32eb2e23          	sw	a4,828(s6)
   19308:	34fb2023          	sw	a5,832(s6)
   1930c:	349b0223          	sb	s1,836(s6)
   19310:	0186d713          	srli	a4,a3,0x18
   19314:	8d4d                	or	a0,a0,a1
   19316:	0106d593          	srli	a1,a3,0x10
   1931a:	46b102a3          	sb	a1,1125(sp)
   1931e:	46e10323          	sb	a4,1126(sp)
   19322:	0086d593          	srli	a1,a3,0x8
   19326:	46a11023          	sh	a0,1120(sp)
   1932a:	46c10123          	sb	a2,1122(sp)
   1932e:	46d101a3          	sb	a3,1123(sp)
   19332:	46b10223          	sb	a1,1124(sp)
   19336:	46710513          	addi	a0,sp,1127
   1933a:	45cd                	li	a1,19
   1933c:	05a2                	slli	a1,a1,0x8
   1933e:	958a                	add	a1,a1,sp
   19340:	4625                	li	a2,9
   19342:	00003097          	auipc	ra,0x3
   19346:	a12080e7          	jalr	-1518(ra) # 1bd54 <memcpy>
   1934a:	6505                	lui	a0,0x1
   1934c:	35c50513          	addi	a0,a0,860 # 135c <.Lline_table_start1+0x1131>
   19350:	950a                	add	a0,a0,sp
   19352:	46010593          	addi	a1,sp,1120
   19356:	ffffd097          	auipc	ra,0xffffd
   1935a:	3bc080e7          	jalr	956(ra) # 16712 <_ZN18complex_no_dynamic3app17hbf70334dade3baf1E>
   1935e:	398b4503          	lbu	a0,920(s6)
   19362:	c119                	beqz	a0,19368 <_start+0x1580>
   19364:	0eb0206f          	j	1bc4e <_start+0x3e66>
   19368:	39ab4503          	lbu	a0,922(s6)
   1936c:	399b4583          	lbu	a1,921(s6)
   19370:	39bb4603          	lbu	a2,923(s6)
   19374:	39cb2403          	lw	s0,924(s6)
   19378:	0522                	slli	a0,a0,0x8
   1937a:	8d4d                	or	a0,a0,a1
   1937c:	46a11823          	sh	a0,1136(sp)
   19380:	46c10923          	sb	a2,1138(sp)
   19384:	6505                	lui	a0,0x1
   19386:	36450513          	addi	a0,a0,868 # 1364 <.Lline_table_start1+0x1139>
   1938a:	00a105b3          	add	a1,sp,a0
   1938e:	454d                	li	a0,19
   19390:	0522                	slli	a0,a0,0x8
   19392:	950a                	add	a0,a0,sp
   19394:	02f00613          	li	a2,47
   19398:	00003097          	auipc	ra,0x3
   1939c:	9bc080e7          	jalr	-1604(ra) # 1bd54 <memcpy>
   193a0:	01845513          	srli	a0,s0,0x18
   193a4:	01045593          	srli	a1,s0,0x10
   193a8:	00845613          	srli	a2,s0,0x8
   193ac:	468109a3          	sb	s0,1139(sp)
   193b0:	46c10a23          	sb	a2,1140(sp)
   193b4:	46b10aa3          	sb	a1,1141(sp)
   193b8:	46a10b23          	sb	a0,1142(sp)
   193bc:	47710513          	addi	a0,sp,1143
   193c0:	45cd                	li	a1,19
   193c2:	05a2                	slli	a1,a1,0x8
   193c4:	958a                	add	a1,a1,sp
   193c6:	02f00613          	li	a2,47
   193ca:	00003097          	auipc	ra,0x3
   193ce:	98a080e7          	jalr	-1654(ra) # 1bd54 <memcpy>
   193d2:	6505                	lui	a0,0x1
   193d4:	35c50513          	addi	a0,a0,860 # 135c <.Lline_table_start1+0x1131>
   193d8:	950a                	add	a0,a0,sp
   193da:	47010593          	addi	a1,sp,1136
   193de:	ffffe097          	auipc	ra,0xffffe
   193e2:	e14080e7          	jalr	-492(ra) # 171f2 <_ZN18complex_no_dynamic3app17heb17ccd091e032c3E>
   193e6:	398b4503          	lbu	a0,920(s6)
   193ea:	c119                	beqz	a0,193f0 <_start+0x1608>
   193ec:	0630206f          	j	1bc4e <_start+0x3e66>
   193f0:	399b4503          	lbu	a0,921(s6)
   193f4:	39ab4583          	lbu	a1,922(s6)
   193f8:	39bb4803          	lbu	a6,923(s6)
   193fc:	39cb2683          	lw	a3,924(s6)
   19400:	3a0b2703          	lw	a4,928(s6)
   19404:	3a4b2783          	lw	a5,932(s6)
   19408:	05a2                	slli	a1,a1,0x8
   1940a:	0186d893          	srli	a7,a3,0x18
   1940e:	0106d293          	srli	t0,a3,0x10
   19412:	0187d613          	srli	a2,a5,0x18
   19416:	0107d493          	srli	s1,a5,0x10
   1941a:	0087d413          	srli	s0,a5,0x8
   1941e:	8d4d                	or	a0,a0,a1
   19420:	01875593          	srli	a1,a4,0x18
   19424:	4a9109a3          	sb	s1,1203(sp)
   19428:	4ac10a23          	sb	a2,1204(sp)
   1942c:	01075613          	srli	a2,a4,0x10
   19430:	4ac107a3          	sb	a2,1199(sp)
   19434:	4ab10823          	sb	a1,1200(sp)
   19438:	4af108a3          	sb	a5,1201(sp)
   1943c:	4a810923          	sb	s0,1202(sp)
   19440:	0086d593          	srli	a1,a3,0x8
   19444:	4aa11323          	sh	a0,1190(sp)
   19448:	4b010423          	sb	a6,1192(sp)
   1944c:	4ad104a3          	sb	a3,1193(sp)
   19450:	4ab10523          	sb	a1,1194(sp)
   19454:	00875513          	srli	a0,a4,0x8
   19458:	4a5105a3          	sb	t0,1195(sp)
   1945c:	4b110623          	sb	a7,1196(sp)
   19460:	4ae106a3          	sb	a4,1197(sp)
   19464:	4aa10723          	sb	a0,1198(sp)
   19468:	6505                	lui	a0,0x1
   1946a:	35c50513          	addi	a0,a0,860 # 135c <.Lline_table_start1+0x1131>
   1946e:	950a                	add	a0,a0,sp
   19470:	4a610593          	addi	a1,sp,1190
   19474:	ffffc097          	auipc	ra,0xffffc
   19478:	47e080e7          	jalr	1150(ra) # 158f2 <_ZN18complex_no_dynamic3app17h9eb25b7da968066dE>
   1947c:	398b4503          	lbu	a0,920(s6)
   19480:	c119                	beqz	a0,19486 <_start+0x169e>
   19482:	7cc0206f          	j	1bc4e <_start+0x3e66>
   19486:	399b4503          	lbu	a0,921(s6)
   1948a:	39ab4583          	lbu	a1,922(s6)
   1948e:	39bb4603          	lbu	a2,923(s6)
   19492:	39cb2683          	lw	a3,924(s6)
   19496:	3a0b2703          	lw	a4,928(s6)
   1949a:	3a4b2783          	lw	a5,932(s6)
   1949e:	3a8b2483          	lw	s1,936(s6)
   194a2:	05a2                	slli	a1,a1,0x8
   194a4:	32eb2e23          	sw	a4,828(s6)
   194a8:	34fb2023          	sw	a5,832(s6)
   194ac:	349b2223          	sw	s1,836(s6)
   194b0:	0186d713          	srli	a4,a3,0x18
   194b4:	8d4d                	or	a0,a0,a1
   194b6:	0106d593          	srli	a1,a3,0x10
   194ba:	4ab10da3          	sb	a1,1211(sp)
   194be:	4ae10e23          	sb	a4,1212(sp)
   194c2:	0086d593          	srli	a1,a3,0x8
   194c6:	4aa11b23          	sh	a0,1206(sp)
   194ca:	4ac10c23          	sb	a2,1208(sp)
   194ce:	4ad10ca3          	sb	a3,1209(sp)
   194d2:	4ab10d23          	sb	a1,1210(sp)
   194d6:	4bd10513          	addi	a0,sp,1213
   194da:	45cd                	li	a1,19
   194dc:	05a2                	slli	a1,a1,0x8
   194de:	958a                	add	a1,a1,sp
   194e0:	4631                	li	a2,12
   194e2:	00003097          	auipc	ra,0x3
   194e6:	872080e7          	jalr	-1934(ra) # 1bd54 <memcpy>
   194ea:	6505                	lui	a0,0x1
   194ec:	35c50513          	addi	a0,a0,860 # 135c <.Lline_table_start1+0x1131>
   194f0:	950a                	add	a0,a0,sp
   194f2:	4b610593          	addi	a1,sp,1206
   194f6:	ffff8097          	auipc	ra,0xffff8
   194fa:	506080e7          	jalr	1286(ra) # 119fc <_ZN18complex_no_dynamic3app17h105b5d237bbddadfE>
   194fe:	398b4503          	lbu	a0,920(s6)
   19502:	c119                	beqz	a0,19508 <_start+0x1720>
   19504:	74a0206f          	j	1bc4e <_start+0x3e66>
   19508:	39ab4503          	lbu	a0,922(s6)
   1950c:	399b4583          	lbu	a1,921(s6)
   19510:	39bb4603          	lbu	a2,923(s6)
   19514:	39cb2403          	lw	s0,924(s6)
   19518:	0522                	slli	a0,a0,0x8
   1951a:	8d4d                	or	a0,a0,a1
   1951c:	4ca11523          	sh	a0,1226(sp)
   19520:	4cc10623          	sb	a2,1228(sp)
   19524:	6505                	lui	a0,0x1
   19526:	36450513          	addi	a0,a0,868 # 1364 <.Lline_table_start1+0x1139>
   1952a:	00a105b3          	add	a1,sp,a0
   1952e:	454d                	li	a0,19
   19530:	0522                	slli	a0,a0,0x8
   19532:	950a                	add	a0,a0,sp
   19534:	04e00613          	li	a2,78
   19538:	00003097          	auipc	ra,0x3
   1953c:	81c080e7          	jalr	-2020(ra) # 1bd54 <memcpy>
   19540:	01845513          	srli	a0,s0,0x18
   19544:	01045593          	srli	a1,s0,0x10
   19548:	00845613          	srli	a2,s0,0x8
   1954c:	4c8106a3          	sb	s0,1229(sp)
   19550:	4cc10723          	sb	a2,1230(sp)
   19554:	4cb107a3          	sb	a1,1231(sp)
   19558:	4ca10823          	sb	a0,1232(sp)
   1955c:	4d110513          	addi	a0,sp,1233
   19560:	45cd                	li	a1,19
   19562:	05a2                	slli	a1,a1,0x8
   19564:	958a                	add	a1,a1,sp
   19566:	04e00613          	li	a2,78
   1956a:	00002097          	auipc	ra,0x2
   1956e:	7ea080e7          	jalr	2026(ra) # 1bd54 <memcpy>
   19572:	6505                	lui	a0,0x1
   19574:	35c50513          	addi	a0,a0,860 # 135c <.Lline_table_start1+0x1131>
   19578:	950a                	add	a0,a0,sp
   1957a:	4ca10593          	addi	a1,sp,1226
   1957e:	ffffa097          	auipc	ra,0xffffa
   19582:	b40080e7          	jalr	-1216(ra) # 130be <_ZN18complex_no_dynamic3app17h3ff0d6f7a35d76f2E>
   19586:	398b4503          	lbu	a0,920(s6)
   1958a:	c119                	beqz	a0,19590 <_start+0x17a8>
   1958c:	6c20206f          	j	1bc4e <_start+0x3e66>
   19590:	39ab4503          	lbu	a0,922(s6)
   19594:	399b4583          	lbu	a1,921(s6)
   19598:	39bb4603          	lbu	a2,923(s6)
   1959c:	39cb2403          	lw	s0,924(s6)
   195a0:	0522                	slli	a0,a0,0x8
   195a2:	8d4d                	or	a0,a0,a1
   195a4:	52a11023          	sh	a0,1312(sp)
   195a8:	52c10123          	sb	a2,1314(sp)
   195ac:	6505                	lui	a0,0x1
   195ae:	36450513          	addi	a0,a0,868 # 1364 <.Lline_table_start1+0x1139>
   195b2:	00a105b3          	add	a1,sp,a0
   195b6:	454d                	li	a0,19
   195b8:	0522                	slli	a0,a0,0x8
   195ba:	950a                	add	a0,a0,sp
   195bc:	02b00613          	li	a2,43
   195c0:	00002097          	auipc	ra,0x2
   195c4:	794080e7          	jalr	1940(ra) # 1bd54 <memcpy>
   195c8:	01845513          	srli	a0,s0,0x18
   195cc:	01045593          	srli	a1,s0,0x10
   195d0:	00845613          	srli	a2,s0,0x8
   195d4:	528101a3          	sb	s0,1315(sp)
   195d8:	52c10223          	sb	a2,1316(sp)
   195dc:	52b102a3          	sb	a1,1317(sp)
   195e0:	52a10323          	sb	a0,1318(sp)
   195e4:	52710513          	addi	a0,sp,1319
   195e8:	45cd                	li	a1,19
   195ea:	05a2                	slli	a1,a1,0x8
   195ec:	958a                	add	a1,a1,sp
   195ee:	02b00613          	li	a2,43
   195f2:	00002097          	auipc	ra,0x2
   195f6:	762080e7          	jalr	1890(ra) # 1bd54 <memcpy>
   195fa:	6505                	lui	a0,0x1
   195fc:	35c50513          	addi	a0,a0,860 # 135c <.Lline_table_start1+0x1131>
   19600:	950a                	add	a0,a0,sp
   19602:	52010593          	addi	a1,sp,1312
   19606:	ffff8097          	auipc	ra,0xffff8
   1960a:	d1a080e7          	jalr	-742(ra) # 11320 <_ZN18complex_no_dynamic3app17h0437c19c6dcbfb11E>
   1960e:	398b4503          	lbu	a0,920(s6)
   19612:	c119                	beqz	a0,19618 <_start+0x1830>
   19614:	63a0206f          	j	1bc4e <_start+0x3e66>
   19618:	39ab4503          	lbu	a0,922(s6)
   1961c:	399b4583          	lbu	a1,921(s6)
   19620:	39bb4603          	lbu	a2,923(s6)
   19624:	39cb2403          	lw	s0,924(s6)
   19628:	0522                	slli	a0,a0,0x8
   1962a:	8d4d                	or	a0,a0,a1
   1962c:	54a11923          	sh	a0,1362(sp)
   19630:	54c10a23          	sb	a2,1364(sp)
   19634:	6505                	lui	a0,0x1
   19636:	36450513          	addi	a0,a0,868 # 1364 <.Lline_table_start1+0x1139>
   1963a:	00a105b3          	add	a1,sp,a0
   1963e:	454d                	li	a0,19
   19640:	0522                	slli	a0,a0,0x8
   19642:	950a                	add	a0,a0,sp
   19644:	03a00613          	li	a2,58
   19648:	00002097          	auipc	ra,0x2
   1964c:	70c080e7          	jalr	1804(ra) # 1bd54 <memcpy>
   19650:	01845513          	srli	a0,s0,0x18
   19654:	01045593          	srli	a1,s0,0x10
   19658:	00845613          	srli	a2,s0,0x8
   1965c:	54810aa3          	sb	s0,1365(sp)
   19660:	54c10b23          	sb	a2,1366(sp)
   19664:	54b10ba3          	sb	a1,1367(sp)
   19668:	54a10c23          	sb	a0,1368(sp)
   1966c:	55910513          	addi	a0,sp,1369
   19670:	45cd                	li	a1,19
   19672:	05a2                	slli	a1,a1,0x8
   19674:	958a                	add	a1,a1,sp
   19676:	03a00613          	li	a2,58
   1967a:	00002097          	auipc	ra,0x2
   1967e:	6da080e7          	jalr	1754(ra) # 1bd54 <memcpy>
   19682:	6505                	lui	a0,0x1
   19684:	35c50513          	addi	a0,a0,860 # 135c <.Lline_table_start1+0x1131>
   19688:	950a                	add	a0,a0,sp
   1968a:	55210593          	addi	a1,sp,1362
   1968e:	ffffc097          	auipc	ra,0xffffc
   19692:	8f4080e7          	jalr	-1804(ra) # 14f82 <_ZN18complex_no_dynamic3app17h77d92d8e500d8084E>
   19696:	398b4503          	lbu	a0,920(s6)
   1969a:	c119                	beqz	a0,196a0 <_start+0x18b8>
   1969c:	5b20206f          	j	1bc4e <_start+0x3e66>
   196a0:	399b4503          	lbu	a0,921(s6)
   196a4:	39ab4583          	lbu	a1,922(s6)
   196a8:	39bb4603          	lbu	a2,923(s6)
   196ac:	39cb2683          	lw	a3,924(s6)
   196b0:	3a0b2703          	lw	a4,928(s6)
   196b4:	3a4b2783          	lw	a5,932(s6)
   196b8:	3a8b2483          	lw	s1,936(s6)
   196bc:	3acb2403          	lw	s0,940(s6)
   196c0:	32eb2e23          	sw	a4,828(s6)
   196c4:	34fb2023          	sw	a5,832(s6)
   196c8:	349b2223          	sw	s1,836(s6)
   196cc:	348b2423          	sw	s0,840(s6)
   196d0:	3b0b2703          	lw	a4,944(s6)
   196d4:	3b4b2783          	lw	a5,948(s6)
   196d8:	3b8b1483          	lh	s1,952(s6)
   196dc:	3bab4403          	lbu	s0,954(s6)
   196e0:	05a2                	slli	a1,a1,0x8
   196e2:	34eb2623          	sw	a4,844(s6)
   196e6:	34fb2823          	sw	a5,848(s6)
   196ea:	349b1a23          	sh	s1,852(s6)
   196ee:	348b0b23          	sb	s0,854(s6)
   196f2:	0186d713          	srli	a4,a3,0x18
   196f6:	8d4d                	or	a0,a0,a1
   196f8:	0106d593          	srli	a1,a3,0x10
   196fc:	58b10ca3          	sb	a1,1433(sp)
   19700:	58e10d23          	sb	a4,1434(sp)
   19704:	0086d593          	srli	a1,a3,0x8
   19708:	58a11a23          	sh	a0,1428(sp)
   1970c:	58c10b23          	sb	a2,1430(sp)
   19710:	58d10ba3          	sb	a3,1431(sp)
   19714:	58b10c23          	sb	a1,1432(sp)
   19718:	59b10513          	addi	a0,sp,1435
   1971c:	45cd                	li	a1,19
   1971e:	05a2                	slli	a1,a1,0x8
   19720:	958a                	add	a1,a1,sp
   19722:	466d                	li	a2,27
   19724:	00002097          	auipc	ra,0x2
   19728:	630080e7          	jalr	1584(ra) # 1bd54 <memcpy>
   1972c:	6505                	lui	a0,0x1
   1972e:	35c50513          	addi	a0,a0,860 # 135c <.Lline_table_start1+0x1131>
   19732:	950a                	add	a0,a0,sp
   19734:	59410593          	addi	a1,sp,1428
   19738:	ffff8097          	auipc	ra,0xffff8
   1973c:	45c080e7          	jalr	1116(ra) # 11b94 <_ZN18complex_no_dynamic3app17h15b0edae025a02b8E>
   19740:	398b4503          	lbu	a0,920(s6)
   19744:	c119                	beqz	a0,1974a <_start+0x1962>
   19746:	5080206f          	j	1bc4e <_start+0x3e66>
   1974a:	39ab4503          	lbu	a0,922(s6)
   1974e:	399b4583          	lbu	a1,921(s6)
   19752:	39bb4603          	lbu	a2,923(s6)
   19756:	39cb2403          	lw	s0,924(s6)
   1975a:	0522                	slli	a0,a0,0x8
   1975c:	8d4d                	or	a0,a0,a1
   1975e:	5aa11b23          	sh	a0,1462(sp)
   19762:	5ac10c23          	sb	a2,1464(sp)
   19766:	6505                	lui	a0,0x1
   19768:	36450513          	addi	a0,a0,868 # 1364 <.Lline_table_start1+0x1139>
   1976c:	00a105b3          	add	a1,sp,a0
   19770:	454d                	li	a0,19
   19772:	0522                	slli	a0,a0,0x8
   19774:	950a                	add	a0,a0,sp
   19776:	04a00613          	li	a2,74
   1977a:	00002097          	auipc	ra,0x2
   1977e:	5da080e7          	jalr	1498(ra) # 1bd54 <memcpy>
   19782:	01845513          	srli	a0,s0,0x18
   19786:	01045593          	srli	a1,s0,0x10
   1978a:	00845613          	srli	a2,s0,0x8
   1978e:	5a810ca3          	sb	s0,1465(sp)
   19792:	5ac10d23          	sb	a2,1466(sp)
   19796:	5ab10da3          	sb	a1,1467(sp)
   1979a:	5aa10e23          	sb	a0,1468(sp)
   1979e:	5bd10513          	addi	a0,sp,1469
   197a2:	45cd                	li	a1,19
   197a4:	05a2                	slli	a1,a1,0x8
   197a6:	958a                	add	a1,a1,sp
   197a8:	04a00613          	li	a2,74
   197ac:	00002097          	auipc	ra,0x2
   197b0:	5a8080e7          	jalr	1448(ra) # 1bd54 <memcpy>
   197b4:	6505                	lui	a0,0x1
   197b6:	35c50513          	addi	a0,a0,860 # 135c <.Lline_table_start1+0x1131>
   197ba:	950a                	add	a0,a0,sp
   197bc:	5b610593          	addi	a1,sp,1462
   197c0:	ffffc097          	auipc	ra,0xffffc
   197c4:	5f4080e7          	jalr	1524(ra) # 15db4 <_ZN18complex_no_dynamic3app17haa019940f2eb7162E>
   197c8:	398b4503          	lbu	a0,920(s6)
   197cc:	c119                	beqz	a0,197d2 <_start+0x19ea>
   197ce:	4800206f          	j	1bc4e <_start+0x3e66>
   197d2:	39ab4503          	lbu	a0,922(s6)
   197d6:	399b4583          	lbu	a1,921(s6)
   197da:	39bb4603          	lbu	a2,923(s6)
   197de:	39cb2403          	lw	s0,924(s6)
   197e2:	0522                	slli	a0,a0,0x8
   197e4:	8d4d                	or	a0,a0,a1
   197e6:	60a11423          	sh	a0,1544(sp)
   197ea:	60c10523          	sb	a2,1546(sp)
   197ee:	6505                	lui	a0,0x1
   197f0:	36450513          	addi	a0,a0,868 # 1364 <.Lline_table_start1+0x1139>
   197f4:	00a105b3          	add	a1,sp,a0
   197f8:	454d                	li	a0,19
   197fa:	0522                	slli	a0,a0,0x8
   197fc:	950a                	add	a0,a0,sp
   197fe:	04800613          	li	a2,72
   19802:	00002097          	auipc	ra,0x2
   19806:	552080e7          	jalr	1362(ra) # 1bd54 <memcpy>
   1980a:	01845513          	srli	a0,s0,0x18
   1980e:	01045593          	srli	a1,s0,0x10
   19812:	00845613          	srli	a2,s0,0x8
   19816:	608105a3          	sb	s0,1547(sp)
   1981a:	60c10623          	sb	a2,1548(sp)
   1981e:	60b106a3          	sb	a1,1549(sp)
   19822:	60a10723          	sb	a0,1550(sp)
   19826:	60f10513          	addi	a0,sp,1551
   1982a:	45cd                	li	a1,19
   1982c:	05a2                	slli	a1,a1,0x8
   1982e:	958a                	add	a1,a1,sp
   19830:	04800613          	li	a2,72
   19834:	00002097          	auipc	ra,0x2
   19838:	520080e7          	jalr	1312(ra) # 1bd54 <memcpy>
   1983c:	6505                	lui	a0,0x1
   1983e:	35c50513          	addi	a0,a0,860 # 135c <.Lline_table_start1+0x1131>
   19842:	950a                	add	a0,a0,sp
   19844:	60810593          	addi	a1,sp,1544
   19848:	ffffa097          	auipc	ra,0xffffa
   1984c:	2ac080e7          	jalr	684(ra) # 13af4 <_ZN18complex_no_dynamic3app17h486f8e41689b481dE>
   19850:	398b4503          	lbu	a0,920(s6)
   19854:	c119                	beqz	a0,1985a <_start+0x1a72>
   19856:	3f80206f          	j	1bc4e <_start+0x3e66>
   1985a:	39ab4503          	lbu	a0,922(s6)
   1985e:	399b4583          	lbu	a1,921(s6)
   19862:	39bb4603          	lbu	a2,923(s6)
   19866:	39cb2403          	lw	s0,924(s6)
   1986a:	0522                	slli	a0,a0,0x8
   1986c:	8d4d                	or	a0,a0,a1
   1986e:	64a11c23          	sh	a0,1624(sp)
   19872:	64c10d23          	sb	a2,1626(sp)
   19876:	6505                	lui	a0,0x1
   19878:	36450513          	addi	a0,a0,868 # 1364 <.Lline_table_start1+0x1139>
   1987c:	00a105b3          	add	a1,sp,a0
   19880:	454d                	li	a0,19
   19882:	0522                	slli	a0,a0,0x8
   19884:	950a                	add	a0,a0,sp
   19886:	03400613          	li	a2,52
   1988a:	00002097          	auipc	ra,0x2
   1988e:	4ca080e7          	jalr	1226(ra) # 1bd54 <memcpy>
   19892:	01845513          	srli	a0,s0,0x18
   19896:	01045593          	srli	a1,s0,0x10
   1989a:	00845613          	srli	a2,s0,0x8
   1989e:	64810da3          	sb	s0,1627(sp)
   198a2:	64c10e23          	sb	a2,1628(sp)
   198a6:	64b10ea3          	sb	a1,1629(sp)
   198aa:	64a10f23          	sb	a0,1630(sp)
   198ae:	65f10513          	addi	a0,sp,1631
   198b2:	45cd                	li	a1,19
   198b4:	05a2                	slli	a1,a1,0x8
   198b6:	958a                	add	a1,a1,sp
   198b8:	03400613          	li	a2,52
   198bc:	00002097          	auipc	ra,0x2
   198c0:	498080e7          	jalr	1176(ra) # 1bd54 <memcpy>
   198c4:	6505                	lui	a0,0x1
   198c6:	35c50513          	addi	a0,a0,860 # 135c <.Lline_table_start1+0x1131>
   198ca:	950a                	add	a0,a0,sp
   198cc:	65810593          	addi	a1,sp,1624
   198d0:	ffff9097          	auipc	ra,0xffff9
   198d4:	f02080e7          	jalr	-254(ra) # 127d2 <_ZN18complex_no_dynamic3app17h29199432b58f7834E>
   198d8:	398b4503          	lbu	a0,920(s6)
   198dc:	c119                	beqz	a0,198e2 <_start+0x1afa>
   198de:	3700206f          	j	1bc4e <_start+0x3e66>
   198e2:	399b4503          	lbu	a0,921(s6)
   198e6:	39ab4583          	lbu	a1,922(s6)
   198ea:	39bb4603          	lbu	a2,923(s6)
   198ee:	39cb2683          	lw	a3,924(s6)
   198f2:	3a0b2703          	lw	a4,928(s6)
   198f6:	3a4b2783          	lw	a5,932(s6)
   198fa:	3a8b2483          	lw	s1,936(s6)
   198fe:	3acb2403          	lw	s0,940(s6)
   19902:	32eb2e23          	sw	a4,828(s6)
   19906:	34fb2023          	sw	a5,832(s6)
   1990a:	349b2223          	sw	s1,836(s6)
   1990e:	348b2423          	sw	s0,840(s6)
   19912:	3b0b2703          	lw	a4,944(s6)
   19916:	3b4b2783          	lw	a5,948(s6)
   1991a:	3b8b2483          	lw	s1,952(s6)
   1991e:	3bcb2403          	lw	s0,956(s6)
   19922:	05a2                	slli	a1,a1,0x8
   19924:	34eb2623          	sw	a4,844(s6)
   19928:	34fb2823          	sw	a5,848(s6)
   1992c:	349b2a23          	sw	s1,852(s6)
   19930:	348b2c23          	sw	s0,856(s6)
   19934:	0186d713          	srli	a4,a3,0x18
   19938:	8d4d                	or	a0,a0,a1
   1993a:	0106d593          	srli	a1,a3,0x10
   1993e:	68b10ca3          	sb	a1,1689(sp)
   19942:	68e10d23          	sb	a4,1690(sp)
   19946:	0086d593          	srli	a1,a3,0x8
   1994a:	68a11a23          	sh	a0,1684(sp)
   1994e:	68c10b23          	sb	a2,1686(sp)
   19952:	68d10ba3          	sb	a3,1687(sp)
   19956:	68b10c23          	sb	a1,1688(sp)
   1995a:	69b10513          	addi	a0,sp,1691
   1995e:	45cd                	li	a1,19
   19960:	05a2                	slli	a1,a1,0x8
   19962:	958a                	add	a1,a1,sp
   19964:	02000613          	li	a2,32
   19968:	00002097          	auipc	ra,0x2
   1996c:	3ec080e7          	jalr	1004(ra) # 1bd54 <memcpy>
   19970:	6505                	lui	a0,0x1
   19972:	35c50513          	addi	a0,a0,860 # 135c <.Lline_table_start1+0x1131>
   19976:	950a                	add	a0,a0,sp
   19978:	69410593          	addi	a1,sp,1684
   1997c:	ffffd097          	auipc	ra,0xffffd
   19980:	9aa080e7          	jalr	-1622(ra) # 16326 <_ZN18complex_no_dynamic3app17hb4edb7dcf1e1beffE>
   19984:	398b4503          	lbu	a0,920(s6)
   19988:	c119                	beqz	a0,1998e <_start+0x1ba6>
   1998a:	2c40206f          	j	1bc4e <_start+0x3e66>
   1998e:	399b4503          	lbu	a0,921(s6)
   19992:	39ab4583          	lbu	a1,922(s6)
   19996:	39bb4603          	lbu	a2,923(s6)
   1999a:	39cb2683          	lw	a3,924(s6)
   1999e:	3a0b2703          	lw	a4,928(s6)
   199a2:	3a4b2783          	lw	a5,932(s6)
   199a6:	3a8b2483          	lw	s1,936(s6)
   199aa:	3acb4403          	lbu	s0,940(s6)
   199ae:	05a2                	slli	a1,a1,0x8
   199b0:	32eb2e23          	sw	a4,828(s6)
   199b4:	34fb2023          	sw	a5,832(s6)
   199b8:	349b2223          	sw	s1,836(s6)
   199bc:	348b0423          	sb	s0,840(s6)
   199c0:	0186d713          	srli	a4,a3,0x18
   199c4:	8d4d                	or	a0,a0,a1
   199c6:	0106d593          	srli	a1,a3,0x10
   199ca:	6cb100a3          	sb	a1,1729(sp)
   199ce:	6ce10123          	sb	a4,1730(sp)
   199d2:	0086d593          	srli	a1,a3,0x8
   199d6:	6aa11e23          	sh	a0,1724(sp)
   199da:	6ac10f23          	sb	a2,1726(sp)
   199de:	6ad10fa3          	sb	a3,1727(sp)
   199e2:	6cb10023          	sb	a1,1728(sp)
   199e6:	6c310513          	addi	a0,sp,1731
   199ea:	45cd                	li	a1,19
   199ec:	05a2                	slli	a1,a1,0x8
   199ee:	958a                	add	a1,a1,sp
   199f0:	4635                	li	a2,13
   199f2:	00002097          	auipc	ra,0x2
   199f6:	362080e7          	jalr	866(ra) # 1bd54 <memcpy>
   199fa:	6505                	lui	a0,0x1
   199fc:	35c50513          	addi	a0,a0,860 # 135c <.Lline_table_start1+0x1131>
   19a00:	950a                	add	a0,a0,sp
   19a02:	6bc10593          	addi	a1,sp,1724
   19a06:	ffff8097          	auipc	ra,0xffff8
   19a0a:	292080e7          	jalr	658(ra) # 11c98 <_ZN18complex_no_dynamic3app17h16237b8448dcd48dE>
   19a0e:	398b4503          	lbu	a0,920(s6)
   19a12:	c119                	beqz	a0,19a18 <_start+0x1c30>
   19a14:	23a0206f          	j	1bc4e <_start+0x3e66>
   19a18:	39ab4503          	lbu	a0,922(s6)
   19a1c:	399b4583          	lbu	a1,921(s6)
   19a20:	39bb4603          	lbu	a2,923(s6)
   19a24:	39cb2403          	lw	s0,924(s6)
   19a28:	0522                	slli	a0,a0,0x8
   19a2a:	8d4d                	or	a0,a0,a1
   19a2c:	6ca11823          	sh	a0,1744(sp)
   19a30:	6cc10923          	sb	a2,1746(sp)
   19a34:	6505                	lui	a0,0x1
   19a36:	36450513          	addi	a0,a0,868 # 1364 <.Lline_table_start1+0x1139>
   19a3a:	00a105b3          	add	a1,sp,a0
   19a3e:	454d                	li	a0,19
   19a40:	0522                	slli	a0,a0,0x8
   19a42:	950a                	add	a0,a0,sp
   19a44:	02400613          	li	a2,36
   19a48:	00002097          	auipc	ra,0x2
   19a4c:	30c080e7          	jalr	780(ra) # 1bd54 <memcpy>
   19a50:	01845513          	srli	a0,s0,0x18
   19a54:	01045593          	srli	a1,s0,0x10
   19a58:	00845613          	srli	a2,s0,0x8
   19a5c:	6c8109a3          	sb	s0,1747(sp)
   19a60:	6cc10a23          	sb	a2,1748(sp)
   19a64:	6cb10aa3          	sb	a1,1749(sp)
   19a68:	6ca10b23          	sb	a0,1750(sp)
   19a6c:	6d710513          	addi	a0,sp,1751
   19a70:	45cd                	li	a1,19
   19a72:	05a2                	slli	a1,a1,0x8
   19a74:	958a                	add	a1,a1,sp
   19a76:	02400613          	li	a2,36
   19a7a:	00002097          	auipc	ra,0x2
   19a7e:	2da080e7          	jalr	730(ra) # 1bd54 <memcpy>
   19a82:	6505                	lui	a0,0x1
   19a84:	35c50513          	addi	a0,a0,860 # 135c <.Lline_table_start1+0x1131>
   19a88:	950a                	add	a0,a0,sp
   19a8a:	6d010593          	addi	a1,sp,1744
   19a8e:	ffffe097          	auipc	ra,0xffffe
   19a92:	d72080e7          	jalr	-654(ra) # 17800 <_ZN18complex_no_dynamic3app17hfc542869ddd2b2d1E>
   19a96:	398b4503          	lbu	a0,920(s6)
   19a9a:	c119                	beqz	a0,19aa0 <_start+0x1cb8>
   19a9c:	1b20206f          	j	1bc4e <_start+0x3e66>
   19aa0:	399b4503          	lbu	a0,921(s6)
   19aa4:	39ab4583          	lbu	a1,922(s6)
   19aa8:	39bb4603          	lbu	a2,923(s6)
   19aac:	39cb2683          	lw	a3,924(s6)
   19ab0:	3a0b2703          	lw	a4,928(s6)
   19ab4:	3a4b2783          	lw	a5,932(s6)
   19ab8:	3a8b2483          	lw	s1,936(s6)
   19abc:	3acb2403          	lw	s0,940(s6)
   19ac0:	32eb2e23          	sw	a4,828(s6)
   19ac4:	34fb2023          	sw	a5,832(s6)
   19ac8:	349b2223          	sw	s1,836(s6)
   19acc:	348b2423          	sw	s0,840(s6)
   19ad0:	3b0b2703          	lw	a4,944(s6)
   19ad4:	3b4b1783          	lh	a5,948(s6)
   19ad8:	3b6b4483          	lbu	s1,950(s6)
   19adc:	05a2                	slli	a1,a1,0x8
   19ade:	34eb2623          	sw	a4,844(s6)
   19ae2:	34fb1823          	sh	a5,848(s6)
   19ae6:	349b0923          	sb	s1,850(s6)
   19aea:	0186d713          	srli	a4,a3,0x18
   19aee:	8d4d                	or	a0,a0,a1
   19af0:	0106d593          	srli	a1,a3,0x10
   19af4:	70b100a3          	sb	a1,1793(sp)
   19af8:	70e10123          	sb	a4,1794(sp)
   19afc:	0086d593          	srli	a1,a3,0x8
   19b00:	6ea11e23          	sh	a0,1788(sp)
   19b04:	6ec10f23          	sb	a2,1790(sp)
   19b08:	6ed10fa3          	sb	a3,1791(sp)
   19b0c:	70b10023          	sb	a1,1792(sp)
   19b10:	70310513          	addi	a0,sp,1795
   19b14:	45cd                	li	a1,19
   19b16:	05a2                	slli	a1,a1,0x8
   19b18:	958a                	add	a1,a1,sp
   19b1a:	465d                	li	a2,23
   19b1c:	00002097          	auipc	ra,0x2
   19b20:	238080e7          	jalr	568(ra) # 1bd54 <memcpy>
   19b24:	6505                	lui	a0,0x1
   19b26:	35c50513          	addi	a0,a0,860 # 135c <.Lline_table_start1+0x1131>
   19b2a:	950a                	add	a0,a0,sp
   19b2c:	6fc10593          	addi	a1,sp,1788
   19b30:	ffff9097          	auipc	ra,0xffff9
   19b34:	fac080e7          	jalr	-84(ra) # 12adc <_ZN18complex_no_dynamic3app17h2c6bd6613b476f28E>
   19b38:	398b4503          	lbu	a0,920(s6)
   19b3c:	c119                	beqz	a0,19b42 <_start+0x1d5a>
   19b3e:	1100206f          	j	1bc4e <_start+0x3e66>
   19b42:	39ab4503          	lbu	a0,922(s6)
   19b46:	399b4583          	lbu	a1,921(s6)
   19b4a:	39bb4603          	lbu	a2,923(s6)
   19b4e:	39cb2403          	lw	s0,924(s6)
   19b52:	0522                	slli	a0,a0,0x8
   19b54:	8d4d                	or	a0,a0,a1
   19b56:	70a11d23          	sh	a0,1818(sp)
   19b5a:	70c10e23          	sb	a2,1820(sp)
   19b5e:	6505                	lui	a0,0x1
   19b60:	36450513          	addi	a0,a0,868 # 1364 <.Lline_table_start1+0x1139>
   19b64:	00a105b3          	add	a1,sp,a0
   19b68:	454d                	li	a0,19
   19b6a:	0522                	slli	a0,a0,0x8
   19b6c:	950a                	add	a0,a0,sp
   19b6e:	04a00613          	li	a2,74
   19b72:	00002097          	auipc	ra,0x2
   19b76:	1e2080e7          	jalr	482(ra) # 1bd54 <memcpy>
   19b7a:	01845513          	srli	a0,s0,0x18
   19b7e:	01045593          	srli	a1,s0,0x10
   19b82:	00845613          	srli	a2,s0,0x8
   19b86:	70810ea3          	sb	s0,1821(sp)
   19b8a:	70c10f23          	sb	a2,1822(sp)
   19b8e:	70b10fa3          	sb	a1,1823(sp)
   19b92:	72a10023          	sb	a0,1824(sp)
   19b96:	72110513          	addi	a0,sp,1825
   19b9a:	45cd                	li	a1,19
   19b9c:	05a2                	slli	a1,a1,0x8
   19b9e:	958a                	add	a1,a1,sp
   19ba0:	04a00613          	li	a2,74
   19ba4:	00002097          	auipc	ra,0x2
   19ba8:	1b0080e7          	jalr	432(ra) # 1bd54 <memcpy>
   19bac:	6505                	lui	a0,0x1
   19bae:	35c50513          	addi	a0,a0,860 # 135c <.Lline_table_start1+0x1131>
   19bb2:	950a                	add	a0,a0,sp
   19bb4:	71a10593          	addi	a1,sp,1818
   19bb8:	ffffe097          	auipc	ra,0xffffe
   19bbc:	e48080e7          	jalr	-440(ra) # 17a00 <_ZN18complex_no_dynamic3app17hfe9e9cd6334668f2E>
   19bc0:	398b4503          	lbu	a0,920(s6)
   19bc4:	c119                	beqz	a0,19bca <_start+0x1de2>
   19bc6:	0880206f          	j	1bc4e <_start+0x3e66>
   19bca:	399b4503          	lbu	a0,921(s6)
   19bce:	39ab4583          	lbu	a1,922(s6)
   19bd2:	39bb4803          	lbu	a6,923(s6)
   19bd6:	39cb2683          	lw	a3,924(s6)
   19bda:	3a0b2703          	lw	a4,928(s6)
   19bde:	3a4b2783          	lw	a5,932(s6)
   19be2:	05a2                	slli	a1,a1,0x8
   19be4:	0186d893          	srli	a7,a3,0x18
   19be8:	0106d293          	srli	t0,a3,0x10
   19bec:	0187d613          	srli	a2,a5,0x18
   19bf0:	0107d493          	srli	s1,a5,0x10
   19bf4:	0087d413          	srli	s0,a5,0x8
   19bf8:	8d4d                	or	a0,a0,a1
   19bfa:	01875593          	srli	a1,a4,0x18
   19bfe:	76910ca3          	sb	s1,1913(sp)
   19c02:	76c10d23          	sb	a2,1914(sp)
   19c06:	01075613          	srli	a2,a4,0x10
   19c0a:	76c10aa3          	sb	a2,1909(sp)
   19c0e:	76b10b23          	sb	a1,1910(sp)
   19c12:	76f10ba3          	sb	a5,1911(sp)
   19c16:	76810c23          	sb	s0,1912(sp)
   19c1a:	0086d593          	srli	a1,a3,0x8
   19c1e:	76a11623          	sh	a0,1900(sp)
   19c22:	77010723          	sb	a6,1902(sp)
   19c26:	76d107a3          	sb	a3,1903(sp)
   19c2a:	76b10823          	sb	a1,1904(sp)
   19c2e:	00875513          	srli	a0,a4,0x8
   19c32:	765108a3          	sb	t0,1905(sp)
   19c36:	77110923          	sb	a7,1906(sp)
   19c3a:	76e109a3          	sb	a4,1907(sp)
   19c3e:	76a10a23          	sb	a0,1908(sp)
   19c42:	6505                	lui	a0,0x1
   19c44:	35c50513          	addi	a0,a0,860 # 135c <.Lline_table_start1+0x1131>
   19c48:	950a                	add	a0,a0,sp
   19c4a:	76c10593          	addi	a1,sp,1900
   19c4e:	ffffd097          	auipc	ra,0xffffd
   19c52:	e3c080e7          	jalr	-452(ra) # 16a8a <_ZN18complex_no_dynamic3app17hce3155ad034d041fE>
   19c56:	398b4503          	lbu	a0,920(s6)
   19c5a:	c119                	beqz	a0,19c60 <_start+0x1e78>
   19c5c:	7f30106f          	j	1bc4e <_start+0x3e66>
   19c60:	39ab4503          	lbu	a0,922(s6)
   19c64:	399b4583          	lbu	a1,921(s6)
   19c68:	39bb4603          	lbu	a2,923(s6)
   19c6c:	39cb2403          	lw	s0,924(s6)
   19c70:	0522                	slli	a0,a0,0x8
   19c72:	8d4d                	or	a0,a0,a1
   19c74:	76a11e23          	sh	a0,1916(sp)
   19c78:	76c10f23          	sb	a2,1918(sp)
   19c7c:	6505                	lui	a0,0x1
   19c7e:	36450513          	addi	a0,a0,868 # 1364 <.Lline_table_start1+0x1139>
   19c82:	00a105b3          	add	a1,sp,a0
   19c86:	454d                	li	a0,19
   19c88:	0522                	slli	a0,a0,0x8
   19c8a:	950a                	add	a0,a0,sp
   19c8c:	03f00613          	li	a2,63
   19c90:	00002097          	auipc	ra,0x2
   19c94:	0c4080e7          	jalr	196(ra) # 1bd54 <memcpy>
   19c98:	01845513          	srli	a0,s0,0x18
   19c9c:	01045593          	srli	a1,s0,0x10
   19ca0:	00845613          	srli	a2,s0,0x8
   19ca4:	76810fa3          	sb	s0,1919(sp)
   19ca8:	78c10023          	sb	a2,1920(sp)
   19cac:	78b100a3          	sb	a1,1921(sp)
   19cb0:	78a10123          	sb	a0,1922(sp)
   19cb4:	78310513          	addi	a0,sp,1923
   19cb8:	45cd                	li	a1,19
   19cba:	05a2                	slli	a1,a1,0x8
   19cbc:	958a                	add	a1,a1,sp
   19cbe:	03f00613          	li	a2,63
   19cc2:	00002097          	auipc	ra,0x2
   19cc6:	092080e7          	jalr	146(ra) # 1bd54 <memcpy>
   19cca:	6505                	lui	a0,0x1
   19ccc:	35c50513          	addi	a0,a0,860 # 135c <.Lline_table_start1+0x1131>
   19cd0:	950a                	add	a0,a0,sp
   19cd2:	77c10593          	addi	a1,sp,1916
   19cd6:	ffffa097          	auipc	ra,0xffffa
   19cda:	394080e7          	jalr	916(ra) # 1406a <_ZN18complex_no_dynamic3app17h559d3adb514a058aE>
   19cde:	398b4503          	lbu	a0,920(s6)
   19ce2:	c119                	beqz	a0,19ce8 <_start+0x1f00>
   19ce4:	76b0106f          	j	1bc4e <_start+0x3e66>
   19ce8:	39ab4503          	lbu	a0,922(s6)
   19cec:	399b4583          	lbu	a1,921(s6)
   19cf0:	39bb4603          	lbu	a2,923(s6)
   19cf4:	39cb2483          	lw	s1,924(s6)
   19cf8:	0522                	slli	a0,a0,0x8
   19cfa:	8d4d                	or	a0,a0,a1
   19cfc:	7c410413          	addi	s0,sp,1988
   19d00:	fea41f23          	sh	a0,-2(s0)
   19d04:	00c40023          	sb	a2,0(s0)
   19d08:	6505                	lui	a0,0x1
   19d0a:	36450513          	addi	a0,a0,868 # 1364 <.Lline_table_start1+0x1139>
   19d0e:	00a105b3          	add	a1,sp,a0
   19d12:	454d                	li	a0,19
   19d14:	0522                	slli	a0,a0,0x8
   19d16:	950a                	add	a0,a0,sp
   19d18:	04f00613          	li	a2,79
   19d1c:	00002097          	auipc	ra,0x2
   19d20:	038080e7          	jalr	56(ra) # 1bd54 <memcpy>
   19d24:	0184d513          	srli	a0,s1,0x18
   19d28:	0104d593          	srli	a1,s1,0x10
   19d2c:	0084d613          	srli	a2,s1,0x8
   19d30:	009400a3          	sb	s1,1(s0)
   19d34:	00c40123          	sb	a2,2(s0)
   19d38:	00b401a3          	sb	a1,3(s0)
   19d3c:	00a40223          	sb	a0,4(s0)
   19d40:	7c910513          	addi	a0,sp,1993
   19d44:	45cd                	li	a1,19
   19d46:	05a2                	slli	a1,a1,0x8
   19d48:	958a                	add	a1,a1,sp
   19d4a:	04f00613          	li	a2,79
   19d4e:	00002097          	auipc	ra,0x2
   19d52:	006080e7          	jalr	6(ra) # 1bd54 <memcpy>
   19d56:	6505                	lui	a0,0x1
   19d58:	35c50513          	addi	a0,a0,860 # 135c <.Lline_table_start1+0x1131>
   19d5c:	950a                	add	a0,a0,sp
   19d5e:	7c210593          	addi	a1,sp,1986
   19d62:	ffffb097          	auipc	ra,0xffffb
   19d66:	e22080e7          	jalr	-478(ra) # 14b84 <_ZN18complex_no_dynamic3app17h6a4864b91f958e15E>
   19d6a:	398b4503          	lbu	a0,920(s6)
   19d6e:	c119                	beqz	a0,19d74 <_start+0x1f8c>
   19d70:	6df0106f          	j	1bc4e <_start+0x3e66>
   19d74:	39ab4503          	lbu	a0,922(s6)
   19d78:	399b4583          	lbu	a1,921(s6)
   19d7c:	39bb4603          	lbu	a2,923(s6)
   19d80:	39cb2483          	lw	s1,924(s6)
   19d84:	0522                	slli	a0,a0,0x8
   19d86:	8d4d                	or	a0,a0,a1
   19d88:	04a41a23          	sh	a0,84(s0)
   19d8c:	04c40b23          	sb	a2,86(s0)
   19d90:	6505                	lui	a0,0x1
   19d92:	36450513          	addi	a0,a0,868 # 1364 <.Lline_table_start1+0x1139>
   19d96:	00a105b3          	add	a1,sp,a0
   19d9a:	454d                	li	a0,19
   19d9c:	0522                	slli	a0,a0,0x8
   19d9e:	950a                	add	a0,a0,sp
   19da0:	04200613          	li	a2,66
   19da4:	00002097          	auipc	ra,0x2
   19da8:	fb0080e7          	jalr	-80(ra) # 1bd54 <memcpy>
   19dac:	0184d513          	srli	a0,s1,0x18
   19db0:	0104d593          	srli	a1,s1,0x10
   19db4:	0084d613          	srli	a2,s1,0x8
   19db8:	04940ba3          	sb	s1,87(s0)
   19dbc:	04c40c23          	sb	a2,88(s0)
   19dc0:	04b40ca3          	sb	a1,89(s0)
   19dc4:	04a40d23          	sb	a0,90(s0)
   19dc8:	7ff10513          	addi	a0,sp,2047
   19dcc:	02050513          	addi	a0,a0,32
   19dd0:	45cd                	li	a1,19
   19dd2:	05a2                	slli	a1,a1,0x8
   19dd4:	958a                	add	a1,a1,sp
   19dd6:	04200613          	li	a2,66
   19dda:	00002097          	auipc	ra,0x2
   19dde:	f7a080e7          	jalr	-134(ra) # 1bd54 <memcpy>
   19de2:	6505                	lui	a0,0x1
   19de4:	35c50513          	addi	a0,a0,860 # 135c <.Lline_table_start1+0x1131>
   19de8:	950a                	add	a0,a0,sp
   19dea:	7ff10593          	addi	a1,sp,2047
   19dee:	05e5                	addi	a1,a1,25
   19df0:	ffffb097          	auipc	ra,0xffffb
   19df4:	590080e7          	jalr	1424(ra) # 15380 <_ZN18complex_no_dynamic3app17h82824b62f7873eebE>
   19df8:	398b4503          	lbu	a0,920(s6)
   19dfc:	c119                	beqz	a0,19e02 <_start+0x201a>
   19dfe:	6510106f          	j	1bc4e <_start+0x3e66>
   19e02:	399b4503          	lbu	a0,921(s6)
   19e06:	39ab4583          	lbu	a1,922(s6)
   19e0a:	39bb4803          	lbu	a6,923(s6)
   19e0e:	39cb2683          	lw	a3,924(s6)
   19e12:	3a0b2703          	lw	a4,928(s6)
   19e16:	3a4b2783          	lw	a5,932(s6)
   19e1a:	3a8b2483          	lw	s1,936(s6)
   19e1e:	3acb2603          	lw	a2,940(s6)
   19e22:	32eb2e23          	sw	a4,828(s6)
   19e26:	34fb2023          	sw	a5,832(s6)
   19e2a:	349b2223          	sw	s1,836(s6)
   19e2e:	34cb2423          	sw	a2,840(s6)
   19e32:	3b0b2603          	lw	a2,944(s6)
   19e36:	3b4b2703          	lw	a4,948(s6)
   19e3a:	3b8b2783          	lw	a5,952(s6)
   19e3e:	05a2                	slli	a1,a1,0x8
   19e40:	34cb2623          	sw	a2,844(s6)
   19e44:	34eb2823          	sw	a4,848(s6)
   19e48:	34fb2a23          	sw	a5,852(s6)
   19e4c:	0186d613          	srli	a2,a3,0x18
   19e50:	8d4d                	or	a0,a0,a1
   19e52:	0106d593          	srli	a1,a3,0x10
   19e56:	0ab401a3          	sb	a1,163(s0)
   19e5a:	0ac40223          	sb	a2,164(s0)
   19e5e:	0086d593          	srli	a1,a3,0x8
   19e62:	08a41f23          	sh	a0,158(s0)
   19e66:	0b040023          	sb	a6,160(s0)
   19e6a:	0ad400a3          	sb	a3,161(s0)
   19e6e:	0ab40123          	sb	a1,162(s0)
   19e72:	7ff10513          	addi	a0,sp,2047
   19e76:	06a50513          	addi	a0,a0,106
   19e7a:	45cd                	li	a1,19
   19e7c:	05a2                	slli	a1,a1,0x8
   19e7e:	958a                	add	a1,a1,sp
   19e80:	4671                	li	a2,28
   19e82:	00002097          	auipc	ra,0x2
   19e86:	ed2080e7          	jalr	-302(ra) # 1bd54 <memcpy>
   19e8a:	6505                	lui	a0,0x1
   19e8c:	35c50513          	addi	a0,a0,860 # 135c <.Lline_table_start1+0x1131>
   19e90:	950a                	add	a0,a0,sp
   19e92:	7ff10593          	addi	a1,sp,2047
   19e96:	06358593          	addi	a1,a1,99
   19e9a:	ffff8097          	auipc	ra,0xffff8
   19e9e:	1a0080e7          	jalr	416(ra) # 1203a <_ZN18complex_no_dynamic3app17h20ffa4dfd5e42bc3E>
   19ea2:	398b4503          	lbu	a0,920(s6)
   19ea6:	c119                	beqz	a0,19eac <_start+0x20c4>
   19ea8:	5a70106f          	j	1bc4e <_start+0x3e66>
   19eac:	39ab4503          	lbu	a0,922(s6)
   19eb0:	399b4583          	lbu	a1,921(s6)
   19eb4:	39bb4603          	lbu	a2,923(s6)
   19eb8:	39cb2483          	lw	s1,924(s6)
   19ebc:	0522                	slli	a0,a0,0x8
   19ebe:	8d4d                	or	a0,a0,a1
   19ec0:	0ca41123          	sh	a0,194(s0)
   19ec4:	0cc40223          	sb	a2,196(s0)
   19ec8:	6505                	lui	a0,0x1
   19eca:	36450513          	addi	a0,a0,868 # 1364 <.Lline_table_start1+0x1139>
   19ece:	00a105b3          	add	a1,sp,a0
   19ed2:	454d                	li	a0,19
   19ed4:	0522                	slli	a0,a0,0x8
   19ed6:	950a                	add	a0,a0,sp
   19ed8:	02400613          	li	a2,36
   19edc:	00002097          	auipc	ra,0x2
   19ee0:	e78080e7          	jalr	-392(ra) # 1bd54 <memcpy>
   19ee4:	0184d513          	srli	a0,s1,0x18
   19ee8:	0104d593          	srli	a1,s1,0x10
   19eec:	0084d613          	srli	a2,s1,0x8
   19ef0:	0c9402a3          	sb	s1,197(s0)
   19ef4:	0cc40323          	sb	a2,198(s0)
   19ef8:	0cb403a3          	sb	a1,199(s0)
   19efc:	0ca40423          	sb	a0,200(s0)
   19f00:	7ff10513          	addi	a0,sp,2047
   19f04:	08e50513          	addi	a0,a0,142
   19f08:	45cd                	li	a1,19
   19f0a:	05a2                	slli	a1,a1,0x8
   19f0c:	958a                	add	a1,a1,sp
   19f0e:	02400613          	li	a2,36
   19f12:	00002097          	auipc	ra,0x2
   19f16:	e42080e7          	jalr	-446(ra) # 1bd54 <memcpy>
   19f1a:	6505                	lui	a0,0x1
   19f1c:	35c50513          	addi	a0,a0,860 # 135c <.Lline_table_start1+0x1131>
   19f20:	950a                	add	a0,a0,sp
   19f22:	7ff10593          	addi	a1,sp,2047
   19f26:	08758593          	addi	a1,a1,135
   19f2a:	ffffd097          	auipc	ra,0xffffd
   19f2e:	dc6080e7          	jalr	-570(ra) # 16cf0 <_ZN18complex_no_dynamic3app17hd23c427d4844f3adE>
   19f32:	398b4503          	lbu	a0,920(s6)
   19f36:	c119                	beqz	a0,19f3c <_start+0x2154>
   19f38:	5170106f          	j	1bc4e <_start+0x3e66>
   19f3c:	399b4503          	lbu	a0,921(s6)
   19f40:	39ab4583          	lbu	a1,922(s6)
   19f44:	3a0b2603          	lw	a2,928(s6)
   19f48:	3a4b1683          	lh	a3,932(s6)
   19f4c:	39bb4703          	lbu	a4,923(s6)
   19f50:	39cb2783          	lw	a5,924(s6)
   19f54:	05a2                	slli	a1,a1,0x8
   19f56:	32cb2e23          	sw	a2,828(s6)
   19f5a:	34db1023          	sh	a3,832(s6)
   19f5e:	0187d693          	srli	a3,a5,0x18
   19f62:	0107d493          	srli	s1,a5,0x10
   19f66:	8d4d                	or	a0,a0,a1
   19f68:	0087d593          	srli	a1,a5,0x8
   19f6c:	0ea41723          	sh	a0,238(s0)
   19f70:	0ee40823          	sb	a4,240(s0)
   19f74:	0ef408a3          	sb	a5,241(s0)
   19f78:	0eb40923          	sb	a1,242(s0)
   19f7c:	33db4503          	lbu	a0,829(s6)
   19f80:	33eb4583          	lbu	a1,830(s6)
   19f84:	33fb4703          	lbu	a4,831(s6)
   19f88:	340b4783          	lbu	a5,832(s6)
   19f8c:	0e9409a3          	sb	s1,243(s0)
   19f90:	0ed40a23          	sb	a3,244(s0)
   19f94:	0ec40aa3          	sb	a2,245(s0)
   19f98:	0ea40b23          	sb	a0,246(s0)
   19f9c:	341b4503          	lbu	a0,833(s6)
   19fa0:	0eb40ba3          	sb	a1,247(s0)
   19fa4:	0ee40c23          	sb	a4,248(s0)
   19fa8:	0ef40ca3          	sb	a5,249(s0)
   19fac:	0ea40d23          	sb	a0,250(s0)
   19fb0:	6505                	lui	a0,0x1
   19fb2:	35c50513          	addi	a0,a0,860 # 135c <.Lline_table_start1+0x1131>
   19fb6:	950a                	add	a0,a0,sp
   19fb8:	7ff10593          	addi	a1,sp,2047
   19fbc:	0b358593          	addi	a1,a1,179
   19fc0:	ffffc097          	auipc	ra,0xffffc
   19fc4:	a96080e7          	jalr	-1386(ra) # 15a56 <_ZN18complex_no_dynamic3app17ha084e1826b3fd60bE>
   19fc8:	398b4503          	lbu	a0,920(s6)
   19fcc:	c119                	beqz	a0,19fd2 <_start+0x21ea>
   19fce:	4810106f          	j	1bc4e <_start+0x3e66>
   19fd2:	399b4503          	lbu	a0,921(s6)
   19fd6:	39ab4583          	lbu	a1,922(s6)
   19fda:	39bb4803          	lbu	a6,923(s6)
   19fde:	39cb2683          	lw	a3,924(s6)
   19fe2:	3a0b2703          	lw	a4,928(s6)
   19fe6:	3a4b2783          	lw	a5,932(s6)
   19fea:	3a8b2483          	lw	s1,936(s6)
   19fee:	3acb2603          	lw	a2,940(s6)
   19ff2:	32eb2e23          	sw	a4,828(s6)
   19ff6:	34fb2023          	sw	a5,832(s6)
   19ffa:	349b2223          	sw	s1,836(s6)
   19ffe:	34cb2423          	sw	a2,840(s6)
   1a002:	3b0b2603          	lw	a2,944(s6)
   1a006:	3b4b2703          	lw	a4,948(s6)
   1a00a:	3b8b1783          	lh	a5,952(s6)
   1a00e:	05a2                	slli	a1,a1,0x8
   1a010:	34cb2623          	sw	a2,844(s6)
   1a014:	34eb2823          	sw	a4,848(s6)
   1a018:	34fb1a23          	sh	a5,852(s6)
   1a01c:	0186d613          	srli	a2,a3,0x18
   1a020:	8d4d                	or	a0,a0,a1
   1a022:	0106d593          	srli	a1,a3,0x10
   1a026:	10b400a3          	sb	a1,257(s0)
   1a02a:	10c40123          	sb	a2,258(s0)
   1a02e:	0086d593          	srli	a1,a3,0x8
   1a032:	0ea41e23          	sh	a0,252(s0)
   1a036:	0f040f23          	sb	a6,254(s0)
   1a03a:	0ed40fa3          	sb	a3,255(s0)
   1a03e:	10b40023          	sb	a1,256(s0)
   1a042:	7ff10513          	addi	a0,sp,2047
   1a046:	0c850513          	addi	a0,a0,200
   1a04a:	45cd                	li	a1,19
   1a04c:	05a2                	slli	a1,a1,0x8
   1a04e:	958a                	add	a1,a1,sp
   1a050:	4669                	li	a2,26
   1a052:	00002097          	auipc	ra,0x2
   1a056:	d02080e7          	jalr	-766(ra) # 1bd54 <memcpy>
   1a05a:	6505                	lui	a0,0x1
   1a05c:	35c50513          	addi	a0,a0,860 # 135c <.Lline_table_start1+0x1131>
   1a060:	950a                	add	a0,a0,sp
   1a062:	7ff10593          	addi	a1,sp,2047
   1a066:	0c158593          	addi	a1,a1,193
   1a06a:	ffff7097          	auipc	ra,0xffff7
   1a06e:	0ca080e7          	jalr	202(ra) # 11134 <_ZN18complex_no_dynamic3app17h02d2cd979ebc4e26E>
   1a072:	398b4503          	lbu	a0,920(s6)
   1a076:	c119                	beqz	a0,1a07c <_start+0x2294>
   1a078:	3d70106f          	j	1bc4e <_start+0x3e66>
   1a07c:	39ab4503          	lbu	a0,922(s6)
   1a080:	399b4583          	lbu	a1,921(s6)
   1a084:	39bb4603          	lbu	a2,923(s6)
   1a088:	39cb2483          	lw	s1,924(s6)
   1a08c:	0522                	slli	a0,a0,0x8
   1a08e:	8d4d                	or	a0,a0,a1
   1a090:	10a41f23          	sh	a0,286(s0)
   1a094:	12c40023          	sb	a2,288(s0)
   1a098:	6505                	lui	a0,0x1
   1a09a:	36450513          	addi	a0,a0,868 # 1364 <.Lline_table_start1+0x1139>
   1a09e:	00a105b3          	add	a1,sp,a0
   1a0a2:	454d                	li	a0,19
   1a0a4:	0522                	slli	a0,a0,0x8
   1a0a6:	950a                	add	a0,a0,sp
   1a0a8:	04c00613          	li	a2,76
   1a0ac:	00002097          	auipc	ra,0x2
   1a0b0:	ca8080e7          	jalr	-856(ra) # 1bd54 <memcpy>
   1a0b4:	0184d513          	srli	a0,s1,0x18
   1a0b8:	0104d593          	srli	a1,s1,0x10
   1a0bc:	0084d613          	srli	a2,s1,0x8
   1a0c0:	129400a3          	sb	s1,289(s0)
   1a0c4:	12c40123          	sb	a2,290(s0)
   1a0c8:	12b401a3          	sb	a1,291(s0)
   1a0cc:	12a40223          	sb	a0,292(s0)
   1a0d0:	7ff10513          	addi	a0,sp,2047
   1a0d4:	0ea50513          	addi	a0,a0,234
   1a0d8:	45cd                	li	a1,19
   1a0da:	05a2                	slli	a1,a1,0x8
   1a0dc:	958a                	add	a1,a1,sp
   1a0de:	04c00613          	li	a2,76
   1a0e2:	00002097          	auipc	ra,0x2
   1a0e6:	c72080e7          	jalr	-910(ra) # 1bd54 <memcpy>
   1a0ea:	6505                	lui	a0,0x1
   1a0ec:	35c50513          	addi	a0,a0,860 # 135c <.Lline_table_start1+0x1131>
   1a0f0:	950a                	add	a0,a0,sp
   1a0f2:	7ff10593          	addi	a1,sp,2047
   1a0f6:	0e358593          	addi	a1,a1,227
   1a0fa:	ffffa097          	auipc	ra,0xffffa
   1a0fe:	d7a080e7          	jalr	-646(ra) # 13e74 <_ZN18complex_no_dynamic3app17h514aa169052276b1E>
   1a102:	398b4503          	lbu	a0,920(s6)
   1a106:	c119                	beqz	a0,1a10c <_start+0x2324>
   1a108:	3470106f          	j	1bc4e <_start+0x3e66>
   1a10c:	39ab4503          	lbu	a0,922(s6)
   1a110:	399b4583          	lbu	a1,921(s6)
   1a114:	39bb4603          	lbu	a2,923(s6)
   1a118:	39cb2483          	lw	s1,924(s6)
   1a11c:	0522                	slli	a0,a0,0x8
   1a11e:	8d4d                	or	a0,a0,a1
   1a120:	16a41923          	sh	a0,370(s0)
   1a124:	16c40a23          	sb	a2,372(s0)
   1a128:	6505                	lui	a0,0x1
   1a12a:	36450513          	addi	a0,a0,868 # 1364 <.Lline_table_start1+0x1139>
   1a12e:	00a105b3          	add	a1,sp,a0
   1a132:	454d                	li	a0,19
   1a134:	0522                	slli	a0,a0,0x8
   1a136:	950a                	add	a0,a0,sp
   1a138:	04600613          	li	a2,70
   1a13c:	00002097          	auipc	ra,0x2
   1a140:	c18080e7          	jalr	-1000(ra) # 1bd54 <memcpy>
   1a144:	0184d513          	srli	a0,s1,0x18
   1a148:	0104d593          	srli	a1,s1,0x10
   1a14c:	0084d613          	srli	a2,s1,0x8
   1a150:	16940aa3          	sb	s1,373(s0)
   1a154:	16c40b23          	sb	a2,374(s0)
   1a158:	16b40ba3          	sb	a1,375(s0)
   1a15c:	16a40c23          	sb	a0,376(s0)
   1a160:	7ff10513          	addi	a0,sp,2047
   1a164:	13e50513          	addi	a0,a0,318
   1a168:	45cd                	li	a1,19
   1a16a:	05a2                	slli	a1,a1,0x8
   1a16c:	958a                	add	a1,a1,sp
   1a16e:	04600613          	li	a2,70
   1a172:	00002097          	auipc	ra,0x2
   1a176:	be2080e7          	jalr	-1054(ra) # 1bd54 <memcpy>
   1a17a:	6505                	lui	a0,0x1
   1a17c:	35c50513          	addi	a0,a0,860 # 135c <.Lline_table_start1+0x1131>
   1a180:	950a                	add	a0,a0,sp
   1a182:	7ff10593          	addi	a1,sp,2047
   1a186:	13758593          	addi	a1,a1,311
   1a18a:	ffffd097          	auipc	ra,0xffffd
   1a18e:	d60080e7          	jalr	-672(ra) # 16eea <_ZN18complex_no_dynamic3app17hde58554ca0f2c45bE>
   1a192:	398b4503          	lbu	a0,920(s6)
   1a196:	c119                	beqz	a0,1a19c <_start+0x23b4>
   1a198:	2b70106f          	j	1bc4e <_start+0x3e66>
   1a19c:	39ab4503          	lbu	a0,922(s6)
   1a1a0:	399b4583          	lbu	a1,921(s6)
   1a1a4:	39bb4603          	lbu	a2,923(s6)
   1a1a8:	39cb2483          	lw	s1,924(s6)
   1a1ac:	0522                	slli	a0,a0,0x8
   1a1ae:	8d4d                	or	a0,a0,a1
   1a1b0:	1ca41023          	sh	a0,448(s0)
   1a1b4:	1cc40123          	sb	a2,450(s0)
   1a1b8:	6505                	lui	a0,0x1
   1a1ba:	36450513          	addi	a0,a0,868 # 1364 <.Lline_table_start1+0x1139>
   1a1be:	00a105b3          	add	a1,sp,a0
   1a1c2:	454d                	li	a0,19
   1a1c4:	0522                	slli	a0,a0,0x8
   1a1c6:	950a                	add	a0,a0,sp
   1a1c8:	03500613          	li	a2,53
   1a1cc:	00002097          	auipc	ra,0x2
   1a1d0:	b88080e7          	jalr	-1144(ra) # 1bd54 <memcpy>
   1a1d4:	0184d513          	srli	a0,s1,0x18
   1a1d8:	0104d593          	srli	a1,s1,0x10
   1a1dc:	0084d613          	srli	a2,s1,0x8
   1a1e0:	1c9401a3          	sb	s1,451(s0)
   1a1e4:	1cc40223          	sb	a2,452(s0)
   1a1e8:	1cb402a3          	sb	a1,453(s0)
   1a1ec:	1ca40323          	sb	a0,454(s0)
   1a1f0:	7ff10513          	addi	a0,sp,2047
   1a1f4:	18c50513          	addi	a0,a0,396
   1a1f8:	45cd                	li	a1,19
   1a1fa:	05a2                	slli	a1,a1,0x8
   1a1fc:	958a                	add	a1,a1,sp
   1a1fe:	03500613          	li	a2,53
   1a202:	00002097          	auipc	ra,0x2
   1a206:	b52080e7          	jalr	-1198(ra) # 1bd54 <memcpy>
   1a20a:	6505                	lui	a0,0x1
   1a20c:	35c50513          	addi	a0,a0,860 # 135c <.Lline_table_start1+0x1131>
   1a210:	950a                	add	a0,a0,sp
   1a212:	7ff10593          	addi	a1,sp,2047
   1a216:	18558593          	addi	a1,a1,389
   1a21a:	ffffa097          	auipc	ra,0xffffa
   1a21e:	146080e7          	jalr	326(ra) # 14360 <_ZN18complex_no_dynamic3app17h58a515326b8c5d42E>
   1a222:	398b4503          	lbu	a0,920(s6)
   1a226:	c119                	beqz	a0,1a22c <_start+0x2444>
   1a228:	2270106f          	j	1bc4e <_start+0x3e66>
   1a22c:	39ab4503          	lbu	a0,922(s6)
   1a230:	399b4583          	lbu	a1,921(s6)
   1a234:	39bb4603          	lbu	a2,923(s6)
   1a238:	39cb2483          	lw	s1,924(s6)
   1a23c:	0522                	slli	a0,a0,0x8
   1a23e:	8d4d                	or	a0,a0,a1
   1a240:	1ea41e23          	sh	a0,508(s0)
   1a244:	1ec40f23          	sb	a2,510(s0)
   1a248:	6505                	lui	a0,0x1
   1a24a:	36450513          	addi	a0,a0,868 # 1364 <.Lline_table_start1+0x1139>
   1a24e:	00a105b3          	add	a1,sp,a0
   1a252:	454d                	li	a0,19
   1a254:	0522                	slli	a0,a0,0x8
   1a256:	950a                	add	a0,a0,sp
   1a258:	03100613          	li	a2,49
   1a25c:	00002097          	auipc	ra,0x2
   1a260:	af8080e7          	jalr	-1288(ra) # 1bd54 <memcpy>
   1a264:	0184d513          	srli	a0,s1,0x18
   1a268:	0104d593          	srli	a1,s1,0x10
   1a26c:	0084d613          	srli	a2,s1,0x8
   1a270:	1e940fa3          	sb	s1,511(s0)
   1a274:	20c40023          	sb	a2,512(s0)
   1a278:	20b400a3          	sb	a1,513(s0)
   1a27c:	20a40123          	sb	a0,514(s0)
   1a280:	7ff10513          	addi	a0,sp,2047
   1a284:	1c850513          	addi	a0,a0,456
   1a288:	45cd                	li	a1,19
   1a28a:	05a2                	slli	a1,a1,0x8
   1a28c:	958a                	add	a1,a1,sp
   1a28e:	03100613          	li	a2,49
   1a292:	00002097          	auipc	ra,0x2
   1a296:	ac2080e7          	jalr	-1342(ra) # 1bd54 <memcpy>
   1a29a:	6505                	lui	a0,0x1
   1a29c:	35c50513          	addi	a0,a0,860 # 135c <.Lline_table_start1+0x1131>
   1a2a0:	950a                	add	a0,a0,sp
   1a2a2:	7ff10593          	addi	a1,sp,2047
   1a2a6:	1c158593          	addi	a1,a1,449
   1a2aa:	ffff7097          	auipc	ra,0xffff7
   1a2ae:	17a080e7          	jalr	378(ra) # 11424 <_ZN18complex_no_dynamic3app17h06f4f5c60a83d149E>
   1a2b2:	398b4503          	lbu	a0,920(s6)
   1a2b6:	c119                	beqz	a0,1a2bc <_start+0x24d4>
   1a2b8:	1970106f          	j	1bc4e <_start+0x3e66>
   1a2bc:	399b4503          	lbu	a0,921(s6)
   1a2c0:	39ab4583          	lbu	a1,922(s6)
   1a2c4:	39bb4803          	lbu	a6,923(s6)
   1a2c8:	39cb2683          	lw	a3,924(s6)
   1a2cc:	3a0b2703          	lw	a4,928(s6)
   1a2d0:	3a4b2783          	lw	a5,932(s6)
   1a2d4:	3a8b2483          	lw	s1,936(s6)
   1a2d8:	3acb2603          	lw	a2,940(s6)
   1a2dc:	32eb2e23          	sw	a4,828(s6)
   1a2e0:	34fb2023          	sw	a5,832(s6)
   1a2e4:	349b2223          	sw	s1,836(s6)
   1a2e8:	34cb2423          	sw	a2,840(s6)
   1a2ec:	3b0b2603          	lw	a2,944(s6)
   1a2f0:	3b4b2703          	lw	a4,948(s6)
   1a2f4:	3b8b2783          	lw	a5,952(s6)
   1a2f8:	3bcb2483          	lw	s1,956(s6)
   1a2fc:	05a2                	slli	a1,a1,0x8
   1a2fe:	34cb2623          	sw	a2,844(s6)
   1a302:	34eb2823          	sw	a4,848(s6)
   1a306:	34fb2a23          	sw	a5,852(s6)
   1a30a:	349b2c23          	sw	s1,856(s6)
   1a30e:	0186d613          	srli	a2,a3,0x18
   1a312:	8d4d                	or	a0,a0,a1
   1a314:	0106d593          	srli	a1,a3,0x10
   1a318:	22b40ca3          	sb	a1,569(s0)
   1a31c:	22c40d23          	sb	a2,570(s0)
   1a320:	0086d593          	srli	a1,a3,0x8
   1a324:	22a41a23          	sh	a0,564(s0)
   1a328:	23040b23          	sb	a6,566(s0)
   1a32c:	22d40ba3          	sb	a3,567(s0)
   1a330:	22b40c23          	sb	a1,568(s0)
   1a334:	7ff10513          	addi	a0,sp,2047
   1a338:	20050513          	addi	a0,a0,512
   1a33c:	45cd                	li	a1,19
   1a33e:	05a2                	slli	a1,a1,0x8
   1a340:	958a                	add	a1,a1,sp
   1a342:	02000613          	li	a2,32
   1a346:	00002097          	auipc	ra,0x2
   1a34a:	a0e080e7          	jalr	-1522(ra) # 1bd54 <memcpy>
   1a34e:	6505                	lui	a0,0x1
   1a350:	35c50513          	addi	a0,a0,860 # 135c <.Lline_table_start1+0x1131>
   1a354:	950a                	add	a0,a0,sp
   1a356:	7ff10593          	addi	a1,sp,2047
   1a35a:	1f958593          	addi	a1,a1,505
   1a35e:	ffffd097          	auipc	ra,0xffffd
   1a362:	3a0080e7          	jalr	928(ra) # 176fe <_ZN18complex_no_dynamic3app17hf87f6ff0a8e6eefcE>
   1a366:	398b4503          	lbu	a0,920(s6)
   1a36a:	c119                	beqz	a0,1a370 <_start+0x2588>
   1a36c:	0e30106f          	j	1bc4e <_start+0x3e66>
   1a370:	39ab4503          	lbu	a0,922(s6)
   1a374:	399b4583          	lbu	a1,921(s6)
   1a378:	39bb4603          	lbu	a2,923(s6)
   1a37c:	39cb2483          	lw	s1,924(s6)
   1a380:	0522                	slli	a0,a0,0x8
   1a382:	8d4d                	or	a0,a0,a1
   1a384:	24a41e23          	sh	a0,604(s0)
   1a388:	24c40f23          	sb	a2,606(s0)
   1a38c:	6505                	lui	a0,0x1
   1a38e:	36450513          	addi	a0,a0,868 # 1364 <.Lline_table_start1+0x1139>
   1a392:	00a105b3          	add	a1,sp,a0
   1a396:	454d                	li	a0,19
   1a398:	0522                	slli	a0,a0,0x8
   1a39a:	950a                	add	a0,a0,sp
   1a39c:	04a00613          	li	a2,74
   1a3a0:	00002097          	auipc	ra,0x2
   1a3a4:	9b4080e7          	jalr	-1612(ra) # 1bd54 <memcpy>
   1a3a8:	0184d513          	srli	a0,s1,0x18
   1a3ac:	0104d593          	srli	a1,s1,0x10
   1a3b0:	0084d613          	srli	a2,s1,0x8
   1a3b4:	24940fa3          	sb	s1,607(s0)
   1a3b8:	26c40023          	sb	a2,608(s0)
   1a3bc:	26b400a3          	sb	a1,609(s0)
   1a3c0:	26a40123          	sb	a0,610(s0)
   1a3c4:	7ff10513          	addi	a0,sp,2047
   1a3c8:	22850513          	addi	a0,a0,552
   1a3cc:	45cd                	li	a1,19
   1a3ce:	05a2                	slli	a1,a1,0x8
   1a3d0:	958a                	add	a1,a1,sp
   1a3d2:	04a00613          	li	a2,74
   1a3d6:	00002097          	auipc	ra,0x2
   1a3da:	97e080e7          	jalr	-1666(ra) # 1bd54 <memcpy>
   1a3de:	6505                	lui	a0,0x1
   1a3e0:	35c50513          	addi	a0,a0,860 # 135c <.Lline_table_start1+0x1131>
   1a3e4:	950a                	add	a0,a0,sp
   1a3e6:	7ff10593          	addi	a1,sp,2047
   1a3ea:	22158593          	addi	a1,a1,545
   1a3ee:	ffff9097          	auipc	ra,0xffff9
   1a3f2:	dd4080e7          	jalr	-556(ra) # 131c2 <_ZN18complex_no_dynamic3app17h416ae4034d6a8c48E>
   1a3f6:	398b4503          	lbu	a0,920(s6)
   1a3fa:	c119                	beqz	a0,1a400 <_start+0x2618>
   1a3fc:	0530106f          	j	1bc4e <_start+0x3e66>
   1a400:	39ab4503          	lbu	a0,922(s6)
   1a404:	399b4583          	lbu	a1,921(s6)
   1a408:	39bb4603          	lbu	a2,923(s6)
   1a40c:	39cb2483          	lw	s1,924(s6)
   1a410:	0522                	slli	a0,a0,0x8
   1a412:	8d4d                	or	a0,a0,a1
   1a414:	2aa41723          	sh	a0,686(s0)
   1a418:	2ac40823          	sb	a2,688(s0)
   1a41c:	6505                	lui	a0,0x1
   1a41e:	36450513          	addi	a0,a0,868 # 1364 <.Lline_table_start1+0x1139>
   1a422:	00a105b3          	add	a1,sp,a0
   1a426:	454d                	li	a0,19
   1a428:	0522                	slli	a0,a0,0x8
   1a42a:	950a                	add	a0,a0,sp
   1a42c:	04800613          	li	a2,72
   1a430:	00002097          	auipc	ra,0x2
   1a434:	924080e7          	jalr	-1756(ra) # 1bd54 <memcpy>
   1a438:	0184d513          	srli	a0,s1,0x18
   1a43c:	0104d593          	srli	a1,s1,0x10
   1a440:	0084d613          	srli	a2,s1,0x8
   1a444:	2a9408a3          	sb	s1,689(s0)
   1a448:	2ac40923          	sb	a2,690(s0)
   1a44c:	2ab409a3          	sb	a1,691(s0)
   1a450:	2aa40a23          	sb	a0,692(s0)
   1a454:	7ff10513          	addi	a0,sp,2047
   1a458:	27a50513          	addi	a0,a0,634
   1a45c:	45cd                	li	a1,19
   1a45e:	05a2                	slli	a1,a1,0x8
   1a460:	958a                	add	a1,a1,sp
   1a462:	04800613          	li	a2,72
   1a466:	00002097          	auipc	ra,0x2
   1a46a:	8ee080e7          	jalr	-1810(ra) # 1bd54 <memcpy>
   1a46e:	6505                	lui	a0,0x1
   1a470:	35c50513          	addi	a0,a0,860 # 135c <.Lline_table_start1+0x1131>
   1a474:	950a                	add	a0,a0,sp
   1a476:	7ff10593          	addi	a1,sp,2047
   1a47a:	27358593          	addi	a1,a1,627
   1a47e:	ffffa097          	auipc	ra,0xffffa
   1a482:	3fc080e7          	jalr	1020(ra) # 1487a <_ZN18complex_no_dynamic3app17h65b3e0da9010a6b0E>
   1a486:	398b4503          	lbu	a0,920(s6)
   1a48a:	c119                	beqz	a0,1a490 <_start+0x26a8>
   1a48c:	7c20106f          	j	1bc4e <_start+0x3e66>
   1a490:	39ab4503          	lbu	a0,922(s6)
   1a494:	399b4583          	lbu	a1,921(s6)
   1a498:	39bb4603          	lbu	a2,923(s6)
   1a49c:	39cb2483          	lw	s1,924(s6)
   1a4a0:	0522                	slli	a0,a0,0x8
   1a4a2:	8d4d                	or	a0,a0,a1
   1a4a4:	2ea41f23          	sh	a0,766(s0)
   1a4a8:	30c40023          	sb	a2,768(s0)
   1a4ac:	6505                	lui	a0,0x1
   1a4ae:	36450513          	addi	a0,a0,868 # 1364 <.Lline_table_start1+0x1139>
   1a4b2:	00a105b3          	add	a1,sp,a0
   1a4b6:	454d                	li	a0,19
   1a4b8:	0522                	slli	a0,a0,0x8
   1a4ba:	950a                	add	a0,a0,sp
   1a4bc:	05a00613          	li	a2,90
   1a4c0:	00002097          	auipc	ra,0x2
   1a4c4:	894080e7          	jalr	-1900(ra) # 1bd54 <memcpy>
   1a4c8:	0184d513          	srli	a0,s1,0x18
   1a4cc:	0104d593          	srli	a1,s1,0x10
   1a4d0:	0084d613          	srli	a2,s1,0x8
   1a4d4:	309400a3          	sb	s1,769(s0)
   1a4d8:	30c40123          	sb	a2,770(s0)
   1a4dc:	30b401a3          	sb	a1,771(s0)
   1a4e0:	30a40223          	sb	a0,772(s0)
   1a4e4:	7ff10513          	addi	a0,sp,2047
   1a4e8:	2ca50513          	addi	a0,a0,714
   1a4ec:	45cd                	li	a1,19
   1a4ee:	05a2                	slli	a1,a1,0x8
   1a4f0:	958a                	add	a1,a1,sp
   1a4f2:	05a00613          	li	a2,90
   1a4f6:	00002097          	auipc	ra,0x2
   1a4fa:	85e080e7          	jalr	-1954(ra) # 1bd54 <memcpy>
   1a4fe:	6505                	lui	a0,0x1
   1a500:	35c50513          	addi	a0,a0,860 # 135c <.Lline_table_start1+0x1131>
   1a504:	950a                	add	a0,a0,sp
   1a506:	7ff10593          	addi	a1,sp,2047
   1a50a:	2c358593          	addi	a1,a1,707
   1a50e:	ffff8097          	auipc	ra,0xffff8
   1a512:	0c4080e7          	jalr	196(ra) # 125d2 <_ZN18complex_no_dynamic3app17h287ea74023adf37cE>
   1a516:	398b4503          	lbu	a0,920(s6)
   1a51a:	c119                	beqz	a0,1a520 <_start+0x2738>
   1a51c:	7320106f          	j	1bc4e <_start+0x3e66>
   1a520:	399b4503          	lbu	a0,921(s6)
   1a524:	39ab4583          	lbu	a1,922(s6)
   1a528:	39bb4803          	lbu	a6,923(s6)
   1a52c:	39cb2683          	lw	a3,924(s6)
   1a530:	3a0b2703          	lw	a4,928(s6)
   1a534:	3a4b2783          	lw	a5,932(s6)
   1a538:	3a8b2483          	lw	s1,936(s6)
   1a53c:	3acb2603          	lw	a2,940(s6)
   1a540:	32eb2e23          	sw	a4,828(s6)
   1a544:	34fb2023          	sw	a5,832(s6)
   1a548:	349b2223          	sw	s1,836(s6)
   1a54c:	34cb2423          	sw	a2,840(s6)
   1a550:	3b0b2603          	lw	a2,944(s6)
   1a554:	3b4b1703          	lh	a4,948(s6)
   1a558:	3b6b4783          	lbu	a5,950(s6)
   1a55c:	05a2                	slli	a1,a1,0x8
   1a55e:	34cb2623          	sw	a2,844(s6)
   1a562:	34eb1823          	sh	a4,848(s6)
   1a566:	34fb0923          	sb	a5,850(s6)
   1a56a:	0186d613          	srli	a2,a3,0x18
   1a56e:	8d4d                	or	a0,a0,a1
   1a570:	0106d593          	srli	a1,a3,0x10
   1a574:	36b402a3          	sb	a1,869(s0)
   1a578:	36c40323          	sb	a2,870(s0)
   1a57c:	0086d593          	srli	a1,a3,0x8
   1a580:	36a41023          	sh	a0,864(s0)
   1a584:	37040123          	sb	a6,866(s0)
   1a588:	36d401a3          	sb	a3,867(s0)
   1a58c:	36b40223          	sb	a1,868(s0)
   1a590:	7ff10513          	addi	a0,sp,2047
   1a594:	32c50513          	addi	a0,a0,812
   1a598:	45cd                	li	a1,19
   1a59a:	05a2                	slli	a1,a1,0x8
   1a59c:	958a                	add	a1,a1,sp
   1a59e:	465d                	li	a2,23
   1a5a0:	00001097          	auipc	ra,0x1
   1a5a4:	7b4080e7          	jalr	1972(ra) # 1bd54 <memcpy>
   1a5a8:	6505                	lui	a0,0x1
   1a5aa:	35c50513          	addi	a0,a0,860 # 135c <.Lline_table_start1+0x1131>
   1a5ae:	950a                	add	a0,a0,sp
   1a5b0:	7ff10593          	addi	a1,sp,2047
   1a5b4:	32558593          	addi	a1,a1,805
   1a5b8:	ffffb097          	auipc	ra,0xffffb
   1a5bc:	bce080e7          	jalr	-1074(ra) # 15186 <_ZN18complex_no_dynamic3app17h7ef29737027d874bE>
   1a5c0:	398b4503          	lbu	a0,920(s6)
   1a5c4:	c119                	beqz	a0,1a5ca <_start+0x27e2>
   1a5c6:	6880106f          	j	1bc4e <_start+0x3e66>
   1a5ca:	399b4503          	lbu	a0,921(s6)
   1a5ce:	39ab4583          	lbu	a1,922(s6)
   1a5d2:	39bb4803          	lbu	a6,923(s6)
   1a5d6:	39cb2683          	lw	a3,924(s6)
   1a5da:	3a0b2703          	lw	a4,928(s6)
   1a5de:	3a4b2783          	lw	a5,932(s6)
   1a5e2:	3a8b2483          	lw	s1,936(s6)
   1a5e6:	3acb2603          	lw	a2,940(s6)
   1a5ea:	32eb2e23          	sw	a4,828(s6)
   1a5ee:	34fb2023          	sw	a5,832(s6)
   1a5f2:	349b2223          	sw	s1,836(s6)
   1a5f6:	34cb2423          	sw	a2,840(s6)
   1a5fa:	3b0b2603          	lw	a2,944(s6)
   1a5fe:	3b4b2703          	lw	a4,948(s6)
   1a602:	3b8b1783          	lh	a5,952(s6)
   1a606:	05a2                	slli	a1,a1,0x8
   1a608:	34cb2623          	sw	a2,844(s6)
   1a60c:	34eb2823          	sw	a4,848(s6)
   1a610:	34fb1a23          	sh	a5,852(s6)
   1a614:	0186d613          	srli	a2,a3,0x18
   1a618:	8d4d                	or	a0,a0,a1
   1a61a:	0106d593          	srli	a1,a3,0x10
   1a61e:	38b401a3          	sb	a1,899(s0)
   1a622:	38c40223          	sb	a2,900(s0)
   1a626:	0086d593          	srli	a1,a3,0x8
   1a62a:	36a41f23          	sh	a0,894(s0)
   1a62e:	39040023          	sb	a6,896(s0)
   1a632:	38d400a3          	sb	a3,897(s0)
   1a636:	38b40123          	sb	a1,898(s0)
   1a63a:	7ff10513          	addi	a0,sp,2047
   1a63e:	34a50513          	addi	a0,a0,842
   1a642:	45cd                	li	a1,19
   1a644:	05a2                	slli	a1,a1,0x8
   1a646:	958a                	add	a1,a1,sp
   1a648:	4669                	li	a2,26
   1a64a:	00001097          	auipc	ra,0x1
   1a64e:	70a080e7          	jalr	1802(ra) # 1bd54 <memcpy>
   1a652:	6505                	lui	a0,0x1
   1a654:	35c50513          	addi	a0,a0,860 # 135c <.Lline_table_start1+0x1131>
   1a658:	950a                	add	a0,a0,sp
   1a65a:	7ff10593          	addi	a1,sp,2047
   1a65e:	34358593          	addi	a1,a1,835
   1a662:	ffffc097          	auipc	ra,0xffffc
   1a666:	fac080e7          	jalr	-84(ra) # 1660e <_ZN18complex_no_dynamic3app17hbb643ed1a78319afE>
   1a66a:	398b4503          	lbu	a0,920(s6)
   1a66e:	c119                	beqz	a0,1a674 <_start+0x288c>
   1a670:	5de0106f          	j	1bc4e <_start+0x3e66>
   1a674:	39ab4503          	lbu	a0,922(s6)
   1a678:	399b4583          	lbu	a1,921(s6)
   1a67c:	39bb4603          	lbu	a2,923(s6)
   1a680:	39cb2483          	lw	s1,924(s6)
   1a684:	0522                	slli	a0,a0,0x8
   1a686:	8d4d                	or	a0,a0,a1
   1a688:	3aa41023          	sh	a0,928(s0)
   1a68c:	3ac40123          	sb	a2,930(s0)
   1a690:	6505                	lui	a0,0x1
   1a692:	36450513          	addi	a0,a0,868 # 1364 <.Lline_table_start1+0x1139>
   1a696:	00a105b3          	add	a1,sp,a0
   1a69a:	454d                	li	a0,19
   1a69c:	0522                	slli	a0,a0,0x8
   1a69e:	950a                	add	a0,a0,sp
   1a6a0:	02300613          	li	a2,35
   1a6a4:	00001097          	auipc	ra,0x1
   1a6a8:	6b0080e7          	jalr	1712(ra) # 1bd54 <memcpy>
   1a6ac:	0184d513          	srli	a0,s1,0x18
   1a6b0:	0104d593          	srli	a1,s1,0x10
   1a6b4:	0084d613          	srli	a2,s1,0x8
   1a6b8:	3a9401a3          	sb	s1,931(s0)
   1a6bc:	3ac40223          	sb	a2,932(s0)
   1a6c0:	3ab402a3          	sb	a1,933(s0)
   1a6c4:	3aa40323          	sb	a0,934(s0)
   1a6c8:	7ff10513          	addi	a0,sp,2047
   1a6cc:	36c50513          	addi	a0,a0,876
   1a6d0:	45cd                	li	a1,19
   1a6d2:	05a2                	slli	a1,a1,0x8
   1a6d4:	958a                	add	a1,a1,sp
   1a6d6:	02300613          	li	a2,35
   1a6da:	00001097          	auipc	ra,0x1
   1a6de:	67a080e7          	jalr	1658(ra) # 1bd54 <memcpy>
   1a6e2:	6505                	lui	a0,0x1
   1a6e4:	35c50513          	addi	a0,a0,860 # 135c <.Lline_table_start1+0x1131>
   1a6e8:	950a                	add	a0,a0,sp
   1a6ea:	7ff10593          	addi	a1,sp,2047
   1a6ee:	36558593          	addi	a1,a1,869
   1a6f2:	ffffc097          	auipc	ra,0xffffc
   1a6f6:	a2c080e7          	jalr	-1492(ra) # 1611e <_ZN18complex_no_dynamic3app17hb49248a947dbbbb9E>
   1a6fa:	398b4503          	lbu	a0,920(s6)
   1a6fe:	c119                	beqz	a0,1a704 <_start+0x291c>
   1a700:	54e0106f          	j	1bc4e <_start+0x3e66>
   1a704:	39ab4503          	lbu	a0,922(s6)
   1a708:	399b4583          	lbu	a1,921(s6)
   1a70c:	39bb4603          	lbu	a2,923(s6)
   1a710:	39cb2483          	lw	s1,924(s6)
   1a714:	0522                	slli	a0,a0,0x8
   1a716:	8d4d                	or	a0,a0,a1
   1a718:	3ca41523          	sh	a0,970(s0)
   1a71c:	3cc40623          	sb	a2,972(s0)
   1a720:	6505                	lui	a0,0x1
   1a722:	36450513          	addi	a0,a0,868 # 1364 <.Lline_table_start1+0x1139>
   1a726:	00a105b3          	add	a1,sp,a0
   1a72a:	454d                	li	a0,19
   1a72c:	0522                	slli	a0,a0,0x8
   1a72e:	950a                	add	a0,a0,sp
   1a730:	05200613          	li	a2,82
   1a734:	00001097          	auipc	ra,0x1
   1a738:	620080e7          	jalr	1568(ra) # 1bd54 <memcpy>
   1a73c:	0184d513          	srli	a0,s1,0x18
   1a740:	0104d593          	srli	a1,s1,0x10
   1a744:	0084d613          	srli	a2,s1,0x8
   1a748:	3c9406a3          	sb	s1,973(s0)
   1a74c:	3cc40723          	sb	a2,974(s0)
   1a750:	3cb407a3          	sb	a1,975(s0)
   1a754:	3ca40823          	sb	a0,976(s0)
   1a758:	7ff10513          	addi	a0,sp,2047
   1a75c:	39650513          	addi	a0,a0,918
   1a760:	45cd                	li	a1,19
   1a762:	05a2                	slli	a1,a1,0x8
   1a764:	958a                	add	a1,a1,sp
   1a766:	05200613          	li	a2,82
   1a76a:	00001097          	auipc	ra,0x1
   1a76e:	5ea080e7          	jalr	1514(ra) # 1bd54 <memcpy>
   1a772:	6505                	lui	a0,0x1
   1a774:	35c50513          	addi	a0,a0,860 # 135c <.Lline_table_start1+0x1131>
   1a778:	950a                	add	a0,a0,sp
   1a77a:	7ff10593          	addi	a1,sp,2047
   1a77e:	38f58593          	addi	a1,a1,911
   1a782:	ffffd097          	auipc	ra,0xffffd
   1a786:	866080e7          	jalr	-1946(ra) # 16fe8 <_ZN18complex_no_dynamic3app17hdec833a6f031e443E>
   1a78a:	398b4503          	lbu	a0,920(s6)
   1a78e:	c119                	beqz	a0,1a794 <_start+0x29ac>
   1a790:	4be0106f          	j	1bc4e <_start+0x3e66>
   1a794:	39ab4503          	lbu	a0,922(s6)
   1a798:	399b4583          	lbu	a1,921(s6)
   1a79c:	39bb4603          	lbu	a2,923(s6)
   1a7a0:	39cb2483          	lw	s1,924(s6)
   1a7a4:	0522                	slli	a0,a0,0x8
   1a7a6:	8d4d                	or	a0,a0,a1
   1a7a8:	42a41223          	sh	a0,1060(s0)
   1a7ac:	42c40323          	sb	a2,1062(s0)
   1a7b0:	6505                	lui	a0,0x1
   1a7b2:	36450513          	addi	a0,a0,868 # 1364 <.Lline_table_start1+0x1139>
   1a7b6:	00a105b3          	add	a1,sp,a0
   1a7ba:	454d                	li	a0,19
   1a7bc:	0522                	slli	a0,a0,0x8
   1a7be:	950a                	add	a0,a0,sp
   1a7c0:	04300613          	li	a2,67
   1a7c4:	00001097          	auipc	ra,0x1
   1a7c8:	590080e7          	jalr	1424(ra) # 1bd54 <memcpy>
   1a7cc:	0184d513          	srli	a0,s1,0x18
   1a7d0:	0104d593          	srli	a1,s1,0x10
   1a7d4:	0084d613          	srli	a2,s1,0x8
   1a7d8:	429403a3          	sb	s1,1063(s0)
   1a7dc:	42c40423          	sb	a2,1064(s0)
   1a7e0:	42b404a3          	sb	a1,1065(s0)
   1a7e4:	42a40523          	sb	a0,1066(s0)
   1a7e8:	7ff10513          	addi	a0,sp,2047
   1a7ec:	3f050513          	addi	a0,a0,1008
   1a7f0:	45cd                	li	a1,19
   1a7f2:	05a2                	slli	a1,a1,0x8
   1a7f4:	958a                	add	a1,a1,sp
   1a7f6:	04300613          	li	a2,67
   1a7fa:	00001097          	auipc	ra,0x1
   1a7fe:	55a080e7          	jalr	1370(ra) # 1bd54 <memcpy>
   1a802:	6505                	lui	a0,0x1
   1a804:	35c50513          	addi	a0,a0,860 # 135c <.Lline_table_start1+0x1131>
   1a808:	950a                	add	a0,a0,sp
   1a80a:	7ff10593          	addi	a1,sp,2047
   1a80e:	3e958593          	addi	a1,a1,1001
   1a812:	ffffd097          	auipc	ra,0xffffd
   1a816:	ce2080e7          	jalr	-798(ra) # 174f4 <_ZN18complex_no_dynamic3app17heea8281dd77529d2E>
   1a81a:	398b4503          	lbu	a0,920(s6)
   1a81e:	c119                	beqz	a0,1a824 <_start+0x2a3c>
   1a820:	42e0106f          	j	1bc4e <_start+0x3e66>
   1a824:	39ab4503          	lbu	a0,922(s6)
   1a828:	399b4583          	lbu	a1,921(s6)
   1a82c:	39bb4603          	lbu	a2,923(s6)
   1a830:	39cb2483          	lw	s1,924(s6)
   1a834:	0522                	slli	a0,a0,0x8
   1a836:	8d4d                	or	a0,a0,a1
   1a838:	46a41723          	sh	a0,1134(s0)
   1a83c:	46c40823          	sb	a2,1136(s0)
   1a840:	6505                	lui	a0,0x1
   1a842:	36450513          	addi	a0,a0,868 # 1364 <.Lline_table_start1+0x1139>
   1a846:	00a105b3          	add	a1,sp,a0
   1a84a:	454d                	li	a0,19
   1a84c:	0522                	slli	a0,a0,0x8
   1a84e:	950a                	add	a0,a0,sp
   1a850:	02600613          	li	a2,38
   1a854:	00001097          	auipc	ra,0x1
   1a858:	500080e7          	jalr	1280(ra) # 1bd54 <memcpy>
   1a85c:	0184d513          	srli	a0,s1,0x18
   1a860:	0104d593          	srli	a1,s1,0x10
   1a864:	0084d613          	srli	a2,s1,0x8
   1a868:	469408a3          	sb	s1,1137(s0)
   1a86c:	46c40923          	sb	a2,1138(s0)
   1a870:	46b409a3          	sb	a1,1139(s0)
   1a874:	46a40a23          	sb	a0,1140(s0)
   1a878:	7ff10513          	addi	a0,sp,2047
   1a87c:	43a50513          	addi	a0,a0,1082
   1a880:	45cd                	li	a1,19
   1a882:	05a2                	slli	a1,a1,0x8
   1a884:	958a                	add	a1,a1,sp
   1a886:	02600613          	li	a2,38
   1a88a:	00001097          	auipc	ra,0x1
   1a88e:	4ca080e7          	jalr	1226(ra) # 1bd54 <memcpy>
   1a892:	6505                	lui	a0,0x1
   1a894:	35c50513          	addi	a0,a0,860 # 135c <.Lline_table_start1+0x1131>
   1a898:	950a                	add	a0,a0,sp
   1a89a:	7ff10593          	addi	a1,sp,2047
   1a89e:	43358593          	addi	a1,a1,1075
   1a8a2:	ffff8097          	auipc	ra,0xffff8
   1a8a6:	13a080e7          	jalr	314(ra) # 129dc <_ZN18complex_no_dynamic3app17h2bee3b25e1af3963E>
   1a8aa:	398b4503          	lbu	a0,920(s6)
   1a8ae:	c119                	beqz	a0,1a8b4 <_start+0x2acc>
   1a8b0:	39e0106f          	j	1bc4e <_start+0x3e66>
   1a8b4:	39ab4503          	lbu	a0,922(s6)
   1a8b8:	399b4583          	lbu	a1,921(s6)
   1a8bc:	39bb4603          	lbu	a2,923(s6)
   1a8c0:	39cb2483          	lw	s1,924(s6)
   1a8c4:	0522                	slli	a0,a0,0x8
   1a8c6:	8d4d                	or	a0,a0,a1
   1a8c8:	48a41e23          	sh	a0,1180(s0)
   1a8cc:	48c40f23          	sb	a2,1182(s0)
   1a8d0:	6505                	lui	a0,0x1
   1a8d2:	36450513          	addi	a0,a0,868 # 1364 <.Lline_table_start1+0x1139>
   1a8d6:	00a105b3          	add	a1,sp,a0
   1a8da:	454d                	li	a0,19
   1a8dc:	0522                	slli	a0,a0,0x8
   1a8de:	950a                	add	a0,a0,sp
   1a8e0:	04c00613          	li	a2,76
   1a8e4:	00001097          	auipc	ra,0x1
   1a8e8:	470080e7          	jalr	1136(ra) # 1bd54 <memcpy>
   1a8ec:	0184d513          	srli	a0,s1,0x18
   1a8f0:	0104d593          	srli	a1,s1,0x10
   1a8f4:	0084d613          	srli	a2,s1,0x8
   1a8f8:	48940fa3          	sb	s1,1183(s0)
   1a8fc:	4ac40023          	sb	a2,1184(s0)
   1a900:	4ab400a3          	sb	a1,1185(s0)
   1a904:	4aa40123          	sb	a0,1186(s0)
   1a908:	7ff10513          	addi	a0,sp,2047
   1a90c:	46850513          	addi	a0,a0,1128
   1a910:	45cd                	li	a1,19
   1a912:	05a2                	slli	a1,a1,0x8
   1a914:	958a                	add	a1,a1,sp
   1a916:	04c00613          	li	a2,76
   1a91a:	00001097          	auipc	ra,0x1
   1a91e:	43a080e7          	jalr	1082(ra) # 1bd54 <memcpy>
   1a922:	6505                	lui	a0,0x1
   1a924:	35c50513          	addi	a0,a0,860 # 135c <.Lline_table_start1+0x1131>
   1a928:	950a                	add	a0,a0,sp
   1a92a:	7ff10593          	addi	a1,sp,2047
   1a92e:	46158593          	addi	a1,a1,1121
   1a932:	ffff8097          	auipc	ra,0xffff8
   1a936:	d9c080e7          	jalr	-612(ra) # 126ce <_ZN18complex_no_dynamic3app17h28f2c9b208419f2eE>
   1a93a:	398b4503          	lbu	a0,920(s6)
   1a93e:	c119                	beqz	a0,1a944 <_start+0x2b5c>
   1a940:	30e0106f          	j	1bc4e <_start+0x3e66>
   1a944:	39ab4503          	lbu	a0,922(s6)
   1a948:	399b4583          	lbu	a1,921(s6)
   1a94c:	39bb4603          	lbu	a2,923(s6)
   1a950:	39cb2483          	lw	s1,924(s6)
   1a954:	0522                	slli	a0,a0,0x8
   1a956:	8d4d                	or	a0,a0,a1
   1a958:	4ea41823          	sh	a0,1264(s0)
   1a95c:	4ec40923          	sb	a2,1266(s0)
   1a960:	6505                	lui	a0,0x1
   1a962:	36450513          	addi	a0,a0,868 # 1364 <.Lline_table_start1+0x1139>
   1a966:	00a105b3          	add	a1,sp,a0
   1a96a:	454d                	li	a0,19
   1a96c:	0522                	slli	a0,a0,0x8
   1a96e:	950a                	add	a0,a0,sp
   1a970:	03300613          	li	a2,51
   1a974:	00001097          	auipc	ra,0x1
   1a978:	3e0080e7          	jalr	992(ra) # 1bd54 <memcpy>
   1a97c:	0184d513          	srli	a0,s1,0x18
   1a980:	0104d593          	srli	a1,s1,0x10
   1a984:	0084d613          	srli	a2,s1,0x8
   1a988:	4e9409a3          	sb	s1,1267(s0)
   1a98c:	4ec40a23          	sb	a2,1268(s0)
   1a990:	4eb40aa3          	sb	a1,1269(s0)
   1a994:	4ea40b23          	sb	a0,1270(s0)
   1a998:	7ff10513          	addi	a0,sp,2047
   1a99c:	4bc50513          	addi	a0,a0,1212
   1a9a0:	45cd                	li	a1,19
   1a9a2:	05a2                	slli	a1,a1,0x8
   1a9a4:	958a                	add	a1,a1,sp
   1a9a6:	03300613          	li	a2,51
   1a9aa:	00001097          	auipc	ra,0x1
   1a9ae:	3aa080e7          	jalr	938(ra) # 1bd54 <memcpy>
   1a9b2:	6505                	lui	a0,0x1
   1a9b4:	35c50513          	addi	a0,a0,860 # 135c <.Lline_table_start1+0x1131>
   1a9b8:	950a                	add	a0,a0,sp
   1a9ba:	7ff10593          	addi	a1,sp,2047
   1a9be:	4b558593          	addi	a1,a1,1205
   1a9c2:	ffff9097          	auipc	ra,0xffff9
   1a9c6:	cc2080e7          	jalr	-830(ra) # 13684 <_ZN18complex_no_dynamic3app17h42b6757196b3fa85E>
   1a9ca:	398b4503          	lbu	a0,920(s6)
   1a9ce:	c119                	beqz	a0,1a9d4 <_start+0x2bec>
   1a9d0:	27e0106f          	j	1bc4e <_start+0x3e66>
   1a9d4:	39ab4503          	lbu	a0,922(s6)
   1a9d8:	399b4583          	lbu	a1,921(s6)
   1a9dc:	39bb4603          	lbu	a2,923(s6)
   1a9e0:	39cb2483          	lw	s1,924(s6)
   1a9e4:	0522                	slli	a0,a0,0x8
   1a9e6:	8d4d                	or	a0,a0,a1
   1a9e8:	52a41523          	sh	a0,1322(s0)
   1a9ec:	52c40623          	sb	a2,1324(s0)
   1a9f0:	6505                	lui	a0,0x1
   1a9f2:	36450513          	addi	a0,a0,868 # 1364 <.Lline_table_start1+0x1139>
   1a9f6:	00a105b3          	add	a1,sp,a0
   1a9fa:	454d                	li	a0,19
   1a9fc:	0522                	slli	a0,a0,0x8
   1a9fe:	950a                	add	a0,a0,sp
   1aa00:	05600613          	li	a2,86
   1aa04:	00001097          	auipc	ra,0x1
   1aa08:	350080e7          	jalr	848(ra) # 1bd54 <memcpy>
   1aa0c:	0184d513          	srli	a0,s1,0x18
   1aa10:	0104d593          	srli	a1,s1,0x10
   1aa14:	0084d613          	srli	a2,s1,0x8
   1aa18:	529406a3          	sb	s1,1325(s0)
   1aa1c:	52c40723          	sb	a2,1326(s0)
   1aa20:	52b407a3          	sb	a1,1327(s0)
   1aa24:	52a40823          	sb	a0,1328(s0)
   1aa28:	7ff10513          	addi	a0,sp,2047
   1aa2c:	4f650513          	addi	a0,a0,1270
   1aa30:	45cd                	li	a1,19
   1aa32:	05a2                	slli	a1,a1,0x8
   1aa34:	958a                	add	a1,a1,sp
   1aa36:	05600613          	li	a2,86
   1aa3a:	00001097          	auipc	ra,0x1
   1aa3e:	31a080e7          	jalr	794(ra) # 1bd54 <memcpy>
   1aa42:	6505                	lui	a0,0x1
   1aa44:	35c50513          	addi	a0,a0,860 # 135c <.Lline_table_start1+0x1131>
   1aa48:	950a                	add	a0,a0,sp
   1aa4a:	7ff10593          	addi	a1,sp,2047
   1aa4e:	4ef58593          	addi	a1,a1,1263
   1aa52:	ffffa097          	auipc	ra,0xffffa
   1aa56:	636080e7          	jalr	1590(ra) # 15088 <_ZN18complex_no_dynamic3app17h7a99a3a1f1cc4fd0E>
   1aa5a:	398b4503          	lbu	a0,920(s6)
   1aa5e:	c119                	beqz	a0,1aa64 <_start+0x2c7c>
   1aa60:	1ee0106f          	j	1bc4e <_start+0x3e66>
   1aa64:	39ab4503          	lbu	a0,922(s6)
   1aa68:	399b4583          	lbu	a1,921(s6)
   1aa6c:	39bb4603          	lbu	a2,923(s6)
   1aa70:	39cb2483          	lw	s1,924(s6)
   1aa74:	0522                	slli	a0,a0,0x8
   1aa76:	8d4d                	or	a0,a0,a1
   1aa78:	58a41423          	sh	a0,1416(s0)
   1aa7c:	58c40523          	sb	a2,1418(s0)
   1aa80:	6505                	lui	a0,0x1
   1aa82:	36450513          	addi	a0,a0,868 # 1364 <.Lline_table_start1+0x1139>
   1aa86:	00a105b3          	add	a1,sp,a0
   1aa8a:	454d                	li	a0,19
   1aa8c:	0522                	slli	a0,a0,0x8
   1aa8e:	950a                	add	a0,a0,sp
   1aa90:	03900613          	li	a2,57
   1aa94:	00001097          	auipc	ra,0x1
   1aa98:	2c0080e7          	jalr	704(ra) # 1bd54 <memcpy>
   1aa9c:	0184d513          	srli	a0,s1,0x18
   1aaa0:	0104d593          	srli	a1,s1,0x10
   1aaa4:	0084d613          	srli	a2,s1,0x8
   1aaa8:	589405a3          	sb	s1,1419(s0)
   1aaac:	58c40623          	sb	a2,1420(s0)
   1aab0:	58b406a3          	sb	a1,1421(s0)
   1aab4:	58a40723          	sb	a0,1422(s0)
   1aab8:	7ff10513          	addi	a0,sp,2047
   1aabc:	55450513          	addi	a0,a0,1364
   1aac0:	45cd                	li	a1,19
   1aac2:	05a2                	slli	a1,a1,0x8
   1aac4:	958a                	add	a1,a1,sp
   1aac6:	03900613          	li	a2,57
   1aaca:	00001097          	auipc	ra,0x1
   1aace:	28a080e7          	jalr	650(ra) # 1bd54 <memcpy>
   1aad2:	6505                	lui	a0,0x1
   1aad4:	35c50513          	addi	a0,a0,860 # 135c <.Lline_table_start1+0x1131>
   1aad8:	950a                	add	a0,a0,sp
   1aada:	7ff10593          	addi	a1,sp,2047
   1aade:	54d58593          	addi	a1,a1,1357
   1aae2:	ffffc097          	auipc	ra,0xffffc
   1aae6:	60c080e7          	jalr	1548(ra) # 170ee <_ZN18complex_no_dynamic3app17he6970005dc662670E>
   1aaea:	398b4503          	lbu	a0,920(s6)
   1aaee:	c119                	beqz	a0,1aaf4 <_start+0x2d0c>
   1aaf0:	15e0106f          	j	1bc4e <_start+0x3e66>
   1aaf4:	39ab4503          	lbu	a0,922(s6)
   1aaf8:	399b4583          	lbu	a1,921(s6)
   1aafc:	39bb4603          	lbu	a2,923(s6)
   1ab00:	39cb2483          	lw	s1,924(s6)
   1ab04:	0522                	slli	a0,a0,0x8
   1ab06:	8d4d                	or	a0,a0,a1
   1ab08:	5ca41423          	sh	a0,1480(s0)
   1ab0c:	5cc40523          	sb	a2,1482(s0)
   1ab10:	6505                	lui	a0,0x1
   1ab12:	36450513          	addi	a0,a0,868 # 1364 <.Lline_table_start1+0x1139>
   1ab16:	00a105b3          	add	a1,sp,a0
   1ab1a:	454d                	li	a0,19
   1ab1c:	0522                	slli	a0,a0,0x8
   1ab1e:	950a                	add	a0,a0,sp
   1ab20:	02a00613          	li	a2,42
   1ab24:	00001097          	auipc	ra,0x1
   1ab28:	230080e7          	jalr	560(ra) # 1bd54 <memcpy>
   1ab2c:	0184d513          	srli	a0,s1,0x18
   1ab30:	0104d593          	srli	a1,s1,0x10
   1ab34:	0084d613          	srli	a2,s1,0x8
   1ab38:	5c9405a3          	sb	s1,1483(s0)
   1ab3c:	5cc40623          	sb	a2,1484(s0)
   1ab40:	5cb406a3          	sb	a1,1485(s0)
   1ab44:	5ca40723          	sb	a0,1486(s0)
   1ab48:	7ff10513          	addi	a0,sp,2047
   1ab4c:	59450513          	addi	a0,a0,1428
   1ab50:	45cd                	li	a1,19
   1ab52:	05a2                	slli	a1,a1,0x8
   1ab54:	958a                	add	a1,a1,sp
   1ab56:	02a00613          	li	a2,42
   1ab5a:	00001097          	auipc	ra,0x1
   1ab5e:	1fa080e7          	jalr	506(ra) # 1bd54 <memcpy>
   1ab62:	6505                	lui	a0,0x1
   1ab64:	35c50513          	addi	a0,a0,860 # 135c <.Lline_table_start1+0x1131>
   1ab68:	950a                	add	a0,a0,sp
   1ab6a:	7ff10593          	addi	a1,sp,2047
   1ab6e:	58d58593          	addi	a1,a1,1421
   1ab72:	ffffa097          	auipc	ra,0xffffa
   1ab76:	116080e7          	jalr	278(ra) # 14c88 <_ZN18complex_no_dynamic3app17h71377809033a85b1E>
   1ab7a:	398b4503          	lbu	a0,920(s6)
   1ab7e:	c119                	beqz	a0,1ab84 <_start+0x2d9c>
   1ab80:	0ce0106f          	j	1bc4e <_start+0x3e66>
   1ab84:	39ab4503          	lbu	a0,922(s6)
   1ab88:	399b4583          	lbu	a1,921(s6)
   1ab8c:	39bb4603          	lbu	a2,923(s6)
   1ab90:	39cb2483          	lw	s1,924(s6)
   1ab94:	0522                	slli	a0,a0,0x8
   1ab96:	8d4d                	or	a0,a0,a1
   1ab98:	5ea41d23          	sh	a0,1530(s0)
   1ab9c:	5ec40e23          	sb	a2,1532(s0)
   1aba0:	6505                	lui	a0,0x1
   1aba2:	36450513          	addi	a0,a0,868 # 1364 <.Lline_table_start1+0x1139>
   1aba6:	00a105b3          	add	a1,sp,a0
   1abaa:	454d                	li	a0,19
   1abac:	0522                	slli	a0,a0,0x8
   1abae:	950a                	add	a0,a0,sp
   1abb0:	04100613          	li	a2,65
   1abb4:	00001097          	auipc	ra,0x1
   1abb8:	1a0080e7          	jalr	416(ra) # 1bd54 <memcpy>
   1abbc:	0184d513          	srli	a0,s1,0x18
   1abc0:	0104d593          	srli	a1,s1,0x10
   1abc4:	0084d613          	srli	a2,s1,0x8
   1abc8:	5e940ea3          	sb	s1,1533(s0)
   1abcc:	5ec40f23          	sb	a2,1534(s0)
   1abd0:	5eb40fa3          	sb	a1,1535(s0)
   1abd4:	60a40023          	sb	a0,1536(s0)
   1abd8:	7ff10513          	addi	a0,sp,2047
   1abdc:	5c650513          	addi	a0,a0,1478
   1abe0:	45cd                	li	a1,19
   1abe2:	05a2                	slli	a1,a1,0x8
   1abe4:	958a                	add	a1,a1,sp
   1abe6:	04100613          	li	a2,65
   1abea:	00001097          	auipc	ra,0x1
   1abee:	16a080e7          	jalr	362(ra) # 1bd54 <memcpy>
   1abf2:	6505                	lui	a0,0x1
   1abf4:	35c50513          	addi	a0,a0,860 # 135c <.Lline_table_start1+0x1131>
   1abf8:	950a                	add	a0,a0,sp
   1abfa:	7ff10593          	addi	a1,sp,2047
   1abfe:	5bf58593          	addi	a1,a1,1471
   1ac02:	ffffc097          	auipc	ra,0xffffc
   1ac06:	1e4080e7          	jalr	484(ra) # 16de6 <_ZN18complex_no_dynamic3app17hd92b656d6a0ce80fE>
   1ac0a:	398b4503          	lbu	a0,920(s6)
   1ac0e:	c119                	beqz	a0,1ac14 <_start+0x2e2c>
   1ac10:	03e0106f          	j	1bc4e <_start+0x3e66>
   1ac14:	39ab4503          	lbu	a0,922(s6)
   1ac18:	399b4583          	lbu	a1,921(s6)
   1ac1c:	39bb4603          	lbu	a2,923(s6)
   1ac20:	39cb2483          	lw	s1,924(s6)
   1ac24:	0522                	slli	a0,a0,0x8
   1ac26:	8d4d                	or	a0,a0,a1
   1ac28:	64a41123          	sh	a0,1602(s0)
   1ac2c:	64c40223          	sb	a2,1604(s0)
   1ac30:	6505                	lui	a0,0x1
   1ac32:	36450513          	addi	a0,a0,868 # 1364 <.Lline_table_start1+0x1139>
   1ac36:	00a105b3          	add	a1,sp,a0
   1ac3a:	454d                	li	a0,19
   1ac3c:	0522                	slli	a0,a0,0x8
   1ac3e:	950a                	add	a0,a0,sp
   1ac40:	02200613          	li	a2,34
   1ac44:	00001097          	auipc	ra,0x1
   1ac48:	110080e7          	jalr	272(ra) # 1bd54 <memcpy>
   1ac4c:	0184d513          	srli	a0,s1,0x18
   1ac50:	0104d593          	srli	a1,s1,0x10
   1ac54:	0084d613          	srli	a2,s1,0x8
   1ac58:	649402a3          	sb	s1,1605(s0)
   1ac5c:	64c40323          	sb	a2,1606(s0)
   1ac60:	64b403a3          	sb	a1,1607(s0)
   1ac64:	64a40423          	sb	a0,1608(s0)
   1ac68:	7ff10513          	addi	a0,sp,2047
   1ac6c:	60e50513          	addi	a0,a0,1550
   1ac70:	45cd                	li	a1,19
   1ac72:	05a2                	slli	a1,a1,0x8
   1ac74:	958a                	add	a1,a1,sp
   1ac76:	02200613          	li	a2,34
   1ac7a:	00001097          	auipc	ra,0x1
   1ac7e:	0da080e7          	jalr	218(ra) # 1bd54 <memcpy>
   1ac82:	6505                	lui	a0,0x1
   1ac84:	35c50513          	addi	a0,a0,860 # 135c <.Lline_table_start1+0x1131>
   1ac88:	950a                	add	a0,a0,sp
   1ac8a:	7ff10593          	addi	a1,sp,2047
   1ac8e:	60758593          	addi	a1,a1,1543
   1ac92:	ffffb097          	auipc	ra,0xffffb
   1ac96:	f22080e7          	jalr	-222(ra) # 15bb4 <_ZN18complex_no_dynamic3app17ha0d3afebe21433f6E>
   1ac9a:	398b4503          	lbu	a0,920(s6)
   1ac9e:	7a0518e3          	bnez	a0,1bc4e <_start+0x3e66>
   1aca2:	399b4803          	lbu	a6,921(s6)
   1aca6:	39ab4583          	lbu	a1,922(s6)
   1acaa:	3a0b2603          	lw	a2,928(s6)
   1acae:	3a4b2683          	lw	a3,932(s6)
   1acb2:	3a8b2703          	lw	a4,936(s6)
   1acb6:	3acb2783          	lw	a5,940(s6)
   1acba:	3b0b1483          	lh	s1,944(s6)
   1acbe:	3b2b4503          	lbu	a0,946(s6)
   1acc2:	32cb2e23          	sw	a2,828(s6)
   1acc6:	34db2023          	sw	a3,832(s6)
   1acca:	34eb2223          	sw	a4,836(s6)
   1acce:	34fb2423          	sw	a5,840(s6)
   1acd2:	39bb4603          	lbu	a2,923(s6)
   1acd6:	39cb2683          	lw	a3,924(s6)
   1acda:	05a2                	slli	a1,a1,0x8
   1acdc:	349b1623          	sh	s1,844(s6)
   1ace0:	34ab0723          	sb	a0,846(s6)
   1ace4:	0186d513          	srli	a0,a3,0x18
   1ace8:	0105e5b3          	or	a1,a1,a6
   1acec:	0106d713          	srli	a4,a3,0x10
   1acf0:	66e408a3          	sb	a4,1649(s0)
   1acf4:	66a40923          	sb	a0,1650(s0)
   1acf8:	0086d513          	srli	a0,a3,0x8
   1acfc:	66b41623          	sh	a1,1644(s0)
   1ad00:	66c40723          	sb	a2,1646(s0)
   1ad04:	66d407a3          	sb	a3,1647(s0)
   1ad08:	66a40823          	sb	a0,1648(s0)
   1ad0c:	7ff10513          	addi	a0,sp,2047
   1ad10:	63850513          	addi	a0,a0,1592
   1ad14:	45cd                	li	a1,19
   1ad16:	05a2                	slli	a1,a1,0x8
   1ad18:	958a                	add	a1,a1,sp
   1ad1a:	464d                	li	a2,19
   1ad1c:	00001097          	auipc	ra,0x1
   1ad20:	038080e7          	jalr	56(ra) # 1bd54 <memcpy>
   1ad24:	6505                	lui	a0,0x1
   1ad26:	35c50513          	addi	a0,a0,860 # 135c <.Lline_table_start1+0x1131>
   1ad2a:	950a                	add	a0,a0,sp
   1ad2c:	7ff10593          	addi	a1,sp,2047
   1ad30:	63158593          	addi	a1,a1,1585
   1ad34:	ffff8097          	auipc	ra,0xffff8
   1ad38:	778080e7          	jalr	1912(ra) # 134ac <_ZN18complex_no_dynamic3app17h428566e17e8c047fE>
   1ad3c:	398b4503          	lbu	a0,920(s6)
   1ad40:	700517e3          	bnez	a0,1bc4e <_start+0x3e66>
   1ad44:	399b4883          	lbu	a7,921(s6)
   1ad48:	39ab4583          	lbu	a1,922(s6)
   1ad4c:	39bb4803          	lbu	a6,923(s6)
   1ad50:	39cb2683          	lw	a3,924(s6)
   1ad54:	3a0b2703          	lw	a4,928(s6)
   1ad58:	3a4b2783          	lw	a5,932(s6)
   1ad5c:	3a8b2483          	lw	s1,936(s6)
   1ad60:	3acb2603          	lw	a2,940(s6)
   1ad64:	3b0b2503          	lw	a0,944(s6)
   1ad68:	32eb2e23          	sw	a4,828(s6)
   1ad6c:	34fb2023          	sw	a5,832(s6)
   1ad70:	349b2223          	sw	s1,836(s6)
   1ad74:	34cb2423          	sw	a2,840(s6)
   1ad78:	05a2                	slli	a1,a1,0x8
   1ad7a:	34ab2623          	sw	a0,844(s6)
   1ad7e:	0186d513          	srli	a0,a3,0x18
   1ad82:	0115e5b3          	or	a1,a1,a7
   1ad86:	0106d613          	srli	a2,a3,0x10
   1ad8a:	68c405a3          	sb	a2,1675(s0)
   1ad8e:	68a40623          	sb	a0,1676(s0)
   1ad92:	0086d513          	srli	a0,a3,0x8
   1ad96:	68b41323          	sh	a1,1670(s0)
   1ad9a:	69040423          	sb	a6,1672(s0)
   1ad9e:	68d404a3          	sb	a3,1673(s0)
   1ada2:	68a40523          	sb	a0,1674(s0)
   1ada6:	7ff10513          	addi	a0,sp,2047
   1adaa:	65250513          	addi	a0,a0,1618
   1adae:	45cd                	li	a1,19
   1adb0:	05a2                	slli	a1,a1,0x8
   1adb2:	958a                	add	a1,a1,sp
   1adb4:	4651                	li	a2,20
   1adb6:	00001097          	auipc	ra,0x1
   1adba:	f9e080e7          	jalr	-98(ra) # 1bd54 <memcpy>
   1adbe:	6505                	lui	a0,0x1
   1adc0:	35c50513          	addi	a0,a0,860 # 135c <.Lline_table_start1+0x1131>
   1adc4:	950a                	add	a0,a0,sp
   1adc6:	7ff10593          	addi	a1,sp,2047
   1adca:	64b58593          	addi	a1,a1,1611
   1adce:	ffff9097          	auipc	ra,0xffff9
   1add2:	b42080e7          	jalr	-1214(ra) # 13910 <_ZN18complex_no_dynamic3app17h47ca065de2a0f58eE>
   1add6:	398b4503          	lbu	a0,920(s6)
   1adda:	66051ae3          	bnez	a0,1bc4e <_start+0x3e66>
   1adde:	39ab4503          	lbu	a0,922(s6)
   1ade2:	399b4583          	lbu	a1,921(s6)
   1ade6:	39bb4603          	lbu	a2,923(s6)
   1adea:	39cb2483          	lw	s1,924(s6)
   1adee:	0522                	slli	a0,a0,0x8
   1adf0:	8d4d                	or	a0,a0,a1
   1adf2:	6aa41123          	sh	a0,1698(s0)
   1adf6:	6ac40223          	sb	a2,1700(s0)
   1adfa:	6505                	lui	a0,0x1
   1adfc:	36450513          	addi	a0,a0,868 # 1364 <.Lline_table_start1+0x1139>
   1ae00:	00a105b3          	add	a1,sp,a0
   1ae04:	454d                	li	a0,19
   1ae06:	0522                	slli	a0,a0,0x8
   1ae08:	950a                	add	a0,a0,sp
   1ae0a:	03a00613          	li	a2,58
   1ae0e:	00001097          	auipc	ra,0x1
   1ae12:	f46080e7          	jalr	-186(ra) # 1bd54 <memcpy>
   1ae16:	0184d513          	srli	a0,s1,0x18
   1ae1a:	0104d593          	srli	a1,s1,0x10
   1ae1e:	0084d613          	srli	a2,s1,0x8
   1ae22:	6a9402a3          	sb	s1,1701(s0)
   1ae26:	6ac40323          	sb	a2,1702(s0)
   1ae2a:	6ab403a3          	sb	a1,1703(s0)
   1ae2e:	6aa40423          	sb	a0,1704(s0)
   1ae32:	7ff10513          	addi	a0,sp,2047
   1ae36:	66e50513          	addi	a0,a0,1646
   1ae3a:	45cd                	li	a1,19
   1ae3c:	05a2                	slli	a1,a1,0x8
   1ae3e:	958a                	add	a1,a1,sp
   1ae40:	03a00613          	li	a2,58
   1ae44:	00001097          	auipc	ra,0x1
   1ae48:	f10080e7          	jalr	-240(ra) # 1bd54 <memcpy>
   1ae4c:	6505                	lui	a0,0x1
   1ae4e:	35c50513          	addi	a0,a0,860 # 135c <.Lline_table_start1+0x1131>
   1ae52:	950a                	add	a0,a0,sp
   1ae54:	7ff10593          	addi	a1,sp,2047
   1ae58:	66758593          	addi	a1,a1,1639
   1ae5c:	ffffb097          	auipc	ra,0xffffb
   1ae60:	058080e7          	jalr	88(ra) # 15eb4 <_ZN18complex_no_dynamic3app17hb103d22521799e85E>
   1ae64:	398b4503          	lbu	a0,920(s6)
   1ae68:	5e0513e3          	bnez	a0,1bc4e <_start+0x3e66>
   1ae6c:	399b4883          	lbu	a7,921(s6)
   1ae70:	39ab4583          	lbu	a1,922(s6)
   1ae74:	39bb4803          	lbu	a6,923(s6)
   1ae78:	39cb2683          	lw	a3,924(s6)
   1ae7c:	3a0b2703          	lw	a4,928(s6)
   1ae80:	3a4b2783          	lw	a5,932(s6)
   1ae84:	3a8b2483          	lw	s1,936(s6)
   1ae88:	3acb2603          	lw	a2,940(s6)
   1ae8c:	3b0b4503          	lbu	a0,944(s6)
   1ae90:	32eb2e23          	sw	a4,828(s6)
   1ae94:	34fb2023          	sw	a5,832(s6)
   1ae98:	349b2223          	sw	s1,836(s6)
   1ae9c:	34cb2423          	sw	a2,840(s6)
   1aea0:	05a2                	slli	a1,a1,0x8
   1aea2:	34ab0623          	sb	a0,844(s6)
   1aea6:	0186d513          	srli	a0,a3,0x18
   1aeaa:	0115e5b3          	or	a1,a1,a7
   1aeae:	0106d613          	srli	a2,a3,0x10
   1aeb2:	6ec404a3          	sb	a2,1769(s0)
   1aeb6:	6ea40523          	sb	a0,1770(s0)
   1aeba:	0086d513          	srli	a0,a3,0x8
   1aebe:	6eb41223          	sh	a1,1764(s0)
   1aec2:	6f040323          	sb	a6,1766(s0)
   1aec6:	6ed403a3          	sb	a3,1767(s0)
   1aeca:	6ea40423          	sb	a0,1768(s0)
   1aece:	7ff10513          	addi	a0,sp,2047
   1aed2:	6b050513          	addi	a0,a0,1712
   1aed6:	45cd                	li	a1,19
   1aed8:	05a2                	slli	a1,a1,0x8
   1aeda:	958a                	add	a1,a1,sp
   1aedc:	4645                	li	a2,17
   1aede:	00001097          	auipc	ra,0x1
   1aee2:	e76080e7          	jalr	-394(ra) # 1bd54 <memcpy>
   1aee6:	6505                	lui	a0,0x1
   1aee8:	35c50513          	addi	a0,a0,860 # 135c <.Lline_table_start1+0x1131>
   1aeec:	950a                	add	a0,a0,sp
   1aeee:	7ff10593          	addi	a1,sp,2047
   1aef2:	6a958593          	addi	a1,a1,1705
   1aef6:	ffff7097          	auipc	ra,0xffff7
   1aefa:	24a080e7          	jalr	586(ra) # 12140 <_ZN18complex_no_dynamic3app17h22ce6be9ee6c1847E>
   1aefe:	398b4503          	lbu	a0,920(s6)
   1af02:	540516e3          	bnez	a0,1bc4e <_start+0x3e66>
   1af06:	399b4503          	lbu	a0,921(s6)
   1af0a:	39ab4583          	lbu	a1,922(s6)
   1af0e:	39bb4803          	lbu	a6,923(s6)
   1af12:	39cb2683          	lw	a3,924(s6)
   1af16:	3a0b2703          	lw	a4,928(s6)
   1af1a:	3a4b2783          	lw	a5,932(s6)
   1af1e:	3a8b2483          	lw	s1,936(s6)
   1af22:	3acb2603          	lw	a2,940(s6)
   1af26:	32eb2e23          	sw	a4,828(s6)
   1af2a:	34fb2023          	sw	a5,832(s6)
   1af2e:	349b2223          	sw	s1,836(s6)
   1af32:	34cb2423          	sw	a2,840(s6)
   1af36:	3b0b2603          	lw	a2,944(s6)
   1af3a:	3b4b1703          	lh	a4,948(s6)
   1af3e:	3b6b4783          	lbu	a5,950(s6)
   1af42:	05a2                	slli	a1,a1,0x8
   1af44:	34cb2623          	sw	a2,844(s6)
   1af48:	34eb1823          	sh	a4,848(s6)
   1af4c:	34fb0923          	sb	a5,850(s6)
   1af50:	0186d613          	srli	a2,a3,0x18
   1af54:	8d4d                	or	a0,a0,a1
   1af56:	0106d593          	srli	a1,a3,0x10
   1af5a:	70b400a3          	sb	a1,1793(s0)
   1af5e:	70c40123          	sb	a2,1794(s0)
   1af62:	0086d593          	srli	a1,a3,0x8
   1af66:	6ea41e23          	sh	a0,1788(s0)
   1af6a:	6f040f23          	sb	a6,1790(s0)
   1af6e:	6ed40fa3          	sb	a3,1791(s0)
   1af72:	70b40023          	sb	a1,1792(s0)
   1af76:	7ff10513          	addi	a0,sp,2047
   1af7a:	6c850513          	addi	a0,a0,1736
   1af7e:	45cd                	li	a1,19
   1af80:	05a2                	slli	a1,a1,0x8
   1af82:	958a                	add	a1,a1,sp
   1af84:	465d                	li	a2,23
   1af86:	00001097          	auipc	ra,0x1
   1af8a:	dce080e7          	jalr	-562(ra) # 1bd54 <memcpy>
   1af8e:	6505                	lui	a0,0x1
   1af90:	35c50513          	addi	a0,a0,860 # 135c <.Lline_table_start1+0x1131>
   1af94:	950a                	add	a0,a0,sp
   1af96:	7ff10593          	addi	a1,sp,2047
   1af9a:	6c158593          	addi	a1,a1,1729
   1af9e:	ffffb097          	auipc	ra,0xffffb
   1afa2:	47c080e7          	jalr	1148(ra) # 1641a <_ZN18complex_no_dynamic3app17hb8626b2a04109e71E>
   1afa6:	398b4503          	lbu	a0,920(s6)
   1afaa:	4a0512e3          	bnez	a0,1bc4e <_start+0x3e66>
   1afae:	39ab4503          	lbu	a0,922(s6)
   1afb2:	399b4583          	lbu	a1,921(s6)
   1afb6:	39bb4603          	lbu	a2,923(s6)
   1afba:	39cb2483          	lw	s1,924(s6)
   1afbe:	0522                	slli	a0,a0,0x8
   1afc0:	8d4d                	or	a0,a0,a1
   1afc2:	70a41d23          	sh	a0,1818(s0)
   1afc6:	70c40e23          	sb	a2,1820(s0)
   1afca:	6505                	lui	a0,0x1
   1afcc:	36450513          	addi	a0,a0,868 # 1364 <.Lline_table_start1+0x1139>
   1afd0:	00a105b3          	add	a1,sp,a0
   1afd4:	454d                	li	a0,19
   1afd6:	0522                	slli	a0,a0,0x8
   1afd8:	950a                	add	a0,a0,sp
   1afda:	03500613          	li	a2,53
   1afde:	00001097          	auipc	ra,0x1
   1afe2:	d76080e7          	jalr	-650(ra) # 1bd54 <memcpy>
   1afe6:	0184d513          	srli	a0,s1,0x18
   1afea:	0104d593          	srli	a1,s1,0x10
   1afee:	0084d613          	srli	a2,s1,0x8
   1aff2:	70940ea3          	sb	s1,1821(s0)
   1aff6:	70c40f23          	sb	a2,1822(s0)
   1affa:	70b40fa3          	sb	a1,1823(s0)
   1affe:	72a40023          	sb	a0,1824(s0)
   1b002:	7ff10513          	addi	a0,sp,2047
   1b006:	6e650513          	addi	a0,a0,1766
   1b00a:	45cd                	li	a1,19
   1b00c:	05a2                	slli	a1,a1,0x8
   1b00e:	958a                	add	a1,a1,sp
   1b010:	03500613          	li	a2,53
   1b014:	00001097          	auipc	ra,0x1
   1b018:	d40080e7          	jalr	-704(ra) # 1bd54 <memcpy>
   1b01c:	6505                	lui	a0,0x1
   1b01e:	35c50513          	addi	a0,a0,860 # 135c <.Lline_table_start1+0x1131>
   1b022:	950a                	add	a0,a0,sp
   1b024:	7ff10593          	addi	a1,sp,2047
   1b028:	6df58593          	addi	a1,a1,1759
   1b02c:	ffff8097          	auipc	ra,0xffff8
   1b030:	cac080e7          	jalr	-852(ra) # 12cd8 <_ZN18complex_no_dynamic3app17h3363a6009a1b5621E>
   1b034:	398b4503          	lbu	a0,920(s6)
   1b038:	40051be3          	bnez	a0,1bc4e <_start+0x3e66>
   1b03c:	39ab4503          	lbu	a0,922(s6)
   1b040:	399b4583          	lbu	a1,921(s6)
   1b044:	39bb4603          	lbu	a2,923(s6)
   1b048:	39cb2483          	lw	s1,924(s6)
   1b04c:	0522                	slli	a0,a0,0x8
   1b04e:	8d4d                	or	a0,a0,a1
   1b050:	74a41b23          	sh	a0,1878(s0)
   1b054:	74c40c23          	sb	a2,1880(s0)
   1b058:	6505                	lui	a0,0x1
   1b05a:	36450513          	addi	a0,a0,868 # 1364 <.Lline_table_start1+0x1139>
   1b05e:	00a105b3          	add	a1,sp,a0
   1b062:	454d                	li	a0,19
   1b064:	0522                	slli	a0,a0,0x8
   1b066:	950a                	add	a0,a0,sp
   1b068:	02500613          	li	a2,37
   1b06c:	00001097          	auipc	ra,0x1
   1b070:	ce8080e7          	jalr	-792(ra) # 1bd54 <memcpy>
   1b074:	0184d513          	srli	a0,s1,0x18
   1b078:	0104d593          	srli	a1,s1,0x10
   1b07c:	0084d613          	srli	a2,s1,0x8
   1b080:	74940ca3          	sb	s1,1881(s0)
   1b084:	74c40d23          	sb	a2,1882(s0)
   1b088:	74b40da3          	sb	a1,1883(s0)
   1b08c:	74a40e23          	sb	a0,1884(s0)
   1b090:	7ff10513          	addi	a0,sp,2047
   1b094:	72250513          	addi	a0,a0,1826
   1b098:	45cd                	li	a1,19
   1b09a:	05a2                	slli	a1,a1,0x8
   1b09c:	958a                	add	a1,a1,sp
   1b09e:	02500613          	li	a2,37
   1b0a2:	00001097          	auipc	ra,0x1
   1b0a6:	cb2080e7          	jalr	-846(ra) # 1bd54 <memcpy>
   1b0aa:	6505                	lui	a0,0x1
   1b0ac:	35c50513          	addi	a0,a0,860 # 135c <.Lline_table_start1+0x1131>
   1b0b0:	950a                	add	a0,a0,sp
   1b0b2:	7ff10593          	addi	a1,sp,2047
   1b0b6:	71b58593          	addi	a1,a1,1819
   1b0ba:	ffffb097          	auipc	ra,0xffffb
   1b0be:	168080e7          	jalr	360(ra) # 16222 <_ZN18complex_no_dynamic3app17hb4b7f1d704dc83e9E>
   1b0c2:	398b4503          	lbu	a0,920(s6)
   1b0c6:	380514e3          	bnez	a0,1bc4e <_start+0x3e66>
   1b0ca:	399b4503          	lbu	a0,921(s6)
   1b0ce:	39ab4583          	lbu	a1,922(s6)
   1b0d2:	39bb4803          	lbu	a6,923(s6)
   1b0d6:	39cb2683          	lw	a3,924(s6)
   1b0da:	3a0b2703          	lw	a4,928(s6)
   1b0de:	3a4b2783          	lw	a5,932(s6)
   1b0e2:	3a8b2483          	lw	s1,936(s6)
   1b0e6:	3acb2603          	lw	a2,940(s6)
   1b0ea:	32eb2e23          	sw	a4,828(s6)
   1b0ee:	34fb2023          	sw	a5,832(s6)
   1b0f2:	349b2223          	sw	s1,836(s6)
   1b0f6:	34cb2423          	sw	a2,840(s6)
   1b0fa:	3b0b2603          	lw	a2,944(s6)
   1b0fe:	3b4b2703          	lw	a4,948(s6)
   1b102:	3b8b2783          	lw	a5,952(s6)
   1b106:	3bcb2483          	lw	s1,956(s6)
   1b10a:	05a2                	slli	a1,a1,0x8
   1b10c:	34cb2623          	sw	a2,844(s6)
   1b110:	34eb2823          	sw	a4,848(s6)
   1b114:	34fb2a23          	sw	a5,852(s6)
   1b118:	349b2c23          	sw	s1,856(s6)
   1b11c:	0186d613          	srli	a2,a3,0x18
   1b120:	8d4d                	or	a0,a0,a1
   1b122:	0106d593          	srli	a1,a3,0x10
   1b126:	78b403a3          	sb	a1,1927(s0)
   1b12a:	78c40423          	sb	a2,1928(s0)
   1b12e:	0086d593          	srli	a1,a3,0x8
   1b132:	78a41123          	sh	a0,1922(s0)
   1b136:	79040223          	sb	a6,1924(s0)
   1b13a:	78d402a3          	sb	a3,1925(s0)
   1b13e:	78b40323          	sb	a1,1926(s0)
   1b142:	7ff10513          	addi	a0,sp,2047
   1b146:	74e50513          	addi	a0,a0,1870
   1b14a:	45cd                	li	a1,19
   1b14c:	05a2                	slli	a1,a1,0x8
   1b14e:	958a                	add	a1,a1,sp
   1b150:	02000613          	li	a2,32
   1b154:	00001097          	auipc	ra,0x1
   1b158:	c00080e7          	jalr	-1024(ra) # 1bd54 <memcpy>
   1b15c:	6505                	lui	a0,0x1
   1b15e:	35c50513          	addi	a0,a0,860 # 135c <.Lline_table_start1+0x1131>
   1b162:	950a                	add	a0,a0,sp
   1b164:	7ff10593          	addi	a1,sp,2047
   1b168:	74758593          	addi	a1,a1,1863
   1b16c:	ffff7097          	auipc	ra,0xffff7
   1b170:	76a080e7          	jalr	1898(ra) # 128d6 <_ZN18complex_no_dynamic3app17h2b788820dd0979dbE>
   1b174:	398b4503          	lbu	a0,920(s6)
   1b178:	2c051be3          	bnez	a0,1bc4e <_start+0x3e66>
   1b17c:	39ab4503          	lbu	a0,922(s6)
   1b180:	399b4583          	lbu	a1,921(s6)
   1b184:	39bb4603          	lbu	a2,923(s6)
   1b188:	39cb2483          	lw	s1,924(s6)
   1b18c:	0522                	slli	a0,a0,0x8
   1b18e:	8d4d                	or	a0,a0,a1
   1b190:	7aa41523          	sh	a0,1962(s0)
   1b194:	7ac40623          	sb	a2,1964(s0)
   1b198:	6505                	lui	a0,0x1
   1b19a:	36450513          	addi	a0,a0,868 # 1364 <.Lline_table_start1+0x1139>
   1b19e:	00a105b3          	add	a1,sp,a0
   1b1a2:	454d                	li	a0,19
   1b1a4:	0522                	slli	a0,a0,0x8
   1b1a6:	950a                	add	a0,a0,sp
   1b1a8:	04800613          	li	a2,72
   1b1ac:	00001097          	auipc	ra,0x1
   1b1b0:	ba8080e7          	jalr	-1112(ra) # 1bd54 <memcpy>
   1b1b4:	0184d513          	srli	a0,s1,0x18
   1b1b8:	0104d593          	srli	a1,s1,0x10
   1b1bc:	0084d613          	srli	a2,s1,0x8
   1b1c0:	7a9406a3          	sb	s1,1965(s0)
   1b1c4:	7ac40723          	sb	a2,1966(s0)
   1b1c8:	7ab407a3          	sb	a1,1967(s0)
   1b1cc:	7aa40823          	sb	a0,1968(s0)
   1b1d0:	7ff10513          	addi	a0,sp,2047
   1b1d4:	77650513          	addi	a0,a0,1910
   1b1d8:	45cd                	li	a1,19
   1b1da:	05a2                	slli	a1,a1,0x8
   1b1dc:	958a                	add	a1,a1,sp
   1b1de:	04800613          	li	a2,72
   1b1e2:	00001097          	auipc	ra,0x1
   1b1e6:	b72080e7          	jalr	-1166(ra) # 1bd54 <memcpy>
   1b1ea:	6505                	lui	a0,0x1
   1b1ec:	35c50513          	addi	a0,a0,860 # 135c <.Lline_table_start1+0x1131>
   1b1f0:	950a                	add	a0,a0,sp
   1b1f2:	7ff10593          	addi	a1,sp,2047
   1b1f6:	76f58593          	addi	a1,a1,1903
   1b1fa:	ffffd097          	auipc	ra,0xffffd
   1b1fe:	9f6080e7          	jalr	-1546(ra) # 17bf0 <_ZN18complex_no_dynamic3app17hffa223c2c073ff28E>
   1b202:	398b4503          	lbu	a0,920(s6)
   1b206:	240514e3          	bnez	a0,1bc4e <_start+0x3e66>
   1b20a:	39ab4503          	lbu	a0,922(s6)
   1b20e:	399b4583          	lbu	a1,921(s6)
   1b212:	39bb4603          	lbu	a2,923(s6)
   1b216:	39cb2483          	lw	s1,924(s6)
   1b21a:	0522                	slli	a0,a0,0x8
   1b21c:	8d4d                	or	a0,a0,a1
   1b21e:	7ea41d23          	sh	a0,2042(s0)
   1b222:	7ec40e23          	sb	a2,2044(s0)
   1b226:	6505                	lui	a0,0x1
   1b228:	36450513          	addi	a0,a0,868 # 1364 <.Lline_table_start1+0x1139>
   1b22c:	00a105b3          	add	a1,sp,a0
   1b230:	454d                	li	a0,19
   1b232:	0522                	slli	a0,a0,0x8
   1b234:	950a                	add	a0,a0,sp
   1b236:	02e00613          	li	a2,46
   1b23a:	00001097          	auipc	ra,0x1
   1b23e:	b1a080e7          	jalr	-1254(ra) # 1bd54 <memcpy>
   1b242:	0184d513          	srli	a0,s1,0x18
   1b246:	0104d593          	srli	a1,s1,0x10
   1b24a:	0084d613          	srli	a2,s1,0x8
   1b24e:	fe9b0ea3          	sb	s1,-3(s6)
   1b252:	fecb0f23          	sb	a2,-2(s6)
   1b256:	febb0fa3          	sb	a1,-1(s6)
   1b25a:	00ab0023          	sb	a0,0(s6)
   1b25e:	7ff10513          	addi	a0,sp,2047
   1b262:	7c650513          	addi	a0,a0,1990
   1b266:	45cd                	li	a1,19
   1b268:	05a2                	slli	a1,a1,0x8
   1b26a:	958a                	add	a1,a1,sp
   1b26c:	02e00613          	li	a2,46
   1b270:	00001097          	auipc	ra,0x1
   1b274:	ae4080e7          	jalr	-1308(ra) # 1bd54 <memcpy>
   1b278:	6505                	lui	a0,0x1
   1b27a:	35c50513          	addi	a0,a0,860 # 135c <.Lline_table_start1+0x1131>
   1b27e:	950a                	add	a0,a0,sp
   1b280:	7ff10593          	addi	a1,sp,2047
   1b284:	7bf58593          	addi	a1,a1,1983
   1b288:	ffff8097          	auipc	ra,0xffff8
   1b28c:	b4a080e7          	jalr	-1206(ra) # 12dd2 <_ZN18complex_no_dynamic3app17h3922dab211d5b1f5E>
   1b290:	398b4503          	lbu	a0,920(s6)
   1b294:	1a051de3          	bnez	a0,1bc4e <_start+0x3e66>
   1b298:	39ab4503          	lbu	a0,922(s6)
   1b29c:	399b4583          	lbu	a1,921(s6)
   1b2a0:	39bb4603          	lbu	a2,923(s6)
   1b2a4:	39cb2403          	lw	s0,924(s6)
   1b2a8:	0522                	slli	a0,a0,0x8
   1b2aa:	8d4d                	or	a0,a0,a1
   1b2ac:	02ab1823          	sh	a0,48(s6)
   1b2b0:	02cb0923          	sb	a2,50(s6)
   1b2b4:	6505                	lui	a0,0x1
   1b2b6:	36450513          	addi	a0,a0,868 # 1364 <.Lline_table_start1+0x1139>
   1b2ba:	00a105b3          	add	a1,sp,a0
   1b2be:	454d                	li	a0,19
   1b2c0:	0522                	slli	a0,a0,0x8
   1b2c2:	950a                	add	a0,a0,sp
   1b2c4:	03800613          	li	a2,56
   1b2c8:	00001097          	auipc	ra,0x1
   1b2cc:	a8c080e7          	jalr	-1396(ra) # 1bd54 <memcpy>
   1b2d0:	01845513          	srli	a0,s0,0x18
   1b2d4:	01045593          	srli	a1,s0,0x10
   1b2d8:	00845613          	srli	a2,s0,0x8
   1b2dc:	028b09a3          	sb	s0,51(s6)
   1b2e0:	02cb0a23          	sb	a2,52(s6)
   1b2e4:	02bb0aa3          	sb	a1,53(s6)
   1b2e8:	02ab0b23          	sb	a0,54(s6)
   1b2ec:	7ff10513          	addi	a0,sp,2047
   1b2f0:	7fc50513          	addi	a0,a0,2044
   1b2f4:	45cd                	li	a1,19
   1b2f6:	05a2                	slli	a1,a1,0x8
   1b2f8:	958a                	add	a1,a1,sp
   1b2fa:	03800613          	li	a2,56
   1b2fe:	00001097          	auipc	ra,0x1
   1b302:	a56080e7          	jalr	-1450(ra) # 1bd54 <memcpy>
   1b306:	6505                	lui	a0,0x1
   1b308:	35c50513          	addi	a0,a0,860 # 135c <.Lline_table_start1+0x1131>
   1b30c:	950a                	add	a0,a0,sp
   1b30e:	7ff10593          	addi	a1,sp,2047
   1b312:	7f558593          	addi	a1,a1,2037
   1b316:	ffff9097          	auipc	ra,0xffff9
   1b31a:	c5e080e7          	jalr	-930(ra) # 13f74 <_ZN18complex_no_dynamic3app17h51bdf92b6ee0844cE>
   1b31e:	398b4503          	lbu	a0,920(s6)
   1b322:	120516e3          	bnez	a0,1bc4e <_start+0x3e66>
   1b326:	399b4503          	lbu	a0,921(s6)
   1b32a:	39ab4583          	lbu	a1,922(s6)
   1b32e:	39bb4603          	lbu	a2,923(s6)
   1b332:	39cb2683          	lw	a3,924(s6)
   1b336:	3a0b2703          	lw	a4,928(s6)
   1b33a:	3a4b2783          	lw	a5,932(s6)
   1b33e:	3a8b1483          	lh	s1,936(s6)
   1b342:	05a2                	slli	a1,a1,0x8
   1b344:	32eb2e23          	sw	a4,828(s6)
   1b348:	34fb2023          	sw	a5,832(s6)
   1b34c:	349b1223          	sh	s1,836(s6)
   1b350:	0186d713          	srli	a4,a3,0x18
   1b354:	8d4d                	or	a0,a0,a1
   1b356:	0106d593          	srli	a1,a3,0x10
   1b35a:	06bb0aa3          	sb	a1,117(s6)
   1b35e:	06eb0b23          	sb	a4,118(s6)
   1b362:	0086d593          	srli	a1,a3,0x8
   1b366:	06ab1823          	sh	a0,112(s6)
   1b36a:	06cb0923          	sb	a2,114(s6)
   1b36e:	06db09a3          	sb	a3,115(s6)
   1b372:	06bb0a23          	sb	a1,116(s6)
   1b376:	6505                	lui	a0,0x1
   1b378:	03b50513          	addi	a0,a0,59 # 103b <.Lline_table_start1+0xe10>
   1b37c:	950a                	add	a0,a0,sp
   1b37e:	45cd                	li	a1,19
   1b380:	05a2                	slli	a1,a1,0x8
   1b382:	958a                	add	a1,a1,sp
   1b384:	4629                	li	a2,10
   1b386:	00001097          	auipc	ra,0x1
   1b38a:	9ce080e7          	jalr	-1586(ra) # 1bd54 <memcpy>
   1b38e:	6505                	lui	a0,0x1
   1b390:	35c50513          	addi	a0,a0,860 # 135c <.Lline_table_start1+0x1131>
   1b394:	950a                	add	a0,a0,sp
   1b396:	6585                	lui	a1,0x1
   1b398:	03458593          	addi	a1,a1,52 # 1034 <.Lline_table_start1+0xe09>
   1b39c:	958a                	add	a1,a1,sp
   1b39e:	ffff9097          	auipc	ra,0xffff9
   1b3a2:	956080e7          	jalr	-1706(ra) # 13cf4 <_ZN18complex_no_dynamic3app17h50f34e6d197d5b32E>
   1b3a6:	398b4503          	lbu	a0,920(s6)
   1b3aa:	0a0512e3          	bnez	a0,1bc4e <_start+0x3e66>
   1b3ae:	39ab4503          	lbu	a0,922(s6)
   1b3b2:	399b4583          	lbu	a1,921(s6)
   1b3b6:	39bb4603          	lbu	a2,923(s6)
   1b3ba:	39cb2403          	lw	s0,924(s6)
   1b3be:	0522                	slli	a0,a0,0x8
   1b3c0:	8d4d                	or	a0,a0,a1
   1b3c2:	08ab1123          	sh	a0,130(s6)
   1b3c6:	08cb0223          	sb	a2,132(s6)
   1b3ca:	6505                	lui	a0,0x1
   1b3cc:	36450513          	addi	a0,a0,868 # 1364 <.Lline_table_start1+0x1139>
   1b3d0:	00a105b3          	add	a1,sp,a0
   1b3d4:	454d                	li	a0,19
   1b3d6:	0522                	slli	a0,a0,0x8
   1b3d8:	950a                	add	a0,a0,sp
   1b3da:	03800613          	li	a2,56
   1b3de:	00001097          	auipc	ra,0x1
   1b3e2:	976080e7          	jalr	-1674(ra) # 1bd54 <memcpy>
   1b3e6:	01845513          	srli	a0,s0,0x18
   1b3ea:	01045593          	srli	a1,s0,0x10
   1b3ee:	00845613          	srli	a2,s0,0x8
   1b3f2:	088b02a3          	sb	s0,133(s6)
   1b3f6:	08cb0323          	sb	a2,134(s6)
   1b3fa:	08bb03a3          	sb	a1,135(s6)
   1b3fe:	08ab0423          	sb	a0,136(s6)
   1b402:	6505                	lui	a0,0x1
   1b404:	04d50513          	addi	a0,a0,77 # 104d <.Lline_table_start1+0xe22>
   1b408:	950a                	add	a0,a0,sp
   1b40a:	45cd                	li	a1,19
   1b40c:	05a2                	slli	a1,a1,0x8
   1b40e:	958a                	add	a1,a1,sp
   1b410:	03800613          	li	a2,56
   1b414:	00001097          	auipc	ra,0x1
   1b418:	940080e7          	jalr	-1728(ra) # 1bd54 <memcpy>
   1b41c:	6505                	lui	a0,0x1
   1b41e:	35c50513          	addi	a0,a0,860 # 135c <.Lline_table_start1+0x1131>
   1b422:	950a                	add	a0,a0,sp
   1b424:	6585                	lui	a1,0x1
   1b426:	04658593          	addi	a1,a1,70 # 1046 <.Lline_table_start1+0xe1b>
   1b42a:	958a                	add	a1,a1,sp
   1b42c:	ffffd097          	auipc	ra,0xffffd
   1b430:	8c4080e7          	jalr	-1852(ra) # 17cf0 <_ZN18complex_no_dynamic3app17hffb7f6e1ed334226E>
   1b434:	398b4503          	lbu	a0,920(s6)
   1b438:	00051be3          	bnez	a0,1bc4e <_start+0x3e66>
   1b43c:	399b4503          	lbu	a0,921(s6)
   1b440:	39ab4583          	lbu	a1,922(s6)
   1b444:	3a0b2603          	lw	a2,928(s6)
   1b448:	3a4b2683          	lw	a3,932(s6)
   1b44c:	3a8b2703          	lw	a4,936(s6)
   1b450:	3acb2783          	lw	a5,940(s6)
   1b454:	3b0b2483          	lw	s1,944(s6)
   1b458:	3b4b4403          	lbu	s0,948(s6)
   1b45c:	32cb2e23          	sw	a2,828(s6)
   1b460:	34db2023          	sw	a3,832(s6)
   1b464:	34eb2223          	sw	a4,836(s6)
   1b468:	34fb2423          	sw	a5,840(s6)
   1b46c:	39bb4603          	lbu	a2,923(s6)
   1b470:	39cb2683          	lw	a3,924(s6)
   1b474:	05a2                	slli	a1,a1,0x8
   1b476:	349b2623          	sw	s1,844(s6)
   1b47a:	348b0823          	sb	s0,848(s6)
   1b47e:	0186d713          	srli	a4,a3,0x18
   1b482:	8d4d                	or	a0,a0,a1
   1b484:	0106d593          	srli	a1,a3,0x10
   1b488:	0cbb03a3          	sb	a1,199(s6)
   1b48c:	0ceb0423          	sb	a4,200(s6)
   1b490:	0086d593          	srli	a1,a3,0x8
   1b494:	0cab1123          	sh	a0,194(s6)
   1b498:	0ccb0223          	sb	a2,196(s6)
   1b49c:	0cdb02a3          	sb	a3,197(s6)
   1b4a0:	0cbb0323          	sb	a1,198(s6)
   1b4a4:	6505                	lui	a0,0x1
   1b4a6:	08d50513          	addi	a0,a0,141 # 108d <.Lline_table_start1+0xe62>
   1b4aa:	950a                	add	a0,a0,sp
   1b4ac:	45cd                	li	a1,19
   1b4ae:	05a2                	slli	a1,a1,0x8
   1b4b0:	958a                	add	a1,a1,sp
   1b4b2:	4655                	li	a2,21
   1b4b4:	00001097          	auipc	ra,0x1
   1b4b8:	8a0080e7          	jalr	-1888(ra) # 1bd54 <memcpy>
   1b4bc:	6505                	lui	a0,0x1
   1b4be:	35c50513          	addi	a0,a0,860 # 135c <.Lline_table_start1+0x1131>
   1b4c2:	950a                	add	a0,a0,sp
   1b4c4:	6585                	lui	a1,0x1
   1b4c6:	08658593          	addi	a1,a1,134 # 1086 <.Lline_table_start1+0xe5b>
   1b4ca:	958a                	add	a1,a1,sp
   1b4cc:	ffff8097          	auipc	ra,0xffff8
   1b4d0:	a08080e7          	jalr	-1528(ra) # 12ed4 <_ZN18complex_no_dynamic3app17h3bdc9e4b0a84085dE>
   1b4d4:	398b4503          	lbu	a0,920(s6)
   1b4d8:	76051b63          	bnez	a0,1bc4e <_start+0x3e66>
   1b4dc:	39ab4503          	lbu	a0,922(s6)
   1b4e0:	399b4583          	lbu	a1,921(s6)
   1b4e4:	39bb4603          	lbu	a2,923(s6)
   1b4e8:	39cb2403          	lw	s0,924(s6)
   1b4ec:	0522                	slli	a0,a0,0x8
   1b4ee:	8d4d                	or	a0,a0,a1
   1b4f0:	0cab1f23          	sh	a0,222(s6)
   1b4f4:	0ecb0023          	sb	a2,224(s6)
   1b4f8:	6505                	lui	a0,0x1
   1b4fa:	36450513          	addi	a0,a0,868 # 1364 <.Lline_table_start1+0x1139>
   1b4fe:	00a105b3          	add	a1,sp,a0
   1b502:	454d                	li	a0,19
   1b504:	0522                	slli	a0,a0,0x8
   1b506:	950a                	add	a0,a0,sp
   1b508:	05600613          	li	a2,86
   1b50c:	00001097          	auipc	ra,0x1
   1b510:	848080e7          	jalr	-1976(ra) # 1bd54 <memcpy>
   1b514:	01845513          	srli	a0,s0,0x18
   1b518:	01045593          	srli	a1,s0,0x10
   1b51c:	00845613          	srli	a2,s0,0x8
   1b520:	0e8b00a3          	sb	s0,225(s6)
   1b524:	0ecb0123          	sb	a2,226(s6)
   1b528:	0ebb01a3          	sb	a1,227(s6)
   1b52c:	0eab0223          	sb	a0,228(s6)
   1b530:	6505                	lui	a0,0x1
   1b532:	0a950513          	addi	a0,a0,169 # 10a9 <.Lline_table_start1+0xe7e>
   1b536:	950a                	add	a0,a0,sp
   1b538:	45cd                	li	a1,19
   1b53a:	05a2                	slli	a1,a1,0x8
   1b53c:	958a                	add	a1,a1,sp
   1b53e:	05600613          	li	a2,86
   1b542:	00001097          	auipc	ra,0x1
   1b546:	812080e7          	jalr	-2030(ra) # 1bd54 <memcpy>
   1b54a:	6505                	lui	a0,0x1
   1b54c:	35c50513          	addi	a0,a0,860 # 135c <.Lline_table_start1+0x1131>
   1b550:	950a                	add	a0,a0,sp
   1b552:	6585                	lui	a1,0x1
   1b554:	0a258593          	addi	a1,a1,162 # 10a2 <.Lline_table_start1+0xe77>
   1b558:	958a                	add	a1,a1,sp
   1b55a:	ffff8097          	auipc	ra,0xffff8
   1b55e:	d68080e7          	jalr	-664(ra) # 132c2 <_ZN18complex_no_dynamic3app17h41d8c54bcb057ef5E>
   1b562:	398b4503          	lbu	a0,920(s6)
   1b566:	6e051463          	bnez	a0,1bc4e <_start+0x3e66>
   1b56a:	399b4503          	lbu	a0,921(s6)
   1b56e:	39ab4583          	lbu	a1,922(s6)
   1b572:	39bb4603          	lbu	a2,923(s6)
   1b576:	39cb2683          	lw	a3,924(s6)
   1b57a:	3a0b2703          	lw	a4,928(s6)
   1b57e:	3a4b2783          	lw	a5,932(s6)
   1b582:	3a8b1483          	lh	s1,936(s6)
   1b586:	3aab4403          	lbu	s0,938(s6)
   1b58a:	05a2                	slli	a1,a1,0x8
   1b58c:	32eb2e23          	sw	a4,828(s6)
   1b590:	34fb2023          	sw	a5,832(s6)
   1b594:	349b1223          	sh	s1,836(s6)
   1b598:	348b0323          	sb	s0,838(s6)
   1b59c:	0186d713          	srli	a4,a3,0x18
   1b5a0:	8d4d                	or	a0,a0,a1
   1b5a2:	0106d593          	srli	a1,a3,0x10
   1b5a6:	14bb00a3          	sb	a1,321(s6)
   1b5aa:	14eb0123          	sb	a4,322(s6)
   1b5ae:	0086d593          	srli	a1,a3,0x8
   1b5b2:	12ab1e23          	sh	a0,316(s6)
   1b5b6:	12cb0f23          	sb	a2,318(s6)
   1b5ba:	12db0fa3          	sb	a3,319(s6)
   1b5be:	14bb0023          	sb	a1,320(s6)
   1b5c2:	6505                	lui	a0,0x1
   1b5c4:	10750513          	addi	a0,a0,263 # 1107 <.Lline_table_start1+0xedc>
   1b5c8:	950a                	add	a0,a0,sp
   1b5ca:	45cd                	li	a1,19
   1b5cc:	05a2                	slli	a1,a1,0x8
   1b5ce:	958a                	add	a1,a1,sp
   1b5d0:	462d                	li	a2,11
   1b5d2:	00000097          	auipc	ra,0x0
   1b5d6:	782080e7          	jalr	1922(ra) # 1bd54 <memcpy>
   1b5da:	6505                	lui	a0,0x1
   1b5dc:	35c50513          	addi	a0,a0,860 # 135c <.Lline_table_start1+0x1131>
   1b5e0:	950a                	add	a0,a0,sp
   1b5e2:	45c5                	li	a1,17
   1b5e4:	05a2                	slli	a1,a1,0x8
   1b5e6:	958a                	add	a1,a1,sp
   1b5e8:	ffff8097          	auipc	ra,0xffff8
   1b5ec:	1a2080e7          	jalr	418(ra) # 1378a <_ZN18complex_no_dynamic3app17h46220ee49ba748f2E>
   1b5f0:	398b4503          	lbu	a0,920(s6)
   1b5f4:	64051d63          	bnez	a0,1bc4e <_start+0x3e66>
   1b5f8:	39ab4503          	lbu	a0,922(s6)
   1b5fc:	399b4583          	lbu	a1,921(s6)
   1b600:	39bb4603          	lbu	a2,923(s6)
   1b604:	39cb2403          	lw	s0,924(s6)
   1b608:	0522                	slli	a0,a0,0x8
   1b60a:	8d4d                	or	a0,a0,a1
   1b60c:	14ab1723          	sh	a0,334(s6)
   1b610:	14cb0823          	sb	a2,336(s6)
   1b614:	6505                	lui	a0,0x1
   1b616:	36450513          	addi	a0,a0,868 # 1364 <.Lline_table_start1+0x1139>
   1b61a:	00a105b3          	add	a1,sp,a0
   1b61e:	454d                	li	a0,19
   1b620:	0522                	slli	a0,a0,0x8
   1b622:	950a                	add	a0,a0,sp
   1b624:	03d00613          	li	a2,61
   1b628:	00000097          	auipc	ra,0x0
   1b62c:	72c080e7          	jalr	1836(ra) # 1bd54 <memcpy>
   1b630:	01845513          	srli	a0,s0,0x18
   1b634:	01045593          	srli	a1,s0,0x10
   1b638:	00845613          	srli	a2,s0,0x8
   1b63c:	148b08a3          	sb	s0,337(s6)
   1b640:	14cb0923          	sb	a2,338(s6)
   1b644:	14bb09a3          	sb	a1,339(s6)
   1b648:	14ab0a23          	sb	a0,340(s6)
   1b64c:	6505                	lui	a0,0x1
   1b64e:	11950513          	addi	a0,a0,281 # 1119 <.Lline_table_start1+0xeee>
   1b652:	950a                	add	a0,a0,sp
   1b654:	45cd                	li	a1,19
   1b656:	05a2                	slli	a1,a1,0x8
   1b658:	958a                	add	a1,a1,sp
   1b65a:	03d00613          	li	a2,61
   1b65e:	00000097          	auipc	ra,0x0
   1b662:	6f6080e7          	jalr	1782(ra) # 1bd54 <memcpy>
   1b666:	6505                	lui	a0,0x1
   1b668:	35c50513          	addi	a0,a0,860 # 135c <.Lline_table_start1+0x1131>
   1b66c:	950a                	add	a0,a0,sp
   1b66e:	6585                	lui	a1,0x1
   1b670:	11258593          	addi	a1,a1,274 # 1112 <.Lline_table_start1+0xee7>
   1b674:	958a                	add	a1,a1,sp
   1b676:	ffff9097          	auipc	ra,0xffff9
   1b67a:	40a080e7          	jalr	1034(ra) # 14a80 <_ZN18complex_no_dynamic3app17h6970839df8723ff8E>
   1b67e:	398b4503          	lbu	a0,920(s6)
   1b682:	5c051663          	bnez	a0,1bc4e <_start+0x3e66>
   1b686:	399b4503          	lbu	a0,921(s6)
   1b68a:	39ab4583          	lbu	a1,922(s6)
   1b68e:	39bb4603          	lbu	a2,923(s6)
   1b692:	39cb2683          	lw	a3,924(s6)
   1b696:	3a0b2703          	lw	a4,928(s6)
   1b69a:	3a4b2783          	lw	a5,932(s6)
   1b69e:	3a8b2483          	lw	s1,936(s6)
   1b6a2:	3acb2403          	lw	s0,940(s6)
   1b6a6:	32eb2e23          	sw	a4,828(s6)
   1b6aa:	34fb2023          	sw	a5,832(s6)
   1b6ae:	349b2223          	sw	s1,836(s6)
   1b6b2:	348b2423          	sw	s0,840(s6)
   1b6b6:	3b0b2703          	lw	a4,944(s6)
   1b6ba:	3b4b2783          	lw	a5,948(s6)
   1b6be:	3b8b2483          	lw	s1,952(s6)
   1b6c2:	05a2                	slli	a1,a1,0x8
   1b6c4:	34eb2623          	sw	a4,844(s6)
   1b6c8:	34fb2823          	sw	a5,848(s6)
   1b6cc:	349b2a23          	sw	s1,852(s6)
   1b6d0:	0186d713          	srli	a4,a3,0x18
   1b6d4:	8d4d                	or	a0,a0,a1
   1b6d6:	0106d593          	srli	a1,a3,0x10
   1b6da:	18bb0ba3          	sb	a1,407(s6)
   1b6de:	18eb0c23          	sb	a4,408(s6)
   1b6e2:	0086d593          	srli	a1,a3,0x8
   1b6e6:	18ab1923          	sh	a0,402(s6)
   1b6ea:	18cb0a23          	sb	a2,404(s6)
   1b6ee:	18db0aa3          	sb	a3,405(s6)
   1b6f2:	18bb0b23          	sb	a1,406(s6)
   1b6f6:	6505                	lui	a0,0x1
   1b6f8:	15d50513          	addi	a0,a0,349 # 115d <.Lline_table_start1+0xf32>
   1b6fc:	950a                	add	a0,a0,sp
   1b6fe:	45cd                	li	a1,19
   1b700:	05a2                	slli	a1,a1,0x8
   1b702:	958a                	add	a1,a1,sp
   1b704:	4671                	li	a2,28
   1b706:	00000097          	auipc	ra,0x0
   1b70a:	64e080e7          	jalr	1614(ra) # 1bd54 <memcpy>
   1b70e:	6505                	lui	a0,0x1
   1b710:	35c50513          	addi	a0,a0,860 # 135c <.Lline_table_start1+0x1131>
   1b714:	950a                	add	a0,a0,sp
   1b716:	6585                	lui	a1,0x1
   1b718:	15658593          	addi	a1,a1,342 # 1156 <.Lline_table_start1+0xf2b>
   1b71c:	958a                	add	a1,a1,sp
   1b71e:	ffff9097          	auipc	ra,0xffff9
   1b722:	b44080e7          	jalr	-1212(ra) # 14262 <_ZN18complex_no_dynamic3app17h57ee97f9acf1bc56E>
   1b726:	398b4503          	lbu	a0,920(s6)
   1b72a:	52051263          	bnez	a0,1bc4e <_start+0x3e66>
   1b72e:	399b4503          	lbu	a0,921(s6)
   1b732:	39ab4583          	lbu	a1,922(s6)
   1b736:	39bb4603          	lbu	a2,923(s6)
   1b73a:	39cb2683          	lw	a3,924(s6)
   1b73e:	3a0b2703          	lw	a4,928(s6)
   1b742:	3a4b2783          	lw	a5,932(s6)
   1b746:	3a8b2483          	lw	s1,936(s6)
   1b74a:	3acb2403          	lw	s0,940(s6)
   1b74e:	32eb2e23          	sw	a4,828(s6)
   1b752:	34fb2023          	sw	a5,832(s6)
   1b756:	349b2223          	sw	s1,836(s6)
   1b75a:	348b2423          	sw	s0,840(s6)
   1b75e:	3b0b2703          	lw	a4,944(s6)
   1b762:	3b4b2783          	lw	a5,948(s6)
   1b766:	3b8b2483          	lw	s1,952(s6)
   1b76a:	3bcb4403          	lbu	s0,956(s6)
   1b76e:	05a2                	slli	a1,a1,0x8
   1b770:	34eb2623          	sw	a4,844(s6)
   1b774:	34fb2823          	sw	a5,848(s6)
   1b778:	349b2a23          	sw	s1,852(s6)
   1b77c:	348b0c23          	sb	s0,856(s6)
   1b780:	0186d713          	srli	a4,a3,0x18
   1b784:	8d4d                	or	a0,a0,a1
   1b786:	0106d593          	srli	a1,a3,0x10
   1b78a:	1abb0da3          	sb	a1,443(s6)
   1b78e:	1aeb0e23          	sb	a4,444(s6)
   1b792:	0086d593          	srli	a1,a3,0x8
   1b796:	1aab1b23          	sh	a0,438(s6)
   1b79a:	1acb0c23          	sb	a2,440(s6)
   1b79e:	1adb0ca3          	sb	a3,441(s6)
   1b7a2:	1abb0d23          	sb	a1,442(s6)
   1b7a6:	6505                	lui	a0,0x1
   1b7a8:	18150513          	addi	a0,a0,385 # 1181 <.Lline_table_start1+0xf56>
   1b7ac:	950a                	add	a0,a0,sp
   1b7ae:	45cd                	li	a1,19
   1b7b0:	05a2                	slli	a1,a1,0x8
   1b7b2:	958a                	add	a1,a1,sp
   1b7b4:	4675                	li	a2,29
   1b7b6:	00000097          	auipc	ra,0x0
   1b7ba:	59e080e7          	jalr	1438(ra) # 1bd54 <memcpy>
   1b7be:	6505                	lui	a0,0x1
   1b7c0:	35c50513          	addi	a0,a0,860 # 135c <.Lline_table_start1+0x1131>
   1b7c4:	950a                	add	a0,a0,sp
   1b7c6:	6585                	lui	a1,0x1
   1b7c8:	17a58593          	addi	a1,a1,378 # 117a <.Lline_table_start1+0xf4f>
   1b7cc:	958a                	add	a1,a1,sp
   1b7ce:	ffff6097          	auipc	ra,0xffff6
   1b7d2:	12a080e7          	jalr	298(ra) # 118f8 <_ZN18complex_no_dynamic3app17h0ff44722eaa37e68E>
   1b7d6:	398b4503          	lbu	a0,920(s6)
   1b7da:	46051a63          	bnez	a0,1bc4e <_start+0x3e66>
   1b7de:	39ab4503          	lbu	a0,922(s6)
   1b7e2:	399b4583          	lbu	a1,921(s6)
   1b7e6:	39bb4603          	lbu	a2,923(s6)
   1b7ea:	39cb2403          	lw	s0,924(s6)
   1b7ee:	0522                	slli	a0,a0,0x8
   1b7f0:	8d4d                	or	a0,a0,a1
   1b7f2:	1cab1d23          	sh	a0,474(s6)
   1b7f6:	1ccb0e23          	sb	a2,476(s6)
   1b7fa:	6505                	lui	a0,0x1
   1b7fc:	36450513          	addi	a0,a0,868 # 1364 <.Lline_table_start1+0x1139>
   1b800:	00a105b3          	add	a1,sp,a0
   1b804:	454d                	li	a0,19
   1b806:	0522                	slli	a0,a0,0x8
   1b808:	950a                	add	a0,a0,sp
   1b80a:	02800613          	li	a2,40
   1b80e:	00000097          	auipc	ra,0x0
   1b812:	546080e7          	jalr	1350(ra) # 1bd54 <memcpy>
   1b816:	01845513          	srli	a0,s0,0x18
   1b81a:	01045593          	srli	a1,s0,0x10
   1b81e:	00845613          	srli	a2,s0,0x8
   1b822:	1c8b0ea3          	sb	s0,477(s6)
   1b826:	1ccb0f23          	sb	a2,478(s6)
   1b82a:	1cbb0fa3          	sb	a1,479(s6)
   1b82e:	1eab0023          	sb	a0,480(s6)
   1b832:	6505                	lui	a0,0x1
   1b834:	1a550513          	addi	a0,a0,421 # 11a5 <.Lline_table_start1+0xf7a>
   1b838:	950a                	add	a0,a0,sp
   1b83a:	45cd                	li	a1,19
   1b83c:	05a2                	slli	a1,a1,0x8
   1b83e:	958a                	add	a1,a1,sp
   1b840:	02800613          	li	a2,40
   1b844:	00000097          	auipc	ra,0x0
   1b848:	510080e7          	jalr	1296(ra) # 1bd54 <memcpy>
   1b84c:	6505                	lui	a0,0x1
   1b84e:	35c50513          	addi	a0,a0,860 # 135c <.Lline_table_start1+0x1131>
   1b852:	950a                	add	a0,a0,sp
   1b854:	6585                	lui	a1,0x1
   1b856:	19e58593          	addi	a1,a1,414 # 119e <.Lline_table_start1+0xf73>
   1b85a:	958a                	add	a1,a1,sp
   1b85c:	ffffc097          	auipc	ra,0xffffc
   1b860:	0a0080e7          	jalr	160(ra) # 178fc <_ZN18complex_no_dynamic3app17hfcec716e40bbd146E>
   1b864:	398b4503          	lbu	a0,920(s6)
   1b868:	3e051363          	bnez	a0,1bc4e <_start+0x3e66>
   1b86c:	39ab4503          	lbu	a0,922(s6)
   1b870:	399b4583          	lbu	a1,921(s6)
   1b874:	39bb4603          	lbu	a2,923(s6)
   1b878:	39cb2403          	lw	s0,924(s6)
   1b87c:	0522                	slli	a0,a0,0x8
   1b87e:	8d4d                	or	a0,a0,a1
   1b880:	20ab1523          	sh	a0,522(s6)
   1b884:	20cb0623          	sb	a2,524(s6)
   1b888:	6505                	lui	a0,0x1
   1b88a:	36450513          	addi	a0,a0,868 # 1364 <.Lline_table_start1+0x1139>
   1b88e:	00a105b3          	add	a1,sp,a0
   1b892:	454d                	li	a0,19
   1b894:	0522                	slli	a0,a0,0x8
   1b896:	950a                	add	a0,a0,sp
   1b898:	05700613          	li	a2,87
   1b89c:	00000097          	auipc	ra,0x0
   1b8a0:	4b8080e7          	jalr	1208(ra) # 1bd54 <memcpy>
   1b8a4:	01845513          	srli	a0,s0,0x18
   1b8a8:	01045593          	srli	a1,s0,0x10
   1b8ac:	00845613          	srli	a2,s0,0x8
   1b8b0:	208b06a3          	sb	s0,525(s6)
   1b8b4:	20cb0723          	sb	a2,526(s6)
   1b8b8:	20bb07a3          	sb	a1,527(s6)
   1b8bc:	20ab0823          	sb	a0,528(s6)
   1b8c0:	6505                	lui	a0,0x1
   1b8c2:	1d550513          	addi	a0,a0,469 # 11d5 <.Lline_table_start1+0xfaa>
   1b8c6:	950a                	add	a0,a0,sp
   1b8c8:	45cd                	li	a1,19
   1b8ca:	05a2                	slli	a1,a1,0x8
   1b8cc:	958a                	add	a1,a1,sp
   1b8ce:	05700613          	li	a2,87
   1b8d2:	00000097          	auipc	ra,0x0
   1b8d6:	482080e7          	jalr	1154(ra) # 1bd54 <memcpy>
   1b8da:	6505                	lui	a0,0x1
   1b8dc:	35c50513          	addi	a0,a0,860 # 135c <.Lline_table_start1+0x1131>
   1b8e0:	950a                	add	a0,a0,sp
   1b8e2:	6585                	lui	a1,0x1
   1b8e4:	1ce58593          	addi	a1,a1,462 # 11ce <.Lline_table_start1+0xfa3>
   1b8e8:	958a                	add	a1,a1,sp
   1b8ea:	ffffb097          	auipc	ra,0xffffb
   1b8ee:	f9e080e7          	jalr	-98(ra) # 16888 <_ZN18complex_no_dynamic3app17hc253cc9063a8ce4eE>
   1b8f2:	398b4503          	lbu	a0,920(s6)
   1b8f6:	34051c63          	bnez	a0,1bc4e <_start+0x3e66>
   1b8fa:	39ab4503          	lbu	a0,922(s6)
   1b8fe:	399b4583          	lbu	a1,921(s6)
   1b902:	39bb4603          	lbu	a2,923(s6)
   1b906:	39cb2403          	lw	s0,924(s6)
   1b90a:	0522                	slli	a0,a0,0x8
   1b90c:	8d4d                	or	a0,a0,a1
   1b90e:	26ab1423          	sh	a0,616(s6)
   1b912:	26cb0523          	sb	a2,618(s6)
   1b916:	6505                	lui	a0,0x1
   1b918:	36450513          	addi	a0,a0,868 # 1364 <.Lline_table_start1+0x1139>
   1b91c:	00a105b3          	add	a1,sp,a0
   1b920:	454d                	li	a0,19
   1b922:	0522                	slli	a0,a0,0x8
   1b924:	950a                	add	a0,a0,sp
   1b926:	04e00613          	li	a2,78
   1b92a:	00000097          	auipc	ra,0x0
   1b92e:	42a080e7          	jalr	1066(ra) # 1bd54 <memcpy>
   1b932:	01845513          	srli	a0,s0,0x18
   1b936:	01045593          	srli	a1,s0,0x10
   1b93a:	00845613          	srli	a2,s0,0x8
   1b93e:	268b05a3          	sb	s0,619(s6)
   1b942:	26cb0623          	sb	a2,620(s6)
   1b946:	26bb06a3          	sb	a1,621(s6)
   1b94a:	26ab0723          	sb	a0,622(s6)
   1b94e:	6505                	lui	a0,0x1
   1b950:	23350513          	addi	a0,a0,563 # 1233 <.Lline_table_start1+0x1008>
   1b954:	950a                	add	a0,a0,sp
   1b956:	45cd                	li	a1,19
   1b958:	05a2                	slli	a1,a1,0x8
   1b95a:	958a                	add	a1,a1,sp
   1b95c:	04e00613          	li	a2,78
   1b960:	00000097          	auipc	ra,0x0
   1b964:	3f4080e7          	jalr	1012(ra) # 1bd54 <memcpy>
   1b968:	6505                	lui	a0,0x1
   1b96a:	35c50513          	addi	a0,a0,860 # 135c <.Lline_table_start1+0x1131>
   1b96e:	950a                	add	a0,a0,sp
   1b970:	6585                	lui	a1,0x1
   1b972:	22c58593          	addi	a1,a1,556 # 122c <.Lline_table_start1+0x1001>
   1b976:	958a                	add	a1,a1,sp
   1b978:	ffffa097          	auipc	ra,0xffffa
   1b97c:	b08080e7          	jalr	-1272(ra) # 15480 <_ZN18complex_no_dynamic3app17h8f7530c7ae12b21dE>
   1b980:	398b4503          	lbu	a0,920(s6)
   1b984:	2c051563          	bnez	a0,1bc4e <_start+0x3e66>
   1b988:	399b4503          	lbu	a0,921(s6)
   1b98c:	39ab4583          	lbu	a1,922(s6)
   1b990:	39bb4603          	lbu	a2,923(s6)
   1b994:	39cb2683          	lw	a3,924(s6)
   1b998:	3a0b2703          	lw	a4,928(s6)
   1b99c:	3a4b2783          	lw	a5,932(s6)
   1b9a0:	3a8b1483          	lh	s1,936(s6)
   1b9a4:	05a2                	slli	a1,a1,0x8
   1b9a6:	32eb2e23          	sw	a4,828(s6)
   1b9aa:	34fb2023          	sw	a5,832(s6)
   1b9ae:	349b1223          	sh	s1,836(s6)
   1b9b2:	0186d713          	srli	a4,a3,0x18
   1b9b6:	8d4d                	or	a0,a0,a1
   1b9b8:	0106d593          	srli	a1,a3,0x10
   1b9bc:	2cbb01a3          	sb	a1,707(s6)
   1b9c0:	2ceb0223          	sb	a4,708(s6)
   1b9c4:	0086d593          	srli	a1,a3,0x8
   1b9c8:	2aab1f23          	sh	a0,702(s6)
   1b9cc:	2ccb0023          	sb	a2,704(s6)
   1b9d0:	2cdb00a3          	sb	a3,705(s6)
   1b9d4:	2cbb0123          	sb	a1,706(s6)
   1b9d8:	6505                	lui	a0,0x1
   1b9da:	28950513          	addi	a0,a0,649 # 1289 <.Lline_table_start1+0x105e>
   1b9de:	950a                	add	a0,a0,sp
   1b9e0:	45cd                	li	a1,19
   1b9e2:	05a2                	slli	a1,a1,0x8
   1b9e4:	958a                	add	a1,a1,sp
   1b9e6:	4629                	li	a2,10
   1b9e8:	00000097          	auipc	ra,0x0
   1b9ec:	36c080e7          	jalr	876(ra) # 1bd54 <memcpy>
   1b9f0:	6505                	lui	a0,0x1
   1b9f2:	35c50513          	addi	a0,a0,860 # 135c <.Lline_table_start1+0x1131>
   1b9f6:	950a                	add	a0,a0,sp
   1b9f8:	6585                	lui	a1,0x1
   1b9fa:	28258593          	addi	a1,a1,642 # 1282 <.Lline_table_start1+0x1057>
   1b9fe:	958a                	add	a1,a1,sp
   1ba00:	ffffa097          	auipc	ra,0xffffa
   1ba04:	c74080e7          	jalr	-908(ra) # 15674 <_ZN18complex_no_dynamic3app17h932d3e48e64fe33dE>
   1ba08:	398b4503          	lbu	a0,920(s6)
   1ba0c:	24051163          	bnez	a0,1bc4e <_start+0x3e66>
   1ba10:	39ab4503          	lbu	a0,922(s6)
   1ba14:	399b4583          	lbu	a1,921(s6)
   1ba18:	39bb4603          	lbu	a2,923(s6)
   1ba1c:	39cb2403          	lw	s0,924(s6)
   1ba20:	0522                	slli	a0,a0,0x8
   1ba22:	8d4d                	or	a0,a0,a1
   1ba24:	2cab1823          	sh	a0,720(s6)
   1ba28:	2ccb0923          	sb	a2,722(s6)
   1ba2c:	6505                	lui	a0,0x1
   1ba2e:	36450513          	addi	a0,a0,868 # 1364 <.Lline_table_start1+0x1139>
   1ba32:	00a105b3          	add	a1,sp,a0
   1ba36:	454d                	li	a0,19
   1ba38:	0522                	slli	a0,a0,0x8
   1ba3a:	950a                	add	a0,a0,sp
   1ba3c:	04900613          	li	a2,73
   1ba40:	00000097          	auipc	ra,0x0
   1ba44:	314080e7          	jalr	788(ra) # 1bd54 <memcpy>
   1ba48:	01845513          	srli	a0,s0,0x18
   1ba4c:	01045593          	srli	a1,s0,0x10
   1ba50:	00845613          	srli	a2,s0,0x8
   1ba54:	2c8b09a3          	sb	s0,723(s6)
   1ba58:	2ccb0a23          	sb	a2,724(s6)
   1ba5c:	2cbb0aa3          	sb	a1,725(s6)
   1ba60:	2cab0b23          	sb	a0,726(s6)
   1ba64:	6505                	lui	a0,0x1
   1ba66:	29b50513          	addi	a0,a0,667 # 129b <.Lline_table_start1+0x1070>
   1ba6a:	950a                	add	a0,a0,sp
   1ba6c:	45cd                	li	a1,19
   1ba6e:	05a2                	slli	a1,a1,0x8
   1ba70:	958a                	add	a1,a1,sp
   1ba72:	04900613          	li	a2,73
   1ba76:	00000097          	auipc	ra,0x0
   1ba7a:	2de080e7          	jalr	734(ra) # 1bd54 <memcpy>
   1ba7e:	6505                	lui	a0,0x1
   1ba80:	35c50513          	addi	a0,a0,860 # 135c <.Lline_table_start1+0x1131>
   1ba84:	950a                	add	a0,a0,sp
   1ba86:	6585                	lui	a1,0x1
   1ba88:	29458593          	addi	a1,a1,660 # 1294 <.Lline_table_start1+0x1069>
   1ba8c:	958a                	add	a1,a1,sp
   1ba8e:	ffff9097          	auipc	ra,0xffff9
   1ba92:	b2a080e7          	jalr	-1238(ra) # 145b8 <_ZN18complex_no_dynamic3app17h634975364d5e4938E>
   1ba96:	398b4503          	lbu	a0,920(s6)
   1ba9a:	1a051a63          	bnez	a0,1bc4e <_start+0x3e66>
   1ba9e:	399b4503          	lbu	a0,921(s6)
   1baa2:	39ab4583          	lbu	a1,922(s6)
   1baa6:	39bb4803          	lbu	a6,923(s6)
   1baaa:	39cb2683          	lw	a3,924(s6)
   1baae:	3a0b2703          	lw	a4,928(s6)
   1bab2:	3a4b2783          	lw	a5,932(s6)
   1bab6:	3a8b2483          	lw	s1,936(s6)
   1baba:	3acb2403          	lw	s0,940(s6)
   1babe:	3b0b2603          	lw	a2,944(s6)
   1bac2:	05a2                	slli	a1,a1,0x8
   1bac4:	349b2223          	sw	s1,836(s6)
   1bac8:	348b2423          	sw	s0,840(s6)
   1bacc:	34cb2623          	sw	a2,844(s6)
   1bad0:	0186d613          	srli	a2,a3,0x18
   1bad4:	8d4d                	or	a0,a0,a1
   1bad6:	0106d593          	srli	a1,a3,0x10
   1bada:	32bb02a3          	sb	a1,805(s6)
   1bade:	32cb0323          	sb	a2,806(s6)
   1bae2:	32eb2e23          	sw	a4,828(s6)
   1bae6:	34fb2023          	sw	a5,832(s6)
   1baea:	0086d593          	srli	a1,a3,0x8
   1baee:	32ab1023          	sh	a0,800(s6)
   1baf2:	330b0123          	sb	a6,802(s6)
   1baf6:	32db01a3          	sb	a3,803(s6)
   1bafa:	32bb0223          	sb	a1,804(s6)
   1bafe:	6505                	lui	a0,0x1
   1bb00:	2eb50513          	addi	a0,a0,747 # 12eb <.Lline_table_start1+0x10c0>
   1bb04:	950a                	add	a0,a0,sp
   1bb06:	45cd                	li	a1,19
   1bb08:	05a2                	slli	a1,a1,0x8
   1bb0a:	958a                	add	a1,a1,sp
   1bb0c:	4651                	li	a2,20
   1bb0e:	00000097          	auipc	ra,0x0
   1bb12:	246080e7          	jalr	582(ra) # 1bd54 <memcpy>
   1bb16:	6505                	lui	a0,0x1
   1bb18:	35c50513          	addi	a0,a0,860 # 135c <.Lline_table_start1+0x1131>
   1bb1c:	950a                	add	a0,a0,sp
   1bb1e:	6585                	lui	a1,0x1
   1bb20:	2e458593          	addi	a1,a1,740 # 12e4 <.Lline_table_start1+0x10b9>
   1bb24:	958a                	add	a1,a1,sp
   1bb26:	ffff6097          	auipc	ra,0xffff6
   1bb2a:	a02080e7          	jalr	-1534(ra) # 11528 <_ZN18complex_no_dynamic3app17h086cdcef19b0830cE>
   1bb2e:	398b4503          	lbu	a0,920(s6)
   1bb32:	10051e63          	bnez	a0,1bc4e <_start+0x3e66>
   1bb36:	39ab4503          	lbu	a0,922(s6)
   1bb3a:	399b4583          	lbu	a1,921(s6)
   1bb3e:	39bb4603          	lbu	a2,923(s6)
   1bb42:	39cb2403          	lw	s0,924(s6)
   1bb46:	0522                	slli	a0,a0,0x8
   1bb48:	8d4d                	or	a0,a0,a1
   1bb4a:	3eab1f23          	sh	a0,1022(s6)
   1bb4e:	40cb0023          	sb	a2,1024(s6)
   1bb52:	6505                	lui	a0,0x1
   1bb54:	36450513          	addi	a0,a0,868 # 1364 <.Lline_table_start1+0x1139>
   1bb58:	00a105b3          	add	a1,sp,a0
   1bb5c:	454d                	li	a0,19
   1bb5e:	0522                	slli	a0,a0,0x8
   1bb60:	950a                	add	a0,a0,sp
   1bb62:	05c00613          	li	a2,92
   1bb66:	00000097          	auipc	ra,0x0
   1bb6a:	1ee080e7          	jalr	494(ra) # 1bd54 <memcpy>
   1bb6e:	01845513          	srli	a0,s0,0x18
   1bb72:	01045593          	srli	a1,s0,0x10
   1bb76:	00845613          	srli	a2,s0,0x8
   1bb7a:	408b00a3          	sb	s0,1025(s6)
   1bb7e:	40cb0123          	sb	a2,1026(s6)
   1bb82:	40bb01a3          	sb	a1,1027(s6)
   1bb86:	40ab0223          	sb	a0,1028(s6)
   1bb8a:	6505                	lui	a0,0x1
   1bb8c:	3c950513          	addi	a0,a0,969 # 13c9 <.Lline_table_start1+0x119e>
   1bb90:	950a                	add	a0,a0,sp
   1bb92:	45cd                	li	a1,19
   1bb94:	05a2                	slli	a1,a1,0x8
   1bb96:	958a                	add	a1,a1,sp
   1bb98:	05c00613          	li	a2,92
   1bb9c:	00000097          	auipc	ra,0x0
   1bba0:	1b8080e7          	jalr	440(ra) # 1bd54 <memcpy>
   1bba4:	6505                	lui	a0,0x1
   1bba6:	35c50513          	addi	a0,a0,860 # 135c <.Lline_table_start1+0x1131>
   1bbaa:	950a                	add	a0,a0,sp
   1bbac:	6585                	lui	a1,0x1
   1bbae:	3c258593          	addi	a1,a1,962 # 13c2 <.Lline_table_start1+0x1197>
   1bbb2:	958a                	add	a1,a1,sp
   1bbb4:	ffff5097          	auipc	ra,0xffff5
   1bbb8:	680080e7          	jalr	1664(ra) # 11234 <_ZN18complex_no_dynamic3app17h03ede6a235bedf99E>
   1bbbc:	398b4503          	lbu	a0,920(s6)
   1bbc0:	e559                	bnez	a0,1bc4e <_start+0x3e66>
   1bbc2:	39ab4503          	lbu	a0,922(s6)
   1bbc6:	399b4583          	lbu	a1,921(s6)
   1bbca:	39bb4603          	lbu	a2,923(s6)
   1bbce:	39cb2403          	lw	s0,924(s6)
   1bbd2:	0522                	slli	a0,a0,0x8
   1bbd4:	8d4d                	or	a0,a0,a1
   1bbd6:	46ab1123          	sh	a0,1122(s6)
   1bbda:	46cb0223          	sb	a2,1124(s6)
   1bbde:	6505                	lui	a0,0x1
   1bbe0:	36450513          	addi	a0,a0,868 # 1364 <.Lline_table_start1+0x1139>
   1bbe4:	00a105b3          	add	a1,sp,a0
   1bbe8:	454d                	li	a0,19
   1bbea:	0522                	slli	a0,a0,0x8
   1bbec:	950a                	add	a0,a0,sp
   1bbee:	02500613          	li	a2,37
   1bbf2:	00000097          	auipc	ra,0x0
   1bbf6:	162080e7          	jalr	354(ra) # 1bd54 <memcpy>
   1bbfa:	01845513          	srli	a0,s0,0x18
   1bbfe:	01045593          	srli	a1,s0,0x10
   1bc02:	00845613          	srli	a2,s0,0x8
   1bc06:	468b02a3          	sb	s0,1125(s6)
   1bc0a:	46cb0323          	sb	a2,1126(s6)
   1bc0e:	46bb03a3          	sb	a1,1127(s6)
   1bc12:	46ab0423          	sb	a0,1128(s6)
   1bc16:	6505                	lui	a0,0x1
   1bc18:	42d50513          	addi	a0,a0,1069 # 142d <.Lline_table_start1+0x1202>
   1bc1c:	950a                	add	a0,a0,sp
   1bc1e:	45cd                	li	a1,19
   1bc20:	05a2                	slli	a1,a1,0x8
   1bc22:	958a                	add	a1,a1,sp
   1bc24:	02500613          	li	a2,37
   1bc28:	00000097          	auipc	ra,0x0
   1bc2c:	12c080e7          	jalr	300(ra) # 1bd54 <memcpy>
   1bc30:	6505                	lui	a0,0x1
   1bc32:	35c50513          	addi	a0,a0,860 # 135c <.Lline_table_start1+0x1131>
   1bc36:	950a                	add	a0,a0,sp
   1bc38:	6585                	lui	a1,0x1
   1bc3a:	42658593          	addi	a1,a1,1062 # 1426 <.Lline_table_start1+0x11fb>
   1bc3e:	958a                	add	a1,a1,sp
   1bc40:	ffff9097          	auipc	ra,0xffff9
   1bc44:	d3a080e7          	jalr	-710(ra) # 1497a <_ZN18complex_no_dynamic3app17h68331e8bd701bbafE>
   1bc48:	398b4503          	lbu	a0,920(s6)
   1bc4c:	c509                	beqz	a0,1bc56 <_start+0x3e6e>
   1bc4e:	39cb2283          	lw	t0,924(s6)
   1bc52:	a6efc06f          	j	17ec0 <_start+0xd8>
   1bc56:	39ab4503          	lbu	a0,922(s6)
   1bc5a:	399b4583          	lbu	a1,921(s6)
   1bc5e:	39bb4603          	lbu	a2,923(s6)
   1bc62:	39cb2403          	lw	s0,924(s6)
   1bc66:	0522                	slli	a0,a0,0x8
   1bc68:	8d4d                	or	a0,a0,a1
   1bc6a:	48ab1723          	sh	a0,1166(s6)
   1bc6e:	48cb0823          	sb	a2,1168(s6)
   1bc72:	6505                	lui	a0,0x1
   1bc74:	36450513          	addi	a0,a0,868 # 1364 <.Lline_table_start1+0x1139>
   1bc78:	00a105b3          	add	a1,sp,a0
   1bc7c:	454d                	li	a0,19
   1bc7e:	0522                	slli	a0,a0,0x8
   1bc80:	950a                	add	a0,a0,sp
   1bc82:	02300613          	li	a2,35
   1bc86:	00000097          	auipc	ra,0x0
   1bc8a:	0ce080e7          	jalr	206(ra) # 1bd54 <memcpy>
   1bc8e:	01845513          	srli	a0,s0,0x18
   1bc92:	01045593          	srli	a1,s0,0x10
   1bc96:	00845613          	srli	a2,s0,0x8
   1bc9a:	488b08a3          	sb	s0,1169(s6)
   1bc9e:	48cb0923          	sb	a2,1170(s6)
   1bca2:	48bb09a3          	sb	a1,1171(s6)
   1bca6:	48ab0a23          	sb	a0,1172(s6)
   1bcaa:	6505                	lui	a0,0x1
   1bcac:	45950513          	addi	a0,a0,1113 # 1459 <.Lline_table_start1+0x122e>
   1bcb0:	950a                	add	a0,a0,sp
   1bcb2:	45cd                	li	a1,19
   1bcb4:	05a2                	slli	a1,a1,0x8
   1bcb6:	958a                	add	a1,a1,sp
   1bcb8:	02300613          	li	a2,35
   1bcbc:	00000097          	auipc	ra,0x0
   1bcc0:	098080e7          	jalr	152(ra) # 1bd54 <memcpy>
   1bcc4:	6505                	lui	a0,0x1
   1bcc6:	35c50513          	addi	a0,a0,860 # 135c <.Lline_table_start1+0x1131>
   1bcca:	950a                	add	a0,a0,sp
   1bccc:	6585                	lui	a1,0x1
   1bcce:	45258593          	addi	a1,a1,1106 # 1452 <.Lline_table_start1+0x1227>
   1bcd2:	958a                	add	a1,a1,sp
   1bcd4:	ffff6097          	auipc	ra,0xffff6
   1bcd8:	a32080e7          	jalr	-1486(ra) # 11706 <_ZN18complex_no_dynamic3app17h0b7b5d79ca5fd947E>
   1bcdc:	398b4503          	lbu	a0,920(s6)
   1bce0:	39cb2283          	lw	t0,924(s6)
   1bce4:	9defc06f          	j	17ec2 <_start+0xda>

0001bce8 <memset>:
   1bce8:	46c1                	li	a3,16
   1bcea:	04d66f63          	bltu	a2,a3,1bd48 <memset+0x60>
   1bcee:	40a006b3          	neg	a3,a0
   1bcf2:	0036f813          	andi	a6,a3,3
   1bcf6:	01050733          	add	a4,a0,a6
   1bcfa:	00e57963          	bgeu	a0,a4,1bd0c <memset+0x24>
   1bcfe:	87c2                	mv	a5,a6
   1bd00:	86aa                	mv	a3,a0
   1bd02:	00b68023          	sb	a1,0(a3)
   1bd06:	17fd                	addi	a5,a5,-1
   1bd08:	0685                	addi	a3,a3,1
   1bd0a:	ffe5                	bnez	a5,1bd02 <memset+0x1a>
   1bd0c:	41060633          	sub	a2,a2,a6
   1bd10:	ffc67693          	andi	a3,a2,-4
   1bd14:	96ba                	add	a3,a3,a4
   1bd16:	00d77e63          	bgeu	a4,a3,1bd32 <memset+0x4a>
   1bd1a:	0ff5f813          	zext.b	a6,a1
   1bd1e:	010107b7          	lui	a5,0x1010
   1bd22:	10178793          	addi	a5,a5,257 # 1010101 <_ZN17compiler_builtins3mem6memcpy17h90d0c987d2ef5a79E+0xff43a5>
   1bd26:	02f807b3          	mul	a5,a6,a5
   1bd2a:	c31c                	sw	a5,0(a4)
   1bd2c:	0711                	addi	a4,a4,4
   1bd2e:	fed76ee3          	bltu	a4,a3,1bd2a <memset+0x42>
   1bd32:	8a0d                	andi	a2,a2,3
   1bd34:	00c68733          	add	a4,a3,a2
   1bd38:	00e6f763          	bgeu	a3,a4,1bd46 <memset+0x5e>
   1bd3c:	00b68023          	sb	a1,0(a3)
   1bd40:	167d                	addi	a2,a2,-1
   1bd42:	0685                	addi	a3,a3,1
   1bd44:	fe65                	bnez	a2,1bd3c <memset+0x54>
   1bd46:	8082                	ret
   1bd48:	86aa                	mv	a3,a0
   1bd4a:	00c50733          	add	a4,a0,a2
   1bd4e:	fee567e3          	bltu	a0,a4,1bd3c <memset+0x54>
   1bd52:	bfd5                	j	1bd46 <memset+0x5e>

0001bd54 <memcpy>:
   1bd54:	00000317          	auipc	t1,0x0
   1bd58:	00830067          	jr	8(t1) # 1bd5c <_ZN17compiler_builtins3mem6memcpy17h90d0c987d2ef5a79E>

0001bd5c <_ZN17compiler_builtins3mem6memcpy17h90d0c987d2ef5a79E>:
   1bd5c:	1141                	addi	sp,sp,-16
   1bd5e:	c622                	sw	s0,12(sp)
   1bd60:	46c1                	li	a3,16
   1bd62:	06d66363          	bltu	a2,a3,1bdc8 <_ZN17compiler_builtins3mem6memcpy17h90d0c987d2ef5a79E+0x6c>
   1bd66:	40a006b3          	neg	a3,a0
   1bd6a:	0036f813          	andi	a6,a3,3
   1bd6e:	01050fb3          	add	t6,a0,a6
   1bd72:	01f57d63          	bgeu	a0,t6,1bd8c <_ZN17compiler_builtins3mem6memcpy17h90d0c987d2ef5a79E+0x30>
   1bd76:	8742                	mv	a4,a6
   1bd78:	86aa                	mv	a3,a0
   1bd7a:	87ae                	mv	a5,a1
   1bd7c:	0007c883          	lbu	a7,0(a5)
   1bd80:	177d                	addi	a4,a4,-1
   1bd82:	01168023          	sb	a7,0(a3)
   1bd86:	0685                	addi	a3,a3,1
   1bd88:	0785                	addi	a5,a5,1
   1bd8a:	fb6d                	bnez	a4,1bd7c <_ZN17compiler_builtins3mem6memcpy17h90d0c987d2ef5a79E+0x20>
   1bd8c:	01058433          	add	s0,a1,a6
   1bd90:	410608b3          	sub	a7,a2,a6
   1bd94:	ffc8f713          	andi	a4,a7,-4
   1bd98:	00347613          	andi	a2,s0,3
   1bd9c:	00ef86b3          	add	a3,t6,a4
   1bda0:	e621                	bnez	a2,1bde8 <_ZN17compiler_builtins3mem6memcpy17h90d0c987d2ef5a79E+0x8c>
   1bda2:	00dffa63          	bgeu	t6,a3,1bdb6 <_ZN17compiler_builtins3mem6memcpy17h90d0c987d2ef5a79E+0x5a>
   1bda6:	8622                	mv	a2,s0
   1bda8:	421c                	lw	a5,0(a2)
   1bdaa:	00ffa023          	sw	a5,0(t6)
   1bdae:	0f91                	addi	t6,t6,4
   1bdb0:	0611                	addi	a2,a2,4
   1bdb2:	fedfebe3          	bltu	t6,a3,1bda8 <_ZN17compiler_builtins3mem6memcpy17h90d0c987d2ef5a79E+0x4c>
   1bdb6:	00e405b3          	add	a1,s0,a4
   1bdba:	0038f613          	andi	a2,a7,3
   1bdbe:	00c68733          	add	a4,a3,a2
   1bdc2:	00e6e863          	bltu	a3,a4,1bdd2 <_ZN17compiler_builtins3mem6memcpy17h90d0c987d2ef5a79E+0x76>
   1bdc6:	a831                	j	1bde2 <_ZN17compiler_builtins3mem6memcpy17h90d0c987d2ef5a79E+0x86>
   1bdc8:	86aa                	mv	a3,a0
   1bdca:	00c50733          	add	a4,a0,a2
   1bdce:	00e57a63          	bgeu	a0,a4,1bde2 <_ZN17compiler_builtins3mem6memcpy17h90d0c987d2ef5a79E+0x86>
   1bdd2:	0005c703          	lbu	a4,0(a1)
   1bdd6:	167d                	addi	a2,a2,-1
   1bdd8:	00e68023          	sb	a4,0(a3)
   1bddc:	0685                	addi	a3,a3,1
   1bdde:	0585                	addi	a1,a1,1
   1bde0:	fa6d                	bnez	a2,1bdd2 <_ZN17compiler_builtins3mem6memcpy17h90d0c987d2ef5a79E+0x76>
   1bde2:	4432                	lw	s0,12(sp)
   1bde4:	0141                	addi	sp,sp,16
   1bde6:	8082                	ret
   1bde8:	4801                	li	a6,0
   1bdea:	4791                	li	a5,4
   1bdec:	c402                	sw	zero,8(sp)
   1bdee:	40c783b3          	sub	t2,a5,a2
   1bdf2:	00810293          	addi	t0,sp,8
   1bdf6:	0013f313          	andi	t1,t2,1
   1bdfa:	00c2e2b3          	or	t0,t0,a2
   1bdfe:	04031763          	bnez	t1,1be4c <_ZN17compiler_builtins3mem6memcpy17h90d0c987d2ef5a79E+0xf0>
   1be02:	0023f793          	andi	a5,t2,2
   1be06:	ebb9                	bnez	a5,1be5c <_ZN17compiler_builtins3mem6memcpy17h90d0c987d2ef5a79E+0x100>
   1be08:	4ea2                	lw	t4,8(sp)
   1be0a:	00361813          	slli	a6,a2,0x3
   1be0e:	004f8793          	addi	a5,t6,4
   1be12:	40c40f33          	sub	t5,s0,a2
   1be16:	06d7f363          	bgeu	a5,a3,1be7c <_ZN17compiler_builtins3mem6memcpy17h90d0c987d2ef5a79E+0x120>
   1be1a:	410007b3          	neg	a5,a6
   1be1e:	0187fe13          	andi	t3,a5,24
   1be22:	004f2283          	lw	t0,4(t5)
   1be26:	004f0393          	addi	t2,t5,4
   1be2a:	010ed5b3          	srl	a1,t4,a6
   1be2e:	004f8313          	addi	t1,t6,4
   1be32:	01c297b3          	sll	a5,t0,t3
   1be36:	8ddd                	or	a1,a1,a5
   1be38:	008f8793          	addi	a5,t6,8
   1be3c:	00bfa023          	sw	a1,0(t6)
   1be40:	8f9a                	mv	t6,t1
   1be42:	8f1e                	mv	t5,t2
   1be44:	8e96                	mv	t4,t0
   1be46:	fcd7eee3          	bltu	a5,a3,1be22 <_ZN17compiler_builtins3mem6memcpy17h90d0c987d2ef5a79E+0xc6>
   1be4a:	a825                	j	1be82 <_ZN17compiler_builtins3mem6memcpy17h90d0c987d2ef5a79E+0x126>
   1be4c:	00044783          	lbu	a5,0(s0)
   1be50:	00f28023          	sb	a5,0(t0)
   1be54:	4805                	li	a6,1
   1be56:	0023f793          	andi	a5,t2,2
   1be5a:	d7dd                	beqz	a5,1be08 <_ZN17compiler_builtins3mem6memcpy17h90d0c987d2ef5a79E+0xac>
   1be5c:	010407b3          	add	a5,s0,a6
   1be60:	00079783          	lh	a5,0(a5)
   1be64:	9816                	add	a6,a6,t0
   1be66:	00f81023          	sh	a5,0(a6)
   1be6a:	4ea2                	lw	t4,8(sp)
   1be6c:	00361813          	slli	a6,a2,0x3
   1be70:	004f8793          	addi	a5,t6,4
   1be74:	40c40f33          	sub	t5,s0,a2
   1be78:	fad7e1e3          	bltu	a5,a3,1be1a <_ZN17compiler_builtins3mem6memcpy17h90d0c987d2ef5a79E+0xbe>
   1be7c:	82f6                	mv	t0,t4
   1be7e:	83fa                	mv	t2,t5
   1be80:	837e                	mv	t1,t6
   1be82:	00010223          	sb	zero,4(sp)
   1be86:	4785                	li	a5,1
   1be88:	00010123          	sb	zero,2(sp)
   1be8c:	00f61763          	bne	a2,a5,1be9a <_ZN17compiler_builtins3mem6memcpy17h90d0c987d2ef5a79E+0x13e>
   1be90:	4781                	li	a5,0
   1be92:	4e01                	li	t3,0
   1be94:	4e81                	li	t4,0
   1be96:	0050                	addi	a2,sp,4
   1be98:	a819                	j	1beae <_ZN17compiler_builtins3mem6memcpy17h90d0c987d2ef5a79E+0x152>
   1be9a:	0043c783          	lbu	a5,4(t2)
   1be9e:	0053ce03          	lbu	t3,5(t2)
   1bea2:	4e89                	li	t4,2
   1bea4:	00f10223          	sb	a5,4(sp)
   1bea8:	0e22                	slli	t3,t3,0x8
   1beaa:	00210613          	addi	a2,sp,2
   1beae:	00147593          	andi	a1,s0,1
   1beb2:	e199                	bnez	a1,1beb8 <_ZN17compiler_builtins3mem6memcpy17h90d0c987d2ef5a79E+0x15c>
   1beb4:	4601                	li	a2,0
   1beb6:	a821                	j	1bece <_ZN17compiler_builtins3mem6memcpy17h90d0c987d2ef5a79E+0x172>
   1beb8:	0391                	addi	t2,t2,4
   1beba:	93f6                	add	t2,t2,t4
   1bebc:	0003c583          	lbu	a1,0(t2)
   1bec0:	00b60023          	sb	a1,0(a2)
   1bec4:	00214603          	lbu	a2,2(sp)
   1bec8:	00414783          	lbu	a5,4(sp)
   1becc:	0642                	slli	a2,a2,0x10
   1bece:	8e5d                	or	a2,a2,a5
   1bed0:	0102d5b3          	srl	a1,t0,a6
   1bed4:	410007b3          	neg	a5,a6
   1bed8:	00ce6633          	or	a2,t3,a2
   1bedc:	8be1                	andi	a5,a5,24
   1bede:	00f61633          	sll	a2,a2,a5
   1bee2:	8dd1                	or	a1,a1,a2
   1bee4:	00b32023          	sw	a1,0(t1)
   1bee8:	00e405b3          	add	a1,s0,a4
   1beec:	0038f613          	andi	a2,a7,3
   1bef0:	00c68733          	add	a4,a3,a2
   1bef4:	ece6efe3          	bltu	a3,a4,1bdd2 <_ZN17compiler_builtins3mem6memcpy17h90d0c987d2ef5a79E+0x76>
   1bef8:	b5ed                	j	1bde2 <_ZN17compiler_builtins3mem6memcpy17h90d0c987d2ef5a79E+0x86>
