
target/riscv32imc-unknown-none-elf/opt-1/examples/complex_no_dynamic:     file format elf32-littleriscv

Sections:
Idx Name          Size      VMA       LMA       File off  Algn
  0 .eh_frame     00000060  000100d4  000100d4  000000d4  2**2
                  CONTENTS, ALLOC, LOAD, READONLY, DATA
  1 .text         0000bda2  00011134  00011134  00000134  2**1
                  CONTENTS, ALLOC, LOAD, READONLY, CODE
  2 .comment      0000008b  00000000  00000000  0000bed6  2**0
                  CONTENTS, READONLY
  3 .riscv.attributes 0000002f  00000000  00000000  0000bf61  2**0
                  CONTENTS, READONLY

Disassembly of section .text:

00011134 <_ZN18complex_no_dynamic3app17h016d6322d5dc8a85E>:
   11134:	7171                	addi	sp,sp,-176
   11136:	d706                	sw	ra,172(sp)
   11138:	d522                	sw	s0,168(sp)
   1113a:	d326                	sw	s1,164(sp)
   1113c:	842a                	mv	s0,a0
   1113e:	0048                	addi	a0,sp,4
   11140:	05300613          	li	a2,83
   11144:	0000c097          	auipc	ra,0xc
   11148:	bec080e7          	jalr	-1044(ra) # 1cd30 <memcpy>
   1114c:	05710513          	addi	a0,sp,87
   11150:	04d00613          	li	a2,77
   11154:	4581                	li	a1,0
   11156:	0000c097          	auipc	ra,0xc
   1115a:	b6e080e7          	jalr	-1170(ra) # 1ccc4 <memset>
   1115e:	6505                	lui	a0,0x1
   11160:	45a5                	li	a1,9
   11162:	0050                	addi	a2,sp,4
   11164:	05300693          	li	a3,83
   11168:	6ba50793          	addi	a5,a0,1722 # 16ba <.Lline_table_start1+0x148f>
   1116c:	4711                	li	a4,4
   1116e:	4489                	li	s1,2
   11170:	853e                	mv	a0,a5
   11172:	00000073          	ecall
   11176:	02950b63          	beq	a0,s1,111ac <_ZN18complex_no_dynamic3app17h016d6322d5dc8a85E+0x78>
   1117a:	4591                	li	a1,4
   1117c:	05710613          	addi	a2,sp,87
   11180:	04d00693          	li	a3,77
   11184:	470d                	li	a4,3
   11186:	853e                	mv	a0,a5
   11188:	00000073          	ecall
   1118c:	02950063          	beq	a0,s1,111ac <_ZN18complex_no_dynamic3app17h016d6322d5dc8a85E+0x78>
   11190:	6505                	lui	a0,0x1
   11192:	45a5                	li	a1,9
   11194:	4611                	li	a2,4
   11196:	6ba50793          	addi	a5,a0,1722 # 16ba <.Lline_table_start1+0x148f>
   1119a:	4709                	li	a4,2
   1119c:	07f00493          	li	s1,127
   111a0:	853e                	mv	a0,a5
   111a2:	4681                	li	a3,0
   111a4:	00000073          	ecall
   111a8:	02a4eb63          	bltu	s1,a0,111de <_ZN18complex_no_dynamic3app17h016d6322d5dc8a85E+0xaa>
   111ac:	4785                	li	a5,1
   111ae:	c3a9                	beqz	a5,111f0 <_ZN18complex_no_dynamic3app17h016d6322d5dc8a85E+0xbc>
   111b0:	4601                	li	a2,0
   111b2:	4681                	li	a3,0
   111b4:	4505                	li	a0,1
   111b6:	6705                	lui	a4,0x1
   111b8:	87ae                	mv	a5,a1
   111ba:	4591                	li	a1,4
   111bc:	00a40023          	sb	a0,0(s0)
   111c0:	c05c                	sw	a5,4(s0)
   111c2:	6ba70793          	addi	a5,a4,1722 # 16ba <.Lline_table_start1+0x148f>
   111c6:	470d                	li	a4,3
   111c8:	853e                	mv	a0,a5
   111ca:	00000073          	ecall
   111ce:	45a5                	li	a1,9
   111d0:	4711                	li	a4,4
   111d2:	853e                	mv	a0,a5
   111d4:	4601                	li	a2,0
   111d6:	4681                	li	a3,0
   111d8:	00000073          	ecall
   111dc:	a8b1                	j	11238 <_ZN18complex_no_dynamic3app17h016d6322d5dc8a85E+0x104>
   111de:	853e                	mv	a0,a5
   111e0:	4601                	li	a2,0
   111e2:	4681                	li	a3,0
   111e4:	4781                	li	a5,0
   111e6:	4591                	li	a1,4
   111e8:	470d                	li	a4,3
   111ea:	00000073          	ecall
   111ee:	f3e9                	bnez	a5,111b0 <_ZN18complex_no_dynamic3app17h016d6322d5dc8a85E+0x7c>
   111f0:	6505                	lui	a0,0x1
   111f2:	6ba50493          	addi	s1,a0,1722 # 16ba <.Lline_table_start1+0x148f>
   111f6:	4591                	li	a1,4
   111f8:	470d                	li	a4,3
   111fa:	8526                	mv	a0,s1
   111fc:	4601                	li	a2,0
   111fe:	4681                	li	a3,0
   11200:	00000073          	ecall
   11204:	00140513          	addi	a0,s0,1
   11208:	05710593          	addi	a1,sp,87
   1120c:	04d00613          	li	a2,77
   11210:	0000c097          	auipc	ra,0xc
   11214:	b20080e7          	jalr	-1248(ra) # 1cd30 <memcpy>
   11218:	8526                	mv	a0,s1
   1121a:	4601                	li	a2,0
   1121c:	4681                	li	a3,0
   1121e:	00040023          	sb	zero,0(s0)
   11222:	4591                	li	a1,4
   11224:	470d                	li	a4,3
   11226:	00000073          	ecall
   1122a:	45a5                	li	a1,9
   1122c:	4711                	li	a4,4
   1122e:	8526                	mv	a0,s1
   11230:	4601                	li	a2,0
   11232:	4681                	li	a3,0
   11234:	00000073          	ecall
   11238:	50ba                	lw	ra,172(sp)
   1123a:	542a                	lw	s0,168(sp)
   1123c:	549a                	lw	s1,164(sp)
   1123e:	614d                	addi	sp,sp,176
   11240:	8082                	ret

00011242 <_ZN18complex_no_dynamic3app17h020b9023b1f01e03E>:
   11242:	7119                	addi	sp,sp,-128
   11244:	de86                	sw	ra,124(sp)
   11246:	dca2                	sw	s0,120(sp)
   11248:	daa6                	sw	s1,116(sp)
   1124a:	842a                	mv	s0,a0
   1124c:	850a                	mv	a0,sp
   1124e:	03c00613          	li	a2,60
   11252:	0000c097          	auipc	ra,0xc
   11256:	ade080e7          	jalr	-1314(ra) # 1cd30 <memcpy>
   1125a:	1868                	addi	a0,sp,60
   1125c:	03800613          	li	a2,56
   11260:	4581                	li	a1,0
   11262:	0000c097          	auipc	ra,0xc
   11266:	a62080e7          	jalr	-1438(ra) # 1ccc4 <memset>
   1126a:	6509                	lui	a0,0x2
   1126c:	458d                	li	a1,3
   1126e:	860a                	mv	a2,sp
   11270:	03c00693          	li	a3,60
   11274:	d1950793          	addi	a5,a0,-743 # 1d19 <.Lline_table_start1+0x1aee>
   11278:	4711                	li	a4,4
   1127a:	4489                	li	s1,2
   1127c:	853e                	mv	a0,a5
   1127e:	00000073          	ecall
   11282:	02950a63          	beq	a0,s1,112b6 <_ZN18complex_no_dynamic3app17h020b9023b1f01e03E+0x74>
   11286:	458d                	li	a1,3
   11288:	1870                	addi	a2,sp,60
   1128a:	03800693          	li	a3,56
   1128e:	470d                	li	a4,3
   11290:	853e                	mv	a0,a5
   11292:	00000073          	ecall
   11296:	02950063          	beq	a0,s1,112b6 <_ZN18complex_no_dynamic3app17h020b9023b1f01e03E+0x74>
   1129a:	6509                	lui	a0,0x2
   1129c:	458d                	li	a1,3
   1129e:	460d                	li	a2,3
   112a0:	d1950793          	addi	a5,a0,-743 # 1d19 <.Lline_table_start1+0x1aee>
   112a4:	4709                	li	a4,2
   112a6:	07f00493          	li	s1,127
   112aa:	853e                	mv	a0,a5
   112ac:	4681                	li	a3,0
   112ae:	00000073          	ecall
   112b2:	02a4eb63          	bltu	s1,a0,112e8 <_ZN18complex_no_dynamic3app17h020b9023b1f01e03E+0xa6>
   112b6:	4785                	li	a5,1
   112b8:	c3a9                	beqz	a5,112fa <_ZN18complex_no_dynamic3app17h020b9023b1f01e03E+0xb8>
   112ba:	4601                	li	a2,0
   112bc:	4681                	li	a3,0
   112be:	4505                	li	a0,1
   112c0:	6709                	lui	a4,0x2
   112c2:	87ae                	mv	a5,a1
   112c4:	458d                	li	a1,3
   112c6:	00a40023          	sb	a0,0(s0)
   112ca:	c05c                	sw	a5,4(s0)
   112cc:	d1970793          	addi	a5,a4,-743 # 1d19 <.Lline_table_start1+0x1aee>
   112d0:	470d                	li	a4,3
   112d2:	853e                	mv	a0,a5
   112d4:	00000073          	ecall
   112d8:	458d                	li	a1,3
   112da:	4711                	li	a4,4
   112dc:	853e                	mv	a0,a5
   112de:	4601                	li	a2,0
   112e0:	4681                	li	a3,0
   112e2:	00000073          	ecall
   112e6:	a8a9                	j	11340 <_ZN18complex_no_dynamic3app17h020b9023b1f01e03E+0xfe>
   112e8:	853e                	mv	a0,a5
   112ea:	4601                	li	a2,0
   112ec:	4681                	li	a3,0
   112ee:	4781                	li	a5,0
   112f0:	458d                	li	a1,3
   112f2:	470d                	li	a4,3
   112f4:	00000073          	ecall
   112f8:	f3e9                	bnez	a5,112ba <_ZN18complex_no_dynamic3app17h020b9023b1f01e03E+0x78>
   112fa:	6509                	lui	a0,0x2
   112fc:	d1950493          	addi	s1,a0,-743 # 1d19 <.Lline_table_start1+0x1aee>
   11300:	458d                	li	a1,3
   11302:	470d                	li	a4,3
   11304:	8526                	mv	a0,s1
   11306:	4601                	li	a2,0
   11308:	4681                	li	a3,0
   1130a:	00000073          	ecall
   1130e:	00140513          	addi	a0,s0,1
   11312:	186c                	addi	a1,sp,60
   11314:	03800613          	li	a2,56
   11318:	0000c097          	auipc	ra,0xc
   1131c:	a18080e7          	jalr	-1512(ra) # 1cd30 <memcpy>
   11320:	8526                	mv	a0,s1
   11322:	4601                	li	a2,0
   11324:	4681                	li	a3,0
   11326:	00040023          	sb	zero,0(s0)
   1132a:	458d                	li	a1,3
   1132c:	470d                	li	a4,3
   1132e:	00000073          	ecall
   11332:	458d                	li	a1,3
   11334:	4711                	li	a4,4
   11336:	8526                	mv	a0,s1
   11338:	4601                	li	a2,0
   1133a:	4681                	li	a3,0
   1133c:	00000073          	ecall
   11340:	50f6                	lw	ra,124(sp)
   11342:	5466                	lw	s0,120(sp)
   11344:	54d6                	lw	s1,116(sp)
   11346:	6109                	addi	sp,sp,128
   11348:	8082                	ret

0001134a <_ZN18complex_no_dynamic3app17h02f1f369795bad3eE>:
   1134a:	7175                	addi	sp,sp,-144
   1134c:	c706                	sw	ra,140(sp)
   1134e:	c522                	sw	s0,136(sp)
   11350:	c326                	sw	s1,132(sp)
   11352:	842a                	mv	s0,a0
   11354:	00d10513          	addi	a0,sp,13
   11358:	04a00613          	li	a2,74
   1135c:	0000c097          	auipc	ra,0xc
   11360:	9d4080e7          	jalr	-1580(ra) # 1cd30 <memcpy>
   11364:	05710513          	addi	a0,sp,87
   11368:	02d00613          	li	a2,45
   1136c:	4581                	li	a1,0
   1136e:	0000c097          	auipc	ra,0xc
   11372:	956080e7          	jalr	-1706(ra) # 1ccc4 <memset>
   11376:	6505                	lui	a0,0x1
   11378:	4489                	li	s1,2
   1137a:	4589                	li	a1,2
   1137c:	00d10613          	addi	a2,sp,13
   11380:	e3d50793          	addi	a5,a0,-451 # e3d <.Lline_table_start1+0xc12>
   11384:	04a00693          	li	a3,74
   11388:	4711                	li	a4,4
   1138a:	853e                	mv	a0,a5
   1138c:	00000073          	ecall
   11390:	02950b63          	beq	a0,s1,113c6 <_ZN18complex_no_dynamic3app17h02f1f369795bad3eE+0x7c>
   11394:	458d                	li	a1,3
   11396:	05710613          	addi	a2,sp,87
   1139a:	02d00693          	li	a3,45
   1139e:	470d                	li	a4,3
   113a0:	853e                	mv	a0,a5
   113a2:	00000073          	ecall
   113a6:	02950063          	beq	a0,s1,113c6 <_ZN18complex_no_dynamic3app17h02f1f369795bad3eE+0x7c>
   113aa:	6505                	lui	a0,0x1
   113ac:	4589                	li	a1,2
   113ae:	460d                	li	a2,3
   113b0:	e3d50793          	addi	a5,a0,-451 # e3d <.Lline_table_start1+0xc12>
   113b4:	4709                	li	a4,2
   113b6:	07f00493          	li	s1,127
   113ba:	853e                	mv	a0,a5
   113bc:	4681                	li	a3,0
   113be:	00000073          	ecall
   113c2:	02a4eb63          	bltu	s1,a0,113f8 <_ZN18complex_no_dynamic3app17h02f1f369795bad3eE+0xae>
   113c6:	4785                	li	a5,1
   113c8:	c3a9                	beqz	a5,1140a <_ZN18complex_no_dynamic3app17h02f1f369795bad3eE+0xc0>
   113ca:	4601                	li	a2,0
   113cc:	4681                	li	a3,0
   113ce:	4505                	li	a0,1
   113d0:	6705                	lui	a4,0x1
   113d2:	87ae                	mv	a5,a1
   113d4:	458d                	li	a1,3
   113d6:	00a40023          	sb	a0,0(s0)
   113da:	c05c                	sw	a5,4(s0)
   113dc:	e3d70793          	addi	a5,a4,-451 # e3d <.Lline_table_start1+0xc12>
   113e0:	470d                	li	a4,3
   113e2:	853e                	mv	a0,a5
   113e4:	00000073          	ecall
   113e8:	4589                	li	a1,2
   113ea:	4711                	li	a4,4
   113ec:	853e                	mv	a0,a5
   113ee:	4601                	li	a2,0
   113f0:	4681                	li	a3,0
   113f2:	00000073          	ecall
   113f6:	a8b1                	j	11452 <_ZN18complex_no_dynamic3app17h02f1f369795bad3eE+0x108>
   113f8:	853e                	mv	a0,a5
   113fa:	4601                	li	a2,0
   113fc:	4681                	li	a3,0
   113fe:	4781                	li	a5,0
   11400:	458d                	li	a1,3
   11402:	470d                	li	a4,3
   11404:	00000073          	ecall
   11408:	f3e9                	bnez	a5,113ca <_ZN18complex_no_dynamic3app17h02f1f369795bad3eE+0x80>
   1140a:	6505                	lui	a0,0x1
   1140c:	e3d50493          	addi	s1,a0,-451 # e3d <.Lline_table_start1+0xc12>
   11410:	458d                	li	a1,3
   11412:	470d                	li	a4,3
   11414:	8526                	mv	a0,s1
   11416:	4601                	li	a2,0
   11418:	4681                	li	a3,0
   1141a:	00000073          	ecall
   1141e:	00140513          	addi	a0,s0,1
   11422:	05710593          	addi	a1,sp,87
   11426:	02d00613          	li	a2,45
   1142a:	0000c097          	auipc	ra,0xc
   1142e:	906080e7          	jalr	-1786(ra) # 1cd30 <memcpy>
   11432:	8526                	mv	a0,s1
   11434:	4601                	li	a2,0
   11436:	4681                	li	a3,0
   11438:	00040023          	sb	zero,0(s0)
   1143c:	458d                	li	a1,3
   1143e:	470d                	li	a4,3
   11440:	00000073          	ecall
   11444:	4589                	li	a1,2
   11446:	4711                	li	a4,4
   11448:	8526                	mv	a0,s1
   1144a:	4601                	li	a2,0
   1144c:	4681                	li	a3,0
   1144e:	00000073          	ecall
   11452:	40ba                	lw	ra,140(sp)
   11454:	442a                	lw	s0,136(sp)
   11456:	449a                	lw	s1,132(sp)
   11458:	6149                	addi	sp,sp,144
   1145a:	8082                	ret

0001145c <_ZN18complex_no_dynamic3app17h06076dcf394c70cbE>:
   1145c:	7119                	addi	sp,sp,-128
   1145e:	de86                	sw	ra,124(sp)
   11460:	dca2                	sw	s0,120(sp)
   11462:	daa6                	sw	s1,116(sp)
   11464:	842a                	mv	s0,a0
   11466:	00b10513          	addi	a0,sp,11
   1146a:	05500613          	li	a2,85
   1146e:	0000c097          	auipc	ra,0xc
   11472:	8c2080e7          	jalr	-1854(ra) # 1cd30 <memcpy>
   11476:	06010823          	sb	zero,112(sp)
   1147a:	d082                	sw	zero,96(sp)
   1147c:	d282                	sw	zero,100(sp)
   1147e:	d482                	sw	zero,104(sp)
   11480:	d682                	sw	zero,108(sp)
   11482:	6505                	lui	a0,0x1
   11484:	4489                	li	s1,2
   11486:	4589                	li	a1,2
   11488:	00b10613          	addi	a2,sp,11
   1148c:	c8950793          	addi	a5,a0,-887 # c89 <.Lline_table_start1+0xa5e>
   11490:	05500693          	li	a3,85
   11494:	4711                	li	a4,4
   11496:	853e                	mv	a0,a5
   11498:	00000073          	ecall
   1149c:	02950963          	beq	a0,s1,114ce <_ZN18complex_no_dynamic3app17h06076dcf394c70cbE+0x72>
   114a0:	4589                	li	a1,2
   114a2:	1090                	addi	a2,sp,96
   114a4:	46c5                	li	a3,17
   114a6:	470d                	li	a4,3
   114a8:	853e                	mv	a0,a5
   114aa:	00000073          	ecall
   114ae:	02950063          	beq	a0,s1,114ce <_ZN18complex_no_dynamic3app17h06076dcf394c70cbE+0x72>
   114b2:	6505                	lui	a0,0x1
   114b4:	4589                	li	a1,2
   114b6:	4609                	li	a2,2
   114b8:	c8950793          	addi	a5,a0,-887 # c89 <.Lline_table_start1+0xa5e>
   114bc:	4709                	li	a4,2
   114be:	07f00493          	li	s1,127
   114c2:	853e                	mv	a0,a5
   114c4:	4681                	li	a3,0
   114c6:	00000073          	ecall
   114ca:	02a4eb63          	bltu	s1,a0,11500 <_ZN18complex_no_dynamic3app17h06076dcf394c70cbE+0xa4>
   114ce:	4785                	li	a5,1
   114d0:	c3a9                	beqz	a5,11512 <_ZN18complex_no_dynamic3app17h06076dcf394c70cbE+0xb6>
   114d2:	4601                	li	a2,0
   114d4:	4681                	li	a3,0
   114d6:	4505                	li	a0,1
   114d8:	6705                	lui	a4,0x1
   114da:	87ae                	mv	a5,a1
   114dc:	4589                	li	a1,2
   114de:	00a40023          	sb	a0,0(s0)
   114e2:	c05c                	sw	a5,4(s0)
   114e4:	c8970793          	addi	a5,a4,-887 # c89 <.Lline_table_start1+0xa5e>
   114e8:	470d                	li	a4,3
   114ea:	853e                	mv	a0,a5
   114ec:	00000073          	ecall
   114f0:	4589                	li	a1,2
   114f2:	4711                	li	a4,4
   114f4:	853e                	mv	a0,a5
   114f6:	4601                	li	a2,0
   114f8:	4681                	li	a3,0
   114fa:	00000073          	ecall
   114fe:	a8a1                	j	11556 <_ZN18complex_no_dynamic3app17h06076dcf394c70cbE+0xfa>
   11500:	853e                	mv	a0,a5
   11502:	4601                	li	a2,0
   11504:	4681                	li	a3,0
   11506:	4781                	li	a5,0
   11508:	4589                	li	a1,2
   1150a:	470d                	li	a4,3
   1150c:	00000073          	ecall
   11510:	f3e9                	bnez	a5,114d2 <_ZN18complex_no_dynamic3app17h06076dcf394c70cbE+0x76>
   11512:	6505                	lui	a0,0x1
   11514:	c8950493          	addi	s1,a0,-887 # c89 <.Lline_table_start1+0xa5e>
   11518:	4589                	li	a1,2
   1151a:	470d                	li	a4,3
   1151c:	8526                	mv	a0,s1
   1151e:	4601                	li	a2,0
   11520:	4681                	li	a3,0
   11522:	00000073          	ecall
   11526:	00140513          	addi	a0,s0,1
   1152a:	108c                	addi	a1,sp,96
   1152c:	4645                	li	a2,17
   1152e:	0000c097          	auipc	ra,0xc
   11532:	802080e7          	jalr	-2046(ra) # 1cd30 <memcpy>
   11536:	8526                	mv	a0,s1
   11538:	4601                	li	a2,0
   1153a:	4681                	li	a3,0
   1153c:	00040023          	sb	zero,0(s0)
   11540:	4589                	li	a1,2
   11542:	470d                	li	a4,3
   11544:	00000073          	ecall
   11548:	4589                	li	a1,2
   1154a:	4711                	li	a4,4
   1154c:	8526                	mv	a0,s1
   1154e:	4601                	li	a2,0
   11550:	4681                	li	a3,0
   11552:	00000073          	ecall
   11556:	50f6                	lw	ra,124(sp)
   11558:	5466                	lw	s0,120(sp)
   1155a:	54d6                	lw	s1,116(sp)
   1155c:	6109                	addi	sp,sp,128
   1155e:	8082                	ret

00011560 <_ZN18complex_no_dynamic3app17h06a36b3fc2b0f40aE>:
   11560:	7119                	addi	sp,sp,-128
   11562:	de86                	sw	ra,124(sp)
   11564:	dca2                	sw	s0,120(sp)
   11566:	daa6                	sw	s1,116(sp)
   11568:	842a                	mv	s0,a0
   1156a:	00310513          	addi	a0,sp,3
   1156e:	04000613          	li	a2,64
   11572:	0000b097          	auipc	ra,0xb
   11576:	7be080e7          	jalr	1982(ra) # 1cd30 <memcpy>
   1157a:	04310513          	addi	a0,sp,67
   1157e:	03100613          	li	a2,49
   11582:	4581                	li	a1,0
   11584:	0000b097          	auipc	ra,0xb
   11588:	740080e7          	jalr	1856(ra) # 1ccc4 <memset>
   1158c:	6505                	lui	a0,0x1
   1158e:	45a1                	li	a1,8
   11590:	00310613          	addi	a2,sp,3
   11594:	04000693          	li	a3,64
   11598:	fce50793          	addi	a5,a0,-50 # fce <.Lline_table_start1+0xda3>
   1159c:	4711                	li	a4,4
   1159e:	4489                	li	s1,2
   115a0:	853e                	mv	a0,a5
   115a2:	00000073          	ecall
   115a6:	02950b63          	beq	a0,s1,115dc <_ZN18complex_no_dynamic3app17h06a36b3fc2b0f40aE+0x7c>
   115aa:	4595                	li	a1,5
   115ac:	04310613          	addi	a2,sp,67
   115b0:	03100693          	li	a3,49
   115b4:	470d                	li	a4,3
   115b6:	853e                	mv	a0,a5
   115b8:	00000073          	ecall
   115bc:	02950063          	beq	a0,s1,115dc <_ZN18complex_no_dynamic3app17h06a36b3fc2b0f40aE+0x7c>
   115c0:	6505                	lui	a0,0x1
   115c2:	45a1                	li	a1,8
   115c4:	4615                	li	a2,5
   115c6:	fce50793          	addi	a5,a0,-50 # fce <.Lline_table_start1+0xda3>
   115ca:	4709                	li	a4,2
   115cc:	07f00493          	li	s1,127
   115d0:	853e                	mv	a0,a5
   115d2:	4681                	li	a3,0
   115d4:	00000073          	ecall
   115d8:	02a4eb63          	bltu	s1,a0,1160e <_ZN18complex_no_dynamic3app17h06a36b3fc2b0f40aE+0xae>
   115dc:	4785                	li	a5,1
   115de:	c3a9                	beqz	a5,11620 <_ZN18complex_no_dynamic3app17h06a36b3fc2b0f40aE+0xc0>
   115e0:	4601                	li	a2,0
   115e2:	4681                	li	a3,0
   115e4:	4505                	li	a0,1
   115e6:	6705                	lui	a4,0x1
   115e8:	87ae                	mv	a5,a1
   115ea:	4595                	li	a1,5
   115ec:	00a40023          	sb	a0,0(s0)
   115f0:	c05c                	sw	a5,4(s0)
   115f2:	fce70793          	addi	a5,a4,-50 # fce <.Lline_table_start1+0xda3>
   115f6:	470d                	li	a4,3
   115f8:	853e                	mv	a0,a5
   115fa:	00000073          	ecall
   115fe:	45a1                	li	a1,8
   11600:	4711                	li	a4,4
   11602:	853e                	mv	a0,a5
   11604:	4601                	li	a2,0
   11606:	4681                	li	a3,0
   11608:	00000073          	ecall
   1160c:	a8b1                	j	11668 <_ZN18complex_no_dynamic3app17h06a36b3fc2b0f40aE+0x108>
   1160e:	853e                	mv	a0,a5
   11610:	4601                	li	a2,0
   11612:	4681                	li	a3,0
   11614:	4781                	li	a5,0
   11616:	4595                	li	a1,5
   11618:	470d                	li	a4,3
   1161a:	00000073          	ecall
   1161e:	f3e9                	bnez	a5,115e0 <_ZN18complex_no_dynamic3app17h06a36b3fc2b0f40aE+0x80>
   11620:	6505                	lui	a0,0x1
   11622:	fce50493          	addi	s1,a0,-50 # fce <.Lline_table_start1+0xda3>
   11626:	4595                	li	a1,5
   11628:	470d                	li	a4,3
   1162a:	8526                	mv	a0,s1
   1162c:	4601                	li	a2,0
   1162e:	4681                	li	a3,0
   11630:	00000073          	ecall
   11634:	00140513          	addi	a0,s0,1
   11638:	04310593          	addi	a1,sp,67
   1163c:	03100613          	li	a2,49
   11640:	0000b097          	auipc	ra,0xb
   11644:	6f0080e7          	jalr	1776(ra) # 1cd30 <memcpy>
   11648:	8526                	mv	a0,s1
   1164a:	4601                	li	a2,0
   1164c:	4681                	li	a3,0
   1164e:	00040023          	sb	zero,0(s0)
   11652:	4595                	li	a1,5
   11654:	470d                	li	a4,3
   11656:	00000073          	ecall
   1165a:	45a1                	li	a1,8
   1165c:	4711                	li	a4,4
   1165e:	8526                	mv	a0,s1
   11660:	4601                	li	a2,0
   11662:	4681                	li	a3,0
   11664:	00000073          	ecall
   11668:	50f6                	lw	ra,124(sp)
   1166a:	5466                	lw	s0,120(sp)
   1166c:	54d6                	lw	s1,116(sp)
   1166e:	6109                	addi	sp,sp,128
   11670:	8082                	ret

00011672 <_ZN18complex_no_dynamic3app17h073ff5304c8bce15E>:
   11672:	7175                	addi	sp,sp,-144
   11674:	c706                	sw	ra,140(sp)
   11676:	c522                	sw	s0,136(sp)
   11678:	c326                	sw	s1,132(sp)
   1167a:	842a                	mv	s0,a0
   1167c:	0068                	addi	a0,sp,12
   1167e:	02700613          	li	a2,39
   11682:	0000b097          	auipc	ra,0xb
   11686:	6ae080e7          	jalr	1710(ra) # 1cd30 <memcpy>
   1168a:	03310513          	addi	a0,sp,51
   1168e:	05100613          	li	a2,81
   11692:	4581                	li	a1,0
   11694:	0000b097          	auipc	ra,0xb
   11698:	630080e7          	jalr	1584(ra) # 1ccc4 <memset>
   1169c:	6505                	lui	a0,0x1
   1169e:	0070                	addi	a2,sp,12
   116a0:	02700693          	li	a3,39
   116a4:	a3650793          	addi	a5,a0,-1482 # a36 <.Lline_table_start1+0x80b>
   116a8:	4711                	li	a4,4
   116aa:	4489                	li	s1,2
   116ac:	853e                	mv	a0,a5
   116ae:	4581                	li	a1,0
   116b0:	00000073          	ecall
   116b4:	02950b63          	beq	a0,s1,116ea <_ZN18complex_no_dynamic3app17h073ff5304c8bce15E+0x78>
   116b8:	4591                	li	a1,4
   116ba:	03310613          	addi	a2,sp,51
   116be:	05100693          	li	a3,81
   116c2:	470d                	li	a4,3
   116c4:	853e                	mv	a0,a5
   116c6:	00000073          	ecall
   116ca:	02950063          	beq	a0,s1,116ea <_ZN18complex_no_dynamic3app17h073ff5304c8bce15E+0x78>
   116ce:	6505                	lui	a0,0x1
   116d0:	4611                	li	a2,4
   116d2:	a3650793          	addi	a5,a0,-1482 # a36 <.Lline_table_start1+0x80b>
   116d6:	4709                	li	a4,2
   116d8:	07f00493          	li	s1,127
   116dc:	853e                	mv	a0,a5
   116de:	4581                	li	a1,0
   116e0:	4681                	li	a3,0
   116e2:	00000073          	ecall
   116e6:	02a4ea63          	bltu	s1,a0,1171a <_ZN18complex_no_dynamic3app17h073ff5304c8bce15E+0xa8>
   116ea:	4785                	li	a5,1
   116ec:	c3a1                	beqz	a5,1172c <_ZN18complex_no_dynamic3app17h073ff5304c8bce15E+0xba>
   116ee:	4505                	li	a0,1
   116f0:	6605                	lui	a2,0x1
   116f2:	00a40023          	sb	a0,0(s0)
   116f6:	c04c                	sw	a1,4(s0)
   116f8:	a3660793          	addi	a5,a2,-1482 # a36 <.Lline_table_start1+0x80b>
   116fc:	4591                	li	a1,4
   116fe:	470d                	li	a4,3
   11700:	853e                	mv	a0,a5
   11702:	4601                	li	a2,0
   11704:	4681                	li	a3,0
   11706:	00000073          	ecall
   1170a:	4711                	li	a4,4
   1170c:	853e                	mv	a0,a5
   1170e:	4581                	li	a1,0
   11710:	4601                	li	a2,0
   11712:	4681                	li	a3,0
   11714:	00000073          	ecall
   11718:	a8b1                	j	11774 <_ZN18complex_no_dynamic3app17h073ff5304c8bce15E+0x102>
   1171a:	853e                	mv	a0,a5
   1171c:	4601                	li	a2,0
   1171e:	4681                	li	a3,0
   11720:	4781                	li	a5,0
   11722:	4591                	li	a1,4
   11724:	470d                	li	a4,3
   11726:	00000073          	ecall
   1172a:	f3f1                	bnez	a5,116ee <_ZN18complex_no_dynamic3app17h073ff5304c8bce15E+0x7c>
   1172c:	6505                	lui	a0,0x1
   1172e:	a3650493          	addi	s1,a0,-1482 # a36 <.Lline_table_start1+0x80b>
   11732:	4591                	li	a1,4
   11734:	470d                	li	a4,3
   11736:	8526                	mv	a0,s1
   11738:	4601                	li	a2,0
   1173a:	4681                	li	a3,0
   1173c:	00000073          	ecall
   11740:	00140513          	addi	a0,s0,1
   11744:	03310593          	addi	a1,sp,51
   11748:	05100613          	li	a2,81
   1174c:	0000b097          	auipc	ra,0xb
   11750:	5e4080e7          	jalr	1508(ra) # 1cd30 <memcpy>
   11754:	00040023          	sb	zero,0(s0)
   11758:	4591                	li	a1,4
   1175a:	470d                	li	a4,3
   1175c:	8526                	mv	a0,s1
   1175e:	4601                	li	a2,0
   11760:	4681                	li	a3,0
   11762:	00000073          	ecall
   11766:	4711                	li	a4,4
   11768:	8526                	mv	a0,s1
   1176a:	4581                	li	a1,0
   1176c:	4601                	li	a2,0
   1176e:	4681                	li	a3,0
   11770:	00000073          	ecall
   11774:	40ba                	lw	ra,140(sp)
   11776:	442a                	lw	s0,136(sp)
   11778:	449a                	lw	s1,132(sp)
   1177a:	6149                	addi	sp,sp,144
   1177c:	8082                	ret

0001177e <_ZN18complex_no_dynamic3app17h07ff5804617c8858E>:
   1177e:	7159                	addi	sp,sp,-112
   11780:	d686                	sw	ra,108(sp)
   11782:	d4a2                	sw	s0,104(sp)
   11784:	d2a6                	sw	s1,100(sp)
   11786:	d0ca                	sw	s2,96(sp)
   11788:	892a                	mv	s2,a0
   1178a:	00c5c503          	lbu	a0,12(a1)
   1178e:	00d5c603          	lbu	a2,13(a1)
   11792:	0085c683          	lbu	a3,8(a1)
   11796:	0095c703          	lbu	a4,9(a1)
   1179a:	00a5c783          	lbu	a5,10(a1)
   1179e:	00b5c483          	lbu	s1,11(a1)
   117a2:	0622                	slli	a2,a2,0x8
   117a4:	0722                	slli	a4,a4,0x8
   117a6:	00a66833          	or	a6,a2,a0
   117aa:	8ed9                	or	a3,a3,a4
   117ac:	0045c603          	lbu	a2,4(a1)
   117b0:	0055c703          	lbu	a4,5(a1)
   117b4:	0065c403          	lbu	s0,6(a1)
   117b8:	0075c503          	lbu	a0,7(a1)
   117bc:	07c2                	slli	a5,a5,0x10
   117be:	04e2                	slli	s1,s1,0x18
   117c0:	0722                	slli	a4,a4,0x8
   117c2:	0442                	slli	s0,s0,0x10
   117c4:	0562                	slli	a0,a0,0x18
   117c6:	8fc5                	or	a5,a5,s1
   117c8:	8e59                	or	a2,a2,a4
   117ca:	0005c703          	lbu	a4,0(a1)
   117ce:	0015c483          	lbu	s1,1(a1)
   117d2:	8d41                	or	a0,a0,s0
   117d4:	0025c403          	lbu	s0,2(a1)
   117d8:	0035c583          	lbu	a1,3(a1)
   117dc:	04a2                	slli	s1,s1,0x8
   117de:	8f45                	or	a4,a4,s1
   117e0:	0442                	slli	s0,s0,0x10
   117e2:	05e2                	slli	a1,a1,0x18
   117e4:	8dc1                	or	a1,a1,s0
   117e6:	8edd                	or	a3,a3,a5
   117e8:	8d51                	or	a0,a0,a2
   117ea:	8dd9                	or	a1,a1,a4
   117ec:	c42e                	sw	a1,8(sp)
   117ee:	c62a                	sw	a0,12(sp)
   117f0:	c836                	sw	a3,16(sp)
   117f2:	01011a23          	sh	a6,20(sp)
   117f6:	0828                	addi	a0,sp,24
   117f8:	04800613          	li	a2,72
   117fc:	4581                	li	a1,0
   117fe:	0000b097          	auipc	ra,0xb
   11802:	4c6080e7          	jalr	1222(ra) # 1ccc4 <memset>
   11806:	6505                	lui	a0,0x1
   11808:	458d                	li	a1,3
   1180a:	0030                	addi	a2,sp,8
   1180c:	46b9                	li	a3,14
   1180e:	2d150793          	addi	a5,a0,721 # 12d1 <.Lline_table_start1+0x10a6>
   11812:	4711                	li	a4,4
   11814:	4489                	li	s1,2
   11816:	853e                	mv	a0,a5
   11818:	00000073          	ecall
   1181c:	02950a63          	beq	a0,s1,11850 <_ZN18complex_no_dynamic3app17h07ff5804617c8858E+0xd2>
   11820:	45a1                	li	a1,8
   11822:	0830                	addi	a2,sp,24
   11824:	04800693          	li	a3,72
   11828:	470d                	li	a4,3
   1182a:	853e                	mv	a0,a5
   1182c:	00000073          	ecall
   11830:	02950063          	beq	a0,s1,11850 <_ZN18complex_no_dynamic3app17h07ff5804617c8858E+0xd2>
   11834:	6505                	lui	a0,0x1
   11836:	458d                	li	a1,3
   11838:	4621                	li	a2,8
   1183a:	2d150793          	addi	a5,a0,721 # 12d1 <.Lline_table_start1+0x10a6>
   1183e:	4709                	li	a4,2
   11840:	07f00493          	li	s1,127
   11844:	853e                	mv	a0,a5
   11846:	4681                	li	a3,0
   11848:	00000073          	ecall
   1184c:	02a4ec63          	bltu	s1,a0,11884 <_ZN18complex_no_dynamic3app17h07ff5804617c8858E+0x106>
   11850:	4785                	li	a5,1
   11852:	c3b1                	beqz	a5,11896 <_ZN18complex_no_dynamic3app17h07ff5804617c8858E+0x118>
   11854:	4601                	li	a2,0
   11856:	4681                	li	a3,0
   11858:	4505                	li	a0,1
   1185a:	6705                	lui	a4,0x1
   1185c:	87ae                	mv	a5,a1
   1185e:	45a1                	li	a1,8
   11860:	00a90023          	sb	a0,0(s2)
   11864:	00f92223          	sw	a5,4(s2)
   11868:	2d170793          	addi	a5,a4,721 # 12d1 <.Lline_table_start1+0x10a6>
   1186c:	470d                	li	a4,3
   1186e:	853e                	mv	a0,a5
   11870:	00000073          	ecall
   11874:	458d                	li	a1,3
   11876:	4711                	li	a4,4
   11878:	853e                	mv	a0,a5
   1187a:	4601                	li	a2,0
   1187c:	4681                	li	a3,0
   1187e:	00000073          	ecall
   11882:	a8a9                	j	118dc <_ZN18complex_no_dynamic3app17h07ff5804617c8858E+0x15e>
   11884:	853e                	mv	a0,a5
   11886:	4601                	li	a2,0
   11888:	4681                	li	a3,0
   1188a:	4781                	li	a5,0
   1188c:	45a1                	li	a1,8
   1188e:	470d                	li	a4,3
   11890:	00000073          	ecall
   11894:	f3e1                	bnez	a5,11854 <_ZN18complex_no_dynamic3app17h07ff5804617c8858E+0xd6>
   11896:	6505                	lui	a0,0x1
   11898:	2d150493          	addi	s1,a0,721 # 12d1 <.Lline_table_start1+0x10a6>
   1189c:	45a1                	li	a1,8
   1189e:	470d                	li	a4,3
   118a0:	8526                	mv	a0,s1
   118a2:	4601                	li	a2,0
   118a4:	4681                	li	a3,0
   118a6:	00000073          	ecall
   118aa:	00190513          	addi	a0,s2,1
   118ae:	082c                	addi	a1,sp,24
   118b0:	04800613          	li	a2,72
   118b4:	0000b097          	auipc	ra,0xb
   118b8:	47c080e7          	jalr	1148(ra) # 1cd30 <memcpy>
   118bc:	8526                	mv	a0,s1
   118be:	4601                	li	a2,0
   118c0:	4681                	li	a3,0
   118c2:	00090023          	sb	zero,0(s2)
   118c6:	45a1                	li	a1,8
   118c8:	470d                	li	a4,3
   118ca:	00000073          	ecall
   118ce:	458d                	li	a1,3
   118d0:	4711                	li	a4,4
   118d2:	8526                	mv	a0,s1
   118d4:	4601                	li	a2,0
   118d6:	4681                	li	a3,0
   118d8:	00000073          	ecall
   118dc:	50b6                	lw	ra,108(sp)
   118de:	5426                	lw	s0,104(sp)
   118e0:	5496                	lw	s1,100(sp)
   118e2:	5906                	lw	s2,96(sp)
   118e4:	6165                	addi	sp,sp,112
   118e6:	8082                	ret

000118e8 <_ZN18complex_no_dynamic3app17h0d20983b5c80b388E>:
   118e8:	7135                	addi	sp,sp,-160
   118ea:	cf06                	sw	ra,156(sp)
   118ec:	cd22                	sw	s0,152(sp)
   118ee:	cb26                	sw	s1,148(sp)
   118f0:	c94a                	sw	s2,144(sp)
   118f2:	c74e                	sw	s3,140(sp)
   118f4:	c552                	sw	s4,136(sp)
   118f6:	892a                	mv	s2,a0
   118f8:	0185c503          	lbu	a0,24(a1)
   118fc:	0195c603          	lbu	a2,25(a1)
   11900:	01a5c803          	lbu	a6,26(a1)
   11904:	01b5c283          	lbu	t0,27(a1)
   11908:	0145c883          	lbu	a7,20(a1)
   1190c:	0155cf03          	lbu	t5,21(a1)
   11910:	0165c403          	lbu	s0,22(a1)
   11914:	0175c683          	lbu	a3,23(a1)
   11918:	0105c783          	lbu	a5,16(a1)
   1191c:	0115c703          	lbu	a4,17(a1)
   11920:	0125c303          	lbu	t1,18(a1)
   11924:	0135c383          	lbu	t2,19(a1)
   11928:	0622                	slli	a2,a2,0x8
   1192a:	00a66e33          	or	t3,a2,a0
   1192e:	00c5ce83          	lbu	t4,12(a1)
   11932:	00d5c603          	lbu	a2,13(a1)
   11936:	00e5c503          	lbu	a0,14(a1)
   1193a:	00f5c483          	lbu	s1,15(a1)
   1193e:	0842                	slli	a6,a6,0x10
   11940:	02e2                	slli	t0,t0,0x18
   11942:	0f22                	slli	t5,t5,0x8
   11944:	0442                	slli	s0,s0,0x10
   11946:	06e2                	slli	a3,a3,0x18
   11948:	0722                	slli	a4,a4,0x8
   1194a:	0102e833          	or	a6,t0,a6
   1194e:	011f68b3          	or	a7,t5,a7
   11952:	0086e2b3          	or	t0,a3,s0
   11956:	00f76f33          	or	t5,a4,a5
   1195a:	0085c703          	lbu	a4,8(a1)
   1195e:	0095c403          	lbu	s0,9(a1)
   11962:	00a5c683          	lbu	a3,10(a1)
   11966:	00b5c783          	lbu	a5,11(a1)
   1196a:	0342                	slli	t1,t1,0x10
   1196c:	03e2                	slli	t2,t2,0x18
   1196e:	0622                	slli	a2,a2,0x8
   11970:	0542                	slli	a0,a0,0x10
   11972:	04e2                	slli	s1,s1,0x18
   11974:	0422                	slli	s0,s0,0x8
   11976:	0063e333          	or	t1,t2,t1
   1197a:	01d663b3          	or	t2,a2,t4
   1197e:	00a4eeb3          	or	t4,s1,a0
   11982:	00e46fb3          	or	t6,s0,a4
   11986:	0045c483          	lbu	s1,4(a1)
   1198a:	0055c403          	lbu	s0,5(a1)
   1198e:	0065c603          	lbu	a2,6(a1)
   11992:	0075c503          	lbu	a0,7(a1)
   11996:	06c2                	slli	a3,a3,0x10
   11998:	07e2                	slli	a5,a5,0x18
   1199a:	0422                	slli	s0,s0,0x8
   1199c:	0642                	slli	a2,a2,0x10
   1199e:	0562                	slli	a0,a0,0x18
   119a0:	00d7e9b3          	or	s3,a5,a3
   119a4:	00946a33          	or	s4,s0,s1
   119a8:	0005c783          	lbu	a5,0(a1)
   119ac:	0015c483          	lbu	s1,1(a1)
   119b0:	8d51                	or	a0,a0,a2
   119b2:	0025c603          	lbu	a2,2(a1)
   119b6:	0035c583          	lbu	a1,3(a1)
   119ba:	04a2                	slli	s1,s1,0x8
   119bc:	8fc5                	or	a5,a5,s1
   119be:	0642                	slli	a2,a2,0x10
   119c0:	05e2                	slli	a1,a1,0x18
   119c2:	8dd1                	or	a1,a1,a2
   119c4:	01c86633          	or	a2,a6,t3
   119c8:	0112e4b3          	or	s1,t0,a7
   119cc:	01e36733          	or	a4,t1,t5
   119d0:	007ee6b3          	or	a3,t4,t2
   119d4:	01f9e433          	or	s0,s3,t6
   119d8:	01456533          	or	a0,a0,s4
   119dc:	8ddd                	or	a1,a1,a5
   119de:	ce3a                	sw	a4,28(sp)
   119e0:	d026                	sw	s1,32(sp)
   119e2:	d232                	sw	a2,36(sp)
   119e4:	c62e                	sw	a1,12(sp)
   119e6:	c82a                	sw	a0,16(sp)
   119e8:	ca22                	sw	s0,20(sp)
   119ea:	cc36                	sw	a3,24(sp)
   119ec:	02b10513          	addi	a0,sp,43
   119f0:	05d00613          	li	a2,93
   119f4:	4581                	li	a1,0
   119f6:	0000b097          	auipc	ra,0xb
   119fa:	2ce080e7          	jalr	718(ra) # 1ccc4 <memset>
   119fe:	6505                	lui	a0,0x1
   11a00:	45a1                	li	a1,8
   11a02:	0070                	addi	a2,sp,12
   11a04:	46f1                	li	a3,28
   11a06:	c3e50793          	addi	a5,a0,-962 # c3e <.Lline_table_start1+0xa13>
   11a0a:	4711                	li	a4,4
   11a0c:	4489                	li	s1,2
   11a0e:	853e                	mv	a0,a5
   11a10:	00000073          	ecall
   11a14:	02950b63          	beq	a0,s1,11a4a <_ZN18complex_no_dynamic3app17h0d20983b5c80b388E+0x162>
   11a18:	4595                	li	a1,5
   11a1a:	02b10613          	addi	a2,sp,43
   11a1e:	05d00693          	li	a3,93
   11a22:	470d                	li	a4,3
   11a24:	853e                	mv	a0,a5
   11a26:	00000073          	ecall
   11a2a:	02950063          	beq	a0,s1,11a4a <_ZN18complex_no_dynamic3app17h0d20983b5c80b388E+0x162>
   11a2e:	6505                	lui	a0,0x1
   11a30:	45a1                	li	a1,8
   11a32:	4615                	li	a2,5
   11a34:	c3e50793          	addi	a5,a0,-962 # c3e <.Lline_table_start1+0xa13>
   11a38:	4709                	li	a4,2
   11a3a:	07f00493          	li	s1,127
   11a3e:	853e                	mv	a0,a5
   11a40:	4681                	li	a3,0
   11a42:	00000073          	ecall
   11a46:	02a4ec63          	bltu	s1,a0,11a7e <_ZN18complex_no_dynamic3app17h0d20983b5c80b388E+0x196>
   11a4a:	4785                	li	a5,1
   11a4c:	c3b1                	beqz	a5,11a90 <_ZN18complex_no_dynamic3app17h0d20983b5c80b388E+0x1a8>
   11a4e:	4601                	li	a2,0
   11a50:	4681                	li	a3,0
   11a52:	4505                	li	a0,1
   11a54:	6705                	lui	a4,0x1
   11a56:	87ae                	mv	a5,a1
   11a58:	4595                	li	a1,5
   11a5a:	00a90023          	sb	a0,0(s2)
   11a5e:	00f92223          	sw	a5,4(s2)
   11a62:	c3e70793          	addi	a5,a4,-962 # c3e <.Lline_table_start1+0xa13>
   11a66:	470d                	li	a4,3
   11a68:	853e                	mv	a0,a5
   11a6a:	00000073          	ecall
   11a6e:	45a1                	li	a1,8
   11a70:	4711                	li	a4,4
   11a72:	853e                	mv	a0,a5
   11a74:	4601                	li	a2,0
   11a76:	4681                	li	a3,0
   11a78:	00000073          	ecall
   11a7c:	a8b1                	j	11ad8 <_ZN18complex_no_dynamic3app17h0d20983b5c80b388E+0x1f0>
   11a7e:	853e                	mv	a0,a5
   11a80:	4601                	li	a2,0
   11a82:	4681                	li	a3,0
   11a84:	4781                	li	a5,0
   11a86:	4595                	li	a1,5
   11a88:	470d                	li	a4,3
   11a8a:	00000073          	ecall
   11a8e:	f3e1                	bnez	a5,11a4e <_ZN18complex_no_dynamic3app17h0d20983b5c80b388E+0x166>
   11a90:	6505                	lui	a0,0x1
   11a92:	c3e50493          	addi	s1,a0,-962 # c3e <.Lline_table_start1+0xa13>
   11a96:	4595                	li	a1,5
   11a98:	470d                	li	a4,3
   11a9a:	8526                	mv	a0,s1
   11a9c:	4601                	li	a2,0
   11a9e:	4681                	li	a3,0
   11aa0:	00000073          	ecall
   11aa4:	00190513          	addi	a0,s2,1
   11aa8:	02b10593          	addi	a1,sp,43
   11aac:	05d00613          	li	a2,93
   11ab0:	0000b097          	auipc	ra,0xb
   11ab4:	280080e7          	jalr	640(ra) # 1cd30 <memcpy>
   11ab8:	8526                	mv	a0,s1
   11aba:	4601                	li	a2,0
   11abc:	4681                	li	a3,0
   11abe:	00090023          	sb	zero,0(s2)
   11ac2:	4595                	li	a1,5
   11ac4:	470d                	li	a4,3
   11ac6:	00000073          	ecall
   11aca:	45a1                	li	a1,8
   11acc:	4711                	li	a4,4
   11ace:	8526                	mv	a0,s1
   11ad0:	4601                	li	a2,0
   11ad2:	4681                	li	a3,0
   11ad4:	00000073          	ecall
   11ad8:	40fa                	lw	ra,156(sp)
   11ada:	446a                	lw	s0,152(sp)
   11adc:	44da                	lw	s1,148(sp)
   11ade:	494a                	lw	s2,144(sp)
   11ae0:	49ba                	lw	s3,140(sp)
   11ae2:	4a2a                	lw	s4,136(sp)
   11ae4:	610d                	addi	sp,sp,160
   11ae6:	8082                	ret

00011ae8 <_ZN18complex_no_dynamic3app17h11a91353a4cdd76cE>:
   11ae8:	715d                	addi	sp,sp,-80
   11aea:	c686                	sw	ra,76(sp)
   11aec:	c4a2                	sw	s0,72(sp)
   11aee:	842a                	mv	s0,a0
   11af0:	00210513          	addi	a0,sp,2
   11af4:	03600613          	li	a2,54
   11af8:	0000b097          	auipc	ra,0xb
   11afc:	238080e7          	jalr	568(ra) # 1cd30 <memcpy>
   11b00:	04010323          	sb	zero,70(sp)
   11b04:	dc02                	sw	zero,56(sp)
   11b06:	de02                	sw	zero,60(sp)
   11b08:	c082                	sw	zero,64(sp)
   11b0a:	04011223          	sh	zero,68(sp)
   11b0e:	65300513          	li	a0,1619
   11b12:	4595                	li	a1,5
   11b14:	00210613          	addi	a2,sp,2
   11b18:	03600693          	li	a3,54
   11b1c:	4711                	li	a4,4
   11b1e:	4789                	li	a5,2
   11b20:	00000073          	ecall
   11b24:	02f50863          	beq	a0,a5,11b54 <_ZN18complex_no_dynamic3app17h11a91353a4cdd76cE+0x6c>
   11b28:	65300513          	li	a0,1619
   11b2c:	458d                	li	a1,3
   11b2e:	1830                	addi	a2,sp,56
   11b30:	46bd                	li	a3,15
   11b32:	470d                	li	a4,3
   11b34:	00000073          	ecall
   11b38:	00f50e63          	beq	a0,a5,11b54 <_ZN18complex_no_dynamic3app17h11a91353a4cdd76cE+0x6c>
   11b3c:	65300513          	li	a0,1619
   11b40:	4595                	li	a1,5
   11b42:	460d                	li	a2,3
   11b44:	4709                	li	a4,2
   11b46:	07f00793          	li	a5,127
   11b4a:	4681                	li	a3,0
   11b4c:	00000073          	ecall
   11b50:	02a7e963          	bltu	a5,a0,11b82 <_ZN18complex_no_dynamic3app17h11a91353a4cdd76cE+0x9a>
   11b54:	4785                	li	a5,1
   11b56:	c3a1                	beqz	a5,11b96 <_ZN18complex_no_dynamic3app17h11a91353a4cdd76cE+0xae>
   11b58:	4601                	li	a2,0
   11b5a:	4681                	li	a3,0
   11b5c:	4705                	li	a4,1
   11b5e:	65300513          	li	a0,1619
   11b62:	00e40023          	sb	a4,0(s0)
   11b66:	c04c                	sw	a1,4(s0)
   11b68:	458d                	li	a1,3
   11b6a:	470d                	li	a4,3
   11b6c:	00000073          	ecall
   11b70:	65300513          	li	a0,1619
   11b74:	4595                	li	a1,5
   11b76:	4711                	li	a4,4
   11b78:	4601                	li	a2,0
   11b7a:	4681                	li	a3,0
   11b7c:	00000073          	ecall
   11b80:	a8a9                	j	11bda <_ZN18complex_no_dynamic3app17h11a91353a4cdd76cE+0xf2>
   11b82:	4601                	li	a2,0
   11b84:	4681                	li	a3,0
   11b86:	4781                	li	a5,0
   11b88:	65300513          	li	a0,1619
   11b8c:	458d                	li	a1,3
   11b8e:	470d                	li	a4,3
   11b90:	00000073          	ecall
   11b94:	f3f1                	bnez	a5,11b58 <_ZN18complex_no_dynamic3app17h11a91353a4cdd76cE+0x70>
   11b96:	65300513          	li	a0,1619
   11b9a:	458d                	li	a1,3
   11b9c:	470d                	li	a4,3
   11b9e:	4601                	li	a2,0
   11ba0:	4681                	li	a3,0
   11ba2:	00000073          	ecall
   11ba6:	00140513          	addi	a0,s0,1
   11baa:	182c                	addi	a1,sp,56
   11bac:	463d                	li	a2,15
   11bae:	0000b097          	auipc	ra,0xb
   11bb2:	182080e7          	jalr	386(ra) # 1cd30 <memcpy>
   11bb6:	4601                	li	a2,0
   11bb8:	4681                	li	a3,0
   11bba:	00040023          	sb	zero,0(s0)
   11bbe:	65300513          	li	a0,1619
   11bc2:	458d                	li	a1,3
   11bc4:	470d                	li	a4,3
   11bc6:	00000073          	ecall
   11bca:	65300513          	li	a0,1619
   11bce:	4595                	li	a1,5
   11bd0:	4711                	li	a4,4
   11bd2:	4601                	li	a2,0
   11bd4:	4681                	li	a3,0
   11bd6:	00000073          	ecall
   11bda:	40b6                	lw	ra,76(sp)
   11bdc:	4426                	lw	s0,72(sp)
   11bde:	6161                	addi	sp,sp,80
   11be0:	8082                	ret

00011be2 <_ZN18complex_no_dynamic3app17h15f1829d71e6a4d8E>:
   11be2:	7175                	addi	sp,sp,-144
   11be4:	c706                	sw	ra,140(sp)
   11be6:	c522                	sw	s0,136(sp)
   11be8:	c326                	sw	s1,132(sp)
   11bea:	c14a                	sw	s2,128(sp)
   11bec:	892a                	mv	s2,a0
   11bee:	0185c883          	lbu	a7,24(a1)
   11bf2:	0195c303          	lbu	t1,25(a1)
   11bf6:	01a5c803          	lbu	a6,26(a1)
   11bfa:	0145c283          	lbu	t0,20(a1)
   11bfe:	0155cf03          	lbu	t5,21(a1)
   11c02:	0165c483          	lbu	s1,22(a1)
   11c06:	0175c403          	lbu	s0,23(a1)
   11c0a:	0105c703          	lbu	a4,16(a1)
   11c0e:	0115c603          	lbu	a2,17(a1)
   11c12:	0125ce03          	lbu	t3,18(a1)
   11c16:	0135ce83          	lbu	t4,19(a1)
   11c1a:	00c5c383          	lbu	t2,12(a1)
   11c1e:	00d5cf83          	lbu	t6,13(a1)
   11c22:	00e5c683          	lbu	a3,14(a1)
   11c26:	00f5c783          	lbu	a5,15(a1)
   11c2a:	0322                	slli	t1,t1,0x8
   11c2c:	0f22                	slli	t5,t5,0x8
   11c2e:	04c2                	slli	s1,s1,0x10
   11c30:	0462                	slli	s0,s0,0x18
   11c32:	00861513          	slli	a0,a2,0x8
   11c36:	011368b3          	or	a7,t1,a7
   11c3a:	005f62b3          	or	t0,t5,t0
   11c3e:	00946f33          	or	t5,s0,s1
   11c42:	00e56333          	or	t1,a0,a4
   11c46:	0085c703          	lbu	a4,8(a1)
   11c4a:	0095c403          	lbu	s0,9(a1)
   11c4e:	00a5c603          	lbu	a2,10(a1)
   11c52:	00b5c503          	lbu	a0,11(a1)
   11c56:	0e42                	slli	t3,t3,0x10
   11c58:	0ee2                	slli	t4,t4,0x18
   11c5a:	0fa2                	slli	t6,t6,0x8
   11c5c:	06c2                	slli	a3,a3,0x10
   11c5e:	07e2                	slli	a5,a5,0x18
   11c60:	0422                	slli	s0,s0,0x8
   11c62:	01ceee33          	or	t3,t4,t3
   11c66:	007fe3b3          	or	t2,t6,t2
   11c6a:	00d7eeb3          	or	t4,a5,a3
   11c6e:	00e46fb3          	or	t6,s0,a4
   11c72:	0045c783          	lbu	a5,4(a1)
   11c76:	0055c403          	lbu	s0,5(a1)
   11c7a:	0065c483          	lbu	s1,6(a1)
   11c7e:	0075c683          	lbu	a3,7(a1)
   11c82:	0642                	slli	a2,a2,0x10
   11c84:	0562                	slli	a0,a0,0x18
   11c86:	0422                	slli	s0,s0,0x8
   11c88:	04c2                	slli	s1,s1,0x10
   11c8a:	06e2                	slli	a3,a3,0x18
   11c8c:	8d51                	or	a0,a0,a2
   11c8e:	8fc1                	or	a5,a5,s0
   11c90:	0005c603          	lbu	a2,0(a1)
   11c94:	0015c403          	lbu	s0,1(a1)
   11c98:	8ec5                	or	a3,a3,s1
   11c9a:	0025c483          	lbu	s1,2(a1)
   11c9e:	0035c583          	lbu	a1,3(a1)
   11ca2:	0422                	slli	s0,s0,0x8
   11ca4:	8e41                	or	a2,a2,s0
   11ca6:	04c2                	slli	s1,s1,0x10
   11ca8:	05e2                	slli	a1,a1,0x18
   11caa:	8dc5                	or	a1,a1,s1
   11cac:	005f64b3          	or	s1,t5,t0
   11cb0:	006e6433          	or	s0,t3,t1
   11cb4:	007ee733          	or	a4,t4,t2
   11cb8:	01f56533          	or	a0,a0,t6
   11cbc:	8edd                	or	a3,a3,a5
   11cbe:	8dd1                	or	a1,a1,a2
   11cc0:	c822                	sw	s0,16(sp)
   11cc2:	ca26                	sw	s1,20(sp)
   11cc4:	01111c23          	sh	a7,24(sp)
   11cc8:	01010d23          	sb	a6,26(sp)
   11ccc:	c02e                	sw	a1,0(sp)
   11cce:	c236                	sw	a3,4(sp)
   11cd0:	c42a                	sw	a0,8(sp)
   11cd2:	c63a                	sw	a4,12(sp)
   11cd4:	01d10513          	addi	a0,sp,29
   11cd8:	06300613          	li	a2,99
   11cdc:	4581                	li	a1,0
   11cde:	0000b097          	auipc	ra,0xb
   11ce2:	fe6080e7          	jalr	-26(ra) # 1ccc4 <memset>
   11ce6:	6509                	lui	a0,0x2
   11ce8:	458d                	li	a1,3
   11cea:	860a                	mv	a2,sp
   11cec:	46ed                	li	a3,27
   11cee:	54850793          	addi	a5,a0,1352 # 2548 <.Lline_table_start1+0x231d>
   11cf2:	4711                	li	a4,4
   11cf4:	4489                	li	s1,2
   11cf6:	853e                	mv	a0,a5
   11cf8:	00000073          	ecall
   11cfc:	02950b63          	beq	a0,s1,11d32 <_ZN18complex_no_dynamic3app17h15f1829d71e6a4d8E+0x150>
   11d00:	458d                	li	a1,3
   11d02:	01d10613          	addi	a2,sp,29
   11d06:	06300693          	li	a3,99
   11d0a:	470d                	li	a4,3
   11d0c:	853e                	mv	a0,a5
   11d0e:	00000073          	ecall
   11d12:	02950063          	beq	a0,s1,11d32 <_ZN18complex_no_dynamic3app17h15f1829d71e6a4d8E+0x150>
   11d16:	6509                	lui	a0,0x2
   11d18:	458d                	li	a1,3
   11d1a:	460d                	li	a2,3
   11d1c:	54850793          	addi	a5,a0,1352 # 2548 <.Lline_table_start1+0x231d>
   11d20:	4709                	li	a4,2
   11d22:	07f00493          	li	s1,127
   11d26:	853e                	mv	a0,a5
   11d28:	4681                	li	a3,0
   11d2a:	00000073          	ecall
   11d2e:	02a4ec63          	bltu	s1,a0,11d66 <_ZN18complex_no_dynamic3app17h15f1829d71e6a4d8E+0x184>
   11d32:	4785                	li	a5,1
   11d34:	c3b1                	beqz	a5,11d78 <_ZN18complex_no_dynamic3app17h15f1829d71e6a4d8E+0x196>
   11d36:	4601                	li	a2,0
   11d38:	4681                	li	a3,0
   11d3a:	4505                	li	a0,1
   11d3c:	6709                	lui	a4,0x2
   11d3e:	87ae                	mv	a5,a1
   11d40:	458d                	li	a1,3
   11d42:	00a90023          	sb	a0,0(s2)
   11d46:	00f92223          	sw	a5,4(s2)
   11d4a:	54870793          	addi	a5,a4,1352 # 2548 <.Lline_table_start1+0x231d>
   11d4e:	470d                	li	a4,3
   11d50:	853e                	mv	a0,a5
   11d52:	00000073          	ecall
   11d56:	458d                	li	a1,3
   11d58:	4711                	li	a4,4
   11d5a:	853e                	mv	a0,a5
   11d5c:	4601                	li	a2,0
   11d5e:	4681                	li	a3,0
   11d60:	00000073          	ecall
   11d64:	a8b1                	j	11dc0 <_ZN18complex_no_dynamic3app17h15f1829d71e6a4d8E+0x1de>
   11d66:	853e                	mv	a0,a5
   11d68:	4601                	li	a2,0
   11d6a:	4681                	li	a3,0
   11d6c:	4781                	li	a5,0
   11d6e:	458d                	li	a1,3
   11d70:	470d                	li	a4,3
   11d72:	00000073          	ecall
   11d76:	f3e1                	bnez	a5,11d36 <_ZN18complex_no_dynamic3app17h15f1829d71e6a4d8E+0x154>
   11d78:	6509                	lui	a0,0x2
   11d7a:	54850493          	addi	s1,a0,1352 # 2548 <.Lline_table_start1+0x231d>
   11d7e:	458d                	li	a1,3
   11d80:	470d                	li	a4,3
   11d82:	8526                	mv	a0,s1
   11d84:	4601                	li	a2,0
   11d86:	4681                	li	a3,0
   11d88:	00000073          	ecall
   11d8c:	00190513          	addi	a0,s2,1
   11d90:	01d10593          	addi	a1,sp,29
   11d94:	06300613          	li	a2,99
   11d98:	0000b097          	auipc	ra,0xb
   11d9c:	f98080e7          	jalr	-104(ra) # 1cd30 <memcpy>
   11da0:	8526                	mv	a0,s1
   11da2:	4601                	li	a2,0
   11da4:	4681                	li	a3,0
   11da6:	00090023          	sb	zero,0(s2)
   11daa:	458d                	li	a1,3
   11dac:	470d                	li	a4,3
   11dae:	00000073          	ecall
   11db2:	458d                	li	a1,3
   11db4:	4711                	li	a4,4
   11db6:	8526                	mv	a0,s1
   11db8:	4601                	li	a2,0
   11dba:	4681                	li	a3,0
   11dbc:	00000073          	ecall
   11dc0:	40ba                	lw	ra,140(sp)
   11dc2:	442a                	lw	s0,136(sp)
   11dc4:	449a                	lw	s1,132(sp)
   11dc6:	490a                	lw	s2,128(sp)
   11dc8:	6149                	addi	sp,sp,144
   11dca:	8082                	ret

00011dcc <_ZN18complex_no_dynamic3app17h1be2fa206cc94037E>:
   11dcc:	7135                	addi	sp,sp,-160
   11dce:	cf06                	sw	ra,156(sp)
   11dd0:	cd22                	sw	s0,152(sp)
   11dd2:	cb26                	sw	s1,148(sp)
   11dd4:	842a                	mv	s0,a0
   11dd6:	0028                	addi	a0,sp,8
   11dd8:	05000613          	li	a2,80
   11ddc:	0000b097          	auipc	ra,0xb
   11de0:	f54080e7          	jalr	-172(ra) # 1cd30 <memcpy>
   11de4:	08a8                	addi	a0,sp,88
   11de6:	03c00613          	li	a2,60
   11dea:	4581                	li	a1,0
   11dec:	0000b097          	auipc	ra,0xb
   11df0:	ed8080e7          	jalr	-296(ra) # 1ccc4 <memset>
   11df4:	6505                	lui	a0,0x1
   11df6:	458d                	li	a1,3
   11df8:	0030                	addi	a2,sp,8
   11dfa:	05000693          	li	a3,80
   11dfe:	d7a50793          	addi	a5,a0,-646 # d7a <.Lline_table_start1+0xb4f>
   11e02:	4711                	li	a4,4
   11e04:	4489                	li	s1,2
   11e06:	853e                	mv	a0,a5
   11e08:	00000073          	ecall
   11e0c:	02950a63          	beq	a0,s1,11e40 <_ZN18complex_no_dynamic3app17h1be2fa206cc94037E+0x74>
   11e10:	45a5                	li	a1,9
   11e12:	08b0                	addi	a2,sp,88
   11e14:	03c00693          	li	a3,60
   11e18:	470d                	li	a4,3
   11e1a:	853e                	mv	a0,a5
   11e1c:	00000073          	ecall
   11e20:	02950063          	beq	a0,s1,11e40 <_ZN18complex_no_dynamic3app17h1be2fa206cc94037E+0x74>
   11e24:	6505                	lui	a0,0x1
   11e26:	458d                	li	a1,3
   11e28:	4625                	li	a2,9
   11e2a:	d7a50793          	addi	a5,a0,-646 # d7a <.Lline_table_start1+0xb4f>
   11e2e:	4709                	li	a4,2
   11e30:	07f00493          	li	s1,127
   11e34:	853e                	mv	a0,a5
   11e36:	4681                	li	a3,0
   11e38:	00000073          	ecall
   11e3c:	02a4eb63          	bltu	s1,a0,11e72 <_ZN18complex_no_dynamic3app17h1be2fa206cc94037E+0xa6>
   11e40:	4785                	li	a5,1
   11e42:	c3a9                	beqz	a5,11e84 <_ZN18complex_no_dynamic3app17h1be2fa206cc94037E+0xb8>
   11e44:	4601                	li	a2,0
   11e46:	4681                	li	a3,0
   11e48:	4505                	li	a0,1
   11e4a:	6705                	lui	a4,0x1
   11e4c:	87ae                	mv	a5,a1
   11e4e:	45a5                	li	a1,9
   11e50:	00a40023          	sb	a0,0(s0)
   11e54:	c05c                	sw	a5,4(s0)
   11e56:	d7a70793          	addi	a5,a4,-646 # d7a <.Lline_table_start1+0xb4f>
   11e5a:	470d                	li	a4,3
   11e5c:	853e                	mv	a0,a5
   11e5e:	00000073          	ecall
   11e62:	458d                	li	a1,3
   11e64:	4711                	li	a4,4
   11e66:	853e                	mv	a0,a5
   11e68:	4601                	li	a2,0
   11e6a:	4681                	li	a3,0
   11e6c:	00000073          	ecall
   11e70:	a8a9                	j	11eca <_ZN18complex_no_dynamic3app17h1be2fa206cc94037E+0xfe>
   11e72:	853e                	mv	a0,a5
   11e74:	4601                	li	a2,0
   11e76:	4681                	li	a3,0
   11e78:	4781                	li	a5,0
   11e7a:	45a5                	li	a1,9
   11e7c:	470d                	li	a4,3
   11e7e:	00000073          	ecall
   11e82:	f3e9                	bnez	a5,11e44 <_ZN18complex_no_dynamic3app17h1be2fa206cc94037E+0x78>
   11e84:	6505                	lui	a0,0x1
   11e86:	d7a50493          	addi	s1,a0,-646 # d7a <.Lline_table_start1+0xb4f>
   11e8a:	45a5                	li	a1,9
   11e8c:	470d                	li	a4,3
   11e8e:	8526                	mv	a0,s1
   11e90:	4601                	li	a2,0
   11e92:	4681                	li	a3,0
   11e94:	00000073          	ecall
   11e98:	00140513          	addi	a0,s0,1
   11e9c:	08ac                	addi	a1,sp,88
   11e9e:	03c00613          	li	a2,60
   11ea2:	0000b097          	auipc	ra,0xb
   11ea6:	e8e080e7          	jalr	-370(ra) # 1cd30 <memcpy>
   11eaa:	8526                	mv	a0,s1
   11eac:	4601                	li	a2,0
   11eae:	4681                	li	a3,0
   11eb0:	00040023          	sb	zero,0(s0)
   11eb4:	45a5                	li	a1,9
   11eb6:	470d                	li	a4,3
   11eb8:	00000073          	ecall
   11ebc:	458d                	li	a1,3
   11ebe:	4711                	li	a4,4
   11ec0:	8526                	mv	a0,s1
   11ec2:	4601                	li	a2,0
   11ec4:	4681                	li	a3,0
   11ec6:	00000073          	ecall
   11eca:	40fa                	lw	ra,156(sp)
   11ecc:	446a                	lw	s0,152(sp)
   11ece:	44da                	lw	s1,148(sp)
   11ed0:	610d                	addi	sp,sp,160
   11ed2:	8082                	ret

00011ed4 <_ZN18complex_no_dynamic3app17h1eab622f3795dd49E>:
   11ed4:	711d                	addi	sp,sp,-96
   11ed6:	ce86                	sw	ra,92(sp)
   11ed8:	cca2                	sw	s0,88(sp)
   11eda:	caa6                	sw	s1,84(sp)
   11edc:	c8ca                	sw	s2,80(sp)
   11ede:	892a                	mv	s2,a0
   11ee0:	00c5c803          	lbu	a6,12(a1)
   11ee4:	00d5c603          	lbu	a2,13(a1)
   11ee8:	00e5c683          	lbu	a3,14(a1)
   11eec:	00f5c703          	lbu	a4,15(a1)
   11ef0:	0085c783          	lbu	a5,8(a1)
   11ef4:	0095c483          	lbu	s1,9(a1)
   11ef8:	00a5c403          	lbu	s0,10(a1)
   11efc:	00b5c503          	lbu	a0,11(a1)
   11f00:	0622                	slli	a2,a2,0x8
   11f02:	06c2                	slli	a3,a3,0x10
   11f04:	0762                	slli	a4,a4,0x18
   11f06:	04a2                	slli	s1,s1,0x8
   11f08:	01066833          	or	a6,a2,a6
   11f0c:	00d768b3          	or	a7,a4,a3
   11f10:	8fc5                	or	a5,a5,s1
   11f12:	0045c703          	lbu	a4,4(a1)
   11f16:	0055c483          	lbu	s1,5(a1)
   11f1a:	0065c603          	lbu	a2,6(a1)
   11f1e:	0075c683          	lbu	a3,7(a1)
   11f22:	0442                	slli	s0,s0,0x10
   11f24:	0562                	slli	a0,a0,0x18
   11f26:	04a2                	slli	s1,s1,0x8
   11f28:	0642                	slli	a2,a2,0x10
   11f2a:	06e2                	slli	a3,a3,0x18
   11f2c:	8d41                	or	a0,a0,s0
   11f2e:	8f45                	or	a4,a4,s1
   11f30:	0005c483          	lbu	s1,0(a1)
   11f34:	0015c403          	lbu	s0,1(a1)
   11f38:	8e55                	or	a2,a2,a3
   11f3a:	0025c683          	lbu	a3,2(a1)
   11f3e:	0035c583          	lbu	a1,3(a1)
   11f42:	0422                	slli	s0,s0,0x8
   11f44:	8c45                	or	s0,s0,s1
   11f46:	06c2                	slli	a3,a3,0x10
   11f48:	05e2                	slli	a1,a1,0x18
   11f4a:	8dd5                	or	a1,a1,a3
   11f4c:	0108e6b3          	or	a3,a7,a6
   11f50:	8d5d                	or	a0,a0,a5
   11f52:	8e59                	or	a2,a2,a4
   11f54:	8dc1                	or	a1,a1,s0
   11f56:	c42e                	sw	a1,8(sp)
   11f58:	c632                	sw	a2,12(sp)
   11f5a:	c82a                	sw	a0,16(sp)
   11f5c:	ca36                	sw	a3,20(sp)
   11f5e:	01a10513          	addi	a0,sp,26
   11f62:	03600613          	li	a2,54
   11f66:	4581                	li	a1,0
   11f68:	0000b097          	auipc	ra,0xb
   11f6c:	d5c080e7          	jalr	-676(ra) # 1ccc4 <memset>
   11f70:	6509                	lui	a0,0x2
   11f72:	4585                	li	a1,1
   11f74:	0030                	addi	a2,sp,8
   11f76:	46c1                	li	a3,16
   11f78:	4711                	li	a4,4
   11f7a:	98950793          	addi	a5,a0,-1655 # 1989 <.Lline_table_start1+0x175e>
   11f7e:	4409                	li	s0,2
   11f80:	853e                	mv	a0,a5
   11f82:	00000073          	ecall
   11f86:	4485                	li	s1,1
   11f88:	04850663          	beq	a0,s0,11fd4 <_ZN18complex_no_dynamic3app17h1eab622f3795dd49E+0x100>
   11f8c:	459d                	li	a1,7
   11f8e:	01a10613          	addi	a2,sp,26
   11f92:	03600693          	li	a3,54
   11f96:	470d                	li	a4,3
   11f98:	853e                	mv	a0,a5
   11f9a:	00000073          	ecall
   11f9e:	00851463          	bne	a0,s0,11fa6 <_ZN18complex_no_dynamic3app17h1eab622f3795dd49E+0xd2>
   11fa2:	4485                	li	s1,1
   11fa4:	a805                	j	11fd4 <_ZN18complex_no_dynamic3app17h1eab622f3795dd49E+0x100>
   11fa6:	4681                	li	a3,0
   11fa8:	6509                	lui	a0,0x2
   11faa:	4585                	li	a1,1
   11fac:	461d                	li	a2,7
   11fae:	4709                	li	a4,2
   11fb0:	98950793          	addi	a5,a0,-1655 # 1989 <.Lline_table_start1+0x175e>
   11fb4:	07f00413          	li	s0,127
   11fb8:	853e                	mv	a0,a5
   11fba:	00000073          	ecall
   11fbe:	4485                	li	s1,1
   11fc0:	00a47a63          	bgeu	s0,a0,11fd4 <_ZN18complex_no_dynamic3app17h1eab622f3795dd49E+0x100>
   11fc4:	853e                	mv	a0,a5
   11fc6:	4601                	li	a2,0
   11fc8:	4681                	li	a3,0
   11fca:	4481                	li	s1,0
   11fcc:	459d                	li	a1,7
   11fce:	470d                	li	a4,3
   11fd0:	00000073          	ecall
   11fd4:	c88d                	beqz	s1,12006 <_ZN18complex_no_dynamic3app17h1eab622f3795dd49E+0x132>
   11fd6:	4601                	li	a2,0
   11fd8:	4681                	li	a3,0
   11fda:	4505                	li	a0,1
   11fdc:	6709                	lui	a4,0x2
   11fde:	87ae                	mv	a5,a1
   11fe0:	459d                	li	a1,7
   11fe2:	00a90023          	sb	a0,0(s2)
   11fe6:	00f92223          	sw	a5,4(s2)
   11fea:	98970793          	addi	a5,a4,-1655 # 1989 <.Lline_table_start1+0x175e>
   11fee:	470d                	li	a4,3
   11ff0:	853e                	mv	a0,a5
   11ff2:	00000073          	ecall
   11ff6:	4585                	li	a1,1
   11ff8:	4711                	li	a4,4
   11ffa:	853e                	mv	a0,a5
   11ffc:	4601                	li	a2,0
   11ffe:	4681                	li	a3,0
   12000:	00000073          	ecall
   12004:	a0a9                	j	1204e <_ZN18complex_no_dynamic3app17h1eab622f3795dd49E+0x17a>
   12006:	6509                	lui	a0,0x2
   12008:	98950493          	addi	s1,a0,-1655 # 1989 <.Lline_table_start1+0x175e>
   1200c:	459d                	li	a1,7
   1200e:	470d                	li	a4,3
   12010:	8526                	mv	a0,s1
   12012:	4601                	li	a2,0
   12014:	4681                	li	a3,0
   12016:	00000073          	ecall
   1201a:	00190513          	addi	a0,s2,1
   1201e:	01a10593          	addi	a1,sp,26
   12022:	03600613          	li	a2,54
   12026:	0000b097          	auipc	ra,0xb
   1202a:	d0a080e7          	jalr	-758(ra) # 1cd30 <memcpy>
   1202e:	8526                	mv	a0,s1
   12030:	4601                	li	a2,0
   12032:	4681                	li	a3,0
   12034:	00090023          	sb	zero,0(s2)
   12038:	459d                	li	a1,7
   1203a:	470d                	li	a4,3
   1203c:	00000073          	ecall
   12040:	4585                	li	a1,1
   12042:	4711                	li	a4,4
   12044:	8526                	mv	a0,s1
   12046:	4601                	li	a2,0
   12048:	4681                	li	a3,0
   1204a:	00000073          	ecall
   1204e:	40f6                	lw	ra,92(sp)
   12050:	4466                	lw	s0,88(sp)
   12052:	44d6                	lw	s1,84(sp)
   12054:	4946                	lw	s2,80(sp)
   12056:	6125                	addi	sp,sp,96
   12058:	8082                	ret

0001205a <_ZN18complex_no_dynamic3app17h2105c127ee662535E>:
   1205a:	7175                	addi	sp,sp,-144
   1205c:	c706                	sw	ra,140(sp)
   1205e:	c522                	sw	s0,136(sp)
   12060:	c326                	sw	s1,132(sp)
   12062:	842a                	mv	s0,a0
   12064:	0048                	addi	a0,sp,4
   12066:	02d00613          	li	a2,45
   1206a:	0000b097          	auipc	ra,0xb
   1206e:	cc6080e7          	jalr	-826(ra) # 1cd30 <memcpy>
   12072:	03110513          	addi	a0,sp,49
   12076:	05300613          	li	a2,83
   1207a:	4581                	li	a1,0
   1207c:	0000b097          	auipc	ra,0xb
   12080:	c48080e7          	jalr	-952(ra) # 1ccc4 <memset>
   12084:	6505                	lui	a0,0x1
   12086:	4489                	li	s1,2
   12088:	4589                	li	a1,2
   1208a:	0050                	addi	a2,sp,4
   1208c:	ec350793          	addi	a5,a0,-317 # ec3 <.Lline_table_start1+0xc98>
   12090:	02d00693          	li	a3,45
   12094:	4711                	li	a4,4
   12096:	853e                	mv	a0,a5
   12098:	00000073          	ecall
   1209c:	02950b63          	beq	a0,s1,120d2 <_ZN18complex_no_dynamic3app17h2105c127ee662535E+0x78>
   120a0:	459d                	li	a1,7
   120a2:	03110613          	addi	a2,sp,49
   120a6:	05300693          	li	a3,83
   120aa:	470d                	li	a4,3
   120ac:	853e                	mv	a0,a5
   120ae:	00000073          	ecall
   120b2:	02950063          	beq	a0,s1,120d2 <_ZN18complex_no_dynamic3app17h2105c127ee662535E+0x78>
   120b6:	6505                	lui	a0,0x1
   120b8:	4589                	li	a1,2
   120ba:	461d                	li	a2,7
   120bc:	ec350793          	addi	a5,a0,-317 # ec3 <.Lline_table_start1+0xc98>
   120c0:	4709                	li	a4,2
   120c2:	07f00493          	li	s1,127
   120c6:	853e                	mv	a0,a5
   120c8:	4681                	li	a3,0
   120ca:	00000073          	ecall
   120ce:	02a4eb63          	bltu	s1,a0,12104 <_ZN18complex_no_dynamic3app17h2105c127ee662535E+0xaa>
   120d2:	4785                	li	a5,1
   120d4:	c3a9                	beqz	a5,12116 <_ZN18complex_no_dynamic3app17h2105c127ee662535E+0xbc>
   120d6:	4601                	li	a2,0
   120d8:	4681                	li	a3,0
   120da:	4505                	li	a0,1
   120dc:	6705                	lui	a4,0x1
   120de:	87ae                	mv	a5,a1
   120e0:	459d                	li	a1,7
   120e2:	00a40023          	sb	a0,0(s0)
   120e6:	c05c                	sw	a5,4(s0)
   120e8:	ec370793          	addi	a5,a4,-317 # ec3 <.Lline_table_start1+0xc98>
   120ec:	470d                	li	a4,3
   120ee:	853e                	mv	a0,a5
   120f0:	00000073          	ecall
   120f4:	4589                	li	a1,2
   120f6:	4711                	li	a4,4
   120f8:	853e                	mv	a0,a5
   120fa:	4601                	li	a2,0
   120fc:	4681                	li	a3,0
   120fe:	00000073          	ecall
   12102:	a8b1                	j	1215e <_ZN18complex_no_dynamic3app17h2105c127ee662535E+0x104>
   12104:	853e                	mv	a0,a5
   12106:	4601                	li	a2,0
   12108:	4681                	li	a3,0
   1210a:	4781                	li	a5,0
   1210c:	459d                	li	a1,7
   1210e:	470d                	li	a4,3
   12110:	00000073          	ecall
   12114:	f3e9                	bnez	a5,120d6 <_ZN18complex_no_dynamic3app17h2105c127ee662535E+0x7c>
   12116:	6505                	lui	a0,0x1
   12118:	ec350493          	addi	s1,a0,-317 # ec3 <.Lline_table_start1+0xc98>
   1211c:	459d                	li	a1,7
   1211e:	470d                	li	a4,3
   12120:	8526                	mv	a0,s1
   12122:	4601                	li	a2,0
   12124:	4681                	li	a3,0
   12126:	00000073          	ecall
   1212a:	00140513          	addi	a0,s0,1
   1212e:	03110593          	addi	a1,sp,49
   12132:	05300613          	li	a2,83
   12136:	0000b097          	auipc	ra,0xb
   1213a:	bfa080e7          	jalr	-1030(ra) # 1cd30 <memcpy>
   1213e:	8526                	mv	a0,s1
   12140:	4601                	li	a2,0
   12142:	4681                	li	a3,0
   12144:	00040023          	sb	zero,0(s0)
   12148:	459d                	li	a1,7
   1214a:	470d                	li	a4,3
   1214c:	00000073          	ecall
   12150:	4589                	li	a1,2
   12152:	4711                	li	a4,4
   12154:	8526                	mv	a0,s1
   12156:	4601                	li	a2,0
   12158:	4681                	li	a3,0
   1215a:	00000073          	ecall
   1215e:	40ba                	lw	ra,140(sp)
   12160:	442a                	lw	s0,136(sp)
   12162:	449a                	lw	s1,132(sp)
   12164:	6149                	addi	sp,sp,144
   12166:	8082                	ret

00012168 <_ZN18complex_no_dynamic3app17h23394816b5b6cdecE>:
   12168:	7119                	addi	sp,sp,-128
   1216a:	de86                	sw	ra,124(sp)
   1216c:	dca2                	sw	s0,120(sp)
   1216e:	daa6                	sw	s1,116(sp)
   12170:	d8ca                	sw	s2,112(sp)
   12172:	892a                	mv	s2,a0
   12174:	0068                	addi	a0,sp,12
   12176:	03200613          	li	a2,50
   1217a:	0000b097          	auipc	ra,0xb
   1217e:	bb6080e7          	jalr	-1098(ra) # 1cd30 <memcpy>
   12182:	03e10513          	addi	a0,sp,62
   12186:	03200613          	li	a2,50
   1218a:	4581                	li	a1,0
   1218c:	0000b097          	auipc	ra,0xb
   12190:	b38080e7          	jalr	-1224(ra) # 1ccc4 <memset>
   12194:	6509                	lui	a0,0x2
   12196:	458d                	li	a1,3
   12198:	0070                	addi	a2,sp,12
   1219a:	03200693          	li	a3,50
   1219e:	f0750793          	addi	a5,a0,-249 # 1f07 <.Lline_table_start1+0x1cdc>
   121a2:	4711                	li	a4,4
   121a4:	4409                	li	s0,2
   121a6:	853e                	mv	a0,a5
   121a8:	00000073          	ecall
   121ac:	00851463          	bne	a0,s0,121b4 <_ZN18complex_no_dynamic3app17h23394816b5b6cdecE+0x4c>
   121b0:	4485                	li	s1,1
   121b2:	a0a1                	j	121fa <_ZN18complex_no_dynamic3app17h23394816b5b6cdecE+0x92>
   121b4:	853e                	mv	a0,a5
   121b6:	4485                	li	s1,1
   121b8:	4585                	li	a1,1
   121ba:	03e10613          	addi	a2,sp,62
   121be:	03200693          	li	a3,50
   121c2:	470d                	li	a4,3
   121c4:	00000073          	ecall
   121c8:	02850963          	beq	a0,s0,121fa <_ZN18complex_no_dynamic3app17h23394816b5b6cdecE+0x92>
   121cc:	4681                	li	a3,0
   121ce:	6509                	lui	a0,0x2
   121d0:	458d                	li	a1,3
   121d2:	4605                	li	a2,1
   121d4:	4709                	li	a4,2
   121d6:	f0750793          	addi	a5,a0,-249 # 1f07 <.Lline_table_start1+0x1cdc>
   121da:	07f00413          	li	s0,127
   121de:	853e                	mv	a0,a5
   121e0:	00000073          	ecall
   121e4:	4485                	li	s1,1
   121e6:	00a47a63          	bgeu	s0,a0,121fa <_ZN18complex_no_dynamic3app17h23394816b5b6cdecE+0x92>
   121ea:	853e                	mv	a0,a5
   121ec:	4601                	li	a2,0
   121ee:	4681                	li	a3,0
   121f0:	4481                	li	s1,0
   121f2:	4585                	li	a1,1
   121f4:	470d                	li	a4,3
   121f6:	00000073          	ecall
   121fa:	c88d                	beqz	s1,1222c <_ZN18complex_no_dynamic3app17h23394816b5b6cdecE+0xc4>
   121fc:	4601                	li	a2,0
   121fe:	4681                	li	a3,0
   12200:	4505                	li	a0,1
   12202:	6709                	lui	a4,0x2
   12204:	87ae                	mv	a5,a1
   12206:	4585                	li	a1,1
   12208:	00a90023          	sb	a0,0(s2)
   1220c:	00f92223          	sw	a5,4(s2)
   12210:	f0770793          	addi	a5,a4,-249 # 1f07 <.Lline_table_start1+0x1cdc>
   12214:	470d                	li	a4,3
   12216:	853e                	mv	a0,a5
   12218:	00000073          	ecall
   1221c:	458d                	li	a1,3
   1221e:	4711                	li	a4,4
   12220:	853e                	mv	a0,a5
   12222:	4601                	li	a2,0
   12224:	4681                	li	a3,0
   12226:	00000073          	ecall
   1222a:	a0a9                	j	12274 <_ZN18complex_no_dynamic3app17h23394816b5b6cdecE+0x10c>
   1222c:	6509                	lui	a0,0x2
   1222e:	f0750493          	addi	s1,a0,-249 # 1f07 <.Lline_table_start1+0x1cdc>
   12232:	4585                	li	a1,1
   12234:	470d                	li	a4,3
   12236:	8526                	mv	a0,s1
   12238:	4601                	li	a2,0
   1223a:	4681                	li	a3,0
   1223c:	00000073          	ecall
   12240:	00190513          	addi	a0,s2,1
   12244:	03e10593          	addi	a1,sp,62
   12248:	03200613          	li	a2,50
   1224c:	0000b097          	auipc	ra,0xb
   12250:	ae4080e7          	jalr	-1308(ra) # 1cd30 <memcpy>
   12254:	8526                	mv	a0,s1
   12256:	4601                	li	a2,0
   12258:	4681                	li	a3,0
   1225a:	00090023          	sb	zero,0(s2)
   1225e:	4585                	li	a1,1
   12260:	470d                	li	a4,3
   12262:	00000073          	ecall
   12266:	458d                	li	a1,3
   12268:	4711                	li	a4,4
   1226a:	8526                	mv	a0,s1
   1226c:	4601                	li	a2,0
   1226e:	4681                	li	a3,0
   12270:	00000073          	ecall
   12274:	50f6                	lw	ra,124(sp)
   12276:	5466                	lw	s0,120(sp)
   12278:	54d6                	lw	s1,116(sp)
   1227a:	5946                	lw	s2,112(sp)
   1227c:	6109                	addi	sp,sp,128
   1227e:	8082                	ret

00012280 <_ZN18complex_no_dynamic3app17h25445dbe7b2ee092E>:
   12280:	7171                	addi	sp,sp,-176
   12282:	d706                	sw	ra,172(sp)
   12284:	d522                	sw	s0,168(sp)
   12286:	d326                	sw	s1,164(sp)
   12288:	842a                	mv	s0,a0
   1228a:	0028                	addi	a0,sp,8
   1228c:	04600613          	li	a2,70
   12290:	0000b097          	auipc	ra,0xb
   12294:	aa0080e7          	jalr	-1376(ra) # 1cd30 <memcpy>
   12298:	04e10513          	addi	a0,sp,78
   1229c:	05600613          	li	a2,86
   122a0:	4581                	li	a1,0
   122a2:	0000b097          	auipc	ra,0xb
   122a6:	a22080e7          	jalr	-1502(ra) # 1ccc4 <memset>
   122aa:	6509                	lui	a0,0x2
   122ac:	459d                	li	a1,7
   122ae:	0030                	addi	a2,sp,8
   122b0:	04600693          	li	a3,70
   122b4:	e5050793          	addi	a5,a0,-432 # 1e50 <.Lline_table_start1+0x1c25>
   122b8:	4711                	li	a4,4
   122ba:	4489                	li	s1,2
   122bc:	853e                	mv	a0,a5
   122be:	00000073          	ecall
   122c2:	02950b63          	beq	a0,s1,122f8 <_ZN18complex_no_dynamic3app17h25445dbe7b2ee092E+0x78>
   122c6:	458d                	li	a1,3
   122c8:	04e10613          	addi	a2,sp,78
   122cc:	05600693          	li	a3,86
   122d0:	470d                	li	a4,3
   122d2:	853e                	mv	a0,a5
   122d4:	00000073          	ecall
   122d8:	02950063          	beq	a0,s1,122f8 <_ZN18complex_no_dynamic3app17h25445dbe7b2ee092E+0x78>
   122dc:	6509                	lui	a0,0x2
   122de:	459d                	li	a1,7
   122e0:	460d                	li	a2,3
   122e2:	e5050793          	addi	a5,a0,-432 # 1e50 <.Lline_table_start1+0x1c25>
   122e6:	4709                	li	a4,2
   122e8:	07f00493          	li	s1,127
   122ec:	853e                	mv	a0,a5
   122ee:	4681                	li	a3,0
   122f0:	00000073          	ecall
   122f4:	02a4eb63          	bltu	s1,a0,1232a <_ZN18complex_no_dynamic3app17h25445dbe7b2ee092E+0xaa>
   122f8:	4785                	li	a5,1
   122fa:	c3a9                	beqz	a5,1233c <_ZN18complex_no_dynamic3app17h25445dbe7b2ee092E+0xbc>
   122fc:	4601                	li	a2,0
   122fe:	4681                	li	a3,0
   12300:	4505                	li	a0,1
   12302:	6709                	lui	a4,0x2
   12304:	87ae                	mv	a5,a1
   12306:	458d                	li	a1,3
   12308:	00a40023          	sb	a0,0(s0)
   1230c:	c05c                	sw	a5,4(s0)
   1230e:	e5070793          	addi	a5,a4,-432 # 1e50 <.Lline_table_start1+0x1c25>
   12312:	470d                	li	a4,3
   12314:	853e                	mv	a0,a5
   12316:	00000073          	ecall
   1231a:	459d                	li	a1,7
   1231c:	4711                	li	a4,4
   1231e:	853e                	mv	a0,a5
   12320:	4601                	li	a2,0
   12322:	4681                	li	a3,0
   12324:	00000073          	ecall
   12328:	a8b1                	j	12384 <_ZN18complex_no_dynamic3app17h25445dbe7b2ee092E+0x104>
   1232a:	853e                	mv	a0,a5
   1232c:	4601                	li	a2,0
   1232e:	4681                	li	a3,0
   12330:	4781                	li	a5,0
   12332:	458d                	li	a1,3
   12334:	470d                	li	a4,3
   12336:	00000073          	ecall
   1233a:	f3e9                	bnez	a5,122fc <_ZN18complex_no_dynamic3app17h25445dbe7b2ee092E+0x7c>
   1233c:	6509                	lui	a0,0x2
   1233e:	e5050493          	addi	s1,a0,-432 # 1e50 <.Lline_table_start1+0x1c25>
   12342:	458d                	li	a1,3
   12344:	470d                	li	a4,3
   12346:	8526                	mv	a0,s1
   12348:	4601                	li	a2,0
   1234a:	4681                	li	a3,0
   1234c:	00000073          	ecall
   12350:	00140513          	addi	a0,s0,1
   12354:	04e10593          	addi	a1,sp,78
   12358:	05600613          	li	a2,86
   1235c:	0000b097          	auipc	ra,0xb
   12360:	9d4080e7          	jalr	-1580(ra) # 1cd30 <memcpy>
   12364:	8526                	mv	a0,s1
   12366:	4601                	li	a2,0
   12368:	4681                	li	a3,0
   1236a:	00040023          	sb	zero,0(s0)
   1236e:	458d                	li	a1,3
   12370:	470d                	li	a4,3
   12372:	00000073          	ecall
   12376:	459d                	li	a1,7
   12378:	4711                	li	a4,4
   1237a:	8526                	mv	a0,s1
   1237c:	4601                	li	a2,0
   1237e:	4681                	li	a3,0
   12380:	00000073          	ecall
   12384:	50ba                	lw	ra,172(sp)
   12386:	542a                	lw	s0,168(sp)
   12388:	549a                	lw	s1,164(sp)
   1238a:	614d                	addi	sp,sp,176
   1238c:	8082                	ret

0001238e <_ZN18complex_no_dynamic3app17h26030cfe5cd24c52E>:
   1238e:	7139                	addi	sp,sp,-64
   12390:	de06                	sw	ra,60(sp)
   12392:	dc22                	sw	s0,56(sp)
   12394:	da26                	sw	s1,52(sp)
   12396:	d84a                	sw	s2,48(sp)
   12398:	892a                	mv	s2,a0
   1239a:	00c5c503          	lbu	a0,12(a1)
   1239e:	00d5c603          	lbu	a2,13(a1)
   123a2:	00e5c683          	lbu	a3,14(a1)
   123a6:	0085c703          	lbu	a4,8(a1)
   123aa:	0095c783          	lbu	a5,9(a1)
   123ae:	00a5c483          	lbu	s1,10(a1)
   123b2:	00b5c403          	lbu	s0,11(a1)
   123b6:	00d10d23          	sb	a3,26(sp)
   123ba:	0622                	slli	a2,a2,0x8
   123bc:	07a2                	slli	a5,a5,0x8
   123be:	00a66833          	or	a6,a2,a0
   123c2:	8f5d                	or	a4,a4,a5
   123c4:	0045c603          	lbu	a2,4(a1)
   123c8:	0055c683          	lbu	a3,5(a1)
   123cc:	0065c783          	lbu	a5,6(a1)
   123d0:	0075c503          	lbu	a0,7(a1)
   123d4:	04c2                	slli	s1,s1,0x10
   123d6:	0462                	slli	s0,s0,0x18
   123d8:	06a2                	slli	a3,a3,0x8
   123da:	07c2                	slli	a5,a5,0x10
   123dc:	0562                	slli	a0,a0,0x18
   123de:	8c45                	or	s0,s0,s1
   123e0:	8ed1                	or	a3,a3,a2
   123e2:	8d5d                	or	a0,a0,a5
   123e4:	0005c603          	lbu	a2,0(a1)
   123e8:	0015c783          	lbu	a5,1(a1)
   123ec:	0025c483          	lbu	s1,2(a1)
   123f0:	0035c583          	lbu	a1,3(a1)
   123f4:	02011623          	sh	zero,44(sp)
   123f8:	02010723          	sb	zero,46(sp)
   123fc:	ce02                	sw	zero,28(sp)
   123fe:	d002                	sw	zero,32(sp)
   12400:	d202                	sw	zero,36(sp)
   12402:	d402                	sw	zero,40(sp)
   12404:	07a2                	slli	a5,a5,0x8
   12406:	8fd1                	or	a5,a5,a2
   12408:	6889                	lui	a7,0x2
   1240a:	04c2                	slli	s1,s1,0x10
   1240c:	05e2                	slli	a1,a1,0x18
   1240e:	8ccd                	or	s1,s1,a1
   12410:	458d                	li	a1,3
   12412:	8c59                	or	s0,s0,a4
   12414:	0070                	addi	a2,sp,12
   12416:	8d55                	or	a0,a0,a3
   12418:	46bd                	li	a3,15
   1241a:	8cdd                	or	s1,s1,a5
   1241c:	4711                	li	a4,4
   1241e:	e4b88793          	addi	a5,a7,-437 # 1e4b <.Lline_table_start1+0x1c20>
   12422:	c626                	sw	s1,12(sp)
   12424:	c82a                	sw	a0,16(sp)
   12426:	ca22                	sw	s0,20(sp)
   12428:	01011c23          	sh	a6,24(sp)
   1242c:	4489                	li	s1,2
   1242e:	853e                	mv	a0,a5
   12430:	00000073          	ecall
   12434:	02950963          	beq	a0,s1,12466 <_ZN18complex_no_dynamic3app17h26030cfe5cd24c52E+0xd8>
   12438:	0870                	addi	a2,sp,28
   1243a:	46cd                	li	a3,19
   1243c:	470d                	li	a4,3
   1243e:	853e                	mv	a0,a5
   12440:	4581                	li	a1,0
   12442:	00000073          	ecall
   12446:	02950063          	beq	a0,s1,12466 <_ZN18complex_no_dynamic3app17h26030cfe5cd24c52E+0xd8>
   1244a:	6509                	lui	a0,0x2
   1244c:	458d                	li	a1,3
   1244e:	e4b50793          	addi	a5,a0,-437 # 1e4b <.Lline_table_start1+0x1c20>
   12452:	4709                	li	a4,2
   12454:	07f00493          	li	s1,127
   12458:	853e                	mv	a0,a5
   1245a:	4601                	li	a2,0
   1245c:	4681                	li	a3,0
   1245e:	00000073          	ecall
   12462:	02a4ec63          	bltu	s1,a0,1249a <_ZN18complex_no_dynamic3app17h26030cfe5cd24c52E+0x10c>
   12466:	4785                	li	a5,1
   12468:	c3b1                	beqz	a5,124ac <_ZN18complex_no_dynamic3app17h26030cfe5cd24c52E+0x11e>
   1246a:	852e                	mv	a0,a1
   1246c:	4581                	li	a1,0
   1246e:	4601                	li	a2,0
   12470:	4681                	li	a3,0
   12472:	4705                	li	a4,1
   12474:	6789                	lui	a5,0x2
   12476:	00e90023          	sb	a4,0(s2)
   1247a:	00a92223          	sw	a0,4(s2)
   1247e:	e4b78793          	addi	a5,a5,-437 # 1e4b <.Lline_table_start1+0x1c20>
   12482:	470d                	li	a4,3
   12484:	853e                	mv	a0,a5
   12486:	00000073          	ecall
   1248a:	458d                	li	a1,3
   1248c:	4711                	li	a4,4
   1248e:	853e                	mv	a0,a5
   12490:	4601                	li	a2,0
   12492:	4681                	li	a3,0
   12494:	00000073          	ecall
   12498:	a8a1                	j	124f0 <_ZN18complex_no_dynamic3app17h26030cfe5cd24c52E+0x162>
   1249a:	853e                	mv	a0,a5
   1249c:	4581                	li	a1,0
   1249e:	4601                	li	a2,0
   124a0:	4681                	li	a3,0
   124a2:	4781                	li	a5,0
   124a4:	470d                	li	a4,3
   124a6:	00000073          	ecall
   124aa:	f3e1                	bnez	a5,1246a <_ZN18complex_no_dynamic3app17h26030cfe5cd24c52E+0xdc>
   124ac:	6509                	lui	a0,0x2
   124ae:	e4b50493          	addi	s1,a0,-437 # 1e4b <.Lline_table_start1+0x1c20>
   124b2:	470d                	li	a4,3
   124b4:	8526                	mv	a0,s1
   124b6:	4581                	li	a1,0
   124b8:	4601                	li	a2,0
   124ba:	4681                	li	a3,0
   124bc:	00000073          	ecall
   124c0:	00190513          	addi	a0,s2,1
   124c4:	086c                	addi	a1,sp,28
   124c6:	464d                	li	a2,19
   124c8:	0000b097          	auipc	ra,0xb
   124cc:	868080e7          	jalr	-1944(ra) # 1cd30 <memcpy>
   124d0:	8526                	mv	a0,s1
   124d2:	4581                	li	a1,0
   124d4:	4601                	li	a2,0
   124d6:	4681                	li	a3,0
   124d8:	00090023          	sb	zero,0(s2)
   124dc:	470d                	li	a4,3
   124de:	00000073          	ecall
   124e2:	458d                	li	a1,3
   124e4:	4711                	li	a4,4
   124e6:	8526                	mv	a0,s1
   124e8:	4601                	li	a2,0
   124ea:	4681                	li	a3,0
   124ec:	00000073          	ecall
   124f0:	50f2                	lw	ra,60(sp)
   124f2:	5462                	lw	s0,56(sp)
   124f4:	54d2                	lw	s1,52(sp)
   124f6:	5942                	lw	s2,48(sp)
   124f8:	6121                	addi	sp,sp,64
   124fa:	8082                	ret

000124fc <_ZN18complex_no_dynamic3app17h26f9f07a39292db8E>:
   124fc:	711d                	addi	sp,sp,-96
   124fe:	ce86                	sw	ra,92(sp)
   12500:	cca2                	sw	s0,88(sp)
   12502:	842a                	mv	s0,a0
   12504:	00710513          	addi	a0,sp,7
   12508:	02c00613          	li	a2,44
   1250c:	0000b097          	auipc	ra,0xb
   12510:	824080e7          	jalr	-2012(ra) # 1cd30 <memcpy>
   12514:	03310513          	addi	a0,sp,51
   12518:	02500613          	li	a2,37
   1251c:	4581                	li	a1,0
   1251e:	0000a097          	auipc	ra,0xa
   12522:	7a6080e7          	jalr	1958(ra) # 1ccc4 <memset>
   12526:	77f00513          	li	a0,1919
   1252a:	458d                	li	a1,3
   1252c:	00710613          	addi	a2,sp,7
   12530:	02c00693          	li	a3,44
   12534:	4711                	li	a4,4
   12536:	4789                	li	a5,2
   12538:	00000073          	ecall
   1253c:	02f50a63          	beq	a0,a5,12570 <_ZN18complex_no_dynamic3app17h26f9f07a39292db8E+0x74>
   12540:	77f00513          	li	a0,1919
   12544:	03310613          	addi	a2,sp,51
   12548:	02500693          	li	a3,37
   1254c:	470d                	li	a4,3
   1254e:	4581                	li	a1,0
   12550:	00000073          	ecall
   12554:	00f50e63          	beq	a0,a5,12570 <_ZN18complex_no_dynamic3app17h26f9f07a39292db8E+0x74>
   12558:	77f00513          	li	a0,1919
   1255c:	458d                	li	a1,3
   1255e:	4709                	li	a4,2
   12560:	07f00793          	li	a5,127
   12564:	4601                	li	a2,0
   12566:	4681                	li	a3,0
   12568:	00000073          	ecall
   1256c:	02a7ea63          	bltu	a5,a0,125a0 <_ZN18complex_no_dynamic3app17h26f9f07a39292db8E+0xa4>
   12570:	4785                	li	a5,1
   12572:	c3a9                	beqz	a5,125b4 <_ZN18complex_no_dynamic3app17h26f9f07a39292db8E+0xb8>
   12574:	852e                	mv	a0,a1
   12576:	4581                	li	a1,0
   12578:	4601                	li	a2,0
   1257a:	4681                	li	a3,0
   1257c:	4705                	li	a4,1
   1257e:	00e40023          	sb	a4,0(s0)
   12582:	c048                	sw	a0,4(s0)
   12584:	77f00513          	li	a0,1919
   12588:	470d                	li	a4,3
   1258a:	00000073          	ecall
   1258e:	77f00513          	li	a0,1919
   12592:	458d                	li	a1,3
   12594:	4711                	li	a4,4
   12596:	4601                	li	a2,0
   12598:	4681                	li	a3,0
   1259a:	00000073          	ecall
   1259e:	a8b9                	j	125fc <_ZN18complex_no_dynamic3app17h26f9f07a39292db8E+0x100>
   125a0:	4581                	li	a1,0
   125a2:	4601                	li	a2,0
   125a4:	4681                	li	a3,0
   125a6:	4781                	li	a5,0
   125a8:	77f00513          	li	a0,1919
   125ac:	470d                	li	a4,3
   125ae:	00000073          	ecall
   125b2:	f3e9                	bnez	a5,12574 <_ZN18complex_no_dynamic3app17h26f9f07a39292db8E+0x78>
   125b4:	77f00513          	li	a0,1919
   125b8:	470d                	li	a4,3
   125ba:	4581                	li	a1,0
   125bc:	4601                	li	a2,0
   125be:	4681                	li	a3,0
   125c0:	00000073          	ecall
   125c4:	00140513          	addi	a0,s0,1
   125c8:	03310593          	addi	a1,sp,51
   125cc:	02500613          	li	a2,37
   125d0:	0000a097          	auipc	ra,0xa
   125d4:	760080e7          	jalr	1888(ra) # 1cd30 <memcpy>
   125d8:	4581                	li	a1,0
   125da:	4601                	li	a2,0
   125dc:	4681                	li	a3,0
   125de:	00040023          	sb	zero,0(s0)
   125e2:	77f00513          	li	a0,1919
   125e6:	470d                	li	a4,3
   125e8:	00000073          	ecall
   125ec:	77f00513          	li	a0,1919
   125f0:	458d                	li	a1,3
   125f2:	4711                	li	a4,4
   125f4:	4601                	li	a2,0
   125f6:	4681                	li	a3,0
   125f8:	00000073          	ecall
   125fc:	40f6                	lw	ra,92(sp)
   125fe:	4466                	lw	s0,88(sp)
   12600:	6125                	addi	sp,sp,96
   12602:	8082                	ret

00012604 <_ZN18complex_no_dynamic3app17h296999d4bc92834fE>:
   12604:	715d                	addi	sp,sp,-80
   12606:	c686                	sw	ra,76(sp)
   12608:	c4a2                	sw	s0,72(sp)
   1260a:	c2a6                	sw	s1,68(sp)
   1260c:	842a                	mv	s0,a0
   1260e:	00710513          	addi	a0,sp,7
   12612:	02500613          	li	a2,37
   12616:	0000a097          	auipc	ra,0xa
   1261a:	71a080e7          	jalr	1818(ra) # 1cd30 <memcpy>
   1261e:	de02                	sw	zero,60(sp)
   12620:	c082                	sw	zero,64(sp)
   12622:	d602                	sw	zero,44(sp)
   12624:	d802                	sw	zero,48(sp)
   12626:	da02                	sw	zero,52(sp)
   12628:	dc02                	sw	zero,56(sp)
   1262a:	6505                	lui	a0,0x1
   1262c:	45a5                	li	a1,9
   1262e:	00710613          	addi	a2,sp,7
   12632:	02500693          	li	a3,37
   12636:	a7050793          	addi	a5,a0,-1424 # a70 <.Lline_table_start1+0x845>
   1263a:	4711                	li	a4,4
   1263c:	4489                	li	s1,2
   1263e:	853e                	mv	a0,a5
   12640:	00000073          	ecall
   12644:	02950963          	beq	a0,s1,12676 <_ZN18complex_no_dynamic3app17h296999d4bc92834fE+0x72>
   12648:	45a1                	li	a1,8
   1264a:	1070                	addi	a2,sp,44
   1264c:	46e1                	li	a3,24
   1264e:	470d                	li	a4,3
   12650:	853e                	mv	a0,a5
   12652:	00000073          	ecall
   12656:	02950063          	beq	a0,s1,12676 <_ZN18complex_no_dynamic3app17h296999d4bc92834fE+0x72>
   1265a:	6505                	lui	a0,0x1
   1265c:	45a5                	li	a1,9
   1265e:	4621                	li	a2,8
   12660:	a7050793          	addi	a5,a0,-1424 # a70 <.Lline_table_start1+0x845>
   12664:	4709                	li	a4,2
   12666:	07f00493          	li	s1,127
   1266a:	853e                	mv	a0,a5
   1266c:	4681                	li	a3,0
   1266e:	00000073          	ecall
   12672:	02a4eb63          	bltu	s1,a0,126a8 <_ZN18complex_no_dynamic3app17h296999d4bc92834fE+0xa4>
   12676:	4785                	li	a5,1
   12678:	c3a9                	beqz	a5,126ba <_ZN18complex_no_dynamic3app17h296999d4bc92834fE+0xb6>
   1267a:	4601                	li	a2,0
   1267c:	4681                	li	a3,0
   1267e:	4505                	li	a0,1
   12680:	6705                	lui	a4,0x1
   12682:	87ae                	mv	a5,a1
   12684:	45a1                	li	a1,8
   12686:	00a40023          	sb	a0,0(s0)
   1268a:	c05c                	sw	a5,4(s0)
   1268c:	a7070793          	addi	a5,a4,-1424 # a70 <.Lline_table_start1+0x845>
   12690:	470d                	li	a4,3
   12692:	853e                	mv	a0,a5
   12694:	00000073          	ecall
   12698:	45a5                	li	a1,9
   1269a:	4711                	li	a4,4
   1269c:	853e                	mv	a0,a5
   1269e:	4601                	li	a2,0
   126a0:	4681                	li	a3,0
   126a2:	00000073          	ecall
   126a6:	a8a1                	j	126fe <_ZN18complex_no_dynamic3app17h296999d4bc92834fE+0xfa>
   126a8:	853e                	mv	a0,a5
   126aa:	4601                	li	a2,0
   126ac:	4681                	li	a3,0
   126ae:	4781                	li	a5,0
   126b0:	45a1                	li	a1,8
   126b2:	470d                	li	a4,3
   126b4:	00000073          	ecall
   126b8:	f3e9                	bnez	a5,1267a <_ZN18complex_no_dynamic3app17h296999d4bc92834fE+0x76>
   126ba:	6505                	lui	a0,0x1
   126bc:	a7050493          	addi	s1,a0,-1424 # a70 <.Lline_table_start1+0x845>
   126c0:	45a1                	li	a1,8
   126c2:	470d                	li	a4,3
   126c4:	8526                	mv	a0,s1
   126c6:	4601                	li	a2,0
   126c8:	4681                	li	a3,0
   126ca:	00000073          	ecall
   126ce:	00140513          	addi	a0,s0,1
   126d2:	106c                	addi	a1,sp,44
   126d4:	4661                	li	a2,24
   126d6:	0000a097          	auipc	ra,0xa
   126da:	65a080e7          	jalr	1626(ra) # 1cd30 <memcpy>
   126de:	8526                	mv	a0,s1
   126e0:	4601                	li	a2,0
   126e2:	4681                	li	a3,0
   126e4:	00040023          	sb	zero,0(s0)
   126e8:	45a1                	li	a1,8
   126ea:	470d                	li	a4,3
   126ec:	00000073          	ecall
   126f0:	45a5                	li	a1,9
   126f2:	4711                	li	a4,4
   126f4:	8526                	mv	a0,s1
   126f6:	4601                	li	a2,0
   126f8:	4681                	li	a3,0
   126fa:	00000073          	ecall
   126fe:	40b6                	lw	ra,76(sp)
   12700:	4426                	lw	s0,72(sp)
   12702:	4496                	lw	s1,68(sp)
   12704:	6161                	addi	sp,sp,80
   12706:	8082                	ret

00012708 <_ZN18complex_no_dynamic3app17h297087b10341c70eE>:
   12708:	7119                	addi	sp,sp,-128
   1270a:	de86                	sw	ra,124(sp)
   1270c:	dca2                	sw	s0,120(sp)
   1270e:	daa6                	sw	s1,116(sp)
   12710:	d8ca                	sw	s2,112(sp)
   12712:	892a                	mv	s2,a0
   12714:	0105c503          	lbu	a0,16(a1)
   12718:	00c5c803          	lbu	a6,12(a1)
   1271c:	00d5c683          	lbu	a3,13(a1)
   12720:	00e5c703          	lbu	a4,14(a1)
   12724:	00f5c783          	lbu	a5,15(a1)
   12728:	0085c483          	lbu	s1,8(a1)
   1272c:	0095c403          	lbu	s0,9(a1)
   12730:	00a5c883          	lbu	a7,10(a1)
   12734:	00b5c603          	lbu	a2,11(a1)
   12738:	00a10e23          	sb	a0,28(sp)
   1273c:	06a2                	slli	a3,a3,0x8
   1273e:	0742                	slli	a4,a4,0x10
   12740:	07e2                	slli	a5,a5,0x18
   12742:	0422                	slli	s0,s0,0x8
   12744:	0106e833          	or	a6,a3,a6
   12748:	00e7e2b3          	or	t0,a5,a4
   1274c:	8c45                	or	s0,s0,s1
   1274e:	0045c683          	lbu	a3,4(a1)
   12752:	0055c783          	lbu	a5,5(a1)
   12756:	0065c483          	lbu	s1,6(a1)
   1275a:	0075c503          	lbu	a0,7(a1)
   1275e:	08c2                	slli	a7,a7,0x10
   12760:	0662                	slli	a2,a2,0x18
   12762:	07a2                	slli	a5,a5,0x8
   12764:	04c2                	slli	s1,s1,0x10
   12766:	0562                	slli	a0,a0,0x18
   12768:	01166633          	or	a2,a2,a7
   1276c:	8edd                	or	a3,a3,a5
   1276e:	0005c783          	lbu	a5,0(a1)
   12772:	0015c703          	lbu	a4,1(a1)
   12776:	8d45                	or	a0,a0,s1
   12778:	0025c483          	lbu	s1,2(a1)
   1277c:	0035c583          	lbu	a1,3(a1)
   12780:	0722                	slli	a4,a4,0x8
   12782:	8f5d                	or	a4,a4,a5
   12784:	04c2                	slli	s1,s1,0x10
   12786:	05e2                	slli	a1,a1,0x18
   12788:	8dc5                	or	a1,a1,s1
   1278a:	0102e7b3          	or	a5,t0,a6
   1278e:	8e41                	or	a2,a2,s0
   12790:	8d55                	or	a0,a0,a3
   12792:	8dd9                	or	a1,a1,a4
   12794:	c62e                	sw	a1,12(sp)
   12796:	c82a                	sw	a0,16(sp)
   12798:	ca32                	sw	a2,20(sp)
   1279a:	cc3e                	sw	a5,24(sp)
   1279c:	1008                	addi	a0,sp,32
   1279e:	05000613          	li	a2,80
   127a2:	4581                	li	a1,0
   127a4:	0000a097          	auipc	ra,0xa
   127a8:	520080e7          	jalr	1312(ra) # 1ccc4 <memset>
   127ac:	6509                	lui	a0,0x2
   127ae:	4599                	li	a1,6
   127b0:	0070                	addi	a2,sp,12
   127b2:	46c5                	li	a3,17
   127b4:	aa950793          	addi	a5,a0,-1367 # 1aa9 <.Lline_table_start1+0x187e>
   127b8:	4711                	li	a4,4
   127ba:	4489                	li	s1,2
   127bc:	853e                	mv	a0,a5
   127be:	00000073          	ecall
   127c2:	02950a63          	beq	a0,s1,127f6 <_ZN18complex_no_dynamic3app17h297087b10341c70eE+0xee>
   127c6:	4595                	li	a1,5
   127c8:	1010                	addi	a2,sp,32
   127ca:	05000693          	li	a3,80
   127ce:	470d                	li	a4,3
   127d0:	853e                	mv	a0,a5
   127d2:	00000073          	ecall
   127d6:	02950063          	beq	a0,s1,127f6 <_ZN18complex_no_dynamic3app17h297087b10341c70eE+0xee>
   127da:	6509                	lui	a0,0x2
   127dc:	4599                	li	a1,6
   127de:	4615                	li	a2,5
   127e0:	aa950793          	addi	a5,a0,-1367 # 1aa9 <.Lline_table_start1+0x187e>
   127e4:	4709                	li	a4,2
   127e6:	07f00493          	li	s1,127
   127ea:	853e                	mv	a0,a5
   127ec:	4681                	li	a3,0
   127ee:	00000073          	ecall
   127f2:	02a4ec63          	bltu	s1,a0,1282a <_ZN18complex_no_dynamic3app17h297087b10341c70eE+0x122>
   127f6:	4785                	li	a5,1
   127f8:	c3b1                	beqz	a5,1283c <_ZN18complex_no_dynamic3app17h297087b10341c70eE+0x134>
   127fa:	4601                	li	a2,0
   127fc:	4681                	li	a3,0
   127fe:	4505                	li	a0,1
   12800:	6709                	lui	a4,0x2
   12802:	87ae                	mv	a5,a1
   12804:	4595                	li	a1,5
   12806:	00a90023          	sb	a0,0(s2)
   1280a:	00f92223          	sw	a5,4(s2)
   1280e:	aa970793          	addi	a5,a4,-1367 # 1aa9 <.Lline_table_start1+0x187e>
   12812:	470d                	li	a4,3
   12814:	853e                	mv	a0,a5
   12816:	00000073          	ecall
   1281a:	4599                	li	a1,6
   1281c:	4711                	li	a4,4
   1281e:	853e                	mv	a0,a5
   12820:	4601                	li	a2,0
   12822:	4681                	li	a3,0
   12824:	00000073          	ecall
   12828:	a8a9                	j	12882 <_ZN18complex_no_dynamic3app17h297087b10341c70eE+0x17a>
   1282a:	853e                	mv	a0,a5
   1282c:	4601                	li	a2,0
   1282e:	4681                	li	a3,0
   12830:	4781                	li	a5,0
   12832:	4595                	li	a1,5
   12834:	470d                	li	a4,3
   12836:	00000073          	ecall
   1283a:	f3e1                	bnez	a5,127fa <_ZN18complex_no_dynamic3app17h297087b10341c70eE+0xf2>
   1283c:	6509                	lui	a0,0x2
   1283e:	aa950493          	addi	s1,a0,-1367 # 1aa9 <.Lline_table_start1+0x187e>
   12842:	4595                	li	a1,5
   12844:	470d                	li	a4,3
   12846:	8526                	mv	a0,s1
   12848:	4601                	li	a2,0
   1284a:	4681                	li	a3,0
   1284c:	00000073          	ecall
   12850:	00190513          	addi	a0,s2,1
   12854:	100c                	addi	a1,sp,32
   12856:	05000613          	li	a2,80
   1285a:	0000a097          	auipc	ra,0xa
   1285e:	4d6080e7          	jalr	1238(ra) # 1cd30 <memcpy>
   12862:	8526                	mv	a0,s1
   12864:	4601                	li	a2,0
   12866:	4681                	li	a3,0
   12868:	00090023          	sb	zero,0(s2)
   1286c:	4595                	li	a1,5
   1286e:	470d                	li	a4,3
   12870:	00000073          	ecall
   12874:	4599                	li	a1,6
   12876:	4711                	li	a4,4
   12878:	8526                	mv	a0,s1
   1287a:	4601                	li	a2,0
   1287c:	4681                	li	a3,0
   1287e:	00000073          	ecall
   12882:	50f6                	lw	ra,124(sp)
   12884:	5466                	lw	s0,120(sp)
   12886:	54d6                	lw	s1,116(sp)
   12888:	5946                	lw	s2,112(sp)
   1288a:	6109                	addi	sp,sp,128
   1288c:	8082                	ret

0001288e <_ZN18complex_no_dynamic3app17h2a42e921a33f65c6E>:
   1288e:	715d                	addi	sp,sp,-80
   12890:	c686                	sw	ra,76(sp)
   12892:	c4a2                	sw	s0,72(sp)
   12894:	c2a6                	sw	s1,68(sp)
   12896:	842a                	mv	s0,a0
   12898:	00910513          	addi	a0,sp,9
   1289c:	02b00613          	li	a2,43
   128a0:	0000a097          	auipc	ra,0xa
   128a4:	490080e7          	jalr	1168(ra) # 1cd30 <memcpy>
   128a8:	da02                	sw	zero,52(sp)
   128aa:	dc02                	sw	zero,56(sp)
   128ac:	de02                	sw	zero,60(sp)
   128ae:	04010023          	sb	zero,64(sp)
   128b2:	6505                	lui	a0,0x1
   128b4:	4599                	li	a1,6
   128b6:	00910613          	addi	a2,sp,9
   128ba:	02b00693          	li	a3,43
   128be:	46550793          	addi	a5,a0,1125 # 1465 <.Lline_table_start1+0x123a>
   128c2:	4711                	li	a4,4
   128c4:	4489                	li	s1,2
   128c6:	853e                	mv	a0,a5
   128c8:	00000073          	ecall
   128cc:	02950963          	beq	a0,s1,128fe <_ZN18complex_no_dynamic3app17h2a42e921a33f65c6E+0x70>
   128d0:	1850                	addi	a2,sp,52
   128d2:	46b5                	li	a3,13
   128d4:	470d                	li	a4,3
   128d6:	853e                	mv	a0,a5
   128d8:	4581                	li	a1,0
   128da:	00000073          	ecall
   128de:	02950063          	beq	a0,s1,128fe <_ZN18complex_no_dynamic3app17h2a42e921a33f65c6E+0x70>
   128e2:	6505                	lui	a0,0x1
   128e4:	4599                	li	a1,6
   128e6:	46550793          	addi	a5,a0,1125 # 1465 <.Lline_table_start1+0x123a>
   128ea:	4709                	li	a4,2
   128ec:	07f00493          	li	s1,127
   128f0:	853e                	mv	a0,a5
   128f2:	4601                	li	a2,0
   128f4:	4681                	li	a3,0
   128f6:	00000073          	ecall
   128fa:	02a4eb63          	bltu	s1,a0,12930 <_ZN18complex_no_dynamic3app17h2a42e921a33f65c6E+0xa2>
   128fe:	4785                	li	a5,1
   12900:	c3a9                	beqz	a5,12942 <_ZN18complex_no_dynamic3app17h2a42e921a33f65c6E+0xb4>
   12902:	852e                	mv	a0,a1
   12904:	4581                	li	a1,0
   12906:	4601                	li	a2,0
   12908:	4681                	li	a3,0
   1290a:	4705                	li	a4,1
   1290c:	6785                	lui	a5,0x1
   1290e:	00e40023          	sb	a4,0(s0)
   12912:	c048                	sw	a0,4(s0)
   12914:	46578793          	addi	a5,a5,1125 # 1465 <.Lline_table_start1+0x123a>
   12918:	470d                	li	a4,3
   1291a:	853e                	mv	a0,a5
   1291c:	00000073          	ecall
   12920:	4599                	li	a1,6
   12922:	4711                	li	a4,4
   12924:	853e                	mv	a0,a5
   12926:	4601                	li	a2,0
   12928:	4681                	li	a3,0
   1292a:	00000073          	ecall
   1292e:	a8a1                	j	12986 <_ZN18complex_no_dynamic3app17h2a42e921a33f65c6E+0xf8>
   12930:	853e                	mv	a0,a5
   12932:	4581                	li	a1,0
   12934:	4601                	li	a2,0
   12936:	4681                	li	a3,0
   12938:	4781                	li	a5,0
   1293a:	470d                	li	a4,3
   1293c:	00000073          	ecall
   12940:	f3e9                	bnez	a5,12902 <_ZN18complex_no_dynamic3app17h2a42e921a33f65c6E+0x74>
   12942:	6505                	lui	a0,0x1
   12944:	46550493          	addi	s1,a0,1125 # 1465 <.Lline_table_start1+0x123a>
   12948:	470d                	li	a4,3
   1294a:	8526                	mv	a0,s1
   1294c:	4581                	li	a1,0
   1294e:	4601                	li	a2,0
   12950:	4681                	li	a3,0
   12952:	00000073          	ecall
   12956:	00140513          	addi	a0,s0,1
   1295a:	184c                	addi	a1,sp,52
   1295c:	4635                	li	a2,13
   1295e:	0000a097          	auipc	ra,0xa
   12962:	3d2080e7          	jalr	978(ra) # 1cd30 <memcpy>
   12966:	8526                	mv	a0,s1
   12968:	4581                	li	a1,0
   1296a:	4601                	li	a2,0
   1296c:	4681                	li	a3,0
   1296e:	00040023          	sb	zero,0(s0)
   12972:	470d                	li	a4,3
   12974:	00000073          	ecall
   12978:	4599                	li	a1,6
   1297a:	4711                	li	a4,4
   1297c:	8526                	mv	a0,s1
   1297e:	4601                	li	a2,0
   12980:	4681                	li	a3,0
   12982:	00000073          	ecall
   12986:	40b6                	lw	ra,76(sp)
   12988:	4426                	lw	s0,72(sp)
   1298a:	4496                	lw	s1,68(sp)
   1298c:	6161                	addi	sp,sp,80
   1298e:	8082                	ret

00012990 <_ZN18complex_no_dynamic3app17h2d9779e701ed0d1fE>:
   12990:	7119                	addi	sp,sp,-128
   12992:	de86                	sw	ra,124(sp)
   12994:	dca2                	sw	s0,120(sp)
   12996:	daa6                	sw	s1,116(sp)
   12998:	d8ca                	sw	s2,112(sp)
   1299a:	d6ce                	sw	s3,108(sp)
   1299c:	d4d2                	sw	s4,104(sp)
   1299e:	892a                	mv	s2,a0
   129a0:	01c5c303          	lbu	t1,28(a1)
   129a4:	01d5c603          	lbu	a2,29(a1)
   129a8:	0185c683          	lbu	a3,24(a1)
   129ac:	0195c703          	lbu	a4,25(a1)
   129b0:	01a5c803          	lbu	a6,26(a1)
   129b4:	01b5c283          	lbu	t0,27(a1)
   129b8:	0145c883          	lbu	a7,20(a1)
   129bc:	0155c383          	lbu	t2,21(a1)
   129c0:	0165c403          	lbu	s0,22(a1)
   129c4:	0175c483          	lbu	s1,23(a1)
   129c8:	0105c503          	lbu	a0,16(a1)
   129cc:	0115c783          	lbu	a5,17(a1)
   129d0:	0125ce03          	lbu	t3,18(a1)
   129d4:	0135ce83          	lbu	t4,19(a1)
   129d8:	0622                	slli	a2,a2,0x8
   129da:	0722                	slli	a4,a4,0x8
   129dc:	00666333          	or	t1,a2,t1
   129e0:	00d76f33          	or	t5,a4,a3
   129e4:	00c5cf83          	lbu	t6,12(a1)
   129e8:	00d5c683          	lbu	a3,13(a1)
   129ec:	00e5c703          	lbu	a4,14(a1)
   129f0:	00f5c603          	lbu	a2,15(a1)
   129f4:	0842                	slli	a6,a6,0x10
   129f6:	02e2                	slli	t0,t0,0x18
   129f8:	03a2                	slli	t2,t2,0x8
   129fa:	0442                	slli	s0,s0,0x10
   129fc:	04e2                	slli	s1,s1,0x18
   129fe:	07a2                	slli	a5,a5,0x8
   12a00:	0102e2b3          	or	t0,t0,a6
   12a04:	0113e833          	or	a6,t2,a7
   12a08:	0084e8b3          	or	a7,s1,s0
   12a0c:	00a7e3b3          	or	t2,a5,a0
   12a10:	0085c503          	lbu	a0,8(a1)
   12a14:	0095c783          	lbu	a5,9(a1)
   12a18:	00a5c403          	lbu	s0,10(a1)
   12a1c:	00b5c483          	lbu	s1,11(a1)
   12a20:	0e42                	slli	t3,t3,0x10
   12a22:	0ee2                	slli	t4,t4,0x18
   12a24:	06a2                	slli	a3,a3,0x8
   12a26:	0742                	slli	a4,a4,0x10
   12a28:	0662                	slli	a2,a2,0x18
   12a2a:	07a2                	slli	a5,a5,0x8
   12a2c:	01ceee33          	or	t3,t4,t3
   12a30:	01f6eeb3          	or	t4,a3,t6
   12a34:	00e669b3          	or	s3,a2,a4
   12a38:	00a7efb3          	or	t6,a5,a0
   12a3c:	0045c703          	lbu	a4,4(a1)
   12a40:	0055c783          	lbu	a5,5(a1)
   12a44:	0065c683          	lbu	a3,6(a1)
   12a48:	0075c503          	lbu	a0,7(a1)
   12a4c:	0442                	slli	s0,s0,0x10
   12a4e:	04e2                	slli	s1,s1,0x18
   12a50:	07a2                	slli	a5,a5,0x8
   12a52:	06c2                	slli	a3,a3,0x10
   12a54:	0562                	slli	a0,a0,0x18
   12a56:	8c45                	or	s0,s0,s1
   12a58:	00e7ea33          	or	s4,a5,a4
   12a5c:	0005c783          	lbu	a5,0(a1)
   12a60:	0015c483          	lbu	s1,1(a1)
   12a64:	8d55                	or	a0,a0,a3
   12a66:	0025c683          	lbu	a3,2(a1)
   12a6a:	0035c583          	lbu	a1,3(a1)
   12a6e:	04a2                	slli	s1,s1,0x8
   12a70:	8fc5                	or	a5,a5,s1
   12a72:	06c2                	slli	a3,a3,0x10
   12a74:	05e2                	slli	a1,a1,0x18
   12a76:	8dd5                	or	a1,a1,a3
   12a78:	01e2e6b3          	or	a3,t0,t5
   12a7c:	0108e4b3          	or	s1,a7,a6
   12a80:	007e6633          	or	a2,t3,t2
   12a84:	01d9e733          	or	a4,s3,t4
   12a88:	01f46433          	or	s0,s0,t6
   12a8c:	01456533          	or	a0,a0,s4
   12a90:	8ddd                	or	a1,a1,a5
   12a92:	ce32                	sw	a2,28(sp)
   12a94:	d026                	sw	s1,32(sp)
   12a96:	d236                	sw	a3,36(sp)
   12a98:	02611423          	sh	t1,40(sp)
   12a9c:	c62e                	sw	a1,12(sp)
   12a9e:	c82a                	sw	a0,16(sp)
   12aa0:	ca22                	sw	s0,20(sp)
   12aa2:	cc3a                	sw	a4,24(sp)
   12aa4:	1068                	addi	a0,sp,44
   12aa6:	03c00613          	li	a2,60
   12aaa:	4581                	li	a1,0
   12aac:	0000a097          	auipc	ra,0xa
   12ab0:	218080e7          	jalr	536(ra) # 1ccc4 <memset>
   12ab4:	6505                	lui	a0,0x1
   12ab6:	4489                	li	s1,2
   12ab8:	4589                	li	a1,2
   12aba:	0070                	addi	a2,sp,12
   12abc:	b3c50793          	addi	a5,a0,-1220 # b3c <.Lline_table_start1+0x911>
   12ac0:	46f9                	li	a3,30
   12ac2:	4711                	li	a4,4
   12ac4:	853e                	mv	a0,a5
   12ac6:	00000073          	ecall
   12aca:	02950a63          	beq	a0,s1,12afe <_ZN18complex_no_dynamic3app17h2d9779e701ed0d1fE+0x16e>
   12ace:	458d                	li	a1,3
   12ad0:	1070                	addi	a2,sp,44
   12ad2:	03c00693          	li	a3,60
   12ad6:	470d                	li	a4,3
   12ad8:	853e                	mv	a0,a5
   12ada:	00000073          	ecall
   12ade:	02950063          	beq	a0,s1,12afe <_ZN18complex_no_dynamic3app17h2d9779e701ed0d1fE+0x16e>
   12ae2:	6505                	lui	a0,0x1
   12ae4:	4589                	li	a1,2
   12ae6:	460d                	li	a2,3
   12ae8:	b3c50793          	addi	a5,a0,-1220 # b3c <.Lline_table_start1+0x911>
   12aec:	4709                	li	a4,2
   12aee:	07f00493          	li	s1,127
   12af2:	853e                	mv	a0,a5
   12af4:	4681                	li	a3,0
   12af6:	00000073          	ecall
   12afa:	02a4ec63          	bltu	s1,a0,12b32 <_ZN18complex_no_dynamic3app17h2d9779e701ed0d1fE+0x1a2>
   12afe:	4785                	li	a5,1
   12b00:	c3b1                	beqz	a5,12b44 <_ZN18complex_no_dynamic3app17h2d9779e701ed0d1fE+0x1b4>
   12b02:	4601                	li	a2,0
   12b04:	4681                	li	a3,0
   12b06:	4505                	li	a0,1
   12b08:	6705                	lui	a4,0x1
   12b0a:	87ae                	mv	a5,a1
   12b0c:	458d                	li	a1,3
   12b0e:	00a90023          	sb	a0,0(s2)
   12b12:	00f92223          	sw	a5,4(s2)
   12b16:	b3c70793          	addi	a5,a4,-1220 # b3c <.Lline_table_start1+0x911>
   12b1a:	470d                	li	a4,3
   12b1c:	853e                	mv	a0,a5
   12b1e:	00000073          	ecall
   12b22:	4589                	li	a1,2
   12b24:	4711                	li	a4,4
   12b26:	853e                	mv	a0,a5
   12b28:	4601                	li	a2,0
   12b2a:	4681                	li	a3,0
   12b2c:	00000073          	ecall
   12b30:	a8a9                	j	12b8a <_ZN18complex_no_dynamic3app17h2d9779e701ed0d1fE+0x1fa>
   12b32:	853e                	mv	a0,a5
   12b34:	4601                	li	a2,0
   12b36:	4681                	li	a3,0
   12b38:	4781                	li	a5,0
   12b3a:	458d                	li	a1,3
   12b3c:	470d                	li	a4,3
   12b3e:	00000073          	ecall
   12b42:	f3e1                	bnez	a5,12b02 <_ZN18complex_no_dynamic3app17h2d9779e701ed0d1fE+0x172>
   12b44:	6505                	lui	a0,0x1
   12b46:	b3c50493          	addi	s1,a0,-1220 # b3c <.Lline_table_start1+0x911>
   12b4a:	458d                	li	a1,3
   12b4c:	470d                	li	a4,3
   12b4e:	8526                	mv	a0,s1
   12b50:	4601                	li	a2,0
   12b52:	4681                	li	a3,0
   12b54:	00000073          	ecall
   12b58:	00190513          	addi	a0,s2,1
   12b5c:	106c                	addi	a1,sp,44
   12b5e:	03c00613          	li	a2,60
   12b62:	0000a097          	auipc	ra,0xa
   12b66:	1ce080e7          	jalr	462(ra) # 1cd30 <memcpy>
   12b6a:	8526                	mv	a0,s1
   12b6c:	4601                	li	a2,0
   12b6e:	4681                	li	a3,0
   12b70:	00090023          	sb	zero,0(s2)
   12b74:	458d                	li	a1,3
   12b76:	470d                	li	a4,3
   12b78:	00000073          	ecall
   12b7c:	4589                	li	a1,2
   12b7e:	4711                	li	a4,4
   12b80:	8526                	mv	a0,s1
   12b82:	4601                	li	a2,0
   12b84:	4681                	li	a3,0
   12b86:	00000073          	ecall
   12b8a:	50f6                	lw	ra,124(sp)
   12b8c:	5466                	lw	s0,120(sp)
   12b8e:	54d6                	lw	s1,116(sp)
   12b90:	5946                	lw	s2,112(sp)
   12b92:	59b6                	lw	s3,108(sp)
   12b94:	5a26                	lw	s4,104(sp)
   12b96:	6109                	addi	sp,sp,128
   12b98:	8082                	ret

00012b9a <_ZN18complex_no_dynamic3app17h2e1b9dc162fa9eadE>:
   12b9a:	7119                	addi	sp,sp,-128
   12b9c:	de86                	sw	ra,124(sp)
   12b9e:	dca2                	sw	s0,120(sp)
   12ba0:	daa6                	sw	s1,116(sp)
   12ba2:	842a                	mv	s0,a0
   12ba4:	00110513          	addi	a0,sp,1
   12ba8:	03200613          	li	a2,50
   12bac:	0000a097          	auipc	ra,0xa
   12bb0:	184080e7          	jalr	388(ra) # 1cd30 <memcpy>
   12bb4:	03310513          	addi	a0,sp,51
   12bb8:	04100613          	li	a2,65
   12bbc:	4581                	li	a1,0
   12bbe:	0000a097          	auipc	ra,0xa
   12bc2:	106080e7          	jalr	262(ra) # 1ccc4 <memset>
   12bc6:	6505                	lui	a0,0x1
   12bc8:	459d                	li	a1,7
   12bca:	00110613          	addi	a2,sp,1
   12bce:	03200693          	li	a3,50
   12bd2:	91d50793          	addi	a5,a0,-1763 # 91d <.Lline_table_start1+0x6f2>
   12bd6:	4711                	li	a4,4
   12bd8:	4489                	li	s1,2
   12bda:	853e                	mv	a0,a5
   12bdc:	00000073          	ecall
   12be0:	02950b63          	beq	a0,s1,12c16 <_ZN18complex_no_dynamic3app17h2e1b9dc162fa9eadE+0x7c>
   12be4:	4595                	li	a1,5
   12be6:	03310613          	addi	a2,sp,51
   12bea:	04100693          	li	a3,65
   12bee:	470d                	li	a4,3
   12bf0:	853e                	mv	a0,a5
   12bf2:	00000073          	ecall
   12bf6:	02950063          	beq	a0,s1,12c16 <_ZN18complex_no_dynamic3app17h2e1b9dc162fa9eadE+0x7c>
   12bfa:	6505                	lui	a0,0x1
   12bfc:	459d                	li	a1,7
   12bfe:	4615                	li	a2,5
   12c00:	91d50793          	addi	a5,a0,-1763 # 91d <.Lline_table_start1+0x6f2>
   12c04:	4709                	li	a4,2
   12c06:	07f00493          	li	s1,127
   12c0a:	853e                	mv	a0,a5
   12c0c:	4681                	li	a3,0
   12c0e:	00000073          	ecall
   12c12:	02a4eb63          	bltu	s1,a0,12c48 <_ZN18complex_no_dynamic3app17h2e1b9dc162fa9eadE+0xae>
   12c16:	4785                	li	a5,1
   12c18:	c3a9                	beqz	a5,12c5a <_ZN18complex_no_dynamic3app17h2e1b9dc162fa9eadE+0xc0>
   12c1a:	4601                	li	a2,0
   12c1c:	4681                	li	a3,0
   12c1e:	4505                	li	a0,1
   12c20:	6705                	lui	a4,0x1
   12c22:	87ae                	mv	a5,a1
   12c24:	4595                	li	a1,5
   12c26:	00a40023          	sb	a0,0(s0)
   12c2a:	c05c                	sw	a5,4(s0)
   12c2c:	91d70793          	addi	a5,a4,-1763 # 91d <.Lline_table_start1+0x6f2>
   12c30:	470d                	li	a4,3
   12c32:	853e                	mv	a0,a5
   12c34:	00000073          	ecall
   12c38:	459d                	li	a1,7
   12c3a:	4711                	li	a4,4
   12c3c:	853e                	mv	a0,a5
   12c3e:	4601                	li	a2,0
   12c40:	4681                	li	a3,0
   12c42:	00000073          	ecall
   12c46:	a8b1                	j	12ca2 <_ZN18complex_no_dynamic3app17h2e1b9dc162fa9eadE+0x108>
   12c48:	853e                	mv	a0,a5
   12c4a:	4601                	li	a2,0
   12c4c:	4681                	li	a3,0
   12c4e:	4781                	li	a5,0
   12c50:	4595                	li	a1,5
   12c52:	470d                	li	a4,3
   12c54:	00000073          	ecall
   12c58:	f3e9                	bnez	a5,12c1a <_ZN18complex_no_dynamic3app17h2e1b9dc162fa9eadE+0x80>
   12c5a:	6505                	lui	a0,0x1
   12c5c:	91d50493          	addi	s1,a0,-1763 # 91d <.Lline_table_start1+0x6f2>
   12c60:	4595                	li	a1,5
   12c62:	470d                	li	a4,3
   12c64:	8526                	mv	a0,s1
   12c66:	4601                	li	a2,0
   12c68:	4681                	li	a3,0
   12c6a:	00000073          	ecall
   12c6e:	00140513          	addi	a0,s0,1
   12c72:	03310593          	addi	a1,sp,51
   12c76:	04100613          	li	a2,65
   12c7a:	0000a097          	auipc	ra,0xa
   12c7e:	0b6080e7          	jalr	182(ra) # 1cd30 <memcpy>
   12c82:	8526                	mv	a0,s1
   12c84:	4601                	li	a2,0
   12c86:	4681                	li	a3,0
   12c88:	00040023          	sb	zero,0(s0)
   12c8c:	4595                	li	a1,5
   12c8e:	470d                	li	a4,3
   12c90:	00000073          	ecall
   12c94:	459d                	li	a1,7
   12c96:	4711                	li	a4,4
   12c98:	8526                	mv	a0,s1
   12c9a:	4601                	li	a2,0
   12c9c:	4681                	li	a3,0
   12c9e:	00000073          	ecall
   12ca2:	50f6                	lw	ra,124(sp)
   12ca4:	5466                	lw	s0,120(sp)
   12ca6:	54d6                	lw	s1,116(sp)
   12ca8:	6109                	addi	sp,sp,128
   12caa:	8082                	ret

00012cac <_ZN18complex_no_dynamic3app17h311745b62641a1c5E>:
   12cac:	7175                	addi	sp,sp,-144
   12cae:	c706                	sw	ra,140(sp)
   12cb0:	c522                	sw	s0,136(sp)
   12cb2:	c326                	sw	s1,132(sp)
   12cb4:	c14a                	sw	s2,128(sp)
   12cb6:	dece                	sw	s3,124(sp)
   12cb8:	dcd2                	sw	s4,120(sp)
   12cba:	892a                	mv	s2,a0
   12cbc:	01c5c303          	lbu	t1,28(a1)
   12cc0:	01d5c603          	lbu	a2,29(a1)
   12cc4:	0185c683          	lbu	a3,24(a1)
   12cc8:	0195c703          	lbu	a4,25(a1)
   12ccc:	01a5c803          	lbu	a6,26(a1)
   12cd0:	01b5c283          	lbu	t0,27(a1)
   12cd4:	0145c883          	lbu	a7,20(a1)
   12cd8:	0155c383          	lbu	t2,21(a1)
   12cdc:	0165c403          	lbu	s0,22(a1)
   12ce0:	0175c483          	lbu	s1,23(a1)
   12ce4:	0105c503          	lbu	a0,16(a1)
   12ce8:	0115c783          	lbu	a5,17(a1)
   12cec:	0125ce03          	lbu	t3,18(a1)
   12cf0:	0135ce83          	lbu	t4,19(a1)
   12cf4:	0622                	slli	a2,a2,0x8
   12cf6:	0722                	slli	a4,a4,0x8
   12cf8:	00666333          	or	t1,a2,t1
   12cfc:	00d76f33          	or	t5,a4,a3
   12d00:	00c5cf83          	lbu	t6,12(a1)
   12d04:	00d5c683          	lbu	a3,13(a1)
   12d08:	00e5c703          	lbu	a4,14(a1)
   12d0c:	00f5c603          	lbu	a2,15(a1)
   12d10:	0842                	slli	a6,a6,0x10
   12d12:	02e2                	slli	t0,t0,0x18
   12d14:	03a2                	slli	t2,t2,0x8
   12d16:	0442                	slli	s0,s0,0x10
   12d18:	04e2                	slli	s1,s1,0x18
   12d1a:	07a2                	slli	a5,a5,0x8
   12d1c:	0102e2b3          	or	t0,t0,a6
   12d20:	0113e833          	or	a6,t2,a7
   12d24:	0084e8b3          	or	a7,s1,s0
   12d28:	00a7e3b3          	or	t2,a5,a0
   12d2c:	0085c503          	lbu	a0,8(a1)
   12d30:	0095c783          	lbu	a5,9(a1)
   12d34:	00a5c403          	lbu	s0,10(a1)
   12d38:	00b5c483          	lbu	s1,11(a1)
   12d3c:	0e42                	slli	t3,t3,0x10
   12d3e:	0ee2                	slli	t4,t4,0x18
   12d40:	06a2                	slli	a3,a3,0x8
   12d42:	0742                	slli	a4,a4,0x10
   12d44:	0662                	slli	a2,a2,0x18
   12d46:	07a2                	slli	a5,a5,0x8
   12d48:	01ceee33          	or	t3,t4,t3
   12d4c:	01f6eeb3          	or	t4,a3,t6
   12d50:	00e669b3          	or	s3,a2,a4
   12d54:	00a7efb3          	or	t6,a5,a0
   12d58:	0045c703          	lbu	a4,4(a1)
   12d5c:	0055c783          	lbu	a5,5(a1)
   12d60:	0065c683          	lbu	a3,6(a1)
   12d64:	0075c503          	lbu	a0,7(a1)
   12d68:	0442                	slli	s0,s0,0x10
   12d6a:	04e2                	slli	s1,s1,0x18
   12d6c:	07a2                	slli	a5,a5,0x8
   12d6e:	06c2                	slli	a3,a3,0x10
   12d70:	0562                	slli	a0,a0,0x18
   12d72:	8c45                	or	s0,s0,s1
   12d74:	00e7ea33          	or	s4,a5,a4
   12d78:	0005c783          	lbu	a5,0(a1)
   12d7c:	0015c483          	lbu	s1,1(a1)
   12d80:	8d55                	or	a0,a0,a3
   12d82:	0025c683          	lbu	a3,2(a1)
   12d86:	0035c583          	lbu	a1,3(a1)
   12d8a:	04a2                	slli	s1,s1,0x8
   12d8c:	8fc5                	or	a5,a5,s1
   12d8e:	06c2                	slli	a3,a3,0x10
   12d90:	05e2                	slli	a1,a1,0x18
   12d92:	8dd5                	or	a1,a1,a3
   12d94:	01e2e6b3          	or	a3,t0,t5
   12d98:	0108e4b3          	or	s1,a7,a6
   12d9c:	007e6633          	or	a2,t3,t2
   12da0:	01d9e733          	or	a4,s3,t4
   12da4:	01f46433          	or	s0,s0,t6
   12da8:	01456533          	or	a0,a0,s4
   12dac:	8ddd                	or	a1,a1,a5
   12dae:	cc32                	sw	a2,24(sp)
   12db0:	ce26                	sw	s1,28(sp)
   12db2:	d036                	sw	a3,32(sp)
   12db4:	02611223          	sh	t1,36(sp)
   12db8:	c42e                	sw	a1,8(sp)
   12dba:	c62a                	sw	a0,12(sp)
   12dbc:	c822                	sw	s0,16(sp)
   12dbe:	ca3a                	sw	a4,20(sp)
   12dc0:	02710513          	addi	a0,sp,39
   12dc4:	05100613          	li	a2,81
   12dc8:	4581                	li	a1,0
   12dca:	0000a097          	auipc	ra,0xa
   12dce:	efa080e7          	jalr	-262(ra) # 1ccc4 <memset>
   12dd2:	6509                	lui	a0,0x2
   12dd4:	4489                	li	s1,2
   12dd6:	4589                	li	a1,2
   12dd8:	0030                	addi	a2,sp,8
   12dda:	96b50793          	addi	a5,a0,-1685 # 196b <.Lline_table_start1+0x1740>
   12dde:	46f9                	li	a3,30
   12de0:	4711                	li	a4,4
   12de2:	853e                	mv	a0,a5
   12de4:	00000073          	ecall
   12de8:	02950b63          	beq	a0,s1,12e1e <_ZN18complex_no_dynamic3app17h311745b62641a1c5E+0x172>
   12dec:	02710613          	addi	a2,sp,39
   12df0:	05100693          	li	a3,81
   12df4:	470d                	li	a4,3
   12df6:	853e                	mv	a0,a5
   12df8:	4581                	li	a1,0
   12dfa:	00000073          	ecall
   12dfe:	02950063          	beq	a0,s1,12e1e <_ZN18complex_no_dynamic3app17h311745b62641a1c5E+0x172>
   12e02:	6509                	lui	a0,0x2
   12e04:	4589                	li	a1,2
   12e06:	96b50793          	addi	a5,a0,-1685 # 196b <.Lline_table_start1+0x1740>
   12e0a:	4709                	li	a4,2
   12e0c:	07f00493          	li	s1,127
   12e10:	853e                	mv	a0,a5
   12e12:	4601                	li	a2,0
   12e14:	4681                	li	a3,0
   12e16:	00000073          	ecall
   12e1a:	02a4ec63          	bltu	s1,a0,12e52 <_ZN18complex_no_dynamic3app17h311745b62641a1c5E+0x1a6>
   12e1e:	4785                	li	a5,1
   12e20:	c3b1                	beqz	a5,12e64 <_ZN18complex_no_dynamic3app17h311745b62641a1c5E+0x1b8>
   12e22:	852e                	mv	a0,a1
   12e24:	4581                	li	a1,0
   12e26:	4601                	li	a2,0
   12e28:	4681                	li	a3,0
   12e2a:	4705                	li	a4,1
   12e2c:	6789                	lui	a5,0x2
   12e2e:	00e90023          	sb	a4,0(s2)
   12e32:	00a92223          	sw	a0,4(s2)
   12e36:	96b78793          	addi	a5,a5,-1685 # 196b <.Lline_table_start1+0x1740>
   12e3a:	470d                	li	a4,3
   12e3c:	853e                	mv	a0,a5
   12e3e:	00000073          	ecall
   12e42:	4589                	li	a1,2
   12e44:	4711                	li	a4,4
   12e46:	853e                	mv	a0,a5
   12e48:	4601                	li	a2,0
   12e4a:	4681                	li	a3,0
   12e4c:	00000073          	ecall
   12e50:	a8b1                	j	12eac <_ZN18complex_no_dynamic3app17h311745b62641a1c5E+0x200>
   12e52:	853e                	mv	a0,a5
   12e54:	4581                	li	a1,0
   12e56:	4601                	li	a2,0
   12e58:	4681                	li	a3,0
   12e5a:	4781                	li	a5,0
   12e5c:	470d                	li	a4,3
   12e5e:	00000073          	ecall
   12e62:	f3e1                	bnez	a5,12e22 <_ZN18complex_no_dynamic3app17h311745b62641a1c5E+0x176>
   12e64:	6509                	lui	a0,0x2
   12e66:	96b50493          	addi	s1,a0,-1685 # 196b <.Lline_table_start1+0x1740>
   12e6a:	470d                	li	a4,3
   12e6c:	8526                	mv	a0,s1
   12e6e:	4581                	li	a1,0
   12e70:	4601                	li	a2,0
   12e72:	4681                	li	a3,0
   12e74:	00000073          	ecall
   12e78:	00190513          	addi	a0,s2,1
   12e7c:	02710593          	addi	a1,sp,39
   12e80:	05100613          	li	a2,81
   12e84:	0000a097          	auipc	ra,0xa
   12e88:	eac080e7          	jalr	-340(ra) # 1cd30 <memcpy>
   12e8c:	8526                	mv	a0,s1
   12e8e:	4581                	li	a1,0
   12e90:	4601                	li	a2,0
   12e92:	4681                	li	a3,0
   12e94:	00090023          	sb	zero,0(s2)
   12e98:	470d                	li	a4,3
   12e9a:	00000073          	ecall
   12e9e:	4589                	li	a1,2
   12ea0:	4711                	li	a4,4
   12ea2:	8526                	mv	a0,s1
   12ea4:	4601                	li	a2,0
   12ea6:	4681                	li	a3,0
   12ea8:	00000073          	ecall
   12eac:	40ba                	lw	ra,140(sp)
   12eae:	442a                	lw	s0,136(sp)
   12eb0:	449a                	lw	s1,132(sp)
   12eb2:	490a                	lw	s2,128(sp)
   12eb4:	59f6                	lw	s3,124(sp)
   12eb6:	5a66                	lw	s4,120(sp)
   12eb8:	6149                	addi	sp,sp,144
   12eba:	8082                	ret

00012ebc <_ZN18complex_no_dynamic3app17h31df5c44e33a8894E>:
   12ebc:	7159                	addi	sp,sp,-112
   12ebe:	d686                	sw	ra,108(sp)
   12ec0:	d4a2                	sw	s0,104(sp)
   12ec2:	d2a6                	sw	s1,100(sp)
   12ec4:	842a                	mv	s0,a0
   12ec6:	00910513          	addi	a0,sp,9
   12eca:	03f00613          	li	a2,63
   12ece:	0000a097          	auipc	ra,0xa
   12ed2:	e62080e7          	jalr	-414(ra) # 1cd30 <memcpy>
   12ed6:	cc82                	sw	zero,88(sp)
   12ed8:	ce82                	sw	zero,92(sp)
   12eda:	d082                	sw	zero,96(sp)
   12edc:	c482                	sw	zero,72(sp)
   12ede:	c682                	sw	zero,76(sp)
   12ee0:	c882                	sw	zero,80(sp)
   12ee2:	ca82                	sw	zero,84(sp)
   12ee4:	6505                	lui	a0,0x1
   12ee6:	4595                	li	a1,5
   12ee8:	00910613          	addi	a2,sp,9
   12eec:	03f00693          	li	a3,63
   12ef0:	69450793          	addi	a5,a0,1684 # 1694 <.Lline_table_start1+0x1469>
   12ef4:	4711                	li	a4,4
   12ef6:	4489                	li	s1,2
   12ef8:	853e                	mv	a0,a5
   12efa:	00000073          	ecall
   12efe:	02950963          	beq	a0,s1,12f30 <_ZN18complex_no_dynamic3app17h31df5c44e33a8894E+0x74>
   12f02:	45a5                	li	a1,9
   12f04:	00b0                	addi	a2,sp,72
   12f06:	46f1                	li	a3,28
   12f08:	470d                	li	a4,3
   12f0a:	853e                	mv	a0,a5
   12f0c:	00000073          	ecall
   12f10:	02950063          	beq	a0,s1,12f30 <_ZN18complex_no_dynamic3app17h31df5c44e33a8894E+0x74>
   12f14:	6505                	lui	a0,0x1
   12f16:	4595                	li	a1,5
   12f18:	4625                	li	a2,9
   12f1a:	69450793          	addi	a5,a0,1684 # 1694 <.Lline_table_start1+0x1469>
   12f1e:	4709                	li	a4,2
   12f20:	07f00493          	li	s1,127
   12f24:	853e                	mv	a0,a5
   12f26:	4681                	li	a3,0
   12f28:	00000073          	ecall
   12f2c:	02a4eb63          	bltu	s1,a0,12f62 <_ZN18complex_no_dynamic3app17h31df5c44e33a8894E+0xa6>
   12f30:	4785                	li	a5,1
   12f32:	c3a9                	beqz	a5,12f74 <_ZN18complex_no_dynamic3app17h31df5c44e33a8894E+0xb8>
   12f34:	4601                	li	a2,0
   12f36:	4681                	li	a3,0
   12f38:	4505                	li	a0,1
   12f3a:	6705                	lui	a4,0x1
   12f3c:	87ae                	mv	a5,a1
   12f3e:	45a5                	li	a1,9
   12f40:	00a40023          	sb	a0,0(s0)
   12f44:	c05c                	sw	a5,4(s0)
   12f46:	69470793          	addi	a5,a4,1684 # 1694 <.Lline_table_start1+0x1469>
   12f4a:	470d                	li	a4,3
   12f4c:	853e                	mv	a0,a5
   12f4e:	00000073          	ecall
   12f52:	4595                	li	a1,5
   12f54:	4711                	li	a4,4
   12f56:	853e                	mv	a0,a5
   12f58:	4601                	li	a2,0
   12f5a:	4681                	li	a3,0
   12f5c:	00000073          	ecall
   12f60:	a8a1                	j	12fb8 <_ZN18complex_no_dynamic3app17h31df5c44e33a8894E+0xfc>
   12f62:	853e                	mv	a0,a5
   12f64:	4601                	li	a2,0
   12f66:	4681                	li	a3,0
   12f68:	4781                	li	a5,0
   12f6a:	45a5                	li	a1,9
   12f6c:	470d                	li	a4,3
   12f6e:	00000073          	ecall
   12f72:	f3e9                	bnez	a5,12f34 <_ZN18complex_no_dynamic3app17h31df5c44e33a8894E+0x78>
   12f74:	6505                	lui	a0,0x1
   12f76:	69450493          	addi	s1,a0,1684 # 1694 <.Lline_table_start1+0x1469>
   12f7a:	45a5                	li	a1,9
   12f7c:	470d                	li	a4,3
   12f7e:	8526                	mv	a0,s1
   12f80:	4601                	li	a2,0
   12f82:	4681                	li	a3,0
   12f84:	00000073          	ecall
   12f88:	00140513          	addi	a0,s0,1
   12f8c:	00ac                	addi	a1,sp,72
   12f8e:	4671                	li	a2,28
   12f90:	0000a097          	auipc	ra,0xa
   12f94:	da0080e7          	jalr	-608(ra) # 1cd30 <memcpy>
   12f98:	8526                	mv	a0,s1
   12f9a:	4601                	li	a2,0
   12f9c:	4681                	li	a3,0
   12f9e:	00040023          	sb	zero,0(s0)
   12fa2:	45a5                	li	a1,9
   12fa4:	470d                	li	a4,3
   12fa6:	00000073          	ecall
   12faa:	4595                	li	a1,5
   12fac:	4711                	li	a4,4
   12fae:	8526                	mv	a0,s1
   12fb0:	4601                	li	a2,0
   12fb2:	4681                	li	a3,0
   12fb4:	00000073          	ecall
   12fb8:	50b6                	lw	ra,108(sp)
   12fba:	5426                	lw	s0,104(sp)
   12fbc:	5496                	lw	s1,100(sp)
   12fbe:	6165                	addi	sp,sp,112
   12fc0:	8082                	ret

00012fc2 <_ZN18complex_no_dynamic3app17h32214e0500456ea8E>:
   12fc2:	715d                	addi	sp,sp,-80
   12fc4:	c686                	sw	ra,76(sp)
   12fc6:	c4a2                	sw	s0,72(sp)
   12fc8:	c2a6                	sw	s1,68(sp)
   12fca:	c0ca                	sw	s2,64(sp)
   12fcc:	892a                	mv	s2,a0
   12fce:	0145c803          	lbu	a6,20(a1)
   12fd2:	0155c383          	lbu	t2,21(a1)
   12fd6:	0165c483          	lbu	s1,22(a1)
   12fda:	0175c703          	lbu	a4,23(a1)
   12fde:	0105c783          	lbu	a5,16(a1)
   12fe2:	0115c683          	lbu	a3,17(a1)
   12fe6:	0125c283          	lbu	t0,18(a1)
   12fea:	0135c303          	lbu	t1,19(a1)
   12fee:	00c5c883          	lbu	a7,12(a1)
   12ff2:	00d5c403          	lbu	s0,13(a1)
   12ff6:	00e5c503          	lbu	a0,14(a1)
   12ffa:	00f5c603          	lbu	a2,15(a1)
   12ffe:	03a2                	slli	t2,t2,0x8
   13000:	04c2                	slli	s1,s1,0x10
   13002:	0762                	slli	a4,a4,0x18
   13004:	06a2                	slli	a3,a3,0x8
   13006:	0103e833          	or	a6,t2,a6
   1300a:	00976e33          	or	t3,a4,s1
   1300e:	00f6e3b3          	or	t2,a3,a5
   13012:	0085c703          	lbu	a4,8(a1)
   13016:	0095c783          	lbu	a5,9(a1)
   1301a:	00a5c683          	lbu	a3,10(a1)
   1301e:	00b5c483          	lbu	s1,11(a1)
   13022:	02c2                	slli	t0,t0,0x10
   13024:	0362                	slli	t1,t1,0x18
   13026:	0422                	slli	s0,s0,0x8
   13028:	0542                	slli	a0,a0,0x10
   1302a:	0662                	slli	a2,a2,0x18
   1302c:	07a2                	slli	a5,a5,0x8
   1302e:	005362b3          	or	t0,t1,t0
   13032:	01146333          	or	t1,s0,a7
   13036:	00a66eb3          	or	t4,a2,a0
   1303a:	00e7e8b3          	or	a7,a5,a4
   1303e:	0045c603          	lbu	a2,4(a1)
   13042:	0055c783          	lbu	a5,5(a1)
   13046:	0065c703          	lbu	a4,6(a1)
   1304a:	0075c403          	lbu	s0,7(a1)
   1304e:	06c2                	slli	a3,a3,0x10
   13050:	04e2                	slli	s1,s1,0x18
   13052:	07a2                	slli	a5,a5,0x8
   13054:	0742                	slli	a4,a4,0x10
   13056:	0462                	slli	s0,s0,0x18
   13058:	00d4e533          	or	a0,s1,a3
   1305c:	00c7ef33          	or	t5,a5,a2
   13060:	0005c783          	lbu	a5,0(a1)
   13064:	0015c483          	lbu	s1,1(a1)
   13068:	00e46633          	or	a2,s0,a4
   1306c:	0025c403          	lbu	s0,2(a1)
   13070:	0035c583          	lbu	a1,3(a1)
   13074:	04a2                	slli	s1,s1,0x8
   13076:	00f4efb3          	or	t6,s1,a5
   1307a:	0442                	slli	s0,s0,0x10
   1307c:	05e2                	slli	a1,a1,0x18
   1307e:	0085e6b3          	or	a3,a1,s0
   13082:	010e6733          	or	a4,t3,a6
   13086:	0072e7b3          	or	a5,t0,t2
   1308a:	d802                	sw	zero,48(sp)
   1308c:	da02                	sw	zero,52(sp)
   1308e:	dc02                	sw	zero,56(sp)
   13090:	02011e23          	sh	zero,60(sp)
   13094:	d002                	sw	zero,32(sp)
   13096:	d202                	sw	zero,36(sp)
   13098:	d402                	sw	zero,40(sp)
   1309a:	d602                	sw	zero,44(sp)
   1309c:	006ee2b3          	or	t0,t4,t1
   130a0:	6805                	lui	a6,0x1
   130a2:	01156533          	or	a0,a0,a7
   130a6:	45a5                	li	a1,9
   130a8:	01e66433          	or	s0,a2,t5
   130ac:	0030                	addi	a2,sp,8
   130ae:	01f6e4b3          	or	s1,a3,t6
   130b2:	46e1                	li	a3,24
   130b4:	cc3e                	sw	a5,24(sp)
   130b6:	ce3a                	sw	a4,28(sp)
   130b8:	4711                	li	a4,4
   130ba:	cbb80793          	addi	a5,a6,-837 # cbb <.Lline_table_start1+0xa90>
   130be:	c426                	sw	s1,8(sp)
   130c0:	c622                	sw	s0,12(sp)
   130c2:	c82a                	sw	a0,16(sp)
   130c4:	ca16                	sw	t0,20(sp)
   130c6:	4489                	li	s1,2
   130c8:	853e                	mv	a0,a5
   130ca:	00000073          	ecall
   130ce:	02950963          	beq	a0,s1,13100 <_ZN18complex_no_dynamic3app17h32214e0500456ea8E+0x13e>
   130d2:	4595                	li	a1,5
   130d4:	1010                	addi	a2,sp,32
   130d6:	46f9                	li	a3,30
   130d8:	470d                	li	a4,3
   130da:	853e                	mv	a0,a5
   130dc:	00000073          	ecall
   130e0:	02950063          	beq	a0,s1,13100 <_ZN18complex_no_dynamic3app17h32214e0500456ea8E+0x13e>
   130e4:	6505                	lui	a0,0x1
   130e6:	45a5                	li	a1,9
   130e8:	4615                	li	a2,5
   130ea:	cbb50793          	addi	a5,a0,-837 # cbb <.Lline_table_start1+0xa90>
   130ee:	4709                	li	a4,2
   130f0:	07f00493          	li	s1,127
   130f4:	853e                	mv	a0,a5
   130f6:	4681                	li	a3,0
   130f8:	00000073          	ecall
   130fc:	02a4ec63          	bltu	s1,a0,13134 <_ZN18complex_no_dynamic3app17h32214e0500456ea8E+0x172>
   13100:	4785                	li	a5,1
   13102:	c3b1                	beqz	a5,13146 <_ZN18complex_no_dynamic3app17h32214e0500456ea8E+0x184>
   13104:	4601                	li	a2,0
   13106:	4681                	li	a3,0
   13108:	4505                	li	a0,1
   1310a:	6705                	lui	a4,0x1
   1310c:	87ae                	mv	a5,a1
   1310e:	4595                	li	a1,5
   13110:	00a90023          	sb	a0,0(s2)
   13114:	00f92223          	sw	a5,4(s2)
   13118:	cbb70793          	addi	a5,a4,-837 # cbb <.Lline_table_start1+0xa90>
   1311c:	470d                	li	a4,3
   1311e:	853e                	mv	a0,a5
   13120:	00000073          	ecall
   13124:	45a5                	li	a1,9
   13126:	4711                	li	a4,4
   13128:	853e                	mv	a0,a5
   1312a:	4601                	li	a2,0
   1312c:	4681                	li	a3,0
   1312e:	00000073          	ecall
   13132:	a8a1                	j	1318a <_ZN18complex_no_dynamic3app17h32214e0500456ea8E+0x1c8>
   13134:	853e                	mv	a0,a5
   13136:	4601                	li	a2,0
   13138:	4681                	li	a3,0
   1313a:	4781                	li	a5,0
   1313c:	4595                	li	a1,5
   1313e:	470d                	li	a4,3
   13140:	00000073          	ecall
   13144:	f3e1                	bnez	a5,13104 <_ZN18complex_no_dynamic3app17h32214e0500456ea8E+0x142>
   13146:	6505                	lui	a0,0x1
   13148:	cbb50493          	addi	s1,a0,-837 # cbb <.Lline_table_start1+0xa90>
   1314c:	4595                	li	a1,5
   1314e:	470d                	li	a4,3
   13150:	8526                	mv	a0,s1
   13152:	4601                	li	a2,0
   13154:	4681                	li	a3,0
   13156:	00000073          	ecall
   1315a:	00190513          	addi	a0,s2,1
   1315e:	100c                	addi	a1,sp,32
   13160:	4679                	li	a2,30
   13162:	0000a097          	auipc	ra,0xa
   13166:	bce080e7          	jalr	-1074(ra) # 1cd30 <memcpy>
   1316a:	8526                	mv	a0,s1
   1316c:	4601                	li	a2,0
   1316e:	4681                	li	a3,0
   13170:	00090023          	sb	zero,0(s2)
   13174:	4595                	li	a1,5
   13176:	470d                	li	a4,3
   13178:	00000073          	ecall
   1317c:	45a5                	li	a1,9
   1317e:	4711                	li	a4,4
   13180:	8526                	mv	a0,s1
   13182:	4601                	li	a2,0
   13184:	4681                	li	a3,0
   13186:	00000073          	ecall
   1318a:	40b6                	lw	ra,76(sp)
   1318c:	4426                	lw	s0,72(sp)
   1318e:	4496                	lw	s1,68(sp)
   13190:	4906                	lw	s2,64(sp)
   13192:	6161                	addi	sp,sp,80
   13194:	8082                	ret

00013196 <_ZN18complex_no_dynamic3app17h331d39e781a0f2a4E>:
   13196:	7159                	addi	sp,sp,-112
   13198:	d686                	sw	ra,108(sp)
   1319a:	d4a2                	sw	s0,104(sp)
   1319c:	d2a6                	sw	s1,100(sp)
   1319e:	d0ca                	sw	s2,96(sp)
   131a0:	892a                	mv	s2,a0
   131a2:	00c5c503          	lbu	a0,12(a1)
   131a6:	00d5c603          	lbu	a2,13(a1)
   131aa:	00e5c683          	lbu	a3,14(a1)
   131ae:	0085c703          	lbu	a4,8(a1)
   131b2:	0095c783          	lbu	a5,9(a1)
   131b6:	00a5c483          	lbu	s1,10(a1)
   131ba:	00b5c403          	lbu	s0,11(a1)
   131be:	00d10b23          	sb	a3,22(sp)
   131c2:	0622                	slli	a2,a2,0x8
   131c4:	07a2                	slli	a5,a5,0x8
   131c6:	00a66833          	or	a6,a2,a0
   131ca:	8f5d                	or	a4,a4,a5
   131cc:	0045c603          	lbu	a2,4(a1)
   131d0:	0055c683          	lbu	a3,5(a1)
   131d4:	0065c783          	lbu	a5,6(a1)
   131d8:	0075c503          	lbu	a0,7(a1)
   131dc:	04c2                	slli	s1,s1,0x10
   131de:	0462                	slli	s0,s0,0x18
   131e0:	06a2                	slli	a3,a3,0x8
   131e2:	07c2                	slli	a5,a5,0x10
   131e4:	0562                	slli	a0,a0,0x18
   131e6:	8c45                	or	s0,s0,s1
   131e8:	8e55                	or	a2,a2,a3
   131ea:	0005c683          	lbu	a3,0(a1)
   131ee:	0015c483          	lbu	s1,1(a1)
   131f2:	8d5d                	or	a0,a0,a5
   131f4:	0025c783          	lbu	a5,2(a1)
   131f8:	0035c583          	lbu	a1,3(a1)
   131fc:	04a2                	slli	s1,s1,0x8
   131fe:	8ec5                	or	a3,a3,s1
   13200:	07c2                	slli	a5,a5,0x10
   13202:	05e2                	slli	a1,a1,0x18
   13204:	8ddd                	or	a1,a1,a5
   13206:	8f41                	or	a4,a4,s0
   13208:	8d51                	or	a0,a0,a2
   1320a:	8dd5                	or	a1,a1,a3
   1320c:	c42e                	sw	a1,8(sp)
   1320e:	c62a                	sw	a0,12(sp)
   13210:	c83a                	sw	a4,16(sp)
   13212:	01011a23          	sh	a6,20(sp)
   13216:	01a10513          	addi	a0,sp,26
   1321a:	04600613          	li	a2,70
   1321e:	4581                	li	a1,0
   13220:	0000a097          	auipc	ra,0xa
   13224:	aa4080e7          	jalr	-1372(ra) # 1ccc4 <memset>
   13228:	6509                	lui	a0,0x2
   1322a:	45a5                	li	a1,9
   1322c:	0030                	addi	a2,sp,8
   1322e:	46bd                	li	a3,15
   13230:	d7e50793          	addi	a5,a0,-642 # 1d7e <.Lline_table_start1+0x1b53>
   13234:	4711                	li	a4,4
   13236:	4489                	li	s1,2
   13238:	853e                	mv	a0,a5
   1323a:	00000073          	ecall
   1323e:	02950b63          	beq	a0,s1,13274 <_ZN18complex_no_dynamic3app17h331d39e781a0f2a4E+0xde>
   13242:	4589                	li	a1,2
   13244:	01a10613          	addi	a2,sp,26
   13248:	04600693          	li	a3,70
   1324c:	470d                	li	a4,3
   1324e:	853e                	mv	a0,a5
   13250:	00000073          	ecall
   13254:	02950063          	beq	a0,s1,13274 <_ZN18complex_no_dynamic3app17h331d39e781a0f2a4E+0xde>
   13258:	6509                	lui	a0,0x2
   1325a:	45a5                	li	a1,9
   1325c:	4609                	li	a2,2
   1325e:	d7e50793          	addi	a5,a0,-642 # 1d7e <.Lline_table_start1+0x1b53>
   13262:	4709                	li	a4,2
   13264:	07f00493          	li	s1,127
   13268:	853e                	mv	a0,a5
   1326a:	4681                	li	a3,0
   1326c:	00000073          	ecall
   13270:	02a4ec63          	bltu	s1,a0,132a8 <_ZN18complex_no_dynamic3app17h331d39e781a0f2a4E+0x112>
   13274:	4785                	li	a5,1
   13276:	c3b1                	beqz	a5,132ba <_ZN18complex_no_dynamic3app17h331d39e781a0f2a4E+0x124>
   13278:	4601                	li	a2,0
   1327a:	4681                	li	a3,0
   1327c:	4505                	li	a0,1
   1327e:	6709                	lui	a4,0x2
   13280:	87ae                	mv	a5,a1
   13282:	4589                	li	a1,2
   13284:	00a90023          	sb	a0,0(s2)
   13288:	00f92223          	sw	a5,4(s2)
   1328c:	d7e70793          	addi	a5,a4,-642 # 1d7e <.Lline_table_start1+0x1b53>
   13290:	470d                	li	a4,3
   13292:	853e                	mv	a0,a5
   13294:	00000073          	ecall
   13298:	45a5                	li	a1,9
   1329a:	4711                	li	a4,4
   1329c:	853e                	mv	a0,a5
   1329e:	4601                	li	a2,0
   132a0:	4681                	li	a3,0
   132a2:	00000073          	ecall
   132a6:	a8b1                	j	13302 <_ZN18complex_no_dynamic3app17h331d39e781a0f2a4E+0x16c>
   132a8:	853e                	mv	a0,a5
   132aa:	4601                	li	a2,0
   132ac:	4681                	li	a3,0
   132ae:	4781                	li	a5,0
   132b0:	4589                	li	a1,2
   132b2:	470d                	li	a4,3
   132b4:	00000073          	ecall
   132b8:	f3e1                	bnez	a5,13278 <_ZN18complex_no_dynamic3app17h331d39e781a0f2a4E+0xe2>
   132ba:	6509                	lui	a0,0x2
   132bc:	d7e50493          	addi	s1,a0,-642 # 1d7e <.Lline_table_start1+0x1b53>
   132c0:	4589                	li	a1,2
   132c2:	470d                	li	a4,3
   132c4:	8526                	mv	a0,s1
   132c6:	4601                	li	a2,0
   132c8:	4681                	li	a3,0
   132ca:	00000073          	ecall
   132ce:	00190513          	addi	a0,s2,1
   132d2:	01a10593          	addi	a1,sp,26
   132d6:	04600613          	li	a2,70
   132da:	0000a097          	auipc	ra,0xa
   132de:	a56080e7          	jalr	-1450(ra) # 1cd30 <memcpy>
   132e2:	8526                	mv	a0,s1
   132e4:	4601                	li	a2,0
   132e6:	4681                	li	a3,0
   132e8:	00090023          	sb	zero,0(s2)
   132ec:	4589                	li	a1,2
   132ee:	470d                	li	a4,3
   132f0:	00000073          	ecall
   132f4:	45a5                	li	a1,9
   132f6:	4711                	li	a4,4
   132f8:	8526                	mv	a0,s1
   132fa:	4601                	li	a2,0
   132fc:	4681                	li	a3,0
   132fe:	00000073          	ecall
   13302:	50b6                	lw	ra,108(sp)
   13304:	5426                	lw	s0,104(sp)
   13306:	5496                	lw	s1,100(sp)
   13308:	5906                	lw	s2,96(sp)
   1330a:	6165                	addi	sp,sp,112
   1330c:	8082                	ret

0001330e <_ZN18complex_no_dynamic3app17h33a0ef7a45c3508aE>:
   1330e:	711d                	addi	sp,sp,-96
   13310:	ce86                	sw	ra,92(sp)
   13312:	cca2                	sw	s0,88(sp)
   13314:	caa6                	sw	s1,84(sp)
   13316:	842a                	mv	s0,a0
   13318:	00110513          	addi	a0,sp,1
   1331c:	02c00613          	li	a2,44
   13320:	0000a097          	auipc	ra,0xa
   13324:	a10080e7          	jalr	-1520(ra) # 1cd30 <memcpy>
   13328:	02d10513          	addi	a0,sp,45
   1332c:	02700613          	li	a2,39
   13330:	4581                	li	a1,0
   13332:	0000a097          	auipc	ra,0xa
   13336:	992080e7          	jalr	-1646(ra) # 1ccc4 <memset>
   1333a:	6505                	lui	a0,0x1
   1333c:	4591                	li	a1,4
   1333e:	00110613          	addi	a2,sp,1
   13342:	02c00693          	li	a3,44
   13346:	1b550793          	addi	a5,a0,437 # 11b5 <.Lline_table_start1+0xf8a>
   1334a:	4711                	li	a4,4
   1334c:	4489                	li	s1,2
   1334e:	853e                	mv	a0,a5
   13350:	00000073          	ecall
   13354:	02950b63          	beq	a0,s1,1338a <_ZN18complex_no_dynamic3app17h33a0ef7a45c3508aE+0x7c>
   13358:	458d                	li	a1,3
   1335a:	02d10613          	addi	a2,sp,45
   1335e:	02700693          	li	a3,39
   13362:	470d                	li	a4,3
   13364:	853e                	mv	a0,a5
   13366:	00000073          	ecall
   1336a:	02950063          	beq	a0,s1,1338a <_ZN18complex_no_dynamic3app17h33a0ef7a45c3508aE+0x7c>
   1336e:	6505                	lui	a0,0x1
   13370:	4591                	li	a1,4
   13372:	460d                	li	a2,3
   13374:	1b550793          	addi	a5,a0,437 # 11b5 <.Lline_table_start1+0xf8a>
   13378:	4709                	li	a4,2
   1337a:	07f00493          	li	s1,127
   1337e:	853e                	mv	a0,a5
   13380:	4681                	li	a3,0
   13382:	00000073          	ecall
   13386:	02a4eb63          	bltu	s1,a0,133bc <_ZN18complex_no_dynamic3app17h33a0ef7a45c3508aE+0xae>
   1338a:	4785                	li	a5,1
   1338c:	c3a9                	beqz	a5,133ce <_ZN18complex_no_dynamic3app17h33a0ef7a45c3508aE+0xc0>
   1338e:	4601                	li	a2,0
   13390:	4681                	li	a3,0
   13392:	4505                	li	a0,1
   13394:	6705                	lui	a4,0x1
   13396:	87ae                	mv	a5,a1
   13398:	458d                	li	a1,3
   1339a:	00a40023          	sb	a0,0(s0)
   1339e:	c05c                	sw	a5,4(s0)
   133a0:	1b570793          	addi	a5,a4,437 # 11b5 <.Lline_table_start1+0xf8a>
   133a4:	470d                	li	a4,3
   133a6:	853e                	mv	a0,a5
   133a8:	00000073          	ecall
   133ac:	4591                	li	a1,4
   133ae:	4711                	li	a4,4
   133b0:	853e                	mv	a0,a5
   133b2:	4601                	li	a2,0
   133b4:	4681                	li	a3,0
   133b6:	00000073          	ecall
   133ba:	a8b1                	j	13416 <_ZN18complex_no_dynamic3app17h33a0ef7a45c3508aE+0x108>
   133bc:	853e                	mv	a0,a5
   133be:	4601                	li	a2,0
   133c0:	4681                	li	a3,0
   133c2:	4781                	li	a5,0
   133c4:	458d                	li	a1,3
   133c6:	470d                	li	a4,3
   133c8:	00000073          	ecall
   133cc:	f3e9                	bnez	a5,1338e <_ZN18complex_no_dynamic3app17h33a0ef7a45c3508aE+0x80>
   133ce:	6505                	lui	a0,0x1
   133d0:	1b550493          	addi	s1,a0,437 # 11b5 <.Lline_table_start1+0xf8a>
   133d4:	458d                	li	a1,3
   133d6:	470d                	li	a4,3
   133d8:	8526                	mv	a0,s1
   133da:	4601                	li	a2,0
   133dc:	4681                	li	a3,0
   133de:	00000073          	ecall
   133e2:	00140513          	addi	a0,s0,1
   133e6:	02d10593          	addi	a1,sp,45
   133ea:	02700613          	li	a2,39
   133ee:	0000a097          	auipc	ra,0xa
   133f2:	942080e7          	jalr	-1726(ra) # 1cd30 <memcpy>
   133f6:	8526                	mv	a0,s1
   133f8:	4601                	li	a2,0
   133fa:	4681                	li	a3,0
   133fc:	00040023          	sb	zero,0(s0)
   13400:	458d                	li	a1,3
   13402:	470d                	li	a4,3
   13404:	00000073          	ecall
   13408:	4591                	li	a1,4
   1340a:	4711                	li	a4,4
   1340c:	8526                	mv	a0,s1
   1340e:	4601                	li	a2,0
   13410:	4681                	li	a3,0
   13412:	00000073          	ecall
   13416:	40f6                	lw	ra,92(sp)
   13418:	4466                	lw	s0,88(sp)
   1341a:	44d6                	lw	s1,84(sp)
   1341c:	6125                	addi	sp,sp,96
   1341e:	8082                	ret

00013420 <_ZN18complex_no_dynamic3app17h3524f10f1d71e50eE>:
   13420:	7119                	addi	sp,sp,-128
   13422:	de86                	sw	ra,124(sp)
   13424:	dca2                	sw	s0,120(sp)
   13426:	daa6                	sw	s1,116(sp)
   13428:	842a                	mv	s0,a0
   1342a:	850a                	mv	a0,sp
   1342c:	03500613          	li	a2,53
   13430:	0000a097          	auipc	ra,0xa
   13434:	900080e7          	jalr	-1792(ra) # 1cd30 <memcpy>
   13438:	03510513          	addi	a0,sp,53
   1343c:	03f00613          	li	a2,63
   13440:	4581                	li	a1,0
   13442:	0000a097          	auipc	ra,0xa
   13446:	882080e7          	jalr	-1918(ra) # 1ccc4 <memset>
   1344a:	6505                	lui	a0,0x1
   1344c:	860a                	mv	a2,sp
   1344e:	03500693          	li	a3,53
   13452:	e5750793          	addi	a5,a0,-425 # e57 <.Lline_table_start1+0xc2c>
   13456:	4711                	li	a4,4
   13458:	4489                	li	s1,2
   1345a:	853e                	mv	a0,a5
   1345c:	4581                	li	a1,0
   1345e:	00000073          	ecall
   13462:	02950b63          	beq	a0,s1,13498 <_ZN18complex_no_dynamic3app17h3524f10f1d71e50eE+0x78>
   13466:	458d                	li	a1,3
   13468:	03510613          	addi	a2,sp,53
   1346c:	03f00693          	li	a3,63
   13470:	470d                	li	a4,3
   13472:	853e                	mv	a0,a5
   13474:	00000073          	ecall
   13478:	02950063          	beq	a0,s1,13498 <_ZN18complex_no_dynamic3app17h3524f10f1d71e50eE+0x78>
   1347c:	6505                	lui	a0,0x1
   1347e:	460d                	li	a2,3
   13480:	e5750793          	addi	a5,a0,-425 # e57 <.Lline_table_start1+0xc2c>
   13484:	4709                	li	a4,2
   13486:	07f00493          	li	s1,127
   1348a:	853e                	mv	a0,a5
   1348c:	4581                	li	a1,0
   1348e:	4681                	li	a3,0
   13490:	00000073          	ecall
   13494:	02a4ea63          	bltu	s1,a0,134c8 <_ZN18complex_no_dynamic3app17h3524f10f1d71e50eE+0xa8>
   13498:	4785                	li	a5,1
   1349a:	c3a1                	beqz	a5,134da <_ZN18complex_no_dynamic3app17h3524f10f1d71e50eE+0xba>
   1349c:	4505                	li	a0,1
   1349e:	6605                	lui	a2,0x1
   134a0:	00a40023          	sb	a0,0(s0)
   134a4:	c04c                	sw	a1,4(s0)
   134a6:	e5760793          	addi	a5,a2,-425 # e57 <.Lline_table_start1+0xc2c>
   134aa:	458d                	li	a1,3
   134ac:	470d                	li	a4,3
   134ae:	853e                	mv	a0,a5
   134b0:	4601                	li	a2,0
   134b2:	4681                	li	a3,0
   134b4:	00000073          	ecall
   134b8:	4711                	li	a4,4
   134ba:	853e                	mv	a0,a5
   134bc:	4581                	li	a1,0
   134be:	4601                	li	a2,0
   134c0:	4681                	li	a3,0
   134c2:	00000073          	ecall
   134c6:	a8b1                	j	13522 <_ZN18complex_no_dynamic3app17h3524f10f1d71e50eE+0x102>
   134c8:	853e                	mv	a0,a5
   134ca:	4601                	li	a2,0
   134cc:	4681                	li	a3,0
   134ce:	4781                	li	a5,0
   134d0:	458d                	li	a1,3
   134d2:	470d                	li	a4,3
   134d4:	00000073          	ecall
   134d8:	f3f1                	bnez	a5,1349c <_ZN18complex_no_dynamic3app17h3524f10f1d71e50eE+0x7c>
   134da:	6505                	lui	a0,0x1
   134dc:	e5750493          	addi	s1,a0,-425 # e57 <.Lline_table_start1+0xc2c>
   134e0:	458d                	li	a1,3
   134e2:	470d                	li	a4,3
   134e4:	8526                	mv	a0,s1
   134e6:	4601                	li	a2,0
   134e8:	4681                	li	a3,0
   134ea:	00000073          	ecall
   134ee:	00140513          	addi	a0,s0,1
   134f2:	03510593          	addi	a1,sp,53
   134f6:	03f00613          	li	a2,63
   134fa:	0000a097          	auipc	ra,0xa
   134fe:	836080e7          	jalr	-1994(ra) # 1cd30 <memcpy>
   13502:	00040023          	sb	zero,0(s0)
   13506:	458d                	li	a1,3
   13508:	470d                	li	a4,3
   1350a:	8526                	mv	a0,s1
   1350c:	4601                	li	a2,0
   1350e:	4681                	li	a3,0
   13510:	00000073          	ecall
   13514:	4711                	li	a4,4
   13516:	8526                	mv	a0,s1
   13518:	4581                	li	a1,0
   1351a:	4601                	li	a2,0
   1351c:	4681                	li	a3,0
   1351e:	00000073          	ecall
   13522:	50f6                	lw	ra,124(sp)
   13524:	5466                	lw	s0,120(sp)
   13526:	54d6                	lw	s1,116(sp)
   13528:	6109                	addi	sp,sp,128
   1352a:	8082                	ret

0001352c <_ZN18complex_no_dynamic3app17h3600ccdeb7bbc2e7E>:
   1352c:	711d                	addi	sp,sp,-96
   1352e:	ce86                	sw	ra,92(sp)
   13530:	cca2                	sw	s0,88(sp)
   13532:	caa6                	sw	s1,84(sp)
   13534:	842a                	mv	s0,a0
   13536:	00210513          	addi	a0,sp,2
   1353a:	02a00613          	li	a2,42
   1353e:	00009097          	auipc	ra,0x9
   13542:	7f2080e7          	jalr	2034(ra) # 1cd30 <memcpy>
   13546:	1068                	addi	a0,sp,44
   13548:	02800613          	li	a2,40
   1354c:	4581                	li	a1,0
   1354e:	00009097          	auipc	ra,0x9
   13552:	776080e7          	jalr	1910(ra) # 1ccc4 <memset>
   13556:	6509                	lui	a0,0x2
   13558:	4591                	li	a1,4
   1355a:	00210613          	addi	a2,sp,2
   1355e:	02a00693          	li	a3,42
   13562:	efa50793          	addi	a5,a0,-262 # 1efa <.Lline_table_start1+0x1ccf>
   13566:	4711                	li	a4,4
   13568:	4489                	li	s1,2
   1356a:	853e                	mv	a0,a5
   1356c:	00000073          	ecall
   13570:	02950a63          	beq	a0,s1,135a4 <_ZN18complex_no_dynamic3app17h3600ccdeb7bbc2e7E+0x78>
   13574:	45a1                	li	a1,8
   13576:	1070                	addi	a2,sp,44
   13578:	02800693          	li	a3,40
   1357c:	470d                	li	a4,3
   1357e:	853e                	mv	a0,a5
   13580:	00000073          	ecall
   13584:	02950063          	beq	a0,s1,135a4 <_ZN18complex_no_dynamic3app17h3600ccdeb7bbc2e7E+0x78>
   13588:	6509                	lui	a0,0x2
   1358a:	4591                	li	a1,4
   1358c:	4621                	li	a2,8
   1358e:	efa50793          	addi	a5,a0,-262 # 1efa <.Lline_table_start1+0x1ccf>
   13592:	4709                	li	a4,2
   13594:	07f00493          	li	s1,127
   13598:	853e                	mv	a0,a5
   1359a:	4681                	li	a3,0
   1359c:	00000073          	ecall
   135a0:	02a4eb63          	bltu	s1,a0,135d6 <_ZN18complex_no_dynamic3app17h3600ccdeb7bbc2e7E+0xaa>
   135a4:	4785                	li	a5,1
   135a6:	c3a9                	beqz	a5,135e8 <_ZN18complex_no_dynamic3app17h3600ccdeb7bbc2e7E+0xbc>
   135a8:	4601                	li	a2,0
   135aa:	4681                	li	a3,0
   135ac:	4505                	li	a0,1
   135ae:	6709                	lui	a4,0x2
   135b0:	87ae                	mv	a5,a1
   135b2:	45a1                	li	a1,8
   135b4:	00a40023          	sb	a0,0(s0)
   135b8:	c05c                	sw	a5,4(s0)
   135ba:	efa70793          	addi	a5,a4,-262 # 1efa <.Lline_table_start1+0x1ccf>
   135be:	470d                	li	a4,3
   135c0:	853e                	mv	a0,a5
   135c2:	00000073          	ecall
   135c6:	4591                	li	a1,4
   135c8:	4711                	li	a4,4
   135ca:	853e                	mv	a0,a5
   135cc:	4601                	li	a2,0
   135ce:	4681                	li	a3,0
   135d0:	00000073          	ecall
   135d4:	a8a9                	j	1362e <_ZN18complex_no_dynamic3app17h3600ccdeb7bbc2e7E+0x102>
   135d6:	853e                	mv	a0,a5
   135d8:	4601                	li	a2,0
   135da:	4681                	li	a3,0
   135dc:	4781                	li	a5,0
   135de:	45a1                	li	a1,8
   135e0:	470d                	li	a4,3
   135e2:	00000073          	ecall
   135e6:	f3e9                	bnez	a5,135a8 <_ZN18complex_no_dynamic3app17h3600ccdeb7bbc2e7E+0x7c>
   135e8:	6509                	lui	a0,0x2
   135ea:	efa50493          	addi	s1,a0,-262 # 1efa <.Lline_table_start1+0x1ccf>
   135ee:	45a1                	li	a1,8
   135f0:	470d                	li	a4,3
   135f2:	8526                	mv	a0,s1
   135f4:	4601                	li	a2,0
   135f6:	4681                	li	a3,0
   135f8:	00000073          	ecall
   135fc:	00140513          	addi	a0,s0,1
   13600:	106c                	addi	a1,sp,44
   13602:	02800613          	li	a2,40
   13606:	00009097          	auipc	ra,0x9
   1360a:	72a080e7          	jalr	1834(ra) # 1cd30 <memcpy>
   1360e:	8526                	mv	a0,s1
   13610:	4601                	li	a2,0
   13612:	4681                	li	a3,0
   13614:	00040023          	sb	zero,0(s0)
   13618:	45a1                	li	a1,8
   1361a:	470d                	li	a4,3
   1361c:	00000073          	ecall
   13620:	4591                	li	a1,4
   13622:	4711                	li	a4,4
   13624:	8526                	mv	a0,s1
   13626:	4601                	li	a2,0
   13628:	4681                	li	a3,0
   1362a:	00000073          	ecall
   1362e:	40f6                	lw	ra,92(sp)
   13630:	4466                	lw	s0,88(sp)
   13632:	44d6                	lw	s1,84(sp)
   13634:	6125                	addi	sp,sp,96
   13636:	8082                	ret

00013638 <_ZN18complex_no_dynamic3app17h39ec62a3c3ab7bf7E>:
   13638:	7135                	addi	sp,sp,-160
   1363a:	cf06                	sw	ra,156(sp)
   1363c:	cd22                	sw	s0,152(sp)
   1363e:	842a                	mv	s0,a0
   13640:	00b10513          	addi	a0,sp,11
   13644:	02f00613          	li	a2,47
   13648:	00009097          	auipc	ra,0x9
   1364c:	6e8080e7          	jalr	1768(ra) # 1cd30 <memcpy>
   13650:	03a10513          	addi	a0,sp,58
   13654:	05e00613          	li	a2,94
   13658:	4581                	li	a1,0
   1365a:	00009097          	auipc	ra,0x9
   1365e:	66a080e7          	jalr	1642(ra) # 1ccc4 <memset>
   13662:	22b00513          	li	a0,555
   13666:	4595                	li	a1,5
   13668:	00b10613          	addi	a2,sp,11
   1366c:	02f00693          	li	a3,47
   13670:	4711                	li	a4,4
   13672:	4789                	li	a5,2
   13674:	00000073          	ecall
   13678:	02f50a63          	beq	a0,a5,136ac <_ZN18complex_no_dynamic3app17h39ec62a3c3ab7bf7E+0x74>
   1367c:	22b00513          	li	a0,555
   13680:	4589                	li	a1,2
   13682:	03a10613          	addi	a2,sp,58
   13686:	05e00693          	li	a3,94
   1368a:	470d                	li	a4,3
   1368c:	00000073          	ecall
   13690:	00f50e63          	beq	a0,a5,136ac <_ZN18complex_no_dynamic3app17h39ec62a3c3ab7bf7E+0x74>
   13694:	22b00513          	li	a0,555
   13698:	4595                	li	a1,5
   1369a:	4609                	li	a2,2
   1369c:	4709                	li	a4,2
   1369e:	07f00793          	li	a5,127
   136a2:	4681                	li	a3,0
   136a4:	00000073          	ecall
   136a8:	02a7e963          	bltu	a5,a0,136da <_ZN18complex_no_dynamic3app17h39ec62a3c3ab7bf7E+0xa2>
   136ac:	4785                	li	a5,1
   136ae:	c3a1                	beqz	a5,136ee <_ZN18complex_no_dynamic3app17h39ec62a3c3ab7bf7E+0xb6>
   136b0:	4601                	li	a2,0
   136b2:	4681                	li	a3,0
   136b4:	4705                	li	a4,1
   136b6:	22b00513          	li	a0,555
   136ba:	00e40023          	sb	a4,0(s0)
   136be:	c04c                	sw	a1,4(s0)
   136c0:	4589                	li	a1,2
   136c2:	470d                	li	a4,3
   136c4:	00000073          	ecall
   136c8:	22b00513          	li	a0,555
   136cc:	4595                	li	a1,5
   136ce:	4711                	li	a4,4
   136d0:	4601                	li	a2,0
   136d2:	4681                	li	a3,0
   136d4:	00000073          	ecall
   136d8:	a8b9                	j	13736 <_ZN18complex_no_dynamic3app17h39ec62a3c3ab7bf7E+0xfe>
   136da:	4601                	li	a2,0
   136dc:	4681                	li	a3,0
   136de:	4781                	li	a5,0
   136e0:	22b00513          	li	a0,555
   136e4:	4589                	li	a1,2
   136e6:	470d                	li	a4,3
   136e8:	00000073          	ecall
   136ec:	f3f1                	bnez	a5,136b0 <_ZN18complex_no_dynamic3app17h39ec62a3c3ab7bf7E+0x78>
   136ee:	22b00513          	li	a0,555
   136f2:	4589                	li	a1,2
   136f4:	470d                	li	a4,3
   136f6:	4601                	li	a2,0
   136f8:	4681                	li	a3,0
   136fa:	00000073          	ecall
   136fe:	00140513          	addi	a0,s0,1
   13702:	03a10593          	addi	a1,sp,58
   13706:	05e00613          	li	a2,94
   1370a:	00009097          	auipc	ra,0x9
   1370e:	626080e7          	jalr	1574(ra) # 1cd30 <memcpy>
   13712:	4601                	li	a2,0
   13714:	4681                	li	a3,0
   13716:	00040023          	sb	zero,0(s0)
   1371a:	22b00513          	li	a0,555
   1371e:	4589                	li	a1,2
   13720:	470d                	li	a4,3
   13722:	00000073          	ecall
   13726:	22b00513          	li	a0,555
   1372a:	4595                	li	a1,5
   1372c:	4711                	li	a4,4
   1372e:	4601                	li	a2,0
   13730:	4681                	li	a3,0
   13732:	00000073          	ecall
   13736:	40fa                	lw	ra,156(sp)
   13738:	446a                	lw	s0,152(sp)
   1373a:	610d                	addi	sp,sp,160
   1373c:	8082                	ret

0001373e <_ZN18complex_no_dynamic3app17h3b5bfee77d8b5db5E>:
   1373e:	711d                	addi	sp,sp,-96
   13740:	ce86                	sw	ra,92(sp)
   13742:	cca2                	sw	s0,88(sp)
   13744:	caa6                	sw	s1,84(sp)
   13746:	842a                	mv	s0,a0
   13748:	00f10513          	addi	a0,sp,15
   1374c:	02900613          	li	a2,41
   13750:	00009097          	auipc	ra,0x9
   13754:	5e0080e7          	jalr	1504(ra) # 1cd30 <memcpy>
   13758:	c482                	sw	zero,72(sp)
   1375a:	c682                	sw	zero,76(sp)
   1375c:	04011823          	sh	zero,80(sp)
   13760:	dc02                	sw	zero,56(sp)
   13762:	de02                	sw	zero,60(sp)
   13764:	c082                	sw	zero,64(sp)
   13766:	c282                	sw	zero,68(sp)
   13768:	6509                	lui	a0,0x2
   1376a:	4595                	li	a1,5
   1376c:	00f10613          	addi	a2,sp,15
   13770:	02900693          	li	a3,41
   13774:	04850793          	addi	a5,a0,72 # 2048 <.Lline_table_start1+0x1e1d>
   13778:	4711                	li	a4,4
   1377a:	4489                	li	s1,2
   1377c:	853e                	mv	a0,a5
   1377e:	00000073          	ecall
   13782:	02950963          	beq	a0,s1,137b4 <_ZN18complex_no_dynamic3app17h3b5bfee77d8b5db5E+0x76>
   13786:	458d                	li	a1,3
   13788:	1830                	addi	a2,sp,56
   1378a:	46e9                	li	a3,26
   1378c:	470d                	li	a4,3
   1378e:	853e                	mv	a0,a5
   13790:	00000073          	ecall
   13794:	02950063          	beq	a0,s1,137b4 <_ZN18complex_no_dynamic3app17h3b5bfee77d8b5db5E+0x76>
   13798:	6509                	lui	a0,0x2
   1379a:	4595                	li	a1,5
   1379c:	460d                	li	a2,3
   1379e:	04850793          	addi	a5,a0,72 # 2048 <.Lline_table_start1+0x1e1d>
   137a2:	4709                	li	a4,2
   137a4:	07f00493          	li	s1,127
   137a8:	853e                	mv	a0,a5
   137aa:	4681                	li	a3,0
   137ac:	00000073          	ecall
   137b0:	02a4eb63          	bltu	s1,a0,137e6 <_ZN18complex_no_dynamic3app17h3b5bfee77d8b5db5E+0xa8>
   137b4:	4785                	li	a5,1
   137b6:	c3a9                	beqz	a5,137f8 <_ZN18complex_no_dynamic3app17h3b5bfee77d8b5db5E+0xba>
   137b8:	4601                	li	a2,0
   137ba:	4681                	li	a3,0
   137bc:	4505                	li	a0,1
   137be:	6709                	lui	a4,0x2
   137c0:	87ae                	mv	a5,a1
   137c2:	458d                	li	a1,3
   137c4:	00a40023          	sb	a0,0(s0)
   137c8:	c05c                	sw	a5,4(s0)
   137ca:	04870793          	addi	a5,a4,72 # 2048 <.Lline_table_start1+0x1e1d>
   137ce:	470d                	li	a4,3
   137d0:	853e                	mv	a0,a5
   137d2:	00000073          	ecall
   137d6:	4595                	li	a1,5
   137d8:	4711                	li	a4,4
   137da:	853e                	mv	a0,a5
   137dc:	4601                	li	a2,0
   137de:	4681                	li	a3,0
   137e0:	00000073          	ecall
   137e4:	a8a1                	j	1383c <_ZN18complex_no_dynamic3app17h3b5bfee77d8b5db5E+0xfe>
   137e6:	853e                	mv	a0,a5
   137e8:	4601                	li	a2,0
   137ea:	4681                	li	a3,0
   137ec:	4781                	li	a5,0
   137ee:	458d                	li	a1,3
   137f0:	470d                	li	a4,3
   137f2:	00000073          	ecall
   137f6:	f3e9                	bnez	a5,137b8 <_ZN18complex_no_dynamic3app17h3b5bfee77d8b5db5E+0x7a>
   137f8:	6509                	lui	a0,0x2
   137fa:	04850493          	addi	s1,a0,72 # 2048 <.Lline_table_start1+0x1e1d>
   137fe:	458d                	li	a1,3
   13800:	470d                	li	a4,3
   13802:	8526                	mv	a0,s1
   13804:	4601                	li	a2,0
   13806:	4681                	li	a3,0
   13808:	00000073          	ecall
   1380c:	00140513          	addi	a0,s0,1
   13810:	182c                	addi	a1,sp,56
   13812:	4669                	li	a2,26
   13814:	00009097          	auipc	ra,0x9
   13818:	51c080e7          	jalr	1308(ra) # 1cd30 <memcpy>
   1381c:	8526                	mv	a0,s1
   1381e:	4601                	li	a2,0
   13820:	4681                	li	a3,0
   13822:	00040023          	sb	zero,0(s0)
   13826:	458d                	li	a1,3
   13828:	470d                	li	a4,3
   1382a:	00000073          	ecall
   1382e:	4595                	li	a1,5
   13830:	4711                	li	a4,4
   13832:	8526                	mv	a0,s1
   13834:	4601                	li	a2,0
   13836:	4681                	li	a3,0
   13838:	00000073          	ecall
   1383c:	40f6                	lw	ra,92(sp)
   1383e:	4466                	lw	s0,88(sp)
   13840:	44d6                	lw	s1,84(sp)
   13842:	6125                	addi	sp,sp,96
   13844:	8082                	ret

00013846 <_ZN18complex_no_dynamic3app17h3b7a1019c59931afE>:
   13846:	7171                	addi	sp,sp,-176
   13848:	d706                	sw	ra,172(sp)
   1384a:	d522                	sw	s0,168(sp)
   1384c:	d326                	sw	s1,164(sp)
   1384e:	842a                	mv	s0,a0
   13850:	0048                	addi	a0,sp,4
   13852:	05100613          	li	a2,81
   13856:	00009097          	auipc	ra,0x9
   1385a:	4da080e7          	jalr	1242(ra) # 1cd30 <memcpy>
   1385e:	05510513          	addi	a0,sp,85
   13862:	04f00613          	li	a2,79
   13866:	4581                	li	a1,0
   13868:	00009097          	auipc	ra,0x9
   1386c:	45c080e7          	jalr	1116(ra) # 1ccc4 <memset>
   13870:	6505                	lui	a0,0x1
   13872:	4489                	li	s1,2
   13874:	4589                	li	a1,2
   13876:	0050                	addi	a2,sp,4
   13878:	e1650793          	addi	a5,a0,-490 # e16 <.Lline_table_start1+0xbeb>
   1387c:	05100693          	li	a3,81
   13880:	4711                	li	a4,4
   13882:	853e                	mv	a0,a5
   13884:	00000073          	ecall
   13888:	02950b63          	beq	a0,s1,138be <_ZN18complex_no_dynamic3app17h3b7a1019c59931afE+0x78>
   1388c:	4591                	li	a1,4
   1388e:	05510613          	addi	a2,sp,85
   13892:	04f00693          	li	a3,79
   13896:	470d                	li	a4,3
   13898:	853e                	mv	a0,a5
   1389a:	00000073          	ecall
   1389e:	02950063          	beq	a0,s1,138be <_ZN18complex_no_dynamic3app17h3b7a1019c59931afE+0x78>
   138a2:	6505                	lui	a0,0x1
   138a4:	4589                	li	a1,2
   138a6:	4611                	li	a2,4
   138a8:	e1650793          	addi	a5,a0,-490 # e16 <.Lline_table_start1+0xbeb>
   138ac:	4709                	li	a4,2
   138ae:	07f00493          	li	s1,127
   138b2:	853e                	mv	a0,a5
   138b4:	4681                	li	a3,0
   138b6:	00000073          	ecall
   138ba:	02a4eb63          	bltu	s1,a0,138f0 <_ZN18complex_no_dynamic3app17h3b7a1019c59931afE+0xaa>
   138be:	4785                	li	a5,1
   138c0:	c3a9                	beqz	a5,13902 <_ZN18complex_no_dynamic3app17h3b7a1019c59931afE+0xbc>
   138c2:	4601                	li	a2,0
   138c4:	4681                	li	a3,0
   138c6:	4505                	li	a0,1
   138c8:	6705                	lui	a4,0x1
   138ca:	87ae                	mv	a5,a1
   138cc:	4591                	li	a1,4
   138ce:	00a40023          	sb	a0,0(s0)
   138d2:	c05c                	sw	a5,4(s0)
   138d4:	e1670793          	addi	a5,a4,-490 # e16 <.Lline_table_start1+0xbeb>
   138d8:	470d                	li	a4,3
   138da:	853e                	mv	a0,a5
   138dc:	00000073          	ecall
   138e0:	4589                	li	a1,2
   138e2:	4711                	li	a4,4
   138e4:	853e                	mv	a0,a5
   138e6:	4601                	li	a2,0
   138e8:	4681                	li	a3,0
   138ea:	00000073          	ecall
   138ee:	a8b1                	j	1394a <_ZN18complex_no_dynamic3app17h3b7a1019c59931afE+0x104>
   138f0:	853e                	mv	a0,a5
   138f2:	4601                	li	a2,0
   138f4:	4681                	li	a3,0
   138f6:	4781                	li	a5,0
   138f8:	4591                	li	a1,4
   138fa:	470d                	li	a4,3
   138fc:	00000073          	ecall
   13900:	f3e9                	bnez	a5,138c2 <_ZN18complex_no_dynamic3app17h3b7a1019c59931afE+0x7c>
   13902:	6505                	lui	a0,0x1
   13904:	e1650493          	addi	s1,a0,-490 # e16 <.Lline_table_start1+0xbeb>
   13908:	4591                	li	a1,4
   1390a:	470d                	li	a4,3
   1390c:	8526                	mv	a0,s1
   1390e:	4601                	li	a2,0
   13910:	4681                	li	a3,0
   13912:	00000073          	ecall
   13916:	00140513          	addi	a0,s0,1
   1391a:	05510593          	addi	a1,sp,85
   1391e:	04f00613          	li	a2,79
   13922:	00009097          	auipc	ra,0x9
   13926:	40e080e7          	jalr	1038(ra) # 1cd30 <memcpy>
   1392a:	8526                	mv	a0,s1
   1392c:	4601                	li	a2,0
   1392e:	4681                	li	a3,0
   13930:	00040023          	sb	zero,0(s0)
   13934:	4591                	li	a1,4
   13936:	470d                	li	a4,3
   13938:	00000073          	ecall
   1393c:	4589                	li	a1,2
   1393e:	4711                	li	a4,4
   13940:	8526                	mv	a0,s1
   13942:	4601                	li	a2,0
   13944:	4681                	li	a3,0
   13946:	00000073          	ecall
   1394a:	50ba                	lw	ra,172(sp)
   1394c:	542a                	lw	s0,168(sp)
   1394e:	549a                	lw	s1,164(sp)
   13950:	614d                	addi	sp,sp,176
   13952:	8082                	ret

00013954 <_ZN18complex_no_dynamic3app17h3c51dabbd62dacb3E>:
   13954:	7119                	addi	sp,sp,-128
   13956:	de86                	sw	ra,124(sp)
   13958:	dca2                	sw	s0,120(sp)
   1395a:	daa6                	sw	s1,116(sp)
   1395c:	842a                	mv	s0,a0
   1395e:	850a                	mv	a0,sp
   13960:	02100613          	li	a2,33
   13964:	00009097          	auipc	ra,0x9
   13968:	3cc080e7          	jalr	972(ra) # 1cd30 <memcpy>
   1396c:	02110513          	addi	a0,sp,33
   13970:	05300613          	li	a2,83
   13974:	4581                	li	a1,0
   13976:	00009097          	auipc	ra,0x9
   1397a:	34e080e7          	jalr	846(ra) # 1ccc4 <memset>
   1397e:	6509                	lui	a0,0x2
   13980:	4489                	li	s1,2
   13982:	4589                	li	a1,2
   13984:	860a                	mv	a2,sp
   13986:	53e50793          	addi	a5,a0,1342 # 253e <.Lline_table_start1+0x2313>
   1398a:	02100693          	li	a3,33
   1398e:	4711                	li	a4,4
   13990:	853e                	mv	a0,a5
   13992:	00000073          	ecall
   13996:	02950b63          	beq	a0,s1,139cc <_ZN18complex_no_dynamic3app17h3c51dabbd62dacb3E+0x78>
   1399a:	45a1                	li	a1,8
   1399c:	02110613          	addi	a2,sp,33
   139a0:	05300693          	li	a3,83
   139a4:	470d                	li	a4,3
   139a6:	853e                	mv	a0,a5
   139a8:	00000073          	ecall
   139ac:	02950063          	beq	a0,s1,139cc <_ZN18complex_no_dynamic3app17h3c51dabbd62dacb3E+0x78>
   139b0:	6509                	lui	a0,0x2
   139b2:	4589                	li	a1,2
   139b4:	4621                	li	a2,8
   139b6:	53e50793          	addi	a5,a0,1342 # 253e <.Lline_table_start1+0x2313>
   139ba:	4709                	li	a4,2
   139bc:	07f00493          	li	s1,127
   139c0:	853e                	mv	a0,a5
   139c2:	4681                	li	a3,0
   139c4:	00000073          	ecall
   139c8:	02a4eb63          	bltu	s1,a0,139fe <_ZN18complex_no_dynamic3app17h3c51dabbd62dacb3E+0xaa>
   139cc:	4785                	li	a5,1
   139ce:	c3a9                	beqz	a5,13a10 <_ZN18complex_no_dynamic3app17h3c51dabbd62dacb3E+0xbc>
   139d0:	4601                	li	a2,0
   139d2:	4681                	li	a3,0
   139d4:	4505                	li	a0,1
   139d6:	6709                	lui	a4,0x2
   139d8:	87ae                	mv	a5,a1
   139da:	45a1                	li	a1,8
   139dc:	00a40023          	sb	a0,0(s0)
   139e0:	c05c                	sw	a5,4(s0)
   139e2:	53e70793          	addi	a5,a4,1342 # 253e <.Lline_table_start1+0x2313>
   139e6:	470d                	li	a4,3
   139e8:	853e                	mv	a0,a5
   139ea:	00000073          	ecall
   139ee:	4589                	li	a1,2
   139f0:	4711                	li	a4,4
   139f2:	853e                	mv	a0,a5
   139f4:	4601                	li	a2,0
   139f6:	4681                	li	a3,0
   139f8:	00000073          	ecall
   139fc:	a8b1                	j	13a58 <_ZN18complex_no_dynamic3app17h3c51dabbd62dacb3E+0x104>
   139fe:	853e                	mv	a0,a5
   13a00:	4601                	li	a2,0
   13a02:	4681                	li	a3,0
   13a04:	4781                	li	a5,0
   13a06:	45a1                	li	a1,8
   13a08:	470d                	li	a4,3
   13a0a:	00000073          	ecall
   13a0e:	f3e9                	bnez	a5,139d0 <_ZN18complex_no_dynamic3app17h3c51dabbd62dacb3E+0x7c>
   13a10:	6509                	lui	a0,0x2
   13a12:	53e50493          	addi	s1,a0,1342 # 253e <.Lline_table_start1+0x2313>
   13a16:	45a1                	li	a1,8
   13a18:	470d                	li	a4,3
   13a1a:	8526                	mv	a0,s1
   13a1c:	4601                	li	a2,0
   13a1e:	4681                	li	a3,0
   13a20:	00000073          	ecall
   13a24:	00140513          	addi	a0,s0,1
   13a28:	02110593          	addi	a1,sp,33
   13a2c:	05300613          	li	a2,83
   13a30:	00009097          	auipc	ra,0x9
   13a34:	300080e7          	jalr	768(ra) # 1cd30 <memcpy>
   13a38:	8526                	mv	a0,s1
   13a3a:	4601                	li	a2,0
   13a3c:	4681                	li	a3,0
   13a3e:	00040023          	sb	zero,0(s0)
   13a42:	45a1                	li	a1,8
   13a44:	470d                	li	a4,3
   13a46:	00000073          	ecall
   13a4a:	4589                	li	a1,2
   13a4c:	4711                	li	a4,4
   13a4e:	8526                	mv	a0,s1
   13a50:	4601                	li	a2,0
   13a52:	4681                	li	a3,0
   13a54:	00000073          	ecall
   13a58:	50f6                	lw	ra,124(sp)
   13a5a:	5466                	lw	s0,120(sp)
   13a5c:	54d6                	lw	s1,116(sp)
   13a5e:	6109                	addi	sp,sp,128
   13a60:	8082                	ret

00013a62 <_ZN18complex_no_dynamic3app17h3cf6522576d329fdE>:
   13a62:	7171                	addi	sp,sp,-176
   13a64:	d706                	sw	ra,172(sp)
   13a66:	d522                	sw	s0,168(sp)
   13a68:	d326                	sw	s1,164(sp)
   13a6a:	842a                	mv	s0,a0
   13a6c:	0048                	addi	a0,sp,4
   13a6e:	05100613          	li	a2,81
   13a72:	00009097          	auipc	ra,0x9
   13a76:	2be080e7          	jalr	702(ra) # 1cd30 <memcpy>
   13a7a:	05510513          	addi	a0,sp,85
   13a7e:	04f00613          	li	a2,79
   13a82:	4581                	li	a1,0
   13a84:	00009097          	auipc	ra,0x9
   13a88:	240080e7          	jalr	576(ra) # 1ccc4 <memset>
   13a8c:	6509                	lui	a0,0x2
   13a8e:	4591                	li	a1,4
   13a90:	0050                	addi	a2,sp,4
   13a92:	05100693          	li	a3,81
   13a96:	0ee50793          	addi	a5,a0,238 # 20ee <.Lline_table_start1+0x1ec3>
   13a9a:	4711                	li	a4,4
   13a9c:	4489                	li	s1,2
   13a9e:	853e                	mv	a0,a5
   13aa0:	00000073          	ecall
   13aa4:	02950b63          	beq	a0,s1,13ada <_ZN18complex_no_dynamic3app17h3cf6522576d329fdE+0x78>
   13aa8:	45a5                	li	a1,9
   13aaa:	05510613          	addi	a2,sp,85
   13aae:	04f00693          	li	a3,79
   13ab2:	470d                	li	a4,3
   13ab4:	853e                	mv	a0,a5
   13ab6:	00000073          	ecall
   13aba:	02950063          	beq	a0,s1,13ada <_ZN18complex_no_dynamic3app17h3cf6522576d329fdE+0x78>
   13abe:	6509                	lui	a0,0x2
   13ac0:	4591                	li	a1,4
   13ac2:	4625                	li	a2,9
   13ac4:	0ee50793          	addi	a5,a0,238 # 20ee <.Lline_table_start1+0x1ec3>
   13ac8:	4709                	li	a4,2
   13aca:	07f00493          	li	s1,127
   13ace:	853e                	mv	a0,a5
   13ad0:	4681                	li	a3,0
   13ad2:	00000073          	ecall
   13ad6:	02a4eb63          	bltu	s1,a0,13b0c <_ZN18complex_no_dynamic3app17h3cf6522576d329fdE+0xaa>
   13ada:	4785                	li	a5,1
   13adc:	c3a9                	beqz	a5,13b1e <_ZN18complex_no_dynamic3app17h3cf6522576d329fdE+0xbc>
   13ade:	4601                	li	a2,0
   13ae0:	4681                	li	a3,0
   13ae2:	4505                	li	a0,1
   13ae4:	6709                	lui	a4,0x2
   13ae6:	87ae                	mv	a5,a1
   13ae8:	45a5                	li	a1,9
   13aea:	00a40023          	sb	a0,0(s0)
   13aee:	c05c                	sw	a5,4(s0)
   13af0:	0ee70793          	addi	a5,a4,238 # 20ee <.Lline_table_start1+0x1ec3>
   13af4:	470d                	li	a4,3
   13af6:	853e                	mv	a0,a5
   13af8:	00000073          	ecall
   13afc:	4591                	li	a1,4
   13afe:	4711                	li	a4,4
   13b00:	853e                	mv	a0,a5
   13b02:	4601                	li	a2,0
   13b04:	4681                	li	a3,0
   13b06:	00000073          	ecall
   13b0a:	a8b1                	j	13b66 <_ZN18complex_no_dynamic3app17h3cf6522576d329fdE+0x104>
   13b0c:	853e                	mv	a0,a5
   13b0e:	4601                	li	a2,0
   13b10:	4681                	li	a3,0
   13b12:	4781                	li	a5,0
   13b14:	45a5                	li	a1,9
   13b16:	470d                	li	a4,3
   13b18:	00000073          	ecall
   13b1c:	f3e9                	bnez	a5,13ade <_ZN18complex_no_dynamic3app17h3cf6522576d329fdE+0x7c>
   13b1e:	6509                	lui	a0,0x2
   13b20:	0ee50493          	addi	s1,a0,238 # 20ee <.Lline_table_start1+0x1ec3>
   13b24:	45a5                	li	a1,9
   13b26:	470d                	li	a4,3
   13b28:	8526                	mv	a0,s1
   13b2a:	4601                	li	a2,0
   13b2c:	4681                	li	a3,0
   13b2e:	00000073          	ecall
   13b32:	00140513          	addi	a0,s0,1
   13b36:	05510593          	addi	a1,sp,85
   13b3a:	04f00613          	li	a2,79
   13b3e:	00009097          	auipc	ra,0x9
   13b42:	1f2080e7          	jalr	498(ra) # 1cd30 <memcpy>
   13b46:	8526                	mv	a0,s1
   13b48:	4601                	li	a2,0
   13b4a:	4681                	li	a3,0
   13b4c:	00040023          	sb	zero,0(s0)
   13b50:	45a5                	li	a1,9
   13b52:	470d                	li	a4,3
   13b54:	00000073          	ecall
   13b58:	4591                	li	a1,4
   13b5a:	4711                	li	a4,4
   13b5c:	8526                	mv	a0,s1
   13b5e:	4601                	li	a2,0
   13b60:	4681                	li	a3,0
   13b62:	00000073          	ecall
   13b66:	50ba                	lw	ra,172(sp)
   13b68:	542a                	lw	s0,168(sp)
   13b6a:	549a                	lw	s1,164(sp)
   13b6c:	614d                	addi	sp,sp,176
   13b6e:	8082                	ret

00013b70 <_ZN18complex_no_dynamic3app17h3f393d1c3734544eE>:
   13b70:	7171                	addi	sp,sp,-176
   13b72:	d706                	sw	ra,172(sp)
   13b74:	d522                	sw	s0,168(sp)
   13b76:	d326                	sw	s1,164(sp)
   13b78:	842a                	mv	s0,a0
   13b7a:	00510513          	addi	a0,sp,5
   13b7e:	05600613          	li	a2,86
   13b82:	00009097          	auipc	ra,0x9
   13b86:	1ae080e7          	jalr	430(ra) # 1cd30 <memcpy>
   13b8a:	05b10513          	addi	a0,sp,91
   13b8e:	04900613          	li	a2,73
   13b92:	4581                	li	a1,0
   13b94:	00009097          	auipc	ra,0x9
   13b98:	130080e7          	jalr	304(ra) # 1ccc4 <memset>
   13b9c:	6509                	lui	a0,0x2
   13b9e:	4599                	li	a1,6
   13ba0:	00510613          	addi	a2,sp,5
   13ba4:	05600693          	li	a3,86
   13ba8:	c6b50793          	addi	a5,a0,-917 # 1c6b <.Lline_table_start1+0x1a40>
   13bac:	4711                	li	a4,4
   13bae:	4489                	li	s1,2
   13bb0:	853e                	mv	a0,a5
   13bb2:	00000073          	ecall
   13bb6:	02950b63          	beq	a0,s1,13bec <_ZN18complex_no_dynamic3app17h3f393d1c3734544eE+0x7c>
   13bba:	4599                	li	a1,6
   13bbc:	05b10613          	addi	a2,sp,91
   13bc0:	04900693          	li	a3,73
   13bc4:	470d                	li	a4,3
   13bc6:	853e                	mv	a0,a5
   13bc8:	00000073          	ecall
   13bcc:	02950063          	beq	a0,s1,13bec <_ZN18complex_no_dynamic3app17h3f393d1c3734544eE+0x7c>
   13bd0:	6509                	lui	a0,0x2
   13bd2:	4599                	li	a1,6
   13bd4:	4619                	li	a2,6
   13bd6:	c6b50793          	addi	a5,a0,-917 # 1c6b <.Lline_table_start1+0x1a40>
   13bda:	4709                	li	a4,2
   13bdc:	07f00493          	li	s1,127
   13be0:	853e                	mv	a0,a5
   13be2:	4681                	li	a3,0
   13be4:	00000073          	ecall
   13be8:	02a4eb63          	bltu	s1,a0,13c1e <_ZN18complex_no_dynamic3app17h3f393d1c3734544eE+0xae>
   13bec:	4785                	li	a5,1
   13bee:	c3a9                	beqz	a5,13c30 <_ZN18complex_no_dynamic3app17h3f393d1c3734544eE+0xc0>
   13bf0:	4601                	li	a2,0
   13bf2:	4681                	li	a3,0
   13bf4:	4505                	li	a0,1
   13bf6:	6709                	lui	a4,0x2
   13bf8:	87ae                	mv	a5,a1
   13bfa:	4599                	li	a1,6
   13bfc:	00a40023          	sb	a0,0(s0)
   13c00:	c05c                	sw	a5,4(s0)
   13c02:	c6b70793          	addi	a5,a4,-917 # 1c6b <.Lline_table_start1+0x1a40>
   13c06:	470d                	li	a4,3
   13c08:	853e                	mv	a0,a5
   13c0a:	00000073          	ecall
   13c0e:	4599                	li	a1,6
   13c10:	4711                	li	a4,4
   13c12:	853e                	mv	a0,a5
   13c14:	4601                	li	a2,0
   13c16:	4681                	li	a3,0
   13c18:	00000073          	ecall
   13c1c:	a8b1                	j	13c78 <_ZN18complex_no_dynamic3app17h3f393d1c3734544eE+0x108>
   13c1e:	853e                	mv	a0,a5
   13c20:	4601                	li	a2,0
   13c22:	4681                	li	a3,0
   13c24:	4781                	li	a5,0
   13c26:	4599                	li	a1,6
   13c28:	470d                	li	a4,3
   13c2a:	00000073          	ecall
   13c2e:	f3e9                	bnez	a5,13bf0 <_ZN18complex_no_dynamic3app17h3f393d1c3734544eE+0x80>
   13c30:	6509                	lui	a0,0x2
   13c32:	c6b50493          	addi	s1,a0,-917 # 1c6b <.Lline_table_start1+0x1a40>
   13c36:	4599                	li	a1,6
   13c38:	470d                	li	a4,3
   13c3a:	8526                	mv	a0,s1
   13c3c:	4601                	li	a2,0
   13c3e:	4681                	li	a3,0
   13c40:	00000073          	ecall
   13c44:	00140513          	addi	a0,s0,1
   13c48:	05b10593          	addi	a1,sp,91
   13c4c:	04900613          	li	a2,73
   13c50:	00009097          	auipc	ra,0x9
   13c54:	0e0080e7          	jalr	224(ra) # 1cd30 <memcpy>
   13c58:	8526                	mv	a0,s1
   13c5a:	4601                	li	a2,0
   13c5c:	4681                	li	a3,0
   13c5e:	00040023          	sb	zero,0(s0)
   13c62:	4599                	li	a1,6
   13c64:	470d                	li	a4,3
   13c66:	00000073          	ecall
   13c6a:	4599                	li	a1,6
   13c6c:	4711                	li	a4,4
   13c6e:	8526                	mv	a0,s1
   13c70:	4601                	li	a2,0
   13c72:	4681                	li	a3,0
   13c74:	00000073          	ecall
   13c78:	50ba                	lw	ra,172(sp)
   13c7a:	542a                	lw	s0,168(sp)
   13c7c:	549a                	lw	s1,164(sp)
   13c7e:	614d                	addi	sp,sp,176
   13c80:	8082                	ret

00013c82 <_ZN18complex_no_dynamic3app17h44c7f046bc194ee9E>:
   13c82:	711d                	addi	sp,sp,-96
   13c84:	ce86                	sw	ra,92(sp)
   13c86:	cca2                	sw	s0,88(sp)
   13c88:	caa6                	sw	s1,84(sp)
   13c8a:	842a                	mv	s0,a0
   13c8c:	00110513          	addi	a0,sp,1
   13c90:	03f00613          	li	a2,63
   13c94:	00009097          	auipc	ra,0x9
   13c98:	09c080e7          	jalr	156(ra) # 1cd30 <memcpy>
   13c9c:	04010823          	sb	zero,80(sp)
   13ca0:	c082                	sw	zero,64(sp)
   13ca2:	c282                	sw	zero,68(sp)
   13ca4:	c482                	sw	zero,72(sp)
   13ca6:	c682                	sw	zero,76(sp)
   13ca8:	6505                	lui	a0,0x1
   13caa:	4591                	li	a1,4
   13cac:	00110613          	addi	a2,sp,1
   13cb0:	03f00693          	li	a3,63
   13cb4:	4d750793          	addi	a5,a0,1239 # 14d7 <.Lline_table_start1+0x12ac>
   13cb8:	4711                	li	a4,4
   13cba:	4489                	li	s1,2
   13cbc:	853e                	mv	a0,a5
   13cbe:	00000073          	ecall
   13cc2:	02950963          	beq	a0,s1,13cf4 <_ZN18complex_no_dynamic3app17h44c7f046bc194ee9E+0x72>
   13cc6:	458d                	li	a1,3
   13cc8:	0090                	addi	a2,sp,64
   13cca:	46c5                	li	a3,17
   13ccc:	470d                	li	a4,3
   13cce:	853e                	mv	a0,a5
   13cd0:	00000073          	ecall
   13cd4:	02950063          	beq	a0,s1,13cf4 <_ZN18complex_no_dynamic3app17h44c7f046bc194ee9E+0x72>
   13cd8:	6505                	lui	a0,0x1
   13cda:	4591                	li	a1,4
   13cdc:	460d                	li	a2,3
   13cde:	4d750793          	addi	a5,a0,1239 # 14d7 <.Lline_table_start1+0x12ac>
   13ce2:	4709                	li	a4,2
   13ce4:	07f00493          	li	s1,127
   13ce8:	853e                	mv	a0,a5
   13cea:	4681                	li	a3,0
   13cec:	00000073          	ecall
   13cf0:	02a4eb63          	bltu	s1,a0,13d26 <_ZN18complex_no_dynamic3app17h44c7f046bc194ee9E+0xa4>
   13cf4:	4785                	li	a5,1
   13cf6:	c3a9                	beqz	a5,13d38 <_ZN18complex_no_dynamic3app17h44c7f046bc194ee9E+0xb6>
   13cf8:	4601                	li	a2,0
   13cfa:	4681                	li	a3,0
   13cfc:	4505                	li	a0,1
   13cfe:	6705                	lui	a4,0x1
   13d00:	87ae                	mv	a5,a1
   13d02:	458d                	li	a1,3
   13d04:	00a40023          	sb	a0,0(s0)
   13d08:	c05c                	sw	a5,4(s0)
   13d0a:	4d770793          	addi	a5,a4,1239 # 14d7 <.Lline_table_start1+0x12ac>
   13d0e:	470d                	li	a4,3
   13d10:	853e                	mv	a0,a5
   13d12:	00000073          	ecall
   13d16:	4591                	li	a1,4
   13d18:	4711                	li	a4,4
   13d1a:	853e                	mv	a0,a5
   13d1c:	4601                	li	a2,0
   13d1e:	4681                	li	a3,0
   13d20:	00000073          	ecall
   13d24:	a8a1                	j	13d7c <_ZN18complex_no_dynamic3app17h44c7f046bc194ee9E+0xfa>
   13d26:	853e                	mv	a0,a5
   13d28:	4601                	li	a2,0
   13d2a:	4681                	li	a3,0
   13d2c:	4781                	li	a5,0
   13d2e:	458d                	li	a1,3
   13d30:	470d                	li	a4,3
   13d32:	00000073          	ecall
   13d36:	f3e9                	bnez	a5,13cf8 <_ZN18complex_no_dynamic3app17h44c7f046bc194ee9E+0x76>
   13d38:	6505                	lui	a0,0x1
   13d3a:	4d750493          	addi	s1,a0,1239 # 14d7 <.Lline_table_start1+0x12ac>
   13d3e:	458d                	li	a1,3
   13d40:	470d                	li	a4,3
   13d42:	8526                	mv	a0,s1
   13d44:	4601                	li	a2,0
   13d46:	4681                	li	a3,0
   13d48:	00000073          	ecall
   13d4c:	00140513          	addi	a0,s0,1
   13d50:	008c                	addi	a1,sp,64
   13d52:	4645                	li	a2,17
   13d54:	00009097          	auipc	ra,0x9
   13d58:	fdc080e7          	jalr	-36(ra) # 1cd30 <memcpy>
   13d5c:	8526                	mv	a0,s1
   13d5e:	4601                	li	a2,0
   13d60:	4681                	li	a3,0
   13d62:	00040023          	sb	zero,0(s0)
   13d66:	458d                	li	a1,3
   13d68:	470d                	li	a4,3
   13d6a:	00000073          	ecall
   13d6e:	4591                	li	a1,4
   13d70:	4711                	li	a4,4
   13d72:	8526                	mv	a0,s1
   13d74:	4601                	li	a2,0
   13d76:	4681                	li	a3,0
   13d78:	00000073          	ecall
   13d7c:	40f6                	lw	ra,92(sp)
   13d7e:	4466                	lw	s0,88(sp)
   13d80:	44d6                	lw	s1,84(sp)
   13d82:	6125                	addi	sp,sp,96
   13d84:	8082                	ret

00013d86 <_ZN18complex_no_dynamic3app17h4a176e86db4a374eE>:
   13d86:	7159                	addi	sp,sp,-112
   13d88:	d686                	sw	ra,108(sp)
   13d8a:	d4a2                	sw	s0,104(sp)
   13d8c:	d2a6                	sw	s1,100(sp)
   13d8e:	d0ca                	sw	s2,96(sp)
   13d90:	cece                	sw	s3,92(sp)
   13d92:	ccd2                	sw	s4,88(sp)
   13d94:	892a                	mv	s2,a0
   13d96:	01c5c303          	lbu	t1,28(a1)
   13d9a:	01d5c603          	lbu	a2,29(a1)
   13d9e:	0185c683          	lbu	a3,24(a1)
   13da2:	0195c703          	lbu	a4,25(a1)
   13da6:	01a5c803          	lbu	a6,26(a1)
   13daa:	01b5c283          	lbu	t0,27(a1)
   13dae:	0145c883          	lbu	a7,20(a1)
   13db2:	0155c383          	lbu	t2,21(a1)
   13db6:	0165c483          	lbu	s1,22(a1)
   13dba:	0175c403          	lbu	s0,23(a1)
   13dbe:	0105c503          	lbu	a0,16(a1)
   13dc2:	0115c783          	lbu	a5,17(a1)
   13dc6:	0125ce03          	lbu	t3,18(a1)
   13dca:	0135ce83          	lbu	t4,19(a1)
   13dce:	0622                	slli	a2,a2,0x8
   13dd0:	0722                	slli	a4,a4,0x8
   13dd2:	00666333          	or	t1,a2,t1
   13dd6:	00d76f33          	or	t5,a4,a3
   13dda:	00c5cf83          	lbu	t6,12(a1)
   13dde:	00d5c683          	lbu	a3,13(a1)
   13de2:	00e5c703          	lbu	a4,14(a1)
   13de6:	00f5c603          	lbu	a2,15(a1)
   13dea:	0842                	slli	a6,a6,0x10
   13dec:	02e2                	slli	t0,t0,0x18
   13dee:	03a2                	slli	t2,t2,0x8
   13df0:	04c2                	slli	s1,s1,0x10
   13df2:	0462                	slli	s0,s0,0x18
   13df4:	07a2                	slli	a5,a5,0x8
   13df6:	0102e2b3          	or	t0,t0,a6
   13dfa:	0113e833          	or	a6,t2,a7
   13dfe:	009463b3          	or	t2,s0,s1
   13e02:	00a7e8b3          	or	a7,a5,a0
   13e06:	0085c503          	lbu	a0,8(a1)
   13e0a:	0095c783          	lbu	a5,9(a1)
   13e0e:	00a5c403          	lbu	s0,10(a1)
   13e12:	00b5c483          	lbu	s1,11(a1)
   13e16:	0e42                	slli	t3,t3,0x10
   13e18:	0ee2                	slli	t4,t4,0x18
   13e1a:	06a2                	slli	a3,a3,0x8
   13e1c:	0742                	slli	a4,a4,0x10
   13e1e:	0662                	slli	a2,a2,0x18
   13e20:	07a2                	slli	a5,a5,0x8
   13e22:	01ceee33          	or	t3,t4,t3
   13e26:	01f6eeb3          	or	t4,a3,t6
   13e2a:	00e669b3          	or	s3,a2,a4
   13e2e:	00a7efb3          	or	t6,a5,a0
   13e32:	0045c703          	lbu	a4,4(a1)
   13e36:	0055c783          	lbu	a5,5(a1)
   13e3a:	0065c683          	lbu	a3,6(a1)
   13e3e:	0075c503          	lbu	a0,7(a1)
   13e42:	0442                	slli	s0,s0,0x10
   13e44:	04e2                	slli	s1,s1,0x18
   13e46:	07a2                	slli	a5,a5,0x8
   13e48:	06c2                	slli	a3,a3,0x10
   13e4a:	0562                	slli	a0,a0,0x18
   13e4c:	8c45                	or	s0,s0,s1
   13e4e:	00e7ea33          	or	s4,a5,a4
   13e52:	0005c783          	lbu	a5,0(a1)
   13e56:	0015c483          	lbu	s1,1(a1)
   13e5a:	8d55                	or	a0,a0,a3
   13e5c:	0025c683          	lbu	a3,2(a1)
   13e60:	0035c583          	lbu	a1,3(a1)
   13e64:	04a2                	slli	s1,s1,0x8
   13e66:	8fc5                	or	a5,a5,s1
   13e68:	06c2                	slli	a3,a3,0x10
   13e6a:	05e2                	slli	a1,a1,0x18
   13e6c:	8dd5                	or	a1,a1,a3
   13e6e:	01e2e6b3          	or	a3,t0,t5
   13e72:	0103e4b3          	or	s1,t2,a6
   13e76:	011e6633          	or	a2,t3,a7
   13e7a:	01d9e733          	or	a4,s3,t4
   13e7e:	01f46433          	or	s0,s0,t6
   13e82:	01456533          	or	a0,a0,s4
   13e86:	8ddd                	or	a1,a1,a5
   13e88:	ce32                	sw	a2,28(sp)
   13e8a:	d026                	sw	s1,32(sp)
   13e8c:	d236                	sw	a3,36(sp)
   13e8e:	02611423          	sh	t1,40(sp)
   13e92:	c62e                	sw	a1,12(sp)
   13e94:	c82a                	sw	a0,16(sp)
   13e96:	ca22                	sw	s0,20(sp)
   13e98:	cc3a                	sw	a4,24(sp)
   13e9a:	1068                	addi	a0,sp,44
   13e9c:	02c00613          	li	a2,44
   13ea0:	4581                	li	a1,0
   13ea2:	00009097          	auipc	ra,0x9
   13ea6:	e22080e7          	jalr	-478(ra) # 1ccc4 <memset>
   13eaa:	3fb00513          	li	a0,1019
   13eae:	459d                	li	a1,7
   13eb0:	0070                	addi	a2,sp,12
   13eb2:	46f9                	li	a3,30
   13eb4:	4711                	li	a4,4
   13eb6:	4789                	li	a5,2
   13eb8:	00000073          	ecall
   13ebc:	02f50963          	beq	a0,a5,13eee <_ZN18complex_no_dynamic3app17h4a176e86db4a374eE+0x168>
   13ec0:	3fb00513          	li	a0,1019
   13ec4:	1070                	addi	a2,sp,44
   13ec6:	02c00693          	li	a3,44
   13eca:	470d                	li	a4,3
   13ecc:	4581                	li	a1,0
   13ece:	00000073          	ecall
   13ed2:	00f50e63          	beq	a0,a5,13eee <_ZN18complex_no_dynamic3app17h4a176e86db4a374eE+0x168>
   13ed6:	3fb00513          	li	a0,1019
   13eda:	459d                	li	a1,7
   13edc:	4709                	li	a4,2
   13ede:	07f00793          	li	a5,127
   13ee2:	4601                	li	a2,0
   13ee4:	4681                	li	a3,0
   13ee6:	00000073          	ecall
   13eea:	02a7eb63          	bltu	a5,a0,13f20 <_ZN18complex_no_dynamic3app17h4a176e86db4a374eE+0x19a>
   13eee:	4785                	li	a5,1
   13ef0:	c3b1                	beqz	a5,13f34 <_ZN18complex_no_dynamic3app17h4a176e86db4a374eE+0x1ae>
   13ef2:	852e                	mv	a0,a1
   13ef4:	4581                	li	a1,0
   13ef6:	4601                	li	a2,0
   13ef8:	4681                	li	a3,0
   13efa:	4705                	li	a4,1
   13efc:	00e90023          	sb	a4,0(s2)
   13f00:	00a92223          	sw	a0,4(s2)
   13f04:	3fb00513          	li	a0,1019
   13f08:	470d                	li	a4,3
   13f0a:	00000073          	ecall
   13f0e:	3fb00513          	li	a0,1019
   13f12:	459d                	li	a1,7
   13f14:	4711                	li	a4,4
   13f16:	4601                	li	a2,0
   13f18:	4681                	li	a3,0
   13f1a:	00000073          	ecall
   13f1e:	a8b1                	j	13f7a <_ZN18complex_no_dynamic3app17h4a176e86db4a374eE+0x1f4>
   13f20:	4581                	li	a1,0
   13f22:	4601                	li	a2,0
   13f24:	4681                	li	a3,0
   13f26:	4781                	li	a5,0
   13f28:	3fb00513          	li	a0,1019
   13f2c:	470d                	li	a4,3
   13f2e:	00000073          	ecall
   13f32:	f3e1                	bnez	a5,13ef2 <_ZN18complex_no_dynamic3app17h4a176e86db4a374eE+0x16c>
   13f34:	3fb00513          	li	a0,1019
   13f38:	470d                	li	a4,3
   13f3a:	4581                	li	a1,0
   13f3c:	4601                	li	a2,0
   13f3e:	4681                	li	a3,0
   13f40:	00000073          	ecall
   13f44:	00190513          	addi	a0,s2,1
   13f48:	106c                	addi	a1,sp,44
   13f4a:	02c00613          	li	a2,44
   13f4e:	00009097          	auipc	ra,0x9
   13f52:	de2080e7          	jalr	-542(ra) # 1cd30 <memcpy>
   13f56:	4581                	li	a1,0
   13f58:	4601                	li	a2,0
   13f5a:	4681                	li	a3,0
   13f5c:	00090023          	sb	zero,0(s2)
   13f60:	3fb00513          	li	a0,1019
   13f64:	470d                	li	a4,3
   13f66:	00000073          	ecall
   13f6a:	3fb00513          	li	a0,1019
   13f6e:	459d                	li	a1,7
   13f70:	4711                	li	a4,4
   13f72:	4601                	li	a2,0
   13f74:	4681                	li	a3,0
   13f76:	00000073          	ecall
   13f7a:	50b6                	lw	ra,108(sp)
   13f7c:	5426                	lw	s0,104(sp)
   13f7e:	5496                	lw	s1,100(sp)
   13f80:	5906                	lw	s2,96(sp)
   13f82:	49f6                	lw	s3,92(sp)
   13f84:	4a66                	lw	s4,88(sp)
   13f86:	6165                	addi	sp,sp,112
   13f88:	8082                	ret

00013f8a <_ZN18complex_no_dynamic3app17h4d64a4b13012ba52E>:
   13f8a:	711d                	addi	sp,sp,-96
   13f8c:	ce86                	sw	ra,92(sp)
   13f8e:	cca2                	sw	s0,88(sp)
   13f90:	caa6                	sw	s1,84(sp)
   13f92:	842a                	mv	s0,a0
   13f94:	00610513          	addi	a0,sp,6
   13f98:	02300613          	li	a2,35
   13f9c:	00009097          	auipc	ra,0x9
   13fa0:	d94080e7          	jalr	-620(ra) # 1cd30 <memcpy>
   13fa4:	02910513          	addi	a0,sp,41
   13fa8:	02b00613          	li	a2,43
   13fac:	4581                	li	a1,0
   13fae:	00009097          	auipc	ra,0x9
   13fb2:	d16080e7          	jalr	-746(ra) # 1ccc4 <memset>
   13fb6:	6505                	lui	a0,0x1
   13fb8:	4489                	li	s1,2
   13fba:	4589                	li	a1,2
   13fbc:	00610613          	addi	a2,sp,6
   13fc0:	d5d50793          	addi	a5,a0,-675 # d5d <.Lline_table_start1+0xb32>
   13fc4:	02300693          	li	a3,35
   13fc8:	4711                	li	a4,4
   13fca:	853e                	mv	a0,a5
   13fcc:	00000073          	ecall
   13fd0:	02950b63          	beq	a0,s1,14006 <_ZN18complex_no_dynamic3app17h4d64a4b13012ba52E+0x7c>
   13fd4:	02910613          	addi	a2,sp,41
   13fd8:	02b00693          	li	a3,43
   13fdc:	470d                	li	a4,3
   13fde:	853e                	mv	a0,a5
   13fe0:	4581                	li	a1,0
   13fe2:	00000073          	ecall
   13fe6:	02950063          	beq	a0,s1,14006 <_ZN18complex_no_dynamic3app17h4d64a4b13012ba52E+0x7c>
   13fea:	6505                	lui	a0,0x1
   13fec:	4589                	li	a1,2
   13fee:	d5d50793          	addi	a5,a0,-675 # d5d <.Lline_table_start1+0xb32>
   13ff2:	4709                	li	a4,2
   13ff4:	07f00493          	li	s1,127
   13ff8:	853e                	mv	a0,a5
   13ffa:	4601                	li	a2,0
   13ffc:	4681                	li	a3,0
   13ffe:	00000073          	ecall
   14002:	02a4eb63          	bltu	s1,a0,14038 <_ZN18complex_no_dynamic3app17h4d64a4b13012ba52E+0xae>
   14006:	4785                	li	a5,1
   14008:	c3a9                	beqz	a5,1404a <_ZN18complex_no_dynamic3app17h4d64a4b13012ba52E+0xc0>
   1400a:	852e                	mv	a0,a1
   1400c:	4581                	li	a1,0
   1400e:	4601                	li	a2,0
   14010:	4681                	li	a3,0
   14012:	4705                	li	a4,1
   14014:	6785                	lui	a5,0x1
   14016:	00e40023          	sb	a4,0(s0)
   1401a:	c048                	sw	a0,4(s0)
   1401c:	d5d78793          	addi	a5,a5,-675 # d5d <.Lline_table_start1+0xb32>
   14020:	470d                	li	a4,3
   14022:	853e                	mv	a0,a5
   14024:	00000073          	ecall
   14028:	4589                	li	a1,2
   1402a:	4711                	li	a4,4
   1402c:	853e                	mv	a0,a5
   1402e:	4601                	li	a2,0
   14030:	4681                	li	a3,0
   14032:	00000073          	ecall
   14036:	a8b1                	j	14092 <_ZN18complex_no_dynamic3app17h4d64a4b13012ba52E+0x108>
   14038:	853e                	mv	a0,a5
   1403a:	4581                	li	a1,0
   1403c:	4601                	li	a2,0
   1403e:	4681                	li	a3,0
   14040:	4781                	li	a5,0
   14042:	470d                	li	a4,3
   14044:	00000073          	ecall
   14048:	f3e9                	bnez	a5,1400a <_ZN18complex_no_dynamic3app17h4d64a4b13012ba52E+0x80>
   1404a:	6505                	lui	a0,0x1
   1404c:	d5d50493          	addi	s1,a0,-675 # d5d <.Lline_table_start1+0xb32>
   14050:	470d                	li	a4,3
   14052:	8526                	mv	a0,s1
   14054:	4581                	li	a1,0
   14056:	4601                	li	a2,0
   14058:	4681                	li	a3,0
   1405a:	00000073          	ecall
   1405e:	00140513          	addi	a0,s0,1
   14062:	02910593          	addi	a1,sp,41
   14066:	02b00613          	li	a2,43
   1406a:	00009097          	auipc	ra,0x9
   1406e:	cc6080e7          	jalr	-826(ra) # 1cd30 <memcpy>
   14072:	8526                	mv	a0,s1
   14074:	4581                	li	a1,0
   14076:	4601                	li	a2,0
   14078:	4681                	li	a3,0
   1407a:	00040023          	sb	zero,0(s0)
   1407e:	470d                	li	a4,3
   14080:	00000073          	ecall
   14084:	4589                	li	a1,2
   14086:	4711                	li	a4,4
   14088:	8526                	mv	a0,s1
   1408a:	4601                	li	a2,0
   1408c:	4681                	li	a3,0
   1408e:	00000073          	ecall
   14092:	40f6                	lw	ra,92(sp)
   14094:	4466                	lw	s0,88(sp)
   14096:	44d6                	lw	s1,84(sp)
   14098:	6125                	addi	sp,sp,96
   1409a:	8082                	ret

0001409c <_ZN18complex_no_dynamic3app17h4e7ea2f9a49f0b45E>:
   1409c:	711d                	addi	sp,sp,-96
   1409e:	ce86                	sw	ra,92(sp)
   140a0:	cca2                	sw	s0,88(sp)
   140a2:	caa6                	sw	s1,84(sp)
   140a4:	842a                	mv	s0,a0
   140a6:	00d10513          	addi	a0,sp,13
   140aa:	02300613          	li	a2,35
   140ae:	00009097          	auipc	ra,0x9
   140b2:	c82080e7          	jalr	-894(ra) # 1cd30 <memcpy>
   140b6:	1808                	addi	a0,sp,48
   140b8:	02400613          	li	a2,36
   140bc:	4581                	li	a1,0
   140be:	00009097          	auipc	ra,0x9
   140c2:	c06080e7          	jalr	-1018(ra) # 1ccc4 <memset>
   140c6:	6509                	lui	a0,0x2
   140c8:	4591                	li	a1,4
   140ca:	00d10613          	addi	a2,sp,13
   140ce:	02300693          	li	a3,35
   140d2:	bd650793          	addi	a5,a0,-1066 # 1bd6 <.Lline_table_start1+0x19ab>
   140d6:	4711                	li	a4,4
   140d8:	4489                	li	s1,2
   140da:	853e                	mv	a0,a5
   140dc:	00000073          	ecall
   140e0:	02950a63          	beq	a0,s1,14114 <_ZN18complex_no_dynamic3app17h4e7ea2f9a49f0b45E+0x78>
   140e4:	45a1                	li	a1,8
   140e6:	1810                	addi	a2,sp,48
   140e8:	02400693          	li	a3,36
   140ec:	470d                	li	a4,3
   140ee:	853e                	mv	a0,a5
   140f0:	00000073          	ecall
   140f4:	02950063          	beq	a0,s1,14114 <_ZN18complex_no_dynamic3app17h4e7ea2f9a49f0b45E+0x78>
   140f8:	6509                	lui	a0,0x2
   140fa:	4591                	li	a1,4
   140fc:	4621                	li	a2,8
   140fe:	bd650793          	addi	a5,a0,-1066 # 1bd6 <.Lline_table_start1+0x19ab>
   14102:	4709                	li	a4,2
   14104:	07f00493          	li	s1,127
   14108:	853e                	mv	a0,a5
   1410a:	4681                	li	a3,0
   1410c:	00000073          	ecall
   14110:	02a4eb63          	bltu	s1,a0,14146 <_ZN18complex_no_dynamic3app17h4e7ea2f9a49f0b45E+0xaa>
   14114:	4785                	li	a5,1
   14116:	c3a9                	beqz	a5,14158 <_ZN18complex_no_dynamic3app17h4e7ea2f9a49f0b45E+0xbc>
   14118:	4601                	li	a2,0
   1411a:	4681                	li	a3,0
   1411c:	4505                	li	a0,1
   1411e:	6709                	lui	a4,0x2
   14120:	87ae                	mv	a5,a1
   14122:	45a1                	li	a1,8
   14124:	00a40023          	sb	a0,0(s0)
   14128:	c05c                	sw	a5,4(s0)
   1412a:	bd670793          	addi	a5,a4,-1066 # 1bd6 <.Lline_table_start1+0x19ab>
   1412e:	470d                	li	a4,3
   14130:	853e                	mv	a0,a5
   14132:	00000073          	ecall
   14136:	4591                	li	a1,4
   14138:	4711                	li	a4,4
   1413a:	853e                	mv	a0,a5
   1413c:	4601                	li	a2,0
   1413e:	4681                	li	a3,0
   14140:	00000073          	ecall
   14144:	a8a9                	j	1419e <_ZN18complex_no_dynamic3app17h4e7ea2f9a49f0b45E+0x102>
   14146:	853e                	mv	a0,a5
   14148:	4601                	li	a2,0
   1414a:	4681                	li	a3,0
   1414c:	4781                	li	a5,0
   1414e:	45a1                	li	a1,8
   14150:	470d                	li	a4,3
   14152:	00000073          	ecall
   14156:	f3e9                	bnez	a5,14118 <_ZN18complex_no_dynamic3app17h4e7ea2f9a49f0b45E+0x7c>
   14158:	6509                	lui	a0,0x2
   1415a:	bd650493          	addi	s1,a0,-1066 # 1bd6 <.Lline_table_start1+0x19ab>
   1415e:	45a1                	li	a1,8
   14160:	470d                	li	a4,3
   14162:	8526                	mv	a0,s1
   14164:	4601                	li	a2,0
   14166:	4681                	li	a3,0
   14168:	00000073          	ecall
   1416c:	00140513          	addi	a0,s0,1
   14170:	180c                	addi	a1,sp,48
   14172:	02400613          	li	a2,36
   14176:	00009097          	auipc	ra,0x9
   1417a:	bba080e7          	jalr	-1094(ra) # 1cd30 <memcpy>
   1417e:	8526                	mv	a0,s1
   14180:	4601                	li	a2,0
   14182:	4681                	li	a3,0
   14184:	00040023          	sb	zero,0(s0)
   14188:	45a1                	li	a1,8
   1418a:	470d                	li	a4,3
   1418c:	00000073          	ecall
   14190:	4591                	li	a1,4
   14192:	4711                	li	a4,4
   14194:	8526                	mv	a0,s1
   14196:	4601                	li	a2,0
   14198:	4681                	li	a3,0
   1419a:	00000073          	ecall
   1419e:	40f6                	lw	ra,92(sp)
   141a0:	4466                	lw	s0,88(sp)
   141a2:	44d6                	lw	s1,84(sp)
   141a4:	6125                	addi	sp,sp,96
   141a6:	8082                	ret

000141a8 <_ZN18complex_no_dynamic3app17h4f9026ad9c23f03cE>:
   141a8:	7119                	addi	sp,sp,-128
   141aa:	de86                	sw	ra,124(sp)
   141ac:	dca2                	sw	s0,120(sp)
   141ae:	daa6                	sw	s1,116(sp)
   141b0:	842a                	mv	s0,a0
   141b2:	00d10513          	addi	a0,sp,13
   141b6:	04400613          	li	a2,68
   141ba:	00009097          	auipc	ra,0x9
   141be:	b76080e7          	jalr	-1162(ra) # 1cd30 <memcpy>
   141c2:	05110513          	addi	a0,sp,81
   141c6:	02300613          	li	a2,35
   141ca:	4581                	li	a1,0
   141cc:	00009097          	auipc	ra,0x9
   141d0:	af8080e7          	jalr	-1288(ra) # 1ccc4 <memset>
   141d4:	6505                	lui	a0,0x1
   141d6:	4599                	li	a1,6
   141d8:	00d10613          	addi	a2,sp,13
   141dc:	04400693          	li	a3,68
   141e0:	9bf50793          	addi	a5,a0,-1601 # 9bf <.Lline_table_start1+0x794>
   141e4:	4711                	li	a4,4
   141e6:	4489                	li	s1,2
   141e8:	853e                	mv	a0,a5
   141ea:	00000073          	ecall
   141ee:	02950b63          	beq	a0,s1,14224 <_ZN18complex_no_dynamic3app17h4f9026ad9c23f03cE+0x7c>
   141f2:	458d                	li	a1,3
   141f4:	05110613          	addi	a2,sp,81
   141f8:	02300693          	li	a3,35
   141fc:	470d                	li	a4,3
   141fe:	853e                	mv	a0,a5
   14200:	00000073          	ecall
   14204:	02950063          	beq	a0,s1,14224 <_ZN18complex_no_dynamic3app17h4f9026ad9c23f03cE+0x7c>
   14208:	6505                	lui	a0,0x1
   1420a:	4599                	li	a1,6
   1420c:	460d                	li	a2,3
   1420e:	9bf50793          	addi	a5,a0,-1601 # 9bf <.Lline_table_start1+0x794>
   14212:	4709                	li	a4,2
   14214:	07f00493          	li	s1,127
   14218:	853e                	mv	a0,a5
   1421a:	4681                	li	a3,0
   1421c:	00000073          	ecall
   14220:	02a4eb63          	bltu	s1,a0,14256 <_ZN18complex_no_dynamic3app17h4f9026ad9c23f03cE+0xae>
   14224:	4785                	li	a5,1
   14226:	c3a9                	beqz	a5,14268 <_ZN18complex_no_dynamic3app17h4f9026ad9c23f03cE+0xc0>
   14228:	4601                	li	a2,0
   1422a:	4681                	li	a3,0
   1422c:	4505                	li	a0,1
   1422e:	6705                	lui	a4,0x1
   14230:	87ae                	mv	a5,a1
   14232:	458d                	li	a1,3
   14234:	00a40023          	sb	a0,0(s0)
   14238:	c05c                	sw	a5,4(s0)
   1423a:	9bf70793          	addi	a5,a4,-1601 # 9bf <.Lline_table_start1+0x794>
   1423e:	470d                	li	a4,3
   14240:	853e                	mv	a0,a5
   14242:	00000073          	ecall
   14246:	4599                	li	a1,6
   14248:	4711                	li	a4,4
   1424a:	853e                	mv	a0,a5
   1424c:	4601                	li	a2,0
   1424e:	4681                	li	a3,0
   14250:	00000073          	ecall
   14254:	a8b1                	j	142b0 <_ZN18complex_no_dynamic3app17h4f9026ad9c23f03cE+0x108>
   14256:	853e                	mv	a0,a5
   14258:	4601                	li	a2,0
   1425a:	4681                	li	a3,0
   1425c:	4781                	li	a5,0
   1425e:	458d                	li	a1,3
   14260:	470d                	li	a4,3
   14262:	00000073          	ecall
   14266:	f3e9                	bnez	a5,14228 <_ZN18complex_no_dynamic3app17h4f9026ad9c23f03cE+0x80>
   14268:	6505                	lui	a0,0x1
   1426a:	9bf50493          	addi	s1,a0,-1601 # 9bf <.Lline_table_start1+0x794>
   1426e:	458d                	li	a1,3
   14270:	470d                	li	a4,3
   14272:	8526                	mv	a0,s1
   14274:	4601                	li	a2,0
   14276:	4681                	li	a3,0
   14278:	00000073          	ecall
   1427c:	00140513          	addi	a0,s0,1
   14280:	05110593          	addi	a1,sp,81
   14284:	02300613          	li	a2,35
   14288:	00009097          	auipc	ra,0x9
   1428c:	aa8080e7          	jalr	-1368(ra) # 1cd30 <memcpy>
   14290:	8526                	mv	a0,s1
   14292:	4601                	li	a2,0
   14294:	4681                	li	a3,0
   14296:	00040023          	sb	zero,0(s0)
   1429a:	458d                	li	a1,3
   1429c:	470d                	li	a4,3
   1429e:	00000073          	ecall
   142a2:	4599                	li	a1,6
   142a4:	4711                	li	a4,4
   142a6:	8526                	mv	a0,s1
   142a8:	4601                	li	a2,0
   142aa:	4681                	li	a3,0
   142ac:	00000073          	ecall
   142b0:	50f6                	lw	ra,124(sp)
   142b2:	5466                	lw	s0,120(sp)
   142b4:	54d6                	lw	s1,116(sp)
   142b6:	6109                	addi	sp,sp,128
   142b8:	8082                	ret

000142ba <_ZN18complex_no_dynamic3app17h5011886eb56c2c39E>:
   142ba:	7139                	addi	sp,sp,-64
   142bc:	de06                	sw	ra,60(sp)
   142be:	dc22                	sw	s0,56(sp)
   142c0:	da26                	sw	s1,52(sp)
   142c2:	d84a                	sw	s2,48(sp)
   142c4:	892a                	mv	s2,a0
   142c6:	0085c803          	lbu	a6,8(a1)
   142ca:	0095c603          	lbu	a2,9(a1)
   142ce:	00a5c683          	lbu	a3,10(a1)
   142d2:	00b5c703          	lbu	a4,11(a1)
   142d6:	0045c783          	lbu	a5,4(a1)
   142da:	0055c483          	lbu	s1,5(a1)
   142de:	0065c403          	lbu	s0,6(a1)
   142e2:	0075c503          	lbu	a0,7(a1)
   142e6:	0622                	slli	a2,a2,0x8
   142e8:	06c2                	slli	a3,a3,0x10
   142ea:	0762                	slli	a4,a4,0x18
   142ec:	04a2                	slli	s1,s1,0x8
   142ee:	0442                	slli	s0,s0,0x10
   142f0:	0562                	slli	a0,a0,0x18
   142f2:	01066833          	or	a6,a2,a6
   142f6:	8ed9                	or	a3,a3,a4
   142f8:	8fc5                	or	a5,a5,s1
   142fa:	0005c703          	lbu	a4,0(a1)
   142fe:	0015c483          	lbu	s1,1(a1)
   14302:	8d41                	or	a0,a0,s0
   14304:	0025c403          	lbu	s0,2(a1)
   14308:	0035c603          	lbu	a2,3(a1)
   1430c:	04a2                	slli	s1,s1,0x8
   1430e:	8f45                	or	a4,a4,s1
   14310:	0442                	slli	s0,s0,0x10
   14312:	0662                	slli	a2,a2,0x18
   14314:	8e41                	or	a2,a2,s0
   14316:	0106e6b3          	or	a3,a3,a6
   1431a:	8d5d                	or	a0,a0,a5
   1431c:	8e59                	or	a2,a2,a4
   1431e:	00c5c583          	lbu	a1,12(a1)
   14322:	c032                	sw	a2,0(sp)
   14324:	c22a                	sw	a0,4(sp)
   14326:	c436                	sw	a3,8(sp)
   14328:	00b10623          	sb	a1,12(sp)
   1432c:	00f10513          	addi	a0,sp,15
   14330:	02100613          	li	a2,33
   14334:	4581                	li	a1,0
   14336:	00009097          	auipc	ra,0x9
   1433a:	98e080e7          	jalr	-1650(ra) # 1ccc4 <memset>
   1433e:	6505                	lui	a0,0x1
   14340:	860a                	mv	a2,sp
   14342:	46b5                	li	a3,13
   14344:	6b050793          	addi	a5,a0,1712 # 16b0 <.Lline_table_start1+0x1485>
   14348:	4711                	li	a4,4
   1434a:	4489                	li	s1,2
   1434c:	853e                	mv	a0,a5
   1434e:	4581                	li	a1,0
   14350:	00000073          	ecall
   14354:	02950b63          	beq	a0,s1,1438a <_ZN18complex_no_dynamic3app17h5011886eb56c2c39E+0xd0>
   14358:	00f10613          	addi	a2,sp,15
   1435c:	02100693          	li	a3,33
   14360:	470d                	li	a4,3
   14362:	853e                	mv	a0,a5
   14364:	4581                	li	a1,0
   14366:	00000073          	ecall
   1436a:	02950063          	beq	a0,s1,1438a <_ZN18complex_no_dynamic3app17h5011886eb56c2c39E+0xd0>
   1436e:	6505                	lui	a0,0x1
   14370:	6b050793          	addi	a5,a0,1712 # 16b0 <.Lline_table_start1+0x1485>
   14374:	4709                	li	a4,2
   14376:	07f00493          	li	s1,127
   1437a:	853e                	mv	a0,a5
   1437c:	4581                	li	a1,0
   1437e:	4601                	li	a2,0
   14380:	4681                	li	a3,0
   14382:	00000073          	ecall
   14386:	02a4eb63          	bltu	s1,a0,143bc <_ZN18complex_no_dynamic3app17h5011886eb56c2c39E+0x102>
   1438a:	4785                	li	a5,1
   1438c:	c3a9                	beqz	a5,143ce <_ZN18complex_no_dynamic3app17h5011886eb56c2c39E+0x114>
   1438e:	4505                	li	a0,1
   14390:	6605                	lui	a2,0x1
   14392:	00a90023          	sb	a0,0(s2)
   14396:	00b92223          	sw	a1,4(s2)
   1439a:	6b060793          	addi	a5,a2,1712 # 16b0 <.Lline_table_start1+0x1485>
   1439e:	470d                	li	a4,3
   143a0:	853e                	mv	a0,a5
   143a2:	4581                	li	a1,0
   143a4:	4601                	li	a2,0
   143a6:	4681                	li	a3,0
   143a8:	00000073          	ecall
   143ac:	4711                	li	a4,4
   143ae:	853e                	mv	a0,a5
   143b0:	4581                	li	a1,0
   143b2:	4601                	li	a2,0
   143b4:	4681                	li	a3,0
   143b6:	00000073          	ecall
   143ba:	a8b1                	j	14416 <_ZN18complex_no_dynamic3app17h5011886eb56c2c39E+0x15c>
   143bc:	853e                	mv	a0,a5
   143be:	4581                	li	a1,0
   143c0:	4601                	li	a2,0
   143c2:	4681                	li	a3,0
   143c4:	4781                	li	a5,0
   143c6:	470d                	li	a4,3
   143c8:	00000073          	ecall
   143cc:	f3e9                	bnez	a5,1438e <_ZN18complex_no_dynamic3app17h5011886eb56c2c39E+0xd4>
   143ce:	6505                	lui	a0,0x1
   143d0:	6b050493          	addi	s1,a0,1712 # 16b0 <.Lline_table_start1+0x1485>
   143d4:	470d                	li	a4,3
   143d6:	8526                	mv	a0,s1
   143d8:	4581                	li	a1,0
   143da:	4601                	li	a2,0
   143dc:	4681                	li	a3,0
   143de:	00000073          	ecall
   143e2:	00190513          	addi	a0,s2,1
   143e6:	00f10593          	addi	a1,sp,15
   143ea:	02100613          	li	a2,33
   143ee:	00009097          	auipc	ra,0x9
   143f2:	942080e7          	jalr	-1726(ra) # 1cd30 <memcpy>
   143f6:	00090023          	sb	zero,0(s2)
   143fa:	470d                	li	a4,3
   143fc:	8526                	mv	a0,s1
   143fe:	4581                	li	a1,0
   14400:	4601                	li	a2,0
   14402:	4681                	li	a3,0
   14404:	00000073          	ecall
   14408:	4711                	li	a4,4
   1440a:	8526                	mv	a0,s1
   1440c:	4581                	li	a1,0
   1440e:	4601                	li	a2,0
   14410:	4681                	li	a3,0
   14412:	00000073          	ecall
   14416:	50f2                	lw	ra,60(sp)
   14418:	5462                	lw	s0,56(sp)
   1441a:	54d2                	lw	s1,52(sp)
   1441c:	5942                	lw	s2,48(sp)
   1441e:	6121                	addi	sp,sp,64
   14420:	8082                	ret

00014422 <_ZN18complex_no_dynamic3app17h5217cbaae0139557E>:
   14422:	7171                	addi	sp,sp,-176
   14424:	d706                	sw	ra,172(sp)
   14426:	d522                	sw	s0,168(sp)
   14428:	d326                	sw	s1,164(sp)
   1442a:	842a                	mv	s0,a0
   1442c:	00110513          	addi	a0,sp,1
   14430:	05900613          	li	a2,89
   14434:	00009097          	auipc	ra,0x9
   14438:	8fc080e7          	jalr	-1796(ra) # 1cd30 <memcpy>
   1443c:	05a10513          	addi	a0,sp,90
   14440:	04a00613          	li	a2,74
   14444:	4581                	li	a1,0
   14446:	00009097          	auipc	ra,0x9
   1444a:	87e080e7          	jalr	-1922(ra) # 1ccc4 <memset>
   1444e:	6505                	lui	a0,0x1
   14450:	00110613          	addi	a2,sp,1
   14454:	05900693          	li	a3,89
   14458:	48450793          	addi	a5,a0,1156 # 1484 <.Lline_table_start1+0x1259>
   1445c:	4711                	li	a4,4
   1445e:	4489                	li	s1,2
   14460:	853e                	mv	a0,a5
   14462:	4581                	li	a1,0
   14464:	00000073          	ecall
   14468:	02950b63          	beq	a0,s1,1449e <_ZN18complex_no_dynamic3app17h5217cbaae0139557E+0x7c>
   1446c:	4591                	li	a1,4
   1446e:	05a10613          	addi	a2,sp,90
   14472:	04a00693          	li	a3,74
   14476:	470d                	li	a4,3
   14478:	853e                	mv	a0,a5
   1447a:	00000073          	ecall
   1447e:	02950063          	beq	a0,s1,1449e <_ZN18complex_no_dynamic3app17h5217cbaae0139557E+0x7c>
   14482:	6505                	lui	a0,0x1
   14484:	4611                	li	a2,4
   14486:	48450793          	addi	a5,a0,1156 # 1484 <.Lline_table_start1+0x1259>
   1448a:	4709                	li	a4,2
   1448c:	07f00493          	li	s1,127
   14490:	853e                	mv	a0,a5
   14492:	4581                	li	a1,0
   14494:	4681                	li	a3,0
   14496:	00000073          	ecall
   1449a:	02a4ea63          	bltu	s1,a0,144ce <_ZN18complex_no_dynamic3app17h5217cbaae0139557E+0xac>
   1449e:	4785                	li	a5,1
   144a0:	c3a1                	beqz	a5,144e0 <_ZN18complex_no_dynamic3app17h5217cbaae0139557E+0xbe>
   144a2:	4505                	li	a0,1
   144a4:	6605                	lui	a2,0x1
   144a6:	00a40023          	sb	a0,0(s0)
   144aa:	c04c                	sw	a1,4(s0)
   144ac:	48460793          	addi	a5,a2,1156 # 1484 <.Lline_table_start1+0x1259>
   144b0:	4591                	li	a1,4
   144b2:	470d                	li	a4,3
   144b4:	853e                	mv	a0,a5
   144b6:	4601                	li	a2,0
   144b8:	4681                	li	a3,0
   144ba:	00000073          	ecall
   144be:	4711                	li	a4,4
   144c0:	853e                	mv	a0,a5
   144c2:	4581                	li	a1,0
   144c4:	4601                	li	a2,0
   144c6:	4681                	li	a3,0
   144c8:	00000073          	ecall
   144cc:	a8b1                	j	14528 <_ZN18complex_no_dynamic3app17h5217cbaae0139557E+0x106>
   144ce:	853e                	mv	a0,a5
   144d0:	4601                	li	a2,0
   144d2:	4681                	li	a3,0
   144d4:	4781                	li	a5,0
   144d6:	4591                	li	a1,4
   144d8:	470d                	li	a4,3
   144da:	00000073          	ecall
   144de:	f3f1                	bnez	a5,144a2 <_ZN18complex_no_dynamic3app17h5217cbaae0139557E+0x80>
   144e0:	6505                	lui	a0,0x1
   144e2:	48450493          	addi	s1,a0,1156 # 1484 <.Lline_table_start1+0x1259>
   144e6:	4591                	li	a1,4
   144e8:	470d                	li	a4,3
   144ea:	8526                	mv	a0,s1
   144ec:	4601                	li	a2,0
   144ee:	4681                	li	a3,0
   144f0:	00000073          	ecall
   144f4:	00140513          	addi	a0,s0,1
   144f8:	05a10593          	addi	a1,sp,90
   144fc:	04a00613          	li	a2,74
   14500:	00009097          	auipc	ra,0x9
   14504:	830080e7          	jalr	-2000(ra) # 1cd30 <memcpy>
   14508:	00040023          	sb	zero,0(s0)
   1450c:	4591                	li	a1,4
   1450e:	470d                	li	a4,3
   14510:	8526                	mv	a0,s1
   14512:	4601                	li	a2,0
   14514:	4681                	li	a3,0
   14516:	00000073          	ecall
   1451a:	4711                	li	a4,4
   1451c:	8526                	mv	a0,s1
   1451e:	4581                	li	a1,0
   14520:	4601                	li	a2,0
   14522:	4681                	li	a3,0
   14524:	00000073          	ecall
   14528:	50ba                	lw	ra,172(sp)
   1452a:	542a                	lw	s0,168(sp)
   1452c:	549a                	lw	s1,164(sp)
   1452e:	614d                	addi	sp,sp,176
   14530:	8082                	ret

00014532 <_ZN18complex_no_dynamic3app17h534a026d65b642abE>:
   14532:	7135                	addi	sp,sp,-160
   14534:	cf06                	sw	ra,156(sp)
   14536:	cd22                	sw	s0,152(sp)
   14538:	cb26                	sw	s1,148(sp)
   1453a:	842a                	mv	s0,a0
   1453c:	00a10513          	addi	a0,sp,10
   14540:	04f00613          	li	a2,79
   14544:	00008097          	auipc	ra,0x8
   14548:	7ec080e7          	jalr	2028(ra) # 1cd30 <memcpy>
   1454c:	05910513          	addi	a0,sp,89
   14550:	03b00613          	li	a2,59
   14554:	4581                	li	a1,0
   14556:	00008097          	auipc	ra,0x8
   1455a:	76e080e7          	jalr	1902(ra) # 1ccc4 <memset>
   1455e:	6505                	lui	a0,0x1
   14560:	45a1                	li	a1,8
   14562:	00a10613          	addi	a2,sp,10
   14566:	04f00693          	li	a3,79
   1456a:	a0650793          	addi	a5,a0,-1530 # a06 <.Lline_table_start1+0x7db>
   1456e:	4711                	li	a4,4
   14570:	4489                	li	s1,2
   14572:	853e                	mv	a0,a5
   14574:	00000073          	ecall
   14578:	02950b63          	beq	a0,s1,145ae <_ZN18complex_no_dynamic3app17h534a026d65b642abE+0x7c>
   1457c:	4595                	li	a1,5
   1457e:	05910613          	addi	a2,sp,89
   14582:	03b00693          	li	a3,59
   14586:	470d                	li	a4,3
   14588:	853e                	mv	a0,a5
   1458a:	00000073          	ecall
   1458e:	02950063          	beq	a0,s1,145ae <_ZN18complex_no_dynamic3app17h534a026d65b642abE+0x7c>
   14592:	6505                	lui	a0,0x1
   14594:	45a1                	li	a1,8
   14596:	4615                	li	a2,5
   14598:	a0650793          	addi	a5,a0,-1530 # a06 <.Lline_table_start1+0x7db>
   1459c:	4709                	li	a4,2
   1459e:	07f00493          	li	s1,127
   145a2:	853e                	mv	a0,a5
   145a4:	4681                	li	a3,0
   145a6:	00000073          	ecall
   145aa:	02a4eb63          	bltu	s1,a0,145e0 <_ZN18complex_no_dynamic3app17h534a026d65b642abE+0xae>
   145ae:	4785                	li	a5,1
   145b0:	c3a9                	beqz	a5,145f2 <_ZN18complex_no_dynamic3app17h534a026d65b642abE+0xc0>
   145b2:	4601                	li	a2,0
   145b4:	4681                	li	a3,0
   145b6:	4505                	li	a0,1
   145b8:	6705                	lui	a4,0x1
   145ba:	87ae                	mv	a5,a1
   145bc:	4595                	li	a1,5
   145be:	00a40023          	sb	a0,0(s0)
   145c2:	c05c                	sw	a5,4(s0)
   145c4:	a0670793          	addi	a5,a4,-1530 # a06 <.Lline_table_start1+0x7db>
   145c8:	470d                	li	a4,3
   145ca:	853e                	mv	a0,a5
   145cc:	00000073          	ecall
   145d0:	45a1                	li	a1,8
   145d2:	4711                	li	a4,4
   145d4:	853e                	mv	a0,a5
   145d6:	4601                	li	a2,0
   145d8:	4681                	li	a3,0
   145da:	00000073          	ecall
   145de:	a8b1                	j	1463a <_ZN18complex_no_dynamic3app17h534a026d65b642abE+0x108>
   145e0:	853e                	mv	a0,a5
   145e2:	4601                	li	a2,0
   145e4:	4681                	li	a3,0
   145e6:	4781                	li	a5,0
   145e8:	4595                	li	a1,5
   145ea:	470d                	li	a4,3
   145ec:	00000073          	ecall
   145f0:	f3e9                	bnez	a5,145b2 <_ZN18complex_no_dynamic3app17h534a026d65b642abE+0x80>
   145f2:	6505                	lui	a0,0x1
   145f4:	a0650493          	addi	s1,a0,-1530 # a06 <.Lline_table_start1+0x7db>
   145f8:	4595                	li	a1,5
   145fa:	470d                	li	a4,3
   145fc:	8526                	mv	a0,s1
   145fe:	4601                	li	a2,0
   14600:	4681                	li	a3,0
   14602:	00000073          	ecall
   14606:	00140513          	addi	a0,s0,1
   1460a:	05910593          	addi	a1,sp,89
   1460e:	03b00613          	li	a2,59
   14612:	00008097          	auipc	ra,0x8
   14616:	71e080e7          	jalr	1822(ra) # 1cd30 <memcpy>
   1461a:	8526                	mv	a0,s1
   1461c:	4601                	li	a2,0
   1461e:	4681                	li	a3,0
   14620:	00040023          	sb	zero,0(s0)
   14624:	4595                	li	a1,5
   14626:	470d                	li	a4,3
   14628:	00000073          	ecall
   1462c:	45a1                	li	a1,8
   1462e:	4711                	li	a4,4
   14630:	8526                	mv	a0,s1
   14632:	4601                	li	a2,0
   14634:	4681                	li	a3,0
   14636:	00000073          	ecall
   1463a:	40fa                	lw	ra,156(sp)
   1463c:	446a                	lw	s0,152(sp)
   1463e:	44da                	lw	s1,148(sp)
   14640:	610d                	addi	sp,sp,160
   14642:	8082                	ret

00014644 <_ZN18complex_no_dynamic3app17h55bbeca1b2c28630E>:
   14644:	711d                	addi	sp,sp,-96
   14646:	ce86                	sw	ra,92(sp)
   14648:	cca2                	sw	s0,88(sp)
   1464a:	caa6                	sw	s1,84(sp)
   1464c:	c8ca                	sw	s2,80(sp)
   1464e:	892a                	mv	s2,a0
   14650:	0145c803          	lbu	a6,20(a1)
   14654:	0155c383          	lbu	t2,21(a1)
   14658:	0165c403          	lbu	s0,22(a1)
   1465c:	0175c703          	lbu	a4,23(a1)
   14660:	0105c783          	lbu	a5,16(a1)
   14664:	0115c683          	lbu	a3,17(a1)
   14668:	0125c283          	lbu	t0,18(a1)
   1466c:	0135c303          	lbu	t1,19(a1)
   14670:	00c5c883          	lbu	a7,12(a1)
   14674:	00d5c483          	lbu	s1,13(a1)
   14678:	00e5c503          	lbu	a0,14(a1)
   1467c:	00f5c603          	lbu	a2,15(a1)
   14680:	03a2                	slli	t2,t2,0x8
   14682:	0442                	slli	s0,s0,0x10
   14684:	0762                	slli	a4,a4,0x18
   14686:	06a2                	slli	a3,a3,0x8
   14688:	0103e833          	or	a6,t2,a6
   1468c:	00876e33          	or	t3,a4,s0
   14690:	00f6e3b3          	or	t2,a3,a5
   14694:	0085c703          	lbu	a4,8(a1)
   14698:	0095c783          	lbu	a5,9(a1)
   1469c:	00a5c683          	lbu	a3,10(a1)
   146a0:	00b5c403          	lbu	s0,11(a1)
   146a4:	02c2                	slli	t0,t0,0x10
   146a6:	0362                	slli	t1,t1,0x18
   146a8:	04a2                	slli	s1,s1,0x8
   146aa:	0542                	slli	a0,a0,0x10
   146ac:	0662                	slli	a2,a2,0x18
   146ae:	07a2                	slli	a5,a5,0x8
   146b0:	005362b3          	or	t0,t1,t0
   146b4:	0114e8b3          	or	a7,s1,a7
   146b8:	00a66333          	or	t1,a2,a0
   146bc:	00e7eeb3          	or	t4,a5,a4
   146c0:	0045c603          	lbu	a2,4(a1)
   146c4:	0055c783          	lbu	a5,5(a1)
   146c8:	0065c483          	lbu	s1,6(a1)
   146cc:	0075c503          	lbu	a0,7(a1)
   146d0:	06c2                	slli	a3,a3,0x10
   146d2:	0462                	slli	s0,s0,0x18
   146d4:	07a2                	slli	a5,a5,0x8
   146d6:	04c2                	slli	s1,s1,0x10
   146d8:	0562                	slli	a0,a0,0x18
   146da:	8ec1                	or	a3,a3,s0
   146dc:	8e5d                	or	a2,a2,a5
   146de:	0005c783          	lbu	a5,0(a1)
   146e2:	0015c403          	lbu	s0,1(a1)
   146e6:	8d45                	or	a0,a0,s1
   146e8:	0025c483          	lbu	s1,2(a1)
   146ec:	0035c583          	lbu	a1,3(a1)
   146f0:	0422                	slli	s0,s0,0x8
   146f2:	8fc1                	or	a5,a5,s0
   146f4:	04c2                	slli	s1,s1,0x10
   146f6:	05e2                	slli	a1,a1,0x18
   146f8:	8dc5                	or	a1,a1,s1
   146fa:	010e64b3          	or	s1,t3,a6
   146fe:	0072e433          	or	s0,t0,t2
   14702:	01136733          	or	a4,t1,a7
   14706:	01d6e6b3          	or	a3,a3,t4
   1470a:	8d51                	or	a0,a0,a2
   1470c:	8ddd                	or	a1,a1,a5
   1470e:	c822                	sw	s0,16(sp)
   14710:	ca26                	sw	s1,20(sp)
   14712:	c02e                	sw	a1,0(sp)
   14714:	c22a                	sw	a0,4(sp)
   14716:	c436                	sw	a3,8(sp)
   14718:	c63a                	sw	a4,12(sp)
   1471a:	01a10513          	addi	a0,sp,26
   1471e:	03600613          	li	a2,54
   14722:	4581                	li	a1,0
   14724:	00008097          	auipc	ra,0x8
   14728:	5a0080e7          	jalr	1440(ra) # 1ccc4 <memset>
   1472c:	0f300513          	li	a0,243
   14730:	45a1                	li	a1,8
   14732:	860a                	mv	a2,sp
   14734:	46e1                	li	a3,24
   14736:	4711                	li	a4,4
   14738:	4789                	li	a5,2
   1473a:	00000073          	ecall
   1473e:	02f50a63          	beq	a0,a5,14772 <_ZN18complex_no_dynamic3app17h55bbeca1b2c28630E+0x12e>
   14742:	0f300513          	li	a0,243
   14746:	4591                	li	a1,4
   14748:	01a10613          	addi	a2,sp,26
   1474c:	03600693          	li	a3,54
   14750:	470d                	li	a4,3
   14752:	00000073          	ecall
   14756:	00f50e63          	beq	a0,a5,14772 <_ZN18complex_no_dynamic3app17h55bbeca1b2c28630E+0x12e>
   1475a:	0f300513          	li	a0,243
   1475e:	45a1                	li	a1,8
   14760:	4611                	li	a2,4
   14762:	4709                	li	a4,2
   14764:	07f00793          	li	a5,127
   14768:	4681                	li	a3,0
   1476a:	00000073          	ecall
   1476e:	02a7ea63          	bltu	a5,a0,147a2 <_ZN18complex_no_dynamic3app17h55bbeca1b2c28630E+0x15e>
   14772:	4785                	li	a5,1
   14774:	c3a9                	beqz	a5,147b6 <_ZN18complex_no_dynamic3app17h55bbeca1b2c28630E+0x172>
   14776:	4601                	li	a2,0
   14778:	4681                	li	a3,0
   1477a:	4705                	li	a4,1
   1477c:	0f300513          	li	a0,243
   14780:	00e90023          	sb	a4,0(s2)
   14784:	00b92223          	sw	a1,4(s2)
   14788:	4591                	li	a1,4
   1478a:	470d                	li	a4,3
   1478c:	00000073          	ecall
   14790:	0f300513          	li	a0,243
   14794:	45a1                	li	a1,8
   14796:	4711                	li	a4,4
   14798:	4601                	li	a2,0
   1479a:	4681                	li	a3,0
   1479c:	00000073          	ecall
   147a0:	a8b9                	j	147fe <_ZN18complex_no_dynamic3app17h55bbeca1b2c28630E+0x1ba>
   147a2:	4601                	li	a2,0
   147a4:	4681                	li	a3,0
   147a6:	4781                	li	a5,0
   147a8:	0f300513          	li	a0,243
   147ac:	4591                	li	a1,4
   147ae:	470d                	li	a4,3
   147b0:	00000073          	ecall
   147b4:	f3e9                	bnez	a5,14776 <_ZN18complex_no_dynamic3app17h55bbeca1b2c28630E+0x132>
   147b6:	0f300513          	li	a0,243
   147ba:	4591                	li	a1,4
   147bc:	470d                	li	a4,3
   147be:	4601                	li	a2,0
   147c0:	4681                	li	a3,0
   147c2:	00000073          	ecall
   147c6:	00190513          	addi	a0,s2,1
   147ca:	01a10593          	addi	a1,sp,26
   147ce:	03600613          	li	a2,54
   147d2:	00008097          	auipc	ra,0x8
   147d6:	55e080e7          	jalr	1374(ra) # 1cd30 <memcpy>
   147da:	4601                	li	a2,0
   147dc:	4681                	li	a3,0
   147de:	00090023          	sb	zero,0(s2)
   147e2:	0f300513          	li	a0,243
   147e6:	4591                	li	a1,4
   147e8:	470d                	li	a4,3
   147ea:	00000073          	ecall
   147ee:	0f300513          	li	a0,243
   147f2:	45a1                	li	a1,8
   147f4:	4711                	li	a4,4
   147f6:	4601                	li	a2,0
   147f8:	4681                	li	a3,0
   147fa:	00000073          	ecall
   147fe:	40f6                	lw	ra,92(sp)
   14800:	4466                	lw	s0,88(sp)
   14802:	44d6                	lw	s1,84(sp)
   14804:	4946                	lw	s2,80(sp)
   14806:	6125                	addi	sp,sp,96
   14808:	8082                	ret

0001480a <_ZN18complex_no_dynamic3app17h585277549db66631E>:
   1480a:	7159                	addi	sp,sp,-112
   1480c:	d686                	sw	ra,108(sp)
   1480e:	d4a2                	sw	s0,104(sp)
   14810:	d2a6                	sw	s1,100(sp)
   14812:	842a                	mv	s0,a0
   14814:	0068                	addi	a0,sp,12
   14816:	04800613          	li	a2,72
   1481a:	00008097          	auipc	ra,0x8
   1481e:	516080e7          	jalr	1302(ra) # 1cd30 <memcpy>
   14822:	06010123          	sb	zero,98(sp)
   14826:	ca82                	sw	zero,84(sp)
   14828:	cc82                	sw	zero,88(sp)
   1482a:	ce82                	sw	zero,92(sp)
   1482c:	06011023          	sh	zero,96(sp)
   14830:	6505                	lui	a0,0x1
   14832:	45a1                	li	a1,8
   14834:	0070                	addi	a2,sp,12
   14836:	04800693          	li	a3,72
   1483a:	11d50793          	addi	a5,a0,285 # 111d <.Lline_table_start1+0xef2>
   1483e:	4711                	li	a4,4
   14840:	4489                	li	s1,2
   14842:	853e                	mv	a0,a5
   14844:	00000073          	ecall
   14848:	02950963          	beq	a0,s1,1487a <_ZN18complex_no_dynamic3app17h585277549db66631E+0x70>
   1484c:	45a5                	li	a1,9
   1484e:	08d0                	addi	a2,sp,84
   14850:	46bd                	li	a3,15
   14852:	470d                	li	a4,3
   14854:	853e                	mv	a0,a5
   14856:	00000073          	ecall
   1485a:	02950063          	beq	a0,s1,1487a <_ZN18complex_no_dynamic3app17h585277549db66631E+0x70>
   1485e:	6505                	lui	a0,0x1
   14860:	45a1                	li	a1,8
   14862:	4625                	li	a2,9
   14864:	11d50793          	addi	a5,a0,285 # 111d <.Lline_table_start1+0xef2>
   14868:	4709                	li	a4,2
   1486a:	07f00493          	li	s1,127
   1486e:	853e                	mv	a0,a5
   14870:	4681                	li	a3,0
   14872:	00000073          	ecall
   14876:	02a4eb63          	bltu	s1,a0,148ac <_ZN18complex_no_dynamic3app17h585277549db66631E+0xa2>
   1487a:	4785                	li	a5,1
   1487c:	c3a9                	beqz	a5,148be <_ZN18complex_no_dynamic3app17h585277549db66631E+0xb4>
   1487e:	4601                	li	a2,0
   14880:	4681                	li	a3,0
   14882:	4505                	li	a0,1
   14884:	6705                	lui	a4,0x1
   14886:	87ae                	mv	a5,a1
   14888:	45a5                	li	a1,9
   1488a:	00a40023          	sb	a0,0(s0)
   1488e:	c05c                	sw	a5,4(s0)
   14890:	11d70793          	addi	a5,a4,285 # 111d <.Lline_table_start1+0xef2>
   14894:	470d                	li	a4,3
   14896:	853e                	mv	a0,a5
   14898:	00000073          	ecall
   1489c:	45a1                	li	a1,8
   1489e:	4711                	li	a4,4
   148a0:	853e                	mv	a0,a5
   148a2:	4601                	li	a2,0
   148a4:	4681                	li	a3,0
   148a6:	00000073          	ecall
   148aa:	a8a1                	j	14902 <_ZN18complex_no_dynamic3app17h585277549db66631E+0xf8>
   148ac:	853e                	mv	a0,a5
   148ae:	4601                	li	a2,0
   148b0:	4681                	li	a3,0
   148b2:	4781                	li	a5,0
   148b4:	45a5                	li	a1,9
   148b6:	470d                	li	a4,3
   148b8:	00000073          	ecall
   148bc:	f3e9                	bnez	a5,1487e <_ZN18complex_no_dynamic3app17h585277549db66631E+0x74>
   148be:	6505                	lui	a0,0x1
   148c0:	11d50493          	addi	s1,a0,285 # 111d <.Lline_table_start1+0xef2>
   148c4:	45a5                	li	a1,9
   148c6:	470d                	li	a4,3
   148c8:	8526                	mv	a0,s1
   148ca:	4601                	li	a2,0
   148cc:	4681                	li	a3,0
   148ce:	00000073          	ecall
   148d2:	00140513          	addi	a0,s0,1
   148d6:	08cc                	addi	a1,sp,84
   148d8:	463d                	li	a2,15
   148da:	00008097          	auipc	ra,0x8
   148de:	456080e7          	jalr	1110(ra) # 1cd30 <memcpy>
   148e2:	8526                	mv	a0,s1
   148e4:	4601                	li	a2,0
   148e6:	4681                	li	a3,0
   148e8:	00040023          	sb	zero,0(s0)
   148ec:	45a5                	li	a1,9
   148ee:	470d                	li	a4,3
   148f0:	00000073          	ecall
   148f4:	45a1                	li	a1,8
   148f6:	4711                	li	a4,4
   148f8:	8526                	mv	a0,s1
   148fa:	4601                	li	a2,0
   148fc:	4681                	li	a3,0
   148fe:	00000073          	ecall
   14902:	50b6                	lw	ra,108(sp)
   14904:	5426                	lw	s0,104(sp)
   14906:	5496                	lw	s1,100(sp)
   14908:	6165                	addi	sp,sp,112
   1490a:	8082                	ret

0001490c <_ZN18complex_no_dynamic3app17h5b6bd74a06ecadeeE>:
   1490c:	7119                	addi	sp,sp,-128
   1490e:	de86                	sw	ra,124(sp)
   14910:	dca2                	sw	s0,120(sp)
   14912:	daa6                	sw	s1,116(sp)
   14914:	d8ca                	sw	s2,112(sp)
   14916:	892a                	mv	s2,a0
   14918:	00d10513          	addi	a0,sp,13
   1491c:	04100613          	li	a2,65
   14920:	00008097          	auipc	ra,0x8
   14924:	410080e7          	jalr	1040(ra) # 1cd30 <memcpy>
   14928:	04e10513          	addi	a0,sp,78
   1492c:	02200613          	li	a2,34
   14930:	4581                	li	a1,0
   14932:	00008097          	auipc	ra,0x8
   14936:	392080e7          	jalr	914(ra) # 1ccc4 <memset>
   1493a:	6509                	lui	a0,0x2
   1493c:	4585                	li	a1,1
   1493e:	00d10613          	addi	a2,sp,13
   14942:	04100693          	li	a3,65
   14946:	4711                	li	a4,4
   14948:	47c50793          	addi	a5,a0,1148 # 247c <.Lline_table_start1+0x2251>
   1494c:	4409                	li	s0,2
   1494e:	853e                	mv	a0,a5
   14950:	00000073          	ecall
   14954:	4485                	li	s1,1
   14956:	04850663          	beq	a0,s0,149a2 <_ZN18complex_no_dynamic3app17h5b6bd74a06ecadeeE+0x96>
   1495a:	04e10613          	addi	a2,sp,78
   1495e:	02200693          	li	a3,34
   14962:	470d                	li	a4,3
   14964:	853e                	mv	a0,a5
   14966:	4581                	li	a1,0
   14968:	00000073          	ecall
   1496c:	00851463          	bne	a0,s0,14974 <_ZN18complex_no_dynamic3app17h5b6bd74a06ecadeeE+0x68>
   14970:	4485                	li	s1,1
   14972:	a805                	j	149a2 <_ZN18complex_no_dynamic3app17h5b6bd74a06ecadeeE+0x96>
   14974:	4601                	li	a2,0
   14976:	4681                	li	a3,0
   14978:	6509                	lui	a0,0x2
   1497a:	4585                	li	a1,1
   1497c:	4709                	li	a4,2
   1497e:	47c50793          	addi	a5,a0,1148 # 247c <.Lline_table_start1+0x2251>
   14982:	07f00413          	li	s0,127
   14986:	853e                	mv	a0,a5
   14988:	00000073          	ecall
   1498c:	4485                	li	s1,1
   1498e:	00a47a63          	bgeu	s0,a0,149a2 <_ZN18complex_no_dynamic3app17h5b6bd74a06ecadeeE+0x96>
   14992:	853e                	mv	a0,a5
   14994:	4581                	li	a1,0
   14996:	4601                	li	a2,0
   14998:	4681                	li	a3,0
   1499a:	4481                	li	s1,0
   1499c:	470d                	li	a4,3
   1499e:	00000073          	ecall
   149a2:	c88d                	beqz	s1,149d4 <_ZN18complex_no_dynamic3app17h5b6bd74a06ecadeeE+0xc8>
   149a4:	852e                	mv	a0,a1
   149a6:	4581                	li	a1,0
   149a8:	4601                	li	a2,0
   149aa:	4681                	li	a3,0
   149ac:	4705                	li	a4,1
   149ae:	6789                	lui	a5,0x2
   149b0:	00e90023          	sb	a4,0(s2)
   149b4:	00a92223          	sw	a0,4(s2)
   149b8:	47c78793          	addi	a5,a5,1148 # 247c <.Lline_table_start1+0x2251>
   149bc:	470d                	li	a4,3
   149be:	853e                	mv	a0,a5
   149c0:	00000073          	ecall
   149c4:	4585                	li	a1,1
   149c6:	4711                	li	a4,4
   149c8:	853e                	mv	a0,a5
   149ca:	4601                	li	a2,0
   149cc:	4681                	li	a3,0
   149ce:	00000073          	ecall
   149d2:	a0a9                	j	14a1c <_ZN18complex_no_dynamic3app17h5b6bd74a06ecadeeE+0x110>
   149d4:	6509                	lui	a0,0x2
   149d6:	47c50493          	addi	s1,a0,1148 # 247c <.Lline_table_start1+0x2251>
   149da:	470d                	li	a4,3
   149dc:	8526                	mv	a0,s1
   149de:	4581                	li	a1,0
   149e0:	4601                	li	a2,0
   149e2:	4681                	li	a3,0
   149e4:	00000073          	ecall
   149e8:	00190513          	addi	a0,s2,1
   149ec:	04e10593          	addi	a1,sp,78
   149f0:	02200613          	li	a2,34
   149f4:	00008097          	auipc	ra,0x8
   149f8:	33c080e7          	jalr	828(ra) # 1cd30 <memcpy>
   149fc:	8526                	mv	a0,s1
   149fe:	4581                	li	a1,0
   14a00:	4601                	li	a2,0
   14a02:	4681                	li	a3,0
   14a04:	00090023          	sb	zero,0(s2)
   14a08:	470d                	li	a4,3
   14a0a:	00000073          	ecall
   14a0e:	4585                	li	a1,1
   14a10:	4711                	li	a4,4
   14a12:	8526                	mv	a0,s1
   14a14:	4601                	li	a2,0
   14a16:	4681                	li	a3,0
   14a18:	00000073          	ecall
   14a1c:	50f6                	lw	ra,124(sp)
   14a1e:	5466                	lw	s0,120(sp)
   14a20:	54d6                	lw	s1,116(sp)
   14a22:	5946                	lw	s2,112(sp)
   14a24:	6109                	addi	sp,sp,128
   14a26:	8082                	ret

00014a28 <_ZN18complex_no_dynamic3app17h5e8e3dd900918cebE>:
   14a28:	7159                	addi	sp,sp,-112
   14a2a:	d686                	sw	ra,108(sp)
   14a2c:	d4a2                	sw	s0,104(sp)
   14a2e:	d2a6                	sw	s1,100(sp)
   14a30:	842a                	mv	s0,a0
   14a32:	00e10513          	addi	a0,sp,14
   14a36:	02c00613          	li	a2,44
   14a3a:	00008097          	auipc	ra,0x8
   14a3e:	2f6080e7          	jalr	758(ra) # 1cd30 <memcpy>
   14a42:	03a10513          	addi	a0,sp,58
   14a46:	02a00613          	li	a2,42
   14a4a:	4581                	li	a1,0
   14a4c:	00008097          	auipc	ra,0x8
   14a50:	278080e7          	jalr	632(ra) # 1ccc4 <memset>
   14a54:	6509                	lui	a0,0x2
   14a56:	458d                	li	a1,3
   14a58:	00e10613          	addi	a2,sp,14
   14a5c:	02c00693          	li	a3,44
   14a60:	4f050793          	addi	a5,a0,1264 # 24f0 <.Lline_table_start1+0x22c5>
   14a64:	4711                	li	a4,4
   14a66:	4489                	li	s1,2
   14a68:	853e                	mv	a0,a5
   14a6a:	00000073          	ecall
   14a6e:	02950b63          	beq	a0,s1,14aa4 <_ZN18complex_no_dynamic3app17h5e8e3dd900918cebE+0x7c>
   14a72:	03a10613          	addi	a2,sp,58
   14a76:	02a00693          	li	a3,42
   14a7a:	470d                	li	a4,3
   14a7c:	853e                	mv	a0,a5
   14a7e:	4581                	li	a1,0
   14a80:	00000073          	ecall
   14a84:	02950063          	beq	a0,s1,14aa4 <_ZN18complex_no_dynamic3app17h5e8e3dd900918cebE+0x7c>
   14a88:	6509                	lui	a0,0x2
   14a8a:	458d                	li	a1,3
   14a8c:	4f050793          	addi	a5,a0,1264 # 24f0 <.Lline_table_start1+0x22c5>
   14a90:	4709                	li	a4,2
   14a92:	07f00493          	li	s1,127
   14a96:	853e                	mv	a0,a5
   14a98:	4601                	li	a2,0
   14a9a:	4681                	li	a3,0
   14a9c:	00000073          	ecall
   14aa0:	02a4eb63          	bltu	s1,a0,14ad6 <_ZN18complex_no_dynamic3app17h5e8e3dd900918cebE+0xae>
   14aa4:	4785                	li	a5,1
   14aa6:	c3a9                	beqz	a5,14ae8 <_ZN18complex_no_dynamic3app17h5e8e3dd900918cebE+0xc0>
   14aa8:	852e                	mv	a0,a1
   14aaa:	4581                	li	a1,0
   14aac:	4601                	li	a2,0
   14aae:	4681                	li	a3,0
   14ab0:	4705                	li	a4,1
   14ab2:	6789                	lui	a5,0x2
   14ab4:	00e40023          	sb	a4,0(s0)
   14ab8:	c048                	sw	a0,4(s0)
   14aba:	4f078793          	addi	a5,a5,1264 # 24f0 <.Lline_table_start1+0x22c5>
   14abe:	470d                	li	a4,3
   14ac0:	853e                	mv	a0,a5
   14ac2:	00000073          	ecall
   14ac6:	458d                	li	a1,3
   14ac8:	4711                	li	a4,4
   14aca:	853e                	mv	a0,a5
   14acc:	4601                	li	a2,0
   14ace:	4681                	li	a3,0
   14ad0:	00000073          	ecall
   14ad4:	a8b1                	j	14b30 <_ZN18complex_no_dynamic3app17h5e8e3dd900918cebE+0x108>
   14ad6:	853e                	mv	a0,a5
   14ad8:	4581                	li	a1,0
   14ada:	4601                	li	a2,0
   14adc:	4681                	li	a3,0
   14ade:	4781                	li	a5,0
   14ae0:	470d                	li	a4,3
   14ae2:	00000073          	ecall
   14ae6:	f3e9                	bnez	a5,14aa8 <_ZN18complex_no_dynamic3app17h5e8e3dd900918cebE+0x80>
   14ae8:	6509                	lui	a0,0x2
   14aea:	4f050493          	addi	s1,a0,1264 # 24f0 <.Lline_table_start1+0x22c5>
   14aee:	470d                	li	a4,3
   14af0:	8526                	mv	a0,s1
   14af2:	4581                	li	a1,0
   14af4:	4601                	li	a2,0
   14af6:	4681                	li	a3,0
   14af8:	00000073          	ecall
   14afc:	00140513          	addi	a0,s0,1
   14b00:	03a10593          	addi	a1,sp,58
   14b04:	02a00613          	li	a2,42
   14b08:	00008097          	auipc	ra,0x8
   14b0c:	228080e7          	jalr	552(ra) # 1cd30 <memcpy>
   14b10:	8526                	mv	a0,s1
   14b12:	4581                	li	a1,0
   14b14:	4601                	li	a2,0
   14b16:	4681                	li	a3,0
   14b18:	00040023          	sb	zero,0(s0)
   14b1c:	470d                	li	a4,3
   14b1e:	00000073          	ecall
   14b22:	458d                	li	a1,3
   14b24:	4711                	li	a4,4
   14b26:	8526                	mv	a0,s1
   14b28:	4601                	li	a2,0
   14b2a:	4681                	li	a3,0
   14b2c:	00000073          	ecall
   14b30:	50b6                	lw	ra,108(sp)
   14b32:	5426                	lw	s0,104(sp)
   14b34:	5496                	lw	s1,100(sp)
   14b36:	6165                	addi	sp,sp,112
   14b38:	8082                	ret

00014b3a <_ZN18complex_no_dynamic3app17h62078588cad87800E>:
   14b3a:	7175                	addi	sp,sp,-144
   14b3c:	c706                	sw	ra,140(sp)
   14b3e:	c522                	sw	s0,136(sp)
   14b40:	842a                	mv	s0,a0
   14b42:	00710513          	addi	a0,sp,7
   14b46:	06100613          	li	a2,97
   14b4a:	00008097          	auipc	ra,0x8
   14b4e:	1e6080e7          	jalr	486(ra) # 1cd30 <memcpy>
   14b52:	dc82                	sw	zero,120(sp)
   14b54:	de82                	sw	zero,124(sp)
   14b56:	c102                	sw	zero,128(sp)
   14b58:	08011223          	sh	zero,132(sp)
   14b5c:	d482                	sw	zero,104(sp)
   14b5e:	d682                	sw	zero,108(sp)
   14b60:	d882                	sw	zero,112(sp)
   14b62:	da82                	sw	zero,116(sp)
   14b64:	18800513          	li	a0,392
   14b68:	4591                	li	a1,4
   14b6a:	00710613          	addi	a2,sp,7
   14b6e:	06100693          	li	a3,97
   14b72:	4711                	li	a4,4
   14b74:	4789                	li	a5,2
   14b76:	00000073          	ecall
   14b7a:	02f50863          	beq	a0,a5,14baa <_ZN18complex_no_dynamic3app17h62078588cad87800E+0x70>
   14b7e:	18800513          	li	a0,392
   14b82:	4599                	li	a1,6
   14b84:	10b0                	addi	a2,sp,104
   14b86:	46f9                	li	a3,30
   14b88:	470d                	li	a4,3
   14b8a:	00000073          	ecall
   14b8e:	00f50e63          	beq	a0,a5,14baa <_ZN18complex_no_dynamic3app17h62078588cad87800E+0x70>
   14b92:	18800513          	li	a0,392
   14b96:	4591                	li	a1,4
   14b98:	4619                	li	a2,6
   14b9a:	4709                	li	a4,2
   14b9c:	07f00793          	li	a5,127
   14ba0:	4681                	li	a3,0
   14ba2:	00000073          	ecall
   14ba6:	02a7e963          	bltu	a5,a0,14bd8 <_ZN18complex_no_dynamic3app17h62078588cad87800E+0x9e>
   14baa:	4785                	li	a5,1
   14bac:	c3a1                	beqz	a5,14bec <_ZN18complex_no_dynamic3app17h62078588cad87800E+0xb2>
   14bae:	4601                	li	a2,0
   14bb0:	4681                	li	a3,0
   14bb2:	4705                	li	a4,1
   14bb4:	18800513          	li	a0,392
   14bb8:	00e40023          	sb	a4,0(s0)
   14bbc:	c04c                	sw	a1,4(s0)
   14bbe:	4599                	li	a1,6
   14bc0:	470d                	li	a4,3
   14bc2:	00000073          	ecall
   14bc6:	18800513          	li	a0,392
   14bca:	4591                	li	a1,4
   14bcc:	4711                	li	a4,4
   14bce:	4601                	li	a2,0
   14bd0:	4681                	li	a3,0
   14bd2:	00000073          	ecall
   14bd6:	a8a9                	j	14c30 <_ZN18complex_no_dynamic3app17h62078588cad87800E+0xf6>
   14bd8:	4601                	li	a2,0
   14bda:	4681                	li	a3,0
   14bdc:	4781                	li	a5,0
   14bde:	18800513          	li	a0,392
   14be2:	4599                	li	a1,6
   14be4:	470d                	li	a4,3
   14be6:	00000073          	ecall
   14bea:	f3f1                	bnez	a5,14bae <_ZN18complex_no_dynamic3app17h62078588cad87800E+0x74>
   14bec:	18800513          	li	a0,392
   14bf0:	4599                	li	a1,6
   14bf2:	470d                	li	a4,3
   14bf4:	4601                	li	a2,0
   14bf6:	4681                	li	a3,0
   14bf8:	00000073          	ecall
   14bfc:	00140513          	addi	a0,s0,1
   14c00:	10ac                	addi	a1,sp,104
   14c02:	4679                	li	a2,30
   14c04:	00008097          	auipc	ra,0x8
   14c08:	12c080e7          	jalr	300(ra) # 1cd30 <memcpy>
   14c0c:	4601                	li	a2,0
   14c0e:	4681                	li	a3,0
   14c10:	00040023          	sb	zero,0(s0)
   14c14:	18800513          	li	a0,392
   14c18:	4599                	li	a1,6
   14c1a:	470d                	li	a4,3
   14c1c:	00000073          	ecall
   14c20:	18800513          	li	a0,392
   14c24:	4591                	li	a1,4
   14c26:	4711                	li	a4,4
   14c28:	4601                	li	a2,0
   14c2a:	4681                	li	a3,0
   14c2c:	00000073          	ecall
   14c30:	40ba                	lw	ra,140(sp)
   14c32:	442a                	lw	s0,136(sp)
   14c34:	6149                	addi	sp,sp,144
   14c36:	8082                	ret

00014c38 <_ZN18complex_no_dynamic3app17h64a1fbca1a426320E>:
   14c38:	7135                	addi	sp,sp,-160
   14c3a:	cf06                	sw	ra,156(sp)
   14c3c:	cd22                	sw	s0,152(sp)
   14c3e:	cb26                	sw	s1,148(sp)
   14c40:	842a                	mv	s0,a0
   14c42:	00d10513          	addi	a0,sp,13
   14c46:	05500613          	li	a2,85
   14c4a:	00008097          	auipc	ra,0x8
   14c4e:	0e6080e7          	jalr	230(ra) # 1cd30 <memcpy>
   14c52:	06210513          	addi	a0,sp,98
   14c56:	03200613          	li	a2,50
   14c5a:	4581                	li	a1,0
   14c5c:	00008097          	auipc	ra,0x8
   14c60:	068080e7          	jalr	104(ra) # 1ccc4 <memset>
   14c64:	6509                	lui	a0,0x2
   14c66:	45a1                	li	a1,8
   14c68:	00d10613          	addi	a2,sp,13
   14c6c:	05500693          	li	a3,85
   14c70:	09550793          	addi	a5,a0,149 # 2095 <.Lline_table_start1+0x1e6a>
   14c74:	4711                	li	a4,4
   14c76:	4489                	li	s1,2
   14c78:	853e                	mv	a0,a5
   14c7a:	00000073          	ecall
   14c7e:	02950b63          	beq	a0,s1,14cb4 <_ZN18complex_no_dynamic3app17h64a1fbca1a426320E+0x7c>
   14c82:	45a1                	li	a1,8
   14c84:	06210613          	addi	a2,sp,98
   14c88:	03200693          	li	a3,50
   14c8c:	470d                	li	a4,3
   14c8e:	853e                	mv	a0,a5
   14c90:	00000073          	ecall
   14c94:	02950063          	beq	a0,s1,14cb4 <_ZN18complex_no_dynamic3app17h64a1fbca1a426320E+0x7c>
   14c98:	6509                	lui	a0,0x2
   14c9a:	45a1                	li	a1,8
   14c9c:	4621                	li	a2,8
   14c9e:	09550793          	addi	a5,a0,149 # 2095 <.Lline_table_start1+0x1e6a>
   14ca2:	4709                	li	a4,2
   14ca4:	07f00493          	li	s1,127
   14ca8:	853e                	mv	a0,a5
   14caa:	4681                	li	a3,0
   14cac:	00000073          	ecall
   14cb0:	02a4eb63          	bltu	s1,a0,14ce6 <_ZN18complex_no_dynamic3app17h64a1fbca1a426320E+0xae>
   14cb4:	4785                	li	a5,1
   14cb6:	c3a9                	beqz	a5,14cf8 <_ZN18complex_no_dynamic3app17h64a1fbca1a426320E+0xc0>
   14cb8:	4601                	li	a2,0
   14cba:	4681                	li	a3,0
   14cbc:	4505                	li	a0,1
   14cbe:	6709                	lui	a4,0x2
   14cc0:	87ae                	mv	a5,a1
   14cc2:	45a1                	li	a1,8
   14cc4:	00a40023          	sb	a0,0(s0)
   14cc8:	c05c                	sw	a5,4(s0)
   14cca:	09570793          	addi	a5,a4,149 # 2095 <.Lline_table_start1+0x1e6a>
   14cce:	470d                	li	a4,3
   14cd0:	853e                	mv	a0,a5
   14cd2:	00000073          	ecall
   14cd6:	45a1                	li	a1,8
   14cd8:	4711                	li	a4,4
   14cda:	853e                	mv	a0,a5
   14cdc:	4601                	li	a2,0
   14cde:	4681                	li	a3,0
   14ce0:	00000073          	ecall
   14ce4:	a8b1                	j	14d40 <_ZN18complex_no_dynamic3app17h64a1fbca1a426320E+0x108>
   14ce6:	853e                	mv	a0,a5
   14ce8:	4601                	li	a2,0
   14cea:	4681                	li	a3,0
   14cec:	4781                	li	a5,0
   14cee:	45a1                	li	a1,8
   14cf0:	470d                	li	a4,3
   14cf2:	00000073          	ecall
   14cf6:	f3e9                	bnez	a5,14cb8 <_ZN18complex_no_dynamic3app17h64a1fbca1a426320E+0x80>
   14cf8:	6509                	lui	a0,0x2
   14cfa:	09550493          	addi	s1,a0,149 # 2095 <.Lline_table_start1+0x1e6a>
   14cfe:	45a1                	li	a1,8
   14d00:	470d                	li	a4,3
   14d02:	8526                	mv	a0,s1
   14d04:	4601                	li	a2,0
   14d06:	4681                	li	a3,0
   14d08:	00000073          	ecall
   14d0c:	00140513          	addi	a0,s0,1
   14d10:	06210593          	addi	a1,sp,98
   14d14:	03200613          	li	a2,50
   14d18:	00008097          	auipc	ra,0x8
   14d1c:	018080e7          	jalr	24(ra) # 1cd30 <memcpy>
   14d20:	8526                	mv	a0,s1
   14d22:	4601                	li	a2,0
   14d24:	4681                	li	a3,0
   14d26:	00040023          	sb	zero,0(s0)
   14d2a:	45a1                	li	a1,8
   14d2c:	470d                	li	a4,3
   14d2e:	00000073          	ecall
   14d32:	45a1                	li	a1,8
   14d34:	4711                	li	a4,4
   14d36:	8526                	mv	a0,s1
   14d38:	4601                	li	a2,0
   14d3a:	4681                	li	a3,0
   14d3c:	00000073          	ecall
   14d40:	40fa                	lw	ra,156(sp)
   14d42:	446a                	lw	s0,152(sp)
   14d44:	44da                	lw	s1,148(sp)
   14d46:	610d                	addi	sp,sp,160
   14d48:	8082                	ret

00014d4a <_ZN18complex_no_dynamic3app17h69a68c4e4ef3bfb1E>:
   14d4a:	711d                	addi	sp,sp,-96
   14d4c:	ce86                	sw	ra,92(sp)
   14d4e:	cca2                	sw	s0,88(sp)
   14d50:	caa6                	sw	s1,84(sp)
   14d52:	c8ca                	sw	s2,80(sp)
   14d54:	892a                	mv	s2,a0
   14d56:	00510513          	addi	a0,sp,5
   14d5a:	02100613          	li	a2,33
   14d5e:	00008097          	auipc	ra,0x8
   14d62:	fd2080e7          	jalr	-46(ra) # 1cd30 <memcpy>
   14d66:	02610513          	addi	a0,sp,38
   14d6a:	02a00613          	li	a2,42
   14d6e:	4581                	li	a1,0
   14d70:	00008097          	auipc	ra,0x8
   14d74:	f54080e7          	jalr	-172(ra) # 1ccc4 <memset>
   14d78:	6505                	lui	a0,0x1
   14d7a:	4585                	li	a1,1
   14d7c:	00510613          	addi	a2,sp,5
   14d80:	02100693          	li	a3,33
   14d84:	4711                	li	a4,4
   14d86:	5f350793          	addi	a5,a0,1523 # 15f3 <.Lline_table_start1+0x13c8>
   14d8a:	4409                	li	s0,2
   14d8c:	853e                	mv	a0,a5
   14d8e:	00000073          	ecall
   14d92:	4485                	li	s1,1
   14d94:	04850663          	beq	a0,s0,14de0 <_ZN18complex_no_dynamic3app17h69a68c4e4ef3bfb1E+0x96>
   14d98:	458d                	li	a1,3
   14d9a:	02610613          	addi	a2,sp,38
   14d9e:	02a00693          	li	a3,42
   14da2:	470d                	li	a4,3
   14da4:	853e                	mv	a0,a5
   14da6:	00000073          	ecall
   14daa:	00851463          	bne	a0,s0,14db2 <_ZN18complex_no_dynamic3app17h69a68c4e4ef3bfb1E+0x68>
   14dae:	4485                	li	s1,1
   14db0:	a805                	j	14de0 <_ZN18complex_no_dynamic3app17h69a68c4e4ef3bfb1E+0x96>
   14db2:	4681                	li	a3,0
   14db4:	6505                	lui	a0,0x1
   14db6:	4585                	li	a1,1
   14db8:	460d                	li	a2,3
   14dba:	4709                	li	a4,2
   14dbc:	5f350793          	addi	a5,a0,1523 # 15f3 <.Lline_table_start1+0x13c8>
   14dc0:	07f00413          	li	s0,127
   14dc4:	853e                	mv	a0,a5
   14dc6:	00000073          	ecall
   14dca:	4485                	li	s1,1
   14dcc:	00a47a63          	bgeu	s0,a0,14de0 <_ZN18complex_no_dynamic3app17h69a68c4e4ef3bfb1E+0x96>
   14dd0:	853e                	mv	a0,a5
   14dd2:	4601                	li	a2,0
   14dd4:	4681                	li	a3,0
   14dd6:	4481                	li	s1,0
   14dd8:	458d                	li	a1,3
   14dda:	470d                	li	a4,3
   14ddc:	00000073          	ecall
   14de0:	c88d                	beqz	s1,14e12 <_ZN18complex_no_dynamic3app17h69a68c4e4ef3bfb1E+0xc8>
   14de2:	4601                	li	a2,0
   14de4:	4681                	li	a3,0
   14de6:	4505                	li	a0,1
   14de8:	6705                	lui	a4,0x1
   14dea:	87ae                	mv	a5,a1
   14dec:	458d                	li	a1,3
   14dee:	00a90023          	sb	a0,0(s2)
   14df2:	00f92223          	sw	a5,4(s2)
   14df6:	5f370793          	addi	a5,a4,1523 # 15f3 <.Lline_table_start1+0x13c8>
   14dfa:	470d                	li	a4,3
   14dfc:	853e                	mv	a0,a5
   14dfe:	00000073          	ecall
   14e02:	4585                	li	a1,1
   14e04:	4711                	li	a4,4
   14e06:	853e                	mv	a0,a5
   14e08:	4601                	li	a2,0
   14e0a:	4681                	li	a3,0
   14e0c:	00000073          	ecall
   14e10:	a0a9                	j	14e5a <_ZN18complex_no_dynamic3app17h69a68c4e4ef3bfb1E+0x110>
   14e12:	6505                	lui	a0,0x1
   14e14:	5f350493          	addi	s1,a0,1523 # 15f3 <.Lline_table_start1+0x13c8>
   14e18:	458d                	li	a1,3
   14e1a:	470d                	li	a4,3
   14e1c:	8526                	mv	a0,s1
   14e1e:	4601                	li	a2,0
   14e20:	4681                	li	a3,0
   14e22:	00000073          	ecall
   14e26:	00190513          	addi	a0,s2,1
   14e2a:	02610593          	addi	a1,sp,38
   14e2e:	02a00613          	li	a2,42
   14e32:	00008097          	auipc	ra,0x8
   14e36:	efe080e7          	jalr	-258(ra) # 1cd30 <memcpy>
   14e3a:	8526                	mv	a0,s1
   14e3c:	4601                	li	a2,0
   14e3e:	4681                	li	a3,0
   14e40:	00090023          	sb	zero,0(s2)
   14e44:	458d                	li	a1,3
   14e46:	470d                	li	a4,3
   14e48:	00000073          	ecall
   14e4c:	4585                	li	a1,1
   14e4e:	4711                	li	a4,4
   14e50:	8526                	mv	a0,s1
   14e52:	4601                	li	a2,0
   14e54:	4681                	li	a3,0
   14e56:	00000073          	ecall
   14e5a:	40f6                	lw	ra,92(sp)
   14e5c:	4466                	lw	s0,88(sp)
   14e5e:	44d6                	lw	s1,84(sp)
   14e60:	4946                	lw	s2,80(sp)
   14e62:	6125                	addi	sp,sp,96
   14e64:	8082                	ret

00014e66 <_ZN18complex_no_dynamic3app17h6d1343c295aac3d6E>:
   14e66:	7135                	addi	sp,sp,-160
   14e68:	cf06                	sw	ra,156(sp)
   14e6a:	cd22                	sw	s0,152(sp)
   14e6c:	cb26                	sw	s1,148(sp)
   14e6e:	c94a                	sw	s2,144(sp)
   14e70:	892a                	mv	s2,a0
   14e72:	00d10513          	addi	a0,sp,13
   14e76:	02a00613          	li	a2,42
   14e7a:	00008097          	auipc	ra,0x8
   14e7e:	eb6080e7          	jalr	-330(ra) # 1cd30 <memcpy>
   14e82:	03710513          	addi	a0,sp,55
   14e86:	05900613          	li	a2,89
   14e8a:	4581                	li	a1,0
   14e8c:	00008097          	auipc	ra,0x8
   14e90:	e38080e7          	jalr	-456(ra) # 1ccc4 <memset>
   14e94:	6505                	lui	a0,0x1
   14e96:	4585                	li	a1,1
   14e98:	00d10613          	addi	a2,sp,13
   14e9c:	02a00693          	li	a3,42
   14ea0:	4711                	li	a4,4
   14ea2:	ed250793          	addi	a5,a0,-302 # ed2 <.Lline_table_start1+0xca7>
   14ea6:	4409                	li	s0,2
   14ea8:	853e                	mv	a0,a5
   14eaa:	00000073          	ecall
   14eae:	4485                	li	s1,1
   14eb0:	04850663          	beq	a0,s0,14efc <_ZN18complex_no_dynamic3app17h6d1343c295aac3d6E+0x96>
   14eb4:	458d                	li	a1,3
   14eb6:	03710613          	addi	a2,sp,55
   14eba:	05900693          	li	a3,89
   14ebe:	470d                	li	a4,3
   14ec0:	853e                	mv	a0,a5
   14ec2:	00000073          	ecall
   14ec6:	00851463          	bne	a0,s0,14ece <_ZN18complex_no_dynamic3app17h6d1343c295aac3d6E+0x68>
   14eca:	4485                	li	s1,1
   14ecc:	a805                	j	14efc <_ZN18complex_no_dynamic3app17h6d1343c295aac3d6E+0x96>
   14ece:	4681                	li	a3,0
   14ed0:	6505                	lui	a0,0x1
   14ed2:	4585                	li	a1,1
   14ed4:	460d                	li	a2,3
   14ed6:	4709                	li	a4,2
   14ed8:	ed250793          	addi	a5,a0,-302 # ed2 <.Lline_table_start1+0xca7>
   14edc:	07f00413          	li	s0,127
   14ee0:	853e                	mv	a0,a5
   14ee2:	00000073          	ecall
   14ee6:	4485                	li	s1,1
   14ee8:	00a47a63          	bgeu	s0,a0,14efc <_ZN18complex_no_dynamic3app17h6d1343c295aac3d6E+0x96>
   14eec:	853e                	mv	a0,a5
   14eee:	4601                	li	a2,0
   14ef0:	4681                	li	a3,0
   14ef2:	4481                	li	s1,0
   14ef4:	458d                	li	a1,3
   14ef6:	470d                	li	a4,3
   14ef8:	00000073          	ecall
   14efc:	c88d                	beqz	s1,14f2e <_ZN18complex_no_dynamic3app17h6d1343c295aac3d6E+0xc8>
   14efe:	4601                	li	a2,0
   14f00:	4681                	li	a3,0
   14f02:	4505                	li	a0,1
   14f04:	6705                	lui	a4,0x1
   14f06:	87ae                	mv	a5,a1
   14f08:	458d                	li	a1,3
   14f0a:	00a90023          	sb	a0,0(s2)
   14f0e:	00f92223          	sw	a5,4(s2)
   14f12:	ed270793          	addi	a5,a4,-302 # ed2 <.Lline_table_start1+0xca7>
   14f16:	470d                	li	a4,3
   14f18:	853e                	mv	a0,a5
   14f1a:	00000073          	ecall
   14f1e:	4585                	li	a1,1
   14f20:	4711                	li	a4,4
   14f22:	853e                	mv	a0,a5
   14f24:	4601                	li	a2,0
   14f26:	4681                	li	a3,0
   14f28:	00000073          	ecall
   14f2c:	a0a9                	j	14f76 <_ZN18complex_no_dynamic3app17h6d1343c295aac3d6E+0x110>
   14f2e:	6505                	lui	a0,0x1
   14f30:	ed250493          	addi	s1,a0,-302 # ed2 <.Lline_table_start1+0xca7>
   14f34:	458d                	li	a1,3
   14f36:	470d                	li	a4,3
   14f38:	8526                	mv	a0,s1
   14f3a:	4601                	li	a2,0
   14f3c:	4681                	li	a3,0
   14f3e:	00000073          	ecall
   14f42:	00190513          	addi	a0,s2,1
   14f46:	03710593          	addi	a1,sp,55
   14f4a:	05900613          	li	a2,89
   14f4e:	00008097          	auipc	ra,0x8
   14f52:	de2080e7          	jalr	-542(ra) # 1cd30 <memcpy>
   14f56:	8526                	mv	a0,s1
   14f58:	4601                	li	a2,0
   14f5a:	4681                	li	a3,0
   14f5c:	00090023          	sb	zero,0(s2)
   14f60:	458d                	li	a1,3
   14f62:	470d                	li	a4,3
   14f64:	00000073          	ecall
   14f68:	4585                	li	a1,1
   14f6a:	4711                	li	a4,4
   14f6c:	8526                	mv	a0,s1
   14f6e:	4601                	li	a2,0
   14f70:	4681                	li	a3,0
   14f72:	00000073          	ecall
   14f76:	40fa                	lw	ra,156(sp)
   14f78:	446a                	lw	s0,152(sp)
   14f7a:	44da                	lw	s1,148(sp)
   14f7c:	494a                	lw	s2,144(sp)
   14f7e:	610d                	addi	sp,sp,160
   14f80:	8082                	ret

00014f82 <_ZN18complex_no_dynamic3app17h6e6f1b9c367206faE>:
   14f82:	7171                	addi	sp,sp,-176
   14f84:	d706                	sw	ra,172(sp)
   14f86:	d522                	sw	s0,168(sp)
   14f88:	d326                	sw	s1,164(sp)
   14f8a:	842a                	mv	s0,a0
   14f8c:	00d10513          	addi	a0,sp,13
   14f90:	03a00613          	li	a2,58
   14f94:	00008097          	auipc	ra,0x8
   14f98:	d9c080e7          	jalr	-612(ra) # 1cd30 <memcpy>
   14f9c:	04710513          	addi	a0,sp,71
   14fa0:	05d00613          	li	a2,93
   14fa4:	4581                	li	a1,0
   14fa6:	00008097          	auipc	ra,0x8
   14faa:	d1e080e7          	jalr	-738(ra) # 1ccc4 <memset>
   14fae:	6505                	lui	a0,0x1
   14fb0:	00d10613          	addi	a2,sp,13
   14fb4:	03a00693          	li	a3,58
   14fb8:	4a450793          	addi	a5,a0,1188 # 14a4 <.Lline_table_start1+0x1279>
   14fbc:	4711                	li	a4,4
   14fbe:	4489                	li	s1,2
   14fc0:	853e                	mv	a0,a5
   14fc2:	4581                	li	a1,0
   14fc4:	00000073          	ecall
   14fc8:	02950b63          	beq	a0,s1,14ffe <_ZN18complex_no_dynamic3app17h6e6f1b9c367206faE+0x7c>
   14fcc:	4595                	li	a1,5
   14fce:	04710613          	addi	a2,sp,71
   14fd2:	05d00693          	li	a3,93
   14fd6:	470d                	li	a4,3
   14fd8:	853e                	mv	a0,a5
   14fda:	00000073          	ecall
   14fde:	02950063          	beq	a0,s1,14ffe <_ZN18complex_no_dynamic3app17h6e6f1b9c367206faE+0x7c>
   14fe2:	6505                	lui	a0,0x1
   14fe4:	4615                	li	a2,5
   14fe6:	4a450793          	addi	a5,a0,1188 # 14a4 <.Lline_table_start1+0x1279>
   14fea:	4709                	li	a4,2
   14fec:	07f00493          	li	s1,127
   14ff0:	853e                	mv	a0,a5
   14ff2:	4581                	li	a1,0
   14ff4:	4681                	li	a3,0
   14ff6:	00000073          	ecall
   14ffa:	02a4ea63          	bltu	s1,a0,1502e <_ZN18complex_no_dynamic3app17h6e6f1b9c367206faE+0xac>
   14ffe:	4785                	li	a5,1
   15000:	c3a1                	beqz	a5,15040 <_ZN18complex_no_dynamic3app17h6e6f1b9c367206faE+0xbe>
   15002:	4505                	li	a0,1
   15004:	6605                	lui	a2,0x1
   15006:	00a40023          	sb	a0,0(s0)
   1500a:	c04c                	sw	a1,4(s0)
   1500c:	4a460793          	addi	a5,a2,1188 # 14a4 <.Lline_table_start1+0x1279>
   15010:	4595                	li	a1,5
   15012:	470d                	li	a4,3
   15014:	853e                	mv	a0,a5
   15016:	4601                	li	a2,0
   15018:	4681                	li	a3,0
   1501a:	00000073          	ecall
   1501e:	4711                	li	a4,4
   15020:	853e                	mv	a0,a5
   15022:	4581                	li	a1,0
   15024:	4601                	li	a2,0
   15026:	4681                	li	a3,0
   15028:	00000073          	ecall
   1502c:	a8b1                	j	15088 <_ZN18complex_no_dynamic3app17h6e6f1b9c367206faE+0x106>
   1502e:	853e                	mv	a0,a5
   15030:	4601                	li	a2,0
   15032:	4681                	li	a3,0
   15034:	4781                	li	a5,0
   15036:	4595                	li	a1,5
   15038:	470d                	li	a4,3
   1503a:	00000073          	ecall
   1503e:	f3f1                	bnez	a5,15002 <_ZN18complex_no_dynamic3app17h6e6f1b9c367206faE+0x80>
   15040:	6505                	lui	a0,0x1
   15042:	4a450493          	addi	s1,a0,1188 # 14a4 <.Lline_table_start1+0x1279>
   15046:	4595                	li	a1,5
   15048:	470d                	li	a4,3
   1504a:	8526                	mv	a0,s1
   1504c:	4601                	li	a2,0
   1504e:	4681                	li	a3,0
   15050:	00000073          	ecall
   15054:	00140513          	addi	a0,s0,1
   15058:	04710593          	addi	a1,sp,71
   1505c:	05d00613          	li	a2,93
   15060:	00008097          	auipc	ra,0x8
   15064:	cd0080e7          	jalr	-816(ra) # 1cd30 <memcpy>
   15068:	00040023          	sb	zero,0(s0)
   1506c:	4595                	li	a1,5
   1506e:	470d                	li	a4,3
   15070:	8526                	mv	a0,s1
   15072:	4601                	li	a2,0
   15074:	4681                	li	a3,0
   15076:	00000073          	ecall
   1507a:	4711                	li	a4,4
   1507c:	8526                	mv	a0,s1
   1507e:	4581                	li	a1,0
   15080:	4601                	li	a2,0
   15082:	4681                	li	a3,0
   15084:	00000073          	ecall
   15088:	50ba                	lw	ra,172(sp)
   1508a:	542a                	lw	s0,168(sp)
   1508c:	549a                	lw	s1,164(sp)
   1508e:	614d                	addi	sp,sp,176
   15090:	8082                	ret

00015092 <_ZN18complex_no_dynamic3app17h735dfadbb77675a5E>:
   15092:	7159                	addi	sp,sp,-112
   15094:	d686                	sw	ra,108(sp)
   15096:	d4a2                	sw	s0,104(sp)
   15098:	d2a6                	sw	s1,100(sp)
   1509a:	842a                	mv	s0,a0
   1509c:	00310513          	addi	a0,sp,3
   150a0:	05100613          	li	a2,81
   150a4:	00008097          	auipc	ra,0x8
   150a8:	c8c080e7          	jalr	-884(ra) # 1cd30 <memcpy>
   150ac:	06010123          	sb	zero,98(sp)
   150b0:	ca82                	sw	zero,84(sp)
   150b2:	cc82                	sw	zero,88(sp)
   150b4:	ce82                	sw	zero,92(sp)
   150b6:	06011023          	sh	zero,96(sp)
   150ba:	6505                	lui	a0,0x1
   150bc:	00310613          	addi	a2,sp,3
   150c0:	05100693          	li	a3,81
   150c4:	3bf50793          	addi	a5,a0,959 # 13bf <.Lline_table_start1+0x1194>
   150c8:	4711                	li	a4,4
   150ca:	4489                	li	s1,2
   150cc:	853e                	mv	a0,a5
   150ce:	4581                	li	a1,0
   150d0:	00000073          	ecall
   150d4:	02950963          	beq	a0,s1,15106 <_ZN18complex_no_dynamic3app17h735dfadbb77675a5E+0x74>
   150d8:	458d                	li	a1,3
   150da:	08d0                	addi	a2,sp,84
   150dc:	46bd                	li	a3,15
   150de:	470d                	li	a4,3
   150e0:	853e                	mv	a0,a5
   150e2:	00000073          	ecall
   150e6:	02950063          	beq	a0,s1,15106 <_ZN18complex_no_dynamic3app17h735dfadbb77675a5E+0x74>
   150ea:	6505                	lui	a0,0x1
   150ec:	460d                	li	a2,3
   150ee:	3bf50793          	addi	a5,a0,959 # 13bf <.Lline_table_start1+0x1194>
   150f2:	4709                	li	a4,2
   150f4:	07f00493          	li	s1,127
   150f8:	853e                	mv	a0,a5
   150fa:	4581                	li	a1,0
   150fc:	4681                	li	a3,0
   150fe:	00000073          	ecall
   15102:	02a4ea63          	bltu	s1,a0,15136 <_ZN18complex_no_dynamic3app17h735dfadbb77675a5E+0xa4>
   15106:	4785                	li	a5,1
   15108:	c3a1                	beqz	a5,15148 <_ZN18complex_no_dynamic3app17h735dfadbb77675a5E+0xb6>
   1510a:	4505                	li	a0,1
   1510c:	6605                	lui	a2,0x1
   1510e:	00a40023          	sb	a0,0(s0)
   15112:	c04c                	sw	a1,4(s0)
   15114:	3bf60793          	addi	a5,a2,959 # 13bf <.Lline_table_start1+0x1194>
   15118:	458d                	li	a1,3
   1511a:	470d                	li	a4,3
   1511c:	853e                	mv	a0,a5
   1511e:	4601                	li	a2,0
   15120:	4681                	li	a3,0
   15122:	00000073          	ecall
   15126:	4711                	li	a4,4
   15128:	853e                	mv	a0,a5
   1512a:	4581                	li	a1,0
   1512c:	4601                	li	a2,0
   1512e:	4681                	li	a3,0
   15130:	00000073          	ecall
   15134:	a8a1                	j	1518c <_ZN18complex_no_dynamic3app17h735dfadbb77675a5E+0xfa>
   15136:	853e                	mv	a0,a5
   15138:	4601                	li	a2,0
   1513a:	4681                	li	a3,0
   1513c:	4781                	li	a5,0
   1513e:	458d                	li	a1,3
   15140:	470d                	li	a4,3
   15142:	00000073          	ecall
   15146:	f3f1                	bnez	a5,1510a <_ZN18complex_no_dynamic3app17h735dfadbb77675a5E+0x78>
   15148:	6505                	lui	a0,0x1
   1514a:	3bf50493          	addi	s1,a0,959 # 13bf <.Lline_table_start1+0x1194>
   1514e:	458d                	li	a1,3
   15150:	470d                	li	a4,3
   15152:	8526                	mv	a0,s1
   15154:	4601                	li	a2,0
   15156:	4681                	li	a3,0
   15158:	00000073          	ecall
   1515c:	00140513          	addi	a0,s0,1
   15160:	08cc                	addi	a1,sp,84
   15162:	463d                	li	a2,15
   15164:	00008097          	auipc	ra,0x8
   15168:	bcc080e7          	jalr	-1076(ra) # 1cd30 <memcpy>
   1516c:	00040023          	sb	zero,0(s0)
   15170:	458d                	li	a1,3
   15172:	470d                	li	a4,3
   15174:	8526                	mv	a0,s1
   15176:	4601                	li	a2,0
   15178:	4681                	li	a3,0
   1517a:	00000073          	ecall
   1517e:	4711                	li	a4,4
   15180:	8526                	mv	a0,s1
   15182:	4581                	li	a1,0
   15184:	4601                	li	a2,0
   15186:	4681                	li	a3,0
   15188:	00000073          	ecall
   1518c:	50b6                	lw	ra,108(sp)
   1518e:	5426                	lw	s0,104(sp)
   15190:	5496                	lw	s1,100(sp)
   15192:	6165                	addi	sp,sp,112
   15194:	8082                	ret

00015196 <_ZN18complex_no_dynamic3app17h7836111cedd7a282E>:
   15196:	7159                	addi	sp,sp,-112
   15198:	d686                	sw	ra,108(sp)
   1519a:	d4a2                	sw	s0,104(sp)
   1519c:	d2a6                	sw	s1,100(sp)
   1519e:	842a                	mv	s0,a0
   151a0:	00210513          	addi	a0,sp,2
   151a4:	03b00613          	li	a2,59
   151a8:	00008097          	auipc	ra,0x8
   151ac:	b88080e7          	jalr	-1144(ra) # 1cd30 <memcpy>
   151b0:	03d10513          	addi	a0,sp,61
   151b4:	02700613          	li	a2,39
   151b8:	4581                	li	a1,0
   151ba:	00008097          	auipc	ra,0x8
   151be:	b0a080e7          	jalr	-1270(ra) # 1ccc4 <memset>
   151c2:	6505                	lui	a0,0x1
   151c4:	4595                	li	a1,5
   151c6:	00210613          	addi	a2,sp,2
   151ca:	03b00693          	li	a3,59
   151ce:	bd350793          	addi	a5,a0,-1069 # bd3 <.Lline_table_start1+0x9a8>
   151d2:	4711                	li	a4,4
   151d4:	4489                	li	s1,2
   151d6:	853e                	mv	a0,a5
   151d8:	00000073          	ecall
   151dc:	02950b63          	beq	a0,s1,15212 <_ZN18complex_no_dynamic3app17h7836111cedd7a282E+0x7c>
   151e0:	458d                	li	a1,3
   151e2:	03d10613          	addi	a2,sp,61
   151e6:	02700693          	li	a3,39
   151ea:	470d                	li	a4,3
   151ec:	853e                	mv	a0,a5
   151ee:	00000073          	ecall
   151f2:	02950063          	beq	a0,s1,15212 <_ZN18complex_no_dynamic3app17h7836111cedd7a282E+0x7c>
   151f6:	6505                	lui	a0,0x1
   151f8:	4595                	li	a1,5
   151fa:	460d                	li	a2,3
   151fc:	bd350793          	addi	a5,a0,-1069 # bd3 <.Lline_table_start1+0x9a8>
   15200:	4709                	li	a4,2
   15202:	07f00493          	li	s1,127
   15206:	853e                	mv	a0,a5
   15208:	4681                	li	a3,0
   1520a:	00000073          	ecall
   1520e:	02a4eb63          	bltu	s1,a0,15244 <_ZN18complex_no_dynamic3app17h7836111cedd7a282E+0xae>
   15212:	4785                	li	a5,1
   15214:	c3a9                	beqz	a5,15256 <_ZN18complex_no_dynamic3app17h7836111cedd7a282E+0xc0>
   15216:	4601                	li	a2,0
   15218:	4681                	li	a3,0
   1521a:	4505                	li	a0,1
   1521c:	6705                	lui	a4,0x1
   1521e:	87ae                	mv	a5,a1
   15220:	458d                	li	a1,3
   15222:	00a40023          	sb	a0,0(s0)
   15226:	c05c                	sw	a5,4(s0)
   15228:	bd370793          	addi	a5,a4,-1069 # bd3 <.Lline_table_start1+0x9a8>
   1522c:	470d                	li	a4,3
   1522e:	853e                	mv	a0,a5
   15230:	00000073          	ecall
   15234:	4595                	li	a1,5
   15236:	4711                	li	a4,4
   15238:	853e                	mv	a0,a5
   1523a:	4601                	li	a2,0
   1523c:	4681                	li	a3,0
   1523e:	00000073          	ecall
   15242:	a8b1                	j	1529e <_ZN18complex_no_dynamic3app17h7836111cedd7a282E+0x108>
   15244:	853e                	mv	a0,a5
   15246:	4601                	li	a2,0
   15248:	4681                	li	a3,0
   1524a:	4781                	li	a5,0
   1524c:	458d                	li	a1,3
   1524e:	470d                	li	a4,3
   15250:	00000073          	ecall
   15254:	f3e9                	bnez	a5,15216 <_ZN18complex_no_dynamic3app17h7836111cedd7a282E+0x80>
   15256:	6505                	lui	a0,0x1
   15258:	bd350493          	addi	s1,a0,-1069 # bd3 <.Lline_table_start1+0x9a8>
   1525c:	458d                	li	a1,3
   1525e:	470d                	li	a4,3
   15260:	8526                	mv	a0,s1
   15262:	4601                	li	a2,0
   15264:	4681                	li	a3,0
   15266:	00000073          	ecall
   1526a:	00140513          	addi	a0,s0,1
   1526e:	03d10593          	addi	a1,sp,61
   15272:	02700613          	li	a2,39
   15276:	00008097          	auipc	ra,0x8
   1527a:	aba080e7          	jalr	-1350(ra) # 1cd30 <memcpy>
   1527e:	8526                	mv	a0,s1
   15280:	4601                	li	a2,0
   15282:	4681                	li	a3,0
   15284:	00040023          	sb	zero,0(s0)
   15288:	458d                	li	a1,3
   1528a:	470d                	li	a4,3
   1528c:	00000073          	ecall
   15290:	4595                	li	a1,5
   15292:	4711                	li	a4,4
   15294:	8526                	mv	a0,s1
   15296:	4601                	li	a2,0
   15298:	4681                	li	a3,0
   1529a:	00000073          	ecall
   1529e:	50b6                	lw	ra,108(sp)
   152a0:	5426                	lw	s0,104(sp)
   152a2:	5496                	lw	s1,100(sp)
   152a4:	6165                	addi	sp,sp,112
   152a6:	8082                	ret

000152a8 <_ZN18complex_no_dynamic3app17h78c1f7e0f37bfd44E>:
   152a8:	7119                	addi	sp,sp,-128
   152aa:	de86                	sw	ra,124(sp)
   152ac:	dca2                	sw	s0,120(sp)
   152ae:	daa6                	sw	s1,116(sp)
   152b0:	84aa                	mv	s1,a0
   152b2:	0028                	addi	a0,sp,8
   152b4:	05000613          	li	a2,80
   152b8:	00008097          	auipc	ra,0x8
   152bc:	a78080e7          	jalr	-1416(ra) # 1cd30 <memcpy>
   152c0:	d482                	sw	zero,104(sp)
   152c2:	d682                	sw	zero,108(sp)
   152c4:	06011823          	sh	zero,112(sp)
   152c8:	06010923          	sb	zero,114(sp)
   152cc:	cc82                	sw	zero,88(sp)
   152ce:	ce82                	sw	zero,92(sp)
   152d0:	d082                	sw	zero,96(sp)
   152d2:	d282                	sw	zero,100(sp)
   152d4:	3d900513          	li	a0,985
   152d8:	4585                	li	a1,1
   152da:	0030                	addi	a2,sp,8
   152dc:	05000693          	li	a3,80
   152e0:	4711                	li	a4,4
   152e2:	4409                	li	s0,2
   152e4:	00000073          	ecall
   152e8:	4785                	li	a5,1
   152ea:	04850463          	beq	a0,s0,15332 <_ZN18complex_no_dynamic3app17h78c1f7e0f37bfd44E+0x8a>
   152ee:	3d900513          	li	a0,985
   152f2:	4589                	li	a1,2
   152f4:	08b0                	addi	a2,sp,88
   152f6:	46ed                	li	a3,27
   152f8:	470d                	li	a4,3
   152fa:	00000073          	ecall
   152fe:	00851463          	bne	a0,s0,15306 <_ZN18complex_no_dynamic3app17h78c1f7e0f37bfd44E+0x5e>
   15302:	4785                	li	a5,1
   15304:	a03d                	j	15332 <_ZN18complex_no_dynamic3app17h78c1f7e0f37bfd44E+0x8a>
   15306:	4681                	li	a3,0
   15308:	3d900513          	li	a0,985
   1530c:	4585                	li	a1,1
   1530e:	4609                	li	a2,2
   15310:	4709                	li	a4,2
   15312:	07f00413          	li	s0,127
   15316:	00000073          	ecall
   1531a:	4785                	li	a5,1
   1531c:	00a47b63          	bgeu	s0,a0,15332 <_ZN18complex_no_dynamic3app17h78c1f7e0f37bfd44E+0x8a>
   15320:	4601                	li	a2,0
   15322:	4681                	li	a3,0
   15324:	4781                	li	a5,0
   15326:	3d900513          	li	a0,985
   1532a:	4589                	li	a1,2
   1532c:	470d                	li	a4,3
   1532e:	00000073          	ecall
   15332:	c795                	beqz	a5,1535e <_ZN18complex_no_dynamic3app17h78c1f7e0f37bfd44E+0xb6>
   15334:	4601                	li	a2,0
   15336:	4681                	li	a3,0
   15338:	4705                	li	a4,1
   1533a:	3d900513          	li	a0,985
   1533e:	00e48023          	sb	a4,0(s1)
   15342:	c0cc                	sw	a1,4(s1)
   15344:	4589                	li	a1,2
   15346:	470d                	li	a4,3
   15348:	00000073          	ecall
   1534c:	3d900513          	li	a0,985
   15350:	4585                	li	a1,1
   15352:	4711                	li	a4,4
   15354:	4601                	li	a2,0
   15356:	4681                	li	a3,0
   15358:	00000073          	ecall
   1535c:	a099                	j	153a2 <_ZN18complex_no_dynamic3app17h78c1f7e0f37bfd44E+0xfa>
   1535e:	3d900513          	li	a0,985
   15362:	4589                	li	a1,2
   15364:	470d                	li	a4,3
   15366:	4601                	li	a2,0
   15368:	4681                	li	a3,0
   1536a:	00000073          	ecall
   1536e:	00148513          	addi	a0,s1,1
   15372:	08ac                	addi	a1,sp,88
   15374:	466d                	li	a2,27
   15376:	00008097          	auipc	ra,0x8
   1537a:	9ba080e7          	jalr	-1606(ra) # 1cd30 <memcpy>
   1537e:	4601                	li	a2,0
   15380:	4681                	li	a3,0
   15382:	00048023          	sb	zero,0(s1)
   15386:	3d900513          	li	a0,985
   1538a:	4589                	li	a1,2
   1538c:	470d                	li	a4,3
   1538e:	00000073          	ecall
   15392:	3d900513          	li	a0,985
   15396:	4585                	li	a1,1
   15398:	4711                	li	a4,4
   1539a:	4601                	li	a2,0
   1539c:	4681                	li	a3,0
   1539e:	00000073          	ecall
   153a2:	50f6                	lw	ra,124(sp)
   153a4:	5466                	lw	s0,120(sp)
   153a6:	54d6                	lw	s1,116(sp)
   153a8:	6109                	addi	sp,sp,128
   153aa:	8082                	ret

000153ac <_ZN18complex_no_dynamic3app17h829e5989d524a74fE>:
   153ac:	711d                	addi	sp,sp,-96
   153ae:	ce86                	sw	ra,92(sp)
   153b0:	cca2                	sw	s0,88(sp)
   153b2:	caa6                	sw	s1,84(sp)
   153b4:	842a                	mv	s0,a0
   153b6:	00110513          	addi	a0,sp,1
   153ba:	02400613          	li	a2,36
   153be:	00008097          	auipc	ra,0x8
   153c2:	972080e7          	jalr	-1678(ra) # 1cd30 <memcpy>
   153c6:	02510513          	addi	a0,sp,37
   153ca:	02f00613          	li	a2,47
   153ce:	4581                	li	a1,0
   153d0:	00008097          	auipc	ra,0x8
   153d4:	8f4080e7          	jalr	-1804(ra) # 1ccc4 <memset>
   153d8:	6505                	lui	a0,0x1
   153da:	4599                	li	a1,6
   153dc:	00110613          	addi	a2,sp,1
   153e0:	02400693          	li	a3,36
   153e4:	27350793          	addi	a5,a0,627 # 1273 <.Lline_table_start1+0x1048>
   153e8:	4711                	li	a4,4
   153ea:	4489                	li	s1,2
   153ec:	853e                	mv	a0,a5
   153ee:	00000073          	ecall
   153f2:	02950b63          	beq	a0,s1,15428 <_ZN18complex_no_dynamic3app17h829e5989d524a74fE+0x7c>
   153f6:	45a5                	li	a1,9
   153f8:	02510613          	addi	a2,sp,37
   153fc:	02f00693          	li	a3,47
   15400:	470d                	li	a4,3
   15402:	853e                	mv	a0,a5
   15404:	00000073          	ecall
   15408:	02950063          	beq	a0,s1,15428 <_ZN18complex_no_dynamic3app17h829e5989d524a74fE+0x7c>
   1540c:	6505                	lui	a0,0x1
   1540e:	4599                	li	a1,6
   15410:	4625                	li	a2,9
   15412:	27350793          	addi	a5,a0,627 # 1273 <.Lline_table_start1+0x1048>
   15416:	4709                	li	a4,2
   15418:	07f00493          	li	s1,127
   1541c:	853e                	mv	a0,a5
   1541e:	4681                	li	a3,0
   15420:	00000073          	ecall
   15424:	02a4eb63          	bltu	s1,a0,1545a <_ZN18complex_no_dynamic3app17h829e5989d524a74fE+0xae>
   15428:	4785                	li	a5,1
   1542a:	c3a9                	beqz	a5,1546c <_ZN18complex_no_dynamic3app17h829e5989d524a74fE+0xc0>
   1542c:	4601                	li	a2,0
   1542e:	4681                	li	a3,0
   15430:	4505                	li	a0,1
   15432:	6705                	lui	a4,0x1
   15434:	87ae                	mv	a5,a1
   15436:	45a5                	li	a1,9
   15438:	00a40023          	sb	a0,0(s0)
   1543c:	c05c                	sw	a5,4(s0)
   1543e:	27370793          	addi	a5,a4,627 # 1273 <.Lline_table_start1+0x1048>
   15442:	470d                	li	a4,3
   15444:	853e                	mv	a0,a5
   15446:	00000073          	ecall
   1544a:	4599                	li	a1,6
   1544c:	4711                	li	a4,4
   1544e:	853e                	mv	a0,a5
   15450:	4601                	li	a2,0
   15452:	4681                	li	a3,0
   15454:	00000073          	ecall
   15458:	a8b1                	j	154b4 <_ZN18complex_no_dynamic3app17h829e5989d524a74fE+0x108>
   1545a:	853e                	mv	a0,a5
   1545c:	4601                	li	a2,0
   1545e:	4681                	li	a3,0
   15460:	4781                	li	a5,0
   15462:	45a5                	li	a1,9
   15464:	470d                	li	a4,3
   15466:	00000073          	ecall
   1546a:	f3e9                	bnez	a5,1542c <_ZN18complex_no_dynamic3app17h829e5989d524a74fE+0x80>
   1546c:	6505                	lui	a0,0x1
   1546e:	27350493          	addi	s1,a0,627 # 1273 <.Lline_table_start1+0x1048>
   15472:	45a5                	li	a1,9
   15474:	470d                	li	a4,3
   15476:	8526                	mv	a0,s1
   15478:	4601                	li	a2,0
   1547a:	4681                	li	a3,0
   1547c:	00000073          	ecall
   15480:	00140513          	addi	a0,s0,1
   15484:	02510593          	addi	a1,sp,37
   15488:	02f00613          	li	a2,47
   1548c:	00008097          	auipc	ra,0x8
   15490:	8a4080e7          	jalr	-1884(ra) # 1cd30 <memcpy>
   15494:	8526                	mv	a0,s1
   15496:	4601                	li	a2,0
   15498:	4681                	li	a3,0
   1549a:	00040023          	sb	zero,0(s0)
   1549e:	45a5                	li	a1,9
   154a0:	470d                	li	a4,3
   154a2:	00000073          	ecall
   154a6:	4599                	li	a1,6
   154a8:	4711                	li	a4,4
   154aa:	8526                	mv	a0,s1
   154ac:	4601                	li	a2,0
   154ae:	4681                	li	a3,0
   154b0:	00000073          	ecall
   154b4:	40f6                	lw	ra,92(sp)
   154b6:	4466                	lw	s0,88(sp)
   154b8:	44d6                	lw	s1,84(sp)
   154ba:	6125                	addi	sp,sp,96
   154bc:	8082                	ret

000154be <_ZN18complex_no_dynamic3app17h8673c20c0653bfbbE>:
   154be:	715d                	addi	sp,sp,-80
   154c0:	c686                	sw	ra,76(sp)
   154c2:	c4a2                	sw	s0,72(sp)
   154c4:	c2a6                	sw	s1,68(sp)
   154c6:	842a                	mv	s0,a0
   154c8:	00210513          	addi	a0,sp,2
   154cc:	03200613          	li	a2,50
   154d0:	00008097          	auipc	ra,0x8
   154d4:	860080e7          	jalr	-1952(ra) # 1cd30 <memcpy>
   154d8:	da02                	sw	zero,52(sp)
   154da:	dc02                	sw	zero,56(sp)
   154dc:	de02                	sw	zero,60(sp)
   154de:	c082                	sw	zero,64(sp)
   154e0:	6509                	lui	a0,0x2
   154e2:	4591                	li	a1,4
   154e4:	00210613          	addi	a2,sp,2
   154e8:	03200693          	li	a3,50
   154ec:	9d650793          	addi	a5,a0,-1578 # 19d6 <.Lline_table_start1+0x17ab>
   154f0:	4711                	li	a4,4
   154f2:	4489                	li	s1,2
   154f4:	853e                	mv	a0,a5
   154f6:	00000073          	ecall
   154fa:	02950963          	beq	a0,s1,1552c <_ZN18complex_no_dynamic3app17h8673c20c0653bfbbE+0x6e>
   154fe:	45a5                	li	a1,9
   15500:	1850                	addi	a2,sp,52
   15502:	46c1                	li	a3,16
   15504:	470d                	li	a4,3
   15506:	853e                	mv	a0,a5
   15508:	00000073          	ecall
   1550c:	02950063          	beq	a0,s1,1552c <_ZN18complex_no_dynamic3app17h8673c20c0653bfbbE+0x6e>
   15510:	6509                	lui	a0,0x2
   15512:	4591                	li	a1,4
   15514:	4625                	li	a2,9
   15516:	9d650793          	addi	a5,a0,-1578 # 19d6 <.Lline_table_start1+0x17ab>
   1551a:	4709                	li	a4,2
   1551c:	07f00493          	li	s1,127
   15520:	853e                	mv	a0,a5
   15522:	4681                	li	a3,0
   15524:	00000073          	ecall
   15528:	02a4eb63          	bltu	s1,a0,1555e <_ZN18complex_no_dynamic3app17h8673c20c0653bfbbE+0xa0>
   1552c:	4785                	li	a5,1
   1552e:	c3a9                	beqz	a5,15570 <_ZN18complex_no_dynamic3app17h8673c20c0653bfbbE+0xb2>
   15530:	4601                	li	a2,0
   15532:	4681                	li	a3,0
   15534:	4505                	li	a0,1
   15536:	6709                	lui	a4,0x2
   15538:	87ae                	mv	a5,a1
   1553a:	45a5                	li	a1,9
   1553c:	00a40023          	sb	a0,0(s0)
   15540:	c05c                	sw	a5,4(s0)
   15542:	9d670793          	addi	a5,a4,-1578 # 19d6 <.Lline_table_start1+0x17ab>
   15546:	470d                	li	a4,3
   15548:	853e                	mv	a0,a5
   1554a:	00000073          	ecall
   1554e:	4591                	li	a1,4
   15550:	4711                	li	a4,4
   15552:	853e                	mv	a0,a5
   15554:	4601                	li	a2,0
   15556:	4681                	li	a3,0
   15558:	00000073          	ecall
   1555c:	a8a1                	j	155b4 <_ZN18complex_no_dynamic3app17h8673c20c0653bfbbE+0xf6>
   1555e:	853e                	mv	a0,a5
   15560:	4601                	li	a2,0
   15562:	4681                	li	a3,0
   15564:	4781                	li	a5,0
   15566:	45a5                	li	a1,9
   15568:	470d                	li	a4,3
   1556a:	00000073          	ecall
   1556e:	f3e9                	bnez	a5,15530 <_ZN18complex_no_dynamic3app17h8673c20c0653bfbbE+0x72>
   15570:	6509                	lui	a0,0x2
   15572:	9d650493          	addi	s1,a0,-1578 # 19d6 <.Lline_table_start1+0x17ab>
   15576:	45a5                	li	a1,9
   15578:	470d                	li	a4,3
   1557a:	8526                	mv	a0,s1
   1557c:	4601                	li	a2,0
   1557e:	4681                	li	a3,0
   15580:	00000073          	ecall
   15584:	00140513          	addi	a0,s0,1
   15588:	184c                	addi	a1,sp,52
   1558a:	4641                	li	a2,16
   1558c:	00007097          	auipc	ra,0x7
   15590:	7a4080e7          	jalr	1956(ra) # 1cd30 <memcpy>
   15594:	8526                	mv	a0,s1
   15596:	4601                	li	a2,0
   15598:	4681                	li	a3,0
   1559a:	00040023          	sb	zero,0(s0)
   1559e:	45a5                	li	a1,9
   155a0:	470d                	li	a4,3
   155a2:	00000073          	ecall
   155a6:	4591                	li	a1,4
   155a8:	4711                	li	a4,4
   155aa:	8526                	mv	a0,s1
   155ac:	4601                	li	a2,0
   155ae:	4681                	li	a3,0
   155b0:	00000073          	ecall
   155b4:	40b6                	lw	ra,76(sp)
   155b6:	4426                	lw	s0,72(sp)
   155b8:	4496                	lw	s1,68(sp)
   155ba:	6161                	addi	sp,sp,80
   155bc:	8082                	ret

000155be <_ZN18complex_no_dynamic3app17h87454d05e7aac5e9E>:
   155be:	7159                	addi	sp,sp,-112
   155c0:	d686                	sw	ra,108(sp)
   155c2:	d4a2                	sw	s0,104(sp)
   155c4:	d2a6                	sw	s1,100(sp)
   155c6:	842a                	mv	s0,a0
   155c8:	00510513          	addi	a0,sp,5
   155cc:	03800613          	li	a2,56
   155d0:	00007097          	auipc	ra,0x7
   155d4:	760080e7          	jalr	1888(ra) # 1cd30 <memcpy>
   155d8:	03d10513          	addi	a0,sp,61
   155dc:	02700613          	li	a2,39
   155e0:	4581                	li	a1,0
   155e2:	00007097          	auipc	ra,0x7
   155e6:	6e2080e7          	jalr	1762(ra) # 1ccc4 <memset>
   155ea:	6505                	lui	a0,0x1
   155ec:	4489                	li	s1,2
   155ee:	4589                	li	a1,2
   155f0:	00510613          	addi	a2,sp,5
   155f4:	e2b50793          	addi	a5,a0,-469 # e2b <.Lline_table_start1+0xc00>
   155f8:	03800693          	li	a3,56
   155fc:	4711                	li	a4,4
   155fe:	853e                	mv	a0,a5
   15600:	00000073          	ecall
   15604:	02950b63          	beq	a0,s1,1563a <_ZN18complex_no_dynamic3app17h87454d05e7aac5e9E+0x7c>
   15608:	45a1                	li	a1,8
   1560a:	03d10613          	addi	a2,sp,61
   1560e:	02700693          	li	a3,39
   15612:	470d                	li	a4,3
   15614:	853e                	mv	a0,a5
   15616:	00000073          	ecall
   1561a:	02950063          	beq	a0,s1,1563a <_ZN18complex_no_dynamic3app17h87454d05e7aac5e9E+0x7c>
   1561e:	6505                	lui	a0,0x1
   15620:	4589                	li	a1,2
   15622:	4621                	li	a2,8
   15624:	e2b50793          	addi	a5,a0,-469 # e2b <.Lline_table_start1+0xc00>
   15628:	4709                	li	a4,2
   1562a:	07f00493          	li	s1,127
   1562e:	853e                	mv	a0,a5
   15630:	4681                	li	a3,0
   15632:	00000073          	ecall
   15636:	02a4eb63          	bltu	s1,a0,1566c <_ZN18complex_no_dynamic3app17h87454d05e7aac5e9E+0xae>
   1563a:	4785                	li	a5,1
   1563c:	c3a9                	beqz	a5,1567e <_ZN18complex_no_dynamic3app17h87454d05e7aac5e9E+0xc0>
   1563e:	4601                	li	a2,0
   15640:	4681                	li	a3,0
   15642:	4505                	li	a0,1
   15644:	6705                	lui	a4,0x1
   15646:	87ae                	mv	a5,a1
   15648:	45a1                	li	a1,8
   1564a:	00a40023          	sb	a0,0(s0)
   1564e:	c05c                	sw	a5,4(s0)
   15650:	e2b70793          	addi	a5,a4,-469 # e2b <.Lline_table_start1+0xc00>
   15654:	470d                	li	a4,3
   15656:	853e                	mv	a0,a5
   15658:	00000073          	ecall
   1565c:	4589                	li	a1,2
   1565e:	4711                	li	a4,4
   15660:	853e                	mv	a0,a5
   15662:	4601                	li	a2,0
   15664:	4681                	li	a3,0
   15666:	00000073          	ecall
   1566a:	a8b1                	j	156c6 <_ZN18complex_no_dynamic3app17h87454d05e7aac5e9E+0x108>
   1566c:	853e                	mv	a0,a5
   1566e:	4601                	li	a2,0
   15670:	4681                	li	a3,0
   15672:	4781                	li	a5,0
   15674:	45a1                	li	a1,8
   15676:	470d                	li	a4,3
   15678:	00000073          	ecall
   1567c:	f3e9                	bnez	a5,1563e <_ZN18complex_no_dynamic3app17h87454d05e7aac5e9E+0x80>
   1567e:	6505                	lui	a0,0x1
   15680:	e2b50493          	addi	s1,a0,-469 # e2b <.Lline_table_start1+0xc00>
   15684:	45a1                	li	a1,8
   15686:	470d                	li	a4,3
   15688:	8526                	mv	a0,s1
   1568a:	4601                	li	a2,0
   1568c:	4681                	li	a3,0
   1568e:	00000073          	ecall
   15692:	00140513          	addi	a0,s0,1
   15696:	03d10593          	addi	a1,sp,61
   1569a:	02700613          	li	a2,39
   1569e:	00007097          	auipc	ra,0x7
   156a2:	692080e7          	jalr	1682(ra) # 1cd30 <memcpy>
   156a6:	8526                	mv	a0,s1
   156a8:	4601                	li	a2,0
   156aa:	4681                	li	a3,0
   156ac:	00040023          	sb	zero,0(s0)
   156b0:	45a1                	li	a1,8
   156b2:	470d                	li	a4,3
   156b4:	00000073          	ecall
   156b8:	4589                	li	a1,2
   156ba:	4711                	li	a4,4
   156bc:	8526                	mv	a0,s1
   156be:	4601                	li	a2,0
   156c0:	4681                	li	a3,0
   156c2:	00000073          	ecall
   156c6:	50b6                	lw	ra,108(sp)
   156c8:	5426                	lw	s0,104(sp)
   156ca:	5496                	lw	s1,100(sp)
   156cc:	6165                	addi	sp,sp,112
   156ce:	8082                	ret

000156d0 <_ZN18complex_no_dynamic3app17h8dd194e47dc7e548E>:
   156d0:	711d                	addi	sp,sp,-96
   156d2:	ce86                	sw	ra,92(sp)
   156d4:	cca2                	sw	s0,88(sp)
   156d6:	caa6                	sw	s1,84(sp)
   156d8:	842a                	mv	s0,a0
   156da:	00d10513          	addi	a0,sp,13
   156de:	02700613          	li	a2,39
   156e2:	00007097          	auipc	ra,0x7
   156e6:	64e080e7          	jalr	1614(ra) # 1cd30 <memcpy>
   156ea:	c282                	sw	zero,68(sp)
   156ec:	c482                	sw	zero,72(sp)
   156ee:	c682                	sw	zero,76(sp)
   156f0:	04011823          	sh	zero,80(sp)
   156f4:	da02                	sw	zero,52(sp)
   156f6:	dc02                	sw	zero,56(sp)
   156f8:	de02                	sw	zero,60(sp)
   156fa:	c082                	sw	zero,64(sp)
   156fc:	6505                	lui	a0,0x1
   156fe:	458d                	li	a1,3
   15700:	00d10613          	addi	a2,sp,13
   15704:	02700693          	li	a3,39
   15708:	0e250793          	addi	a5,a0,226 # 10e2 <.Lline_table_start1+0xeb7>
   1570c:	4711                	li	a4,4
   1570e:	4489                	li	s1,2
   15710:	853e                	mv	a0,a5
   15712:	00000073          	ecall
   15716:	02950963          	beq	a0,s1,15748 <_ZN18complex_no_dynamic3app17h8dd194e47dc7e548E+0x78>
   1571a:	458d                	li	a1,3
   1571c:	1850                	addi	a2,sp,52
   1571e:	46f9                	li	a3,30
   15720:	470d                	li	a4,3
   15722:	853e                	mv	a0,a5
   15724:	00000073          	ecall
   15728:	02950063          	beq	a0,s1,15748 <_ZN18complex_no_dynamic3app17h8dd194e47dc7e548E+0x78>
   1572c:	6505                	lui	a0,0x1
   1572e:	458d                	li	a1,3
   15730:	460d                	li	a2,3
   15732:	0e250793          	addi	a5,a0,226 # 10e2 <.Lline_table_start1+0xeb7>
   15736:	4709                	li	a4,2
   15738:	07f00493          	li	s1,127
   1573c:	853e                	mv	a0,a5
   1573e:	4681                	li	a3,0
   15740:	00000073          	ecall
   15744:	02a4eb63          	bltu	s1,a0,1577a <_ZN18complex_no_dynamic3app17h8dd194e47dc7e548E+0xaa>
   15748:	4785                	li	a5,1
   1574a:	c3a9                	beqz	a5,1578c <_ZN18complex_no_dynamic3app17h8dd194e47dc7e548E+0xbc>
   1574c:	4601                	li	a2,0
   1574e:	4681                	li	a3,0
   15750:	4505                	li	a0,1
   15752:	6705                	lui	a4,0x1
   15754:	87ae                	mv	a5,a1
   15756:	458d                	li	a1,3
   15758:	00a40023          	sb	a0,0(s0)
   1575c:	c05c                	sw	a5,4(s0)
   1575e:	0e270793          	addi	a5,a4,226 # 10e2 <.Lline_table_start1+0xeb7>
   15762:	470d                	li	a4,3
   15764:	853e                	mv	a0,a5
   15766:	00000073          	ecall
   1576a:	458d                	li	a1,3
   1576c:	4711                	li	a4,4
   1576e:	853e                	mv	a0,a5
   15770:	4601                	li	a2,0
   15772:	4681                	li	a3,0
   15774:	00000073          	ecall
   15778:	a8a1                	j	157d0 <_ZN18complex_no_dynamic3app17h8dd194e47dc7e548E+0x100>
   1577a:	853e                	mv	a0,a5
   1577c:	4601                	li	a2,0
   1577e:	4681                	li	a3,0
   15780:	4781                	li	a5,0
   15782:	458d                	li	a1,3
   15784:	470d                	li	a4,3
   15786:	00000073          	ecall
   1578a:	f3e9                	bnez	a5,1574c <_ZN18complex_no_dynamic3app17h8dd194e47dc7e548E+0x7c>
   1578c:	6505                	lui	a0,0x1
   1578e:	0e250493          	addi	s1,a0,226 # 10e2 <.Lline_table_start1+0xeb7>
   15792:	458d                	li	a1,3
   15794:	470d                	li	a4,3
   15796:	8526                	mv	a0,s1
   15798:	4601                	li	a2,0
   1579a:	4681                	li	a3,0
   1579c:	00000073          	ecall
   157a0:	00140513          	addi	a0,s0,1
   157a4:	184c                	addi	a1,sp,52
   157a6:	4679                	li	a2,30
   157a8:	00007097          	auipc	ra,0x7
   157ac:	588080e7          	jalr	1416(ra) # 1cd30 <memcpy>
   157b0:	8526                	mv	a0,s1
   157b2:	4601                	li	a2,0
   157b4:	4681                	li	a3,0
   157b6:	00040023          	sb	zero,0(s0)
   157ba:	458d                	li	a1,3
   157bc:	470d                	li	a4,3
   157be:	00000073          	ecall
   157c2:	458d                	li	a1,3
   157c4:	4711                	li	a4,4
   157c6:	8526                	mv	a0,s1
   157c8:	4601                	li	a2,0
   157ca:	4681                	li	a3,0
   157cc:	00000073          	ecall
   157d0:	40f6                	lw	ra,92(sp)
   157d2:	4466                	lw	s0,88(sp)
   157d4:	44d6                	lw	s1,84(sp)
   157d6:	6125                	addi	sp,sp,96
   157d8:	8082                	ret

000157da <_ZN18complex_no_dynamic3app17h921fd133a239d55cE>:
   157da:	7171                	addi	sp,sp,-176
   157dc:	d706                	sw	ra,172(sp)
   157de:	d522                	sw	s0,168(sp)
   157e0:	d326                	sw	s1,164(sp)
   157e2:	842a                	mv	s0,a0
   157e4:	00710513          	addi	a0,sp,7
   157e8:	05d00613          	li	a2,93
   157ec:	00007097          	auipc	ra,0x7
   157f0:	544080e7          	jalr	1348(ra) # 1cd30 <memcpy>
   157f4:	10c8                	addi	a0,sp,100
   157f6:	04000613          	li	a2,64
   157fa:	4581                	li	a1,0
   157fc:	00007097          	auipc	ra,0x7
   15800:	4c8080e7          	jalr	1224(ra) # 1ccc4 <memset>
   15804:	6505                	lui	a0,0x1
   15806:	45a1                	li	a1,8
   15808:	00710613          	addi	a2,sp,7
   1580c:	05d00693          	li	a3,93
   15810:	02850793          	addi	a5,a0,40 # 1028 <.Lline_table_start1+0xdfd>
   15814:	4711                	li	a4,4
   15816:	4489                	li	s1,2
   15818:	853e                	mv	a0,a5
   1581a:	00000073          	ecall
   1581e:	02950a63          	beq	a0,s1,15852 <_ZN18complex_no_dynamic3app17h921fd133a239d55cE+0x78>
   15822:	4591                	li	a1,4
   15824:	10d0                	addi	a2,sp,100
   15826:	04000693          	li	a3,64
   1582a:	470d                	li	a4,3
   1582c:	853e                	mv	a0,a5
   1582e:	00000073          	ecall
   15832:	02950063          	beq	a0,s1,15852 <_ZN18complex_no_dynamic3app17h921fd133a239d55cE+0x78>
   15836:	6505                	lui	a0,0x1
   15838:	45a1                	li	a1,8
   1583a:	4611                	li	a2,4
   1583c:	02850793          	addi	a5,a0,40 # 1028 <.Lline_table_start1+0xdfd>
   15840:	4709                	li	a4,2
   15842:	07f00493          	li	s1,127
   15846:	853e                	mv	a0,a5
   15848:	4681                	li	a3,0
   1584a:	00000073          	ecall
   1584e:	02a4eb63          	bltu	s1,a0,15884 <_ZN18complex_no_dynamic3app17h921fd133a239d55cE+0xaa>
   15852:	4785                	li	a5,1
   15854:	c3a9                	beqz	a5,15896 <_ZN18complex_no_dynamic3app17h921fd133a239d55cE+0xbc>
   15856:	4601                	li	a2,0
   15858:	4681                	li	a3,0
   1585a:	4505                	li	a0,1
   1585c:	6705                	lui	a4,0x1
   1585e:	87ae                	mv	a5,a1
   15860:	4591                	li	a1,4
   15862:	00a40023          	sb	a0,0(s0)
   15866:	c05c                	sw	a5,4(s0)
   15868:	02870793          	addi	a5,a4,40 # 1028 <.Lline_table_start1+0xdfd>
   1586c:	470d                	li	a4,3
   1586e:	853e                	mv	a0,a5
   15870:	00000073          	ecall
   15874:	45a1                	li	a1,8
   15876:	4711                	li	a4,4
   15878:	853e                	mv	a0,a5
   1587a:	4601                	li	a2,0
   1587c:	4681                	li	a3,0
   1587e:	00000073          	ecall
   15882:	a8a9                	j	158dc <_ZN18complex_no_dynamic3app17h921fd133a239d55cE+0x102>
   15884:	853e                	mv	a0,a5
   15886:	4601                	li	a2,0
   15888:	4681                	li	a3,0
   1588a:	4781                	li	a5,0
   1588c:	4591                	li	a1,4
   1588e:	470d                	li	a4,3
   15890:	00000073          	ecall
   15894:	f3e9                	bnez	a5,15856 <_ZN18complex_no_dynamic3app17h921fd133a239d55cE+0x7c>
   15896:	6505                	lui	a0,0x1
   15898:	02850493          	addi	s1,a0,40 # 1028 <.Lline_table_start1+0xdfd>
   1589c:	4591                	li	a1,4
   1589e:	470d                	li	a4,3
   158a0:	8526                	mv	a0,s1
   158a2:	4601                	li	a2,0
   158a4:	4681                	li	a3,0
   158a6:	00000073          	ecall
   158aa:	00140513          	addi	a0,s0,1
   158ae:	10cc                	addi	a1,sp,100
   158b0:	04000613          	li	a2,64
   158b4:	00007097          	auipc	ra,0x7
   158b8:	47c080e7          	jalr	1148(ra) # 1cd30 <memcpy>
   158bc:	8526                	mv	a0,s1
   158be:	4601                	li	a2,0
   158c0:	4681                	li	a3,0
   158c2:	00040023          	sb	zero,0(s0)
   158c6:	4591                	li	a1,4
   158c8:	470d                	li	a4,3
   158ca:	00000073          	ecall
   158ce:	45a1                	li	a1,8
   158d0:	4711                	li	a4,4
   158d2:	8526                	mv	a0,s1
   158d4:	4601                	li	a2,0
   158d6:	4681                	li	a3,0
   158d8:	00000073          	ecall
   158dc:	50ba                	lw	ra,172(sp)
   158de:	542a                	lw	s0,168(sp)
   158e0:	549a                	lw	s1,164(sp)
   158e2:	614d                	addi	sp,sp,176
   158e4:	8082                	ret

000158e6 <_ZN18complex_no_dynamic3app17h93f0733766e9f8abE>:
   158e6:	711d                	addi	sp,sp,-96
   158e8:	ce86                	sw	ra,92(sp)
   158ea:	cca2                	sw	s0,88(sp)
   158ec:	caa6                	sw	s1,84(sp)
   158ee:	842a                	mv	s0,a0
   158f0:	0048                	addi	a0,sp,4
   158f2:	03400613          	li	a2,52
   158f6:	00007097          	auipc	ra,0x7
   158fa:	43a080e7          	jalr	1082(ra) # 1cd30 <memcpy>
   158fe:	c482                	sw	zero,72(sp)
   15900:	c682                	sw	zero,76(sp)
   15902:	04011823          	sh	zero,80(sp)
   15906:	dc02                	sw	zero,56(sp)
   15908:	de02                	sw	zero,60(sp)
   1590a:	c082                	sw	zero,64(sp)
   1590c:	c282                	sw	zero,68(sp)
   1590e:	6505                	lui	a0,0x1
   15910:	0050                	addi	a2,sp,4
   15912:	03400693          	li	a3,52
   15916:	2cc50793          	addi	a5,a0,716 # 12cc <.Lline_table_start1+0x10a1>
   1591a:	4711                	li	a4,4
   1591c:	4489                	li	s1,2
   1591e:	853e                	mv	a0,a5
   15920:	4581                	li	a1,0
   15922:	00000073          	ecall
   15926:	02950963          	beq	a0,s1,15958 <_ZN18complex_no_dynamic3app17h93f0733766e9f8abE+0x72>
   1592a:	4595                	li	a1,5
   1592c:	1830                	addi	a2,sp,56
   1592e:	46e9                	li	a3,26
   15930:	470d                	li	a4,3
   15932:	853e                	mv	a0,a5
   15934:	00000073          	ecall
   15938:	02950063          	beq	a0,s1,15958 <_ZN18complex_no_dynamic3app17h93f0733766e9f8abE+0x72>
   1593c:	6505                	lui	a0,0x1
   1593e:	4615                	li	a2,5
   15940:	2cc50793          	addi	a5,a0,716 # 12cc <.Lline_table_start1+0x10a1>
   15944:	4709                	li	a4,2
   15946:	07f00493          	li	s1,127
   1594a:	853e                	mv	a0,a5
   1594c:	4581                	li	a1,0
   1594e:	4681                	li	a3,0
   15950:	00000073          	ecall
   15954:	02a4ea63          	bltu	s1,a0,15988 <_ZN18complex_no_dynamic3app17h93f0733766e9f8abE+0xa2>
   15958:	4785                	li	a5,1
   1595a:	c3a1                	beqz	a5,1599a <_ZN18complex_no_dynamic3app17h93f0733766e9f8abE+0xb4>
   1595c:	4505                	li	a0,1
   1595e:	6605                	lui	a2,0x1
   15960:	00a40023          	sb	a0,0(s0)
   15964:	c04c                	sw	a1,4(s0)
   15966:	2cc60793          	addi	a5,a2,716 # 12cc <.Lline_table_start1+0x10a1>
   1596a:	4595                	li	a1,5
   1596c:	470d                	li	a4,3
   1596e:	853e                	mv	a0,a5
   15970:	4601                	li	a2,0
   15972:	4681                	li	a3,0
   15974:	00000073          	ecall
   15978:	4711                	li	a4,4
   1597a:	853e                	mv	a0,a5
   1597c:	4581                	li	a1,0
   1597e:	4601                	li	a2,0
   15980:	4681                	li	a3,0
   15982:	00000073          	ecall
   15986:	a8a1                	j	159de <_ZN18complex_no_dynamic3app17h93f0733766e9f8abE+0xf8>
   15988:	853e                	mv	a0,a5
   1598a:	4601                	li	a2,0
   1598c:	4681                	li	a3,0
   1598e:	4781                	li	a5,0
   15990:	4595                	li	a1,5
   15992:	470d                	li	a4,3
   15994:	00000073          	ecall
   15998:	f3f1                	bnez	a5,1595c <_ZN18complex_no_dynamic3app17h93f0733766e9f8abE+0x76>
   1599a:	6505                	lui	a0,0x1
   1599c:	2cc50493          	addi	s1,a0,716 # 12cc <.Lline_table_start1+0x10a1>
   159a0:	4595                	li	a1,5
   159a2:	470d                	li	a4,3
   159a4:	8526                	mv	a0,s1
   159a6:	4601                	li	a2,0
   159a8:	4681                	li	a3,0
   159aa:	00000073          	ecall
   159ae:	00140513          	addi	a0,s0,1
   159b2:	182c                	addi	a1,sp,56
   159b4:	4669                	li	a2,26
   159b6:	00007097          	auipc	ra,0x7
   159ba:	37a080e7          	jalr	890(ra) # 1cd30 <memcpy>
   159be:	00040023          	sb	zero,0(s0)
   159c2:	4595                	li	a1,5
   159c4:	470d                	li	a4,3
   159c6:	8526                	mv	a0,s1
   159c8:	4601                	li	a2,0
   159ca:	4681                	li	a3,0
   159cc:	00000073          	ecall
   159d0:	4711                	li	a4,4
   159d2:	8526                	mv	a0,s1
   159d4:	4581                	li	a1,0
   159d6:	4601                	li	a2,0
   159d8:	4681                	li	a3,0
   159da:	00000073          	ecall
   159de:	40f6                	lw	ra,92(sp)
   159e0:	4466                	lw	s0,88(sp)
   159e2:	44d6                	lw	s1,84(sp)
   159e4:	6125                	addi	sp,sp,96
   159e6:	8082                	ret

000159e8 <_ZN18complex_no_dynamic3app17h9531b4623f3d50dbE>:
   159e8:	711d                	addi	sp,sp,-96
   159ea:	ce86                	sw	ra,92(sp)
   159ec:	cca2                	sw	s0,88(sp)
   159ee:	842a                	mv	s0,a0
   159f0:	00d10513          	addi	a0,sp,13
   159f4:	02b00613          	li	a2,43
   159f8:	00007097          	auipc	ra,0x7
   159fc:	338080e7          	jalr	824(ra) # 1cd30 <memcpy>
   15a00:	c482                	sw	zero,72(sp)
   15a02:	c682                	sw	zero,76(sp)
   15a04:	c882                	sw	zero,80(sp)
   15a06:	04011a23          	sh	zero,84(sp)
   15a0a:	dc02                	sw	zero,56(sp)
   15a0c:	de02                	sw	zero,60(sp)
   15a0e:	c082                	sw	zero,64(sp)
   15a10:	c282                	sw	zero,68(sp)
   15a12:	7e300513          	li	a0,2019
   15a16:	459d                	li	a1,7
   15a18:	00d10613          	addi	a2,sp,13
   15a1c:	02b00693          	li	a3,43
   15a20:	4711                	li	a4,4
   15a22:	4789                	li	a5,2
   15a24:	00000073          	ecall
   15a28:	02f50863          	beq	a0,a5,15a58 <_ZN18complex_no_dynamic3app17h9531b4623f3d50dbE+0x70>
   15a2c:	7e300513          	li	a0,2019
   15a30:	45a1                	li	a1,8
   15a32:	1830                	addi	a2,sp,56
   15a34:	46f9                	li	a3,30
   15a36:	470d                	li	a4,3
   15a38:	00000073          	ecall
   15a3c:	00f50e63          	beq	a0,a5,15a58 <_ZN18complex_no_dynamic3app17h9531b4623f3d50dbE+0x70>
   15a40:	7e300513          	li	a0,2019
   15a44:	459d                	li	a1,7
   15a46:	4621                	li	a2,8
   15a48:	4709                	li	a4,2
   15a4a:	07f00793          	li	a5,127
   15a4e:	4681                	li	a3,0
   15a50:	00000073          	ecall
   15a54:	02a7e963          	bltu	a5,a0,15a86 <_ZN18complex_no_dynamic3app17h9531b4623f3d50dbE+0x9e>
   15a58:	4785                	li	a5,1
   15a5a:	c3a1                	beqz	a5,15a9a <_ZN18complex_no_dynamic3app17h9531b4623f3d50dbE+0xb2>
   15a5c:	4601                	li	a2,0
   15a5e:	4681                	li	a3,0
   15a60:	4705                	li	a4,1
   15a62:	7e300513          	li	a0,2019
   15a66:	00e40023          	sb	a4,0(s0)
   15a6a:	c04c                	sw	a1,4(s0)
   15a6c:	45a1                	li	a1,8
   15a6e:	470d                	li	a4,3
   15a70:	00000073          	ecall
   15a74:	7e300513          	li	a0,2019
   15a78:	459d                	li	a1,7
   15a7a:	4711                	li	a4,4
   15a7c:	4601                	li	a2,0
   15a7e:	4681                	li	a3,0
   15a80:	00000073          	ecall
   15a84:	a8a9                	j	15ade <_ZN18complex_no_dynamic3app17h9531b4623f3d50dbE+0xf6>
   15a86:	4601                	li	a2,0
   15a88:	4681                	li	a3,0
   15a8a:	4781                	li	a5,0
   15a8c:	7e300513          	li	a0,2019
   15a90:	45a1                	li	a1,8
   15a92:	470d                	li	a4,3
   15a94:	00000073          	ecall
   15a98:	f3f1                	bnez	a5,15a5c <_ZN18complex_no_dynamic3app17h9531b4623f3d50dbE+0x74>
   15a9a:	7e300513          	li	a0,2019
   15a9e:	45a1                	li	a1,8
   15aa0:	470d                	li	a4,3
   15aa2:	4601                	li	a2,0
   15aa4:	4681                	li	a3,0
   15aa6:	00000073          	ecall
   15aaa:	00140513          	addi	a0,s0,1
   15aae:	182c                	addi	a1,sp,56
   15ab0:	4679                	li	a2,30
   15ab2:	00007097          	auipc	ra,0x7
   15ab6:	27e080e7          	jalr	638(ra) # 1cd30 <memcpy>
   15aba:	4601                	li	a2,0
   15abc:	4681                	li	a3,0
   15abe:	00040023          	sb	zero,0(s0)
   15ac2:	7e300513          	li	a0,2019
   15ac6:	45a1                	li	a1,8
   15ac8:	470d                	li	a4,3
   15aca:	00000073          	ecall
   15ace:	7e300513          	li	a0,2019
   15ad2:	459d                	li	a1,7
   15ad4:	4711                	li	a4,4
   15ad6:	4601                	li	a2,0
   15ad8:	4681                	li	a3,0
   15ada:	00000073          	ecall
   15ade:	40f6                	lw	ra,92(sp)
   15ae0:	4466                	lw	s0,88(sp)
   15ae2:	6125                	addi	sp,sp,96
   15ae4:	8082                	ret

00015ae6 <_ZN18complex_no_dynamic3app17h99a7991499f701f5E>:
   15ae6:	7135                	addi	sp,sp,-160
   15ae8:	cf06                	sw	ra,156(sp)
   15aea:	cd22                	sw	s0,152(sp)
   15aec:	cb26                	sw	s1,148(sp)
   15aee:	842a                	mv	s0,a0
   15af0:	00b10513          	addi	a0,sp,11
   15af4:	04d00613          	li	a2,77
   15af8:	00007097          	auipc	ra,0x7
   15afc:	238080e7          	jalr	568(ra) # 1cd30 <memcpy>
   15b00:	08a8                	addi	a0,sp,88
   15b02:	03c00613          	li	a2,60
   15b06:	4581                	li	a1,0
   15b08:	00007097          	auipc	ra,0x7
   15b0c:	1bc080e7          	jalr	444(ra) # 1ccc4 <memset>
   15b10:	6509                	lui	a0,0x2
   15b12:	4591                	li	a1,4
   15b14:	00b10613          	addi	a2,sp,11
   15b18:	04d00693          	li	a3,77
   15b1c:	1ab50793          	addi	a5,a0,427 # 21ab <.Lline_table_start1+0x1f80>
   15b20:	4711                	li	a4,4
   15b22:	4489                	li	s1,2
   15b24:	853e                	mv	a0,a5
   15b26:	00000073          	ecall
   15b2a:	02950a63          	beq	a0,s1,15b5e <_ZN18complex_no_dynamic3app17h99a7991499f701f5E+0x78>
   15b2e:	45a5                	li	a1,9
   15b30:	08b0                	addi	a2,sp,88
   15b32:	03c00693          	li	a3,60
   15b36:	470d                	li	a4,3
   15b38:	853e                	mv	a0,a5
   15b3a:	00000073          	ecall
   15b3e:	02950063          	beq	a0,s1,15b5e <_ZN18complex_no_dynamic3app17h99a7991499f701f5E+0x78>
   15b42:	6509                	lui	a0,0x2
   15b44:	4591                	li	a1,4
   15b46:	4625                	li	a2,9
   15b48:	1ab50793          	addi	a5,a0,427 # 21ab <.Lline_table_start1+0x1f80>
   15b4c:	4709                	li	a4,2
   15b4e:	07f00493          	li	s1,127
   15b52:	853e                	mv	a0,a5
   15b54:	4681                	li	a3,0
   15b56:	00000073          	ecall
   15b5a:	02a4eb63          	bltu	s1,a0,15b90 <_ZN18complex_no_dynamic3app17h99a7991499f701f5E+0xaa>
   15b5e:	4785                	li	a5,1
   15b60:	c3a9                	beqz	a5,15ba2 <_ZN18complex_no_dynamic3app17h99a7991499f701f5E+0xbc>
   15b62:	4601                	li	a2,0
   15b64:	4681                	li	a3,0
   15b66:	4505                	li	a0,1
   15b68:	6709                	lui	a4,0x2
   15b6a:	87ae                	mv	a5,a1
   15b6c:	45a5                	li	a1,9
   15b6e:	00a40023          	sb	a0,0(s0)
   15b72:	c05c                	sw	a5,4(s0)
   15b74:	1ab70793          	addi	a5,a4,427 # 21ab <.Lline_table_start1+0x1f80>
   15b78:	470d                	li	a4,3
   15b7a:	853e                	mv	a0,a5
   15b7c:	00000073          	ecall
   15b80:	4591                	li	a1,4
   15b82:	4711                	li	a4,4
   15b84:	853e                	mv	a0,a5
   15b86:	4601                	li	a2,0
   15b88:	4681                	li	a3,0
   15b8a:	00000073          	ecall
   15b8e:	a8a9                	j	15be8 <_ZN18complex_no_dynamic3app17h99a7991499f701f5E+0x102>
   15b90:	853e                	mv	a0,a5
   15b92:	4601                	li	a2,0
   15b94:	4681                	li	a3,0
   15b96:	4781                	li	a5,0
   15b98:	45a5                	li	a1,9
   15b9a:	470d                	li	a4,3
   15b9c:	00000073          	ecall
   15ba0:	f3e9                	bnez	a5,15b62 <_ZN18complex_no_dynamic3app17h99a7991499f701f5E+0x7c>
   15ba2:	6509                	lui	a0,0x2
   15ba4:	1ab50493          	addi	s1,a0,427 # 21ab <.Lline_table_start1+0x1f80>
   15ba8:	45a5                	li	a1,9
   15baa:	470d                	li	a4,3
   15bac:	8526                	mv	a0,s1
   15bae:	4601                	li	a2,0
   15bb0:	4681                	li	a3,0
   15bb2:	00000073          	ecall
   15bb6:	00140513          	addi	a0,s0,1
   15bba:	08ac                	addi	a1,sp,88
   15bbc:	03c00613          	li	a2,60
   15bc0:	00007097          	auipc	ra,0x7
   15bc4:	170080e7          	jalr	368(ra) # 1cd30 <memcpy>
   15bc8:	8526                	mv	a0,s1
   15bca:	4601                	li	a2,0
   15bcc:	4681                	li	a3,0
   15bce:	00040023          	sb	zero,0(s0)
   15bd2:	45a5                	li	a1,9
   15bd4:	470d                	li	a4,3
   15bd6:	00000073          	ecall
   15bda:	4591                	li	a1,4
   15bdc:	4711                	li	a4,4
   15bde:	8526                	mv	a0,s1
   15be0:	4601                	li	a2,0
   15be2:	4681                	li	a3,0
   15be4:	00000073          	ecall
   15be8:	40fa                	lw	ra,156(sp)
   15bea:	446a                	lw	s0,152(sp)
   15bec:	44da                	lw	s1,148(sp)
   15bee:	610d                	addi	sp,sp,160
   15bf0:	8082                	ret

00015bf2 <_ZN18complex_no_dynamic3app17h9c008a7e6327cfa9E>:
   15bf2:	7135                	addi	sp,sp,-160
   15bf4:	cf06                	sw	ra,156(sp)
   15bf6:	cd22                	sw	s0,152(sp)
   15bf8:	cb26                	sw	s1,148(sp)
   15bfa:	c94a                	sw	s2,144(sp)
   15bfc:	892a                	mv	s2,a0
   15bfe:	0068                	addi	a0,sp,12
   15c00:	04f00613          	li	a2,79
   15c04:	00007097          	auipc	ra,0x7
   15c08:	12c080e7          	jalr	300(ra) # 1cd30 <memcpy>
   15c0c:	05b10513          	addi	a0,sp,91
   15c10:	03500613          	li	a2,53
   15c14:	4581                	li	a1,0
   15c16:	00007097          	auipc	ra,0x7
   15c1a:	0ae080e7          	jalr	174(ra) # 1ccc4 <memset>
   15c1e:	6505                	lui	a0,0x1
   15c20:	459d                	li	a1,7
   15c22:	0070                	addi	a2,sp,12
   15c24:	04f00693          	li	a3,79
   15c28:	6d750793          	addi	a5,a0,1751 # 16d7 <.Lline_table_start1+0x14ac>
   15c2c:	4711                	li	a4,4
   15c2e:	4409                	li	s0,2
   15c30:	853e                	mv	a0,a5
   15c32:	00000073          	ecall
   15c36:	00851463          	bne	a0,s0,15c3e <_ZN18complex_no_dynamic3app17h9c008a7e6327cfa9E+0x4c>
   15c3a:	4485                	li	s1,1
   15c3c:	a0a1                	j	15c84 <_ZN18complex_no_dynamic3app17h9c008a7e6327cfa9E+0x92>
   15c3e:	853e                	mv	a0,a5
   15c40:	4485                	li	s1,1
   15c42:	4585                	li	a1,1
   15c44:	05b10613          	addi	a2,sp,91
   15c48:	03500693          	li	a3,53
   15c4c:	470d                	li	a4,3
   15c4e:	00000073          	ecall
   15c52:	02850963          	beq	a0,s0,15c84 <_ZN18complex_no_dynamic3app17h9c008a7e6327cfa9E+0x92>
   15c56:	4681                	li	a3,0
   15c58:	6505                	lui	a0,0x1
   15c5a:	459d                	li	a1,7
   15c5c:	4605                	li	a2,1
   15c5e:	4709                	li	a4,2
   15c60:	6d750793          	addi	a5,a0,1751 # 16d7 <.Lline_table_start1+0x14ac>
   15c64:	07f00413          	li	s0,127
   15c68:	853e                	mv	a0,a5
   15c6a:	00000073          	ecall
   15c6e:	4485                	li	s1,1
   15c70:	00a47a63          	bgeu	s0,a0,15c84 <_ZN18complex_no_dynamic3app17h9c008a7e6327cfa9E+0x92>
   15c74:	853e                	mv	a0,a5
   15c76:	4601                	li	a2,0
   15c78:	4681                	li	a3,0
   15c7a:	4481                	li	s1,0
   15c7c:	4585                	li	a1,1
   15c7e:	470d                	li	a4,3
   15c80:	00000073          	ecall
   15c84:	c88d                	beqz	s1,15cb6 <_ZN18complex_no_dynamic3app17h9c008a7e6327cfa9E+0xc4>
   15c86:	4601                	li	a2,0
   15c88:	4681                	li	a3,0
   15c8a:	4505                	li	a0,1
   15c8c:	6705                	lui	a4,0x1
   15c8e:	87ae                	mv	a5,a1
   15c90:	4585                	li	a1,1
   15c92:	00a90023          	sb	a0,0(s2)
   15c96:	00f92223          	sw	a5,4(s2)
   15c9a:	6d770793          	addi	a5,a4,1751 # 16d7 <.Lline_table_start1+0x14ac>
   15c9e:	470d                	li	a4,3
   15ca0:	853e                	mv	a0,a5
   15ca2:	00000073          	ecall
   15ca6:	459d                	li	a1,7
   15ca8:	4711                	li	a4,4
   15caa:	853e                	mv	a0,a5
   15cac:	4601                	li	a2,0
   15cae:	4681                	li	a3,0
   15cb0:	00000073          	ecall
   15cb4:	a0a9                	j	15cfe <_ZN18complex_no_dynamic3app17h9c008a7e6327cfa9E+0x10c>
   15cb6:	6505                	lui	a0,0x1
   15cb8:	6d750493          	addi	s1,a0,1751 # 16d7 <.Lline_table_start1+0x14ac>
   15cbc:	4585                	li	a1,1
   15cbe:	470d                	li	a4,3
   15cc0:	8526                	mv	a0,s1
   15cc2:	4601                	li	a2,0
   15cc4:	4681                	li	a3,0
   15cc6:	00000073          	ecall
   15cca:	00190513          	addi	a0,s2,1
   15cce:	05b10593          	addi	a1,sp,91
   15cd2:	03500613          	li	a2,53
   15cd6:	00007097          	auipc	ra,0x7
   15cda:	05a080e7          	jalr	90(ra) # 1cd30 <memcpy>
   15cde:	8526                	mv	a0,s1
   15ce0:	4601                	li	a2,0
   15ce2:	4681                	li	a3,0
   15ce4:	00090023          	sb	zero,0(s2)
   15ce8:	4585                	li	a1,1
   15cea:	470d                	li	a4,3
   15cec:	00000073          	ecall
   15cf0:	459d                	li	a1,7
   15cf2:	4711                	li	a4,4
   15cf4:	8526                	mv	a0,s1
   15cf6:	4601                	li	a2,0
   15cf8:	4681                	li	a3,0
   15cfa:	00000073          	ecall
   15cfe:	40fa                	lw	ra,156(sp)
   15d00:	446a                	lw	s0,152(sp)
   15d02:	44da                	lw	s1,148(sp)
   15d04:	494a                	lw	s2,144(sp)
   15d06:	610d                	addi	sp,sp,160
   15d08:	8082                	ret

00015d0a <_ZN18complex_no_dynamic3app17h9f5d600a9da64b1dE>:
   15d0a:	7119                	addi	sp,sp,-128
   15d0c:	de86                	sw	ra,124(sp)
   15d0e:	dca2                	sw	s0,120(sp)
   15d10:	daa6                	sw	s1,116(sp)
   15d12:	842a                	mv	s0,a0
   15d14:	00610513          	addi	a0,sp,6
   15d18:	03c00613          	li	a2,60
   15d1c:	00007097          	auipc	ra,0x7
   15d20:	014080e7          	jalr	20(ra) # 1cd30 <memcpy>
   15d24:	04210513          	addi	a0,sp,66
   15d28:	03200613          	li	a2,50
   15d2c:	4581                	li	a1,0
   15d2e:	00007097          	auipc	ra,0x7
   15d32:	f96080e7          	jalr	-106(ra) # 1ccc4 <memset>
   15d36:	6509                	lui	a0,0x2
   15d38:	4599                	li	a1,6
   15d3a:	00610613          	addi	a2,sp,6
   15d3e:	03c00693          	li	a3,60
   15d42:	b1e50793          	addi	a5,a0,-1250 # 1b1e <.Lline_table_start1+0x18f3>
   15d46:	4711                	li	a4,4
   15d48:	4489                	li	s1,2
   15d4a:	853e                	mv	a0,a5
   15d4c:	00000073          	ecall
   15d50:	02950b63          	beq	a0,s1,15d86 <_ZN18complex_no_dynamic3app17h9f5d600a9da64b1dE+0x7c>
   15d54:	45a1                	li	a1,8
   15d56:	04210613          	addi	a2,sp,66
   15d5a:	03200693          	li	a3,50
   15d5e:	470d                	li	a4,3
   15d60:	853e                	mv	a0,a5
   15d62:	00000073          	ecall
   15d66:	02950063          	beq	a0,s1,15d86 <_ZN18complex_no_dynamic3app17h9f5d600a9da64b1dE+0x7c>
   15d6a:	6509                	lui	a0,0x2
   15d6c:	4599                	li	a1,6
   15d6e:	4621                	li	a2,8
   15d70:	b1e50793          	addi	a5,a0,-1250 # 1b1e <.Lline_table_start1+0x18f3>
   15d74:	4709                	li	a4,2
   15d76:	07f00493          	li	s1,127
   15d7a:	853e                	mv	a0,a5
   15d7c:	4681                	li	a3,0
   15d7e:	00000073          	ecall
   15d82:	02a4eb63          	bltu	s1,a0,15db8 <_ZN18complex_no_dynamic3app17h9f5d600a9da64b1dE+0xae>
   15d86:	4785                	li	a5,1
   15d88:	c3a9                	beqz	a5,15dca <_ZN18complex_no_dynamic3app17h9f5d600a9da64b1dE+0xc0>
   15d8a:	4601                	li	a2,0
   15d8c:	4681                	li	a3,0
   15d8e:	4505                	li	a0,1
   15d90:	6709                	lui	a4,0x2
   15d92:	87ae                	mv	a5,a1
   15d94:	45a1                	li	a1,8
   15d96:	00a40023          	sb	a0,0(s0)
   15d9a:	c05c                	sw	a5,4(s0)
   15d9c:	b1e70793          	addi	a5,a4,-1250 # 1b1e <.Lline_table_start1+0x18f3>
   15da0:	470d                	li	a4,3
   15da2:	853e                	mv	a0,a5
   15da4:	00000073          	ecall
   15da8:	4599                	li	a1,6
   15daa:	4711                	li	a4,4
   15dac:	853e                	mv	a0,a5
   15dae:	4601                	li	a2,0
   15db0:	4681                	li	a3,0
   15db2:	00000073          	ecall
   15db6:	a8b1                	j	15e12 <_ZN18complex_no_dynamic3app17h9f5d600a9da64b1dE+0x108>
   15db8:	853e                	mv	a0,a5
   15dba:	4601                	li	a2,0
   15dbc:	4681                	li	a3,0
   15dbe:	4781                	li	a5,0
   15dc0:	45a1                	li	a1,8
   15dc2:	470d                	li	a4,3
   15dc4:	00000073          	ecall
   15dc8:	f3e9                	bnez	a5,15d8a <_ZN18complex_no_dynamic3app17h9f5d600a9da64b1dE+0x80>
   15dca:	6509                	lui	a0,0x2
   15dcc:	b1e50493          	addi	s1,a0,-1250 # 1b1e <.Lline_table_start1+0x18f3>
   15dd0:	45a1                	li	a1,8
   15dd2:	470d                	li	a4,3
   15dd4:	8526                	mv	a0,s1
   15dd6:	4601                	li	a2,0
   15dd8:	4681                	li	a3,0
   15dda:	00000073          	ecall
   15dde:	00140513          	addi	a0,s0,1
   15de2:	04210593          	addi	a1,sp,66
   15de6:	03200613          	li	a2,50
   15dea:	00007097          	auipc	ra,0x7
   15dee:	f46080e7          	jalr	-186(ra) # 1cd30 <memcpy>
   15df2:	8526                	mv	a0,s1
   15df4:	4601                	li	a2,0
   15df6:	4681                	li	a3,0
   15df8:	00040023          	sb	zero,0(s0)
   15dfc:	45a1                	li	a1,8
   15dfe:	470d                	li	a4,3
   15e00:	00000073          	ecall
   15e04:	4599                	li	a1,6
   15e06:	4711                	li	a4,4
   15e08:	8526                	mv	a0,s1
   15e0a:	4601                	li	a2,0
   15e0c:	4681                	li	a3,0
   15e0e:	00000073          	ecall
   15e12:	50f6                	lw	ra,124(sp)
   15e14:	5466                	lw	s0,120(sp)
   15e16:	54d6                	lw	s1,116(sp)
   15e18:	6109                	addi	sp,sp,128
   15e1a:	8082                	ret

00015e1c <_ZN18complex_no_dynamic3app17ha2bd7ee154cb6119E>:
   15e1c:	7119                	addi	sp,sp,-128
   15e1e:	de86                	sw	ra,124(sp)
   15e20:	dca2                	sw	s0,120(sp)
   15e22:	842a                	mv	s0,a0
   15e24:	0068                	addi	a0,sp,12
   15e26:	03800613          	li	a2,56
   15e2a:	00007097          	auipc	ra,0x7
   15e2e:	f06080e7          	jalr	-250(ra) # 1cd30 <memcpy>
   15e32:	00c8                	addi	a0,sp,68
   15e34:	03400613          	li	a2,52
   15e38:	4581                	li	a1,0
   15e3a:	00007097          	auipc	ra,0x7
   15e3e:	e8a080e7          	jalr	-374(ra) # 1ccc4 <memset>
   15e42:	12e00513          	li	a0,302
   15e46:	45a1                	li	a1,8
   15e48:	0070                	addi	a2,sp,12
   15e4a:	03800693          	li	a3,56
   15e4e:	4711                	li	a4,4
   15e50:	4789                	li	a5,2
   15e52:	00000073          	ecall
   15e56:	02f50963          	beq	a0,a5,15e88 <_ZN18complex_no_dynamic3app17ha2bd7ee154cb6119E+0x6c>
   15e5a:	12e00513          	li	a0,302
   15e5e:	458d                	li	a1,3
   15e60:	00d0                	addi	a2,sp,68
   15e62:	03400693          	li	a3,52
   15e66:	470d                	li	a4,3
   15e68:	00000073          	ecall
   15e6c:	00f50e63          	beq	a0,a5,15e88 <_ZN18complex_no_dynamic3app17ha2bd7ee154cb6119E+0x6c>
   15e70:	12e00513          	li	a0,302
   15e74:	45a1                	li	a1,8
   15e76:	460d                	li	a2,3
   15e78:	4709                	li	a4,2
   15e7a:	07f00793          	li	a5,127
   15e7e:	4681                	li	a3,0
   15e80:	00000073          	ecall
   15e84:	02a7e963          	bltu	a5,a0,15eb6 <_ZN18complex_no_dynamic3app17ha2bd7ee154cb6119E+0x9a>
   15e88:	4785                	li	a5,1
   15e8a:	c3a1                	beqz	a5,15eca <_ZN18complex_no_dynamic3app17ha2bd7ee154cb6119E+0xae>
   15e8c:	4601                	li	a2,0
   15e8e:	4681                	li	a3,0
   15e90:	4705                	li	a4,1
   15e92:	12e00513          	li	a0,302
   15e96:	00e40023          	sb	a4,0(s0)
   15e9a:	c04c                	sw	a1,4(s0)
   15e9c:	458d                	li	a1,3
   15e9e:	470d                	li	a4,3
   15ea0:	00000073          	ecall
   15ea4:	12e00513          	li	a0,302
   15ea8:	45a1                	li	a1,8
   15eaa:	4711                	li	a4,4
   15eac:	4601                	li	a2,0
   15eae:	4681                	li	a3,0
   15eb0:	00000073          	ecall
   15eb4:	a8b1                	j	15f10 <_ZN18complex_no_dynamic3app17ha2bd7ee154cb6119E+0xf4>
   15eb6:	4601                	li	a2,0
   15eb8:	4681                	li	a3,0
   15eba:	4781                	li	a5,0
   15ebc:	12e00513          	li	a0,302
   15ec0:	458d                	li	a1,3
   15ec2:	470d                	li	a4,3
   15ec4:	00000073          	ecall
   15ec8:	f3f1                	bnez	a5,15e8c <_ZN18complex_no_dynamic3app17ha2bd7ee154cb6119E+0x70>
   15eca:	12e00513          	li	a0,302
   15ece:	458d                	li	a1,3
   15ed0:	470d                	li	a4,3
   15ed2:	4601                	li	a2,0
   15ed4:	4681                	li	a3,0
   15ed6:	00000073          	ecall
   15eda:	00140513          	addi	a0,s0,1
   15ede:	00cc                	addi	a1,sp,68
   15ee0:	03400613          	li	a2,52
   15ee4:	00007097          	auipc	ra,0x7
   15ee8:	e4c080e7          	jalr	-436(ra) # 1cd30 <memcpy>
   15eec:	4601                	li	a2,0
   15eee:	4681                	li	a3,0
   15ef0:	00040023          	sb	zero,0(s0)
   15ef4:	12e00513          	li	a0,302
   15ef8:	458d                	li	a1,3
   15efa:	470d                	li	a4,3
   15efc:	00000073          	ecall
   15f00:	12e00513          	li	a0,302
   15f04:	45a1                	li	a1,8
   15f06:	4711                	li	a4,4
   15f08:	4601                	li	a2,0
   15f0a:	4681                	li	a3,0
   15f0c:	00000073          	ecall
   15f10:	50f6                	lw	ra,124(sp)
   15f12:	5466                	lw	s0,120(sp)
   15f14:	6109                	addi	sp,sp,128
   15f16:	8082                	ret

00015f18 <_ZN18complex_no_dynamic3app17haf29bd138e846855E>:
   15f18:	7135                	addi	sp,sp,-160
   15f1a:	cf06                	sw	ra,156(sp)
   15f1c:	cd22                	sw	s0,152(sp)
   15f1e:	842a                	mv	s0,a0
   15f20:	00910513          	addi	a0,sp,9
   15f24:	06300613          	li	a2,99
   15f28:	00007097          	auipc	ra,0x7
   15f2c:	e08080e7          	jalr	-504(ra) # 1cd30 <memcpy>
   15f30:	10e8                	addi	a0,sp,108
   15f32:	02c00613          	li	a2,44
   15f36:	4581                	li	a1,0
   15f38:	00007097          	auipc	ra,0x7
   15f3c:	d8c080e7          	jalr	-628(ra) # 1ccc4 <memset>
   15f40:	4561                	li	a0,24
   15f42:	4595                	li	a1,5
   15f44:	00910613          	addi	a2,sp,9
   15f48:	06300693          	li	a3,99
   15f4c:	4711                	li	a4,4
   15f4e:	4789                	li	a5,2
   15f50:	00000073          	ecall
   15f54:	02f50763          	beq	a0,a5,15f82 <_ZN18complex_no_dynamic3app17haf29bd138e846855E+0x6a>
   15f58:	4561                	li	a0,24
   15f5a:	458d                	li	a1,3
   15f5c:	10f0                	addi	a2,sp,108
   15f5e:	02c00693          	li	a3,44
   15f62:	470d                	li	a4,3
   15f64:	00000073          	ecall
   15f68:	00f50d63          	beq	a0,a5,15f82 <_ZN18complex_no_dynamic3app17haf29bd138e846855E+0x6a>
   15f6c:	4561                	li	a0,24
   15f6e:	4595                	li	a1,5
   15f70:	460d                	li	a2,3
   15f72:	4709                	li	a4,2
   15f74:	07f00793          	li	a5,127
   15f78:	4681                	li	a3,0
   15f7a:	00000073          	ecall
   15f7e:	02a7e763          	bltu	a5,a0,15fac <_ZN18complex_no_dynamic3app17haf29bd138e846855E+0x94>
   15f82:	4785                	li	a5,1
   15f84:	cf8d                	beqz	a5,15fbe <_ZN18complex_no_dynamic3app17haf29bd138e846855E+0xa6>
   15f86:	4601                	li	a2,0
   15f88:	4681                	li	a3,0
   15f8a:	4705                	li	a4,1
   15f8c:	4561                	li	a0,24
   15f8e:	00e40023          	sb	a4,0(s0)
   15f92:	c04c                	sw	a1,4(s0)
   15f94:	458d                	li	a1,3
   15f96:	470d                	li	a4,3
   15f98:	00000073          	ecall
   15f9c:	4561                	li	a0,24
   15f9e:	4595                	li	a1,5
   15fa0:	4711                	li	a4,4
   15fa2:	4601                	li	a2,0
   15fa4:	4681                	li	a3,0
   15fa6:	00000073          	ecall
   15faa:	a891                	j	15ffe <_ZN18complex_no_dynamic3app17haf29bd138e846855E+0xe6>
   15fac:	4601                	li	a2,0
   15fae:	4681                	li	a3,0
   15fb0:	4781                	li	a5,0
   15fb2:	4561                	li	a0,24
   15fb4:	458d                	li	a1,3
   15fb6:	470d                	li	a4,3
   15fb8:	00000073          	ecall
   15fbc:	f7e9                	bnez	a5,15f86 <_ZN18complex_no_dynamic3app17haf29bd138e846855E+0x6e>
   15fbe:	4561                	li	a0,24
   15fc0:	458d                	li	a1,3
   15fc2:	470d                	li	a4,3
   15fc4:	4601                	li	a2,0
   15fc6:	4681                	li	a3,0
   15fc8:	00000073          	ecall
   15fcc:	00140513          	addi	a0,s0,1
   15fd0:	10ec                	addi	a1,sp,108
   15fd2:	02c00613          	li	a2,44
   15fd6:	00007097          	auipc	ra,0x7
   15fda:	d5a080e7          	jalr	-678(ra) # 1cd30 <memcpy>
   15fde:	4601                	li	a2,0
   15fe0:	4681                	li	a3,0
   15fe2:	00040023          	sb	zero,0(s0)
   15fe6:	4561                	li	a0,24
   15fe8:	458d                	li	a1,3
   15fea:	470d                	li	a4,3
   15fec:	00000073          	ecall
   15ff0:	4561                	li	a0,24
   15ff2:	4595                	li	a1,5
   15ff4:	4711                	li	a4,4
   15ff6:	4601                	li	a2,0
   15ff8:	4681                	li	a3,0
   15ffa:	00000073          	ecall
   15ffe:	40fa                	lw	ra,156(sp)
   16000:	446a                	lw	s0,152(sp)
   16002:	610d                	addi	sp,sp,160
   16004:	8082                	ret

00016006 <_ZN18complex_no_dynamic3app17hb18c8d9bdaa5764cE>:
   16006:	7175                	addi	sp,sp,-144
   16008:	c706                	sw	ra,140(sp)
   1600a:	c522                	sw	s0,136(sp)
   1600c:	c326                	sw	s1,132(sp)
   1600e:	842a                	mv	s0,a0
   16010:	00e10513          	addi	a0,sp,14
   16014:	02700613          	li	a2,39
   16018:	00007097          	auipc	ra,0x7
   1601c:	d18080e7          	jalr	-744(ra) # 1cd30 <memcpy>
   16020:	03510513          	addi	a0,sp,53
   16024:	04f00613          	li	a2,79
   16028:	4581                	li	a1,0
   1602a:	00007097          	auipc	ra,0x7
   1602e:	c9a080e7          	jalr	-870(ra) # 1ccc4 <memset>
   16032:	6505                	lui	a0,0x1
   16034:	45a5                	li	a1,9
   16036:	00e10613          	addi	a2,sp,14
   1603a:	02700693          	li	a3,39
   1603e:	b4c50793          	addi	a5,a0,-1204 # b4c <.Lline_table_start1+0x921>
   16042:	4711                	li	a4,4
   16044:	4489                	li	s1,2
   16046:	853e                	mv	a0,a5
   16048:	00000073          	ecall
   1604c:	02950b63          	beq	a0,s1,16082 <_ZN18complex_no_dynamic3app17hb18c8d9bdaa5764cE+0x7c>
   16050:	03510613          	addi	a2,sp,53
   16054:	04f00693          	li	a3,79
   16058:	470d                	li	a4,3
   1605a:	853e                	mv	a0,a5
   1605c:	4581                	li	a1,0
   1605e:	00000073          	ecall
   16062:	02950063          	beq	a0,s1,16082 <_ZN18complex_no_dynamic3app17hb18c8d9bdaa5764cE+0x7c>
   16066:	6505                	lui	a0,0x1
   16068:	45a5                	li	a1,9
   1606a:	b4c50793          	addi	a5,a0,-1204 # b4c <.Lline_table_start1+0x921>
   1606e:	4709                	li	a4,2
   16070:	07f00493          	li	s1,127
   16074:	853e                	mv	a0,a5
   16076:	4601                	li	a2,0
   16078:	4681                	li	a3,0
   1607a:	00000073          	ecall
   1607e:	02a4eb63          	bltu	s1,a0,160b4 <_ZN18complex_no_dynamic3app17hb18c8d9bdaa5764cE+0xae>
   16082:	4785                	li	a5,1
   16084:	c3a9                	beqz	a5,160c6 <_ZN18complex_no_dynamic3app17hb18c8d9bdaa5764cE+0xc0>
   16086:	852e                	mv	a0,a1
   16088:	4581                	li	a1,0
   1608a:	4601                	li	a2,0
   1608c:	4681                	li	a3,0
   1608e:	4705                	li	a4,1
   16090:	6785                	lui	a5,0x1
   16092:	00e40023          	sb	a4,0(s0)
   16096:	c048                	sw	a0,4(s0)
   16098:	b4c78793          	addi	a5,a5,-1204 # b4c <.Lline_table_start1+0x921>
   1609c:	470d                	li	a4,3
   1609e:	853e                	mv	a0,a5
   160a0:	00000073          	ecall
   160a4:	45a5                	li	a1,9
   160a6:	4711                	li	a4,4
   160a8:	853e                	mv	a0,a5
   160aa:	4601                	li	a2,0
   160ac:	4681                	li	a3,0
   160ae:	00000073          	ecall
   160b2:	a8b1                	j	1610e <_ZN18complex_no_dynamic3app17hb18c8d9bdaa5764cE+0x108>
   160b4:	853e                	mv	a0,a5
   160b6:	4581                	li	a1,0
   160b8:	4601                	li	a2,0
   160ba:	4681                	li	a3,0
   160bc:	4781                	li	a5,0
   160be:	470d                	li	a4,3
   160c0:	00000073          	ecall
   160c4:	f3e9                	bnez	a5,16086 <_ZN18complex_no_dynamic3app17hb18c8d9bdaa5764cE+0x80>
   160c6:	6505                	lui	a0,0x1
   160c8:	b4c50493          	addi	s1,a0,-1204 # b4c <.Lline_table_start1+0x921>
   160cc:	470d                	li	a4,3
   160ce:	8526                	mv	a0,s1
   160d0:	4581                	li	a1,0
   160d2:	4601                	li	a2,0
   160d4:	4681                	li	a3,0
   160d6:	00000073          	ecall
   160da:	00140513          	addi	a0,s0,1
   160de:	03510593          	addi	a1,sp,53
   160e2:	04f00613          	li	a2,79
   160e6:	00007097          	auipc	ra,0x7
   160ea:	c4a080e7          	jalr	-950(ra) # 1cd30 <memcpy>
   160ee:	8526                	mv	a0,s1
   160f0:	4581                	li	a1,0
   160f2:	4601                	li	a2,0
   160f4:	4681                	li	a3,0
   160f6:	00040023          	sb	zero,0(s0)
   160fa:	470d                	li	a4,3
   160fc:	00000073          	ecall
   16100:	45a5                	li	a1,9
   16102:	4711                	li	a4,4
   16104:	8526                	mv	a0,s1
   16106:	4601                	li	a2,0
   16108:	4681                	li	a3,0
   1610a:	00000073          	ecall
   1610e:	40ba                	lw	ra,140(sp)
   16110:	442a                	lw	s0,136(sp)
   16112:	449a                	lw	s1,132(sp)
   16114:	6149                	addi	sp,sp,144
   16116:	8082                	ret

00016118 <_ZN18complex_no_dynamic3app17hb6d36c521ba00828E>:
   16118:	715d                	addi	sp,sp,-80
   1611a:	c686                	sw	ra,76(sp)
   1611c:	c4a2                	sw	s0,72(sp)
   1611e:	c2a6                	sw	s1,68(sp)
   16120:	c0ca                	sw	s2,64(sp)
   16122:	de4e                	sw	s3,60(sp)
   16124:	892a                	mv	s2,a0
   16126:	0185c803          	lbu	a6,24(a1)
   1612a:	0195c383          	lbu	t2,25(a1)
   1612e:	0145c883          	lbu	a7,20(a1)
   16132:	0155ce83          	lbu	t4,21(a1)
   16136:	0165c783          	lbu	a5,22(a1)
   1613a:	0175c483          	lbu	s1,23(a1)
   1613e:	0105c403          	lbu	s0,16(a1)
   16142:	0115c503          	lbu	a0,17(a1)
   16146:	0125c283          	lbu	t0,18(a1)
   1614a:	0135ce03          	lbu	t3,19(a1)
   1614e:	00c5c303          	lbu	t1,12(a1)
   16152:	00d5cf03          	lbu	t5,13(a1)
   16156:	00e5c683          	lbu	a3,14(a1)
   1615a:	00f5c703          	lbu	a4,15(a1)
   1615e:	03a2                	slli	t2,t2,0x8
   16160:	0ea2                	slli	t4,t4,0x8
   16162:	01079613          	slli	a2,a5,0x10
   16166:	01849793          	slli	a5,s1,0x18
   1616a:	0522                	slli	a0,a0,0x8
   1616c:	0103e833          	or	a6,t2,a6
   16170:	011ee8b3          	or	a7,t4,a7
   16174:	00c7e3b3          	or	t2,a5,a2
   16178:	00856eb3          	or	t4,a0,s0
   1617c:	0085c503          	lbu	a0,8(a1)
   16180:	0095c603          	lbu	a2,9(a1)
   16184:	00a5c483          	lbu	s1,10(a1)
   16188:	00b5c783          	lbu	a5,11(a1)
   1618c:	02c2                	slli	t0,t0,0x10
   1618e:	0e62                	slli	t3,t3,0x18
   16190:	0f22                	slli	t5,t5,0x8
   16192:	06c2                	slli	a3,a3,0x10
   16194:	0762                	slli	a4,a4,0x18
   16196:	0622                	slli	a2,a2,0x8
   16198:	005e6433          	or	s0,t3,t0
   1619c:	006f62b3          	or	t0,t5,t1
   161a0:	00d76e33          	or	t3,a4,a3
   161a4:	00a66333          	or	t1,a2,a0
   161a8:	0045c603          	lbu	a2,4(a1)
   161ac:	0055c703          	lbu	a4,5(a1)
   161b0:	0065c503          	lbu	a0,6(a1)
   161b4:	0075c683          	lbu	a3,7(a1)
   161b8:	04c2                	slli	s1,s1,0x10
   161ba:	07e2                	slli	a5,a5,0x18
   161bc:	0722                	slli	a4,a4,0x8
   161be:	0542                	slli	a0,a0,0x10
   161c0:	06e2                	slli	a3,a3,0x18
   161c2:	0097efb3          	or	t6,a5,s1
   161c6:	00c76f33          	or	t5,a4,a2
   161ca:	0005c703          	lbu	a4,0(a1)
   161ce:	0015c483          	lbu	s1,1(a1)
   161d2:	00a6e633          	or	a2,a3,a0
   161d6:	0025c683          	lbu	a3,2(a1)
   161da:	0035c583          	lbu	a1,3(a1)
   161de:	04a2                	slli	s1,s1,0x8
   161e0:	00e4e9b3          	or	s3,s1,a4
   161e4:	06c2                	slli	a3,a3,0x10
   161e6:	05e2                	slli	a1,a1,0x18
   161e8:	8ecd                	or	a3,a3,a1
   161ea:	0113e7b3          	or	a5,t2,a7
   161ee:	01d46733          	or	a4,s0,t4
   161f2:	d802                	sw	zero,48(sp)
   161f4:	da02                	sw	zero,52(sp)
   161f6:	02011c23          	sh	zero,56(sp)
   161fa:	02010d23          	sb	zero,58(sp)
   161fe:	d002                	sw	zero,32(sp)
   16200:	d202                	sw	zero,36(sp)
   16202:	d402                	sw	zero,40(sp)
   16204:	d602                	sw	zero,44(sp)
   16206:	005e62b3          	or	t0,t3,t0
   1620a:	6889                	lui	a7,0x2
   1620c:	006fe4b3          	or	s1,t6,t1
   16210:	4595                	li	a1,5
   16212:	01e66433          	or	s0,a2,t5
   16216:	0050                	addi	a2,sp,4
   16218:	0136e533          	or	a0,a3,s3
   1621c:	46e9                	li	a3,26
   1621e:	ca3a                	sw	a4,20(sp)
   16220:	cc3e                	sw	a5,24(sp)
   16222:	01011e23          	sh	a6,28(sp)
   16226:	4711                	li	a4,4
   16228:	cce88793          	addi	a5,a7,-818 # 1cce <.Lline_table_start1+0x1aa3>
   1622c:	c22a                	sw	a0,4(sp)
   1622e:	c422                	sw	s0,8(sp)
   16230:	c626                	sw	s1,12(sp)
   16232:	c816                	sw	t0,16(sp)
   16234:	4489                	li	s1,2
   16236:	853e                	mv	a0,a5
   16238:	00000073          	ecall
   1623c:	02950963          	beq	a0,s1,1626e <_ZN18complex_no_dynamic3app17hb6d36c521ba00828E+0x156>
   16240:	4589                	li	a1,2
   16242:	1010                	addi	a2,sp,32
   16244:	46ed                	li	a3,27
   16246:	470d                	li	a4,3
   16248:	853e                	mv	a0,a5
   1624a:	00000073          	ecall
   1624e:	02950063          	beq	a0,s1,1626e <_ZN18complex_no_dynamic3app17hb6d36c521ba00828E+0x156>
   16252:	6509                	lui	a0,0x2
   16254:	4595                	li	a1,5
   16256:	4609                	li	a2,2
   16258:	cce50793          	addi	a5,a0,-818 # 1cce <.Lline_table_start1+0x1aa3>
   1625c:	4709                	li	a4,2
   1625e:	07f00493          	li	s1,127
   16262:	853e                	mv	a0,a5
   16264:	4681                	li	a3,0
   16266:	00000073          	ecall
   1626a:	02a4ec63          	bltu	s1,a0,162a2 <_ZN18complex_no_dynamic3app17hb6d36c521ba00828E+0x18a>
   1626e:	4785                	li	a5,1
   16270:	c3b1                	beqz	a5,162b4 <_ZN18complex_no_dynamic3app17hb6d36c521ba00828E+0x19c>
   16272:	4601                	li	a2,0
   16274:	4681                	li	a3,0
   16276:	4505                	li	a0,1
   16278:	6709                	lui	a4,0x2
   1627a:	87ae                	mv	a5,a1
   1627c:	4589                	li	a1,2
   1627e:	00a90023          	sb	a0,0(s2)
   16282:	00f92223          	sw	a5,4(s2)
   16286:	cce70793          	addi	a5,a4,-818 # 1cce <.Lline_table_start1+0x1aa3>
   1628a:	470d                	li	a4,3
   1628c:	853e                	mv	a0,a5
   1628e:	00000073          	ecall
   16292:	4595                	li	a1,5
   16294:	4711                	li	a4,4
   16296:	853e                	mv	a0,a5
   16298:	4601                	li	a2,0
   1629a:	4681                	li	a3,0
   1629c:	00000073          	ecall
   162a0:	a8a1                	j	162f8 <_ZN18complex_no_dynamic3app17hb6d36c521ba00828E+0x1e0>
   162a2:	853e                	mv	a0,a5
   162a4:	4601                	li	a2,0
   162a6:	4681                	li	a3,0
   162a8:	4781                	li	a5,0
   162aa:	4589                	li	a1,2
   162ac:	470d                	li	a4,3
   162ae:	00000073          	ecall
   162b2:	f3e1                	bnez	a5,16272 <_ZN18complex_no_dynamic3app17hb6d36c521ba00828E+0x15a>
   162b4:	6509                	lui	a0,0x2
   162b6:	cce50493          	addi	s1,a0,-818 # 1cce <.Lline_table_start1+0x1aa3>
   162ba:	4589                	li	a1,2
   162bc:	470d                	li	a4,3
   162be:	8526                	mv	a0,s1
   162c0:	4601                	li	a2,0
   162c2:	4681                	li	a3,0
   162c4:	00000073          	ecall
   162c8:	00190513          	addi	a0,s2,1
   162cc:	100c                	addi	a1,sp,32
   162ce:	466d                	li	a2,27
   162d0:	00007097          	auipc	ra,0x7
   162d4:	a60080e7          	jalr	-1440(ra) # 1cd30 <memcpy>
   162d8:	8526                	mv	a0,s1
   162da:	4601                	li	a2,0
   162dc:	4681                	li	a3,0
   162de:	00090023          	sb	zero,0(s2)
   162e2:	4589                	li	a1,2
   162e4:	470d                	li	a4,3
   162e6:	00000073          	ecall
   162ea:	4595                	li	a1,5
   162ec:	4711                	li	a4,4
   162ee:	8526                	mv	a0,s1
   162f0:	4601                	li	a2,0
   162f2:	4681                	li	a3,0
   162f4:	00000073          	ecall
   162f8:	40b6                	lw	ra,76(sp)
   162fa:	4426                	lw	s0,72(sp)
   162fc:	4496                	lw	s1,68(sp)
   162fe:	4906                	lw	s2,64(sp)
   16300:	59f2                	lw	s3,60(sp)
   16302:	6161                	addi	sp,sp,80
   16304:	8082                	ret

00016306 <_ZN18complex_no_dynamic3app17hb9455a1d454e57d2E>:
   16306:	711d                	addi	sp,sp,-96
   16308:	ce86                	sw	ra,92(sp)
   1630a:	cca2                	sw	s0,88(sp)
   1630c:	caa6                	sw	s1,84(sp)
   1630e:	c8ca                	sw	s2,80(sp)
   16310:	892a                	mv	s2,a0
   16312:	0105c503          	lbu	a0,16(a1)
   16316:	00c5c803          	lbu	a6,12(a1)
   1631a:	00d5c683          	lbu	a3,13(a1)
   1631e:	00e5c703          	lbu	a4,14(a1)
   16322:	00f5c783          	lbu	a5,15(a1)
   16326:	0085c483          	lbu	s1,8(a1)
   1632a:	0095c403          	lbu	s0,9(a1)
   1632e:	00a5c883          	lbu	a7,10(a1)
   16332:	00b5c603          	lbu	a2,11(a1)
   16336:	00a10823          	sb	a0,16(sp)
   1633a:	06a2                	slli	a3,a3,0x8
   1633c:	0742                	slli	a4,a4,0x10
   1633e:	07e2                	slli	a5,a5,0x18
   16340:	0422                	slli	s0,s0,0x8
   16342:	0106e833          	or	a6,a3,a6
   16346:	00e7e2b3          	or	t0,a5,a4
   1634a:	8c45                	or	s0,s0,s1
   1634c:	0045c683          	lbu	a3,4(a1)
   16350:	0055c783          	lbu	a5,5(a1)
   16354:	0065c483          	lbu	s1,6(a1)
   16358:	0075c503          	lbu	a0,7(a1)
   1635c:	08c2                	slli	a7,a7,0x10
   1635e:	0662                	slli	a2,a2,0x18
   16360:	07a2                	slli	a5,a5,0x8
   16362:	04c2                	slli	s1,s1,0x10
   16364:	0562                	slli	a0,a0,0x18
   16366:	01166633          	or	a2,a2,a7
   1636a:	8edd                	or	a3,a3,a5
   1636c:	0005c783          	lbu	a5,0(a1)
   16370:	0015c703          	lbu	a4,1(a1)
   16374:	8d45                	or	a0,a0,s1
   16376:	0025c483          	lbu	s1,2(a1)
   1637a:	0035c583          	lbu	a1,3(a1)
   1637e:	0722                	slli	a4,a4,0x8
   16380:	8f5d                	or	a4,a4,a5
   16382:	04c2                	slli	s1,s1,0x10
   16384:	05e2                	slli	a1,a1,0x18
   16386:	8dc5                	or	a1,a1,s1
   16388:	0102e7b3          	or	a5,t0,a6
   1638c:	8e41                	or	a2,a2,s0
   1638e:	8d55                	or	a0,a0,a3
   16390:	8dd9                	or	a1,a1,a4
   16392:	c02e                	sw	a1,0(sp)
   16394:	c22a                	sw	a0,4(sp)
   16396:	c432                	sw	a2,8(sp)
   16398:	c63e                	sw	a5,12(sp)
   1639a:	01110513          	addi	a0,sp,17
   1639e:	03f00613          	li	a2,63
   163a2:	4581                	li	a1,0
   163a4:	00007097          	auipc	ra,0x7
   163a8:	920080e7          	jalr	-1760(ra) # 1ccc4 <memset>
   163ac:	6505                	lui	a0,0x1
   163ae:	459d                	li	a1,7
   163b0:	860a                	mv	a2,sp
   163b2:	46c5                	li	a3,17
   163b4:	cb050793          	addi	a5,a0,-848 # cb0 <.Lline_table_start1+0xa85>
   163b8:	4711                	li	a4,4
   163ba:	4489                	li	s1,2
   163bc:	853e                	mv	a0,a5
   163be:	00000073          	ecall
   163c2:	02950b63          	beq	a0,s1,163f8 <_ZN18complex_no_dynamic3app17hb9455a1d454e57d2E+0xf2>
   163c6:	4591                	li	a1,4
   163c8:	01110613          	addi	a2,sp,17
   163cc:	03f00693          	li	a3,63
   163d0:	470d                	li	a4,3
   163d2:	853e                	mv	a0,a5
   163d4:	00000073          	ecall
   163d8:	02950063          	beq	a0,s1,163f8 <_ZN18complex_no_dynamic3app17hb9455a1d454e57d2E+0xf2>
   163dc:	6505                	lui	a0,0x1
   163de:	459d                	li	a1,7
   163e0:	4611                	li	a2,4
   163e2:	cb050793          	addi	a5,a0,-848 # cb0 <.Lline_table_start1+0xa85>
   163e6:	4709                	li	a4,2
   163e8:	07f00493          	li	s1,127
   163ec:	853e                	mv	a0,a5
   163ee:	4681                	li	a3,0
   163f0:	00000073          	ecall
   163f4:	02a4ec63          	bltu	s1,a0,1642c <_ZN18complex_no_dynamic3app17hb9455a1d454e57d2E+0x126>
   163f8:	4785                	li	a5,1
   163fa:	c3b1                	beqz	a5,1643e <_ZN18complex_no_dynamic3app17hb9455a1d454e57d2E+0x138>
   163fc:	4601                	li	a2,0
   163fe:	4681                	li	a3,0
   16400:	4505                	li	a0,1
   16402:	6705                	lui	a4,0x1
   16404:	87ae                	mv	a5,a1
   16406:	4591                	li	a1,4
   16408:	00a90023          	sb	a0,0(s2)
   1640c:	00f92223          	sw	a5,4(s2)
   16410:	cb070793          	addi	a5,a4,-848 # cb0 <.Lline_table_start1+0xa85>
   16414:	470d                	li	a4,3
   16416:	853e                	mv	a0,a5
   16418:	00000073          	ecall
   1641c:	459d                	li	a1,7
   1641e:	4711                	li	a4,4
   16420:	853e                	mv	a0,a5
   16422:	4601                	li	a2,0
   16424:	4681                	li	a3,0
   16426:	00000073          	ecall
   1642a:	a8b1                	j	16486 <_ZN18complex_no_dynamic3app17hb9455a1d454e57d2E+0x180>
   1642c:	853e                	mv	a0,a5
   1642e:	4601                	li	a2,0
   16430:	4681                	li	a3,0
   16432:	4781                	li	a5,0
   16434:	4591                	li	a1,4
   16436:	470d                	li	a4,3
   16438:	00000073          	ecall
   1643c:	f3e1                	bnez	a5,163fc <_ZN18complex_no_dynamic3app17hb9455a1d454e57d2E+0xf6>
   1643e:	6505                	lui	a0,0x1
   16440:	cb050493          	addi	s1,a0,-848 # cb0 <.Lline_table_start1+0xa85>
   16444:	4591                	li	a1,4
   16446:	470d                	li	a4,3
   16448:	8526                	mv	a0,s1
   1644a:	4601                	li	a2,0
   1644c:	4681                	li	a3,0
   1644e:	00000073          	ecall
   16452:	00190513          	addi	a0,s2,1
   16456:	01110593          	addi	a1,sp,17
   1645a:	03f00613          	li	a2,63
   1645e:	00007097          	auipc	ra,0x7
   16462:	8d2080e7          	jalr	-1838(ra) # 1cd30 <memcpy>
   16466:	8526                	mv	a0,s1
   16468:	4601                	li	a2,0
   1646a:	4681                	li	a3,0
   1646c:	00090023          	sb	zero,0(s2)
   16470:	4591                	li	a1,4
   16472:	470d                	li	a4,3
   16474:	00000073          	ecall
   16478:	459d                	li	a1,7
   1647a:	4711                	li	a4,4
   1647c:	8526                	mv	a0,s1
   1647e:	4601                	li	a2,0
   16480:	4681                	li	a3,0
   16482:	00000073          	ecall
   16486:	40f6                	lw	ra,92(sp)
   16488:	4466                	lw	s0,88(sp)
   1648a:	44d6                	lw	s1,84(sp)
   1648c:	4946                	lw	s2,80(sp)
   1648e:	6125                	addi	sp,sp,96
   16490:	8082                	ret

00016492 <_ZN18complex_no_dynamic3app17hb94f0ee9c937c4d9E>:
   16492:	7159                	addi	sp,sp,-112
   16494:	d686                	sw	ra,108(sp)
   16496:	d4a2                	sw	s0,104(sp)
   16498:	842a                	mv	s0,a0
   1649a:	00610513          	addi	a0,sp,6
   1649e:	03400613          	li	a2,52
   164a2:	00007097          	auipc	ra,0x7
   164a6:	88e080e7          	jalr	-1906(ra) # 1cd30 <memcpy>
   164aa:	03a10513          	addi	a0,sp,58
   164ae:	02e00613          	li	a2,46
   164b2:	4581                	li	a1,0
   164b4:	00007097          	auipc	ra,0x7
   164b8:	810080e7          	jalr	-2032(ra) # 1ccc4 <memset>
   164bc:	4789                	li	a5,2
   164be:	20900513          	li	a0,521
   164c2:	4589                	li	a1,2
   164c4:	00610613          	addi	a2,sp,6
   164c8:	03400693          	li	a3,52
   164cc:	4711                	li	a4,4
   164ce:	00000073          	ecall
   164d2:	02f50a63          	beq	a0,a5,16506 <_ZN18complex_no_dynamic3app17hb94f0ee9c937c4d9E+0x74>
   164d6:	20900513          	li	a0,521
   164da:	45a1                	li	a1,8
   164dc:	03a10613          	addi	a2,sp,58
   164e0:	02e00693          	li	a3,46
   164e4:	470d                	li	a4,3
   164e6:	00000073          	ecall
   164ea:	00f50e63          	beq	a0,a5,16506 <_ZN18complex_no_dynamic3app17hb94f0ee9c937c4d9E+0x74>
   164ee:	20900513          	li	a0,521
   164f2:	4589                	li	a1,2
   164f4:	4621                	li	a2,8
   164f6:	4709                	li	a4,2
   164f8:	07f00793          	li	a5,127
   164fc:	4681                	li	a3,0
   164fe:	00000073          	ecall
   16502:	02a7e963          	bltu	a5,a0,16534 <_ZN18complex_no_dynamic3app17hb94f0ee9c937c4d9E+0xa2>
   16506:	4785                	li	a5,1
   16508:	c3a1                	beqz	a5,16548 <_ZN18complex_no_dynamic3app17hb94f0ee9c937c4d9E+0xb6>
   1650a:	4601                	li	a2,0
   1650c:	4681                	li	a3,0
   1650e:	4705                	li	a4,1
   16510:	20900513          	li	a0,521
   16514:	00e40023          	sb	a4,0(s0)
   16518:	c04c                	sw	a1,4(s0)
   1651a:	45a1                	li	a1,8
   1651c:	470d                	li	a4,3
   1651e:	00000073          	ecall
   16522:	20900513          	li	a0,521
   16526:	4589                	li	a1,2
   16528:	4711                	li	a4,4
   1652a:	4601                	li	a2,0
   1652c:	4681                	li	a3,0
   1652e:	00000073          	ecall
   16532:	a8b9                	j	16590 <_ZN18complex_no_dynamic3app17hb94f0ee9c937c4d9E+0xfe>
   16534:	4601                	li	a2,0
   16536:	4681                	li	a3,0
   16538:	4781                	li	a5,0
   1653a:	20900513          	li	a0,521
   1653e:	45a1                	li	a1,8
   16540:	470d                	li	a4,3
   16542:	00000073          	ecall
   16546:	f3f1                	bnez	a5,1650a <_ZN18complex_no_dynamic3app17hb94f0ee9c937c4d9E+0x78>
   16548:	20900513          	li	a0,521
   1654c:	45a1                	li	a1,8
   1654e:	470d                	li	a4,3
   16550:	4601                	li	a2,0
   16552:	4681                	li	a3,0
   16554:	00000073          	ecall
   16558:	00140513          	addi	a0,s0,1
   1655c:	03a10593          	addi	a1,sp,58
   16560:	02e00613          	li	a2,46
   16564:	00006097          	auipc	ra,0x6
   16568:	7cc080e7          	jalr	1996(ra) # 1cd30 <memcpy>
   1656c:	4601                	li	a2,0
   1656e:	4681                	li	a3,0
   16570:	00040023          	sb	zero,0(s0)
   16574:	20900513          	li	a0,521
   16578:	45a1                	li	a1,8
   1657a:	470d                	li	a4,3
   1657c:	00000073          	ecall
   16580:	20900513          	li	a0,521
   16584:	4589                	li	a1,2
   16586:	4711                	li	a4,4
   16588:	4601                	li	a2,0
   1658a:	4681                	li	a3,0
   1658c:	00000073          	ecall
   16590:	50b6                	lw	ra,108(sp)
   16592:	5426                	lw	s0,104(sp)
   16594:	6165                	addi	sp,sp,112
   16596:	8082                	ret

00016598 <_ZN18complex_no_dynamic3app17hba11945478f7a196E>:
   16598:	715d                	addi	sp,sp,-80
   1659a:	c686                	sw	ra,76(sp)
   1659c:	c4a2                	sw	s0,72(sp)
   1659e:	c2a6                	sw	s1,68(sp)
   165a0:	c0ca                	sw	s2,64(sp)
   165a2:	892a                	mv	s2,a0
   165a4:	00c5c503          	lbu	a0,12(a1)
   165a8:	00d5c603          	lbu	a2,13(a1)
   165ac:	00e5c683          	lbu	a3,14(a1)
   165b0:	0085c703          	lbu	a4,8(a1)
   165b4:	0095c783          	lbu	a5,9(a1)
   165b8:	00a5c403          	lbu	s0,10(a1)
   165bc:	00b5c483          	lbu	s1,11(a1)
   165c0:	00d10d23          	sb	a3,26(sp)
   165c4:	0622                	slli	a2,a2,0x8
   165c6:	07a2                	slli	a5,a5,0x8
   165c8:	00a66833          	or	a6,a2,a0
   165cc:	8f5d                	or	a4,a4,a5
   165ce:	0045c603          	lbu	a2,4(a1)
   165d2:	0055c683          	lbu	a3,5(a1)
   165d6:	0065c783          	lbu	a5,6(a1)
   165da:	0075c503          	lbu	a0,7(a1)
   165de:	0442                	slli	s0,s0,0x10
   165e0:	04e2                	slli	s1,s1,0x18
   165e2:	06a2                	slli	a3,a3,0x8
   165e4:	07c2                	slli	a5,a5,0x10
   165e6:	0562                	slli	a0,a0,0x18
   165e8:	8c45                	or	s0,s0,s1
   165ea:	8e55                	or	a2,a2,a3
   165ec:	0005c683          	lbu	a3,0(a1)
   165f0:	0015c483          	lbu	s1,1(a1)
   165f4:	8d5d                	or	a0,a0,a5
   165f6:	0025c783          	lbu	a5,2(a1)
   165fa:	0035c583          	lbu	a1,3(a1)
   165fe:	04a2                	slli	s1,s1,0x8
   16600:	8ec5                	or	a3,a3,s1
   16602:	07c2                	slli	a5,a5,0x10
   16604:	05e2                	slli	a1,a1,0x18
   16606:	8ddd                	or	a1,a1,a5
   16608:	8f41                	or	a4,a4,s0
   1660a:	8d51                	or	a0,a0,a2
   1660c:	8dd5                	or	a1,a1,a3
   1660e:	c62e                	sw	a1,12(sp)
   16610:	c82a                	sw	a0,16(sp)
   16612:	ca3a                	sw	a4,20(sp)
   16614:	01011c23          	sh	a6,24(sp)
   16618:	01b10513          	addi	a0,sp,27
   1661c:	02500613          	li	a2,37
   16620:	4581                	li	a1,0
   16622:	00006097          	auipc	ra,0x6
   16626:	6a2080e7          	jalr	1698(ra) # 1ccc4 <memset>
   1662a:	0a200513          	li	a0,162
   1662e:	45a1                	li	a1,8
   16630:	0070                	addi	a2,sp,12
   16632:	46bd                	li	a3,15
   16634:	4711                	li	a4,4
   16636:	4789                	li	a5,2
   16638:	00000073          	ecall
   1663c:	02f50a63          	beq	a0,a5,16670 <_ZN18complex_no_dynamic3app17hba11945478f7a196E+0xd8>
   16640:	0a200513          	li	a0,162
   16644:	01b10613          	addi	a2,sp,27
   16648:	02500693          	li	a3,37
   1664c:	470d                	li	a4,3
   1664e:	4581                	li	a1,0
   16650:	00000073          	ecall
   16654:	00f50e63          	beq	a0,a5,16670 <_ZN18complex_no_dynamic3app17hba11945478f7a196E+0xd8>
   16658:	0a200513          	li	a0,162
   1665c:	45a1                	li	a1,8
   1665e:	4709                	li	a4,2
   16660:	07f00793          	li	a5,127
   16664:	4601                	li	a2,0
   16666:	4681                	li	a3,0
   16668:	00000073          	ecall
   1666c:	02a7eb63          	bltu	a5,a0,166a2 <_ZN18complex_no_dynamic3app17hba11945478f7a196E+0x10a>
   16670:	4785                	li	a5,1
   16672:	c3b1                	beqz	a5,166b6 <_ZN18complex_no_dynamic3app17hba11945478f7a196E+0x11e>
   16674:	852e                	mv	a0,a1
   16676:	4581                	li	a1,0
   16678:	4601                	li	a2,0
   1667a:	4681                	li	a3,0
   1667c:	4705                	li	a4,1
   1667e:	00e90023          	sb	a4,0(s2)
   16682:	00a92223          	sw	a0,4(s2)
   16686:	0a200513          	li	a0,162
   1668a:	470d                	li	a4,3
   1668c:	00000073          	ecall
   16690:	0a200513          	li	a0,162
   16694:	45a1                	li	a1,8
   16696:	4711                	li	a4,4
   16698:	4601                	li	a2,0
   1669a:	4681                	li	a3,0
   1669c:	00000073          	ecall
   166a0:	a8b9                	j	166fe <_ZN18complex_no_dynamic3app17hba11945478f7a196E+0x166>
   166a2:	4581                	li	a1,0
   166a4:	4601                	li	a2,0
   166a6:	4681                	li	a3,0
   166a8:	4781                	li	a5,0
   166aa:	0a200513          	li	a0,162
   166ae:	470d                	li	a4,3
   166b0:	00000073          	ecall
   166b4:	f3e1                	bnez	a5,16674 <_ZN18complex_no_dynamic3app17hba11945478f7a196E+0xdc>
   166b6:	0a200513          	li	a0,162
   166ba:	470d                	li	a4,3
   166bc:	4581                	li	a1,0
   166be:	4601                	li	a2,0
   166c0:	4681                	li	a3,0
   166c2:	00000073          	ecall
   166c6:	00190513          	addi	a0,s2,1
   166ca:	01b10593          	addi	a1,sp,27
   166ce:	02500613          	li	a2,37
   166d2:	00006097          	auipc	ra,0x6
   166d6:	65e080e7          	jalr	1630(ra) # 1cd30 <memcpy>
   166da:	4581                	li	a1,0
   166dc:	4601                	li	a2,0
   166de:	4681                	li	a3,0
   166e0:	00090023          	sb	zero,0(s2)
   166e4:	0a200513          	li	a0,162
   166e8:	470d                	li	a4,3
   166ea:	00000073          	ecall
   166ee:	0a200513          	li	a0,162
   166f2:	45a1                	li	a1,8
   166f4:	4711                	li	a4,4
   166f6:	4601                	li	a2,0
   166f8:	4681                	li	a3,0
   166fa:	00000073          	ecall
   166fe:	40b6                	lw	ra,76(sp)
   16700:	4426                	lw	s0,72(sp)
   16702:	4496                	lw	s1,68(sp)
   16704:	4906                	lw	s2,64(sp)
   16706:	6161                	addi	sp,sp,80
   16708:	8082                	ret

0001670a <_ZN18complex_no_dynamic3app17hbadd1363b189f42bE>:
   1670a:	7119                	addi	sp,sp,-128
   1670c:	de86                	sw	ra,124(sp)
   1670e:	dca2                	sw	s0,120(sp)
   16710:	daa6                	sw	s1,116(sp)
   16712:	842a                	mv	s0,a0
   16714:	00310513          	addi	a0,sp,3
   16718:	04800613          	li	a2,72
   1671c:	00006097          	auipc	ra,0x6
   16720:	614080e7          	jalr	1556(ra) # 1cd30 <memcpy>
   16724:	04b10513          	addi	a0,sp,75
   16728:	02900613          	li	a2,41
   1672c:	4581                	li	a1,0
   1672e:	00006097          	auipc	ra,0x6
   16732:	596080e7          	jalr	1430(ra) # 1ccc4 <memset>
   16736:	6509                	lui	a0,0x2
   16738:	458d                	li	a1,3
   1673a:	00310613          	addi	a2,sp,3
   1673e:	04800693          	li	a3,72
   16742:	6a450793          	addi	a5,a0,1700 # 26a4 <.Lline_table_start1+0x2479>
   16746:	4711                	li	a4,4
   16748:	4489                	li	s1,2
   1674a:	853e                	mv	a0,a5
   1674c:	00000073          	ecall
   16750:	02950b63          	beq	a0,s1,16786 <_ZN18complex_no_dynamic3app17hbadd1363b189f42bE+0x7c>
   16754:	4591                	li	a1,4
   16756:	04b10613          	addi	a2,sp,75
   1675a:	02900693          	li	a3,41
   1675e:	470d                	li	a4,3
   16760:	853e                	mv	a0,a5
   16762:	00000073          	ecall
   16766:	02950063          	beq	a0,s1,16786 <_ZN18complex_no_dynamic3app17hbadd1363b189f42bE+0x7c>
   1676a:	6509                	lui	a0,0x2
   1676c:	458d                	li	a1,3
   1676e:	4611                	li	a2,4
   16770:	6a450793          	addi	a5,a0,1700 # 26a4 <.Lline_table_start1+0x2479>
   16774:	4709                	li	a4,2
   16776:	07f00493          	li	s1,127
   1677a:	853e                	mv	a0,a5
   1677c:	4681                	li	a3,0
   1677e:	00000073          	ecall
   16782:	02a4eb63          	bltu	s1,a0,167b8 <_ZN18complex_no_dynamic3app17hbadd1363b189f42bE+0xae>
   16786:	4785                	li	a5,1
   16788:	c3a9                	beqz	a5,167ca <_ZN18complex_no_dynamic3app17hbadd1363b189f42bE+0xc0>
   1678a:	4601                	li	a2,0
   1678c:	4681                	li	a3,0
   1678e:	4505                	li	a0,1
   16790:	6709                	lui	a4,0x2
   16792:	87ae                	mv	a5,a1
   16794:	4591                	li	a1,4
   16796:	00a40023          	sb	a0,0(s0)
   1679a:	c05c                	sw	a5,4(s0)
   1679c:	6a470793          	addi	a5,a4,1700 # 26a4 <.Lline_table_start1+0x2479>
   167a0:	470d                	li	a4,3
   167a2:	853e                	mv	a0,a5
   167a4:	00000073          	ecall
   167a8:	458d                	li	a1,3
   167aa:	4711                	li	a4,4
   167ac:	853e                	mv	a0,a5
   167ae:	4601                	li	a2,0
   167b0:	4681                	li	a3,0
   167b2:	00000073          	ecall
   167b6:	a8b1                	j	16812 <_ZN18complex_no_dynamic3app17hbadd1363b189f42bE+0x108>
   167b8:	853e                	mv	a0,a5
   167ba:	4601                	li	a2,0
   167bc:	4681                	li	a3,0
   167be:	4781                	li	a5,0
   167c0:	4591                	li	a1,4
   167c2:	470d                	li	a4,3
   167c4:	00000073          	ecall
   167c8:	f3e9                	bnez	a5,1678a <_ZN18complex_no_dynamic3app17hbadd1363b189f42bE+0x80>
   167ca:	6509                	lui	a0,0x2
   167cc:	6a450493          	addi	s1,a0,1700 # 26a4 <.Lline_table_start1+0x2479>
   167d0:	4591                	li	a1,4
   167d2:	470d                	li	a4,3
   167d4:	8526                	mv	a0,s1
   167d6:	4601                	li	a2,0
   167d8:	4681                	li	a3,0
   167da:	00000073          	ecall
   167de:	00140513          	addi	a0,s0,1
   167e2:	04b10593          	addi	a1,sp,75
   167e6:	02900613          	li	a2,41
   167ea:	00006097          	auipc	ra,0x6
   167ee:	546080e7          	jalr	1350(ra) # 1cd30 <memcpy>
   167f2:	8526                	mv	a0,s1
   167f4:	4601                	li	a2,0
   167f6:	4681                	li	a3,0
   167f8:	00040023          	sb	zero,0(s0)
   167fc:	4591                	li	a1,4
   167fe:	470d                	li	a4,3
   16800:	00000073          	ecall
   16804:	458d                	li	a1,3
   16806:	4711                	li	a4,4
   16808:	8526                	mv	a0,s1
   1680a:	4601                	li	a2,0
   1680c:	4681                	li	a3,0
   1680e:	00000073          	ecall
   16812:	50f6                	lw	ra,124(sp)
   16814:	5466                	lw	s0,120(sp)
   16816:	54d6                	lw	s1,116(sp)
   16818:	6109                	addi	sp,sp,128
   1681a:	8082                	ret

0001681c <_ZN18complex_no_dynamic3app17hbcb3b3d347f0cbb4E>:
   1681c:	7119                	addi	sp,sp,-128
   1681e:	de86                	sw	ra,124(sp)
   16820:	dca2                	sw	s0,120(sp)
   16822:	daa6                	sw	s1,116(sp)
   16824:	842a                	mv	s0,a0
   16826:	00e10513          	addi	a0,sp,14
   1682a:	02e00613          	li	a2,46
   1682e:	00006097          	auipc	ra,0x6
   16832:	502080e7          	jalr	1282(ra) # 1cd30 <memcpy>
   16836:	1868                	addi	a0,sp,60
   16838:	03800613          	li	a2,56
   1683c:	4581                	li	a1,0
   1683e:	00006097          	auipc	ra,0x6
   16842:	486080e7          	jalr	1158(ra) # 1ccc4 <memset>
   16846:	6505                	lui	a0,0x1
   16848:	45a5                	li	a1,9
   1684a:	00e10613          	addi	a2,sp,14
   1684e:	02e00693          	li	a3,46
   16852:	a9d50793          	addi	a5,a0,-1379 # a9d <.Lline_table_start1+0x872>
   16856:	4711                	li	a4,4
   16858:	4489                	li	s1,2
   1685a:	853e                	mv	a0,a5
   1685c:	00000073          	ecall
   16860:	02950a63          	beq	a0,s1,16894 <_ZN18complex_no_dynamic3app17hbcb3b3d347f0cbb4E+0x78>
   16864:	45a5                	li	a1,9
   16866:	1870                	addi	a2,sp,60
   16868:	03800693          	li	a3,56
   1686c:	470d                	li	a4,3
   1686e:	853e                	mv	a0,a5
   16870:	00000073          	ecall
   16874:	02950063          	beq	a0,s1,16894 <_ZN18complex_no_dynamic3app17hbcb3b3d347f0cbb4E+0x78>
   16878:	6505                	lui	a0,0x1
   1687a:	45a5                	li	a1,9
   1687c:	4625                	li	a2,9
   1687e:	a9d50793          	addi	a5,a0,-1379 # a9d <.Lline_table_start1+0x872>
   16882:	4709                	li	a4,2
   16884:	07f00493          	li	s1,127
   16888:	853e                	mv	a0,a5
   1688a:	4681                	li	a3,0
   1688c:	00000073          	ecall
   16890:	02a4eb63          	bltu	s1,a0,168c6 <_ZN18complex_no_dynamic3app17hbcb3b3d347f0cbb4E+0xaa>
   16894:	4785                	li	a5,1
   16896:	c3a9                	beqz	a5,168d8 <_ZN18complex_no_dynamic3app17hbcb3b3d347f0cbb4E+0xbc>
   16898:	4601                	li	a2,0
   1689a:	4681                	li	a3,0
   1689c:	4505                	li	a0,1
   1689e:	6705                	lui	a4,0x1
   168a0:	87ae                	mv	a5,a1
   168a2:	45a5                	li	a1,9
   168a4:	00a40023          	sb	a0,0(s0)
   168a8:	c05c                	sw	a5,4(s0)
   168aa:	a9d70793          	addi	a5,a4,-1379 # a9d <.Lline_table_start1+0x872>
   168ae:	470d                	li	a4,3
   168b0:	853e                	mv	a0,a5
   168b2:	00000073          	ecall
   168b6:	45a5                	li	a1,9
   168b8:	4711                	li	a4,4
   168ba:	853e                	mv	a0,a5
   168bc:	4601                	li	a2,0
   168be:	4681                	li	a3,0
   168c0:	00000073          	ecall
   168c4:	a8a9                	j	1691e <_ZN18complex_no_dynamic3app17hbcb3b3d347f0cbb4E+0x102>
   168c6:	853e                	mv	a0,a5
   168c8:	4601                	li	a2,0
   168ca:	4681                	li	a3,0
   168cc:	4781                	li	a5,0
   168ce:	45a5                	li	a1,9
   168d0:	470d                	li	a4,3
   168d2:	00000073          	ecall
   168d6:	f3e9                	bnez	a5,16898 <_ZN18complex_no_dynamic3app17hbcb3b3d347f0cbb4E+0x7c>
   168d8:	6505                	lui	a0,0x1
   168da:	a9d50493          	addi	s1,a0,-1379 # a9d <.Lline_table_start1+0x872>
   168de:	45a5                	li	a1,9
   168e0:	470d                	li	a4,3
   168e2:	8526                	mv	a0,s1
   168e4:	4601                	li	a2,0
   168e6:	4681                	li	a3,0
   168e8:	00000073          	ecall
   168ec:	00140513          	addi	a0,s0,1
   168f0:	186c                	addi	a1,sp,60
   168f2:	03800613          	li	a2,56
   168f6:	00006097          	auipc	ra,0x6
   168fa:	43a080e7          	jalr	1082(ra) # 1cd30 <memcpy>
   168fe:	8526                	mv	a0,s1
   16900:	4601                	li	a2,0
   16902:	4681                	li	a3,0
   16904:	00040023          	sb	zero,0(s0)
   16908:	45a5                	li	a1,9
   1690a:	470d                	li	a4,3
   1690c:	00000073          	ecall
   16910:	45a5                	li	a1,9
   16912:	4711                	li	a4,4
   16914:	8526                	mv	a0,s1
   16916:	4601                	li	a2,0
   16918:	4681                	li	a3,0
   1691a:	00000073          	ecall
   1691e:	50f6                	lw	ra,124(sp)
   16920:	5466                	lw	s0,120(sp)
   16922:	54d6                	lw	s1,116(sp)
   16924:	6109                	addi	sp,sp,128
   16926:	8082                	ret

00016928 <_ZN18complex_no_dynamic3app17hc7a47d064ac62183E>:
   16928:	7135                	addi	sp,sp,-160
   1692a:	cf06                	sw	ra,156(sp)
   1692c:	cd22                	sw	s0,152(sp)
   1692e:	cb26                	sw	s1,148(sp)
   16930:	842a                	mv	s0,a0
   16932:	00710513          	addi	a0,sp,7
   16936:	02a00613          	li	a2,42
   1693a:	00006097          	auipc	ra,0x6
   1693e:	3f6080e7          	jalr	1014(ra) # 1cd30 <memcpy>
   16942:	03110513          	addi	a0,sp,49
   16946:	06300613          	li	a2,99
   1694a:	4581                	li	a1,0
   1694c:	00006097          	auipc	ra,0x6
   16950:	378080e7          	jalr	888(ra) # 1ccc4 <memset>
   16954:	6509                	lui	a0,0x2
   16956:	4591                	li	a1,4
   16958:	00710613          	addi	a2,sp,7
   1695c:	02a00693          	li	a3,42
   16960:	c7c50793          	addi	a5,a0,-900 # 1c7c <.Lline_table_start1+0x1a51>
   16964:	4711                	li	a4,4
   16966:	4489                	li	s1,2
   16968:	853e                	mv	a0,a5
   1696a:	00000073          	ecall
   1696e:	02950b63          	beq	a0,s1,169a4 <_ZN18complex_no_dynamic3app17hc7a47d064ac62183E+0x7c>
   16972:	03110613          	addi	a2,sp,49
   16976:	06300693          	li	a3,99
   1697a:	470d                	li	a4,3
   1697c:	853e                	mv	a0,a5
   1697e:	4581                	li	a1,0
   16980:	00000073          	ecall
   16984:	02950063          	beq	a0,s1,169a4 <_ZN18complex_no_dynamic3app17hc7a47d064ac62183E+0x7c>
   16988:	6509                	lui	a0,0x2
   1698a:	4591                	li	a1,4
   1698c:	c7c50793          	addi	a5,a0,-900 # 1c7c <.Lline_table_start1+0x1a51>
   16990:	4709                	li	a4,2
   16992:	07f00493          	li	s1,127
   16996:	853e                	mv	a0,a5
   16998:	4601                	li	a2,0
   1699a:	4681                	li	a3,0
   1699c:	00000073          	ecall
   169a0:	02a4eb63          	bltu	s1,a0,169d6 <_ZN18complex_no_dynamic3app17hc7a47d064ac62183E+0xae>
   169a4:	4785                	li	a5,1
   169a6:	c3a9                	beqz	a5,169e8 <_ZN18complex_no_dynamic3app17hc7a47d064ac62183E+0xc0>
   169a8:	852e                	mv	a0,a1
   169aa:	4581                	li	a1,0
   169ac:	4601                	li	a2,0
   169ae:	4681                	li	a3,0
   169b0:	4705                	li	a4,1
   169b2:	6789                	lui	a5,0x2
   169b4:	00e40023          	sb	a4,0(s0)
   169b8:	c048                	sw	a0,4(s0)
   169ba:	c7c78793          	addi	a5,a5,-900 # 1c7c <.Lline_table_start1+0x1a51>
   169be:	470d                	li	a4,3
   169c0:	853e                	mv	a0,a5
   169c2:	00000073          	ecall
   169c6:	4591                	li	a1,4
   169c8:	4711                	li	a4,4
   169ca:	853e                	mv	a0,a5
   169cc:	4601                	li	a2,0
   169ce:	4681                	li	a3,0
   169d0:	00000073          	ecall
   169d4:	a8b1                	j	16a30 <_ZN18complex_no_dynamic3app17hc7a47d064ac62183E+0x108>
   169d6:	853e                	mv	a0,a5
   169d8:	4581                	li	a1,0
   169da:	4601                	li	a2,0
   169dc:	4681                	li	a3,0
   169de:	4781                	li	a5,0
   169e0:	470d                	li	a4,3
   169e2:	00000073          	ecall
   169e6:	f3e9                	bnez	a5,169a8 <_ZN18complex_no_dynamic3app17hc7a47d064ac62183E+0x80>
   169e8:	6509                	lui	a0,0x2
   169ea:	c7c50493          	addi	s1,a0,-900 # 1c7c <.Lline_table_start1+0x1a51>
   169ee:	470d                	li	a4,3
   169f0:	8526                	mv	a0,s1
   169f2:	4581                	li	a1,0
   169f4:	4601                	li	a2,0
   169f6:	4681                	li	a3,0
   169f8:	00000073          	ecall
   169fc:	00140513          	addi	a0,s0,1
   16a00:	03110593          	addi	a1,sp,49
   16a04:	06300613          	li	a2,99
   16a08:	00006097          	auipc	ra,0x6
   16a0c:	328080e7          	jalr	808(ra) # 1cd30 <memcpy>
   16a10:	8526                	mv	a0,s1
   16a12:	4581                	li	a1,0
   16a14:	4601                	li	a2,0
   16a16:	4681                	li	a3,0
   16a18:	00040023          	sb	zero,0(s0)
   16a1c:	470d                	li	a4,3
   16a1e:	00000073          	ecall
   16a22:	4591                	li	a1,4
   16a24:	4711                	li	a4,4
   16a26:	8526                	mv	a0,s1
   16a28:	4601                	li	a2,0
   16a2a:	4681                	li	a3,0
   16a2c:	00000073          	ecall
   16a30:	40fa                	lw	ra,156(sp)
   16a32:	446a                	lw	s0,152(sp)
   16a34:	44da                	lw	s1,148(sp)
   16a36:	610d                	addi	sp,sp,160
   16a38:	8082                	ret

00016a3a <_ZN18complex_no_dynamic3app17hccbe9bc6e32f40e6E>:
   16a3a:	715d                	addi	sp,sp,-80
   16a3c:	c686                	sw	ra,76(sp)
   16a3e:	c4a2                	sw	s0,72(sp)
   16a40:	c2a6                	sw	s1,68(sp)
   16a42:	c0ca                	sw	s2,64(sp)
   16a44:	892a                	mv	s2,a0
   16a46:	0105c503          	lbu	a0,16(a1)
   16a4a:	0115c603          	lbu	a2,17(a1)
   16a4e:	0125c803          	lbu	a6,18(a1)
   16a52:	0135c303          	lbu	t1,19(a1)
   16a56:	00c5c283          	lbu	t0,12(a1)
   16a5a:	00d5c483          	lbu	s1,13(a1)
   16a5e:	00e5c403          	lbu	s0,14(a1)
   16a62:	00f5c683          	lbu	a3,15(a1)
   16a66:	0622                	slli	a2,a2,0x8
   16a68:	00a668b3          	or	a7,a2,a0
   16a6c:	0085c603          	lbu	a2,8(a1)
   16a70:	0095c503          	lbu	a0,9(a1)
   16a74:	00a5c783          	lbu	a5,10(a1)
   16a78:	00b5c703          	lbu	a4,11(a1)
   16a7c:	0842                	slli	a6,a6,0x10
   16a7e:	0362                	slli	t1,t1,0x18
   16a80:	04a2                	slli	s1,s1,0x8
   16a82:	0442                	slli	s0,s0,0x10
   16a84:	06e2                	slli	a3,a3,0x18
   16a86:	0522                	slli	a0,a0,0x8
   16a88:	01036833          	or	a6,t1,a6
   16a8c:	0054e2b3          	or	t0,s1,t0
   16a90:	8ec1                	or	a3,a3,s0
   16a92:	00c56333          	or	t1,a0,a2
   16a96:	0045c603          	lbu	a2,4(a1)
   16a9a:	0055c403          	lbu	s0,5(a1)
   16a9e:	0065c483          	lbu	s1,6(a1)
   16aa2:	0075c503          	lbu	a0,7(a1)
   16aa6:	07c2                	slli	a5,a5,0x10
   16aa8:	0762                	slli	a4,a4,0x18
   16aaa:	0422                	slli	s0,s0,0x8
   16aac:	04c2                	slli	s1,s1,0x10
   16aae:	0562                	slli	a0,a0,0x18
   16ab0:	8f5d                	or	a4,a4,a5
   16ab2:	8e41                	or	a2,a2,s0
   16ab4:	0005c783          	lbu	a5,0(a1)
   16ab8:	0015c403          	lbu	s0,1(a1)
   16abc:	8d45                	or	a0,a0,s1
   16abe:	0025c483          	lbu	s1,2(a1)
   16ac2:	0035c583          	lbu	a1,3(a1)
   16ac6:	0422                	slli	s0,s0,0x8
   16ac8:	8fc1                	or	a5,a5,s0
   16aca:	04c2                	slli	s1,s1,0x10
   16acc:	05e2                	slli	a1,a1,0x18
   16ace:	8dc5                	or	a1,a1,s1
   16ad0:	011864b3          	or	s1,a6,a7
   16ad4:	0056e6b3          	or	a3,a3,t0
   16ad8:	00676733          	or	a4,a4,t1
   16adc:	8d51                	or	a0,a0,a2
   16ade:	8ddd                	or	a1,a1,a5
   16ae0:	c826                	sw	s1,16(sp)
   16ae2:	c02e                	sw	a1,0(sp)
   16ae4:	c22a                	sw	a0,4(sp)
   16ae6:	c43a                	sw	a4,8(sp)
   16ae8:	c636                	sw	a3,12(sp)
   16aea:	01510513          	addi	a0,sp,21
   16aee:	02b00613          	li	a2,43
   16af2:	4581                	li	a1,0
   16af4:	00006097          	auipc	ra,0x6
   16af8:	1d0080e7          	jalr	464(ra) # 1ccc4 <memset>
   16afc:	6509                	lui	a0,0x2
   16afe:	45a1                	li	a1,8
   16b00:	860a                	mv	a2,sp
   16b02:	46d1                	li	a3,20
   16b04:	39f50793          	addi	a5,a0,927 # 239f <.Lline_table_start1+0x2174>
   16b08:	4711                	li	a4,4
   16b0a:	4489                	li	s1,2
   16b0c:	853e                	mv	a0,a5
   16b0e:	00000073          	ecall
   16b12:	02950b63          	beq	a0,s1,16b48 <_ZN18complex_no_dynamic3app17hccbe9bc6e32f40e6E+0x10e>
   16b16:	4591                	li	a1,4
   16b18:	01510613          	addi	a2,sp,21
   16b1c:	02b00693          	li	a3,43
   16b20:	470d                	li	a4,3
   16b22:	853e                	mv	a0,a5
   16b24:	00000073          	ecall
   16b28:	02950063          	beq	a0,s1,16b48 <_ZN18complex_no_dynamic3app17hccbe9bc6e32f40e6E+0x10e>
   16b2c:	6509                	lui	a0,0x2
   16b2e:	45a1                	li	a1,8
   16b30:	4611                	li	a2,4
   16b32:	39f50793          	addi	a5,a0,927 # 239f <.Lline_table_start1+0x2174>
   16b36:	4709                	li	a4,2
   16b38:	07f00493          	li	s1,127
   16b3c:	853e                	mv	a0,a5
   16b3e:	4681                	li	a3,0
   16b40:	00000073          	ecall
   16b44:	02a4ec63          	bltu	s1,a0,16b7c <_ZN18complex_no_dynamic3app17hccbe9bc6e32f40e6E+0x142>
   16b48:	4785                	li	a5,1
   16b4a:	c3b1                	beqz	a5,16b8e <_ZN18complex_no_dynamic3app17hccbe9bc6e32f40e6E+0x154>
   16b4c:	4601                	li	a2,0
   16b4e:	4681                	li	a3,0
   16b50:	4505                	li	a0,1
   16b52:	6709                	lui	a4,0x2
   16b54:	87ae                	mv	a5,a1
   16b56:	4591                	li	a1,4
   16b58:	00a90023          	sb	a0,0(s2)
   16b5c:	00f92223          	sw	a5,4(s2)
   16b60:	39f70793          	addi	a5,a4,927 # 239f <.Lline_table_start1+0x2174>
   16b64:	470d                	li	a4,3
   16b66:	853e                	mv	a0,a5
   16b68:	00000073          	ecall
   16b6c:	45a1                	li	a1,8
   16b6e:	4711                	li	a4,4
   16b70:	853e                	mv	a0,a5
   16b72:	4601                	li	a2,0
   16b74:	4681                	li	a3,0
   16b76:	00000073          	ecall
   16b7a:	a8b1                	j	16bd6 <_ZN18complex_no_dynamic3app17hccbe9bc6e32f40e6E+0x19c>
   16b7c:	853e                	mv	a0,a5
   16b7e:	4601                	li	a2,0
   16b80:	4681                	li	a3,0
   16b82:	4781                	li	a5,0
   16b84:	4591                	li	a1,4
   16b86:	470d                	li	a4,3
   16b88:	00000073          	ecall
   16b8c:	f3e1                	bnez	a5,16b4c <_ZN18complex_no_dynamic3app17hccbe9bc6e32f40e6E+0x112>
   16b8e:	6509                	lui	a0,0x2
   16b90:	39f50493          	addi	s1,a0,927 # 239f <.Lline_table_start1+0x2174>
   16b94:	4591                	li	a1,4
   16b96:	470d                	li	a4,3
   16b98:	8526                	mv	a0,s1
   16b9a:	4601                	li	a2,0
   16b9c:	4681                	li	a3,0
   16b9e:	00000073          	ecall
   16ba2:	00190513          	addi	a0,s2,1
   16ba6:	01510593          	addi	a1,sp,21
   16baa:	02b00613          	li	a2,43
   16bae:	00006097          	auipc	ra,0x6
   16bb2:	182080e7          	jalr	386(ra) # 1cd30 <memcpy>
   16bb6:	8526                	mv	a0,s1
   16bb8:	4601                	li	a2,0
   16bba:	4681                	li	a3,0
   16bbc:	00090023          	sb	zero,0(s2)
   16bc0:	4591                	li	a1,4
   16bc2:	470d                	li	a4,3
   16bc4:	00000073          	ecall
   16bc8:	45a1                	li	a1,8
   16bca:	4711                	li	a4,4
   16bcc:	8526                	mv	a0,s1
   16bce:	4601                	li	a2,0
   16bd0:	4681                	li	a3,0
   16bd2:	00000073          	ecall
   16bd6:	40b6                	lw	ra,76(sp)
   16bd8:	4426                	lw	s0,72(sp)
   16bda:	4496                	lw	s1,68(sp)
   16bdc:	4906                	lw	s2,64(sp)
   16bde:	6161                	addi	sp,sp,80
   16be0:	8082                	ret

00016be2 <_ZN18complex_no_dynamic3app17hccca4f28bbf6c56aE>:
   16be2:	7119                	addi	sp,sp,-128
   16be4:	de86                	sw	ra,124(sp)
   16be6:	dca2                	sw	s0,120(sp)
   16be8:	daa6                	sw	s1,116(sp)
   16bea:	d8ca                	sw	s2,112(sp)
   16bec:	892a                	mv	s2,a0
   16bee:	0185c803          	lbu	a6,24(a1)
   16bf2:	0195c383          	lbu	t2,25(a1)
   16bf6:	0145c883          	lbu	a7,20(a1)
   16bfa:	0155ce83          	lbu	t4,21(a1)
   16bfe:	0165c783          	lbu	a5,22(a1)
   16c02:	0175c483          	lbu	s1,23(a1)
   16c06:	0105c403          	lbu	s0,16(a1)
   16c0a:	0115c503          	lbu	a0,17(a1)
   16c0e:	0125c283          	lbu	t0,18(a1)
   16c12:	0135ce03          	lbu	t3,19(a1)
   16c16:	00c5c303          	lbu	t1,12(a1)
   16c1a:	00d5cf03          	lbu	t5,13(a1)
   16c1e:	00e5c683          	lbu	a3,14(a1)
   16c22:	00f5c703          	lbu	a4,15(a1)
   16c26:	03a2                	slli	t2,t2,0x8
   16c28:	0ea2                	slli	t4,t4,0x8
   16c2a:	01079613          	slli	a2,a5,0x10
   16c2e:	01849793          	slli	a5,s1,0x18
   16c32:	0522                	slli	a0,a0,0x8
   16c34:	0103e833          	or	a6,t2,a6
   16c38:	011ee8b3          	or	a7,t4,a7
   16c3c:	00c7e3b3          	or	t2,a5,a2
   16c40:	00856eb3          	or	t4,a0,s0
   16c44:	0085c503          	lbu	a0,8(a1)
   16c48:	0095c603          	lbu	a2,9(a1)
   16c4c:	00a5c483          	lbu	s1,10(a1)
   16c50:	00b5c783          	lbu	a5,11(a1)
   16c54:	02c2                	slli	t0,t0,0x10
   16c56:	0e62                	slli	t3,t3,0x18
   16c58:	0f22                	slli	t5,t5,0x8
   16c5a:	06c2                	slli	a3,a3,0x10
   16c5c:	0762                	slli	a4,a4,0x18
   16c5e:	0622                	slli	a2,a2,0x8
   16c60:	005e6e33          	or	t3,t3,t0
   16c64:	006f62b3          	or	t0,t5,t1
   16c68:	8ed9                	or	a3,a3,a4
   16c6a:	00a66333          	or	t1,a2,a0
   16c6e:	0045c603          	lbu	a2,4(a1)
   16c72:	0055c703          	lbu	a4,5(a1)
   16c76:	0065c403          	lbu	s0,6(a1)
   16c7a:	0075c503          	lbu	a0,7(a1)
   16c7e:	04c2                	slli	s1,s1,0x10
   16c80:	07e2                	slli	a5,a5,0x18
   16c82:	0722                	slli	a4,a4,0x8
   16c84:	0442                	slli	s0,s0,0x10
   16c86:	0562                	slli	a0,a0,0x18
   16c88:	8fc5                	or	a5,a5,s1
   16c8a:	8e59                	or	a2,a2,a4
   16c8c:	0005c703          	lbu	a4,0(a1)
   16c90:	0015c483          	lbu	s1,1(a1)
   16c94:	8d41                	or	a0,a0,s0
   16c96:	0025c403          	lbu	s0,2(a1)
   16c9a:	0035c583          	lbu	a1,3(a1)
   16c9e:	04a2                	slli	s1,s1,0x8
   16ca0:	8f45                	or	a4,a4,s1
   16ca2:	0442                	slli	s0,s0,0x10
   16ca4:	05e2                	slli	a1,a1,0x18
   16ca6:	8dc1                	or	a1,a1,s0
   16ca8:	0113e4b3          	or	s1,t2,a7
   16cac:	01de6433          	or	s0,t3,t4
   16cb0:	0056e6b3          	or	a3,a3,t0
   16cb4:	0067e7b3          	or	a5,a5,t1
   16cb8:	8d51                	or	a0,a0,a2
   16cba:	8dd9                	or	a1,a1,a4
   16cbc:	ca22                	sw	s0,20(sp)
   16cbe:	cc26                	sw	s1,24(sp)
   16cc0:	01011e23          	sh	a6,28(sp)
   16cc4:	c22e                	sw	a1,4(sp)
   16cc6:	c42a                	sw	a0,8(sp)
   16cc8:	c63e                	sw	a5,12(sp)
   16cca:	c836                	sw	a3,16(sp)
   16ccc:	1008                	addi	a0,sp,32
   16cce:	05000613          	li	a2,80
   16cd2:	4581                	li	a1,0
   16cd4:	00006097          	auipc	ra,0x6
   16cd8:	ff0080e7          	jalr	-16(ra) # 1ccc4 <memset>
   16cdc:	6505                	lui	a0,0x1
   16cde:	459d                	li	a1,7
   16ce0:	0050                	addi	a2,sp,4
   16ce2:	46e9                	li	a3,26
   16ce4:	aee50793          	addi	a5,a0,-1298 # aee <.Lline_table_start1+0x8c3>
   16ce8:	4711                	li	a4,4
   16cea:	4489                	li	s1,2
   16cec:	853e                	mv	a0,a5
   16cee:	00000073          	ecall
   16cf2:	02950a63          	beq	a0,s1,16d26 <_ZN18complex_no_dynamic3app17hccca4f28bbf6c56aE+0x144>
   16cf6:	4591                	li	a1,4
   16cf8:	1010                	addi	a2,sp,32
   16cfa:	05000693          	li	a3,80
   16cfe:	470d                	li	a4,3
   16d00:	853e                	mv	a0,a5
   16d02:	00000073          	ecall
   16d06:	02950063          	beq	a0,s1,16d26 <_ZN18complex_no_dynamic3app17hccca4f28bbf6c56aE+0x144>
   16d0a:	6505                	lui	a0,0x1
   16d0c:	459d                	li	a1,7
   16d0e:	4611                	li	a2,4
   16d10:	aee50793          	addi	a5,a0,-1298 # aee <.Lline_table_start1+0x8c3>
   16d14:	4709                	li	a4,2
   16d16:	07f00493          	li	s1,127
   16d1a:	853e                	mv	a0,a5
   16d1c:	4681                	li	a3,0
   16d1e:	00000073          	ecall
   16d22:	02a4ec63          	bltu	s1,a0,16d5a <_ZN18complex_no_dynamic3app17hccca4f28bbf6c56aE+0x178>
   16d26:	4785                	li	a5,1
   16d28:	c3b1                	beqz	a5,16d6c <_ZN18complex_no_dynamic3app17hccca4f28bbf6c56aE+0x18a>
   16d2a:	4601                	li	a2,0
   16d2c:	4681                	li	a3,0
   16d2e:	4505                	li	a0,1
   16d30:	6705                	lui	a4,0x1
   16d32:	87ae                	mv	a5,a1
   16d34:	4591                	li	a1,4
   16d36:	00a90023          	sb	a0,0(s2)
   16d3a:	00f92223          	sw	a5,4(s2)
   16d3e:	aee70793          	addi	a5,a4,-1298 # aee <.Lline_table_start1+0x8c3>
   16d42:	470d                	li	a4,3
   16d44:	853e                	mv	a0,a5
   16d46:	00000073          	ecall
   16d4a:	459d                	li	a1,7
   16d4c:	4711                	li	a4,4
   16d4e:	853e                	mv	a0,a5
   16d50:	4601                	li	a2,0
   16d52:	4681                	li	a3,0
   16d54:	00000073          	ecall
   16d58:	a8a9                	j	16db2 <_ZN18complex_no_dynamic3app17hccca4f28bbf6c56aE+0x1d0>
   16d5a:	853e                	mv	a0,a5
   16d5c:	4601                	li	a2,0
   16d5e:	4681                	li	a3,0
   16d60:	4781                	li	a5,0
   16d62:	4591                	li	a1,4
   16d64:	470d                	li	a4,3
   16d66:	00000073          	ecall
   16d6a:	f3e1                	bnez	a5,16d2a <_ZN18complex_no_dynamic3app17hccca4f28bbf6c56aE+0x148>
   16d6c:	6505                	lui	a0,0x1
   16d6e:	aee50493          	addi	s1,a0,-1298 # aee <.Lline_table_start1+0x8c3>
   16d72:	4591                	li	a1,4
   16d74:	470d                	li	a4,3
   16d76:	8526                	mv	a0,s1
   16d78:	4601                	li	a2,0
   16d7a:	4681                	li	a3,0
   16d7c:	00000073          	ecall
   16d80:	00190513          	addi	a0,s2,1
   16d84:	100c                	addi	a1,sp,32
   16d86:	05000613          	li	a2,80
   16d8a:	00006097          	auipc	ra,0x6
   16d8e:	fa6080e7          	jalr	-90(ra) # 1cd30 <memcpy>
   16d92:	8526                	mv	a0,s1
   16d94:	4601                	li	a2,0
   16d96:	4681                	li	a3,0
   16d98:	00090023          	sb	zero,0(s2)
   16d9c:	4591                	li	a1,4
   16d9e:	470d                	li	a4,3
   16da0:	00000073          	ecall
   16da4:	459d                	li	a1,7
   16da6:	4711                	li	a4,4
   16da8:	8526                	mv	a0,s1
   16daa:	4601                	li	a2,0
   16dac:	4681                	li	a3,0
   16dae:	00000073          	ecall
   16db2:	50f6                	lw	ra,124(sp)
   16db4:	5466                	lw	s0,120(sp)
   16db6:	54d6                	lw	s1,116(sp)
   16db8:	5946                	lw	s2,112(sp)
   16dba:	6109                	addi	sp,sp,128
   16dbc:	8082                	ret

00016dbe <_ZN18complex_no_dynamic3app17hccf85bd8f852812eE>:
   16dbe:	715d                	addi	sp,sp,-80
   16dc0:	c686                	sw	ra,76(sp)
   16dc2:	c4a2                	sw	s0,72(sp)
   16dc4:	c2a6                	sw	s1,68(sp)
   16dc6:	842a                	mv	s0,a0
   16dc8:	00910513          	addi	a0,sp,9
   16dcc:	02700613          	li	a2,39
   16dd0:	00006097          	auipc	ra,0x6
   16dd4:	f60080e7          	jalr	-160(ra) # 1cd30 <memcpy>
   16dd8:	c082                	sw	zero,64(sp)
   16dda:	d802                	sw	zero,48(sp)
   16ddc:	da02                	sw	zero,52(sp)
   16dde:	dc02                	sw	zero,56(sp)
   16de0:	de02                	sw	zero,60(sp)
   16de2:	6509                	lui	a0,0x2
   16de4:	4599                	li	a1,6
   16de6:	00910613          	addi	a2,sp,9
   16dea:	02700693          	li	a3,39
   16dee:	2c950793          	addi	a5,a0,713 # 22c9 <.Lline_table_start1+0x209e>
   16df2:	4711                	li	a4,4
   16df4:	4489                	li	s1,2
   16df6:	853e                	mv	a0,a5
   16df8:	00000073          	ecall
   16dfc:	02950963          	beq	a0,s1,16e2e <_ZN18complex_no_dynamic3app17hccf85bd8f852812eE+0x70>
   16e00:	4595                	li	a1,5
   16e02:	1810                	addi	a2,sp,48
   16e04:	46d1                	li	a3,20
   16e06:	470d                	li	a4,3
   16e08:	853e                	mv	a0,a5
   16e0a:	00000073          	ecall
   16e0e:	02950063          	beq	a0,s1,16e2e <_ZN18complex_no_dynamic3app17hccf85bd8f852812eE+0x70>
   16e12:	6509                	lui	a0,0x2
   16e14:	4599                	li	a1,6
   16e16:	4615                	li	a2,5
   16e18:	2c950793          	addi	a5,a0,713 # 22c9 <.Lline_table_start1+0x209e>
   16e1c:	4709                	li	a4,2
   16e1e:	07f00493          	li	s1,127
   16e22:	853e                	mv	a0,a5
   16e24:	4681                	li	a3,0
   16e26:	00000073          	ecall
   16e2a:	02a4eb63          	bltu	s1,a0,16e60 <_ZN18complex_no_dynamic3app17hccf85bd8f852812eE+0xa2>
   16e2e:	4785                	li	a5,1
   16e30:	c3a9                	beqz	a5,16e72 <_ZN18complex_no_dynamic3app17hccf85bd8f852812eE+0xb4>
   16e32:	4601                	li	a2,0
   16e34:	4681                	li	a3,0
   16e36:	4505                	li	a0,1
   16e38:	6709                	lui	a4,0x2
   16e3a:	87ae                	mv	a5,a1
   16e3c:	4595                	li	a1,5
   16e3e:	00a40023          	sb	a0,0(s0)
   16e42:	c05c                	sw	a5,4(s0)
   16e44:	2c970793          	addi	a5,a4,713 # 22c9 <.Lline_table_start1+0x209e>
   16e48:	470d                	li	a4,3
   16e4a:	853e                	mv	a0,a5
   16e4c:	00000073          	ecall
   16e50:	4599                	li	a1,6
   16e52:	4711                	li	a4,4
   16e54:	853e                	mv	a0,a5
   16e56:	4601                	li	a2,0
   16e58:	4681                	li	a3,0
   16e5a:	00000073          	ecall
   16e5e:	a8a1                	j	16eb6 <_ZN18complex_no_dynamic3app17hccf85bd8f852812eE+0xf8>
   16e60:	853e                	mv	a0,a5
   16e62:	4601                	li	a2,0
   16e64:	4681                	li	a3,0
   16e66:	4781                	li	a5,0
   16e68:	4595                	li	a1,5
   16e6a:	470d                	li	a4,3
   16e6c:	00000073          	ecall
   16e70:	f3e9                	bnez	a5,16e32 <_ZN18complex_no_dynamic3app17hccf85bd8f852812eE+0x74>
   16e72:	6509                	lui	a0,0x2
   16e74:	2c950493          	addi	s1,a0,713 # 22c9 <.Lline_table_start1+0x209e>
   16e78:	4595                	li	a1,5
   16e7a:	470d                	li	a4,3
   16e7c:	8526                	mv	a0,s1
   16e7e:	4601                	li	a2,0
   16e80:	4681                	li	a3,0
   16e82:	00000073          	ecall
   16e86:	00140513          	addi	a0,s0,1
   16e8a:	180c                	addi	a1,sp,48
   16e8c:	4651                	li	a2,20
   16e8e:	00006097          	auipc	ra,0x6
   16e92:	ea2080e7          	jalr	-350(ra) # 1cd30 <memcpy>
   16e96:	8526                	mv	a0,s1
   16e98:	4601                	li	a2,0
   16e9a:	4681                	li	a3,0
   16e9c:	00040023          	sb	zero,0(s0)
   16ea0:	4595                	li	a1,5
   16ea2:	470d                	li	a4,3
   16ea4:	00000073          	ecall
   16ea8:	4599                	li	a1,6
   16eaa:	4711                	li	a4,4
   16eac:	8526                	mv	a0,s1
   16eae:	4601                	li	a2,0
   16eb0:	4681                	li	a3,0
   16eb2:	00000073          	ecall
   16eb6:	40b6                	lw	ra,76(sp)
   16eb8:	4426                	lw	s0,72(sp)
   16eba:	4496                	lw	s1,68(sp)
   16ebc:	6161                	addi	sp,sp,80
   16ebe:	8082                	ret

00016ec0 <_ZN18complex_no_dynamic3app17hcf3299c9741de56eE>:
   16ec0:	7119                	addi	sp,sp,-128
   16ec2:	de86                	sw	ra,124(sp)
   16ec4:	dca2                	sw	s0,120(sp)
   16ec6:	842a                	mv	s0,a0
   16ec8:	00510513          	addi	a0,sp,5
   16ecc:	02200613          	li	a2,34
   16ed0:	00006097          	auipc	ra,0x6
   16ed4:	e60080e7          	jalr	-416(ra) # 1cd30 <memcpy>
   16ed8:	02710513          	addi	a0,sp,39
   16edc:	05100613          	li	a2,81
   16ee0:	4581                	li	a1,0
   16ee2:	00006097          	auipc	ra,0x6
   16ee6:	de2080e7          	jalr	-542(ra) # 1ccc4 <memset>
   16eea:	55e00513          	li	a0,1374
   16eee:	45a5                	li	a1,9
   16ef0:	00510613          	addi	a2,sp,5
   16ef4:	02200693          	li	a3,34
   16ef8:	4711                	li	a4,4
   16efa:	4789                	li	a5,2
   16efc:	00000073          	ecall
   16f00:	02f50a63          	beq	a0,a5,16f34 <_ZN18complex_no_dynamic3app17hcf3299c9741de56eE+0x74>
   16f04:	55e00513          	li	a0,1374
   16f08:	45a5                	li	a1,9
   16f0a:	02710613          	addi	a2,sp,39
   16f0e:	05100693          	li	a3,81
   16f12:	470d                	li	a4,3
   16f14:	00000073          	ecall
   16f18:	00f50e63          	beq	a0,a5,16f34 <_ZN18complex_no_dynamic3app17hcf3299c9741de56eE+0x74>
   16f1c:	55e00513          	li	a0,1374
   16f20:	45a5                	li	a1,9
   16f22:	4625                	li	a2,9
   16f24:	4709                	li	a4,2
   16f26:	07f00793          	li	a5,127
   16f2a:	4681                	li	a3,0
   16f2c:	00000073          	ecall
   16f30:	02a7e963          	bltu	a5,a0,16f62 <_ZN18complex_no_dynamic3app17hcf3299c9741de56eE+0xa2>
   16f34:	4785                	li	a5,1
   16f36:	c3a1                	beqz	a5,16f76 <_ZN18complex_no_dynamic3app17hcf3299c9741de56eE+0xb6>
   16f38:	4601                	li	a2,0
   16f3a:	4681                	li	a3,0
   16f3c:	4705                	li	a4,1
   16f3e:	55e00513          	li	a0,1374
   16f42:	00e40023          	sb	a4,0(s0)
   16f46:	c04c                	sw	a1,4(s0)
   16f48:	45a5                	li	a1,9
   16f4a:	470d                	li	a4,3
   16f4c:	00000073          	ecall
   16f50:	55e00513          	li	a0,1374
   16f54:	45a5                	li	a1,9
   16f56:	4711                	li	a4,4
   16f58:	4601                	li	a2,0
   16f5a:	4681                	li	a3,0
   16f5c:	00000073          	ecall
   16f60:	a8b9                	j	16fbe <_ZN18complex_no_dynamic3app17hcf3299c9741de56eE+0xfe>
   16f62:	4601                	li	a2,0
   16f64:	4681                	li	a3,0
   16f66:	4781                	li	a5,0
   16f68:	55e00513          	li	a0,1374
   16f6c:	45a5                	li	a1,9
   16f6e:	470d                	li	a4,3
   16f70:	00000073          	ecall
   16f74:	f3f1                	bnez	a5,16f38 <_ZN18complex_no_dynamic3app17hcf3299c9741de56eE+0x78>
   16f76:	55e00513          	li	a0,1374
   16f7a:	45a5                	li	a1,9
   16f7c:	470d                	li	a4,3
   16f7e:	4601                	li	a2,0
   16f80:	4681                	li	a3,0
   16f82:	00000073          	ecall
   16f86:	00140513          	addi	a0,s0,1
   16f8a:	02710593          	addi	a1,sp,39
   16f8e:	05100613          	li	a2,81
   16f92:	00006097          	auipc	ra,0x6
   16f96:	d9e080e7          	jalr	-610(ra) # 1cd30 <memcpy>
   16f9a:	4601                	li	a2,0
   16f9c:	4681                	li	a3,0
   16f9e:	00040023          	sb	zero,0(s0)
   16fa2:	55e00513          	li	a0,1374
   16fa6:	45a5                	li	a1,9
   16fa8:	470d                	li	a4,3
   16faa:	00000073          	ecall
   16fae:	55e00513          	li	a0,1374
   16fb2:	45a5                	li	a1,9
   16fb4:	4711                	li	a4,4
   16fb6:	4601                	li	a2,0
   16fb8:	4681                	li	a3,0
   16fba:	00000073          	ecall
   16fbe:	50f6                	lw	ra,124(sp)
   16fc0:	5466                	lw	s0,120(sp)
   16fc2:	6109                	addi	sp,sp,128
   16fc4:	8082                	ret

00016fc6 <_ZN18complex_no_dynamic3app17hd463f8b65d3a6659E>:
   16fc6:	7131                	addi	sp,sp,-192
   16fc8:	df06                	sw	ra,188(sp)
   16fca:	dd22                	sw	s0,184(sp)
   16fcc:	db26                	sw	s1,180(sp)
   16fce:	842a                	mv	s0,a0
   16fd0:	00110513          	addi	a0,sp,1
   16fd4:	05e00613          	li	a2,94
   16fd8:	00006097          	auipc	ra,0x6
   16fdc:	d58080e7          	jalr	-680(ra) # 1cd30 <memcpy>
   16fe0:	05f10513          	addi	a0,sp,95
   16fe4:	05500613          	li	a2,85
   16fe8:	4581                	li	a1,0
   16fea:	00006097          	auipc	ra,0x6
   16fee:	cda080e7          	jalr	-806(ra) # 1ccc4 <memset>
   16ff2:	6505                	lui	a0,0x1
   16ff4:	459d                	li	a1,7
   16ff6:	00110613          	addi	a2,sp,1
   16ffa:	05e00693          	li	a3,94
   16ffe:	78a50793          	addi	a5,a0,1930 # 178a <.Lline_table_start1+0x155f>
   17002:	4711                	li	a4,4
   17004:	4489                	li	s1,2
   17006:	853e                	mv	a0,a5
   17008:	00000073          	ecall
   1700c:	02950b63          	beq	a0,s1,17042 <_ZN18complex_no_dynamic3app17hd463f8b65d3a6659E+0x7c>
   17010:	458d                	li	a1,3
   17012:	05f10613          	addi	a2,sp,95
   17016:	05500693          	li	a3,85
   1701a:	470d                	li	a4,3
   1701c:	853e                	mv	a0,a5
   1701e:	00000073          	ecall
   17022:	02950063          	beq	a0,s1,17042 <_ZN18complex_no_dynamic3app17hd463f8b65d3a6659E+0x7c>
   17026:	6505                	lui	a0,0x1
   17028:	459d                	li	a1,7
   1702a:	460d                	li	a2,3
   1702c:	78a50793          	addi	a5,a0,1930 # 178a <.Lline_table_start1+0x155f>
   17030:	4709                	li	a4,2
   17032:	07f00493          	li	s1,127
   17036:	853e                	mv	a0,a5
   17038:	4681                	li	a3,0
   1703a:	00000073          	ecall
   1703e:	02a4eb63          	bltu	s1,a0,17074 <_ZN18complex_no_dynamic3app17hd463f8b65d3a6659E+0xae>
   17042:	4785                	li	a5,1
   17044:	c3a9                	beqz	a5,17086 <_ZN18complex_no_dynamic3app17hd463f8b65d3a6659E+0xc0>
   17046:	4601                	li	a2,0
   17048:	4681                	li	a3,0
   1704a:	4505                	li	a0,1
   1704c:	6705                	lui	a4,0x1
   1704e:	87ae                	mv	a5,a1
   17050:	458d                	li	a1,3
   17052:	00a40023          	sb	a0,0(s0)
   17056:	c05c                	sw	a5,4(s0)
   17058:	78a70793          	addi	a5,a4,1930 # 178a <.Lline_table_start1+0x155f>
   1705c:	470d                	li	a4,3
   1705e:	853e                	mv	a0,a5
   17060:	00000073          	ecall
   17064:	459d                	li	a1,7
   17066:	4711                	li	a4,4
   17068:	853e                	mv	a0,a5
   1706a:	4601                	li	a2,0
   1706c:	4681                	li	a3,0
   1706e:	00000073          	ecall
   17072:	a8b1                	j	170ce <_ZN18complex_no_dynamic3app17hd463f8b65d3a6659E+0x108>
   17074:	853e                	mv	a0,a5
   17076:	4601                	li	a2,0
   17078:	4681                	li	a3,0
   1707a:	4781                	li	a5,0
   1707c:	458d                	li	a1,3
   1707e:	470d                	li	a4,3
   17080:	00000073          	ecall
   17084:	f3e9                	bnez	a5,17046 <_ZN18complex_no_dynamic3app17hd463f8b65d3a6659E+0x80>
   17086:	6505                	lui	a0,0x1
   17088:	78a50493          	addi	s1,a0,1930 # 178a <.Lline_table_start1+0x155f>
   1708c:	458d                	li	a1,3
   1708e:	470d                	li	a4,3
   17090:	8526                	mv	a0,s1
   17092:	4601                	li	a2,0
   17094:	4681                	li	a3,0
   17096:	00000073          	ecall
   1709a:	00140513          	addi	a0,s0,1
   1709e:	05f10593          	addi	a1,sp,95
   170a2:	05500613          	li	a2,85
   170a6:	00006097          	auipc	ra,0x6
   170aa:	c8a080e7          	jalr	-886(ra) # 1cd30 <memcpy>
   170ae:	8526                	mv	a0,s1
   170b0:	4601                	li	a2,0
   170b2:	4681                	li	a3,0
   170b4:	00040023          	sb	zero,0(s0)
   170b8:	458d                	li	a1,3
   170ba:	470d                	li	a4,3
   170bc:	00000073          	ecall
   170c0:	459d                	li	a1,7
   170c2:	4711                	li	a4,4
   170c4:	8526                	mv	a0,s1
   170c6:	4601                	li	a2,0
   170c8:	4681                	li	a3,0
   170ca:	00000073          	ecall
   170ce:	50fa                	lw	ra,188(sp)
   170d0:	546a                	lw	s0,184(sp)
   170d2:	54da                	lw	s1,180(sp)
   170d4:	6129                	addi	sp,sp,192
   170d6:	8082                	ret

000170d8 <_ZN18complex_no_dynamic3app17hda1254926ab6b51eE>:
   170d8:	7119                	addi	sp,sp,-128
   170da:	de86                	sw	ra,124(sp)
   170dc:	dca2                	sw	s0,120(sp)
   170de:	daa6                	sw	s1,116(sp)
   170e0:	842a                	mv	s0,a0
   170e2:	00a10513          	addi	a0,sp,10
   170e6:	03600613          	li	a2,54
   170ea:	00006097          	auipc	ra,0x6
   170ee:	c46080e7          	jalr	-954(ra) # 1cd30 <memcpy>
   170f2:	0088                	addi	a0,sp,64
   170f4:	03400613          	li	a2,52
   170f8:	4581                	li	a1,0
   170fa:	00006097          	auipc	ra,0x6
   170fe:	bca080e7          	jalr	-1078(ra) # 1ccc4 <memset>
   17102:	6509                	lui	a0,0x2
   17104:	4591                	li	a1,4
   17106:	00a10613          	addi	a2,sp,10
   1710a:	03600693          	li	a3,54
   1710e:	3c650793          	addi	a5,a0,966 # 23c6 <.Lline_table_start1+0x219b>
   17112:	4711                	li	a4,4
   17114:	4489                	li	s1,2
   17116:	853e                	mv	a0,a5
   17118:	00000073          	ecall
   1711c:	02950a63          	beq	a0,s1,17150 <_ZN18complex_no_dynamic3app17hda1254926ab6b51eE+0x78>
   17120:	4589                	li	a1,2
   17122:	0090                	addi	a2,sp,64
   17124:	03400693          	li	a3,52
   17128:	470d                	li	a4,3
   1712a:	853e                	mv	a0,a5
   1712c:	00000073          	ecall
   17130:	02950063          	beq	a0,s1,17150 <_ZN18complex_no_dynamic3app17hda1254926ab6b51eE+0x78>
   17134:	6509                	lui	a0,0x2
   17136:	4591                	li	a1,4
   17138:	4609                	li	a2,2
   1713a:	3c650793          	addi	a5,a0,966 # 23c6 <.Lline_table_start1+0x219b>
   1713e:	4709                	li	a4,2
   17140:	07f00493          	li	s1,127
   17144:	853e                	mv	a0,a5
   17146:	4681                	li	a3,0
   17148:	00000073          	ecall
   1714c:	02a4eb63          	bltu	s1,a0,17182 <_ZN18complex_no_dynamic3app17hda1254926ab6b51eE+0xaa>
   17150:	4785                	li	a5,1
   17152:	c3a9                	beqz	a5,17194 <_ZN18complex_no_dynamic3app17hda1254926ab6b51eE+0xbc>
   17154:	4601                	li	a2,0
   17156:	4681                	li	a3,0
   17158:	4505                	li	a0,1
   1715a:	6709                	lui	a4,0x2
   1715c:	87ae                	mv	a5,a1
   1715e:	4589                	li	a1,2
   17160:	00a40023          	sb	a0,0(s0)
   17164:	c05c                	sw	a5,4(s0)
   17166:	3c670793          	addi	a5,a4,966 # 23c6 <.Lline_table_start1+0x219b>
   1716a:	470d                	li	a4,3
   1716c:	853e                	mv	a0,a5
   1716e:	00000073          	ecall
   17172:	4591                	li	a1,4
   17174:	4711                	li	a4,4
   17176:	853e                	mv	a0,a5
   17178:	4601                	li	a2,0
   1717a:	4681                	li	a3,0
   1717c:	00000073          	ecall
   17180:	a8a9                	j	171da <_ZN18complex_no_dynamic3app17hda1254926ab6b51eE+0x102>
   17182:	853e                	mv	a0,a5
   17184:	4601                	li	a2,0
   17186:	4681                	li	a3,0
   17188:	4781                	li	a5,0
   1718a:	4589                	li	a1,2
   1718c:	470d                	li	a4,3
   1718e:	00000073          	ecall
   17192:	f3e9                	bnez	a5,17154 <_ZN18complex_no_dynamic3app17hda1254926ab6b51eE+0x7c>
   17194:	6509                	lui	a0,0x2
   17196:	3c650493          	addi	s1,a0,966 # 23c6 <.Lline_table_start1+0x219b>
   1719a:	4589                	li	a1,2
   1719c:	470d                	li	a4,3
   1719e:	8526                	mv	a0,s1
   171a0:	4601                	li	a2,0
   171a2:	4681                	li	a3,0
   171a4:	00000073          	ecall
   171a8:	00140513          	addi	a0,s0,1
   171ac:	008c                	addi	a1,sp,64
   171ae:	03400613          	li	a2,52
   171b2:	00006097          	auipc	ra,0x6
   171b6:	b7e080e7          	jalr	-1154(ra) # 1cd30 <memcpy>
   171ba:	8526                	mv	a0,s1
   171bc:	4601                	li	a2,0
   171be:	4681                	li	a3,0
   171c0:	00040023          	sb	zero,0(s0)
   171c4:	4589                	li	a1,2
   171c6:	470d                	li	a4,3
   171c8:	00000073          	ecall
   171cc:	4591                	li	a1,4
   171ce:	4711                	li	a4,4
   171d0:	8526                	mv	a0,s1
   171d2:	4601                	li	a2,0
   171d4:	4681                	li	a3,0
   171d6:	00000073          	ecall
   171da:	50f6                	lw	ra,124(sp)
   171dc:	5466                	lw	s0,120(sp)
   171de:	54d6                	lw	s1,116(sp)
   171e0:	6109                	addi	sp,sp,128
   171e2:	8082                	ret

000171e4 <_ZN18complex_no_dynamic3app17hda903143e79fe5e1E>:
   171e4:	7119                	addi	sp,sp,-128
   171e6:	de86                	sw	ra,124(sp)
   171e8:	dca2                	sw	s0,120(sp)
   171ea:	daa6                	sw	s1,116(sp)
   171ec:	842a                	mv	s0,a0
   171ee:	0068                	addi	a0,sp,12
   171f0:	03c00613          	li	a2,60
   171f4:	00006097          	auipc	ra,0x6
   171f8:	b3c080e7          	jalr	-1220(ra) # 1cd30 <memcpy>
   171fc:	00a8                	addi	a0,sp,72
   171fe:	02c00613          	li	a2,44
   17202:	4581                	li	a1,0
   17204:	00006097          	auipc	ra,0x6
   17208:	ac0080e7          	jalr	-1344(ra) # 1ccc4 <memset>
   1720c:	6509                	lui	a0,0x2
   1720e:	4595                	li	a1,5
   17210:	0070                	addi	a2,sp,12
   17212:	03c00693          	li	a3,60
   17216:	eac50793          	addi	a5,a0,-340 # 1eac <.Lline_table_start1+0x1c81>
   1721a:	4711                	li	a4,4
   1721c:	4489                	li	s1,2
   1721e:	853e                	mv	a0,a5
   17220:	00000073          	ecall
   17224:	02950a63          	beq	a0,s1,17258 <_ZN18complex_no_dynamic3app17hda903143e79fe5e1E+0x74>
   17228:	459d                	li	a1,7
   1722a:	00b0                	addi	a2,sp,72
   1722c:	02c00693          	li	a3,44
   17230:	470d                	li	a4,3
   17232:	853e                	mv	a0,a5
   17234:	00000073          	ecall
   17238:	02950063          	beq	a0,s1,17258 <_ZN18complex_no_dynamic3app17hda903143e79fe5e1E+0x74>
   1723c:	6509                	lui	a0,0x2
   1723e:	4595                	li	a1,5
   17240:	461d                	li	a2,7
   17242:	eac50793          	addi	a5,a0,-340 # 1eac <.Lline_table_start1+0x1c81>
   17246:	4709                	li	a4,2
   17248:	07f00493          	li	s1,127
   1724c:	853e                	mv	a0,a5
   1724e:	4681                	li	a3,0
   17250:	00000073          	ecall
   17254:	02a4eb63          	bltu	s1,a0,1728a <_ZN18complex_no_dynamic3app17hda903143e79fe5e1E+0xa6>
   17258:	4785                	li	a5,1
   1725a:	c3a9                	beqz	a5,1729c <_ZN18complex_no_dynamic3app17hda903143e79fe5e1E+0xb8>
   1725c:	4601                	li	a2,0
   1725e:	4681                	li	a3,0
   17260:	4505                	li	a0,1
   17262:	6709                	lui	a4,0x2
   17264:	87ae                	mv	a5,a1
   17266:	459d                	li	a1,7
   17268:	00a40023          	sb	a0,0(s0)
   1726c:	c05c                	sw	a5,4(s0)
   1726e:	eac70793          	addi	a5,a4,-340 # 1eac <.Lline_table_start1+0x1c81>
   17272:	470d                	li	a4,3
   17274:	853e                	mv	a0,a5
   17276:	00000073          	ecall
   1727a:	4595                	li	a1,5
   1727c:	4711                	li	a4,4
   1727e:	853e                	mv	a0,a5
   17280:	4601                	li	a2,0
   17282:	4681                	li	a3,0
   17284:	00000073          	ecall
   17288:	a8a9                	j	172e2 <_ZN18complex_no_dynamic3app17hda903143e79fe5e1E+0xfe>
   1728a:	853e                	mv	a0,a5
   1728c:	4601                	li	a2,0
   1728e:	4681                	li	a3,0
   17290:	4781                	li	a5,0
   17292:	459d                	li	a1,7
   17294:	470d                	li	a4,3
   17296:	00000073          	ecall
   1729a:	f3e9                	bnez	a5,1725c <_ZN18complex_no_dynamic3app17hda903143e79fe5e1E+0x78>
   1729c:	6509                	lui	a0,0x2
   1729e:	eac50493          	addi	s1,a0,-340 # 1eac <.Lline_table_start1+0x1c81>
   172a2:	459d                	li	a1,7
   172a4:	470d                	li	a4,3
   172a6:	8526                	mv	a0,s1
   172a8:	4601                	li	a2,0
   172aa:	4681                	li	a3,0
   172ac:	00000073          	ecall
   172b0:	00140513          	addi	a0,s0,1
   172b4:	00ac                	addi	a1,sp,72
   172b6:	02c00613          	li	a2,44
   172ba:	00006097          	auipc	ra,0x6
   172be:	a76080e7          	jalr	-1418(ra) # 1cd30 <memcpy>
   172c2:	8526                	mv	a0,s1
   172c4:	4601                	li	a2,0
   172c6:	4681                	li	a3,0
   172c8:	00040023          	sb	zero,0(s0)
   172cc:	459d                	li	a1,7
   172ce:	470d                	li	a4,3
   172d0:	00000073          	ecall
   172d4:	4595                	li	a1,5
   172d6:	4711                	li	a4,4
   172d8:	8526                	mv	a0,s1
   172da:	4601                	li	a2,0
   172dc:	4681                	li	a3,0
   172de:	00000073          	ecall
   172e2:	50f6                	lw	ra,124(sp)
   172e4:	5466                	lw	s0,120(sp)
   172e6:	54d6                	lw	s1,116(sp)
   172e8:	6109                	addi	sp,sp,128
   172ea:	8082                	ret

000172ec <_ZN18complex_no_dynamic3app17hdbef4fb983256579E>:
   172ec:	7119                	addi	sp,sp,-128
   172ee:	de86                	sw	ra,124(sp)
   172f0:	dca2                	sw	s0,120(sp)
   172f2:	daa6                	sw	s1,116(sp)
   172f4:	d8ca                	sw	s2,112(sp)
   172f6:	892a                	mv	s2,a0
   172f8:	0048                	addi	a0,sp,4
   172fa:	04900613          	li	a2,73
   172fe:	00006097          	auipc	ra,0x6
   17302:	a32080e7          	jalr	-1486(ra) # 1cd30 <memcpy>
   17306:	04d10513          	addi	a0,sp,77
   1730a:	02300613          	li	a2,35
   1730e:	4581                	li	a1,0
   17310:	00006097          	auipc	ra,0x6
   17314:	9b4080e7          	jalr	-1612(ra) # 1ccc4 <memset>
   17318:	6505                	lui	a0,0x1
   1731a:	459d                	li	a1,7
   1731c:	0050                	addi	a2,sp,4
   1731e:	04900693          	li	a3,73
   17322:	55150793          	addi	a5,a0,1361 # 1551 <.Lline_table_start1+0x1326>
   17326:	4711                	li	a4,4
   17328:	4409                	li	s0,2
   1732a:	853e                	mv	a0,a5
   1732c:	00000073          	ecall
   17330:	00851463          	bne	a0,s0,17338 <_ZN18complex_no_dynamic3app17hdbef4fb983256579E+0x4c>
   17334:	4485                	li	s1,1
   17336:	a0a1                	j	1737e <_ZN18complex_no_dynamic3app17hdbef4fb983256579E+0x92>
   17338:	853e                	mv	a0,a5
   1733a:	4485                	li	s1,1
   1733c:	4585                	li	a1,1
   1733e:	04d10613          	addi	a2,sp,77
   17342:	02300693          	li	a3,35
   17346:	470d                	li	a4,3
   17348:	00000073          	ecall
   1734c:	02850963          	beq	a0,s0,1737e <_ZN18complex_no_dynamic3app17hdbef4fb983256579E+0x92>
   17350:	4681                	li	a3,0
   17352:	6505                	lui	a0,0x1
   17354:	459d                	li	a1,7
   17356:	4605                	li	a2,1
   17358:	4709                	li	a4,2
   1735a:	55150793          	addi	a5,a0,1361 # 1551 <.Lline_table_start1+0x1326>
   1735e:	07f00413          	li	s0,127
   17362:	853e                	mv	a0,a5
   17364:	00000073          	ecall
   17368:	4485                	li	s1,1
   1736a:	00a47a63          	bgeu	s0,a0,1737e <_ZN18complex_no_dynamic3app17hdbef4fb983256579E+0x92>
   1736e:	853e                	mv	a0,a5
   17370:	4601                	li	a2,0
   17372:	4681                	li	a3,0
   17374:	4481                	li	s1,0
   17376:	4585                	li	a1,1
   17378:	470d                	li	a4,3
   1737a:	00000073          	ecall
   1737e:	c88d                	beqz	s1,173b0 <_ZN18complex_no_dynamic3app17hdbef4fb983256579E+0xc4>
   17380:	4601                	li	a2,0
   17382:	4681                	li	a3,0
   17384:	4505                	li	a0,1
   17386:	6705                	lui	a4,0x1
   17388:	87ae                	mv	a5,a1
   1738a:	4585                	li	a1,1
   1738c:	00a90023          	sb	a0,0(s2)
   17390:	00f92223          	sw	a5,4(s2)
   17394:	55170793          	addi	a5,a4,1361 # 1551 <.Lline_table_start1+0x1326>
   17398:	470d                	li	a4,3
   1739a:	853e                	mv	a0,a5
   1739c:	00000073          	ecall
   173a0:	459d                	li	a1,7
   173a2:	4711                	li	a4,4
   173a4:	853e                	mv	a0,a5
   173a6:	4601                	li	a2,0
   173a8:	4681                	li	a3,0
   173aa:	00000073          	ecall
   173ae:	a0a9                	j	173f8 <_ZN18complex_no_dynamic3app17hdbef4fb983256579E+0x10c>
   173b0:	6505                	lui	a0,0x1
   173b2:	55150493          	addi	s1,a0,1361 # 1551 <.Lline_table_start1+0x1326>
   173b6:	4585                	li	a1,1
   173b8:	470d                	li	a4,3
   173ba:	8526                	mv	a0,s1
   173bc:	4601                	li	a2,0
   173be:	4681                	li	a3,0
   173c0:	00000073          	ecall
   173c4:	00190513          	addi	a0,s2,1
   173c8:	04d10593          	addi	a1,sp,77
   173cc:	02300613          	li	a2,35
   173d0:	00006097          	auipc	ra,0x6
   173d4:	960080e7          	jalr	-1696(ra) # 1cd30 <memcpy>
   173d8:	8526                	mv	a0,s1
   173da:	4601                	li	a2,0
   173dc:	4681                	li	a3,0
   173de:	00090023          	sb	zero,0(s2)
   173e2:	4585                	li	a1,1
   173e4:	470d                	li	a4,3
   173e6:	00000073          	ecall
   173ea:	459d                	li	a1,7
   173ec:	4711                	li	a4,4
   173ee:	8526                	mv	a0,s1
   173f0:	4601                	li	a2,0
   173f2:	4681                	li	a3,0
   173f4:	00000073          	ecall
   173f8:	50f6                	lw	ra,124(sp)
   173fa:	5466                	lw	s0,120(sp)
   173fc:	54d6                	lw	s1,116(sp)
   173fe:	5946                	lw	s2,112(sp)
   17400:	6109                	addi	sp,sp,128
   17402:	8082                	ret

00017404 <_ZN18complex_no_dynamic3app17hdc1b6f9e5063c023E>:
   17404:	711d                	addi	sp,sp,-96
   17406:	ce86                	sw	ra,92(sp)
   17408:	cca2                	sw	s0,88(sp)
   1740a:	caa6                	sw	s1,84(sp)
   1740c:	842a                	mv	s0,a0
   1740e:	00510513          	addi	a0,sp,5
   17412:	02500613          	li	a2,37
   17416:	00006097          	auipc	ra,0x6
   1741a:	91a080e7          	jalr	-1766(ra) # 1cd30 <memcpy>
   1741e:	02a10513          	addi	a0,sp,42
   17422:	02a00613          	li	a2,42
   17426:	4581                	li	a1,0
   17428:	00006097          	auipc	ra,0x6
   1742c:	89c080e7          	jalr	-1892(ra) # 1ccc4 <memset>
   17430:	6505                	lui	a0,0x1
   17432:	00510613          	addi	a2,sp,5
   17436:	02500693          	li	a3,37
   1743a:	93c50793          	addi	a5,a0,-1732 # 93c <.Lline_table_start1+0x711>
   1743e:	4711                	li	a4,4
   17440:	4489                	li	s1,2
   17442:	853e                	mv	a0,a5
   17444:	4581                	li	a1,0
   17446:	00000073          	ecall
   1744a:	02950b63          	beq	a0,s1,17480 <_ZN18complex_no_dynamic3app17hdc1b6f9e5063c023E+0x7c>
   1744e:	458d                	li	a1,3
   17450:	02a10613          	addi	a2,sp,42
   17454:	02a00693          	li	a3,42
   17458:	470d                	li	a4,3
   1745a:	853e                	mv	a0,a5
   1745c:	00000073          	ecall
   17460:	02950063          	beq	a0,s1,17480 <_ZN18complex_no_dynamic3app17hdc1b6f9e5063c023E+0x7c>
   17464:	6505                	lui	a0,0x1
   17466:	460d                	li	a2,3
   17468:	93c50793          	addi	a5,a0,-1732 # 93c <.Lline_table_start1+0x711>
   1746c:	4709                	li	a4,2
   1746e:	07f00493          	li	s1,127
   17472:	853e                	mv	a0,a5
   17474:	4581                	li	a1,0
   17476:	4681                	li	a3,0
   17478:	00000073          	ecall
   1747c:	02a4ea63          	bltu	s1,a0,174b0 <_ZN18complex_no_dynamic3app17hdc1b6f9e5063c023E+0xac>
   17480:	4785                	li	a5,1
   17482:	c3a1                	beqz	a5,174c2 <_ZN18complex_no_dynamic3app17hdc1b6f9e5063c023E+0xbe>
   17484:	4505                	li	a0,1
   17486:	6605                	lui	a2,0x1
   17488:	00a40023          	sb	a0,0(s0)
   1748c:	c04c                	sw	a1,4(s0)
   1748e:	93c60793          	addi	a5,a2,-1732 # 93c <.Lline_table_start1+0x711>
   17492:	458d                	li	a1,3
   17494:	470d                	li	a4,3
   17496:	853e                	mv	a0,a5
   17498:	4601                	li	a2,0
   1749a:	4681                	li	a3,0
   1749c:	00000073          	ecall
   174a0:	4711                	li	a4,4
   174a2:	853e                	mv	a0,a5
   174a4:	4581                	li	a1,0
   174a6:	4601                	li	a2,0
   174a8:	4681                	li	a3,0
   174aa:	00000073          	ecall
   174ae:	a8b1                	j	1750a <_ZN18complex_no_dynamic3app17hdc1b6f9e5063c023E+0x106>
   174b0:	853e                	mv	a0,a5
   174b2:	4601                	li	a2,0
   174b4:	4681                	li	a3,0
   174b6:	4781                	li	a5,0
   174b8:	458d                	li	a1,3
   174ba:	470d                	li	a4,3
   174bc:	00000073          	ecall
   174c0:	f3f1                	bnez	a5,17484 <_ZN18complex_no_dynamic3app17hdc1b6f9e5063c023E+0x80>
   174c2:	6505                	lui	a0,0x1
   174c4:	93c50493          	addi	s1,a0,-1732 # 93c <.Lline_table_start1+0x711>
   174c8:	458d                	li	a1,3
   174ca:	470d                	li	a4,3
   174cc:	8526                	mv	a0,s1
   174ce:	4601                	li	a2,0
   174d0:	4681                	li	a3,0
   174d2:	00000073          	ecall
   174d6:	00140513          	addi	a0,s0,1
   174da:	02a10593          	addi	a1,sp,42
   174de:	02a00613          	li	a2,42
   174e2:	00006097          	auipc	ra,0x6
   174e6:	84e080e7          	jalr	-1970(ra) # 1cd30 <memcpy>
   174ea:	00040023          	sb	zero,0(s0)
   174ee:	458d                	li	a1,3
   174f0:	470d                	li	a4,3
   174f2:	8526                	mv	a0,s1
   174f4:	4601                	li	a2,0
   174f6:	4681                	li	a3,0
   174f8:	00000073          	ecall
   174fc:	4711                	li	a4,4
   174fe:	8526                	mv	a0,s1
   17500:	4581                	li	a1,0
   17502:	4601                	li	a2,0
   17504:	4681                	li	a3,0
   17506:	00000073          	ecall
   1750a:	40f6                	lw	ra,92(sp)
   1750c:	4466                	lw	s0,88(sp)
   1750e:	44d6                	lw	s1,84(sp)
   17510:	6125                	addi	sp,sp,96
   17512:	8082                	ret

00017514 <_ZN18complex_no_dynamic3app17hdd5496b45e2c060eE>:
   17514:	7119                	addi	sp,sp,-128
   17516:	de86                	sw	ra,124(sp)
   17518:	dca2                	sw	s0,120(sp)
   1751a:	daa6                	sw	s1,116(sp)
   1751c:	842a                	mv	s0,a0
   1751e:	00310513          	addi	a0,sp,3
   17522:	05d00613          	li	a2,93
   17526:	00006097          	auipc	ra,0x6
   1752a:	80a080e7          	jalr	-2038(ra) # 1cd30 <memcpy>
   1752e:	06011823          	sh	zero,112(sp)
   17532:	d082                	sw	zero,96(sp)
   17534:	d282                	sw	zero,100(sp)
   17536:	d482                	sw	zero,104(sp)
   17538:	d682                	sw	zero,108(sp)
   1753a:	6505                	lui	a0,0x1
   1753c:	00310613          	addi	a2,sp,3
   17540:	05d00693          	li	a3,93
   17544:	5f150793          	addi	a5,a0,1521 # 15f1 <.Lline_table_start1+0x13c6>
   17548:	4711                	li	a4,4
   1754a:	4489                	li	s1,2
   1754c:	853e                	mv	a0,a5
   1754e:	4581                	li	a1,0
   17550:	00000073          	ecall
   17554:	02950963          	beq	a0,s1,17586 <_ZN18complex_no_dynamic3app17hdd5496b45e2c060eE+0x72>
   17558:	4589                	li	a1,2
   1755a:	1090                	addi	a2,sp,96
   1755c:	46c9                	li	a3,18
   1755e:	470d                	li	a4,3
   17560:	853e                	mv	a0,a5
   17562:	00000073          	ecall
   17566:	02950063          	beq	a0,s1,17586 <_ZN18complex_no_dynamic3app17hdd5496b45e2c060eE+0x72>
   1756a:	6505                	lui	a0,0x1
   1756c:	4609                	li	a2,2
   1756e:	5f150793          	addi	a5,a0,1521 # 15f1 <.Lline_table_start1+0x13c6>
   17572:	4709                	li	a4,2
   17574:	07f00493          	li	s1,127
   17578:	853e                	mv	a0,a5
   1757a:	4581                	li	a1,0
   1757c:	4681                	li	a3,0
   1757e:	00000073          	ecall
   17582:	02a4ea63          	bltu	s1,a0,175b6 <_ZN18complex_no_dynamic3app17hdd5496b45e2c060eE+0xa2>
   17586:	4785                	li	a5,1
   17588:	c3a1                	beqz	a5,175c8 <_ZN18complex_no_dynamic3app17hdd5496b45e2c060eE+0xb4>
   1758a:	4505                	li	a0,1
   1758c:	6605                	lui	a2,0x1
   1758e:	00a40023          	sb	a0,0(s0)
   17592:	c04c                	sw	a1,4(s0)
   17594:	5f160793          	addi	a5,a2,1521 # 15f1 <.Lline_table_start1+0x13c6>
   17598:	4589                	li	a1,2
   1759a:	470d                	li	a4,3
   1759c:	853e                	mv	a0,a5
   1759e:	4601                	li	a2,0
   175a0:	4681                	li	a3,0
   175a2:	00000073          	ecall
   175a6:	4711                	li	a4,4
   175a8:	853e                	mv	a0,a5
   175aa:	4581                	li	a1,0
   175ac:	4601                	li	a2,0
   175ae:	4681                	li	a3,0
   175b0:	00000073          	ecall
   175b4:	a8a1                	j	1760c <_ZN18complex_no_dynamic3app17hdd5496b45e2c060eE+0xf8>
   175b6:	853e                	mv	a0,a5
   175b8:	4601                	li	a2,0
   175ba:	4681                	li	a3,0
   175bc:	4781                	li	a5,0
   175be:	4589                	li	a1,2
   175c0:	470d                	li	a4,3
   175c2:	00000073          	ecall
   175c6:	f3f1                	bnez	a5,1758a <_ZN18complex_no_dynamic3app17hdd5496b45e2c060eE+0x76>
   175c8:	6505                	lui	a0,0x1
   175ca:	5f150493          	addi	s1,a0,1521 # 15f1 <.Lline_table_start1+0x13c6>
   175ce:	4589                	li	a1,2
   175d0:	470d                	li	a4,3
   175d2:	8526                	mv	a0,s1
   175d4:	4601                	li	a2,0
   175d6:	4681                	li	a3,0
   175d8:	00000073          	ecall
   175dc:	00140513          	addi	a0,s0,1
   175e0:	108c                	addi	a1,sp,96
   175e2:	4649                	li	a2,18
   175e4:	00005097          	auipc	ra,0x5
   175e8:	74c080e7          	jalr	1868(ra) # 1cd30 <memcpy>
   175ec:	00040023          	sb	zero,0(s0)
   175f0:	4589                	li	a1,2
   175f2:	470d                	li	a4,3
   175f4:	8526                	mv	a0,s1
   175f6:	4601                	li	a2,0
   175f8:	4681                	li	a3,0
   175fa:	00000073          	ecall
   175fe:	4711                	li	a4,4
   17600:	8526                	mv	a0,s1
   17602:	4581                	li	a1,0
   17604:	4601                	li	a2,0
   17606:	4681                	li	a3,0
   17608:	00000073          	ecall
   1760c:	50f6                	lw	ra,124(sp)
   1760e:	5466                	lw	s0,120(sp)
   17610:	54d6                	lw	s1,116(sp)
   17612:	6109                	addi	sp,sp,128
   17614:	8082                	ret

00017616 <_ZN18complex_no_dynamic3app17hddecc4ac8a341952E>:
   17616:	711d                	addi	sp,sp,-96
   17618:	ce86                	sw	ra,92(sp)
   1761a:	cca2                	sw	s0,88(sp)
   1761c:	caa6                	sw	s1,84(sp)
   1761e:	c8ca                	sw	s2,80(sp)
   17620:	c6ce                	sw	s3,76(sp)
   17622:	c4d2                	sw	s4,72(sp)
   17624:	892a                	mv	s2,a0
   17626:	01c5c303          	lbu	t1,28(a1)
   1762a:	01d5c603          	lbu	a2,29(a1)
   1762e:	0185c683          	lbu	a3,24(a1)
   17632:	0195c703          	lbu	a4,25(a1)
   17636:	01a5c803          	lbu	a6,26(a1)
   1763a:	01b5c283          	lbu	t0,27(a1)
   1763e:	0145c883          	lbu	a7,20(a1)
   17642:	0155c383          	lbu	t2,21(a1)
   17646:	0165c403          	lbu	s0,22(a1)
   1764a:	0175c483          	lbu	s1,23(a1)
   1764e:	0105c503          	lbu	a0,16(a1)
   17652:	0115c783          	lbu	a5,17(a1)
   17656:	0125ce03          	lbu	t3,18(a1)
   1765a:	0135ce83          	lbu	t4,19(a1)
   1765e:	0622                	slli	a2,a2,0x8
   17660:	0722                	slli	a4,a4,0x8
   17662:	00666333          	or	t1,a2,t1
   17666:	00d76f33          	or	t5,a4,a3
   1766a:	00c5cf83          	lbu	t6,12(a1)
   1766e:	00d5c683          	lbu	a3,13(a1)
   17672:	00e5c703          	lbu	a4,14(a1)
   17676:	00f5c603          	lbu	a2,15(a1)
   1767a:	0842                	slli	a6,a6,0x10
   1767c:	02e2                	slli	t0,t0,0x18
   1767e:	03a2                	slli	t2,t2,0x8
   17680:	0442                	slli	s0,s0,0x10
   17682:	04e2                	slli	s1,s1,0x18
   17684:	07a2                	slli	a5,a5,0x8
   17686:	0102e2b3          	or	t0,t0,a6
   1768a:	0113e833          	or	a6,t2,a7
   1768e:	0084e8b3          	or	a7,s1,s0
   17692:	00a7e3b3          	or	t2,a5,a0
   17696:	0085c503          	lbu	a0,8(a1)
   1769a:	0095c783          	lbu	a5,9(a1)
   1769e:	00a5c403          	lbu	s0,10(a1)
   176a2:	00b5c483          	lbu	s1,11(a1)
   176a6:	0e42                	slli	t3,t3,0x10
   176a8:	0ee2                	slli	t4,t4,0x18
   176aa:	06a2                	slli	a3,a3,0x8
   176ac:	0742                	slli	a4,a4,0x10
   176ae:	0662                	slli	a2,a2,0x18
   176b0:	07a2                	slli	a5,a5,0x8
   176b2:	01ceee33          	or	t3,t4,t3
   176b6:	01f6eeb3          	or	t4,a3,t6
   176ba:	00e669b3          	or	s3,a2,a4
   176be:	00a7efb3          	or	t6,a5,a0
   176c2:	0045c703          	lbu	a4,4(a1)
   176c6:	0055c783          	lbu	a5,5(a1)
   176ca:	0065c683          	lbu	a3,6(a1)
   176ce:	0075c503          	lbu	a0,7(a1)
   176d2:	0442                	slli	s0,s0,0x10
   176d4:	04e2                	slli	s1,s1,0x18
   176d6:	07a2                	slli	a5,a5,0x8
   176d8:	06c2                	slli	a3,a3,0x10
   176da:	0562                	slli	a0,a0,0x18
   176dc:	8c45                	or	s0,s0,s1
   176de:	00e7ea33          	or	s4,a5,a4
   176e2:	0005c783          	lbu	a5,0(a1)
   176e6:	0015c483          	lbu	s1,1(a1)
   176ea:	8d55                	or	a0,a0,a3
   176ec:	0025c683          	lbu	a3,2(a1)
   176f0:	0035c583          	lbu	a1,3(a1)
   176f4:	04a2                	slli	s1,s1,0x8
   176f6:	8fc5                	or	a5,a5,s1
   176f8:	06c2                	slli	a3,a3,0x10
   176fa:	05e2                	slli	a1,a1,0x18
   176fc:	8dd5                	or	a1,a1,a3
   176fe:	01e2e6b3          	or	a3,t0,t5
   17702:	0108e4b3          	or	s1,a7,a6
   17706:	007e6633          	or	a2,t3,t2
   1770a:	01d9e733          	or	a4,s3,t4
   1770e:	01f46433          	or	s0,s0,t6
   17712:	01456533          	or	a0,a0,s4
   17716:	8ddd                	or	a1,a1,a5
   17718:	cc32                	sw	a2,24(sp)
   1771a:	ce26                	sw	s1,28(sp)
   1771c:	d036                	sw	a3,32(sp)
   1771e:	02611223          	sh	t1,36(sp)
   17722:	c42e                	sw	a1,8(sp)
   17724:	c62a                	sw	a0,12(sp)
   17726:	c822                	sw	s0,16(sp)
   17728:	ca3a                	sw	a4,20(sp)
   1772a:	02710513          	addi	a0,sp,39
   1772e:	02100613          	li	a2,33
   17732:	4581                	li	a1,0
   17734:	00005097          	auipc	ra,0x5
   17738:	590080e7          	jalr	1424(ra) # 1ccc4 <memset>
   1773c:	6509                	lui	a0,0x2
   1773e:	4599                	li	a1,6
   17740:	0030                	addi	a2,sp,8
   17742:	46f9                	li	a3,30
   17744:	9b550793          	addi	a5,a0,-1611 # 19b5 <.Lline_table_start1+0x178a>
   17748:	4711                	li	a4,4
   1774a:	4489                	li	s1,2
   1774c:	853e                	mv	a0,a5
   1774e:	00000073          	ecall
   17752:	02950b63          	beq	a0,s1,17788 <_ZN18complex_no_dynamic3app17hddecc4ac8a341952E+0x172>
   17756:	45a5                	li	a1,9
   17758:	02710613          	addi	a2,sp,39
   1775c:	02100693          	li	a3,33
   17760:	470d                	li	a4,3
   17762:	853e                	mv	a0,a5
   17764:	00000073          	ecall
   17768:	02950063          	beq	a0,s1,17788 <_ZN18complex_no_dynamic3app17hddecc4ac8a341952E+0x172>
   1776c:	6509                	lui	a0,0x2
   1776e:	4599                	li	a1,6
   17770:	4625                	li	a2,9
   17772:	9b550793          	addi	a5,a0,-1611 # 19b5 <.Lline_table_start1+0x178a>
   17776:	4709                	li	a4,2
   17778:	07f00493          	li	s1,127
   1777c:	853e                	mv	a0,a5
   1777e:	4681                	li	a3,0
   17780:	00000073          	ecall
   17784:	02a4ec63          	bltu	s1,a0,177bc <_ZN18complex_no_dynamic3app17hddecc4ac8a341952E+0x1a6>
   17788:	4785                	li	a5,1
   1778a:	c3b1                	beqz	a5,177ce <_ZN18complex_no_dynamic3app17hddecc4ac8a341952E+0x1b8>
   1778c:	4601                	li	a2,0
   1778e:	4681                	li	a3,0
   17790:	4505                	li	a0,1
   17792:	6709                	lui	a4,0x2
   17794:	87ae                	mv	a5,a1
   17796:	45a5                	li	a1,9
   17798:	00a90023          	sb	a0,0(s2)
   1779c:	00f92223          	sw	a5,4(s2)
   177a0:	9b570793          	addi	a5,a4,-1611 # 19b5 <.Lline_table_start1+0x178a>
   177a4:	470d                	li	a4,3
   177a6:	853e                	mv	a0,a5
   177a8:	00000073          	ecall
   177ac:	4599                	li	a1,6
   177ae:	4711                	li	a4,4
   177b0:	853e                	mv	a0,a5
   177b2:	4601                	li	a2,0
   177b4:	4681                	li	a3,0
   177b6:	00000073          	ecall
   177ba:	a8b1                	j	17816 <_ZN18complex_no_dynamic3app17hddecc4ac8a341952E+0x200>
   177bc:	853e                	mv	a0,a5
   177be:	4601                	li	a2,0
   177c0:	4681                	li	a3,0
   177c2:	4781                	li	a5,0
   177c4:	45a5                	li	a1,9
   177c6:	470d                	li	a4,3
   177c8:	00000073          	ecall
   177cc:	f3e1                	bnez	a5,1778c <_ZN18complex_no_dynamic3app17hddecc4ac8a341952E+0x176>
   177ce:	6509                	lui	a0,0x2
   177d0:	9b550493          	addi	s1,a0,-1611 # 19b5 <.Lline_table_start1+0x178a>
   177d4:	45a5                	li	a1,9
   177d6:	470d                	li	a4,3
   177d8:	8526                	mv	a0,s1
   177da:	4601                	li	a2,0
   177dc:	4681                	li	a3,0
   177de:	00000073          	ecall
   177e2:	00190513          	addi	a0,s2,1
   177e6:	02710593          	addi	a1,sp,39
   177ea:	02100613          	li	a2,33
   177ee:	00005097          	auipc	ra,0x5
   177f2:	542080e7          	jalr	1346(ra) # 1cd30 <memcpy>
   177f6:	8526                	mv	a0,s1
   177f8:	4601                	li	a2,0
   177fa:	4681                	li	a3,0
   177fc:	00090023          	sb	zero,0(s2)
   17800:	45a5                	li	a1,9
   17802:	470d                	li	a4,3
   17804:	00000073          	ecall
   17808:	4599                	li	a1,6
   1780a:	4711                	li	a4,4
   1780c:	8526                	mv	a0,s1
   1780e:	4601                	li	a2,0
   17810:	4681                	li	a3,0
   17812:	00000073          	ecall
   17816:	40f6                	lw	ra,92(sp)
   17818:	4466                	lw	s0,88(sp)
   1781a:	44d6                	lw	s1,84(sp)
   1781c:	4946                	lw	s2,80(sp)
   1781e:	49b6                	lw	s3,76(sp)
   17820:	4a26                	lw	s4,72(sp)
   17822:	6125                	addi	sp,sp,96
   17824:	8082                	ret

00017826 <_ZN18complex_no_dynamic3app17hdfc0688e3e3b81b0E>:
   17826:	7159                	addi	sp,sp,-112
   17828:	d686                	sw	ra,108(sp)
   1782a:	d4a2                	sw	s0,104(sp)
   1782c:	d2a6                	sw	s1,100(sp)
   1782e:	d0ca                	sw	s2,96(sp)
   17830:	892a                	mv	s2,a0
   17832:	0185c883          	lbu	a7,24(a1)
   17836:	0195c303          	lbu	t1,25(a1)
   1783a:	01a5c803          	lbu	a6,26(a1)
   1783e:	0145c283          	lbu	t0,20(a1)
   17842:	0155cf03          	lbu	t5,21(a1)
   17846:	0165c403          	lbu	s0,22(a1)
   1784a:	0175c483          	lbu	s1,23(a1)
   1784e:	0105c703          	lbu	a4,16(a1)
   17852:	0115c603          	lbu	a2,17(a1)
   17856:	0125ce03          	lbu	t3,18(a1)
   1785a:	0135ce83          	lbu	t4,19(a1)
   1785e:	00c5c383          	lbu	t2,12(a1)
   17862:	00d5cf83          	lbu	t6,13(a1)
   17866:	00e5c683          	lbu	a3,14(a1)
   1786a:	00f5c783          	lbu	a5,15(a1)
   1786e:	0322                	slli	t1,t1,0x8
   17870:	0f22                	slli	t5,t5,0x8
   17872:	0442                	slli	s0,s0,0x10
   17874:	04e2                	slli	s1,s1,0x18
   17876:	00861513          	slli	a0,a2,0x8
   1787a:	011368b3          	or	a7,t1,a7
   1787e:	005f62b3          	or	t0,t5,t0
   17882:	0084ef33          	or	t5,s1,s0
   17886:	00e56333          	or	t1,a0,a4
   1788a:	0085c703          	lbu	a4,8(a1)
   1788e:	0095c403          	lbu	s0,9(a1)
   17892:	00a5c603          	lbu	a2,10(a1)
   17896:	00b5c503          	lbu	a0,11(a1)
   1789a:	0e42                	slli	t3,t3,0x10
   1789c:	0ee2                	slli	t4,t4,0x18
   1789e:	0fa2                	slli	t6,t6,0x8
   178a0:	06c2                	slli	a3,a3,0x10
   178a2:	07e2                	slli	a5,a5,0x18
   178a4:	0422                	slli	s0,s0,0x8
   178a6:	01ceee33          	or	t3,t4,t3
   178aa:	007fe3b3          	or	t2,t6,t2
   178ae:	00d7eeb3          	or	t4,a5,a3
   178b2:	00e46fb3          	or	t6,s0,a4
   178b6:	0045c783          	lbu	a5,4(a1)
   178ba:	0055c403          	lbu	s0,5(a1)
   178be:	0065c483          	lbu	s1,6(a1)
   178c2:	0075c683          	lbu	a3,7(a1)
   178c6:	0642                	slli	a2,a2,0x10
   178c8:	0562                	slli	a0,a0,0x18
   178ca:	0422                	slli	s0,s0,0x8
   178cc:	04c2                	slli	s1,s1,0x10
   178ce:	06e2                	slli	a3,a3,0x18
   178d0:	8d51                	or	a0,a0,a2
   178d2:	8fc1                	or	a5,a5,s0
   178d4:	0005c603          	lbu	a2,0(a1)
   178d8:	0015c403          	lbu	s0,1(a1)
   178dc:	8ec5                	or	a3,a3,s1
   178de:	0025c483          	lbu	s1,2(a1)
   178e2:	0035c583          	lbu	a1,3(a1)
   178e6:	0422                	slli	s0,s0,0x8
   178e8:	8e41                	or	a2,a2,s0
   178ea:	04c2                	slli	s1,s1,0x10
   178ec:	05e2                	slli	a1,a1,0x18
   178ee:	8dc5                	or	a1,a1,s1
   178f0:	005f64b3          	or	s1,t5,t0
   178f4:	006e6433          	or	s0,t3,t1
   178f8:	007ee733          	or	a4,t4,t2
   178fc:	01f56533          	or	a0,a0,t6
   17900:	8edd                	or	a3,a3,a5
   17902:	8dd1                	or	a1,a1,a2
   17904:	ca22                	sw	s0,20(sp)
   17906:	cc26                	sw	s1,24(sp)
   17908:	01111e23          	sh	a7,28(sp)
   1790c:	01010f23          	sb	a6,30(sp)
   17910:	c22e                	sw	a1,4(sp)
   17912:	c436                	sw	a3,8(sp)
   17914:	c62a                	sw	a0,12(sp)
   17916:	c83a                	sw	a4,16(sp)
   17918:	01f10513          	addi	a0,sp,31
   1791c:	04100613          	li	a2,65
   17920:	4581                	li	a1,0
   17922:	00005097          	auipc	ra,0x5
   17926:	3a2080e7          	jalr	930(ra) # 1ccc4 <memset>
   1792a:	14000513          	li	a0,320
   1792e:	45a1                	li	a1,8
   17930:	0050                	addi	a2,sp,4
   17932:	46ed                	li	a3,27
   17934:	4711                	li	a4,4
   17936:	4789                	li	a5,2
   17938:	00000073          	ecall
   1793c:	02f50a63          	beq	a0,a5,17970 <_ZN18complex_no_dynamic3app17hdfc0688e3e3b81b0E+0x14a>
   17940:	14000513          	li	a0,320
   17944:	45a5                	li	a1,9
   17946:	01f10613          	addi	a2,sp,31
   1794a:	04100693          	li	a3,65
   1794e:	470d                	li	a4,3
   17950:	00000073          	ecall
   17954:	00f50e63          	beq	a0,a5,17970 <_ZN18complex_no_dynamic3app17hdfc0688e3e3b81b0E+0x14a>
   17958:	14000513          	li	a0,320
   1795c:	45a1                	li	a1,8
   1795e:	4625                	li	a2,9
   17960:	4709                	li	a4,2
   17962:	07f00793          	li	a5,127
   17966:	4681                	li	a3,0
   17968:	00000073          	ecall
   1796c:	02a7ea63          	bltu	a5,a0,179a0 <_ZN18complex_no_dynamic3app17hdfc0688e3e3b81b0E+0x17a>
   17970:	4785                	li	a5,1
   17972:	c3a9                	beqz	a5,179b4 <_ZN18complex_no_dynamic3app17hdfc0688e3e3b81b0E+0x18e>
   17974:	4601                	li	a2,0
   17976:	4681                	li	a3,0
   17978:	4705                	li	a4,1
   1797a:	14000513          	li	a0,320
   1797e:	00e90023          	sb	a4,0(s2)
   17982:	00b92223          	sw	a1,4(s2)
   17986:	45a5                	li	a1,9
   17988:	470d                	li	a4,3
   1798a:	00000073          	ecall
   1798e:	14000513          	li	a0,320
   17992:	45a1                	li	a1,8
   17994:	4711                	li	a4,4
   17996:	4601                	li	a2,0
   17998:	4681                	li	a3,0
   1799a:	00000073          	ecall
   1799e:	a8b9                	j	179fc <_ZN18complex_no_dynamic3app17hdfc0688e3e3b81b0E+0x1d6>
   179a0:	4601                	li	a2,0
   179a2:	4681                	li	a3,0
   179a4:	4781                	li	a5,0
   179a6:	14000513          	li	a0,320
   179aa:	45a5                	li	a1,9
   179ac:	470d                	li	a4,3
   179ae:	00000073          	ecall
   179b2:	f3e9                	bnez	a5,17974 <_ZN18complex_no_dynamic3app17hdfc0688e3e3b81b0E+0x14e>
   179b4:	14000513          	li	a0,320
   179b8:	45a5                	li	a1,9
   179ba:	470d                	li	a4,3
   179bc:	4601                	li	a2,0
   179be:	4681                	li	a3,0
   179c0:	00000073          	ecall
   179c4:	00190513          	addi	a0,s2,1
   179c8:	01f10593          	addi	a1,sp,31
   179cc:	04100613          	li	a2,65
   179d0:	00005097          	auipc	ra,0x5
   179d4:	360080e7          	jalr	864(ra) # 1cd30 <memcpy>
   179d8:	4601                	li	a2,0
   179da:	4681                	li	a3,0
   179dc:	00090023          	sb	zero,0(s2)
   179e0:	14000513          	li	a0,320
   179e4:	45a5                	li	a1,9
   179e6:	470d                	li	a4,3
   179e8:	00000073          	ecall
   179ec:	14000513          	li	a0,320
   179f0:	45a1                	li	a1,8
   179f2:	4711                	li	a4,4
   179f4:	4601                	li	a2,0
   179f6:	4681                	li	a3,0
   179f8:	00000073          	ecall
   179fc:	50b6                	lw	ra,108(sp)
   179fe:	5426                	lw	s0,104(sp)
   17a00:	5496                	lw	s1,100(sp)
   17a02:	5906                	lw	s2,96(sp)
   17a04:	6165                	addi	sp,sp,112
   17a06:	8082                	ret

00017a08 <_ZN18complex_no_dynamic3app17he88e3b69617bb138E>:
   17a08:	7135                	addi	sp,sp,-160
   17a0a:	cf06                	sw	ra,156(sp)
   17a0c:	cd22                	sw	s0,152(sp)
   17a0e:	cb26                	sw	s1,148(sp)
   17a10:	842a                	mv	s0,a0
   17a12:	00a10513          	addi	a0,sp,10
   17a16:	06300613          	li	a2,99
   17a1a:	00005097          	auipc	ra,0x5
   17a1e:	316080e7          	jalr	790(ra) # 1cd30 <memcpy>
   17a22:	06d10513          	addi	a0,sp,109
   17a26:	02700613          	li	a2,39
   17a2a:	4581                	li	a1,0
   17a2c:	00005097          	auipc	ra,0x5
   17a30:	298080e7          	jalr	664(ra) # 1ccc4 <memset>
   17a34:	6509                	lui	a0,0x2
   17a36:	459d                	li	a1,7
   17a38:	00a10613          	addi	a2,sp,10
   17a3c:	06300693          	li	a3,99
   17a40:	e5450793          	addi	a5,a0,-428 # 1e54 <.Lline_table_start1+0x1c29>
   17a44:	4711                	li	a4,4
   17a46:	4489                	li	s1,2
   17a48:	853e                	mv	a0,a5
   17a4a:	00000073          	ecall
   17a4e:	02950b63          	beq	a0,s1,17a84 <_ZN18complex_no_dynamic3app17he88e3b69617bb138E+0x7c>
   17a52:	06d10613          	addi	a2,sp,109
   17a56:	02700693          	li	a3,39
   17a5a:	470d                	li	a4,3
   17a5c:	853e                	mv	a0,a5
   17a5e:	4581                	li	a1,0
   17a60:	00000073          	ecall
   17a64:	02950063          	beq	a0,s1,17a84 <_ZN18complex_no_dynamic3app17he88e3b69617bb138E+0x7c>
   17a68:	6509                	lui	a0,0x2
   17a6a:	459d                	li	a1,7
   17a6c:	e5450793          	addi	a5,a0,-428 # 1e54 <.Lline_table_start1+0x1c29>
   17a70:	4709                	li	a4,2
   17a72:	07f00493          	li	s1,127
   17a76:	853e                	mv	a0,a5
   17a78:	4601                	li	a2,0
   17a7a:	4681                	li	a3,0
   17a7c:	00000073          	ecall
   17a80:	02a4eb63          	bltu	s1,a0,17ab6 <_ZN18complex_no_dynamic3app17he88e3b69617bb138E+0xae>
   17a84:	4785                	li	a5,1
   17a86:	c3a9                	beqz	a5,17ac8 <_ZN18complex_no_dynamic3app17he88e3b69617bb138E+0xc0>
   17a88:	852e                	mv	a0,a1
   17a8a:	4581                	li	a1,0
   17a8c:	4601                	li	a2,0
   17a8e:	4681                	li	a3,0
   17a90:	4705                	li	a4,1
   17a92:	6789                	lui	a5,0x2
   17a94:	00e40023          	sb	a4,0(s0)
   17a98:	c048                	sw	a0,4(s0)
   17a9a:	e5478793          	addi	a5,a5,-428 # 1e54 <.Lline_table_start1+0x1c29>
   17a9e:	470d                	li	a4,3
   17aa0:	853e                	mv	a0,a5
   17aa2:	00000073          	ecall
   17aa6:	459d                	li	a1,7
   17aa8:	4711                	li	a4,4
   17aaa:	853e                	mv	a0,a5
   17aac:	4601                	li	a2,0
   17aae:	4681                	li	a3,0
   17ab0:	00000073          	ecall
   17ab4:	a8b1                	j	17b10 <_ZN18complex_no_dynamic3app17he88e3b69617bb138E+0x108>
   17ab6:	853e                	mv	a0,a5
   17ab8:	4581                	li	a1,0
   17aba:	4601                	li	a2,0
   17abc:	4681                	li	a3,0
   17abe:	4781                	li	a5,0
   17ac0:	470d                	li	a4,3
   17ac2:	00000073          	ecall
   17ac6:	f3e9                	bnez	a5,17a88 <_ZN18complex_no_dynamic3app17he88e3b69617bb138E+0x80>
   17ac8:	6509                	lui	a0,0x2
   17aca:	e5450493          	addi	s1,a0,-428 # 1e54 <.Lline_table_start1+0x1c29>
   17ace:	470d                	li	a4,3
   17ad0:	8526                	mv	a0,s1
   17ad2:	4581                	li	a1,0
   17ad4:	4601                	li	a2,0
   17ad6:	4681                	li	a3,0
   17ad8:	00000073          	ecall
   17adc:	00140513          	addi	a0,s0,1
   17ae0:	06d10593          	addi	a1,sp,109
   17ae4:	02700613          	li	a2,39
   17ae8:	00005097          	auipc	ra,0x5
   17aec:	248080e7          	jalr	584(ra) # 1cd30 <memcpy>
   17af0:	8526                	mv	a0,s1
   17af2:	4581                	li	a1,0
   17af4:	4601                	li	a2,0
   17af6:	4681                	li	a3,0
   17af8:	00040023          	sb	zero,0(s0)
   17afc:	470d                	li	a4,3
   17afe:	00000073          	ecall
   17b02:	459d                	li	a1,7
   17b04:	4711                	li	a4,4
   17b06:	8526                	mv	a0,s1
   17b08:	4601                	li	a2,0
   17b0a:	4681                	li	a3,0
   17b0c:	00000073          	ecall
   17b10:	40fa                	lw	ra,156(sp)
   17b12:	446a                	lw	s0,152(sp)
   17b14:	44da                	lw	s1,148(sp)
   17b16:	610d                	addi	sp,sp,160
   17b18:	8082                	ret

00017b1a <_ZN18complex_no_dynamic3app17he8eb6570e314bb32E>:
   17b1a:	7159                	addi	sp,sp,-112
   17b1c:	d686                	sw	ra,108(sp)
   17b1e:	d4a2                	sw	s0,104(sp)
   17b20:	d2a6                	sw	s1,100(sp)
   17b22:	d0ca                	sw	s2,96(sp)
   17b24:	892a                	mv	s2,a0
   17b26:	0105c803          	lbu	a6,16(a1)
   17b2a:	0115c603          	lbu	a2,17(a1)
   17b2e:	00c5c883          	lbu	a7,12(a1)
   17b32:	00d5c703          	lbu	a4,13(a1)
   17b36:	00e5c783          	lbu	a5,14(a1)
   17b3a:	00f5c483          	lbu	s1,15(a1)
   17b3e:	0085c403          	lbu	s0,8(a1)
   17b42:	0095c503          	lbu	a0,9(a1)
   17b46:	00a5c283          	lbu	t0,10(a1)
   17b4a:	00b5c683          	lbu	a3,11(a1)
   17b4e:	0622                	slli	a2,a2,0x8
   17b50:	0722                	slli	a4,a4,0x8
   17b52:	07c2                	slli	a5,a5,0x10
   17b54:	04e2                	slli	s1,s1,0x18
   17b56:	0522                	slli	a0,a0,0x8
   17b58:	01066833          	or	a6,a2,a6
   17b5c:	011768b3          	or	a7,a4,a7
   17b60:	8fc5                	or	a5,a5,s1
   17b62:	00856333          	or	t1,a0,s0
   17b66:	0045c483          	lbu	s1,4(a1)
   17b6a:	0055c403          	lbu	s0,5(a1)
   17b6e:	0065c603          	lbu	a2,6(a1)
   17b72:	0075c703          	lbu	a4,7(a1)
   17b76:	02c2                	slli	t0,t0,0x10
   17b78:	06e2                	slli	a3,a3,0x18
   17b7a:	0422                	slli	s0,s0,0x8
   17b7c:	0642                	slli	a2,a2,0x10
   17b7e:	0762                	slli	a4,a4,0x18
   17b80:	0056e6b3          	or	a3,a3,t0
   17b84:	8c45                	or	s0,s0,s1
   17b86:	0005c483          	lbu	s1,0(a1)
   17b8a:	0015c503          	lbu	a0,1(a1)
   17b8e:	8e59                	or	a2,a2,a4
   17b90:	0025c703          	lbu	a4,2(a1)
   17b94:	0035c583          	lbu	a1,3(a1)
   17b98:	0522                	slli	a0,a0,0x8
   17b9a:	8d45                	or	a0,a0,s1
   17b9c:	0742                	slli	a4,a4,0x10
   17b9e:	05e2                	slli	a1,a1,0x18
   17ba0:	8dd9                	or	a1,a1,a4
   17ba2:	01011c23          	sh	a6,24(sp)
   17ba6:	0117e733          	or	a4,a5,a7
   17baa:	0066e6b3          	or	a3,a3,t1
   17bae:	8e41                	or	a2,a2,s0
   17bb0:	8d4d                	or	a0,a0,a1
   17bb2:	c42a                	sw	a0,8(sp)
   17bb4:	c632                	sw	a2,12(sp)
   17bb6:	c836                	sw	a3,16(sp)
   17bb8:	ca3a                	sw	a4,20(sp)
   17bba:	0868                	addi	a0,sp,28
   17bbc:	04400613          	li	a2,68
   17bc0:	4581                	li	a1,0
   17bc2:	00005097          	auipc	ra,0x5
   17bc6:	102080e7          	jalr	258(ra) # 1ccc4 <memset>
   17bca:	6509                	lui	a0,0x2
   17bcc:	4489                	li	s1,2
   17bce:	4589                	li	a1,2
   17bd0:	0030                	addi	a2,sp,8
   17bd2:	43250793          	addi	a5,a0,1074 # 2432 <.Lline_table_start1+0x2207>
   17bd6:	46c9                	li	a3,18
   17bd8:	4711                	li	a4,4
   17bda:	853e                	mv	a0,a5
   17bdc:	00000073          	ecall
   17be0:	02950a63          	beq	a0,s1,17c14 <_ZN18complex_no_dynamic3app17he8eb6570e314bb32E+0xfa>
   17be4:	45a5                	li	a1,9
   17be6:	0870                	addi	a2,sp,28
   17be8:	04400693          	li	a3,68
   17bec:	470d                	li	a4,3
   17bee:	853e                	mv	a0,a5
   17bf0:	00000073          	ecall
   17bf4:	02950063          	beq	a0,s1,17c14 <_ZN18complex_no_dynamic3app17he8eb6570e314bb32E+0xfa>
   17bf8:	6509                	lui	a0,0x2
   17bfa:	4589                	li	a1,2
   17bfc:	4625                	li	a2,9
   17bfe:	43250793          	addi	a5,a0,1074 # 2432 <.Lline_table_start1+0x2207>
   17c02:	4709                	li	a4,2
   17c04:	07f00493          	li	s1,127
   17c08:	853e                	mv	a0,a5
   17c0a:	4681                	li	a3,0
   17c0c:	00000073          	ecall
   17c10:	02a4ec63          	bltu	s1,a0,17c48 <_ZN18complex_no_dynamic3app17he8eb6570e314bb32E+0x12e>
   17c14:	4785                	li	a5,1
   17c16:	c3b1                	beqz	a5,17c5a <_ZN18complex_no_dynamic3app17he8eb6570e314bb32E+0x140>
   17c18:	4601                	li	a2,0
   17c1a:	4681                	li	a3,0
   17c1c:	4505                	li	a0,1
   17c1e:	6709                	lui	a4,0x2
   17c20:	87ae                	mv	a5,a1
   17c22:	45a5                	li	a1,9
   17c24:	00a90023          	sb	a0,0(s2)
   17c28:	00f92223          	sw	a5,4(s2)
   17c2c:	43270793          	addi	a5,a4,1074 # 2432 <.Lline_table_start1+0x2207>
   17c30:	470d                	li	a4,3
   17c32:	853e                	mv	a0,a5
   17c34:	00000073          	ecall
   17c38:	4589                	li	a1,2
   17c3a:	4711                	li	a4,4
   17c3c:	853e                	mv	a0,a5
   17c3e:	4601                	li	a2,0
   17c40:	4681                	li	a3,0
   17c42:	00000073          	ecall
   17c46:	a8a9                	j	17ca0 <_ZN18complex_no_dynamic3app17he8eb6570e314bb32E+0x186>
   17c48:	853e                	mv	a0,a5
   17c4a:	4601                	li	a2,0
   17c4c:	4681                	li	a3,0
   17c4e:	4781                	li	a5,0
   17c50:	45a5                	li	a1,9
   17c52:	470d                	li	a4,3
   17c54:	00000073          	ecall
   17c58:	f3e1                	bnez	a5,17c18 <_ZN18complex_no_dynamic3app17he8eb6570e314bb32E+0xfe>
   17c5a:	6509                	lui	a0,0x2
   17c5c:	43250493          	addi	s1,a0,1074 # 2432 <.Lline_table_start1+0x2207>
   17c60:	45a5                	li	a1,9
   17c62:	470d                	li	a4,3
   17c64:	8526                	mv	a0,s1
   17c66:	4601                	li	a2,0
   17c68:	4681                	li	a3,0
   17c6a:	00000073          	ecall
   17c6e:	00190513          	addi	a0,s2,1
   17c72:	086c                	addi	a1,sp,28
   17c74:	04400613          	li	a2,68
   17c78:	00005097          	auipc	ra,0x5
   17c7c:	0b8080e7          	jalr	184(ra) # 1cd30 <memcpy>
   17c80:	8526                	mv	a0,s1
   17c82:	4601                	li	a2,0
   17c84:	4681                	li	a3,0
   17c86:	00090023          	sb	zero,0(s2)
   17c8a:	45a5                	li	a1,9
   17c8c:	470d                	li	a4,3
   17c8e:	00000073          	ecall
   17c92:	4589                	li	a1,2
   17c94:	4711                	li	a4,4
   17c96:	8526                	mv	a0,s1
   17c98:	4601                	li	a2,0
   17c9a:	4681                	li	a3,0
   17c9c:	00000073          	ecall
   17ca0:	50b6                	lw	ra,108(sp)
   17ca2:	5426                	lw	s0,104(sp)
   17ca4:	5496                	lw	s1,100(sp)
   17ca6:	5906                	lw	s2,96(sp)
   17ca8:	6165                	addi	sp,sp,112
   17caa:	8082                	ret

00017cac <_ZN18complex_no_dynamic3app17hea66859ed121c071E>:
   17cac:	7175                	addi	sp,sp,-144
   17cae:	c706                	sw	ra,140(sp)
   17cb0:	c522                	sw	s0,136(sp)
   17cb2:	c326                	sw	s1,132(sp)
   17cb4:	842a                	mv	s0,a0
   17cb6:	00b10513          	addi	a0,sp,11
   17cba:	03100613          	li	a2,49
   17cbe:	00005097          	auipc	ra,0x5
   17cc2:	072080e7          	jalr	114(ra) # 1cd30 <memcpy>
   17cc6:	1868                	addi	a0,sp,60
   17cc8:	04800613          	li	a2,72
   17ccc:	4581                	li	a1,0
   17cce:	00005097          	auipc	ra,0x5
   17cd2:	ff6080e7          	jalr	-10(ra) # 1ccc4 <memset>
   17cd6:	6509                	lui	a0,0x2
   17cd8:	4591                	li	a1,4
   17cda:	00b10613          	addi	a2,sp,11
   17cde:	03100693          	li	a3,49
   17ce2:	80e50793          	addi	a5,a0,-2034 # 180e <.Lline_table_start1+0x15e3>
   17ce6:	4711                	li	a4,4
   17ce8:	4489                	li	s1,2
   17cea:	853e                	mv	a0,a5
   17cec:	00000073          	ecall
   17cf0:	02950a63          	beq	a0,s1,17d24 <_ZN18complex_no_dynamic3app17hea66859ed121c071E+0x78>
   17cf4:	458d                	li	a1,3
   17cf6:	1870                	addi	a2,sp,60
   17cf8:	04800693          	li	a3,72
   17cfc:	470d                	li	a4,3
   17cfe:	853e                	mv	a0,a5
   17d00:	00000073          	ecall
   17d04:	02950063          	beq	a0,s1,17d24 <_ZN18complex_no_dynamic3app17hea66859ed121c071E+0x78>
   17d08:	6509                	lui	a0,0x2
   17d0a:	4591                	li	a1,4
   17d0c:	460d                	li	a2,3
   17d0e:	80e50793          	addi	a5,a0,-2034 # 180e <.Lline_table_start1+0x15e3>
   17d12:	4709                	li	a4,2
   17d14:	07f00493          	li	s1,127
   17d18:	853e                	mv	a0,a5
   17d1a:	4681                	li	a3,0
   17d1c:	00000073          	ecall
   17d20:	02a4eb63          	bltu	s1,a0,17d56 <_ZN18complex_no_dynamic3app17hea66859ed121c071E+0xaa>
   17d24:	4785                	li	a5,1
   17d26:	c3a9                	beqz	a5,17d68 <_ZN18complex_no_dynamic3app17hea66859ed121c071E+0xbc>
   17d28:	4601                	li	a2,0
   17d2a:	4681                	li	a3,0
   17d2c:	4505                	li	a0,1
   17d2e:	6709                	lui	a4,0x2
   17d30:	87ae                	mv	a5,a1
   17d32:	458d                	li	a1,3
   17d34:	00a40023          	sb	a0,0(s0)
   17d38:	c05c                	sw	a5,4(s0)
   17d3a:	80e70793          	addi	a5,a4,-2034 # 180e <.Lline_table_start1+0x15e3>
   17d3e:	470d                	li	a4,3
   17d40:	853e                	mv	a0,a5
   17d42:	00000073          	ecall
   17d46:	4591                	li	a1,4
   17d48:	4711                	li	a4,4
   17d4a:	853e                	mv	a0,a5
   17d4c:	4601                	li	a2,0
   17d4e:	4681                	li	a3,0
   17d50:	00000073          	ecall
   17d54:	a8a9                	j	17dae <_ZN18complex_no_dynamic3app17hea66859ed121c071E+0x102>
   17d56:	853e                	mv	a0,a5
   17d58:	4601                	li	a2,0
   17d5a:	4681                	li	a3,0
   17d5c:	4781                	li	a5,0
   17d5e:	458d                	li	a1,3
   17d60:	470d                	li	a4,3
   17d62:	00000073          	ecall
   17d66:	f3e9                	bnez	a5,17d28 <_ZN18complex_no_dynamic3app17hea66859ed121c071E+0x7c>
   17d68:	6509                	lui	a0,0x2
   17d6a:	80e50493          	addi	s1,a0,-2034 # 180e <.Lline_table_start1+0x15e3>
   17d6e:	458d                	li	a1,3
   17d70:	470d                	li	a4,3
   17d72:	8526                	mv	a0,s1
   17d74:	4601                	li	a2,0
   17d76:	4681                	li	a3,0
   17d78:	00000073          	ecall
   17d7c:	00140513          	addi	a0,s0,1
   17d80:	186c                	addi	a1,sp,60
   17d82:	04800613          	li	a2,72
   17d86:	00005097          	auipc	ra,0x5
   17d8a:	faa080e7          	jalr	-86(ra) # 1cd30 <memcpy>
   17d8e:	8526                	mv	a0,s1
   17d90:	4601                	li	a2,0
   17d92:	4681                	li	a3,0
   17d94:	00040023          	sb	zero,0(s0)
   17d98:	458d                	li	a1,3
   17d9a:	470d                	li	a4,3
   17d9c:	00000073          	ecall
   17da0:	4591                	li	a1,4
   17da2:	4711                	li	a4,4
   17da4:	8526                	mv	a0,s1
   17da6:	4601                	li	a2,0
   17da8:	4681                	li	a3,0
   17daa:	00000073          	ecall
   17dae:	40ba                	lw	ra,140(sp)
   17db0:	442a                	lw	s0,136(sp)
   17db2:	449a                	lw	s1,132(sp)
   17db4:	6149                	addi	sp,sp,144
   17db6:	8082                	ret

00017db8 <_ZN18complex_no_dynamic3app17heb73403094300ac0E>:
   17db8:	7135                	addi	sp,sp,-160
   17dba:	cf06                	sw	ra,156(sp)
   17dbc:	cd22                	sw	s0,152(sp)
   17dbe:	cb26                	sw	s1,148(sp)
   17dc0:	842a                	mv	s0,a0
   17dc2:	00710513          	addi	a0,sp,7
   17dc6:	05300613          	li	a2,83
   17dca:	00005097          	auipc	ra,0x5
   17dce:	f66080e7          	jalr	-154(ra) # 1cd30 <memcpy>
   17dd2:	05a10513          	addi	a0,sp,90
   17dd6:	03a00613          	li	a2,58
   17dda:	4581                	li	a1,0
   17ddc:	00005097          	auipc	ra,0x5
   17de0:	ee8080e7          	jalr	-280(ra) # 1ccc4 <memset>
   17de4:	6509                	lui	a0,0x2
   17de6:	4599                	li	a1,6
   17de8:	00710613          	addi	a2,sp,7
   17dec:	05300693          	li	a3,83
   17df0:	64550793          	addi	a5,a0,1605 # 2645 <.Lline_table_start1+0x241a>
   17df4:	4711                	li	a4,4
   17df6:	4489                	li	s1,2
   17df8:	853e                	mv	a0,a5
   17dfa:	00000073          	ecall
   17dfe:	02950b63          	beq	a0,s1,17e34 <_ZN18complex_no_dynamic3app17heb73403094300ac0E+0x7c>
   17e02:	459d                	li	a1,7
   17e04:	05a10613          	addi	a2,sp,90
   17e08:	03a00693          	li	a3,58
   17e0c:	470d                	li	a4,3
   17e0e:	853e                	mv	a0,a5
   17e10:	00000073          	ecall
   17e14:	02950063          	beq	a0,s1,17e34 <_ZN18complex_no_dynamic3app17heb73403094300ac0E+0x7c>
   17e18:	6509                	lui	a0,0x2
   17e1a:	4599                	li	a1,6
   17e1c:	461d                	li	a2,7
   17e1e:	64550793          	addi	a5,a0,1605 # 2645 <.Lline_table_start1+0x241a>
   17e22:	4709                	li	a4,2
   17e24:	07f00493          	li	s1,127
   17e28:	853e                	mv	a0,a5
   17e2a:	4681                	li	a3,0
   17e2c:	00000073          	ecall
   17e30:	02a4eb63          	bltu	s1,a0,17e66 <_ZN18complex_no_dynamic3app17heb73403094300ac0E+0xae>
   17e34:	4785                	li	a5,1
   17e36:	c3a9                	beqz	a5,17e78 <_ZN18complex_no_dynamic3app17heb73403094300ac0E+0xc0>
   17e38:	4601                	li	a2,0
   17e3a:	4681                	li	a3,0
   17e3c:	4505                	li	a0,1
   17e3e:	6709                	lui	a4,0x2
   17e40:	87ae                	mv	a5,a1
   17e42:	459d                	li	a1,7
   17e44:	00a40023          	sb	a0,0(s0)
   17e48:	c05c                	sw	a5,4(s0)
   17e4a:	64570793          	addi	a5,a4,1605 # 2645 <.Lline_table_start1+0x241a>
   17e4e:	470d                	li	a4,3
   17e50:	853e                	mv	a0,a5
   17e52:	00000073          	ecall
   17e56:	4599                	li	a1,6
   17e58:	4711                	li	a4,4
   17e5a:	853e                	mv	a0,a5
   17e5c:	4601                	li	a2,0
   17e5e:	4681                	li	a3,0
   17e60:	00000073          	ecall
   17e64:	a8b1                	j	17ec0 <_ZN18complex_no_dynamic3app17heb73403094300ac0E+0x108>
   17e66:	853e                	mv	a0,a5
   17e68:	4601                	li	a2,0
   17e6a:	4681                	li	a3,0
   17e6c:	4781                	li	a5,0
   17e6e:	459d                	li	a1,7
   17e70:	470d                	li	a4,3
   17e72:	00000073          	ecall
   17e76:	f3e9                	bnez	a5,17e38 <_ZN18complex_no_dynamic3app17heb73403094300ac0E+0x80>
   17e78:	6509                	lui	a0,0x2
   17e7a:	64550493          	addi	s1,a0,1605 # 2645 <.Lline_table_start1+0x241a>
   17e7e:	459d                	li	a1,7
   17e80:	470d                	li	a4,3
   17e82:	8526                	mv	a0,s1
   17e84:	4601                	li	a2,0
   17e86:	4681                	li	a3,0
   17e88:	00000073          	ecall
   17e8c:	00140513          	addi	a0,s0,1
   17e90:	05a10593          	addi	a1,sp,90
   17e94:	03a00613          	li	a2,58
   17e98:	00005097          	auipc	ra,0x5
   17e9c:	e98080e7          	jalr	-360(ra) # 1cd30 <memcpy>
   17ea0:	8526                	mv	a0,s1
   17ea2:	4601                	li	a2,0
   17ea4:	4681                	li	a3,0
   17ea6:	00040023          	sb	zero,0(s0)
   17eaa:	459d                	li	a1,7
   17eac:	470d                	li	a4,3
   17eae:	00000073          	ecall
   17eb2:	4599                	li	a1,6
   17eb4:	4711                	li	a4,4
   17eb6:	8526                	mv	a0,s1
   17eb8:	4601                	li	a2,0
   17eba:	4681                	li	a3,0
   17ebc:	00000073          	ecall
   17ec0:	40fa                	lw	ra,156(sp)
   17ec2:	446a                	lw	s0,152(sp)
   17ec4:	44da                	lw	s1,148(sp)
   17ec6:	610d                	addi	sp,sp,160
   17ec8:	8082                	ret

00017eca <_ZN18complex_no_dynamic3app17hf51c25cd23f00545E>:
   17eca:	7159                	addi	sp,sp,-112
   17ecc:	d686                	sw	ra,108(sp)
   17ece:	d4a2                	sw	s0,104(sp)
   17ed0:	d2a6                	sw	s1,100(sp)
   17ed2:	d0ca                	sw	s2,96(sp)
   17ed4:	892a                	mv	s2,a0
   17ed6:	00710513          	addi	a0,sp,7
   17eda:	04100613          	li	a2,65
   17ede:	00005097          	auipc	ra,0x5
   17ee2:	e52080e7          	jalr	-430(ra) # 1cd30 <memcpy>
   17ee6:	cc82                	sw	zero,88(sp)
   17ee8:	ce82                	sw	zero,92(sp)
   17eea:	c482                	sw	zero,72(sp)
   17eec:	c682                	sw	zero,76(sp)
   17eee:	c882                	sw	zero,80(sp)
   17ef0:	ca82                	sw	zero,84(sp)
   17ef2:	6509                	lui	a0,0x2
   17ef4:	4585                	li	a1,1
   17ef6:	00710613          	addi	a2,sp,7
   17efa:	04100693          	li	a3,65
   17efe:	4711                	li	a4,4
   17f00:	15650793          	addi	a5,a0,342 # 2156 <.Lline_table_start1+0x1f2b>
   17f04:	4409                	li	s0,2
   17f06:	853e                	mv	a0,a5
   17f08:	00000073          	ecall
   17f0c:	4485                	li	s1,1
   17f0e:	04850463          	beq	a0,s0,17f56 <_ZN18complex_no_dynamic3app17hf51c25cd23f00545E+0x8c>
   17f12:	45a5                	li	a1,9
   17f14:	00b0                	addi	a2,sp,72
   17f16:	46e1                	li	a3,24
   17f18:	470d                	li	a4,3
   17f1a:	853e                	mv	a0,a5
   17f1c:	00000073          	ecall
   17f20:	00851463          	bne	a0,s0,17f28 <_ZN18complex_no_dynamic3app17hf51c25cd23f00545E+0x5e>
   17f24:	4485                	li	s1,1
   17f26:	a805                	j	17f56 <_ZN18complex_no_dynamic3app17hf51c25cd23f00545E+0x8c>
   17f28:	4681                	li	a3,0
   17f2a:	6509                	lui	a0,0x2
   17f2c:	4585                	li	a1,1
   17f2e:	4625                	li	a2,9
   17f30:	4709                	li	a4,2
   17f32:	15650793          	addi	a5,a0,342 # 2156 <.Lline_table_start1+0x1f2b>
   17f36:	07f00413          	li	s0,127
   17f3a:	853e                	mv	a0,a5
   17f3c:	00000073          	ecall
   17f40:	4485                	li	s1,1
   17f42:	00a47a63          	bgeu	s0,a0,17f56 <_ZN18complex_no_dynamic3app17hf51c25cd23f00545E+0x8c>
   17f46:	853e                	mv	a0,a5
   17f48:	4601                	li	a2,0
   17f4a:	4681                	li	a3,0
   17f4c:	4481                	li	s1,0
   17f4e:	45a5                	li	a1,9
   17f50:	470d                	li	a4,3
   17f52:	00000073          	ecall
   17f56:	c88d                	beqz	s1,17f88 <_ZN18complex_no_dynamic3app17hf51c25cd23f00545E+0xbe>
   17f58:	4601                	li	a2,0
   17f5a:	4681                	li	a3,0
   17f5c:	4505                	li	a0,1
   17f5e:	6709                	lui	a4,0x2
   17f60:	87ae                	mv	a5,a1
   17f62:	45a5                	li	a1,9
   17f64:	00a90023          	sb	a0,0(s2)
   17f68:	00f92223          	sw	a5,4(s2)
   17f6c:	15670793          	addi	a5,a4,342 # 2156 <.Lline_table_start1+0x1f2b>
   17f70:	470d                	li	a4,3
   17f72:	853e                	mv	a0,a5
   17f74:	00000073          	ecall
   17f78:	4585                	li	a1,1
   17f7a:	4711                	li	a4,4
   17f7c:	853e                	mv	a0,a5
   17f7e:	4601                	li	a2,0
   17f80:	4681                	li	a3,0
   17f82:	00000073          	ecall
   17f86:	a099                	j	17fcc <_ZN18complex_no_dynamic3app17hf51c25cd23f00545E+0x102>
   17f88:	6509                	lui	a0,0x2
   17f8a:	15650493          	addi	s1,a0,342 # 2156 <.Lline_table_start1+0x1f2b>
   17f8e:	45a5                	li	a1,9
   17f90:	470d                	li	a4,3
   17f92:	8526                	mv	a0,s1
   17f94:	4601                	li	a2,0
   17f96:	4681                	li	a3,0
   17f98:	00000073          	ecall
   17f9c:	00190513          	addi	a0,s2,1
   17fa0:	00ac                	addi	a1,sp,72
   17fa2:	4661                	li	a2,24
   17fa4:	00005097          	auipc	ra,0x5
   17fa8:	d8c080e7          	jalr	-628(ra) # 1cd30 <memcpy>
   17fac:	8526                	mv	a0,s1
   17fae:	4601                	li	a2,0
   17fb0:	4681                	li	a3,0
   17fb2:	00090023          	sb	zero,0(s2)
   17fb6:	45a5                	li	a1,9
   17fb8:	470d                	li	a4,3
   17fba:	00000073          	ecall
   17fbe:	4585                	li	a1,1
   17fc0:	4711                	li	a4,4
   17fc2:	8526                	mv	a0,s1
   17fc4:	4601                	li	a2,0
   17fc6:	4681                	li	a3,0
   17fc8:	00000073          	ecall
   17fcc:	50b6                	lw	ra,108(sp)
   17fce:	5426                	lw	s0,104(sp)
   17fd0:	5496                	lw	s1,100(sp)
   17fd2:	5906                	lw	s2,96(sp)
   17fd4:	6165                	addi	sp,sp,112
   17fd6:	8082                	ret

00017fd8 <_ZN18complex_no_dynamic3app17hf826399cf1740debE>:
   17fd8:	7119                	addi	sp,sp,-128
   17fda:	de86                	sw	ra,124(sp)
   17fdc:	dca2                	sw	s0,120(sp)
   17fde:	daa6                	sw	s1,116(sp)
   17fe0:	d8ca                	sw	s2,112(sp)
   17fe2:	892a                	mv	s2,a0
   17fe4:	0105c883          	lbu	a7,16(a1)
   17fe8:	0115c303          	lbu	t1,17(a1)
   17fec:	0125c803          	lbu	a6,18(a1)
   17ff0:	00c5c283          	lbu	t0,12(a1)
   17ff4:	00d5c783          	lbu	a5,13(a1)
   17ff8:	00e5c403          	lbu	s0,14(a1)
   17ffc:	00f5c483          	lbu	s1,15(a1)
   18000:	0085c503          	lbu	a0,8(a1)
   18004:	0095c603          	lbu	a2,9(a1)
   18008:	00a5c703          	lbu	a4,10(a1)
   1800c:	00b5c683          	lbu	a3,11(a1)
   18010:	0322                	slli	t1,t1,0x8
   18012:	07a2                	slli	a5,a5,0x8
   18014:	0442                	slli	s0,s0,0x10
   18016:	04e2                	slli	s1,s1,0x18
   18018:	0622                	slli	a2,a2,0x8
   1801a:	011368b3          	or	a7,t1,a7
   1801e:	0057e2b3          	or	t0,a5,t0
   18022:	8c45                	or	s0,s0,s1
   18024:	00a66333          	or	t1,a2,a0
   18028:	0045c603          	lbu	a2,4(a1)
   1802c:	0055c483          	lbu	s1,5(a1)
   18030:	0065c783          	lbu	a5,6(a1)
   18034:	0075c503          	lbu	a0,7(a1)
   18038:	0742                	slli	a4,a4,0x10
   1803a:	06e2                	slli	a3,a3,0x18
   1803c:	04a2                	slli	s1,s1,0x8
   1803e:	07c2                	slli	a5,a5,0x10
   18040:	0562                	slli	a0,a0,0x18
   18042:	8ed9                	or	a3,a3,a4
   18044:	8e45                	or	a2,a2,s1
   18046:	0005c703          	lbu	a4,0(a1)
   1804a:	0015c483          	lbu	s1,1(a1)
   1804e:	8d5d                	or	a0,a0,a5
   18050:	0025c783          	lbu	a5,2(a1)
   18054:	0035c583          	lbu	a1,3(a1)
   18058:	04a2                	slli	s1,s1,0x8
   1805a:	8f45                	or	a4,a4,s1
   1805c:	07c2                	slli	a5,a5,0x10
   1805e:	05e2                	slli	a1,a1,0x18
   18060:	8ddd                	or	a1,a1,a5
   18062:	01111c23          	sh	a7,24(sp)
   18066:	01010d23          	sb	a6,26(sp)
   1806a:	005467b3          	or	a5,s0,t0
   1806e:	0066e6b3          	or	a3,a3,t1
   18072:	8d51                	or	a0,a0,a2
   18074:	8dd9                	or	a1,a1,a4
   18076:	c42e                	sw	a1,8(sp)
   18078:	c62a                	sw	a0,12(sp)
   1807a:	c836                	sw	a3,16(sp)
   1807c:	ca3e                	sw	a5,20(sp)
   1807e:	01b10513          	addi	a0,sp,27
   18082:	05500613          	li	a2,85
   18086:	4581                	li	a1,0
   18088:	00005097          	auipc	ra,0x5
   1808c:	c3c080e7          	jalr	-964(ra) # 1ccc4 <memset>
   18090:	32e00513          	li	a0,814
   18094:	45a5                	li	a1,9
   18096:	0030                	addi	a2,sp,8
   18098:	46cd                	li	a3,19
   1809a:	4711                	li	a4,4
   1809c:	4789                	li	a5,2
   1809e:	00000073          	ecall
   180a2:	02f50a63          	beq	a0,a5,180d6 <_ZN18complex_no_dynamic3app17hf826399cf1740debE+0xfe>
   180a6:	32e00513          	li	a0,814
   180aa:	459d                	li	a1,7
   180ac:	01b10613          	addi	a2,sp,27
   180b0:	05500693          	li	a3,85
   180b4:	470d                	li	a4,3
   180b6:	00000073          	ecall
   180ba:	00f50e63          	beq	a0,a5,180d6 <_ZN18complex_no_dynamic3app17hf826399cf1740debE+0xfe>
   180be:	32e00513          	li	a0,814
   180c2:	45a5                	li	a1,9
   180c4:	461d                	li	a2,7
   180c6:	4709                	li	a4,2
   180c8:	07f00793          	li	a5,127
   180cc:	4681                	li	a3,0
   180ce:	00000073          	ecall
   180d2:	02a7ea63          	bltu	a5,a0,18106 <_ZN18complex_no_dynamic3app17hf826399cf1740debE+0x12e>
   180d6:	4785                	li	a5,1
   180d8:	c3a9                	beqz	a5,1811a <_ZN18complex_no_dynamic3app17hf826399cf1740debE+0x142>
   180da:	4601                	li	a2,0
   180dc:	4681                	li	a3,0
   180de:	4705                	li	a4,1
   180e0:	32e00513          	li	a0,814
   180e4:	00e90023          	sb	a4,0(s2)
   180e8:	00b92223          	sw	a1,4(s2)
   180ec:	459d                	li	a1,7
   180ee:	470d                	li	a4,3
   180f0:	00000073          	ecall
   180f4:	32e00513          	li	a0,814
   180f8:	45a5                	li	a1,9
   180fa:	4711                	li	a4,4
   180fc:	4601                	li	a2,0
   180fe:	4681                	li	a3,0
   18100:	00000073          	ecall
   18104:	a8b9                	j	18162 <_ZN18complex_no_dynamic3app17hf826399cf1740debE+0x18a>
   18106:	4601                	li	a2,0
   18108:	4681                	li	a3,0
   1810a:	4781                	li	a5,0
   1810c:	32e00513          	li	a0,814
   18110:	459d                	li	a1,7
   18112:	470d                	li	a4,3
   18114:	00000073          	ecall
   18118:	f3e9                	bnez	a5,180da <_ZN18complex_no_dynamic3app17hf826399cf1740debE+0x102>
   1811a:	32e00513          	li	a0,814
   1811e:	459d                	li	a1,7
   18120:	470d                	li	a4,3
   18122:	4601                	li	a2,0
   18124:	4681                	li	a3,0
   18126:	00000073          	ecall
   1812a:	00190513          	addi	a0,s2,1
   1812e:	01b10593          	addi	a1,sp,27
   18132:	05500613          	li	a2,85
   18136:	00005097          	auipc	ra,0x5
   1813a:	bfa080e7          	jalr	-1030(ra) # 1cd30 <memcpy>
   1813e:	4601                	li	a2,0
   18140:	4681                	li	a3,0
   18142:	00090023          	sb	zero,0(s2)
   18146:	32e00513          	li	a0,814
   1814a:	459d                	li	a1,7
   1814c:	470d                	li	a4,3
   1814e:	00000073          	ecall
   18152:	32e00513          	li	a0,814
   18156:	45a5                	li	a1,9
   18158:	4711                	li	a4,4
   1815a:	4601                	li	a2,0
   1815c:	4681                	li	a3,0
   1815e:	00000073          	ecall
   18162:	50f6                	lw	ra,124(sp)
   18164:	5466                	lw	s0,120(sp)
   18166:	54d6                	lw	s1,116(sp)
   18168:	5946                	lw	s2,112(sp)
   1816a:	6109                	addi	sp,sp,128
   1816c:	8082                	ret

0001816e <_ZN18complex_no_dynamic3app17hf87344b2377017f3E>:
   1816e:	7131                	addi	sp,sp,-192
   18170:	df06                	sw	ra,188(sp)
   18172:	dd22                	sw	s0,184(sp)
   18174:	842a                	mv	s0,a0
   18176:	0028                	addi	a0,sp,8
   18178:	04f00613          	li	a2,79
   1817c:	00005097          	auipc	ra,0x5
   18180:	bb4080e7          	jalr	-1100(ra) # 1cd30 <memcpy>
   18184:	05710513          	addi	a0,sp,87
   18188:	06100613          	li	a2,97
   1818c:	4581                	li	a1,0
   1818e:	00005097          	auipc	ra,0x5
   18192:	b36080e7          	jalr	-1226(ra) # 1ccc4 <memset>
   18196:	4789                	li	a5,2
   18198:	1b600513          	li	a0,438
   1819c:	4589                	li	a1,2
   1819e:	0030                	addi	a2,sp,8
   181a0:	04f00693          	li	a3,79
   181a4:	4711                	li	a4,4
   181a6:	00000073          	ecall
   181aa:	02f50a63          	beq	a0,a5,181de <_ZN18complex_no_dynamic3app17hf87344b2377017f3E+0x70>
   181ae:	1b600513          	li	a0,438
   181b2:	45a1                	li	a1,8
   181b4:	05710613          	addi	a2,sp,87
   181b8:	06100693          	li	a3,97
   181bc:	470d                	li	a4,3
   181be:	00000073          	ecall
   181c2:	00f50e63          	beq	a0,a5,181de <_ZN18complex_no_dynamic3app17hf87344b2377017f3E+0x70>
   181c6:	1b600513          	li	a0,438
   181ca:	4589                	li	a1,2
   181cc:	4621                	li	a2,8
   181ce:	4709                	li	a4,2
   181d0:	07f00793          	li	a5,127
   181d4:	4681                	li	a3,0
   181d6:	00000073          	ecall
   181da:	02a7e963          	bltu	a5,a0,1820c <_ZN18complex_no_dynamic3app17hf87344b2377017f3E+0x9e>
   181de:	4785                	li	a5,1
   181e0:	c3a1                	beqz	a5,18220 <_ZN18complex_no_dynamic3app17hf87344b2377017f3E+0xb2>
   181e2:	4601                	li	a2,0
   181e4:	4681                	li	a3,0
   181e6:	4705                	li	a4,1
   181e8:	1b600513          	li	a0,438
   181ec:	00e40023          	sb	a4,0(s0)
   181f0:	c04c                	sw	a1,4(s0)
   181f2:	45a1                	li	a1,8
   181f4:	470d                	li	a4,3
   181f6:	00000073          	ecall
   181fa:	1b600513          	li	a0,438
   181fe:	4589                	li	a1,2
   18200:	4711                	li	a4,4
   18202:	4601                	li	a2,0
   18204:	4681                	li	a3,0
   18206:	00000073          	ecall
   1820a:	a8b9                	j	18268 <_ZN18complex_no_dynamic3app17hf87344b2377017f3E+0xfa>
   1820c:	4601                	li	a2,0
   1820e:	4681                	li	a3,0
   18210:	4781                	li	a5,0
   18212:	1b600513          	li	a0,438
   18216:	45a1                	li	a1,8
   18218:	470d                	li	a4,3
   1821a:	00000073          	ecall
   1821e:	f3f1                	bnez	a5,181e2 <_ZN18complex_no_dynamic3app17hf87344b2377017f3E+0x74>
   18220:	1b600513          	li	a0,438
   18224:	45a1                	li	a1,8
   18226:	470d                	li	a4,3
   18228:	4601                	li	a2,0
   1822a:	4681                	li	a3,0
   1822c:	00000073          	ecall
   18230:	00140513          	addi	a0,s0,1
   18234:	05710593          	addi	a1,sp,87
   18238:	06100613          	li	a2,97
   1823c:	00005097          	auipc	ra,0x5
   18240:	af4080e7          	jalr	-1292(ra) # 1cd30 <memcpy>
   18244:	4601                	li	a2,0
   18246:	4681                	li	a3,0
   18248:	00040023          	sb	zero,0(s0)
   1824c:	1b600513          	li	a0,438
   18250:	45a1                	li	a1,8
   18252:	470d                	li	a4,3
   18254:	00000073          	ecall
   18258:	1b600513          	li	a0,438
   1825c:	4589                	li	a1,2
   1825e:	4711                	li	a4,4
   18260:	4601                	li	a2,0
   18262:	4681                	li	a3,0
   18264:	00000073          	ecall
   18268:	50fa                	lw	ra,188(sp)
   1826a:	546a                	lw	s0,184(sp)
   1826c:	6129                	addi	sp,sp,192
   1826e:	8082                	ret

00018270 <_start>:
   18270:	81010113          	addi	sp,sp,-2032
   18274:	7e112623          	sw	ra,2028(sp)
   18278:	7e812423          	sw	s0,2024(sp)
   1827c:	7e912223          	sw	s1,2020(sp)
   18280:	7f212023          	sw	s2,2016(sp)
   18284:	7d312e23          	sw	s3,2012(sp)
   18288:	7d412c23          	sw	s4,2008(sp)
   1828c:	7d512a23          	sw	s5,2004(sp)
   18290:	7d612823          	sw	s6,2000(sp)
   18294:	7d712623          	sw	s7,1996(sp)
   18298:	7d812423          	sw	s8,1992(sp)
   1829c:	7d912223          	sw	s9,1988(sp)
   182a0:	7da12023          	sw	s10,1984(sp)
   182a4:	7bb12e23          	sw	s11,1980(sp)
   182a8:	80010113          	addi	sp,sp,-2048
   182ac:	b0010113          	addi	sp,sp,-1280
   182b0:	1888                	addi	a0,sp,112
   182b2:	02800613          	li	a2,40
   182b6:	4581                	li	a1,0
   182b8:	00005097          	auipc	ra,0x5
   182bc:	a0c080e7          	jalr	-1524(ra) # 1ccc4 <memset>
   182c0:	6505                	lui	a0,0x1
   182c2:	39c50513          	addi	a0,a0,924 # 139c <.Lline_table_start1+0x1171>
   182c6:	950a                	add	a0,a0,sp
   182c8:	05100613          	li	a2,81
   182cc:	4581                	li	a1,0
   182ce:	00005097          	auipc	ra,0x5
   182d2:	9f6080e7          	jalr	-1546(ra) # 1ccc4 <memset>
   182d6:	6789                	lui	a5,0x2
   182d8:	45a5                	li	a1,9
   182da:	1890                	addi	a2,sp,112
   182dc:	02800693          	li	a3,40
   182e0:	0799                	addi	a5,a5,6 # 2006 <.Lline_table_start1+0x1ddb>
   182e2:	4711                	li	a4,4
   182e4:	4489                	li	s1,2
   182e6:	853e                	mv	a0,a5
   182e8:	00000073          	ecall
   182ec:	02950d63          	beq	a0,s1,18326 <_start+0xb6>
   182f0:	45a5                	li	a1,9
   182f2:	6505                	lui	a0,0x1
   182f4:	39c50513          	addi	a0,a0,924 # 139c <.Lline_table_start1+0x1171>
   182f8:	00a10633          	add	a2,sp,a0
   182fc:	05100693          	li	a3,81
   18300:	470d                	li	a4,3
   18302:	853e                	mv	a0,a5
   18304:	00000073          	ecall
   18308:	00950f63          	beq	a0,s1,18326 <_start+0xb6>
   1830c:	6789                	lui	a5,0x2
   1830e:	45a5                	li	a1,9
   18310:	4625                	li	a2,9
   18312:	0799                	addi	a5,a5,6 # 2006 <.Lline_table_start1+0x1ddb>
   18314:	4709                	li	a4,2
   18316:	07f00493          	li	s1,127
   1831a:	853e                	mv	a0,a5
   1831c:	4681                	li	a3,0
   1831e:	00000073          	ecall
   18322:	30a4e463          	bltu	s1,a0,1862a <_start+0x3ba>
   18326:	89ae                	mv	s3,a1
   18328:	4405                	li	s0,1
   1832a:	6489                	lui	s1,0x2
   1832c:	0499                	addi	s1,s1,6 # 2006 <.Lline_table_start1+0x1ddb>
   1832e:	45a5                	li	a1,9
   18330:	470d                	li	a4,3
   18332:	8526                	mv	a0,s1
   18334:	4601                	li	a2,0
   18336:	4681                	li	a3,0
   18338:	00000073          	ecall
   1833c:	7ff10913          	addi	s2,sp,2047
   18340:	7b190913          	addi	s2,s2,1969
   18344:	c819                	beqz	s0,1835a <_start+0xea>
   18346:	45a5                	li	a1,9
   18348:	4711                	li	a4,4
   1834a:	8526                	mv	a0,s1
   1834c:	4601                	li	a2,0
   1834e:	4681                	li	a3,0
   18350:	00000073          	ecall
   18354:	c83d                	beqz	s0,183ca <_start+0x15a>
   18356:	0bf0406f          	j	1cc14 <_start+0x49a4>
   1835a:	3ed94503          	lbu	a0,1005(s2)
   1835e:	3ec94583          	lbu	a1,1004(s2)
   18362:	3ee94603          	lbu	a2,1006(s2)
   18366:	3ef94683          	lbu	a3,1007(s2)
   1836a:	0522                	slli	a0,a0,0x8
   1836c:	3f094703          	lbu	a4,1008(s2)
   18370:	8d4d                	or	a0,a0,a1
   18372:	3f194583          	lbu	a1,1009(s2)
   18376:	3f294783          	lbu	a5,1010(s2)
   1837a:	0722                	slli	a4,a4,0x8
   1837c:	8ed9                	or	a3,a3,a4
   1837e:	05c2                	slli	a1,a1,0x10
   18380:	07e2                	slli	a5,a5,0x18
   18382:	8ddd                	or	a1,a1,a5
   18384:	0aa11823          	sh	a0,176(sp)
   18388:	0ac10923          	sb	a2,178(sp)
   1838c:	00d5e9b3          	or	s3,a1,a3
   18390:	6505                	lui	a0,0x1
   18392:	3a350513          	addi	a0,a0,931 # 13a3 <.Lline_table_start1+0x1178>
   18396:	00a105b3          	add	a1,sp,a0
   1839a:	1048                	addi	a0,sp,36
   1839c:	04a00613          	li	a2,74
   183a0:	00005097          	auipc	ra,0x5
   183a4:	990080e7          	jalr	-1648(ra) # 1cd30 <memcpy>
   183a8:	8526                	mv	a0,s1
   183aa:	4601                	li	a2,0
   183ac:	4681                	li	a3,0
   183ae:	45a5                	li	a1,9
   183b0:	470d                	li	a4,3
   183b2:	00000073          	ecall
   183b6:	45a5                	li	a1,9
   183b8:	4711                	li	a4,4
   183ba:	8526                	mv	a0,s1
   183bc:	4601                	li	a2,0
   183be:	4681                	li	a3,0
   183c0:	00000073          	ecall
   183c4:	c019                	beqz	s0,183ca <_start+0x15a>
   183c6:	04f0406f          	j	1cc14 <_start+0x49a4>
   183ca:	0b011503          	lh	a0,176(sp)
   183ce:	0b214583          	lbu	a1,178(sp)
   183d2:	3ea91623          	sh	a0,1004(s2)
   183d6:	3eb90723          	sb	a1,1006(s2)
   183da:	6505                	lui	a0,0x1
   183dc:	34050513          	addi	a0,a0,832 # 1340 <.Lline_table_start1+0x1115>
   183e0:	950a                	add	a0,a0,sp
   183e2:	104c                	addi	a1,sp,36
   183e4:	04a00613          	li	a2,74
   183e8:	00005097          	auipc	ra,0x5
   183ec:	948080e7          	jalr	-1720(ra) # 1cd30 <memcpy>
   183f0:	6505                	lui	a0,0x1
   183f2:	3a350513          	addi	a0,a0,931 # 13a3 <.Lline_table_start1+0x1178>
   183f6:	950a                	add	a0,a0,sp
   183f8:	6585                	lui	a1,0x1
   183fa:	34058593          	addi	a1,a1,832 # 1340 <.Lline_table_start1+0x1115>
   183fe:	958a                	add	a1,a1,sp
   18400:	04a00613          	li	a2,74
   18404:	00005097          	auipc	ra,0x5
   18408:	92c080e7          	jalr	-1748(ra) # 1cd30 <memcpy>
   1840c:	0189d513          	srli	a0,s3,0x18
   18410:	0109d593          	srli	a1,s3,0x10
   18414:	0089d613          	srli	a2,s3,0x8
   18418:	3f3907a3          	sb	s3,1007(s2)
   1841c:	3ec90823          	sb	a2,1008(s2)
   18420:	3eb908a3          	sb	a1,1009(s2)
   18424:	3ea90923          	sb	a0,1010(s2)
   18428:	6505                	lui	a0,0x1
   1842a:	34050513          	addi	a0,a0,832 # 1340 <.Lline_table_start1+0x1115>
   1842e:	950a                	add	a0,a0,sp
   18430:	04600613          	li	a2,70
   18434:	4581                	li	a1,0
   18436:	00005097          	auipc	ra,0x5
   1843a:	88e080e7          	jalr	-1906(ra) # 1ccc4 <memset>
   1843e:	6509                	lui	a0,0x2
   18440:	459d                	li	a1,7
   18442:	6605                	lui	a2,0x1
   18444:	39c60613          	addi	a2,a2,924 # 139c <.Lline_table_start1+0x1171>
   18448:	960a                	add	a2,a2,sp
   1844a:	05100693          	li	a3,81
   1844e:	0c450793          	addi	a5,a0,196 # 20c4 <.Lline_table_start1+0x1e99>
   18452:	4711                	li	a4,4
   18454:	4489                	li	s1,2
   18456:	853e                	mv	a0,a5
   18458:	00000073          	ecall
   1845c:	02950e63          	beq	a0,s1,18498 <_start+0x228>
   18460:	6505                	lui	a0,0x1
   18462:	34050513          	addi	a0,a0,832 # 1340 <.Lline_table_start1+0x1115>
   18466:	00a10633          	add	a2,sp,a0
   1846a:	04600693          	li	a3,70
   1846e:	470d                	li	a4,3
   18470:	853e                	mv	a0,a5
   18472:	4581                	li	a1,0
   18474:	00000073          	ecall
   18478:	02950063          	beq	a0,s1,18498 <_start+0x228>
   1847c:	6509                	lui	a0,0x2
   1847e:	459d                	li	a1,7
   18480:	0c450793          	addi	a5,a0,196 # 20c4 <.Lline_table_start1+0x1e99>
   18484:	4709                	li	a4,2
   18486:	07f00493          	li	s1,127
   1848a:	853e                	mv	a0,a5
   1848c:	4601                	li	a2,0
   1848e:	4681                	li	a3,0
   18490:	00000073          	ecall
   18494:	36a4e863          	bltu	s1,a0,18804 <_start+0x594>
   18498:	89ae                	mv	s3,a1
   1849a:	4405                	li	s0,1
   1849c:	6509                	lui	a0,0x2
   1849e:	0c450493          	addi	s1,a0,196 # 20c4 <.Lline_table_start1+0x1e99>
   184a2:	470d                	li	a4,3
   184a4:	8526                	mv	a0,s1
   184a6:	4581                	li	a1,0
   184a8:	4601                	li	a2,0
   184aa:	4681                	li	a3,0
   184ac:	00000073          	ecall
   184b0:	c819                	beqz	s0,184c6 <_start+0x256>
   184b2:	459d                	li	a1,7
   184b4:	4711                	li	a4,4
   184b6:	8526                	mv	a0,s1
   184b8:	4601                	li	a2,0
   184ba:	4681                	li	a3,0
   184bc:	00000073          	ecall
   184c0:	c83d                	beqz	s0,18536 <_start+0x2c6>
   184c2:	7520406f          	j	1cc14 <_start+0x49a4>
   184c6:	39194503          	lbu	a0,913(s2)
   184ca:	39094583          	lbu	a1,912(s2)
   184ce:	39294603          	lbu	a2,914(s2)
   184d2:	39394683          	lbu	a3,915(s2)
   184d6:	0522                	slli	a0,a0,0x8
   184d8:	39494703          	lbu	a4,916(s2)
   184dc:	8d4d                	or	a0,a0,a1
   184de:	39594583          	lbu	a1,917(s2)
   184e2:	39694783          	lbu	a5,918(s2)
   184e6:	0722                	slli	a4,a4,0x8
   184e8:	8ed9                	or	a3,a3,a4
   184ea:	05c2                	slli	a1,a1,0x10
   184ec:	07e2                	slli	a5,a5,0x18
   184ee:	8ddd                	or	a1,a1,a5
   184f0:	0aa11823          	sh	a0,176(sp)
   184f4:	0ac10923          	sb	a2,178(sp)
   184f8:	00d5e9b3          	or	s3,a1,a3
   184fc:	6505                	lui	a0,0x1
   184fe:	34750513          	addi	a0,a0,839 # 1347 <.Lline_table_start1+0x111c>
   18502:	00a105b3          	add	a1,sp,a0
   18506:	1888                	addi	a0,sp,112
   18508:	03f00613          	li	a2,63
   1850c:	00005097          	auipc	ra,0x5
   18510:	824080e7          	jalr	-2012(ra) # 1cd30 <memcpy>
   18514:	8526                	mv	a0,s1
   18516:	4581                	li	a1,0
   18518:	4601                	li	a2,0
   1851a:	4681                	li	a3,0
   1851c:	470d                	li	a4,3
   1851e:	00000073          	ecall
   18522:	459d                	li	a1,7
   18524:	4711                	li	a4,4
   18526:	8526                	mv	a0,s1
   18528:	4601                	li	a2,0
   1852a:	4681                	li	a3,0
   1852c:	00000073          	ecall
   18530:	c019                	beqz	s0,18536 <_start+0x2c6>
   18532:	6e20406f          	j	1cc14 <_start+0x49a4>
   18536:	0b011503          	lh	a0,176(sp)
   1853a:	0b214583          	lbu	a1,178(sp)
   1853e:	3ea91623          	sh	a0,1004(s2)
   18542:	3eb90723          	sb	a1,1006(s2)
   18546:	1048                	addi	a0,sp,36
   18548:	188c                	addi	a1,sp,112
   1854a:	03f00613          	li	a2,63
   1854e:	00004097          	auipc	ra,0x4
   18552:	7e2080e7          	jalr	2018(ra) # 1cd30 <memcpy>
   18556:	6505                	lui	a0,0x1
   18558:	3a350513          	addi	a0,a0,931 # 13a3 <.Lline_table_start1+0x1178>
   1855c:	950a                	add	a0,a0,sp
   1855e:	104c                	addi	a1,sp,36
   18560:	03f00613          	li	a2,63
   18564:	00004097          	auipc	ra,0x4
   18568:	7cc080e7          	jalr	1996(ra) # 1cd30 <memcpy>
   1856c:	0189d513          	srli	a0,s3,0x18
   18570:	0109d713          	srli	a4,s3,0x10
   18574:	0089d793          	srli	a5,s3,0x8
   18578:	3a092023          	sw	zero,928(s2)
   1857c:	3a092223          	sw	zero,932(s2)
   18580:	38092823          	sw	zero,912(s2)
   18584:	38092a23          	sw	zero,916(s2)
   18588:	38092c23          	sw	zero,920(s2)
   1858c:	38092e23          	sw	zero,924(s2)
   18590:	6489                	lui	s1,0x2
   18592:	458d                	li	a1,3
   18594:	6605                	lui	a2,0x1
   18596:	39c60613          	addi	a2,a2,924 # 139c <.Lline_table_start1+0x1171>
   1859a:	960a                	add	a2,a2,sp
   1859c:	04600693          	li	a3,70
   185a0:	3f3907a3          	sb	s3,1007(s2)
   185a4:	3ef90823          	sb	a5,1008(s2)
   185a8:	3ee908a3          	sb	a4,1009(s2)
   185ac:	3ea90923          	sb	a0,1010(s2)
   185b0:	3cf48793          	addi	a5,s1,975 # 23cf <.Lline_table_start1+0x21a4>
   185b4:	4711                	li	a4,4
   185b6:	4489                	li	s1,2
   185b8:	853e                	mv	a0,a5
   185ba:	00000073          	ecall
   185be:	02950d63          	beq	a0,s1,185f8 <_start+0x388>
   185c2:	4589                	li	a1,2
   185c4:	6505                	lui	a0,0x1
   185c6:	34050513          	addi	a0,a0,832 # 1340 <.Lline_table_start1+0x1115>
   185ca:	00a10633          	add	a2,sp,a0
   185ce:	46e1                	li	a3,24
   185d0:	470d                	li	a4,3
   185d2:	853e                	mv	a0,a5
   185d4:	00000073          	ecall
   185d8:	02950063          	beq	a0,s1,185f8 <_start+0x388>
   185dc:	6509                	lui	a0,0x2
   185de:	458d                	li	a1,3
   185e0:	4609                	li	a2,2
   185e2:	3cf50793          	addi	a5,a0,975 # 23cf <.Lline_table_start1+0x21a4>
   185e6:	4709                	li	a4,2
   185e8:	07f00493          	li	s1,127
   185ec:	853e                	mv	a0,a5
   185ee:	4681                	li	a3,0
   185f0:	00000073          	ecall
   185f4:	38a4eb63          	bltu	s1,a0,1898a <_start+0x71a>
   185f8:	89ae                	mv	s3,a1
   185fa:	4e85                	li	t4,1
   185fc:	6509                	lui	a0,0x2
   185fe:	3cf50a13          	addi	s4,a0,975 # 23cf <.Lline_table_start1+0x21a4>
   18602:	4589                	li	a1,2
   18604:	470d                	li	a4,3
   18606:	8552                	mv	a0,s4
   18608:	4601                	li	a2,0
   1860a:	4681                	li	a3,0
   1860c:	00000073          	ecall
   18610:	020e8663          	beqz	t4,1863c <_start+0x3cc>
   18614:	458d                	li	a1,3
   18616:	4711                	li	a4,4
   18618:	8552                	mv	a0,s4
   1861a:	4601                	li	a2,0
   1861c:	4681                	li	a3,0
   1861e:	00000073          	ecall
   18622:	100e8163          	beqz	t4,18724 <_start+0x4b4>
   18626:	5ee0406f          	j	1cc14 <_start+0x49a4>
   1862a:	853e                	mv	a0,a5
   1862c:	4601                	li	a2,0
   1862e:	4681                	li	a3,0
   18630:	4401                	li	s0,0
   18632:	45a5                	li	a1,9
   18634:	470d                	li	a4,3
   18636:	00000073          	ecall
   1863a:	b9c5                	j	1832a <_start+0xba>
   1863c:	8552                	mv	a0,s4
   1863e:	4601                	li	a2,0
   18640:	4681                	li	a3,0
   18642:	39091e03          	lh	t3,912(s2)
   18646:	39294383          	lbu	t2,914(s2)
   1864a:	39394803          	lbu	a6,915(s2)
   1864e:	39494883          	lbu	a7,916(s2)
   18652:	3a594f03          	lbu	t5,933(s2)
   18656:	3a694f83          	lbu	t6,934(s2)
   1865a:	3a794703          	lbu	a4,935(s2)
   1865e:	39594303          	lbu	t1,917(s2)
   18662:	39694283          	lbu	t0,918(s2)
   18666:	39794483          	lbu	s1,919(s2)
   1866a:	39894403          	lbu	s0,920(s2)
   1866e:	39994a83          	lbu	s5,921(s2)
   18672:	39a94b03          	lbu	s6,922(s2)
   18676:	39b94983          	lbu	s3,923(s2)
   1867a:	39c94583          	lbu	a1,924(s2)
   1867e:	0dc11223          	sh	t3,196(sp)
   18682:	0c710323          	sb	t2,198(sp)
   18686:	0ce10023          	sb	a4,192(sp)
   1868a:	0422                	slli	s0,s0,0x8
   1868c:	009463b3          	or	t2,s0,s1
   18690:	39d94703          	lbu	a4,925(s2)
   18694:	39e94483          	lbu	s1,926(s2)
   18698:	39f94403          	lbu	s0,927(s2)
   1869c:	3a094783          	lbu	a5,928(s2)
   186a0:	0ac2                	slli	s5,s5,0x10
   186a2:	0b62                	slli	s6,s6,0x18
   186a4:	05a2                	slli	a1,a1,0x8
   186a6:	0742                	slli	a4,a4,0x10
   186a8:	04e2                	slli	s1,s1,0x18
   186aa:	07a2                	slli	a5,a5,0x8
   186ac:	015b6e33          	or	t3,s6,s5
   186b0:	0135e9b3          	or	s3,a1,s3
   186b4:	00e4eab3          	or	s5,s1,a4
   186b8:	0087eb33          	or	s6,a5,s0
   186bc:	3a194403          	lbu	s0,929(s2)
   186c0:	3a294483          	lbu	s1,930(s2)
   186c4:	3a394583          	lbu	a1,931(s2)
   186c8:	3a494703          	lbu	a4,932(s2)
   186cc:	0442                	slli	s0,s0,0x10
   186ce:	04e2                	slli	s1,s1,0x18
   186d0:	8c45                	or	s0,s0,s1
   186d2:	0722                	slli	a4,a4,0x8
   186d4:	8dd9                	or	a1,a1,a4
   186d6:	0f42                	slli	t5,t5,0x10
   186d8:	0fe2                	slli	t6,t6,0x18
   186da:	01efe733          	or	a4,t6,t5
   186de:	007e64b3          	or	s1,t3,t2
   186e2:	013ae7b3          	or	a5,s5,s3
   186e6:	01646433          	or	s0,s0,s6
   186ea:	8f4d                	or	a4,a4,a1
   186ec:	4589                	li	a1,2
   186ee:	d926                	sw	s1,176(sp)
   186f0:	db3e                	sw	a5,180(sp)
   186f2:	dd22                	sw	s0,184(sp)
   186f4:	df3a                	sw	a4,188(sp)
   186f6:	470d                	li	a4,3
   186f8:	00000073          	ecall
   186fc:	4711                	li	a4,4
   186fe:	458d                	li	a1,3
   18700:	8552                	mv	a0,s4
   18702:	4601                	li	a2,0
   18704:	4681                	li	a3,0
   18706:	00000073          	ecall
   1870a:	08a2                	slli	a7,a7,0x8
   1870c:	0108e533          	or	a0,a7,a6
   18710:	0342                	slli	t1,t1,0x10
   18712:	02e2                	slli	t0,t0,0x18
   18714:	0062e5b3          	or	a1,t0,t1
   18718:	00a5e9b3          	or	s3,a1,a0
   1871c:	000e8463          	beqz	t4,18724 <_start+0x4b4>
   18720:	4f40406f          	j	1cc14 <_start+0x49a4>
   18724:	0c411503          	lh	a0,196(sp)
   18728:	0c614583          	lbu	a1,198(sp)
   1872c:	564a                	lw	a2,176(sp)
   1872e:	56da                	lw	a3,180(sp)
   18730:	576a                	lw	a4,184(sp)
   18732:	57fa                	lw	a5,188(sp)
   18734:	06a11823          	sh	a0,112(sp)
   18738:	06b10923          	sb	a1,114(sp)
   1873c:	0c014503          	lbu	a0,192(sp)
   18740:	d232                	sw	a2,36(sp)
   18742:	d436                	sw	a3,40(sp)
   18744:	d63a                	sw	a4,44(sp)
   18746:	d83e                	sw	a5,48(sp)
   18748:	02a10a23          	sb	a0,52(sp)
   1874c:	07710513          	addi	a0,sp,119
   18750:	104c                	addi	a1,sp,36
   18752:	4645                	li	a2,17
   18754:	00004097          	auipc	ra,0x4
   18758:	5dc080e7          	jalr	1500(ra) # 1cd30 <memcpy>
   1875c:	0189d513          	srli	a0,s3,0x18
   18760:	0109d593          	srli	a1,s3,0x10
   18764:	0089d613          	srli	a2,s3,0x8
   18768:	073109a3          	sb	s3,115(sp)
   1876c:	06c10a23          	sb	a2,116(sp)
   18770:	06b10aa3          	sb	a1,117(sp)
   18774:	06a10b23          	sb	a0,118(sp)
   18778:	6505                	lui	a0,0x1
   1877a:	39c50513          	addi	a0,a0,924 # 139c <.Lline_table_start1+0x1171>
   1877e:	950a                	add	a0,a0,sp
   18780:	03600613          	li	a2,54
   18784:	4581                	li	a1,0
   18786:	00004097          	auipc	ra,0x4
   1878a:	53e080e7          	jalr	1342(ra) # 1ccc4 <memset>
   1878e:	21f00513          	li	a0,543
   18792:	1890                	addi	a2,sp,112
   18794:	46e1                	li	a3,24
   18796:	4711                	li	a4,4
   18798:	4789                	li	a5,2
   1879a:	4581                	li	a1,0
   1879c:	00000073          	ecall
   187a0:	02f50c63          	beq	a0,a5,187d8 <_start+0x568>
   187a4:	21f00513          	li	a0,543
   187a8:	459d                	li	a1,7
   187aa:	6605                	lui	a2,0x1
   187ac:	39c60613          	addi	a2,a2,924 # 139c <.Lline_table_start1+0x1171>
   187b0:	960a                	add	a2,a2,sp
   187b2:	03600693          	li	a3,54
   187b6:	470d                	li	a4,3
   187b8:	00000073          	ecall
   187bc:	00f50e63          	beq	a0,a5,187d8 <_start+0x568>
   187c0:	21f00513          	li	a0,543
   187c4:	461d                	li	a2,7
   187c6:	4709                	li	a4,2
   187c8:	07f00793          	li	a5,127
   187cc:	4581                	li	a1,0
   187ce:	4681                	li	a3,0
   187d0:	00000073          	ecall
   187d4:	42a7eb63          	bltu	a5,a0,18c0a <_start+0x99a>
   187d8:	89ae                	mv	s3,a1
   187da:	4405                	li	s0,1
   187dc:	21f00513          	li	a0,543
   187e0:	459d                	li	a1,7
   187e2:	470d                	li	a4,3
   187e4:	4601                	li	a2,0
   187e6:	4681                	li	a3,0
   187e8:	00000073          	ecall
   187ec:	c40d                	beqz	s0,18816 <_start+0x5a6>
   187ee:	21f00513          	li	a0,543
   187f2:	4711                	li	a4,4
   187f4:	4581                	li	a1,0
   187f6:	4601                	li	a2,0
   187f8:	4681                	li	a3,0
   187fa:	00000073          	ecall
   187fe:	c451                	beqz	s0,1888a <_start+0x61a>
   18800:	4140406f          	j	1cc14 <_start+0x49a4>
   18804:	853e                	mv	a0,a5
   18806:	4581                	li	a1,0
   18808:	4601                	li	a2,0
   1880a:	4681                	li	a3,0
   1880c:	4401                	li	s0,0
   1880e:	470d                	li	a4,3
   18810:	00000073          	ecall
   18814:	b161                	j	1849c <_start+0x22c>
   18816:	3ed94503          	lbu	a0,1005(s2)
   1881a:	3ec94583          	lbu	a1,1004(s2)
   1881e:	3ee94603          	lbu	a2,1006(s2)
   18822:	3ef94683          	lbu	a3,1007(s2)
   18826:	0522                	slli	a0,a0,0x8
   18828:	3f094703          	lbu	a4,1008(s2)
   1882c:	8d4d                	or	a0,a0,a1
   1882e:	3f194583          	lbu	a1,1009(s2)
   18832:	3f294783          	lbu	a5,1010(s2)
   18836:	0722                	slli	a4,a4,0x8
   18838:	8ed9                	or	a3,a3,a4
   1883a:	05c2                	slli	a1,a1,0x10
   1883c:	07e2                	slli	a5,a5,0x18
   1883e:	8ddd                	or	a1,a1,a5
   18840:	0aa11823          	sh	a0,176(sp)
   18844:	0ac10923          	sb	a2,178(sp)
   18848:	00d5e9b3          	or	s3,a1,a3
   1884c:	6505                	lui	a0,0x1
   1884e:	3a350513          	addi	a0,a0,931 # 13a3 <.Lline_table_start1+0x1178>
   18852:	00a105b3          	add	a1,sp,a0
   18856:	1048                	addi	a0,sp,36
   18858:	02f00613          	li	a2,47
   1885c:	00004097          	auipc	ra,0x4
   18860:	4d4080e7          	jalr	1236(ra) # 1cd30 <memcpy>
   18864:	4601                	li	a2,0
   18866:	4681                	li	a3,0
   18868:	21f00513          	li	a0,543
   1886c:	459d                	li	a1,7
   1886e:	470d                	li	a4,3
   18870:	00000073          	ecall
   18874:	21f00513          	li	a0,543
   18878:	4711                	li	a4,4
   1887a:	4581                	li	a1,0
   1887c:	4601                	li	a2,0
   1887e:	4681                	li	a3,0
   18880:	00000073          	ecall
   18884:	c019                	beqz	s0,1888a <_start+0x61a>
   18886:	38e0406f          	j	1cc14 <_start+0x49a4>
   1888a:	0b011503          	lh	a0,176(sp)
   1888e:	0b214583          	lbu	a1,178(sp)
   18892:	3ea91623          	sh	a0,1004(s2)
   18896:	3eb90723          	sb	a1,1006(s2)
   1889a:	6505                	lui	a0,0x1
   1889c:	34050513          	addi	a0,a0,832 # 1340 <.Lline_table_start1+0x1115>
   188a0:	950a                	add	a0,a0,sp
   188a2:	104c                	addi	a1,sp,36
   188a4:	02f00613          	li	a2,47
   188a8:	00004097          	auipc	ra,0x4
   188ac:	488080e7          	jalr	1160(ra) # 1cd30 <memcpy>
   188b0:	6505                	lui	a0,0x1
   188b2:	3a350513          	addi	a0,a0,931 # 13a3 <.Lline_table_start1+0x1178>
   188b6:	950a                	add	a0,a0,sp
   188b8:	6585                	lui	a1,0x1
   188ba:	34058593          	addi	a1,a1,832 # 1340 <.Lline_table_start1+0x1115>
   188be:	958a                	add	a1,a1,sp
   188c0:	02f00613          	li	a2,47
   188c4:	00004097          	auipc	ra,0x4
   188c8:	46c080e7          	jalr	1132(ra) # 1cd30 <memcpy>
   188cc:	0189d513          	srli	a0,s3,0x18
   188d0:	0109d593          	srli	a1,s3,0x10
   188d4:	0089d613          	srli	a2,s3,0x8
   188d8:	3f3907a3          	sb	s3,1007(s2)
   188dc:	3ec90823          	sb	a2,1008(s2)
   188e0:	3eb908a3          	sb	a1,1009(s2)
   188e4:	3ea90923          	sb	a0,1010(s2)
   188e8:	6505                	lui	a0,0x1
   188ea:	34050513          	addi	a0,a0,832 # 1340 <.Lline_table_start1+0x1115>
   188ee:	950a                	add	a0,a0,sp
   188f0:	02500613          	li	a2,37
   188f4:	4581                	li	a1,0
   188f6:	00004097          	auipc	ra,0x4
   188fa:	3ce080e7          	jalr	974(ra) # 1ccc4 <memset>
   188fe:	6505                	lui	a0,0x1
   18900:	459d                	li	a1,7
   18902:	6605                	lui	a2,0x1
   18904:	39c60613          	addi	a2,a2,924 # 139c <.Lline_table_start1+0x1171>
   18908:	960a                	add	a2,a2,sp
   1890a:	03600693          	li	a3,54
   1890e:	59750793          	addi	a5,a0,1431 # 1597 <.Lline_table_start1+0x136c>
   18912:	4711                	li	a4,4
   18914:	4489                	li	s1,2
   18916:	853e                	mv	a0,a5
   18918:	00000073          	ecall
   1891c:	02950e63          	beq	a0,s1,18958 <_start+0x6e8>
   18920:	6505                	lui	a0,0x1
   18922:	34050513          	addi	a0,a0,832 # 1340 <.Lline_table_start1+0x1115>
   18926:	00a10633          	add	a2,sp,a0
   1892a:	02500693          	li	a3,37
   1892e:	470d                	li	a4,3
   18930:	853e                	mv	a0,a5
   18932:	4581                	li	a1,0
   18934:	00000073          	ecall
   18938:	02950063          	beq	a0,s1,18958 <_start+0x6e8>
   1893c:	6505                	lui	a0,0x1
   1893e:	459d                	li	a1,7
   18940:	59750793          	addi	a5,a0,1431 # 1597 <.Lline_table_start1+0x136c>
   18944:	4709                	li	a4,2
   18946:	07f00493          	li	s1,127
   1894a:	853e                	mv	a0,a5
   1894c:	4601                	li	a2,0
   1894e:	4681                	li	a3,0
   18950:	00000073          	ecall
   18954:	3ea4e263          	bltu	s1,a0,18d38 <_start+0xac8>
   18958:	89ae                	mv	s3,a1
   1895a:	4f85                	li	t6,1
   1895c:	6505                	lui	a0,0x1
   1895e:	59750293          	addi	t0,a0,1431 # 1597 <.Lline_table_start1+0x136c>
   18962:	470d                	li	a4,3
   18964:	8516                	mv	a0,t0
   18966:	4581                	li	a1,0
   18968:	4601                	li	a2,0
   1896a:	4681                	li	a3,0
   1896c:	00000073          	ecall
   18970:	020f8663          	beqz	t6,1899c <_start+0x72c>
   18974:	459d                	li	a1,7
   18976:	4711                	li	a4,4
   18978:	8516                	mv	a0,t0
   1897a:	4601                	li	a2,0
   1897c:	4681                	li	a3,0
   1897e:	00000073          	ecall
   18982:	180f8d63          	beqz	t6,18b1c <_start+0x8ac>
   18986:	28e0406f          	j	1cc14 <_start+0x49a4>
   1898a:	853e                	mv	a0,a5
   1898c:	4601                	li	a2,0
   1898e:	4681                	li	a3,0
   18990:	4e81                	li	t4,0
   18992:	4589                	li	a1,2
   18994:	470d                	li	a4,3
   18996:	00000073          	ecall
   1899a:	b18d                	j	185fc <_start+0x38c>
   1899c:	8516                	mv	a0,t0
   1899e:	4581                	li	a1,0
   189a0:	4601                	li	a2,0
   189a2:	4681                	li	a3,0
   189a4:	39094e03          	lbu	t3,912(s2)
   189a8:	39194e83          	lbu	t4,913(s2)
   189ac:	39294703          	lbu	a4,914(s2)
   189b0:	c83a                	sw	a4,16(sp)
   189b2:	39394703          	lbu	a4,915(s2)
   189b6:	d03a                	sw	a4,32(sp)
   189b8:	3b494b03          	lbu	s6,948(s2)
   189bc:	3b394f03          	lbu	t5,947(s2)
   189c0:	39494703          	lbu	a4,916(s2)
   189c4:	ca3a                	sw	a4,20(sp)
   189c6:	39594703          	lbu	a4,917(s2)
   189ca:	ce3a                	sw	a4,28(sp)
   189cc:	39694703          	lbu	a4,918(s2)
   189d0:	cc3a                	sw	a4,24(sp)
   189d2:	39794c83          	lbu	s9,919(s2)
   189d6:	39894703          	lbu	a4,920(s2)
   189da:	39994983          	lbu	s3,921(s2)
   189de:	39a94a03          	lbu	s4,922(s2)
   189e2:	39b94a83          	lbu	s5,923(s2)
   189e6:	39c94b83          	lbu	s7,924(s2)
   189ea:	39d94c03          	lbu	s8,925(s2)
   189ee:	39e94d03          	lbu	s10,926(s2)
   189f2:	39f94883          	lbu	a7,927(s2)
   189f6:	3a094483          	lbu	s1,928(s2)
   189fa:	3a194d83          	lbu	s11,929(s2)
   189fe:	3a294083          	lbu	ra,930(s2)
   18a02:	3a394803          	lbu	a6,931(s2)
   18a06:	0ea2                	slli	t4,t4,0x8
   18a08:	0b22                	slli	s6,s6,0x8
   18a0a:	0722                	slli	a4,a4,0x8
   18a0c:	01ceeeb3          	or	t4,t4,t3
   18a10:	01eb67b3          	or	a5,s6,t5
   18a14:	c63e                	sw	a5,12(sp)
   18a16:	01976f33          	or	t5,a4,s9
   18a1a:	3a494b03          	lbu	s6,932(s2)
   18a1e:	3a594c83          	lbu	s9,933(s2)
   18a22:	3a694303          	lbu	t1,934(s2)
   18a26:	3a794383          	lbu	t2,935(s2)
   18a2a:	09c2                	slli	s3,s3,0x10
   18a2c:	0a62                	slli	s4,s4,0x18
   18a2e:	0ba2                	slli	s7,s7,0x8
   18a30:	0c42                	slli	s8,s8,0x10
   18a32:	0d62                	slli	s10,s10,0x18
   18a34:	04a2                	slli	s1,s1,0x8
   18a36:	013a69b3          	or	s3,s4,s3
   18a3a:	015bea33          	or	s4,s7,s5
   18a3e:	018d6bb3          	or	s7,s10,s8
   18a42:	0114eab3          	or	s5,s1,a7
   18a46:	3a894483          	lbu	s1,936(s2)
   18a4a:	3a994c03          	lbu	s8,937(s2)
   18a4e:	3aa94d03          	lbu	s10,938(s2)
   18a52:	3ab94e03          	lbu	t3,939(s2)
   18a56:	0dc2                	slli	s11,s11,0x10
   18a58:	00e2                	slli	ra,ra,0x18
   18a5a:	0b22                	slli	s6,s6,0x8
   18a5c:	0cc2                	slli	s9,s9,0x10
   18a5e:	0362                	slli	t1,t1,0x18
   18a60:	04a2                	slli	s1,s1,0x8
   18a62:	01b0e8b3          	or	a7,ra,s11
   18a66:	010b6833          	or	a6,s6,a6
   18a6a:	01936333          	or	t1,t1,s9
   18a6e:	0074e3b3          	or	t2,s1,t2
   18a72:	3ac94483          	lbu	s1,940(s2)
   18a76:	3ad94403          	lbu	s0,941(s2)
   18a7a:	3ae94783          	lbu	a5,942(s2)
   18a7e:	3af94703          	lbu	a4,943(s2)
   18a82:	0c42                	slli	s8,s8,0x10
   18a84:	0d62                	slli	s10,s10,0x18
   18a86:	04a2                	slli	s1,s1,0x8
   18a88:	0442                	slli	s0,s0,0x10
   18a8a:	07e2                	slli	a5,a5,0x18
   18a8c:	018d6b33          	or	s6,s10,s8
   18a90:	01c4ee33          	or	t3,s1,t3
   18a94:	3b094483          	lbu	s1,944(s2)
   18a98:	0087ec33          	or	s8,a5,s0
   18a9c:	3b194403          	lbu	s0,945(s2)
   18aa0:	3b294783          	lbu	a5,946(s2)
   18aa4:	04a2                	slli	s1,s1,0x8
   18aa6:	00e4ecb3          	or	s9,s1,a4
   18aaa:	0442                	slli	s0,s0,0x10
   18aac:	07e2                	slli	a5,a5,0x18
   18aae:	8fc1                	or	a5,a5,s0
   18ab0:	0bd11823          	sh	t4,176(sp)
   18ab4:	4742                	lw	a4,16(sp)
   18ab6:	0ae10923          	sb	a4,178(sp)
   18aba:	01e9e4b3          	or	s1,s3,t5
   18abe:	014beeb3          	or	t4,s7,s4
   18ac2:	0158e8b3          	or	a7,a7,s5
   18ac6:	01036833          	or	a6,t1,a6
   18aca:	007b6733          	or	a4,s6,t2
   18ace:	01cc6433          	or	s0,s8,t3
   18ad2:	0197e7b3          	or	a5,a5,s9
   18ad6:	c13a                	sw	a4,128(sp)
   18ad8:	c322                	sw	s0,132(sp)
   18ada:	c53e                	sw	a5,136(sp)
   18adc:	4732                	lw	a4,12(sp)
   18ade:	08e11623          	sh	a4,140(sp)
   18ae2:	d8a6                	sw	s1,112(sp)
   18ae4:	daf6                	sw	t4,116(sp)
   18ae6:	dcc6                	sw	a7,120(sp)
   18ae8:	dec2                	sw	a6,124(sp)
   18aea:	470d                	li	a4,3
   18aec:	00000073          	ecall
   18af0:	4711                	li	a4,4
   18af2:	459d                	li	a1,7
   18af4:	8516                	mv	a0,t0
   18af6:	4601                	li	a2,0
   18af8:	4681                	li	a3,0
   18afa:	00000073          	ecall
   18afe:	4552                	lw	a0,20(sp)
   18b00:	0522                	slli	a0,a0,0x8
   18b02:	5582                	lw	a1,32(sp)
   18b04:	8d4d                	or	a0,a0,a1
   18b06:	45f2                	lw	a1,28(sp)
   18b08:	05c2                	slli	a1,a1,0x10
   18b0a:	4662                	lw	a2,24(sp)
   18b0c:	0662                	slli	a2,a2,0x18
   18b0e:	8dd1                	or	a1,a1,a2
   18b10:	00a5e9b3          	or	s3,a1,a0
   18b14:	000f8463          	beqz	t6,18b1c <_start+0x8ac>
   18b18:	0fc0406f          	j	1cc14 <_start+0x49a4>
   18b1c:	0b011503          	lh	a0,176(sp)
   18b20:	0b214583          	lbu	a1,178(sp)
   18b24:	3ea91623          	sh	a0,1004(s2)
   18b28:	3eb90723          	sb	a1,1006(s2)
   18b2c:	5546                	lw	a0,112(sp)
   18b2e:	55d6                	lw	a1,116(sp)
   18b30:	5666                	lw	a2,120(sp)
   18b32:	56f6                	lw	a3,124(sp)
   18b34:	d22a                	sw	a0,36(sp)
   18b36:	d42e                	sw	a1,40(sp)
   18b38:	d632                	sw	a2,44(sp)
   18b3a:	d836                	sw	a3,48(sp)
   18b3c:	450a                	lw	a0,128(sp)
   18b3e:	459a                	lw	a1,132(sp)
   18b40:	462a                	lw	a2,136(sp)
   18b42:	08c11683          	lh	a3,140(sp)
   18b46:	da2a                	sw	a0,52(sp)
   18b48:	dc2e                	sw	a1,56(sp)
   18b4a:	de32                	sw	a2,60(sp)
   18b4c:	04d11023          	sh	a3,64(sp)
   18b50:	6505                	lui	a0,0x1
   18b52:	3a350513          	addi	a0,a0,931 # 13a3 <.Lline_table_start1+0x1178>
   18b56:	950a                	add	a0,a0,sp
   18b58:	104c                	addi	a1,sp,36
   18b5a:	4679                	li	a2,30
   18b5c:	00004097          	auipc	ra,0x4
   18b60:	1d4080e7          	jalr	468(ra) # 1cd30 <memcpy>
   18b64:	0189d713          	srli	a4,s3,0x18
   18b68:	0109d493          	srli	s1,s3,0x10
   18b6c:	0089d413          	srli	s0,s3,0x8
   18b70:	38092823          	sw	zero,912(s2)
   18b74:	38092a23          	sw	zero,916(s2)
   18b78:	38092c23          	sw	zero,920(s2)
   18b7c:	38091e23          	sh	zero,924(s2)
   18b80:	4789                	li	a5,2
   18b82:	66700513          	li	a0,1639
   18b86:	4589                	li	a1,2
   18b88:	6605                	lui	a2,0x1
   18b8a:	39c60613          	addi	a2,a2,924 # 139c <.Lline_table_start1+0x1171>
   18b8e:	960a                	add	a2,a2,sp
   18b90:	02500693          	li	a3,37
   18b94:	3f3907a3          	sb	s3,1007(s2)
   18b98:	3e890823          	sb	s0,1008(s2)
   18b9c:	3e9908a3          	sb	s1,1009(s2)
   18ba0:	3ee90923          	sb	a4,1010(s2)
   18ba4:	4711                	li	a4,4
   18ba6:	00000073          	ecall
   18baa:	02f50b63          	beq	a0,a5,18be0 <_start+0x970>
   18bae:	66700513          	li	a0,1639
   18bb2:	45a1                	li	a1,8
   18bb4:	6605                	lui	a2,0x1
   18bb6:	34060613          	addi	a2,a2,832 # 1340 <.Lline_table_start1+0x1115>
   18bba:	960a                	add	a2,a2,sp
   18bbc:	46b9                	li	a3,14
   18bbe:	470d                	li	a4,3
   18bc0:	00000073          	ecall
   18bc4:	00f50e63          	beq	a0,a5,18be0 <_start+0x970>
   18bc8:	66700513          	li	a0,1639
   18bcc:	4589                	li	a1,2
   18bce:	4621                	li	a2,8
   18bd0:	4709                	li	a4,2
   18bd2:	07f00793          	li	a5,127
   18bd6:	4681                	li	a3,0
   18bd8:	00000073          	ecall
   18bdc:	20a7e963          	bltu	a5,a0,18dee <_start+0xb7e>
   18be0:	89ae                	mv	s3,a1
   18be2:	4e85                	li	t4,1
   18be4:	66700513          	li	a0,1639
   18be8:	45a1                	li	a1,8
   18bea:	470d                	li	a4,3
   18bec:	4601                	li	a2,0
   18bee:	4681                	li	a3,0
   18bf0:	00000073          	ecall
   18bf4:	020e8563          	beqz	t4,18c1e <_start+0x9ae>
   18bf8:	66700513          	li	a0,1639
   18bfc:	4589                	li	a1,2
   18bfe:	4711                	li	a4,4
   18c00:	4601                	li	a2,0
   18c02:	4681                	li	a3,0
   18c04:	00000073          	ecall
   18c08:	a879                	j	18ca6 <_start+0xa36>
   18c0a:	4601                	li	a2,0
   18c0c:	4681                	li	a3,0
   18c0e:	4401                	li	s0,0
   18c10:	21f00513          	li	a0,543
   18c14:	459d                	li	a1,7
   18c16:	470d                	li	a4,3
   18c18:	00000073          	ecall
   18c1c:	b6c1                	j	187dc <_start+0x56c>
   18c1e:	4601                	li	a2,0
   18c20:	4681                	li	a3,0
   18c22:	39091283          	lh	t0,912(s2)
   18c26:	39294e03          	lbu	t3,914(s2)
   18c2a:	39394803          	lbu	a6,915(s2)
   18c2e:	39494883          	lbu	a7,916(s2)
   18c32:	39994703          	lbu	a4,921(s2)
   18c36:	39a94483          	lbu	s1,922(s2)
   18c3a:	39b94403          	lbu	s0,923(s2)
   18c3e:	39c94503          	lbu	a0,924(s2)
   18c42:	39594303          	lbu	t1,917(s2)
   18c46:	39694383          	lbu	t2,918(s2)
   18c4a:	39794583          	lbu	a1,919(s2)
   18c4e:	39894783          	lbu	a5,920(s2)
   18c52:	0a511823          	sh	t0,176(sp)
   18c56:	0bc10923          	sb	t3,178(sp)
   18c5a:	0522                	slli	a0,a0,0x8
   18c5c:	8c49                	or	s0,s0,a0
   18c5e:	07a2                	slli	a5,a5,0x8
   18c60:	8ddd                	or	a1,a1,a5
   18c62:	39d94783          	lbu	a5,925(s2)
   18c66:	0742                	slli	a4,a4,0x10
   18c68:	04e2                	slli	s1,s1,0x18
   18c6a:	8f45                	or	a4,a4,s1
   18c6c:	66700513          	li	a0,1639
   18c70:	8f4d                	or	a4,a4,a1
   18c72:	45a1                	li	a1,8
   18c74:	d8ba                	sw	a4,112(sp)
   18c76:	06811a23          	sh	s0,116(sp)
   18c7a:	06f10b23          	sb	a5,118(sp)
   18c7e:	470d                	li	a4,3
   18c80:	00000073          	ecall
   18c84:	4711                	li	a4,4
   18c86:	66700513          	li	a0,1639
   18c8a:	4589                	li	a1,2
   18c8c:	4601                	li	a2,0
   18c8e:	4681                	li	a3,0
   18c90:	00000073          	ecall
   18c94:	08a2                	slli	a7,a7,0x8
   18c96:	0108e533          	or	a0,a7,a6
   18c9a:	0342                	slli	t1,t1,0x10
   18c9c:	03e2                	slli	t2,t2,0x18
   18c9e:	0063e5b3          	or	a1,t2,t1
   18ca2:	00a5e9b3          	or	s3,a1,a0
   18ca6:	000e8463          	beqz	t4,18cae <_start+0xa3e>
   18caa:	76b0306f          	j	1cc14 <_start+0x49a4>
   18cae:	0b011503          	lh	a0,176(sp)
   18cb2:	0b214583          	lbu	a1,178(sp)
   18cb6:	5646                	lw	a2,112(sp)
   18cb8:	07411683          	lh	a3,116(sp)
   18cbc:	07614703          	lbu	a4,118(sp)
   18cc0:	0189d793          	srli	a5,s3,0x18
   18cc4:	0109d493          	srli	s1,s3,0x10
   18cc8:	d232                	sw	a2,36(sp)
   18cca:	02d11423          	sh	a3,40(sp)
   18cce:	0089d693          	srli	a3,s3,0x8
   18cd2:	0ca11423          	sh	a0,200(sp)
   18cd6:	0cb10523          	sb	a1,202(sp)
   18cda:	0d3105a3          	sb	s3,203(sp)
   18cde:	0cd10623          	sb	a3,204(sp)
   18ce2:	0ce10aa3          	sb	a4,213(sp)
   18ce6:	02514503          	lbu	a0,37(sp)
   18cea:	02614583          	lbu	a1,38(sp)
   18cee:	02714683          	lbu	a3,39(sp)
   18cf2:	02814703          	lbu	a4,40(sp)
   18cf6:	0c9106a3          	sb	s1,205(sp)
   18cfa:	0cf10723          	sb	a5,206(sp)
   18cfe:	0cc107a3          	sb	a2,207(sp)
   18d02:	0ca10823          	sb	a0,208(sp)
   18d06:	02914503          	lbu	a0,41(sp)
   18d0a:	0cb108a3          	sb	a1,209(sp)
   18d0e:	0cd10923          	sb	a3,210(sp)
   18d12:	0ce109a3          	sb	a4,211(sp)
   18d16:	0ca10a23          	sb	a0,212(sp)
   18d1a:	6505                	lui	a0,0x1
   18d1c:	39c50513          	addi	a0,a0,924 # 139c <.Lline_table_start1+0x1171>
   18d20:	950a                	add	a0,a0,sp
   18d22:	01ac                	addi	a1,sp,200
   18d24:	ffff9097          	auipc	ra,0xffff9
   18d28:	a5a080e7          	jalr	-1446(ra) # 1177e <_ZN18complex_no_dynamic3app17h07ff5804617c8858E>
   18d2c:	3ec94403          	lbu	s0,1004(s2)
   18d30:	cc09                	beqz	s0,18d4a <_start+0xada>
   18d32:	3f092983          	lw	s3,1008(s2)
   18d36:	a0b9                	j	18d84 <_start+0xb14>
   18d38:	853e                	mv	a0,a5
   18d3a:	4581                	li	a1,0
   18d3c:	4601                	li	a2,0
   18d3e:	4681                	li	a3,0
   18d40:	4f81                	li	t6,0
   18d42:	470d                	li	a4,3
   18d44:	00000073          	ecall
   18d48:	b911                	j	1895c <_start+0x6ec>
   18d4a:	3ee94503          	lbu	a0,1006(s2)
   18d4e:	3ed94583          	lbu	a1,1005(s2)
   18d52:	3ef94603          	lbu	a2,1007(s2)
   18d56:	3f092983          	lw	s3,1008(s2)
   18d5a:	0522                	slli	a0,a0,0x8
   18d5c:	8d4d                	or	a0,a0,a1
   18d5e:	02a11223          	sh	a0,36(sp)
   18d62:	02c10323          	sb	a2,38(sp)
   18d66:	6505                	lui	a0,0x1
   18d68:	3a450513          	addi	a0,a0,932 # 13a4 <.Lline_table_start1+0x1179>
   18d6c:	00a105b3          	add	a1,sp,a0
   18d70:	6505                	lui	a0,0x1
   18d72:	34050513          	addi	a0,a0,832 # 1340 <.Lline_table_start1+0x1115>
   18d76:	950a                	add	a0,a0,sp
   18d78:	04100613          	li	a2,65
   18d7c:	00004097          	auipc	ra,0x4
   18d80:	fb4080e7          	jalr	-76(ra) # 1cd30 <memcpy>
   18d84:	c019                	beqz	s0,18d8a <_start+0xb1a>
   18d86:	68f0306f          	j	1cc14 <_start+0x49a4>
   18d8a:	02411503          	lh	a0,36(sp)
   18d8e:	02614583          	lbu	a1,38(sp)
   18d92:	0189d613          	srli	a2,s3,0x18
   18d96:	0109d693          	srli	a3,s3,0x10
   18d9a:	0cd10da3          	sb	a3,219(sp)
   18d9e:	0cc10e23          	sb	a2,220(sp)
   18da2:	0089d613          	srli	a2,s3,0x8
   18da6:	0ca11b23          	sh	a0,214(sp)
   18daa:	0cb10c23          	sb	a1,216(sp)
   18dae:	0d310ca3          	sb	s3,217(sp)
   18db2:	0cc10d23          	sb	a2,218(sp)
   18db6:	0dd10513          	addi	a0,sp,221
   18dba:	6585                	lui	a1,0x1
   18dbc:	34058593          	addi	a1,a1,832 # 1340 <.Lline_table_start1+0x1115>
   18dc0:	958a                	add	a1,a1,sp
   18dc2:	04100613          	li	a2,65
   18dc6:	00004097          	auipc	ra,0x4
   18dca:	f6a080e7          	jalr	-150(ra) # 1cd30 <memcpy>
   18dce:	6505                	lui	a0,0x1
   18dd0:	39c50513          	addi	a0,a0,924 # 139c <.Lline_table_start1+0x1171>
   18dd4:	950a                	add	a0,a0,sp
   18dd6:	0d610593          	addi	a1,sp,214
   18dda:	ffffc097          	auipc	ra,0xffffc
   18dde:	a30080e7          	jalr	-1488(ra) # 1480a <_ZN18complex_no_dynamic3app17h585277549db66631E>
   18de2:	3ec94603          	lbu	a2,1004(s2)
   18de6:	ce11                	beqz	a2,18e02 <_start+0xb92>
   18de8:	3f092983          	lw	s3,1008(s2)
   18dec:	a82d                	j	18e26 <_start+0xbb6>
   18dee:	4601                	li	a2,0
   18df0:	4681                	li	a3,0
   18df2:	4e81                	li	t4,0
   18df4:	66700513          	li	a0,1639
   18df8:	45a1                	li	a1,8
   18dfa:	470d                	li	a4,3
   18dfc:	00000073          	ecall
   18e00:	b3d5                	j	18be4 <_start+0x974>
   18e02:	3ed94683          	lbu	a3,1005(s2)
   18e06:	3ee94703          	lbu	a4,1006(s2)
   18e0a:	3ef94783          	lbu	a5,1007(s2)
   18e0e:	3f092983          	lw	s3,1008(s2)
   18e12:	3f492583          	lw	a1,1012(s2)
   18e16:	3f892503          	lw	a0,1016(s2)
   18e1a:	0722                	slli	a4,a4,0x8
   18e1c:	8ed9                	or	a3,a3,a4
   18e1e:	38d91823          	sh	a3,912(s2)
   18e22:	38f90923          	sb	a5,914(s2)
   18e26:	c219                	beqz	a2,18e2c <_start+0xbbc>
   18e28:	5ed0306f          	j	1cc14 <_start+0x49a4>
   18e2c:	39091803          	lh	a6,912(s2)
   18e30:	39294683          	lbu	a3,914(s2)
   18e34:	0189d713          	srli	a4,s3,0x18
   18e38:	0109d793          	srli	a5,s3,0x10
   18e3c:	0089d493          	srli	s1,s3,0x8
   18e40:	0085d413          	srli	s0,a1,0x8
   18e44:	01855613          	srli	a2,a0,0x18
   18e48:	12f101a3          	sb	a5,291(sp)
   18e4c:	12e10223          	sb	a4,292(sp)
   18e50:	12b102a3          	sb	a1,293(sp)
   18e54:	12810323          	sb	s0,294(sp)
   18e58:	01055713          	srli	a4,a0,0x10
   18e5c:	12e105a3          	sb	a4,299(sp)
   18e60:	12c10623          	sb	a2,300(sp)
   18e64:	0185d613          	srli	a2,a1,0x18
   18e68:	81c1                	srli	a1,a1,0x10
   18e6a:	11011f23          	sh	a6,286(sp)
   18e6e:	12d10023          	sb	a3,288(sp)
   18e72:	133100a3          	sb	s3,289(sp)
   18e76:	12910123          	sb	s1,290(sp)
   18e7a:	00855693          	srli	a3,a0,0x8
   18e7e:	12b103a3          	sb	a1,295(sp)
   18e82:	12c10423          	sb	a2,296(sp)
   18e86:	12a104a3          	sb	a0,297(sp)
   18e8a:	12d10523          	sb	a3,298(sp)
   18e8e:	6505                	lui	a0,0x1
   18e90:	39c50513          	addi	a0,a0,924 # 139c <.Lline_table_start1+0x1171>
   18e94:	950a                	add	a0,a0,sp
   18e96:	11e10593          	addi	a1,sp,286
   18e9a:	ffffd097          	auipc	ra,0xffffd
   18e9e:	6fe080e7          	jalr	1790(ra) # 16598 <_ZN18complex_no_dynamic3app17hba11945478f7a196E>
   18ea2:	3ec94503          	lbu	a0,1004(s2)
   18ea6:	c501                	beqz	a0,18eae <_start+0xc3e>
   18ea8:	3f092983          	lw	s3,1008(s2)
   18eac:	a8b9                	j	18f0a <_start+0xc9a>
   18eae:	3ed94583          	lbu	a1,1005(s2)
   18eb2:	3ee94603          	lbu	a2,1006(s2)
   18eb6:	3ef94683          	lbu	a3,1007(s2)
   18eba:	3f092983          	lw	s3,1008(s2)
   18ebe:	3f492703          	lw	a4,1012(s2)
   18ec2:	3f892783          	lw	a5,1016(s2)
   18ec6:	3fc92483          	lw	s1,1020(s2)
   18eca:	40092403          	lw	s0,1024(s2)
   18ece:	0622                	slli	a2,a2,0x8
   18ed0:	38e92823          	sw	a4,912(s2)
   18ed4:	38f92a23          	sw	a5,916(s2)
   18ed8:	38992c23          	sw	s1,920(s2)
   18edc:	38892e23          	sw	s0,924(s2)
   18ee0:	8dd1                	or	a1,a1,a2
   18ee2:	02b11223          	sh	a1,36(sp)
   18ee6:	02d10323          	sb	a3,38(sp)
   18eea:	40492583          	lw	a1,1028(s2)
   18eee:	40892603          	lw	a2,1032(s2)
   18ef2:	40c92683          	lw	a3,1036(s2)
   18ef6:	41091703          	lh	a4,1040(s2)
   18efa:	3ab92023          	sw	a1,928(s2)
   18efe:	3ac92223          	sw	a2,932(s2)
   18f02:	3ad92423          	sw	a3,936(s2)
   18f06:	3ae91623          	sh	a4,940(s2)
   18f0a:	c119                	beqz	a0,18f10 <_start+0xca0>
   18f0c:	5090306f          	j	1cc14 <_start+0x49a4>
   18f10:	02411503          	lh	a0,36(sp)
   18f14:	02614583          	lbu	a1,38(sp)
   18f18:	0189d613          	srli	a2,s3,0x18
   18f1c:	0109d693          	srli	a3,s3,0x10
   18f20:	12d109a3          	sb	a3,307(sp)
   18f24:	12c10a23          	sb	a2,308(sp)
   18f28:	0089d613          	srli	a2,s3,0x8
   18f2c:	12a11723          	sh	a0,302(sp)
   18f30:	12b10823          	sb	a1,304(sp)
   18f34:	133108a3          	sb	s3,305(sp)
   18f38:	12c10923          	sb	a2,306(sp)
   18f3c:	13510513          	addi	a0,sp,309
   18f40:	6585                	lui	a1,0x1
   18f42:	34058593          	addi	a1,a1,832 # 1340 <.Lline_table_start1+0x1115>
   18f46:	958a                	add	a1,a1,sp
   18f48:	4679                	li	a2,30
   18f4a:	00004097          	auipc	ra,0x4
   18f4e:	de6080e7          	jalr	-538(ra) # 1cd30 <memcpy>
   18f52:	6505                	lui	a0,0x1
   18f54:	39c50513          	addi	a0,a0,924 # 139c <.Lline_table_start1+0x1171>
   18f58:	950a                	add	a0,a0,sp
   18f5a:	12e10593          	addi	a1,sp,302
   18f5e:	ffffe097          	auipc	ra,0xffffe
   18f62:	4a6080e7          	jalr	1190(ra) # 17404 <_ZN18complex_no_dynamic3app17hdc1b6f9e5063c023E>
   18f66:	3ec94403          	lbu	s0,1004(s2)
   18f6a:	c401                	beqz	s0,18f72 <_start+0xd02>
   18f6c:	3f092983          	lw	s3,1008(s2)
   18f70:	a835                	j	18fac <_start+0xd3c>
   18f72:	3ee94503          	lbu	a0,1006(s2)
   18f76:	3ed94583          	lbu	a1,1005(s2)
   18f7a:	3ef94603          	lbu	a2,1007(s2)
   18f7e:	3f092983          	lw	s3,1008(s2)
   18f82:	0522                	slli	a0,a0,0x8
   18f84:	8d4d                	or	a0,a0,a1
   18f86:	02a11223          	sh	a0,36(sp)
   18f8a:	02c10323          	sb	a2,38(sp)
   18f8e:	6505                	lui	a0,0x1
   18f90:	3a450513          	addi	a0,a0,932 # 13a4 <.Lline_table_start1+0x1179>
   18f94:	00a105b3          	add	a1,sp,a0
   18f98:	6505                	lui	a0,0x1
   18f9a:	34050513          	addi	a0,a0,832 # 1340 <.Lline_table_start1+0x1115>
   18f9e:	950a                	add	a0,a0,sp
   18fa0:	02300613          	li	a2,35
   18fa4:	00004097          	auipc	ra,0x4
   18fa8:	d8c080e7          	jalr	-628(ra) # 1cd30 <memcpy>
   18fac:	c019                	beqz	s0,18fb2 <_start+0xd42>
   18fae:	4670306f          	j	1cc14 <_start+0x49a4>
   18fb2:	02411503          	lh	a0,36(sp)
   18fb6:	02614583          	lbu	a1,38(sp)
   18fba:	0189d613          	srli	a2,s3,0x18
   18fbe:	0109d693          	srli	a3,s3,0x10
   18fc2:	14d10ca3          	sb	a3,345(sp)
   18fc6:	14c10d23          	sb	a2,346(sp)
   18fca:	0089d613          	srli	a2,s3,0x8
   18fce:	14a11a23          	sh	a0,340(sp)
   18fd2:	14b10b23          	sb	a1,342(sp)
   18fd6:	15310ba3          	sb	s3,343(sp)
   18fda:	14c10c23          	sb	a2,344(sp)
   18fde:	15b10513          	addi	a0,sp,347
   18fe2:	6585                	lui	a1,0x1
   18fe4:	34058593          	addi	a1,a1,832 # 1340 <.Lline_table_start1+0x1115>
   18fe8:	958a                	add	a1,a1,sp
   18fea:	02300613          	li	a2,35
   18fee:	00004097          	auipc	ra,0x4
   18ff2:	d42080e7          	jalr	-702(ra) # 1cd30 <memcpy>
   18ff6:	6505                	lui	a0,0x1
   18ff8:	39c50513          	addi	a0,a0,924 # 139c <.Lline_table_start1+0x1171>
   18ffc:	950a                	add	a0,a0,sp
   18ffe:	0acc                	addi	a1,sp,340
   19000:	ffffe097          	auipc	ra,0xffffe
   19004:	928080e7          	jalr	-1752(ra) # 16928 <_ZN18complex_no_dynamic3app17hc7a47d064ac62183E>
   19008:	3ec94403          	lbu	s0,1004(s2)
   1900c:	c401                	beqz	s0,19014 <_start+0xda4>
   1900e:	3f092983          	lw	s3,1008(s2)
   19012:	a835                	j	1904e <_start+0xdde>
   19014:	3ee94503          	lbu	a0,1006(s2)
   19018:	3ed94583          	lbu	a1,1005(s2)
   1901c:	3ef94603          	lbu	a2,1007(s2)
   19020:	3f092983          	lw	s3,1008(s2)
   19024:	0522                	slli	a0,a0,0x8
   19026:	8d4d                	or	a0,a0,a1
   19028:	02a11223          	sh	a0,36(sp)
   1902c:	02c10323          	sb	a2,38(sp)
   19030:	6505                	lui	a0,0x1
   19032:	3a450513          	addi	a0,a0,932 # 13a4 <.Lline_table_start1+0x1179>
   19036:	00a105b3          	add	a1,sp,a0
   1903a:	6505                	lui	a0,0x1
   1903c:	34050513          	addi	a0,a0,832 # 1340 <.Lline_table_start1+0x1115>
   19040:	950a                	add	a0,a0,sp
   19042:	05c00613          	li	a2,92
   19046:	00004097          	auipc	ra,0x4
   1904a:	cea080e7          	jalr	-790(ra) # 1cd30 <memcpy>
   1904e:	c019                	beqz	s0,19054 <_start+0xde4>
   19050:	3c50306f          	j	1cc14 <_start+0x49a4>
   19054:	02411503          	lh	a0,36(sp)
   19058:	02614583          	lbu	a1,38(sp)
   1905c:	0189d613          	srli	a2,s3,0x18
   19060:	0109d693          	srli	a3,s3,0x10
   19064:	18d101a3          	sb	a3,387(sp)
   19068:	18c10223          	sb	a2,388(sp)
   1906c:	0089d613          	srli	a2,s3,0x8
   19070:	16a11f23          	sh	a0,382(sp)
   19074:	18b10023          	sb	a1,384(sp)
   19078:	193100a3          	sb	s3,385(sp)
   1907c:	18c10123          	sb	a2,386(sp)
   19080:	18510513          	addi	a0,sp,389
   19084:	6585                	lui	a1,0x1
   19086:	34058593          	addi	a1,a1,832 # 1340 <.Lline_table_start1+0x1115>
   1908a:	958a                	add	a1,a1,sp
   1908c:	05c00613          	li	a2,92
   19090:	00004097          	auipc	ra,0x4
   19094:	ca0080e7          	jalr	-864(ra) # 1cd30 <memcpy>
   19098:	6505                	lui	a0,0x1
   1909a:	39c50513          	addi	a0,a0,924 # 139c <.Lline_table_start1+0x1171>
   1909e:	950a                	add	a0,a0,sp
   190a0:	17e10593          	addi	a1,sp,382
   190a4:	fffff097          	auipc	ra,0xfffff
   190a8:	964080e7          	jalr	-1692(ra) # 17a08 <_ZN18complex_no_dynamic3app17he88e3b69617bb138E>
   190ac:	3ec94503          	lbu	a0,1004(s2)
   190b0:	c501                	beqz	a0,190b8 <_start+0xe48>
   190b2:	3f092983          	lw	s3,1008(s2)
   190b6:	a8b9                	j	19114 <_start+0xea4>
   190b8:	3ed94583          	lbu	a1,1005(s2)
   190bc:	3ee94603          	lbu	a2,1006(s2)
   190c0:	3ef94683          	lbu	a3,1007(s2)
   190c4:	3f092983          	lw	s3,1008(s2)
   190c8:	3f492703          	lw	a4,1012(s2)
   190cc:	3f892783          	lw	a5,1016(s2)
   190d0:	3fc92483          	lw	s1,1020(s2)
   190d4:	40092403          	lw	s0,1024(s2)
   190d8:	0622                	slli	a2,a2,0x8
   190da:	38e92823          	sw	a4,912(s2)
   190de:	38f92a23          	sw	a5,916(s2)
   190e2:	38992c23          	sw	s1,920(s2)
   190e6:	38892e23          	sw	s0,924(s2)
   190ea:	8dd1                	or	a1,a1,a2
   190ec:	02b11223          	sh	a1,36(sp)
   190f0:	02d10323          	sb	a3,38(sp)
   190f4:	40492583          	lw	a1,1028(s2)
   190f8:	40892603          	lw	a2,1032(s2)
   190fc:	40c92683          	lw	a3,1036(s2)
   19100:	41092703          	lw	a4,1040(s2)
   19104:	3ab92023          	sw	a1,928(s2)
   19108:	3ac92223          	sw	a2,932(s2)
   1910c:	3ad92423          	sw	a3,936(s2)
   19110:	3ae92623          	sw	a4,940(s2)
   19114:	c119                	beqz	a0,1911a <_start+0xeaa>
   19116:	2ff0306f          	j	1cc14 <_start+0x49a4>
   1911a:	02411503          	lh	a0,36(sp)
   1911e:	02614583          	lbu	a1,38(sp)
   19122:	0189d613          	srli	a2,s3,0x18
   19126:	0109d693          	srli	a3,s3,0x10
   1912a:	1ed103a3          	sb	a3,487(sp)
   1912e:	1ec10423          	sb	a2,488(sp)
   19132:	0089d613          	srli	a2,s3,0x8
   19136:	1ea11123          	sh	a0,482(sp)
   1913a:	1eb10223          	sb	a1,484(sp)
   1913e:	1f3102a3          	sb	s3,485(sp)
   19142:	1ec10323          	sb	a2,486(sp)
   19146:	1e910513          	addi	a0,sp,489
   1914a:	6585                	lui	a1,0x1
   1914c:	34058593          	addi	a1,a1,832 # 1340 <.Lline_table_start1+0x1115>
   19150:	958a                	add	a1,a1,sp
   19152:	02000613          	li	a2,32
   19156:	00004097          	auipc	ra,0x4
   1915a:	bda080e7          	jalr	-1062(ra) # 1cd30 <memcpy>
   1915e:	6505                	lui	a0,0x1
   19160:	39c50513          	addi	a0,a0,924 # 139c <.Lline_table_start1+0x1171>
   19164:	950a                	add	a0,a0,sp
   19166:	1e210593          	addi	a1,sp,482
   1916a:	ffffc097          	auipc	ra,0xffffc
   1916e:	566080e7          	jalr	1382(ra) # 156d0 <_ZN18complex_no_dynamic3app17h8dd194e47dc7e548E>
   19172:	3ec94503          	lbu	a0,1004(s2)
   19176:	c501                	beqz	a0,1917e <_start+0xf0e>
   19178:	3f092983          	lw	s3,1008(s2)
   1917c:	a899                	j	191d2 <_start+0xf62>
   1917e:	3ed94583          	lbu	a1,1005(s2)
   19182:	3ee94603          	lbu	a2,1006(s2)
   19186:	3ef94683          	lbu	a3,1007(s2)
   1918a:	3f092983          	lw	s3,1008(s2)
   1918e:	3f492703          	lw	a4,1012(s2)
   19192:	3f892783          	lw	a5,1016(s2)
   19196:	3fc92483          	lw	s1,1020(s2)
   1919a:	40092403          	lw	s0,1024(s2)
   1919e:	0622                	slli	a2,a2,0x8
   191a0:	38e92823          	sw	a4,912(s2)
   191a4:	38f92a23          	sw	a5,916(s2)
   191a8:	38992c23          	sw	s1,920(s2)
   191ac:	38892e23          	sw	s0,924(s2)
   191b0:	8dd1                	or	a1,a1,a2
   191b2:	40492603          	lw	a2,1028(s2)
   191b6:	40891703          	lh	a4,1032(s2)
   191ba:	40a94783          	lbu	a5,1034(s2)
   191be:	02b11223          	sh	a1,36(sp)
   191c2:	02d10323          	sb	a3,38(sp)
   191c6:	3ac92023          	sw	a2,928(s2)
   191ca:	3ae91223          	sh	a4,932(s2)
   191ce:	3af90323          	sb	a5,934(s2)
   191d2:	c119                	beqz	a0,191d8 <_start+0xf68>
   191d4:	2410306f          	j	1cc14 <_start+0x49a4>
   191d8:	02411503          	lh	a0,36(sp)
   191dc:	02614583          	lbu	a1,38(sp)
   191e0:	0189d613          	srli	a2,s3,0x18
   191e4:	0109d693          	srli	a3,s3,0x10
   191e8:	20d107a3          	sb	a3,527(sp)
   191ec:	20c10823          	sb	a2,528(sp)
   191f0:	0089d613          	srli	a2,s3,0x8
   191f4:	20a11523          	sh	a0,522(sp)
   191f8:	20b10623          	sb	a1,524(sp)
   191fc:	213106a3          	sb	s3,525(sp)
   19200:	20c10723          	sb	a2,526(sp)
   19204:	21110513          	addi	a0,sp,529
   19208:	6585                	lui	a1,0x1
   1920a:	34058593          	addi	a1,a1,832 # 1340 <.Lline_table_start1+0x1115>
   1920e:	958a                	add	a1,a1,sp
   19210:	465d                	li	a2,23
   19212:	00004097          	auipc	ra,0x4
   19216:	b1e080e7          	jalr	-1250(ra) # 1cd30 <memcpy>
   1921a:	6505                	lui	a0,0x1
   1921c:	39c50513          	addi	a0,a0,924 # 139c <.Lline_table_start1+0x1171>
   19220:	950a                	add	a0,a0,sp
   19222:	20a10593          	addi	a1,sp,522
   19226:	ffffb097          	auipc	ra,0xffffb
   1922a:	b60080e7          	jalr	-1184(ra) # 13d86 <_ZN18complex_no_dynamic3app17h4a176e86db4a374eE>
   1922e:	3ec94403          	lbu	s0,1004(s2)
   19232:	c401                	beqz	s0,1923a <_start+0xfca>
   19234:	3f092983          	lw	s3,1008(s2)
   19238:	a835                	j	19274 <_start+0x1004>
   1923a:	3ee94503          	lbu	a0,1006(s2)
   1923e:	3ed94583          	lbu	a1,1005(s2)
   19242:	3ef94603          	lbu	a2,1007(s2)
   19246:	3f092983          	lw	s3,1008(s2)
   1924a:	0522                	slli	a0,a0,0x8
   1924c:	8d4d                	or	a0,a0,a1
   1924e:	02a11223          	sh	a0,36(sp)
   19252:	02c10323          	sb	a2,38(sp)
   19256:	6505                	lui	a0,0x1
   19258:	3a450513          	addi	a0,a0,932 # 13a4 <.Lline_table_start1+0x1179>
   1925c:	00a105b3          	add	a1,sp,a0
   19260:	6505                	lui	a0,0x1
   19262:	34050513          	addi	a0,a0,832 # 1340 <.Lline_table_start1+0x1115>
   19266:	950a                	add	a0,a0,sp
   19268:	02500613          	li	a2,37
   1926c:	00004097          	auipc	ra,0x4
   19270:	ac4080e7          	jalr	-1340(ra) # 1cd30 <memcpy>
   19274:	c019                	beqz	s0,1927a <_start+0x100a>
   19276:	19f0306f          	j	1cc14 <_start+0x49a4>
   1927a:	02411503          	lh	a0,36(sp)
   1927e:	02614583          	lbu	a1,38(sp)
   19282:	0189d613          	srli	a2,s3,0x18
   19286:	0109d693          	srli	a3,s3,0x10
   1928a:	22d106a3          	sb	a3,557(sp)
   1928e:	22c10723          	sb	a2,558(sp)
   19292:	0089d613          	srli	a2,s3,0x8
   19296:	22a11423          	sh	a0,552(sp)
   1929a:	22b10523          	sb	a1,554(sp)
   1929e:	233105a3          	sb	s3,555(sp)
   192a2:	22c10623          	sb	a2,556(sp)
   192a6:	22f10513          	addi	a0,sp,559
   192aa:	6585                	lui	a1,0x1
   192ac:	34058593          	addi	a1,a1,832 # 1340 <.Lline_table_start1+0x1115>
   192b0:	958a                	add	a1,a1,sp
   192b2:	02500613          	li	a2,37
   192b6:	00004097          	auipc	ra,0x4
   192ba:	a7a080e7          	jalr	-1414(ra) # 1cd30 <memcpy>
   192be:	6505                	lui	a0,0x1
   192c0:	39c50513          	addi	a0,a0,924 # 139c <.Lline_table_start1+0x1171>
   192c4:	950a                	add	a0,a0,sp
   192c6:	142c                	addi	a1,sp,552
   192c8:	ffff9097          	auipc	ra,0xffff9
   192cc:	234080e7          	jalr	564(ra) # 124fc <_ZN18complex_no_dynamic3app17h26f9f07a39292db8E>
   192d0:	3ec94503          	lbu	a0,1004(s2)
   192d4:	c501                	beqz	a0,192dc <_start+0x106c>
   192d6:	3f092983          	lw	s3,1008(s2)
   192da:	a8b9                	j	19338 <_start+0x10c8>
   192dc:	3ed94583          	lbu	a1,1005(s2)
   192e0:	3ee94603          	lbu	a2,1006(s2)
   192e4:	3ef94683          	lbu	a3,1007(s2)
   192e8:	3f092983          	lw	s3,1008(s2)
   192ec:	3f492703          	lw	a4,1012(s2)
   192f0:	3f892783          	lw	a5,1016(s2)
   192f4:	3fc92483          	lw	s1,1020(s2)
   192f8:	40092403          	lw	s0,1024(s2)
   192fc:	0622                	slli	a2,a2,0x8
   192fe:	38e92823          	sw	a4,912(s2)
   19302:	38f92a23          	sw	a5,916(s2)
   19306:	38992c23          	sw	s1,920(s2)
   1930a:	38892e23          	sw	s0,924(s2)
   1930e:	8dd1                	or	a1,a1,a2
   19310:	02b11223          	sh	a1,36(sp)
   19314:	02d10323          	sb	a3,38(sp)
   19318:	40492583          	lw	a1,1028(s2)
   1931c:	40892603          	lw	a2,1032(s2)
   19320:	40c92683          	lw	a3,1036(s2)
   19324:	41091703          	lh	a4,1040(s2)
   19328:	3ab92023          	sw	a1,928(s2)
   1932c:	3ac92223          	sw	a2,932(s2)
   19330:	3ad92423          	sw	a3,936(s2)
   19334:	3ae91623          	sh	a4,940(s2)
   19338:	c119                	beqz	a0,1933e <_start+0x10ce>
   1933a:	0db0306f          	j	1cc14 <_start+0x49a4>
   1933e:	02411503          	lh	a0,36(sp)
   19342:	02614583          	lbu	a1,38(sp)
   19346:	0189d613          	srli	a2,s3,0x18
   1934a:	0109d693          	srli	a3,s3,0x10
   1934e:	24d10ca3          	sb	a3,601(sp)
   19352:	24c10d23          	sb	a2,602(sp)
   19356:	0089d613          	srli	a2,s3,0x8
   1935a:	24a11a23          	sh	a0,596(sp)
   1935e:	24b10b23          	sb	a1,598(sp)
   19362:	25310ba3          	sb	s3,599(sp)
   19366:	24c10c23          	sb	a2,600(sp)
   1936a:	25b10513          	addi	a0,sp,603
   1936e:	6585                	lui	a1,0x1
   19370:	34058593          	addi	a1,a1,832 # 1340 <.Lline_table_start1+0x1115>
   19374:	958a                	add	a1,a1,sp
   19376:	4679                	li	a2,30
   19378:	00004097          	auipc	ra,0x4
   1937c:	9b8080e7          	jalr	-1608(ra) # 1cd30 <memcpy>
   19380:	6505                	lui	a0,0x1
   19382:	39c50513          	addi	a0,a0,924 # 139c <.Lline_table_start1+0x1171>
   19386:	950a                	add	a0,a0,sp
   19388:	0ccc                	addi	a1,sp,596
   1938a:	ffff9097          	auipc	ra,0xffff9
   1938e:	27a080e7          	jalr	634(ra) # 12604 <_ZN18complex_no_dynamic3app17h296999d4bc92834fE>
   19392:	3ec94503          	lbu	a0,1004(s2)
   19396:	c501                	beqz	a0,1939e <_start+0x112e>
   19398:	3f092983          	lw	s3,1008(s2)
   1939c:	a099                	j	193e2 <_start+0x1172>
   1939e:	3ed94583          	lbu	a1,1005(s2)
   193a2:	3ee94603          	lbu	a2,1006(s2)
   193a6:	3ef94683          	lbu	a3,1007(s2)
   193aa:	3f092983          	lw	s3,1008(s2)
   193ae:	3f492703          	lw	a4,1012(s2)
   193b2:	3f892783          	lw	a5,1016(s2)
   193b6:	3fc92483          	lw	s1,1020(s2)
   193ba:	40092403          	lw	s0,1024(s2)
   193be:	38e92823          	sw	a4,912(s2)
   193c2:	38f92a23          	sw	a5,916(s2)
   193c6:	38992c23          	sw	s1,920(s2)
   193ca:	38892e23          	sw	s0,924(s2)
   193ce:	40494703          	lbu	a4,1028(s2)
   193d2:	0622                	slli	a2,a2,0x8
   193d4:	8dd1                	or	a1,a1,a2
   193d6:	02b11223          	sh	a1,36(sp)
   193da:	02d10323          	sb	a3,38(sp)
   193de:	3ae90023          	sb	a4,928(s2)
   193e2:	c119                	beqz	a0,193e8 <_start+0x1178>
   193e4:	0310306f          	j	1cc14 <_start+0x49a4>
   193e8:	02411503          	lh	a0,36(sp)
   193ec:	02614583          	lbu	a1,38(sp)
   193f0:	0189d613          	srli	a2,s3,0x18
   193f4:	0109d693          	srli	a3,s3,0x10
   193f8:	26d10fa3          	sb	a3,639(sp)
   193fc:	28c10023          	sb	a2,640(sp)
   19400:	0089d613          	srli	a2,s3,0x8
   19404:	26a11d23          	sh	a0,634(sp)
   19408:	26b10e23          	sb	a1,636(sp)
   1940c:	27310ea3          	sb	s3,637(sp)
   19410:	26c10f23          	sb	a2,638(sp)
   19414:	28110513          	addi	a0,sp,641
   19418:	6585                	lui	a1,0x1
   1941a:	34058593          	addi	a1,a1,832 # 1340 <.Lline_table_start1+0x1115>
   1941e:	958a                	add	a1,a1,sp
   19420:	4645                	li	a2,17
   19422:	00004097          	auipc	ra,0x4
   19426:	90e080e7          	jalr	-1778(ra) # 1cd30 <memcpy>
   1942a:	6505                	lui	a0,0x1
   1942c:	39c50513          	addi	a0,a0,924 # 139c <.Lline_table_start1+0x1171>
   19430:	950a                	add	a0,a0,sp
   19432:	27a10593          	addi	a1,sp,634
   19436:	ffffb097          	auipc	ra,0xffffb
   1943a:	20e080e7          	jalr	526(ra) # 14644 <_ZN18complex_no_dynamic3app17h55bbeca1b2c28630E>
   1943e:	3ec94403          	lbu	s0,1004(s2)
   19442:	c401                	beqz	s0,1944a <_start+0x11da>
   19444:	3f092983          	lw	s3,1008(s2)
   19448:	a835                	j	19484 <_start+0x1214>
   1944a:	3ee94503          	lbu	a0,1006(s2)
   1944e:	3ed94583          	lbu	a1,1005(s2)
   19452:	3ef94603          	lbu	a2,1007(s2)
   19456:	3f092983          	lw	s3,1008(s2)
   1945a:	0522                	slli	a0,a0,0x8
   1945c:	8d4d                	or	a0,a0,a1
   1945e:	02a11223          	sh	a0,36(sp)
   19462:	02c10323          	sb	a2,38(sp)
   19466:	6505                	lui	a0,0x1
   19468:	3a450513          	addi	a0,a0,932 # 13a4 <.Lline_table_start1+0x1179>
   1946c:	00a105b3          	add	a1,sp,a0
   19470:	6505                	lui	a0,0x1
   19472:	34050513          	addi	a0,a0,832 # 1340 <.Lline_table_start1+0x1115>
   19476:	950a                	add	a0,a0,sp
   19478:	02f00613          	li	a2,47
   1947c:	00004097          	auipc	ra,0x4
   19480:	8b4080e7          	jalr	-1868(ra) # 1cd30 <memcpy>
   19484:	c019                	beqz	s0,1948a <_start+0x121a>
   19486:	78e0306f          	j	1cc14 <_start+0x49a4>
   1948a:	02411503          	lh	a0,36(sp)
   1948e:	02614583          	lbu	a1,38(sp)
   19492:	0189d613          	srli	a2,s3,0x18
   19496:	0109d693          	srli	a3,s3,0x10
   1949a:	28d10ba3          	sb	a3,663(sp)
   1949e:	28c10c23          	sb	a2,664(sp)
   194a2:	0089d613          	srli	a2,s3,0x8
   194a6:	28a11923          	sh	a0,658(sp)
   194aa:	28b10a23          	sb	a1,660(sp)
   194ae:	29310aa3          	sb	s3,661(sp)
   194b2:	28c10b23          	sb	a2,662(sp)
   194b6:	29910513          	addi	a0,sp,665
   194ba:	6585                	lui	a1,0x1
   194bc:	34058593          	addi	a1,a1,832 # 1340 <.Lline_table_start1+0x1115>
   194c0:	958a                	add	a1,a1,sp
   194c2:	02f00613          	li	a2,47
   194c6:	00004097          	auipc	ra,0x4
   194ca:	86a080e7          	jalr	-1942(ra) # 1cd30 <memcpy>
   194ce:	6505                	lui	a0,0x1
   194d0:	39c50513          	addi	a0,a0,924 # 139c <.Lline_table_start1+0x1171>
   194d4:	950a                	add	a0,a0,sp
   194d6:	29210593          	addi	a1,sp,658
   194da:	ffffe097          	auipc	ra,0xffffe
   194de:	bfe080e7          	jalr	-1026(ra) # 170d8 <_ZN18complex_no_dynamic3app17hda1254926ab6b51eE>
   194e2:	3ec94403          	lbu	s0,1004(s2)
   194e6:	c401                	beqz	s0,194ee <_start+0x127e>
   194e8:	3f092983          	lw	s3,1008(s2)
   194ec:	a835                	j	19528 <_start+0x12b8>
   194ee:	3ee94503          	lbu	a0,1006(s2)
   194f2:	3ed94583          	lbu	a1,1005(s2)
   194f6:	3ef94603          	lbu	a2,1007(s2)
   194fa:	3f092983          	lw	s3,1008(s2)
   194fe:	0522                	slli	a0,a0,0x8
   19500:	8d4d                	or	a0,a0,a1
   19502:	02a11223          	sh	a0,36(sp)
   19506:	02c10323          	sb	a2,38(sp)
   1950a:	6505                	lui	a0,0x1
   1950c:	3a450513          	addi	a0,a0,932 # 13a4 <.Lline_table_start1+0x1179>
   19510:	00a105b3          	add	a1,sp,a0
   19514:	6505                	lui	a0,0x1
   19516:	34050513          	addi	a0,a0,832 # 1340 <.Lline_table_start1+0x1115>
   1951a:	950a                	add	a0,a0,sp
   1951c:	02d00613          	li	a2,45
   19520:	00004097          	auipc	ra,0x4
   19524:	810080e7          	jalr	-2032(ra) # 1cd30 <memcpy>
   19528:	c019                	beqz	s0,1952e <_start+0x12be>
   1952a:	6ea0306f          	j	1cc14 <_start+0x49a4>
   1952e:	02411503          	lh	a0,36(sp)
   19532:	02614583          	lbu	a1,38(sp)
   19536:	0189d613          	srli	a2,s3,0x18
   1953a:	0109d693          	srli	a3,s3,0x10
   1953e:	2cd106a3          	sb	a3,717(sp)
   19542:	2cc10723          	sb	a2,718(sp)
   19546:	0089d613          	srli	a2,s3,0x8
   1954a:	2ca11423          	sh	a0,712(sp)
   1954e:	2cb10523          	sb	a1,714(sp)
   19552:	2d3105a3          	sb	s3,715(sp)
   19556:	2cc10623          	sb	a2,716(sp)
   1955a:	2cf10513          	addi	a0,sp,719
   1955e:	6585                	lui	a1,0x1
   19560:	34058593          	addi	a1,a1,832 # 1340 <.Lline_table_start1+0x1115>
   19564:	958a                	add	a1,a1,sp
   19566:	02d00613          	li	a2,45
   1956a:	00003097          	auipc	ra,0x3
   1956e:	7c6080e7          	jalr	1990(ra) # 1cd30 <memcpy>
   19572:	6505                	lui	a0,0x1
   19574:	39c50513          	addi	a0,a0,924 # 139c <.Lline_table_start1+0x1171>
   19578:	950a                	add	a0,a0,sp
   1957a:	05ac                	addi	a1,sp,712
   1957c:	ffffd097          	auipc	ra,0xffffd
   19580:	f16080e7          	jalr	-234(ra) # 16492 <_ZN18complex_no_dynamic3app17hb94f0ee9c937c4d9E>
   19584:	3ec94403          	lbu	s0,1004(s2)
   19588:	c401                	beqz	s0,19590 <_start+0x1320>
   1958a:	3f092983          	lw	s3,1008(s2)
   1958e:	a835                	j	195ca <_start+0x135a>
   19590:	3ee94503          	lbu	a0,1006(s2)
   19594:	3ed94583          	lbu	a1,1005(s2)
   19598:	3ef94603          	lbu	a2,1007(s2)
   1959c:	3f092983          	lw	s3,1008(s2)
   195a0:	0522                	slli	a0,a0,0x8
   195a2:	8d4d                	or	a0,a0,a1
   195a4:	02a11223          	sh	a0,36(sp)
   195a8:	02c10323          	sb	a2,38(sp)
   195ac:	6505                	lui	a0,0x1
   195ae:	3a450513          	addi	a0,a0,932 # 13a4 <.Lline_table_start1+0x1179>
   195b2:	00a105b3          	add	a1,sp,a0
   195b6:	6505                	lui	a0,0x1
   195b8:	34050513          	addi	a0,a0,832 # 1340 <.Lline_table_start1+0x1115>
   195bc:	950a                	add	a0,a0,sp
   195be:	02700613          	li	a2,39
   195c2:	00003097          	auipc	ra,0x3
   195c6:	76e080e7          	jalr	1902(ra) # 1cd30 <memcpy>
   195ca:	c019                	beqz	s0,195d0 <_start+0x1360>
   195cc:	6480306f          	j	1cc14 <_start+0x49a4>
   195d0:	02411503          	lh	a0,36(sp)
   195d4:	02614583          	lbu	a1,38(sp)
   195d8:	0189d613          	srli	a2,s3,0x18
   195dc:	0109d693          	srli	a3,s3,0x10
   195e0:	30d100a3          	sb	a3,769(sp)
   195e4:	30c10123          	sb	a2,770(sp)
   195e8:	0089d613          	srli	a2,s3,0x8
   195ec:	2ea11e23          	sh	a0,764(sp)
   195f0:	2eb10f23          	sb	a1,766(sp)
   195f4:	2f310fa3          	sb	s3,767(sp)
   195f8:	30c10023          	sb	a2,768(sp)
   195fc:	30310513          	addi	a0,sp,771
   19600:	6585                	lui	a1,0x1
   19602:	34058593          	addi	a1,a1,832 # 1340 <.Lline_table_start1+0x1115>
   19606:	958a                	add	a1,a1,sp
   19608:	02700613          	li	a2,39
   1960c:	00003097          	auipc	ra,0x3
   19610:	724080e7          	jalr	1828(ra) # 1cd30 <memcpy>
   19614:	6505                	lui	a0,0x1
   19616:	39c50513          	addi	a0,a0,924 # 139c <.Lline_table_start1+0x1171>
   1961a:	950a                	add	a0,a0,sp
   1961c:	1dec                	addi	a1,sp,764
   1961e:	ffffd097          	auipc	ra,0xffffd
   19622:	1fe080e7          	jalr	510(ra) # 1681c <_ZN18complex_no_dynamic3app17hbcb3b3d347f0cbb4E>
   19626:	3ec94403          	lbu	s0,1004(s2)
   1962a:	c401                	beqz	s0,19632 <_start+0x13c2>
   1962c:	3f092983          	lw	s3,1008(s2)
   19630:	a835                	j	1966c <_start+0x13fc>
   19632:	3ee94503          	lbu	a0,1006(s2)
   19636:	3ed94583          	lbu	a1,1005(s2)
   1963a:	3ef94603          	lbu	a2,1007(s2)
   1963e:	3f092983          	lw	s3,1008(s2)
   19642:	0522                	slli	a0,a0,0x8
   19644:	8d4d                	or	a0,a0,a1
   19646:	02a11223          	sh	a0,36(sp)
   1964a:	02c10323          	sb	a2,38(sp)
   1964e:	6505                	lui	a0,0x1
   19650:	3a450513          	addi	a0,a0,932 # 13a4 <.Lline_table_start1+0x1179>
   19654:	00a105b3          	add	a1,sp,a0
   19658:	6505                	lui	a0,0x1
   1965a:	34050513          	addi	a0,a0,832 # 1340 <.Lline_table_start1+0x1115>
   1965e:	950a                	add	a0,a0,sp
   19660:	03100613          	li	a2,49
   19664:	00003097          	auipc	ra,0x3
   19668:	6cc080e7          	jalr	1740(ra) # 1cd30 <memcpy>
   1966c:	c019                	beqz	s0,19672 <_start+0x1402>
   1966e:	5a60306f          	j	1cc14 <_start+0x49a4>
   19672:	02411503          	lh	a0,36(sp)
   19676:	02614583          	lbu	a1,38(sp)
   1967a:	0189d613          	srli	a2,s3,0x18
   1967e:	0109d693          	srli	a3,s3,0x10
   19682:	32d107a3          	sb	a3,815(sp)
   19686:	32c10823          	sb	a2,816(sp)
   1968a:	0089d613          	srli	a2,s3,0x8
   1968e:	32a11523          	sh	a0,810(sp)
   19692:	32b10623          	sb	a1,812(sp)
   19696:	333106a3          	sb	s3,813(sp)
   1969a:	32c10723          	sb	a2,814(sp)
   1969e:	33110513          	addi	a0,sp,817
   196a2:	6585                	lui	a1,0x1
   196a4:	34058593          	addi	a1,a1,832 # 1340 <.Lline_table_start1+0x1115>
   196a8:	958a                	add	a1,a1,sp
   196aa:	03100613          	li	a2,49
   196ae:	00003097          	auipc	ra,0x3
   196b2:	682080e7          	jalr	1666(ra) # 1cd30 <memcpy>
   196b6:	6505                	lui	a0,0x1
   196b8:	39c50513          	addi	a0,a0,924 # 139c <.Lline_table_start1+0x1171>
   196bc:	950a                	add	a0,a0,sp
   196be:	32a10593          	addi	a1,sp,810
   196c2:	ffffc097          	auipc	ra,0xffffc
   196c6:	75a080e7          	jalr	1882(ra) # 15e1c <_ZN18complex_no_dynamic3app17ha2bd7ee154cb6119E>
   196ca:	3ec94403          	lbu	s0,1004(s2)
   196ce:	c401                	beqz	s0,196d6 <_start+0x1466>
   196d0:	3f092983          	lw	s3,1008(s2)
   196d4:	a835                	j	19710 <_start+0x14a0>
   196d6:	3ee94503          	lbu	a0,1006(s2)
   196da:	3ed94583          	lbu	a1,1005(s2)
   196de:	3ef94603          	lbu	a2,1007(s2)
   196e2:	3f092983          	lw	s3,1008(s2)
   196e6:	0522                	slli	a0,a0,0x8
   196e8:	8d4d                	or	a0,a0,a1
   196ea:	02a11223          	sh	a0,36(sp)
   196ee:	02c10323          	sb	a2,38(sp)
   196f2:	6505                	lui	a0,0x1
   196f4:	3a450513          	addi	a0,a0,932 # 13a4 <.Lline_table_start1+0x1179>
   196f8:	00a105b3          	add	a1,sp,a0
   196fc:	6505                	lui	a0,0x1
   196fe:	34050513          	addi	a0,a0,832 # 1340 <.Lline_table_start1+0x1115>
   19702:	950a                	add	a0,a0,sp
   19704:	02d00613          	li	a2,45
   19708:	00003097          	auipc	ra,0x3
   1970c:	628080e7          	jalr	1576(ra) # 1cd30 <memcpy>
   19710:	c019                	beqz	s0,19716 <_start+0x14a6>
   19712:	5020306f          	j	1cc14 <_start+0x49a4>
   19716:	02411503          	lh	a0,36(sp)
   1971a:	02614583          	lbu	a1,38(sp)
   1971e:	0189d613          	srli	a2,s3,0x18
   19722:	0109d693          	srli	a3,s3,0x10
   19726:	36d103a3          	sb	a3,871(sp)
   1972a:	36c10423          	sb	a2,872(sp)
   1972e:	0089d613          	srli	a2,s3,0x8
   19732:	36a11123          	sh	a0,866(sp)
   19736:	36b10223          	sb	a1,868(sp)
   1973a:	373102a3          	sb	s3,869(sp)
   1973e:	36c10323          	sb	a2,870(sp)
   19742:	36910513          	addi	a0,sp,873
   19746:	6585                	lui	a1,0x1
   19748:	34058593          	addi	a1,a1,832 # 1340 <.Lline_table_start1+0x1115>
   1974c:	958a                	add	a1,a1,sp
   1974e:	02d00613          	li	a2,45
   19752:	00003097          	auipc	ra,0x3
   19756:	5de080e7          	jalr	1502(ra) # 1cd30 <memcpy>
   1975a:	6505                	lui	a0,0x1
   1975c:	39c50513          	addi	a0,a0,924 # 139c <.Lline_table_start1+0x1171>
   19760:	950a                	add	a0,a0,sp
   19762:	36210593          	addi	a1,sp,866
   19766:	ffffc097          	auipc	ra,0xffffc
   1976a:	180080e7          	jalr	384(ra) # 158e6 <_ZN18complex_no_dynamic3app17h93f0733766e9f8abE>
   1976e:	3ec94503          	lbu	a0,1004(s2)
   19772:	c501                	beqz	a0,1977a <_start+0x150a>
   19774:	3f092983          	lw	s3,1008(s2)
   19778:	a0b9                	j	197c6 <_start+0x1556>
   1977a:	3ed94583          	lbu	a1,1005(s2)
   1977e:	3ee94603          	lbu	a2,1006(s2)
   19782:	3ef94683          	lbu	a3,1007(s2)
   19786:	3f092983          	lw	s3,1008(s2)
   1978a:	3f492703          	lw	a4,1012(s2)
   1978e:	3f892783          	lw	a5,1016(s2)
   19792:	3fc92483          	lw	s1,1020(s2)
   19796:	40092403          	lw	s0,1024(s2)
   1979a:	0622                	slli	a2,a2,0x8
   1979c:	38e92823          	sw	a4,912(s2)
   197a0:	38f92a23          	sw	a5,916(s2)
   197a4:	38992c23          	sw	s1,920(s2)
   197a8:	38892e23          	sw	s0,924(s2)
   197ac:	8dd1                	or	a1,a1,a2
   197ae:	40491603          	lh	a2,1028(s2)
   197b2:	40694703          	lbu	a4,1030(s2)
   197b6:	02b11223          	sh	a1,36(sp)
   197ba:	02d10323          	sb	a3,38(sp)
   197be:	3ac91023          	sh	a2,928(s2)
   197c2:	3ae90123          	sb	a4,930(s2)
   197c6:	c119                	beqz	a0,197cc <_start+0x155c>
   197c8:	44c0306f          	j	1cc14 <_start+0x49a4>
   197cc:	02411503          	lh	a0,36(sp)
   197d0:	02614583          	lbu	a1,38(sp)
   197d4:	0189d613          	srli	a2,s3,0x18
   197d8:	0109d693          	srli	a3,s3,0x10
   197dc:	38d10da3          	sb	a3,923(sp)
   197e0:	38c10e23          	sb	a2,924(sp)
   197e4:	0089d613          	srli	a2,s3,0x8
   197e8:	38a11b23          	sh	a0,918(sp)
   197ec:	38b10c23          	sb	a1,920(sp)
   197f0:	39310ca3          	sb	s3,921(sp)
   197f4:	38c10d23          	sb	a2,922(sp)
   197f8:	39d10513          	addi	a0,sp,925
   197fc:	6585                	lui	a1,0x1
   197fe:	34058593          	addi	a1,a1,832 # 1340 <.Lline_table_start1+0x1115>
   19802:	958a                	add	a1,a1,sp
   19804:	464d                	li	a2,19
   19806:	00003097          	auipc	ra,0x3
   1980a:	52a080e7          	jalr	1322(ra) # 1cd30 <memcpy>
   1980e:	6505                	lui	a0,0x1
   19810:	39c50513          	addi	a0,a0,924 # 139c <.Lline_table_start1+0x1171>
   19814:	950a                	add	a0,a0,sp
   19816:	39610593          	addi	a1,sp,918
   1981a:	ffffd097          	auipc	ra,0xffffd
   1981e:	3c8080e7          	jalr	968(ra) # 16be2 <_ZN18complex_no_dynamic3app17hccca4f28bbf6c56aE>
   19822:	3ec94403          	lbu	s0,1004(s2)
   19826:	c401                	beqz	s0,1982e <_start+0x15be>
   19828:	3f092983          	lw	s3,1008(s2)
   1982c:	a835                	j	19868 <_start+0x15f8>
   1982e:	3ee94503          	lbu	a0,1006(s2)
   19832:	3ed94583          	lbu	a1,1005(s2)
   19836:	3ef94603          	lbu	a2,1007(s2)
   1983a:	3f092983          	lw	s3,1008(s2)
   1983e:	0522                	slli	a0,a0,0x8
   19840:	8d4d                	or	a0,a0,a1
   19842:	02a11223          	sh	a0,36(sp)
   19846:	02c10323          	sb	a2,38(sp)
   1984a:	6505                	lui	a0,0x1
   1984c:	3a450513          	addi	a0,a0,932 # 13a4 <.Lline_table_start1+0x1179>
   19850:	00a105b3          	add	a1,sp,a0
   19854:	6505                	lui	a0,0x1
   19856:	34050513          	addi	a0,a0,832 # 1340 <.Lline_table_start1+0x1115>
   1985a:	950a                	add	a0,a0,sp
   1985c:	04900613          	li	a2,73
   19860:	00003097          	auipc	ra,0x3
   19864:	4d0080e7          	jalr	1232(ra) # 1cd30 <memcpy>
   19868:	c019                	beqz	s0,1986e <_start+0x15fe>
   1986a:	3aa0306f          	j	1cc14 <_start+0x49a4>
   1986e:	02411503          	lh	a0,36(sp)
   19872:	02614583          	lbu	a1,38(sp)
   19876:	0189d613          	srli	a2,s3,0x18
   1987a:	0109d693          	srli	a3,s3,0x10
   1987e:	3ad10aa3          	sb	a3,949(sp)
   19882:	3ac10b23          	sb	a2,950(sp)
   19886:	0089d613          	srli	a2,s3,0x8
   1988a:	3aa11823          	sh	a0,944(sp)
   1988e:	3ab10923          	sb	a1,946(sp)
   19892:	3b3109a3          	sb	s3,947(sp)
   19896:	3ac10a23          	sb	a2,948(sp)
   1989a:	3b710513          	addi	a0,sp,951
   1989e:	6585                	lui	a1,0x1
   198a0:	34058593          	addi	a1,a1,832 # 1340 <.Lline_table_start1+0x1115>
   198a4:	958a                	add	a1,a1,sp
   198a6:	04900613          	li	a2,73
   198aa:	00003097          	auipc	ra,0x3
   198ae:	486080e7          	jalr	1158(ra) # 1cd30 <memcpy>
   198b2:	6505                	lui	a0,0x1
   198b4:	39c50513          	addi	a0,a0,924 # 139c <.Lline_table_start1+0x1171>
   198b8:	950a                	add	a0,a0,sp
   198ba:	1f0c                	addi	a1,sp,944
   198bc:	ffff8097          	auipc	ra,0xffff8
   198c0:	510080e7          	jalr	1296(ra) # 11dcc <_ZN18complex_no_dynamic3app17h1be2fa206cc94037E>
   198c4:	3ec94403          	lbu	s0,1004(s2)
   198c8:	c401                	beqz	s0,198d0 <_start+0x1660>
   198ca:	3f092983          	lw	s3,1008(s2)
   198ce:	a835                	j	1990a <_start+0x169a>
   198d0:	3ee94503          	lbu	a0,1006(s2)
   198d4:	3ed94583          	lbu	a1,1005(s2)
   198d8:	3ef94603          	lbu	a2,1007(s2)
   198dc:	3f092983          	lw	s3,1008(s2)
   198e0:	0522                	slli	a0,a0,0x8
   198e2:	8d4d                	or	a0,a0,a1
   198e4:	02a11223          	sh	a0,36(sp)
   198e8:	02c10323          	sb	a2,38(sp)
   198ec:	6505                	lui	a0,0x1
   198ee:	3a450513          	addi	a0,a0,932 # 13a4 <.Lline_table_start1+0x1179>
   198f2:	00a105b3          	add	a1,sp,a0
   198f6:	6505                	lui	a0,0x1
   198f8:	34050513          	addi	a0,a0,832 # 1340 <.Lline_table_start1+0x1115>
   198fc:	950a                	add	a0,a0,sp
   198fe:	03500613          	li	a2,53
   19902:	00003097          	auipc	ra,0x3
   19906:	42e080e7          	jalr	1070(ra) # 1cd30 <memcpy>
   1990a:	c019                	beqz	s0,19910 <_start+0x16a0>
   1990c:	3080306f          	j	1cc14 <_start+0x49a4>
   19910:	02411503          	lh	a0,36(sp)
   19914:	02614583          	lbu	a1,38(sp)
   19918:	0189d613          	srli	a2,s3,0x18
   1991c:	0109d693          	srli	a3,s3,0x10
   19920:	40d102a3          	sb	a3,1029(sp)
   19924:	40c10323          	sb	a2,1030(sp)
   19928:	0089d613          	srli	a2,s3,0x8
   1992c:	40a11023          	sh	a0,1024(sp)
   19930:	40b10123          	sb	a1,1026(sp)
   19934:	413101a3          	sb	s3,1027(sp)
   19938:	40c10223          	sb	a2,1028(sp)
   1993c:	40710513          	addi	a0,sp,1031
   19940:	6585                	lui	a1,0x1
   19942:	34058593          	addi	a1,a1,832 # 1340 <.Lline_table_start1+0x1115>
   19946:	958a                	add	a1,a1,sp
   19948:	03500613          	li	a2,53
   1994c:	00003097          	auipc	ra,0x3
   19950:	3e4080e7          	jalr	996(ra) # 1cd30 <memcpy>
   19954:	6505                	lui	a0,0x1
   19956:	39c50513          	addi	a0,a0,924 # 139c <.Lline_table_start1+0x1171>
   1995a:	950a                	add	a0,a0,sp
   1995c:	40010593          	addi	a1,sp,1024
   19960:	ffffc097          	auipc	ra,0xffffc
   19964:	3aa080e7          	jalr	938(ra) # 15d0a <_ZN18complex_no_dynamic3app17h9f5d600a9da64b1dE>
   19968:	3ec94403          	lbu	s0,1004(s2)
   1996c:	c401                	beqz	s0,19974 <_start+0x1704>
   1996e:	3f092983          	lw	s3,1008(s2)
   19972:	a835                	j	199ae <_start+0x173e>
   19974:	3ee94503          	lbu	a0,1006(s2)
   19978:	3ed94583          	lbu	a1,1005(s2)
   1997c:	3ef94603          	lbu	a2,1007(s2)
   19980:	3f092983          	lw	s3,1008(s2)
   19984:	0522                	slli	a0,a0,0x8
   19986:	8d4d                	or	a0,a0,a1
   19988:	02a11223          	sh	a0,36(sp)
   1998c:	02c10323          	sb	a2,38(sp)
   19990:	6505                	lui	a0,0x1
   19992:	3a450513          	addi	a0,a0,932 # 13a4 <.Lline_table_start1+0x1179>
   19996:	00a105b3          	add	a1,sp,a0
   1999a:	6505                	lui	a0,0x1
   1999c:	34050513          	addi	a0,a0,832 # 1340 <.Lline_table_start1+0x1115>
   199a0:	950a                	add	a0,a0,sp
   199a2:	02b00613          	li	a2,43
   199a6:	00003097          	auipc	ra,0x3
   199aa:	38a080e7          	jalr	906(ra) # 1cd30 <memcpy>
   199ae:	c019                	beqz	s0,199b4 <_start+0x1744>
   199b0:	2640306f          	j	1cc14 <_start+0x49a4>
   199b4:	02411503          	lh	a0,36(sp)
   199b8:	02614583          	lbu	a1,38(sp)
   199bc:	0189d613          	srli	a2,s3,0x18
   199c0:	0109d693          	srli	a3,s3,0x10
   199c4:	44d100a3          	sb	a3,1089(sp)
   199c8:	44c10123          	sb	a2,1090(sp)
   199cc:	0089d613          	srli	a2,s3,0x8
   199d0:	42a11e23          	sh	a0,1084(sp)
   199d4:	42b10f23          	sb	a1,1086(sp)
   199d8:	43310fa3          	sb	s3,1087(sp)
   199dc:	44c10023          	sb	a2,1088(sp)
   199e0:	44310513          	addi	a0,sp,1091
   199e4:	6585                	lui	a1,0x1
   199e6:	34058593          	addi	a1,a1,832 # 1340 <.Lline_table_start1+0x1115>
   199ea:	958a                	add	a1,a1,sp
   199ec:	02b00613          	li	a2,43
   199f0:	00003097          	auipc	ra,0x3
   199f4:	340080e7          	jalr	832(ra) # 1cd30 <memcpy>
   199f8:	6505                	lui	a0,0x1
   199fa:	39c50513          	addi	a0,a0,924 # 139c <.Lline_table_start1+0x1171>
   199fe:	950a                	add	a0,a0,sp
   19a00:	43c10593          	addi	a1,sp,1084
   19a04:	ffff8097          	auipc	ra,0xffff8
   19a08:	764080e7          	jalr	1892(ra) # 12168 <_ZN18complex_no_dynamic3app17h23394816b5b6cdecE>
   19a0c:	3ec94403          	lbu	s0,1004(s2)
   19a10:	c401                	beqz	s0,19a18 <_start+0x17a8>
   19a12:	3f092983          	lw	s3,1008(s2)
   19a16:	a835                	j	19a52 <_start+0x17e2>
   19a18:	3ee94503          	lbu	a0,1006(s2)
   19a1c:	3ed94583          	lbu	a1,1005(s2)
   19a20:	3ef94603          	lbu	a2,1007(s2)
   19a24:	3f092983          	lw	s3,1008(s2)
   19a28:	0522                	slli	a0,a0,0x8
   19a2a:	8d4d                	or	a0,a0,a1
   19a2c:	02a11223          	sh	a0,36(sp)
   19a30:	02c10323          	sb	a2,38(sp)
   19a34:	6505                	lui	a0,0x1
   19a36:	3a450513          	addi	a0,a0,932 # 13a4 <.Lline_table_start1+0x1179>
   19a3a:	00a105b3          	add	a1,sp,a0
   19a3e:	6505                	lui	a0,0x1
   19a40:	34050513          	addi	a0,a0,832 # 1340 <.Lline_table_start1+0x1115>
   19a44:	950a                	add	a0,a0,sp
   19a46:	02b00613          	li	a2,43
   19a4a:	00003097          	auipc	ra,0x3
   19a4e:	2e6080e7          	jalr	742(ra) # 1cd30 <memcpy>
   19a52:	c019                	beqz	s0,19a58 <_start+0x17e8>
   19a54:	1c00306f          	j	1cc14 <_start+0x49a4>
   19a58:	02411503          	lh	a0,36(sp)
   19a5c:	02614583          	lbu	a1,38(sp)
   19a60:	0189d613          	srli	a2,s3,0x18
   19a64:	0109d693          	srli	a3,s3,0x10
   19a68:	46d109a3          	sb	a3,1139(sp)
   19a6c:	46c10a23          	sb	a2,1140(sp)
   19a70:	0089d613          	srli	a2,s3,0x8
   19a74:	46a11723          	sh	a0,1134(sp)
   19a78:	46b10823          	sb	a1,1136(sp)
   19a7c:	473108a3          	sb	s3,1137(sp)
   19a80:	46c10923          	sb	a2,1138(sp)
   19a84:	47510513          	addi	a0,sp,1141
   19a88:	6585                	lui	a1,0x1
   19a8a:	34058593          	addi	a1,a1,832 # 1340 <.Lline_table_start1+0x1115>
   19a8e:	958a                	add	a1,a1,sp
   19a90:	02b00613          	li	a2,43
   19a94:	00003097          	auipc	ra,0x3
   19a98:	29c080e7          	jalr	668(ra) # 1cd30 <memcpy>
   19a9c:	6505                	lui	a0,0x1
   19a9e:	39c50513          	addi	a0,a0,924 # 139c <.Lline_table_start1+0x1171>
   19aa2:	950a                	add	a0,a0,sp
   19aa4:	46e10593          	addi	a1,sp,1134
   19aa8:	ffffc097          	auipc	ra,0xffffc
   19aac:	a16080e7          	jalr	-1514(ra) # 154be <_ZN18complex_no_dynamic3app17h8673c20c0653bfbbE>
   19ab0:	3ec94503          	lbu	a0,1004(s2)
   19ab4:	c501                	beqz	a0,19abc <_start+0x184c>
   19ab6:	3f092983          	lw	s3,1008(s2)
   19aba:	a81d                	j	19af0 <_start+0x1880>
   19abc:	3ee94583          	lbu	a1,1006(s2)
   19ac0:	3ed94603          	lbu	a2,1005(s2)
   19ac4:	3ef94683          	lbu	a3,1007(s2)
   19ac8:	3f092983          	lw	s3,1008(s2)
   19acc:	05a2                	slli	a1,a1,0x8
   19ace:	8dd1                	or	a1,a1,a2
   19ad0:	3f492603          	lw	a2,1012(s2)
   19ad4:	3f892703          	lw	a4,1016(s2)
   19ad8:	3fc94783          	lbu	a5,1020(s2)
   19adc:	02b11223          	sh	a1,36(sp)
   19ae0:	02d10323          	sb	a3,38(sp)
   19ae4:	38c92823          	sw	a2,912(s2)
   19ae8:	38e92a23          	sw	a4,916(s2)
   19aec:	38f90c23          	sb	a5,920(s2)
   19af0:	c119                	beqz	a0,19af6 <_start+0x1886>
   19af2:	1220306f          	j	1cc14 <_start+0x49a4>
   19af6:	02411503          	lh	a0,36(sp)
   19afa:	02614583          	lbu	a1,38(sp)
   19afe:	0189d613          	srli	a2,s3,0x18
   19b02:	0109d693          	srli	a3,s3,0x10
   19b06:	4ad102a3          	sb	a3,1189(sp)
   19b0a:	4ac10323          	sb	a2,1190(sp)
   19b0e:	0089d613          	srli	a2,s3,0x8
   19b12:	4aa11023          	sh	a0,1184(sp)
   19b16:	4ab10123          	sb	a1,1186(sp)
   19b1a:	4b3101a3          	sb	s3,1187(sp)
   19b1e:	4ac10223          	sb	a2,1188(sp)
   19b22:	4a710513          	addi	a0,sp,1191
   19b26:	6585                	lui	a1,0x1
   19b28:	34058593          	addi	a1,a1,832 # 1340 <.Lline_table_start1+0x1115>
   19b2c:	958a                	add	a1,a1,sp
   19b2e:	4625                	li	a2,9
   19b30:	00003097          	auipc	ra,0x3
   19b34:	200080e7          	jalr	512(ra) # 1cd30 <memcpy>
   19b38:	6505                	lui	a0,0x1
   19b3a:	39c50513          	addi	a0,a0,924 # 139c <.Lline_table_start1+0x1171>
   19b3e:	950a                	add	a0,a0,sp
   19b40:	4a010593          	addi	a1,sp,1184
   19b44:	ffff8097          	auipc	ra,0xffff8
   19b48:	390080e7          	jalr	912(ra) # 11ed4 <_ZN18complex_no_dynamic3app17h1eab622f3795dd49E>
   19b4c:	3ec94403          	lbu	s0,1004(s2)
   19b50:	c401                	beqz	s0,19b58 <_start+0x18e8>
   19b52:	3f092983          	lw	s3,1008(s2)
   19b56:	a835                	j	19b92 <_start+0x1922>
   19b58:	3ee94503          	lbu	a0,1006(s2)
   19b5c:	3ed94583          	lbu	a1,1005(s2)
   19b60:	3ef94603          	lbu	a2,1007(s2)
   19b64:	3f092983          	lw	s3,1008(s2)
   19b68:	0522                	slli	a0,a0,0x8
   19b6a:	8d4d                	or	a0,a0,a1
   19b6c:	02a11223          	sh	a0,36(sp)
   19b70:	02c10323          	sb	a2,38(sp)
   19b74:	6505                	lui	a0,0x1
   19b76:	3a450513          	addi	a0,a0,932 # 13a4 <.Lline_table_start1+0x1179>
   19b7a:	00a105b3          	add	a1,sp,a0
   19b7e:	6505                	lui	a0,0x1
   19b80:	34050513          	addi	a0,a0,832 # 1340 <.Lline_table_start1+0x1115>
   19b84:	950a                	add	a0,a0,sp
   19b86:	02f00613          	li	a2,47
   19b8a:	00003097          	auipc	ra,0x3
   19b8e:	1a6080e7          	jalr	422(ra) # 1cd30 <memcpy>
   19b92:	c019                	beqz	s0,19b98 <_start+0x1928>
   19b94:	0800306f          	j	1cc14 <_start+0x49a4>
   19b98:	02411503          	lh	a0,36(sp)
   19b9c:	02614583          	lbu	a1,38(sp)
   19ba0:	0189d613          	srli	a2,s3,0x18
   19ba4:	0109d693          	srli	a3,s3,0x10
   19ba8:	4ad10aa3          	sb	a3,1205(sp)
   19bac:	4ac10b23          	sb	a2,1206(sp)
   19bb0:	0089d613          	srli	a2,s3,0x8
   19bb4:	4aa11823          	sh	a0,1200(sp)
   19bb8:	4ab10923          	sb	a1,1202(sp)
   19bbc:	4b3109a3          	sb	s3,1203(sp)
   19bc0:	4ac10a23          	sb	a2,1204(sp)
   19bc4:	4b710513          	addi	a0,sp,1207
   19bc8:	6585                	lui	a1,0x1
   19bca:	34058593          	addi	a1,a1,832 # 1340 <.Lline_table_start1+0x1115>
   19bce:	958a                	add	a1,a1,sp
   19bd0:	02f00613          	li	a2,47
   19bd4:	00003097          	auipc	ra,0x3
   19bd8:	15c080e7          	jalr	348(ra) # 1cd30 <memcpy>
   19bdc:	6505                	lui	a0,0x1
   19bde:	39c50513          	addi	a0,a0,924 # 139c <.Lline_table_start1+0x1171>
   19be2:	950a                	add	a0,a0,sp
   19be4:	4b010593          	addi	a1,sp,1200
   19be8:	ffff8097          	auipc	ra,0xffff8
   19bec:	f00080e7          	jalr	-256(ra) # 11ae8 <_ZN18complex_no_dynamic3app17h11a91353a4cdd76cE>
   19bf0:	3ec94603          	lbu	a2,1004(s2)
   19bf4:	c601                	beqz	a2,19bfc <_start+0x198c>
   19bf6:	3f092983          	lw	s3,1008(s2)
   19bfa:	a01d                	j	19c20 <_start+0x19b0>
   19bfc:	3ed94683          	lbu	a3,1005(s2)
   19c00:	3ee94703          	lbu	a4,1006(s2)
   19c04:	3ef94783          	lbu	a5,1007(s2)
   19c08:	3f092983          	lw	s3,1008(s2)
   19c0c:	3f492583          	lw	a1,1012(s2)
   19c10:	3f892503          	lw	a0,1016(s2)
   19c14:	0722                	slli	a4,a4,0x8
   19c16:	8ed9                	or	a3,a3,a4
   19c18:	38d91823          	sh	a3,912(s2)
   19c1c:	38f90923          	sb	a5,914(s2)
   19c20:	c219                	beqz	a2,19c26 <_start+0x19b6>
   19c22:	7f30206f          	j	1cc14 <_start+0x49a4>
   19c26:	39091803          	lh	a6,912(s2)
   19c2a:	39294683          	lbu	a3,914(s2)
   19c2e:	0189d713          	srli	a4,s3,0x18
   19c32:	0109d793          	srli	a5,s3,0x10
   19c36:	0089d493          	srli	s1,s3,0x8
   19c3a:	0085d413          	srli	s0,a1,0x8
   19c3e:	01855613          	srli	a2,a0,0x18
   19c42:	4ef105a3          	sb	a5,1259(sp)
   19c46:	4ee10623          	sb	a4,1260(sp)
   19c4a:	4eb106a3          	sb	a1,1261(sp)
   19c4e:	4e810723          	sb	s0,1262(sp)
   19c52:	01055713          	srli	a4,a0,0x10
   19c56:	4ee109a3          	sb	a4,1267(sp)
   19c5a:	4ec10a23          	sb	a2,1268(sp)
   19c5e:	0185d613          	srli	a2,a1,0x18
   19c62:	81c1                	srli	a1,a1,0x10
   19c64:	4f011323          	sh	a6,1254(sp)
   19c68:	4ed10423          	sb	a3,1256(sp)
   19c6c:	4f3104a3          	sb	s3,1257(sp)
   19c70:	4e910523          	sb	s1,1258(sp)
   19c74:	00855693          	srli	a3,a0,0x8
   19c78:	4eb107a3          	sb	a1,1263(sp)
   19c7c:	4ec10823          	sb	a2,1264(sp)
   19c80:	4ea108a3          	sb	a0,1265(sp)
   19c84:	4ed10923          	sb	a3,1266(sp)
   19c88:	6505                	lui	a0,0x1
   19c8a:	39c50513          	addi	a0,a0,924 # 139c <.Lline_table_start1+0x1171>
   19c8e:	950a                	add	a0,a0,sp
   19c90:	4e610593          	addi	a1,sp,1254
   19c94:	ffff8097          	auipc	ra,0xffff8
   19c98:	6fa080e7          	jalr	1786(ra) # 1238e <_ZN18complex_no_dynamic3app17h26030cfe5cd24c52E>
   19c9c:	3ec94503          	lbu	a0,1004(s2)
   19ca0:	c501                	beqz	a0,19ca8 <_start+0x1a38>
   19ca2:	3f092983          	lw	s3,1008(s2)
   19ca6:	a81d                	j	19cdc <_start+0x1a6c>
   19ca8:	3ee94583          	lbu	a1,1006(s2)
   19cac:	3ed94603          	lbu	a2,1005(s2)
   19cb0:	3ef94683          	lbu	a3,1007(s2)
   19cb4:	3f092983          	lw	s3,1008(s2)
   19cb8:	05a2                	slli	a1,a1,0x8
   19cba:	8dd1                	or	a1,a1,a2
   19cbc:	3f492603          	lw	a2,1012(s2)
   19cc0:	3f892703          	lw	a4,1016(s2)
   19cc4:	3fc92783          	lw	a5,1020(s2)
   19cc8:	02b11223          	sh	a1,36(sp)
   19ccc:	02d10323          	sb	a3,38(sp)
   19cd0:	38c92823          	sw	a2,912(s2)
   19cd4:	38e92a23          	sw	a4,916(s2)
   19cd8:	38f92c23          	sw	a5,920(s2)
   19cdc:	c119                	beqz	a0,19ce2 <_start+0x1a72>
   19cde:	7370206f          	j	1cc14 <_start+0x49a4>
   19ce2:	02411503          	lh	a0,36(sp)
   19ce6:	02614583          	lbu	a1,38(sp)
   19cea:	0189d613          	srli	a2,s3,0x18
   19cee:	0109d693          	srli	a3,s3,0x10
   19cf2:	4ed10da3          	sb	a3,1275(sp)
   19cf6:	4ec10e23          	sb	a2,1276(sp)
   19cfa:	0089d613          	srli	a2,s3,0x8
   19cfe:	4ea11b23          	sh	a0,1270(sp)
   19d02:	4eb10c23          	sb	a1,1272(sp)
   19d06:	4f310ca3          	sb	s3,1273(sp)
   19d0a:	4ec10d23          	sb	a2,1274(sp)
   19d0e:	4fd10513          	addi	a0,sp,1277
   19d12:	6585                	lui	a1,0x1
   19d14:	34058593          	addi	a1,a1,832 # 1340 <.Lline_table_start1+0x1115>
   19d18:	958a                	add	a1,a1,sp
   19d1a:	4631                	li	a2,12
   19d1c:	00003097          	auipc	ra,0x3
   19d20:	014080e7          	jalr	20(ra) # 1cd30 <memcpy>
   19d24:	6505                	lui	a0,0x1
   19d26:	39c50513          	addi	a0,a0,924 # 139c <.Lline_table_start1+0x1171>
   19d2a:	950a                	add	a0,a0,sp
   19d2c:	4f610593          	addi	a1,sp,1270
   19d30:	ffffe097          	auipc	ra,0xffffe
   19d34:	2a8080e7          	jalr	680(ra) # 17fd8 <_ZN18complex_no_dynamic3app17hf826399cf1740debE>
   19d38:	3ec94403          	lbu	s0,1004(s2)
   19d3c:	c401                	beqz	s0,19d44 <_start+0x1ad4>
   19d3e:	3f092983          	lw	s3,1008(s2)
   19d42:	a835                	j	19d7e <_start+0x1b0e>
   19d44:	3ee94503          	lbu	a0,1006(s2)
   19d48:	3ed94583          	lbu	a1,1005(s2)
   19d4c:	3ef94603          	lbu	a2,1007(s2)
   19d50:	3f092983          	lw	s3,1008(s2)
   19d54:	0522                	slli	a0,a0,0x8
   19d56:	8d4d                	or	a0,a0,a1
   19d58:	02a11223          	sh	a0,36(sp)
   19d5c:	02c10323          	sb	a2,38(sp)
   19d60:	6505                	lui	a0,0x1
   19d62:	3a450513          	addi	a0,a0,932 # 13a4 <.Lline_table_start1+0x1179>
   19d66:	00a105b3          	add	a1,sp,a0
   19d6a:	6505                	lui	a0,0x1
   19d6c:	34050513          	addi	a0,a0,832 # 1340 <.Lline_table_start1+0x1115>
   19d70:	950a                	add	a0,a0,sp
   19d72:	04e00613          	li	a2,78
   19d76:	00003097          	auipc	ra,0x3
   19d7a:	fba080e7          	jalr	-70(ra) # 1cd30 <memcpy>
   19d7e:	c019                	beqz	s0,19d84 <_start+0x1b14>
   19d80:	6950206f          	j	1cc14 <_start+0x49a4>
   19d84:	02411503          	lh	a0,36(sp)
   19d88:	02614583          	lbu	a1,38(sp)
   19d8c:	0189d613          	srli	a2,s3,0x18
   19d90:	0109d693          	srli	a3,s3,0x10
   19d94:	50d107a3          	sb	a3,1295(sp)
   19d98:	50c10823          	sb	a2,1296(sp)
   19d9c:	0089d613          	srli	a2,s3,0x8
   19da0:	50a11523          	sh	a0,1290(sp)
   19da4:	50b10623          	sb	a1,1292(sp)
   19da8:	513106a3          	sb	s3,1293(sp)
   19dac:	50c10723          	sb	a2,1294(sp)
   19db0:	51110513          	addi	a0,sp,1297
   19db4:	6585                	lui	a1,0x1
   19db6:	34058593          	addi	a1,a1,832 # 1340 <.Lline_table_start1+0x1115>
   19dba:	958a                	add	a1,a1,sp
   19dbc:	04e00613          	li	a2,78
   19dc0:	00003097          	auipc	ra,0x3
   19dc4:	f70080e7          	jalr	-144(ra) # 1cd30 <memcpy>
   19dc8:	6505                	lui	a0,0x1
   19dca:	39c50513          	addi	a0,a0,924 # 139c <.Lline_table_start1+0x1171>
   19dce:	950a                	add	a0,a0,sp
   19dd0:	50a10593          	addi	a1,sp,1290
   19dd4:	ffffb097          	auipc	ra,0xffffb
   19dd8:	e64080e7          	jalr	-412(ra) # 14c38 <_ZN18complex_no_dynamic3app17h64a1fbca1a426320E>
   19ddc:	3ec94403          	lbu	s0,1004(s2)
   19de0:	c401                	beqz	s0,19de8 <_start+0x1b78>
   19de2:	3f092983          	lw	s3,1008(s2)
   19de6:	a835                	j	19e22 <_start+0x1bb2>
   19de8:	3ee94503          	lbu	a0,1006(s2)
   19dec:	3ed94583          	lbu	a1,1005(s2)
   19df0:	3ef94603          	lbu	a2,1007(s2)
   19df4:	3f092983          	lw	s3,1008(s2)
   19df8:	0522                	slli	a0,a0,0x8
   19dfa:	8d4d                	or	a0,a0,a1
   19dfc:	02a11223          	sh	a0,36(sp)
   19e00:	02c10323          	sb	a2,38(sp)
   19e04:	6505                	lui	a0,0x1
   19e06:	3a450513          	addi	a0,a0,932 # 13a4 <.Lline_table_start1+0x1179>
   19e0a:	00a105b3          	add	a1,sp,a0
   19e0e:	6505                	lui	a0,0x1
   19e10:	34050513          	addi	a0,a0,832 # 1340 <.Lline_table_start1+0x1115>
   19e14:	950a                	add	a0,a0,sp
   19e16:	02b00613          	li	a2,43
   19e1a:	00003097          	auipc	ra,0x3
   19e1e:	f16080e7          	jalr	-234(ra) # 1cd30 <memcpy>
   19e22:	c019                	beqz	s0,19e28 <_start+0x1bb8>
   19e24:	5f10206f          	j	1cc14 <_start+0x49a4>
   19e28:	02411503          	lh	a0,36(sp)
   19e2c:	02614583          	lbu	a1,38(sp)
   19e30:	0189d613          	srli	a2,s3,0x18
   19e34:	0109d693          	srli	a3,s3,0x10
   19e38:	56d102a3          	sb	a3,1381(sp)
   19e3c:	56c10323          	sb	a2,1382(sp)
   19e40:	0089d613          	srli	a2,s3,0x8
   19e44:	56a11023          	sh	a0,1376(sp)
   19e48:	56b10123          	sb	a1,1378(sp)
   19e4c:	573101a3          	sb	s3,1379(sp)
   19e50:	56c10223          	sb	a2,1380(sp)
   19e54:	56710513          	addi	a0,sp,1383
   19e58:	6585                	lui	a1,0x1
   19e5a:	34058593          	addi	a1,a1,832 # 1340 <.Lline_table_start1+0x1115>
   19e5e:	958a                	add	a1,a1,sp
   19e60:	02b00613          	li	a2,43
   19e64:	00003097          	auipc	ra,0x3
   19e68:	ecc080e7          	jalr	-308(ra) # 1cd30 <memcpy>
   19e6c:	6505                	lui	a0,0x1
   19e6e:	39c50513          	addi	a0,a0,924 # 139c <.Lline_table_start1+0x1171>
   19e72:	950a                	add	a0,a0,sp
   19e74:	56010593          	addi	a1,sp,1376
   19e78:	ffff9097          	auipc	ra,0xffff9
   19e7c:	d22080e7          	jalr	-734(ra) # 12b9a <_ZN18complex_no_dynamic3app17h2e1b9dc162fa9eadE>
   19e80:	3ec94403          	lbu	s0,1004(s2)
   19e84:	c401                	beqz	s0,19e8c <_start+0x1c1c>
   19e86:	3f092983          	lw	s3,1008(s2)
   19e8a:	a835                	j	19ec6 <_start+0x1c56>
   19e8c:	3ee94503          	lbu	a0,1006(s2)
   19e90:	3ed94583          	lbu	a1,1005(s2)
   19e94:	3ef94603          	lbu	a2,1007(s2)
   19e98:	3f092983          	lw	s3,1008(s2)
   19e9c:	0522                	slli	a0,a0,0x8
   19e9e:	8d4d                	or	a0,a0,a1
   19ea0:	02a11223          	sh	a0,36(sp)
   19ea4:	02c10323          	sb	a2,38(sp)
   19ea8:	6505                	lui	a0,0x1
   19eaa:	3a450513          	addi	a0,a0,932 # 13a4 <.Lline_table_start1+0x1179>
   19eae:	00a105b3          	add	a1,sp,a0
   19eb2:	6505                	lui	a0,0x1
   19eb4:	34050513          	addi	a0,a0,832 # 1340 <.Lline_table_start1+0x1115>
   19eb8:	950a                	add	a0,a0,sp
   19eba:	03a00613          	li	a2,58
   19ebe:	00003097          	auipc	ra,0x3
   19ec2:	e72080e7          	jalr	-398(ra) # 1cd30 <memcpy>
   19ec6:	c019                	beqz	s0,19ecc <_start+0x1c5c>
   19ec8:	54d0206f          	j	1cc14 <_start+0x49a4>
   19ecc:	02411503          	lh	a0,36(sp)
   19ed0:	02614583          	lbu	a1,38(sp)
   19ed4:	0189d613          	srli	a2,s3,0x18
   19ed8:	0109d693          	srli	a3,s3,0x10
   19edc:	58d10ba3          	sb	a3,1431(sp)
   19ee0:	58c10c23          	sb	a2,1432(sp)
   19ee4:	0089d613          	srli	a2,s3,0x8
   19ee8:	58a11923          	sh	a0,1426(sp)
   19eec:	58b10a23          	sb	a1,1428(sp)
   19ef0:	59310aa3          	sb	s3,1429(sp)
   19ef4:	58c10b23          	sb	a2,1430(sp)
   19ef8:	59910513          	addi	a0,sp,1433
   19efc:	6585                	lui	a1,0x1
   19efe:	34058593          	addi	a1,a1,832 # 1340 <.Lline_table_start1+0x1115>
   19f02:	958a                	add	a1,a1,sp
   19f04:	03a00613          	li	a2,58
   19f08:	00003097          	auipc	ra,0x3
   19f0c:	e28080e7          	jalr	-472(ra) # 1cd30 <memcpy>
   19f10:	6505                	lui	a0,0x1
   19f12:	39c50513          	addi	a0,a0,924 # 139c <.Lline_table_start1+0x1171>
   19f16:	950a                	add	a0,a0,sp
   19f18:	59210593          	addi	a1,sp,1426
   19f1c:	ffffb097          	auipc	ra,0xffffb
   19f20:	9f0080e7          	jalr	-1552(ra) # 1490c <_ZN18complex_no_dynamic3app17h5b6bd74a06ecadeeE>
   19f24:	3ec94503          	lbu	a0,1004(s2)
   19f28:	c501                	beqz	a0,19f30 <_start+0x1cc0>
   19f2a:	3f092983          	lw	s3,1008(s2)
   19f2e:	a8b9                	j	19f8c <_start+0x1d1c>
   19f30:	3ed94583          	lbu	a1,1005(s2)
   19f34:	3ee94603          	lbu	a2,1006(s2)
   19f38:	3ef94683          	lbu	a3,1007(s2)
   19f3c:	3f092983          	lw	s3,1008(s2)
   19f40:	3f492703          	lw	a4,1012(s2)
   19f44:	3f892783          	lw	a5,1016(s2)
   19f48:	3fc92483          	lw	s1,1020(s2)
   19f4c:	40092403          	lw	s0,1024(s2)
   19f50:	0622                	slli	a2,a2,0x8
   19f52:	38e92823          	sw	a4,912(s2)
   19f56:	38f92a23          	sw	a5,916(s2)
   19f5a:	38992c23          	sw	s1,920(s2)
   19f5e:	38892e23          	sw	s0,924(s2)
   19f62:	8dd1                	or	a1,a1,a2
   19f64:	02b11223          	sh	a1,36(sp)
   19f68:	02d10323          	sb	a3,38(sp)
   19f6c:	40492583          	lw	a1,1028(s2)
   19f70:	40892603          	lw	a2,1032(s2)
   19f74:	40c91683          	lh	a3,1036(s2)
   19f78:	40e94703          	lbu	a4,1038(s2)
   19f7c:	3ab92023          	sw	a1,928(s2)
   19f80:	3ac92223          	sw	a2,932(s2)
   19f84:	3ad91423          	sh	a3,936(s2)
   19f88:	3ae90523          	sb	a4,938(s2)
   19f8c:	c119                	beqz	a0,19f92 <_start+0x1d22>
   19f8e:	4870206f          	j	1cc14 <_start+0x49a4>
   19f92:	02411503          	lh	a0,36(sp)
   19f96:	02614583          	lbu	a1,38(sp)
   19f9a:	0189d613          	srli	a2,s3,0x18
   19f9e:	0109d693          	srli	a3,s3,0x10
   19fa2:	5cd10ca3          	sb	a3,1497(sp)
   19fa6:	5cc10d23          	sb	a2,1498(sp)
   19faa:	0089d613          	srli	a2,s3,0x8
   19fae:	5ca11a23          	sh	a0,1492(sp)
   19fb2:	5cb10b23          	sb	a1,1494(sp)
   19fb6:	5d310ba3          	sb	s3,1495(sp)
   19fba:	5cc10c23          	sb	a2,1496(sp)
   19fbe:	5db10513          	addi	a0,sp,1499
   19fc2:	6585                	lui	a1,0x1
   19fc4:	34058593          	addi	a1,a1,832 # 1340 <.Lline_table_start1+0x1115>
   19fc8:	958a                	add	a1,a1,sp
   19fca:	466d                	li	a2,27
   19fcc:	00003097          	auipc	ra,0x3
   19fd0:	d64080e7          	jalr	-668(ra) # 1cd30 <memcpy>
   19fd4:	6505                	lui	a0,0x1
   19fd6:	39c50513          	addi	a0,a0,924 # 139c <.Lline_table_start1+0x1171>
   19fda:	950a                	add	a0,a0,sp
   19fdc:	5d410593          	addi	a1,sp,1492
   19fe0:	ffffd097          	auipc	ra,0xffffd
   19fe4:	ee0080e7          	jalr	-288(ra) # 16ec0 <_ZN18complex_no_dynamic3app17hcf3299c9741de56eE>
   19fe8:	3ec94403          	lbu	s0,1004(s2)
   19fec:	c401                	beqz	s0,19ff4 <_start+0x1d84>
   19fee:	3f092983          	lw	s3,1008(s2)
   19ff2:	a835                	j	1a02e <_start+0x1dbe>
   19ff4:	3ee94503          	lbu	a0,1006(s2)
   19ff8:	3ed94583          	lbu	a1,1005(s2)
   19ffc:	3ef94603          	lbu	a2,1007(s2)
   1a000:	3f092983          	lw	s3,1008(s2)
   1a004:	0522                	slli	a0,a0,0x8
   1a006:	8d4d                	or	a0,a0,a1
   1a008:	02a11223          	sh	a0,36(sp)
   1a00c:	02c10323          	sb	a2,38(sp)
   1a010:	6505                	lui	a0,0x1
   1a012:	3a450513          	addi	a0,a0,932 # 13a4 <.Lline_table_start1+0x1179>
   1a016:	00a105b3          	add	a1,sp,a0
   1a01a:	6505                	lui	a0,0x1
   1a01c:	34050513          	addi	a0,a0,832 # 1340 <.Lline_table_start1+0x1115>
   1a020:	950a                	add	a0,a0,sp
   1a022:	04a00613          	li	a2,74
   1a026:	00003097          	auipc	ra,0x3
   1a02a:	d0a080e7          	jalr	-758(ra) # 1cd30 <memcpy>
   1a02e:	c019                	beqz	s0,1a034 <_start+0x1dc4>
   1a030:	3e50206f          	j	1cc14 <_start+0x49a4>
   1a034:	02411503          	lh	a0,36(sp)
   1a038:	02614583          	lbu	a1,38(sp)
   1a03c:	0189d613          	srli	a2,s3,0x18
   1a040:	0109d693          	srli	a3,s3,0x10
   1a044:	5ed10da3          	sb	a3,1531(sp)
   1a048:	5ec10e23          	sb	a2,1532(sp)
   1a04c:	0089d613          	srli	a2,s3,0x8
   1a050:	5ea11b23          	sh	a0,1526(sp)
   1a054:	5eb10c23          	sb	a1,1528(sp)
   1a058:	5f310ca3          	sb	s3,1529(sp)
   1a05c:	5ec10d23          	sb	a2,1530(sp)
   1a060:	5fd10513          	addi	a0,sp,1533
   1a064:	6585                	lui	a1,0x1
   1a066:	34058593          	addi	a1,a1,832 # 1340 <.Lline_table_start1+0x1115>
   1a06a:	958a                	add	a1,a1,sp
   1a06c:	04a00613          	li	a2,74
   1a070:	00003097          	auipc	ra,0x3
   1a074:	cc0080e7          	jalr	-832(ra) # 1cd30 <memcpy>
   1a078:	6505                	lui	a0,0x1
   1a07a:	39c50513          	addi	a0,a0,924 # 139c <.Lline_table_start1+0x1171>
   1a07e:	950a                	add	a0,a0,sp
   1a080:	5f610593          	addi	a1,sp,1526
   1a084:	ffff9097          	auipc	ra,0xffff9
   1a088:	7c2080e7          	jalr	1986(ra) # 13846 <_ZN18complex_no_dynamic3app17h3b7a1019c59931afE>
   1a08c:	3ec94403          	lbu	s0,1004(s2)
   1a090:	c401                	beqz	s0,1a098 <_start+0x1e28>
   1a092:	3f092983          	lw	s3,1008(s2)
   1a096:	a835                	j	1a0d2 <_start+0x1e62>
   1a098:	3ee94503          	lbu	a0,1006(s2)
   1a09c:	3ed94583          	lbu	a1,1005(s2)
   1a0a0:	3ef94603          	lbu	a2,1007(s2)
   1a0a4:	3f092983          	lw	s3,1008(s2)
   1a0a8:	0522                	slli	a0,a0,0x8
   1a0aa:	8d4d                	or	a0,a0,a1
   1a0ac:	02a11223          	sh	a0,36(sp)
   1a0b0:	02c10323          	sb	a2,38(sp)
   1a0b4:	6505                	lui	a0,0x1
   1a0b6:	3a450513          	addi	a0,a0,932 # 13a4 <.Lline_table_start1+0x1179>
   1a0ba:	00a105b3          	add	a1,sp,a0
   1a0be:	6505                	lui	a0,0x1
   1a0c0:	34050513          	addi	a0,a0,832 # 1340 <.Lline_table_start1+0x1115>
   1a0c4:	950a                	add	a0,a0,sp
   1a0c6:	04800613          	li	a2,72
   1a0ca:	00003097          	auipc	ra,0x3
   1a0ce:	c66080e7          	jalr	-922(ra) # 1cd30 <memcpy>
   1a0d2:	c019                	beqz	s0,1a0d8 <_start+0x1e68>
   1a0d4:	3410206f          	j	1cc14 <_start+0x49a4>
   1a0d8:	02411503          	lh	a0,36(sp)
   1a0dc:	02614583          	lbu	a1,38(sp)
   1a0e0:	0189d613          	srli	a2,s3,0x18
   1a0e4:	0109d693          	srli	a3,s3,0x10
   1a0e8:	64d106a3          	sb	a3,1613(sp)
   1a0ec:	64c10723          	sb	a2,1614(sp)
   1a0f0:	0089d613          	srli	a2,s3,0x8
   1a0f4:	64a11423          	sh	a0,1608(sp)
   1a0f8:	64b10523          	sb	a1,1610(sp)
   1a0fc:	653105a3          	sb	s3,1611(sp)
   1a100:	64c10623          	sb	a2,1612(sp)
   1a104:	64f10513          	addi	a0,sp,1615
   1a108:	6585                	lui	a1,0x1
   1a10a:	34058593          	addi	a1,a1,832 # 1340 <.Lline_table_start1+0x1115>
   1a10e:	958a                	add	a1,a1,sp
   1a110:	04800613          	li	a2,72
   1a114:	00003097          	auipc	ra,0x3
   1a118:	c1c080e7          	jalr	-996(ra) # 1cd30 <memcpy>
   1a11c:	6505                	lui	a0,0x1
   1a11e:	39c50513          	addi	a0,a0,924 # 139c <.Lline_table_start1+0x1171>
   1a122:	950a                	add	a0,a0,sp
   1a124:	64810593          	addi	a1,sp,1608
   1a128:	ffffa097          	auipc	ra,0xffffa
   1a12c:	40a080e7          	jalr	1034(ra) # 14532 <_ZN18complex_no_dynamic3app17h534a026d65b642abE>
   1a130:	3ec94403          	lbu	s0,1004(s2)
   1a134:	c401                	beqz	s0,1a13c <_start+0x1ecc>
   1a136:	3f092983          	lw	s3,1008(s2)
   1a13a:	a835                	j	1a176 <_start+0x1f06>
   1a13c:	3ee94503          	lbu	a0,1006(s2)
   1a140:	3ed94583          	lbu	a1,1005(s2)
   1a144:	3ef94603          	lbu	a2,1007(s2)
   1a148:	3f092983          	lw	s3,1008(s2)
   1a14c:	0522                	slli	a0,a0,0x8
   1a14e:	8d4d                	or	a0,a0,a1
   1a150:	02a11223          	sh	a0,36(sp)
   1a154:	02c10323          	sb	a2,38(sp)
   1a158:	6505                	lui	a0,0x1
   1a15a:	3a450513          	addi	a0,a0,932 # 13a4 <.Lline_table_start1+0x1179>
   1a15e:	00a105b3          	add	a1,sp,a0
   1a162:	6505                	lui	a0,0x1
   1a164:	34050513          	addi	a0,a0,832 # 1340 <.Lline_table_start1+0x1115>
   1a168:	950a                	add	a0,a0,sp
   1a16a:	03400613          	li	a2,52
   1a16e:	00003097          	auipc	ra,0x3
   1a172:	bc2080e7          	jalr	-1086(ra) # 1cd30 <memcpy>
   1a176:	c019                	beqz	s0,1a17c <_start+0x1f0c>
   1a178:	29d0206f          	j	1cc14 <_start+0x49a4>
   1a17c:	02411503          	lh	a0,36(sp)
   1a180:	02614583          	lbu	a1,38(sp)
   1a184:	0189d613          	srli	a2,s3,0x18
   1a188:	0109d693          	srli	a3,s3,0x10
   1a18c:	68d10ea3          	sb	a3,1693(sp)
   1a190:	68c10f23          	sb	a2,1694(sp)
   1a194:	0089d613          	srli	a2,s3,0x8
   1a198:	68a11c23          	sh	a0,1688(sp)
   1a19c:	68b10d23          	sb	a1,1690(sp)
   1a1a0:	69310da3          	sb	s3,1691(sp)
   1a1a4:	68c10e23          	sb	a2,1692(sp)
   1a1a8:	69f10513          	addi	a0,sp,1695
   1a1ac:	6585                	lui	a1,0x1
   1a1ae:	34058593          	addi	a1,a1,832 # 1340 <.Lline_table_start1+0x1115>
   1a1b2:	958a                	add	a1,a1,sp
   1a1b4:	03400613          	li	a2,52
   1a1b8:	00003097          	auipc	ra,0x3
   1a1bc:	b78080e7          	jalr	-1160(ra) # 1cd30 <memcpy>
   1a1c0:	6505                	lui	a0,0x1
   1a1c2:	39c50513          	addi	a0,a0,924 # 139c <.Lline_table_start1+0x1171>
   1a1c6:	950a                	add	a0,a0,sp
   1a1c8:	69810593          	addi	a1,sp,1688
   1a1cc:	ffffb097          	auipc	ra,0xffffb
   1a1d0:	fca080e7          	jalr	-54(ra) # 15196 <_ZN18complex_no_dynamic3app17h7836111cedd7a282E>
   1a1d4:	3ec94503          	lbu	a0,1004(s2)
   1a1d8:	c501                	beqz	a0,1a1e0 <_start+0x1f70>
   1a1da:	3f092983          	lw	s3,1008(s2)
   1a1de:	a8b9                	j	1a23c <_start+0x1fcc>
   1a1e0:	3ed94583          	lbu	a1,1005(s2)
   1a1e4:	3ee94603          	lbu	a2,1006(s2)
   1a1e8:	3ef94683          	lbu	a3,1007(s2)
   1a1ec:	3f092983          	lw	s3,1008(s2)
   1a1f0:	3f492703          	lw	a4,1012(s2)
   1a1f4:	3f892783          	lw	a5,1016(s2)
   1a1f8:	3fc92483          	lw	s1,1020(s2)
   1a1fc:	40092403          	lw	s0,1024(s2)
   1a200:	0622                	slli	a2,a2,0x8
   1a202:	38e92823          	sw	a4,912(s2)
   1a206:	38f92a23          	sw	a5,916(s2)
   1a20a:	38992c23          	sw	s1,920(s2)
   1a20e:	38892e23          	sw	s0,924(s2)
   1a212:	8dd1                	or	a1,a1,a2
   1a214:	02b11223          	sh	a1,36(sp)
   1a218:	02d10323          	sb	a3,38(sp)
   1a21c:	40492583          	lw	a1,1028(s2)
   1a220:	40892603          	lw	a2,1032(s2)
   1a224:	40c92683          	lw	a3,1036(s2)
   1a228:	41092703          	lw	a4,1040(s2)
   1a22c:	3ab92023          	sw	a1,928(s2)
   1a230:	3ac92223          	sw	a2,932(s2)
   1a234:	3ad92423          	sw	a3,936(s2)
   1a238:	3ae92623          	sw	a4,940(s2)
   1a23c:	c119                	beqz	a0,1a242 <_start+0x1fd2>
   1a23e:	1d70206f          	j	1cc14 <_start+0x49a4>
   1a242:	02411503          	lh	a0,36(sp)
   1a246:	02614583          	lbu	a1,38(sp)
   1a24a:	0189d613          	srli	a2,s3,0x18
   1a24e:	0109d693          	srli	a3,s3,0x10
   1a252:	6cd10ca3          	sb	a3,1753(sp)
   1a256:	6cc10d23          	sb	a2,1754(sp)
   1a25a:	0089d613          	srli	a2,s3,0x8
   1a25e:	6ca11a23          	sh	a0,1748(sp)
   1a262:	6cb10b23          	sb	a1,1750(sp)
   1a266:	6d310ba3          	sb	s3,1751(sp)
   1a26a:	6cc10c23          	sb	a2,1752(sp)
   1a26e:	6db10513          	addi	a0,sp,1755
   1a272:	6585                	lui	a1,0x1
   1a274:	34058593          	addi	a1,a1,832 # 1340 <.Lline_table_start1+0x1115>
   1a278:	958a                	add	a1,a1,sp
   1a27a:	02000613          	li	a2,32
   1a27e:	00003097          	auipc	ra,0x3
   1a282:	ab2080e7          	jalr	-1358(ra) # 1cd30 <memcpy>
   1a286:	6505                	lui	a0,0x1
   1a288:	39c50513          	addi	a0,a0,924 # 139c <.Lline_table_start1+0x1171>
   1a28c:	950a                	add	a0,a0,sp
   1a28e:	6d410593          	addi	a1,sp,1748
   1a292:	ffffd097          	auipc	ra,0xffffd
   1a296:	b2c080e7          	jalr	-1236(ra) # 16dbe <_ZN18complex_no_dynamic3app17hccf85bd8f852812eE>
   1a29a:	3ec94503          	lbu	a0,1004(s2)
   1a29e:	c501                	beqz	a0,1a2a6 <_start+0x2036>
   1a2a0:	3f092983          	lw	s3,1008(s2)
   1a2a4:	a83d                	j	1a2e2 <_start+0x2072>
   1a2a6:	3ee94583          	lbu	a1,1006(s2)
   1a2aa:	3ed94603          	lbu	a2,1005(s2)
   1a2ae:	3ef94683          	lbu	a3,1007(s2)
   1a2b2:	3f092983          	lw	s3,1008(s2)
   1a2b6:	05a2                	slli	a1,a1,0x8
   1a2b8:	8dd1                	or	a1,a1,a2
   1a2ba:	02b11223          	sh	a1,36(sp)
   1a2be:	02d10323          	sb	a3,38(sp)
   1a2c2:	3f492583          	lw	a1,1012(s2)
   1a2c6:	3f892603          	lw	a2,1016(s2)
   1a2ca:	3fc92683          	lw	a3,1020(s2)
   1a2ce:	40094703          	lbu	a4,1024(s2)
   1a2d2:	38b92823          	sw	a1,912(s2)
   1a2d6:	38c92a23          	sw	a2,916(s2)
   1a2da:	38d92c23          	sw	a3,920(s2)
   1a2de:	38e90e23          	sb	a4,924(s2)
   1a2e2:	c119                	beqz	a0,1a2e8 <_start+0x2078>
   1a2e4:	1310206f          	j	1cc14 <_start+0x49a4>
   1a2e8:	02411503          	lh	a0,36(sp)
   1a2ec:	02614583          	lbu	a1,38(sp)
   1a2f0:	0189d613          	srli	a2,s3,0x18
   1a2f4:	0109d693          	srli	a3,s3,0x10
   1a2f8:	70d100a3          	sb	a3,1793(sp)
   1a2fc:	70c10123          	sb	a2,1794(sp)
   1a300:	0089d613          	srli	a2,s3,0x8
   1a304:	6ea11e23          	sh	a0,1788(sp)
   1a308:	6eb10f23          	sb	a1,1790(sp)
   1a30c:	6f310fa3          	sb	s3,1791(sp)
   1a310:	70c10023          	sb	a2,1792(sp)
   1a314:	70310513          	addi	a0,sp,1795
   1a318:	6585                	lui	a1,0x1
   1a31a:	34058593          	addi	a1,a1,832 # 1340 <.Lline_table_start1+0x1115>
   1a31e:	958a                	add	a1,a1,sp
   1a320:	4635                	li	a2,13
   1a322:	00003097          	auipc	ra,0x3
   1a326:	a0e080e7          	jalr	-1522(ra) # 1cd30 <memcpy>
   1a32a:	6505                	lui	a0,0x1
   1a32c:	39c50513          	addi	a0,a0,924 # 139c <.Lline_table_start1+0x1171>
   1a330:	950a                	add	a0,a0,sp
   1a332:	6fc10593          	addi	a1,sp,1788
   1a336:	ffffc097          	auipc	ra,0xffffc
   1a33a:	704080e7          	jalr	1796(ra) # 16a3a <_ZN18complex_no_dynamic3app17hccbe9bc6e32f40e6E>
   1a33e:	3ec94403          	lbu	s0,1004(s2)
   1a342:	c401                	beqz	s0,1a34a <_start+0x20da>
   1a344:	3f092983          	lw	s3,1008(s2)
   1a348:	a835                	j	1a384 <_start+0x2114>
   1a34a:	3ee94503          	lbu	a0,1006(s2)
   1a34e:	3ed94583          	lbu	a1,1005(s2)
   1a352:	3ef94603          	lbu	a2,1007(s2)
   1a356:	3f092983          	lw	s3,1008(s2)
   1a35a:	0522                	slli	a0,a0,0x8
   1a35c:	8d4d                	or	a0,a0,a1
   1a35e:	02a11223          	sh	a0,36(sp)
   1a362:	02c10323          	sb	a2,38(sp)
   1a366:	6505                	lui	a0,0x1
   1a368:	3a450513          	addi	a0,a0,932 # 13a4 <.Lline_table_start1+0x1179>
   1a36c:	00a105b3          	add	a1,sp,a0
   1a370:	6505                	lui	a0,0x1
   1a372:	34050513          	addi	a0,a0,832 # 1340 <.Lline_table_start1+0x1115>
   1a376:	950a                	add	a0,a0,sp
   1a378:	02400613          	li	a2,36
   1a37c:	00003097          	auipc	ra,0x3
   1a380:	9b4080e7          	jalr	-1612(ra) # 1cd30 <memcpy>
   1a384:	c019                	beqz	s0,1a38a <_start+0x211a>
   1a386:	08f0206f          	j	1cc14 <_start+0x49a4>
   1a38a:	02411503          	lh	a0,36(sp)
   1a38e:	02614583          	lbu	a1,38(sp)
   1a392:	0189d613          	srli	a2,s3,0x18
   1a396:	0109d693          	srli	a3,s3,0x10
   1a39a:	70d10aa3          	sb	a3,1813(sp)
   1a39e:	70c10b23          	sb	a2,1814(sp)
   1a3a2:	0089d613          	srli	a2,s3,0x8
   1a3a6:	70a11823          	sh	a0,1808(sp)
   1a3aa:	70b10923          	sb	a1,1810(sp)
   1a3ae:	713109a3          	sb	s3,1811(sp)
   1a3b2:	70c10a23          	sb	a2,1812(sp)
   1a3b6:	71710513          	addi	a0,sp,1815
   1a3ba:	6585                	lui	a1,0x1
   1a3bc:	34058593          	addi	a1,a1,832 # 1340 <.Lline_table_start1+0x1115>
   1a3c0:	958a                	add	a1,a1,sp
   1a3c2:	02400613          	li	a2,36
   1a3c6:	00003097          	auipc	ra,0x3
   1a3ca:	96a080e7          	jalr	-1686(ra) # 1cd30 <memcpy>
   1a3ce:	6505                	lui	a0,0x1
   1a3d0:	39c50513          	addi	a0,a0,924 # 139c <.Lline_table_start1+0x1171>
   1a3d4:	950a                	add	a0,a0,sp
   1a3d6:	71010593          	addi	a1,sp,1808
   1a3da:	ffffb097          	auipc	ra,0xffffb
   1a3de:	60e080e7          	jalr	1550(ra) # 159e8 <_ZN18complex_no_dynamic3app17h9531b4623f3d50dbE>
   1a3e2:	3ec94503          	lbu	a0,1004(s2)
   1a3e6:	c501                	beqz	a0,1a3ee <_start+0x217e>
   1a3e8:	3f092983          	lw	s3,1008(s2)
   1a3ec:	a899                	j	1a442 <_start+0x21d2>
   1a3ee:	3ed94583          	lbu	a1,1005(s2)
   1a3f2:	3ee94603          	lbu	a2,1006(s2)
   1a3f6:	3ef94683          	lbu	a3,1007(s2)
   1a3fa:	3f092983          	lw	s3,1008(s2)
   1a3fe:	3f492703          	lw	a4,1012(s2)
   1a402:	3f892783          	lw	a5,1016(s2)
   1a406:	3fc92483          	lw	s1,1020(s2)
   1a40a:	40092403          	lw	s0,1024(s2)
   1a40e:	0622                	slli	a2,a2,0x8
   1a410:	38e92823          	sw	a4,912(s2)
   1a414:	38f92a23          	sw	a5,916(s2)
   1a418:	38992c23          	sw	s1,920(s2)
   1a41c:	38892e23          	sw	s0,924(s2)
   1a420:	8dd1                	or	a1,a1,a2
   1a422:	40492603          	lw	a2,1028(s2)
   1a426:	40891703          	lh	a4,1032(s2)
   1a42a:	40a94783          	lbu	a5,1034(s2)
   1a42e:	02b11223          	sh	a1,36(sp)
   1a432:	02d10323          	sb	a3,38(sp)
   1a436:	3ac92023          	sw	a2,928(s2)
   1a43a:	3ae91223          	sh	a4,932(s2)
   1a43e:	3af90323          	sb	a5,934(s2)
   1a442:	c119                	beqz	a0,1a448 <_start+0x21d8>
   1a444:	7d00206f          	j	1cc14 <_start+0x49a4>
   1a448:	02411503          	lh	a0,36(sp)
   1a44c:	02614583          	lbu	a1,38(sp)
   1a450:	0189d613          	srli	a2,s3,0x18
   1a454:	0109d693          	srli	a3,s3,0x10
   1a458:	74d100a3          	sb	a3,1857(sp)
   1a45c:	74c10123          	sb	a2,1858(sp)
   1a460:	0089d613          	srli	a2,s3,0x8
   1a464:	72a11e23          	sh	a0,1852(sp)
   1a468:	72b10f23          	sb	a1,1854(sp)
   1a46c:	73310fa3          	sb	s3,1855(sp)
   1a470:	74c10023          	sb	a2,1856(sp)
   1a474:	74310513          	addi	a0,sp,1859
   1a478:	6585                	lui	a1,0x1
   1a47a:	34058593          	addi	a1,a1,832 # 1340 <.Lline_table_start1+0x1115>
   1a47e:	958a                	add	a1,a1,sp
   1a480:	465d                	li	a2,23
   1a482:	00003097          	auipc	ra,0x3
   1a486:	8ae080e7          	jalr	-1874(ra) # 1cd30 <memcpy>
   1a48a:	6505                	lui	a0,0x1
   1a48c:	39c50513          	addi	a0,a0,924 # 139c <.Lline_table_start1+0x1171>
   1a490:	950a                	add	a0,a0,sp
   1a492:	73c10593          	addi	a1,sp,1852
   1a496:	ffff9097          	auipc	ra,0xffff9
   1a49a:	816080e7          	jalr	-2026(ra) # 12cac <_ZN18complex_no_dynamic3app17h311745b62641a1c5E>
   1a49e:	3ec94403          	lbu	s0,1004(s2)
   1a4a2:	c401                	beqz	s0,1a4aa <_start+0x223a>
   1a4a4:	3f092983          	lw	s3,1008(s2)
   1a4a8:	a835                	j	1a4e4 <_start+0x2274>
   1a4aa:	3ee94503          	lbu	a0,1006(s2)
   1a4ae:	3ed94583          	lbu	a1,1005(s2)
   1a4b2:	3ef94603          	lbu	a2,1007(s2)
   1a4b6:	3f092983          	lw	s3,1008(s2)
   1a4ba:	0522                	slli	a0,a0,0x8
   1a4bc:	8d4d                	or	a0,a0,a1
   1a4be:	02a11223          	sh	a0,36(sp)
   1a4c2:	02c10323          	sb	a2,38(sp)
   1a4c6:	6505                	lui	a0,0x1
   1a4c8:	3a450513          	addi	a0,a0,932 # 13a4 <.Lline_table_start1+0x1179>
   1a4cc:	00a105b3          	add	a1,sp,a0
   1a4d0:	6505                	lui	a0,0x1
   1a4d2:	34050513          	addi	a0,a0,832 # 1340 <.Lline_table_start1+0x1115>
   1a4d6:	950a                	add	a0,a0,sp
   1a4d8:	04a00613          	li	a2,74
   1a4dc:	00003097          	auipc	ra,0x3
   1a4e0:	854080e7          	jalr	-1964(ra) # 1cd30 <memcpy>
   1a4e4:	c019                	beqz	s0,1a4ea <_start+0x227a>
   1a4e6:	72e0206f          	j	1cc14 <_start+0x49a4>
   1a4ea:	02411503          	lh	a0,36(sp)
   1a4ee:	02614583          	lbu	a1,38(sp)
   1a4f2:	0189d613          	srli	a2,s3,0x18
   1a4f6:	0109d693          	srli	a3,s3,0x10
   1a4fa:	74d10fa3          	sb	a3,1887(sp)
   1a4fe:	76c10023          	sb	a2,1888(sp)
   1a502:	0089d613          	srli	a2,s3,0x8
   1a506:	74a11d23          	sh	a0,1882(sp)
   1a50a:	74b10e23          	sb	a1,1884(sp)
   1a50e:	75310ea3          	sb	s3,1885(sp)
   1a512:	74c10f23          	sb	a2,1886(sp)
   1a516:	76110513          	addi	a0,sp,1889
   1a51a:	6585                	lui	a1,0x1
   1a51c:	34058593          	addi	a1,a1,832 # 1340 <.Lline_table_start1+0x1115>
   1a520:	958a                	add	a1,a1,sp
   1a522:	04a00613          	li	a2,74
   1a526:	00003097          	auipc	ra,0x3
   1a52a:	80a080e7          	jalr	-2038(ra) # 1cd30 <memcpy>
   1a52e:	6505                	lui	a0,0x1
   1a530:	39c50513          	addi	a0,a0,924 # 139c <.Lline_table_start1+0x1171>
   1a534:	950a                	add	a0,a0,sp
   1a536:	75a10593          	addi	a1,sp,1882
   1a53a:	ffffb097          	auipc	ra,0xffffb
   1a53e:	b58080e7          	jalr	-1192(ra) # 15092 <_ZN18complex_no_dynamic3app17h735dfadbb77675a5E>
   1a542:	3ec94603          	lbu	a2,1004(s2)
   1a546:	c601                	beqz	a2,1a54e <_start+0x22de>
   1a548:	3f092983          	lw	s3,1008(s2)
   1a54c:	a01d                	j	1a572 <_start+0x2302>
   1a54e:	3ed94683          	lbu	a3,1005(s2)
   1a552:	3ee94703          	lbu	a4,1006(s2)
   1a556:	3ef94783          	lbu	a5,1007(s2)
   1a55a:	3f092983          	lw	s3,1008(s2)
   1a55e:	3f492583          	lw	a1,1012(s2)
   1a562:	3f892503          	lw	a0,1016(s2)
   1a566:	0722                	slli	a4,a4,0x8
   1a568:	8ed9                	or	a3,a3,a4
   1a56a:	38d91823          	sh	a3,912(s2)
   1a56e:	38f90923          	sb	a5,914(s2)
   1a572:	c219                	beqz	a2,1a578 <_start+0x2308>
   1a574:	6a00206f          	j	1cc14 <_start+0x49a4>
   1a578:	7ae10a13          	addi	s4,sp,1966
   1a57c:	39091803          	lh	a6,912(s2)
   1a580:	39294683          	lbu	a3,914(s2)
   1a584:	0189d713          	srli	a4,s3,0x18
   1a588:	0109d793          	srli	a5,s3,0x10
   1a58c:	0089d413          	srli	s0,s3,0x8
   1a590:	0085d493          	srli	s1,a1,0x8
   1a594:	01855613          	srli	a2,a0,0x18
   1a598:	00fa01a3          	sb	a5,3(s4)
   1a59c:	00ea0223          	sb	a4,4(s4)
   1a5a0:	00ba02a3          	sb	a1,5(s4)
   1a5a4:	009a0323          	sb	s1,6(s4)
   1a5a8:	01055713          	srli	a4,a0,0x10
   1a5ac:	00ea05a3          	sb	a4,11(s4)
   1a5b0:	00ca0623          	sb	a2,12(s4)
   1a5b4:	0185d613          	srli	a2,a1,0x18
   1a5b8:	81c1                	srli	a1,a1,0x10
   1a5ba:	ff0a1f23          	sh	a6,-2(s4)
   1a5be:	00da0023          	sb	a3,0(s4)
   1a5c2:	013a00a3          	sb	s3,1(s4)
   1a5c6:	008a0123          	sb	s0,2(s4)
   1a5ca:	00855693          	srli	a3,a0,0x8
   1a5ce:	00ba03a3          	sb	a1,7(s4)
   1a5d2:	00ca0423          	sb	a2,8(s4)
   1a5d6:	00aa04a3          	sb	a0,9(s4)
   1a5da:	00da0523          	sb	a3,10(s4)
   1a5de:	6505                	lui	a0,0x1
   1a5e0:	39c50513          	addi	a0,a0,924 # 139c <.Lline_table_start1+0x1171>
   1a5e4:	950a                	add	a0,a0,sp
   1a5e6:	7ac10593          	addi	a1,sp,1964
   1a5ea:	ffff9097          	auipc	ra,0xffff9
   1a5ee:	bac080e7          	jalr	-1108(ra) # 13196 <_ZN18complex_no_dynamic3app17h331d39e781a0f2a4E>
   1a5f2:	3ec94403          	lbu	s0,1004(s2)
   1a5f6:	c401                	beqz	s0,1a5fe <_start+0x238e>
   1a5f8:	3f092983          	lw	s3,1008(s2)
   1a5fc:	a835                	j	1a638 <_start+0x23c8>
   1a5fe:	3ee94503          	lbu	a0,1006(s2)
   1a602:	3ed94583          	lbu	a1,1005(s2)
   1a606:	3ef94603          	lbu	a2,1007(s2)
   1a60a:	3f092983          	lw	s3,1008(s2)
   1a60e:	0522                	slli	a0,a0,0x8
   1a610:	8d4d                	or	a0,a0,a1
   1a612:	02a11223          	sh	a0,36(sp)
   1a616:	02c10323          	sb	a2,38(sp)
   1a61a:	6505                	lui	a0,0x1
   1a61c:	3a450513          	addi	a0,a0,932 # 13a4 <.Lline_table_start1+0x1179>
   1a620:	00a105b3          	add	a1,sp,a0
   1a624:	6505                	lui	a0,0x1
   1a626:	34050513          	addi	a0,a0,832 # 1340 <.Lline_table_start1+0x1115>
   1a62a:	950a                	add	a0,a0,sp
   1a62c:	03f00613          	li	a2,63
   1a630:	00002097          	auipc	ra,0x2
   1a634:	700080e7          	jalr	1792(ra) # 1cd30 <memcpy>
   1a638:	c019                	beqz	s0,1a63e <_start+0x23ce>
   1a63a:	5da0206f          	j	1cc14 <_start+0x49a4>
   1a63e:	02411503          	lh	a0,36(sp)
   1a642:	02614583          	lbu	a1,38(sp)
   1a646:	0189d613          	srli	a2,s3,0x18
   1a64a:	0109d693          	srli	a3,s3,0x10
   1a64e:	00da09a3          	sb	a3,19(s4)
   1a652:	00ca0a23          	sb	a2,20(s4)
   1a656:	0089d613          	srli	a2,s3,0x8
   1a65a:	00aa1723          	sh	a0,14(s4)
   1a65e:	00ba0823          	sb	a1,16(s4)
   1a662:	013a08a3          	sb	s3,17(s4)
   1a666:	00ca0923          	sb	a2,18(s4)
   1a66a:	7c310513          	addi	a0,sp,1987
   1a66e:	6585                	lui	a1,0x1
   1a670:	34058593          	addi	a1,a1,832 # 1340 <.Lline_table_start1+0x1115>
   1a674:	958a                	add	a1,a1,sp
   1a676:	03f00613          	li	a2,63
   1a67a:	00002097          	auipc	ra,0x2
   1a67e:	6b6080e7          	jalr	1718(ra) # 1cd30 <memcpy>
   1a682:	6505                	lui	a0,0x1
   1a684:	39c50513          	addi	a0,a0,924 # 139c <.Lline_table_start1+0x1171>
   1a688:	950a                	add	a0,a0,sp
   1a68a:	7bc10593          	addi	a1,sp,1980
   1a68e:	ffff8097          	auipc	ra,0xffff8
   1a692:	bf2080e7          	jalr	-1038(ra) # 12280 <_ZN18complex_no_dynamic3app17h25445dbe7b2ee092E>
   1a696:	3ec94403          	lbu	s0,1004(s2)
   1a69a:	c401                	beqz	s0,1a6a2 <_start+0x2432>
   1a69c:	3f092983          	lw	s3,1008(s2)
   1a6a0:	a835                	j	1a6dc <_start+0x246c>
   1a6a2:	3ee94503          	lbu	a0,1006(s2)
   1a6a6:	3ed94583          	lbu	a1,1005(s2)
   1a6aa:	3ef94603          	lbu	a2,1007(s2)
   1a6ae:	3f092983          	lw	s3,1008(s2)
   1a6b2:	0522                	slli	a0,a0,0x8
   1a6b4:	8d4d                	or	a0,a0,a1
   1a6b6:	02a11223          	sh	a0,36(sp)
   1a6ba:	02c10323          	sb	a2,38(sp)
   1a6be:	6505                	lui	a0,0x1
   1a6c0:	3a450513          	addi	a0,a0,932 # 13a4 <.Lline_table_start1+0x1179>
   1a6c4:	00a105b3          	add	a1,sp,a0
   1a6c8:	6505                	lui	a0,0x1
   1a6ca:	34050513          	addi	a0,a0,832 # 1340 <.Lline_table_start1+0x1115>
   1a6ce:	950a                	add	a0,a0,sp
   1a6d0:	04f00613          	li	a2,79
   1a6d4:	00002097          	auipc	ra,0x2
   1a6d8:	65c080e7          	jalr	1628(ra) # 1cd30 <memcpy>
   1a6dc:	c019                	beqz	s0,1a6e2 <_start+0x2472>
   1a6de:	5360206f          	j	1cc14 <_start+0x49a4>
   1a6e2:	02411503          	lh	a0,36(sp)
   1a6e6:	02614583          	lbu	a1,38(sp)
   1a6ea:	0189d613          	srli	a2,s3,0x18
   1a6ee:	0109d693          	srli	a3,s3,0x10
   1a6f2:	04da0ca3          	sb	a3,89(s4)
   1a6f6:	04ca0d23          	sb	a2,90(s4)
   1a6fa:	0089d613          	srli	a2,s3,0x8
   1a6fe:	04aa1a23          	sh	a0,84(s4)
   1a702:	04ba0b23          	sb	a1,86(s4)
   1a706:	053a0ba3          	sb	s3,87(s4)
   1a70a:	04ca0c23          	sb	a2,88(s4)
   1a70e:	7ff10513          	addi	a0,sp,2047
   1a712:	0529                	addi	a0,a0,10
   1a714:	6585                	lui	a1,0x1
   1a716:	34058593          	addi	a1,a1,832 # 1340 <.Lline_table_start1+0x1115>
   1a71a:	958a                	add	a1,a1,sp
   1a71c:	04f00613          	li	a2,79
   1a720:	00002097          	auipc	ra,0x2
   1a724:	610080e7          	jalr	1552(ra) # 1cd30 <memcpy>
   1a728:	6505                	lui	a0,0x1
   1a72a:	39c50513          	addi	a0,a0,924 # 139c <.Lline_table_start1+0x1171>
   1a72e:	950a                	add	a0,a0,sp
   1a730:	7ff10593          	addi	a1,sp,2047
   1a734:	058d                	addi	a1,a1,3
   1a736:	ffff9097          	auipc	ra,0xffff9
   1a73a:	43a080e7          	jalr	1082(ra) # 13b70 <_ZN18complex_no_dynamic3app17h3f393d1c3734544eE>
   1a73e:	3ec94403          	lbu	s0,1004(s2)
   1a742:	c401                	beqz	s0,1a74a <_start+0x24da>
   1a744:	3f092983          	lw	s3,1008(s2)
   1a748:	a835                	j	1a784 <_start+0x2514>
   1a74a:	3ee94503          	lbu	a0,1006(s2)
   1a74e:	3ed94583          	lbu	a1,1005(s2)
   1a752:	3ef94603          	lbu	a2,1007(s2)
   1a756:	3f092983          	lw	s3,1008(s2)
   1a75a:	0522                	slli	a0,a0,0x8
   1a75c:	8d4d                	or	a0,a0,a1
   1a75e:	02a11223          	sh	a0,36(sp)
   1a762:	02c10323          	sb	a2,38(sp)
   1a766:	6505                	lui	a0,0x1
   1a768:	3a450513          	addi	a0,a0,932 # 13a4 <.Lline_table_start1+0x1179>
   1a76c:	00a105b3          	add	a1,sp,a0
   1a770:	6505                	lui	a0,0x1
   1a772:	34050513          	addi	a0,a0,832 # 1340 <.Lline_table_start1+0x1115>
   1a776:	950a                	add	a0,a0,sp
   1a778:	04200613          	li	a2,66
   1a77c:	00002097          	auipc	ra,0x2
   1a780:	5b4080e7          	jalr	1460(ra) # 1cd30 <memcpy>
   1a784:	c019                	beqz	s0,1a78a <_start+0x251a>
   1a786:	48e0206f          	j	1cc14 <_start+0x49a4>
   1a78a:	02411503          	lh	a0,36(sp)
   1a78e:	02614583          	lbu	a1,38(sp)
   1a792:	0189d613          	srli	a2,s3,0x18
   1a796:	0109d693          	srli	a3,s3,0x10
   1a79a:	0ada07a3          	sb	a3,175(s4)
   1a79e:	0aca0823          	sb	a2,176(s4)
   1a7a2:	0089d613          	srli	a2,s3,0x8
   1a7a6:	0aaa1523          	sh	a0,170(s4)
   1a7aa:	0aba0623          	sb	a1,172(s4)
   1a7ae:	0b3a06a3          	sb	s3,173(s4)
   1a7b2:	0aca0723          	sb	a2,174(s4)
   1a7b6:	7ff10513          	addi	a0,sp,2047
   1a7ba:	06050513          	addi	a0,a0,96
   1a7be:	6585                	lui	a1,0x1
   1a7c0:	34058593          	addi	a1,a1,832 # 1340 <.Lline_table_start1+0x1115>
   1a7c4:	958a                	add	a1,a1,sp
   1a7c6:	04200613          	li	a2,66
   1a7ca:	00002097          	auipc	ra,0x2
   1a7ce:	566080e7          	jalr	1382(ra) # 1cd30 <memcpy>
   1a7d2:	6505                	lui	a0,0x1
   1a7d4:	39c50513          	addi	a0,a0,924 # 139c <.Lline_table_start1+0x1171>
   1a7d8:	950a                	add	a0,a0,sp
   1a7da:	7ff10593          	addi	a1,sp,2047
   1a7de:	05958593          	addi	a1,a1,89
   1a7e2:	ffffd097          	auipc	ra,0xffffd
   1a7e6:	b0a080e7          	jalr	-1270(ra) # 172ec <_ZN18complex_no_dynamic3app17hdbef4fb983256579E>
   1a7ea:	3ec94503          	lbu	a0,1004(s2)
   1a7ee:	c501                	beqz	a0,1a7f6 <_start+0x2586>
   1a7f0:	3f092983          	lw	s3,1008(s2)
   1a7f4:	a899                	j	1a84a <_start+0x25da>
   1a7f6:	3ed94583          	lbu	a1,1005(s2)
   1a7fa:	3ee94603          	lbu	a2,1006(s2)
   1a7fe:	3ef94683          	lbu	a3,1007(s2)
   1a802:	3f092983          	lw	s3,1008(s2)
   1a806:	3f492703          	lw	a4,1012(s2)
   1a80a:	3f892783          	lw	a5,1016(s2)
   1a80e:	3fc92483          	lw	s1,1020(s2)
   1a812:	40092403          	lw	s0,1024(s2)
   1a816:	0622                	slli	a2,a2,0x8
   1a818:	38e92823          	sw	a4,912(s2)
   1a81c:	38f92a23          	sw	a5,916(s2)
   1a820:	38992c23          	sw	s1,920(s2)
   1a824:	38892e23          	sw	s0,924(s2)
   1a828:	8dd1                	or	a1,a1,a2
   1a82a:	40492603          	lw	a2,1028(s2)
   1a82e:	40892703          	lw	a4,1032(s2)
   1a832:	40c92783          	lw	a5,1036(s2)
   1a836:	02b11223          	sh	a1,36(sp)
   1a83a:	02d10323          	sb	a3,38(sp)
   1a83e:	3ac92023          	sw	a2,928(s2)
   1a842:	3ae92223          	sw	a4,932(s2)
   1a846:	3af92423          	sw	a5,936(s2)
   1a84a:	c119                	beqz	a0,1a850 <_start+0x25e0>
   1a84c:	3c80206f          	j	1cc14 <_start+0x49a4>
   1a850:	02411503          	lh	a0,36(sp)
   1a854:	02614583          	lbu	a1,38(sp)
   1a858:	0189d613          	srli	a2,s3,0x18
   1a85c:	0109d693          	srli	a3,s3,0x10
   1a860:	0eda0ca3          	sb	a3,249(s4)
   1a864:	0eca0d23          	sb	a2,250(s4)
   1a868:	0089d613          	srli	a2,s3,0x8
   1a86c:	0eaa1a23          	sh	a0,244(s4)
   1a870:	0eba0b23          	sb	a1,246(s4)
   1a874:	0f3a0ba3          	sb	s3,247(s4)
   1a878:	0eca0c23          	sb	a2,248(s4)
   1a87c:	7ff10513          	addi	a0,sp,2047
   1a880:	0aa50513          	addi	a0,a0,170
   1a884:	6585                	lui	a1,0x1
   1a886:	34058593          	addi	a1,a1,832 # 1340 <.Lline_table_start1+0x1115>
   1a88a:	958a                	add	a1,a1,sp
   1a88c:	4671                	li	a2,28
   1a88e:	00002097          	auipc	ra,0x2
   1a892:	4a2080e7          	jalr	1186(ra) # 1cd30 <memcpy>
   1a896:	6505                	lui	a0,0x1
   1a898:	39c50513          	addi	a0,a0,924 # 139c <.Lline_table_start1+0x1171>
   1a89c:	950a                	add	a0,a0,sp
   1a89e:	7ff10593          	addi	a1,sp,2047
   1a8a2:	0a358593          	addi	a1,a1,163
   1a8a6:	ffff9097          	auipc	ra,0xffff9
   1a8aa:	6e4080e7          	jalr	1764(ra) # 13f8a <_ZN18complex_no_dynamic3app17h4d64a4b13012ba52E>
   1a8ae:	3ec94403          	lbu	s0,1004(s2)
   1a8b2:	c401                	beqz	s0,1a8ba <_start+0x264a>
   1a8b4:	3f092983          	lw	s3,1008(s2)
   1a8b8:	a835                	j	1a8f4 <_start+0x2684>
   1a8ba:	3ee94503          	lbu	a0,1006(s2)
   1a8be:	3ed94583          	lbu	a1,1005(s2)
   1a8c2:	3ef94603          	lbu	a2,1007(s2)
   1a8c6:	3f092983          	lw	s3,1008(s2)
   1a8ca:	0522                	slli	a0,a0,0x8
   1a8cc:	8d4d                	or	a0,a0,a1
   1a8ce:	02a11223          	sh	a0,36(sp)
   1a8d2:	02c10323          	sb	a2,38(sp)
   1a8d6:	6505                	lui	a0,0x1
   1a8d8:	3a450513          	addi	a0,a0,932 # 13a4 <.Lline_table_start1+0x1179>
   1a8dc:	00a105b3          	add	a1,sp,a0
   1a8e0:	6505                	lui	a0,0x1
   1a8e2:	34050513          	addi	a0,a0,832 # 1340 <.Lline_table_start1+0x1115>
   1a8e6:	950a                	add	a0,a0,sp
   1a8e8:	02400613          	li	a2,36
   1a8ec:	00002097          	auipc	ra,0x2
   1a8f0:	444080e7          	jalr	1092(ra) # 1cd30 <memcpy>
   1a8f4:	c019                	beqz	s0,1a8fa <_start+0x268a>
   1a8f6:	31e0206f          	j	1cc14 <_start+0x49a4>
   1a8fa:	02411503          	lh	a0,36(sp)
   1a8fe:	02614583          	lbu	a1,38(sp)
   1a902:	0189d613          	srli	a2,s3,0x18
   1a906:	0109d693          	srli	a3,s3,0x10
   1a90a:	10da0ea3          	sb	a3,285(s4)
   1a90e:	10ca0f23          	sb	a2,286(s4)
   1a912:	0089d613          	srli	a2,s3,0x8
   1a916:	10aa1c23          	sh	a0,280(s4)
   1a91a:	10ba0d23          	sb	a1,282(s4)
   1a91e:	113a0da3          	sb	s3,283(s4)
   1a922:	10ca0e23          	sb	a2,284(s4)
   1a926:	7ff10513          	addi	a0,sp,2047
   1a92a:	0ce50513          	addi	a0,a0,206
   1a92e:	6585                	lui	a1,0x1
   1a930:	34058593          	addi	a1,a1,832 # 1340 <.Lline_table_start1+0x1115>
   1a934:	958a                	add	a1,a1,sp
   1a936:	02400613          	li	a2,36
   1a93a:	00002097          	auipc	ra,0x2
   1a93e:	3f6080e7          	jalr	1014(ra) # 1cd30 <memcpy>
   1a942:	6505                	lui	a0,0x1
   1a944:	39c50513          	addi	a0,a0,924 # 139c <.Lline_table_start1+0x1171>
   1a948:	950a                	add	a0,a0,sp
   1a94a:	7ff10593          	addi	a1,sp,2047
   1a94e:	0c758593          	addi	a1,a1,199
   1a952:	ffff8097          	auipc	ra,0xffff8
   1a956:	f3c080e7          	jalr	-196(ra) # 1288e <_ZN18complex_no_dynamic3app17h2a42e921a33f65c6E>
   1a95a:	3ec94503          	lbu	a0,1004(s2)
   1a95e:	c501                	beqz	a0,1a966 <_start+0x26f6>
   1a960:	3f092983          	lw	s3,1008(s2)
   1a964:	a03d                	j	1a992 <_start+0x2722>
   1a966:	3ee94583          	lbu	a1,1006(s2)
   1a96a:	3ed94603          	lbu	a2,1005(s2)
   1a96e:	3ef94683          	lbu	a3,1007(s2)
   1a972:	3f092983          	lw	s3,1008(s2)
   1a976:	05a2                	slli	a1,a1,0x8
   1a978:	8dd1                	or	a1,a1,a2
   1a97a:	3f492603          	lw	a2,1012(s2)
   1a97e:	3f891703          	lh	a4,1016(s2)
   1a982:	02b11223          	sh	a1,36(sp)
   1a986:	02d10323          	sb	a3,38(sp)
   1a98a:	38c92823          	sw	a2,912(s2)
   1a98e:	38e91a23          	sh	a4,916(s2)
   1a992:	c119                	beqz	a0,1a998 <_start+0x2728>
   1a994:	2800206f          	j	1cc14 <_start+0x49a4>
   1a998:	02411503          	lh	a0,36(sp)
   1a99c:	02614583          	lbu	a1,38(sp)
   1a9a0:	0189d613          	srli	a2,s3,0x18
   1a9a4:	0109d693          	srli	a3,s3,0x10
   1a9a8:	0089d713          	srli	a4,s3,0x8
   1a9ac:	14aa1223          	sh	a0,324(s4)
   1a9b0:	14ba0323          	sb	a1,326(s4)
   1a9b4:	153a03a3          	sb	s3,327(s4)
   1a9b8:	14ea0423          	sb	a4,328(s4)
   1a9bc:	39094503          	lbu	a0,912(s2)
   1a9c0:	39194583          	lbu	a1,913(s2)
   1a9c4:	39294703          	lbu	a4,914(s2)
   1a9c8:	39394783          	lbu	a5,915(s2)
   1a9cc:	14da04a3          	sb	a3,329(s4)
   1a9d0:	14ca0523          	sb	a2,330(s4)
   1a9d4:	14aa05a3          	sb	a0,331(s4)
   1a9d8:	14ba0623          	sb	a1,332(s4)
   1a9dc:	39494503          	lbu	a0,916(s2)
   1a9e0:	39594583          	lbu	a1,917(s2)
   1a9e4:	14ea06a3          	sb	a4,333(s4)
   1a9e8:	14fa0723          	sb	a5,334(s4)
   1a9ec:	14aa07a3          	sb	a0,335(s4)
   1a9f0:	14ba0823          	sb	a1,336(s4)
   1a9f4:	6505                	lui	a0,0x1
   1a9f6:	39c50513          	addi	a0,a0,924 # 139c <.Lline_table_start1+0x1171>
   1a9fa:	950a                	add	a0,a0,sp
   1a9fc:	7ff10593          	addi	a1,sp,2047
   1aa00:	0f358593          	addi	a1,a1,243
   1aa04:	ffffa097          	auipc	ra,0xffffa
   1aa08:	8b6080e7          	jalr	-1866(ra) # 142ba <_ZN18complex_no_dynamic3app17h5011886eb56c2c39E>
   1aa0c:	3ec94503          	lbu	a0,1004(s2)
   1aa10:	c501                	beqz	a0,1aa18 <_start+0x27a8>
   1aa12:	3f092983          	lw	s3,1008(s2)
   1aa16:	a899                	j	1aa6c <_start+0x27fc>
   1aa18:	3ed94583          	lbu	a1,1005(s2)
   1aa1c:	3ee94603          	lbu	a2,1006(s2)
   1aa20:	3ef94683          	lbu	a3,1007(s2)
   1aa24:	3f092983          	lw	s3,1008(s2)
   1aa28:	3f492703          	lw	a4,1012(s2)
   1aa2c:	3f892783          	lw	a5,1016(s2)
   1aa30:	3fc92483          	lw	s1,1020(s2)
   1aa34:	40092403          	lw	s0,1024(s2)
   1aa38:	0622                	slli	a2,a2,0x8
   1aa3a:	38e92823          	sw	a4,912(s2)
   1aa3e:	38f92a23          	sw	a5,916(s2)
   1aa42:	38992c23          	sw	s1,920(s2)
   1aa46:	38892e23          	sw	s0,924(s2)
   1aa4a:	8dd1                	or	a1,a1,a2
   1aa4c:	40492603          	lw	a2,1028(s2)
   1aa50:	40892703          	lw	a4,1032(s2)
   1aa54:	40c91783          	lh	a5,1036(s2)
   1aa58:	02b11223          	sh	a1,36(sp)
   1aa5c:	02d10323          	sb	a3,38(sp)
   1aa60:	3ac92023          	sw	a2,928(s2)
   1aa64:	3ae92223          	sw	a4,932(s2)
   1aa68:	3af91423          	sh	a5,936(s2)
   1aa6c:	c119                	beqz	a0,1aa72 <_start+0x2802>
   1aa6e:	1a60206f          	j	1cc14 <_start+0x49a4>
   1aa72:	02411503          	lh	a0,36(sp)
   1aa76:	02614583          	lbu	a1,38(sp)
   1aa7a:	0189d613          	srli	a2,s3,0x18
   1aa7e:	0109d693          	srli	a3,s3,0x10
   1aa82:	14da0ba3          	sb	a3,343(s4)
   1aa86:	14ca0c23          	sb	a2,344(s4)
   1aa8a:	0089d613          	srli	a2,s3,0x8
   1aa8e:	14aa1923          	sh	a0,338(s4)
   1aa92:	14ba0a23          	sb	a1,340(s4)
   1aa96:	153a0aa3          	sb	s3,341(s4)
   1aa9a:	14ca0b23          	sb	a2,342(s4)
   1aa9e:	7ff10513          	addi	a0,sp,2047
   1aaa2:	10850513          	addi	a0,a0,264
   1aaa6:	6585                	lui	a1,0x1
   1aaa8:	34058593          	addi	a1,a1,832 # 1340 <.Lline_table_start1+0x1115>
   1aaac:	958a                	add	a1,a1,sp
   1aaae:	4669                	li	a2,26
   1aab0:	00002097          	auipc	ra,0x2
   1aab4:	280080e7          	jalr	640(ra) # 1cd30 <memcpy>
   1aab8:	6505                	lui	a0,0x1
   1aaba:	39c50513          	addi	a0,a0,924 # 139c <.Lline_table_start1+0x1171>
   1aabe:	950a                	add	a0,a0,sp
   1aac0:	7ff10593          	addi	a1,sp,2047
   1aac4:	10158593          	addi	a1,a1,257
   1aac8:	ffff9097          	auipc	ra,0xffff9
   1aacc:	e8c080e7          	jalr	-372(ra) # 13954 <_ZN18complex_no_dynamic3app17h3c51dabbd62dacb3E>
   1aad0:	3ec94403          	lbu	s0,1004(s2)
   1aad4:	c401                	beqz	s0,1aadc <_start+0x286c>
   1aad6:	3f092983          	lw	s3,1008(s2)
   1aada:	a835                	j	1ab16 <_start+0x28a6>
   1aadc:	3ee94503          	lbu	a0,1006(s2)
   1aae0:	3ed94583          	lbu	a1,1005(s2)
   1aae4:	3ef94603          	lbu	a2,1007(s2)
   1aae8:	3f092983          	lw	s3,1008(s2)
   1aaec:	0522                	slli	a0,a0,0x8
   1aaee:	8d4d                	or	a0,a0,a1
   1aaf0:	02a11223          	sh	a0,36(sp)
   1aaf4:	02c10323          	sb	a2,38(sp)
   1aaf8:	6505                	lui	a0,0x1
   1aafa:	3a450513          	addi	a0,a0,932 # 13a4 <.Lline_table_start1+0x1179>
   1aafe:	00a105b3          	add	a1,sp,a0
   1ab02:	6505                	lui	a0,0x1
   1ab04:	34050513          	addi	a0,a0,832 # 1340 <.Lline_table_start1+0x1115>
   1ab08:	950a                	add	a0,a0,sp
   1ab0a:	04c00613          	li	a2,76
   1ab0e:	00002097          	auipc	ra,0x2
   1ab12:	222080e7          	jalr	546(ra) # 1cd30 <memcpy>
   1ab16:	c019                	beqz	s0,1ab1c <_start+0x28ac>
   1ab18:	0fc0206f          	j	1cc14 <_start+0x49a4>
   1ab1c:	02411503          	lh	a0,36(sp)
   1ab20:	02614583          	lbu	a1,38(sp)
   1ab24:	0189d613          	srli	a2,s3,0x18
   1ab28:	0109d693          	srli	a3,s3,0x10
   1ab2c:	16da0ca3          	sb	a3,377(s4)
   1ab30:	16ca0d23          	sb	a2,378(s4)
   1ab34:	0089d613          	srli	a2,s3,0x8
   1ab38:	16aa1a23          	sh	a0,372(s4)
   1ab3c:	16ba0b23          	sb	a1,374(s4)
   1ab40:	173a0ba3          	sb	s3,375(s4)
   1ab44:	16ca0c23          	sb	a2,376(s4)
   1ab48:	7ff10513          	addi	a0,sp,2047
   1ab4c:	12a50513          	addi	a0,a0,298
   1ab50:	6585                	lui	a1,0x1
   1ab52:	34058593          	addi	a1,a1,832 # 1340 <.Lline_table_start1+0x1115>
   1ab56:	958a                	add	a1,a1,sp
   1ab58:	04c00613          	li	a2,76
   1ab5c:	00002097          	auipc	ra,0x2
   1ab60:	1d4080e7          	jalr	468(ra) # 1cd30 <memcpy>
   1ab64:	6505                	lui	a0,0x1
   1ab66:	39c50513          	addi	a0,a0,924 # 139c <.Lline_table_start1+0x1171>
   1ab6a:	950a                	add	a0,a0,sp
   1ab6c:	7ff10593          	addi	a1,sp,2047
   1ab70:	12358593          	addi	a1,a1,291
   1ab74:	ffff6097          	auipc	ra,0xffff6
   1ab78:	5c0080e7          	jalr	1472(ra) # 11134 <_ZN18complex_no_dynamic3app17h016d6322d5dc8a85E>
   1ab7c:	3ec94403          	lbu	s0,1004(s2)
   1ab80:	c401                	beqz	s0,1ab88 <_start+0x2918>
   1ab82:	3f092983          	lw	s3,1008(s2)
   1ab86:	a835                	j	1abc2 <_start+0x2952>
   1ab88:	3ee94503          	lbu	a0,1006(s2)
   1ab8c:	3ed94583          	lbu	a1,1005(s2)
   1ab90:	3ef94603          	lbu	a2,1007(s2)
   1ab94:	3f092983          	lw	s3,1008(s2)
   1ab98:	0522                	slli	a0,a0,0x8
   1ab9a:	8d4d                	or	a0,a0,a1
   1ab9c:	02a11223          	sh	a0,36(sp)
   1aba0:	02c10323          	sb	a2,38(sp)
   1aba4:	6505                	lui	a0,0x1
   1aba6:	3a450513          	addi	a0,a0,932 # 13a4 <.Lline_table_start1+0x1179>
   1abaa:	00a105b3          	add	a1,sp,a0
   1abae:	6505                	lui	a0,0x1
   1abb0:	34050513          	addi	a0,a0,832 # 1340 <.Lline_table_start1+0x1115>
   1abb4:	950a                	add	a0,a0,sp
   1abb6:	04600613          	li	a2,70
   1abba:	00002097          	auipc	ra,0x2
   1abbe:	176080e7          	jalr	374(ra) # 1cd30 <memcpy>
   1abc2:	c019                	beqz	s0,1abc8 <_start+0x2958>
   1abc4:	0500206f          	j	1cc14 <_start+0x49a4>
   1abc8:	02411503          	lh	a0,36(sp)
   1abcc:	02614583          	lbu	a1,38(sp)
   1abd0:	0189d613          	srli	a2,s3,0x18
   1abd4:	0109d693          	srli	a3,s3,0x10
   1abd8:	1cda06a3          	sb	a3,461(s4)
   1abdc:	1cca0723          	sb	a2,462(s4)
   1abe0:	0089d613          	srli	a2,s3,0x8
   1abe4:	1caa1423          	sh	a0,456(s4)
   1abe8:	1cba0523          	sb	a1,458(s4)
   1abec:	1d3a05a3          	sb	s3,459(s4)
   1abf0:	1cca0623          	sb	a2,460(s4)
   1abf4:	7ff10513          	addi	a0,sp,2047
   1abf8:	17e50513          	addi	a0,a0,382
   1abfc:	6585                	lui	a1,0x1
   1abfe:	34058593          	addi	a1,a1,832 # 1340 <.Lline_table_start1+0x1115>
   1ac02:	958a                	add	a1,a1,sp
   1ac04:	04600613          	li	a2,70
   1ac08:	00002097          	auipc	ra,0x2
   1ac0c:	128080e7          	jalr	296(ra) # 1cd30 <memcpy>
   1ac10:	6505                	lui	a0,0x1
   1ac12:	39c50513          	addi	a0,a0,924 # 139c <.Lline_table_start1+0x1171>
   1ac16:	950a                	add	a0,a0,sp
   1ac18:	7ff10593          	addi	a1,sp,2047
   1ac1c:	17758593          	addi	a1,a1,375
   1ac20:	ffffb097          	auipc	ra,0xffffb
   1ac24:	ec6080e7          	jalr	-314(ra) # 15ae6 <_ZN18complex_no_dynamic3app17h99a7991499f701f5E>
   1ac28:	3ec94403          	lbu	s0,1004(s2)
   1ac2c:	c401                	beqz	s0,1ac34 <_start+0x29c4>
   1ac2e:	3f092983          	lw	s3,1008(s2)
   1ac32:	a835                	j	1ac6e <_start+0x29fe>
   1ac34:	3ee94503          	lbu	a0,1006(s2)
   1ac38:	3ed94583          	lbu	a1,1005(s2)
   1ac3c:	3ef94603          	lbu	a2,1007(s2)
   1ac40:	3f092983          	lw	s3,1008(s2)
   1ac44:	0522                	slli	a0,a0,0x8
   1ac46:	8d4d                	or	a0,a0,a1
   1ac48:	02a11223          	sh	a0,36(sp)
   1ac4c:	02c10323          	sb	a2,38(sp)
   1ac50:	6505                	lui	a0,0x1
   1ac52:	3a450513          	addi	a0,a0,932 # 13a4 <.Lline_table_start1+0x1179>
   1ac56:	00a105b3          	add	a1,sp,a0
   1ac5a:	6505                	lui	a0,0x1
   1ac5c:	34050513          	addi	a0,a0,832 # 1340 <.Lline_table_start1+0x1115>
   1ac60:	950a                	add	a0,a0,sp
   1ac62:	03500613          	li	a2,53
   1ac66:	00002097          	auipc	ra,0x2
   1ac6a:	0ca080e7          	jalr	202(ra) # 1cd30 <memcpy>
   1ac6e:	c019                	beqz	s0,1ac74 <_start+0x2a04>
   1ac70:	7a50106f          	j	1cc14 <_start+0x49a4>
   1ac74:	02411503          	lh	a0,36(sp)
   1ac78:	02614583          	lbu	a1,38(sp)
   1ac7c:	0189d613          	srli	a2,s3,0x18
   1ac80:	0109d693          	srli	a3,s3,0x10
   1ac84:	20da0da3          	sb	a3,539(s4)
   1ac88:	20ca0e23          	sb	a2,540(s4)
   1ac8c:	0089d613          	srli	a2,s3,0x8
   1ac90:	20aa1b23          	sh	a0,534(s4)
   1ac94:	20ba0c23          	sb	a1,536(s4)
   1ac98:	213a0ca3          	sb	s3,537(s4)
   1ac9c:	20ca0d23          	sb	a2,538(s4)
   1aca0:	7ff10513          	addi	a0,sp,2047
   1aca4:	1cc50513          	addi	a0,a0,460
   1aca8:	6585                	lui	a1,0x1
   1acaa:	34058593          	addi	a1,a1,832 # 1340 <.Lline_table_start1+0x1115>
   1acae:	958a                	add	a1,a1,sp
   1acb0:	03500613          	li	a2,53
   1acb4:	00002097          	auipc	ra,0x2
   1acb8:	07c080e7          	jalr	124(ra) # 1cd30 <memcpy>
   1acbc:	6505                	lui	a0,0x1
   1acbe:	39c50513          	addi	a0,a0,924 # 139c <.Lline_table_start1+0x1171>
   1acc2:	950a                	add	a0,a0,sp
   1acc4:	7ff10593          	addi	a1,sp,2047
   1acc8:	1c558593          	addi	a1,a1,453
   1accc:	ffff6097          	auipc	ra,0xffff6
   1acd0:	576080e7          	jalr	1398(ra) # 11242 <_ZN18complex_no_dynamic3app17h020b9023b1f01e03E>
   1acd4:	3ec94403          	lbu	s0,1004(s2)
   1acd8:	c401                	beqz	s0,1ace0 <_start+0x2a70>
   1acda:	3f092983          	lw	s3,1008(s2)
   1acde:	a835                	j	1ad1a <_start+0x2aaa>
   1ace0:	3ee94503          	lbu	a0,1006(s2)
   1ace4:	3ed94583          	lbu	a1,1005(s2)
   1ace8:	3ef94603          	lbu	a2,1007(s2)
   1acec:	3f092983          	lw	s3,1008(s2)
   1acf0:	0522                	slli	a0,a0,0x8
   1acf2:	8d4d                	or	a0,a0,a1
   1acf4:	02a11223          	sh	a0,36(sp)
   1acf8:	02c10323          	sb	a2,38(sp)
   1acfc:	6505                	lui	a0,0x1
   1acfe:	3a450513          	addi	a0,a0,932 # 13a4 <.Lline_table_start1+0x1179>
   1ad02:	00a105b3          	add	a1,sp,a0
   1ad06:	6505                	lui	a0,0x1
   1ad08:	34050513          	addi	a0,a0,832 # 1340 <.Lline_table_start1+0x1115>
   1ad0c:	950a                	add	a0,a0,sp
   1ad0e:	03100613          	li	a2,49
   1ad12:	00002097          	auipc	ra,0x2
   1ad16:	01e080e7          	jalr	30(ra) # 1cd30 <memcpy>
   1ad1a:	c019                	beqz	s0,1ad20 <_start+0x2ab0>
   1ad1c:	6f90106f          	j	1cc14 <_start+0x49a4>
   1ad20:	02411503          	lh	a0,36(sp)
   1ad24:	02614583          	lbu	a1,38(sp)
   1ad28:	0189d613          	srli	a2,s3,0x18
   1ad2c:	0109d693          	srli	a3,s3,0x10
   1ad30:	24da0ba3          	sb	a3,599(s4)
   1ad34:	24ca0c23          	sb	a2,600(s4)
   1ad38:	0089d613          	srli	a2,s3,0x8
   1ad3c:	24aa1923          	sh	a0,594(s4)
   1ad40:	24ba0a23          	sb	a1,596(s4)
   1ad44:	253a0aa3          	sb	s3,597(s4)
   1ad48:	24ca0b23          	sb	a2,598(s4)
   1ad4c:	7ff10513          	addi	a0,sp,2047
   1ad50:	20850513          	addi	a0,a0,520
   1ad54:	6585                	lui	a1,0x1
   1ad56:	34058593          	addi	a1,a1,832 # 1340 <.Lline_table_start1+0x1115>
   1ad5a:	958a                	add	a1,a1,sp
   1ad5c:	03100613          	li	a2,49
   1ad60:	00002097          	auipc	ra,0x2
   1ad64:	fd0080e7          	jalr	-48(ra) # 1cd30 <memcpy>
   1ad68:	6505                	lui	a0,0x1
   1ad6a:	39c50513          	addi	a0,a0,924 # 139c <.Lline_table_start1+0x1171>
   1ad6e:	950a                	add	a0,a0,sp
   1ad70:	7ff10593          	addi	a1,sp,2047
   1ad74:	20158593          	addi	a1,a1,513
   1ad78:	ffffb097          	auipc	ra,0xffffb
   1ad7c:	846080e7          	jalr	-1978(ra) # 155be <_ZN18complex_no_dynamic3app17h87454d05e7aac5e9E>
   1ad80:	3ec94503          	lbu	a0,1004(s2)
   1ad84:	c501                	beqz	a0,1ad8c <_start+0x2b1c>
   1ad86:	3f092983          	lw	s3,1008(s2)
   1ad8a:	a8b9                	j	1ade8 <_start+0x2b78>
   1ad8c:	3ed94583          	lbu	a1,1005(s2)
   1ad90:	3ee94603          	lbu	a2,1006(s2)
   1ad94:	3ef94683          	lbu	a3,1007(s2)
   1ad98:	3f092983          	lw	s3,1008(s2)
   1ad9c:	3f492703          	lw	a4,1012(s2)
   1ada0:	3f892783          	lw	a5,1016(s2)
   1ada4:	3fc92483          	lw	s1,1020(s2)
   1ada8:	40092403          	lw	s0,1024(s2)
   1adac:	0622                	slli	a2,a2,0x8
   1adae:	38e92823          	sw	a4,912(s2)
   1adb2:	38f92a23          	sw	a5,916(s2)
   1adb6:	38992c23          	sw	s1,920(s2)
   1adba:	38892e23          	sw	s0,924(s2)
   1adbe:	8dd1                	or	a1,a1,a2
   1adc0:	02b11223          	sh	a1,36(sp)
   1adc4:	02d10323          	sb	a3,38(sp)
   1adc8:	40492583          	lw	a1,1028(s2)
   1adcc:	40892603          	lw	a2,1032(s2)
   1add0:	40c92683          	lw	a3,1036(s2)
   1add4:	41092703          	lw	a4,1040(s2)
   1add8:	3ab92023          	sw	a1,928(s2)
   1addc:	3ac92223          	sw	a2,932(s2)
   1ade0:	3ad92423          	sw	a3,936(s2)
   1ade4:	3ae92623          	sw	a4,940(s2)
   1ade8:	c119                	beqz	a0,1adee <_start+0x2b7e>
   1adea:	62b0106f          	j	1cc14 <_start+0x49a4>
   1adee:	02411503          	lh	a0,36(sp)
   1adf2:	02614583          	lbu	a1,38(sp)
   1adf6:	0189d613          	srli	a2,s3,0x18
   1adfa:	0109d693          	srli	a3,s3,0x10
   1adfe:	28da07a3          	sb	a3,655(s4)
   1ae02:	28ca0823          	sb	a2,656(s4)
   1ae06:	0089d613          	srli	a2,s3,0x8
   1ae0a:	28aa1523          	sh	a0,650(s4)
   1ae0e:	28ba0623          	sb	a1,652(s4)
   1ae12:	293a06a3          	sb	s3,653(s4)
   1ae16:	28ca0723          	sb	a2,654(s4)
   1ae1a:	7ff10513          	addi	a0,sp,2047
   1ae1e:	24050513          	addi	a0,a0,576
   1ae22:	6585                	lui	a1,0x1
   1ae24:	34058593          	addi	a1,a1,832 # 1340 <.Lline_table_start1+0x1115>
   1ae28:	958a                	add	a1,a1,sp
   1ae2a:	02000613          	li	a2,32
   1ae2e:	00002097          	auipc	ra,0x2
   1ae32:	f02080e7          	jalr	-254(ra) # 1cd30 <memcpy>
   1ae36:	6505                	lui	a0,0x1
   1ae38:	39c50513          	addi	a0,a0,924 # 139c <.Lline_table_start1+0x1171>
   1ae3c:	950a                	add	a0,a0,sp
   1ae3e:	7ff10593          	addi	a1,sp,2047
   1ae42:	23958593          	addi	a1,a1,569
   1ae46:	ffff7097          	auipc	ra,0xffff7
   1ae4a:	82c080e7          	jalr	-2004(ra) # 11672 <_ZN18complex_no_dynamic3app17h073ff5304c8bce15E>
   1ae4e:	3ec94403          	lbu	s0,1004(s2)
   1ae52:	c401                	beqz	s0,1ae5a <_start+0x2bea>
   1ae54:	3f092983          	lw	s3,1008(s2)
   1ae58:	a835                	j	1ae94 <_start+0x2c24>
   1ae5a:	3ee94503          	lbu	a0,1006(s2)
   1ae5e:	3ed94583          	lbu	a1,1005(s2)
   1ae62:	3ef94603          	lbu	a2,1007(s2)
   1ae66:	3f092983          	lw	s3,1008(s2)
   1ae6a:	0522                	slli	a0,a0,0x8
   1ae6c:	8d4d                	or	a0,a0,a1
   1ae6e:	02a11223          	sh	a0,36(sp)
   1ae72:	02c10323          	sb	a2,38(sp)
   1ae76:	6505                	lui	a0,0x1
   1ae78:	3a450513          	addi	a0,a0,932 # 13a4 <.Lline_table_start1+0x1179>
   1ae7c:	00a105b3          	add	a1,sp,a0
   1ae80:	6505                	lui	a0,0x1
   1ae82:	34050513          	addi	a0,a0,832 # 1340 <.Lline_table_start1+0x1115>
   1ae86:	950a                	add	a0,a0,sp
   1ae88:	04a00613          	li	a2,74
   1ae8c:	00002097          	auipc	ra,0x2
   1ae90:	ea4080e7          	jalr	-348(ra) # 1cd30 <memcpy>
   1ae94:	c019                	beqz	s0,1ae9a <_start+0x2c2a>
   1ae96:	57f0106f          	j	1cc14 <_start+0x49a4>
   1ae9a:	02411503          	lh	a0,36(sp)
   1ae9e:	02614583          	lbu	a1,38(sp)
   1aea2:	0189d613          	srli	a2,s3,0x18
   1aea6:	0109d693          	srli	a3,s3,0x10
   1aeaa:	2ada0ba3          	sb	a3,695(s4)
   1aeae:	2aca0c23          	sb	a2,696(s4)
   1aeb2:	0089d613          	srli	a2,s3,0x8
   1aeb6:	2aaa1923          	sh	a0,690(s4)
   1aeba:	2aba0a23          	sb	a1,692(s4)
   1aebe:	2b3a0aa3          	sb	s3,693(s4)
   1aec2:	2aca0b23          	sb	a2,694(s4)
   1aec6:	7ff10513          	addi	a0,sp,2047
   1aeca:	26850513          	addi	a0,a0,616
   1aece:	6585                	lui	a1,0x1
   1aed0:	34058593          	addi	a1,a1,832 # 1340 <.Lline_table_start1+0x1115>
   1aed4:	958a                	add	a1,a1,sp
   1aed6:	04a00613          	li	a2,74
   1aeda:	00002097          	auipc	ra,0x2
   1aede:	e56080e7          	jalr	-426(ra) # 1cd30 <memcpy>
   1aee2:	6505                	lui	a0,0x1
   1aee4:	39c50513          	addi	a0,a0,924 # 139c <.Lline_table_start1+0x1171>
   1aee8:	950a                	add	a0,a0,sp
   1aeea:	7ff10593          	addi	a1,sp,2047
   1aeee:	26158593          	addi	a1,a1,609
   1aef2:	ffff9097          	auipc	ra,0xffff9
   1aef6:	b70080e7          	jalr	-1168(ra) # 13a62 <_ZN18complex_no_dynamic3app17h3cf6522576d329fdE>
   1aefa:	3ec94403          	lbu	s0,1004(s2)
   1aefe:	c401                	beqz	s0,1af06 <_start+0x2c96>
   1af00:	3f092983          	lw	s3,1008(s2)
   1af04:	a835                	j	1af40 <_start+0x2cd0>
   1af06:	3ee94503          	lbu	a0,1006(s2)
   1af0a:	3ed94583          	lbu	a1,1005(s2)
   1af0e:	3ef94603          	lbu	a2,1007(s2)
   1af12:	3f092983          	lw	s3,1008(s2)
   1af16:	0522                	slli	a0,a0,0x8
   1af18:	8d4d                	or	a0,a0,a1
   1af1a:	02a11223          	sh	a0,36(sp)
   1af1e:	02c10323          	sb	a2,38(sp)
   1af22:	6505                	lui	a0,0x1
   1af24:	3a450513          	addi	a0,a0,932 # 13a4 <.Lline_table_start1+0x1179>
   1af28:	00a105b3          	add	a1,sp,a0
   1af2c:	6505                	lui	a0,0x1
   1af2e:	34050513          	addi	a0,a0,832 # 1340 <.Lline_table_start1+0x1115>
   1af32:	950a                	add	a0,a0,sp
   1af34:	04800613          	li	a2,72
   1af38:	00002097          	auipc	ra,0x2
   1af3c:	df8080e7          	jalr	-520(ra) # 1cd30 <memcpy>
   1af40:	c019                	beqz	s0,1af46 <_start+0x2cd6>
   1af42:	4d30106f          	j	1cc14 <_start+0x49a4>
   1af46:	02411503          	lh	a0,36(sp)
   1af4a:	02614583          	lbu	a1,38(sp)
   1af4e:	0189d613          	srli	a2,s3,0x18
   1af52:	0109d693          	srli	a3,s3,0x10
   1af56:	30da04a3          	sb	a3,777(s4)
   1af5a:	30ca0523          	sb	a2,778(s4)
   1af5e:	0089d613          	srli	a2,s3,0x8
   1af62:	30aa1223          	sh	a0,772(s4)
   1af66:	30ba0323          	sb	a1,774(s4)
   1af6a:	313a03a3          	sb	s3,775(s4)
   1af6e:	30ca0423          	sb	a2,776(s4)
   1af72:	7ff10513          	addi	a0,sp,2047
   1af76:	2ba50513          	addi	a0,a0,698
   1af7a:	6585                	lui	a1,0x1
   1af7c:	34058593          	addi	a1,a1,832 # 1340 <.Lline_table_start1+0x1115>
   1af80:	958a                	add	a1,a1,sp
   1af82:	04800613          	li	a2,72
   1af86:	00002097          	auipc	ra,0x2
   1af8a:	daa080e7          	jalr	-598(ra) # 1cd30 <memcpy>
   1af8e:	6505                	lui	a0,0x1
   1af90:	39c50513          	addi	a0,a0,924 # 139c <.Lline_table_start1+0x1171>
   1af94:	950a                	add	a0,a0,sp
   1af96:	7ff10593          	addi	a1,sp,2047
   1af9a:	2b358593          	addi	a1,a1,691
   1af9e:	ffffd097          	auipc	ra,0xffffd
   1afa2:	1d0080e7          	jalr	464(ra) # 1816e <_ZN18complex_no_dynamic3app17hf87344b2377017f3E>
   1afa6:	3ec94403          	lbu	s0,1004(s2)
   1afaa:	c401                	beqz	s0,1afb2 <_start+0x2d42>
   1afac:	3f092983          	lw	s3,1008(s2)
   1afb0:	a835                	j	1afec <_start+0x2d7c>
   1afb2:	3ee94503          	lbu	a0,1006(s2)
   1afb6:	3ed94583          	lbu	a1,1005(s2)
   1afba:	3ef94603          	lbu	a2,1007(s2)
   1afbe:	3f092983          	lw	s3,1008(s2)
   1afc2:	0522                	slli	a0,a0,0x8
   1afc4:	8d4d                	or	a0,a0,a1
   1afc6:	02a11223          	sh	a0,36(sp)
   1afca:	02c10323          	sb	a2,38(sp)
   1afce:	6505                	lui	a0,0x1
   1afd0:	3a450513          	addi	a0,a0,932 # 13a4 <.Lline_table_start1+0x1179>
   1afd4:	00a105b3          	add	a1,sp,a0
   1afd8:	6505                	lui	a0,0x1
   1afda:	34050513          	addi	a0,a0,832 # 1340 <.Lline_table_start1+0x1115>
   1afde:	950a                	add	a0,a0,sp
   1afe0:	05a00613          	li	a2,90
   1afe4:	00002097          	auipc	ra,0x2
   1afe8:	d4c080e7          	jalr	-692(ra) # 1cd30 <memcpy>
   1afec:	c019                	beqz	s0,1aff2 <_start+0x2d82>
   1afee:	4270106f          	j	1cc14 <_start+0x49a4>
   1aff2:	02411503          	lh	a0,36(sp)
   1aff6:	02614583          	lbu	a1,38(sp)
   1affa:	0189d613          	srli	a2,s3,0x18
   1affe:	0109d693          	srli	a3,s3,0x10
   1b002:	34da0ca3          	sb	a3,857(s4)
   1b006:	34ca0d23          	sb	a2,858(s4)
   1b00a:	0089d613          	srli	a2,s3,0x8
   1b00e:	34aa1a23          	sh	a0,852(s4)
   1b012:	34ba0b23          	sb	a1,854(s4)
   1b016:	353a0ba3          	sb	s3,855(s4)
   1b01a:	34ca0c23          	sb	a2,856(s4)
   1b01e:	7ff10513          	addi	a0,sp,2047
   1b022:	30a50513          	addi	a0,a0,778
   1b026:	6585                	lui	a1,0x1
   1b028:	34058593          	addi	a1,a1,832 # 1340 <.Lline_table_start1+0x1115>
   1b02c:	958a                	add	a1,a1,sp
   1b02e:	05a00613          	li	a2,90
   1b032:	00002097          	auipc	ra,0x2
   1b036:	cfe080e7          	jalr	-770(ra) # 1cd30 <memcpy>
   1b03a:	6505                	lui	a0,0x1
   1b03c:	39c50513          	addi	a0,a0,924 # 139c <.Lline_table_start1+0x1171>
   1b040:	950a                	add	a0,a0,sp
   1b042:	7ff10593          	addi	a1,sp,2047
   1b046:	30358593          	addi	a1,a1,771
   1b04a:	ffffa097          	auipc	ra,0xffffa
   1b04e:	af0080e7          	jalr	-1296(ra) # 14b3a <_ZN18complex_no_dynamic3app17h62078588cad87800E>
   1b052:	3ec94503          	lbu	a0,1004(s2)
   1b056:	c501                	beqz	a0,1b05e <_start+0x2dee>
   1b058:	3f092983          	lw	s3,1008(s2)
   1b05c:	a899                	j	1b0b2 <_start+0x2e42>
   1b05e:	3ed94583          	lbu	a1,1005(s2)
   1b062:	3ee94603          	lbu	a2,1006(s2)
   1b066:	3ef94683          	lbu	a3,1007(s2)
   1b06a:	3f092983          	lw	s3,1008(s2)
   1b06e:	3f492703          	lw	a4,1012(s2)
   1b072:	3f892783          	lw	a5,1016(s2)
   1b076:	3fc92483          	lw	s1,1020(s2)
   1b07a:	40092403          	lw	s0,1024(s2)
   1b07e:	0622                	slli	a2,a2,0x8
   1b080:	38e92823          	sw	a4,912(s2)
   1b084:	38f92a23          	sw	a5,916(s2)
   1b088:	38992c23          	sw	s1,920(s2)
   1b08c:	38892e23          	sw	s0,924(s2)
   1b090:	8dd1                	or	a1,a1,a2
   1b092:	40492603          	lw	a2,1028(s2)
   1b096:	40891703          	lh	a4,1032(s2)
   1b09a:	40a94783          	lbu	a5,1034(s2)
   1b09e:	02b11223          	sh	a1,36(sp)
   1b0a2:	02d10323          	sb	a3,38(sp)
   1b0a6:	3ac92023          	sw	a2,928(s2)
   1b0aa:	3ae91223          	sh	a4,932(s2)
   1b0ae:	3af90323          	sb	a5,934(s2)
   1b0b2:	c119                	beqz	a0,1b0b8 <_start+0x2e48>
   1b0b4:	3610106f          	j	1cc14 <_start+0x49a4>
   1b0b8:	02411503          	lh	a0,36(sp)
   1b0bc:	02614583          	lbu	a1,38(sp)
   1b0c0:	0189d613          	srli	a2,s3,0x18
   1b0c4:	0109d693          	srli	a3,s3,0x10
   1b0c8:	3ada0da3          	sb	a3,955(s4)
   1b0cc:	3aca0e23          	sb	a2,956(s4)
   1b0d0:	0089d613          	srli	a2,s3,0x8
   1b0d4:	3aaa1b23          	sh	a0,950(s4)
   1b0d8:	3aba0c23          	sb	a1,952(s4)
   1b0dc:	3b3a0ca3          	sb	s3,953(s4)
   1b0e0:	3aca0d23          	sb	a2,954(s4)
   1b0e4:	7ff10513          	addi	a0,sp,2047
   1b0e8:	36c50513          	addi	a0,a0,876
   1b0ec:	6585                	lui	a1,0x1
   1b0ee:	34058593          	addi	a1,a1,832 # 1340 <.Lline_table_start1+0x1115>
   1b0f2:	958a                	add	a1,a1,sp
   1b0f4:	465d                	li	a2,23
   1b0f6:	00002097          	auipc	ra,0x2
   1b0fa:	c3a080e7          	jalr	-966(ra) # 1cd30 <memcpy>
   1b0fe:	6505                	lui	a0,0x1
   1b100:	39c50513          	addi	a0,a0,924 # 139c <.Lline_table_start1+0x1171>
   1b104:	950a                	add	a0,a0,sp
   1b106:	7ff10593          	addi	a1,sp,2047
   1b10a:	36558593          	addi	a1,a1,869
   1b10e:	ffffc097          	auipc	ra,0xffffc
   1b112:	508080e7          	jalr	1288(ra) # 17616 <_ZN18complex_no_dynamic3app17hddecc4ac8a341952E>
   1b116:	3ec94503          	lbu	a0,1004(s2)
   1b11a:	c501                	beqz	a0,1b122 <_start+0x2eb2>
   1b11c:	3f092983          	lw	s3,1008(s2)
   1b120:	a899                	j	1b176 <_start+0x2f06>
   1b122:	3ed94583          	lbu	a1,1005(s2)
   1b126:	3ee94603          	lbu	a2,1006(s2)
   1b12a:	3ef94683          	lbu	a3,1007(s2)
   1b12e:	3f092983          	lw	s3,1008(s2)
   1b132:	3f492703          	lw	a4,1012(s2)
   1b136:	3f892783          	lw	a5,1016(s2)
   1b13a:	3fc92483          	lw	s1,1020(s2)
   1b13e:	40092403          	lw	s0,1024(s2)
   1b142:	0622                	slli	a2,a2,0x8
   1b144:	38e92823          	sw	a4,912(s2)
   1b148:	38f92a23          	sw	a5,916(s2)
   1b14c:	38992c23          	sw	s1,920(s2)
   1b150:	38892e23          	sw	s0,924(s2)
   1b154:	8dd1                	or	a1,a1,a2
   1b156:	40492603          	lw	a2,1028(s2)
   1b15a:	40892703          	lw	a4,1032(s2)
   1b15e:	40c91783          	lh	a5,1036(s2)
   1b162:	02b11223          	sh	a1,36(sp)
   1b166:	02d10323          	sb	a3,38(sp)
   1b16a:	3ac92023          	sw	a2,928(s2)
   1b16e:	3ae92223          	sw	a4,932(s2)
   1b172:	3af91423          	sh	a5,936(s2)
   1b176:	c119                	beqz	a0,1b17c <_start+0x2f0c>
   1b178:	29d0106f          	j	1cc14 <_start+0x49a4>
   1b17c:	02411503          	lh	a0,36(sp)
   1b180:	02614583          	lbu	a1,38(sp)
   1b184:	0189d613          	srli	a2,s3,0x18
   1b188:	0109d693          	srli	a3,s3,0x10
   1b18c:	3cda0ca3          	sb	a3,985(s4)
   1b190:	3cca0d23          	sb	a2,986(s4)
   1b194:	0089d613          	srli	a2,s3,0x8
   1b198:	3caa1a23          	sh	a0,980(s4)
   1b19c:	3cba0b23          	sb	a1,982(s4)
   1b1a0:	3d3a0ba3          	sb	s3,983(s4)
   1b1a4:	3cca0c23          	sb	a2,984(s4)
   1b1a8:	7ff10513          	addi	a0,sp,2047
   1b1ac:	38a50513          	addi	a0,a0,906
   1b1b0:	6585                	lui	a1,0x1
   1b1b2:	34058593          	addi	a1,a1,832 # 1340 <.Lline_table_start1+0x1115>
   1b1b6:	958a                	add	a1,a1,sp
   1b1b8:	4669                	li	a2,26
   1b1ba:	00002097          	auipc	ra,0x2
   1b1be:	b76080e7          	jalr	-1162(ra) # 1cd30 <memcpy>
   1b1c2:	6505                	lui	a0,0x1
   1b1c4:	39c50513          	addi	a0,a0,924 # 139c <.Lline_table_start1+0x1171>
   1b1c8:	950a                	add	a0,a0,sp
   1b1ca:	7ff10593          	addi	a1,sp,2047
   1b1ce:	38358593          	addi	a1,a1,899
   1b1d2:	ffffa097          	auipc	ra,0xffffa
   1b1d6:	b78080e7          	jalr	-1160(ra) # 14d4a <_ZN18complex_no_dynamic3app17h69a68c4e4ef3bfb1E>
   1b1da:	3ec94403          	lbu	s0,1004(s2)
   1b1de:	c401                	beqz	s0,1b1e6 <_start+0x2f76>
   1b1e0:	3f092983          	lw	s3,1008(s2)
   1b1e4:	a835                	j	1b220 <_start+0x2fb0>
   1b1e6:	3ee94503          	lbu	a0,1006(s2)
   1b1ea:	3ed94583          	lbu	a1,1005(s2)
   1b1ee:	3ef94603          	lbu	a2,1007(s2)
   1b1f2:	3f092983          	lw	s3,1008(s2)
   1b1f6:	0522                	slli	a0,a0,0x8
   1b1f8:	8d4d                	or	a0,a0,a1
   1b1fa:	02a11223          	sh	a0,36(sp)
   1b1fe:	02c10323          	sb	a2,38(sp)
   1b202:	6505                	lui	a0,0x1
   1b204:	3a450513          	addi	a0,a0,932 # 13a4 <.Lline_table_start1+0x1179>
   1b208:	00a105b3          	add	a1,sp,a0
   1b20c:	6505                	lui	a0,0x1
   1b20e:	34050513          	addi	a0,a0,832 # 1340 <.Lline_table_start1+0x1115>
   1b212:	950a                	add	a0,a0,sp
   1b214:	02300613          	li	a2,35
   1b218:	00002097          	auipc	ra,0x2
   1b21c:	b18080e7          	jalr	-1256(ra) # 1cd30 <memcpy>
   1b220:	c019                	beqz	s0,1b226 <_start+0x2fb6>
   1b222:	1f30106f          	j	1cc14 <_start+0x49a4>
   1b226:	02411503          	lh	a0,36(sp)
   1b22a:	02614583          	lbu	a1,38(sp)
   1b22e:	0189d613          	srli	a2,s3,0x18
   1b232:	0109d693          	srli	a3,s3,0x10
   1b236:	3eda0da3          	sb	a3,1019(s4)
   1b23a:	3eca0e23          	sb	a2,1020(s4)
   1b23e:	0089d613          	srli	a2,s3,0x8
   1b242:	3eaa1b23          	sh	a0,1014(s4)
   1b246:	3eba0c23          	sb	a1,1016(s4)
   1b24a:	3f3a0ca3          	sb	s3,1017(s4)
   1b24e:	3eca0d23          	sb	a2,1018(s4)
   1b252:	7ff10513          	addi	a0,sp,2047
   1b256:	3ac50513          	addi	a0,a0,940
   1b25a:	6585                	lui	a1,0x1
   1b25c:	34058593          	addi	a1,a1,832 # 1340 <.Lline_table_start1+0x1115>
   1b260:	958a                	add	a1,a1,sp
   1b262:	02300613          	li	a2,35
   1b266:	00002097          	auipc	ra,0x2
   1b26a:	aca080e7          	jalr	-1334(ra) # 1cd30 <memcpy>
   1b26e:	6505                	lui	a0,0x1
   1b270:	39c50513          	addi	a0,a0,924 # 139c <.Lline_table_start1+0x1171>
   1b274:	950a                	add	a0,a0,sp
   1b276:	7ff10593          	addi	a1,sp,2047
   1b27a:	3a558593          	addi	a1,a1,933
   1b27e:	ffffa097          	auipc	ra,0xffffa
   1b282:	be8080e7          	jalr	-1048(ra) # 14e66 <_ZN18complex_no_dynamic3app17h6d1343c295aac3d6E>
   1b286:	3ec94403          	lbu	s0,1004(s2)
   1b28a:	c401                	beqz	s0,1b292 <_start+0x3022>
   1b28c:	3f092983          	lw	s3,1008(s2)
   1b290:	a835                	j	1b2cc <_start+0x305c>
   1b292:	3ee94503          	lbu	a0,1006(s2)
   1b296:	3ed94583          	lbu	a1,1005(s2)
   1b29a:	3ef94603          	lbu	a2,1007(s2)
   1b29e:	3f092983          	lw	s3,1008(s2)
   1b2a2:	0522                	slli	a0,a0,0x8
   1b2a4:	8d4d                	or	a0,a0,a1
   1b2a6:	02a11223          	sh	a0,36(sp)
   1b2aa:	02c10323          	sb	a2,38(sp)
   1b2ae:	6505                	lui	a0,0x1
   1b2b0:	3a450513          	addi	a0,a0,932 # 13a4 <.Lline_table_start1+0x1179>
   1b2b4:	00a105b3          	add	a1,sp,a0
   1b2b8:	6505                	lui	a0,0x1
   1b2ba:	34050513          	addi	a0,a0,832 # 1340 <.Lline_table_start1+0x1115>
   1b2be:	950a                	add	a0,a0,sp
   1b2c0:	05200613          	li	a2,82
   1b2c4:	00002097          	auipc	ra,0x2
   1b2c8:	a6c080e7          	jalr	-1428(ra) # 1cd30 <memcpy>
   1b2cc:	c019                	beqz	s0,1b2d2 <_start+0x3062>
   1b2ce:	1470106f          	j	1cc14 <_start+0x49a4>
   1b2d2:	02411503          	lh	a0,36(sp)
   1b2d6:	02614583          	lbu	a1,38(sp)
   1b2da:	0189d613          	srli	a2,s3,0x18
   1b2de:	0109d693          	srli	a3,s3,0x10
   1b2e2:	42da02a3          	sb	a3,1061(s4)
   1b2e6:	42ca0323          	sb	a2,1062(s4)
   1b2ea:	0089d613          	srli	a2,s3,0x8
   1b2ee:	42aa1023          	sh	a0,1056(s4)
   1b2f2:	42ba0123          	sb	a1,1058(s4)
   1b2f6:	433a01a3          	sb	s3,1059(s4)
   1b2fa:	42ca0223          	sb	a2,1060(s4)
   1b2fe:	7ff10513          	addi	a0,sp,2047
   1b302:	3d650513          	addi	a0,a0,982
   1b306:	6585                	lui	a1,0x1
   1b308:	34058593          	addi	a1,a1,832 # 1340 <.Lline_table_start1+0x1115>
   1b30c:	958a                	add	a1,a1,sp
   1b30e:	05200613          	li	a2,82
   1b312:	00002097          	auipc	ra,0x2
   1b316:	a1e080e7          	jalr	-1506(ra) # 1cd30 <memcpy>
   1b31a:	6505                	lui	a0,0x1
   1b31c:	39c50513          	addi	a0,a0,924 # 139c <.Lline_table_start1+0x1171>
   1b320:	950a                	add	a0,a0,sp
   1b322:	7ff10593          	addi	a1,sp,2047
   1b326:	3cf58593          	addi	a1,a1,975
   1b32a:	ffff9097          	auipc	ra,0xffff9
   1b32e:	0f8080e7          	jalr	248(ra) # 14422 <_ZN18complex_no_dynamic3app17h5217cbaae0139557E>
   1b332:	3ec94403          	lbu	s0,1004(s2)
   1b336:	c401                	beqz	s0,1b33e <_start+0x30ce>
   1b338:	3f092983          	lw	s3,1008(s2)
   1b33c:	a835                	j	1b378 <_start+0x3108>
   1b33e:	3ee94503          	lbu	a0,1006(s2)
   1b342:	3ed94583          	lbu	a1,1005(s2)
   1b346:	3ef94603          	lbu	a2,1007(s2)
   1b34a:	3f092983          	lw	s3,1008(s2)
   1b34e:	0522                	slli	a0,a0,0x8
   1b350:	8d4d                	or	a0,a0,a1
   1b352:	02a11223          	sh	a0,36(sp)
   1b356:	02c10323          	sb	a2,38(sp)
   1b35a:	6505                	lui	a0,0x1
   1b35c:	3a450513          	addi	a0,a0,932 # 13a4 <.Lline_table_start1+0x1179>
   1b360:	00a105b3          	add	a1,sp,a0
   1b364:	6505                	lui	a0,0x1
   1b366:	34050513          	addi	a0,a0,832 # 1340 <.Lline_table_start1+0x1115>
   1b36a:	950a                	add	a0,a0,sp
   1b36c:	04300613          	li	a2,67
   1b370:	00002097          	auipc	ra,0x2
   1b374:	9c0080e7          	jalr	-1600(ra) # 1cd30 <memcpy>
   1b378:	c019                	beqz	s0,1b37e <_start+0x310e>
   1b37a:	09b0106f          	j	1cc14 <_start+0x49a4>
   1b37e:	02411503          	lh	a0,36(sp)
   1b382:	02614583          	lbu	a1,38(sp)
   1b386:	0189d613          	srli	a2,s3,0x18
   1b38a:	0109d693          	srli	a3,s3,0x10
   1b38e:	46da0fa3          	sb	a3,1151(s4)
   1b392:	48ca0023          	sb	a2,1152(s4)
   1b396:	0089d613          	srli	a2,s3,0x8
   1b39a:	46aa1d23          	sh	a0,1146(s4)
   1b39e:	46ba0e23          	sb	a1,1148(s4)
   1b3a2:	473a0ea3          	sb	s3,1149(s4)
   1b3a6:	46ca0f23          	sb	a2,1150(s4)
   1b3aa:	7ff10513          	addi	a0,sp,2047
   1b3ae:	43050513          	addi	a0,a0,1072
   1b3b2:	6585                	lui	a1,0x1
   1b3b4:	34058593          	addi	a1,a1,832 # 1340 <.Lline_table_start1+0x1115>
   1b3b8:	958a                	add	a1,a1,sp
   1b3ba:	04300613          	li	a2,67
   1b3be:	00002097          	auipc	ra,0x2
   1b3c2:	972080e7          	jalr	-1678(ra) # 1cd30 <memcpy>
   1b3c6:	6505                	lui	a0,0x1
   1b3c8:	39c50513          	addi	a0,a0,924 # 139c <.Lline_table_start1+0x1171>
   1b3cc:	950a                	add	a0,a0,sp
   1b3ce:	7ff10593          	addi	a1,sp,2047
   1b3d2:	42958593          	addi	a1,a1,1065
   1b3d6:	ffff6097          	auipc	ra,0xffff6
   1b3da:	f74080e7          	jalr	-140(ra) # 1134a <_ZN18complex_no_dynamic3app17h02f1f369795bad3eE>
   1b3de:	3ec94403          	lbu	s0,1004(s2)
   1b3e2:	c401                	beqz	s0,1b3ea <_start+0x317a>
   1b3e4:	3f092983          	lw	s3,1008(s2)
   1b3e8:	a835                	j	1b424 <_start+0x31b4>
   1b3ea:	3ee94503          	lbu	a0,1006(s2)
   1b3ee:	3ed94583          	lbu	a1,1005(s2)
   1b3f2:	3ef94603          	lbu	a2,1007(s2)
   1b3f6:	3f092983          	lw	s3,1008(s2)
   1b3fa:	0522                	slli	a0,a0,0x8
   1b3fc:	8d4d                	or	a0,a0,a1
   1b3fe:	02a11223          	sh	a0,36(sp)
   1b402:	02c10323          	sb	a2,38(sp)
   1b406:	6505                	lui	a0,0x1
   1b408:	3a450513          	addi	a0,a0,932 # 13a4 <.Lline_table_start1+0x1179>
   1b40c:	00a105b3          	add	a1,sp,a0
   1b410:	6505                	lui	a0,0x1
   1b412:	34050513          	addi	a0,a0,832 # 1340 <.Lline_table_start1+0x1115>
   1b416:	950a                	add	a0,a0,sp
   1b418:	02600613          	li	a2,38
   1b41c:	00002097          	auipc	ra,0x2
   1b420:	914080e7          	jalr	-1772(ra) # 1cd30 <memcpy>
   1b424:	c019                	beqz	s0,1b42a <_start+0x31ba>
   1b426:	7ee0106f          	j	1cc14 <_start+0x49a4>
   1b42a:	02411503          	lh	a0,36(sp)
   1b42e:	02614583          	lbu	a1,38(sp)
   1b432:	0189d613          	srli	a2,s3,0x18
   1b436:	0109d693          	srli	a3,s3,0x10
   1b43a:	4cda04a3          	sb	a3,1225(s4)
   1b43e:	4cca0523          	sb	a2,1226(s4)
   1b442:	0089d613          	srli	a2,s3,0x8
   1b446:	4caa1223          	sh	a0,1220(s4)
   1b44a:	4cba0323          	sb	a1,1222(s4)
   1b44e:	4d3a03a3          	sb	s3,1223(s4)
   1b452:	4cca0423          	sb	a2,1224(s4)
   1b456:	7ff10513          	addi	a0,sp,2047
   1b45a:	47a50513          	addi	a0,a0,1146
   1b45e:	6585                	lui	a1,0x1
   1b460:	34058593          	addi	a1,a1,832 # 1340 <.Lline_table_start1+0x1115>
   1b464:	958a                	add	a1,a1,sp
   1b466:	02600613          	li	a2,38
   1b46a:	00002097          	auipc	ra,0x2
   1b46e:	8c6080e7          	jalr	-1850(ra) # 1cd30 <memcpy>
   1b472:	6505                	lui	a0,0x1
   1b474:	39c50513          	addi	a0,a0,924 # 139c <.Lline_table_start1+0x1171>
   1b478:	950a                	add	a0,a0,sp
   1b47a:	7ff10593          	addi	a1,sp,2047
   1b47e:	47358593          	addi	a1,a1,1139
   1b482:	ffff7097          	auipc	ra,0xffff7
   1b486:	bd8080e7          	jalr	-1064(ra) # 1205a <_ZN18complex_no_dynamic3app17h2105c127ee662535E>
   1b48a:	3ec94403          	lbu	s0,1004(s2)
   1b48e:	c401                	beqz	s0,1b496 <_start+0x3226>
   1b490:	3f092983          	lw	s3,1008(s2)
   1b494:	a835                	j	1b4d0 <_start+0x3260>
   1b496:	3ee94503          	lbu	a0,1006(s2)
   1b49a:	3ed94583          	lbu	a1,1005(s2)
   1b49e:	3ef94603          	lbu	a2,1007(s2)
   1b4a2:	3f092983          	lw	s3,1008(s2)
   1b4a6:	0522                	slli	a0,a0,0x8
   1b4a8:	8d4d                	or	a0,a0,a1
   1b4aa:	02a11223          	sh	a0,36(sp)
   1b4ae:	02c10323          	sb	a2,38(sp)
   1b4b2:	6505                	lui	a0,0x1
   1b4b4:	3a450513          	addi	a0,a0,932 # 13a4 <.Lline_table_start1+0x1179>
   1b4b8:	00a105b3          	add	a1,sp,a0
   1b4bc:	6505                	lui	a0,0x1
   1b4be:	34050513          	addi	a0,a0,832 # 1340 <.Lline_table_start1+0x1115>
   1b4c2:	950a                	add	a0,a0,sp
   1b4c4:	04c00613          	li	a2,76
   1b4c8:	00002097          	auipc	ra,0x2
   1b4cc:	868080e7          	jalr	-1944(ra) # 1cd30 <memcpy>
   1b4d0:	c019                	beqz	s0,1b4d6 <_start+0x3266>
   1b4d2:	7420106f          	j	1cc14 <_start+0x49a4>
   1b4d6:	02411503          	lh	a0,36(sp)
   1b4da:	02614583          	lbu	a1,38(sp)
   1b4de:	0189d613          	srli	a2,s3,0x18
   1b4e2:	0109d693          	srli	a3,s3,0x10
   1b4e6:	4eda0ba3          	sb	a3,1271(s4)
   1b4ea:	4eca0c23          	sb	a2,1272(s4)
   1b4ee:	0089d613          	srli	a2,s3,0x8
   1b4f2:	4eaa1923          	sh	a0,1266(s4)
   1b4f6:	4eba0a23          	sb	a1,1268(s4)
   1b4fa:	4f3a0aa3          	sb	s3,1269(s4)
   1b4fe:	4eca0b23          	sb	a2,1270(s4)
   1b502:	7ff10513          	addi	a0,sp,2047
   1b506:	4a850513          	addi	a0,a0,1192
   1b50a:	6585                	lui	a1,0x1
   1b50c:	34058593          	addi	a1,a1,832 # 1340 <.Lline_table_start1+0x1115>
   1b510:	958a                	add	a1,a1,sp
   1b512:	04c00613          	li	a2,76
   1b516:	00002097          	auipc	ra,0x2
   1b51a:	81a080e7          	jalr	-2022(ra) # 1cd30 <memcpy>
   1b51e:	6505                	lui	a0,0x1
   1b520:	39c50513          	addi	a0,a0,924 # 139c <.Lline_table_start1+0x1171>
   1b524:	950a                	add	a0,a0,sp
   1b526:	7ff10593          	addi	a1,sp,2047
   1b52a:	4a158593          	addi	a1,a1,1185
   1b52e:	ffffd097          	auipc	ra,0xffffd
   1b532:	88a080e7          	jalr	-1910(ra) # 17db8 <_ZN18complex_no_dynamic3app17heb73403094300ac0E>
   1b536:	3ec94403          	lbu	s0,1004(s2)
   1b53a:	c401                	beqz	s0,1b542 <_start+0x32d2>
   1b53c:	3f092983          	lw	s3,1008(s2)
   1b540:	a835                	j	1b57c <_start+0x330c>
   1b542:	3ee94503          	lbu	a0,1006(s2)
   1b546:	3ed94583          	lbu	a1,1005(s2)
   1b54a:	3ef94603          	lbu	a2,1007(s2)
   1b54e:	3f092983          	lw	s3,1008(s2)
   1b552:	0522                	slli	a0,a0,0x8
   1b554:	8d4d                	or	a0,a0,a1
   1b556:	02a11223          	sh	a0,36(sp)
   1b55a:	02c10323          	sb	a2,38(sp)
   1b55e:	6505                	lui	a0,0x1
   1b560:	3a450513          	addi	a0,a0,932 # 13a4 <.Lline_table_start1+0x1179>
   1b564:	00a105b3          	add	a1,sp,a0
   1b568:	6505                	lui	a0,0x1
   1b56a:	34050513          	addi	a0,a0,832 # 1340 <.Lline_table_start1+0x1115>
   1b56e:	950a                	add	a0,a0,sp
   1b570:	03300613          	li	a2,51
   1b574:	00001097          	auipc	ra,0x1
   1b578:	7bc080e7          	jalr	1980(ra) # 1cd30 <memcpy>
   1b57c:	c019                	beqz	s0,1b582 <_start+0x3312>
   1b57e:	6960106f          	j	1cc14 <_start+0x49a4>
   1b582:	02411503          	lh	a0,36(sp)
   1b586:	02614583          	lbu	a1,38(sp)
   1b58a:	0189d613          	srli	a2,s3,0x18
   1b58e:	0109d693          	srli	a3,s3,0x10
   1b592:	54da05a3          	sb	a3,1355(s4)
   1b596:	54ca0623          	sb	a2,1356(s4)
   1b59a:	0089d613          	srli	a2,s3,0x8
   1b59e:	54aa1323          	sh	a0,1350(s4)
   1b5a2:	54ba0423          	sb	a1,1352(s4)
   1b5a6:	553a04a3          	sb	s3,1353(s4)
   1b5aa:	54ca0523          	sb	a2,1354(s4)
   1b5ae:	7ff10513          	addi	a0,sp,2047
   1b5b2:	4fc50513          	addi	a0,a0,1276
   1b5b6:	6585                	lui	a1,0x1
   1b5b8:	34058593          	addi	a1,a1,832 # 1340 <.Lline_table_start1+0x1115>
   1b5bc:	958a                	add	a1,a1,sp
   1b5be:	03300613          	li	a2,51
   1b5c2:	00001097          	auipc	ra,0x1
   1b5c6:	76e080e7          	jalr	1902(ra) # 1cd30 <memcpy>
   1b5ca:	6505                	lui	a0,0x1
   1b5cc:	39c50513          	addi	a0,a0,924 # 139c <.Lline_table_start1+0x1171>
   1b5d0:	950a                	add	a0,a0,sp
   1b5d2:	7ff10593          	addi	a1,sp,2047
   1b5d6:	4f558593          	addi	a1,a1,1269
   1b5da:	ffffa097          	auipc	ra,0xffffa
   1b5de:	9a8080e7          	jalr	-1624(ra) # 14f82 <_ZN18complex_no_dynamic3app17h6e6f1b9c367206faE>
   1b5e2:	3ec94403          	lbu	s0,1004(s2)
   1b5e6:	c401                	beqz	s0,1b5ee <_start+0x337e>
   1b5e8:	3f092983          	lw	s3,1008(s2)
   1b5ec:	a835                	j	1b628 <_start+0x33b8>
   1b5ee:	3ee94503          	lbu	a0,1006(s2)
   1b5f2:	3ed94583          	lbu	a1,1005(s2)
   1b5f6:	3ef94603          	lbu	a2,1007(s2)
   1b5fa:	3f092983          	lw	s3,1008(s2)
   1b5fe:	0522                	slli	a0,a0,0x8
   1b600:	8d4d                	or	a0,a0,a1
   1b602:	02a11223          	sh	a0,36(sp)
   1b606:	02c10323          	sb	a2,38(sp)
   1b60a:	6505                	lui	a0,0x1
   1b60c:	3a450513          	addi	a0,a0,932 # 13a4 <.Lline_table_start1+0x1179>
   1b610:	00a105b3          	add	a1,sp,a0
   1b614:	6505                	lui	a0,0x1
   1b616:	34050513          	addi	a0,a0,832 # 1340 <.Lline_table_start1+0x1115>
   1b61a:	950a                	add	a0,a0,sp
   1b61c:	05600613          	li	a2,86
   1b620:	00001097          	auipc	ra,0x1
   1b624:	710080e7          	jalr	1808(ra) # 1cd30 <memcpy>
   1b628:	c019                	beqz	s0,1b62e <_start+0x33be>
   1b62a:	5ea0106f          	j	1cc14 <_start+0x49a4>
   1b62e:	02411503          	lh	a0,36(sp)
   1b632:	02614583          	lbu	a1,38(sp)
   1b636:	0189d613          	srli	a2,s3,0x18
   1b63a:	0109d693          	srli	a3,s3,0x10
   1b63e:	58da02a3          	sb	a3,1413(s4)
   1b642:	58ca0323          	sb	a2,1414(s4)
   1b646:	0089d613          	srli	a2,s3,0x8
   1b64a:	58aa1023          	sh	a0,1408(s4)
   1b64e:	58ba0123          	sb	a1,1410(s4)
   1b652:	593a01a3          	sb	s3,1411(s4)
   1b656:	58ca0223          	sb	a2,1412(s4)
   1b65a:	7ff10513          	addi	a0,sp,2047
   1b65e:	53650513          	addi	a0,a0,1334
   1b662:	6585                	lui	a1,0x1
   1b664:	34058593          	addi	a1,a1,832 # 1340 <.Lline_table_start1+0x1115>
   1b668:	958a                	add	a1,a1,sp
   1b66a:	05600613          	li	a2,86
   1b66e:	00001097          	auipc	ra,0x1
   1b672:	6c2080e7          	jalr	1730(ra) # 1cd30 <memcpy>
   1b676:	6505                	lui	a0,0x1
   1b678:	39c50513          	addi	a0,a0,924 # 139c <.Lline_table_start1+0x1171>
   1b67c:	950a                	add	a0,a0,sp
   1b67e:	7ff10593          	addi	a1,sp,2047
   1b682:	52f58593          	addi	a1,a1,1327
   1b686:	ffffa097          	auipc	ra,0xffffa
   1b68a:	154080e7          	jalr	340(ra) # 157da <_ZN18complex_no_dynamic3app17h921fd133a239d55cE>
   1b68e:	3ec94403          	lbu	s0,1004(s2)
   1b692:	c401                	beqz	s0,1b69a <_start+0x342a>
   1b694:	3f092983          	lw	s3,1008(s2)
   1b698:	a835                	j	1b6d4 <_start+0x3464>
   1b69a:	3ee94503          	lbu	a0,1006(s2)
   1b69e:	3ed94583          	lbu	a1,1005(s2)
   1b6a2:	3ef94603          	lbu	a2,1007(s2)
   1b6a6:	3f092983          	lw	s3,1008(s2)
   1b6aa:	0522                	slli	a0,a0,0x8
   1b6ac:	8d4d                	or	a0,a0,a1
   1b6ae:	02a11223          	sh	a0,36(sp)
   1b6b2:	02c10323          	sb	a2,38(sp)
   1b6b6:	6505                	lui	a0,0x1
   1b6b8:	3a450513          	addi	a0,a0,932 # 13a4 <.Lline_table_start1+0x1179>
   1b6bc:	00a105b3          	add	a1,sp,a0
   1b6c0:	6505                	lui	a0,0x1
   1b6c2:	34050513          	addi	a0,a0,832 # 1340 <.Lline_table_start1+0x1115>
   1b6c6:	950a                	add	a0,a0,sp
   1b6c8:	03900613          	li	a2,57
   1b6cc:	00001097          	auipc	ra,0x1
   1b6d0:	664080e7          	jalr	1636(ra) # 1cd30 <memcpy>
   1b6d4:	c019                	beqz	s0,1b6da <_start+0x346a>
   1b6d6:	53e0106f          	j	1cc14 <_start+0x49a4>
   1b6da:	02411503          	lh	a0,36(sp)
   1b6de:	02614583          	lbu	a1,38(sp)
   1b6e2:	0189d613          	srli	a2,s3,0x18
   1b6e6:	0109d693          	srli	a3,s3,0x10
   1b6ea:	5eda01a3          	sb	a3,1507(s4)
   1b6ee:	5eca0223          	sb	a2,1508(s4)
   1b6f2:	0089d613          	srli	a2,s3,0x8
   1b6f6:	5caa1f23          	sh	a0,1502(s4)
   1b6fa:	5eba0023          	sb	a1,1504(s4)
   1b6fe:	5f3a00a3          	sb	s3,1505(s4)
   1b702:	5eca0123          	sb	a2,1506(s4)
   1b706:	7ff10513          	addi	a0,sp,2047
   1b70a:	59450513          	addi	a0,a0,1428
   1b70e:	6585                	lui	a1,0x1
   1b710:	34058593          	addi	a1,a1,832 # 1340 <.Lline_table_start1+0x1115>
   1b714:	958a                	add	a1,a1,sp
   1b716:	03900613          	li	a2,57
   1b71a:	00001097          	auipc	ra,0x1
   1b71e:	616080e7          	jalr	1558(ra) # 1cd30 <memcpy>
   1b722:	6505                	lui	a0,0x1
   1b724:	39c50513          	addi	a0,a0,924 # 139c <.Lline_table_start1+0x1171>
   1b728:	950a                	add	a0,a0,sp
   1b72a:	7ff10593          	addi	a1,sp,2047
   1b72e:	58d58593          	addi	a1,a1,1421
   1b732:	ffff6097          	auipc	ra,0xffff6
   1b736:	e2e080e7          	jalr	-466(ra) # 11560 <_ZN18complex_no_dynamic3app17h06a36b3fc2b0f40aE>
   1b73a:	3ec94403          	lbu	s0,1004(s2)
   1b73e:	c401                	beqz	s0,1b746 <_start+0x34d6>
   1b740:	3f092983          	lw	s3,1008(s2)
   1b744:	a835                	j	1b780 <_start+0x3510>
   1b746:	3ee94503          	lbu	a0,1006(s2)
   1b74a:	3ed94583          	lbu	a1,1005(s2)
   1b74e:	3ef94603          	lbu	a2,1007(s2)
   1b752:	3f092983          	lw	s3,1008(s2)
   1b756:	0522                	slli	a0,a0,0x8
   1b758:	8d4d                	or	a0,a0,a1
   1b75a:	02a11223          	sh	a0,36(sp)
   1b75e:	02c10323          	sb	a2,38(sp)
   1b762:	6505                	lui	a0,0x1
   1b764:	3a450513          	addi	a0,a0,932 # 13a4 <.Lline_table_start1+0x1179>
   1b768:	00a105b3          	add	a1,sp,a0
   1b76c:	6505                	lui	a0,0x1
   1b76e:	34050513          	addi	a0,a0,832 # 1340 <.Lline_table_start1+0x1115>
   1b772:	950a                	add	a0,a0,sp
   1b774:	02a00613          	li	a2,42
   1b778:	00001097          	auipc	ra,0x1
   1b77c:	5b8080e7          	jalr	1464(ra) # 1cd30 <memcpy>
   1b780:	c019                	beqz	s0,1b786 <_start+0x3516>
   1b782:	4920106f          	j	1cc14 <_start+0x49a4>
   1b786:	02411503          	lh	a0,36(sp)
   1b78a:	02614583          	lbu	a1,38(sp)
   1b78e:	0189d613          	srli	a2,s3,0x18
   1b792:	0109d693          	srli	a3,s3,0x10
   1b796:	62da01a3          	sb	a3,1571(s4)
   1b79a:	62ca0223          	sb	a2,1572(s4)
   1b79e:	0089d613          	srli	a2,s3,0x8
   1b7a2:	60aa1f23          	sh	a0,1566(s4)
   1b7a6:	62ba0023          	sb	a1,1568(s4)
   1b7aa:	633a00a3          	sb	s3,1569(s4)
   1b7ae:	62ca0123          	sb	a2,1570(s4)
   1b7b2:	7ff10513          	addi	a0,sp,2047
   1b7b6:	5d450513          	addi	a0,a0,1492
   1b7ba:	6585                	lui	a1,0x1
   1b7bc:	34058593          	addi	a1,a1,832 # 1340 <.Lline_table_start1+0x1115>
   1b7c0:	958a                	add	a1,a1,sp
   1b7c2:	02a00613          	li	a2,42
   1b7c6:	00001097          	auipc	ra,0x1
   1b7ca:	56a080e7          	jalr	1386(ra) # 1cd30 <memcpy>
   1b7ce:	6505                	lui	a0,0x1
   1b7d0:	39c50513          	addi	a0,a0,924 # 139c <.Lline_table_start1+0x1171>
   1b7d4:	950a                	add	a0,a0,sp
   1b7d6:	7ff10593          	addi	a1,sp,2047
   1b7da:	5cd58593          	addi	a1,a1,1485
   1b7de:	ffffc097          	auipc	ra,0xffffc
   1b7e2:	4ce080e7          	jalr	1230(ra) # 17cac <_ZN18complex_no_dynamic3app17hea66859ed121c071E>
   1b7e6:	3ec94403          	lbu	s0,1004(s2)
   1b7ea:	c401                	beqz	s0,1b7f2 <_start+0x3582>
   1b7ec:	3f092983          	lw	s3,1008(s2)
   1b7f0:	a835                	j	1b82c <_start+0x35bc>
   1b7f2:	3ee94503          	lbu	a0,1006(s2)
   1b7f6:	3ed94583          	lbu	a1,1005(s2)
   1b7fa:	3ef94603          	lbu	a2,1007(s2)
   1b7fe:	3f092983          	lw	s3,1008(s2)
   1b802:	0522                	slli	a0,a0,0x8
   1b804:	8d4d                	or	a0,a0,a1
   1b806:	02a11223          	sh	a0,36(sp)
   1b80a:	02c10323          	sb	a2,38(sp)
   1b80e:	6505                	lui	a0,0x1
   1b810:	3a450513          	addi	a0,a0,932 # 13a4 <.Lline_table_start1+0x1179>
   1b814:	00a105b3          	add	a1,sp,a0
   1b818:	6505                	lui	a0,0x1
   1b81a:	34050513          	addi	a0,a0,832 # 1340 <.Lline_table_start1+0x1115>
   1b81e:	950a                	add	a0,a0,sp
   1b820:	04100613          	li	a2,65
   1b824:	00001097          	auipc	ra,0x1
   1b828:	50c080e7          	jalr	1292(ra) # 1cd30 <memcpy>
   1b82c:	c019                	beqz	s0,1b832 <_start+0x35c2>
   1b82e:	3e60106f          	j	1cc14 <_start+0x49a4>
   1b832:	02411503          	lh	a0,36(sp)
   1b836:	02614583          	lbu	a1,38(sp)
   1b83a:	0189d613          	srli	a2,s3,0x18
   1b83e:	0109d693          	srli	a3,s3,0x10
   1b842:	64da0aa3          	sb	a3,1621(s4)
   1b846:	64ca0b23          	sb	a2,1622(s4)
   1b84a:	0089d613          	srli	a2,s3,0x8
   1b84e:	64aa1823          	sh	a0,1616(s4)
   1b852:	64ba0923          	sb	a1,1618(s4)
   1b856:	653a09a3          	sb	s3,1619(s4)
   1b85a:	64ca0a23          	sb	a2,1620(s4)
   1b85e:	7ff10513          	addi	a0,sp,2047
   1b862:	60650513          	addi	a0,a0,1542
   1b866:	6585                	lui	a1,0x1
   1b868:	34058593          	addi	a1,a1,832 # 1340 <.Lline_table_start1+0x1115>
   1b86c:	958a                	add	a1,a1,sp
   1b86e:	04100613          	li	a2,65
   1b872:	00001097          	auipc	ra,0x1
   1b876:	4be080e7          	jalr	1214(ra) # 1cd30 <memcpy>
   1b87a:	6505                	lui	a0,0x1
   1b87c:	39c50513          	addi	a0,a0,924 # 139c <.Lline_table_start1+0x1171>
   1b880:	950a                	add	a0,a0,sp
   1b882:	7ff10593          	addi	a1,sp,2047
   1b886:	5ff58593          	addi	a1,a1,1535
   1b88a:	ffffb097          	auipc	ra,0xffffb
   1b88e:	e80080e7          	jalr	-384(ra) # 1670a <_ZN18complex_no_dynamic3app17hbadd1363b189f42bE>
   1b892:	3ec94403          	lbu	s0,1004(s2)
   1b896:	c401                	beqz	s0,1b89e <_start+0x362e>
   1b898:	3f092983          	lw	s3,1008(s2)
   1b89c:	a835                	j	1b8d8 <_start+0x3668>
   1b89e:	3ee94503          	lbu	a0,1006(s2)
   1b8a2:	3ed94583          	lbu	a1,1005(s2)
   1b8a6:	3ef94603          	lbu	a2,1007(s2)
   1b8aa:	3f092983          	lw	s3,1008(s2)
   1b8ae:	0522                	slli	a0,a0,0x8
   1b8b0:	8d4d                	or	a0,a0,a1
   1b8b2:	02a11223          	sh	a0,36(sp)
   1b8b6:	02c10323          	sb	a2,38(sp)
   1b8ba:	6505                	lui	a0,0x1
   1b8bc:	3a450513          	addi	a0,a0,932 # 13a4 <.Lline_table_start1+0x1179>
   1b8c0:	00a105b3          	add	a1,sp,a0
   1b8c4:	6505                	lui	a0,0x1
   1b8c6:	34050513          	addi	a0,a0,832 # 1340 <.Lline_table_start1+0x1115>
   1b8ca:	950a                	add	a0,a0,sp
   1b8cc:	02200613          	li	a2,34
   1b8d0:	00001097          	auipc	ra,0x1
   1b8d4:	460080e7          	jalr	1120(ra) # 1cd30 <memcpy>
   1b8d8:	c019                	beqz	s0,1b8de <_start+0x366e>
   1b8da:	33a0106f          	j	1cc14 <_start+0x49a4>
   1b8de:	02411503          	lh	a0,36(sp)
   1b8e2:	02614583          	lbu	a1,38(sp)
   1b8e6:	0189d613          	srli	a2,s3,0x18
   1b8ea:	0109d693          	srli	a3,s3,0x10
   1b8ee:	68da0ea3          	sb	a3,1693(s4)
   1b8f2:	68ca0f23          	sb	a2,1694(s4)
   1b8f6:	0089d613          	srli	a2,s3,0x8
   1b8fa:	68aa1c23          	sh	a0,1688(s4)
   1b8fe:	68ba0d23          	sb	a1,1690(s4)
   1b902:	693a0da3          	sb	s3,1691(s4)
   1b906:	68ca0e23          	sb	a2,1692(s4)
   1b90a:	7ff10513          	addi	a0,sp,2047
   1b90e:	64e50513          	addi	a0,a0,1614
   1b912:	6585                	lui	a1,0x1
   1b914:	34058593          	addi	a1,a1,832 # 1340 <.Lline_table_start1+0x1115>
   1b918:	958a                	add	a1,a1,sp
   1b91a:	02200613          	li	a2,34
   1b91e:	00001097          	auipc	ra,0x1
   1b922:	412080e7          	jalr	1042(ra) # 1cd30 <memcpy>
   1b926:	6505                	lui	a0,0x1
   1b928:	39c50513          	addi	a0,a0,924 # 139c <.Lline_table_start1+0x1171>
   1b92c:	950a                	add	a0,a0,sp
   1b92e:	7ff10593          	addi	a1,sp,2047
   1b932:	64758593          	addi	a1,a1,1607
   1b936:	ffff8097          	auipc	ra,0xffff8
   1b93a:	e08080e7          	jalr	-504(ra) # 1373e <_ZN18complex_no_dynamic3app17h3b5bfee77d8b5db5E>
   1b93e:	3ec94503          	lbu	a0,1004(s2)
   1b942:	c501                	beqz	a0,1b94a <_start+0x36da>
   1b944:	3f092983          	lw	s3,1008(s2)
   1b948:	a0b9                	j	1b996 <_start+0x3726>
   1b94a:	3ed94583          	lbu	a1,1005(s2)
   1b94e:	3ee94603          	lbu	a2,1006(s2)
   1b952:	3ef94683          	lbu	a3,1007(s2)
   1b956:	3f092983          	lw	s3,1008(s2)
   1b95a:	3f492703          	lw	a4,1012(s2)
   1b95e:	3f892783          	lw	a5,1016(s2)
   1b962:	3fc92483          	lw	s1,1020(s2)
   1b966:	40092403          	lw	s0,1024(s2)
   1b96a:	0622                	slli	a2,a2,0x8
   1b96c:	38e92823          	sw	a4,912(s2)
   1b970:	38f92a23          	sw	a5,916(s2)
   1b974:	38992c23          	sw	s1,920(s2)
   1b978:	38892e23          	sw	s0,924(s2)
   1b97c:	8dd1                	or	a1,a1,a2
   1b97e:	40491603          	lh	a2,1028(s2)
   1b982:	40694703          	lbu	a4,1030(s2)
   1b986:	02b11223          	sh	a1,36(sp)
   1b98a:	02d10323          	sb	a3,38(sp)
   1b98e:	3ac91023          	sh	a2,928(s2)
   1b992:	3ae90123          	sb	a4,930(s2)
   1b996:	c119                	beqz	a0,1b99c <_start+0x372c>
   1b998:	27c0106f          	j	1cc14 <_start+0x49a4>
   1b99c:	02411503          	lh	a0,36(sp)
   1b9a0:	02614583          	lbu	a1,38(sp)
   1b9a4:	0189d613          	srli	a2,s3,0x18
   1b9a8:	0109d693          	srli	a3,s3,0x10
   1b9ac:	6cda03a3          	sb	a3,1735(s4)
   1b9b0:	6cca0423          	sb	a2,1736(s4)
   1b9b4:	0089d613          	srli	a2,s3,0x8
   1b9b8:	6caa1123          	sh	a0,1730(s4)
   1b9bc:	6cba0223          	sb	a1,1732(s4)
   1b9c0:	6d3a02a3          	sb	s3,1733(s4)
   1b9c4:	6cca0323          	sb	a2,1734(s4)
   1b9c8:	7ff10513          	addi	a0,sp,2047
   1b9cc:	67850513          	addi	a0,a0,1656
   1b9d0:	6585                	lui	a1,0x1
   1b9d2:	34058593          	addi	a1,a1,832 # 1340 <.Lline_table_start1+0x1115>
   1b9d6:	958a                	add	a1,a1,sp
   1b9d8:	464d                	li	a2,19
   1b9da:	00001097          	auipc	ra,0x1
   1b9de:	356080e7          	jalr	854(ra) # 1cd30 <memcpy>
   1b9e2:	6505                	lui	a0,0x1
   1b9e4:	39c50513          	addi	a0,a0,924 # 139c <.Lline_table_start1+0x1171>
   1b9e8:	950a                	add	a0,a0,sp
   1b9ea:	7ff10593          	addi	a1,sp,2047
   1b9ee:	67158593          	addi	a1,a1,1649
   1b9f2:	ffffa097          	auipc	ra,0xffffa
   1b9f6:	726080e7          	jalr	1830(ra) # 16118 <_ZN18complex_no_dynamic3app17hb6d36c521ba00828E>
   1b9fa:	3ec94503          	lbu	a0,1004(s2)
   1b9fe:	c501                	beqz	a0,1ba06 <_start+0x3796>
   1ba00:	3f092983          	lw	s3,1008(s2)
   1ba04:	a099                	j	1ba4a <_start+0x37da>
   1ba06:	3ed94583          	lbu	a1,1005(s2)
   1ba0a:	3ee94603          	lbu	a2,1006(s2)
   1ba0e:	3ef94683          	lbu	a3,1007(s2)
   1ba12:	3f092983          	lw	s3,1008(s2)
   1ba16:	3f492703          	lw	a4,1012(s2)
   1ba1a:	3f892783          	lw	a5,1016(s2)
   1ba1e:	3fc92483          	lw	s1,1020(s2)
   1ba22:	40092403          	lw	s0,1024(s2)
   1ba26:	38e92823          	sw	a4,912(s2)
   1ba2a:	38f92a23          	sw	a5,916(s2)
   1ba2e:	38992c23          	sw	s1,920(s2)
   1ba32:	38892e23          	sw	s0,924(s2)
   1ba36:	40492703          	lw	a4,1028(s2)
   1ba3a:	0622                	slli	a2,a2,0x8
   1ba3c:	8dd1                	or	a1,a1,a2
   1ba3e:	02b11223          	sh	a1,36(sp)
   1ba42:	02d10323          	sb	a3,38(sp)
   1ba46:	3ae92023          	sw	a4,928(s2)
   1ba4a:	c119                	beqz	a0,1ba50 <_start+0x37e0>
   1ba4c:	1c80106f          	j	1cc14 <_start+0x49a4>
   1ba50:	02411503          	lh	a0,36(sp)
   1ba54:	02614583          	lbu	a1,38(sp)
   1ba58:	0189d613          	srli	a2,s3,0x18
   1ba5c:	0109d693          	srli	a3,s3,0x10
   1ba60:	6eda00a3          	sb	a3,1761(s4)
   1ba64:	6eca0123          	sb	a2,1762(s4)
   1ba68:	0089d613          	srli	a2,s3,0x8
   1ba6c:	6caa1e23          	sh	a0,1756(s4)
   1ba70:	6cba0f23          	sb	a1,1758(s4)
   1ba74:	6d3a0fa3          	sb	s3,1759(s4)
   1ba78:	6eca0023          	sb	a2,1760(s4)
   1ba7c:	7ff10513          	addi	a0,sp,2047
   1ba80:	69250513          	addi	a0,a0,1682
   1ba84:	6585                	lui	a1,0x1
   1ba86:	34058593          	addi	a1,a1,832 # 1340 <.Lline_table_start1+0x1115>
   1ba8a:	958a                	add	a1,a1,sp
   1ba8c:	4651                	li	a2,20
   1ba8e:	00001097          	auipc	ra,0x1
   1ba92:	2a2080e7          	jalr	674(ra) # 1cd30 <memcpy>
   1ba96:	6505                	lui	a0,0x1
   1ba98:	39c50513          	addi	a0,a0,924 # 139c <.Lline_table_start1+0x1171>
   1ba9c:	950a                	add	a0,a0,sp
   1ba9e:	7ff10593          	addi	a1,sp,2047
   1baa2:	68b58593          	addi	a1,a1,1675
   1baa6:	ffffc097          	auipc	ra,0xffffc
   1baaa:	d80080e7          	jalr	-640(ra) # 17826 <_ZN18complex_no_dynamic3app17hdfc0688e3e3b81b0E>
   1baae:	3ec94403          	lbu	s0,1004(s2)
   1bab2:	c401                	beqz	s0,1baba <_start+0x384a>
   1bab4:	3f092983          	lw	s3,1008(s2)
   1bab8:	a835                	j	1baf4 <_start+0x3884>
   1baba:	3ee94503          	lbu	a0,1006(s2)
   1babe:	3ed94583          	lbu	a1,1005(s2)
   1bac2:	3ef94603          	lbu	a2,1007(s2)
   1bac6:	3f092983          	lw	s3,1008(s2)
   1baca:	0522                	slli	a0,a0,0x8
   1bacc:	8d4d                	or	a0,a0,a1
   1bace:	02a11223          	sh	a0,36(sp)
   1bad2:	02c10323          	sb	a2,38(sp)
   1bad6:	6505                	lui	a0,0x1
   1bad8:	3a450513          	addi	a0,a0,932 # 13a4 <.Lline_table_start1+0x1179>
   1badc:	00a105b3          	add	a1,sp,a0
   1bae0:	6505                	lui	a0,0x1
   1bae2:	34050513          	addi	a0,a0,832 # 1340 <.Lline_table_start1+0x1115>
   1bae6:	950a                	add	a0,a0,sp
   1bae8:	03a00613          	li	a2,58
   1baec:	00001097          	auipc	ra,0x1
   1baf0:	244080e7          	jalr	580(ra) # 1cd30 <memcpy>
   1baf4:	c019                	beqz	s0,1bafa <_start+0x388a>
   1baf6:	11e0106f          	j	1cc14 <_start+0x49a4>
   1bafa:	02411503          	lh	a0,36(sp)
   1bafe:	02614583          	lbu	a1,38(sp)
   1bb02:	0189d613          	srli	a2,s3,0x18
   1bb06:	0109d693          	srli	a3,s3,0x10
   1bb0a:	6eda0ea3          	sb	a3,1789(s4)
   1bb0e:	6eca0f23          	sb	a2,1790(s4)
   1bb12:	0089d613          	srli	a2,s3,0x8
   1bb16:	6eaa1c23          	sh	a0,1784(s4)
   1bb1a:	6eba0d23          	sb	a1,1786(s4)
   1bb1e:	6f3a0da3          	sb	s3,1787(s4)
   1bb22:	6eca0e23          	sb	a2,1788(s4)
   1bb26:	7ff10513          	addi	a0,sp,2047
   1bb2a:	6ae50513          	addi	a0,a0,1710
   1bb2e:	6585                	lui	a1,0x1
   1bb30:	34058593          	addi	a1,a1,832 # 1340 <.Lline_table_start1+0x1115>
   1bb34:	958a                	add	a1,a1,sp
   1bb36:	03a00613          	li	a2,58
   1bb3a:	00001097          	auipc	ra,0x1
   1bb3e:	1f6080e7          	jalr	502(ra) # 1cd30 <memcpy>
   1bb42:	6505                	lui	a0,0x1
   1bb44:	39c50513          	addi	a0,a0,924 # 139c <.Lline_table_start1+0x1171>
   1bb48:	950a                	add	a0,a0,sp
   1bb4a:	7ff10593          	addi	a1,sp,2047
   1bb4e:	6a758593          	addi	a1,a1,1703
   1bb52:	ffffc097          	auipc	ra,0xffffc
   1bb56:	378080e7          	jalr	888(ra) # 17eca <_ZN18complex_no_dynamic3app17hf51c25cd23f00545E>
   1bb5a:	3ec94503          	lbu	a0,1004(s2)
   1bb5e:	c501                	beqz	a0,1bb66 <_start+0x38f6>
   1bb60:	3f092983          	lw	s3,1008(s2)
   1bb64:	a099                	j	1bbaa <_start+0x393a>
   1bb66:	3ed94583          	lbu	a1,1005(s2)
   1bb6a:	3ee94603          	lbu	a2,1006(s2)
   1bb6e:	3ef94683          	lbu	a3,1007(s2)
   1bb72:	3f092983          	lw	s3,1008(s2)
   1bb76:	3f492703          	lw	a4,1012(s2)
   1bb7a:	3f892783          	lw	a5,1016(s2)
   1bb7e:	3fc92483          	lw	s1,1020(s2)
   1bb82:	40092403          	lw	s0,1024(s2)
   1bb86:	38e92823          	sw	a4,912(s2)
   1bb8a:	38f92a23          	sw	a5,916(s2)
   1bb8e:	38992c23          	sw	s1,920(s2)
   1bb92:	38892e23          	sw	s0,924(s2)
   1bb96:	40494703          	lbu	a4,1028(s2)
   1bb9a:	0622                	slli	a2,a2,0x8
   1bb9c:	8dd1                	or	a1,a1,a2
   1bb9e:	02b11223          	sh	a1,36(sp)
   1bba2:	02d10323          	sb	a3,38(sp)
   1bba6:	3ae90023          	sb	a4,928(s2)
   1bbaa:	c119                	beqz	a0,1bbb0 <_start+0x3940>
   1bbac:	0680106f          	j	1cc14 <_start+0x49a4>
   1bbb0:	02411503          	lh	a0,36(sp)
   1bbb4:	02614583          	lbu	a1,38(sp)
   1bbb8:	0189d613          	srli	a2,s3,0x18
   1bbbc:	0109d693          	srli	a3,s3,0x10
   1bbc0:	72da0fa3          	sb	a3,1855(s4)
   1bbc4:	74ca0023          	sb	a2,1856(s4)
   1bbc8:	0089d613          	srli	a2,s3,0x8
   1bbcc:	72aa1d23          	sh	a0,1850(s4)
   1bbd0:	72ba0e23          	sb	a1,1852(s4)
   1bbd4:	733a0ea3          	sb	s3,1853(s4)
   1bbd8:	72ca0f23          	sb	a2,1854(s4)
   1bbdc:	7ff10513          	addi	a0,sp,2047
   1bbe0:	6f050513          	addi	a0,a0,1776
   1bbe4:	6585                	lui	a1,0x1
   1bbe6:	34058593          	addi	a1,a1,832 # 1340 <.Lline_table_start1+0x1115>
   1bbea:	958a                	add	a1,a1,sp
   1bbec:	4645                	li	a2,17
   1bbee:	00001097          	auipc	ra,0x1
   1bbf2:	142080e7          	jalr	322(ra) # 1cd30 <memcpy>
   1bbf6:	6505                	lui	a0,0x1
   1bbf8:	39c50513          	addi	a0,a0,924 # 139c <.Lline_table_start1+0x1171>
   1bbfc:	950a                	add	a0,a0,sp
   1bbfe:	7ff10593          	addi	a1,sp,2047
   1bc02:	6e958593          	addi	a1,a1,1769
   1bc06:	ffff7097          	auipc	ra,0xffff7
   1bc0a:	3bc080e7          	jalr	956(ra) # 12fc2 <_ZN18complex_no_dynamic3app17h32214e0500456ea8E>
   1bc0e:	3ec94503          	lbu	a0,1004(s2)
   1bc12:	c501                	beqz	a0,1bc1a <_start+0x39aa>
   1bc14:	3f092983          	lw	s3,1008(s2)
   1bc18:	a899                	j	1bc6e <_start+0x39fe>
   1bc1a:	3ed94583          	lbu	a1,1005(s2)
   1bc1e:	3ee94603          	lbu	a2,1006(s2)
   1bc22:	3ef94683          	lbu	a3,1007(s2)
   1bc26:	3f092983          	lw	s3,1008(s2)
   1bc2a:	3f492703          	lw	a4,1012(s2)
   1bc2e:	3f892783          	lw	a5,1016(s2)
   1bc32:	3fc92483          	lw	s1,1020(s2)
   1bc36:	40092403          	lw	s0,1024(s2)
   1bc3a:	0622                	slli	a2,a2,0x8
   1bc3c:	38e92823          	sw	a4,912(s2)
   1bc40:	38f92a23          	sw	a5,916(s2)
   1bc44:	38992c23          	sw	s1,920(s2)
   1bc48:	38892e23          	sw	s0,924(s2)
   1bc4c:	8dd1                	or	a1,a1,a2
   1bc4e:	40492603          	lw	a2,1028(s2)
   1bc52:	40891703          	lh	a4,1032(s2)
   1bc56:	40a94783          	lbu	a5,1034(s2)
   1bc5a:	02b11223          	sh	a1,36(sp)
   1bc5e:	02d10323          	sb	a3,38(sp)
   1bc62:	3ac92023          	sw	a2,928(s2)
   1bc66:	3ae91223          	sh	a4,932(s2)
   1bc6a:	3af90323          	sb	a5,934(s2)
   1bc6e:	c119                	beqz	a0,1bc74 <_start+0x3a04>
   1bc70:	7a50006f          	j	1cc14 <_start+0x49a4>
   1bc74:	02411503          	lh	a0,36(sp)
   1bc78:	02614583          	lbu	a1,38(sp)
   1bc7c:	0189d613          	srli	a2,s3,0x18
   1bc80:	0109d693          	srli	a3,s3,0x10
   1bc84:	74da0ba3          	sb	a3,1879(s4)
   1bc88:	74ca0c23          	sb	a2,1880(s4)
   1bc8c:	0089d613          	srli	a2,s3,0x8
   1bc90:	74aa1923          	sh	a0,1874(s4)
   1bc94:	74ba0a23          	sb	a1,1876(s4)
   1bc98:	753a0aa3          	sb	s3,1877(s4)
   1bc9c:	74ca0b23          	sb	a2,1878(s4)
   1bca0:	7ff10513          	addi	a0,sp,2047
   1bca4:	70850513          	addi	a0,a0,1800
   1bca8:	6585                	lui	a1,0x1
   1bcaa:	34058593          	addi	a1,a1,832 # 1340 <.Lline_table_start1+0x1115>
   1bcae:	958a                	add	a1,a1,sp
   1bcb0:	465d                	li	a2,23
   1bcb2:	00001097          	auipc	ra,0x1
   1bcb6:	07e080e7          	jalr	126(ra) # 1cd30 <memcpy>
   1bcba:	6505                	lui	a0,0x1
   1bcbc:	39c50513          	addi	a0,a0,924 # 139c <.Lline_table_start1+0x1171>
   1bcc0:	950a                	add	a0,a0,sp
   1bcc2:	7ff10593          	addi	a1,sp,2047
   1bcc6:	70158593          	addi	a1,a1,1793
   1bcca:	ffff7097          	auipc	ra,0xffff7
   1bcce:	cc6080e7          	jalr	-826(ra) # 12990 <_ZN18complex_no_dynamic3app17h2d9779e701ed0d1fE>
   1bcd2:	3ec94403          	lbu	s0,1004(s2)
   1bcd6:	c401                	beqz	s0,1bcde <_start+0x3a6e>
   1bcd8:	3f092983          	lw	s3,1008(s2)
   1bcdc:	a835                	j	1bd18 <_start+0x3aa8>
   1bcde:	3ee94503          	lbu	a0,1006(s2)
   1bce2:	3ed94583          	lbu	a1,1005(s2)
   1bce6:	3ef94603          	lbu	a2,1007(s2)
   1bcea:	3f092983          	lw	s3,1008(s2)
   1bcee:	0522                	slli	a0,a0,0x8
   1bcf0:	8d4d                	or	a0,a0,a1
   1bcf2:	02a11223          	sh	a0,36(sp)
   1bcf6:	02c10323          	sb	a2,38(sp)
   1bcfa:	6505                	lui	a0,0x1
   1bcfc:	3a450513          	addi	a0,a0,932 # 13a4 <.Lline_table_start1+0x1179>
   1bd00:	00a105b3          	add	a1,sp,a0
   1bd04:	6505                	lui	a0,0x1
   1bd06:	34050513          	addi	a0,a0,832 # 1340 <.Lline_table_start1+0x1115>
   1bd0a:	950a                	add	a0,a0,sp
   1bd0c:	03500613          	li	a2,53
   1bd10:	00001097          	auipc	ra,0x1
   1bd14:	020080e7          	jalr	32(ra) # 1cd30 <memcpy>
   1bd18:	6e041ee3          	bnez	s0,1cc14 <_start+0x49a4>
   1bd1c:	02411503          	lh	a0,36(sp)
   1bd20:	02614583          	lbu	a1,38(sp)
   1bd24:	0189d613          	srli	a2,s3,0x18
   1bd28:	0109d693          	srli	a3,s3,0x10
   1bd2c:	76da0aa3          	sb	a3,1909(s4)
   1bd30:	76ca0b23          	sb	a2,1910(s4)
   1bd34:	0089d613          	srli	a2,s3,0x8
   1bd38:	76aa1823          	sh	a0,1904(s4)
   1bd3c:	76ba0923          	sb	a1,1906(s4)
   1bd40:	773a09a3          	sb	s3,1907(s4)
   1bd44:	76ca0a23          	sb	a2,1908(s4)
   1bd48:	7ff10513          	addi	a0,sp,2047
   1bd4c:	72650513          	addi	a0,a0,1830
   1bd50:	6585                	lui	a1,0x1
   1bd52:	34058593          	addi	a1,a1,832 # 1340 <.Lline_table_start1+0x1115>
   1bd56:	958a                	add	a1,a1,sp
   1bd58:	03500613          	li	a2,53
   1bd5c:	00001097          	auipc	ra,0x1
   1bd60:	fd4080e7          	jalr	-44(ra) # 1cd30 <memcpy>
   1bd64:	6505                	lui	a0,0x1
   1bd66:	39c50513          	addi	a0,a0,924 # 139c <.Lline_table_start1+0x1171>
   1bd6a:	950a                	add	a0,a0,sp
   1bd6c:	7ff10593          	addi	a1,sp,2047
   1bd70:	71f58593          	addi	a1,a1,1823
   1bd74:	ffffb097          	auipc	ra,0xffffb
   1bd78:	470080e7          	jalr	1136(ra) # 171e4 <_ZN18complex_no_dynamic3app17hda903143e79fe5e1E>
   1bd7c:	3ec94403          	lbu	s0,1004(s2)
   1bd80:	c401                	beqz	s0,1bd88 <_start+0x3b18>
   1bd82:	3f092983          	lw	s3,1008(s2)
   1bd86:	a835                	j	1bdc2 <_start+0x3b52>
   1bd88:	3ee94503          	lbu	a0,1006(s2)
   1bd8c:	3ed94583          	lbu	a1,1005(s2)
   1bd90:	3ef94603          	lbu	a2,1007(s2)
   1bd94:	3f092983          	lw	s3,1008(s2)
   1bd98:	0522                	slli	a0,a0,0x8
   1bd9a:	8d4d                	or	a0,a0,a1
   1bd9c:	02a11223          	sh	a0,36(sp)
   1bda0:	02c10323          	sb	a2,38(sp)
   1bda4:	6505                	lui	a0,0x1
   1bda6:	3a450513          	addi	a0,a0,932 # 13a4 <.Lline_table_start1+0x1179>
   1bdaa:	00a105b3          	add	a1,sp,a0
   1bdae:	6505                	lui	a0,0x1
   1bdb0:	34050513          	addi	a0,a0,832 # 1340 <.Lline_table_start1+0x1115>
   1bdb4:	950a                	add	a0,a0,sp
   1bdb6:	02500613          	li	a2,37
   1bdba:	00001097          	auipc	ra,0x1
   1bdbe:	f76080e7          	jalr	-138(ra) # 1cd30 <memcpy>
   1bdc2:	640419e3          	bnez	s0,1cc14 <_start+0x49a4>
   1bdc6:	02411503          	lh	a0,36(sp)
   1bdca:	02614583          	lbu	a1,38(sp)
   1bdce:	0189d613          	srli	a2,s3,0x18
   1bdd2:	0109d693          	srli	a3,s3,0x10
   1bdd6:	7ada08a3          	sb	a3,1969(s4)
   1bdda:	7aca0923          	sb	a2,1970(s4)
   1bdde:	0089d613          	srli	a2,s3,0x8
   1bde2:	7aaa1623          	sh	a0,1964(s4)
   1bde6:	7aba0723          	sb	a1,1966(s4)
   1bdea:	7b3a07a3          	sb	s3,1967(s4)
   1bdee:	7aca0823          	sb	a2,1968(s4)
   1bdf2:	7ff10513          	addi	a0,sp,2047
   1bdf6:	76250513          	addi	a0,a0,1890
   1bdfa:	6585                	lui	a1,0x1
   1bdfc:	34058593          	addi	a1,a1,832 # 1340 <.Lline_table_start1+0x1115>
   1be00:	958a                	add	a1,a1,sp
   1be02:	02500613          	li	a2,37
   1be06:	00001097          	auipc	ra,0x1
   1be0a:	f2a080e7          	jalr	-214(ra) # 1cd30 <memcpy>
   1be0e:	6505                	lui	a0,0x1
   1be10:	39c50513          	addi	a0,a0,924 # 139c <.Lline_table_start1+0x1171>
   1be14:	950a                	add	a0,a0,sp
   1be16:	7ff10593          	addi	a1,sp,2047
   1be1a:	75b58593          	addi	a1,a1,1883
   1be1e:	ffff7097          	auipc	ra,0xffff7
   1be22:	4f0080e7          	jalr	1264(ra) # 1330e <_ZN18complex_no_dynamic3app17h33a0ef7a45c3508aE>
   1be26:	3ec94503          	lbu	a0,1004(s2)
   1be2a:	c501                	beqz	a0,1be32 <_start+0x3bc2>
   1be2c:	3f092983          	lw	s3,1008(s2)
   1be30:	a8b9                	j	1be8e <_start+0x3c1e>
   1be32:	3ed94583          	lbu	a1,1005(s2)
   1be36:	3ee94603          	lbu	a2,1006(s2)
   1be3a:	3ef94683          	lbu	a3,1007(s2)
   1be3e:	3f092983          	lw	s3,1008(s2)
   1be42:	3f492703          	lw	a4,1012(s2)
   1be46:	3f892783          	lw	a5,1016(s2)
   1be4a:	3fc92483          	lw	s1,1020(s2)
   1be4e:	40092403          	lw	s0,1024(s2)
   1be52:	0622                	slli	a2,a2,0x8
   1be54:	38e92823          	sw	a4,912(s2)
   1be58:	38f92a23          	sw	a5,916(s2)
   1be5c:	38992c23          	sw	s1,920(s2)
   1be60:	38892e23          	sw	s0,924(s2)
   1be64:	8dd1                	or	a1,a1,a2
   1be66:	02b11223          	sh	a1,36(sp)
   1be6a:	02d10323          	sb	a3,38(sp)
   1be6e:	40492583          	lw	a1,1028(s2)
   1be72:	40892603          	lw	a2,1032(s2)
   1be76:	40c92683          	lw	a3,1036(s2)
   1be7a:	41092703          	lw	a4,1040(s2)
   1be7e:	3ab92023          	sw	a1,928(s2)
   1be82:	3ac92223          	sw	a2,932(s2)
   1be86:	3ad92423          	sw	a3,936(s2)
   1be8a:	3ae92623          	sw	a4,940(s2)
   1be8e:	580513e3          	bnez	a0,1cc14 <_start+0x49a4>
   1be92:	02411503          	lh	a0,36(sp)
   1be96:	02614583          	lbu	a1,38(sp)
   1be9a:	0189d613          	srli	a2,s3,0x18
   1be9e:	0109d693          	srli	a3,s3,0x10
   1bea2:	7cda0ea3          	sb	a3,2013(s4)
   1bea6:	7cca0f23          	sb	a2,2014(s4)
   1beaa:	0089d613          	srli	a2,s3,0x8
   1beae:	7caa1c23          	sh	a0,2008(s4)
   1beb2:	7cba0d23          	sb	a1,2010(s4)
   1beb6:	7d3a0da3          	sb	s3,2011(s4)
   1beba:	7cca0e23          	sb	a2,2012(s4)
   1bebe:	7ff10513          	addi	a0,sp,2047
   1bec2:	78e50513          	addi	a0,a0,1934
   1bec6:	6585                	lui	a1,0x1
   1bec8:	34058593          	addi	a1,a1,832 # 1340 <.Lline_table_start1+0x1115>
   1becc:	958a                	add	a1,a1,sp
   1bece:	02000613          	li	a2,32
   1bed2:	00001097          	auipc	ra,0x1
   1bed6:	e5e080e7          	jalr	-418(ra) # 1cd30 <memcpy>
   1beda:	6505                	lui	a0,0x1
   1bedc:	39c50513          	addi	a0,a0,924 # 139c <.Lline_table_start1+0x1171>
   1bee0:	950a                	add	a0,a0,sp
   1bee2:	7ff10593          	addi	a1,sp,2047
   1bee6:	78758593          	addi	a1,a1,1927
   1beea:	ffffa097          	auipc	ra,0xffffa
   1beee:	11c080e7          	jalr	284(ra) # 16006 <_ZN18complex_no_dynamic3app17hb18c8d9bdaa5764cE>
   1bef2:	3ec94403          	lbu	s0,1004(s2)
   1bef6:	c401                	beqz	s0,1befe <_start+0x3c8e>
   1bef8:	3f092983          	lw	s3,1008(s2)
   1befc:	a835                	j	1bf38 <_start+0x3cc8>
   1befe:	3ee94503          	lbu	a0,1006(s2)
   1bf02:	3ed94583          	lbu	a1,1005(s2)
   1bf06:	3ef94603          	lbu	a2,1007(s2)
   1bf0a:	3f092983          	lw	s3,1008(s2)
   1bf0e:	0522                	slli	a0,a0,0x8
   1bf10:	8d4d                	or	a0,a0,a1
   1bf12:	02a11223          	sh	a0,36(sp)
   1bf16:	02c10323          	sb	a2,38(sp)
   1bf1a:	6505                	lui	a0,0x1
   1bf1c:	3a450513          	addi	a0,a0,932 # 13a4 <.Lline_table_start1+0x1179>
   1bf20:	00a105b3          	add	a1,sp,a0
   1bf24:	6505                	lui	a0,0x1
   1bf26:	34050513          	addi	a0,a0,832 # 1340 <.Lline_table_start1+0x1115>
   1bf2a:	950a                	add	a0,a0,sp
   1bf2c:	04800613          	li	a2,72
   1bf30:	00001097          	auipc	ra,0x1
   1bf34:	e00080e7          	jalr	-512(ra) # 1cd30 <memcpy>
   1bf38:	4c041ee3          	bnez	s0,1cc14 <_start+0x49a4>
   1bf3c:	02411503          	lh	a0,36(sp)
   1bf40:	02614583          	lbu	a1,38(sp)
   1bf44:	0189d613          	srli	a2,s3,0x18
   1bf48:	0109d693          	srli	a3,s3,0x10
   1bf4c:	00d901a3          	sb	a3,3(s2)
   1bf50:	00c90223          	sb	a2,4(s2)
   1bf54:	0089d613          	srli	a2,s3,0x8
   1bf58:	fea91f23          	sh	a0,-2(s2)
   1bf5c:	00b90023          	sb	a1,0(s2)
   1bf60:	013900a3          	sb	s3,1(s2)
   1bf64:	00c90123          	sb	a2,2(s2)
   1bf68:	7ff10513          	addi	a0,sp,2047
   1bf6c:	7b650513          	addi	a0,a0,1974
   1bf70:	6585                	lui	a1,0x1
   1bf72:	34058593          	addi	a1,a1,832 # 1340 <.Lline_table_start1+0x1115>
   1bf76:	958a                	add	a1,a1,sp
   1bf78:	04800613          	li	a2,72
   1bf7c:	00001097          	auipc	ra,0x1
   1bf80:	db4080e7          	jalr	-588(ra) # 1cd30 <memcpy>
   1bf84:	6505                	lui	a0,0x1
   1bf86:	39c50513          	addi	a0,a0,924 # 139c <.Lline_table_start1+0x1171>
   1bf8a:	950a                	add	a0,a0,sp
   1bf8c:	7ff10593          	addi	a1,sp,2047
   1bf90:	7af58593          	addi	a1,a1,1967
   1bf94:	ffffa097          	auipc	ra,0xffffa
   1bf98:	c5e080e7          	jalr	-930(ra) # 15bf2 <_ZN18complex_no_dynamic3app17h9c008a7e6327cfa9E>
   1bf9c:	3ec94403          	lbu	s0,1004(s2)
   1bfa0:	c401                	beqz	s0,1bfa8 <_start+0x3d38>
   1bfa2:	3f092983          	lw	s3,1008(s2)
   1bfa6:	a835                	j	1bfe2 <_start+0x3d72>
   1bfa8:	3ee94503          	lbu	a0,1006(s2)
   1bfac:	3ed94583          	lbu	a1,1005(s2)
   1bfb0:	3ef94603          	lbu	a2,1007(s2)
   1bfb4:	3f092983          	lw	s3,1008(s2)
   1bfb8:	0522                	slli	a0,a0,0x8
   1bfba:	8d4d                	or	a0,a0,a1
   1bfbc:	02a11223          	sh	a0,36(sp)
   1bfc0:	02c10323          	sb	a2,38(sp)
   1bfc4:	6505                	lui	a0,0x1
   1bfc6:	3a450513          	addi	a0,a0,932 # 13a4 <.Lline_table_start1+0x1179>
   1bfca:	00a105b3          	add	a1,sp,a0
   1bfce:	6505                	lui	a0,0x1
   1bfd0:	34050513          	addi	a0,a0,832 # 1340 <.Lline_table_start1+0x1115>
   1bfd4:	950a                	add	a0,a0,sp
   1bfd6:	02e00613          	li	a2,46
   1bfda:	00001097          	auipc	ra,0x1
   1bfde:	d56080e7          	jalr	-682(ra) # 1cd30 <memcpy>
   1bfe2:	420419e3          	bnez	s0,1cc14 <_start+0x49a4>
   1bfe6:	02411503          	lh	a0,36(sp)
   1bfea:	02614583          	lbu	a1,38(sp)
   1bfee:	0189d613          	srli	a2,s3,0x18
   1bff2:	0109d693          	srli	a3,s3,0x10
   1bff6:	04d909a3          	sb	a3,83(s2)
   1bffa:	04c90a23          	sb	a2,84(s2)
   1bffe:	0089d613          	srli	a2,s3,0x8
   1c002:	04a91723          	sh	a0,78(s2)
   1c006:	04b90823          	sb	a1,80(s2)
   1c00a:	053908a3          	sb	s3,81(s2)
   1c00e:	04c90923          	sb	a2,82(s2)
   1c012:	6505                	lui	a0,0x1
   1c014:	0515                	addi	a0,a0,5 # 1005 <.Lline_table_start1+0xdda>
   1c016:	950a                	add	a0,a0,sp
   1c018:	6585                	lui	a1,0x1
   1c01a:	34058593          	addi	a1,a1,832 # 1340 <.Lline_table_start1+0x1115>
   1c01e:	958a                	add	a1,a1,sp
   1c020:	02e00613          	li	a2,46
   1c024:	00001097          	auipc	ra,0x1
   1c028:	d0c080e7          	jalr	-756(ra) # 1cd30 <memcpy>
   1c02c:	6505                	lui	a0,0x1
   1c02e:	39c50513          	addi	a0,a0,924 # 139c <.Lline_table_start1+0x1171>
   1c032:	950a                	add	a0,a0,sp
   1c034:	7ff10593          	addi	a1,sp,2047
   1c038:	7ff58593          	addi	a1,a1,2047
   1c03c:	ffff7097          	auipc	ra,0xffff7
   1c040:	3e4080e7          	jalr	996(ra) # 13420 <_ZN18complex_no_dynamic3app17h3524f10f1d71e50eE>
   1c044:	3ec94403          	lbu	s0,1004(s2)
   1c048:	c401                	beqz	s0,1c050 <_start+0x3de0>
   1c04a:	3f092983          	lw	s3,1008(s2)
   1c04e:	a835                	j	1c08a <_start+0x3e1a>
   1c050:	3ee94503          	lbu	a0,1006(s2)
   1c054:	3ed94583          	lbu	a1,1005(s2)
   1c058:	3ef94603          	lbu	a2,1007(s2)
   1c05c:	3f092983          	lw	s3,1008(s2)
   1c060:	0522                	slli	a0,a0,0x8
   1c062:	8d4d                	or	a0,a0,a1
   1c064:	02a11223          	sh	a0,36(sp)
   1c068:	02c10323          	sb	a2,38(sp)
   1c06c:	6505                	lui	a0,0x1
   1c06e:	3a450513          	addi	a0,a0,932 # 13a4 <.Lline_table_start1+0x1179>
   1c072:	00a105b3          	add	a1,sp,a0
   1c076:	6505                	lui	a0,0x1
   1c078:	34050513          	addi	a0,a0,832 # 1340 <.Lline_table_start1+0x1115>
   1c07c:	950a                	add	a0,a0,sp
   1c07e:	03800613          	li	a2,56
   1c082:	00001097          	auipc	ra,0x1
   1c086:	cae080e7          	jalr	-850(ra) # 1cd30 <memcpy>
   1c08a:	380415e3          	bnez	s0,1cc14 <_start+0x49a4>
   1c08e:	02411503          	lh	a0,36(sp)
   1c092:	02614583          	lbu	a1,38(sp)
   1c096:	0189d613          	srli	a2,s3,0x18
   1c09a:	0109d693          	srli	a3,s3,0x10
   1c09e:	08d904a3          	sb	a3,137(s2)
   1c0a2:	08c90523          	sb	a2,138(s2)
   1c0a6:	0089d613          	srli	a2,s3,0x8
   1c0aa:	08a91223          	sh	a0,132(s2)
   1c0ae:	08b90323          	sb	a1,134(s2)
   1c0b2:	093903a3          	sb	s3,135(s2)
   1c0b6:	08c90423          	sb	a2,136(s2)
   1c0ba:	6505                	lui	a0,0x1
   1c0bc:	03b50513          	addi	a0,a0,59 # 103b <.Lline_table_start1+0xe10>
   1c0c0:	950a                	add	a0,a0,sp
   1c0c2:	6585                	lui	a1,0x1
   1c0c4:	34058593          	addi	a1,a1,832 # 1340 <.Lline_table_start1+0x1115>
   1c0c8:	958a                	add	a1,a1,sp
   1c0ca:	03800613          	li	a2,56
   1c0ce:	00001097          	auipc	ra,0x1
   1c0d2:	c62080e7          	jalr	-926(ra) # 1cd30 <memcpy>
   1c0d6:	6505                	lui	a0,0x1
   1c0d8:	39c50513          	addi	a0,a0,924 # 139c <.Lline_table_start1+0x1171>
   1c0dc:	950a                	add	a0,a0,sp
   1c0de:	6585                	lui	a1,0x1
   1c0e0:	03458593          	addi	a1,a1,52 # 1034 <.Lline_table_start1+0xe09>
   1c0e4:	958a                	add	a1,a1,sp
   1c0e6:	ffff8097          	auipc	ra,0xffff8
   1c0ea:	b9c080e7          	jalr	-1124(ra) # 13c82 <_ZN18complex_no_dynamic3app17h44c7f046bc194ee9E>
   1c0ee:	3ec94503          	lbu	a0,1004(s2)
   1c0f2:	c501                	beqz	a0,1c0fa <_start+0x3e8a>
   1c0f4:	3f092983          	lw	s3,1008(s2)
   1c0f8:	a81d                	j	1c12e <_start+0x3ebe>
   1c0fa:	3ee94583          	lbu	a1,1006(s2)
   1c0fe:	3ed94603          	lbu	a2,1005(s2)
   1c102:	3ef94683          	lbu	a3,1007(s2)
   1c106:	3f092983          	lw	s3,1008(s2)
   1c10a:	05a2                	slli	a1,a1,0x8
   1c10c:	8dd1                	or	a1,a1,a2
   1c10e:	3f492603          	lw	a2,1012(s2)
   1c112:	3f892703          	lw	a4,1016(s2)
   1c116:	3fc91783          	lh	a5,1020(s2)
   1c11a:	02b11223          	sh	a1,36(sp)
   1c11e:	02d10323          	sb	a3,38(sp)
   1c122:	38c92823          	sw	a2,912(s2)
   1c126:	38e92a23          	sw	a4,916(s2)
   1c12a:	38f91c23          	sh	a5,920(s2)
   1c12e:	2e0513e3          	bnez	a0,1cc14 <_start+0x49a4>
   1c132:	02411503          	lh	a0,36(sp)
   1c136:	02614583          	lbu	a1,38(sp)
   1c13a:	0189d613          	srli	a2,s3,0x18
   1c13e:	0109d693          	srli	a3,s3,0x10
   1c142:	0cd904a3          	sb	a3,201(s2)
   1c146:	0cc90523          	sb	a2,202(s2)
   1c14a:	0089d613          	srli	a2,s3,0x8
   1c14e:	0ca91223          	sh	a0,196(s2)
   1c152:	0cb90323          	sb	a1,198(s2)
   1c156:	0d3903a3          	sb	s3,199(s2)
   1c15a:	0cc90423          	sb	a2,200(s2)
   1c15e:	6505                	lui	a0,0x1
   1c160:	07b50513          	addi	a0,a0,123 # 107b <.Lline_table_start1+0xe50>
   1c164:	950a                	add	a0,a0,sp
   1c166:	6585                	lui	a1,0x1
   1c168:	34058593          	addi	a1,a1,832 # 1340 <.Lline_table_start1+0x1115>
   1c16c:	958a                	add	a1,a1,sp
   1c16e:	4629                	li	a2,10
   1c170:	00001097          	auipc	ra,0x1
   1c174:	bc0080e7          	jalr	-1088(ra) # 1cd30 <memcpy>
   1c178:	6505                	lui	a0,0x1
   1c17a:	39c50513          	addi	a0,a0,924 # 139c <.Lline_table_start1+0x1171>
   1c17e:	950a                	add	a0,a0,sp
   1c180:	6585                	lui	a1,0x1
   1c182:	07458593          	addi	a1,a1,116 # 1074 <.Lline_table_start1+0xe49>
   1c186:	958a                	add	a1,a1,sp
   1c188:	ffffa097          	auipc	ra,0xffffa
   1c18c:	17e080e7          	jalr	382(ra) # 16306 <_ZN18complex_no_dynamic3app17hb9455a1d454e57d2E>
   1c190:	3ec94403          	lbu	s0,1004(s2)
   1c194:	c401                	beqz	s0,1c19c <_start+0x3f2c>
   1c196:	3f092983          	lw	s3,1008(s2)
   1c19a:	a835                	j	1c1d6 <_start+0x3f66>
   1c19c:	3ee94503          	lbu	a0,1006(s2)
   1c1a0:	3ed94583          	lbu	a1,1005(s2)
   1c1a4:	3ef94603          	lbu	a2,1007(s2)
   1c1a8:	3f092983          	lw	s3,1008(s2)
   1c1ac:	0522                	slli	a0,a0,0x8
   1c1ae:	8d4d                	or	a0,a0,a1
   1c1b0:	02a11223          	sh	a0,36(sp)
   1c1b4:	02c10323          	sb	a2,38(sp)
   1c1b8:	6505                	lui	a0,0x1
   1c1ba:	3a450513          	addi	a0,a0,932 # 13a4 <.Lline_table_start1+0x1179>
   1c1be:	00a105b3          	add	a1,sp,a0
   1c1c2:	6505                	lui	a0,0x1
   1c1c4:	34050513          	addi	a0,a0,832 # 1340 <.Lline_table_start1+0x1115>
   1c1c8:	950a                	add	a0,a0,sp
   1c1ca:	03800613          	li	a2,56
   1c1ce:	00001097          	auipc	ra,0x1
   1c1d2:	b62080e7          	jalr	-1182(ra) # 1cd30 <memcpy>
   1c1d6:	22041fe3          	bnez	s0,1cc14 <_start+0x49a4>
   1c1da:	02411503          	lh	a0,36(sp)
   1c1de:	02614583          	lbu	a1,38(sp)
   1c1e2:	0189d613          	srli	a2,s3,0x18
   1c1e6:	0109d693          	srli	a3,s3,0x10
   1c1ea:	0cd90da3          	sb	a3,219(s2)
   1c1ee:	0cc90e23          	sb	a2,220(s2)
   1c1f2:	0089d613          	srli	a2,s3,0x8
   1c1f6:	0ca91b23          	sh	a0,214(s2)
   1c1fa:	0cb90c23          	sb	a1,216(s2)
   1c1fe:	0d390ca3          	sb	s3,217(s2)
   1c202:	0cc90d23          	sb	a2,218(s2)
   1c206:	6505                	lui	a0,0x1
   1c208:	08d50513          	addi	a0,a0,141 # 108d <.Lline_table_start1+0xe62>
   1c20c:	950a                	add	a0,a0,sp
   1c20e:	6585                	lui	a1,0x1
   1c210:	34058593          	addi	a1,a1,832 # 1340 <.Lline_table_start1+0x1115>
   1c214:	958a                	add	a1,a1,sp
   1c216:	03800613          	li	a2,56
   1c21a:	00001097          	auipc	ra,0x1
   1c21e:	b16080e7          	jalr	-1258(ra) # 1cd30 <memcpy>
   1c222:	6505                	lui	a0,0x1
   1c224:	39c50513          	addi	a0,a0,924 # 139c <.Lline_table_start1+0x1171>
   1c228:	950a                	add	a0,a0,sp
   1c22a:	6585                	lui	a1,0x1
   1c22c:	08658593          	addi	a1,a1,134 # 1086 <.Lline_table_start1+0xe5b>
   1c230:	958a                	add	a1,a1,sp
   1c232:	ffff7097          	auipc	ra,0xffff7
   1c236:	c8a080e7          	jalr	-886(ra) # 12ebc <_ZN18complex_no_dynamic3app17h31df5c44e33a8894E>
   1c23a:	3ec94503          	lbu	a0,1004(s2)
   1c23e:	c501                	beqz	a0,1c246 <_start+0x3fd6>
   1c240:	3f092983          	lw	s3,1008(s2)
   1c244:	a0b9                	j	1c292 <_start+0x4022>
   1c246:	3ed94583          	lbu	a1,1005(s2)
   1c24a:	3ee94603          	lbu	a2,1006(s2)
   1c24e:	3ef94683          	lbu	a3,1007(s2)
   1c252:	3f092983          	lw	s3,1008(s2)
   1c256:	3f492703          	lw	a4,1012(s2)
   1c25a:	3f892783          	lw	a5,1016(s2)
   1c25e:	3fc92483          	lw	s1,1020(s2)
   1c262:	40092403          	lw	s0,1024(s2)
   1c266:	0622                	slli	a2,a2,0x8
   1c268:	38e92823          	sw	a4,912(s2)
   1c26c:	38f92a23          	sw	a5,916(s2)
   1c270:	38992c23          	sw	s1,920(s2)
   1c274:	38892e23          	sw	s0,924(s2)
   1c278:	8dd1                	or	a1,a1,a2
   1c27a:	40492603          	lw	a2,1028(s2)
   1c27e:	40894703          	lbu	a4,1032(s2)
   1c282:	02b11223          	sh	a1,36(sp)
   1c286:	02d10323          	sb	a3,38(sp)
   1c28a:	3ac92023          	sw	a2,928(s2)
   1c28e:	3ae90223          	sb	a4,932(s2)
   1c292:	180511e3          	bnez	a0,1cc14 <_start+0x49a4>
   1c296:	02411503          	lh	a0,36(sp)
   1c29a:	02614583          	lbu	a1,38(sp)
   1c29e:	0189d613          	srli	a2,s3,0x18
   1c2a2:	0109d693          	srli	a3,s3,0x10
   1c2a6:	10d90da3          	sb	a3,283(s2)
   1c2aa:	10c90e23          	sb	a2,284(s2)
   1c2ae:	0089d613          	srli	a2,s3,0x8
   1c2b2:	10a91b23          	sh	a0,278(s2)
   1c2b6:	10b90c23          	sb	a1,280(s2)
   1c2ba:	11390ca3          	sb	s3,281(s2)
   1c2be:	10c90d23          	sb	a2,282(s2)
   1c2c2:	6505                	lui	a0,0x1
   1c2c4:	0cd50513          	addi	a0,a0,205 # 10cd <.Lline_table_start1+0xea2>
   1c2c8:	950a                	add	a0,a0,sp
   1c2ca:	6585                	lui	a1,0x1
   1c2cc:	34058593          	addi	a1,a1,832 # 1340 <.Lline_table_start1+0x1115>
   1c2d0:	958a                	add	a1,a1,sp
   1c2d2:	4655                	li	a2,21
   1c2d4:	00001097          	auipc	ra,0x1
   1c2d8:	a5c080e7          	jalr	-1444(ra) # 1cd30 <memcpy>
   1c2dc:	6505                	lui	a0,0x1
   1c2de:	39c50513          	addi	a0,a0,924 # 139c <.Lline_table_start1+0x1171>
   1c2e2:	950a                	add	a0,a0,sp
   1c2e4:	6585                	lui	a1,0x1
   1c2e6:	0c658593          	addi	a1,a1,198 # 10c6 <.Lline_table_start1+0xe9b>
   1c2ea:	958a                	add	a1,a1,sp
   1c2ec:	ffff5097          	auipc	ra,0xffff5
   1c2f0:	5fc080e7          	jalr	1532(ra) # 118e8 <_ZN18complex_no_dynamic3app17h0d20983b5c80b388E>
   1c2f4:	3ec94403          	lbu	s0,1004(s2)
   1c2f8:	c401                	beqz	s0,1c300 <_start+0x4090>
   1c2fa:	3f092983          	lw	s3,1008(s2)
   1c2fe:	a835                	j	1c33a <_start+0x40ca>
   1c300:	3ee94503          	lbu	a0,1006(s2)
   1c304:	3ed94583          	lbu	a1,1005(s2)
   1c308:	3ef94603          	lbu	a2,1007(s2)
   1c30c:	3f092983          	lw	s3,1008(s2)
   1c310:	0522                	slli	a0,a0,0x8
   1c312:	8d4d                	or	a0,a0,a1
   1c314:	02a11223          	sh	a0,36(sp)
   1c318:	02c10323          	sb	a2,38(sp)
   1c31c:	6505                	lui	a0,0x1
   1c31e:	3a450513          	addi	a0,a0,932 # 13a4 <.Lline_table_start1+0x1179>
   1c322:	00a105b3          	add	a1,sp,a0
   1c326:	6505                	lui	a0,0x1
   1c328:	34050513          	addi	a0,a0,832 # 1340 <.Lline_table_start1+0x1115>
   1c32c:	950a                	add	a0,a0,sp
   1c32e:	05600613          	li	a2,86
   1c332:	00001097          	auipc	ra,0x1
   1c336:	9fe080e7          	jalr	-1538(ra) # 1cd30 <memcpy>
   1c33a:	0c041de3          	bnez	s0,1cc14 <_start+0x49a4>
   1c33e:	02411503          	lh	a0,36(sp)
   1c342:	02614583          	lbu	a1,38(sp)
   1c346:	0189d613          	srli	a2,s3,0x18
   1c34a:	0109d693          	srli	a3,s3,0x10
   1c34e:	12d90ba3          	sb	a3,311(s2)
   1c352:	12c90c23          	sb	a2,312(s2)
   1c356:	0089d613          	srli	a2,s3,0x8
   1c35a:	12a91923          	sh	a0,306(s2)
   1c35e:	12b90a23          	sb	a1,308(s2)
   1c362:	13390aa3          	sb	s3,309(s2)
   1c366:	12c90b23          	sb	a2,310(s2)
   1c36a:	6505                	lui	a0,0x1
   1c36c:	0e950513          	addi	a0,a0,233 # 10e9 <.Lline_table_start1+0xebe>
   1c370:	950a                	add	a0,a0,sp
   1c372:	6585                	lui	a1,0x1
   1c374:	34058593          	addi	a1,a1,832 # 1340 <.Lline_table_start1+0x1115>
   1c378:	958a                	add	a1,a1,sp
   1c37a:	05600613          	li	a2,86
   1c37e:	00001097          	auipc	ra,0x1
   1c382:	9b2080e7          	jalr	-1614(ra) # 1cd30 <memcpy>
   1c386:	6505                	lui	a0,0x1
   1c388:	39c50513          	addi	a0,a0,924 # 139c <.Lline_table_start1+0x1171>
   1c38c:	950a                	add	a0,a0,sp
   1c38e:	6585                	lui	a1,0x1
   1c390:	0e258593          	addi	a1,a1,226 # 10e2 <.Lline_table_start1+0xeb7>
   1c394:	958a                	add	a1,a1,sp
   1c396:	ffffb097          	auipc	ra,0xffffb
   1c39a:	17e080e7          	jalr	382(ra) # 17514 <_ZN18complex_no_dynamic3app17hdd5496b45e2c060eE>
   1c39e:	3ec94503          	lbu	a0,1004(s2)
   1c3a2:	c501                	beqz	a0,1c3aa <_start+0x413a>
   1c3a4:	3f092983          	lw	s3,1008(s2)
   1c3a8:	a83d                	j	1c3e6 <_start+0x4176>
   1c3aa:	3ee94583          	lbu	a1,1006(s2)
   1c3ae:	3ed94603          	lbu	a2,1005(s2)
   1c3b2:	3ef94683          	lbu	a3,1007(s2)
   1c3b6:	3f092983          	lw	s3,1008(s2)
   1c3ba:	05a2                	slli	a1,a1,0x8
   1c3bc:	8dd1                	or	a1,a1,a2
   1c3be:	02b11223          	sh	a1,36(sp)
   1c3c2:	02d10323          	sb	a3,38(sp)
   1c3c6:	3f492583          	lw	a1,1012(s2)
   1c3ca:	3f892603          	lw	a2,1016(s2)
   1c3ce:	3fc91683          	lh	a3,1020(s2)
   1c3d2:	3fe94703          	lbu	a4,1022(s2)
   1c3d6:	38b92823          	sw	a1,912(s2)
   1c3da:	38c92a23          	sw	a2,916(s2)
   1c3de:	38d91c23          	sh	a3,920(s2)
   1c3e2:	38e90d23          	sb	a4,922(s2)
   1c3e6:	020517e3          	bnez	a0,1cc14 <_start+0x49a4>
   1c3ea:	02411503          	lh	a0,36(sp)
   1c3ee:	02614583          	lbu	a1,38(sp)
   1c3f2:	0189d613          	srli	a2,s3,0x18
   1c3f6:	0109d693          	srli	a3,s3,0x10
   1c3fa:	18d90aa3          	sb	a3,405(s2)
   1c3fe:	18c90b23          	sb	a2,406(s2)
   1c402:	0089d613          	srli	a2,s3,0x8
   1c406:	18a91823          	sh	a0,400(s2)
   1c40a:	18b90923          	sb	a1,402(s2)
   1c40e:	193909a3          	sb	s3,403(s2)
   1c412:	18c90a23          	sb	a2,404(s2)
   1c416:	6505                	lui	a0,0x1
   1c418:	14750513          	addi	a0,a0,327 # 1147 <.Lline_table_start1+0xf1c>
   1c41c:	950a                	add	a0,a0,sp
   1c41e:	6585                	lui	a1,0x1
   1c420:	34058593          	addi	a1,a1,832 # 1340 <.Lline_table_start1+0x1115>
   1c424:	958a                	add	a1,a1,sp
   1c426:	462d                	li	a2,11
   1c428:	00001097          	auipc	ra,0x1
   1c42c:	908080e7          	jalr	-1784(ra) # 1cd30 <memcpy>
   1c430:	6505                	lui	a0,0x1
   1c432:	39c50513          	addi	a0,a0,924 # 139c <.Lline_table_start1+0x1171>
   1c436:	950a                	add	a0,a0,sp
   1c438:	6585                	lui	a1,0x1
   1c43a:	14058593          	addi	a1,a1,320 # 1140 <.Lline_table_start1+0xf15>
   1c43e:	958a                	add	a1,a1,sp
   1c440:	ffffb097          	auipc	ra,0xffffb
   1c444:	6da080e7          	jalr	1754(ra) # 17b1a <_ZN18complex_no_dynamic3app17he8eb6570e314bb32E>
   1c448:	3ec94403          	lbu	s0,1004(s2)
   1c44c:	c401                	beqz	s0,1c454 <_start+0x41e4>
   1c44e:	3f092983          	lw	s3,1008(s2)
   1c452:	a835                	j	1c48e <_start+0x421e>
   1c454:	3ee94503          	lbu	a0,1006(s2)
   1c458:	3ed94583          	lbu	a1,1005(s2)
   1c45c:	3ef94603          	lbu	a2,1007(s2)
   1c460:	3f092983          	lw	s3,1008(s2)
   1c464:	0522                	slli	a0,a0,0x8
   1c466:	8d4d                	or	a0,a0,a1
   1c468:	02a11223          	sh	a0,36(sp)
   1c46c:	02c10323          	sb	a2,38(sp)
   1c470:	6505                	lui	a0,0x1
   1c472:	3a450513          	addi	a0,a0,932 # 13a4 <.Lline_table_start1+0x1179>
   1c476:	00a105b3          	add	a1,sp,a0
   1c47a:	6505                	lui	a0,0x1
   1c47c:	34050513          	addi	a0,a0,832 # 1340 <.Lline_table_start1+0x1115>
   1c480:	950a                	add	a0,a0,sp
   1c482:	03d00613          	li	a2,61
   1c486:	00001097          	auipc	ra,0x1
   1c48a:	8aa080e7          	jalr	-1878(ra) # 1cd30 <memcpy>
   1c48e:	78041363          	bnez	s0,1cc14 <_start+0x49a4>
   1c492:	02411503          	lh	a0,36(sp)
   1c496:	02614583          	lbu	a1,38(sp)
   1c49a:	0189d613          	srli	a2,s3,0x18
   1c49e:	0109d693          	srli	a3,s3,0x10
   1c4a2:	1ad903a3          	sb	a3,423(s2)
   1c4a6:	1ac90423          	sb	a2,424(s2)
   1c4aa:	0089d613          	srli	a2,s3,0x8
   1c4ae:	1aa91123          	sh	a0,418(s2)
   1c4b2:	1ab90223          	sb	a1,420(s2)
   1c4b6:	1b3902a3          	sb	s3,421(s2)
   1c4ba:	1ac90323          	sb	a2,422(s2)
   1c4be:	6505                	lui	a0,0x1
   1c4c0:	15950513          	addi	a0,a0,345 # 1159 <.Lline_table_start1+0xf2e>
   1c4c4:	950a                	add	a0,a0,sp
   1c4c6:	6585                	lui	a1,0x1
   1c4c8:	34058593          	addi	a1,a1,832 # 1340 <.Lline_table_start1+0x1115>
   1c4cc:	958a                	add	a1,a1,sp
   1c4ce:	03d00613          	li	a2,61
   1c4d2:	00001097          	auipc	ra,0x1
   1c4d6:	85e080e7          	jalr	-1954(ra) # 1cd30 <memcpy>
   1c4da:	6505                	lui	a0,0x1
   1c4dc:	39c50513          	addi	a0,a0,924 # 139c <.Lline_table_start1+0x1171>
   1c4e0:	950a                	add	a0,a0,sp
   1c4e2:	6585                	lui	a1,0x1
   1c4e4:	15258593          	addi	a1,a1,338 # 1152 <.Lline_table_start1+0xf27>
   1c4e8:	958a                	add	a1,a1,sp
   1c4ea:	ffff8097          	auipc	ra,0xffff8
   1c4ee:	cbe080e7          	jalr	-834(ra) # 141a8 <_ZN18complex_no_dynamic3app17h4f9026ad9c23f03cE>
   1c4f2:	3ec94503          	lbu	a0,1004(s2)
   1c4f6:	c501                	beqz	a0,1c4fe <_start+0x428e>
   1c4f8:	3f092983          	lw	s3,1008(s2)
   1c4fc:	a899                	j	1c552 <_start+0x42e2>
   1c4fe:	3ed94583          	lbu	a1,1005(s2)
   1c502:	3ee94603          	lbu	a2,1006(s2)
   1c506:	3ef94683          	lbu	a3,1007(s2)
   1c50a:	3f092983          	lw	s3,1008(s2)
   1c50e:	3f492703          	lw	a4,1012(s2)
   1c512:	3f892783          	lw	a5,1016(s2)
   1c516:	3fc92483          	lw	s1,1020(s2)
   1c51a:	40092403          	lw	s0,1024(s2)
   1c51e:	0622                	slli	a2,a2,0x8
   1c520:	38e92823          	sw	a4,912(s2)
   1c524:	38f92a23          	sw	a5,916(s2)
   1c528:	38992c23          	sw	s1,920(s2)
   1c52c:	38892e23          	sw	s0,924(s2)
   1c530:	8dd1                	or	a1,a1,a2
   1c532:	40492603          	lw	a2,1028(s2)
   1c536:	40892703          	lw	a4,1032(s2)
   1c53a:	40c92783          	lw	a5,1036(s2)
   1c53e:	02b11223          	sh	a1,36(sp)
   1c542:	02d10323          	sb	a3,38(sp)
   1c546:	3ac92023          	sw	a2,928(s2)
   1c54a:	3ae92223          	sw	a4,932(s2)
   1c54e:	3af92423          	sw	a5,936(s2)
   1c552:	6c051163          	bnez	a0,1cc14 <_start+0x49a4>
   1c556:	02411503          	lh	a0,36(sp)
   1c55a:	02614583          	lbu	a1,38(sp)
   1c55e:	0189d613          	srli	a2,s3,0x18
   1c562:	0109d693          	srli	a3,s3,0x10
   1c566:	1ed905a3          	sb	a3,491(s2)
   1c56a:	1ec90623          	sb	a2,492(s2)
   1c56e:	0089d613          	srli	a2,s3,0x8
   1c572:	1ea91323          	sh	a0,486(s2)
   1c576:	1eb90423          	sb	a1,488(s2)
   1c57a:	1f3904a3          	sb	s3,489(s2)
   1c57e:	1ec90523          	sb	a2,490(s2)
   1c582:	6505                	lui	a0,0x1
   1c584:	19d50513          	addi	a0,a0,413 # 119d <.Lline_table_start1+0xf72>
   1c588:	950a                	add	a0,a0,sp
   1c58a:	6585                	lui	a1,0x1
   1c58c:	34058593          	addi	a1,a1,832 # 1340 <.Lline_table_start1+0x1115>
   1c590:	958a                	add	a1,a1,sp
   1c592:	4671                	li	a2,28
   1c594:	00000097          	auipc	ra,0x0
   1c598:	79c080e7          	jalr	1948(ra) # 1cd30 <memcpy>
   1c59c:	6505                	lui	a0,0x1
   1c59e:	39c50513          	addi	a0,a0,924 # 139c <.Lline_table_start1+0x1171>
   1c5a2:	950a                	add	a0,a0,sp
   1c5a4:	6585                	lui	a1,0x1
   1c5a6:	19658593          	addi	a1,a1,406 # 1196 <.Lline_table_start1+0xf6b>
   1c5aa:	958a                	add	a1,a1,sp
   1c5ac:	ffff8097          	auipc	ra,0xffff8
   1c5b0:	af0080e7          	jalr	-1296(ra) # 1409c <_ZN18complex_no_dynamic3app17h4e7ea2f9a49f0b45E>
   1c5b4:	3ec94503          	lbu	a0,1004(s2)
   1c5b8:	c501                	beqz	a0,1c5c0 <_start+0x4350>
   1c5ba:	3f092983          	lw	s3,1008(s2)
   1c5be:	a8b9                	j	1c61c <_start+0x43ac>
   1c5c0:	3ed94583          	lbu	a1,1005(s2)
   1c5c4:	3ee94603          	lbu	a2,1006(s2)
   1c5c8:	3ef94683          	lbu	a3,1007(s2)
   1c5cc:	3f092983          	lw	s3,1008(s2)
   1c5d0:	3f492703          	lw	a4,1012(s2)
   1c5d4:	3f892783          	lw	a5,1016(s2)
   1c5d8:	3fc92483          	lw	s1,1020(s2)
   1c5dc:	40092403          	lw	s0,1024(s2)
   1c5e0:	0622                	slli	a2,a2,0x8
   1c5e2:	38e92823          	sw	a4,912(s2)
   1c5e6:	38f92a23          	sw	a5,916(s2)
   1c5ea:	38992c23          	sw	s1,920(s2)
   1c5ee:	38892e23          	sw	s0,924(s2)
   1c5f2:	8dd1                	or	a1,a1,a2
   1c5f4:	02b11223          	sh	a1,36(sp)
   1c5f8:	02d10323          	sb	a3,38(sp)
   1c5fc:	40492583          	lw	a1,1028(s2)
   1c600:	40892603          	lw	a2,1032(s2)
   1c604:	40c92683          	lw	a3,1036(s2)
   1c608:	41094703          	lbu	a4,1040(s2)
   1c60c:	3ab92023          	sw	a1,928(s2)
   1c610:	3ac92223          	sw	a2,932(s2)
   1c614:	3ad92423          	sw	a3,936(s2)
   1c618:	3ae90623          	sb	a4,940(s2)
   1c61c:	5e051c63          	bnez	a0,1cc14 <_start+0x49a4>
   1c620:	02411503          	lh	a0,36(sp)
   1c624:	02614583          	lbu	a1,38(sp)
   1c628:	0189d613          	srli	a2,s3,0x18
   1c62c:	0109d693          	srli	a3,s3,0x10
   1c630:	20d907a3          	sb	a3,527(s2)
   1c634:	20c90823          	sb	a2,528(s2)
   1c638:	0089d613          	srli	a2,s3,0x8
   1c63c:	20a91523          	sh	a0,522(s2)
   1c640:	20b90623          	sb	a1,524(s2)
   1c644:	213906a3          	sb	s3,525(s2)
   1c648:	20c90723          	sb	a2,526(s2)
   1c64c:	6505                	lui	a0,0x1
   1c64e:	1c150513          	addi	a0,a0,449 # 11c1 <.Lline_table_start1+0xf96>
   1c652:	950a                	add	a0,a0,sp
   1c654:	6585                	lui	a1,0x1
   1c656:	34058593          	addi	a1,a1,832 # 1340 <.Lline_table_start1+0x1115>
   1c65a:	958a                	add	a1,a1,sp
   1c65c:	4675                	li	a2,29
   1c65e:	00000097          	auipc	ra,0x0
   1c662:	6d2080e7          	jalr	1746(ra) # 1cd30 <memcpy>
   1c666:	6505                	lui	a0,0x1
   1c668:	39c50513          	addi	a0,a0,924 # 139c <.Lline_table_start1+0x1171>
   1c66c:	950a                	add	a0,a0,sp
   1c66e:	6585                	lui	a1,0x1
   1c670:	1ba58593          	addi	a1,a1,442 # 11ba <.Lline_table_start1+0xf8f>
   1c674:	958a                	add	a1,a1,sp
   1c676:	ffff9097          	auipc	ra,0xffff9
   1c67a:	d36080e7          	jalr	-714(ra) # 153ac <_ZN18complex_no_dynamic3app17h829e5989d524a74fE>
   1c67e:	3ec94403          	lbu	s0,1004(s2)
   1c682:	c401                	beqz	s0,1c68a <_start+0x441a>
   1c684:	3f092983          	lw	s3,1008(s2)
   1c688:	a835                	j	1c6c4 <_start+0x4454>
   1c68a:	3ee94503          	lbu	a0,1006(s2)
   1c68e:	3ed94583          	lbu	a1,1005(s2)
   1c692:	3ef94603          	lbu	a2,1007(s2)
   1c696:	3f092983          	lw	s3,1008(s2)
   1c69a:	0522                	slli	a0,a0,0x8
   1c69c:	8d4d                	or	a0,a0,a1
   1c69e:	02a11223          	sh	a0,36(sp)
   1c6a2:	02c10323          	sb	a2,38(sp)
   1c6a6:	6505                	lui	a0,0x1
   1c6a8:	3a450513          	addi	a0,a0,932 # 13a4 <.Lline_table_start1+0x1179>
   1c6ac:	00a105b3          	add	a1,sp,a0
   1c6b0:	6505                	lui	a0,0x1
   1c6b2:	34050513          	addi	a0,a0,832 # 1340 <.Lline_table_start1+0x1115>
   1c6b6:	950a                	add	a0,a0,sp
   1c6b8:	02800613          	li	a2,40
   1c6bc:	00000097          	auipc	ra,0x0
   1c6c0:	674080e7          	jalr	1652(ra) # 1cd30 <memcpy>
   1c6c4:	54041863          	bnez	s0,1cc14 <_start+0x49a4>
   1c6c8:	02411503          	lh	a0,36(sp)
   1c6cc:	02614583          	lbu	a1,38(sp)
   1c6d0:	0189d613          	srli	a2,s3,0x18
   1c6d4:	0109d693          	srli	a3,s3,0x10
   1c6d8:	22d909a3          	sb	a3,563(s2)
   1c6dc:	22c90a23          	sb	a2,564(s2)
   1c6e0:	0089d613          	srli	a2,s3,0x8
   1c6e4:	22a91723          	sh	a0,558(s2)
   1c6e8:	22b90823          	sb	a1,560(s2)
   1c6ec:	233908a3          	sb	s3,561(s2)
   1c6f0:	22c90923          	sb	a2,562(s2)
   1c6f4:	6505                	lui	a0,0x1
   1c6f6:	1e550513          	addi	a0,a0,485 # 11e5 <.Lline_table_start1+0xfba>
   1c6fa:	950a                	add	a0,a0,sp
   1c6fc:	6585                	lui	a1,0x1
   1c6fe:	34058593          	addi	a1,a1,832 # 1340 <.Lline_table_start1+0x1115>
   1c702:	958a                	add	a1,a1,sp
   1c704:	02800613          	li	a2,40
   1c708:	00000097          	auipc	ra,0x0
   1c70c:	628080e7          	jalr	1576(ra) # 1cd30 <memcpy>
   1c710:	6505                	lui	a0,0x1
   1c712:	39c50513          	addi	a0,a0,924 # 139c <.Lline_table_start1+0x1171>
   1c716:	950a                	add	a0,a0,sp
   1c718:	6585                	lui	a1,0x1
   1c71a:	1de58593          	addi	a1,a1,478 # 11de <.Lline_table_start1+0xfb3>
   1c71e:	958a                	add	a1,a1,sp
   1c720:	ffff7097          	auipc	ra,0xffff7
   1c724:	f18080e7          	jalr	-232(ra) # 13638 <_ZN18complex_no_dynamic3app17h39ec62a3c3ab7bf7E>
   1c728:	3ec94403          	lbu	s0,1004(s2)
   1c72c:	c401                	beqz	s0,1c734 <_start+0x44c4>
   1c72e:	3f092983          	lw	s3,1008(s2)
   1c732:	a835                	j	1c76e <_start+0x44fe>
   1c734:	3ee94503          	lbu	a0,1006(s2)
   1c738:	3ed94583          	lbu	a1,1005(s2)
   1c73c:	3ef94603          	lbu	a2,1007(s2)
   1c740:	3f092983          	lw	s3,1008(s2)
   1c744:	0522                	slli	a0,a0,0x8
   1c746:	8d4d                	or	a0,a0,a1
   1c748:	02a11223          	sh	a0,36(sp)
   1c74c:	02c10323          	sb	a2,38(sp)
   1c750:	6505                	lui	a0,0x1
   1c752:	3a450513          	addi	a0,a0,932 # 13a4 <.Lline_table_start1+0x1179>
   1c756:	00a105b3          	add	a1,sp,a0
   1c75a:	6505                	lui	a0,0x1
   1c75c:	34050513          	addi	a0,a0,832 # 1340 <.Lline_table_start1+0x1115>
   1c760:	950a                	add	a0,a0,sp
   1c762:	05700613          	li	a2,87
   1c766:	00000097          	auipc	ra,0x0
   1c76a:	5ca080e7          	jalr	1482(ra) # 1cd30 <memcpy>
   1c76e:	4a041363          	bnez	s0,1cc14 <_start+0x49a4>
   1c772:	02411503          	lh	a0,36(sp)
   1c776:	02614583          	lbu	a1,38(sp)
   1c77a:	0189d613          	srli	a2,s3,0x18
   1c77e:	0109d693          	srli	a3,s3,0x10
   1c782:	26d901a3          	sb	a3,611(s2)
   1c786:	26c90223          	sb	a2,612(s2)
   1c78a:	0089d613          	srli	a2,s3,0x8
   1c78e:	24a91f23          	sh	a0,606(s2)
   1c792:	26b90023          	sb	a1,608(s2)
   1c796:	273900a3          	sb	s3,609(s2)
   1c79a:	26c90123          	sb	a2,610(s2)
   1c79e:	6505                	lui	a0,0x1
   1c7a0:	21550513          	addi	a0,a0,533 # 1215 <.Lline_table_start1+0xfea>
   1c7a4:	950a                	add	a0,a0,sp
   1c7a6:	6585                	lui	a1,0x1
   1c7a8:	34058593          	addi	a1,a1,832 # 1340 <.Lline_table_start1+0x1115>
   1c7ac:	958a                	add	a1,a1,sp
   1c7ae:	05700613          	li	a2,87
   1c7b2:	00000097          	auipc	ra,0x0
   1c7b6:	57e080e7          	jalr	1406(ra) # 1cd30 <memcpy>
   1c7ba:	6505                	lui	a0,0x1
   1c7bc:	39c50513          	addi	a0,a0,924 # 139c <.Lline_table_start1+0x1171>
   1c7c0:	950a                	add	a0,a0,sp
   1c7c2:	6585                	lui	a1,0x1
   1c7c4:	20e58593          	addi	a1,a1,526 # 120e <.Lline_table_start1+0xfe3>
   1c7c8:	958a                	add	a1,a1,sp
   1c7ca:	ffffa097          	auipc	ra,0xffffa
   1c7ce:	7fc080e7          	jalr	2044(ra) # 16fc6 <_ZN18complex_no_dynamic3app17hd463f8b65d3a6659E>
   1c7d2:	3ec94403          	lbu	s0,1004(s2)
   1c7d6:	c401                	beqz	s0,1c7de <_start+0x456e>
   1c7d8:	3f092983          	lw	s3,1008(s2)
   1c7dc:	a835                	j	1c818 <_start+0x45a8>
   1c7de:	3ee94503          	lbu	a0,1006(s2)
   1c7e2:	3ed94583          	lbu	a1,1005(s2)
   1c7e6:	3ef94603          	lbu	a2,1007(s2)
   1c7ea:	3f092983          	lw	s3,1008(s2)
   1c7ee:	0522                	slli	a0,a0,0x8
   1c7f0:	8d4d                	or	a0,a0,a1
   1c7f2:	02a11223          	sh	a0,36(sp)
   1c7f6:	02c10323          	sb	a2,38(sp)
   1c7fa:	6505                	lui	a0,0x1
   1c7fc:	3a450513          	addi	a0,a0,932 # 13a4 <.Lline_table_start1+0x1179>
   1c800:	00a105b3          	add	a1,sp,a0
   1c804:	6505                	lui	a0,0x1
   1c806:	34050513          	addi	a0,a0,832 # 1340 <.Lline_table_start1+0x1115>
   1c80a:	950a                	add	a0,a0,sp
   1c80c:	04e00613          	li	a2,78
   1c810:	00000097          	auipc	ra,0x0
   1c814:	520080e7          	jalr	1312(ra) # 1cd30 <memcpy>
   1c818:	3e041e63          	bnez	s0,1cc14 <_start+0x49a4>
   1c81c:	02411503          	lh	a0,36(sp)
   1c820:	02614583          	lbu	a1,38(sp)
   1c824:	0189d613          	srli	a2,s3,0x18
   1c828:	0109d693          	srli	a3,s3,0x10
   1c82c:	2cd900a3          	sb	a3,705(s2)
   1c830:	2cc90123          	sb	a2,706(s2)
   1c834:	0089d613          	srli	a2,s3,0x8
   1c838:	2aa91e23          	sh	a0,700(s2)
   1c83c:	2ab90f23          	sb	a1,702(s2)
   1c840:	2b390fa3          	sb	s3,703(s2)
   1c844:	2cc90023          	sb	a2,704(s2)
   1c848:	6505                	lui	a0,0x1
   1c84a:	27350513          	addi	a0,a0,627 # 1273 <.Lline_table_start1+0x1048>
   1c84e:	950a                	add	a0,a0,sp
   1c850:	6585                	lui	a1,0x1
   1c852:	34058593          	addi	a1,a1,832 # 1340 <.Lline_table_start1+0x1115>
   1c856:	958a                	add	a1,a1,sp
   1c858:	04e00613          	li	a2,78
   1c85c:	00000097          	auipc	ra,0x0
   1c860:	4d4080e7          	jalr	1236(ra) # 1cd30 <memcpy>
   1c864:	6505                	lui	a0,0x1
   1c866:	39c50513          	addi	a0,a0,924 # 139c <.Lline_table_start1+0x1171>
   1c86a:	950a                	add	a0,a0,sp
   1c86c:	6585                	lui	a1,0x1
   1c86e:	26c58593          	addi	a1,a1,620 # 126c <.Lline_table_start1+0x1041>
   1c872:	958a                	add	a1,a1,sp
   1c874:	ffff5097          	auipc	ra,0xffff5
   1c878:	be8080e7          	jalr	-1048(ra) # 1145c <_ZN18complex_no_dynamic3app17h06076dcf394c70cbE>
   1c87c:	3ec94503          	lbu	a0,1004(s2)
   1c880:	c501                	beqz	a0,1c888 <_start+0x4618>
   1c882:	3f092983          	lw	s3,1008(s2)
   1c886:	a81d                	j	1c8bc <_start+0x464c>
   1c888:	3ee94583          	lbu	a1,1006(s2)
   1c88c:	3ed94603          	lbu	a2,1005(s2)
   1c890:	3ef94683          	lbu	a3,1007(s2)
   1c894:	3f092983          	lw	s3,1008(s2)
   1c898:	05a2                	slli	a1,a1,0x8
   1c89a:	8dd1                	or	a1,a1,a2
   1c89c:	3f492603          	lw	a2,1012(s2)
   1c8a0:	3f892703          	lw	a4,1016(s2)
   1c8a4:	3fc91783          	lh	a5,1020(s2)
   1c8a8:	02b11223          	sh	a1,36(sp)
   1c8ac:	02d10323          	sb	a3,38(sp)
   1c8b0:	38c92823          	sw	a2,912(s2)
   1c8b4:	38e92a23          	sw	a4,916(s2)
   1c8b8:	38f91c23          	sh	a5,920(s2)
   1c8bc:	34051c63          	bnez	a0,1cc14 <_start+0x49a4>
   1c8c0:	02411503          	lh	a0,36(sp)
   1c8c4:	02614583          	lbu	a1,38(sp)
   1c8c8:	0189d613          	srli	a2,s3,0x18
   1c8cc:	0109d693          	srli	a3,s3,0x10
   1c8d0:	30d90ba3          	sb	a3,791(s2)
   1c8d4:	30c90c23          	sb	a2,792(s2)
   1c8d8:	0089d613          	srli	a2,s3,0x8
   1c8dc:	30a91923          	sh	a0,786(s2)
   1c8e0:	30b90a23          	sb	a1,788(s2)
   1c8e4:	31390aa3          	sb	s3,789(s2)
   1c8e8:	30c90b23          	sb	a2,790(s2)
   1c8ec:	6505                	lui	a0,0x1
   1c8ee:	2c950513          	addi	a0,a0,713 # 12c9 <.Lline_table_start1+0x109e>
   1c8f2:	950a                	add	a0,a0,sp
   1c8f4:	6585                	lui	a1,0x1
   1c8f6:	34058593          	addi	a1,a1,832 # 1340 <.Lline_table_start1+0x1115>
   1c8fa:	958a                	add	a1,a1,sp
   1c8fc:	4629                	li	a2,10
   1c8fe:	00000097          	auipc	ra,0x0
   1c902:	432080e7          	jalr	1074(ra) # 1cd30 <memcpy>
   1c906:	6505                	lui	a0,0x1
   1c908:	39c50513          	addi	a0,a0,924 # 139c <.Lline_table_start1+0x1171>
   1c90c:	950a                	add	a0,a0,sp
   1c90e:	6585                	lui	a1,0x1
   1c910:	2c258593          	addi	a1,a1,706 # 12c2 <.Lline_table_start1+0x1097>
   1c914:	958a                	add	a1,a1,sp
   1c916:	ffff6097          	auipc	ra,0xffff6
   1c91a:	df2080e7          	jalr	-526(ra) # 12708 <_ZN18complex_no_dynamic3app17h297087b10341c70eE>
   1c91e:	3ec94403          	lbu	s0,1004(s2)
   1c922:	c401                	beqz	s0,1c92a <_start+0x46ba>
   1c924:	3f092983          	lw	s3,1008(s2)
   1c928:	a835                	j	1c964 <_start+0x46f4>
   1c92a:	3ee94503          	lbu	a0,1006(s2)
   1c92e:	3ed94583          	lbu	a1,1005(s2)
   1c932:	3ef94603          	lbu	a2,1007(s2)
   1c936:	3f092983          	lw	s3,1008(s2)
   1c93a:	0522                	slli	a0,a0,0x8
   1c93c:	8d4d                	or	a0,a0,a1
   1c93e:	02a11223          	sh	a0,36(sp)
   1c942:	02c10323          	sb	a2,38(sp)
   1c946:	6505                	lui	a0,0x1
   1c948:	3a450513          	addi	a0,a0,932 # 13a4 <.Lline_table_start1+0x1179>
   1c94c:	00a105b3          	add	a1,sp,a0
   1c950:	6505                	lui	a0,0x1
   1c952:	34050513          	addi	a0,a0,832 # 1340 <.Lline_table_start1+0x1115>
   1c956:	950a                	add	a0,a0,sp
   1c958:	04900613          	li	a2,73
   1c95c:	00000097          	auipc	ra,0x0
   1c960:	3d4080e7          	jalr	980(ra) # 1cd30 <memcpy>
   1c964:	2a041863          	bnez	s0,1cc14 <_start+0x49a4>
   1c968:	02411503          	lh	a0,36(sp)
   1c96c:	02614583          	lbu	a1,38(sp)
   1c970:	0189d613          	srli	a2,s3,0x18
   1c974:	0109d693          	srli	a3,s3,0x10
   1c978:	32d904a3          	sb	a3,809(s2)
   1c97c:	32c90523          	sb	a2,810(s2)
   1c980:	0089d613          	srli	a2,s3,0x8
   1c984:	32a91223          	sh	a0,804(s2)
   1c988:	32b90323          	sb	a1,806(s2)
   1c98c:	333903a3          	sb	s3,807(s2)
   1c990:	32c90423          	sb	a2,808(s2)
   1c994:	6505                	lui	a0,0x1
   1c996:	2db50513          	addi	a0,a0,731 # 12db <.Lline_table_start1+0x10b0>
   1c99a:	950a                	add	a0,a0,sp
   1c99c:	6585                	lui	a1,0x1
   1c99e:	34058593          	addi	a1,a1,832 # 1340 <.Lline_table_start1+0x1115>
   1c9a2:	958a                	add	a1,a1,sp
   1c9a4:	04900613          	li	a2,73
   1c9a8:	00000097          	auipc	ra,0x0
   1c9ac:	388080e7          	jalr	904(ra) # 1cd30 <memcpy>
   1c9b0:	6505                	lui	a0,0x1
   1c9b2:	39c50513          	addi	a0,a0,924 # 139c <.Lline_table_start1+0x1171>
   1c9b6:	950a                	add	a0,a0,sp
   1c9b8:	6585                	lui	a1,0x1
   1c9ba:	2d458593          	addi	a1,a1,724 # 12d4 <.Lline_table_start1+0x10a9>
   1c9be:	958a                	add	a1,a1,sp
   1c9c0:	ffff9097          	auipc	ra,0xffff9
   1c9c4:	8e8080e7          	jalr	-1816(ra) # 152a8 <_ZN18complex_no_dynamic3app17h78c1f7e0f37bfd44E>
   1c9c8:	3ec94503          	lbu	a0,1004(s2)
   1c9cc:	c501                	beqz	a0,1c9d4 <_start+0x4764>
   1c9ce:	3f092983          	lw	s3,1008(s2)
   1c9d2:	a099                	j	1ca18 <_start+0x47a8>
   1c9d4:	3ed94583          	lbu	a1,1005(s2)
   1c9d8:	3ee94603          	lbu	a2,1006(s2)
   1c9dc:	3ef94683          	lbu	a3,1007(s2)
   1c9e0:	3f092983          	lw	s3,1008(s2)
   1c9e4:	3f492703          	lw	a4,1012(s2)
   1c9e8:	3f892783          	lw	a5,1016(s2)
   1c9ec:	3fc92483          	lw	s1,1020(s2)
   1c9f0:	40092403          	lw	s0,1024(s2)
   1c9f4:	38e92823          	sw	a4,912(s2)
   1c9f8:	38f92a23          	sw	a5,916(s2)
   1c9fc:	38992c23          	sw	s1,920(s2)
   1ca00:	38892e23          	sw	s0,924(s2)
   1ca04:	40492703          	lw	a4,1028(s2)
   1ca08:	0622                	slli	a2,a2,0x8
   1ca0a:	8dd1                	or	a1,a1,a2
   1ca0c:	02b11223          	sh	a1,36(sp)
   1ca10:	02d10323          	sb	a3,38(sp)
   1ca14:	3ae92023          	sw	a4,928(s2)
   1ca18:	1e051e63          	bnez	a0,1cc14 <_start+0x49a4>
   1ca1c:	02411503          	lh	a0,36(sp)
   1ca20:	02614583          	lbu	a1,38(sp)
   1ca24:	0189d613          	srli	a2,s3,0x18
   1ca28:	0109d693          	srli	a3,s3,0x10
   1ca2c:	36d90ca3          	sb	a3,889(s2)
   1ca30:	36c90d23          	sb	a2,890(s2)
   1ca34:	0089d613          	srli	a2,s3,0x8
   1ca38:	36a91a23          	sh	a0,884(s2)
   1ca3c:	36b90b23          	sb	a1,886(s2)
   1ca40:	37390ba3          	sb	s3,887(s2)
   1ca44:	36c90c23          	sb	a2,888(s2)
   1ca48:	6505                	lui	a0,0x1
   1ca4a:	32b50513          	addi	a0,a0,811 # 132b <.Lline_table_start1+0x1100>
   1ca4e:	950a                	add	a0,a0,sp
   1ca50:	6585                	lui	a1,0x1
   1ca52:	34058593          	addi	a1,a1,832 # 1340 <.Lline_table_start1+0x1115>
   1ca56:	958a                	add	a1,a1,sp
   1ca58:	4651                	li	a2,20
   1ca5a:	00000097          	auipc	ra,0x0
   1ca5e:	2d6080e7          	jalr	726(ra) # 1cd30 <memcpy>
   1ca62:	6505                	lui	a0,0x1
   1ca64:	39c50513          	addi	a0,a0,924 # 139c <.Lline_table_start1+0x1171>
   1ca68:	950a                	add	a0,a0,sp
   1ca6a:	6585                	lui	a1,0x1
   1ca6c:	32458593          	addi	a1,a1,804 # 1324 <.Lline_table_start1+0x10f9>
   1ca70:	958a                	add	a1,a1,sp
   1ca72:	ffff5097          	auipc	ra,0xffff5
   1ca76:	170080e7          	jalr	368(ra) # 11be2 <_ZN18complex_no_dynamic3app17h15f1829d71e6a4d8E>
   1ca7a:	3ec94403          	lbu	s0,1004(s2)
   1ca7e:	c401                	beqz	s0,1ca86 <_start+0x4816>
   1ca80:	3f092983          	lw	s3,1008(s2)
   1ca84:	a835                	j	1cac0 <_start+0x4850>
   1ca86:	3ee94503          	lbu	a0,1006(s2)
   1ca8a:	3ed94583          	lbu	a1,1005(s2)
   1ca8e:	3ef94603          	lbu	a2,1007(s2)
   1ca92:	3f092983          	lw	s3,1008(s2)
   1ca96:	0522                	slli	a0,a0,0x8
   1ca98:	8d4d                	or	a0,a0,a1
   1ca9a:	02a11223          	sh	a0,36(sp)
   1ca9e:	02c10323          	sb	a2,38(sp)
   1caa2:	6505                	lui	a0,0x1
   1caa4:	3a450513          	addi	a0,a0,932 # 13a4 <.Lline_table_start1+0x1179>
   1caa8:	00a105b3          	add	a1,sp,a0
   1caac:	6505                	lui	a0,0x1
   1caae:	34050513          	addi	a0,a0,832 # 1340 <.Lline_table_start1+0x1115>
   1cab2:	950a                	add	a0,a0,sp
   1cab4:	05c00613          	li	a2,92
   1cab8:	00000097          	auipc	ra,0x0
   1cabc:	278080e7          	jalr	632(ra) # 1cd30 <memcpy>
   1cac0:	14041a63          	bnez	s0,1cc14 <_start+0x49a4>
   1cac4:	02411503          	lh	a0,36(sp)
   1cac8:	02614583          	lbu	a1,38(sp)
   1cacc:	0189d613          	srli	a2,s3,0x18
   1cad0:	0109d693          	srli	a3,s3,0x10
   1cad4:	44d90ba3          	sb	a3,1111(s2)
   1cad8:	44c90c23          	sb	a2,1112(s2)
   1cadc:	0089d613          	srli	a2,s3,0x8
   1cae0:	44a91923          	sh	a0,1106(s2)
   1cae4:	44b90a23          	sb	a1,1108(s2)
   1cae8:	45390aa3          	sb	s3,1109(s2)
   1caec:	44c90b23          	sb	a2,1110(s2)
   1caf0:	6505                	lui	a0,0x1
   1caf2:	40950513          	addi	a0,a0,1033 # 1409 <.Lline_table_start1+0x11de>
   1caf6:	950a                	add	a0,a0,sp
   1caf8:	6585                	lui	a1,0x1
   1cafa:	34058593          	addi	a1,a1,832 # 1340 <.Lline_table_start1+0x1115>
   1cafe:	958a                	add	a1,a1,sp
   1cb00:	05c00613          	li	a2,92
   1cb04:	00000097          	auipc	ra,0x0
   1cb08:	22c080e7          	jalr	556(ra) # 1cd30 <memcpy>
   1cb0c:	6505                	lui	a0,0x1
   1cb0e:	39c50513          	addi	a0,a0,924 # 139c <.Lline_table_start1+0x1171>
   1cb12:	950a                	add	a0,a0,sp
   1cb14:	6585                	lui	a1,0x1
   1cb16:	40258593          	addi	a1,a1,1026 # 1402 <.Lline_table_start1+0x11d7>
   1cb1a:	958a                	add	a1,a1,sp
   1cb1c:	ffff9097          	auipc	ra,0xffff9
   1cb20:	3fc080e7          	jalr	1020(ra) # 15f18 <_ZN18complex_no_dynamic3app17haf29bd138e846855E>
   1cb24:	3ec94403          	lbu	s0,1004(s2)
   1cb28:	c401                	beqz	s0,1cb30 <_start+0x48c0>
   1cb2a:	3f092983          	lw	s3,1008(s2)
   1cb2e:	a835                	j	1cb6a <_start+0x48fa>
   1cb30:	3ee94503          	lbu	a0,1006(s2)
   1cb34:	3ed94583          	lbu	a1,1005(s2)
   1cb38:	3ef94603          	lbu	a2,1007(s2)
   1cb3c:	3f092983          	lw	s3,1008(s2)
   1cb40:	0522                	slli	a0,a0,0x8
   1cb42:	8d4d                	or	a0,a0,a1
   1cb44:	02a11223          	sh	a0,36(sp)
   1cb48:	02c10323          	sb	a2,38(sp)
   1cb4c:	6505                	lui	a0,0x1
   1cb4e:	3a450513          	addi	a0,a0,932 # 13a4 <.Lline_table_start1+0x1179>
   1cb52:	00a105b3          	add	a1,sp,a0
   1cb56:	6505                	lui	a0,0x1
   1cb58:	34050513          	addi	a0,a0,832 # 1340 <.Lline_table_start1+0x1115>
   1cb5c:	950a                	add	a0,a0,sp
   1cb5e:	02500613          	li	a2,37
   1cb62:	00000097          	auipc	ra,0x0
   1cb66:	1ce080e7          	jalr	462(ra) # 1cd30 <memcpy>
   1cb6a:	e44d                	bnez	s0,1cc14 <_start+0x49a4>
   1cb6c:	02411503          	lh	a0,36(sp)
   1cb70:	02614583          	lbu	a1,38(sp)
   1cb74:	0189d613          	srli	a2,s3,0x18
   1cb78:	0109d693          	srli	a3,s3,0x10
   1cb7c:	4ad90da3          	sb	a3,1211(s2)
   1cb80:	4ac90e23          	sb	a2,1212(s2)
   1cb84:	0089d613          	srli	a2,s3,0x8
   1cb88:	4aa91b23          	sh	a0,1206(s2)
   1cb8c:	4ab90c23          	sb	a1,1208(s2)
   1cb90:	4b390ca3          	sb	s3,1209(s2)
   1cb94:	4ac90d23          	sb	a2,1210(s2)
   1cb98:	6505                	lui	a0,0x1
   1cb9a:	46d50513          	addi	a0,a0,1133 # 146d <.Lline_table_start1+0x1242>
   1cb9e:	950a                	add	a0,a0,sp
   1cba0:	6585                	lui	a1,0x1
   1cba2:	34058593          	addi	a1,a1,832 # 1340 <.Lline_table_start1+0x1115>
   1cba6:	958a                	add	a1,a1,sp
   1cba8:	02500613          	li	a2,37
   1cbac:	00000097          	auipc	ra,0x0
   1cbb0:	184080e7          	jalr	388(ra) # 1cd30 <memcpy>
   1cbb4:	6505                	lui	a0,0x1
   1cbb6:	39c50513          	addi	a0,a0,924 # 139c <.Lline_table_start1+0x1171>
   1cbba:	950a                	add	a0,a0,sp
   1cbbc:	6585                	lui	a1,0x1
   1cbbe:	46658593          	addi	a1,a1,1126 # 1466 <.Lline_table_start1+0x123b>
   1cbc2:	958a                	add	a1,a1,sp
   1cbc4:	ffff8097          	auipc	ra,0xffff8
   1cbc8:	e64080e7          	jalr	-412(ra) # 14a28 <_ZN18complex_no_dynamic3app17h5e8e3dd900918cebE>
   1cbcc:	3ec94403          	lbu	s0,1004(s2)
   1cbd0:	c401                	beqz	s0,1cbd8 <_start+0x4968>
   1cbd2:	3f092983          	lw	s3,1008(s2)
   1cbd6:	a835                	j	1cc12 <_start+0x49a2>
   1cbd8:	3ee94503          	lbu	a0,1006(s2)
   1cbdc:	3ed94583          	lbu	a1,1005(s2)
   1cbe0:	3ef94603          	lbu	a2,1007(s2)
   1cbe4:	3f092983          	lw	s3,1008(s2)
   1cbe8:	0522                	slli	a0,a0,0x8
   1cbea:	8d4d                	or	a0,a0,a1
   1cbec:	02a11223          	sh	a0,36(sp)
   1cbf0:	02c10323          	sb	a2,38(sp)
   1cbf4:	6505                	lui	a0,0x1
   1cbf6:	3a450513          	addi	a0,a0,932 # 13a4 <.Lline_table_start1+0x1179>
   1cbfa:	00a105b3          	add	a1,sp,a0
   1cbfe:	6505                	lui	a0,0x1
   1cc00:	34050513          	addi	a0,a0,832 # 1340 <.Lline_table_start1+0x1115>
   1cc04:	950a                	add	a0,a0,sp
   1cc06:	02300613          	li	a2,35
   1cc0a:	00000097          	auipc	ra,0x0
   1cc0e:	126080e7          	jalr	294(ra) # 1cd30 <memcpy>
   1cc12:	c421                	beqz	s0,1cc5a <_start+0x49ea>
   1cc14:	4505                	li	a0,1
   1cc16:	85ce                	mv	a1,s3
   1cc18:	7f010113          	addi	sp,sp,2032
   1cc1c:	51010113          	addi	sp,sp,1296
   1cc20:	7ec12083          	lw	ra,2028(sp)
   1cc24:	7e812403          	lw	s0,2024(sp)
   1cc28:	7e412483          	lw	s1,2020(sp)
   1cc2c:	7e012903          	lw	s2,2016(sp)
   1cc30:	7dc12983          	lw	s3,2012(sp)
   1cc34:	7d812a03          	lw	s4,2008(sp)
   1cc38:	7d412a83          	lw	s5,2004(sp)
   1cc3c:	7d012b03          	lw	s6,2000(sp)
   1cc40:	7cc12b83          	lw	s7,1996(sp)
   1cc44:	7c812c03          	lw	s8,1992(sp)
   1cc48:	7c412c83          	lw	s9,1988(sp)
   1cc4c:	7c012d03          	lw	s10,1984(sp)
   1cc50:	7bc12d83          	lw	s11,1980(sp)
   1cc54:	7f010113          	addi	sp,sp,2032
   1cc58:	8082                	ret
   1cc5a:	02411503          	lh	a0,36(sp)
   1cc5e:	02614583          	lbu	a1,38(sp)
   1cc62:	0189d613          	srli	a2,s3,0x18
   1cc66:	0109d693          	srli	a3,s3,0x10
   1cc6a:	4ed903a3          	sb	a3,1255(s2)
   1cc6e:	4ec90423          	sb	a2,1256(s2)
   1cc72:	0089d613          	srli	a2,s3,0x8
   1cc76:	4ea91123          	sh	a0,1250(s2)
   1cc7a:	4eb90223          	sb	a1,1252(s2)
   1cc7e:	4f3902a3          	sb	s3,1253(s2)
   1cc82:	4ec90323          	sb	a2,1254(s2)
   1cc86:	6505                	lui	a0,0x1
   1cc88:	49950513          	addi	a0,a0,1177 # 1499 <.Lline_table_start1+0x126e>
   1cc8c:	950a                	add	a0,a0,sp
   1cc8e:	6585                	lui	a1,0x1
   1cc90:	34058593          	addi	a1,a1,832 # 1340 <.Lline_table_start1+0x1115>
   1cc94:	958a                	add	a1,a1,sp
   1cc96:	02300613          	li	a2,35
   1cc9a:	00000097          	auipc	ra,0x0
   1cc9e:	096080e7          	jalr	150(ra) # 1cd30 <memcpy>
   1cca2:	6505                	lui	a0,0x1
   1cca4:	39c50513          	addi	a0,a0,924 # 139c <.Lline_table_start1+0x1171>
   1cca8:	950a                	add	a0,a0,sp
   1ccaa:	6585                	lui	a1,0x1
   1ccac:	49258593          	addi	a1,a1,1170 # 1492 <.Lline_table_start1+0x1267>
   1ccb0:	958a                	add	a1,a1,sp
   1ccb2:	ffff7097          	auipc	ra,0xffff7
   1ccb6:	87a080e7          	jalr	-1926(ra) # 1352c <_ZN18complex_no_dynamic3app17h3600ccdeb7bbc2e7E>
   1ccba:	3f092983          	lw	s3,1008(s2)
   1ccbe:	3ec94503          	lbu	a0,1004(s2)
   1ccc2:	bf91                	j	1cc16 <_start+0x49a6>

0001ccc4 <memset>:
   1ccc4:	46c1                	li	a3,16
   1ccc6:	04d66f63          	bltu	a2,a3,1cd24 <memset+0x60>
   1ccca:	40a006b3          	neg	a3,a0
   1ccce:	0036f813          	andi	a6,a3,3
   1ccd2:	01050733          	add	a4,a0,a6
   1ccd6:	00e57963          	bgeu	a0,a4,1cce8 <memset+0x24>
   1ccda:	87c2                	mv	a5,a6
   1ccdc:	86aa                	mv	a3,a0
   1ccde:	00b68023          	sb	a1,0(a3)
   1cce2:	17fd                	addi	a5,a5,-1
   1cce4:	0685                	addi	a3,a3,1
   1cce6:	ffe5                	bnez	a5,1ccde <memset+0x1a>
   1cce8:	41060633          	sub	a2,a2,a6
   1ccec:	ffc67693          	andi	a3,a2,-4
   1ccf0:	96ba                	add	a3,a3,a4
   1ccf2:	00d77e63          	bgeu	a4,a3,1cd0e <memset+0x4a>
   1ccf6:	0ff5f813          	zext.b	a6,a1
   1ccfa:	010107b7          	lui	a5,0x1010
   1ccfe:	10178793          	addi	a5,a5,257 # 1010101 <_ZN17compiler_builtins3mem6memcpy17h90d0c987d2ef5a79E+0xff33c9>
   1cd02:	02f807b3          	mul	a5,a6,a5
   1cd06:	c31c                	sw	a5,0(a4)
   1cd08:	0711                	addi	a4,a4,4
   1cd0a:	fed76ee3          	bltu	a4,a3,1cd06 <memset+0x42>
   1cd0e:	8a0d                	andi	a2,a2,3
   1cd10:	00c68733          	add	a4,a3,a2
   1cd14:	00e6f763          	bgeu	a3,a4,1cd22 <memset+0x5e>
   1cd18:	00b68023          	sb	a1,0(a3)
   1cd1c:	167d                	addi	a2,a2,-1
   1cd1e:	0685                	addi	a3,a3,1
   1cd20:	fe65                	bnez	a2,1cd18 <memset+0x54>
   1cd22:	8082                	ret
   1cd24:	86aa                	mv	a3,a0
   1cd26:	00c50733          	add	a4,a0,a2
   1cd2a:	fee567e3          	bltu	a0,a4,1cd18 <memset+0x54>
   1cd2e:	bfd5                	j	1cd22 <memset+0x5e>

0001cd30 <memcpy>:
   1cd30:	00000317          	auipc	t1,0x0
   1cd34:	00830067          	jr	8(t1) # 1cd38 <_ZN17compiler_builtins3mem6memcpy17h90d0c987d2ef5a79E>

0001cd38 <_ZN17compiler_builtins3mem6memcpy17h90d0c987d2ef5a79E>:
   1cd38:	1141                	addi	sp,sp,-16
   1cd3a:	c622                	sw	s0,12(sp)
   1cd3c:	46c1                	li	a3,16
   1cd3e:	06d66363          	bltu	a2,a3,1cda4 <_ZN17compiler_builtins3mem6memcpy17h90d0c987d2ef5a79E+0x6c>
   1cd42:	40a006b3          	neg	a3,a0
   1cd46:	0036f813          	andi	a6,a3,3
   1cd4a:	01050fb3          	add	t6,a0,a6
   1cd4e:	01f57d63          	bgeu	a0,t6,1cd68 <_ZN17compiler_builtins3mem6memcpy17h90d0c987d2ef5a79E+0x30>
   1cd52:	8742                	mv	a4,a6
   1cd54:	86aa                	mv	a3,a0
   1cd56:	87ae                	mv	a5,a1
   1cd58:	0007c883          	lbu	a7,0(a5)
   1cd5c:	177d                	addi	a4,a4,-1
   1cd5e:	01168023          	sb	a7,0(a3)
   1cd62:	0685                	addi	a3,a3,1
   1cd64:	0785                	addi	a5,a5,1
   1cd66:	fb6d                	bnez	a4,1cd58 <_ZN17compiler_builtins3mem6memcpy17h90d0c987d2ef5a79E+0x20>
   1cd68:	01058433          	add	s0,a1,a6
   1cd6c:	410608b3          	sub	a7,a2,a6
   1cd70:	ffc8f713          	andi	a4,a7,-4
   1cd74:	00347613          	andi	a2,s0,3
   1cd78:	00ef86b3          	add	a3,t6,a4
   1cd7c:	e621                	bnez	a2,1cdc4 <_ZN17compiler_builtins3mem6memcpy17h90d0c987d2ef5a79E+0x8c>
   1cd7e:	00dffa63          	bgeu	t6,a3,1cd92 <_ZN17compiler_builtins3mem6memcpy17h90d0c987d2ef5a79E+0x5a>
   1cd82:	8622                	mv	a2,s0
   1cd84:	421c                	lw	a5,0(a2)
   1cd86:	00ffa023          	sw	a5,0(t6)
   1cd8a:	0f91                	addi	t6,t6,4
   1cd8c:	0611                	addi	a2,a2,4
   1cd8e:	fedfebe3          	bltu	t6,a3,1cd84 <_ZN17compiler_builtins3mem6memcpy17h90d0c987d2ef5a79E+0x4c>
   1cd92:	00e405b3          	add	a1,s0,a4
   1cd96:	0038f613          	andi	a2,a7,3
   1cd9a:	00c68733          	add	a4,a3,a2
   1cd9e:	00e6e863          	bltu	a3,a4,1cdae <_ZN17compiler_builtins3mem6memcpy17h90d0c987d2ef5a79E+0x76>
   1cda2:	a831                	j	1cdbe <_ZN17compiler_builtins3mem6memcpy17h90d0c987d2ef5a79E+0x86>
   1cda4:	86aa                	mv	a3,a0
   1cda6:	00c50733          	add	a4,a0,a2
   1cdaa:	00e57a63          	bgeu	a0,a4,1cdbe <_ZN17compiler_builtins3mem6memcpy17h90d0c987d2ef5a79E+0x86>
   1cdae:	0005c703          	lbu	a4,0(a1)
   1cdb2:	167d                	addi	a2,a2,-1
   1cdb4:	00e68023          	sb	a4,0(a3)
   1cdb8:	0685                	addi	a3,a3,1
   1cdba:	0585                	addi	a1,a1,1
   1cdbc:	fa6d                	bnez	a2,1cdae <_ZN17compiler_builtins3mem6memcpy17h90d0c987d2ef5a79E+0x76>
   1cdbe:	4432                	lw	s0,12(sp)
   1cdc0:	0141                	addi	sp,sp,16
   1cdc2:	8082                	ret
   1cdc4:	4801                	li	a6,0
   1cdc6:	4791                	li	a5,4
   1cdc8:	c402                	sw	zero,8(sp)
   1cdca:	40c783b3          	sub	t2,a5,a2
   1cdce:	00810293          	addi	t0,sp,8
   1cdd2:	0013f313          	andi	t1,t2,1
   1cdd6:	00c2e2b3          	or	t0,t0,a2
   1cdda:	04031763          	bnez	t1,1ce28 <_ZN17compiler_builtins3mem6memcpy17h90d0c987d2ef5a79E+0xf0>
   1cdde:	0023f793          	andi	a5,t2,2
   1cde2:	ebb9                	bnez	a5,1ce38 <_ZN17compiler_builtins3mem6memcpy17h90d0c987d2ef5a79E+0x100>
   1cde4:	4ea2                	lw	t4,8(sp)
   1cde6:	00361813          	slli	a6,a2,0x3
   1cdea:	004f8793          	addi	a5,t6,4
   1cdee:	40c40f33          	sub	t5,s0,a2
   1cdf2:	06d7f363          	bgeu	a5,a3,1ce58 <_ZN17compiler_builtins3mem6memcpy17h90d0c987d2ef5a79E+0x120>
   1cdf6:	410007b3          	neg	a5,a6
   1cdfa:	0187fe13          	andi	t3,a5,24
   1cdfe:	004f2283          	lw	t0,4(t5)
   1ce02:	004f0393          	addi	t2,t5,4
   1ce06:	010ed5b3          	srl	a1,t4,a6
   1ce0a:	004f8313          	addi	t1,t6,4
   1ce0e:	01c297b3          	sll	a5,t0,t3
   1ce12:	8ddd                	or	a1,a1,a5
   1ce14:	008f8793          	addi	a5,t6,8
   1ce18:	00bfa023          	sw	a1,0(t6)
   1ce1c:	8f9a                	mv	t6,t1
   1ce1e:	8f1e                	mv	t5,t2
   1ce20:	8e96                	mv	t4,t0
   1ce22:	fcd7eee3          	bltu	a5,a3,1cdfe <_ZN17compiler_builtins3mem6memcpy17h90d0c987d2ef5a79E+0xc6>
   1ce26:	a825                	j	1ce5e <_ZN17compiler_builtins3mem6memcpy17h90d0c987d2ef5a79E+0x126>
   1ce28:	00044783          	lbu	a5,0(s0)
   1ce2c:	00f28023          	sb	a5,0(t0)
   1ce30:	4805                	li	a6,1
   1ce32:	0023f793          	andi	a5,t2,2
   1ce36:	d7dd                	beqz	a5,1cde4 <_ZN17compiler_builtins3mem6memcpy17h90d0c987d2ef5a79E+0xac>
   1ce38:	010407b3          	add	a5,s0,a6
   1ce3c:	00079783          	lh	a5,0(a5)
   1ce40:	9816                	add	a6,a6,t0
   1ce42:	00f81023          	sh	a5,0(a6)
   1ce46:	4ea2                	lw	t4,8(sp)
   1ce48:	00361813          	slli	a6,a2,0x3
   1ce4c:	004f8793          	addi	a5,t6,4
   1ce50:	40c40f33          	sub	t5,s0,a2
   1ce54:	fad7e1e3          	bltu	a5,a3,1cdf6 <_ZN17compiler_builtins3mem6memcpy17h90d0c987d2ef5a79E+0xbe>
   1ce58:	82f6                	mv	t0,t4
   1ce5a:	83fa                	mv	t2,t5
   1ce5c:	837e                	mv	t1,t6
   1ce5e:	00010223          	sb	zero,4(sp)
   1ce62:	4785                	li	a5,1
   1ce64:	00010123          	sb	zero,2(sp)
   1ce68:	00f61763          	bne	a2,a5,1ce76 <_ZN17compiler_builtins3mem6memcpy17h90d0c987d2ef5a79E+0x13e>
   1ce6c:	4781                	li	a5,0
   1ce6e:	4e01                	li	t3,0
   1ce70:	4e81                	li	t4,0
   1ce72:	0050                	addi	a2,sp,4
   1ce74:	a819                	j	1ce8a <_ZN17compiler_builtins3mem6memcpy17h90d0c987d2ef5a79E+0x152>
   1ce76:	0043c783          	lbu	a5,4(t2)
   1ce7a:	0053ce03          	lbu	t3,5(t2)
   1ce7e:	4e89                	li	t4,2
   1ce80:	00f10223          	sb	a5,4(sp)
   1ce84:	0e22                	slli	t3,t3,0x8
   1ce86:	00210613          	addi	a2,sp,2
   1ce8a:	00147593          	andi	a1,s0,1
   1ce8e:	e199                	bnez	a1,1ce94 <_ZN17compiler_builtins3mem6memcpy17h90d0c987d2ef5a79E+0x15c>
   1ce90:	4601                	li	a2,0
   1ce92:	a821                	j	1ceaa <_ZN17compiler_builtins3mem6memcpy17h90d0c987d2ef5a79E+0x172>
   1ce94:	0391                	addi	t2,t2,4
   1ce96:	93f6                	add	t2,t2,t4
   1ce98:	0003c583          	lbu	a1,0(t2)
   1ce9c:	00b60023          	sb	a1,0(a2)
   1cea0:	00214603          	lbu	a2,2(sp)
   1cea4:	00414783          	lbu	a5,4(sp)
   1cea8:	0642                	slli	a2,a2,0x10
   1ceaa:	8e5d                	or	a2,a2,a5
   1ceac:	0102d5b3          	srl	a1,t0,a6
   1ceb0:	410007b3          	neg	a5,a6
   1ceb4:	00ce6633          	or	a2,t3,a2
   1ceb8:	8be1                	andi	a5,a5,24
   1ceba:	00f61633          	sll	a2,a2,a5
   1cebe:	8dd1                	or	a1,a1,a2
   1cec0:	00b32023          	sw	a1,0(t1)
   1cec4:	00e405b3          	add	a1,s0,a4
   1cec8:	0038f613          	andi	a2,a7,3
   1cecc:	00c68733          	add	a4,a3,a2
   1ced0:	ece6efe3          	bltu	a3,a4,1cdae <_ZN17compiler_builtins3mem6memcpy17h90d0c987d2ef5a79E+0x76>
   1ced4:	b5ed                	j	1cdbe <_ZN17compiler_builtins3mem6memcpy17h90d0c987d2ef5a79E+0x86>
