
target/thumbv6m-none-eabi/opt-2/examples/complex_dynamic_type:     file format elf32-littlearm

Sections:
Idx Name          Size      VMA       LMA       File off  Algn
  0 .ARM.exidx    00000010  000100d4  000100d4  000000d4  2**2
                  CONTENTS, ALLOC, LOAD, READONLY, DATA
  1 .text         0000b02a  000200e4  000200e4  000000e4  2**2
                  CONTENTS, ALLOC, LOAD, READONLY, CODE
  2 .comment      0000008b  00000000  00000000  0000b10e  2**0
                  CONTENTS, READONLY
  3 .ARM.attributes 00000032  00000000  00000000  0000b199  2**0
                  CONTENTS, READONLY

Disassembly of section .text:

000200e4 <_ZN20complex_dynamic_type3app17h017c8bba17939b3bE>:
   200e4:	b5f0      	push	{r4, r5, r6, r7, lr}
   200e6:	af03      	add	r7, sp, #12
   200e8:	b095      	sub	sp, #84	@ 0x54
   200ea:	9003      	str	r0, [sp, #12]
   200ec:	a804      	add	r0, sp, #16
   200ee:	2502      	movs	r5, #2
   200f0:	7005      	strb	r5, [r0, #0]
   200f2:	1c40      	adds	r0, r0, #1
   200f4:	9002      	str	r0, [sp, #8]
   200f6:	2625      	movs	r6, #37	@ 0x25
   200f8:	4632      	mov	r2, r6
   200fa:	f00b f803 	bl	2b104 <__aeabi_memcpy>
   200fe:	ac0e      	add	r4, sp, #56	@ 0x38
   20100:	1c60      	adds	r0, r4, #1
   20102:	2118      	movs	r1, #24
   20104:	9001      	str	r0, [sp, #4]
   20106:	f00a fe3d 	bl	2ad84 <__aeabi_memclr>
   2010a:	9500      	str	r5, [sp, #0]
   2010c:	7025      	strb	r5, [r4, #0]
   2010e:	20a7      	movs	r0, #167	@ 0xa7
   20110:	0104      	lsls	r4, r0, #4
   20112:	2109      	movs	r1, #9
   20114:	4620      	mov	r0, r4
   20116:	9a02      	ldr	r2, [sp, #8]
   20118:	4633      	mov	r3, r6
   2011a:	df04      	svc	4
   2011c:	2802      	cmp	r0, #2
   2011e:	d104      	bne.n	2012a <_ZN20complex_dynamic_type3app17h017c8bba17939b3bE+0x46>
   20120:	2001      	movs	r0, #1
   20122:	9a03      	ldr	r2, [sp, #12]
   20124:	7010      	strb	r0, [r2, #0]
   20126:	6051      	str	r1, [r2, #4]
   20128:	e02d      	b.n	20186 <_ZN20complex_dynamic_type3app17h017c8bba17939b3bE+0xa2>
   2012a:	9e03      	ldr	r6, [sp, #12]
   2012c:	a804      	add	r0, sp, #16
   2012e:	2104      	movs	r1, #4
   20130:	7001      	strb	r1, [r0, #0]
   20132:	2108      	movs	r1, #8
   20134:	2318      	movs	r3, #24
   20136:	4620      	mov	r0, r4
   20138:	9d01      	ldr	r5, [sp, #4]
   2013a:	462a      	mov	r2, r5
   2013c:	df03      	svc	3
   2013e:	2802      	cmp	r0, #2
   20140:	d10e      	bne.n	20160 <_ZN20complex_dynamic_type3app17h017c8bba17939b3bE+0x7c>
   20142:	2001      	movs	r0, #1
   20144:	7030      	strb	r0, [r6, #0]
   20146:	6071      	str	r1, [r6, #4]
   20148:	a80e      	add	r0, sp, #56	@ 0x38
   2014a:	7800      	ldrb	r0, [r0, #0]
   2014c:	2802      	cmp	r0, #2
   2014e:	d01a      	beq.n	20186 <_ZN20complex_dynamic_type3app17h017c8bba17939b3bE+0xa2>
   20150:	2803      	cmp	r0, #3
   20152:	d013      	beq.n	2017c <_ZN20complex_dynamic_type3app17h017c8bba17939b3bE+0x98>
   20154:	2108      	movs	r1, #8
   20156:	2200      	movs	r2, #0
   20158:	4620      	mov	r0, r4
   2015a:	4613      	mov	r3, r2
   2015c:	df04      	svc	4
   2015e:	e012      	b.n	20186 <_ZN20complex_dynamic_type3app17h017c8bba17939b3bE+0xa2>
   20160:	a80e      	add	r0, sp, #56	@ 0x38
   20162:	2103      	movs	r1, #3
   20164:	7001      	strb	r1, [r0, #0]
   20166:	2109      	movs	r1, #9
   20168:	2208      	movs	r2, #8
   2016a:	2300      	movs	r3, #0
   2016c:	4620      	mov	r0, r4
   2016e:	9302      	str	r3, [sp, #8]
   20170:	df02      	svc	2
   20172:	2880      	cmp	r0, #128	@ 0x80
   20174:	d219      	bcs.n	201aa <_ZN20complex_dynamic_type3app17h017c8bba17939b3bE+0xc6>
   20176:	2001      	movs	r0, #1
   20178:	7030      	strb	r0, [r6, #0]
   2017a:	6071      	str	r1, [r6, #4]
   2017c:	2108      	movs	r1, #8
   2017e:	2200      	movs	r2, #0
   20180:	4620      	mov	r0, r4
   20182:	4613      	mov	r3, r2
   20184:	df03      	svc	3
   20186:	a804      	add	r0, sp, #16
   20188:	7800      	ldrb	r0, [r0, #0]
   2018a:	2802      	cmp	r0, #2
   2018c:	d044      	beq.n	20218 <_ZN20complex_dynamic_type3app17h017c8bba17939b3bE+0x134>
   2018e:	2109      	movs	r1, #9
   20190:	2200      	movs	r2, #0
   20192:	2804      	cmp	r0, #4
   20194:	d104      	bne.n	201a0 <_ZN20complex_dynamic_type3app17h017c8bba17939b3bE+0xbc>
   20196:	4620      	mov	r0, r4
   20198:	4613      	mov	r3, r2
   2019a:	df04      	svc	4
   2019c:	b015      	add	sp, #84	@ 0x54
   2019e:	bdf0      	pop	{r4, r5, r6, r7, pc}
   201a0:	4620      	mov	r0, r4
   201a2:	4613      	mov	r3, r2
   201a4:	df03      	svc	3
   201a6:	b015      	add	sp, #84	@ 0x54
   201a8:	bdf0      	pop	{r4, r5, r6, r7, pc}
   201aa:	a804      	add	r0, sp, #16
   201ac:	7800      	ldrb	r0, [r0, #0]
   201ae:	2802      	cmp	r0, #2
   201b0:	d00a      	beq.n	201c8 <_ZN20complex_dynamic_type3app17h017c8bba17939b3bE+0xe4>
   201b2:	2109      	movs	r1, #9
   201b4:	2200      	movs	r2, #0
   201b6:	2803      	cmp	r0, #3
   201b8:	d103      	bne.n	201c2 <_ZN20complex_dynamic_type3app17h017c8bba17939b3bE+0xde>
   201ba:	4620      	mov	r0, r4
   201bc:	4613      	mov	r3, r2
   201be:	df03      	svc	3
   201c0:	e002      	b.n	201c8 <_ZN20complex_dynamic_type3app17h017c8bba17939b3bE+0xe4>
   201c2:	4620      	mov	r0, r4
   201c4:	4613      	mov	r3, r2
   201c6:	df04      	svc	4
   201c8:	a804      	add	r0, sp, #16
   201ca:	9900      	ldr	r1, [sp, #0]
   201cc:	7001      	strb	r1, [r0, #0]
   201ce:	a80e      	add	r0, sp, #56	@ 0x38
   201d0:	7800      	ldrb	r0, [r0, #0]
   201d2:	2804      	cmp	r0, #4
   201d4:	d008      	beq.n	201e8 <_ZN20complex_dynamic_type3app17h017c8bba17939b3bE+0x104>
   201d6:	2803      	cmp	r0, #3
   201d8:	d120      	bne.n	2021c <_ZN20complex_dynamic_type3app17h017c8bba17939b3bE+0x138>
   201da:	2108      	movs	r1, #8
   201dc:	2200      	movs	r2, #0
   201de:	9400      	str	r4, [sp, #0]
   201e0:	4620      	mov	r0, r4
   201e2:	4613      	mov	r3, r2
   201e4:	df03      	svc	3
   201e6:	e005      	b.n	201f4 <_ZN20complex_dynamic_type3app17h017c8bba17939b3bE+0x110>
   201e8:	2108      	movs	r1, #8
   201ea:	2200      	movs	r2, #0
   201ec:	9400      	str	r4, [sp, #0]
   201ee:	4620      	mov	r0, r4
   201f0:	4613      	mov	r3, r2
   201f2:	df04      	svc	4
   201f4:	a804      	add	r0, sp, #16
   201f6:	7804      	ldrb	r4, [r0, #0]
   201f8:	1c70      	adds	r0, r6, #1
   201fa:	2218      	movs	r2, #24
   201fc:	4629      	mov	r1, r5
   201fe:	f00a ff81 	bl	2b104 <__aeabi_memcpy>
   20202:	9802      	ldr	r0, [sp, #8]
   20204:	7030      	strb	r0, [r6, #0]
   20206:	2c02      	cmp	r4, #2
   20208:	d006      	beq.n	20218 <_ZN20complex_dynamic_type3app17h017c8bba17939b3bE+0x134>
   2020a:	2c04      	cmp	r4, #4
   2020c:	d10f      	bne.n	2022e <_ZN20complex_dynamic_type3app17h017c8bba17939b3bE+0x14a>
   2020e:	2109      	movs	r1, #9
   20210:	2200      	movs	r2, #0
   20212:	9800      	ldr	r0, [sp, #0]
   20214:	4613      	mov	r3, r2
   20216:	df04      	svc	4
   20218:	b015      	add	sp, #84	@ 0x54
   2021a:	bdf0      	pop	{r4, r5, r6, r7, pc}
   2021c:	1c70      	adds	r0, r6, #1
   2021e:	2218      	movs	r2, #24
   20220:	4629      	mov	r1, r5
   20222:	f00a ff6f 	bl	2b104 <__aeabi_memcpy>
   20226:	9802      	ldr	r0, [sp, #8]
   20228:	7030      	strb	r0, [r6, #0]
   2022a:	b015      	add	sp, #84	@ 0x54
   2022c:	bdf0      	pop	{r4, r5, r6, r7, pc}
   2022e:	9800      	ldr	r0, [sp, #0]
   20230:	2109      	movs	r1, #9
   20232:	2200      	movs	r2, #0
   20234:	4613      	mov	r3, r2
   20236:	df03      	svc	3
   20238:	b015      	add	sp, #84	@ 0x54
   2023a:	bdf0      	pop	{r4, r5, r6, r7, pc}

0002023c <_ZN20complex_dynamic_type3app17h01ca4c1c143de487E>:
   2023c:	b5f0      	push	{r4, r5, r6, r7, lr}
   2023e:	af03      	add	r7, sp, #12
   20240:	b0a3      	sub	sp, #140	@ 0x8c
   20242:	9004      	str	r0, [sp, #16]
   20244:	a805      	add	r0, sp, #20
   20246:	2402      	movs	r4, #2
   20248:	7004      	strb	r4, [r0, #0]
   2024a:	1c46      	adds	r6, r0, #1
   2024c:	2232      	movs	r2, #50	@ 0x32
   2024e:	9203      	str	r2, [sp, #12]
   20250:	4630      	mov	r0, r6
   20252:	f00a ff57 	bl	2b104 <__aeabi_memcpy>
   20256:	ad12      	add	r5, sp, #72	@ 0x48
   20258:	1c68      	adds	r0, r5, #1
   2025a:	2141      	movs	r1, #65	@ 0x41
   2025c:	9002      	str	r0, [sp, #8]
   2025e:	f00a fd91 	bl	2ad84 <__aeabi_memclr>
   20262:	9401      	str	r4, [sp, #4]
   20264:	702c      	strb	r4, [r5, #0]
   20266:	4848      	ldr	r0, [pc, #288]	@ (20388 <_ZN20complex_dynamic_type3app17h01ca4c1c143de487E+0x14c>)
   20268:	2107      	movs	r1, #7
   2026a:	4632      	mov	r2, r6
   2026c:	9b03      	ldr	r3, [sp, #12]
   2026e:	df04      	svc	4
   20270:	2802      	cmp	r0, #2
   20272:	d104      	bne.n	2027e <_ZN20complex_dynamic_type3app17h01ca4c1c143de487E+0x42>
   20274:	2001      	movs	r0, #1
   20276:	9a04      	ldr	r2, [sp, #16]
   20278:	7010      	strb	r0, [r2, #0]
   2027a:	6051      	str	r1, [r2, #4]
   2027c:	e02d      	b.n	202da <_ZN20complex_dynamic_type3app17h01ca4c1c143de487E+0x9e>
   2027e:	9d04      	ldr	r5, [sp, #16]
   20280:	a805      	add	r0, sp, #20
   20282:	2104      	movs	r1, #4
   20284:	7001      	strb	r1, [r0, #0]
   20286:	4840      	ldr	r0, [pc, #256]	@ (20388 <_ZN20complex_dynamic_type3app17h01ca4c1c143de487E+0x14c>)
   20288:	2105      	movs	r1, #5
   2028a:	2341      	movs	r3, #65	@ 0x41
   2028c:	9c02      	ldr	r4, [sp, #8]
   2028e:	4622      	mov	r2, r4
   20290:	df03      	svc	3
   20292:	2802      	cmp	r0, #2
   20294:	d10e      	bne.n	202b4 <_ZN20complex_dynamic_type3app17h01ca4c1c143de487E+0x78>
   20296:	2001      	movs	r0, #1
   20298:	7028      	strb	r0, [r5, #0]
   2029a:	6069      	str	r1, [r5, #4]
   2029c:	a812      	add	r0, sp, #72	@ 0x48
   2029e:	7800      	ldrb	r0, [r0, #0]
   202a0:	2802      	cmp	r0, #2
   202a2:	d01a      	beq.n	202da <_ZN20complex_dynamic_type3app17h01ca4c1c143de487E+0x9e>
   202a4:	2803      	cmp	r0, #3
   202a6:	d013      	beq.n	202d0 <_ZN20complex_dynamic_type3app17h01ca4c1c143de487E+0x94>
   202a8:	4837      	ldr	r0, [pc, #220]	@ (20388 <_ZN20complex_dynamic_type3app17h01ca4c1c143de487E+0x14c>)
   202aa:	2105      	movs	r1, #5
   202ac:	2200      	movs	r2, #0
   202ae:	4613      	mov	r3, r2
   202b0:	df04      	svc	4
   202b2:	e012      	b.n	202da <_ZN20complex_dynamic_type3app17h01ca4c1c143de487E+0x9e>
   202b4:	a812      	add	r0, sp, #72	@ 0x48
   202b6:	2103      	movs	r1, #3
   202b8:	7001      	strb	r1, [r0, #0]
   202ba:	4833      	ldr	r0, [pc, #204]	@ (20388 <_ZN20complex_dynamic_type3app17h01ca4c1c143de487E+0x14c>)
   202bc:	2107      	movs	r1, #7
   202be:	2205      	movs	r2, #5
   202c0:	2600      	movs	r6, #0
   202c2:	4633      	mov	r3, r6
   202c4:	df02      	svc	2
   202c6:	2880      	cmp	r0, #128	@ 0x80
   202c8:	d21b      	bcs.n	20302 <_ZN20complex_dynamic_type3app17h01ca4c1c143de487E+0xc6>
   202ca:	2001      	movs	r0, #1
   202cc:	7028      	strb	r0, [r5, #0]
   202ce:	6069      	str	r1, [r5, #4]
   202d0:	482d      	ldr	r0, [pc, #180]	@ (20388 <_ZN20complex_dynamic_type3app17h01ca4c1c143de487E+0x14c>)
   202d2:	2105      	movs	r1, #5
   202d4:	2200      	movs	r2, #0
   202d6:	4613      	mov	r3, r2
   202d8:	df03      	svc	3
   202da:	a805      	add	r0, sp, #20
   202dc:	7800      	ldrb	r0, [r0, #0]
   202de:	2802      	cmp	r0, #2
   202e0:	d045      	beq.n	2036e <_ZN20complex_dynamic_type3app17h01ca4c1c143de487E+0x132>
   202e2:	2804      	cmp	r0, #4
   202e4:	d106      	bne.n	202f4 <_ZN20complex_dynamic_type3app17h01ca4c1c143de487E+0xb8>
   202e6:	4828      	ldr	r0, [pc, #160]	@ (20388 <_ZN20complex_dynamic_type3app17h01ca4c1c143de487E+0x14c>)
   202e8:	2107      	movs	r1, #7
   202ea:	2200      	movs	r2, #0
   202ec:	4613      	mov	r3, r2
   202ee:	df04      	svc	4
   202f0:	b023      	add	sp, #140	@ 0x8c
   202f2:	bdf0      	pop	{r4, r5, r6, r7, pc}
   202f4:	4824      	ldr	r0, [pc, #144]	@ (20388 <_ZN20complex_dynamic_type3app17h01ca4c1c143de487E+0x14c>)
   202f6:	2107      	movs	r1, #7
   202f8:	2200      	movs	r2, #0
   202fa:	4613      	mov	r3, r2
   202fc:	df03      	svc	3
   202fe:	b023      	add	sp, #140	@ 0x8c
   20300:	bdf0      	pop	{r4, r5, r6, r7, pc}
   20302:	a805      	add	r0, sp, #20
   20304:	7800      	ldrb	r0, [r0, #0]
   20306:	2802      	cmp	r0, #2
   20308:	d00c      	beq.n	20324 <_ZN20complex_dynamic_type3app17h01ca4c1c143de487E+0xe8>
   2030a:	2803      	cmp	r0, #3
   2030c:	d105      	bne.n	2031a <_ZN20complex_dynamic_type3app17h01ca4c1c143de487E+0xde>
   2030e:	481e      	ldr	r0, [pc, #120]	@ (20388 <_ZN20complex_dynamic_type3app17h01ca4c1c143de487E+0x14c>)
   20310:	2107      	movs	r1, #7
   20312:	2200      	movs	r2, #0
   20314:	4613      	mov	r3, r2
   20316:	df03      	svc	3
   20318:	e004      	b.n	20324 <_ZN20complex_dynamic_type3app17h01ca4c1c143de487E+0xe8>
   2031a:	481b      	ldr	r0, [pc, #108]	@ (20388 <_ZN20complex_dynamic_type3app17h01ca4c1c143de487E+0x14c>)
   2031c:	2107      	movs	r1, #7
   2031e:	2200      	movs	r2, #0
   20320:	4613      	mov	r3, r2
   20322:	df04      	svc	4
   20324:	a805      	add	r0, sp, #20
   20326:	9901      	ldr	r1, [sp, #4]
   20328:	7001      	strb	r1, [r0, #0]
   2032a:	a812      	add	r0, sp, #72	@ 0x48
   2032c:	7800      	ldrb	r0, [r0, #0]
   2032e:	2804      	cmp	r0, #4
   20330:	d007      	beq.n	20342 <_ZN20complex_dynamic_type3app17h01ca4c1c143de487E+0x106>
   20332:	2803      	cmp	r0, #3
   20334:	d11d      	bne.n	20372 <_ZN20complex_dynamic_type3app17h01ca4c1c143de487E+0x136>
   20336:	4814      	ldr	r0, [pc, #80]	@ (20388 <_ZN20complex_dynamic_type3app17h01ca4c1c143de487E+0x14c>)
   20338:	2105      	movs	r1, #5
   2033a:	2200      	movs	r2, #0
   2033c:	4613      	mov	r3, r2
   2033e:	df03      	svc	3
   20340:	e004      	b.n	2034c <_ZN20complex_dynamic_type3app17h01ca4c1c143de487E+0x110>
   20342:	4811      	ldr	r0, [pc, #68]	@ (20388 <_ZN20complex_dynamic_type3app17h01ca4c1c143de487E+0x14c>)
   20344:	2105      	movs	r1, #5
   20346:	2200      	movs	r2, #0
   20348:	4613      	mov	r3, r2
   2034a:	df04      	svc	4
   2034c:	a805      	add	r0, sp, #20
   2034e:	7804      	ldrb	r4, [r0, #0]
   20350:	1c68      	adds	r0, r5, #1
   20352:	2241      	movs	r2, #65	@ 0x41
   20354:	9902      	ldr	r1, [sp, #8]
   20356:	f00a fed5 	bl	2b104 <__aeabi_memcpy>
   2035a:	702e      	strb	r6, [r5, #0]
   2035c:	2c02      	cmp	r4, #2
   2035e:	d006      	beq.n	2036e <_ZN20complex_dynamic_type3app17h01ca4c1c143de487E+0x132>
   20360:	4809      	ldr	r0, [pc, #36]	@ (20388 <_ZN20complex_dynamic_type3app17h01ca4c1c143de487E+0x14c>)
   20362:	2107      	movs	r1, #7
   20364:	2200      	movs	r2, #0
   20366:	4613      	mov	r3, r2
   20368:	2c04      	cmp	r4, #4
   2036a:	d10a      	bne.n	20382 <_ZN20complex_dynamic_type3app17h01ca4c1c143de487E+0x146>
   2036c:	df04      	svc	4
   2036e:	b023      	add	sp, #140	@ 0x8c
   20370:	bdf0      	pop	{r4, r5, r6, r7, pc}
   20372:	1c68      	adds	r0, r5, #1
   20374:	2241      	movs	r2, #65	@ 0x41
   20376:	4621      	mov	r1, r4
   20378:	f00a fec4 	bl	2b104 <__aeabi_memcpy>
   2037c:	702e      	strb	r6, [r5, #0]
   2037e:	b023      	add	sp, #140	@ 0x8c
   20380:	bdf0      	pop	{r4, r5, r6, r7, pc}
   20382:	df03      	svc	3
   20384:	b023      	add	sp, #140	@ 0x8c
   20386:	bdf0      	pop	{r4, r5, r6, r7, pc}
   20388:	0000091d 	.word	0x0000091d

0002038c <_ZN20complex_dynamic_type3app17h03d60e5dd578708bE>:
   2038c:	b5f0      	push	{r4, r5, r6, r7, lr}
   2038e:	af03      	add	r7, sp, #12
   20390:	b09d      	sub	sp, #116	@ 0x74
   20392:	9003      	str	r0, [sp, #12]
   20394:	a804      	add	r0, sp, #16
   20396:	2602      	movs	r6, #2
   20398:	7006      	strb	r6, [r0, #0]
   2039a:	1c40      	adds	r0, r0, #1
   2039c:	9002      	str	r0, [sp, #8]
   2039e:	2538      	movs	r5, #56	@ 0x38
   203a0:	462a      	mov	r2, r5
   203a2:	f00a feaf 	bl	2b104 <__aeabi_memcpy>
   203a6:	ac13      	add	r4, sp, #76	@ 0x4c
   203a8:	1c60      	adds	r0, r4, #1
   203aa:	2127      	movs	r1, #39	@ 0x27
   203ac:	9001      	str	r0, [sp, #4]
   203ae:	f00a fce9 	bl	2ad84 <__aeabi_memclr>
   203b2:	7026      	strb	r6, [r4, #0]
   203b4:	484a      	ldr	r0, [pc, #296]	@ (204e0 <_ZN20complex_dynamic_type3app17h03d60e5dd578708bE+0x154>)
   203b6:	4631      	mov	r1, r6
   203b8:	9a02      	ldr	r2, [sp, #8]
   203ba:	462b      	mov	r3, r5
   203bc:	df04      	svc	4
   203be:	2802      	cmp	r0, #2
   203c0:	d104      	bne.n	203cc <_ZN20complex_dynamic_type3app17h03d60e5dd578708bE+0x40>
   203c2:	2001      	movs	r0, #1
   203c4:	9a03      	ldr	r2, [sp, #12]
   203c6:	7010      	strb	r0, [r2, #0]
   203c8:	6051      	str	r1, [r2, #4]
   203ca:	e02e      	b.n	2042a <_ZN20complex_dynamic_type3app17h03d60e5dd578708bE+0x9e>
   203cc:	9d03      	ldr	r5, [sp, #12]
   203ce:	a804      	add	r0, sp, #16
   203d0:	2104      	movs	r1, #4
   203d2:	7001      	strb	r1, [r0, #0]
   203d4:	4842      	ldr	r0, [pc, #264]	@ (204e0 <_ZN20complex_dynamic_type3app17h03d60e5dd578708bE+0x154>)
   203d6:	2108      	movs	r1, #8
   203d8:	2327      	movs	r3, #39	@ 0x27
   203da:	9c01      	ldr	r4, [sp, #4]
   203dc:	4622      	mov	r2, r4
   203de:	df03      	svc	3
   203e0:	2802      	cmp	r0, #2
   203e2:	d10e      	bne.n	20402 <_ZN20complex_dynamic_type3app17h03d60e5dd578708bE+0x76>
   203e4:	2001      	movs	r0, #1
   203e6:	7028      	strb	r0, [r5, #0]
   203e8:	6069      	str	r1, [r5, #4]
   203ea:	a813      	add	r0, sp, #76	@ 0x4c
   203ec:	7800      	ldrb	r0, [r0, #0]
   203ee:	2802      	cmp	r0, #2
   203f0:	d01b      	beq.n	2042a <_ZN20complex_dynamic_type3app17h03d60e5dd578708bE+0x9e>
   203f2:	2803      	cmp	r0, #3
   203f4:	d014      	beq.n	20420 <_ZN20complex_dynamic_type3app17h03d60e5dd578708bE+0x94>
   203f6:	483a      	ldr	r0, [pc, #232]	@ (204e0 <_ZN20complex_dynamic_type3app17h03d60e5dd578708bE+0x154>)
   203f8:	2108      	movs	r1, #8
   203fa:	2200      	movs	r2, #0
   203fc:	4613      	mov	r3, r2
   203fe:	df04      	svc	4
   20400:	e013      	b.n	2042a <_ZN20complex_dynamic_type3app17h03d60e5dd578708bE+0x9e>
   20402:	a813      	add	r0, sp, #76	@ 0x4c
   20404:	2103      	movs	r1, #3
   20406:	7001      	strb	r1, [r0, #0]
   20408:	4835      	ldr	r0, [pc, #212]	@ (204e0 <_ZN20complex_dynamic_type3app17h03d60e5dd578708bE+0x154>)
   2040a:	2602      	movs	r6, #2
   2040c:	2208      	movs	r2, #8
   2040e:	2300      	movs	r3, #0
   20410:	4631      	mov	r1, r6
   20412:	9302      	str	r3, [sp, #8]
   20414:	df02      	svc	2
   20416:	2880      	cmp	r0, #128	@ 0x80
   20418:	d21b      	bcs.n	20452 <_ZN20complex_dynamic_type3app17h03d60e5dd578708bE+0xc6>
   2041a:	2001      	movs	r0, #1
   2041c:	7028      	strb	r0, [r5, #0]
   2041e:	6069      	str	r1, [r5, #4]
   20420:	482f      	ldr	r0, [pc, #188]	@ (204e0 <_ZN20complex_dynamic_type3app17h03d60e5dd578708bE+0x154>)
   20422:	2108      	movs	r1, #8
   20424:	2200      	movs	r2, #0
   20426:	4613      	mov	r3, r2
   20428:	df03      	svc	3
   2042a:	a804      	add	r0, sp, #16
   2042c:	7800      	ldrb	r0, [r0, #0]
   2042e:	2802      	cmp	r0, #2
   20430:	d047      	beq.n	204c2 <_ZN20complex_dynamic_type3app17h03d60e5dd578708bE+0x136>
   20432:	2804      	cmp	r0, #4
   20434:	d106      	bne.n	20444 <_ZN20complex_dynamic_type3app17h03d60e5dd578708bE+0xb8>
   20436:	482a      	ldr	r0, [pc, #168]	@ (204e0 <_ZN20complex_dynamic_type3app17h03d60e5dd578708bE+0x154>)
   20438:	2102      	movs	r1, #2
   2043a:	2200      	movs	r2, #0
   2043c:	4613      	mov	r3, r2
   2043e:	df04      	svc	4
   20440:	b01d      	add	sp, #116	@ 0x74
   20442:	bdf0      	pop	{r4, r5, r6, r7, pc}
   20444:	4826      	ldr	r0, [pc, #152]	@ (204e0 <_ZN20complex_dynamic_type3app17h03d60e5dd578708bE+0x154>)
   20446:	2102      	movs	r1, #2
   20448:	2200      	movs	r2, #0
   2044a:	4613      	mov	r3, r2
   2044c:	df03      	svc	3
   2044e:	b01d      	add	sp, #116	@ 0x74
   20450:	bdf0      	pop	{r4, r5, r6, r7, pc}
   20452:	a804      	add	r0, sp, #16
   20454:	7800      	ldrb	r0, [r0, #0]
   20456:	2802      	cmp	r0, #2
   20458:	d00c      	beq.n	20474 <_ZN20complex_dynamic_type3app17h03d60e5dd578708bE+0xe8>
   2045a:	2803      	cmp	r0, #3
   2045c:	d105      	bne.n	2046a <_ZN20complex_dynamic_type3app17h03d60e5dd578708bE+0xde>
   2045e:	4820      	ldr	r0, [pc, #128]	@ (204e0 <_ZN20complex_dynamic_type3app17h03d60e5dd578708bE+0x154>)
   20460:	2102      	movs	r1, #2
   20462:	2200      	movs	r2, #0
   20464:	4613      	mov	r3, r2
   20466:	df03      	svc	3
   20468:	e004      	b.n	20474 <_ZN20complex_dynamic_type3app17h03d60e5dd578708bE+0xe8>
   2046a:	481d      	ldr	r0, [pc, #116]	@ (204e0 <_ZN20complex_dynamic_type3app17h03d60e5dd578708bE+0x154>)
   2046c:	2102      	movs	r1, #2
   2046e:	2200      	movs	r2, #0
   20470:	4613      	mov	r3, r2
   20472:	df04      	svc	4
   20474:	a804      	add	r0, sp, #16
   20476:	7006      	strb	r6, [r0, #0]
   20478:	a813      	add	r0, sp, #76	@ 0x4c
   2047a:	7800      	ldrb	r0, [r0, #0]
   2047c:	2804      	cmp	r0, #4
   2047e:	d008      	beq.n	20492 <_ZN20complex_dynamic_type3app17h03d60e5dd578708bE+0x106>
   20480:	2803      	cmp	r0, #3
   20482:	d120      	bne.n	204c6 <_ZN20complex_dynamic_type3app17h03d60e5dd578708bE+0x13a>
   20484:	4626      	mov	r6, r4
   20486:	4816      	ldr	r0, [pc, #88]	@ (204e0 <_ZN20complex_dynamic_type3app17h03d60e5dd578708bE+0x154>)
   20488:	2108      	movs	r1, #8
   2048a:	2200      	movs	r2, #0
   2048c:	4613      	mov	r3, r2
   2048e:	df03      	svc	3
   20490:	e005      	b.n	2049e <_ZN20complex_dynamic_type3app17h03d60e5dd578708bE+0x112>
   20492:	4626      	mov	r6, r4
   20494:	4812      	ldr	r0, [pc, #72]	@ (204e0 <_ZN20complex_dynamic_type3app17h03d60e5dd578708bE+0x154>)
   20496:	2108      	movs	r1, #8
   20498:	2200      	movs	r2, #0
   2049a:	4613      	mov	r3, r2
   2049c:	df04      	svc	4
   2049e:	a804      	add	r0, sp, #16
   204a0:	7804      	ldrb	r4, [r0, #0]
   204a2:	1c68      	adds	r0, r5, #1
   204a4:	2227      	movs	r2, #39	@ 0x27
   204a6:	4631      	mov	r1, r6
   204a8:	f00a fe2c 	bl	2b104 <__aeabi_memcpy>
   204ac:	9802      	ldr	r0, [sp, #8]
   204ae:	7028      	strb	r0, [r5, #0]
   204b0:	2c02      	cmp	r4, #2
   204b2:	d006      	beq.n	204c2 <_ZN20complex_dynamic_type3app17h03d60e5dd578708bE+0x136>
   204b4:	480a      	ldr	r0, [pc, #40]	@ (204e0 <_ZN20complex_dynamic_type3app17h03d60e5dd578708bE+0x154>)
   204b6:	2102      	movs	r1, #2
   204b8:	2200      	movs	r2, #0
   204ba:	4613      	mov	r3, r2
   204bc:	2c04      	cmp	r4, #4
   204be:	d10b      	bne.n	204d8 <_ZN20complex_dynamic_type3app17h03d60e5dd578708bE+0x14c>
   204c0:	df04      	svc	4
   204c2:	b01d      	add	sp, #116	@ 0x74
   204c4:	bdf0      	pop	{r4, r5, r6, r7, pc}
   204c6:	1c68      	adds	r0, r5, #1
   204c8:	2227      	movs	r2, #39	@ 0x27
   204ca:	4621      	mov	r1, r4
   204cc:	f00a fe1a 	bl	2b104 <__aeabi_memcpy>
   204d0:	9802      	ldr	r0, [sp, #8]
   204d2:	7028      	strb	r0, [r5, #0]
   204d4:	b01d      	add	sp, #116	@ 0x74
   204d6:	bdf0      	pop	{r4, r5, r6, r7, pc}
   204d8:	df03      	svc	3
   204da:	b01d      	add	sp, #116	@ 0x74
   204dc:	bdf0      	pop	{r4, r5, r6, r7, pc}
   204de:	46c0      	nop			@ (mov r8, r8)
   204e0:	00000e2b 	.word	0x00000e2b

000204e4 <_ZN20complex_dynamic_type3app17h03e946a06716a8dcE>:
   204e4:	b5f0      	push	{r4, r5, r6, r7, lr}
   204e6:	af03      	add	r7, sp, #12
   204e8:	b093      	sub	sp, #76	@ 0x4c
   204ea:	9004      	str	r0, [sp, #16]
   204ec:	a805      	add	r0, sp, #20
   204ee:	2402      	movs	r4, #2
   204f0:	7004      	strb	r4, [r0, #0]
   204f2:	1c46      	adds	r6, r0, #1
   204f4:	220f      	movs	r2, #15
   204f6:	9203      	str	r2, [sp, #12]
   204f8:	4630      	mov	r0, r6
   204fa:	f00a fe03 	bl	2b104 <__aeabi_memcpy>
   204fe:	ad09      	add	r5, sp, #36	@ 0x24
   20500:	1c68      	adds	r0, r5, #1
   20502:	2125      	movs	r1, #37	@ 0x25
   20504:	9002      	str	r0, [sp, #8]
   20506:	f00a fc3d 	bl	2ad84 <__aeabi_memclr>
   2050a:	9401      	str	r4, [sp, #4]
   2050c:	702c      	strb	r4, [r5, #0]
   2050e:	20a2      	movs	r0, #162	@ 0xa2
   20510:	2108      	movs	r1, #8
   20512:	4632      	mov	r2, r6
   20514:	9b03      	ldr	r3, [sp, #12]
   20516:	df04      	svc	4
   20518:	2802      	cmp	r0, #2
   2051a:	d104      	bne.n	20526 <_ZN20complex_dynamic_type3app17h03e946a06716a8dcE+0x42>
   2051c:	2001      	movs	r0, #1
   2051e:	9a04      	ldr	r2, [sp, #16]
   20520:	7010      	strb	r0, [r2, #0]
   20522:	6051      	str	r1, [r2, #4]
   20524:	e02d      	b.n	20582 <_ZN20complex_dynamic_type3app17h03e946a06716a8dcE+0x9e>
   20526:	9d04      	ldr	r5, [sp, #16]
   20528:	a805      	add	r0, sp, #20
   2052a:	2104      	movs	r1, #4
   2052c:	7001      	strb	r1, [r0, #0]
   2052e:	20a2      	movs	r0, #162	@ 0xa2
   20530:	2100      	movs	r1, #0
   20532:	2325      	movs	r3, #37	@ 0x25
   20534:	9c02      	ldr	r4, [sp, #8]
   20536:	4622      	mov	r2, r4
   20538:	df03      	svc	3
   2053a:	2802      	cmp	r0, #2
   2053c:	d10e      	bne.n	2055c <_ZN20complex_dynamic_type3app17h03e946a06716a8dcE+0x78>
   2053e:	2001      	movs	r0, #1
   20540:	7028      	strb	r0, [r5, #0]
   20542:	6069      	str	r1, [r5, #4]
   20544:	a809      	add	r0, sp, #36	@ 0x24
   20546:	7800      	ldrb	r0, [r0, #0]
   20548:	2802      	cmp	r0, #2
   2054a:	d01a      	beq.n	20582 <_ZN20complex_dynamic_type3app17h03e946a06716a8dcE+0x9e>
   2054c:	2803      	cmp	r0, #3
   2054e:	d013      	beq.n	20578 <_ZN20complex_dynamic_type3app17h03e946a06716a8dcE+0x94>
   20550:	20a2      	movs	r0, #162	@ 0xa2
   20552:	2100      	movs	r1, #0
   20554:	460a      	mov	r2, r1
   20556:	460b      	mov	r3, r1
   20558:	df04      	svc	4
   2055a:	e012      	b.n	20582 <_ZN20complex_dynamic_type3app17h03e946a06716a8dcE+0x9e>
   2055c:	a809      	add	r0, sp, #36	@ 0x24
   2055e:	2103      	movs	r1, #3
   20560:	7001      	strb	r1, [r0, #0]
   20562:	20a2      	movs	r0, #162	@ 0xa2
   20564:	2108      	movs	r1, #8
   20566:	2600      	movs	r6, #0
   20568:	4632      	mov	r2, r6
   2056a:	4633      	mov	r3, r6
   2056c:	df02      	svc	2
   2056e:	2880      	cmp	r0, #128	@ 0x80
   20570:	d21b      	bcs.n	205aa <_ZN20complex_dynamic_type3app17h03e946a06716a8dcE+0xc6>
   20572:	2001      	movs	r0, #1
   20574:	7028      	strb	r0, [r5, #0]
   20576:	6069      	str	r1, [r5, #4]
   20578:	20a2      	movs	r0, #162	@ 0xa2
   2057a:	2100      	movs	r1, #0
   2057c:	460a      	mov	r2, r1
   2057e:	460b      	mov	r3, r1
   20580:	df03      	svc	3
   20582:	a805      	add	r0, sp, #20
   20584:	7800      	ldrb	r0, [r0, #0]
   20586:	2802      	cmp	r0, #2
   20588:	d045      	beq.n	20616 <_ZN20complex_dynamic_type3app17h03e946a06716a8dcE+0x132>
   2058a:	2804      	cmp	r0, #4
   2058c:	d106      	bne.n	2059c <_ZN20complex_dynamic_type3app17h03e946a06716a8dcE+0xb8>
   2058e:	20a2      	movs	r0, #162	@ 0xa2
   20590:	2108      	movs	r1, #8
   20592:	2200      	movs	r2, #0
   20594:	4613      	mov	r3, r2
   20596:	df04      	svc	4
   20598:	b013      	add	sp, #76	@ 0x4c
   2059a:	bdf0      	pop	{r4, r5, r6, r7, pc}
   2059c:	20a2      	movs	r0, #162	@ 0xa2
   2059e:	2108      	movs	r1, #8
   205a0:	2200      	movs	r2, #0
   205a2:	4613      	mov	r3, r2
   205a4:	df03      	svc	3
   205a6:	b013      	add	sp, #76	@ 0x4c
   205a8:	bdf0      	pop	{r4, r5, r6, r7, pc}
   205aa:	a805      	add	r0, sp, #20
   205ac:	7800      	ldrb	r0, [r0, #0]
   205ae:	2802      	cmp	r0, #2
   205b0:	d00c      	beq.n	205cc <_ZN20complex_dynamic_type3app17h03e946a06716a8dcE+0xe8>
   205b2:	2803      	cmp	r0, #3
   205b4:	d105      	bne.n	205c2 <_ZN20complex_dynamic_type3app17h03e946a06716a8dcE+0xde>
   205b6:	20a2      	movs	r0, #162	@ 0xa2
   205b8:	2108      	movs	r1, #8
   205ba:	2200      	movs	r2, #0
   205bc:	4613      	mov	r3, r2
   205be:	df03      	svc	3
   205c0:	e004      	b.n	205cc <_ZN20complex_dynamic_type3app17h03e946a06716a8dcE+0xe8>
   205c2:	20a2      	movs	r0, #162	@ 0xa2
   205c4:	2108      	movs	r1, #8
   205c6:	2200      	movs	r2, #0
   205c8:	4613      	mov	r3, r2
   205ca:	df04      	svc	4
   205cc:	a805      	add	r0, sp, #20
   205ce:	9901      	ldr	r1, [sp, #4]
   205d0:	7001      	strb	r1, [r0, #0]
   205d2:	a809      	add	r0, sp, #36	@ 0x24
   205d4:	7800      	ldrb	r0, [r0, #0]
   205d6:	2804      	cmp	r0, #4
   205d8:	d007      	beq.n	205ea <_ZN20complex_dynamic_type3app17h03e946a06716a8dcE+0x106>
   205da:	2803      	cmp	r0, #3
   205dc:	d11d      	bne.n	2061a <_ZN20complex_dynamic_type3app17h03e946a06716a8dcE+0x136>
   205de:	20a2      	movs	r0, #162	@ 0xa2
   205e0:	2100      	movs	r1, #0
   205e2:	460a      	mov	r2, r1
   205e4:	460b      	mov	r3, r1
   205e6:	df03      	svc	3
   205e8:	e004      	b.n	205f4 <_ZN20complex_dynamic_type3app17h03e946a06716a8dcE+0x110>
   205ea:	20a2      	movs	r0, #162	@ 0xa2
   205ec:	2100      	movs	r1, #0
   205ee:	460a      	mov	r2, r1
   205f0:	460b      	mov	r3, r1
   205f2:	df04      	svc	4
   205f4:	a805      	add	r0, sp, #20
   205f6:	7804      	ldrb	r4, [r0, #0]
   205f8:	1c68      	adds	r0, r5, #1
   205fa:	2225      	movs	r2, #37	@ 0x25
   205fc:	9902      	ldr	r1, [sp, #8]
   205fe:	f00a fd81 	bl	2b104 <__aeabi_memcpy>
   20602:	702e      	strb	r6, [r5, #0]
   20604:	2c02      	cmp	r4, #2
   20606:	d006      	beq.n	20616 <_ZN20complex_dynamic_type3app17h03e946a06716a8dcE+0x132>
   20608:	20a2      	movs	r0, #162	@ 0xa2
   2060a:	2108      	movs	r1, #8
   2060c:	2200      	movs	r2, #0
   2060e:	4613      	mov	r3, r2
   20610:	2c04      	cmp	r4, #4
   20612:	d10a      	bne.n	2062a <_ZN20complex_dynamic_type3app17h03e946a06716a8dcE+0x146>
   20614:	df04      	svc	4
   20616:	b013      	add	sp, #76	@ 0x4c
   20618:	bdf0      	pop	{r4, r5, r6, r7, pc}
   2061a:	1c68      	adds	r0, r5, #1
   2061c:	2225      	movs	r2, #37	@ 0x25
   2061e:	4621      	mov	r1, r4
   20620:	f00a fd70 	bl	2b104 <__aeabi_memcpy>
   20624:	702e      	strb	r6, [r5, #0]
   20626:	b013      	add	sp, #76	@ 0x4c
   20628:	bdf0      	pop	{r4, r5, r6, r7, pc}
   2062a:	df03      	svc	3
   2062c:	b013      	add	sp, #76	@ 0x4c
   2062e:	bdf0      	pop	{r4, r5, r6, r7, pc}

00020630 <_ZN20complex_dynamic_type3app17h05155be0111142b5E>:
   20630:	b5f0      	push	{r4, r5, r6, r7, lr}
   20632:	af03      	add	r7, sp, #12
   20634:	b0ab      	sub	sp, #172	@ 0xac
   20636:	9003      	str	r0, [sp, #12]
   20638:	a804      	add	r0, sp, #16
   2063a:	2402      	movs	r4, #2
   2063c:	7004      	strb	r4, [r0, #0]
   2063e:	1c46      	adds	r6, r0, #1
   20640:	223a      	movs	r2, #58	@ 0x3a
   20642:	9202      	str	r2, [sp, #8]
   20644:	4630      	mov	r0, r6
   20646:	f00a fd5d 	bl	2b104 <__aeabi_memcpy>
   2064a:	ad13      	add	r5, sp, #76	@ 0x4c
   2064c:	1c68      	adds	r0, r5, #1
   2064e:	215d      	movs	r1, #93	@ 0x5d
   20650:	9001      	str	r0, [sp, #4]
   20652:	f00a fb97 	bl	2ad84 <__aeabi_memclr>
   20656:	9400      	str	r4, [sp, #0]
   20658:	702c      	strb	r4, [r5, #0]
   2065a:	4848      	ldr	r0, [pc, #288]	@ (2077c <_ZN20complex_dynamic_type3app17h05155be0111142b5E+0x14c>)
   2065c:	2100      	movs	r1, #0
   2065e:	4632      	mov	r2, r6
   20660:	9b02      	ldr	r3, [sp, #8]
   20662:	df04      	svc	4
   20664:	2802      	cmp	r0, #2
   20666:	d104      	bne.n	20672 <_ZN20complex_dynamic_type3app17h05155be0111142b5E+0x42>
   20668:	2001      	movs	r0, #1
   2066a:	9a03      	ldr	r2, [sp, #12]
   2066c:	7010      	strb	r0, [r2, #0]
   2066e:	6051      	str	r1, [r2, #4]
   20670:	e02d      	b.n	206ce <_ZN20complex_dynamic_type3app17h05155be0111142b5E+0x9e>
   20672:	9d03      	ldr	r5, [sp, #12]
   20674:	a804      	add	r0, sp, #16
   20676:	2104      	movs	r1, #4
   20678:	7001      	strb	r1, [r0, #0]
   2067a:	4840      	ldr	r0, [pc, #256]	@ (2077c <_ZN20complex_dynamic_type3app17h05155be0111142b5E+0x14c>)
   2067c:	2105      	movs	r1, #5
   2067e:	235d      	movs	r3, #93	@ 0x5d
   20680:	9c01      	ldr	r4, [sp, #4]
   20682:	4622      	mov	r2, r4
   20684:	df03      	svc	3
   20686:	2802      	cmp	r0, #2
   20688:	d10e      	bne.n	206a8 <_ZN20complex_dynamic_type3app17h05155be0111142b5E+0x78>
   2068a:	2001      	movs	r0, #1
   2068c:	7028      	strb	r0, [r5, #0]
   2068e:	6069      	str	r1, [r5, #4]
   20690:	a813      	add	r0, sp, #76	@ 0x4c
   20692:	7800      	ldrb	r0, [r0, #0]
   20694:	2802      	cmp	r0, #2
   20696:	d01a      	beq.n	206ce <_ZN20complex_dynamic_type3app17h05155be0111142b5E+0x9e>
   20698:	2803      	cmp	r0, #3
   2069a:	d013      	beq.n	206c4 <_ZN20complex_dynamic_type3app17h05155be0111142b5E+0x94>
   2069c:	4837      	ldr	r0, [pc, #220]	@ (2077c <_ZN20complex_dynamic_type3app17h05155be0111142b5E+0x14c>)
   2069e:	2105      	movs	r1, #5
   206a0:	2200      	movs	r2, #0
   206a2:	4613      	mov	r3, r2
   206a4:	df04      	svc	4
   206a6:	e012      	b.n	206ce <_ZN20complex_dynamic_type3app17h05155be0111142b5E+0x9e>
   206a8:	a813      	add	r0, sp, #76	@ 0x4c
   206aa:	2103      	movs	r1, #3
   206ac:	7001      	strb	r1, [r0, #0]
   206ae:	4833      	ldr	r0, [pc, #204]	@ (2077c <_ZN20complex_dynamic_type3app17h05155be0111142b5E+0x14c>)
   206b0:	2205      	movs	r2, #5
   206b2:	2600      	movs	r6, #0
   206b4:	4631      	mov	r1, r6
   206b6:	4633      	mov	r3, r6
   206b8:	df02      	svc	2
   206ba:	2880      	cmp	r0, #128	@ 0x80
   206bc:	d21b      	bcs.n	206f6 <_ZN20complex_dynamic_type3app17h05155be0111142b5E+0xc6>
   206be:	2001      	movs	r0, #1
   206c0:	7028      	strb	r0, [r5, #0]
   206c2:	6069      	str	r1, [r5, #4]
   206c4:	482d      	ldr	r0, [pc, #180]	@ (2077c <_ZN20complex_dynamic_type3app17h05155be0111142b5E+0x14c>)
   206c6:	2105      	movs	r1, #5
   206c8:	2200      	movs	r2, #0
   206ca:	4613      	mov	r3, r2
   206cc:	df03      	svc	3
   206ce:	a804      	add	r0, sp, #16
   206d0:	7800      	ldrb	r0, [r0, #0]
   206d2:	2802      	cmp	r0, #2
   206d4:	d045      	beq.n	20762 <_ZN20complex_dynamic_type3app17h05155be0111142b5E+0x132>
   206d6:	2804      	cmp	r0, #4
   206d8:	d106      	bne.n	206e8 <_ZN20complex_dynamic_type3app17h05155be0111142b5E+0xb8>
   206da:	4828      	ldr	r0, [pc, #160]	@ (2077c <_ZN20complex_dynamic_type3app17h05155be0111142b5E+0x14c>)
   206dc:	2100      	movs	r1, #0
   206de:	460a      	mov	r2, r1
   206e0:	460b      	mov	r3, r1
   206e2:	df04      	svc	4
   206e4:	b02b      	add	sp, #172	@ 0xac
   206e6:	bdf0      	pop	{r4, r5, r6, r7, pc}
   206e8:	4824      	ldr	r0, [pc, #144]	@ (2077c <_ZN20complex_dynamic_type3app17h05155be0111142b5E+0x14c>)
   206ea:	2100      	movs	r1, #0
   206ec:	460a      	mov	r2, r1
   206ee:	460b      	mov	r3, r1
   206f0:	df03      	svc	3
   206f2:	b02b      	add	sp, #172	@ 0xac
   206f4:	bdf0      	pop	{r4, r5, r6, r7, pc}
   206f6:	a804      	add	r0, sp, #16
   206f8:	7800      	ldrb	r0, [r0, #0]
   206fa:	2802      	cmp	r0, #2
   206fc:	d00c      	beq.n	20718 <_ZN20complex_dynamic_type3app17h05155be0111142b5E+0xe8>
   206fe:	2803      	cmp	r0, #3
   20700:	d105      	bne.n	2070e <_ZN20complex_dynamic_type3app17h05155be0111142b5E+0xde>
   20702:	481e      	ldr	r0, [pc, #120]	@ (2077c <_ZN20complex_dynamic_type3app17h05155be0111142b5E+0x14c>)
   20704:	2100      	movs	r1, #0
   20706:	460a      	mov	r2, r1
   20708:	460b      	mov	r3, r1
   2070a:	df03      	svc	3
   2070c:	e004      	b.n	20718 <_ZN20complex_dynamic_type3app17h05155be0111142b5E+0xe8>
   2070e:	481b      	ldr	r0, [pc, #108]	@ (2077c <_ZN20complex_dynamic_type3app17h05155be0111142b5E+0x14c>)
   20710:	2100      	movs	r1, #0
   20712:	460a      	mov	r2, r1
   20714:	460b      	mov	r3, r1
   20716:	df04      	svc	4
   20718:	a804      	add	r0, sp, #16
   2071a:	9900      	ldr	r1, [sp, #0]
   2071c:	7001      	strb	r1, [r0, #0]
   2071e:	a813      	add	r0, sp, #76	@ 0x4c
   20720:	7800      	ldrb	r0, [r0, #0]
   20722:	2804      	cmp	r0, #4
   20724:	d007      	beq.n	20736 <_ZN20complex_dynamic_type3app17h05155be0111142b5E+0x106>
   20726:	2803      	cmp	r0, #3
   20728:	d11d      	bne.n	20766 <_ZN20complex_dynamic_type3app17h05155be0111142b5E+0x136>
   2072a:	4814      	ldr	r0, [pc, #80]	@ (2077c <_ZN20complex_dynamic_type3app17h05155be0111142b5E+0x14c>)
   2072c:	2105      	movs	r1, #5
   2072e:	2200      	movs	r2, #0
   20730:	4613      	mov	r3, r2
   20732:	df03      	svc	3
   20734:	e004      	b.n	20740 <_ZN20complex_dynamic_type3app17h05155be0111142b5E+0x110>
   20736:	4811      	ldr	r0, [pc, #68]	@ (2077c <_ZN20complex_dynamic_type3app17h05155be0111142b5E+0x14c>)
   20738:	2105      	movs	r1, #5
   2073a:	2200      	movs	r2, #0
   2073c:	4613      	mov	r3, r2
   2073e:	df04      	svc	4
   20740:	a804      	add	r0, sp, #16
   20742:	7804      	ldrb	r4, [r0, #0]
   20744:	1c68      	adds	r0, r5, #1
   20746:	225d      	movs	r2, #93	@ 0x5d
   20748:	9901      	ldr	r1, [sp, #4]
   2074a:	f00a fcdb 	bl	2b104 <__aeabi_memcpy>
   2074e:	702e      	strb	r6, [r5, #0]
   20750:	2c02      	cmp	r4, #2
   20752:	d006      	beq.n	20762 <_ZN20complex_dynamic_type3app17h05155be0111142b5E+0x132>
   20754:	4809      	ldr	r0, [pc, #36]	@ (2077c <_ZN20complex_dynamic_type3app17h05155be0111142b5E+0x14c>)
   20756:	2100      	movs	r1, #0
   20758:	460a      	mov	r2, r1
   2075a:	460b      	mov	r3, r1
   2075c:	2c04      	cmp	r4, #4
   2075e:	d10a      	bne.n	20776 <_ZN20complex_dynamic_type3app17h05155be0111142b5E+0x146>
   20760:	df04      	svc	4
   20762:	b02b      	add	sp, #172	@ 0xac
   20764:	bdf0      	pop	{r4, r5, r6, r7, pc}
   20766:	1c68      	adds	r0, r5, #1
   20768:	225d      	movs	r2, #93	@ 0x5d
   2076a:	4621      	mov	r1, r4
   2076c:	f00a fcca 	bl	2b104 <__aeabi_memcpy>
   20770:	702e      	strb	r6, [r5, #0]
   20772:	b02b      	add	sp, #172	@ 0xac
   20774:	bdf0      	pop	{r4, r5, r6, r7, pc}
   20776:	df03      	svc	3
   20778:	b02b      	add	sp, #172	@ 0xac
   2077a:	bdf0      	pop	{r4, r5, r6, r7, pc}
   2077c:	000014a4 	.word	0x000014a4

00020780 <_ZN20complex_dynamic_type3app17h08c97303f41cdc8fE>:
   20780:	b5f0      	push	{r4, r5, r6, r7, lr}
   20782:	af03      	add	r7, sp, #12
   20784:	b09d      	sub	sp, #116	@ 0x74
   20786:	9002      	str	r0, [sp, #8]
   20788:	a803      	add	r0, sp, #12
   2078a:	2602      	movs	r6, #2
   2078c:	7006      	strb	r6, [r0, #0]
   2078e:	1c40      	adds	r0, r0, #1
   20790:	9001      	str	r0, [sp, #4]
   20792:	2534      	movs	r5, #52	@ 0x34
   20794:	462a      	mov	r2, r5
   20796:	f00a fcb5 	bl	2b104 <__aeabi_memcpy>
   2079a:	ac11      	add	r4, sp, #68	@ 0x44
   2079c:	1c60      	adds	r0, r4, #1
   2079e:	212e      	movs	r1, #46	@ 0x2e
   207a0:	9000      	str	r0, [sp, #0]
   207a2:	f00a faef 	bl	2ad84 <__aeabi_memclr>
   207a6:	7026      	strb	r6, [r4, #0]
   207a8:	484a      	ldr	r0, [pc, #296]	@ (208d4 <_ZN20complex_dynamic_type3app17h08c97303f41cdc8fE+0x154>)
   207aa:	4631      	mov	r1, r6
   207ac:	9a01      	ldr	r2, [sp, #4]
   207ae:	462b      	mov	r3, r5
   207b0:	df04      	svc	4
   207b2:	2802      	cmp	r0, #2
   207b4:	d104      	bne.n	207c0 <_ZN20complex_dynamic_type3app17h08c97303f41cdc8fE+0x40>
   207b6:	2001      	movs	r0, #1
   207b8:	9a02      	ldr	r2, [sp, #8]
   207ba:	7010      	strb	r0, [r2, #0]
   207bc:	6051      	str	r1, [r2, #4]
   207be:	e02e      	b.n	2081e <_ZN20complex_dynamic_type3app17h08c97303f41cdc8fE+0x9e>
   207c0:	9d02      	ldr	r5, [sp, #8]
   207c2:	a803      	add	r0, sp, #12
   207c4:	2104      	movs	r1, #4
   207c6:	7001      	strb	r1, [r0, #0]
   207c8:	4842      	ldr	r0, [pc, #264]	@ (208d4 <_ZN20complex_dynamic_type3app17h08c97303f41cdc8fE+0x154>)
   207ca:	2108      	movs	r1, #8
   207cc:	232e      	movs	r3, #46	@ 0x2e
   207ce:	9c00      	ldr	r4, [sp, #0]
   207d0:	4622      	mov	r2, r4
   207d2:	df03      	svc	3
   207d4:	2802      	cmp	r0, #2
   207d6:	d10e      	bne.n	207f6 <_ZN20complex_dynamic_type3app17h08c97303f41cdc8fE+0x76>
   207d8:	2001      	movs	r0, #1
   207da:	7028      	strb	r0, [r5, #0]
   207dc:	6069      	str	r1, [r5, #4]
   207de:	a811      	add	r0, sp, #68	@ 0x44
   207e0:	7800      	ldrb	r0, [r0, #0]
   207e2:	2802      	cmp	r0, #2
   207e4:	d01b      	beq.n	2081e <_ZN20complex_dynamic_type3app17h08c97303f41cdc8fE+0x9e>
   207e6:	2803      	cmp	r0, #3
   207e8:	d014      	beq.n	20814 <_ZN20complex_dynamic_type3app17h08c97303f41cdc8fE+0x94>
   207ea:	483a      	ldr	r0, [pc, #232]	@ (208d4 <_ZN20complex_dynamic_type3app17h08c97303f41cdc8fE+0x154>)
   207ec:	2108      	movs	r1, #8
   207ee:	2200      	movs	r2, #0
   207f0:	4613      	mov	r3, r2
   207f2:	df04      	svc	4
   207f4:	e013      	b.n	2081e <_ZN20complex_dynamic_type3app17h08c97303f41cdc8fE+0x9e>
   207f6:	a811      	add	r0, sp, #68	@ 0x44
   207f8:	2103      	movs	r1, #3
   207fa:	7001      	strb	r1, [r0, #0]
   207fc:	4835      	ldr	r0, [pc, #212]	@ (208d4 <_ZN20complex_dynamic_type3app17h08c97303f41cdc8fE+0x154>)
   207fe:	2602      	movs	r6, #2
   20800:	2208      	movs	r2, #8
   20802:	2300      	movs	r3, #0
   20804:	4631      	mov	r1, r6
   20806:	9301      	str	r3, [sp, #4]
   20808:	df02      	svc	2
   2080a:	2880      	cmp	r0, #128	@ 0x80
   2080c:	d21b      	bcs.n	20846 <_ZN20complex_dynamic_type3app17h08c97303f41cdc8fE+0xc6>
   2080e:	2001      	movs	r0, #1
   20810:	7028      	strb	r0, [r5, #0]
   20812:	6069      	str	r1, [r5, #4]
   20814:	482f      	ldr	r0, [pc, #188]	@ (208d4 <_ZN20complex_dynamic_type3app17h08c97303f41cdc8fE+0x154>)
   20816:	2108      	movs	r1, #8
   20818:	2200      	movs	r2, #0
   2081a:	4613      	mov	r3, r2
   2081c:	df03      	svc	3
   2081e:	a803      	add	r0, sp, #12
   20820:	7800      	ldrb	r0, [r0, #0]
   20822:	2802      	cmp	r0, #2
   20824:	d047      	beq.n	208b6 <_ZN20complex_dynamic_type3app17h08c97303f41cdc8fE+0x136>
   20826:	2804      	cmp	r0, #4
   20828:	d106      	bne.n	20838 <_ZN20complex_dynamic_type3app17h08c97303f41cdc8fE+0xb8>
   2082a:	482a      	ldr	r0, [pc, #168]	@ (208d4 <_ZN20complex_dynamic_type3app17h08c97303f41cdc8fE+0x154>)
   2082c:	2102      	movs	r1, #2
   2082e:	2200      	movs	r2, #0
   20830:	4613      	mov	r3, r2
   20832:	df04      	svc	4
   20834:	b01d      	add	sp, #116	@ 0x74
   20836:	bdf0      	pop	{r4, r5, r6, r7, pc}
   20838:	4826      	ldr	r0, [pc, #152]	@ (208d4 <_ZN20complex_dynamic_type3app17h08c97303f41cdc8fE+0x154>)
   2083a:	2102      	movs	r1, #2
   2083c:	2200      	movs	r2, #0
   2083e:	4613      	mov	r3, r2
   20840:	df03      	svc	3
   20842:	b01d      	add	sp, #116	@ 0x74
   20844:	bdf0      	pop	{r4, r5, r6, r7, pc}
   20846:	a803      	add	r0, sp, #12
   20848:	7800      	ldrb	r0, [r0, #0]
   2084a:	2802      	cmp	r0, #2
   2084c:	d00c      	beq.n	20868 <_ZN20complex_dynamic_type3app17h08c97303f41cdc8fE+0xe8>
   2084e:	2803      	cmp	r0, #3
   20850:	d105      	bne.n	2085e <_ZN20complex_dynamic_type3app17h08c97303f41cdc8fE+0xde>
   20852:	4820      	ldr	r0, [pc, #128]	@ (208d4 <_ZN20complex_dynamic_type3app17h08c97303f41cdc8fE+0x154>)
   20854:	2102      	movs	r1, #2
   20856:	2200      	movs	r2, #0
   20858:	4613      	mov	r3, r2
   2085a:	df03      	svc	3
   2085c:	e004      	b.n	20868 <_ZN20complex_dynamic_type3app17h08c97303f41cdc8fE+0xe8>
   2085e:	481d      	ldr	r0, [pc, #116]	@ (208d4 <_ZN20complex_dynamic_type3app17h08c97303f41cdc8fE+0x154>)
   20860:	2102      	movs	r1, #2
   20862:	2200      	movs	r2, #0
   20864:	4613      	mov	r3, r2
   20866:	df04      	svc	4
   20868:	a803      	add	r0, sp, #12
   2086a:	7006      	strb	r6, [r0, #0]
   2086c:	a811      	add	r0, sp, #68	@ 0x44
   2086e:	7800      	ldrb	r0, [r0, #0]
   20870:	2804      	cmp	r0, #4
   20872:	d008      	beq.n	20886 <_ZN20complex_dynamic_type3app17h08c97303f41cdc8fE+0x106>
   20874:	2803      	cmp	r0, #3
   20876:	d120      	bne.n	208ba <_ZN20complex_dynamic_type3app17h08c97303f41cdc8fE+0x13a>
   20878:	4626      	mov	r6, r4
   2087a:	4816      	ldr	r0, [pc, #88]	@ (208d4 <_ZN20complex_dynamic_type3app17h08c97303f41cdc8fE+0x154>)
   2087c:	2108      	movs	r1, #8
   2087e:	2200      	movs	r2, #0
   20880:	4613      	mov	r3, r2
   20882:	df03      	svc	3
   20884:	e005      	b.n	20892 <_ZN20complex_dynamic_type3app17h08c97303f41cdc8fE+0x112>
   20886:	4626      	mov	r6, r4
   20888:	4812      	ldr	r0, [pc, #72]	@ (208d4 <_ZN20complex_dynamic_type3app17h08c97303f41cdc8fE+0x154>)
   2088a:	2108      	movs	r1, #8
   2088c:	2200      	movs	r2, #0
   2088e:	4613      	mov	r3, r2
   20890:	df04      	svc	4
   20892:	a803      	add	r0, sp, #12
   20894:	7804      	ldrb	r4, [r0, #0]
   20896:	1c68      	adds	r0, r5, #1
   20898:	222e      	movs	r2, #46	@ 0x2e
   2089a:	4631      	mov	r1, r6
   2089c:	f00a fc32 	bl	2b104 <__aeabi_memcpy>
   208a0:	9801      	ldr	r0, [sp, #4]
   208a2:	7028      	strb	r0, [r5, #0]
   208a4:	2c02      	cmp	r4, #2
   208a6:	d006      	beq.n	208b6 <_ZN20complex_dynamic_type3app17h08c97303f41cdc8fE+0x136>
   208a8:	480a      	ldr	r0, [pc, #40]	@ (208d4 <_ZN20complex_dynamic_type3app17h08c97303f41cdc8fE+0x154>)
   208aa:	2102      	movs	r1, #2
   208ac:	2200      	movs	r2, #0
   208ae:	4613      	mov	r3, r2
   208b0:	2c04      	cmp	r4, #4
   208b2:	d10b      	bne.n	208cc <_ZN20complex_dynamic_type3app17h08c97303f41cdc8fE+0x14c>
   208b4:	df04      	svc	4
   208b6:	b01d      	add	sp, #116	@ 0x74
   208b8:	bdf0      	pop	{r4, r5, r6, r7, pc}
   208ba:	1c68      	adds	r0, r5, #1
   208bc:	222e      	movs	r2, #46	@ 0x2e
   208be:	4621      	mov	r1, r4
   208c0:	f00a fc20 	bl	2b104 <__aeabi_memcpy>
   208c4:	9801      	ldr	r0, [sp, #4]
   208c6:	7028      	strb	r0, [r5, #0]
   208c8:	b01d      	add	sp, #116	@ 0x74
   208ca:	bdf0      	pop	{r4, r5, r6, r7, pc}
   208cc:	df03      	svc	3
   208ce:	b01d      	add	sp, #116	@ 0x74
   208d0:	bdf0      	pop	{r4, r5, r6, r7, pc}
   208d2:	46c0      	nop			@ (mov r8, r8)
   208d4:	00000209 	.word	0x00000209

000208d8 <_ZN20complex_dynamic_type3app17h08e2b22467b91e81E>:
   208d8:	b5f0      	push	{r4, r5, r6, r7, lr}
   208da:	af03      	add	r7, sp, #12
   208dc:	b09b      	sub	sp, #108	@ 0x6c
   208de:	9004      	str	r0, [sp, #16]
   208e0:	a805      	add	r0, sp, #20
   208e2:	2402      	movs	r4, #2
   208e4:	7004      	strb	r4, [r0, #0]
   208e6:	1c46      	adds	r6, r0, #1
   208e8:	222a      	movs	r2, #42	@ 0x2a
   208ea:	9203      	str	r2, [sp, #12]
   208ec:	4630      	mov	r0, r6
   208ee:	f00a fc09 	bl	2b104 <__aeabi_memcpy>
   208f2:	ad10      	add	r5, sp, #64	@ 0x40
   208f4:	1c68      	adds	r0, r5, #1
   208f6:	2128      	movs	r1, #40	@ 0x28
   208f8:	9002      	str	r0, [sp, #8]
   208fa:	f00a fa43 	bl	2ad84 <__aeabi_memclr>
   208fe:	9401      	str	r4, [sp, #4]
   20900:	702c      	strb	r4, [r5, #0]
   20902:	4848      	ldr	r0, [pc, #288]	@ (20a24 <_ZN20complex_dynamic_type3app17h08e2b22467b91e81E+0x14c>)
   20904:	2504      	movs	r5, #4
   20906:	4629      	mov	r1, r5
   20908:	4632      	mov	r2, r6
   2090a:	9b03      	ldr	r3, [sp, #12]
   2090c:	df04      	svc	4
   2090e:	2802      	cmp	r0, #2
   20910:	d104      	bne.n	2091c <_ZN20complex_dynamic_type3app17h08e2b22467b91e81E+0x44>
   20912:	2001      	movs	r0, #1
   20914:	9a04      	ldr	r2, [sp, #16]
   20916:	7010      	strb	r0, [r2, #0]
   20918:	6051      	str	r1, [r2, #4]
   2091a:	e02c      	b.n	20976 <_ZN20complex_dynamic_type3app17h08e2b22467b91e81E+0x9e>
   2091c:	9c04      	ldr	r4, [sp, #16]
   2091e:	a805      	add	r0, sp, #20
   20920:	7005      	strb	r5, [r0, #0]
   20922:	4840      	ldr	r0, [pc, #256]	@ (20a24 <_ZN20complex_dynamic_type3app17h08e2b22467b91e81E+0x14c>)
   20924:	2108      	movs	r1, #8
   20926:	2328      	movs	r3, #40	@ 0x28
   20928:	9a02      	ldr	r2, [sp, #8]
   2092a:	df03      	svc	3
   2092c:	2802      	cmp	r0, #2
   2092e:	d10e      	bne.n	2094e <_ZN20complex_dynamic_type3app17h08e2b22467b91e81E+0x76>
   20930:	2001      	movs	r0, #1
   20932:	7020      	strb	r0, [r4, #0]
   20934:	6061      	str	r1, [r4, #4]
   20936:	a810      	add	r0, sp, #64	@ 0x40
   20938:	7800      	ldrb	r0, [r0, #0]
   2093a:	2802      	cmp	r0, #2
   2093c:	d01b      	beq.n	20976 <_ZN20complex_dynamic_type3app17h08e2b22467b91e81E+0x9e>
   2093e:	2803      	cmp	r0, #3
   20940:	d014      	beq.n	2096c <_ZN20complex_dynamic_type3app17h08e2b22467b91e81E+0x94>
   20942:	4838      	ldr	r0, [pc, #224]	@ (20a24 <_ZN20complex_dynamic_type3app17h08e2b22467b91e81E+0x14c>)
   20944:	2108      	movs	r1, #8
   20946:	2200      	movs	r2, #0
   20948:	4613      	mov	r3, r2
   2094a:	df04      	svc	4
   2094c:	e013      	b.n	20976 <_ZN20complex_dynamic_type3app17h08e2b22467b91e81E+0x9e>
   2094e:	a810      	add	r0, sp, #64	@ 0x40
   20950:	2103      	movs	r1, #3
   20952:	7001      	strb	r1, [r0, #0]
   20954:	4833      	ldr	r0, [pc, #204]	@ (20a24 <_ZN20complex_dynamic_type3app17h08e2b22467b91e81E+0x14c>)
   20956:	2104      	movs	r1, #4
   20958:	2208      	movs	r2, #8
   2095a:	2600      	movs	r6, #0
   2095c:	4633      	mov	r3, r6
   2095e:	df02      	svc	2
   20960:	2880      	cmp	r0, #128	@ 0x80
   20962:	4625      	mov	r5, r4
   20964:	d21b      	bcs.n	2099e <_ZN20complex_dynamic_type3app17h08e2b22467b91e81E+0xc6>
   20966:	2001      	movs	r0, #1
   20968:	7028      	strb	r0, [r5, #0]
   2096a:	6069      	str	r1, [r5, #4]
   2096c:	482d      	ldr	r0, [pc, #180]	@ (20a24 <_ZN20complex_dynamic_type3app17h08e2b22467b91e81E+0x14c>)
   2096e:	2108      	movs	r1, #8
   20970:	2200      	movs	r2, #0
   20972:	4613      	mov	r3, r2
   20974:	df03      	svc	3
   20976:	a805      	add	r0, sp, #20
   20978:	7800      	ldrb	r0, [r0, #0]
   2097a:	2802      	cmp	r0, #2
   2097c:	d045      	beq.n	20a0a <_ZN20complex_dynamic_type3app17h08e2b22467b91e81E+0x132>
   2097e:	2804      	cmp	r0, #4
   20980:	d106      	bne.n	20990 <_ZN20complex_dynamic_type3app17h08e2b22467b91e81E+0xb8>
   20982:	4828      	ldr	r0, [pc, #160]	@ (20a24 <_ZN20complex_dynamic_type3app17h08e2b22467b91e81E+0x14c>)
   20984:	2104      	movs	r1, #4
   20986:	2200      	movs	r2, #0
   20988:	4613      	mov	r3, r2
   2098a:	df04      	svc	4
   2098c:	b01b      	add	sp, #108	@ 0x6c
   2098e:	bdf0      	pop	{r4, r5, r6, r7, pc}
   20990:	4824      	ldr	r0, [pc, #144]	@ (20a24 <_ZN20complex_dynamic_type3app17h08e2b22467b91e81E+0x14c>)
   20992:	2104      	movs	r1, #4
   20994:	2200      	movs	r2, #0
   20996:	4613      	mov	r3, r2
   20998:	df03      	svc	3
   2099a:	b01b      	add	sp, #108	@ 0x6c
   2099c:	bdf0      	pop	{r4, r5, r6, r7, pc}
   2099e:	a805      	add	r0, sp, #20
   209a0:	7800      	ldrb	r0, [r0, #0]
   209a2:	2802      	cmp	r0, #2
   209a4:	d00c      	beq.n	209c0 <_ZN20complex_dynamic_type3app17h08e2b22467b91e81E+0xe8>
   209a6:	2803      	cmp	r0, #3
   209a8:	d105      	bne.n	209b6 <_ZN20complex_dynamic_type3app17h08e2b22467b91e81E+0xde>
   209aa:	481e      	ldr	r0, [pc, #120]	@ (20a24 <_ZN20complex_dynamic_type3app17h08e2b22467b91e81E+0x14c>)
   209ac:	2104      	movs	r1, #4
   209ae:	2200      	movs	r2, #0
   209b0:	4613      	mov	r3, r2
   209b2:	df03      	svc	3
   209b4:	e004      	b.n	209c0 <_ZN20complex_dynamic_type3app17h08e2b22467b91e81E+0xe8>
   209b6:	481b      	ldr	r0, [pc, #108]	@ (20a24 <_ZN20complex_dynamic_type3app17h08e2b22467b91e81E+0x14c>)
   209b8:	2104      	movs	r1, #4
   209ba:	2200      	movs	r2, #0
   209bc:	4613      	mov	r3, r2
   209be:	df04      	svc	4
   209c0:	a805      	add	r0, sp, #20
   209c2:	9901      	ldr	r1, [sp, #4]
   209c4:	7001      	strb	r1, [r0, #0]
   209c6:	a810      	add	r0, sp, #64	@ 0x40
   209c8:	7800      	ldrb	r0, [r0, #0]
   209ca:	2804      	cmp	r0, #4
   209cc:	d007      	beq.n	209de <_ZN20complex_dynamic_type3app17h08e2b22467b91e81E+0x106>
   209ce:	2803      	cmp	r0, #3
   209d0:	d11d      	bne.n	20a0e <_ZN20complex_dynamic_type3app17h08e2b22467b91e81E+0x136>
   209d2:	4814      	ldr	r0, [pc, #80]	@ (20a24 <_ZN20complex_dynamic_type3app17h08e2b22467b91e81E+0x14c>)
   209d4:	2108      	movs	r1, #8
   209d6:	2200      	movs	r2, #0
   209d8:	4613      	mov	r3, r2
   209da:	df03      	svc	3
   209dc:	e004      	b.n	209e8 <_ZN20complex_dynamic_type3app17h08e2b22467b91e81E+0x110>
   209de:	4811      	ldr	r0, [pc, #68]	@ (20a24 <_ZN20complex_dynamic_type3app17h08e2b22467b91e81E+0x14c>)
   209e0:	2108      	movs	r1, #8
   209e2:	2200      	movs	r2, #0
   209e4:	4613      	mov	r3, r2
   209e6:	df04      	svc	4
   209e8:	a805      	add	r0, sp, #20
   209ea:	7804      	ldrb	r4, [r0, #0]
   209ec:	1c68      	adds	r0, r5, #1
   209ee:	2228      	movs	r2, #40	@ 0x28
   209f0:	9902      	ldr	r1, [sp, #8]
   209f2:	f00a fb87 	bl	2b104 <__aeabi_memcpy>
   209f6:	702e      	strb	r6, [r5, #0]
   209f8:	2c02      	cmp	r4, #2
   209fa:	d006      	beq.n	20a0a <_ZN20complex_dynamic_type3app17h08e2b22467b91e81E+0x132>
   209fc:	4809      	ldr	r0, [pc, #36]	@ (20a24 <_ZN20complex_dynamic_type3app17h08e2b22467b91e81E+0x14c>)
   209fe:	2104      	movs	r1, #4
   20a00:	2200      	movs	r2, #0
   20a02:	4613      	mov	r3, r2
   20a04:	2c04      	cmp	r4, #4
   20a06:	d10a      	bne.n	20a1e <_ZN20complex_dynamic_type3app17h08e2b22467b91e81E+0x146>
   20a08:	df04      	svc	4
   20a0a:	b01b      	add	sp, #108	@ 0x6c
   20a0c:	bdf0      	pop	{r4, r5, r6, r7, pc}
   20a0e:	1c68      	adds	r0, r5, #1
   20a10:	2228      	movs	r2, #40	@ 0x28
   20a12:	9902      	ldr	r1, [sp, #8]
   20a14:	f00a fb76 	bl	2b104 <__aeabi_memcpy>
   20a18:	702e      	strb	r6, [r5, #0]
   20a1a:	b01b      	add	sp, #108	@ 0x6c
   20a1c:	bdf0      	pop	{r4, r5, r6, r7, pc}
   20a1e:	df03      	svc	3
   20a20:	b01b      	add	sp, #108	@ 0x6c
   20a22:	bdf0      	pop	{r4, r5, r6, r7, pc}
   20a24:	00001efa 	.word	0x00001efa

00020a28 <_ZN20complex_dynamic_type3app17h0aa0a75be210833bE>:
   20a28:	b5f0      	push	{r4, r5, r6, r7, lr}
   20a2a:	af03      	add	r7, sp, #12
   20a2c:	b0ad      	sub	sp, #180	@ 0xb4
   20a2e:	9003      	str	r0, [sp, #12]
   20a30:	a804      	add	r0, sp, #16
   20a32:	2402      	movs	r4, #2
   20a34:	7004      	strb	r4, [r0, #0]
   20a36:	1c46      	adds	r6, r0, #1
   20a38:	2256      	movs	r2, #86	@ 0x56
   20a3a:	9202      	str	r2, [sp, #8]
   20a3c:	4630      	mov	r0, r6
   20a3e:	f00a fb61 	bl	2b104 <__aeabi_memcpy>
   20a42:	ad1a      	add	r5, sp, #104	@ 0x68
   20a44:	1c68      	adds	r0, r5, #1
   20a46:	2149      	movs	r1, #73	@ 0x49
   20a48:	9001      	str	r0, [sp, #4]
   20a4a:	f00a f99b 	bl	2ad84 <__aeabi_memclr>
   20a4e:	9400      	str	r4, [sp, #0]
   20a50:	702c      	strb	r4, [r5, #0]
   20a52:	4848      	ldr	r0, [pc, #288]	@ (20b74 <_ZN20complex_dynamic_type3app17h0aa0a75be210833bE+0x14c>)
   20a54:	2106      	movs	r1, #6
   20a56:	4632      	mov	r2, r6
   20a58:	9b02      	ldr	r3, [sp, #8]
   20a5a:	df04      	svc	4
   20a5c:	2802      	cmp	r0, #2
   20a5e:	d104      	bne.n	20a6a <_ZN20complex_dynamic_type3app17h0aa0a75be210833bE+0x42>
   20a60:	2001      	movs	r0, #1
   20a62:	9a03      	ldr	r2, [sp, #12]
   20a64:	7010      	strb	r0, [r2, #0]
   20a66:	6051      	str	r1, [r2, #4]
   20a68:	e02d      	b.n	20ac6 <_ZN20complex_dynamic_type3app17h0aa0a75be210833bE+0x9e>
   20a6a:	9d03      	ldr	r5, [sp, #12]
   20a6c:	a804      	add	r0, sp, #16
   20a6e:	2104      	movs	r1, #4
   20a70:	7001      	strb	r1, [r0, #0]
   20a72:	4840      	ldr	r0, [pc, #256]	@ (20b74 <_ZN20complex_dynamic_type3app17h0aa0a75be210833bE+0x14c>)
   20a74:	2106      	movs	r1, #6
   20a76:	2349      	movs	r3, #73	@ 0x49
   20a78:	9c01      	ldr	r4, [sp, #4]
   20a7a:	4622      	mov	r2, r4
   20a7c:	df03      	svc	3
   20a7e:	2802      	cmp	r0, #2
   20a80:	d10e      	bne.n	20aa0 <_ZN20complex_dynamic_type3app17h0aa0a75be210833bE+0x78>
   20a82:	2001      	movs	r0, #1
   20a84:	7028      	strb	r0, [r5, #0]
   20a86:	6069      	str	r1, [r5, #4]
   20a88:	a81a      	add	r0, sp, #104	@ 0x68
   20a8a:	7800      	ldrb	r0, [r0, #0]
   20a8c:	2802      	cmp	r0, #2
   20a8e:	d01a      	beq.n	20ac6 <_ZN20complex_dynamic_type3app17h0aa0a75be210833bE+0x9e>
   20a90:	2803      	cmp	r0, #3
   20a92:	d013      	beq.n	20abc <_ZN20complex_dynamic_type3app17h0aa0a75be210833bE+0x94>
   20a94:	4837      	ldr	r0, [pc, #220]	@ (20b74 <_ZN20complex_dynamic_type3app17h0aa0a75be210833bE+0x14c>)
   20a96:	2106      	movs	r1, #6
   20a98:	2200      	movs	r2, #0
   20a9a:	4613      	mov	r3, r2
   20a9c:	df04      	svc	4
   20a9e:	e012      	b.n	20ac6 <_ZN20complex_dynamic_type3app17h0aa0a75be210833bE+0x9e>
   20aa0:	a81a      	add	r0, sp, #104	@ 0x68
   20aa2:	2103      	movs	r1, #3
   20aa4:	7001      	strb	r1, [r0, #0]
   20aa6:	4833      	ldr	r0, [pc, #204]	@ (20b74 <_ZN20complex_dynamic_type3app17h0aa0a75be210833bE+0x14c>)
   20aa8:	2106      	movs	r1, #6
   20aaa:	2600      	movs	r6, #0
   20aac:	460a      	mov	r2, r1
   20aae:	4633      	mov	r3, r6
   20ab0:	df02      	svc	2
   20ab2:	2880      	cmp	r0, #128	@ 0x80
   20ab4:	d21b      	bcs.n	20aee <_ZN20complex_dynamic_type3app17h0aa0a75be210833bE+0xc6>
   20ab6:	2001      	movs	r0, #1
   20ab8:	7028      	strb	r0, [r5, #0]
   20aba:	6069      	str	r1, [r5, #4]
   20abc:	482d      	ldr	r0, [pc, #180]	@ (20b74 <_ZN20complex_dynamic_type3app17h0aa0a75be210833bE+0x14c>)
   20abe:	2106      	movs	r1, #6
   20ac0:	2200      	movs	r2, #0
   20ac2:	4613      	mov	r3, r2
   20ac4:	df03      	svc	3
   20ac6:	a804      	add	r0, sp, #16
   20ac8:	7800      	ldrb	r0, [r0, #0]
   20aca:	2802      	cmp	r0, #2
   20acc:	d045      	beq.n	20b5a <_ZN20complex_dynamic_type3app17h0aa0a75be210833bE+0x132>
   20ace:	2804      	cmp	r0, #4
   20ad0:	d106      	bne.n	20ae0 <_ZN20complex_dynamic_type3app17h0aa0a75be210833bE+0xb8>
   20ad2:	4828      	ldr	r0, [pc, #160]	@ (20b74 <_ZN20complex_dynamic_type3app17h0aa0a75be210833bE+0x14c>)
   20ad4:	2106      	movs	r1, #6
   20ad6:	2200      	movs	r2, #0
   20ad8:	4613      	mov	r3, r2
   20ada:	df04      	svc	4
   20adc:	b02d      	add	sp, #180	@ 0xb4
   20ade:	bdf0      	pop	{r4, r5, r6, r7, pc}
   20ae0:	4824      	ldr	r0, [pc, #144]	@ (20b74 <_ZN20complex_dynamic_type3app17h0aa0a75be210833bE+0x14c>)
   20ae2:	2106      	movs	r1, #6
   20ae4:	2200      	movs	r2, #0
   20ae6:	4613      	mov	r3, r2
   20ae8:	df03      	svc	3
   20aea:	b02d      	add	sp, #180	@ 0xb4
   20aec:	bdf0      	pop	{r4, r5, r6, r7, pc}
   20aee:	a804      	add	r0, sp, #16
   20af0:	7800      	ldrb	r0, [r0, #0]
   20af2:	2802      	cmp	r0, #2
   20af4:	d00c      	beq.n	20b10 <_ZN20complex_dynamic_type3app17h0aa0a75be210833bE+0xe8>
   20af6:	2803      	cmp	r0, #3
   20af8:	d105      	bne.n	20b06 <_ZN20complex_dynamic_type3app17h0aa0a75be210833bE+0xde>
   20afa:	481e      	ldr	r0, [pc, #120]	@ (20b74 <_ZN20complex_dynamic_type3app17h0aa0a75be210833bE+0x14c>)
   20afc:	2106      	movs	r1, #6
   20afe:	2200      	movs	r2, #0
   20b00:	4613      	mov	r3, r2
   20b02:	df03      	svc	3
   20b04:	e004      	b.n	20b10 <_ZN20complex_dynamic_type3app17h0aa0a75be210833bE+0xe8>
   20b06:	481b      	ldr	r0, [pc, #108]	@ (20b74 <_ZN20complex_dynamic_type3app17h0aa0a75be210833bE+0x14c>)
   20b08:	2106      	movs	r1, #6
   20b0a:	2200      	movs	r2, #0
   20b0c:	4613      	mov	r3, r2
   20b0e:	df04      	svc	4
   20b10:	a804      	add	r0, sp, #16
   20b12:	9900      	ldr	r1, [sp, #0]
   20b14:	7001      	strb	r1, [r0, #0]
   20b16:	a81a      	add	r0, sp, #104	@ 0x68
   20b18:	7800      	ldrb	r0, [r0, #0]
   20b1a:	2804      	cmp	r0, #4
   20b1c:	d007      	beq.n	20b2e <_ZN20complex_dynamic_type3app17h0aa0a75be210833bE+0x106>
   20b1e:	2803      	cmp	r0, #3
   20b20:	d11d      	bne.n	20b5e <_ZN20complex_dynamic_type3app17h0aa0a75be210833bE+0x136>
   20b22:	4814      	ldr	r0, [pc, #80]	@ (20b74 <_ZN20complex_dynamic_type3app17h0aa0a75be210833bE+0x14c>)
   20b24:	2106      	movs	r1, #6
   20b26:	2200      	movs	r2, #0
   20b28:	4613      	mov	r3, r2
   20b2a:	df03      	svc	3
   20b2c:	e004      	b.n	20b38 <_ZN20complex_dynamic_type3app17h0aa0a75be210833bE+0x110>
   20b2e:	4811      	ldr	r0, [pc, #68]	@ (20b74 <_ZN20complex_dynamic_type3app17h0aa0a75be210833bE+0x14c>)
   20b30:	2106      	movs	r1, #6
   20b32:	2200      	movs	r2, #0
   20b34:	4613      	mov	r3, r2
   20b36:	df04      	svc	4
   20b38:	a804      	add	r0, sp, #16
   20b3a:	7804      	ldrb	r4, [r0, #0]
   20b3c:	1c68      	adds	r0, r5, #1
   20b3e:	2249      	movs	r2, #73	@ 0x49
   20b40:	9901      	ldr	r1, [sp, #4]
   20b42:	f00a fadf 	bl	2b104 <__aeabi_memcpy>
   20b46:	702e      	strb	r6, [r5, #0]
   20b48:	2c02      	cmp	r4, #2
   20b4a:	d006      	beq.n	20b5a <_ZN20complex_dynamic_type3app17h0aa0a75be210833bE+0x132>
   20b4c:	4809      	ldr	r0, [pc, #36]	@ (20b74 <_ZN20complex_dynamic_type3app17h0aa0a75be210833bE+0x14c>)
   20b4e:	2106      	movs	r1, #6
   20b50:	2200      	movs	r2, #0
   20b52:	4613      	mov	r3, r2
   20b54:	2c04      	cmp	r4, #4
   20b56:	d10a      	bne.n	20b6e <_ZN20complex_dynamic_type3app17h0aa0a75be210833bE+0x146>
   20b58:	df04      	svc	4
   20b5a:	b02d      	add	sp, #180	@ 0xb4
   20b5c:	bdf0      	pop	{r4, r5, r6, r7, pc}
   20b5e:	1c68      	adds	r0, r5, #1
   20b60:	2249      	movs	r2, #73	@ 0x49
   20b62:	4621      	mov	r1, r4
   20b64:	f00a face 	bl	2b104 <__aeabi_memcpy>
   20b68:	702e      	strb	r6, [r5, #0]
   20b6a:	b02d      	add	sp, #180	@ 0xb4
   20b6c:	bdf0      	pop	{r4, r5, r6, r7, pc}
   20b6e:	df03      	svc	3
   20b70:	b02d      	add	sp, #180	@ 0xb4
   20b72:	bdf0      	pop	{r4, r5, r6, r7, pc}
   20b74:	00001c6b 	.word	0x00001c6b

00020b78 <_ZN20complex_dynamic_type3app17h0e7edd768080d200E>:
   20b78:	b5f0      	push	{r4, r5, r6, r7, lr}
   20b7a:	af03      	add	r7, sp, #12
   20b7c:	b09d      	sub	sp, #116	@ 0x74
   20b7e:	9004      	str	r0, [sp, #16]
   20b80:	a805      	add	r0, sp, #20
   20b82:	2402      	movs	r4, #2
   20b84:	7004      	strb	r4, [r0, #0]
   20b86:	1c46      	adds	r6, r0, #1
   20b88:	223f      	movs	r2, #63	@ 0x3f
   20b8a:	9203      	str	r2, [sp, #12]
   20b8c:	4630      	mov	r0, r6
   20b8e:	f00a fab9 	bl	2b104 <__aeabi_memcpy>
   20b92:	ad15      	add	r5, sp, #84	@ 0x54
   20b94:	1c68      	adds	r0, r5, #1
   20b96:	211c      	movs	r1, #28
   20b98:	9002      	str	r0, [sp, #8]
   20b9a:	f00a f8f3 	bl	2ad84 <__aeabi_memclr>
   20b9e:	9401      	str	r4, [sp, #4]
   20ba0:	702c      	strb	r4, [r5, #0]
   20ba2:	4848      	ldr	r0, [pc, #288]	@ (20cc4 <_ZN20complex_dynamic_type3app17h0e7edd768080d200E+0x14c>)
   20ba4:	2105      	movs	r1, #5
   20ba6:	4632      	mov	r2, r6
   20ba8:	9b03      	ldr	r3, [sp, #12]
   20baa:	df04      	svc	4
   20bac:	2802      	cmp	r0, #2
   20bae:	d104      	bne.n	20bba <_ZN20complex_dynamic_type3app17h0e7edd768080d200E+0x42>
   20bb0:	2001      	movs	r0, #1
   20bb2:	9a04      	ldr	r2, [sp, #16]
   20bb4:	7010      	strb	r0, [r2, #0]
   20bb6:	6051      	str	r1, [r2, #4]
   20bb8:	e02d      	b.n	20c16 <_ZN20complex_dynamic_type3app17h0e7edd768080d200E+0x9e>
   20bba:	9d04      	ldr	r5, [sp, #16]
   20bbc:	a805      	add	r0, sp, #20
   20bbe:	2104      	movs	r1, #4
   20bc0:	7001      	strb	r1, [r0, #0]
   20bc2:	4840      	ldr	r0, [pc, #256]	@ (20cc4 <_ZN20complex_dynamic_type3app17h0e7edd768080d200E+0x14c>)
   20bc4:	2109      	movs	r1, #9
   20bc6:	231c      	movs	r3, #28
   20bc8:	9c02      	ldr	r4, [sp, #8]
   20bca:	4622      	mov	r2, r4
   20bcc:	df03      	svc	3
   20bce:	2802      	cmp	r0, #2
   20bd0:	d10e      	bne.n	20bf0 <_ZN20complex_dynamic_type3app17h0e7edd768080d200E+0x78>
   20bd2:	2001      	movs	r0, #1
   20bd4:	7028      	strb	r0, [r5, #0]
   20bd6:	6069      	str	r1, [r5, #4]
   20bd8:	a815      	add	r0, sp, #84	@ 0x54
   20bda:	7800      	ldrb	r0, [r0, #0]
   20bdc:	2802      	cmp	r0, #2
   20bde:	d01a      	beq.n	20c16 <_ZN20complex_dynamic_type3app17h0e7edd768080d200E+0x9e>
   20be0:	2803      	cmp	r0, #3
   20be2:	d013      	beq.n	20c0c <_ZN20complex_dynamic_type3app17h0e7edd768080d200E+0x94>
   20be4:	4837      	ldr	r0, [pc, #220]	@ (20cc4 <_ZN20complex_dynamic_type3app17h0e7edd768080d200E+0x14c>)
   20be6:	2109      	movs	r1, #9
   20be8:	2200      	movs	r2, #0
   20bea:	4613      	mov	r3, r2
   20bec:	df04      	svc	4
   20bee:	e012      	b.n	20c16 <_ZN20complex_dynamic_type3app17h0e7edd768080d200E+0x9e>
   20bf0:	a815      	add	r0, sp, #84	@ 0x54
   20bf2:	2103      	movs	r1, #3
   20bf4:	7001      	strb	r1, [r0, #0]
   20bf6:	4833      	ldr	r0, [pc, #204]	@ (20cc4 <_ZN20complex_dynamic_type3app17h0e7edd768080d200E+0x14c>)
   20bf8:	2105      	movs	r1, #5
   20bfa:	2209      	movs	r2, #9
   20bfc:	2600      	movs	r6, #0
   20bfe:	4633      	mov	r3, r6
   20c00:	df02      	svc	2
   20c02:	2880      	cmp	r0, #128	@ 0x80
   20c04:	d21b      	bcs.n	20c3e <_ZN20complex_dynamic_type3app17h0e7edd768080d200E+0xc6>
   20c06:	2001      	movs	r0, #1
   20c08:	7028      	strb	r0, [r5, #0]
   20c0a:	6069      	str	r1, [r5, #4]
   20c0c:	482d      	ldr	r0, [pc, #180]	@ (20cc4 <_ZN20complex_dynamic_type3app17h0e7edd768080d200E+0x14c>)
   20c0e:	2109      	movs	r1, #9
   20c10:	2200      	movs	r2, #0
   20c12:	4613      	mov	r3, r2
   20c14:	df03      	svc	3
   20c16:	a805      	add	r0, sp, #20
   20c18:	7800      	ldrb	r0, [r0, #0]
   20c1a:	2802      	cmp	r0, #2
   20c1c:	d045      	beq.n	20caa <_ZN20complex_dynamic_type3app17h0e7edd768080d200E+0x132>
   20c1e:	2804      	cmp	r0, #4
   20c20:	d106      	bne.n	20c30 <_ZN20complex_dynamic_type3app17h0e7edd768080d200E+0xb8>
   20c22:	4828      	ldr	r0, [pc, #160]	@ (20cc4 <_ZN20complex_dynamic_type3app17h0e7edd768080d200E+0x14c>)
   20c24:	2105      	movs	r1, #5
   20c26:	2200      	movs	r2, #0
   20c28:	4613      	mov	r3, r2
   20c2a:	df04      	svc	4
   20c2c:	b01d      	add	sp, #116	@ 0x74
   20c2e:	bdf0      	pop	{r4, r5, r6, r7, pc}
   20c30:	4824      	ldr	r0, [pc, #144]	@ (20cc4 <_ZN20complex_dynamic_type3app17h0e7edd768080d200E+0x14c>)
   20c32:	2105      	movs	r1, #5
   20c34:	2200      	movs	r2, #0
   20c36:	4613      	mov	r3, r2
   20c38:	df03      	svc	3
   20c3a:	b01d      	add	sp, #116	@ 0x74
   20c3c:	bdf0      	pop	{r4, r5, r6, r7, pc}
   20c3e:	a805      	add	r0, sp, #20
   20c40:	7800      	ldrb	r0, [r0, #0]
   20c42:	2802      	cmp	r0, #2
   20c44:	d00c      	beq.n	20c60 <_ZN20complex_dynamic_type3app17h0e7edd768080d200E+0xe8>
   20c46:	2803      	cmp	r0, #3
   20c48:	d105      	bne.n	20c56 <_ZN20complex_dynamic_type3app17h0e7edd768080d200E+0xde>
   20c4a:	481e      	ldr	r0, [pc, #120]	@ (20cc4 <_ZN20complex_dynamic_type3app17h0e7edd768080d200E+0x14c>)
   20c4c:	2105      	movs	r1, #5
   20c4e:	2200      	movs	r2, #0
   20c50:	4613      	mov	r3, r2
   20c52:	df03      	svc	3
   20c54:	e004      	b.n	20c60 <_ZN20complex_dynamic_type3app17h0e7edd768080d200E+0xe8>
   20c56:	481b      	ldr	r0, [pc, #108]	@ (20cc4 <_ZN20complex_dynamic_type3app17h0e7edd768080d200E+0x14c>)
   20c58:	2105      	movs	r1, #5
   20c5a:	2200      	movs	r2, #0
   20c5c:	4613      	mov	r3, r2
   20c5e:	df04      	svc	4
   20c60:	a805      	add	r0, sp, #20
   20c62:	9901      	ldr	r1, [sp, #4]
   20c64:	7001      	strb	r1, [r0, #0]
   20c66:	a815      	add	r0, sp, #84	@ 0x54
   20c68:	7800      	ldrb	r0, [r0, #0]
   20c6a:	2804      	cmp	r0, #4
   20c6c:	d007      	beq.n	20c7e <_ZN20complex_dynamic_type3app17h0e7edd768080d200E+0x106>
   20c6e:	2803      	cmp	r0, #3
   20c70:	d11d      	bne.n	20cae <_ZN20complex_dynamic_type3app17h0e7edd768080d200E+0x136>
   20c72:	4814      	ldr	r0, [pc, #80]	@ (20cc4 <_ZN20complex_dynamic_type3app17h0e7edd768080d200E+0x14c>)
   20c74:	2109      	movs	r1, #9
   20c76:	2200      	movs	r2, #0
   20c78:	4613      	mov	r3, r2
   20c7a:	df03      	svc	3
   20c7c:	e004      	b.n	20c88 <_ZN20complex_dynamic_type3app17h0e7edd768080d200E+0x110>
   20c7e:	4811      	ldr	r0, [pc, #68]	@ (20cc4 <_ZN20complex_dynamic_type3app17h0e7edd768080d200E+0x14c>)
   20c80:	2109      	movs	r1, #9
   20c82:	2200      	movs	r2, #0
   20c84:	4613      	mov	r3, r2
   20c86:	df04      	svc	4
   20c88:	a805      	add	r0, sp, #20
   20c8a:	7804      	ldrb	r4, [r0, #0]
   20c8c:	1c68      	adds	r0, r5, #1
   20c8e:	221c      	movs	r2, #28
   20c90:	9902      	ldr	r1, [sp, #8]
   20c92:	f00a fa37 	bl	2b104 <__aeabi_memcpy>
   20c96:	702e      	strb	r6, [r5, #0]
   20c98:	2c02      	cmp	r4, #2
   20c9a:	d006      	beq.n	20caa <_ZN20complex_dynamic_type3app17h0e7edd768080d200E+0x132>
   20c9c:	4809      	ldr	r0, [pc, #36]	@ (20cc4 <_ZN20complex_dynamic_type3app17h0e7edd768080d200E+0x14c>)
   20c9e:	2105      	movs	r1, #5
   20ca0:	2200      	movs	r2, #0
   20ca2:	4613      	mov	r3, r2
   20ca4:	2c04      	cmp	r4, #4
   20ca6:	d10a      	bne.n	20cbe <_ZN20complex_dynamic_type3app17h0e7edd768080d200E+0x146>
   20ca8:	df04      	svc	4
   20caa:	b01d      	add	sp, #116	@ 0x74
   20cac:	bdf0      	pop	{r4, r5, r6, r7, pc}
   20cae:	1c68      	adds	r0, r5, #1
   20cb0:	221c      	movs	r2, #28
   20cb2:	4621      	mov	r1, r4
   20cb4:	f00a fa26 	bl	2b104 <__aeabi_memcpy>
   20cb8:	702e      	strb	r6, [r5, #0]
   20cba:	b01d      	add	sp, #116	@ 0x74
   20cbc:	bdf0      	pop	{r4, r5, r6, r7, pc}
   20cbe:	df03      	svc	3
   20cc0:	b01d      	add	sp, #116	@ 0x74
   20cc2:	bdf0      	pop	{r4, r5, r6, r7, pc}
   20cc4:	00001694 	.word	0x00001694

00020cc8 <_ZN20complex_dynamic_type3app17h15ab81a409cdf75bE>:
   20cc8:	b5f0      	push	{r4, r5, r6, r7, lr}
   20cca:	af03      	add	r7, sp, #12
   20ccc:	b09f      	sub	sp, #124	@ 0x7c
   20cce:	9003      	str	r0, [sp, #12]
   20cd0:	a804      	add	r0, sp, #16
   20cd2:	2402      	movs	r4, #2
   20cd4:	7004      	strb	r4, [r0, #0]
   20cd6:	1c46      	adds	r6, r0, #1
   20cd8:	2213      	movs	r2, #19
   20cda:	9202      	str	r2, [sp, #8]
   20cdc:	4630      	mov	r0, r6
   20cde:	f00a fa11 	bl	2b104 <__aeabi_memcpy>
   20ce2:	ad09      	add	r5, sp, #36	@ 0x24
   20ce4:	1c68      	adds	r0, r5, #1
   20ce6:	2155      	movs	r1, #85	@ 0x55
   20ce8:	9001      	str	r0, [sp, #4]
   20cea:	f00a f84b 	bl	2ad84 <__aeabi_memclr>
   20cee:	9400      	str	r4, [sp, #0]
   20cf0:	702c      	strb	r4, [r5, #0]
   20cf2:	4848      	ldr	r0, [pc, #288]	@ (20e14 <_ZN20complex_dynamic_type3app17h15ab81a409cdf75bE+0x14c>)
   20cf4:	2109      	movs	r1, #9
   20cf6:	4632      	mov	r2, r6
   20cf8:	9b02      	ldr	r3, [sp, #8]
   20cfa:	df04      	svc	4
   20cfc:	2802      	cmp	r0, #2
   20cfe:	d104      	bne.n	20d0a <_ZN20complex_dynamic_type3app17h15ab81a409cdf75bE+0x42>
   20d00:	2001      	movs	r0, #1
   20d02:	9a03      	ldr	r2, [sp, #12]
   20d04:	7010      	strb	r0, [r2, #0]
   20d06:	6051      	str	r1, [r2, #4]
   20d08:	e02d      	b.n	20d66 <_ZN20complex_dynamic_type3app17h15ab81a409cdf75bE+0x9e>
   20d0a:	9d03      	ldr	r5, [sp, #12]
   20d0c:	a804      	add	r0, sp, #16
   20d0e:	2104      	movs	r1, #4
   20d10:	7001      	strb	r1, [r0, #0]
   20d12:	4840      	ldr	r0, [pc, #256]	@ (20e14 <_ZN20complex_dynamic_type3app17h15ab81a409cdf75bE+0x14c>)
   20d14:	2107      	movs	r1, #7
   20d16:	2355      	movs	r3, #85	@ 0x55
   20d18:	9c01      	ldr	r4, [sp, #4]
   20d1a:	4622      	mov	r2, r4
   20d1c:	df03      	svc	3
   20d1e:	2802      	cmp	r0, #2
   20d20:	d10e      	bne.n	20d40 <_ZN20complex_dynamic_type3app17h15ab81a409cdf75bE+0x78>
   20d22:	2001      	movs	r0, #1
   20d24:	7028      	strb	r0, [r5, #0]
   20d26:	6069      	str	r1, [r5, #4]
   20d28:	a809      	add	r0, sp, #36	@ 0x24
   20d2a:	7800      	ldrb	r0, [r0, #0]
   20d2c:	2802      	cmp	r0, #2
   20d2e:	d01a      	beq.n	20d66 <_ZN20complex_dynamic_type3app17h15ab81a409cdf75bE+0x9e>
   20d30:	2803      	cmp	r0, #3
   20d32:	d013      	beq.n	20d5c <_ZN20complex_dynamic_type3app17h15ab81a409cdf75bE+0x94>
   20d34:	4837      	ldr	r0, [pc, #220]	@ (20e14 <_ZN20complex_dynamic_type3app17h15ab81a409cdf75bE+0x14c>)
   20d36:	2107      	movs	r1, #7
   20d38:	2200      	movs	r2, #0
   20d3a:	4613      	mov	r3, r2
   20d3c:	df04      	svc	4
   20d3e:	e012      	b.n	20d66 <_ZN20complex_dynamic_type3app17h15ab81a409cdf75bE+0x9e>
   20d40:	a809      	add	r0, sp, #36	@ 0x24
   20d42:	2103      	movs	r1, #3
   20d44:	7001      	strb	r1, [r0, #0]
   20d46:	4833      	ldr	r0, [pc, #204]	@ (20e14 <_ZN20complex_dynamic_type3app17h15ab81a409cdf75bE+0x14c>)
   20d48:	2109      	movs	r1, #9
   20d4a:	2207      	movs	r2, #7
   20d4c:	2600      	movs	r6, #0
   20d4e:	4633      	mov	r3, r6
   20d50:	df02      	svc	2
   20d52:	2880      	cmp	r0, #128	@ 0x80
   20d54:	d21b      	bcs.n	20d8e <_ZN20complex_dynamic_type3app17h15ab81a409cdf75bE+0xc6>
   20d56:	2001      	movs	r0, #1
   20d58:	7028      	strb	r0, [r5, #0]
   20d5a:	6069      	str	r1, [r5, #4]
   20d5c:	482d      	ldr	r0, [pc, #180]	@ (20e14 <_ZN20complex_dynamic_type3app17h15ab81a409cdf75bE+0x14c>)
   20d5e:	2107      	movs	r1, #7
   20d60:	2200      	movs	r2, #0
   20d62:	4613      	mov	r3, r2
   20d64:	df03      	svc	3
   20d66:	a804      	add	r0, sp, #16
   20d68:	7800      	ldrb	r0, [r0, #0]
   20d6a:	2802      	cmp	r0, #2
   20d6c:	d045      	beq.n	20dfa <_ZN20complex_dynamic_type3app17h15ab81a409cdf75bE+0x132>
   20d6e:	2804      	cmp	r0, #4
   20d70:	d106      	bne.n	20d80 <_ZN20complex_dynamic_type3app17h15ab81a409cdf75bE+0xb8>
   20d72:	4828      	ldr	r0, [pc, #160]	@ (20e14 <_ZN20complex_dynamic_type3app17h15ab81a409cdf75bE+0x14c>)
   20d74:	2109      	movs	r1, #9
   20d76:	2200      	movs	r2, #0
   20d78:	4613      	mov	r3, r2
   20d7a:	df04      	svc	4
   20d7c:	b01f      	add	sp, #124	@ 0x7c
   20d7e:	bdf0      	pop	{r4, r5, r6, r7, pc}
   20d80:	4824      	ldr	r0, [pc, #144]	@ (20e14 <_ZN20complex_dynamic_type3app17h15ab81a409cdf75bE+0x14c>)
   20d82:	2109      	movs	r1, #9
   20d84:	2200      	movs	r2, #0
   20d86:	4613      	mov	r3, r2
   20d88:	df03      	svc	3
   20d8a:	b01f      	add	sp, #124	@ 0x7c
   20d8c:	bdf0      	pop	{r4, r5, r6, r7, pc}
   20d8e:	a804      	add	r0, sp, #16
   20d90:	7800      	ldrb	r0, [r0, #0]
   20d92:	2802      	cmp	r0, #2
   20d94:	d00c      	beq.n	20db0 <_ZN20complex_dynamic_type3app17h15ab81a409cdf75bE+0xe8>
   20d96:	2803      	cmp	r0, #3
   20d98:	d105      	bne.n	20da6 <_ZN20complex_dynamic_type3app17h15ab81a409cdf75bE+0xde>
   20d9a:	481e      	ldr	r0, [pc, #120]	@ (20e14 <_ZN20complex_dynamic_type3app17h15ab81a409cdf75bE+0x14c>)
   20d9c:	2109      	movs	r1, #9
   20d9e:	2200      	movs	r2, #0
   20da0:	4613      	mov	r3, r2
   20da2:	df03      	svc	3
   20da4:	e004      	b.n	20db0 <_ZN20complex_dynamic_type3app17h15ab81a409cdf75bE+0xe8>
   20da6:	481b      	ldr	r0, [pc, #108]	@ (20e14 <_ZN20complex_dynamic_type3app17h15ab81a409cdf75bE+0x14c>)
   20da8:	2109      	movs	r1, #9
   20daa:	2200      	movs	r2, #0
   20dac:	4613      	mov	r3, r2
   20dae:	df04      	svc	4
   20db0:	a804      	add	r0, sp, #16
   20db2:	9900      	ldr	r1, [sp, #0]
   20db4:	7001      	strb	r1, [r0, #0]
   20db6:	a809      	add	r0, sp, #36	@ 0x24
   20db8:	7800      	ldrb	r0, [r0, #0]
   20dba:	2804      	cmp	r0, #4
   20dbc:	d007      	beq.n	20dce <_ZN20complex_dynamic_type3app17h15ab81a409cdf75bE+0x106>
   20dbe:	2803      	cmp	r0, #3
   20dc0:	d11d      	bne.n	20dfe <_ZN20complex_dynamic_type3app17h15ab81a409cdf75bE+0x136>
   20dc2:	4814      	ldr	r0, [pc, #80]	@ (20e14 <_ZN20complex_dynamic_type3app17h15ab81a409cdf75bE+0x14c>)
   20dc4:	2107      	movs	r1, #7
   20dc6:	2200      	movs	r2, #0
   20dc8:	4613      	mov	r3, r2
   20dca:	df03      	svc	3
   20dcc:	e004      	b.n	20dd8 <_ZN20complex_dynamic_type3app17h15ab81a409cdf75bE+0x110>
   20dce:	4811      	ldr	r0, [pc, #68]	@ (20e14 <_ZN20complex_dynamic_type3app17h15ab81a409cdf75bE+0x14c>)
   20dd0:	2107      	movs	r1, #7
   20dd2:	2200      	movs	r2, #0
   20dd4:	4613      	mov	r3, r2
   20dd6:	df04      	svc	4
   20dd8:	a804      	add	r0, sp, #16
   20dda:	7804      	ldrb	r4, [r0, #0]
   20ddc:	1c68      	adds	r0, r5, #1
   20dde:	2255      	movs	r2, #85	@ 0x55
   20de0:	9901      	ldr	r1, [sp, #4]
   20de2:	f00a f98f 	bl	2b104 <__aeabi_memcpy>
   20de6:	702e      	strb	r6, [r5, #0]
   20de8:	2c02      	cmp	r4, #2
   20dea:	d006      	beq.n	20dfa <_ZN20complex_dynamic_type3app17h15ab81a409cdf75bE+0x132>
   20dec:	4809      	ldr	r0, [pc, #36]	@ (20e14 <_ZN20complex_dynamic_type3app17h15ab81a409cdf75bE+0x14c>)
   20dee:	2109      	movs	r1, #9
   20df0:	2200      	movs	r2, #0
   20df2:	4613      	mov	r3, r2
   20df4:	2c04      	cmp	r4, #4
   20df6:	d10a      	bne.n	20e0e <_ZN20complex_dynamic_type3app17h15ab81a409cdf75bE+0x146>
   20df8:	df04      	svc	4
   20dfa:	b01f      	add	sp, #124	@ 0x7c
   20dfc:	bdf0      	pop	{r4, r5, r6, r7, pc}
   20dfe:	1c68      	adds	r0, r5, #1
   20e00:	2255      	movs	r2, #85	@ 0x55
   20e02:	4621      	mov	r1, r4
   20e04:	f00a f97e 	bl	2b104 <__aeabi_memcpy>
   20e08:	702e      	strb	r6, [r5, #0]
   20e0a:	b01f      	add	sp, #124	@ 0x7c
   20e0c:	bdf0      	pop	{r4, r5, r6, r7, pc}
   20e0e:	df03      	svc	3
   20e10:	b01f      	add	sp, #124	@ 0x7c
   20e12:	bdf0      	pop	{r4, r5, r6, r7, pc}
   20e14:	0000032e 	.word	0x0000032e

00020e18 <_ZN20complex_dynamic_type3app17h17344ac39208109aE>:
   20e18:	b5f0      	push	{r4, r5, r6, r7, lr}
   20e1a:	af03      	add	r7, sp, #12
   20e1c:	b08d      	sub	sp, #52	@ 0x34
   20e1e:	9003      	str	r0, [sp, #12]
   20e20:	a804      	add	r0, sp, #16
   20e22:	2402      	movs	r4, #2
   20e24:	7004      	strb	r4, [r0, #0]
   20e26:	1c40      	adds	r0, r0, #1
   20e28:	9002      	str	r0, [sp, #8]
   20e2a:	250f      	movs	r5, #15
   20e2c:	462a      	mov	r2, r5
   20e2e:	f00a f969 	bl	2b104 <__aeabi_memcpy>
   20e32:	ae08      	add	r6, sp, #32
   20e34:	1c70      	adds	r0, r6, #1
   20e36:	2113      	movs	r1, #19
   20e38:	9001      	str	r0, [sp, #4]
   20e3a:	f009 ffa3 	bl	2ad84 <__aeabi_memclr>
   20e3e:	9400      	str	r4, [sp, #0]
   20e40:	7034      	strb	r4, [r6, #0]
   20e42:	484a      	ldr	r0, [pc, #296]	@ (20f6c <_ZN20complex_dynamic_type3app17h17344ac39208109aE+0x154>)
   20e44:	2603      	movs	r6, #3
   20e46:	4631      	mov	r1, r6
   20e48:	9a02      	ldr	r2, [sp, #8]
   20e4a:	462b      	mov	r3, r5
   20e4c:	df04      	svc	4
   20e4e:	2802      	cmp	r0, #2
   20e50:	d104      	bne.n	20e5c <_ZN20complex_dynamic_type3app17h17344ac39208109aE+0x44>
   20e52:	2001      	movs	r0, #1
   20e54:	9a03      	ldr	r2, [sp, #12]
   20e56:	7010      	strb	r0, [r2, #0]
   20e58:	6051      	str	r1, [r2, #4]
   20e5a:	e02c      	b.n	20eb6 <_ZN20complex_dynamic_type3app17h17344ac39208109aE+0x9e>
   20e5c:	9d03      	ldr	r5, [sp, #12]
   20e5e:	a804      	add	r0, sp, #16
   20e60:	2104      	movs	r1, #4
   20e62:	7001      	strb	r1, [r0, #0]
   20e64:	4841      	ldr	r0, [pc, #260]	@ (20f6c <_ZN20complex_dynamic_type3app17h17344ac39208109aE+0x154>)
   20e66:	2100      	movs	r1, #0
   20e68:	2313      	movs	r3, #19
   20e6a:	9c01      	ldr	r4, [sp, #4]
   20e6c:	4622      	mov	r2, r4
   20e6e:	df03      	svc	3
   20e70:	2802      	cmp	r0, #2
   20e72:	d10e      	bne.n	20e92 <_ZN20complex_dynamic_type3app17h17344ac39208109aE+0x7a>
   20e74:	2001      	movs	r0, #1
   20e76:	7028      	strb	r0, [r5, #0]
   20e78:	6069      	str	r1, [r5, #4]
   20e7a:	a808      	add	r0, sp, #32
   20e7c:	7800      	ldrb	r0, [r0, #0]
   20e7e:	2802      	cmp	r0, #2
   20e80:	d019      	beq.n	20eb6 <_ZN20complex_dynamic_type3app17h17344ac39208109aE+0x9e>
   20e82:	2803      	cmp	r0, #3
   20e84:	d012      	beq.n	20eac <_ZN20complex_dynamic_type3app17h17344ac39208109aE+0x94>
   20e86:	4839      	ldr	r0, [pc, #228]	@ (20f6c <_ZN20complex_dynamic_type3app17h17344ac39208109aE+0x154>)
   20e88:	2100      	movs	r1, #0
   20e8a:	460a      	mov	r2, r1
   20e8c:	460b      	mov	r3, r1
   20e8e:	df04      	svc	4
   20e90:	e011      	b.n	20eb6 <_ZN20complex_dynamic_type3app17h17344ac39208109aE+0x9e>
   20e92:	a808      	add	r0, sp, #32
   20e94:	7006      	strb	r6, [r0, #0]
   20e96:	4835      	ldr	r0, [pc, #212]	@ (20f6c <_ZN20complex_dynamic_type3app17h17344ac39208109aE+0x154>)
   20e98:	2200      	movs	r2, #0
   20e9a:	4631      	mov	r1, r6
   20e9c:	9202      	str	r2, [sp, #8]
   20e9e:	4613      	mov	r3, r2
   20ea0:	df02      	svc	2
   20ea2:	2880      	cmp	r0, #128	@ 0x80
   20ea4:	d21b      	bcs.n	20ede <_ZN20complex_dynamic_type3app17h17344ac39208109aE+0xc6>
   20ea6:	2001      	movs	r0, #1
   20ea8:	7028      	strb	r0, [r5, #0]
   20eaa:	6069      	str	r1, [r5, #4]
   20eac:	482f      	ldr	r0, [pc, #188]	@ (20f6c <_ZN20complex_dynamic_type3app17h17344ac39208109aE+0x154>)
   20eae:	2100      	movs	r1, #0
   20eb0:	460a      	mov	r2, r1
   20eb2:	460b      	mov	r3, r1
   20eb4:	df03      	svc	3
   20eb6:	a804      	add	r0, sp, #16
   20eb8:	7800      	ldrb	r0, [r0, #0]
   20eba:	2802      	cmp	r0, #2
   20ebc:	d048      	beq.n	20f50 <_ZN20complex_dynamic_type3app17h17344ac39208109aE+0x138>
   20ebe:	2804      	cmp	r0, #4
   20ec0:	d106      	bne.n	20ed0 <_ZN20complex_dynamic_type3app17h17344ac39208109aE+0xb8>
   20ec2:	482a      	ldr	r0, [pc, #168]	@ (20f6c <_ZN20complex_dynamic_type3app17h17344ac39208109aE+0x154>)
   20ec4:	2103      	movs	r1, #3
   20ec6:	2200      	movs	r2, #0
   20ec8:	4613      	mov	r3, r2
   20eca:	df04      	svc	4
   20ecc:	b00d      	add	sp, #52	@ 0x34
   20ece:	bdf0      	pop	{r4, r5, r6, r7, pc}
   20ed0:	4826      	ldr	r0, [pc, #152]	@ (20f6c <_ZN20complex_dynamic_type3app17h17344ac39208109aE+0x154>)
   20ed2:	2103      	movs	r1, #3
   20ed4:	2200      	movs	r2, #0
   20ed6:	4613      	mov	r3, r2
   20ed8:	df03      	svc	3
   20eda:	b00d      	add	sp, #52	@ 0x34
   20edc:	bdf0      	pop	{r4, r5, r6, r7, pc}
   20ede:	a804      	add	r0, sp, #16
   20ee0:	7800      	ldrb	r0, [r0, #0]
   20ee2:	2802      	cmp	r0, #2
   20ee4:	d00c      	beq.n	20f00 <_ZN20complex_dynamic_type3app17h17344ac39208109aE+0xe8>
   20ee6:	2803      	cmp	r0, #3
   20ee8:	d105      	bne.n	20ef6 <_ZN20complex_dynamic_type3app17h17344ac39208109aE+0xde>
   20eea:	4820      	ldr	r0, [pc, #128]	@ (20f6c <_ZN20complex_dynamic_type3app17h17344ac39208109aE+0x154>)
   20eec:	2103      	movs	r1, #3
   20eee:	2200      	movs	r2, #0
   20ef0:	4613      	mov	r3, r2
   20ef2:	df03      	svc	3
   20ef4:	e004      	b.n	20f00 <_ZN20complex_dynamic_type3app17h17344ac39208109aE+0xe8>
   20ef6:	481d      	ldr	r0, [pc, #116]	@ (20f6c <_ZN20complex_dynamic_type3app17h17344ac39208109aE+0x154>)
   20ef8:	2103      	movs	r1, #3
   20efa:	2200      	movs	r2, #0
   20efc:	4613      	mov	r3, r2
   20efe:	df04      	svc	4
   20f00:	a804      	add	r0, sp, #16
   20f02:	9900      	ldr	r1, [sp, #0]
   20f04:	7001      	strb	r1, [r0, #0]
   20f06:	a808      	add	r0, sp, #32
   20f08:	7800      	ldrb	r0, [r0, #0]
   20f0a:	2804      	cmp	r0, #4
   20f0c:	d008      	beq.n	20f20 <_ZN20complex_dynamic_type3app17h17344ac39208109aE+0x108>
   20f0e:	2803      	cmp	r0, #3
   20f10:	d120      	bne.n	20f54 <_ZN20complex_dynamic_type3app17h17344ac39208109aE+0x13c>
   20f12:	4626      	mov	r6, r4
   20f14:	4815      	ldr	r0, [pc, #84]	@ (20f6c <_ZN20complex_dynamic_type3app17h17344ac39208109aE+0x154>)
   20f16:	2100      	movs	r1, #0
   20f18:	460a      	mov	r2, r1
   20f1a:	460b      	mov	r3, r1
   20f1c:	df03      	svc	3
   20f1e:	e005      	b.n	20f2c <_ZN20complex_dynamic_type3app17h17344ac39208109aE+0x114>
   20f20:	4626      	mov	r6, r4
   20f22:	4812      	ldr	r0, [pc, #72]	@ (20f6c <_ZN20complex_dynamic_type3app17h17344ac39208109aE+0x154>)
   20f24:	2100      	movs	r1, #0
   20f26:	460a      	mov	r2, r1
   20f28:	460b      	mov	r3, r1
   20f2a:	df04      	svc	4
   20f2c:	a804      	add	r0, sp, #16
   20f2e:	7804      	ldrb	r4, [r0, #0]
   20f30:	1c68      	adds	r0, r5, #1
   20f32:	2213      	movs	r2, #19
   20f34:	4631      	mov	r1, r6
   20f36:	f00a f8e5 	bl	2b104 <__aeabi_memcpy>
   20f3a:	9802      	ldr	r0, [sp, #8]
   20f3c:	7028      	strb	r0, [r5, #0]
   20f3e:	2c02      	cmp	r4, #2
   20f40:	d006      	beq.n	20f50 <_ZN20complex_dynamic_type3app17h17344ac39208109aE+0x138>
   20f42:	480a      	ldr	r0, [pc, #40]	@ (20f6c <_ZN20complex_dynamic_type3app17h17344ac39208109aE+0x154>)
   20f44:	2103      	movs	r1, #3
   20f46:	2200      	movs	r2, #0
   20f48:	4613      	mov	r3, r2
   20f4a:	2c04      	cmp	r4, #4
   20f4c:	d10b      	bne.n	20f66 <_ZN20complex_dynamic_type3app17h17344ac39208109aE+0x14e>
   20f4e:	df04      	svc	4
   20f50:	b00d      	add	sp, #52	@ 0x34
   20f52:	bdf0      	pop	{r4, r5, r6, r7, pc}
   20f54:	1c68      	adds	r0, r5, #1
   20f56:	2213      	movs	r2, #19
   20f58:	4621      	mov	r1, r4
   20f5a:	f00a f8d3 	bl	2b104 <__aeabi_memcpy>
   20f5e:	9802      	ldr	r0, [sp, #8]
   20f60:	7028      	strb	r0, [r5, #0]
   20f62:	b00d      	add	sp, #52	@ 0x34
   20f64:	bdf0      	pop	{r4, r5, r6, r7, pc}
   20f66:	df03      	svc	3
   20f68:	b00d      	add	sp, #52	@ 0x34
   20f6a:	bdf0      	pop	{r4, r5, r6, r7, pc}
   20f6c:	00001e4b 	.word	0x00001e4b

00020f70 <_ZN20complex_dynamic_type3app17h1998f12efd7fb3aeE>:
   20f70:	b5f0      	push	{r4, r5, r6, r7, lr}
   20f72:	af03      	add	r7, sp, #12
   20f74:	b095      	sub	sp, #84	@ 0x54
   20f76:	9003      	str	r0, [sp, #12]
   20f78:	a804      	add	r0, sp, #16
   20f7a:	2402      	movs	r4, #2
   20f7c:	7004      	strb	r4, [r0, #0]
   20f7e:	1c46      	adds	r6, r0, #1
   20f80:	2214      	movs	r2, #20
   20f82:	9202      	str	r2, [sp, #8]
   20f84:	4630      	mov	r0, r6
   20f86:	f00a f8bd 	bl	2b104 <__aeabi_memcpy>
   20f8a:	ad0a      	add	r5, sp, #40	@ 0x28
   20f8c:	1c68      	adds	r0, r5, #1
   20f8e:	212b      	movs	r1, #43	@ 0x2b
   20f90:	9001      	str	r0, [sp, #4]
   20f92:	f009 fef7 	bl	2ad84 <__aeabi_memclr>
   20f96:	9400      	str	r4, [sp, #0]
   20f98:	702c      	strb	r4, [r5, #0]
   20f9a:	4848      	ldr	r0, [pc, #288]	@ (210bc <_ZN20complex_dynamic_type3app17h1998f12efd7fb3aeE+0x14c>)
   20f9c:	2108      	movs	r1, #8
   20f9e:	4632      	mov	r2, r6
   20fa0:	9b02      	ldr	r3, [sp, #8]
   20fa2:	df04      	svc	4
   20fa4:	2802      	cmp	r0, #2
   20fa6:	d104      	bne.n	20fb2 <_ZN20complex_dynamic_type3app17h1998f12efd7fb3aeE+0x42>
   20fa8:	2001      	movs	r0, #1
   20faa:	9a03      	ldr	r2, [sp, #12]
   20fac:	7010      	strb	r0, [r2, #0]
   20fae:	6051      	str	r1, [r2, #4]
   20fb0:	e02c      	b.n	2100c <_ZN20complex_dynamic_type3app17h1998f12efd7fb3aeE+0x9c>
   20fb2:	9d03      	ldr	r5, [sp, #12]
   20fb4:	a804      	add	r0, sp, #16
   20fb6:	2104      	movs	r1, #4
   20fb8:	7001      	strb	r1, [r0, #0]
   20fba:	4840      	ldr	r0, [pc, #256]	@ (210bc <_ZN20complex_dynamic_type3app17h1998f12efd7fb3aeE+0x14c>)
   20fbc:	232b      	movs	r3, #43	@ 0x2b
   20fbe:	9c01      	ldr	r4, [sp, #4]
   20fc0:	4622      	mov	r2, r4
   20fc2:	df03      	svc	3
   20fc4:	2802      	cmp	r0, #2
   20fc6:	d10e      	bne.n	20fe6 <_ZN20complex_dynamic_type3app17h1998f12efd7fb3aeE+0x76>
   20fc8:	2001      	movs	r0, #1
   20fca:	7028      	strb	r0, [r5, #0]
   20fcc:	6069      	str	r1, [r5, #4]
   20fce:	a80a      	add	r0, sp, #40	@ 0x28
   20fd0:	7800      	ldrb	r0, [r0, #0]
   20fd2:	2802      	cmp	r0, #2
   20fd4:	d01a      	beq.n	2100c <_ZN20complex_dynamic_type3app17h1998f12efd7fb3aeE+0x9c>
   20fd6:	2803      	cmp	r0, #3
   20fd8:	d013      	beq.n	21002 <_ZN20complex_dynamic_type3app17h1998f12efd7fb3aeE+0x92>
   20fda:	4838      	ldr	r0, [pc, #224]	@ (210bc <_ZN20complex_dynamic_type3app17h1998f12efd7fb3aeE+0x14c>)
   20fdc:	2104      	movs	r1, #4
   20fde:	2200      	movs	r2, #0
   20fe0:	4613      	mov	r3, r2
   20fe2:	df04      	svc	4
   20fe4:	e012      	b.n	2100c <_ZN20complex_dynamic_type3app17h1998f12efd7fb3aeE+0x9c>
   20fe6:	a80a      	add	r0, sp, #40	@ 0x28
   20fe8:	2103      	movs	r1, #3
   20fea:	7001      	strb	r1, [r0, #0]
   20fec:	4833      	ldr	r0, [pc, #204]	@ (210bc <_ZN20complex_dynamic_type3app17h1998f12efd7fb3aeE+0x14c>)
   20fee:	2108      	movs	r1, #8
   20ff0:	2204      	movs	r2, #4
   20ff2:	2600      	movs	r6, #0
   20ff4:	4633      	mov	r3, r6
   20ff6:	df02      	svc	2
   20ff8:	2880      	cmp	r0, #128	@ 0x80
   20ffa:	d21b      	bcs.n	21034 <_ZN20complex_dynamic_type3app17h1998f12efd7fb3aeE+0xc4>
   20ffc:	2001      	movs	r0, #1
   20ffe:	7028      	strb	r0, [r5, #0]
   21000:	6069      	str	r1, [r5, #4]
   21002:	482e      	ldr	r0, [pc, #184]	@ (210bc <_ZN20complex_dynamic_type3app17h1998f12efd7fb3aeE+0x14c>)
   21004:	2104      	movs	r1, #4
   21006:	2200      	movs	r2, #0
   21008:	4613      	mov	r3, r2
   2100a:	df03      	svc	3
   2100c:	a804      	add	r0, sp, #16
   2100e:	7800      	ldrb	r0, [r0, #0]
   21010:	2802      	cmp	r0, #2
   21012:	d045      	beq.n	210a0 <_ZN20complex_dynamic_type3app17h1998f12efd7fb3aeE+0x130>
   21014:	2804      	cmp	r0, #4
   21016:	d106      	bne.n	21026 <_ZN20complex_dynamic_type3app17h1998f12efd7fb3aeE+0xb6>
   21018:	4828      	ldr	r0, [pc, #160]	@ (210bc <_ZN20complex_dynamic_type3app17h1998f12efd7fb3aeE+0x14c>)
   2101a:	2108      	movs	r1, #8
   2101c:	2200      	movs	r2, #0
   2101e:	4613      	mov	r3, r2
   21020:	df04      	svc	4
   21022:	b015      	add	sp, #84	@ 0x54
   21024:	bdf0      	pop	{r4, r5, r6, r7, pc}
   21026:	4825      	ldr	r0, [pc, #148]	@ (210bc <_ZN20complex_dynamic_type3app17h1998f12efd7fb3aeE+0x14c>)
   21028:	2108      	movs	r1, #8
   2102a:	2200      	movs	r2, #0
   2102c:	4613      	mov	r3, r2
   2102e:	df03      	svc	3
   21030:	b015      	add	sp, #84	@ 0x54
   21032:	bdf0      	pop	{r4, r5, r6, r7, pc}
   21034:	a804      	add	r0, sp, #16
   21036:	7800      	ldrb	r0, [r0, #0]
   21038:	2802      	cmp	r0, #2
   2103a:	d00c      	beq.n	21056 <_ZN20complex_dynamic_type3app17h1998f12efd7fb3aeE+0xe6>
   2103c:	2803      	cmp	r0, #3
   2103e:	d105      	bne.n	2104c <_ZN20complex_dynamic_type3app17h1998f12efd7fb3aeE+0xdc>
   21040:	481e      	ldr	r0, [pc, #120]	@ (210bc <_ZN20complex_dynamic_type3app17h1998f12efd7fb3aeE+0x14c>)
   21042:	2108      	movs	r1, #8
   21044:	2200      	movs	r2, #0
   21046:	4613      	mov	r3, r2
   21048:	df03      	svc	3
   2104a:	e004      	b.n	21056 <_ZN20complex_dynamic_type3app17h1998f12efd7fb3aeE+0xe6>
   2104c:	481b      	ldr	r0, [pc, #108]	@ (210bc <_ZN20complex_dynamic_type3app17h1998f12efd7fb3aeE+0x14c>)
   2104e:	2108      	movs	r1, #8
   21050:	2200      	movs	r2, #0
   21052:	4613      	mov	r3, r2
   21054:	df04      	svc	4
   21056:	a804      	add	r0, sp, #16
   21058:	9900      	ldr	r1, [sp, #0]
   2105a:	7001      	strb	r1, [r0, #0]
   2105c:	a80a      	add	r0, sp, #40	@ 0x28
   2105e:	7800      	ldrb	r0, [r0, #0]
   21060:	2804      	cmp	r0, #4
   21062:	d007      	beq.n	21074 <_ZN20complex_dynamic_type3app17h1998f12efd7fb3aeE+0x104>
   21064:	2803      	cmp	r0, #3
   21066:	d11d      	bne.n	210a4 <_ZN20complex_dynamic_type3app17h1998f12efd7fb3aeE+0x134>
   21068:	4814      	ldr	r0, [pc, #80]	@ (210bc <_ZN20complex_dynamic_type3app17h1998f12efd7fb3aeE+0x14c>)
   2106a:	2104      	movs	r1, #4
   2106c:	2200      	movs	r2, #0
   2106e:	4613      	mov	r3, r2
   21070:	df03      	svc	3
   21072:	e004      	b.n	2107e <_ZN20complex_dynamic_type3app17h1998f12efd7fb3aeE+0x10e>
   21074:	4811      	ldr	r0, [pc, #68]	@ (210bc <_ZN20complex_dynamic_type3app17h1998f12efd7fb3aeE+0x14c>)
   21076:	2104      	movs	r1, #4
   21078:	2200      	movs	r2, #0
   2107a:	4613      	mov	r3, r2
   2107c:	df04      	svc	4
   2107e:	a804      	add	r0, sp, #16
   21080:	7804      	ldrb	r4, [r0, #0]
   21082:	1c68      	adds	r0, r5, #1
   21084:	222b      	movs	r2, #43	@ 0x2b
   21086:	9901      	ldr	r1, [sp, #4]
   21088:	f00a f83c 	bl	2b104 <__aeabi_memcpy>
   2108c:	702e      	strb	r6, [r5, #0]
   2108e:	2c02      	cmp	r4, #2
   21090:	d006      	beq.n	210a0 <_ZN20complex_dynamic_type3app17h1998f12efd7fb3aeE+0x130>
   21092:	480a      	ldr	r0, [pc, #40]	@ (210bc <_ZN20complex_dynamic_type3app17h1998f12efd7fb3aeE+0x14c>)
   21094:	2108      	movs	r1, #8
   21096:	2200      	movs	r2, #0
   21098:	4613      	mov	r3, r2
   2109a:	2c04      	cmp	r4, #4
   2109c:	d10a      	bne.n	210b4 <_ZN20complex_dynamic_type3app17h1998f12efd7fb3aeE+0x144>
   2109e:	df04      	svc	4
   210a0:	b015      	add	sp, #84	@ 0x54
   210a2:	bdf0      	pop	{r4, r5, r6, r7, pc}
   210a4:	1c68      	adds	r0, r5, #1
   210a6:	222b      	movs	r2, #43	@ 0x2b
   210a8:	4621      	mov	r1, r4
   210aa:	f00a f82b 	bl	2b104 <__aeabi_memcpy>
   210ae:	702e      	strb	r6, [r5, #0]
   210b0:	b015      	add	sp, #84	@ 0x54
   210b2:	bdf0      	pop	{r4, r5, r6, r7, pc}
   210b4:	df03      	svc	3
   210b6:	b015      	add	sp, #84	@ 0x54
   210b8:	bdf0      	pop	{r4, r5, r6, r7, pc}
   210ba:	46c0      	nop			@ (mov r8, r8)
   210bc:	0000239f 	.word	0x0000239f

000210c0 <_ZN20complex_dynamic_type3app17h1eefdde76a31681fE>:
   210c0:	b5f0      	push	{r4, r5, r6, r7, lr}
   210c2:	af03      	add	r7, sp, #12
   210c4:	b09f      	sub	sp, #124	@ 0x7c
   210c6:	9002      	str	r0, [sp, #8]
   210c8:	a803      	add	r0, sp, #12
   210ca:	2602      	movs	r6, #2
   210cc:	7006      	strb	r6, [r0, #0]
   210ce:	1c40      	adds	r0, r0, #1
   210d0:	9001      	str	r0, [sp, #4]
   210d2:	2550      	movs	r5, #80	@ 0x50
   210d4:	462a      	mov	r2, r5
   210d6:	f00a f815 	bl	2b104 <__aeabi_memcpy>
   210da:	ac18      	add	r4, sp, #96	@ 0x60
   210dc:	1c60      	adds	r0, r4, #1
   210de:	211b      	movs	r1, #27
   210e0:	9000      	str	r0, [sp, #0]
   210e2:	f009 fe4f 	bl	2ad84 <__aeabi_memclr>
   210e6:	7026      	strb	r6, [r4, #0]
   210e8:	4848      	ldr	r0, [pc, #288]	@ (2120c <_ZN20complex_dynamic_type3app17h1eefdde76a31681fE+0x14c>)
   210ea:	2601      	movs	r6, #1
   210ec:	4631      	mov	r1, r6
   210ee:	9a01      	ldr	r2, [sp, #4]
   210f0:	462b      	mov	r3, r5
   210f2:	df04      	svc	4
   210f4:	2802      	cmp	r0, #2
   210f6:	d103      	bne.n	21100 <_ZN20complex_dynamic_type3app17h1eefdde76a31681fE+0x40>
   210f8:	9802      	ldr	r0, [sp, #8]
   210fa:	7006      	strb	r6, [r0, #0]
   210fc:	6041      	str	r1, [r0, #4]
   210fe:	e02c      	b.n	2115a <_ZN20complex_dynamic_type3app17h1eefdde76a31681fE+0x9a>
   21100:	9d02      	ldr	r5, [sp, #8]
   21102:	a803      	add	r0, sp, #12
   21104:	2104      	movs	r1, #4
   21106:	7001      	strb	r1, [r0, #0]
   21108:	4840      	ldr	r0, [pc, #256]	@ (2120c <_ZN20complex_dynamic_type3app17h1eefdde76a31681fE+0x14c>)
   2110a:	2102      	movs	r1, #2
   2110c:	231b      	movs	r3, #27
   2110e:	9a00      	ldr	r2, [sp, #0]
   21110:	df03      	svc	3
   21112:	2802      	cmp	r0, #2
   21114:	d10d      	bne.n	21132 <_ZN20complex_dynamic_type3app17h1eefdde76a31681fE+0x72>
   21116:	702e      	strb	r6, [r5, #0]
   21118:	6069      	str	r1, [r5, #4]
   2111a:	a818      	add	r0, sp, #96	@ 0x60
   2111c:	7800      	ldrb	r0, [r0, #0]
   2111e:	2802      	cmp	r0, #2
   21120:	d01b      	beq.n	2115a <_ZN20complex_dynamic_type3app17h1eefdde76a31681fE+0x9a>
   21122:	2803      	cmp	r0, #3
   21124:	d014      	beq.n	21150 <_ZN20complex_dynamic_type3app17h1eefdde76a31681fE+0x90>
   21126:	4839      	ldr	r0, [pc, #228]	@ (2120c <_ZN20complex_dynamic_type3app17h1eefdde76a31681fE+0x14c>)
   21128:	2102      	movs	r1, #2
   2112a:	2200      	movs	r2, #0
   2112c:	4613      	mov	r3, r2
   2112e:	df04      	svc	4
   21130:	e013      	b.n	2115a <_ZN20complex_dynamic_type3app17h1eefdde76a31681fE+0x9a>
   21132:	a818      	add	r0, sp, #96	@ 0x60
   21134:	2103      	movs	r1, #3
   21136:	7001      	strb	r1, [r0, #0]
   21138:	4834      	ldr	r0, [pc, #208]	@ (2120c <_ZN20complex_dynamic_type3app17h1eefdde76a31681fE+0x14c>)
   2113a:	2401      	movs	r4, #1
   2113c:	2602      	movs	r6, #2
   2113e:	2300      	movs	r3, #0
   21140:	4621      	mov	r1, r4
   21142:	4632      	mov	r2, r6
   21144:	9301      	str	r3, [sp, #4]
   21146:	df02      	svc	2
   21148:	2880      	cmp	r0, #128	@ 0x80
   2114a:	d21a      	bcs.n	21182 <_ZN20complex_dynamic_type3app17h1eefdde76a31681fE+0xc2>
   2114c:	702c      	strb	r4, [r5, #0]
   2114e:	6069      	str	r1, [r5, #4]
   21150:	482e      	ldr	r0, [pc, #184]	@ (2120c <_ZN20complex_dynamic_type3app17h1eefdde76a31681fE+0x14c>)
   21152:	2102      	movs	r1, #2
   21154:	2200      	movs	r2, #0
   21156:	4613      	mov	r3, r2
   21158:	df03      	svc	3
   2115a:	a803      	add	r0, sp, #12
   2115c:	7800      	ldrb	r0, [r0, #0]
   2115e:	2802      	cmp	r0, #2
   21160:	d045      	beq.n	211ee <_ZN20complex_dynamic_type3app17h1eefdde76a31681fE+0x12e>
   21162:	2804      	cmp	r0, #4
   21164:	d106      	bne.n	21174 <_ZN20complex_dynamic_type3app17h1eefdde76a31681fE+0xb4>
   21166:	4829      	ldr	r0, [pc, #164]	@ (2120c <_ZN20complex_dynamic_type3app17h1eefdde76a31681fE+0x14c>)
   21168:	2101      	movs	r1, #1
   2116a:	2200      	movs	r2, #0
   2116c:	4613      	mov	r3, r2
   2116e:	df04      	svc	4
   21170:	b01f      	add	sp, #124	@ 0x7c
   21172:	bdf0      	pop	{r4, r5, r6, r7, pc}
   21174:	4825      	ldr	r0, [pc, #148]	@ (2120c <_ZN20complex_dynamic_type3app17h1eefdde76a31681fE+0x14c>)
   21176:	2101      	movs	r1, #1
   21178:	2200      	movs	r2, #0
   2117a:	4613      	mov	r3, r2
   2117c:	df03      	svc	3
   2117e:	b01f      	add	sp, #124	@ 0x7c
   21180:	bdf0      	pop	{r4, r5, r6, r7, pc}
   21182:	a803      	add	r0, sp, #12
   21184:	7800      	ldrb	r0, [r0, #0]
   21186:	2802      	cmp	r0, #2
   21188:	d00c      	beq.n	211a4 <_ZN20complex_dynamic_type3app17h1eefdde76a31681fE+0xe4>
   2118a:	2803      	cmp	r0, #3
   2118c:	d105      	bne.n	2119a <_ZN20complex_dynamic_type3app17h1eefdde76a31681fE+0xda>
   2118e:	481f      	ldr	r0, [pc, #124]	@ (2120c <_ZN20complex_dynamic_type3app17h1eefdde76a31681fE+0x14c>)
   21190:	2101      	movs	r1, #1
   21192:	2200      	movs	r2, #0
   21194:	4613      	mov	r3, r2
   21196:	df03      	svc	3
   21198:	e004      	b.n	211a4 <_ZN20complex_dynamic_type3app17h1eefdde76a31681fE+0xe4>
   2119a:	481c      	ldr	r0, [pc, #112]	@ (2120c <_ZN20complex_dynamic_type3app17h1eefdde76a31681fE+0x14c>)
   2119c:	2101      	movs	r1, #1
   2119e:	2200      	movs	r2, #0
   211a0:	4613      	mov	r3, r2
   211a2:	df04      	svc	4
   211a4:	a803      	add	r0, sp, #12
   211a6:	7006      	strb	r6, [r0, #0]
   211a8:	a818      	add	r0, sp, #96	@ 0x60
   211aa:	7800      	ldrb	r0, [r0, #0]
   211ac:	2804      	cmp	r0, #4
   211ae:	d007      	beq.n	211c0 <_ZN20complex_dynamic_type3app17h1eefdde76a31681fE+0x100>
   211b0:	2803      	cmp	r0, #3
   211b2:	d11e      	bne.n	211f2 <_ZN20complex_dynamic_type3app17h1eefdde76a31681fE+0x132>
   211b4:	4815      	ldr	r0, [pc, #84]	@ (2120c <_ZN20complex_dynamic_type3app17h1eefdde76a31681fE+0x14c>)
   211b6:	2102      	movs	r1, #2
   211b8:	2200      	movs	r2, #0
   211ba:	4613      	mov	r3, r2
   211bc:	df03      	svc	3
   211be:	e004      	b.n	211ca <_ZN20complex_dynamic_type3app17h1eefdde76a31681fE+0x10a>
   211c0:	4812      	ldr	r0, [pc, #72]	@ (2120c <_ZN20complex_dynamic_type3app17h1eefdde76a31681fE+0x14c>)
   211c2:	2102      	movs	r1, #2
   211c4:	2200      	movs	r2, #0
   211c6:	4613      	mov	r3, r2
   211c8:	df04      	svc	4
   211ca:	a803      	add	r0, sp, #12
   211cc:	7804      	ldrb	r4, [r0, #0]
   211ce:	1c68      	adds	r0, r5, #1
   211d0:	221b      	movs	r2, #27
   211d2:	9900      	ldr	r1, [sp, #0]
   211d4:	f009 ff96 	bl	2b104 <__aeabi_memcpy>
   211d8:	9801      	ldr	r0, [sp, #4]
   211da:	7028      	strb	r0, [r5, #0]
   211dc:	2c02      	cmp	r4, #2
   211de:	d006      	beq.n	211ee <_ZN20complex_dynamic_type3app17h1eefdde76a31681fE+0x12e>
   211e0:	480a      	ldr	r0, [pc, #40]	@ (2120c <_ZN20complex_dynamic_type3app17h1eefdde76a31681fE+0x14c>)
   211e2:	2101      	movs	r1, #1
   211e4:	2200      	movs	r2, #0
   211e6:	4613      	mov	r3, r2
   211e8:	2c04      	cmp	r4, #4
   211ea:	d10b      	bne.n	21204 <_ZN20complex_dynamic_type3app17h1eefdde76a31681fE+0x144>
   211ec:	df04      	svc	4
   211ee:	b01f      	add	sp, #124	@ 0x7c
   211f0:	bdf0      	pop	{r4, r5, r6, r7, pc}
   211f2:	9900      	ldr	r1, [sp, #0]
   211f4:	1c68      	adds	r0, r5, #1
   211f6:	221b      	movs	r2, #27
   211f8:	f009 ff84 	bl	2b104 <__aeabi_memcpy>
   211fc:	9801      	ldr	r0, [sp, #4]
   211fe:	7028      	strb	r0, [r5, #0]
   21200:	b01f      	add	sp, #124	@ 0x7c
   21202:	bdf0      	pop	{r4, r5, r6, r7, pc}
   21204:	df03      	svc	3
   21206:	b01f      	add	sp, #124	@ 0x7c
   21208:	bdf0      	pop	{r4, r5, r6, r7, pc}
   2120a:	46c0      	nop			@ (mov r8, r8)
   2120c:	000003d9 	.word	0x000003d9

00021210 <_ZN20complex_dynamic_type3app17h1f0c9730bd57e90dE>:
   21210:	b5f0      	push	{r4, r5, r6, r7, lr}
   21212:	af03      	add	r7, sp, #12
   21214:	b0a9      	sub	sp, #164	@ 0xa4
   21216:	9004      	str	r0, [sp, #16]
   21218:	a805      	add	r0, sp, #20
   2121a:	2402      	movs	r4, #2
   2121c:	7004      	strb	r4, [r0, #0]
   2121e:	1c46      	adds	r6, r0, #1
   21220:	222a      	movs	r2, #42	@ 0x2a
   21222:	9203      	str	r2, [sp, #12]
   21224:	4630      	mov	r0, r6
   21226:	f009 ff6d 	bl	2b104 <__aeabi_memcpy>
   2122a:	ad10      	add	r5, sp, #64	@ 0x40
   2122c:	1c68      	adds	r0, r5, #1
   2122e:	2163      	movs	r1, #99	@ 0x63
   21230:	9002      	str	r0, [sp, #8]
   21232:	f009 fda7 	bl	2ad84 <__aeabi_memclr>
   21236:	9401      	str	r4, [sp, #4]
   21238:	702c      	strb	r4, [r5, #0]
   2123a:	4848      	ldr	r0, [pc, #288]	@ (2135c <_ZN20complex_dynamic_type3app17h1f0c9730bd57e90dE+0x14c>)
   2123c:	2504      	movs	r5, #4
   2123e:	4629      	mov	r1, r5
   21240:	4632      	mov	r2, r6
   21242:	9b03      	ldr	r3, [sp, #12]
   21244:	df04      	svc	4
   21246:	2802      	cmp	r0, #2
   21248:	d104      	bne.n	21254 <_ZN20complex_dynamic_type3app17h1f0c9730bd57e90dE+0x44>
   2124a:	2001      	movs	r0, #1
   2124c:	9a04      	ldr	r2, [sp, #16]
   2124e:	7010      	strb	r0, [r2, #0]
   21250:	6051      	str	r1, [r2, #4]
   21252:	e02c      	b.n	212ae <_ZN20complex_dynamic_type3app17h1f0c9730bd57e90dE+0x9e>
   21254:	9c04      	ldr	r4, [sp, #16]
   21256:	a805      	add	r0, sp, #20
   21258:	7005      	strb	r5, [r0, #0]
   2125a:	4840      	ldr	r0, [pc, #256]	@ (2135c <_ZN20complex_dynamic_type3app17h1f0c9730bd57e90dE+0x14c>)
   2125c:	2100      	movs	r1, #0
   2125e:	2363      	movs	r3, #99	@ 0x63
   21260:	9a02      	ldr	r2, [sp, #8]
   21262:	df03      	svc	3
   21264:	2802      	cmp	r0, #2
   21266:	d10e      	bne.n	21286 <_ZN20complex_dynamic_type3app17h1f0c9730bd57e90dE+0x76>
   21268:	2001      	movs	r0, #1
   2126a:	7020      	strb	r0, [r4, #0]
   2126c:	6061      	str	r1, [r4, #4]
   2126e:	a810      	add	r0, sp, #64	@ 0x40
   21270:	7800      	ldrb	r0, [r0, #0]
   21272:	2802      	cmp	r0, #2
   21274:	d01b      	beq.n	212ae <_ZN20complex_dynamic_type3app17h1f0c9730bd57e90dE+0x9e>
   21276:	2803      	cmp	r0, #3
   21278:	d014      	beq.n	212a4 <_ZN20complex_dynamic_type3app17h1f0c9730bd57e90dE+0x94>
   2127a:	4838      	ldr	r0, [pc, #224]	@ (2135c <_ZN20complex_dynamic_type3app17h1f0c9730bd57e90dE+0x14c>)
   2127c:	2100      	movs	r1, #0
   2127e:	460a      	mov	r2, r1
   21280:	460b      	mov	r3, r1
   21282:	df04      	svc	4
   21284:	e013      	b.n	212ae <_ZN20complex_dynamic_type3app17h1f0c9730bd57e90dE+0x9e>
   21286:	a810      	add	r0, sp, #64	@ 0x40
   21288:	2103      	movs	r1, #3
   2128a:	7001      	strb	r1, [r0, #0]
   2128c:	4833      	ldr	r0, [pc, #204]	@ (2135c <_ZN20complex_dynamic_type3app17h1f0c9730bd57e90dE+0x14c>)
   2128e:	2104      	movs	r1, #4
   21290:	2600      	movs	r6, #0
   21292:	4632      	mov	r2, r6
   21294:	4633      	mov	r3, r6
   21296:	df02      	svc	2
   21298:	2880      	cmp	r0, #128	@ 0x80
   2129a:	4625      	mov	r5, r4
   2129c:	d21b      	bcs.n	212d6 <_ZN20complex_dynamic_type3app17h1f0c9730bd57e90dE+0xc6>
   2129e:	2001      	movs	r0, #1
   212a0:	7028      	strb	r0, [r5, #0]
   212a2:	6069      	str	r1, [r5, #4]
   212a4:	482d      	ldr	r0, [pc, #180]	@ (2135c <_ZN20complex_dynamic_type3app17h1f0c9730bd57e90dE+0x14c>)
   212a6:	2100      	movs	r1, #0
   212a8:	460a      	mov	r2, r1
   212aa:	460b      	mov	r3, r1
   212ac:	df03      	svc	3
   212ae:	a805      	add	r0, sp, #20
   212b0:	7800      	ldrb	r0, [r0, #0]
   212b2:	2802      	cmp	r0, #2
   212b4:	d045      	beq.n	21342 <_ZN20complex_dynamic_type3app17h1f0c9730bd57e90dE+0x132>
   212b6:	2804      	cmp	r0, #4
   212b8:	d106      	bne.n	212c8 <_ZN20complex_dynamic_type3app17h1f0c9730bd57e90dE+0xb8>
   212ba:	4828      	ldr	r0, [pc, #160]	@ (2135c <_ZN20complex_dynamic_type3app17h1f0c9730bd57e90dE+0x14c>)
   212bc:	2104      	movs	r1, #4
   212be:	2200      	movs	r2, #0
   212c0:	4613      	mov	r3, r2
   212c2:	df04      	svc	4
   212c4:	b029      	add	sp, #164	@ 0xa4
   212c6:	bdf0      	pop	{r4, r5, r6, r7, pc}
   212c8:	4824      	ldr	r0, [pc, #144]	@ (2135c <_ZN20complex_dynamic_type3app17h1f0c9730bd57e90dE+0x14c>)
   212ca:	2104      	movs	r1, #4
   212cc:	2200      	movs	r2, #0
   212ce:	4613      	mov	r3, r2
   212d0:	df03      	svc	3
   212d2:	b029      	add	sp, #164	@ 0xa4
   212d4:	bdf0      	pop	{r4, r5, r6, r7, pc}
   212d6:	a805      	add	r0, sp, #20
   212d8:	7800      	ldrb	r0, [r0, #0]
   212da:	2802      	cmp	r0, #2
   212dc:	d00c      	beq.n	212f8 <_ZN20complex_dynamic_type3app17h1f0c9730bd57e90dE+0xe8>
   212de:	2803      	cmp	r0, #3
   212e0:	d105      	bne.n	212ee <_ZN20complex_dynamic_type3app17h1f0c9730bd57e90dE+0xde>
   212e2:	481e      	ldr	r0, [pc, #120]	@ (2135c <_ZN20complex_dynamic_type3app17h1f0c9730bd57e90dE+0x14c>)
   212e4:	2104      	movs	r1, #4
   212e6:	2200      	movs	r2, #0
   212e8:	4613      	mov	r3, r2
   212ea:	df03      	svc	3
   212ec:	e004      	b.n	212f8 <_ZN20complex_dynamic_type3app17h1f0c9730bd57e90dE+0xe8>
   212ee:	481b      	ldr	r0, [pc, #108]	@ (2135c <_ZN20complex_dynamic_type3app17h1f0c9730bd57e90dE+0x14c>)
   212f0:	2104      	movs	r1, #4
   212f2:	2200      	movs	r2, #0
   212f4:	4613      	mov	r3, r2
   212f6:	df04      	svc	4
   212f8:	a805      	add	r0, sp, #20
   212fa:	9901      	ldr	r1, [sp, #4]
   212fc:	7001      	strb	r1, [r0, #0]
   212fe:	a810      	add	r0, sp, #64	@ 0x40
   21300:	7800      	ldrb	r0, [r0, #0]
   21302:	2804      	cmp	r0, #4
   21304:	d007      	beq.n	21316 <_ZN20complex_dynamic_type3app17h1f0c9730bd57e90dE+0x106>
   21306:	2803      	cmp	r0, #3
   21308:	d11d      	bne.n	21346 <_ZN20complex_dynamic_type3app17h1f0c9730bd57e90dE+0x136>
   2130a:	4814      	ldr	r0, [pc, #80]	@ (2135c <_ZN20complex_dynamic_type3app17h1f0c9730bd57e90dE+0x14c>)
   2130c:	2100      	movs	r1, #0
   2130e:	460a      	mov	r2, r1
   21310:	460b      	mov	r3, r1
   21312:	df03      	svc	3
   21314:	e004      	b.n	21320 <_ZN20complex_dynamic_type3app17h1f0c9730bd57e90dE+0x110>
   21316:	4811      	ldr	r0, [pc, #68]	@ (2135c <_ZN20complex_dynamic_type3app17h1f0c9730bd57e90dE+0x14c>)
   21318:	2100      	movs	r1, #0
   2131a:	460a      	mov	r2, r1
   2131c:	460b      	mov	r3, r1
   2131e:	df04      	svc	4
   21320:	a805      	add	r0, sp, #20
   21322:	7804      	ldrb	r4, [r0, #0]
   21324:	1c68      	adds	r0, r5, #1
   21326:	2263      	movs	r2, #99	@ 0x63
   21328:	9902      	ldr	r1, [sp, #8]
   2132a:	f009 feeb 	bl	2b104 <__aeabi_memcpy>
   2132e:	702e      	strb	r6, [r5, #0]
   21330:	2c02      	cmp	r4, #2
   21332:	d006      	beq.n	21342 <_ZN20complex_dynamic_type3app17h1f0c9730bd57e90dE+0x132>
   21334:	4809      	ldr	r0, [pc, #36]	@ (2135c <_ZN20complex_dynamic_type3app17h1f0c9730bd57e90dE+0x14c>)
   21336:	2104      	movs	r1, #4
   21338:	2200      	movs	r2, #0
   2133a:	4613      	mov	r3, r2
   2133c:	2c04      	cmp	r4, #4
   2133e:	d10a      	bne.n	21356 <_ZN20complex_dynamic_type3app17h1f0c9730bd57e90dE+0x146>
   21340:	df04      	svc	4
   21342:	b029      	add	sp, #164	@ 0xa4
   21344:	bdf0      	pop	{r4, r5, r6, r7, pc}
   21346:	1c68      	adds	r0, r5, #1
   21348:	2263      	movs	r2, #99	@ 0x63
   2134a:	9902      	ldr	r1, [sp, #8]
   2134c:	f009 feda 	bl	2b104 <__aeabi_memcpy>
   21350:	702e      	strb	r6, [r5, #0]
   21352:	b029      	add	sp, #164	@ 0xa4
   21354:	bdf0      	pop	{r4, r5, r6, r7, pc}
   21356:	df03      	svc	3
   21358:	b029      	add	sp, #164	@ 0xa4
   2135a:	bdf0      	pop	{r4, r5, r6, r7, pc}
   2135c:	00001c7c 	.word	0x00001c7c

00021360 <_ZN20complex_dynamic_type3app17h20f7842a58b95296E>:
   21360:	b5f0      	push	{r4, r5, r6, r7, lr}
   21362:	af03      	add	r7, sp, #12
   21364:	b0a1      	sub	sp, #132	@ 0x84
   21366:	9002      	str	r0, [sp, #8]
   21368:	a803      	add	r0, sp, #12
   2136a:	2602      	movs	r6, #2
   2136c:	7006      	strb	r6, [r0, #0]
   2136e:	1c40      	adds	r0, r0, #1
   21370:	9001      	str	r0, [sp, #4]
   21372:	2521      	movs	r5, #33	@ 0x21
   21374:	462a      	mov	r2, r5
   21376:	f009 fec5 	bl	2b104 <__aeabi_memcpy>
   2137a:	ac0c      	add	r4, sp, #48	@ 0x30
   2137c:	1c60      	adds	r0, r4, #1
   2137e:	2153      	movs	r1, #83	@ 0x53
   21380:	9000      	str	r0, [sp, #0]
   21382:	f009 fcff 	bl	2ad84 <__aeabi_memclr>
   21386:	7026      	strb	r6, [r4, #0]
   21388:	484a      	ldr	r0, [pc, #296]	@ (214b4 <_ZN20complex_dynamic_type3app17h20f7842a58b95296E+0x154>)
   2138a:	4631      	mov	r1, r6
   2138c:	9a01      	ldr	r2, [sp, #4]
   2138e:	462b      	mov	r3, r5
   21390:	df04      	svc	4
   21392:	2802      	cmp	r0, #2
   21394:	d104      	bne.n	213a0 <_ZN20complex_dynamic_type3app17h20f7842a58b95296E+0x40>
   21396:	2001      	movs	r0, #1
   21398:	9a02      	ldr	r2, [sp, #8]
   2139a:	7010      	strb	r0, [r2, #0]
   2139c:	6051      	str	r1, [r2, #4]
   2139e:	e02e      	b.n	213fe <_ZN20complex_dynamic_type3app17h20f7842a58b95296E+0x9e>
   213a0:	9d02      	ldr	r5, [sp, #8]
   213a2:	a803      	add	r0, sp, #12
   213a4:	2104      	movs	r1, #4
   213a6:	7001      	strb	r1, [r0, #0]
   213a8:	4842      	ldr	r0, [pc, #264]	@ (214b4 <_ZN20complex_dynamic_type3app17h20f7842a58b95296E+0x154>)
   213aa:	2108      	movs	r1, #8
   213ac:	2353      	movs	r3, #83	@ 0x53
   213ae:	9c00      	ldr	r4, [sp, #0]
   213b0:	4622      	mov	r2, r4
   213b2:	df03      	svc	3
   213b4:	2802      	cmp	r0, #2
   213b6:	d10e      	bne.n	213d6 <_ZN20complex_dynamic_type3app17h20f7842a58b95296E+0x76>
   213b8:	2001      	movs	r0, #1
   213ba:	7028      	strb	r0, [r5, #0]
   213bc:	6069      	str	r1, [r5, #4]
   213be:	a80c      	add	r0, sp, #48	@ 0x30
   213c0:	7800      	ldrb	r0, [r0, #0]
   213c2:	2802      	cmp	r0, #2
   213c4:	d01b      	beq.n	213fe <_ZN20complex_dynamic_type3app17h20f7842a58b95296E+0x9e>
   213c6:	2803      	cmp	r0, #3
   213c8:	d014      	beq.n	213f4 <_ZN20complex_dynamic_type3app17h20f7842a58b95296E+0x94>
   213ca:	483a      	ldr	r0, [pc, #232]	@ (214b4 <_ZN20complex_dynamic_type3app17h20f7842a58b95296E+0x154>)
   213cc:	2108      	movs	r1, #8
   213ce:	2200      	movs	r2, #0
   213d0:	4613      	mov	r3, r2
   213d2:	df04      	svc	4
   213d4:	e013      	b.n	213fe <_ZN20complex_dynamic_type3app17h20f7842a58b95296E+0x9e>
   213d6:	a80c      	add	r0, sp, #48	@ 0x30
   213d8:	2103      	movs	r1, #3
   213da:	7001      	strb	r1, [r0, #0]
   213dc:	4835      	ldr	r0, [pc, #212]	@ (214b4 <_ZN20complex_dynamic_type3app17h20f7842a58b95296E+0x154>)
   213de:	2602      	movs	r6, #2
   213e0:	2208      	movs	r2, #8
   213e2:	2300      	movs	r3, #0
   213e4:	4631      	mov	r1, r6
   213e6:	9301      	str	r3, [sp, #4]
   213e8:	df02      	svc	2
   213ea:	2880      	cmp	r0, #128	@ 0x80
   213ec:	d21b      	bcs.n	21426 <_ZN20complex_dynamic_type3app17h20f7842a58b95296E+0xc6>
   213ee:	2001      	movs	r0, #1
   213f0:	7028      	strb	r0, [r5, #0]
   213f2:	6069      	str	r1, [r5, #4]
   213f4:	482f      	ldr	r0, [pc, #188]	@ (214b4 <_ZN20complex_dynamic_type3app17h20f7842a58b95296E+0x154>)
   213f6:	2108      	movs	r1, #8
   213f8:	2200      	movs	r2, #0
   213fa:	4613      	mov	r3, r2
   213fc:	df03      	svc	3
   213fe:	a803      	add	r0, sp, #12
   21400:	7800      	ldrb	r0, [r0, #0]
   21402:	2802      	cmp	r0, #2
   21404:	d047      	beq.n	21496 <_ZN20complex_dynamic_type3app17h20f7842a58b95296E+0x136>
   21406:	2804      	cmp	r0, #4
   21408:	d106      	bne.n	21418 <_ZN20complex_dynamic_type3app17h20f7842a58b95296E+0xb8>
   2140a:	482a      	ldr	r0, [pc, #168]	@ (214b4 <_ZN20complex_dynamic_type3app17h20f7842a58b95296E+0x154>)
   2140c:	2102      	movs	r1, #2
   2140e:	2200      	movs	r2, #0
   21410:	4613      	mov	r3, r2
   21412:	df04      	svc	4
   21414:	b021      	add	sp, #132	@ 0x84
   21416:	bdf0      	pop	{r4, r5, r6, r7, pc}
   21418:	4826      	ldr	r0, [pc, #152]	@ (214b4 <_ZN20complex_dynamic_type3app17h20f7842a58b95296E+0x154>)
   2141a:	2102      	movs	r1, #2
   2141c:	2200      	movs	r2, #0
   2141e:	4613      	mov	r3, r2
   21420:	df03      	svc	3
   21422:	b021      	add	sp, #132	@ 0x84
   21424:	bdf0      	pop	{r4, r5, r6, r7, pc}
   21426:	a803      	add	r0, sp, #12
   21428:	7800      	ldrb	r0, [r0, #0]
   2142a:	2802      	cmp	r0, #2
   2142c:	d00c      	beq.n	21448 <_ZN20complex_dynamic_type3app17h20f7842a58b95296E+0xe8>
   2142e:	2803      	cmp	r0, #3
   21430:	d105      	bne.n	2143e <_ZN20complex_dynamic_type3app17h20f7842a58b95296E+0xde>
   21432:	4820      	ldr	r0, [pc, #128]	@ (214b4 <_ZN20complex_dynamic_type3app17h20f7842a58b95296E+0x154>)
   21434:	2102      	movs	r1, #2
   21436:	2200      	movs	r2, #0
   21438:	4613      	mov	r3, r2
   2143a:	df03      	svc	3
   2143c:	e004      	b.n	21448 <_ZN20complex_dynamic_type3app17h20f7842a58b95296E+0xe8>
   2143e:	481d      	ldr	r0, [pc, #116]	@ (214b4 <_ZN20complex_dynamic_type3app17h20f7842a58b95296E+0x154>)
   21440:	2102      	movs	r1, #2
   21442:	2200      	movs	r2, #0
   21444:	4613      	mov	r3, r2
   21446:	df04      	svc	4
   21448:	a803      	add	r0, sp, #12
   2144a:	7006      	strb	r6, [r0, #0]
   2144c:	a80c      	add	r0, sp, #48	@ 0x30
   2144e:	7800      	ldrb	r0, [r0, #0]
   21450:	2804      	cmp	r0, #4
   21452:	d008      	beq.n	21466 <_ZN20complex_dynamic_type3app17h20f7842a58b95296E+0x106>
   21454:	2803      	cmp	r0, #3
   21456:	d120      	bne.n	2149a <_ZN20complex_dynamic_type3app17h20f7842a58b95296E+0x13a>
   21458:	4626      	mov	r6, r4
   2145a:	4816      	ldr	r0, [pc, #88]	@ (214b4 <_ZN20complex_dynamic_type3app17h20f7842a58b95296E+0x154>)
   2145c:	2108      	movs	r1, #8
   2145e:	2200      	movs	r2, #0
   21460:	4613      	mov	r3, r2
   21462:	df03      	svc	3
   21464:	e005      	b.n	21472 <_ZN20complex_dynamic_type3app17h20f7842a58b95296E+0x112>
   21466:	4626      	mov	r6, r4
   21468:	4812      	ldr	r0, [pc, #72]	@ (214b4 <_ZN20complex_dynamic_type3app17h20f7842a58b95296E+0x154>)
   2146a:	2108      	movs	r1, #8
   2146c:	2200      	movs	r2, #0
   2146e:	4613      	mov	r3, r2
   21470:	df04      	svc	4
   21472:	a803      	add	r0, sp, #12
   21474:	7804      	ldrb	r4, [r0, #0]
   21476:	1c68      	adds	r0, r5, #1
   21478:	2253      	movs	r2, #83	@ 0x53
   2147a:	4631      	mov	r1, r6
   2147c:	f009 fe42 	bl	2b104 <__aeabi_memcpy>
   21480:	9801      	ldr	r0, [sp, #4]
   21482:	7028      	strb	r0, [r5, #0]
   21484:	2c02      	cmp	r4, #2
   21486:	d006      	beq.n	21496 <_ZN20complex_dynamic_type3app17h20f7842a58b95296E+0x136>
   21488:	480a      	ldr	r0, [pc, #40]	@ (214b4 <_ZN20complex_dynamic_type3app17h20f7842a58b95296E+0x154>)
   2148a:	2102      	movs	r1, #2
   2148c:	2200      	movs	r2, #0
   2148e:	4613      	mov	r3, r2
   21490:	2c04      	cmp	r4, #4
   21492:	d10b      	bne.n	214ac <_ZN20complex_dynamic_type3app17h20f7842a58b95296E+0x14c>
   21494:	df04      	svc	4
   21496:	b021      	add	sp, #132	@ 0x84
   21498:	bdf0      	pop	{r4, r5, r6, r7, pc}
   2149a:	1c68      	adds	r0, r5, #1
   2149c:	2253      	movs	r2, #83	@ 0x53
   2149e:	4621      	mov	r1, r4
   214a0:	f009 fe30 	bl	2b104 <__aeabi_memcpy>
   214a4:	9801      	ldr	r0, [sp, #4]
   214a6:	7028      	strb	r0, [r5, #0]
   214a8:	b021      	add	sp, #132	@ 0x84
   214aa:	bdf0      	pop	{r4, r5, r6, r7, pc}
   214ac:	df03      	svc	3
   214ae:	b021      	add	sp, #132	@ 0x84
   214b0:	bdf0      	pop	{r4, r5, r6, r7, pc}
   214b2:	46c0      	nop			@ (mov r8, r8)
   214b4:	0000253e 	.word	0x0000253e

000214b8 <_ZN20complex_dynamic_type3app17h2295f5d8efed4b62E>:
   214b8:	b5f0      	push	{r4, r5, r6, r7, lr}
   214ba:	af03      	add	r7, sp, #12
   214bc:	b0a5      	sub	sp, #148	@ 0x94
   214be:	9004      	str	r0, [sp, #16]
   214c0:	a805      	add	r0, sp, #20
   214c2:	2402      	movs	r4, #2
   214c4:	7004      	strb	r4, [r0, #0]
   214c6:	1c46      	adds	r6, r0, #1
   214c8:	221b      	movs	r2, #27
   214ca:	9203      	str	r2, [sp, #12]
   214cc:	4630      	mov	r0, r6
   214ce:	f009 fe19 	bl	2b104 <__aeabi_memcpy>
   214d2:	ad0c      	add	r5, sp, #48	@ 0x30
   214d4:	1c68      	adds	r0, r5, #1
   214d6:	2163      	movs	r1, #99	@ 0x63
   214d8:	9002      	str	r0, [sp, #8]
   214da:	f009 fc53 	bl	2ad84 <__aeabi_memclr>
   214de:	9401      	str	r4, [sp, #4]
   214e0:	702c      	strb	r4, [r5, #0]
   214e2:	4848      	ldr	r0, [pc, #288]	@ (21604 <_ZN20complex_dynamic_type3app17h2295f5d8efed4b62E+0x14c>)
   214e4:	2103      	movs	r1, #3
   214e6:	4632      	mov	r2, r6
   214e8:	9b03      	ldr	r3, [sp, #12]
   214ea:	df04      	svc	4
   214ec:	2802      	cmp	r0, #2
   214ee:	d104      	bne.n	214fa <_ZN20complex_dynamic_type3app17h2295f5d8efed4b62E+0x42>
   214f0:	2001      	movs	r0, #1
   214f2:	9a04      	ldr	r2, [sp, #16]
   214f4:	7010      	strb	r0, [r2, #0]
   214f6:	6051      	str	r1, [r2, #4]
   214f8:	e02c      	b.n	21554 <_ZN20complex_dynamic_type3app17h2295f5d8efed4b62E+0x9c>
   214fa:	9d04      	ldr	r5, [sp, #16]
   214fc:	a805      	add	r0, sp, #20
   214fe:	2104      	movs	r1, #4
   21500:	7001      	strb	r1, [r0, #0]
   21502:	4840      	ldr	r0, [pc, #256]	@ (21604 <_ZN20complex_dynamic_type3app17h2295f5d8efed4b62E+0x14c>)
   21504:	2403      	movs	r4, #3
   21506:	2363      	movs	r3, #99	@ 0x63
   21508:	4621      	mov	r1, r4
   2150a:	9a02      	ldr	r2, [sp, #8]
   2150c:	df03      	svc	3
   2150e:	2802      	cmp	r0, #2
   21510:	d10e      	bne.n	21530 <_ZN20complex_dynamic_type3app17h2295f5d8efed4b62E+0x78>
   21512:	2001      	movs	r0, #1
   21514:	7028      	strb	r0, [r5, #0]
   21516:	6069      	str	r1, [r5, #4]
   21518:	a80c      	add	r0, sp, #48	@ 0x30
   2151a:	7800      	ldrb	r0, [r0, #0]
   2151c:	2802      	cmp	r0, #2
   2151e:	d019      	beq.n	21554 <_ZN20complex_dynamic_type3app17h2295f5d8efed4b62E+0x9c>
   21520:	2803      	cmp	r0, #3
   21522:	d012      	beq.n	2154a <_ZN20complex_dynamic_type3app17h2295f5d8efed4b62E+0x92>
   21524:	4837      	ldr	r0, [pc, #220]	@ (21604 <_ZN20complex_dynamic_type3app17h2295f5d8efed4b62E+0x14c>)
   21526:	2103      	movs	r1, #3
   21528:	2200      	movs	r2, #0
   2152a:	4613      	mov	r3, r2
   2152c:	df04      	svc	4
   2152e:	e011      	b.n	21554 <_ZN20complex_dynamic_type3app17h2295f5d8efed4b62E+0x9c>
   21530:	a80c      	add	r0, sp, #48	@ 0x30
   21532:	7004      	strb	r4, [r0, #0]
   21534:	4833      	ldr	r0, [pc, #204]	@ (21604 <_ZN20complex_dynamic_type3app17h2295f5d8efed4b62E+0x14c>)
   21536:	2600      	movs	r6, #0
   21538:	4621      	mov	r1, r4
   2153a:	4622      	mov	r2, r4
   2153c:	4633      	mov	r3, r6
   2153e:	df02      	svc	2
   21540:	2880      	cmp	r0, #128	@ 0x80
   21542:	d21b      	bcs.n	2157c <_ZN20complex_dynamic_type3app17h2295f5d8efed4b62E+0xc4>
   21544:	2001      	movs	r0, #1
   21546:	7028      	strb	r0, [r5, #0]
   21548:	6069      	str	r1, [r5, #4]
   2154a:	482e      	ldr	r0, [pc, #184]	@ (21604 <_ZN20complex_dynamic_type3app17h2295f5d8efed4b62E+0x14c>)
   2154c:	2103      	movs	r1, #3
   2154e:	2200      	movs	r2, #0
   21550:	4613      	mov	r3, r2
   21552:	df03      	svc	3
   21554:	a805      	add	r0, sp, #20
   21556:	7800      	ldrb	r0, [r0, #0]
   21558:	2802      	cmp	r0, #2
   2155a:	d045      	beq.n	215e8 <_ZN20complex_dynamic_type3app17h2295f5d8efed4b62E+0x130>
   2155c:	2804      	cmp	r0, #4
   2155e:	d106      	bne.n	2156e <_ZN20complex_dynamic_type3app17h2295f5d8efed4b62E+0xb6>
   21560:	4828      	ldr	r0, [pc, #160]	@ (21604 <_ZN20complex_dynamic_type3app17h2295f5d8efed4b62E+0x14c>)
   21562:	2103      	movs	r1, #3
   21564:	2200      	movs	r2, #0
   21566:	4613      	mov	r3, r2
   21568:	df04      	svc	4
   2156a:	b025      	add	sp, #148	@ 0x94
   2156c:	bdf0      	pop	{r4, r5, r6, r7, pc}
   2156e:	4825      	ldr	r0, [pc, #148]	@ (21604 <_ZN20complex_dynamic_type3app17h2295f5d8efed4b62E+0x14c>)
   21570:	2103      	movs	r1, #3
   21572:	2200      	movs	r2, #0
   21574:	4613      	mov	r3, r2
   21576:	df03      	svc	3
   21578:	b025      	add	sp, #148	@ 0x94
   2157a:	bdf0      	pop	{r4, r5, r6, r7, pc}
   2157c:	a805      	add	r0, sp, #20
   2157e:	7800      	ldrb	r0, [r0, #0]
   21580:	2802      	cmp	r0, #2
   21582:	d00c      	beq.n	2159e <_ZN20complex_dynamic_type3app17h2295f5d8efed4b62E+0xe6>
   21584:	2803      	cmp	r0, #3
   21586:	d105      	bne.n	21594 <_ZN20complex_dynamic_type3app17h2295f5d8efed4b62E+0xdc>
   21588:	481e      	ldr	r0, [pc, #120]	@ (21604 <_ZN20complex_dynamic_type3app17h2295f5d8efed4b62E+0x14c>)
   2158a:	2103      	movs	r1, #3
   2158c:	2200      	movs	r2, #0
   2158e:	4613      	mov	r3, r2
   21590:	df03      	svc	3
   21592:	e004      	b.n	2159e <_ZN20complex_dynamic_type3app17h2295f5d8efed4b62E+0xe6>
   21594:	481b      	ldr	r0, [pc, #108]	@ (21604 <_ZN20complex_dynamic_type3app17h2295f5d8efed4b62E+0x14c>)
   21596:	2103      	movs	r1, #3
   21598:	2200      	movs	r2, #0
   2159a:	4613      	mov	r3, r2
   2159c:	df04      	svc	4
   2159e:	a805      	add	r0, sp, #20
   215a0:	9901      	ldr	r1, [sp, #4]
   215a2:	7001      	strb	r1, [r0, #0]
   215a4:	a80c      	add	r0, sp, #48	@ 0x30
   215a6:	7800      	ldrb	r0, [r0, #0]
   215a8:	2804      	cmp	r0, #4
   215aa:	d007      	beq.n	215bc <_ZN20complex_dynamic_type3app17h2295f5d8efed4b62E+0x104>
   215ac:	2803      	cmp	r0, #3
   215ae:	d11d      	bne.n	215ec <_ZN20complex_dynamic_type3app17h2295f5d8efed4b62E+0x134>
   215b0:	4814      	ldr	r0, [pc, #80]	@ (21604 <_ZN20complex_dynamic_type3app17h2295f5d8efed4b62E+0x14c>)
   215b2:	2103      	movs	r1, #3
   215b4:	2200      	movs	r2, #0
   215b6:	4613      	mov	r3, r2
   215b8:	df03      	svc	3
   215ba:	e004      	b.n	215c6 <_ZN20complex_dynamic_type3app17h2295f5d8efed4b62E+0x10e>
   215bc:	4811      	ldr	r0, [pc, #68]	@ (21604 <_ZN20complex_dynamic_type3app17h2295f5d8efed4b62E+0x14c>)
   215be:	2103      	movs	r1, #3
   215c0:	2200      	movs	r2, #0
   215c2:	4613      	mov	r3, r2
   215c4:	df04      	svc	4
   215c6:	a805      	add	r0, sp, #20
   215c8:	7804      	ldrb	r4, [r0, #0]
   215ca:	1c68      	adds	r0, r5, #1
   215cc:	2263      	movs	r2, #99	@ 0x63
   215ce:	9902      	ldr	r1, [sp, #8]
   215d0:	f009 fd98 	bl	2b104 <__aeabi_memcpy>
   215d4:	702e      	strb	r6, [r5, #0]
   215d6:	2c02      	cmp	r4, #2
   215d8:	d006      	beq.n	215e8 <_ZN20complex_dynamic_type3app17h2295f5d8efed4b62E+0x130>
   215da:	480a      	ldr	r0, [pc, #40]	@ (21604 <_ZN20complex_dynamic_type3app17h2295f5d8efed4b62E+0x14c>)
   215dc:	2103      	movs	r1, #3
   215de:	2200      	movs	r2, #0
   215e0:	4613      	mov	r3, r2
   215e2:	2c04      	cmp	r4, #4
   215e4:	d10a      	bne.n	215fc <_ZN20complex_dynamic_type3app17h2295f5d8efed4b62E+0x144>
   215e6:	df04      	svc	4
   215e8:	b025      	add	sp, #148	@ 0x94
   215ea:	bdf0      	pop	{r4, r5, r6, r7, pc}
   215ec:	1c68      	adds	r0, r5, #1
   215ee:	2263      	movs	r2, #99	@ 0x63
   215f0:	9902      	ldr	r1, [sp, #8]
   215f2:	f009 fd87 	bl	2b104 <__aeabi_memcpy>
   215f6:	702e      	strb	r6, [r5, #0]
   215f8:	b025      	add	sp, #148	@ 0x94
   215fa:	bdf0      	pop	{r4, r5, r6, r7, pc}
   215fc:	df03      	svc	3
   215fe:	b025      	add	sp, #148	@ 0x94
   21600:	bdf0      	pop	{r4, r5, r6, r7, pc}
   21602:	46c0      	nop			@ (mov r8, r8)
   21604:	00002548 	.word	0x00002548

00021608 <_ZN20complex_dynamic_type3app17h25ea7601bd2fc8e1E>:
   21608:	b5f0      	push	{r4, r5, r6, r7, lr}
   2160a:	af03      	add	r7, sp, #12
   2160c:	b09b      	sub	sp, #108	@ 0x6c
   2160e:	9004      	str	r0, [sp, #16]
   21610:	a805      	add	r0, sp, #20
   21612:	2402      	movs	r4, #2
   21614:	7004      	strb	r4, [r0, #0]
   21616:	1c46      	adds	r6, r0, #1
   21618:	2224      	movs	r2, #36	@ 0x24
   2161a:	9203      	str	r2, [sp, #12]
   2161c:	4630      	mov	r0, r6
   2161e:	f009 fd71 	bl	2b104 <__aeabi_memcpy>
   21622:	ad0f      	add	r5, sp, #60	@ 0x3c
   21624:	1c68      	adds	r0, r5, #1
   21626:	212f      	movs	r1, #47	@ 0x2f
   21628:	9002      	str	r0, [sp, #8]
   2162a:	f009 fbab 	bl	2ad84 <__aeabi_memclr>
   2162e:	9401      	str	r4, [sp, #4]
   21630:	702c      	strb	r4, [r5, #0]
   21632:	4848      	ldr	r0, [pc, #288]	@ (21754 <_ZN20complex_dynamic_type3app17h25ea7601bd2fc8e1E+0x14c>)
   21634:	2106      	movs	r1, #6
   21636:	4632      	mov	r2, r6
   21638:	9b03      	ldr	r3, [sp, #12]
   2163a:	df04      	svc	4
   2163c:	2802      	cmp	r0, #2
   2163e:	d104      	bne.n	2164a <_ZN20complex_dynamic_type3app17h25ea7601bd2fc8e1E+0x42>
   21640:	2001      	movs	r0, #1
   21642:	9a04      	ldr	r2, [sp, #16]
   21644:	7010      	strb	r0, [r2, #0]
   21646:	6051      	str	r1, [r2, #4]
   21648:	e02d      	b.n	216a6 <_ZN20complex_dynamic_type3app17h25ea7601bd2fc8e1E+0x9e>
   2164a:	9d04      	ldr	r5, [sp, #16]
   2164c:	a805      	add	r0, sp, #20
   2164e:	2104      	movs	r1, #4
   21650:	7001      	strb	r1, [r0, #0]
   21652:	4840      	ldr	r0, [pc, #256]	@ (21754 <_ZN20complex_dynamic_type3app17h25ea7601bd2fc8e1E+0x14c>)
   21654:	2109      	movs	r1, #9
   21656:	232f      	movs	r3, #47	@ 0x2f
   21658:	9c02      	ldr	r4, [sp, #8]
   2165a:	4622      	mov	r2, r4
   2165c:	df03      	svc	3
   2165e:	2802      	cmp	r0, #2
   21660:	d10e      	bne.n	21680 <_ZN20complex_dynamic_type3app17h25ea7601bd2fc8e1E+0x78>
   21662:	2001      	movs	r0, #1
   21664:	7028      	strb	r0, [r5, #0]
   21666:	6069      	str	r1, [r5, #4]
   21668:	a80f      	add	r0, sp, #60	@ 0x3c
   2166a:	7800      	ldrb	r0, [r0, #0]
   2166c:	2802      	cmp	r0, #2
   2166e:	d01a      	beq.n	216a6 <_ZN20complex_dynamic_type3app17h25ea7601bd2fc8e1E+0x9e>
   21670:	2803      	cmp	r0, #3
   21672:	d013      	beq.n	2169c <_ZN20complex_dynamic_type3app17h25ea7601bd2fc8e1E+0x94>
   21674:	4837      	ldr	r0, [pc, #220]	@ (21754 <_ZN20complex_dynamic_type3app17h25ea7601bd2fc8e1E+0x14c>)
   21676:	2109      	movs	r1, #9
   21678:	2200      	movs	r2, #0
   2167a:	4613      	mov	r3, r2
   2167c:	df04      	svc	4
   2167e:	e012      	b.n	216a6 <_ZN20complex_dynamic_type3app17h25ea7601bd2fc8e1E+0x9e>
   21680:	a80f      	add	r0, sp, #60	@ 0x3c
   21682:	2103      	movs	r1, #3
   21684:	7001      	strb	r1, [r0, #0]
   21686:	4833      	ldr	r0, [pc, #204]	@ (21754 <_ZN20complex_dynamic_type3app17h25ea7601bd2fc8e1E+0x14c>)
   21688:	2106      	movs	r1, #6
   2168a:	2209      	movs	r2, #9
   2168c:	2600      	movs	r6, #0
   2168e:	4633      	mov	r3, r6
   21690:	df02      	svc	2
   21692:	2880      	cmp	r0, #128	@ 0x80
   21694:	d21b      	bcs.n	216ce <_ZN20complex_dynamic_type3app17h25ea7601bd2fc8e1E+0xc6>
   21696:	2001      	movs	r0, #1
   21698:	7028      	strb	r0, [r5, #0]
   2169a:	6069      	str	r1, [r5, #4]
   2169c:	482d      	ldr	r0, [pc, #180]	@ (21754 <_ZN20complex_dynamic_type3app17h25ea7601bd2fc8e1E+0x14c>)
   2169e:	2109      	movs	r1, #9
   216a0:	2200      	movs	r2, #0
   216a2:	4613      	mov	r3, r2
   216a4:	df03      	svc	3
   216a6:	a805      	add	r0, sp, #20
   216a8:	7800      	ldrb	r0, [r0, #0]
   216aa:	2802      	cmp	r0, #2
   216ac:	d045      	beq.n	2173a <_ZN20complex_dynamic_type3app17h25ea7601bd2fc8e1E+0x132>
   216ae:	2804      	cmp	r0, #4
   216b0:	d106      	bne.n	216c0 <_ZN20complex_dynamic_type3app17h25ea7601bd2fc8e1E+0xb8>
   216b2:	4828      	ldr	r0, [pc, #160]	@ (21754 <_ZN20complex_dynamic_type3app17h25ea7601bd2fc8e1E+0x14c>)
   216b4:	2106      	movs	r1, #6
   216b6:	2200      	movs	r2, #0
   216b8:	4613      	mov	r3, r2
   216ba:	df04      	svc	4
   216bc:	b01b      	add	sp, #108	@ 0x6c
   216be:	bdf0      	pop	{r4, r5, r6, r7, pc}
   216c0:	4824      	ldr	r0, [pc, #144]	@ (21754 <_ZN20complex_dynamic_type3app17h25ea7601bd2fc8e1E+0x14c>)
   216c2:	2106      	movs	r1, #6
   216c4:	2200      	movs	r2, #0
   216c6:	4613      	mov	r3, r2
   216c8:	df03      	svc	3
   216ca:	b01b      	add	sp, #108	@ 0x6c
   216cc:	bdf0      	pop	{r4, r5, r6, r7, pc}
   216ce:	a805      	add	r0, sp, #20
   216d0:	7800      	ldrb	r0, [r0, #0]
   216d2:	2802      	cmp	r0, #2
   216d4:	d00c      	beq.n	216f0 <_ZN20complex_dynamic_type3app17h25ea7601bd2fc8e1E+0xe8>
   216d6:	2803      	cmp	r0, #3
   216d8:	d105      	bne.n	216e6 <_ZN20complex_dynamic_type3app17h25ea7601bd2fc8e1E+0xde>
   216da:	481e      	ldr	r0, [pc, #120]	@ (21754 <_ZN20complex_dynamic_type3app17h25ea7601bd2fc8e1E+0x14c>)
   216dc:	2106      	movs	r1, #6
   216de:	2200      	movs	r2, #0
   216e0:	4613      	mov	r3, r2
   216e2:	df03      	svc	3
   216e4:	e004      	b.n	216f0 <_ZN20complex_dynamic_type3app17h25ea7601bd2fc8e1E+0xe8>
   216e6:	481b      	ldr	r0, [pc, #108]	@ (21754 <_ZN20complex_dynamic_type3app17h25ea7601bd2fc8e1E+0x14c>)
   216e8:	2106      	movs	r1, #6
   216ea:	2200      	movs	r2, #0
   216ec:	4613      	mov	r3, r2
   216ee:	df04      	svc	4
   216f0:	a805      	add	r0, sp, #20
   216f2:	9901      	ldr	r1, [sp, #4]
   216f4:	7001      	strb	r1, [r0, #0]
   216f6:	a80f      	add	r0, sp, #60	@ 0x3c
   216f8:	7800      	ldrb	r0, [r0, #0]
   216fa:	2804      	cmp	r0, #4
   216fc:	d007      	beq.n	2170e <_ZN20complex_dynamic_type3app17h25ea7601bd2fc8e1E+0x106>
   216fe:	2803      	cmp	r0, #3
   21700:	d11d      	bne.n	2173e <_ZN20complex_dynamic_type3app17h25ea7601bd2fc8e1E+0x136>
   21702:	4814      	ldr	r0, [pc, #80]	@ (21754 <_ZN20complex_dynamic_type3app17h25ea7601bd2fc8e1E+0x14c>)
   21704:	2109      	movs	r1, #9
   21706:	2200      	movs	r2, #0
   21708:	4613      	mov	r3, r2
   2170a:	df03      	svc	3
   2170c:	e004      	b.n	21718 <_ZN20complex_dynamic_type3app17h25ea7601bd2fc8e1E+0x110>
   2170e:	4811      	ldr	r0, [pc, #68]	@ (21754 <_ZN20complex_dynamic_type3app17h25ea7601bd2fc8e1E+0x14c>)
   21710:	2109      	movs	r1, #9
   21712:	2200      	movs	r2, #0
   21714:	4613      	mov	r3, r2
   21716:	df04      	svc	4
   21718:	a805      	add	r0, sp, #20
   2171a:	7804      	ldrb	r4, [r0, #0]
   2171c:	1c68      	adds	r0, r5, #1
   2171e:	222f      	movs	r2, #47	@ 0x2f
   21720:	9902      	ldr	r1, [sp, #8]
   21722:	f009 fcef 	bl	2b104 <__aeabi_memcpy>
   21726:	702e      	strb	r6, [r5, #0]
   21728:	2c02      	cmp	r4, #2
   2172a:	d006      	beq.n	2173a <_ZN20complex_dynamic_type3app17h25ea7601bd2fc8e1E+0x132>
   2172c:	4809      	ldr	r0, [pc, #36]	@ (21754 <_ZN20complex_dynamic_type3app17h25ea7601bd2fc8e1E+0x14c>)
   2172e:	2106      	movs	r1, #6
   21730:	2200      	movs	r2, #0
   21732:	4613      	mov	r3, r2
   21734:	2c04      	cmp	r4, #4
   21736:	d10a      	bne.n	2174e <_ZN20complex_dynamic_type3app17h25ea7601bd2fc8e1E+0x146>
   21738:	df04      	svc	4
   2173a:	b01b      	add	sp, #108	@ 0x6c
   2173c:	bdf0      	pop	{r4, r5, r6, r7, pc}
   2173e:	1c68      	adds	r0, r5, #1
   21740:	222f      	movs	r2, #47	@ 0x2f
   21742:	4621      	mov	r1, r4
   21744:	f009 fcde 	bl	2b104 <__aeabi_memcpy>
   21748:	702e      	strb	r6, [r5, #0]
   2174a:	b01b      	add	sp, #108	@ 0x6c
   2174c:	bdf0      	pop	{r4, r5, r6, r7, pc}
   2174e:	df03      	svc	3
   21750:	b01b      	add	sp, #108	@ 0x6c
   21752:	bdf0      	pop	{r4, r5, r6, r7, pc}
   21754:	00001273 	.word	0x00001273

00021758 <_ZN20complex_dynamic_type3app17h2cf2a07544c470c5E>:
   21758:	b5f0      	push	{r4, r5, r6, r7, lr}
   2175a:	af03      	add	r7, sp, #12
   2175c:	b095      	sub	sp, #84	@ 0x54
   2175e:	9003      	str	r0, [sp, #12]
   21760:	a804      	add	r0, sp, #16
   21762:	2402      	movs	r4, #2
   21764:	7004      	strb	r4, [r0, #0]
   21766:	1c46      	adds	r6, r0, #1
   21768:	221e      	movs	r2, #30
   2176a:	9202      	str	r2, [sp, #8]
   2176c:	4630      	mov	r0, r6
   2176e:	f009 fcc9 	bl	2b104 <__aeabi_memcpy>
   21772:	ad0c      	add	r5, sp, #48	@ 0x30
   21774:	1c68      	adds	r0, r5, #1
   21776:	2121      	movs	r1, #33	@ 0x21
   21778:	9001      	str	r0, [sp, #4]
   2177a:	f009 fb03 	bl	2ad84 <__aeabi_memclr>
   2177e:	9400      	str	r4, [sp, #0]
   21780:	702c      	strb	r4, [r5, #0]
   21782:	4848      	ldr	r0, [pc, #288]	@ (218a4 <_ZN20complex_dynamic_type3app17h2cf2a07544c470c5E+0x14c>)
   21784:	2106      	movs	r1, #6
   21786:	4632      	mov	r2, r6
   21788:	9b02      	ldr	r3, [sp, #8]
   2178a:	df04      	svc	4
   2178c:	2802      	cmp	r0, #2
   2178e:	d104      	bne.n	2179a <_ZN20complex_dynamic_type3app17h2cf2a07544c470c5E+0x42>
   21790:	2001      	movs	r0, #1
   21792:	9a03      	ldr	r2, [sp, #12]
   21794:	7010      	strb	r0, [r2, #0]
   21796:	6051      	str	r1, [r2, #4]
   21798:	e02d      	b.n	217f6 <_ZN20complex_dynamic_type3app17h2cf2a07544c470c5E+0x9e>
   2179a:	9d03      	ldr	r5, [sp, #12]
   2179c:	a804      	add	r0, sp, #16
   2179e:	2104      	movs	r1, #4
   217a0:	7001      	strb	r1, [r0, #0]
   217a2:	4840      	ldr	r0, [pc, #256]	@ (218a4 <_ZN20complex_dynamic_type3app17h2cf2a07544c470c5E+0x14c>)
   217a4:	2109      	movs	r1, #9
   217a6:	2321      	movs	r3, #33	@ 0x21
   217a8:	9c01      	ldr	r4, [sp, #4]
   217aa:	4622      	mov	r2, r4
   217ac:	df03      	svc	3
   217ae:	2802      	cmp	r0, #2
   217b0:	d10e      	bne.n	217d0 <_ZN20complex_dynamic_type3app17h2cf2a07544c470c5E+0x78>
   217b2:	2001      	movs	r0, #1
   217b4:	7028      	strb	r0, [r5, #0]
   217b6:	6069      	str	r1, [r5, #4]
   217b8:	a80c      	add	r0, sp, #48	@ 0x30
   217ba:	7800      	ldrb	r0, [r0, #0]
   217bc:	2802      	cmp	r0, #2
   217be:	d01a      	beq.n	217f6 <_ZN20complex_dynamic_type3app17h2cf2a07544c470c5E+0x9e>
   217c0:	2803      	cmp	r0, #3
   217c2:	d013      	beq.n	217ec <_ZN20complex_dynamic_type3app17h2cf2a07544c470c5E+0x94>
   217c4:	4837      	ldr	r0, [pc, #220]	@ (218a4 <_ZN20complex_dynamic_type3app17h2cf2a07544c470c5E+0x14c>)
   217c6:	2109      	movs	r1, #9
   217c8:	2200      	movs	r2, #0
   217ca:	4613      	mov	r3, r2
   217cc:	df04      	svc	4
   217ce:	e012      	b.n	217f6 <_ZN20complex_dynamic_type3app17h2cf2a07544c470c5E+0x9e>
   217d0:	a80c      	add	r0, sp, #48	@ 0x30
   217d2:	2103      	movs	r1, #3
   217d4:	7001      	strb	r1, [r0, #0]
   217d6:	4833      	ldr	r0, [pc, #204]	@ (218a4 <_ZN20complex_dynamic_type3app17h2cf2a07544c470c5E+0x14c>)
   217d8:	2106      	movs	r1, #6
   217da:	2209      	movs	r2, #9
   217dc:	2600      	movs	r6, #0
   217de:	4633      	mov	r3, r6
   217e0:	df02      	svc	2
   217e2:	2880      	cmp	r0, #128	@ 0x80
   217e4:	d21b      	bcs.n	2181e <_ZN20complex_dynamic_type3app17h2cf2a07544c470c5E+0xc6>
   217e6:	2001      	movs	r0, #1
   217e8:	7028      	strb	r0, [r5, #0]
   217ea:	6069      	str	r1, [r5, #4]
   217ec:	482d      	ldr	r0, [pc, #180]	@ (218a4 <_ZN20complex_dynamic_type3app17h2cf2a07544c470c5E+0x14c>)
   217ee:	2109      	movs	r1, #9
   217f0:	2200      	movs	r2, #0
   217f2:	4613      	mov	r3, r2
   217f4:	df03      	svc	3
   217f6:	a804      	add	r0, sp, #16
   217f8:	7800      	ldrb	r0, [r0, #0]
   217fa:	2802      	cmp	r0, #2
   217fc:	d045      	beq.n	2188a <_ZN20complex_dynamic_type3app17h2cf2a07544c470c5E+0x132>
   217fe:	2804      	cmp	r0, #4
   21800:	d106      	bne.n	21810 <_ZN20complex_dynamic_type3app17h2cf2a07544c470c5E+0xb8>
   21802:	4828      	ldr	r0, [pc, #160]	@ (218a4 <_ZN20complex_dynamic_type3app17h2cf2a07544c470c5E+0x14c>)
   21804:	2106      	movs	r1, #6
   21806:	2200      	movs	r2, #0
   21808:	4613      	mov	r3, r2
   2180a:	df04      	svc	4
   2180c:	b015      	add	sp, #84	@ 0x54
   2180e:	bdf0      	pop	{r4, r5, r6, r7, pc}
   21810:	4824      	ldr	r0, [pc, #144]	@ (218a4 <_ZN20complex_dynamic_type3app17h2cf2a07544c470c5E+0x14c>)
   21812:	2106      	movs	r1, #6
   21814:	2200      	movs	r2, #0
   21816:	4613      	mov	r3, r2
   21818:	df03      	svc	3
   2181a:	b015      	add	sp, #84	@ 0x54
   2181c:	bdf0      	pop	{r4, r5, r6, r7, pc}
   2181e:	a804      	add	r0, sp, #16
   21820:	7800      	ldrb	r0, [r0, #0]
   21822:	2802      	cmp	r0, #2
   21824:	d00c      	beq.n	21840 <_ZN20complex_dynamic_type3app17h2cf2a07544c470c5E+0xe8>
   21826:	2803      	cmp	r0, #3
   21828:	d105      	bne.n	21836 <_ZN20complex_dynamic_type3app17h2cf2a07544c470c5E+0xde>
   2182a:	481e      	ldr	r0, [pc, #120]	@ (218a4 <_ZN20complex_dynamic_type3app17h2cf2a07544c470c5E+0x14c>)
   2182c:	2106      	movs	r1, #6
   2182e:	2200      	movs	r2, #0
   21830:	4613      	mov	r3, r2
   21832:	df03      	svc	3
   21834:	e004      	b.n	21840 <_ZN20complex_dynamic_type3app17h2cf2a07544c470c5E+0xe8>
   21836:	481b      	ldr	r0, [pc, #108]	@ (218a4 <_ZN20complex_dynamic_type3app17h2cf2a07544c470c5E+0x14c>)
   21838:	2106      	movs	r1, #6
   2183a:	2200      	movs	r2, #0
   2183c:	4613      	mov	r3, r2
   2183e:	df04      	svc	4
   21840:	a804      	add	r0, sp, #16
   21842:	9900      	ldr	r1, [sp, #0]
   21844:	7001      	strb	r1, [r0, #0]
   21846:	a80c      	add	r0, sp, #48	@ 0x30
   21848:	7800      	ldrb	r0, [r0, #0]
   2184a:	2804      	cmp	r0, #4
   2184c:	d007      	beq.n	2185e <_ZN20complex_dynamic_type3app17h2cf2a07544c470c5E+0x106>
   2184e:	2803      	cmp	r0, #3
   21850:	d11d      	bne.n	2188e <_ZN20complex_dynamic_type3app17h2cf2a07544c470c5E+0x136>
   21852:	4814      	ldr	r0, [pc, #80]	@ (218a4 <_ZN20complex_dynamic_type3app17h2cf2a07544c470c5E+0x14c>)
   21854:	2109      	movs	r1, #9
   21856:	2200      	movs	r2, #0
   21858:	4613      	mov	r3, r2
   2185a:	df03      	svc	3
   2185c:	e004      	b.n	21868 <_ZN20complex_dynamic_type3app17h2cf2a07544c470c5E+0x110>
   2185e:	4811      	ldr	r0, [pc, #68]	@ (218a4 <_ZN20complex_dynamic_type3app17h2cf2a07544c470c5E+0x14c>)
   21860:	2109      	movs	r1, #9
   21862:	2200      	movs	r2, #0
   21864:	4613      	mov	r3, r2
   21866:	df04      	svc	4
   21868:	a804      	add	r0, sp, #16
   2186a:	7804      	ldrb	r4, [r0, #0]
   2186c:	1c68      	adds	r0, r5, #1
   2186e:	2221      	movs	r2, #33	@ 0x21
   21870:	9901      	ldr	r1, [sp, #4]
   21872:	f009 fc47 	bl	2b104 <__aeabi_memcpy>
   21876:	702e      	strb	r6, [r5, #0]
   21878:	2c02      	cmp	r4, #2
   2187a:	d006      	beq.n	2188a <_ZN20complex_dynamic_type3app17h2cf2a07544c470c5E+0x132>
   2187c:	4809      	ldr	r0, [pc, #36]	@ (218a4 <_ZN20complex_dynamic_type3app17h2cf2a07544c470c5E+0x14c>)
   2187e:	2106      	movs	r1, #6
   21880:	2200      	movs	r2, #0
   21882:	4613      	mov	r3, r2
   21884:	2c04      	cmp	r4, #4
   21886:	d10a      	bne.n	2189e <_ZN20complex_dynamic_type3app17h2cf2a07544c470c5E+0x146>
   21888:	df04      	svc	4
   2188a:	b015      	add	sp, #84	@ 0x54
   2188c:	bdf0      	pop	{r4, r5, r6, r7, pc}
   2188e:	1c68      	adds	r0, r5, #1
   21890:	2221      	movs	r2, #33	@ 0x21
   21892:	4621      	mov	r1, r4
   21894:	f009 fc36 	bl	2b104 <__aeabi_memcpy>
   21898:	702e      	strb	r6, [r5, #0]
   2189a:	b015      	add	sp, #84	@ 0x54
   2189c:	bdf0      	pop	{r4, r5, r6, r7, pc}
   2189e:	df03      	svc	3
   218a0:	b015      	add	sp, #84	@ 0x54
   218a2:	bdf0      	pop	{r4, r5, r6, r7, pc}
   218a4:	000019b5 	.word	0x000019b5

000218a8 <_ZN20complex_dynamic_type3app17h2f370e0da9853665E>:
   218a8:	b5f0      	push	{r4, r5, r6, r7, lr}
   218aa:	af03      	add	r7, sp, #12
   218ac:	b09f      	sub	sp, #124	@ 0x7c
   218ae:	9004      	str	r0, [sp, #16]
   218b0:	a805      	add	r0, sp, #20
   218b2:	2402      	movs	r4, #2
   218b4:	7004      	strb	r4, [r0, #0]
   218b6:	1c40      	adds	r0, r0, #1
   218b8:	9003      	str	r0, [sp, #12]
   218ba:	2541      	movs	r5, #65	@ 0x41
   218bc:	462a      	mov	r2, r5
   218be:	f009 fc21 	bl	2b104 <__aeabi_memcpy>
   218c2:	ae16      	add	r6, sp, #88	@ 0x58
   218c4:	1c70      	adds	r0, r6, #1
   218c6:	2122      	movs	r1, #34	@ 0x22
   218c8:	9002      	str	r0, [sp, #8]
   218ca:	f009 fa5b 	bl	2ad84 <__aeabi_memclr>
   218ce:	9401      	str	r4, [sp, #4]
   218d0:	7034      	strb	r4, [r6, #0]
   218d2:	4847      	ldr	r0, [pc, #284]	@ (219f0 <_ZN20complex_dynamic_type3app17h2f370e0da9853665E+0x148>)
   218d4:	2601      	movs	r6, #1
   218d6:	4631      	mov	r1, r6
   218d8:	9a03      	ldr	r2, [sp, #12]
   218da:	462b      	mov	r3, r5
   218dc:	df04      	svc	4
   218de:	2802      	cmp	r0, #2
   218e0:	d103      	bne.n	218ea <_ZN20complex_dynamic_type3app17h2f370e0da9853665E+0x42>
   218e2:	9804      	ldr	r0, [sp, #16]
   218e4:	7006      	strb	r6, [r0, #0]
   218e6:	6041      	str	r1, [r0, #4]
   218e8:	e02b      	b.n	21942 <_ZN20complex_dynamic_type3app17h2f370e0da9853665E+0x9a>
   218ea:	9d04      	ldr	r5, [sp, #16]
   218ec:	a805      	add	r0, sp, #20
   218ee:	2104      	movs	r1, #4
   218f0:	7001      	strb	r1, [r0, #0]
   218f2:	483f      	ldr	r0, [pc, #252]	@ (219f0 <_ZN20complex_dynamic_type3app17h2f370e0da9853665E+0x148>)
   218f4:	2100      	movs	r1, #0
   218f6:	2322      	movs	r3, #34	@ 0x22
   218f8:	9a02      	ldr	r2, [sp, #8]
   218fa:	df03      	svc	3
   218fc:	2802      	cmp	r0, #2
   218fe:	d10d      	bne.n	2191c <_ZN20complex_dynamic_type3app17h2f370e0da9853665E+0x74>
   21900:	702e      	strb	r6, [r5, #0]
   21902:	6069      	str	r1, [r5, #4]
   21904:	a816      	add	r0, sp, #88	@ 0x58
   21906:	7800      	ldrb	r0, [r0, #0]
   21908:	2802      	cmp	r0, #2
   2190a:	d01a      	beq.n	21942 <_ZN20complex_dynamic_type3app17h2f370e0da9853665E+0x9a>
   2190c:	2803      	cmp	r0, #3
   2190e:	d013      	beq.n	21938 <_ZN20complex_dynamic_type3app17h2f370e0da9853665E+0x90>
   21910:	4837      	ldr	r0, [pc, #220]	@ (219f0 <_ZN20complex_dynamic_type3app17h2f370e0da9853665E+0x148>)
   21912:	2100      	movs	r1, #0
   21914:	460a      	mov	r2, r1
   21916:	460b      	mov	r3, r1
   21918:	df04      	svc	4
   2191a:	e012      	b.n	21942 <_ZN20complex_dynamic_type3app17h2f370e0da9853665E+0x9a>
   2191c:	a816      	add	r0, sp, #88	@ 0x58
   2191e:	2103      	movs	r1, #3
   21920:	7001      	strb	r1, [r0, #0]
   21922:	4833      	ldr	r0, [pc, #204]	@ (219f0 <_ZN20complex_dynamic_type3app17h2f370e0da9853665E+0x148>)
   21924:	2401      	movs	r4, #1
   21926:	2600      	movs	r6, #0
   21928:	4621      	mov	r1, r4
   2192a:	4632      	mov	r2, r6
   2192c:	4633      	mov	r3, r6
   2192e:	df02      	svc	2
   21930:	2880      	cmp	r0, #128	@ 0x80
   21932:	d21a      	bcs.n	2196a <_ZN20complex_dynamic_type3app17h2f370e0da9853665E+0xc2>
   21934:	702c      	strb	r4, [r5, #0]
   21936:	6069      	str	r1, [r5, #4]
   21938:	482d      	ldr	r0, [pc, #180]	@ (219f0 <_ZN20complex_dynamic_type3app17h2f370e0da9853665E+0x148>)
   2193a:	2100      	movs	r1, #0
   2193c:	460a      	mov	r2, r1
   2193e:	460b      	mov	r3, r1
   21940:	df03      	svc	3
   21942:	a805      	add	r0, sp, #20
   21944:	7800      	ldrb	r0, [r0, #0]
   21946:	2802      	cmp	r0, #2
   21948:	d045      	beq.n	219d6 <_ZN20complex_dynamic_type3app17h2f370e0da9853665E+0x12e>
   2194a:	2804      	cmp	r0, #4
   2194c:	d106      	bne.n	2195c <_ZN20complex_dynamic_type3app17h2f370e0da9853665E+0xb4>
   2194e:	4828      	ldr	r0, [pc, #160]	@ (219f0 <_ZN20complex_dynamic_type3app17h2f370e0da9853665E+0x148>)
   21950:	2101      	movs	r1, #1
   21952:	2200      	movs	r2, #0
   21954:	4613      	mov	r3, r2
   21956:	df04      	svc	4
   21958:	b01f      	add	sp, #124	@ 0x7c
   2195a:	bdf0      	pop	{r4, r5, r6, r7, pc}
   2195c:	4824      	ldr	r0, [pc, #144]	@ (219f0 <_ZN20complex_dynamic_type3app17h2f370e0da9853665E+0x148>)
   2195e:	2101      	movs	r1, #1
   21960:	2200      	movs	r2, #0
   21962:	4613      	mov	r3, r2
   21964:	df03      	svc	3
   21966:	b01f      	add	sp, #124	@ 0x7c
   21968:	bdf0      	pop	{r4, r5, r6, r7, pc}
   2196a:	a805      	add	r0, sp, #20
   2196c:	7800      	ldrb	r0, [r0, #0]
   2196e:	2802      	cmp	r0, #2
   21970:	d00c      	beq.n	2198c <_ZN20complex_dynamic_type3app17h2f370e0da9853665E+0xe4>
   21972:	2803      	cmp	r0, #3
   21974:	d105      	bne.n	21982 <_ZN20complex_dynamic_type3app17h2f370e0da9853665E+0xda>
   21976:	481e      	ldr	r0, [pc, #120]	@ (219f0 <_ZN20complex_dynamic_type3app17h2f370e0da9853665E+0x148>)
   21978:	2101      	movs	r1, #1
   2197a:	2200      	movs	r2, #0
   2197c:	4613      	mov	r3, r2
   2197e:	df03      	svc	3
   21980:	e004      	b.n	2198c <_ZN20complex_dynamic_type3app17h2f370e0da9853665E+0xe4>
   21982:	481b      	ldr	r0, [pc, #108]	@ (219f0 <_ZN20complex_dynamic_type3app17h2f370e0da9853665E+0x148>)
   21984:	2101      	movs	r1, #1
   21986:	2200      	movs	r2, #0
   21988:	4613      	mov	r3, r2
   2198a:	df04      	svc	4
   2198c:	a805      	add	r0, sp, #20
   2198e:	9901      	ldr	r1, [sp, #4]
   21990:	7001      	strb	r1, [r0, #0]
   21992:	a816      	add	r0, sp, #88	@ 0x58
   21994:	7800      	ldrb	r0, [r0, #0]
   21996:	2804      	cmp	r0, #4
   21998:	d007      	beq.n	219aa <_ZN20complex_dynamic_type3app17h2f370e0da9853665E+0x102>
   2199a:	2803      	cmp	r0, #3
   2199c:	d11d      	bne.n	219da <_ZN20complex_dynamic_type3app17h2f370e0da9853665E+0x132>
   2199e:	4814      	ldr	r0, [pc, #80]	@ (219f0 <_ZN20complex_dynamic_type3app17h2f370e0da9853665E+0x148>)
   219a0:	2100      	movs	r1, #0
   219a2:	460a      	mov	r2, r1
   219a4:	460b      	mov	r3, r1
   219a6:	df03      	svc	3
   219a8:	e004      	b.n	219b4 <_ZN20complex_dynamic_type3app17h2f370e0da9853665E+0x10c>
   219aa:	4811      	ldr	r0, [pc, #68]	@ (219f0 <_ZN20complex_dynamic_type3app17h2f370e0da9853665E+0x148>)
   219ac:	2100      	movs	r1, #0
   219ae:	460a      	mov	r2, r1
   219b0:	460b      	mov	r3, r1
   219b2:	df04      	svc	4
   219b4:	a805      	add	r0, sp, #20
   219b6:	7804      	ldrb	r4, [r0, #0]
   219b8:	1c68      	adds	r0, r5, #1
   219ba:	2222      	movs	r2, #34	@ 0x22
   219bc:	9902      	ldr	r1, [sp, #8]
   219be:	f009 fba1 	bl	2b104 <__aeabi_memcpy>
   219c2:	702e      	strb	r6, [r5, #0]
   219c4:	2c02      	cmp	r4, #2
   219c6:	d006      	beq.n	219d6 <_ZN20complex_dynamic_type3app17h2f370e0da9853665E+0x12e>
   219c8:	4809      	ldr	r0, [pc, #36]	@ (219f0 <_ZN20complex_dynamic_type3app17h2f370e0da9853665E+0x148>)
   219ca:	2101      	movs	r1, #1
   219cc:	2200      	movs	r2, #0
   219ce:	4613      	mov	r3, r2
   219d0:	2c04      	cmp	r4, #4
   219d2:	d10a      	bne.n	219ea <_ZN20complex_dynamic_type3app17h2f370e0da9853665E+0x142>
   219d4:	df04      	svc	4
   219d6:	b01f      	add	sp, #124	@ 0x7c
   219d8:	bdf0      	pop	{r4, r5, r6, r7, pc}
   219da:	9902      	ldr	r1, [sp, #8]
   219dc:	1c68      	adds	r0, r5, #1
   219de:	2222      	movs	r2, #34	@ 0x22
   219e0:	f009 fb90 	bl	2b104 <__aeabi_memcpy>
   219e4:	702e      	strb	r6, [r5, #0]
   219e6:	b01f      	add	sp, #124	@ 0x7c
   219e8:	bdf0      	pop	{r4, r5, r6, r7, pc}
   219ea:	df03      	svc	3
   219ec:	b01f      	add	sp, #124	@ 0x7c
   219ee:	bdf0      	pop	{r4, r5, r6, r7, pc}
   219f0:	0000247c 	.word	0x0000247c

000219f4 <_ZN20complex_dynamic_type3app17h31062acde393bac3E>:
   219f4:	b5f0      	push	{r4, r5, r6, r7, lr}
   219f6:	af03      	add	r7, sp, #12
   219f8:	b09f      	sub	sp, #124	@ 0x7c
   219fa:	9003      	str	r0, [sp, #12]
   219fc:	a804      	add	r0, sp, #16
   219fe:	2602      	movs	r6, #2
   21a00:	7006      	strb	r6, [r0, #0]
   21a02:	1c40      	adds	r0, r0, #1
   21a04:	9002      	str	r0, [sp, #8]
   21a06:	2555      	movs	r5, #85	@ 0x55
   21a08:	462a      	mov	r2, r5
   21a0a:	f009 fb7b 	bl	2b104 <__aeabi_memcpy>
   21a0e:	ac1a      	add	r4, sp, #104	@ 0x68
   21a10:	1c60      	adds	r0, r4, #1
   21a12:	2111      	movs	r1, #17
   21a14:	9001      	str	r0, [sp, #4]
   21a16:	f009 f9b5 	bl	2ad84 <__aeabi_memclr>
   21a1a:	7026      	strb	r6, [r4, #0]
   21a1c:	484a      	ldr	r0, [pc, #296]	@ (21b48 <_ZN20complex_dynamic_type3app17h31062acde393bac3E+0x154>)
   21a1e:	4631      	mov	r1, r6
   21a20:	9a02      	ldr	r2, [sp, #8]
   21a22:	462b      	mov	r3, r5
   21a24:	df04      	svc	4
   21a26:	2802      	cmp	r0, #2
   21a28:	d104      	bne.n	21a34 <_ZN20complex_dynamic_type3app17h31062acde393bac3E+0x40>
   21a2a:	2001      	movs	r0, #1
   21a2c:	9a03      	ldr	r2, [sp, #12]
   21a2e:	7010      	strb	r0, [r2, #0]
   21a30:	6051      	str	r1, [r2, #4]
   21a32:	e02e      	b.n	21a92 <_ZN20complex_dynamic_type3app17h31062acde393bac3E+0x9e>
   21a34:	9d03      	ldr	r5, [sp, #12]
   21a36:	a804      	add	r0, sp, #16
   21a38:	2104      	movs	r1, #4
   21a3a:	7001      	strb	r1, [r0, #0]
   21a3c:	4842      	ldr	r0, [pc, #264]	@ (21b48 <_ZN20complex_dynamic_type3app17h31062acde393bac3E+0x154>)
   21a3e:	2102      	movs	r1, #2
   21a40:	2311      	movs	r3, #17
   21a42:	9c01      	ldr	r4, [sp, #4]
   21a44:	4622      	mov	r2, r4
   21a46:	df03      	svc	3
   21a48:	2802      	cmp	r0, #2
   21a4a:	d10e      	bne.n	21a6a <_ZN20complex_dynamic_type3app17h31062acde393bac3E+0x76>
   21a4c:	2001      	movs	r0, #1
   21a4e:	7028      	strb	r0, [r5, #0]
   21a50:	6069      	str	r1, [r5, #4]
   21a52:	a81a      	add	r0, sp, #104	@ 0x68
   21a54:	7800      	ldrb	r0, [r0, #0]
   21a56:	2802      	cmp	r0, #2
   21a58:	d01b      	beq.n	21a92 <_ZN20complex_dynamic_type3app17h31062acde393bac3E+0x9e>
   21a5a:	2803      	cmp	r0, #3
   21a5c:	d014      	beq.n	21a88 <_ZN20complex_dynamic_type3app17h31062acde393bac3E+0x94>
   21a5e:	483a      	ldr	r0, [pc, #232]	@ (21b48 <_ZN20complex_dynamic_type3app17h31062acde393bac3E+0x154>)
   21a60:	2102      	movs	r1, #2
   21a62:	2200      	movs	r2, #0
   21a64:	4613      	mov	r3, r2
   21a66:	df04      	svc	4
   21a68:	e013      	b.n	21a92 <_ZN20complex_dynamic_type3app17h31062acde393bac3E+0x9e>
   21a6a:	a81a      	add	r0, sp, #104	@ 0x68
   21a6c:	2103      	movs	r1, #3
   21a6e:	7001      	strb	r1, [r0, #0]
   21a70:	4835      	ldr	r0, [pc, #212]	@ (21b48 <_ZN20complex_dynamic_type3app17h31062acde393bac3E+0x154>)
   21a72:	2602      	movs	r6, #2
   21a74:	2300      	movs	r3, #0
   21a76:	4631      	mov	r1, r6
   21a78:	4632      	mov	r2, r6
   21a7a:	9302      	str	r3, [sp, #8]
   21a7c:	df02      	svc	2
   21a7e:	2880      	cmp	r0, #128	@ 0x80
   21a80:	d21b      	bcs.n	21aba <_ZN20complex_dynamic_type3app17h31062acde393bac3E+0xc6>
   21a82:	2001      	movs	r0, #1
   21a84:	7028      	strb	r0, [r5, #0]
   21a86:	6069      	str	r1, [r5, #4]
   21a88:	482f      	ldr	r0, [pc, #188]	@ (21b48 <_ZN20complex_dynamic_type3app17h31062acde393bac3E+0x154>)
   21a8a:	2102      	movs	r1, #2
   21a8c:	2200      	movs	r2, #0
   21a8e:	4613      	mov	r3, r2
   21a90:	df03      	svc	3
   21a92:	a804      	add	r0, sp, #16
   21a94:	7800      	ldrb	r0, [r0, #0]
   21a96:	2802      	cmp	r0, #2
   21a98:	d047      	beq.n	21b2a <_ZN20complex_dynamic_type3app17h31062acde393bac3E+0x136>
   21a9a:	2804      	cmp	r0, #4
   21a9c:	d106      	bne.n	21aac <_ZN20complex_dynamic_type3app17h31062acde393bac3E+0xb8>
   21a9e:	482a      	ldr	r0, [pc, #168]	@ (21b48 <_ZN20complex_dynamic_type3app17h31062acde393bac3E+0x154>)
   21aa0:	2102      	movs	r1, #2
   21aa2:	2200      	movs	r2, #0
   21aa4:	4613      	mov	r3, r2
   21aa6:	df04      	svc	4
   21aa8:	b01f      	add	sp, #124	@ 0x7c
   21aaa:	bdf0      	pop	{r4, r5, r6, r7, pc}
   21aac:	4826      	ldr	r0, [pc, #152]	@ (21b48 <_ZN20complex_dynamic_type3app17h31062acde393bac3E+0x154>)
   21aae:	2102      	movs	r1, #2
   21ab0:	2200      	movs	r2, #0
   21ab2:	4613      	mov	r3, r2
   21ab4:	df03      	svc	3
   21ab6:	b01f      	add	sp, #124	@ 0x7c
   21ab8:	bdf0      	pop	{r4, r5, r6, r7, pc}
   21aba:	a804      	add	r0, sp, #16
   21abc:	7800      	ldrb	r0, [r0, #0]
   21abe:	2802      	cmp	r0, #2
   21ac0:	d00c      	beq.n	21adc <_ZN20complex_dynamic_type3app17h31062acde393bac3E+0xe8>
   21ac2:	2803      	cmp	r0, #3
   21ac4:	d105      	bne.n	21ad2 <_ZN20complex_dynamic_type3app17h31062acde393bac3E+0xde>
   21ac6:	4820      	ldr	r0, [pc, #128]	@ (21b48 <_ZN20complex_dynamic_type3app17h31062acde393bac3E+0x154>)
   21ac8:	2102      	movs	r1, #2
   21aca:	2200      	movs	r2, #0
   21acc:	4613      	mov	r3, r2
   21ace:	df03      	svc	3
   21ad0:	e004      	b.n	21adc <_ZN20complex_dynamic_type3app17h31062acde393bac3E+0xe8>
   21ad2:	481d      	ldr	r0, [pc, #116]	@ (21b48 <_ZN20complex_dynamic_type3app17h31062acde393bac3E+0x154>)
   21ad4:	2102      	movs	r1, #2
   21ad6:	2200      	movs	r2, #0
   21ad8:	4613      	mov	r3, r2
   21ada:	df04      	svc	4
   21adc:	a804      	add	r0, sp, #16
   21ade:	7006      	strb	r6, [r0, #0]
   21ae0:	a81a      	add	r0, sp, #104	@ 0x68
   21ae2:	7800      	ldrb	r0, [r0, #0]
   21ae4:	2804      	cmp	r0, #4
   21ae6:	d008      	beq.n	21afa <_ZN20complex_dynamic_type3app17h31062acde393bac3E+0x106>
   21ae8:	2803      	cmp	r0, #3
   21aea:	d120      	bne.n	21b2e <_ZN20complex_dynamic_type3app17h31062acde393bac3E+0x13a>
   21aec:	4626      	mov	r6, r4
   21aee:	4816      	ldr	r0, [pc, #88]	@ (21b48 <_ZN20complex_dynamic_type3app17h31062acde393bac3E+0x154>)
   21af0:	2102      	movs	r1, #2
   21af2:	2200      	movs	r2, #0
   21af4:	4613      	mov	r3, r2
   21af6:	df03      	svc	3
   21af8:	e005      	b.n	21b06 <_ZN20complex_dynamic_type3app17h31062acde393bac3E+0x112>
   21afa:	4626      	mov	r6, r4
   21afc:	4812      	ldr	r0, [pc, #72]	@ (21b48 <_ZN20complex_dynamic_type3app17h31062acde393bac3E+0x154>)
   21afe:	2102      	movs	r1, #2
   21b00:	2200      	movs	r2, #0
   21b02:	4613      	mov	r3, r2
   21b04:	df04      	svc	4
   21b06:	a804      	add	r0, sp, #16
   21b08:	7804      	ldrb	r4, [r0, #0]
   21b0a:	1c68      	adds	r0, r5, #1
   21b0c:	2211      	movs	r2, #17
   21b0e:	4631      	mov	r1, r6
   21b10:	f009 faf8 	bl	2b104 <__aeabi_memcpy>
   21b14:	9802      	ldr	r0, [sp, #8]
   21b16:	7028      	strb	r0, [r5, #0]
   21b18:	2c02      	cmp	r4, #2
   21b1a:	d006      	beq.n	21b2a <_ZN20complex_dynamic_type3app17h31062acde393bac3E+0x136>
   21b1c:	480a      	ldr	r0, [pc, #40]	@ (21b48 <_ZN20complex_dynamic_type3app17h31062acde393bac3E+0x154>)
   21b1e:	2102      	movs	r1, #2
   21b20:	2200      	movs	r2, #0
   21b22:	4613      	mov	r3, r2
   21b24:	2c04      	cmp	r4, #4
   21b26:	d10b      	bne.n	21b40 <_ZN20complex_dynamic_type3app17h31062acde393bac3E+0x14c>
   21b28:	df04      	svc	4
   21b2a:	b01f      	add	sp, #124	@ 0x7c
   21b2c:	bdf0      	pop	{r4, r5, r6, r7, pc}
   21b2e:	1c68      	adds	r0, r5, #1
   21b30:	2211      	movs	r2, #17
   21b32:	4621      	mov	r1, r4
   21b34:	f009 fae6 	bl	2b104 <__aeabi_memcpy>
   21b38:	9802      	ldr	r0, [sp, #8]
   21b3a:	7028      	strb	r0, [r5, #0]
   21b3c:	b01f      	add	sp, #124	@ 0x7c
   21b3e:	bdf0      	pop	{r4, r5, r6, r7, pc}
   21b40:	df03      	svc	3
   21b42:	b01f      	add	sp, #124	@ 0x7c
   21b44:	bdf0      	pop	{r4, r5, r6, r7, pc}
   21b46:	46c0      	nop			@ (mov r8, r8)
   21b48:	00000c89 	.word	0x00000c89

00021b4c <_ZN20complex_dynamic_type3app17h31ed042db246bcfeE>:
   21b4c:	b5f0      	push	{r4, r5, r6, r7, lr}
   21b4e:	af03      	add	r7, sp, #12
   21b50:	b09f      	sub	sp, #124	@ 0x7c
   21b52:	9003      	str	r0, [sp, #12]
   21b54:	a804      	add	r0, sp, #16
   21b56:	2402      	movs	r4, #2
   21b58:	7004      	strb	r4, [r0, #0]
   21b5a:	1c46      	adds	r6, r0, #1
   21b5c:	222e      	movs	r2, #46	@ 0x2e
   21b5e:	9202      	str	r2, [sp, #8]
   21b60:	4630      	mov	r0, r6
   21b62:	f009 facf 	bl	2b104 <__aeabi_memcpy>
   21b66:	ad10      	add	r5, sp, #64	@ 0x40
   21b68:	1c68      	adds	r0, r5, #1
   21b6a:	2138      	movs	r1, #56	@ 0x38
   21b6c:	9001      	str	r0, [sp, #4]
   21b6e:	f009 f909 	bl	2ad84 <__aeabi_memclr>
   21b72:	9400      	str	r4, [sp, #0]
   21b74:	702c      	strb	r4, [r5, #0]
   21b76:	4848      	ldr	r0, [pc, #288]	@ (21c98 <_ZN20complex_dynamic_type3app17h31ed042db246bcfeE+0x14c>)
   21b78:	2109      	movs	r1, #9
   21b7a:	4632      	mov	r2, r6
   21b7c:	9b02      	ldr	r3, [sp, #8]
   21b7e:	df04      	svc	4
   21b80:	2802      	cmp	r0, #2
   21b82:	d104      	bne.n	21b8e <_ZN20complex_dynamic_type3app17h31ed042db246bcfeE+0x42>
   21b84:	2001      	movs	r0, #1
   21b86:	9a03      	ldr	r2, [sp, #12]
   21b88:	7010      	strb	r0, [r2, #0]
   21b8a:	6051      	str	r1, [r2, #4]
   21b8c:	e02d      	b.n	21bea <_ZN20complex_dynamic_type3app17h31ed042db246bcfeE+0x9e>
   21b8e:	9d03      	ldr	r5, [sp, #12]
   21b90:	a804      	add	r0, sp, #16
   21b92:	2104      	movs	r1, #4
   21b94:	7001      	strb	r1, [r0, #0]
   21b96:	4840      	ldr	r0, [pc, #256]	@ (21c98 <_ZN20complex_dynamic_type3app17h31ed042db246bcfeE+0x14c>)
   21b98:	2109      	movs	r1, #9
   21b9a:	2338      	movs	r3, #56	@ 0x38
   21b9c:	9c01      	ldr	r4, [sp, #4]
   21b9e:	4622      	mov	r2, r4
   21ba0:	df03      	svc	3
   21ba2:	2802      	cmp	r0, #2
   21ba4:	d10e      	bne.n	21bc4 <_ZN20complex_dynamic_type3app17h31ed042db246bcfeE+0x78>
   21ba6:	2001      	movs	r0, #1
   21ba8:	7028      	strb	r0, [r5, #0]
   21baa:	6069      	str	r1, [r5, #4]
   21bac:	a810      	add	r0, sp, #64	@ 0x40
   21bae:	7800      	ldrb	r0, [r0, #0]
   21bb0:	2802      	cmp	r0, #2
   21bb2:	d01a      	beq.n	21bea <_ZN20complex_dynamic_type3app17h31ed042db246bcfeE+0x9e>
   21bb4:	2803      	cmp	r0, #3
   21bb6:	d013      	beq.n	21be0 <_ZN20complex_dynamic_type3app17h31ed042db246bcfeE+0x94>
   21bb8:	4837      	ldr	r0, [pc, #220]	@ (21c98 <_ZN20complex_dynamic_type3app17h31ed042db246bcfeE+0x14c>)
   21bba:	2109      	movs	r1, #9
   21bbc:	2200      	movs	r2, #0
   21bbe:	4613      	mov	r3, r2
   21bc0:	df04      	svc	4
   21bc2:	e012      	b.n	21bea <_ZN20complex_dynamic_type3app17h31ed042db246bcfeE+0x9e>
   21bc4:	a810      	add	r0, sp, #64	@ 0x40
   21bc6:	2103      	movs	r1, #3
   21bc8:	7001      	strb	r1, [r0, #0]
   21bca:	4833      	ldr	r0, [pc, #204]	@ (21c98 <_ZN20complex_dynamic_type3app17h31ed042db246bcfeE+0x14c>)
   21bcc:	2109      	movs	r1, #9
   21bce:	2600      	movs	r6, #0
   21bd0:	460a      	mov	r2, r1
   21bd2:	4633      	mov	r3, r6
   21bd4:	df02      	svc	2
   21bd6:	2880      	cmp	r0, #128	@ 0x80
   21bd8:	d21b      	bcs.n	21c12 <_ZN20complex_dynamic_type3app17h31ed042db246bcfeE+0xc6>
   21bda:	2001      	movs	r0, #1
   21bdc:	7028      	strb	r0, [r5, #0]
   21bde:	6069      	str	r1, [r5, #4]
   21be0:	482d      	ldr	r0, [pc, #180]	@ (21c98 <_ZN20complex_dynamic_type3app17h31ed042db246bcfeE+0x14c>)
   21be2:	2109      	movs	r1, #9
   21be4:	2200      	movs	r2, #0
   21be6:	4613      	mov	r3, r2
   21be8:	df03      	svc	3
   21bea:	a804      	add	r0, sp, #16
   21bec:	7800      	ldrb	r0, [r0, #0]
   21bee:	2802      	cmp	r0, #2
   21bf0:	d045      	beq.n	21c7e <_ZN20complex_dynamic_type3app17h31ed042db246bcfeE+0x132>
   21bf2:	2804      	cmp	r0, #4
   21bf4:	d106      	bne.n	21c04 <_ZN20complex_dynamic_type3app17h31ed042db246bcfeE+0xb8>
   21bf6:	4828      	ldr	r0, [pc, #160]	@ (21c98 <_ZN20complex_dynamic_type3app17h31ed042db246bcfeE+0x14c>)
   21bf8:	2109      	movs	r1, #9
   21bfa:	2200      	movs	r2, #0
   21bfc:	4613      	mov	r3, r2
   21bfe:	df04      	svc	4
   21c00:	b01f      	add	sp, #124	@ 0x7c
   21c02:	bdf0      	pop	{r4, r5, r6, r7, pc}
   21c04:	4824      	ldr	r0, [pc, #144]	@ (21c98 <_ZN20complex_dynamic_type3app17h31ed042db246bcfeE+0x14c>)
   21c06:	2109      	movs	r1, #9
   21c08:	2200      	movs	r2, #0
   21c0a:	4613      	mov	r3, r2
   21c0c:	df03      	svc	3
   21c0e:	b01f      	add	sp, #124	@ 0x7c
   21c10:	bdf0      	pop	{r4, r5, r6, r7, pc}
   21c12:	a804      	add	r0, sp, #16
   21c14:	7800      	ldrb	r0, [r0, #0]
   21c16:	2802      	cmp	r0, #2
   21c18:	d00c      	beq.n	21c34 <_ZN20complex_dynamic_type3app17h31ed042db246bcfeE+0xe8>
   21c1a:	2803      	cmp	r0, #3
   21c1c:	d105      	bne.n	21c2a <_ZN20complex_dynamic_type3app17h31ed042db246bcfeE+0xde>
   21c1e:	481e      	ldr	r0, [pc, #120]	@ (21c98 <_ZN20complex_dynamic_type3app17h31ed042db246bcfeE+0x14c>)
   21c20:	2109      	movs	r1, #9
   21c22:	2200      	movs	r2, #0
   21c24:	4613      	mov	r3, r2
   21c26:	df03      	svc	3
   21c28:	e004      	b.n	21c34 <_ZN20complex_dynamic_type3app17h31ed042db246bcfeE+0xe8>
   21c2a:	481b      	ldr	r0, [pc, #108]	@ (21c98 <_ZN20complex_dynamic_type3app17h31ed042db246bcfeE+0x14c>)
   21c2c:	2109      	movs	r1, #9
   21c2e:	2200      	movs	r2, #0
   21c30:	4613      	mov	r3, r2
   21c32:	df04      	svc	4
   21c34:	a804      	add	r0, sp, #16
   21c36:	9900      	ldr	r1, [sp, #0]
   21c38:	7001      	strb	r1, [r0, #0]
   21c3a:	a810      	add	r0, sp, #64	@ 0x40
   21c3c:	7800      	ldrb	r0, [r0, #0]
   21c3e:	2804      	cmp	r0, #4
   21c40:	d007      	beq.n	21c52 <_ZN20complex_dynamic_type3app17h31ed042db246bcfeE+0x106>
   21c42:	2803      	cmp	r0, #3
   21c44:	d11d      	bne.n	21c82 <_ZN20complex_dynamic_type3app17h31ed042db246bcfeE+0x136>
   21c46:	4814      	ldr	r0, [pc, #80]	@ (21c98 <_ZN20complex_dynamic_type3app17h31ed042db246bcfeE+0x14c>)
   21c48:	2109      	movs	r1, #9
   21c4a:	2200      	movs	r2, #0
   21c4c:	4613      	mov	r3, r2
   21c4e:	df03      	svc	3
   21c50:	e004      	b.n	21c5c <_ZN20complex_dynamic_type3app17h31ed042db246bcfeE+0x110>
   21c52:	4811      	ldr	r0, [pc, #68]	@ (21c98 <_ZN20complex_dynamic_type3app17h31ed042db246bcfeE+0x14c>)
   21c54:	2109      	movs	r1, #9
   21c56:	2200      	movs	r2, #0
   21c58:	4613      	mov	r3, r2
   21c5a:	df04      	svc	4
   21c5c:	a804      	add	r0, sp, #16
   21c5e:	7804      	ldrb	r4, [r0, #0]
   21c60:	1c68      	adds	r0, r5, #1
   21c62:	2238      	movs	r2, #56	@ 0x38
   21c64:	9901      	ldr	r1, [sp, #4]
   21c66:	f009 fa4d 	bl	2b104 <__aeabi_memcpy>
   21c6a:	702e      	strb	r6, [r5, #0]
   21c6c:	2c02      	cmp	r4, #2
   21c6e:	d006      	beq.n	21c7e <_ZN20complex_dynamic_type3app17h31ed042db246bcfeE+0x132>
   21c70:	4809      	ldr	r0, [pc, #36]	@ (21c98 <_ZN20complex_dynamic_type3app17h31ed042db246bcfeE+0x14c>)
   21c72:	2109      	movs	r1, #9
   21c74:	2200      	movs	r2, #0
   21c76:	4613      	mov	r3, r2
   21c78:	2c04      	cmp	r4, #4
   21c7a:	d10a      	bne.n	21c92 <_ZN20complex_dynamic_type3app17h31ed042db246bcfeE+0x146>
   21c7c:	df04      	svc	4
   21c7e:	b01f      	add	sp, #124	@ 0x7c
   21c80:	bdf0      	pop	{r4, r5, r6, r7, pc}
   21c82:	1c68      	adds	r0, r5, #1
   21c84:	2238      	movs	r2, #56	@ 0x38
   21c86:	4621      	mov	r1, r4
   21c88:	f009 fa3c 	bl	2b104 <__aeabi_memcpy>
   21c8c:	702e      	strb	r6, [r5, #0]
   21c8e:	b01f      	add	sp, #124	@ 0x7c
   21c90:	bdf0      	pop	{r4, r5, r6, r7, pc}
   21c92:	df03      	svc	3
   21c94:	b01f      	add	sp, #124	@ 0x7c
   21c96:	bdf0      	pop	{r4, r5, r6, r7, pc}
   21c98:	00000a9d 	.word	0x00000a9d

00021c9c <_ZN20complex_dynamic_type3app17h33448ac458654cc8E>:
   21c9c:	b5f0      	push	{r4, r5, r6, r7, lr}
   21c9e:	af03      	add	r7, sp, #12
   21ca0:	b0a5      	sub	sp, #148	@ 0x94
   21ca2:	9004      	str	r0, [sp, #16]
   21ca4:	a805      	add	r0, sp, #20
   21ca6:	2402      	movs	r4, #2
   21ca8:	7004      	strb	r4, [r0, #0]
   21caa:	1c46      	adds	r6, r0, #1
   21cac:	221c      	movs	r2, #28
   21cae:	9203      	str	r2, [sp, #12]
   21cb0:	4630      	mov	r0, r6
   21cb2:	f009 fa27 	bl	2b104 <__aeabi_memcpy>
   21cb6:	ad0d      	add	r5, sp, #52	@ 0x34
   21cb8:	1c68      	adds	r0, r5, #1
   21cba:	215d      	movs	r1, #93	@ 0x5d
   21cbc:	9002      	str	r0, [sp, #8]
   21cbe:	f009 f861 	bl	2ad84 <__aeabi_memclr>
   21cc2:	9401      	str	r4, [sp, #4]
   21cc4:	702c      	strb	r4, [r5, #0]
   21cc6:	4848      	ldr	r0, [pc, #288]	@ (21de8 <_ZN20complex_dynamic_type3app17h33448ac458654cc8E+0x14c>)
   21cc8:	2108      	movs	r1, #8
   21cca:	4632      	mov	r2, r6
   21ccc:	9b03      	ldr	r3, [sp, #12]
   21cce:	df04      	svc	4
   21cd0:	2802      	cmp	r0, #2
   21cd2:	d104      	bne.n	21cde <_ZN20complex_dynamic_type3app17h33448ac458654cc8E+0x42>
   21cd4:	2001      	movs	r0, #1
   21cd6:	9a04      	ldr	r2, [sp, #16]
   21cd8:	7010      	strb	r0, [r2, #0]
   21cda:	6051      	str	r1, [r2, #4]
   21cdc:	e02d      	b.n	21d3a <_ZN20complex_dynamic_type3app17h33448ac458654cc8E+0x9e>
   21cde:	9d04      	ldr	r5, [sp, #16]
   21ce0:	a805      	add	r0, sp, #20
   21ce2:	2104      	movs	r1, #4
   21ce4:	7001      	strb	r1, [r0, #0]
   21ce6:	4840      	ldr	r0, [pc, #256]	@ (21de8 <_ZN20complex_dynamic_type3app17h33448ac458654cc8E+0x14c>)
   21ce8:	2105      	movs	r1, #5
   21cea:	235d      	movs	r3, #93	@ 0x5d
   21cec:	9c02      	ldr	r4, [sp, #8]
   21cee:	4622      	mov	r2, r4
   21cf0:	df03      	svc	3
   21cf2:	2802      	cmp	r0, #2
   21cf4:	d10e      	bne.n	21d14 <_ZN20complex_dynamic_type3app17h33448ac458654cc8E+0x78>
   21cf6:	2001      	movs	r0, #1
   21cf8:	7028      	strb	r0, [r5, #0]
   21cfa:	6069      	str	r1, [r5, #4]
   21cfc:	a80d      	add	r0, sp, #52	@ 0x34
   21cfe:	7800      	ldrb	r0, [r0, #0]
   21d00:	2802      	cmp	r0, #2
   21d02:	d01a      	beq.n	21d3a <_ZN20complex_dynamic_type3app17h33448ac458654cc8E+0x9e>
   21d04:	2803      	cmp	r0, #3
   21d06:	d013      	beq.n	21d30 <_ZN20complex_dynamic_type3app17h33448ac458654cc8E+0x94>
   21d08:	4837      	ldr	r0, [pc, #220]	@ (21de8 <_ZN20complex_dynamic_type3app17h33448ac458654cc8E+0x14c>)
   21d0a:	2105      	movs	r1, #5
   21d0c:	2200      	movs	r2, #0
   21d0e:	4613      	mov	r3, r2
   21d10:	df04      	svc	4
   21d12:	e012      	b.n	21d3a <_ZN20complex_dynamic_type3app17h33448ac458654cc8E+0x9e>
   21d14:	a80d      	add	r0, sp, #52	@ 0x34
   21d16:	2103      	movs	r1, #3
   21d18:	7001      	strb	r1, [r0, #0]
   21d1a:	4833      	ldr	r0, [pc, #204]	@ (21de8 <_ZN20complex_dynamic_type3app17h33448ac458654cc8E+0x14c>)
   21d1c:	2108      	movs	r1, #8
   21d1e:	2205      	movs	r2, #5
   21d20:	2600      	movs	r6, #0
   21d22:	4633      	mov	r3, r6
   21d24:	df02      	svc	2
   21d26:	2880      	cmp	r0, #128	@ 0x80
   21d28:	d21b      	bcs.n	21d62 <_ZN20complex_dynamic_type3app17h33448ac458654cc8E+0xc6>
   21d2a:	2001      	movs	r0, #1
   21d2c:	7028      	strb	r0, [r5, #0]
   21d2e:	6069      	str	r1, [r5, #4]
   21d30:	482d      	ldr	r0, [pc, #180]	@ (21de8 <_ZN20complex_dynamic_type3app17h33448ac458654cc8E+0x14c>)
   21d32:	2105      	movs	r1, #5
   21d34:	2200      	movs	r2, #0
   21d36:	4613      	mov	r3, r2
   21d38:	df03      	svc	3
   21d3a:	a805      	add	r0, sp, #20
   21d3c:	7800      	ldrb	r0, [r0, #0]
   21d3e:	2802      	cmp	r0, #2
   21d40:	d045      	beq.n	21dce <_ZN20complex_dynamic_type3app17h33448ac458654cc8E+0x132>
   21d42:	2804      	cmp	r0, #4
   21d44:	d106      	bne.n	21d54 <_ZN20complex_dynamic_type3app17h33448ac458654cc8E+0xb8>
   21d46:	4828      	ldr	r0, [pc, #160]	@ (21de8 <_ZN20complex_dynamic_type3app17h33448ac458654cc8E+0x14c>)
   21d48:	2108      	movs	r1, #8
   21d4a:	2200      	movs	r2, #0
   21d4c:	4613      	mov	r3, r2
   21d4e:	df04      	svc	4
   21d50:	b025      	add	sp, #148	@ 0x94
   21d52:	bdf0      	pop	{r4, r5, r6, r7, pc}
   21d54:	4824      	ldr	r0, [pc, #144]	@ (21de8 <_ZN20complex_dynamic_type3app17h33448ac458654cc8E+0x14c>)
   21d56:	2108      	movs	r1, #8
   21d58:	2200      	movs	r2, #0
   21d5a:	4613      	mov	r3, r2
   21d5c:	df03      	svc	3
   21d5e:	b025      	add	sp, #148	@ 0x94
   21d60:	bdf0      	pop	{r4, r5, r6, r7, pc}
   21d62:	a805      	add	r0, sp, #20
   21d64:	7800      	ldrb	r0, [r0, #0]
   21d66:	2802      	cmp	r0, #2
   21d68:	d00c      	beq.n	21d84 <_ZN20complex_dynamic_type3app17h33448ac458654cc8E+0xe8>
   21d6a:	2803      	cmp	r0, #3
   21d6c:	d105      	bne.n	21d7a <_ZN20complex_dynamic_type3app17h33448ac458654cc8E+0xde>
   21d6e:	481e      	ldr	r0, [pc, #120]	@ (21de8 <_ZN20complex_dynamic_type3app17h33448ac458654cc8E+0x14c>)
   21d70:	2108      	movs	r1, #8
   21d72:	2200      	movs	r2, #0
   21d74:	4613      	mov	r3, r2
   21d76:	df03      	svc	3
   21d78:	e004      	b.n	21d84 <_ZN20complex_dynamic_type3app17h33448ac458654cc8E+0xe8>
   21d7a:	481b      	ldr	r0, [pc, #108]	@ (21de8 <_ZN20complex_dynamic_type3app17h33448ac458654cc8E+0x14c>)
   21d7c:	2108      	movs	r1, #8
   21d7e:	2200      	movs	r2, #0
   21d80:	4613      	mov	r3, r2
   21d82:	df04      	svc	4
   21d84:	a805      	add	r0, sp, #20
   21d86:	9901      	ldr	r1, [sp, #4]
   21d88:	7001      	strb	r1, [r0, #0]
   21d8a:	a80d      	add	r0, sp, #52	@ 0x34
   21d8c:	7800      	ldrb	r0, [r0, #0]
   21d8e:	2804      	cmp	r0, #4
   21d90:	d007      	beq.n	21da2 <_ZN20complex_dynamic_type3app17h33448ac458654cc8E+0x106>
   21d92:	2803      	cmp	r0, #3
   21d94:	d11d      	bne.n	21dd2 <_ZN20complex_dynamic_type3app17h33448ac458654cc8E+0x136>
   21d96:	4814      	ldr	r0, [pc, #80]	@ (21de8 <_ZN20complex_dynamic_type3app17h33448ac458654cc8E+0x14c>)
   21d98:	2105      	movs	r1, #5
   21d9a:	2200      	movs	r2, #0
   21d9c:	4613      	mov	r3, r2
   21d9e:	df03      	svc	3
   21da0:	e004      	b.n	21dac <_ZN20complex_dynamic_type3app17h33448ac458654cc8E+0x110>
   21da2:	4811      	ldr	r0, [pc, #68]	@ (21de8 <_ZN20complex_dynamic_type3app17h33448ac458654cc8E+0x14c>)
   21da4:	2105      	movs	r1, #5
   21da6:	2200      	movs	r2, #0
   21da8:	4613      	mov	r3, r2
   21daa:	df04      	svc	4
   21dac:	a805      	add	r0, sp, #20
   21dae:	7804      	ldrb	r4, [r0, #0]
   21db0:	1c68      	adds	r0, r5, #1
   21db2:	225d      	movs	r2, #93	@ 0x5d
   21db4:	9902      	ldr	r1, [sp, #8]
   21db6:	f009 f9a5 	bl	2b104 <__aeabi_memcpy>
   21dba:	702e      	strb	r6, [r5, #0]
   21dbc:	2c02      	cmp	r4, #2
   21dbe:	d006      	beq.n	21dce <_ZN20complex_dynamic_type3app17h33448ac458654cc8E+0x132>
   21dc0:	4809      	ldr	r0, [pc, #36]	@ (21de8 <_ZN20complex_dynamic_type3app17h33448ac458654cc8E+0x14c>)
   21dc2:	2108      	movs	r1, #8
   21dc4:	2200      	movs	r2, #0
   21dc6:	4613      	mov	r3, r2
   21dc8:	2c04      	cmp	r4, #4
   21dca:	d10a      	bne.n	21de2 <_ZN20complex_dynamic_type3app17h33448ac458654cc8E+0x146>
   21dcc:	df04      	svc	4
   21dce:	b025      	add	sp, #148	@ 0x94
   21dd0:	bdf0      	pop	{r4, r5, r6, r7, pc}
   21dd2:	1c68      	adds	r0, r5, #1
   21dd4:	225d      	movs	r2, #93	@ 0x5d
   21dd6:	4621      	mov	r1, r4
   21dd8:	f009 f994 	bl	2b104 <__aeabi_memcpy>
   21ddc:	702e      	strb	r6, [r5, #0]
   21dde:	b025      	add	sp, #148	@ 0x94
   21de0:	bdf0      	pop	{r4, r5, r6, r7, pc}
   21de2:	df03      	svc	3
   21de4:	b025      	add	sp, #148	@ 0x94
   21de6:	bdf0      	pop	{r4, r5, r6, r7, pc}
   21de8:	00000c3e 	.word	0x00000c3e

00021dec <_ZN20complex_dynamic_type3app17h3ddb6eeaf4872ae8E>:
   21dec:	b5f0      	push	{r4, r5, r6, r7, lr}
   21dee:	af03      	add	r7, sp, #12
   21df0:	b09d      	sub	sp, #116	@ 0x74
   21df2:	9004      	str	r0, [sp, #16]
   21df4:	a805      	add	r0, sp, #20
   21df6:	2502      	movs	r5, #2
   21df8:	7005      	strb	r5, [r0, #0]
   21dfa:	1c40      	adds	r0, r0, #1
   21dfc:	9003      	str	r0, [sp, #12]
   21dfe:	261b      	movs	r6, #27
   21e00:	4632      	mov	r2, r6
   21e02:	f009 f97f 	bl	2b104 <__aeabi_memcpy>
   21e06:	ac0c      	add	r4, sp, #48	@ 0x30
   21e08:	1c60      	adds	r0, r4, #1
   21e0a:	2141      	movs	r1, #65	@ 0x41
   21e0c:	9002      	str	r0, [sp, #8]
   21e0e:	f008 ffb9 	bl	2ad84 <__aeabi_memclr>
   21e12:	9501      	str	r5, [sp, #4]
   21e14:	7025      	strb	r5, [r4, #0]
   21e16:	2005      	movs	r0, #5
   21e18:	0184      	lsls	r4, r0, #6
   21e1a:	2108      	movs	r1, #8
   21e1c:	4620      	mov	r0, r4
   21e1e:	9a03      	ldr	r2, [sp, #12]
   21e20:	4633      	mov	r3, r6
   21e22:	df04      	svc	4
   21e24:	2802      	cmp	r0, #2
   21e26:	d104      	bne.n	21e32 <_ZN20complex_dynamic_type3app17h3ddb6eeaf4872ae8E+0x46>
   21e28:	2001      	movs	r0, #1
   21e2a:	9a04      	ldr	r2, [sp, #16]
   21e2c:	7010      	strb	r0, [r2, #0]
   21e2e:	6051      	str	r1, [r2, #4]
   21e30:	e02d      	b.n	21e8e <_ZN20complex_dynamic_type3app17h3ddb6eeaf4872ae8E+0xa2>
   21e32:	9e04      	ldr	r6, [sp, #16]
   21e34:	a805      	add	r0, sp, #20
   21e36:	2104      	movs	r1, #4
   21e38:	7001      	strb	r1, [r0, #0]
   21e3a:	2109      	movs	r1, #9
   21e3c:	2341      	movs	r3, #65	@ 0x41
   21e3e:	4620      	mov	r0, r4
   21e40:	9d02      	ldr	r5, [sp, #8]
   21e42:	462a      	mov	r2, r5
   21e44:	df03      	svc	3
   21e46:	2802      	cmp	r0, #2
   21e48:	d10e      	bne.n	21e68 <_ZN20complex_dynamic_type3app17h3ddb6eeaf4872ae8E+0x7c>
   21e4a:	2001      	movs	r0, #1
   21e4c:	7030      	strb	r0, [r6, #0]
   21e4e:	6071      	str	r1, [r6, #4]
   21e50:	a80c      	add	r0, sp, #48	@ 0x30
   21e52:	7800      	ldrb	r0, [r0, #0]
   21e54:	2802      	cmp	r0, #2
   21e56:	d01a      	beq.n	21e8e <_ZN20complex_dynamic_type3app17h3ddb6eeaf4872ae8E+0xa2>
   21e58:	2803      	cmp	r0, #3
   21e5a:	d013      	beq.n	21e84 <_ZN20complex_dynamic_type3app17h3ddb6eeaf4872ae8E+0x98>
   21e5c:	2109      	movs	r1, #9
   21e5e:	2200      	movs	r2, #0
   21e60:	4620      	mov	r0, r4
   21e62:	4613      	mov	r3, r2
   21e64:	df04      	svc	4
   21e66:	e012      	b.n	21e8e <_ZN20complex_dynamic_type3app17h3ddb6eeaf4872ae8E+0xa2>
   21e68:	a80c      	add	r0, sp, #48	@ 0x30
   21e6a:	2103      	movs	r1, #3
   21e6c:	7001      	strb	r1, [r0, #0]
   21e6e:	2108      	movs	r1, #8
   21e70:	2209      	movs	r2, #9
   21e72:	2300      	movs	r3, #0
   21e74:	4620      	mov	r0, r4
   21e76:	9303      	str	r3, [sp, #12]
   21e78:	df02      	svc	2
   21e7a:	2880      	cmp	r0, #128	@ 0x80
   21e7c:	d219      	bcs.n	21eb2 <_ZN20complex_dynamic_type3app17h3ddb6eeaf4872ae8E+0xc6>
   21e7e:	2001      	movs	r0, #1
   21e80:	7030      	strb	r0, [r6, #0]
   21e82:	6071      	str	r1, [r6, #4]
   21e84:	2109      	movs	r1, #9
   21e86:	2200      	movs	r2, #0
   21e88:	4620      	mov	r0, r4
   21e8a:	4613      	mov	r3, r2
   21e8c:	df03      	svc	3
   21e8e:	a805      	add	r0, sp, #20
   21e90:	7800      	ldrb	r0, [r0, #0]
   21e92:	2802      	cmp	r0, #2
   21e94:	d044      	beq.n	21f20 <_ZN20complex_dynamic_type3app17h3ddb6eeaf4872ae8E+0x134>
   21e96:	2108      	movs	r1, #8
   21e98:	2200      	movs	r2, #0
   21e9a:	2804      	cmp	r0, #4
   21e9c:	d104      	bne.n	21ea8 <_ZN20complex_dynamic_type3app17h3ddb6eeaf4872ae8E+0xbc>
   21e9e:	4620      	mov	r0, r4
   21ea0:	4613      	mov	r3, r2
   21ea2:	df04      	svc	4
   21ea4:	b01d      	add	sp, #116	@ 0x74
   21ea6:	bdf0      	pop	{r4, r5, r6, r7, pc}
   21ea8:	4620      	mov	r0, r4
   21eaa:	4613      	mov	r3, r2
   21eac:	df03      	svc	3
   21eae:	b01d      	add	sp, #116	@ 0x74
   21eb0:	bdf0      	pop	{r4, r5, r6, r7, pc}
   21eb2:	a805      	add	r0, sp, #20
   21eb4:	7800      	ldrb	r0, [r0, #0]
   21eb6:	2802      	cmp	r0, #2
   21eb8:	d00a      	beq.n	21ed0 <_ZN20complex_dynamic_type3app17h3ddb6eeaf4872ae8E+0xe4>
   21eba:	2108      	movs	r1, #8
   21ebc:	2200      	movs	r2, #0
   21ebe:	2803      	cmp	r0, #3
   21ec0:	d103      	bne.n	21eca <_ZN20complex_dynamic_type3app17h3ddb6eeaf4872ae8E+0xde>
   21ec2:	4620      	mov	r0, r4
   21ec4:	4613      	mov	r3, r2
   21ec6:	df03      	svc	3
   21ec8:	e002      	b.n	21ed0 <_ZN20complex_dynamic_type3app17h3ddb6eeaf4872ae8E+0xe4>
   21eca:	4620      	mov	r0, r4
   21ecc:	4613      	mov	r3, r2
   21ece:	df04      	svc	4
   21ed0:	a805      	add	r0, sp, #20
   21ed2:	9901      	ldr	r1, [sp, #4]
   21ed4:	7001      	strb	r1, [r0, #0]
   21ed6:	a80c      	add	r0, sp, #48	@ 0x30
   21ed8:	7800      	ldrb	r0, [r0, #0]
   21eda:	2804      	cmp	r0, #4
   21edc:	d008      	beq.n	21ef0 <_ZN20complex_dynamic_type3app17h3ddb6eeaf4872ae8E+0x104>
   21ede:	2803      	cmp	r0, #3
   21ee0:	d120      	bne.n	21f24 <_ZN20complex_dynamic_type3app17h3ddb6eeaf4872ae8E+0x138>
   21ee2:	2109      	movs	r1, #9
   21ee4:	2200      	movs	r2, #0
   21ee6:	9401      	str	r4, [sp, #4]
   21ee8:	4620      	mov	r0, r4
   21eea:	4613      	mov	r3, r2
   21eec:	df03      	svc	3
   21eee:	e005      	b.n	21efc <_ZN20complex_dynamic_type3app17h3ddb6eeaf4872ae8E+0x110>
   21ef0:	2109      	movs	r1, #9
   21ef2:	2200      	movs	r2, #0
   21ef4:	9401      	str	r4, [sp, #4]
   21ef6:	4620      	mov	r0, r4
   21ef8:	4613      	mov	r3, r2
   21efa:	df04      	svc	4
   21efc:	a805      	add	r0, sp, #20
   21efe:	7804      	ldrb	r4, [r0, #0]
   21f00:	1c70      	adds	r0, r6, #1
   21f02:	2241      	movs	r2, #65	@ 0x41
   21f04:	4629      	mov	r1, r5
   21f06:	f009 f8fd 	bl	2b104 <__aeabi_memcpy>
   21f0a:	9803      	ldr	r0, [sp, #12]
   21f0c:	7030      	strb	r0, [r6, #0]
   21f0e:	2c02      	cmp	r4, #2
   21f10:	d006      	beq.n	21f20 <_ZN20complex_dynamic_type3app17h3ddb6eeaf4872ae8E+0x134>
   21f12:	2c04      	cmp	r4, #4
   21f14:	d10f      	bne.n	21f36 <_ZN20complex_dynamic_type3app17h3ddb6eeaf4872ae8E+0x14a>
   21f16:	2108      	movs	r1, #8
   21f18:	2200      	movs	r2, #0
   21f1a:	9801      	ldr	r0, [sp, #4]
   21f1c:	4613      	mov	r3, r2
   21f1e:	df04      	svc	4
   21f20:	b01d      	add	sp, #116	@ 0x74
   21f22:	bdf0      	pop	{r4, r5, r6, r7, pc}
   21f24:	1c70      	adds	r0, r6, #1
   21f26:	2241      	movs	r2, #65	@ 0x41
   21f28:	4629      	mov	r1, r5
   21f2a:	f009 f8eb 	bl	2b104 <__aeabi_memcpy>
   21f2e:	9803      	ldr	r0, [sp, #12]
   21f30:	7030      	strb	r0, [r6, #0]
   21f32:	b01d      	add	sp, #116	@ 0x74
   21f34:	bdf0      	pop	{r4, r5, r6, r7, pc}
   21f36:	9801      	ldr	r0, [sp, #4]
   21f38:	2108      	movs	r1, #8
   21f3a:	2200      	movs	r2, #0
   21f3c:	4613      	mov	r3, r2
   21f3e:	df03      	svc	3
   21f40:	b01d      	add	sp, #116	@ 0x74
   21f42:	bdf0      	pop	{r4, r5, r6, r7, pc}

00021f44 <_ZN20complex_dynamic_type3app17h4ddcd32951a06e76E>:
   21f44:	b5f0      	push	{r4, r5, r6, r7, lr}
   21f46:	af03      	add	r7, sp, #12
   21f48:	b097      	sub	sp, #92	@ 0x5c
   21f4a:	9004      	str	r0, [sp, #16]
   21f4c:	a805      	add	r0, sp, #20
   21f4e:	2402      	movs	r4, #2
   21f50:	7004      	strb	r4, [r0, #0]
   21f52:	1c46      	adds	r6, r0, #1
   21f54:	2232      	movs	r2, #50	@ 0x32
   21f56:	9203      	str	r2, [sp, #12]
   21f58:	4630      	mov	r0, r6
   21f5a:	f009 f8d3 	bl	2b104 <__aeabi_memcpy>
   21f5e:	ad12      	add	r5, sp, #72	@ 0x48
   21f60:	1c68      	adds	r0, r5, #1
   21f62:	2110      	movs	r1, #16
   21f64:	9002      	str	r0, [sp, #8]
   21f66:	f008 ff0d 	bl	2ad84 <__aeabi_memclr>
   21f6a:	9401      	str	r4, [sp, #4]
   21f6c:	702c      	strb	r4, [r5, #0]
   21f6e:	4848      	ldr	r0, [pc, #288]	@ (22090 <_ZN20complex_dynamic_type3app17h4ddcd32951a06e76E+0x14c>)
   21f70:	2504      	movs	r5, #4
   21f72:	4629      	mov	r1, r5
   21f74:	4632      	mov	r2, r6
   21f76:	9b03      	ldr	r3, [sp, #12]
   21f78:	df04      	svc	4
   21f7a:	2802      	cmp	r0, #2
   21f7c:	d104      	bne.n	21f88 <_ZN20complex_dynamic_type3app17h4ddcd32951a06e76E+0x44>
   21f7e:	2001      	movs	r0, #1
   21f80:	9a04      	ldr	r2, [sp, #16]
   21f82:	7010      	strb	r0, [r2, #0]
   21f84:	6051      	str	r1, [r2, #4]
   21f86:	e02c      	b.n	21fe2 <_ZN20complex_dynamic_type3app17h4ddcd32951a06e76E+0x9e>
   21f88:	9c04      	ldr	r4, [sp, #16]
   21f8a:	a805      	add	r0, sp, #20
   21f8c:	7005      	strb	r5, [r0, #0]
   21f8e:	4840      	ldr	r0, [pc, #256]	@ (22090 <_ZN20complex_dynamic_type3app17h4ddcd32951a06e76E+0x14c>)
   21f90:	2109      	movs	r1, #9
   21f92:	2310      	movs	r3, #16
   21f94:	9a02      	ldr	r2, [sp, #8]
   21f96:	df03      	svc	3
   21f98:	2802      	cmp	r0, #2
   21f9a:	d10e      	bne.n	21fba <_ZN20complex_dynamic_type3app17h4ddcd32951a06e76E+0x76>
   21f9c:	2001      	movs	r0, #1
   21f9e:	7020      	strb	r0, [r4, #0]
   21fa0:	6061      	str	r1, [r4, #4]
   21fa2:	a812      	add	r0, sp, #72	@ 0x48
   21fa4:	7800      	ldrb	r0, [r0, #0]
   21fa6:	2802      	cmp	r0, #2
   21fa8:	d01b      	beq.n	21fe2 <_ZN20complex_dynamic_type3app17h4ddcd32951a06e76E+0x9e>
   21faa:	2803      	cmp	r0, #3
   21fac:	d014      	beq.n	21fd8 <_ZN20complex_dynamic_type3app17h4ddcd32951a06e76E+0x94>
   21fae:	4838      	ldr	r0, [pc, #224]	@ (22090 <_ZN20complex_dynamic_type3app17h4ddcd32951a06e76E+0x14c>)
   21fb0:	2109      	movs	r1, #9
   21fb2:	2200      	movs	r2, #0
   21fb4:	4613      	mov	r3, r2
   21fb6:	df04      	svc	4
   21fb8:	e013      	b.n	21fe2 <_ZN20complex_dynamic_type3app17h4ddcd32951a06e76E+0x9e>
   21fba:	a812      	add	r0, sp, #72	@ 0x48
   21fbc:	2103      	movs	r1, #3
   21fbe:	7001      	strb	r1, [r0, #0]
   21fc0:	4833      	ldr	r0, [pc, #204]	@ (22090 <_ZN20complex_dynamic_type3app17h4ddcd32951a06e76E+0x14c>)
   21fc2:	2104      	movs	r1, #4
   21fc4:	2209      	movs	r2, #9
   21fc6:	2600      	movs	r6, #0
   21fc8:	4633      	mov	r3, r6
   21fca:	df02      	svc	2
   21fcc:	2880      	cmp	r0, #128	@ 0x80
   21fce:	4625      	mov	r5, r4
   21fd0:	d21b      	bcs.n	2200a <_ZN20complex_dynamic_type3app17h4ddcd32951a06e76E+0xc6>
   21fd2:	2001      	movs	r0, #1
   21fd4:	7028      	strb	r0, [r5, #0]
   21fd6:	6069      	str	r1, [r5, #4]
   21fd8:	482d      	ldr	r0, [pc, #180]	@ (22090 <_ZN20complex_dynamic_type3app17h4ddcd32951a06e76E+0x14c>)
   21fda:	2109      	movs	r1, #9
   21fdc:	2200      	movs	r2, #0
   21fde:	4613      	mov	r3, r2
   21fe0:	df03      	svc	3
   21fe2:	a805      	add	r0, sp, #20
   21fe4:	7800      	ldrb	r0, [r0, #0]
   21fe6:	2802      	cmp	r0, #2
   21fe8:	d045      	beq.n	22076 <_ZN20complex_dynamic_type3app17h4ddcd32951a06e76E+0x132>
   21fea:	2804      	cmp	r0, #4
   21fec:	d106      	bne.n	21ffc <_ZN20complex_dynamic_type3app17h4ddcd32951a06e76E+0xb8>
   21fee:	4828      	ldr	r0, [pc, #160]	@ (22090 <_ZN20complex_dynamic_type3app17h4ddcd32951a06e76E+0x14c>)
   21ff0:	2104      	movs	r1, #4
   21ff2:	2200      	movs	r2, #0
   21ff4:	4613      	mov	r3, r2
   21ff6:	df04      	svc	4
   21ff8:	b017      	add	sp, #92	@ 0x5c
   21ffa:	bdf0      	pop	{r4, r5, r6, r7, pc}
   21ffc:	4824      	ldr	r0, [pc, #144]	@ (22090 <_ZN20complex_dynamic_type3app17h4ddcd32951a06e76E+0x14c>)
   21ffe:	2104      	movs	r1, #4
   22000:	2200      	movs	r2, #0
   22002:	4613      	mov	r3, r2
   22004:	df03      	svc	3
   22006:	b017      	add	sp, #92	@ 0x5c
   22008:	bdf0      	pop	{r4, r5, r6, r7, pc}
   2200a:	a805      	add	r0, sp, #20
   2200c:	7800      	ldrb	r0, [r0, #0]
   2200e:	2802      	cmp	r0, #2
   22010:	d00c      	beq.n	2202c <_ZN20complex_dynamic_type3app17h4ddcd32951a06e76E+0xe8>
   22012:	2803      	cmp	r0, #3
   22014:	d105      	bne.n	22022 <_ZN20complex_dynamic_type3app17h4ddcd32951a06e76E+0xde>
   22016:	481e      	ldr	r0, [pc, #120]	@ (22090 <_ZN20complex_dynamic_type3app17h4ddcd32951a06e76E+0x14c>)
   22018:	2104      	movs	r1, #4
   2201a:	2200      	movs	r2, #0
   2201c:	4613      	mov	r3, r2
   2201e:	df03      	svc	3
   22020:	e004      	b.n	2202c <_ZN20complex_dynamic_type3app17h4ddcd32951a06e76E+0xe8>
   22022:	481b      	ldr	r0, [pc, #108]	@ (22090 <_ZN20complex_dynamic_type3app17h4ddcd32951a06e76E+0x14c>)
   22024:	2104      	movs	r1, #4
   22026:	2200      	movs	r2, #0
   22028:	4613      	mov	r3, r2
   2202a:	df04      	svc	4
   2202c:	a805      	add	r0, sp, #20
   2202e:	9901      	ldr	r1, [sp, #4]
   22030:	7001      	strb	r1, [r0, #0]
   22032:	a812      	add	r0, sp, #72	@ 0x48
   22034:	7800      	ldrb	r0, [r0, #0]
   22036:	2804      	cmp	r0, #4
   22038:	d007      	beq.n	2204a <_ZN20complex_dynamic_type3app17h4ddcd32951a06e76E+0x106>
   2203a:	2803      	cmp	r0, #3
   2203c:	d11d      	bne.n	2207a <_ZN20complex_dynamic_type3app17h4ddcd32951a06e76E+0x136>
   2203e:	4814      	ldr	r0, [pc, #80]	@ (22090 <_ZN20complex_dynamic_type3app17h4ddcd32951a06e76E+0x14c>)
   22040:	2109      	movs	r1, #9
   22042:	2200      	movs	r2, #0
   22044:	4613      	mov	r3, r2
   22046:	df03      	svc	3
   22048:	e004      	b.n	22054 <_ZN20complex_dynamic_type3app17h4ddcd32951a06e76E+0x110>
   2204a:	4811      	ldr	r0, [pc, #68]	@ (22090 <_ZN20complex_dynamic_type3app17h4ddcd32951a06e76E+0x14c>)
   2204c:	2109      	movs	r1, #9
   2204e:	2200      	movs	r2, #0
   22050:	4613      	mov	r3, r2
   22052:	df04      	svc	4
   22054:	a805      	add	r0, sp, #20
   22056:	7804      	ldrb	r4, [r0, #0]
   22058:	1c68      	adds	r0, r5, #1
   2205a:	2210      	movs	r2, #16
   2205c:	9902      	ldr	r1, [sp, #8]
   2205e:	f009 f851 	bl	2b104 <__aeabi_memcpy>
   22062:	702e      	strb	r6, [r5, #0]
   22064:	2c02      	cmp	r4, #2
   22066:	d006      	beq.n	22076 <_ZN20complex_dynamic_type3app17h4ddcd32951a06e76E+0x132>
   22068:	4809      	ldr	r0, [pc, #36]	@ (22090 <_ZN20complex_dynamic_type3app17h4ddcd32951a06e76E+0x14c>)
   2206a:	2104      	movs	r1, #4
   2206c:	2200      	movs	r2, #0
   2206e:	4613      	mov	r3, r2
   22070:	2c04      	cmp	r4, #4
   22072:	d10a      	bne.n	2208a <_ZN20complex_dynamic_type3app17h4ddcd32951a06e76E+0x146>
   22074:	df04      	svc	4
   22076:	b017      	add	sp, #92	@ 0x5c
   22078:	bdf0      	pop	{r4, r5, r6, r7, pc}
   2207a:	1c68      	adds	r0, r5, #1
   2207c:	2210      	movs	r2, #16
   2207e:	9902      	ldr	r1, [sp, #8]
   22080:	f009 f840 	bl	2b104 <__aeabi_memcpy>
   22084:	702e      	strb	r6, [r5, #0]
   22086:	b017      	add	sp, #92	@ 0x5c
   22088:	bdf0      	pop	{r4, r5, r6, r7, pc}
   2208a:	df03      	svc	3
   2208c:	b017      	add	sp, #92	@ 0x5c
   2208e:	bdf0      	pop	{r4, r5, r6, r7, pc}
   22090:	000019d6 	.word	0x000019d6

00022094 <_ZN20complex_dynamic_type3app17h4e642b1e3a654091E>:
   22094:	b5f0      	push	{r4, r5, r6, r7, lr}
   22096:	af03      	add	r7, sp, #12
   22098:	b0af      	sub	sp, #188	@ 0xbc
   2209a:	9004      	str	r0, [sp, #16]
   2209c:	a805      	add	r0, sp, #20
   2209e:	2402      	movs	r4, #2
   220a0:	7004      	strb	r4, [r0, #0]
   220a2:	1c46      	adds	r6, r0, #1
   220a4:	2259      	movs	r2, #89	@ 0x59
   220a6:	9203      	str	r2, [sp, #12]
   220a8:	4630      	mov	r0, r6
   220aa:	f009 f82b 	bl	2b104 <__aeabi_memcpy>
   220ae:	ad1c      	add	r5, sp, #112	@ 0x70
   220b0:	1c68      	adds	r0, r5, #1
   220b2:	214a      	movs	r1, #74	@ 0x4a
   220b4:	9002      	str	r0, [sp, #8]
   220b6:	f008 fe65 	bl	2ad84 <__aeabi_memclr>
   220ba:	9401      	str	r4, [sp, #4]
   220bc:	702c      	strb	r4, [r5, #0]
   220be:	4848      	ldr	r0, [pc, #288]	@ (221e0 <_ZN20complex_dynamic_type3app17h4e642b1e3a654091E+0x14c>)
   220c0:	2100      	movs	r1, #0
   220c2:	4632      	mov	r2, r6
   220c4:	9b03      	ldr	r3, [sp, #12]
   220c6:	df04      	svc	4
   220c8:	2802      	cmp	r0, #2
   220ca:	d104      	bne.n	220d6 <_ZN20complex_dynamic_type3app17h4e642b1e3a654091E+0x42>
   220cc:	2001      	movs	r0, #1
   220ce:	9a04      	ldr	r2, [sp, #16]
   220d0:	7010      	strb	r0, [r2, #0]
   220d2:	6051      	str	r1, [r2, #4]
   220d4:	e02c      	b.n	22130 <_ZN20complex_dynamic_type3app17h4e642b1e3a654091E+0x9c>
   220d6:	9d04      	ldr	r5, [sp, #16]
   220d8:	a805      	add	r0, sp, #20
   220da:	2104      	movs	r1, #4
   220dc:	7001      	strb	r1, [r0, #0]
   220de:	4840      	ldr	r0, [pc, #256]	@ (221e0 <_ZN20complex_dynamic_type3app17h4e642b1e3a654091E+0x14c>)
   220e0:	234a      	movs	r3, #74	@ 0x4a
   220e2:	9c02      	ldr	r4, [sp, #8]
   220e4:	4622      	mov	r2, r4
   220e6:	df03      	svc	3
   220e8:	2802      	cmp	r0, #2
   220ea:	d10e      	bne.n	2210a <_ZN20complex_dynamic_type3app17h4e642b1e3a654091E+0x76>
   220ec:	2001      	movs	r0, #1
   220ee:	7028      	strb	r0, [r5, #0]
   220f0:	6069      	str	r1, [r5, #4]
   220f2:	a81c      	add	r0, sp, #112	@ 0x70
   220f4:	7800      	ldrb	r0, [r0, #0]
   220f6:	2802      	cmp	r0, #2
   220f8:	d01a      	beq.n	22130 <_ZN20complex_dynamic_type3app17h4e642b1e3a654091E+0x9c>
   220fa:	2803      	cmp	r0, #3
   220fc:	d013      	beq.n	22126 <_ZN20complex_dynamic_type3app17h4e642b1e3a654091E+0x92>
   220fe:	4838      	ldr	r0, [pc, #224]	@ (221e0 <_ZN20complex_dynamic_type3app17h4e642b1e3a654091E+0x14c>)
   22100:	2104      	movs	r1, #4
   22102:	2200      	movs	r2, #0
   22104:	4613      	mov	r3, r2
   22106:	df04      	svc	4
   22108:	e012      	b.n	22130 <_ZN20complex_dynamic_type3app17h4e642b1e3a654091E+0x9c>
   2210a:	a81c      	add	r0, sp, #112	@ 0x70
   2210c:	2103      	movs	r1, #3
   2210e:	7001      	strb	r1, [r0, #0]
   22110:	4833      	ldr	r0, [pc, #204]	@ (221e0 <_ZN20complex_dynamic_type3app17h4e642b1e3a654091E+0x14c>)
   22112:	2204      	movs	r2, #4
   22114:	2600      	movs	r6, #0
   22116:	4631      	mov	r1, r6
   22118:	4633      	mov	r3, r6
   2211a:	df02      	svc	2
   2211c:	2880      	cmp	r0, #128	@ 0x80
   2211e:	d21b      	bcs.n	22158 <_ZN20complex_dynamic_type3app17h4e642b1e3a654091E+0xc4>
   22120:	2001      	movs	r0, #1
   22122:	7028      	strb	r0, [r5, #0]
   22124:	6069      	str	r1, [r5, #4]
   22126:	482e      	ldr	r0, [pc, #184]	@ (221e0 <_ZN20complex_dynamic_type3app17h4e642b1e3a654091E+0x14c>)
   22128:	2104      	movs	r1, #4
   2212a:	2200      	movs	r2, #0
   2212c:	4613      	mov	r3, r2
   2212e:	df03      	svc	3
   22130:	a805      	add	r0, sp, #20
   22132:	7800      	ldrb	r0, [r0, #0]
   22134:	2802      	cmp	r0, #2
   22136:	d045      	beq.n	221c4 <_ZN20complex_dynamic_type3app17h4e642b1e3a654091E+0x130>
   22138:	2804      	cmp	r0, #4
   2213a:	d106      	bne.n	2214a <_ZN20complex_dynamic_type3app17h4e642b1e3a654091E+0xb6>
   2213c:	4828      	ldr	r0, [pc, #160]	@ (221e0 <_ZN20complex_dynamic_type3app17h4e642b1e3a654091E+0x14c>)
   2213e:	2100      	movs	r1, #0
   22140:	460a      	mov	r2, r1
   22142:	460b      	mov	r3, r1
   22144:	df04      	svc	4
   22146:	b02f      	add	sp, #188	@ 0xbc
   22148:	bdf0      	pop	{r4, r5, r6, r7, pc}
   2214a:	4825      	ldr	r0, [pc, #148]	@ (221e0 <_ZN20complex_dynamic_type3app17h4e642b1e3a654091E+0x14c>)
   2214c:	2100      	movs	r1, #0
   2214e:	460a      	mov	r2, r1
   22150:	460b      	mov	r3, r1
   22152:	df03      	svc	3
   22154:	b02f      	add	sp, #188	@ 0xbc
   22156:	bdf0      	pop	{r4, r5, r6, r7, pc}
   22158:	a805      	add	r0, sp, #20
   2215a:	7800      	ldrb	r0, [r0, #0]
   2215c:	2802      	cmp	r0, #2
   2215e:	d00c      	beq.n	2217a <_ZN20complex_dynamic_type3app17h4e642b1e3a654091E+0xe6>
   22160:	2803      	cmp	r0, #3
   22162:	d105      	bne.n	22170 <_ZN20complex_dynamic_type3app17h4e642b1e3a654091E+0xdc>
   22164:	481e      	ldr	r0, [pc, #120]	@ (221e0 <_ZN20complex_dynamic_type3app17h4e642b1e3a654091E+0x14c>)
   22166:	2100      	movs	r1, #0
   22168:	460a      	mov	r2, r1
   2216a:	460b      	mov	r3, r1
   2216c:	df03      	svc	3
   2216e:	e004      	b.n	2217a <_ZN20complex_dynamic_type3app17h4e642b1e3a654091E+0xe6>
   22170:	481b      	ldr	r0, [pc, #108]	@ (221e0 <_ZN20complex_dynamic_type3app17h4e642b1e3a654091E+0x14c>)
   22172:	2100      	movs	r1, #0
   22174:	460a      	mov	r2, r1
   22176:	460b      	mov	r3, r1
   22178:	df04      	svc	4
   2217a:	a805      	add	r0, sp, #20
   2217c:	9901      	ldr	r1, [sp, #4]
   2217e:	7001      	strb	r1, [r0, #0]
   22180:	a81c      	add	r0, sp, #112	@ 0x70
   22182:	7800      	ldrb	r0, [r0, #0]
   22184:	2804      	cmp	r0, #4
   22186:	d007      	beq.n	22198 <_ZN20complex_dynamic_type3app17h4e642b1e3a654091E+0x104>
   22188:	2803      	cmp	r0, #3
   2218a:	d11d      	bne.n	221c8 <_ZN20complex_dynamic_type3app17h4e642b1e3a654091E+0x134>
   2218c:	4814      	ldr	r0, [pc, #80]	@ (221e0 <_ZN20complex_dynamic_type3app17h4e642b1e3a654091E+0x14c>)
   2218e:	2104      	movs	r1, #4
   22190:	2200      	movs	r2, #0
   22192:	4613      	mov	r3, r2
   22194:	df03      	svc	3
   22196:	e004      	b.n	221a2 <_ZN20complex_dynamic_type3app17h4e642b1e3a654091E+0x10e>
   22198:	4811      	ldr	r0, [pc, #68]	@ (221e0 <_ZN20complex_dynamic_type3app17h4e642b1e3a654091E+0x14c>)
   2219a:	2104      	movs	r1, #4
   2219c:	2200      	movs	r2, #0
   2219e:	4613      	mov	r3, r2
   221a0:	df04      	svc	4
   221a2:	a805      	add	r0, sp, #20
   221a4:	7804      	ldrb	r4, [r0, #0]
   221a6:	1c68      	adds	r0, r5, #1
   221a8:	224a      	movs	r2, #74	@ 0x4a
   221aa:	9902      	ldr	r1, [sp, #8]
   221ac:	f008 ffaa 	bl	2b104 <__aeabi_memcpy>
   221b0:	702e      	strb	r6, [r5, #0]
   221b2:	2c02      	cmp	r4, #2
   221b4:	d006      	beq.n	221c4 <_ZN20complex_dynamic_type3app17h4e642b1e3a654091E+0x130>
   221b6:	480a      	ldr	r0, [pc, #40]	@ (221e0 <_ZN20complex_dynamic_type3app17h4e642b1e3a654091E+0x14c>)
   221b8:	2100      	movs	r1, #0
   221ba:	460a      	mov	r2, r1
   221bc:	460b      	mov	r3, r1
   221be:	2c04      	cmp	r4, #4
   221c0:	d10a      	bne.n	221d8 <_ZN20complex_dynamic_type3app17h4e642b1e3a654091E+0x144>
   221c2:	df04      	svc	4
   221c4:	b02f      	add	sp, #188	@ 0xbc
   221c6:	bdf0      	pop	{r4, r5, r6, r7, pc}
   221c8:	1c68      	adds	r0, r5, #1
   221ca:	224a      	movs	r2, #74	@ 0x4a
   221cc:	4621      	mov	r1, r4
   221ce:	f008 ff99 	bl	2b104 <__aeabi_memcpy>
   221d2:	702e      	strb	r6, [r5, #0]
   221d4:	b02f      	add	sp, #188	@ 0xbc
   221d6:	bdf0      	pop	{r4, r5, r6, r7, pc}
   221d8:	df03      	svc	3
   221da:	b02f      	add	sp, #188	@ 0xbc
   221dc:	bdf0      	pop	{r4, r5, r6, r7, pc}
   221de:	46c0      	nop			@ (mov r8, r8)
   221e0:	00001484 	.word	0x00001484

000221e4 <_ZN20complex_dynamic_type3app17h5105ab75999ed4aeE>:
   221e4:	b5f0      	push	{r4, r5, r6, r7, lr}
   221e6:	af03      	add	r7, sp, #12
   221e8:	b099      	sub	sp, #100	@ 0x64
   221ea:	9003      	str	r0, [sp, #12]
   221ec:	a804      	add	r0, sp, #16
   221ee:	2402      	movs	r4, #2
   221f0:	7004      	strb	r4, [r0, #0]
   221f2:	1c46      	adds	r6, r0, #1
   221f4:	2234      	movs	r2, #52	@ 0x34
   221f6:	9202      	str	r2, [sp, #8]
   221f8:	4630      	mov	r0, r6
   221fa:	f008 ff83 	bl	2b104 <__aeabi_memcpy>
   221fe:	ad12      	add	r5, sp, #72	@ 0x48
   22200:	1c68      	adds	r0, r5, #1
   22202:	211a      	movs	r1, #26
   22204:	9001      	str	r0, [sp, #4]
   22206:	f008 fdbd 	bl	2ad84 <__aeabi_memclr>
   2220a:	9400      	str	r4, [sp, #0]
   2220c:	702c      	strb	r4, [r5, #0]
   2220e:	4848      	ldr	r0, [pc, #288]	@ (22330 <_ZN20complex_dynamic_type3app17h5105ab75999ed4aeE+0x14c>)
   22210:	2100      	movs	r1, #0
   22212:	4632      	mov	r2, r6
   22214:	9b02      	ldr	r3, [sp, #8]
   22216:	df04      	svc	4
   22218:	2802      	cmp	r0, #2
   2221a:	d104      	bne.n	22226 <_ZN20complex_dynamic_type3app17h5105ab75999ed4aeE+0x42>
   2221c:	2001      	movs	r0, #1
   2221e:	9a03      	ldr	r2, [sp, #12]
   22220:	7010      	strb	r0, [r2, #0]
   22222:	6051      	str	r1, [r2, #4]
   22224:	e02d      	b.n	22282 <_ZN20complex_dynamic_type3app17h5105ab75999ed4aeE+0x9e>
   22226:	9d03      	ldr	r5, [sp, #12]
   22228:	a804      	add	r0, sp, #16
   2222a:	2104      	movs	r1, #4
   2222c:	7001      	strb	r1, [r0, #0]
   2222e:	4840      	ldr	r0, [pc, #256]	@ (22330 <_ZN20complex_dynamic_type3app17h5105ab75999ed4aeE+0x14c>)
   22230:	2105      	movs	r1, #5
   22232:	231a      	movs	r3, #26
   22234:	9c01      	ldr	r4, [sp, #4]
   22236:	4622      	mov	r2, r4
   22238:	df03      	svc	3
   2223a:	2802      	cmp	r0, #2
   2223c:	d10e      	bne.n	2225c <_ZN20complex_dynamic_type3app17h5105ab75999ed4aeE+0x78>
   2223e:	2001      	movs	r0, #1
   22240:	7028      	strb	r0, [r5, #0]
   22242:	6069      	str	r1, [r5, #4]
   22244:	a812      	add	r0, sp, #72	@ 0x48
   22246:	7800      	ldrb	r0, [r0, #0]
   22248:	2802      	cmp	r0, #2
   2224a:	d01a      	beq.n	22282 <_ZN20complex_dynamic_type3app17h5105ab75999ed4aeE+0x9e>
   2224c:	2803      	cmp	r0, #3
   2224e:	d013      	beq.n	22278 <_ZN20complex_dynamic_type3app17h5105ab75999ed4aeE+0x94>
   22250:	4837      	ldr	r0, [pc, #220]	@ (22330 <_ZN20complex_dynamic_type3app17h5105ab75999ed4aeE+0x14c>)
   22252:	2105      	movs	r1, #5
   22254:	2200      	movs	r2, #0
   22256:	4613      	mov	r3, r2
   22258:	df04      	svc	4
   2225a:	e012      	b.n	22282 <_ZN20complex_dynamic_type3app17h5105ab75999ed4aeE+0x9e>
   2225c:	a812      	add	r0, sp, #72	@ 0x48
   2225e:	2103      	movs	r1, #3
   22260:	7001      	strb	r1, [r0, #0]
   22262:	4833      	ldr	r0, [pc, #204]	@ (22330 <_ZN20complex_dynamic_type3app17h5105ab75999ed4aeE+0x14c>)
   22264:	2205      	movs	r2, #5
   22266:	2600      	movs	r6, #0
   22268:	4631      	mov	r1, r6
   2226a:	4633      	mov	r3, r6
   2226c:	df02      	svc	2
   2226e:	2880      	cmp	r0, #128	@ 0x80
   22270:	d21b      	bcs.n	222aa <_ZN20complex_dynamic_type3app17h5105ab75999ed4aeE+0xc6>
   22272:	2001      	movs	r0, #1
   22274:	7028      	strb	r0, [r5, #0]
   22276:	6069      	str	r1, [r5, #4]
   22278:	482d      	ldr	r0, [pc, #180]	@ (22330 <_ZN20complex_dynamic_type3app17h5105ab75999ed4aeE+0x14c>)
   2227a:	2105      	movs	r1, #5
   2227c:	2200      	movs	r2, #0
   2227e:	4613      	mov	r3, r2
   22280:	df03      	svc	3
   22282:	a804      	add	r0, sp, #16
   22284:	7800      	ldrb	r0, [r0, #0]
   22286:	2802      	cmp	r0, #2
   22288:	d045      	beq.n	22316 <_ZN20complex_dynamic_type3app17h5105ab75999ed4aeE+0x132>
   2228a:	2804      	cmp	r0, #4
   2228c:	d106      	bne.n	2229c <_ZN20complex_dynamic_type3app17h5105ab75999ed4aeE+0xb8>
   2228e:	4828      	ldr	r0, [pc, #160]	@ (22330 <_ZN20complex_dynamic_type3app17h5105ab75999ed4aeE+0x14c>)
   22290:	2100      	movs	r1, #0
   22292:	460a      	mov	r2, r1
   22294:	460b      	mov	r3, r1
   22296:	df04      	svc	4
   22298:	b019      	add	sp, #100	@ 0x64
   2229a:	bdf0      	pop	{r4, r5, r6, r7, pc}
   2229c:	4824      	ldr	r0, [pc, #144]	@ (22330 <_ZN20complex_dynamic_type3app17h5105ab75999ed4aeE+0x14c>)
   2229e:	2100      	movs	r1, #0
   222a0:	460a      	mov	r2, r1
   222a2:	460b      	mov	r3, r1
   222a4:	df03      	svc	3
   222a6:	b019      	add	sp, #100	@ 0x64
   222a8:	bdf0      	pop	{r4, r5, r6, r7, pc}
   222aa:	a804      	add	r0, sp, #16
   222ac:	7800      	ldrb	r0, [r0, #0]
   222ae:	2802      	cmp	r0, #2
   222b0:	d00c      	beq.n	222cc <_ZN20complex_dynamic_type3app17h5105ab75999ed4aeE+0xe8>
   222b2:	2803      	cmp	r0, #3
   222b4:	d105      	bne.n	222c2 <_ZN20complex_dynamic_type3app17h5105ab75999ed4aeE+0xde>
   222b6:	481e      	ldr	r0, [pc, #120]	@ (22330 <_ZN20complex_dynamic_type3app17h5105ab75999ed4aeE+0x14c>)
   222b8:	2100      	movs	r1, #0
   222ba:	460a      	mov	r2, r1
   222bc:	460b      	mov	r3, r1
   222be:	df03      	svc	3
   222c0:	e004      	b.n	222cc <_ZN20complex_dynamic_type3app17h5105ab75999ed4aeE+0xe8>
   222c2:	481b      	ldr	r0, [pc, #108]	@ (22330 <_ZN20complex_dynamic_type3app17h5105ab75999ed4aeE+0x14c>)
   222c4:	2100      	movs	r1, #0
   222c6:	460a      	mov	r2, r1
   222c8:	460b      	mov	r3, r1
   222ca:	df04      	svc	4
   222cc:	a804      	add	r0, sp, #16
   222ce:	9900      	ldr	r1, [sp, #0]
   222d0:	7001      	strb	r1, [r0, #0]
   222d2:	a812      	add	r0, sp, #72	@ 0x48
   222d4:	7800      	ldrb	r0, [r0, #0]
   222d6:	2804      	cmp	r0, #4
   222d8:	d007      	beq.n	222ea <_ZN20complex_dynamic_type3app17h5105ab75999ed4aeE+0x106>
   222da:	2803      	cmp	r0, #3
   222dc:	d11d      	bne.n	2231a <_ZN20complex_dynamic_type3app17h5105ab75999ed4aeE+0x136>
   222de:	4814      	ldr	r0, [pc, #80]	@ (22330 <_ZN20complex_dynamic_type3app17h5105ab75999ed4aeE+0x14c>)
   222e0:	2105      	movs	r1, #5
   222e2:	2200      	movs	r2, #0
   222e4:	4613      	mov	r3, r2
   222e6:	df03      	svc	3
   222e8:	e004      	b.n	222f4 <_ZN20complex_dynamic_type3app17h5105ab75999ed4aeE+0x110>
   222ea:	4811      	ldr	r0, [pc, #68]	@ (22330 <_ZN20complex_dynamic_type3app17h5105ab75999ed4aeE+0x14c>)
   222ec:	2105      	movs	r1, #5
   222ee:	2200      	movs	r2, #0
   222f0:	4613      	mov	r3, r2
   222f2:	df04      	svc	4
   222f4:	a804      	add	r0, sp, #16
   222f6:	7804      	ldrb	r4, [r0, #0]
   222f8:	1c68      	adds	r0, r5, #1
   222fa:	221a      	movs	r2, #26
   222fc:	9901      	ldr	r1, [sp, #4]
   222fe:	f008 ff01 	bl	2b104 <__aeabi_memcpy>
   22302:	702e      	strb	r6, [r5, #0]
   22304:	2c02      	cmp	r4, #2
   22306:	d006      	beq.n	22316 <_ZN20complex_dynamic_type3app17h5105ab75999ed4aeE+0x132>
   22308:	4809      	ldr	r0, [pc, #36]	@ (22330 <_ZN20complex_dynamic_type3app17h5105ab75999ed4aeE+0x14c>)
   2230a:	2100      	movs	r1, #0
   2230c:	460a      	mov	r2, r1
   2230e:	460b      	mov	r3, r1
   22310:	2c04      	cmp	r4, #4
   22312:	d10a      	bne.n	2232a <_ZN20complex_dynamic_type3app17h5105ab75999ed4aeE+0x146>
   22314:	df04      	svc	4
   22316:	b019      	add	sp, #100	@ 0x64
   22318:	bdf0      	pop	{r4, r5, r6, r7, pc}
   2231a:	1c68      	adds	r0, r5, #1
   2231c:	221a      	movs	r2, #26
   2231e:	4621      	mov	r1, r4
   22320:	f008 fef0 	bl	2b104 <__aeabi_memcpy>
   22324:	702e      	strb	r6, [r5, #0]
   22326:	b019      	add	sp, #100	@ 0x64
   22328:	bdf0      	pop	{r4, r5, r6, r7, pc}
   2232a:	df03      	svc	3
   2232c:	b019      	add	sp, #100	@ 0x64
   2232e:	bdf0      	pop	{r4, r5, r6, r7, pc}
   22330:	000012cc 	.word	0x000012cc

00022334 <_ZN20complex_dynamic_type3app17h5249f906495b8fd3E>:
   22334:	b5f0      	push	{r4, r5, r6, r7, lr}
   22336:	af03      	add	r7, sp, #12
   22338:	b0ad      	sub	sp, #180	@ 0xb4
   2233a:	9003      	str	r0, [sp, #12]
   2233c:	a804      	add	r0, sp, #16
   2233e:	2402      	movs	r4, #2
   22340:	7004      	strb	r4, [r0, #0]
   22342:	1c46      	adds	r6, r0, #1
   22344:	2251      	movs	r2, #81	@ 0x51
   22346:	9202      	str	r2, [sp, #8]
   22348:	4630      	mov	r0, r6
   2234a:	f008 fedb 	bl	2b104 <__aeabi_memcpy>
   2234e:	ad19      	add	r5, sp, #100	@ 0x64
   22350:	1c68      	adds	r0, r5, #1
   22352:	214f      	movs	r1, #79	@ 0x4f
   22354:	9001      	str	r0, [sp, #4]
   22356:	f008 fd15 	bl	2ad84 <__aeabi_memclr>
   2235a:	9400      	str	r4, [sp, #0]
   2235c:	702c      	strb	r4, [r5, #0]
   2235e:	4848      	ldr	r0, [pc, #288]	@ (22480 <_ZN20complex_dynamic_type3app17h5249f906495b8fd3E+0x14c>)
   22360:	2504      	movs	r5, #4
   22362:	4629      	mov	r1, r5
   22364:	4632      	mov	r2, r6
   22366:	9b02      	ldr	r3, [sp, #8]
   22368:	df04      	svc	4
   2236a:	2802      	cmp	r0, #2
   2236c:	d104      	bne.n	22378 <_ZN20complex_dynamic_type3app17h5249f906495b8fd3E+0x44>
   2236e:	2001      	movs	r0, #1
   22370:	9a03      	ldr	r2, [sp, #12]
   22372:	7010      	strb	r0, [r2, #0]
   22374:	6051      	str	r1, [r2, #4]
   22376:	e02c      	b.n	223d2 <_ZN20complex_dynamic_type3app17h5249f906495b8fd3E+0x9e>
   22378:	9c03      	ldr	r4, [sp, #12]
   2237a:	a804      	add	r0, sp, #16
   2237c:	7005      	strb	r5, [r0, #0]
   2237e:	4840      	ldr	r0, [pc, #256]	@ (22480 <_ZN20complex_dynamic_type3app17h5249f906495b8fd3E+0x14c>)
   22380:	2109      	movs	r1, #9
   22382:	234f      	movs	r3, #79	@ 0x4f
   22384:	9a01      	ldr	r2, [sp, #4]
   22386:	df03      	svc	3
   22388:	2802      	cmp	r0, #2
   2238a:	d10e      	bne.n	223aa <_ZN20complex_dynamic_type3app17h5249f906495b8fd3E+0x76>
   2238c:	2001      	movs	r0, #1
   2238e:	7020      	strb	r0, [r4, #0]
   22390:	6061      	str	r1, [r4, #4]
   22392:	a819      	add	r0, sp, #100	@ 0x64
   22394:	7800      	ldrb	r0, [r0, #0]
   22396:	2802      	cmp	r0, #2
   22398:	d01b      	beq.n	223d2 <_ZN20complex_dynamic_type3app17h5249f906495b8fd3E+0x9e>
   2239a:	2803      	cmp	r0, #3
   2239c:	d014      	beq.n	223c8 <_ZN20complex_dynamic_type3app17h5249f906495b8fd3E+0x94>
   2239e:	4838      	ldr	r0, [pc, #224]	@ (22480 <_ZN20complex_dynamic_type3app17h5249f906495b8fd3E+0x14c>)
   223a0:	2109      	movs	r1, #9
   223a2:	2200      	movs	r2, #0
   223a4:	4613      	mov	r3, r2
   223a6:	df04      	svc	4
   223a8:	e013      	b.n	223d2 <_ZN20complex_dynamic_type3app17h5249f906495b8fd3E+0x9e>
   223aa:	a819      	add	r0, sp, #100	@ 0x64
   223ac:	2103      	movs	r1, #3
   223ae:	7001      	strb	r1, [r0, #0]
   223b0:	4833      	ldr	r0, [pc, #204]	@ (22480 <_ZN20complex_dynamic_type3app17h5249f906495b8fd3E+0x14c>)
   223b2:	2104      	movs	r1, #4
   223b4:	2209      	movs	r2, #9
   223b6:	2600      	movs	r6, #0
   223b8:	4633      	mov	r3, r6
   223ba:	df02      	svc	2
   223bc:	2880      	cmp	r0, #128	@ 0x80
   223be:	4625      	mov	r5, r4
   223c0:	d21b      	bcs.n	223fa <_ZN20complex_dynamic_type3app17h5249f906495b8fd3E+0xc6>
   223c2:	2001      	movs	r0, #1
   223c4:	7028      	strb	r0, [r5, #0]
   223c6:	6069      	str	r1, [r5, #4]
   223c8:	482d      	ldr	r0, [pc, #180]	@ (22480 <_ZN20complex_dynamic_type3app17h5249f906495b8fd3E+0x14c>)
   223ca:	2109      	movs	r1, #9
   223cc:	2200      	movs	r2, #0
   223ce:	4613      	mov	r3, r2
   223d0:	df03      	svc	3
   223d2:	a804      	add	r0, sp, #16
   223d4:	7800      	ldrb	r0, [r0, #0]
   223d6:	2802      	cmp	r0, #2
   223d8:	d045      	beq.n	22466 <_ZN20complex_dynamic_type3app17h5249f906495b8fd3E+0x132>
   223da:	2804      	cmp	r0, #4
   223dc:	d106      	bne.n	223ec <_ZN20complex_dynamic_type3app17h5249f906495b8fd3E+0xb8>
   223de:	4828      	ldr	r0, [pc, #160]	@ (22480 <_ZN20complex_dynamic_type3app17h5249f906495b8fd3E+0x14c>)
   223e0:	2104      	movs	r1, #4
   223e2:	2200      	movs	r2, #0
   223e4:	4613      	mov	r3, r2
   223e6:	df04      	svc	4
   223e8:	b02d      	add	sp, #180	@ 0xb4
   223ea:	bdf0      	pop	{r4, r5, r6, r7, pc}
   223ec:	4824      	ldr	r0, [pc, #144]	@ (22480 <_ZN20complex_dynamic_type3app17h5249f906495b8fd3E+0x14c>)
   223ee:	2104      	movs	r1, #4
   223f0:	2200      	movs	r2, #0
   223f2:	4613      	mov	r3, r2
   223f4:	df03      	svc	3
   223f6:	b02d      	add	sp, #180	@ 0xb4
   223f8:	bdf0      	pop	{r4, r5, r6, r7, pc}
   223fa:	a804      	add	r0, sp, #16
   223fc:	7800      	ldrb	r0, [r0, #0]
   223fe:	2802      	cmp	r0, #2
   22400:	d00c      	beq.n	2241c <_ZN20complex_dynamic_type3app17h5249f906495b8fd3E+0xe8>
   22402:	2803      	cmp	r0, #3
   22404:	d105      	bne.n	22412 <_ZN20complex_dynamic_type3app17h5249f906495b8fd3E+0xde>
   22406:	481e      	ldr	r0, [pc, #120]	@ (22480 <_ZN20complex_dynamic_type3app17h5249f906495b8fd3E+0x14c>)
   22408:	2104      	movs	r1, #4
   2240a:	2200      	movs	r2, #0
   2240c:	4613      	mov	r3, r2
   2240e:	df03      	svc	3
   22410:	e004      	b.n	2241c <_ZN20complex_dynamic_type3app17h5249f906495b8fd3E+0xe8>
   22412:	481b      	ldr	r0, [pc, #108]	@ (22480 <_ZN20complex_dynamic_type3app17h5249f906495b8fd3E+0x14c>)
   22414:	2104      	movs	r1, #4
   22416:	2200      	movs	r2, #0
   22418:	4613      	mov	r3, r2
   2241a:	df04      	svc	4
   2241c:	a804      	add	r0, sp, #16
   2241e:	9900      	ldr	r1, [sp, #0]
   22420:	7001      	strb	r1, [r0, #0]
   22422:	a819      	add	r0, sp, #100	@ 0x64
   22424:	7800      	ldrb	r0, [r0, #0]
   22426:	2804      	cmp	r0, #4
   22428:	d007      	beq.n	2243a <_ZN20complex_dynamic_type3app17h5249f906495b8fd3E+0x106>
   2242a:	2803      	cmp	r0, #3
   2242c:	d11d      	bne.n	2246a <_ZN20complex_dynamic_type3app17h5249f906495b8fd3E+0x136>
   2242e:	4814      	ldr	r0, [pc, #80]	@ (22480 <_ZN20complex_dynamic_type3app17h5249f906495b8fd3E+0x14c>)
   22430:	2109      	movs	r1, #9
   22432:	2200      	movs	r2, #0
   22434:	4613      	mov	r3, r2
   22436:	df03      	svc	3
   22438:	e004      	b.n	22444 <_ZN20complex_dynamic_type3app17h5249f906495b8fd3E+0x110>
   2243a:	4811      	ldr	r0, [pc, #68]	@ (22480 <_ZN20complex_dynamic_type3app17h5249f906495b8fd3E+0x14c>)
   2243c:	2109      	movs	r1, #9
   2243e:	2200      	movs	r2, #0
   22440:	4613      	mov	r3, r2
   22442:	df04      	svc	4
   22444:	a804      	add	r0, sp, #16
   22446:	7804      	ldrb	r4, [r0, #0]
   22448:	1c68      	adds	r0, r5, #1
   2244a:	224f      	movs	r2, #79	@ 0x4f
   2244c:	9901      	ldr	r1, [sp, #4]
   2244e:	f008 fe59 	bl	2b104 <__aeabi_memcpy>
   22452:	702e      	strb	r6, [r5, #0]
   22454:	2c02      	cmp	r4, #2
   22456:	d006      	beq.n	22466 <_ZN20complex_dynamic_type3app17h5249f906495b8fd3E+0x132>
   22458:	4809      	ldr	r0, [pc, #36]	@ (22480 <_ZN20complex_dynamic_type3app17h5249f906495b8fd3E+0x14c>)
   2245a:	2104      	movs	r1, #4
   2245c:	2200      	movs	r2, #0
   2245e:	4613      	mov	r3, r2
   22460:	2c04      	cmp	r4, #4
   22462:	d10a      	bne.n	2247a <_ZN20complex_dynamic_type3app17h5249f906495b8fd3E+0x146>
   22464:	df04      	svc	4
   22466:	b02d      	add	sp, #180	@ 0xb4
   22468:	bdf0      	pop	{r4, r5, r6, r7, pc}
   2246a:	1c68      	adds	r0, r5, #1
   2246c:	224f      	movs	r2, #79	@ 0x4f
   2246e:	9901      	ldr	r1, [sp, #4]
   22470:	f008 fe48 	bl	2b104 <__aeabi_memcpy>
   22474:	702e      	strb	r6, [r5, #0]
   22476:	b02d      	add	sp, #180	@ 0xb4
   22478:	bdf0      	pop	{r4, r5, r6, r7, pc}
   2247a:	df03      	svc	3
   2247c:	b02d      	add	sp, #180	@ 0xb4
   2247e:	bdf0      	pop	{r4, r5, r6, r7, pc}
   22480:	000020ee 	.word	0x000020ee

00022484 <_ZN20complex_dynamic_type3app17h537dc36382b9344fE>:
   22484:	b5f0      	push	{r4, r5, r6, r7, lr}
   22486:	af03      	add	r7, sp, #12
   22488:	b09b      	sub	sp, #108	@ 0x6c
   2248a:	9004      	str	r0, [sp, #16]
   2248c:	a805      	add	r0, sp, #20
   2248e:	2402      	movs	r4, #2
   22490:	7004      	strb	r4, [r0, #0]
   22492:	1c40      	adds	r0, r0, #1
   22494:	9003      	str	r0, [sp, #12]
   22496:	252c      	movs	r5, #44	@ 0x2c
   22498:	462a      	mov	r2, r5
   2249a:	f008 fe33 	bl	2b104 <__aeabi_memcpy>
   2249e:	ae11      	add	r6, sp, #68	@ 0x44
   224a0:	1c70      	adds	r0, r6, #1
   224a2:	2125      	movs	r1, #37	@ 0x25
   224a4:	9002      	str	r0, [sp, #8]
   224a6:	f008 fc6d 	bl	2ad84 <__aeabi_memclr>
   224aa:	9401      	str	r4, [sp, #4]
   224ac:	7034      	strb	r4, [r6, #0]
   224ae:	484a      	ldr	r0, [pc, #296]	@ (225d8 <_ZN20complex_dynamic_type3app17h537dc36382b9344fE+0x154>)
   224b0:	2603      	movs	r6, #3
   224b2:	4631      	mov	r1, r6
   224b4:	9a03      	ldr	r2, [sp, #12]
   224b6:	462b      	mov	r3, r5
   224b8:	df04      	svc	4
   224ba:	2802      	cmp	r0, #2
   224bc:	d104      	bne.n	224c8 <_ZN20complex_dynamic_type3app17h537dc36382b9344fE+0x44>
   224be:	2001      	movs	r0, #1
   224c0:	9a04      	ldr	r2, [sp, #16]
   224c2:	7010      	strb	r0, [r2, #0]
   224c4:	6051      	str	r1, [r2, #4]
   224c6:	e02c      	b.n	22522 <_ZN20complex_dynamic_type3app17h537dc36382b9344fE+0x9e>
   224c8:	9d04      	ldr	r5, [sp, #16]
   224ca:	a805      	add	r0, sp, #20
   224cc:	2104      	movs	r1, #4
   224ce:	7001      	strb	r1, [r0, #0]
   224d0:	4841      	ldr	r0, [pc, #260]	@ (225d8 <_ZN20complex_dynamic_type3app17h537dc36382b9344fE+0x154>)
   224d2:	2100      	movs	r1, #0
   224d4:	2325      	movs	r3, #37	@ 0x25
   224d6:	9c02      	ldr	r4, [sp, #8]
   224d8:	4622      	mov	r2, r4
   224da:	df03      	svc	3
   224dc:	2802      	cmp	r0, #2
   224de:	d10e      	bne.n	224fe <_ZN20complex_dynamic_type3app17h537dc36382b9344fE+0x7a>
   224e0:	2001      	movs	r0, #1
   224e2:	7028      	strb	r0, [r5, #0]
   224e4:	6069      	str	r1, [r5, #4]
   224e6:	a811      	add	r0, sp, #68	@ 0x44
   224e8:	7800      	ldrb	r0, [r0, #0]
   224ea:	2802      	cmp	r0, #2
   224ec:	d019      	beq.n	22522 <_ZN20complex_dynamic_type3app17h537dc36382b9344fE+0x9e>
   224ee:	2803      	cmp	r0, #3
   224f0:	d012      	beq.n	22518 <_ZN20complex_dynamic_type3app17h537dc36382b9344fE+0x94>
   224f2:	4839      	ldr	r0, [pc, #228]	@ (225d8 <_ZN20complex_dynamic_type3app17h537dc36382b9344fE+0x154>)
   224f4:	2100      	movs	r1, #0
   224f6:	460a      	mov	r2, r1
   224f8:	460b      	mov	r3, r1
   224fa:	df04      	svc	4
   224fc:	e011      	b.n	22522 <_ZN20complex_dynamic_type3app17h537dc36382b9344fE+0x9e>
   224fe:	a811      	add	r0, sp, #68	@ 0x44
   22500:	7006      	strb	r6, [r0, #0]
   22502:	4835      	ldr	r0, [pc, #212]	@ (225d8 <_ZN20complex_dynamic_type3app17h537dc36382b9344fE+0x154>)
   22504:	2200      	movs	r2, #0
   22506:	4631      	mov	r1, r6
   22508:	9203      	str	r2, [sp, #12]
   2250a:	4613      	mov	r3, r2
   2250c:	df02      	svc	2
   2250e:	2880      	cmp	r0, #128	@ 0x80
   22510:	d21b      	bcs.n	2254a <_ZN20complex_dynamic_type3app17h537dc36382b9344fE+0xc6>
   22512:	2001      	movs	r0, #1
   22514:	7028      	strb	r0, [r5, #0]
   22516:	6069      	str	r1, [r5, #4]
   22518:	482f      	ldr	r0, [pc, #188]	@ (225d8 <_ZN20complex_dynamic_type3app17h537dc36382b9344fE+0x154>)
   2251a:	2100      	movs	r1, #0
   2251c:	460a      	mov	r2, r1
   2251e:	460b      	mov	r3, r1
   22520:	df03      	svc	3
   22522:	a805      	add	r0, sp, #20
   22524:	7800      	ldrb	r0, [r0, #0]
   22526:	2802      	cmp	r0, #2
   22528:	d048      	beq.n	225bc <_ZN20complex_dynamic_type3app17h537dc36382b9344fE+0x138>
   2252a:	2804      	cmp	r0, #4
   2252c:	d106      	bne.n	2253c <_ZN20complex_dynamic_type3app17h537dc36382b9344fE+0xb8>
   2252e:	482a      	ldr	r0, [pc, #168]	@ (225d8 <_ZN20complex_dynamic_type3app17h537dc36382b9344fE+0x154>)
   22530:	2103      	movs	r1, #3
   22532:	2200      	movs	r2, #0
   22534:	4613      	mov	r3, r2
   22536:	df04      	svc	4
   22538:	b01b      	add	sp, #108	@ 0x6c
   2253a:	bdf0      	pop	{r4, r5, r6, r7, pc}
   2253c:	4826      	ldr	r0, [pc, #152]	@ (225d8 <_ZN20complex_dynamic_type3app17h537dc36382b9344fE+0x154>)
   2253e:	2103      	movs	r1, #3
   22540:	2200      	movs	r2, #0
   22542:	4613      	mov	r3, r2
   22544:	df03      	svc	3
   22546:	b01b      	add	sp, #108	@ 0x6c
   22548:	bdf0      	pop	{r4, r5, r6, r7, pc}
   2254a:	a805      	add	r0, sp, #20
   2254c:	7800      	ldrb	r0, [r0, #0]
   2254e:	2802      	cmp	r0, #2
   22550:	d00c      	beq.n	2256c <_ZN20complex_dynamic_type3app17h537dc36382b9344fE+0xe8>
   22552:	2803      	cmp	r0, #3
   22554:	d105      	bne.n	22562 <_ZN20complex_dynamic_type3app17h537dc36382b9344fE+0xde>
   22556:	4820      	ldr	r0, [pc, #128]	@ (225d8 <_ZN20complex_dynamic_type3app17h537dc36382b9344fE+0x154>)
   22558:	2103      	movs	r1, #3
   2255a:	2200      	movs	r2, #0
   2255c:	4613      	mov	r3, r2
   2255e:	df03      	svc	3
   22560:	e004      	b.n	2256c <_ZN20complex_dynamic_type3app17h537dc36382b9344fE+0xe8>
   22562:	481d      	ldr	r0, [pc, #116]	@ (225d8 <_ZN20complex_dynamic_type3app17h537dc36382b9344fE+0x154>)
   22564:	2103      	movs	r1, #3
   22566:	2200      	movs	r2, #0
   22568:	4613      	mov	r3, r2
   2256a:	df04      	svc	4
   2256c:	a805      	add	r0, sp, #20
   2256e:	9901      	ldr	r1, [sp, #4]
   22570:	7001      	strb	r1, [r0, #0]
   22572:	a811      	add	r0, sp, #68	@ 0x44
   22574:	7800      	ldrb	r0, [r0, #0]
   22576:	2804      	cmp	r0, #4
   22578:	d008      	beq.n	2258c <_ZN20complex_dynamic_type3app17h537dc36382b9344fE+0x108>
   2257a:	2803      	cmp	r0, #3
   2257c:	d120      	bne.n	225c0 <_ZN20complex_dynamic_type3app17h537dc36382b9344fE+0x13c>
   2257e:	4626      	mov	r6, r4
   22580:	4815      	ldr	r0, [pc, #84]	@ (225d8 <_ZN20complex_dynamic_type3app17h537dc36382b9344fE+0x154>)
   22582:	2100      	movs	r1, #0
   22584:	460a      	mov	r2, r1
   22586:	460b      	mov	r3, r1
   22588:	df03      	svc	3
   2258a:	e005      	b.n	22598 <_ZN20complex_dynamic_type3app17h537dc36382b9344fE+0x114>
   2258c:	4626      	mov	r6, r4
   2258e:	4812      	ldr	r0, [pc, #72]	@ (225d8 <_ZN20complex_dynamic_type3app17h537dc36382b9344fE+0x154>)
   22590:	2100      	movs	r1, #0
   22592:	460a      	mov	r2, r1
   22594:	460b      	mov	r3, r1
   22596:	df04      	svc	4
   22598:	a805      	add	r0, sp, #20
   2259a:	7804      	ldrb	r4, [r0, #0]
   2259c:	1c68      	adds	r0, r5, #1
   2259e:	2225      	movs	r2, #37	@ 0x25
   225a0:	4631      	mov	r1, r6
   225a2:	f008 fdaf 	bl	2b104 <__aeabi_memcpy>
   225a6:	9803      	ldr	r0, [sp, #12]
   225a8:	7028      	strb	r0, [r5, #0]
   225aa:	2c02      	cmp	r4, #2
   225ac:	d006      	beq.n	225bc <_ZN20complex_dynamic_type3app17h537dc36382b9344fE+0x138>
   225ae:	480a      	ldr	r0, [pc, #40]	@ (225d8 <_ZN20complex_dynamic_type3app17h537dc36382b9344fE+0x154>)
   225b0:	2103      	movs	r1, #3
   225b2:	2200      	movs	r2, #0
   225b4:	4613      	mov	r3, r2
   225b6:	2c04      	cmp	r4, #4
   225b8:	d10b      	bne.n	225d2 <_ZN20complex_dynamic_type3app17h537dc36382b9344fE+0x14e>
   225ba:	df04      	svc	4
   225bc:	b01b      	add	sp, #108	@ 0x6c
   225be:	bdf0      	pop	{r4, r5, r6, r7, pc}
   225c0:	1c68      	adds	r0, r5, #1
   225c2:	2225      	movs	r2, #37	@ 0x25
   225c4:	4621      	mov	r1, r4
   225c6:	f008 fd9d 	bl	2b104 <__aeabi_memcpy>
   225ca:	9803      	ldr	r0, [sp, #12]
   225cc:	7028      	strb	r0, [r5, #0]
   225ce:	b01b      	add	sp, #108	@ 0x6c
   225d0:	bdf0      	pop	{r4, r5, r6, r7, pc}
   225d2:	df03      	svc	3
   225d4:	b01b      	add	sp, #108	@ 0x6c
   225d6:	bdf0      	pop	{r4, r5, r6, r7, pc}
   225d8:	0000077f 	.word	0x0000077f

000225dc <_ZN20complex_dynamic_type3app17h548c8333cd80ee16E>:
   225dc:	b5f0      	push	{r4, r5, r6, r7, lr}
   225de:	af03      	add	r7, sp, #12
   225e0:	b097      	sub	sp, #92	@ 0x5c
   225e2:	9003      	str	r0, [sp, #12]
   225e4:	a804      	add	r0, sp, #16
   225e6:	2402      	movs	r4, #2
   225e8:	7004      	strb	r4, [r0, #0]
   225ea:	1c46      	adds	r6, r0, #1
   225ec:	222b      	movs	r2, #43	@ 0x2b
   225ee:	9202      	str	r2, [sp, #8]
   225f0:	4630      	mov	r0, r6
   225f2:	f008 fd87 	bl	2b104 <__aeabi_memcpy>
   225f6:	ad0f      	add	r5, sp, #60	@ 0x3c
   225f8:	1c68      	adds	r0, r5, #1
   225fa:	211e      	movs	r1, #30
   225fc:	9001      	str	r0, [sp, #4]
   225fe:	f008 fbc1 	bl	2ad84 <__aeabi_memclr>
   22602:	9400      	str	r4, [sp, #0]
   22604:	702c      	strb	r4, [r5, #0]
   22606:	4848      	ldr	r0, [pc, #288]	@ (22728 <_ZN20complex_dynamic_type3app17h548c8333cd80ee16E+0x14c>)
   22608:	2107      	movs	r1, #7
   2260a:	4632      	mov	r2, r6
   2260c:	9b02      	ldr	r3, [sp, #8]
   2260e:	df04      	svc	4
   22610:	2802      	cmp	r0, #2
   22612:	d104      	bne.n	2261e <_ZN20complex_dynamic_type3app17h548c8333cd80ee16E+0x42>
   22614:	2001      	movs	r0, #1
   22616:	9a03      	ldr	r2, [sp, #12]
   22618:	7010      	strb	r0, [r2, #0]
   2261a:	6051      	str	r1, [r2, #4]
   2261c:	e02d      	b.n	2267a <_ZN20complex_dynamic_type3app17h548c8333cd80ee16E+0x9e>
   2261e:	9d03      	ldr	r5, [sp, #12]
   22620:	a804      	add	r0, sp, #16
   22622:	2104      	movs	r1, #4
   22624:	7001      	strb	r1, [r0, #0]
   22626:	4840      	ldr	r0, [pc, #256]	@ (22728 <_ZN20complex_dynamic_type3app17h548c8333cd80ee16E+0x14c>)
   22628:	2108      	movs	r1, #8
   2262a:	231e      	movs	r3, #30
   2262c:	9c01      	ldr	r4, [sp, #4]
   2262e:	4622      	mov	r2, r4
   22630:	df03      	svc	3
   22632:	2802      	cmp	r0, #2
   22634:	d10e      	bne.n	22654 <_ZN20complex_dynamic_type3app17h548c8333cd80ee16E+0x78>
   22636:	2001      	movs	r0, #1
   22638:	7028      	strb	r0, [r5, #0]
   2263a:	6069      	str	r1, [r5, #4]
   2263c:	a80f      	add	r0, sp, #60	@ 0x3c
   2263e:	7800      	ldrb	r0, [r0, #0]
   22640:	2802      	cmp	r0, #2
   22642:	d01a      	beq.n	2267a <_ZN20complex_dynamic_type3app17h548c8333cd80ee16E+0x9e>
   22644:	2803      	cmp	r0, #3
   22646:	d013      	beq.n	22670 <_ZN20complex_dynamic_type3app17h548c8333cd80ee16E+0x94>
   22648:	4837      	ldr	r0, [pc, #220]	@ (22728 <_ZN20complex_dynamic_type3app17h548c8333cd80ee16E+0x14c>)
   2264a:	2108      	movs	r1, #8
   2264c:	2200      	movs	r2, #0
   2264e:	4613      	mov	r3, r2
   22650:	df04      	svc	4
   22652:	e012      	b.n	2267a <_ZN20complex_dynamic_type3app17h548c8333cd80ee16E+0x9e>
   22654:	a80f      	add	r0, sp, #60	@ 0x3c
   22656:	2103      	movs	r1, #3
   22658:	7001      	strb	r1, [r0, #0]
   2265a:	4833      	ldr	r0, [pc, #204]	@ (22728 <_ZN20complex_dynamic_type3app17h548c8333cd80ee16E+0x14c>)
   2265c:	2107      	movs	r1, #7
   2265e:	2208      	movs	r2, #8
   22660:	2600      	movs	r6, #0
   22662:	4633      	mov	r3, r6
   22664:	df02      	svc	2
   22666:	2880      	cmp	r0, #128	@ 0x80
   22668:	d21b      	bcs.n	226a2 <_ZN20complex_dynamic_type3app17h548c8333cd80ee16E+0xc6>
   2266a:	2001      	movs	r0, #1
   2266c:	7028      	strb	r0, [r5, #0]
   2266e:	6069      	str	r1, [r5, #4]
   22670:	482d      	ldr	r0, [pc, #180]	@ (22728 <_ZN20complex_dynamic_type3app17h548c8333cd80ee16E+0x14c>)
   22672:	2108      	movs	r1, #8
   22674:	2200      	movs	r2, #0
   22676:	4613      	mov	r3, r2
   22678:	df03      	svc	3
   2267a:	a804      	add	r0, sp, #16
   2267c:	7800      	ldrb	r0, [r0, #0]
   2267e:	2802      	cmp	r0, #2
   22680:	d045      	beq.n	2270e <_ZN20complex_dynamic_type3app17h548c8333cd80ee16E+0x132>
   22682:	2804      	cmp	r0, #4
   22684:	d106      	bne.n	22694 <_ZN20complex_dynamic_type3app17h548c8333cd80ee16E+0xb8>
   22686:	4828      	ldr	r0, [pc, #160]	@ (22728 <_ZN20complex_dynamic_type3app17h548c8333cd80ee16E+0x14c>)
   22688:	2107      	movs	r1, #7
   2268a:	2200      	movs	r2, #0
   2268c:	4613      	mov	r3, r2
   2268e:	df04      	svc	4
   22690:	b017      	add	sp, #92	@ 0x5c
   22692:	bdf0      	pop	{r4, r5, r6, r7, pc}
   22694:	4824      	ldr	r0, [pc, #144]	@ (22728 <_ZN20complex_dynamic_type3app17h548c8333cd80ee16E+0x14c>)
   22696:	2107      	movs	r1, #7
   22698:	2200      	movs	r2, #0
   2269a:	4613      	mov	r3, r2
   2269c:	df03      	svc	3
   2269e:	b017      	add	sp, #92	@ 0x5c
   226a0:	bdf0      	pop	{r4, r5, r6, r7, pc}
   226a2:	a804      	add	r0, sp, #16
   226a4:	7800      	ldrb	r0, [r0, #0]
   226a6:	2802      	cmp	r0, #2
   226a8:	d00c      	beq.n	226c4 <_ZN20complex_dynamic_type3app17h548c8333cd80ee16E+0xe8>
   226aa:	2803      	cmp	r0, #3
   226ac:	d105      	bne.n	226ba <_ZN20complex_dynamic_type3app17h548c8333cd80ee16E+0xde>
   226ae:	481e      	ldr	r0, [pc, #120]	@ (22728 <_ZN20complex_dynamic_type3app17h548c8333cd80ee16E+0x14c>)
   226b0:	2107      	movs	r1, #7
   226b2:	2200      	movs	r2, #0
   226b4:	4613      	mov	r3, r2
   226b6:	df03      	svc	3
   226b8:	e004      	b.n	226c4 <_ZN20complex_dynamic_type3app17h548c8333cd80ee16E+0xe8>
   226ba:	481b      	ldr	r0, [pc, #108]	@ (22728 <_ZN20complex_dynamic_type3app17h548c8333cd80ee16E+0x14c>)
   226bc:	2107      	movs	r1, #7
   226be:	2200      	movs	r2, #0
   226c0:	4613      	mov	r3, r2
   226c2:	df04      	svc	4
   226c4:	a804      	add	r0, sp, #16
   226c6:	9900      	ldr	r1, [sp, #0]
   226c8:	7001      	strb	r1, [r0, #0]
   226ca:	a80f      	add	r0, sp, #60	@ 0x3c
   226cc:	7800      	ldrb	r0, [r0, #0]
   226ce:	2804      	cmp	r0, #4
   226d0:	d007      	beq.n	226e2 <_ZN20complex_dynamic_type3app17h548c8333cd80ee16E+0x106>
   226d2:	2803      	cmp	r0, #3
   226d4:	d11d      	bne.n	22712 <_ZN20complex_dynamic_type3app17h548c8333cd80ee16E+0x136>
   226d6:	4814      	ldr	r0, [pc, #80]	@ (22728 <_ZN20complex_dynamic_type3app17h548c8333cd80ee16E+0x14c>)
   226d8:	2108      	movs	r1, #8
   226da:	2200      	movs	r2, #0
   226dc:	4613      	mov	r3, r2
   226de:	df03      	svc	3
   226e0:	e004      	b.n	226ec <_ZN20complex_dynamic_type3app17h548c8333cd80ee16E+0x110>
   226e2:	4811      	ldr	r0, [pc, #68]	@ (22728 <_ZN20complex_dynamic_type3app17h548c8333cd80ee16E+0x14c>)
   226e4:	2108      	movs	r1, #8
   226e6:	2200      	movs	r2, #0
   226e8:	4613      	mov	r3, r2
   226ea:	df04      	svc	4
   226ec:	a804      	add	r0, sp, #16
   226ee:	7804      	ldrb	r4, [r0, #0]
   226f0:	1c68      	adds	r0, r5, #1
   226f2:	221e      	movs	r2, #30
   226f4:	9901      	ldr	r1, [sp, #4]
   226f6:	f008 fd05 	bl	2b104 <__aeabi_memcpy>
   226fa:	702e      	strb	r6, [r5, #0]
   226fc:	2c02      	cmp	r4, #2
   226fe:	d006      	beq.n	2270e <_ZN20complex_dynamic_type3app17h548c8333cd80ee16E+0x132>
   22700:	4809      	ldr	r0, [pc, #36]	@ (22728 <_ZN20complex_dynamic_type3app17h548c8333cd80ee16E+0x14c>)
   22702:	2107      	movs	r1, #7
   22704:	2200      	movs	r2, #0
   22706:	4613      	mov	r3, r2
   22708:	2c04      	cmp	r4, #4
   2270a:	d10a      	bne.n	22722 <_ZN20complex_dynamic_type3app17h548c8333cd80ee16E+0x146>
   2270c:	df04      	svc	4
   2270e:	b017      	add	sp, #92	@ 0x5c
   22710:	bdf0      	pop	{r4, r5, r6, r7, pc}
   22712:	1c68      	adds	r0, r5, #1
   22714:	221e      	movs	r2, #30
   22716:	4621      	mov	r1, r4
   22718:	f008 fcf4 	bl	2b104 <__aeabi_memcpy>
   2271c:	702e      	strb	r6, [r5, #0]
   2271e:	b017      	add	sp, #92	@ 0x5c
   22720:	bdf0      	pop	{r4, r5, r6, r7, pc}
   22722:	df03      	svc	3
   22724:	b017      	add	sp, #92	@ 0x5c
   22726:	bdf0      	pop	{r4, r5, r6, r7, pc}
   22728:	000007e3 	.word	0x000007e3

0002272c <_ZN20complex_dynamic_type3app17h5908cc76345a3160E>:
   2272c:	b5f0      	push	{r4, r5, r6, r7, lr}
   2272e:	af03      	add	r7, sp, #12
   22730:	b091      	sub	sp, #68	@ 0x44
   22732:	9002      	str	r0, [sp, #8]
   22734:	a803      	add	r0, sp, #12
   22736:	2502      	movs	r5, #2
   22738:	7005      	strb	r5, [r0, #0]
   2273a:	1c46      	adds	r6, r0, #1
   2273c:	221a      	movs	r2, #26
   2273e:	9201      	str	r2, [sp, #4]
   22740:	4630      	mov	r0, r6
   22742:	f008 fcdf 	bl	2b104 <__aeabi_memcpy>
   22746:	ac0a      	add	r4, sp, #40	@ 0x28
   22748:	1c60      	adds	r0, r4, #1
   2274a:	211b      	movs	r1, #27
   2274c:	9000      	str	r0, [sp, #0]
   2274e:	f008 fb19 	bl	2ad84 <__aeabi_memclr>
   22752:	7025      	strb	r5, [r4, #0]
   22754:	484a      	ldr	r0, [pc, #296]	@ (22880 <_ZN20complex_dynamic_type3app17h5908cc76345a3160E+0x154>)
   22756:	2105      	movs	r1, #5
   22758:	4632      	mov	r2, r6
   2275a:	9b01      	ldr	r3, [sp, #4]
   2275c:	df04      	svc	4
   2275e:	2802      	cmp	r0, #2
   22760:	d104      	bne.n	2276c <_ZN20complex_dynamic_type3app17h5908cc76345a3160E+0x40>
   22762:	2001      	movs	r0, #1
   22764:	9a02      	ldr	r2, [sp, #8]
   22766:	7010      	strb	r0, [r2, #0]
   22768:	6051      	str	r1, [r2, #4]
   2276a:	e02e      	b.n	227ca <_ZN20complex_dynamic_type3app17h5908cc76345a3160E+0x9e>
   2276c:	9d02      	ldr	r5, [sp, #8]
   2276e:	a803      	add	r0, sp, #12
   22770:	2104      	movs	r1, #4
   22772:	7001      	strb	r1, [r0, #0]
   22774:	4842      	ldr	r0, [pc, #264]	@ (22880 <_ZN20complex_dynamic_type3app17h5908cc76345a3160E+0x154>)
   22776:	2102      	movs	r1, #2
   22778:	231b      	movs	r3, #27
   2277a:	9c00      	ldr	r4, [sp, #0]
   2277c:	4622      	mov	r2, r4
   2277e:	df03      	svc	3
   22780:	2802      	cmp	r0, #2
   22782:	d10e      	bne.n	227a2 <_ZN20complex_dynamic_type3app17h5908cc76345a3160E+0x76>
   22784:	2001      	movs	r0, #1
   22786:	7028      	strb	r0, [r5, #0]
   22788:	6069      	str	r1, [r5, #4]
   2278a:	a80a      	add	r0, sp, #40	@ 0x28
   2278c:	7800      	ldrb	r0, [r0, #0]
   2278e:	2802      	cmp	r0, #2
   22790:	d01b      	beq.n	227ca <_ZN20complex_dynamic_type3app17h5908cc76345a3160E+0x9e>
   22792:	2803      	cmp	r0, #3
   22794:	d014      	beq.n	227c0 <_ZN20complex_dynamic_type3app17h5908cc76345a3160E+0x94>
   22796:	483a      	ldr	r0, [pc, #232]	@ (22880 <_ZN20complex_dynamic_type3app17h5908cc76345a3160E+0x154>)
   22798:	2102      	movs	r1, #2
   2279a:	2200      	movs	r2, #0
   2279c:	4613      	mov	r3, r2
   2279e:	df04      	svc	4
   227a0:	e013      	b.n	227ca <_ZN20complex_dynamic_type3app17h5908cc76345a3160E+0x9e>
   227a2:	a80a      	add	r0, sp, #40	@ 0x28
   227a4:	2103      	movs	r1, #3
   227a6:	7001      	strb	r1, [r0, #0]
   227a8:	4835      	ldr	r0, [pc, #212]	@ (22880 <_ZN20complex_dynamic_type3app17h5908cc76345a3160E+0x154>)
   227aa:	2105      	movs	r1, #5
   227ac:	2602      	movs	r6, #2
   227ae:	2300      	movs	r3, #0
   227b0:	4632      	mov	r2, r6
   227b2:	9301      	str	r3, [sp, #4]
   227b4:	df02      	svc	2
   227b6:	2880      	cmp	r0, #128	@ 0x80
   227b8:	d21b      	bcs.n	227f2 <_ZN20complex_dynamic_type3app17h5908cc76345a3160E+0xc6>
   227ba:	2001      	movs	r0, #1
   227bc:	7028      	strb	r0, [r5, #0]
   227be:	6069      	str	r1, [r5, #4]
   227c0:	482f      	ldr	r0, [pc, #188]	@ (22880 <_ZN20complex_dynamic_type3app17h5908cc76345a3160E+0x154>)
   227c2:	2102      	movs	r1, #2
   227c4:	2200      	movs	r2, #0
   227c6:	4613      	mov	r3, r2
   227c8:	df03      	svc	3
   227ca:	a803      	add	r0, sp, #12
   227cc:	7800      	ldrb	r0, [r0, #0]
   227ce:	2802      	cmp	r0, #2
   227d0:	d047      	beq.n	22862 <_ZN20complex_dynamic_type3app17h5908cc76345a3160E+0x136>
   227d2:	2804      	cmp	r0, #4
   227d4:	d106      	bne.n	227e4 <_ZN20complex_dynamic_type3app17h5908cc76345a3160E+0xb8>
   227d6:	482a      	ldr	r0, [pc, #168]	@ (22880 <_ZN20complex_dynamic_type3app17h5908cc76345a3160E+0x154>)
   227d8:	2105      	movs	r1, #5
   227da:	2200      	movs	r2, #0
   227dc:	4613      	mov	r3, r2
   227de:	df04      	svc	4
   227e0:	b011      	add	sp, #68	@ 0x44
   227e2:	bdf0      	pop	{r4, r5, r6, r7, pc}
   227e4:	4826      	ldr	r0, [pc, #152]	@ (22880 <_ZN20complex_dynamic_type3app17h5908cc76345a3160E+0x154>)
   227e6:	2105      	movs	r1, #5
   227e8:	2200      	movs	r2, #0
   227ea:	4613      	mov	r3, r2
   227ec:	df03      	svc	3
   227ee:	b011      	add	sp, #68	@ 0x44
   227f0:	bdf0      	pop	{r4, r5, r6, r7, pc}
   227f2:	a803      	add	r0, sp, #12
   227f4:	7800      	ldrb	r0, [r0, #0]
   227f6:	2802      	cmp	r0, #2
   227f8:	d00c      	beq.n	22814 <_ZN20complex_dynamic_type3app17h5908cc76345a3160E+0xe8>
   227fa:	2803      	cmp	r0, #3
   227fc:	d105      	bne.n	2280a <_ZN20complex_dynamic_type3app17h5908cc76345a3160E+0xde>
   227fe:	4820      	ldr	r0, [pc, #128]	@ (22880 <_ZN20complex_dynamic_type3app17h5908cc76345a3160E+0x154>)
   22800:	2105      	movs	r1, #5
   22802:	2200      	movs	r2, #0
   22804:	4613      	mov	r3, r2
   22806:	df03      	svc	3
   22808:	e004      	b.n	22814 <_ZN20complex_dynamic_type3app17h5908cc76345a3160E+0xe8>
   2280a:	481d      	ldr	r0, [pc, #116]	@ (22880 <_ZN20complex_dynamic_type3app17h5908cc76345a3160E+0x154>)
   2280c:	2105      	movs	r1, #5
   2280e:	2200      	movs	r2, #0
   22810:	4613      	mov	r3, r2
   22812:	df04      	svc	4
   22814:	a803      	add	r0, sp, #12
   22816:	7006      	strb	r6, [r0, #0]
   22818:	a80a      	add	r0, sp, #40	@ 0x28
   2281a:	7800      	ldrb	r0, [r0, #0]
   2281c:	2804      	cmp	r0, #4
   2281e:	d008      	beq.n	22832 <_ZN20complex_dynamic_type3app17h5908cc76345a3160E+0x106>
   22820:	2803      	cmp	r0, #3
   22822:	d120      	bne.n	22866 <_ZN20complex_dynamic_type3app17h5908cc76345a3160E+0x13a>
   22824:	4626      	mov	r6, r4
   22826:	4816      	ldr	r0, [pc, #88]	@ (22880 <_ZN20complex_dynamic_type3app17h5908cc76345a3160E+0x154>)
   22828:	2102      	movs	r1, #2
   2282a:	2200      	movs	r2, #0
   2282c:	4613      	mov	r3, r2
   2282e:	df03      	svc	3
   22830:	e005      	b.n	2283e <_ZN20complex_dynamic_type3app17h5908cc76345a3160E+0x112>
   22832:	4626      	mov	r6, r4
   22834:	4812      	ldr	r0, [pc, #72]	@ (22880 <_ZN20complex_dynamic_type3app17h5908cc76345a3160E+0x154>)
   22836:	2102      	movs	r1, #2
   22838:	2200      	movs	r2, #0
   2283a:	4613      	mov	r3, r2
   2283c:	df04      	svc	4
   2283e:	a803      	add	r0, sp, #12
   22840:	7804      	ldrb	r4, [r0, #0]
   22842:	1c68      	adds	r0, r5, #1
   22844:	221b      	movs	r2, #27
   22846:	4631      	mov	r1, r6
   22848:	f008 fc5c 	bl	2b104 <__aeabi_memcpy>
   2284c:	9801      	ldr	r0, [sp, #4]
   2284e:	7028      	strb	r0, [r5, #0]
   22850:	2c02      	cmp	r4, #2
   22852:	d006      	beq.n	22862 <_ZN20complex_dynamic_type3app17h5908cc76345a3160E+0x136>
   22854:	480a      	ldr	r0, [pc, #40]	@ (22880 <_ZN20complex_dynamic_type3app17h5908cc76345a3160E+0x154>)
   22856:	2105      	movs	r1, #5
   22858:	2200      	movs	r2, #0
   2285a:	4613      	mov	r3, r2
   2285c:	2c04      	cmp	r4, #4
   2285e:	d10b      	bne.n	22878 <_ZN20complex_dynamic_type3app17h5908cc76345a3160E+0x14c>
   22860:	df04      	svc	4
   22862:	b011      	add	sp, #68	@ 0x44
   22864:	bdf0      	pop	{r4, r5, r6, r7, pc}
   22866:	1c68      	adds	r0, r5, #1
   22868:	221b      	movs	r2, #27
   2286a:	4621      	mov	r1, r4
   2286c:	f008 fc4a 	bl	2b104 <__aeabi_memcpy>
   22870:	9801      	ldr	r0, [sp, #4]
   22872:	7028      	strb	r0, [r5, #0]
   22874:	b011      	add	sp, #68	@ 0x44
   22876:	bdf0      	pop	{r4, r5, r6, r7, pc}
   22878:	df03      	svc	3
   2287a:	b011      	add	sp, #68	@ 0x44
   2287c:	bdf0      	pop	{r4, r5, r6, r7, pc}
   2287e:	46c0      	nop			@ (mov r8, r8)
   22880:	00001cce 	.word	0x00001cce

00022884 <_ZN20complex_dynamic_type3app17h59f2e207a74a91deE>:
   22884:	b5f0      	push	{r4, r5, r6, r7, lr}
   22886:	af03      	add	r7, sp, #12
   22888:	b0b1      	sub	sp, #196	@ 0xc4
   2288a:	9003      	str	r0, [sp, #12]
   2288c:	a804      	add	r0, sp, #16
   2288e:	2502      	movs	r5, #2
   22890:	7005      	strb	r5, [r0, #0]
   22892:	1c46      	adds	r6, r0, #1
   22894:	224f      	movs	r2, #79	@ 0x4f
   22896:	9202      	str	r2, [sp, #8]
   22898:	4630      	mov	r0, r6
   2289a:	f008 fc33 	bl	2b104 <__aeabi_memcpy>
   2289e:	ac18      	add	r4, sp, #96	@ 0x60
   228a0:	1c60      	adds	r0, r4, #1
   228a2:	2161      	movs	r1, #97	@ 0x61
   228a4:	9001      	str	r0, [sp, #4]
   228a6:	f008 fa6d 	bl	2ad84 <__aeabi_memclr>
   228aa:	7025      	strb	r5, [r4, #0]
   228ac:	20db      	movs	r0, #219	@ 0xdb
   228ae:	0044      	lsls	r4, r0, #1
   228b0:	4620      	mov	r0, r4
   228b2:	4629      	mov	r1, r5
   228b4:	4632      	mov	r2, r6
   228b6:	9b02      	ldr	r3, [sp, #8]
   228b8:	df04      	svc	4
   228ba:	2802      	cmp	r0, #2
   228bc:	d104      	bne.n	228c8 <_ZN20complex_dynamic_type3app17h59f2e207a74a91deE+0x44>
   228be:	2001      	movs	r0, #1
   228c0:	9a03      	ldr	r2, [sp, #12]
   228c2:	7010      	strb	r0, [r2, #0]
   228c4:	6051      	str	r1, [r2, #4]
   228c6:	e02e      	b.n	22926 <_ZN20complex_dynamic_type3app17h59f2e207a74a91deE+0xa2>
   228c8:	9e03      	ldr	r6, [sp, #12]
   228ca:	a804      	add	r0, sp, #16
   228cc:	2104      	movs	r1, #4
   228ce:	7001      	strb	r1, [r0, #0]
   228d0:	2108      	movs	r1, #8
   228d2:	2361      	movs	r3, #97	@ 0x61
   228d4:	4620      	mov	r0, r4
   228d6:	9d01      	ldr	r5, [sp, #4]
   228d8:	462a      	mov	r2, r5
   228da:	df03      	svc	3
   228dc:	2802      	cmp	r0, #2
   228de:	d10e      	bne.n	228fe <_ZN20complex_dynamic_type3app17h59f2e207a74a91deE+0x7a>
   228e0:	2001      	movs	r0, #1
   228e2:	7030      	strb	r0, [r6, #0]
   228e4:	6071      	str	r1, [r6, #4]
   228e6:	a818      	add	r0, sp, #96	@ 0x60
   228e8:	7800      	ldrb	r0, [r0, #0]
   228ea:	2802      	cmp	r0, #2
   228ec:	d01b      	beq.n	22926 <_ZN20complex_dynamic_type3app17h59f2e207a74a91deE+0xa2>
   228ee:	2803      	cmp	r0, #3
   228f0:	d014      	beq.n	2291c <_ZN20complex_dynamic_type3app17h59f2e207a74a91deE+0x98>
   228f2:	2108      	movs	r1, #8
   228f4:	2200      	movs	r2, #0
   228f6:	4620      	mov	r0, r4
   228f8:	4613      	mov	r3, r2
   228fa:	df04      	svc	4
   228fc:	e013      	b.n	22926 <_ZN20complex_dynamic_type3app17h59f2e207a74a91deE+0xa2>
   228fe:	a818      	add	r0, sp, #96	@ 0x60
   22900:	2103      	movs	r1, #3
   22902:	7001      	strb	r1, [r0, #0]
   22904:	2102      	movs	r1, #2
   22906:	2208      	movs	r2, #8
   22908:	2300      	movs	r3, #0
   2290a:	4620      	mov	r0, r4
   2290c:	9100      	str	r1, [sp, #0]
   2290e:	9302      	str	r3, [sp, #8]
   22910:	df02      	svc	2
   22912:	2880      	cmp	r0, #128	@ 0x80
   22914:	d219      	bcs.n	2294a <_ZN20complex_dynamic_type3app17h59f2e207a74a91deE+0xc6>
   22916:	2001      	movs	r0, #1
   22918:	7030      	strb	r0, [r6, #0]
   2291a:	6071      	str	r1, [r6, #4]
   2291c:	2108      	movs	r1, #8
   2291e:	2200      	movs	r2, #0
   22920:	4620      	mov	r0, r4
   22922:	4613      	mov	r3, r2
   22924:	df03      	svc	3
   22926:	a804      	add	r0, sp, #16
   22928:	7800      	ldrb	r0, [r0, #0]
   2292a:	2802      	cmp	r0, #2
   2292c:	d044      	beq.n	229b8 <_ZN20complex_dynamic_type3app17h59f2e207a74a91deE+0x134>
   2292e:	2102      	movs	r1, #2
   22930:	2200      	movs	r2, #0
   22932:	2804      	cmp	r0, #4
   22934:	d104      	bne.n	22940 <_ZN20complex_dynamic_type3app17h59f2e207a74a91deE+0xbc>
   22936:	4620      	mov	r0, r4
   22938:	4613      	mov	r3, r2
   2293a:	df04      	svc	4
   2293c:	b031      	add	sp, #196	@ 0xc4
   2293e:	bdf0      	pop	{r4, r5, r6, r7, pc}
   22940:	4620      	mov	r0, r4
   22942:	4613      	mov	r3, r2
   22944:	df03      	svc	3
   22946:	b031      	add	sp, #196	@ 0xc4
   22948:	bdf0      	pop	{r4, r5, r6, r7, pc}
   2294a:	a804      	add	r0, sp, #16
   2294c:	7800      	ldrb	r0, [r0, #0]
   2294e:	2802      	cmp	r0, #2
   22950:	d00a      	beq.n	22968 <_ZN20complex_dynamic_type3app17h59f2e207a74a91deE+0xe4>
   22952:	2102      	movs	r1, #2
   22954:	2200      	movs	r2, #0
   22956:	2803      	cmp	r0, #3
   22958:	d103      	bne.n	22962 <_ZN20complex_dynamic_type3app17h59f2e207a74a91deE+0xde>
   2295a:	4620      	mov	r0, r4
   2295c:	4613      	mov	r3, r2
   2295e:	df03      	svc	3
   22960:	e002      	b.n	22968 <_ZN20complex_dynamic_type3app17h59f2e207a74a91deE+0xe4>
   22962:	4620      	mov	r0, r4
   22964:	4613      	mov	r3, r2
   22966:	df04      	svc	4
   22968:	a804      	add	r0, sp, #16
   2296a:	9900      	ldr	r1, [sp, #0]
   2296c:	7001      	strb	r1, [r0, #0]
   2296e:	a818      	add	r0, sp, #96	@ 0x60
   22970:	7800      	ldrb	r0, [r0, #0]
   22972:	2804      	cmp	r0, #4
   22974:	d008      	beq.n	22988 <_ZN20complex_dynamic_type3app17h59f2e207a74a91deE+0x104>
   22976:	2803      	cmp	r0, #3
   22978:	d120      	bne.n	229bc <_ZN20complex_dynamic_type3app17h59f2e207a74a91deE+0x138>
   2297a:	2108      	movs	r1, #8
   2297c:	2200      	movs	r2, #0
   2297e:	9400      	str	r4, [sp, #0]
   22980:	4620      	mov	r0, r4
   22982:	4613      	mov	r3, r2
   22984:	df03      	svc	3
   22986:	e005      	b.n	22994 <_ZN20complex_dynamic_type3app17h59f2e207a74a91deE+0x110>
   22988:	2108      	movs	r1, #8
   2298a:	2200      	movs	r2, #0
   2298c:	9400      	str	r4, [sp, #0]
   2298e:	4620      	mov	r0, r4
   22990:	4613      	mov	r3, r2
   22992:	df04      	svc	4
   22994:	a804      	add	r0, sp, #16
   22996:	7804      	ldrb	r4, [r0, #0]
   22998:	1c70      	adds	r0, r6, #1
   2299a:	2261      	movs	r2, #97	@ 0x61
   2299c:	4629      	mov	r1, r5
   2299e:	f008 fbb1 	bl	2b104 <__aeabi_memcpy>
   229a2:	9802      	ldr	r0, [sp, #8]
   229a4:	7030      	strb	r0, [r6, #0]
   229a6:	2c02      	cmp	r4, #2
   229a8:	d006      	beq.n	229b8 <_ZN20complex_dynamic_type3app17h59f2e207a74a91deE+0x134>
   229aa:	2c04      	cmp	r4, #4
   229ac:	d10f      	bne.n	229ce <_ZN20complex_dynamic_type3app17h59f2e207a74a91deE+0x14a>
   229ae:	2102      	movs	r1, #2
   229b0:	2200      	movs	r2, #0
   229b2:	9800      	ldr	r0, [sp, #0]
   229b4:	4613      	mov	r3, r2
   229b6:	df04      	svc	4
   229b8:	b031      	add	sp, #196	@ 0xc4
   229ba:	bdf0      	pop	{r4, r5, r6, r7, pc}
   229bc:	1c70      	adds	r0, r6, #1
   229be:	2261      	movs	r2, #97	@ 0x61
   229c0:	4629      	mov	r1, r5
   229c2:	f008 fb9f 	bl	2b104 <__aeabi_memcpy>
   229c6:	9802      	ldr	r0, [sp, #8]
   229c8:	7030      	strb	r0, [r6, #0]
   229ca:	b031      	add	sp, #196	@ 0xc4
   229cc:	bdf0      	pop	{r4, r5, r6, r7, pc}
   229ce:	9800      	ldr	r0, [sp, #0]
   229d0:	2102      	movs	r1, #2
   229d2:	2200      	movs	r2, #0
   229d4:	4613      	mov	r3, r2
   229d6:	df03      	svc	3
   229d8:	b031      	add	sp, #196	@ 0xc4
   229da:	bdf0      	pop	{r4, r5, r6, r7, pc}

000229dc <_ZN20complex_dynamic_type3app17h5a74796f26c01511E>:
   229dc:	b5f0      	push	{r4, r5, r6, r7, lr}
   229de:	af03      	add	r7, sp, #12
   229e0:	b09b      	sub	sp, #108	@ 0x6c
   229e2:	9003      	str	r0, [sp, #12]
   229e4:	a804      	add	r0, sp, #16
   229e6:	2402      	movs	r4, #2
   229e8:	7004      	strb	r4, [r0, #0]
   229ea:	1c40      	adds	r0, r0, #1
   229ec:	9002      	str	r0, [sp, #8]
   229ee:	252c      	movs	r5, #44	@ 0x2c
   229f0:	462a      	mov	r2, r5
   229f2:	f008 fb87 	bl	2b104 <__aeabi_memcpy>
   229f6:	ae10      	add	r6, sp, #64	@ 0x40
   229f8:	1c70      	adds	r0, r6, #1
   229fa:	212a      	movs	r1, #42	@ 0x2a
   229fc:	9001      	str	r0, [sp, #4]
   229fe:	f008 f9c1 	bl	2ad84 <__aeabi_memclr>
   22a02:	9400      	str	r4, [sp, #0]
   22a04:	7034      	strb	r4, [r6, #0]
   22a06:	484a      	ldr	r0, [pc, #296]	@ (22b30 <_ZN20complex_dynamic_type3app17h5a74796f26c01511E+0x154>)
   22a08:	2603      	movs	r6, #3
   22a0a:	4631      	mov	r1, r6
   22a0c:	9a02      	ldr	r2, [sp, #8]
   22a0e:	462b      	mov	r3, r5
   22a10:	df04      	svc	4
   22a12:	2802      	cmp	r0, #2
   22a14:	d104      	bne.n	22a20 <_ZN20complex_dynamic_type3app17h5a74796f26c01511E+0x44>
   22a16:	2001      	movs	r0, #1
   22a18:	9a03      	ldr	r2, [sp, #12]
   22a1a:	7010      	strb	r0, [r2, #0]
   22a1c:	6051      	str	r1, [r2, #4]
   22a1e:	e02c      	b.n	22a7a <_ZN20complex_dynamic_type3app17h5a74796f26c01511E+0x9e>
   22a20:	9d03      	ldr	r5, [sp, #12]
   22a22:	a804      	add	r0, sp, #16
   22a24:	2104      	movs	r1, #4
   22a26:	7001      	strb	r1, [r0, #0]
   22a28:	4841      	ldr	r0, [pc, #260]	@ (22b30 <_ZN20complex_dynamic_type3app17h5a74796f26c01511E+0x154>)
   22a2a:	2100      	movs	r1, #0
   22a2c:	232a      	movs	r3, #42	@ 0x2a
   22a2e:	9c01      	ldr	r4, [sp, #4]
   22a30:	4622      	mov	r2, r4
   22a32:	df03      	svc	3
   22a34:	2802      	cmp	r0, #2
   22a36:	d10e      	bne.n	22a56 <_ZN20complex_dynamic_type3app17h5a74796f26c01511E+0x7a>
   22a38:	2001      	movs	r0, #1
   22a3a:	7028      	strb	r0, [r5, #0]
   22a3c:	6069      	str	r1, [r5, #4]
   22a3e:	a810      	add	r0, sp, #64	@ 0x40
   22a40:	7800      	ldrb	r0, [r0, #0]
   22a42:	2802      	cmp	r0, #2
   22a44:	d019      	beq.n	22a7a <_ZN20complex_dynamic_type3app17h5a74796f26c01511E+0x9e>
   22a46:	2803      	cmp	r0, #3
   22a48:	d012      	beq.n	22a70 <_ZN20complex_dynamic_type3app17h5a74796f26c01511E+0x94>
   22a4a:	4839      	ldr	r0, [pc, #228]	@ (22b30 <_ZN20complex_dynamic_type3app17h5a74796f26c01511E+0x154>)
   22a4c:	2100      	movs	r1, #0
   22a4e:	460a      	mov	r2, r1
   22a50:	460b      	mov	r3, r1
   22a52:	df04      	svc	4
   22a54:	e011      	b.n	22a7a <_ZN20complex_dynamic_type3app17h5a74796f26c01511E+0x9e>
   22a56:	a810      	add	r0, sp, #64	@ 0x40
   22a58:	7006      	strb	r6, [r0, #0]
   22a5a:	4835      	ldr	r0, [pc, #212]	@ (22b30 <_ZN20complex_dynamic_type3app17h5a74796f26c01511E+0x154>)
   22a5c:	2200      	movs	r2, #0
   22a5e:	4631      	mov	r1, r6
   22a60:	9202      	str	r2, [sp, #8]
   22a62:	4613      	mov	r3, r2
   22a64:	df02      	svc	2
   22a66:	2880      	cmp	r0, #128	@ 0x80
   22a68:	d21b      	bcs.n	22aa2 <_ZN20complex_dynamic_type3app17h5a74796f26c01511E+0xc6>
   22a6a:	2001      	movs	r0, #1
   22a6c:	7028      	strb	r0, [r5, #0]
   22a6e:	6069      	str	r1, [r5, #4]
   22a70:	482f      	ldr	r0, [pc, #188]	@ (22b30 <_ZN20complex_dynamic_type3app17h5a74796f26c01511E+0x154>)
   22a72:	2100      	movs	r1, #0
   22a74:	460a      	mov	r2, r1
   22a76:	460b      	mov	r3, r1
   22a78:	df03      	svc	3
   22a7a:	a804      	add	r0, sp, #16
   22a7c:	7800      	ldrb	r0, [r0, #0]
   22a7e:	2802      	cmp	r0, #2
   22a80:	d048      	beq.n	22b14 <_ZN20complex_dynamic_type3app17h5a74796f26c01511E+0x138>
   22a82:	2804      	cmp	r0, #4
   22a84:	d106      	bne.n	22a94 <_ZN20complex_dynamic_type3app17h5a74796f26c01511E+0xb8>
   22a86:	482a      	ldr	r0, [pc, #168]	@ (22b30 <_ZN20complex_dynamic_type3app17h5a74796f26c01511E+0x154>)
   22a88:	2103      	movs	r1, #3
   22a8a:	2200      	movs	r2, #0
   22a8c:	4613      	mov	r3, r2
   22a8e:	df04      	svc	4
   22a90:	b01b      	add	sp, #108	@ 0x6c
   22a92:	bdf0      	pop	{r4, r5, r6, r7, pc}
   22a94:	4826      	ldr	r0, [pc, #152]	@ (22b30 <_ZN20complex_dynamic_type3app17h5a74796f26c01511E+0x154>)
   22a96:	2103      	movs	r1, #3
   22a98:	2200      	movs	r2, #0
   22a9a:	4613      	mov	r3, r2
   22a9c:	df03      	svc	3
   22a9e:	b01b      	add	sp, #108	@ 0x6c
   22aa0:	bdf0      	pop	{r4, r5, r6, r7, pc}
   22aa2:	a804      	add	r0, sp, #16
   22aa4:	7800      	ldrb	r0, [r0, #0]
   22aa6:	2802      	cmp	r0, #2
   22aa8:	d00c      	beq.n	22ac4 <_ZN20complex_dynamic_type3app17h5a74796f26c01511E+0xe8>
   22aaa:	2803      	cmp	r0, #3
   22aac:	d105      	bne.n	22aba <_ZN20complex_dynamic_type3app17h5a74796f26c01511E+0xde>
   22aae:	4820      	ldr	r0, [pc, #128]	@ (22b30 <_ZN20complex_dynamic_type3app17h5a74796f26c01511E+0x154>)
   22ab0:	2103      	movs	r1, #3
   22ab2:	2200      	movs	r2, #0
   22ab4:	4613      	mov	r3, r2
   22ab6:	df03      	svc	3
   22ab8:	e004      	b.n	22ac4 <_ZN20complex_dynamic_type3app17h5a74796f26c01511E+0xe8>
   22aba:	481d      	ldr	r0, [pc, #116]	@ (22b30 <_ZN20complex_dynamic_type3app17h5a74796f26c01511E+0x154>)
   22abc:	2103      	movs	r1, #3
   22abe:	2200      	movs	r2, #0
   22ac0:	4613      	mov	r3, r2
   22ac2:	df04      	svc	4
   22ac4:	a804      	add	r0, sp, #16
   22ac6:	9900      	ldr	r1, [sp, #0]
   22ac8:	7001      	strb	r1, [r0, #0]
   22aca:	a810      	add	r0, sp, #64	@ 0x40
   22acc:	7800      	ldrb	r0, [r0, #0]
   22ace:	2804      	cmp	r0, #4
   22ad0:	d008      	beq.n	22ae4 <_ZN20complex_dynamic_type3app17h5a74796f26c01511E+0x108>
   22ad2:	2803      	cmp	r0, #3
   22ad4:	d120      	bne.n	22b18 <_ZN20complex_dynamic_type3app17h5a74796f26c01511E+0x13c>
   22ad6:	4626      	mov	r6, r4
   22ad8:	4815      	ldr	r0, [pc, #84]	@ (22b30 <_ZN20complex_dynamic_type3app17h5a74796f26c01511E+0x154>)
   22ada:	2100      	movs	r1, #0
   22adc:	460a      	mov	r2, r1
   22ade:	460b      	mov	r3, r1
   22ae0:	df03      	svc	3
   22ae2:	e005      	b.n	22af0 <_ZN20complex_dynamic_type3app17h5a74796f26c01511E+0x114>
   22ae4:	4626      	mov	r6, r4
   22ae6:	4812      	ldr	r0, [pc, #72]	@ (22b30 <_ZN20complex_dynamic_type3app17h5a74796f26c01511E+0x154>)
   22ae8:	2100      	movs	r1, #0
   22aea:	460a      	mov	r2, r1
   22aec:	460b      	mov	r3, r1
   22aee:	df04      	svc	4
   22af0:	a804      	add	r0, sp, #16
   22af2:	7804      	ldrb	r4, [r0, #0]
   22af4:	1c68      	adds	r0, r5, #1
   22af6:	222a      	movs	r2, #42	@ 0x2a
   22af8:	4631      	mov	r1, r6
   22afa:	f008 fb03 	bl	2b104 <__aeabi_memcpy>
   22afe:	9802      	ldr	r0, [sp, #8]
   22b00:	7028      	strb	r0, [r5, #0]
   22b02:	2c02      	cmp	r4, #2
   22b04:	d006      	beq.n	22b14 <_ZN20complex_dynamic_type3app17h5a74796f26c01511E+0x138>
   22b06:	480a      	ldr	r0, [pc, #40]	@ (22b30 <_ZN20complex_dynamic_type3app17h5a74796f26c01511E+0x154>)
   22b08:	2103      	movs	r1, #3
   22b0a:	2200      	movs	r2, #0
   22b0c:	4613      	mov	r3, r2
   22b0e:	2c04      	cmp	r4, #4
   22b10:	d10b      	bne.n	22b2a <_ZN20complex_dynamic_type3app17h5a74796f26c01511E+0x14e>
   22b12:	df04      	svc	4
   22b14:	b01b      	add	sp, #108	@ 0x6c
   22b16:	bdf0      	pop	{r4, r5, r6, r7, pc}
   22b18:	1c68      	adds	r0, r5, #1
   22b1a:	222a      	movs	r2, #42	@ 0x2a
   22b1c:	4621      	mov	r1, r4
   22b1e:	f008 faf1 	bl	2b104 <__aeabi_memcpy>
   22b22:	9802      	ldr	r0, [sp, #8]
   22b24:	7028      	strb	r0, [r5, #0]
   22b26:	b01b      	add	sp, #108	@ 0x6c
   22b28:	bdf0      	pop	{r4, r5, r6, r7, pc}
   22b2a:	df03      	svc	3
   22b2c:	b01b      	add	sp, #108	@ 0x6c
   22b2e:	bdf0      	pop	{r4, r5, r6, r7, pc}
   22b30:	000024f0 	.word	0x000024f0

00022b34 <_ZN20complex_dynamic_type3app17h5a9fd78e134820e1E>:
   22b34:	b5f0      	push	{r4, r5, r6, r7, lr}
   22b36:	af03      	add	r7, sp, #12
   22b38:	b0a5      	sub	sp, #148	@ 0x94
   22b3a:	9004      	str	r0, [sp, #16]
   22b3c:	a805      	add	r0, sp, #20
   22b3e:	2402      	movs	r4, #2
   22b40:	7004      	strb	r4, [r0, #0]
   22b42:	1c46      	adds	r6, r0, #1
   22b44:	2231      	movs	r2, #49	@ 0x31
   22b46:	9203      	str	r2, [sp, #12]
   22b48:	4630      	mov	r0, r6
   22b4a:	f008 fadb 	bl	2b104 <__aeabi_memcpy>
   22b4e:	ad12      	add	r5, sp, #72	@ 0x48
   22b50:	1c68      	adds	r0, r5, #1
   22b52:	2148      	movs	r1, #72	@ 0x48
   22b54:	9002      	str	r0, [sp, #8]
   22b56:	f008 f915 	bl	2ad84 <__aeabi_memclr>
   22b5a:	9401      	str	r4, [sp, #4]
   22b5c:	702c      	strb	r4, [r5, #0]
   22b5e:	4848      	ldr	r0, [pc, #288]	@ (22c80 <_ZN20complex_dynamic_type3app17h5a9fd78e134820e1E+0x14c>)
   22b60:	2504      	movs	r5, #4
   22b62:	4629      	mov	r1, r5
   22b64:	4632      	mov	r2, r6
   22b66:	9b03      	ldr	r3, [sp, #12]
   22b68:	df04      	svc	4
   22b6a:	2802      	cmp	r0, #2
   22b6c:	d104      	bne.n	22b78 <_ZN20complex_dynamic_type3app17h5a9fd78e134820e1E+0x44>
   22b6e:	2001      	movs	r0, #1
   22b70:	9a04      	ldr	r2, [sp, #16]
   22b72:	7010      	strb	r0, [r2, #0]
   22b74:	6051      	str	r1, [r2, #4]
   22b76:	e02b      	b.n	22bd0 <_ZN20complex_dynamic_type3app17h5a9fd78e134820e1E+0x9c>
   22b78:	9e04      	ldr	r6, [sp, #16]
   22b7a:	a805      	add	r0, sp, #20
   22b7c:	7005      	strb	r5, [r0, #0]
   22b7e:	4840      	ldr	r0, [pc, #256]	@ (22c80 <_ZN20complex_dynamic_type3app17h5a9fd78e134820e1E+0x14c>)
   22b80:	2403      	movs	r4, #3
   22b82:	2348      	movs	r3, #72	@ 0x48
   22b84:	4621      	mov	r1, r4
   22b86:	9a02      	ldr	r2, [sp, #8]
   22b88:	df03      	svc	3
   22b8a:	2802      	cmp	r0, #2
   22b8c:	d10e      	bne.n	22bac <_ZN20complex_dynamic_type3app17h5a9fd78e134820e1E+0x78>
   22b8e:	2001      	movs	r0, #1
   22b90:	7030      	strb	r0, [r6, #0]
   22b92:	6071      	str	r1, [r6, #4]
   22b94:	a812      	add	r0, sp, #72	@ 0x48
   22b96:	7800      	ldrb	r0, [r0, #0]
   22b98:	2802      	cmp	r0, #2
   22b9a:	d019      	beq.n	22bd0 <_ZN20complex_dynamic_type3app17h5a9fd78e134820e1E+0x9c>
   22b9c:	2803      	cmp	r0, #3
   22b9e:	d012      	beq.n	22bc6 <_ZN20complex_dynamic_type3app17h5a9fd78e134820e1E+0x92>
   22ba0:	4837      	ldr	r0, [pc, #220]	@ (22c80 <_ZN20complex_dynamic_type3app17h5a9fd78e134820e1E+0x14c>)
   22ba2:	2103      	movs	r1, #3
   22ba4:	2200      	movs	r2, #0
   22ba6:	4613      	mov	r3, r2
   22ba8:	df04      	svc	4
   22baa:	e011      	b.n	22bd0 <_ZN20complex_dynamic_type3app17h5a9fd78e134820e1E+0x9c>
   22bac:	a812      	add	r0, sp, #72	@ 0x48
   22bae:	7004      	strb	r4, [r0, #0]
   22bb0:	4833      	ldr	r0, [pc, #204]	@ (22c80 <_ZN20complex_dynamic_type3app17h5a9fd78e134820e1E+0x14c>)
   22bb2:	2104      	movs	r1, #4
   22bb4:	2500      	movs	r5, #0
   22bb6:	4622      	mov	r2, r4
   22bb8:	462b      	mov	r3, r5
   22bba:	df02      	svc	2
   22bbc:	2880      	cmp	r0, #128	@ 0x80
   22bbe:	d21b      	bcs.n	22bf8 <_ZN20complex_dynamic_type3app17h5a9fd78e134820e1E+0xc4>
   22bc0:	2001      	movs	r0, #1
   22bc2:	7030      	strb	r0, [r6, #0]
   22bc4:	6071      	str	r1, [r6, #4]
   22bc6:	482e      	ldr	r0, [pc, #184]	@ (22c80 <_ZN20complex_dynamic_type3app17h5a9fd78e134820e1E+0x14c>)
   22bc8:	2103      	movs	r1, #3
   22bca:	2200      	movs	r2, #0
   22bcc:	4613      	mov	r3, r2
   22bce:	df03      	svc	3
   22bd0:	a805      	add	r0, sp, #20
   22bd2:	7800      	ldrb	r0, [r0, #0]
   22bd4:	2802      	cmp	r0, #2
   22bd6:	d045      	beq.n	22c64 <_ZN20complex_dynamic_type3app17h5a9fd78e134820e1E+0x130>
   22bd8:	2804      	cmp	r0, #4
   22bda:	d106      	bne.n	22bea <_ZN20complex_dynamic_type3app17h5a9fd78e134820e1E+0xb6>
   22bdc:	4828      	ldr	r0, [pc, #160]	@ (22c80 <_ZN20complex_dynamic_type3app17h5a9fd78e134820e1E+0x14c>)
   22bde:	2104      	movs	r1, #4
   22be0:	2200      	movs	r2, #0
   22be2:	4613      	mov	r3, r2
   22be4:	df04      	svc	4
   22be6:	b025      	add	sp, #148	@ 0x94
   22be8:	bdf0      	pop	{r4, r5, r6, r7, pc}
   22bea:	4825      	ldr	r0, [pc, #148]	@ (22c80 <_ZN20complex_dynamic_type3app17h5a9fd78e134820e1E+0x14c>)
   22bec:	2104      	movs	r1, #4
   22bee:	2200      	movs	r2, #0
   22bf0:	4613      	mov	r3, r2
   22bf2:	df03      	svc	3
   22bf4:	b025      	add	sp, #148	@ 0x94
   22bf6:	bdf0      	pop	{r4, r5, r6, r7, pc}
   22bf8:	a805      	add	r0, sp, #20
   22bfa:	7800      	ldrb	r0, [r0, #0]
   22bfc:	2802      	cmp	r0, #2
   22bfe:	d00c      	beq.n	22c1a <_ZN20complex_dynamic_type3app17h5a9fd78e134820e1E+0xe6>
   22c00:	2803      	cmp	r0, #3
   22c02:	d105      	bne.n	22c10 <_ZN20complex_dynamic_type3app17h5a9fd78e134820e1E+0xdc>
   22c04:	481e      	ldr	r0, [pc, #120]	@ (22c80 <_ZN20complex_dynamic_type3app17h5a9fd78e134820e1E+0x14c>)
   22c06:	2104      	movs	r1, #4
   22c08:	2200      	movs	r2, #0
   22c0a:	4613      	mov	r3, r2
   22c0c:	df03      	svc	3
   22c0e:	e004      	b.n	22c1a <_ZN20complex_dynamic_type3app17h5a9fd78e134820e1E+0xe6>
   22c10:	481b      	ldr	r0, [pc, #108]	@ (22c80 <_ZN20complex_dynamic_type3app17h5a9fd78e134820e1E+0x14c>)
   22c12:	2104      	movs	r1, #4
   22c14:	2200      	movs	r2, #0
   22c16:	4613      	mov	r3, r2
   22c18:	df04      	svc	4
   22c1a:	a805      	add	r0, sp, #20
   22c1c:	9901      	ldr	r1, [sp, #4]
   22c1e:	7001      	strb	r1, [r0, #0]
   22c20:	a812      	add	r0, sp, #72	@ 0x48
   22c22:	7800      	ldrb	r0, [r0, #0]
   22c24:	2804      	cmp	r0, #4
   22c26:	d007      	beq.n	22c38 <_ZN20complex_dynamic_type3app17h5a9fd78e134820e1E+0x104>
   22c28:	2803      	cmp	r0, #3
   22c2a:	d11d      	bne.n	22c68 <_ZN20complex_dynamic_type3app17h5a9fd78e134820e1E+0x134>
   22c2c:	4814      	ldr	r0, [pc, #80]	@ (22c80 <_ZN20complex_dynamic_type3app17h5a9fd78e134820e1E+0x14c>)
   22c2e:	2103      	movs	r1, #3
   22c30:	2200      	movs	r2, #0
   22c32:	4613      	mov	r3, r2
   22c34:	df03      	svc	3
   22c36:	e004      	b.n	22c42 <_ZN20complex_dynamic_type3app17h5a9fd78e134820e1E+0x10e>
   22c38:	4811      	ldr	r0, [pc, #68]	@ (22c80 <_ZN20complex_dynamic_type3app17h5a9fd78e134820e1E+0x14c>)
   22c3a:	2103      	movs	r1, #3
   22c3c:	2200      	movs	r2, #0
   22c3e:	4613      	mov	r3, r2
   22c40:	df04      	svc	4
   22c42:	a805      	add	r0, sp, #20
   22c44:	7804      	ldrb	r4, [r0, #0]
   22c46:	1c70      	adds	r0, r6, #1
   22c48:	2248      	movs	r2, #72	@ 0x48
   22c4a:	9902      	ldr	r1, [sp, #8]
   22c4c:	f008 fa5a 	bl	2b104 <__aeabi_memcpy>
   22c50:	7035      	strb	r5, [r6, #0]
   22c52:	2c02      	cmp	r4, #2
   22c54:	d006      	beq.n	22c64 <_ZN20complex_dynamic_type3app17h5a9fd78e134820e1E+0x130>
   22c56:	480a      	ldr	r0, [pc, #40]	@ (22c80 <_ZN20complex_dynamic_type3app17h5a9fd78e134820e1E+0x14c>)
   22c58:	2104      	movs	r1, #4
   22c5a:	2200      	movs	r2, #0
   22c5c:	4613      	mov	r3, r2
   22c5e:	2c04      	cmp	r4, #4
   22c60:	d10a      	bne.n	22c78 <_ZN20complex_dynamic_type3app17h5a9fd78e134820e1E+0x144>
   22c62:	df04      	svc	4
   22c64:	b025      	add	sp, #148	@ 0x94
   22c66:	bdf0      	pop	{r4, r5, r6, r7, pc}
   22c68:	1c70      	adds	r0, r6, #1
   22c6a:	2248      	movs	r2, #72	@ 0x48
   22c6c:	9902      	ldr	r1, [sp, #8]
   22c6e:	f008 fa49 	bl	2b104 <__aeabi_memcpy>
   22c72:	7035      	strb	r5, [r6, #0]
   22c74:	b025      	add	sp, #148	@ 0x94
   22c76:	bdf0      	pop	{r4, r5, r6, r7, pc}
   22c78:	df03      	svc	3
   22c7a:	b025      	add	sp, #148	@ 0x94
   22c7c:	bdf0      	pop	{r4, r5, r6, r7, pc}
   22c7e:	46c0      	nop			@ (mov r8, r8)
   22c80:	0000180e 	.word	0x0000180e

00022c84 <_ZN20complex_dynamic_type3app17h5b2adeb418214c66E>:
   22c84:	b5f0      	push	{r4, r5, r6, r7, lr}
   22c86:	af03      	add	r7, sp, #12
   22c88:	b09f      	sub	sp, #124	@ 0x7c
   22c8a:	9004      	str	r0, [sp, #16]
   22c8c:	a805      	add	r0, sp, #20
   22c8e:	2402      	movs	r4, #2
   22c90:	7004      	strb	r4, [r0, #0]
   22c92:	1c46      	adds	r6, r0, #1
   22c94:	2211      	movs	r2, #17
   22c96:	9203      	str	r2, [sp, #12]
   22c98:	4630      	mov	r0, r6
   22c9a:	f008 fa33 	bl	2b104 <__aeabi_memcpy>
   22c9e:	ad0a      	add	r5, sp, #40	@ 0x28
   22ca0:	1c68      	adds	r0, r5, #1
   22ca2:	2150      	movs	r1, #80	@ 0x50
   22ca4:	9002      	str	r0, [sp, #8]
   22ca6:	f008 f86d 	bl	2ad84 <__aeabi_memclr>
   22caa:	9401      	str	r4, [sp, #4]
   22cac:	702c      	strb	r4, [r5, #0]
   22cae:	4848      	ldr	r0, [pc, #288]	@ (22dd0 <_ZN20complex_dynamic_type3app17h5b2adeb418214c66E+0x14c>)
   22cb0:	2106      	movs	r1, #6
   22cb2:	4632      	mov	r2, r6
   22cb4:	9b03      	ldr	r3, [sp, #12]
   22cb6:	df04      	svc	4
   22cb8:	2802      	cmp	r0, #2
   22cba:	d104      	bne.n	22cc6 <_ZN20complex_dynamic_type3app17h5b2adeb418214c66E+0x42>
   22cbc:	2001      	movs	r0, #1
   22cbe:	9a04      	ldr	r2, [sp, #16]
   22cc0:	7010      	strb	r0, [r2, #0]
   22cc2:	6051      	str	r1, [r2, #4]
   22cc4:	e02d      	b.n	22d22 <_ZN20complex_dynamic_type3app17h5b2adeb418214c66E+0x9e>
   22cc6:	9d04      	ldr	r5, [sp, #16]
   22cc8:	a805      	add	r0, sp, #20
   22cca:	2104      	movs	r1, #4
   22ccc:	7001      	strb	r1, [r0, #0]
   22cce:	4840      	ldr	r0, [pc, #256]	@ (22dd0 <_ZN20complex_dynamic_type3app17h5b2adeb418214c66E+0x14c>)
   22cd0:	2105      	movs	r1, #5
   22cd2:	2350      	movs	r3, #80	@ 0x50
   22cd4:	9c02      	ldr	r4, [sp, #8]
   22cd6:	4622      	mov	r2, r4
   22cd8:	df03      	svc	3
   22cda:	2802      	cmp	r0, #2
   22cdc:	d10e      	bne.n	22cfc <_ZN20complex_dynamic_type3app17h5b2adeb418214c66E+0x78>
   22cde:	2001      	movs	r0, #1
   22ce0:	7028      	strb	r0, [r5, #0]
   22ce2:	6069      	str	r1, [r5, #4]
   22ce4:	a80a      	add	r0, sp, #40	@ 0x28
   22ce6:	7800      	ldrb	r0, [r0, #0]
   22ce8:	2802      	cmp	r0, #2
   22cea:	d01a      	beq.n	22d22 <_ZN20complex_dynamic_type3app17h5b2adeb418214c66E+0x9e>
   22cec:	2803      	cmp	r0, #3
   22cee:	d013      	beq.n	22d18 <_ZN20complex_dynamic_type3app17h5b2adeb418214c66E+0x94>
   22cf0:	4837      	ldr	r0, [pc, #220]	@ (22dd0 <_ZN20complex_dynamic_type3app17h5b2adeb418214c66E+0x14c>)
   22cf2:	2105      	movs	r1, #5
   22cf4:	2200      	movs	r2, #0
   22cf6:	4613      	mov	r3, r2
   22cf8:	df04      	svc	4
   22cfa:	e012      	b.n	22d22 <_ZN20complex_dynamic_type3app17h5b2adeb418214c66E+0x9e>
   22cfc:	a80a      	add	r0, sp, #40	@ 0x28
   22cfe:	2103      	movs	r1, #3
   22d00:	7001      	strb	r1, [r0, #0]
   22d02:	4833      	ldr	r0, [pc, #204]	@ (22dd0 <_ZN20complex_dynamic_type3app17h5b2adeb418214c66E+0x14c>)
   22d04:	2106      	movs	r1, #6
   22d06:	2205      	movs	r2, #5
   22d08:	2600      	movs	r6, #0
   22d0a:	4633      	mov	r3, r6
   22d0c:	df02      	svc	2
   22d0e:	2880      	cmp	r0, #128	@ 0x80
   22d10:	d21b      	bcs.n	22d4a <_ZN20complex_dynamic_type3app17h5b2adeb418214c66E+0xc6>
   22d12:	2001      	movs	r0, #1
   22d14:	7028      	strb	r0, [r5, #0]
   22d16:	6069      	str	r1, [r5, #4]
   22d18:	482d      	ldr	r0, [pc, #180]	@ (22dd0 <_ZN20complex_dynamic_type3app17h5b2adeb418214c66E+0x14c>)
   22d1a:	2105      	movs	r1, #5
   22d1c:	2200      	movs	r2, #0
   22d1e:	4613      	mov	r3, r2
   22d20:	df03      	svc	3
   22d22:	a805      	add	r0, sp, #20
   22d24:	7800      	ldrb	r0, [r0, #0]
   22d26:	2802      	cmp	r0, #2
   22d28:	d045      	beq.n	22db6 <_ZN20complex_dynamic_type3app17h5b2adeb418214c66E+0x132>
   22d2a:	2804      	cmp	r0, #4
   22d2c:	d106      	bne.n	22d3c <_ZN20complex_dynamic_type3app17h5b2adeb418214c66E+0xb8>
   22d2e:	4828      	ldr	r0, [pc, #160]	@ (22dd0 <_ZN20complex_dynamic_type3app17h5b2adeb418214c66E+0x14c>)
   22d30:	2106      	movs	r1, #6
   22d32:	2200      	movs	r2, #0
   22d34:	4613      	mov	r3, r2
   22d36:	df04      	svc	4
   22d38:	b01f      	add	sp, #124	@ 0x7c
   22d3a:	bdf0      	pop	{r4, r5, r6, r7, pc}
   22d3c:	4824      	ldr	r0, [pc, #144]	@ (22dd0 <_ZN20complex_dynamic_type3app17h5b2adeb418214c66E+0x14c>)
   22d3e:	2106      	movs	r1, #6
   22d40:	2200      	movs	r2, #0
   22d42:	4613      	mov	r3, r2
   22d44:	df03      	svc	3
   22d46:	b01f      	add	sp, #124	@ 0x7c
   22d48:	bdf0      	pop	{r4, r5, r6, r7, pc}
   22d4a:	a805      	add	r0, sp, #20
   22d4c:	7800      	ldrb	r0, [r0, #0]
   22d4e:	2802      	cmp	r0, #2
   22d50:	d00c      	beq.n	22d6c <_ZN20complex_dynamic_type3app17h5b2adeb418214c66E+0xe8>
   22d52:	2803      	cmp	r0, #3
   22d54:	d105      	bne.n	22d62 <_ZN20complex_dynamic_type3app17h5b2adeb418214c66E+0xde>
   22d56:	481e      	ldr	r0, [pc, #120]	@ (22dd0 <_ZN20complex_dynamic_type3app17h5b2adeb418214c66E+0x14c>)
   22d58:	2106      	movs	r1, #6
   22d5a:	2200      	movs	r2, #0
   22d5c:	4613      	mov	r3, r2
   22d5e:	df03      	svc	3
   22d60:	e004      	b.n	22d6c <_ZN20complex_dynamic_type3app17h5b2adeb418214c66E+0xe8>
   22d62:	481b      	ldr	r0, [pc, #108]	@ (22dd0 <_ZN20complex_dynamic_type3app17h5b2adeb418214c66E+0x14c>)
   22d64:	2106      	movs	r1, #6
   22d66:	2200      	movs	r2, #0
   22d68:	4613      	mov	r3, r2
   22d6a:	df04      	svc	4
   22d6c:	a805      	add	r0, sp, #20
   22d6e:	9901      	ldr	r1, [sp, #4]
   22d70:	7001      	strb	r1, [r0, #0]
   22d72:	a80a      	add	r0, sp, #40	@ 0x28
   22d74:	7800      	ldrb	r0, [r0, #0]
   22d76:	2804      	cmp	r0, #4
   22d78:	d007      	beq.n	22d8a <_ZN20complex_dynamic_type3app17h5b2adeb418214c66E+0x106>
   22d7a:	2803      	cmp	r0, #3
   22d7c:	d11d      	bne.n	22dba <_ZN20complex_dynamic_type3app17h5b2adeb418214c66E+0x136>
   22d7e:	4814      	ldr	r0, [pc, #80]	@ (22dd0 <_ZN20complex_dynamic_type3app17h5b2adeb418214c66E+0x14c>)
   22d80:	2105      	movs	r1, #5
   22d82:	2200      	movs	r2, #0
   22d84:	4613      	mov	r3, r2
   22d86:	df03      	svc	3
   22d88:	e004      	b.n	22d94 <_ZN20complex_dynamic_type3app17h5b2adeb418214c66E+0x110>
   22d8a:	4811      	ldr	r0, [pc, #68]	@ (22dd0 <_ZN20complex_dynamic_type3app17h5b2adeb418214c66E+0x14c>)
   22d8c:	2105      	movs	r1, #5
   22d8e:	2200      	movs	r2, #0
   22d90:	4613      	mov	r3, r2
   22d92:	df04      	svc	4
   22d94:	a805      	add	r0, sp, #20
   22d96:	7804      	ldrb	r4, [r0, #0]
   22d98:	1c68      	adds	r0, r5, #1
   22d9a:	2250      	movs	r2, #80	@ 0x50
   22d9c:	9902      	ldr	r1, [sp, #8]
   22d9e:	f008 f9b1 	bl	2b104 <__aeabi_memcpy>
   22da2:	702e      	strb	r6, [r5, #0]
   22da4:	2c02      	cmp	r4, #2
   22da6:	d006      	beq.n	22db6 <_ZN20complex_dynamic_type3app17h5b2adeb418214c66E+0x132>
   22da8:	4809      	ldr	r0, [pc, #36]	@ (22dd0 <_ZN20complex_dynamic_type3app17h5b2adeb418214c66E+0x14c>)
   22daa:	2106      	movs	r1, #6
   22dac:	2200      	movs	r2, #0
   22dae:	4613      	mov	r3, r2
   22db0:	2c04      	cmp	r4, #4
   22db2:	d10a      	bne.n	22dca <_ZN20complex_dynamic_type3app17h5b2adeb418214c66E+0x146>
   22db4:	df04      	svc	4
   22db6:	b01f      	add	sp, #124	@ 0x7c
   22db8:	bdf0      	pop	{r4, r5, r6, r7, pc}
   22dba:	1c68      	adds	r0, r5, #1
   22dbc:	2250      	movs	r2, #80	@ 0x50
   22dbe:	4621      	mov	r1, r4
   22dc0:	f008 f9a0 	bl	2b104 <__aeabi_memcpy>
   22dc4:	702e      	strb	r6, [r5, #0]
   22dc6:	b01f      	add	sp, #124	@ 0x7c
   22dc8:	bdf0      	pop	{r4, r5, r6, r7, pc}
   22dca:	df03      	svc	3
   22dcc:	b01f      	add	sp, #124	@ 0x7c
   22dce:	bdf0      	pop	{r4, r5, r6, r7, pc}
   22dd0:	00001aa9 	.word	0x00001aa9

00022dd4 <_ZN20complex_dynamic_type3app17h5ec178bf940e34feE>:
   22dd4:	b5f0      	push	{r4, r5, r6, r7, lr}
   22dd6:	af03      	add	r7, sp, #12
   22dd8:	b0a7      	sub	sp, #156	@ 0x9c
   22dda:	9003      	str	r0, [sp, #12]
   22ddc:	a804      	add	r0, sp, #16
   22dde:	2402      	movs	r4, #2
   22de0:	7004      	strb	r4, [r0, #0]
   22de2:	1c46      	adds	r6, r0, #1
   22de4:	2263      	movs	r2, #99	@ 0x63
   22de6:	9202      	str	r2, [sp, #8]
   22de8:	4630      	mov	r0, r6
   22dea:	f008 f98b 	bl	2b104 <__aeabi_memcpy>
   22dee:	ad1d      	add	r5, sp, #116	@ 0x74
   22df0:	1c68      	adds	r0, r5, #1
   22df2:	2127      	movs	r1, #39	@ 0x27
   22df4:	9001      	str	r0, [sp, #4]
   22df6:	f007 ffc5 	bl	2ad84 <__aeabi_memclr>
   22dfa:	9400      	str	r4, [sp, #0]
   22dfc:	702c      	strb	r4, [r5, #0]
   22dfe:	4848      	ldr	r0, [pc, #288]	@ (22f20 <_ZN20complex_dynamic_type3app17h5ec178bf940e34feE+0x14c>)
   22e00:	2107      	movs	r1, #7
   22e02:	4632      	mov	r2, r6
   22e04:	9b02      	ldr	r3, [sp, #8]
   22e06:	df04      	svc	4
   22e08:	2802      	cmp	r0, #2
   22e0a:	d104      	bne.n	22e16 <_ZN20complex_dynamic_type3app17h5ec178bf940e34feE+0x42>
   22e0c:	2001      	movs	r0, #1
   22e0e:	9a03      	ldr	r2, [sp, #12]
   22e10:	7010      	strb	r0, [r2, #0]
   22e12:	6051      	str	r1, [r2, #4]
   22e14:	e02d      	b.n	22e72 <_ZN20complex_dynamic_type3app17h5ec178bf940e34feE+0x9e>
   22e16:	9d03      	ldr	r5, [sp, #12]
   22e18:	a804      	add	r0, sp, #16
   22e1a:	2104      	movs	r1, #4
   22e1c:	7001      	strb	r1, [r0, #0]
   22e1e:	4840      	ldr	r0, [pc, #256]	@ (22f20 <_ZN20complex_dynamic_type3app17h5ec178bf940e34feE+0x14c>)
   22e20:	2100      	movs	r1, #0
   22e22:	2327      	movs	r3, #39	@ 0x27
   22e24:	9c01      	ldr	r4, [sp, #4]
   22e26:	4622      	mov	r2, r4
   22e28:	df03      	svc	3
   22e2a:	2802      	cmp	r0, #2
   22e2c:	d10e      	bne.n	22e4c <_ZN20complex_dynamic_type3app17h5ec178bf940e34feE+0x78>
   22e2e:	2001      	movs	r0, #1
   22e30:	7028      	strb	r0, [r5, #0]
   22e32:	6069      	str	r1, [r5, #4]
   22e34:	a81d      	add	r0, sp, #116	@ 0x74
   22e36:	7800      	ldrb	r0, [r0, #0]
   22e38:	2802      	cmp	r0, #2
   22e3a:	d01a      	beq.n	22e72 <_ZN20complex_dynamic_type3app17h5ec178bf940e34feE+0x9e>
   22e3c:	2803      	cmp	r0, #3
   22e3e:	d013      	beq.n	22e68 <_ZN20complex_dynamic_type3app17h5ec178bf940e34feE+0x94>
   22e40:	4837      	ldr	r0, [pc, #220]	@ (22f20 <_ZN20complex_dynamic_type3app17h5ec178bf940e34feE+0x14c>)
   22e42:	2100      	movs	r1, #0
   22e44:	460a      	mov	r2, r1
   22e46:	460b      	mov	r3, r1
   22e48:	df04      	svc	4
   22e4a:	e012      	b.n	22e72 <_ZN20complex_dynamic_type3app17h5ec178bf940e34feE+0x9e>
   22e4c:	a81d      	add	r0, sp, #116	@ 0x74
   22e4e:	2103      	movs	r1, #3
   22e50:	7001      	strb	r1, [r0, #0]
   22e52:	4833      	ldr	r0, [pc, #204]	@ (22f20 <_ZN20complex_dynamic_type3app17h5ec178bf940e34feE+0x14c>)
   22e54:	2107      	movs	r1, #7
   22e56:	2600      	movs	r6, #0
   22e58:	4632      	mov	r2, r6
   22e5a:	4633      	mov	r3, r6
   22e5c:	df02      	svc	2
   22e5e:	2880      	cmp	r0, #128	@ 0x80
   22e60:	d21b      	bcs.n	22e9a <_ZN20complex_dynamic_type3app17h5ec178bf940e34feE+0xc6>
   22e62:	2001      	movs	r0, #1
   22e64:	7028      	strb	r0, [r5, #0]
   22e66:	6069      	str	r1, [r5, #4]
   22e68:	482d      	ldr	r0, [pc, #180]	@ (22f20 <_ZN20complex_dynamic_type3app17h5ec178bf940e34feE+0x14c>)
   22e6a:	2100      	movs	r1, #0
   22e6c:	460a      	mov	r2, r1
   22e6e:	460b      	mov	r3, r1
   22e70:	df03      	svc	3
   22e72:	a804      	add	r0, sp, #16
   22e74:	7800      	ldrb	r0, [r0, #0]
   22e76:	2802      	cmp	r0, #2
   22e78:	d045      	beq.n	22f06 <_ZN20complex_dynamic_type3app17h5ec178bf940e34feE+0x132>
   22e7a:	2804      	cmp	r0, #4
   22e7c:	d106      	bne.n	22e8c <_ZN20complex_dynamic_type3app17h5ec178bf940e34feE+0xb8>
   22e7e:	4828      	ldr	r0, [pc, #160]	@ (22f20 <_ZN20complex_dynamic_type3app17h5ec178bf940e34feE+0x14c>)
   22e80:	2107      	movs	r1, #7
   22e82:	2200      	movs	r2, #0
   22e84:	4613      	mov	r3, r2
   22e86:	df04      	svc	4
   22e88:	b027      	add	sp, #156	@ 0x9c
   22e8a:	bdf0      	pop	{r4, r5, r6, r7, pc}
   22e8c:	4824      	ldr	r0, [pc, #144]	@ (22f20 <_ZN20complex_dynamic_type3app17h5ec178bf940e34feE+0x14c>)
   22e8e:	2107      	movs	r1, #7
   22e90:	2200      	movs	r2, #0
   22e92:	4613      	mov	r3, r2
   22e94:	df03      	svc	3
   22e96:	b027      	add	sp, #156	@ 0x9c
   22e98:	bdf0      	pop	{r4, r5, r6, r7, pc}
   22e9a:	a804      	add	r0, sp, #16
   22e9c:	7800      	ldrb	r0, [r0, #0]
   22e9e:	2802      	cmp	r0, #2
   22ea0:	d00c      	beq.n	22ebc <_ZN20complex_dynamic_type3app17h5ec178bf940e34feE+0xe8>
   22ea2:	2803      	cmp	r0, #3
   22ea4:	d105      	bne.n	22eb2 <_ZN20complex_dynamic_type3app17h5ec178bf940e34feE+0xde>
   22ea6:	481e      	ldr	r0, [pc, #120]	@ (22f20 <_ZN20complex_dynamic_type3app17h5ec178bf940e34feE+0x14c>)
   22ea8:	2107      	movs	r1, #7
   22eaa:	2200      	movs	r2, #0
   22eac:	4613      	mov	r3, r2
   22eae:	df03      	svc	3
   22eb0:	e004      	b.n	22ebc <_ZN20complex_dynamic_type3app17h5ec178bf940e34feE+0xe8>
   22eb2:	481b      	ldr	r0, [pc, #108]	@ (22f20 <_ZN20complex_dynamic_type3app17h5ec178bf940e34feE+0x14c>)
   22eb4:	2107      	movs	r1, #7
   22eb6:	2200      	movs	r2, #0
   22eb8:	4613      	mov	r3, r2
   22eba:	df04      	svc	4
   22ebc:	a804      	add	r0, sp, #16
   22ebe:	9900      	ldr	r1, [sp, #0]
   22ec0:	7001      	strb	r1, [r0, #0]
   22ec2:	a81d      	add	r0, sp, #116	@ 0x74
   22ec4:	7800      	ldrb	r0, [r0, #0]
   22ec6:	2804      	cmp	r0, #4
   22ec8:	d007      	beq.n	22eda <_ZN20complex_dynamic_type3app17h5ec178bf940e34feE+0x106>
   22eca:	2803      	cmp	r0, #3
   22ecc:	d11d      	bne.n	22f0a <_ZN20complex_dynamic_type3app17h5ec178bf940e34feE+0x136>
   22ece:	4814      	ldr	r0, [pc, #80]	@ (22f20 <_ZN20complex_dynamic_type3app17h5ec178bf940e34feE+0x14c>)
   22ed0:	2100      	movs	r1, #0
   22ed2:	460a      	mov	r2, r1
   22ed4:	460b      	mov	r3, r1
   22ed6:	df03      	svc	3
   22ed8:	e004      	b.n	22ee4 <_ZN20complex_dynamic_type3app17h5ec178bf940e34feE+0x110>
   22eda:	4811      	ldr	r0, [pc, #68]	@ (22f20 <_ZN20complex_dynamic_type3app17h5ec178bf940e34feE+0x14c>)
   22edc:	2100      	movs	r1, #0
   22ede:	460a      	mov	r2, r1
   22ee0:	460b      	mov	r3, r1
   22ee2:	df04      	svc	4
   22ee4:	a804      	add	r0, sp, #16
   22ee6:	7804      	ldrb	r4, [r0, #0]
   22ee8:	1c68      	adds	r0, r5, #1
   22eea:	2227      	movs	r2, #39	@ 0x27
   22eec:	9901      	ldr	r1, [sp, #4]
   22eee:	f008 f909 	bl	2b104 <__aeabi_memcpy>
   22ef2:	702e      	strb	r6, [r5, #0]
   22ef4:	2c02      	cmp	r4, #2
   22ef6:	d006      	beq.n	22f06 <_ZN20complex_dynamic_type3app17h5ec178bf940e34feE+0x132>
   22ef8:	4809      	ldr	r0, [pc, #36]	@ (22f20 <_ZN20complex_dynamic_type3app17h5ec178bf940e34feE+0x14c>)
   22efa:	2107      	movs	r1, #7
   22efc:	2200      	movs	r2, #0
   22efe:	4613      	mov	r3, r2
   22f00:	2c04      	cmp	r4, #4
   22f02:	d10a      	bne.n	22f1a <_ZN20complex_dynamic_type3app17h5ec178bf940e34feE+0x146>
   22f04:	df04      	svc	4
   22f06:	b027      	add	sp, #156	@ 0x9c
   22f08:	bdf0      	pop	{r4, r5, r6, r7, pc}
   22f0a:	1c68      	adds	r0, r5, #1
   22f0c:	2227      	movs	r2, #39	@ 0x27
   22f0e:	4621      	mov	r1, r4
   22f10:	f008 f8f8 	bl	2b104 <__aeabi_memcpy>
   22f14:	702e      	strb	r6, [r5, #0]
   22f16:	b027      	add	sp, #156	@ 0x9c
   22f18:	bdf0      	pop	{r4, r5, r6, r7, pc}
   22f1a:	df03      	svc	3
   22f1c:	b027      	add	sp, #156	@ 0x9c
   22f1e:	bdf0      	pop	{r4, r5, r6, r7, pc}
   22f20:	00001e54 	.word	0x00001e54

00022f24 <_ZN20complex_dynamic_type3app17h61151b2563c6b384E>:
   22f24:	b5f0      	push	{r4, r5, r6, r7, lr}
   22f26:	af03      	add	r7, sp, #12
   22f28:	b099      	sub	sp, #100	@ 0x64
   22f2a:	9004      	str	r0, [sp, #16]
   22f2c:	a805      	add	r0, sp, #20
   22f2e:	2402      	movs	r4, #2
   22f30:	7004      	strb	r4, [r0, #0]
   22f32:	1c40      	adds	r0, r0, #1
   22f34:	9003      	str	r0, [sp, #12]
   22f36:	2521      	movs	r5, #33	@ 0x21
   22f38:	462a      	mov	r2, r5
   22f3a:	f008 f8e3 	bl	2b104 <__aeabi_memcpy>
   22f3e:	ae0e      	add	r6, sp, #56	@ 0x38
   22f40:	1c70      	adds	r0, r6, #1
   22f42:	212a      	movs	r1, #42	@ 0x2a
   22f44:	9002      	str	r0, [sp, #8]
   22f46:	f007 ff1d 	bl	2ad84 <__aeabi_memclr>
   22f4a:	9401      	str	r4, [sp, #4]
   22f4c:	7034      	strb	r4, [r6, #0]
   22f4e:	4849      	ldr	r0, [pc, #292]	@ (23074 <_ZN20complex_dynamic_type3app17h61151b2563c6b384E+0x150>)
   22f50:	2601      	movs	r6, #1
   22f52:	4631      	mov	r1, r6
   22f54:	9a03      	ldr	r2, [sp, #12]
   22f56:	462b      	mov	r3, r5
   22f58:	df04      	svc	4
   22f5a:	2802      	cmp	r0, #2
   22f5c:	d103      	bne.n	22f66 <_ZN20complex_dynamic_type3app17h61151b2563c6b384E+0x42>
   22f5e:	9804      	ldr	r0, [sp, #16]
   22f60:	7006      	strb	r6, [r0, #0]
   22f62:	6041      	str	r1, [r0, #4]
   22f64:	e02c      	b.n	22fc0 <_ZN20complex_dynamic_type3app17h61151b2563c6b384E+0x9c>
   22f66:	a805      	add	r0, sp, #20
   22f68:	2104      	movs	r1, #4
   22f6a:	7001      	strb	r1, [r0, #0]
   22f6c:	4841      	ldr	r0, [pc, #260]	@ (23074 <_ZN20complex_dynamic_type3app17h61151b2563c6b384E+0x150>)
   22f6e:	2403      	movs	r4, #3
   22f70:	232a      	movs	r3, #42	@ 0x2a
   22f72:	4621      	mov	r1, r4
   22f74:	9a02      	ldr	r2, [sp, #8]
   22f76:	df03      	svc	3
   22f78:	2802      	cmp	r0, #2
   22f7a:	d10e      	bne.n	22f9a <_ZN20complex_dynamic_type3app17h61151b2563c6b384E+0x76>
   22f7c:	9804      	ldr	r0, [sp, #16]
   22f7e:	7006      	strb	r6, [r0, #0]
   22f80:	6041      	str	r1, [r0, #4]
   22f82:	a80e      	add	r0, sp, #56	@ 0x38
   22f84:	7800      	ldrb	r0, [r0, #0]
   22f86:	2802      	cmp	r0, #2
   22f88:	d01a      	beq.n	22fc0 <_ZN20complex_dynamic_type3app17h61151b2563c6b384E+0x9c>
   22f8a:	2803      	cmp	r0, #3
   22f8c:	d013      	beq.n	22fb6 <_ZN20complex_dynamic_type3app17h61151b2563c6b384E+0x92>
   22f8e:	4839      	ldr	r0, [pc, #228]	@ (23074 <_ZN20complex_dynamic_type3app17h61151b2563c6b384E+0x150>)
   22f90:	2103      	movs	r1, #3
   22f92:	2200      	movs	r2, #0
   22f94:	4613      	mov	r3, r2
   22f96:	df04      	svc	4
   22f98:	e012      	b.n	22fc0 <_ZN20complex_dynamic_type3app17h61151b2563c6b384E+0x9c>
   22f9a:	a80e      	add	r0, sp, #56	@ 0x38
   22f9c:	7004      	strb	r4, [r0, #0]
   22f9e:	4835      	ldr	r0, [pc, #212]	@ (23074 <_ZN20complex_dynamic_type3app17h61151b2563c6b384E+0x150>)
   22fa0:	2501      	movs	r5, #1
   22fa2:	2600      	movs	r6, #0
   22fa4:	4629      	mov	r1, r5
   22fa6:	4622      	mov	r2, r4
   22fa8:	4633      	mov	r3, r6
   22faa:	df02      	svc	2
   22fac:	2880      	cmp	r0, #128	@ 0x80
   22fae:	d21b      	bcs.n	22fe8 <_ZN20complex_dynamic_type3app17h61151b2563c6b384E+0xc4>
   22fb0:	9804      	ldr	r0, [sp, #16]
   22fb2:	7005      	strb	r5, [r0, #0]
   22fb4:	6041      	str	r1, [r0, #4]
   22fb6:	482f      	ldr	r0, [pc, #188]	@ (23074 <_ZN20complex_dynamic_type3app17h61151b2563c6b384E+0x150>)
   22fb8:	2103      	movs	r1, #3
   22fba:	2200      	movs	r2, #0
   22fbc:	4613      	mov	r3, r2
   22fbe:	df03      	svc	3
   22fc0:	a805      	add	r0, sp, #20
   22fc2:	7800      	ldrb	r0, [r0, #0]
   22fc4:	2802      	cmp	r0, #2
   22fc6:	d046      	beq.n	23056 <_ZN20complex_dynamic_type3app17h61151b2563c6b384E+0x132>
   22fc8:	2804      	cmp	r0, #4
   22fca:	d106      	bne.n	22fda <_ZN20complex_dynamic_type3app17h61151b2563c6b384E+0xb6>
   22fcc:	4829      	ldr	r0, [pc, #164]	@ (23074 <_ZN20complex_dynamic_type3app17h61151b2563c6b384E+0x150>)
   22fce:	2101      	movs	r1, #1
   22fd0:	2200      	movs	r2, #0
   22fd2:	4613      	mov	r3, r2
   22fd4:	df04      	svc	4
   22fd6:	b019      	add	sp, #100	@ 0x64
   22fd8:	bdf0      	pop	{r4, r5, r6, r7, pc}
   22fda:	4826      	ldr	r0, [pc, #152]	@ (23074 <_ZN20complex_dynamic_type3app17h61151b2563c6b384E+0x150>)
   22fdc:	2101      	movs	r1, #1
   22fde:	2200      	movs	r2, #0
   22fe0:	4613      	mov	r3, r2
   22fe2:	df03      	svc	3
   22fe4:	b019      	add	sp, #100	@ 0x64
   22fe6:	bdf0      	pop	{r4, r5, r6, r7, pc}
   22fe8:	a805      	add	r0, sp, #20
   22fea:	7800      	ldrb	r0, [r0, #0]
   22fec:	2802      	cmp	r0, #2
   22fee:	d00c      	beq.n	2300a <_ZN20complex_dynamic_type3app17h61151b2563c6b384E+0xe6>
   22ff0:	2803      	cmp	r0, #3
   22ff2:	d105      	bne.n	23000 <_ZN20complex_dynamic_type3app17h61151b2563c6b384E+0xdc>
   22ff4:	481f      	ldr	r0, [pc, #124]	@ (23074 <_ZN20complex_dynamic_type3app17h61151b2563c6b384E+0x150>)
   22ff6:	2101      	movs	r1, #1
   22ff8:	2200      	movs	r2, #0
   22ffa:	4613      	mov	r3, r2
   22ffc:	df03      	svc	3
   22ffe:	e004      	b.n	2300a <_ZN20complex_dynamic_type3app17h61151b2563c6b384E+0xe6>
   23000:	481c      	ldr	r0, [pc, #112]	@ (23074 <_ZN20complex_dynamic_type3app17h61151b2563c6b384E+0x150>)
   23002:	2101      	movs	r1, #1
   23004:	2200      	movs	r2, #0
   23006:	4613      	mov	r3, r2
   23008:	df04      	svc	4
   2300a:	a805      	add	r0, sp, #20
   2300c:	9901      	ldr	r1, [sp, #4]
   2300e:	7001      	strb	r1, [r0, #0]
   23010:	a80e      	add	r0, sp, #56	@ 0x38
   23012:	7800      	ldrb	r0, [r0, #0]
   23014:	2804      	cmp	r0, #4
   23016:	d007      	beq.n	23028 <_ZN20complex_dynamic_type3app17h61151b2563c6b384E+0x104>
   23018:	2803      	cmp	r0, #3
   2301a:	d11e      	bne.n	2305a <_ZN20complex_dynamic_type3app17h61151b2563c6b384E+0x136>
   2301c:	4815      	ldr	r0, [pc, #84]	@ (23074 <_ZN20complex_dynamic_type3app17h61151b2563c6b384E+0x150>)
   2301e:	2103      	movs	r1, #3
   23020:	2200      	movs	r2, #0
   23022:	4613      	mov	r3, r2
   23024:	df03      	svc	3
   23026:	e004      	b.n	23032 <_ZN20complex_dynamic_type3app17h61151b2563c6b384E+0x10e>
   23028:	4812      	ldr	r0, [pc, #72]	@ (23074 <_ZN20complex_dynamic_type3app17h61151b2563c6b384E+0x150>)
   2302a:	2103      	movs	r1, #3
   2302c:	2200      	movs	r2, #0
   2302e:	4613      	mov	r3, r2
   23030:	df04      	svc	4
   23032:	a805      	add	r0, sp, #20
   23034:	7804      	ldrb	r4, [r0, #0]
   23036:	9d04      	ldr	r5, [sp, #16]
   23038:	1c68      	adds	r0, r5, #1
   2303a:	222a      	movs	r2, #42	@ 0x2a
   2303c:	9902      	ldr	r1, [sp, #8]
   2303e:	f008 f861 	bl	2b104 <__aeabi_memcpy>
   23042:	702e      	strb	r6, [r5, #0]
   23044:	2c02      	cmp	r4, #2
   23046:	d006      	beq.n	23056 <_ZN20complex_dynamic_type3app17h61151b2563c6b384E+0x132>
   23048:	480a      	ldr	r0, [pc, #40]	@ (23074 <_ZN20complex_dynamic_type3app17h61151b2563c6b384E+0x150>)
   2304a:	2101      	movs	r1, #1
   2304c:	2200      	movs	r2, #0
   2304e:	4613      	mov	r3, r2
   23050:	2c04      	cmp	r4, #4
   23052:	d10b      	bne.n	2306c <_ZN20complex_dynamic_type3app17h61151b2563c6b384E+0x148>
   23054:	df04      	svc	4
   23056:	b019      	add	sp, #100	@ 0x64
   23058:	bdf0      	pop	{r4, r5, r6, r7, pc}
   2305a:	9c04      	ldr	r4, [sp, #16]
   2305c:	9902      	ldr	r1, [sp, #8]
   2305e:	1c60      	adds	r0, r4, #1
   23060:	222a      	movs	r2, #42	@ 0x2a
   23062:	f008 f84f 	bl	2b104 <__aeabi_memcpy>
   23066:	7026      	strb	r6, [r4, #0]
   23068:	b019      	add	sp, #100	@ 0x64
   2306a:	bdf0      	pop	{r4, r5, r6, r7, pc}
   2306c:	df03      	svc	3
   2306e:	b019      	add	sp, #100	@ 0x64
   23070:	bdf0      	pop	{r4, r5, r6, r7, pc}
   23072:	46c0      	nop			@ (mov r8, r8)
   23074:	000015f3 	.word	0x000015f3

00023078 <_ZN20complex_dynamic_type3app17h6145f5ad2954b95dE>:
   23078:	b5f0      	push	{r4, r5, r6, r7, lr}
   2307a:	af03      	add	r7, sp, #12
   2307c:	b0a3      	sub	sp, #140	@ 0x8c
   2307e:	9003      	str	r0, [sp, #12]
   23080:	a804      	add	r0, sp, #16
   23082:	2402      	movs	r4, #2
   23084:	7004      	strb	r4, [r0, #0]
   23086:	1c46      	adds	r6, r0, #1
   23088:	2227      	movs	r2, #39	@ 0x27
   2308a:	9202      	str	r2, [sp, #8]
   2308c:	4630      	mov	r0, r6
   2308e:	f008 f839 	bl	2b104 <__aeabi_memcpy>
   23092:	ad0e      	add	r5, sp, #56	@ 0x38
   23094:	1c68      	adds	r0, r5, #1
   23096:	2151      	movs	r1, #81	@ 0x51
   23098:	9001      	str	r0, [sp, #4]
   2309a:	f007 fe73 	bl	2ad84 <__aeabi_memclr>
   2309e:	9400      	str	r4, [sp, #0]
   230a0:	702c      	strb	r4, [r5, #0]
   230a2:	4848      	ldr	r0, [pc, #288]	@ (231c4 <_ZN20complex_dynamic_type3app17h6145f5ad2954b95dE+0x14c>)
   230a4:	2100      	movs	r1, #0
   230a6:	4632      	mov	r2, r6
   230a8:	9b02      	ldr	r3, [sp, #8]
   230aa:	df04      	svc	4
   230ac:	2802      	cmp	r0, #2
   230ae:	d104      	bne.n	230ba <_ZN20complex_dynamic_type3app17h6145f5ad2954b95dE+0x42>
   230b0:	2001      	movs	r0, #1
   230b2:	9a03      	ldr	r2, [sp, #12]
   230b4:	7010      	strb	r0, [r2, #0]
   230b6:	6051      	str	r1, [r2, #4]
   230b8:	e02c      	b.n	23114 <_ZN20complex_dynamic_type3app17h6145f5ad2954b95dE+0x9c>
   230ba:	9d03      	ldr	r5, [sp, #12]
   230bc:	a804      	add	r0, sp, #16
   230be:	2104      	movs	r1, #4
   230c0:	7001      	strb	r1, [r0, #0]
   230c2:	4840      	ldr	r0, [pc, #256]	@ (231c4 <_ZN20complex_dynamic_type3app17h6145f5ad2954b95dE+0x14c>)
   230c4:	2351      	movs	r3, #81	@ 0x51
   230c6:	9c01      	ldr	r4, [sp, #4]
   230c8:	4622      	mov	r2, r4
   230ca:	df03      	svc	3
   230cc:	2802      	cmp	r0, #2
   230ce:	d10e      	bne.n	230ee <_ZN20complex_dynamic_type3app17h6145f5ad2954b95dE+0x76>
   230d0:	2001      	movs	r0, #1
   230d2:	7028      	strb	r0, [r5, #0]
   230d4:	6069      	str	r1, [r5, #4]
   230d6:	a80e      	add	r0, sp, #56	@ 0x38
   230d8:	7800      	ldrb	r0, [r0, #0]
   230da:	2802      	cmp	r0, #2
   230dc:	d01a      	beq.n	23114 <_ZN20complex_dynamic_type3app17h6145f5ad2954b95dE+0x9c>
   230de:	2803      	cmp	r0, #3
   230e0:	d013      	beq.n	2310a <_ZN20complex_dynamic_type3app17h6145f5ad2954b95dE+0x92>
   230e2:	4838      	ldr	r0, [pc, #224]	@ (231c4 <_ZN20complex_dynamic_type3app17h6145f5ad2954b95dE+0x14c>)
   230e4:	2104      	movs	r1, #4
   230e6:	2200      	movs	r2, #0
   230e8:	4613      	mov	r3, r2
   230ea:	df04      	svc	4
   230ec:	e012      	b.n	23114 <_ZN20complex_dynamic_type3app17h6145f5ad2954b95dE+0x9c>
   230ee:	a80e      	add	r0, sp, #56	@ 0x38
   230f0:	2103      	movs	r1, #3
   230f2:	7001      	strb	r1, [r0, #0]
   230f4:	4833      	ldr	r0, [pc, #204]	@ (231c4 <_ZN20complex_dynamic_type3app17h6145f5ad2954b95dE+0x14c>)
   230f6:	2204      	movs	r2, #4
   230f8:	2600      	movs	r6, #0
   230fa:	4631      	mov	r1, r6
   230fc:	4633      	mov	r3, r6
   230fe:	df02      	svc	2
   23100:	2880      	cmp	r0, #128	@ 0x80
   23102:	d21b      	bcs.n	2313c <_ZN20complex_dynamic_type3app17h6145f5ad2954b95dE+0xc4>
   23104:	2001      	movs	r0, #1
   23106:	7028      	strb	r0, [r5, #0]
   23108:	6069      	str	r1, [r5, #4]
   2310a:	482e      	ldr	r0, [pc, #184]	@ (231c4 <_ZN20complex_dynamic_type3app17h6145f5ad2954b95dE+0x14c>)
   2310c:	2104      	movs	r1, #4
   2310e:	2200      	movs	r2, #0
   23110:	4613      	mov	r3, r2
   23112:	df03      	svc	3
   23114:	a804      	add	r0, sp, #16
   23116:	7800      	ldrb	r0, [r0, #0]
   23118:	2802      	cmp	r0, #2
   2311a:	d045      	beq.n	231a8 <_ZN20complex_dynamic_type3app17h6145f5ad2954b95dE+0x130>
   2311c:	2804      	cmp	r0, #4
   2311e:	d106      	bne.n	2312e <_ZN20complex_dynamic_type3app17h6145f5ad2954b95dE+0xb6>
   23120:	4828      	ldr	r0, [pc, #160]	@ (231c4 <_ZN20complex_dynamic_type3app17h6145f5ad2954b95dE+0x14c>)
   23122:	2100      	movs	r1, #0
   23124:	460a      	mov	r2, r1
   23126:	460b      	mov	r3, r1
   23128:	df04      	svc	4
   2312a:	b023      	add	sp, #140	@ 0x8c
   2312c:	bdf0      	pop	{r4, r5, r6, r7, pc}
   2312e:	4825      	ldr	r0, [pc, #148]	@ (231c4 <_ZN20complex_dynamic_type3app17h6145f5ad2954b95dE+0x14c>)
   23130:	2100      	movs	r1, #0
   23132:	460a      	mov	r2, r1
   23134:	460b      	mov	r3, r1
   23136:	df03      	svc	3
   23138:	b023      	add	sp, #140	@ 0x8c
   2313a:	bdf0      	pop	{r4, r5, r6, r7, pc}
   2313c:	a804      	add	r0, sp, #16
   2313e:	7800      	ldrb	r0, [r0, #0]
   23140:	2802      	cmp	r0, #2
   23142:	d00c      	beq.n	2315e <_ZN20complex_dynamic_type3app17h6145f5ad2954b95dE+0xe6>
   23144:	2803      	cmp	r0, #3
   23146:	d105      	bne.n	23154 <_ZN20complex_dynamic_type3app17h6145f5ad2954b95dE+0xdc>
   23148:	481e      	ldr	r0, [pc, #120]	@ (231c4 <_ZN20complex_dynamic_type3app17h6145f5ad2954b95dE+0x14c>)
   2314a:	2100      	movs	r1, #0
   2314c:	460a      	mov	r2, r1
   2314e:	460b      	mov	r3, r1
   23150:	df03      	svc	3
   23152:	e004      	b.n	2315e <_ZN20complex_dynamic_type3app17h6145f5ad2954b95dE+0xe6>
   23154:	481b      	ldr	r0, [pc, #108]	@ (231c4 <_ZN20complex_dynamic_type3app17h6145f5ad2954b95dE+0x14c>)
   23156:	2100      	movs	r1, #0
   23158:	460a      	mov	r2, r1
   2315a:	460b      	mov	r3, r1
   2315c:	df04      	svc	4
   2315e:	a804      	add	r0, sp, #16
   23160:	9900      	ldr	r1, [sp, #0]
   23162:	7001      	strb	r1, [r0, #0]
   23164:	a80e      	add	r0, sp, #56	@ 0x38
   23166:	7800      	ldrb	r0, [r0, #0]
   23168:	2804      	cmp	r0, #4
   2316a:	d007      	beq.n	2317c <_ZN20complex_dynamic_type3app17h6145f5ad2954b95dE+0x104>
   2316c:	2803      	cmp	r0, #3
   2316e:	d11d      	bne.n	231ac <_ZN20complex_dynamic_type3app17h6145f5ad2954b95dE+0x134>
   23170:	4814      	ldr	r0, [pc, #80]	@ (231c4 <_ZN20complex_dynamic_type3app17h6145f5ad2954b95dE+0x14c>)
   23172:	2104      	movs	r1, #4
   23174:	2200      	movs	r2, #0
   23176:	4613      	mov	r3, r2
   23178:	df03      	svc	3
   2317a:	e004      	b.n	23186 <_ZN20complex_dynamic_type3app17h6145f5ad2954b95dE+0x10e>
   2317c:	4811      	ldr	r0, [pc, #68]	@ (231c4 <_ZN20complex_dynamic_type3app17h6145f5ad2954b95dE+0x14c>)
   2317e:	2104      	movs	r1, #4
   23180:	2200      	movs	r2, #0
   23182:	4613      	mov	r3, r2
   23184:	df04      	svc	4
   23186:	a804      	add	r0, sp, #16
   23188:	7804      	ldrb	r4, [r0, #0]
   2318a:	1c68      	adds	r0, r5, #1
   2318c:	2251      	movs	r2, #81	@ 0x51
   2318e:	9901      	ldr	r1, [sp, #4]
   23190:	f007 ffb8 	bl	2b104 <__aeabi_memcpy>
   23194:	702e      	strb	r6, [r5, #0]
   23196:	2c02      	cmp	r4, #2
   23198:	d006      	beq.n	231a8 <_ZN20complex_dynamic_type3app17h6145f5ad2954b95dE+0x130>
   2319a:	480a      	ldr	r0, [pc, #40]	@ (231c4 <_ZN20complex_dynamic_type3app17h6145f5ad2954b95dE+0x14c>)
   2319c:	2100      	movs	r1, #0
   2319e:	460a      	mov	r2, r1
   231a0:	460b      	mov	r3, r1
   231a2:	2c04      	cmp	r4, #4
   231a4:	d10a      	bne.n	231bc <_ZN20complex_dynamic_type3app17h6145f5ad2954b95dE+0x144>
   231a6:	df04      	svc	4
   231a8:	b023      	add	sp, #140	@ 0x8c
   231aa:	bdf0      	pop	{r4, r5, r6, r7, pc}
   231ac:	1c68      	adds	r0, r5, #1
   231ae:	2251      	movs	r2, #81	@ 0x51
   231b0:	4621      	mov	r1, r4
   231b2:	f007 ffa7 	bl	2b104 <__aeabi_memcpy>
   231b6:	702e      	strb	r6, [r5, #0]
   231b8:	b023      	add	sp, #140	@ 0x8c
   231ba:	bdf0      	pop	{r4, r5, r6, r7, pc}
   231bc:	df03      	svc	3
   231be:	b023      	add	sp, #140	@ 0x8c
   231c0:	bdf0      	pop	{r4, r5, r6, r7, pc}
   231c2:	46c0      	nop			@ (mov r8, r8)
   231c4:	00000a36 	.word	0x00000a36

000231c8 <_ZN20complex_dynamic_type3app17h647d1edbc2735600E>:
   231c8:	b5f0      	push	{r4, r5, r6, r7, lr}
   231ca:	af03      	add	r7, sp, #12
   231cc:	b0a1      	sub	sp, #132	@ 0x84
   231ce:	9004      	str	r0, [sp, #16]
   231d0:	a805      	add	r0, sp, #20
   231d2:	2402      	movs	r4, #2
   231d4:	7004      	strb	r4, [r0, #0]
   231d6:	1c46      	adds	r6, r0, #1
   231d8:	221a      	movs	r2, #26
   231da:	9203      	str	r2, [sp, #12]
   231dc:	4630      	mov	r0, r6
   231de:	f007 ff91 	bl	2b104 <__aeabi_memcpy>
   231e2:	ad0c      	add	r5, sp, #48	@ 0x30
   231e4:	1c68      	adds	r0, r5, #1
   231e6:	2150      	movs	r1, #80	@ 0x50
   231e8:	9002      	str	r0, [sp, #8]
   231ea:	f007 fdcb 	bl	2ad84 <__aeabi_memclr>
   231ee:	9401      	str	r4, [sp, #4]
   231f0:	702c      	strb	r4, [r5, #0]
   231f2:	4848      	ldr	r0, [pc, #288]	@ (23314 <_ZN20complex_dynamic_type3app17h647d1edbc2735600E+0x14c>)
   231f4:	2107      	movs	r1, #7
   231f6:	4632      	mov	r2, r6
   231f8:	9b03      	ldr	r3, [sp, #12]
   231fa:	df04      	svc	4
   231fc:	2802      	cmp	r0, #2
   231fe:	d104      	bne.n	2320a <_ZN20complex_dynamic_type3app17h647d1edbc2735600E+0x42>
   23200:	2001      	movs	r0, #1
   23202:	9a04      	ldr	r2, [sp, #16]
   23204:	7010      	strb	r0, [r2, #0]
   23206:	6051      	str	r1, [r2, #4]
   23208:	e02c      	b.n	23264 <_ZN20complex_dynamic_type3app17h647d1edbc2735600E+0x9c>
   2320a:	9d04      	ldr	r5, [sp, #16]
   2320c:	a805      	add	r0, sp, #20
   2320e:	2104      	movs	r1, #4
   23210:	7001      	strb	r1, [r0, #0]
   23212:	4840      	ldr	r0, [pc, #256]	@ (23314 <_ZN20complex_dynamic_type3app17h647d1edbc2735600E+0x14c>)
   23214:	2350      	movs	r3, #80	@ 0x50
   23216:	9c02      	ldr	r4, [sp, #8]
   23218:	4622      	mov	r2, r4
   2321a:	df03      	svc	3
   2321c:	2802      	cmp	r0, #2
   2321e:	d10e      	bne.n	2323e <_ZN20complex_dynamic_type3app17h647d1edbc2735600E+0x76>
   23220:	2001      	movs	r0, #1
   23222:	7028      	strb	r0, [r5, #0]
   23224:	6069      	str	r1, [r5, #4]
   23226:	a80c      	add	r0, sp, #48	@ 0x30
   23228:	7800      	ldrb	r0, [r0, #0]
   2322a:	2802      	cmp	r0, #2
   2322c:	d01a      	beq.n	23264 <_ZN20complex_dynamic_type3app17h647d1edbc2735600E+0x9c>
   2322e:	2803      	cmp	r0, #3
   23230:	d013      	beq.n	2325a <_ZN20complex_dynamic_type3app17h647d1edbc2735600E+0x92>
   23232:	4838      	ldr	r0, [pc, #224]	@ (23314 <_ZN20complex_dynamic_type3app17h647d1edbc2735600E+0x14c>)
   23234:	2104      	movs	r1, #4
   23236:	2200      	movs	r2, #0
   23238:	4613      	mov	r3, r2
   2323a:	df04      	svc	4
   2323c:	e012      	b.n	23264 <_ZN20complex_dynamic_type3app17h647d1edbc2735600E+0x9c>
   2323e:	a80c      	add	r0, sp, #48	@ 0x30
   23240:	2103      	movs	r1, #3
   23242:	7001      	strb	r1, [r0, #0]
   23244:	4833      	ldr	r0, [pc, #204]	@ (23314 <_ZN20complex_dynamic_type3app17h647d1edbc2735600E+0x14c>)
   23246:	2107      	movs	r1, #7
   23248:	2204      	movs	r2, #4
   2324a:	2600      	movs	r6, #0
   2324c:	4633      	mov	r3, r6
   2324e:	df02      	svc	2
   23250:	2880      	cmp	r0, #128	@ 0x80
   23252:	d21b      	bcs.n	2328c <_ZN20complex_dynamic_type3app17h647d1edbc2735600E+0xc4>
   23254:	2001      	movs	r0, #1
   23256:	7028      	strb	r0, [r5, #0]
   23258:	6069      	str	r1, [r5, #4]
   2325a:	482e      	ldr	r0, [pc, #184]	@ (23314 <_ZN20complex_dynamic_type3app17h647d1edbc2735600E+0x14c>)
   2325c:	2104      	movs	r1, #4
   2325e:	2200      	movs	r2, #0
   23260:	4613      	mov	r3, r2
   23262:	df03      	svc	3
   23264:	a805      	add	r0, sp, #20
   23266:	7800      	ldrb	r0, [r0, #0]
   23268:	2802      	cmp	r0, #2
   2326a:	d045      	beq.n	232f8 <_ZN20complex_dynamic_type3app17h647d1edbc2735600E+0x130>
   2326c:	2804      	cmp	r0, #4
   2326e:	d106      	bne.n	2327e <_ZN20complex_dynamic_type3app17h647d1edbc2735600E+0xb6>
   23270:	4828      	ldr	r0, [pc, #160]	@ (23314 <_ZN20complex_dynamic_type3app17h647d1edbc2735600E+0x14c>)
   23272:	2107      	movs	r1, #7
   23274:	2200      	movs	r2, #0
   23276:	4613      	mov	r3, r2
   23278:	df04      	svc	4
   2327a:	b021      	add	sp, #132	@ 0x84
   2327c:	bdf0      	pop	{r4, r5, r6, r7, pc}
   2327e:	4825      	ldr	r0, [pc, #148]	@ (23314 <_ZN20complex_dynamic_type3app17h647d1edbc2735600E+0x14c>)
   23280:	2107      	movs	r1, #7
   23282:	2200      	movs	r2, #0
   23284:	4613      	mov	r3, r2
   23286:	df03      	svc	3
   23288:	b021      	add	sp, #132	@ 0x84
   2328a:	bdf0      	pop	{r4, r5, r6, r7, pc}
   2328c:	a805      	add	r0, sp, #20
   2328e:	7800      	ldrb	r0, [r0, #0]
   23290:	2802      	cmp	r0, #2
   23292:	d00c      	beq.n	232ae <_ZN20complex_dynamic_type3app17h647d1edbc2735600E+0xe6>
   23294:	2803      	cmp	r0, #3
   23296:	d105      	bne.n	232a4 <_ZN20complex_dynamic_type3app17h647d1edbc2735600E+0xdc>
   23298:	481e      	ldr	r0, [pc, #120]	@ (23314 <_ZN20complex_dynamic_type3app17h647d1edbc2735600E+0x14c>)
   2329a:	2107      	movs	r1, #7
   2329c:	2200      	movs	r2, #0
   2329e:	4613      	mov	r3, r2
   232a0:	df03      	svc	3
   232a2:	e004      	b.n	232ae <_ZN20complex_dynamic_type3app17h647d1edbc2735600E+0xe6>
   232a4:	481b      	ldr	r0, [pc, #108]	@ (23314 <_ZN20complex_dynamic_type3app17h647d1edbc2735600E+0x14c>)
   232a6:	2107      	movs	r1, #7
   232a8:	2200      	movs	r2, #0
   232aa:	4613      	mov	r3, r2
   232ac:	df04      	svc	4
   232ae:	a805      	add	r0, sp, #20
   232b0:	9901      	ldr	r1, [sp, #4]
   232b2:	7001      	strb	r1, [r0, #0]
   232b4:	a80c      	add	r0, sp, #48	@ 0x30
   232b6:	7800      	ldrb	r0, [r0, #0]
   232b8:	2804      	cmp	r0, #4
   232ba:	d007      	beq.n	232cc <_ZN20complex_dynamic_type3app17h647d1edbc2735600E+0x104>
   232bc:	2803      	cmp	r0, #3
   232be:	d11d      	bne.n	232fc <_ZN20complex_dynamic_type3app17h647d1edbc2735600E+0x134>
   232c0:	4814      	ldr	r0, [pc, #80]	@ (23314 <_ZN20complex_dynamic_type3app17h647d1edbc2735600E+0x14c>)
   232c2:	2104      	movs	r1, #4
   232c4:	2200      	movs	r2, #0
   232c6:	4613      	mov	r3, r2
   232c8:	df03      	svc	3
   232ca:	e004      	b.n	232d6 <_ZN20complex_dynamic_type3app17h647d1edbc2735600E+0x10e>
   232cc:	4811      	ldr	r0, [pc, #68]	@ (23314 <_ZN20complex_dynamic_type3app17h647d1edbc2735600E+0x14c>)
   232ce:	2104      	movs	r1, #4
   232d0:	2200      	movs	r2, #0
   232d2:	4613      	mov	r3, r2
   232d4:	df04      	svc	4
   232d6:	a805      	add	r0, sp, #20
   232d8:	7804      	ldrb	r4, [r0, #0]
   232da:	1c68      	adds	r0, r5, #1
   232dc:	2250      	movs	r2, #80	@ 0x50
   232de:	9902      	ldr	r1, [sp, #8]
   232e0:	f007 ff10 	bl	2b104 <__aeabi_memcpy>
   232e4:	702e      	strb	r6, [r5, #0]
   232e6:	2c02      	cmp	r4, #2
   232e8:	d006      	beq.n	232f8 <_ZN20complex_dynamic_type3app17h647d1edbc2735600E+0x130>
   232ea:	480a      	ldr	r0, [pc, #40]	@ (23314 <_ZN20complex_dynamic_type3app17h647d1edbc2735600E+0x14c>)
   232ec:	2107      	movs	r1, #7
   232ee:	2200      	movs	r2, #0
   232f0:	4613      	mov	r3, r2
   232f2:	2c04      	cmp	r4, #4
   232f4:	d10a      	bne.n	2330c <_ZN20complex_dynamic_type3app17h647d1edbc2735600E+0x144>
   232f6:	df04      	svc	4
   232f8:	b021      	add	sp, #132	@ 0x84
   232fa:	bdf0      	pop	{r4, r5, r6, r7, pc}
   232fc:	1c68      	adds	r0, r5, #1
   232fe:	2250      	movs	r2, #80	@ 0x50
   23300:	4621      	mov	r1, r4
   23302:	f007 feff 	bl	2b104 <__aeabi_memcpy>
   23306:	702e      	strb	r6, [r5, #0]
   23308:	b021      	add	sp, #132	@ 0x84
   2330a:	bdf0      	pop	{r4, r5, r6, r7, pc}
   2330c:	df03      	svc	3
   2330e:	b021      	add	sp, #132	@ 0x84
   23310:	bdf0      	pop	{r4, r5, r6, r7, pc}
   23312:	46c0      	nop			@ (mov r8, r8)
   23314:	00000aee 	.word	0x00000aee

00023318 <_ZN20complex_dynamic_type3app17h67253825b67f64c2E>:
   23318:	b5f0      	push	{r4, r5, r6, r7, lr}
   2331a:	af03      	add	r7, sp, #12
   2331c:	b099      	sub	sp, #100	@ 0x64
   2331e:	9002      	str	r0, [sp, #8]
   23320:	a803      	add	r0, sp, #12
   23322:	2502      	movs	r5, #2
   23324:	7005      	strb	r5, [r0, #0]
   23326:	1c46      	adds	r6, r0, #1
   23328:	220f      	movs	r2, #15
   2332a:	9201      	str	r2, [sp, #4]
   2332c:	4630      	mov	r0, r6
   2332e:	f007 fee9 	bl	2b104 <__aeabi_memcpy>
   23332:	ac07      	add	r4, sp, #28
   23334:	1c60      	adds	r0, r4, #1
   23336:	2146      	movs	r1, #70	@ 0x46
   23338:	9000      	str	r0, [sp, #0]
   2333a:	f007 fd23 	bl	2ad84 <__aeabi_memclr>
   2333e:	7025      	strb	r5, [r4, #0]
   23340:	484a      	ldr	r0, [pc, #296]	@ (2346c <_ZN20complex_dynamic_type3app17h67253825b67f64c2E+0x154>)
   23342:	2109      	movs	r1, #9
   23344:	4632      	mov	r2, r6
   23346:	9b01      	ldr	r3, [sp, #4]
   23348:	df04      	svc	4
   2334a:	2802      	cmp	r0, #2
   2334c:	d104      	bne.n	23358 <_ZN20complex_dynamic_type3app17h67253825b67f64c2E+0x40>
   2334e:	2001      	movs	r0, #1
   23350:	9a02      	ldr	r2, [sp, #8]
   23352:	7010      	strb	r0, [r2, #0]
   23354:	6051      	str	r1, [r2, #4]
   23356:	e02e      	b.n	233b6 <_ZN20complex_dynamic_type3app17h67253825b67f64c2E+0x9e>
   23358:	9d02      	ldr	r5, [sp, #8]
   2335a:	a803      	add	r0, sp, #12
   2335c:	2104      	movs	r1, #4
   2335e:	7001      	strb	r1, [r0, #0]
   23360:	4842      	ldr	r0, [pc, #264]	@ (2346c <_ZN20complex_dynamic_type3app17h67253825b67f64c2E+0x154>)
   23362:	2102      	movs	r1, #2
   23364:	2346      	movs	r3, #70	@ 0x46
   23366:	9c00      	ldr	r4, [sp, #0]
   23368:	4622      	mov	r2, r4
   2336a:	df03      	svc	3
   2336c:	2802      	cmp	r0, #2
   2336e:	d10e      	bne.n	2338e <_ZN20complex_dynamic_type3app17h67253825b67f64c2E+0x76>
   23370:	2001      	movs	r0, #1
   23372:	7028      	strb	r0, [r5, #0]
   23374:	6069      	str	r1, [r5, #4]
   23376:	a807      	add	r0, sp, #28
   23378:	7800      	ldrb	r0, [r0, #0]
   2337a:	2802      	cmp	r0, #2
   2337c:	d01b      	beq.n	233b6 <_ZN20complex_dynamic_type3app17h67253825b67f64c2E+0x9e>
   2337e:	2803      	cmp	r0, #3
   23380:	d014      	beq.n	233ac <_ZN20complex_dynamic_type3app17h67253825b67f64c2E+0x94>
   23382:	483a      	ldr	r0, [pc, #232]	@ (2346c <_ZN20complex_dynamic_type3app17h67253825b67f64c2E+0x154>)
   23384:	2102      	movs	r1, #2
   23386:	2200      	movs	r2, #0
   23388:	4613      	mov	r3, r2
   2338a:	df04      	svc	4
   2338c:	e013      	b.n	233b6 <_ZN20complex_dynamic_type3app17h67253825b67f64c2E+0x9e>
   2338e:	a807      	add	r0, sp, #28
   23390:	2103      	movs	r1, #3
   23392:	7001      	strb	r1, [r0, #0]
   23394:	4835      	ldr	r0, [pc, #212]	@ (2346c <_ZN20complex_dynamic_type3app17h67253825b67f64c2E+0x154>)
   23396:	2109      	movs	r1, #9
   23398:	2602      	movs	r6, #2
   2339a:	2300      	movs	r3, #0
   2339c:	4632      	mov	r2, r6
   2339e:	9301      	str	r3, [sp, #4]
   233a0:	df02      	svc	2
   233a2:	2880      	cmp	r0, #128	@ 0x80
   233a4:	d21b      	bcs.n	233de <_ZN20complex_dynamic_type3app17h67253825b67f64c2E+0xc6>
   233a6:	2001      	movs	r0, #1
   233a8:	7028      	strb	r0, [r5, #0]
   233aa:	6069      	str	r1, [r5, #4]
   233ac:	482f      	ldr	r0, [pc, #188]	@ (2346c <_ZN20complex_dynamic_type3app17h67253825b67f64c2E+0x154>)
   233ae:	2102      	movs	r1, #2
   233b0:	2200      	movs	r2, #0
   233b2:	4613      	mov	r3, r2
   233b4:	df03      	svc	3
   233b6:	a803      	add	r0, sp, #12
   233b8:	7800      	ldrb	r0, [r0, #0]
   233ba:	2802      	cmp	r0, #2
   233bc:	d047      	beq.n	2344e <_ZN20complex_dynamic_type3app17h67253825b67f64c2E+0x136>
   233be:	2804      	cmp	r0, #4
   233c0:	d106      	bne.n	233d0 <_ZN20complex_dynamic_type3app17h67253825b67f64c2E+0xb8>
   233c2:	482a      	ldr	r0, [pc, #168]	@ (2346c <_ZN20complex_dynamic_type3app17h67253825b67f64c2E+0x154>)
   233c4:	2109      	movs	r1, #9
   233c6:	2200      	movs	r2, #0
   233c8:	4613      	mov	r3, r2
   233ca:	df04      	svc	4
   233cc:	b019      	add	sp, #100	@ 0x64
   233ce:	bdf0      	pop	{r4, r5, r6, r7, pc}
   233d0:	4826      	ldr	r0, [pc, #152]	@ (2346c <_ZN20complex_dynamic_type3app17h67253825b67f64c2E+0x154>)
   233d2:	2109      	movs	r1, #9
   233d4:	2200      	movs	r2, #0
   233d6:	4613      	mov	r3, r2
   233d8:	df03      	svc	3
   233da:	b019      	add	sp, #100	@ 0x64
   233dc:	bdf0      	pop	{r4, r5, r6, r7, pc}
   233de:	a803      	add	r0, sp, #12
   233e0:	7800      	ldrb	r0, [r0, #0]
   233e2:	2802      	cmp	r0, #2
   233e4:	d00c      	beq.n	23400 <_ZN20complex_dynamic_type3app17h67253825b67f64c2E+0xe8>
   233e6:	2803      	cmp	r0, #3
   233e8:	d105      	bne.n	233f6 <_ZN20complex_dynamic_type3app17h67253825b67f64c2E+0xde>
   233ea:	4820      	ldr	r0, [pc, #128]	@ (2346c <_ZN20complex_dynamic_type3app17h67253825b67f64c2E+0x154>)
   233ec:	2109      	movs	r1, #9
   233ee:	2200      	movs	r2, #0
   233f0:	4613      	mov	r3, r2
   233f2:	df03      	svc	3
   233f4:	e004      	b.n	23400 <_ZN20complex_dynamic_type3app17h67253825b67f64c2E+0xe8>
   233f6:	481d      	ldr	r0, [pc, #116]	@ (2346c <_ZN20complex_dynamic_type3app17h67253825b67f64c2E+0x154>)
   233f8:	2109      	movs	r1, #9
   233fa:	2200      	movs	r2, #0
   233fc:	4613      	mov	r3, r2
   233fe:	df04      	svc	4
   23400:	a803      	add	r0, sp, #12
   23402:	7006      	strb	r6, [r0, #0]
   23404:	a807      	add	r0, sp, #28
   23406:	7800      	ldrb	r0, [r0, #0]
   23408:	2804      	cmp	r0, #4
   2340a:	d008      	beq.n	2341e <_ZN20complex_dynamic_type3app17h67253825b67f64c2E+0x106>
   2340c:	2803      	cmp	r0, #3
   2340e:	d120      	bne.n	23452 <_ZN20complex_dynamic_type3app17h67253825b67f64c2E+0x13a>
   23410:	4626      	mov	r6, r4
   23412:	4816      	ldr	r0, [pc, #88]	@ (2346c <_ZN20complex_dynamic_type3app17h67253825b67f64c2E+0x154>)
   23414:	2102      	movs	r1, #2
   23416:	2200      	movs	r2, #0
   23418:	4613      	mov	r3, r2
   2341a:	df03      	svc	3
   2341c:	e005      	b.n	2342a <_ZN20complex_dynamic_type3app17h67253825b67f64c2E+0x112>
   2341e:	4626      	mov	r6, r4
   23420:	4812      	ldr	r0, [pc, #72]	@ (2346c <_ZN20complex_dynamic_type3app17h67253825b67f64c2E+0x154>)
   23422:	2102      	movs	r1, #2
   23424:	2200      	movs	r2, #0
   23426:	4613      	mov	r3, r2
   23428:	df04      	svc	4
   2342a:	a803      	add	r0, sp, #12
   2342c:	7804      	ldrb	r4, [r0, #0]
   2342e:	1c68      	adds	r0, r5, #1
   23430:	2246      	movs	r2, #70	@ 0x46
   23432:	4631      	mov	r1, r6
   23434:	f007 fe66 	bl	2b104 <__aeabi_memcpy>
   23438:	9801      	ldr	r0, [sp, #4]
   2343a:	7028      	strb	r0, [r5, #0]
   2343c:	2c02      	cmp	r4, #2
   2343e:	d006      	beq.n	2344e <_ZN20complex_dynamic_type3app17h67253825b67f64c2E+0x136>
   23440:	480a      	ldr	r0, [pc, #40]	@ (2346c <_ZN20complex_dynamic_type3app17h67253825b67f64c2E+0x154>)
   23442:	2109      	movs	r1, #9
   23444:	2200      	movs	r2, #0
   23446:	4613      	mov	r3, r2
   23448:	2c04      	cmp	r4, #4
   2344a:	d10b      	bne.n	23464 <_ZN20complex_dynamic_type3app17h67253825b67f64c2E+0x14c>
   2344c:	df04      	svc	4
   2344e:	b019      	add	sp, #100	@ 0x64
   23450:	bdf0      	pop	{r4, r5, r6, r7, pc}
   23452:	1c68      	adds	r0, r5, #1
   23454:	2246      	movs	r2, #70	@ 0x46
   23456:	4621      	mov	r1, r4
   23458:	f007 fe54 	bl	2b104 <__aeabi_memcpy>
   2345c:	9801      	ldr	r0, [sp, #4]
   2345e:	7028      	strb	r0, [r5, #0]
   23460:	b019      	add	sp, #100	@ 0x64
   23462:	bdf0      	pop	{r4, r5, r6, r7, pc}
   23464:	df03      	svc	3
   23466:	b019      	add	sp, #100	@ 0x64
   23468:	bdf0      	pop	{r4, r5, r6, r7, pc}
   2346a:	46c0      	nop			@ (mov r8, r8)
   2346c:	00001d7e 	.word	0x00001d7e

00023470 <_ZN20complex_dynamic_type3app17h683027ea98caef8eE>:
   23470:	b5f0      	push	{r4, r5, r6, r7, lr}
   23472:	af03      	add	r7, sp, #12
   23474:	b0a7      	sub	sp, #156	@ 0x9c
   23476:	9003      	str	r0, [sp, #12]
   23478:	a804      	add	r0, sp, #16
   2347a:	2402      	movs	r4, #2
   2347c:	7004      	strb	r4, [r0, #0]
   2347e:	1c46      	adds	r6, r0, #1
   23480:	2255      	movs	r2, #85	@ 0x55
   23482:	9202      	str	r2, [sp, #8]
   23484:	4630      	mov	r0, r6
   23486:	f007 fe3d 	bl	2b104 <__aeabi_memcpy>
   2348a:	ad1a      	add	r5, sp, #104	@ 0x68
   2348c:	1c68      	adds	r0, r5, #1
   2348e:	2132      	movs	r1, #50	@ 0x32
   23490:	9001      	str	r0, [sp, #4]
   23492:	f007 fc77 	bl	2ad84 <__aeabi_memclr>
   23496:	9400      	str	r4, [sp, #0]
   23498:	702c      	strb	r4, [r5, #0]
   2349a:	4848      	ldr	r0, [pc, #288]	@ (235bc <_ZN20complex_dynamic_type3app17h683027ea98caef8eE+0x14c>)
   2349c:	2108      	movs	r1, #8
   2349e:	4632      	mov	r2, r6
   234a0:	9b02      	ldr	r3, [sp, #8]
   234a2:	df04      	svc	4
   234a4:	2802      	cmp	r0, #2
   234a6:	d104      	bne.n	234b2 <_ZN20complex_dynamic_type3app17h683027ea98caef8eE+0x42>
   234a8:	2001      	movs	r0, #1
   234aa:	9a03      	ldr	r2, [sp, #12]
   234ac:	7010      	strb	r0, [r2, #0]
   234ae:	6051      	str	r1, [r2, #4]
   234b0:	e02d      	b.n	2350e <_ZN20complex_dynamic_type3app17h683027ea98caef8eE+0x9e>
   234b2:	9d03      	ldr	r5, [sp, #12]
   234b4:	a804      	add	r0, sp, #16
   234b6:	2104      	movs	r1, #4
   234b8:	7001      	strb	r1, [r0, #0]
   234ba:	4840      	ldr	r0, [pc, #256]	@ (235bc <_ZN20complex_dynamic_type3app17h683027ea98caef8eE+0x14c>)
   234bc:	2108      	movs	r1, #8
   234be:	2332      	movs	r3, #50	@ 0x32
   234c0:	9c01      	ldr	r4, [sp, #4]
   234c2:	4622      	mov	r2, r4
   234c4:	df03      	svc	3
   234c6:	2802      	cmp	r0, #2
   234c8:	d10e      	bne.n	234e8 <_ZN20complex_dynamic_type3app17h683027ea98caef8eE+0x78>
   234ca:	2001      	movs	r0, #1
   234cc:	7028      	strb	r0, [r5, #0]
   234ce:	6069      	str	r1, [r5, #4]
   234d0:	a81a      	add	r0, sp, #104	@ 0x68
   234d2:	7800      	ldrb	r0, [r0, #0]
   234d4:	2802      	cmp	r0, #2
   234d6:	d01a      	beq.n	2350e <_ZN20complex_dynamic_type3app17h683027ea98caef8eE+0x9e>
   234d8:	2803      	cmp	r0, #3
   234da:	d013      	beq.n	23504 <_ZN20complex_dynamic_type3app17h683027ea98caef8eE+0x94>
   234dc:	4837      	ldr	r0, [pc, #220]	@ (235bc <_ZN20complex_dynamic_type3app17h683027ea98caef8eE+0x14c>)
   234de:	2108      	movs	r1, #8
   234e0:	2200      	movs	r2, #0
   234e2:	4613      	mov	r3, r2
   234e4:	df04      	svc	4
   234e6:	e012      	b.n	2350e <_ZN20complex_dynamic_type3app17h683027ea98caef8eE+0x9e>
   234e8:	a81a      	add	r0, sp, #104	@ 0x68
   234ea:	2103      	movs	r1, #3
   234ec:	7001      	strb	r1, [r0, #0]
   234ee:	4833      	ldr	r0, [pc, #204]	@ (235bc <_ZN20complex_dynamic_type3app17h683027ea98caef8eE+0x14c>)
   234f0:	2108      	movs	r1, #8
   234f2:	2600      	movs	r6, #0
   234f4:	460a      	mov	r2, r1
   234f6:	4633      	mov	r3, r6
   234f8:	df02      	svc	2
   234fa:	2880      	cmp	r0, #128	@ 0x80
   234fc:	d21b      	bcs.n	23536 <_ZN20complex_dynamic_type3app17h683027ea98caef8eE+0xc6>
   234fe:	2001      	movs	r0, #1
   23500:	7028      	strb	r0, [r5, #0]
   23502:	6069      	str	r1, [r5, #4]
   23504:	482d      	ldr	r0, [pc, #180]	@ (235bc <_ZN20complex_dynamic_type3app17h683027ea98caef8eE+0x14c>)
   23506:	2108      	movs	r1, #8
   23508:	2200      	movs	r2, #0
   2350a:	4613      	mov	r3, r2
   2350c:	df03      	svc	3
   2350e:	a804      	add	r0, sp, #16
   23510:	7800      	ldrb	r0, [r0, #0]
   23512:	2802      	cmp	r0, #2
   23514:	d045      	beq.n	235a2 <_ZN20complex_dynamic_type3app17h683027ea98caef8eE+0x132>
   23516:	2804      	cmp	r0, #4
   23518:	d106      	bne.n	23528 <_ZN20complex_dynamic_type3app17h683027ea98caef8eE+0xb8>
   2351a:	4828      	ldr	r0, [pc, #160]	@ (235bc <_ZN20complex_dynamic_type3app17h683027ea98caef8eE+0x14c>)
   2351c:	2108      	movs	r1, #8
   2351e:	2200      	movs	r2, #0
   23520:	4613      	mov	r3, r2
   23522:	df04      	svc	4
   23524:	b027      	add	sp, #156	@ 0x9c
   23526:	bdf0      	pop	{r4, r5, r6, r7, pc}
   23528:	4824      	ldr	r0, [pc, #144]	@ (235bc <_ZN20complex_dynamic_type3app17h683027ea98caef8eE+0x14c>)
   2352a:	2108      	movs	r1, #8
   2352c:	2200      	movs	r2, #0
   2352e:	4613      	mov	r3, r2
   23530:	df03      	svc	3
   23532:	b027      	add	sp, #156	@ 0x9c
   23534:	bdf0      	pop	{r4, r5, r6, r7, pc}
   23536:	a804      	add	r0, sp, #16
   23538:	7800      	ldrb	r0, [r0, #0]
   2353a:	2802      	cmp	r0, #2
   2353c:	d00c      	beq.n	23558 <_ZN20complex_dynamic_type3app17h683027ea98caef8eE+0xe8>
   2353e:	2803      	cmp	r0, #3
   23540:	d105      	bne.n	2354e <_ZN20complex_dynamic_type3app17h683027ea98caef8eE+0xde>
   23542:	481e      	ldr	r0, [pc, #120]	@ (235bc <_ZN20complex_dynamic_type3app17h683027ea98caef8eE+0x14c>)
   23544:	2108      	movs	r1, #8
   23546:	2200      	movs	r2, #0
   23548:	4613      	mov	r3, r2
   2354a:	df03      	svc	3
   2354c:	e004      	b.n	23558 <_ZN20complex_dynamic_type3app17h683027ea98caef8eE+0xe8>
   2354e:	481b      	ldr	r0, [pc, #108]	@ (235bc <_ZN20complex_dynamic_type3app17h683027ea98caef8eE+0x14c>)
   23550:	2108      	movs	r1, #8
   23552:	2200      	movs	r2, #0
   23554:	4613      	mov	r3, r2
   23556:	df04      	svc	4
   23558:	a804      	add	r0, sp, #16
   2355a:	9900      	ldr	r1, [sp, #0]
   2355c:	7001      	strb	r1, [r0, #0]
   2355e:	a81a      	add	r0, sp, #104	@ 0x68
   23560:	7800      	ldrb	r0, [r0, #0]
   23562:	2804      	cmp	r0, #4
   23564:	d007      	beq.n	23576 <_ZN20complex_dynamic_type3app17h683027ea98caef8eE+0x106>
   23566:	2803      	cmp	r0, #3
   23568:	d11d      	bne.n	235a6 <_ZN20complex_dynamic_type3app17h683027ea98caef8eE+0x136>
   2356a:	4814      	ldr	r0, [pc, #80]	@ (235bc <_ZN20complex_dynamic_type3app17h683027ea98caef8eE+0x14c>)
   2356c:	2108      	movs	r1, #8
   2356e:	2200      	movs	r2, #0
   23570:	4613      	mov	r3, r2
   23572:	df03      	svc	3
   23574:	e004      	b.n	23580 <_ZN20complex_dynamic_type3app17h683027ea98caef8eE+0x110>
   23576:	4811      	ldr	r0, [pc, #68]	@ (235bc <_ZN20complex_dynamic_type3app17h683027ea98caef8eE+0x14c>)
   23578:	2108      	movs	r1, #8
   2357a:	2200      	movs	r2, #0
   2357c:	4613      	mov	r3, r2
   2357e:	df04      	svc	4
   23580:	a804      	add	r0, sp, #16
   23582:	7804      	ldrb	r4, [r0, #0]
   23584:	1c68      	adds	r0, r5, #1
   23586:	2232      	movs	r2, #50	@ 0x32
   23588:	9901      	ldr	r1, [sp, #4]
   2358a:	f007 fdbb 	bl	2b104 <__aeabi_memcpy>
   2358e:	702e      	strb	r6, [r5, #0]
   23590:	2c02      	cmp	r4, #2
   23592:	d006      	beq.n	235a2 <_ZN20complex_dynamic_type3app17h683027ea98caef8eE+0x132>
   23594:	4809      	ldr	r0, [pc, #36]	@ (235bc <_ZN20complex_dynamic_type3app17h683027ea98caef8eE+0x14c>)
   23596:	2108      	movs	r1, #8
   23598:	2200      	movs	r2, #0
   2359a:	4613      	mov	r3, r2
   2359c:	2c04      	cmp	r4, #4
   2359e:	d10a      	bne.n	235b6 <_ZN20complex_dynamic_type3app17h683027ea98caef8eE+0x146>
   235a0:	df04      	svc	4
   235a2:	b027      	add	sp, #156	@ 0x9c
   235a4:	bdf0      	pop	{r4, r5, r6, r7, pc}
   235a6:	1c68      	adds	r0, r5, #1
   235a8:	2232      	movs	r2, #50	@ 0x32
   235aa:	4621      	mov	r1, r4
   235ac:	f007 fdaa 	bl	2b104 <__aeabi_memcpy>
   235b0:	702e      	strb	r6, [r5, #0]
   235b2:	b027      	add	sp, #156	@ 0x9c
   235b4:	bdf0      	pop	{r4, r5, r6, r7, pc}
   235b6:	df03      	svc	3
   235b8:	b027      	add	sp, #156	@ 0x9c
   235ba:	bdf0      	pop	{r4, r5, r6, r7, pc}
   235bc:	00002095 	.word	0x00002095

000235c0 <_ZN20complex_dynamic_type3app17h789b6cb9ec1cbcaeE>:
   235c0:	b5f0      	push	{r4, r5, r6, r7, lr}
   235c2:	af03      	add	r7, sp, #12
   235c4:	b093      	sub	sp, #76	@ 0x4c
   235c6:	9003      	str	r0, [sp, #12]
   235c8:	a804      	add	r0, sp, #16
   235ca:	2402      	movs	r4, #2
   235cc:	7004      	strb	r4, [r0, #0]
   235ce:	1c46      	adds	r6, r0, #1
   235d0:	222b      	movs	r2, #43	@ 0x2b
   235d2:	9202      	str	r2, [sp, #8]
   235d4:	4630      	mov	r0, r6
   235d6:	f007 fd95 	bl	2b104 <__aeabi_memcpy>
   235da:	ad0f      	add	r5, sp, #60	@ 0x3c
   235dc:	1c68      	adds	r0, r5, #1
   235de:	210d      	movs	r1, #13
   235e0:	9001      	str	r0, [sp, #4]
   235e2:	f007 fbcf 	bl	2ad84 <__aeabi_memclr>
   235e6:	9400      	str	r4, [sp, #0]
   235e8:	702c      	strb	r4, [r5, #0]
   235ea:	4848      	ldr	r0, [pc, #288]	@ (2370c <_ZN20complex_dynamic_type3app17h789b6cb9ec1cbcaeE+0x14c>)
   235ec:	2106      	movs	r1, #6
   235ee:	4632      	mov	r2, r6
   235f0:	9b02      	ldr	r3, [sp, #8]
   235f2:	df04      	svc	4
   235f4:	2802      	cmp	r0, #2
   235f6:	d104      	bne.n	23602 <_ZN20complex_dynamic_type3app17h789b6cb9ec1cbcaeE+0x42>
   235f8:	2001      	movs	r0, #1
   235fa:	9a03      	ldr	r2, [sp, #12]
   235fc:	7010      	strb	r0, [r2, #0]
   235fe:	6051      	str	r1, [r2, #4]
   23600:	e02d      	b.n	2365e <_ZN20complex_dynamic_type3app17h789b6cb9ec1cbcaeE+0x9e>
   23602:	9d03      	ldr	r5, [sp, #12]
   23604:	a804      	add	r0, sp, #16
   23606:	2104      	movs	r1, #4
   23608:	7001      	strb	r1, [r0, #0]
   2360a:	4840      	ldr	r0, [pc, #256]	@ (2370c <_ZN20complex_dynamic_type3app17h789b6cb9ec1cbcaeE+0x14c>)
   2360c:	2100      	movs	r1, #0
   2360e:	230d      	movs	r3, #13
   23610:	9c01      	ldr	r4, [sp, #4]
   23612:	4622      	mov	r2, r4
   23614:	df03      	svc	3
   23616:	2802      	cmp	r0, #2
   23618:	d10e      	bne.n	23638 <_ZN20complex_dynamic_type3app17h789b6cb9ec1cbcaeE+0x78>
   2361a:	2001      	movs	r0, #1
   2361c:	7028      	strb	r0, [r5, #0]
   2361e:	6069      	str	r1, [r5, #4]
   23620:	a80f      	add	r0, sp, #60	@ 0x3c
   23622:	7800      	ldrb	r0, [r0, #0]
   23624:	2802      	cmp	r0, #2
   23626:	d01a      	beq.n	2365e <_ZN20complex_dynamic_type3app17h789b6cb9ec1cbcaeE+0x9e>
   23628:	2803      	cmp	r0, #3
   2362a:	d013      	beq.n	23654 <_ZN20complex_dynamic_type3app17h789b6cb9ec1cbcaeE+0x94>
   2362c:	4837      	ldr	r0, [pc, #220]	@ (2370c <_ZN20complex_dynamic_type3app17h789b6cb9ec1cbcaeE+0x14c>)
   2362e:	2100      	movs	r1, #0
   23630:	460a      	mov	r2, r1
   23632:	460b      	mov	r3, r1
   23634:	df04      	svc	4
   23636:	e012      	b.n	2365e <_ZN20complex_dynamic_type3app17h789b6cb9ec1cbcaeE+0x9e>
   23638:	a80f      	add	r0, sp, #60	@ 0x3c
   2363a:	2103      	movs	r1, #3
   2363c:	7001      	strb	r1, [r0, #0]
   2363e:	4833      	ldr	r0, [pc, #204]	@ (2370c <_ZN20complex_dynamic_type3app17h789b6cb9ec1cbcaeE+0x14c>)
   23640:	2106      	movs	r1, #6
   23642:	2600      	movs	r6, #0
   23644:	4632      	mov	r2, r6
   23646:	4633      	mov	r3, r6
   23648:	df02      	svc	2
   2364a:	2880      	cmp	r0, #128	@ 0x80
   2364c:	d21b      	bcs.n	23686 <_ZN20complex_dynamic_type3app17h789b6cb9ec1cbcaeE+0xc6>
   2364e:	2001      	movs	r0, #1
   23650:	7028      	strb	r0, [r5, #0]
   23652:	6069      	str	r1, [r5, #4]
   23654:	482d      	ldr	r0, [pc, #180]	@ (2370c <_ZN20complex_dynamic_type3app17h789b6cb9ec1cbcaeE+0x14c>)
   23656:	2100      	movs	r1, #0
   23658:	460a      	mov	r2, r1
   2365a:	460b      	mov	r3, r1
   2365c:	df03      	svc	3
   2365e:	a804      	add	r0, sp, #16
   23660:	7800      	ldrb	r0, [r0, #0]
   23662:	2802      	cmp	r0, #2
   23664:	d045      	beq.n	236f2 <_ZN20complex_dynamic_type3app17h789b6cb9ec1cbcaeE+0x132>
   23666:	2804      	cmp	r0, #4
   23668:	d106      	bne.n	23678 <_ZN20complex_dynamic_type3app17h789b6cb9ec1cbcaeE+0xb8>
   2366a:	4828      	ldr	r0, [pc, #160]	@ (2370c <_ZN20complex_dynamic_type3app17h789b6cb9ec1cbcaeE+0x14c>)
   2366c:	2106      	movs	r1, #6
   2366e:	2200      	movs	r2, #0
   23670:	4613      	mov	r3, r2
   23672:	df04      	svc	4
   23674:	b013      	add	sp, #76	@ 0x4c
   23676:	bdf0      	pop	{r4, r5, r6, r7, pc}
   23678:	4824      	ldr	r0, [pc, #144]	@ (2370c <_ZN20complex_dynamic_type3app17h789b6cb9ec1cbcaeE+0x14c>)
   2367a:	2106      	movs	r1, #6
   2367c:	2200      	movs	r2, #0
   2367e:	4613      	mov	r3, r2
   23680:	df03      	svc	3
   23682:	b013      	add	sp, #76	@ 0x4c
   23684:	bdf0      	pop	{r4, r5, r6, r7, pc}
   23686:	a804      	add	r0, sp, #16
   23688:	7800      	ldrb	r0, [r0, #0]
   2368a:	2802      	cmp	r0, #2
   2368c:	d00c      	beq.n	236a8 <_ZN20complex_dynamic_type3app17h789b6cb9ec1cbcaeE+0xe8>
   2368e:	2803      	cmp	r0, #3
   23690:	d105      	bne.n	2369e <_ZN20complex_dynamic_type3app17h789b6cb9ec1cbcaeE+0xde>
   23692:	481e      	ldr	r0, [pc, #120]	@ (2370c <_ZN20complex_dynamic_type3app17h789b6cb9ec1cbcaeE+0x14c>)
   23694:	2106      	movs	r1, #6
   23696:	2200      	movs	r2, #0
   23698:	4613      	mov	r3, r2
   2369a:	df03      	svc	3
   2369c:	e004      	b.n	236a8 <_ZN20complex_dynamic_type3app17h789b6cb9ec1cbcaeE+0xe8>
   2369e:	481b      	ldr	r0, [pc, #108]	@ (2370c <_ZN20complex_dynamic_type3app17h789b6cb9ec1cbcaeE+0x14c>)
   236a0:	2106      	movs	r1, #6
   236a2:	2200      	movs	r2, #0
   236a4:	4613      	mov	r3, r2
   236a6:	df04      	svc	4
   236a8:	a804      	add	r0, sp, #16
   236aa:	9900      	ldr	r1, [sp, #0]
   236ac:	7001      	strb	r1, [r0, #0]
   236ae:	a80f      	add	r0, sp, #60	@ 0x3c
   236b0:	7800      	ldrb	r0, [r0, #0]
   236b2:	2804      	cmp	r0, #4
   236b4:	d007      	beq.n	236c6 <_ZN20complex_dynamic_type3app17h789b6cb9ec1cbcaeE+0x106>
   236b6:	2803      	cmp	r0, #3
   236b8:	d11d      	bne.n	236f6 <_ZN20complex_dynamic_type3app17h789b6cb9ec1cbcaeE+0x136>
   236ba:	4814      	ldr	r0, [pc, #80]	@ (2370c <_ZN20complex_dynamic_type3app17h789b6cb9ec1cbcaeE+0x14c>)
   236bc:	2100      	movs	r1, #0
   236be:	460a      	mov	r2, r1
   236c0:	460b      	mov	r3, r1
   236c2:	df03      	svc	3
   236c4:	e004      	b.n	236d0 <_ZN20complex_dynamic_type3app17h789b6cb9ec1cbcaeE+0x110>
   236c6:	4811      	ldr	r0, [pc, #68]	@ (2370c <_ZN20complex_dynamic_type3app17h789b6cb9ec1cbcaeE+0x14c>)
   236c8:	2100      	movs	r1, #0
   236ca:	460a      	mov	r2, r1
   236cc:	460b      	mov	r3, r1
   236ce:	df04      	svc	4
   236d0:	a804      	add	r0, sp, #16
   236d2:	7804      	ldrb	r4, [r0, #0]
   236d4:	1c68      	adds	r0, r5, #1
   236d6:	220d      	movs	r2, #13
   236d8:	9901      	ldr	r1, [sp, #4]
   236da:	f007 fd13 	bl	2b104 <__aeabi_memcpy>
   236de:	702e      	strb	r6, [r5, #0]
   236e0:	2c02      	cmp	r4, #2
   236e2:	d006      	beq.n	236f2 <_ZN20complex_dynamic_type3app17h789b6cb9ec1cbcaeE+0x132>
   236e4:	4809      	ldr	r0, [pc, #36]	@ (2370c <_ZN20complex_dynamic_type3app17h789b6cb9ec1cbcaeE+0x14c>)
   236e6:	2106      	movs	r1, #6
   236e8:	2200      	movs	r2, #0
   236ea:	4613      	mov	r3, r2
   236ec:	2c04      	cmp	r4, #4
   236ee:	d10a      	bne.n	23706 <_ZN20complex_dynamic_type3app17h789b6cb9ec1cbcaeE+0x146>
   236f0:	df04      	svc	4
   236f2:	b013      	add	sp, #76	@ 0x4c
   236f4:	bdf0      	pop	{r4, r5, r6, r7, pc}
   236f6:	1c68      	adds	r0, r5, #1
   236f8:	220d      	movs	r2, #13
   236fa:	4621      	mov	r1, r4
   236fc:	f007 fd02 	bl	2b104 <__aeabi_memcpy>
   23700:	702e      	strb	r6, [r5, #0]
   23702:	b013      	add	sp, #76	@ 0x4c
   23704:	bdf0      	pop	{r4, r5, r6, r7, pc}
   23706:	df03      	svc	3
   23708:	b013      	add	sp, #76	@ 0x4c
   2370a:	bdf0      	pop	{r4, r5, r6, r7, pc}
   2370c:	00001465 	.word	0x00001465

00023710 <_ZN20complex_dynamic_type3app17h7d73c2b7d1d23355E>:
   23710:	b5f0      	push	{r4, r5, r6, r7, lr}
   23712:	af03      	add	r7, sp, #12
   23714:	b0a7      	sub	sp, #156	@ 0x9c
   23716:	9002      	str	r0, [sp, #8]
   23718:	a803      	add	r0, sp, #12
   2371a:	2502      	movs	r5, #2
   2371c:	7005      	strb	r5, [r0, #0]
   2371e:	1c46      	adds	r6, r0, #1
   23720:	222f      	movs	r2, #47	@ 0x2f
   23722:	9201      	str	r2, [sp, #4]
   23724:	4630      	mov	r0, r6
   23726:	f007 fced 	bl	2b104 <__aeabi_memcpy>
   2372a:	ac0f      	add	r4, sp, #60	@ 0x3c
   2372c:	1c60      	adds	r0, r4, #1
   2372e:	215e      	movs	r1, #94	@ 0x5e
   23730:	9000      	str	r0, [sp, #0]
   23732:	f007 fb27 	bl	2ad84 <__aeabi_memclr>
   23736:	7025      	strb	r5, [r4, #0]
   23738:	484a      	ldr	r0, [pc, #296]	@ (23864 <_ZN20complex_dynamic_type3app17h7d73c2b7d1d23355E+0x154>)
   2373a:	2105      	movs	r1, #5
   2373c:	4632      	mov	r2, r6
   2373e:	9b01      	ldr	r3, [sp, #4]
   23740:	df04      	svc	4
   23742:	2802      	cmp	r0, #2
   23744:	d104      	bne.n	23750 <_ZN20complex_dynamic_type3app17h7d73c2b7d1d23355E+0x40>
   23746:	2001      	movs	r0, #1
   23748:	9a02      	ldr	r2, [sp, #8]
   2374a:	7010      	strb	r0, [r2, #0]
   2374c:	6051      	str	r1, [r2, #4]
   2374e:	e02e      	b.n	237ae <_ZN20complex_dynamic_type3app17h7d73c2b7d1d23355E+0x9e>
   23750:	9d02      	ldr	r5, [sp, #8]
   23752:	a803      	add	r0, sp, #12
   23754:	2104      	movs	r1, #4
   23756:	7001      	strb	r1, [r0, #0]
   23758:	4842      	ldr	r0, [pc, #264]	@ (23864 <_ZN20complex_dynamic_type3app17h7d73c2b7d1d23355E+0x154>)
   2375a:	2102      	movs	r1, #2
   2375c:	235e      	movs	r3, #94	@ 0x5e
   2375e:	9c00      	ldr	r4, [sp, #0]
   23760:	4622      	mov	r2, r4
   23762:	df03      	svc	3
   23764:	2802      	cmp	r0, #2
   23766:	d10e      	bne.n	23786 <_ZN20complex_dynamic_type3app17h7d73c2b7d1d23355E+0x76>
   23768:	2001      	movs	r0, #1
   2376a:	7028      	strb	r0, [r5, #0]
   2376c:	6069      	str	r1, [r5, #4]
   2376e:	a80f      	add	r0, sp, #60	@ 0x3c
   23770:	7800      	ldrb	r0, [r0, #0]
   23772:	2802      	cmp	r0, #2
   23774:	d01b      	beq.n	237ae <_ZN20complex_dynamic_type3app17h7d73c2b7d1d23355E+0x9e>
   23776:	2803      	cmp	r0, #3
   23778:	d014      	beq.n	237a4 <_ZN20complex_dynamic_type3app17h7d73c2b7d1d23355E+0x94>
   2377a:	483a      	ldr	r0, [pc, #232]	@ (23864 <_ZN20complex_dynamic_type3app17h7d73c2b7d1d23355E+0x154>)
   2377c:	2102      	movs	r1, #2
   2377e:	2200      	movs	r2, #0
   23780:	4613      	mov	r3, r2
   23782:	df04      	svc	4
   23784:	e013      	b.n	237ae <_ZN20complex_dynamic_type3app17h7d73c2b7d1d23355E+0x9e>
   23786:	a80f      	add	r0, sp, #60	@ 0x3c
   23788:	2103      	movs	r1, #3
   2378a:	7001      	strb	r1, [r0, #0]
   2378c:	4835      	ldr	r0, [pc, #212]	@ (23864 <_ZN20complex_dynamic_type3app17h7d73c2b7d1d23355E+0x154>)
   2378e:	2105      	movs	r1, #5
   23790:	2602      	movs	r6, #2
   23792:	2300      	movs	r3, #0
   23794:	4632      	mov	r2, r6
   23796:	9301      	str	r3, [sp, #4]
   23798:	df02      	svc	2
   2379a:	2880      	cmp	r0, #128	@ 0x80
   2379c:	d21b      	bcs.n	237d6 <_ZN20complex_dynamic_type3app17h7d73c2b7d1d23355E+0xc6>
   2379e:	2001      	movs	r0, #1
   237a0:	7028      	strb	r0, [r5, #0]
   237a2:	6069      	str	r1, [r5, #4]
   237a4:	482f      	ldr	r0, [pc, #188]	@ (23864 <_ZN20complex_dynamic_type3app17h7d73c2b7d1d23355E+0x154>)
   237a6:	2102      	movs	r1, #2
   237a8:	2200      	movs	r2, #0
   237aa:	4613      	mov	r3, r2
   237ac:	df03      	svc	3
   237ae:	a803      	add	r0, sp, #12
   237b0:	7800      	ldrb	r0, [r0, #0]
   237b2:	2802      	cmp	r0, #2
   237b4:	d047      	beq.n	23846 <_ZN20complex_dynamic_type3app17h7d73c2b7d1d23355E+0x136>
   237b6:	2804      	cmp	r0, #4
   237b8:	d106      	bne.n	237c8 <_ZN20complex_dynamic_type3app17h7d73c2b7d1d23355E+0xb8>
   237ba:	482a      	ldr	r0, [pc, #168]	@ (23864 <_ZN20complex_dynamic_type3app17h7d73c2b7d1d23355E+0x154>)
   237bc:	2105      	movs	r1, #5
   237be:	2200      	movs	r2, #0
   237c0:	4613      	mov	r3, r2
   237c2:	df04      	svc	4
   237c4:	b027      	add	sp, #156	@ 0x9c
   237c6:	bdf0      	pop	{r4, r5, r6, r7, pc}
   237c8:	4826      	ldr	r0, [pc, #152]	@ (23864 <_ZN20complex_dynamic_type3app17h7d73c2b7d1d23355E+0x154>)
   237ca:	2105      	movs	r1, #5
   237cc:	2200      	movs	r2, #0
   237ce:	4613      	mov	r3, r2
   237d0:	df03      	svc	3
   237d2:	b027      	add	sp, #156	@ 0x9c
   237d4:	bdf0      	pop	{r4, r5, r6, r7, pc}
   237d6:	a803      	add	r0, sp, #12
   237d8:	7800      	ldrb	r0, [r0, #0]
   237da:	2802      	cmp	r0, #2
   237dc:	d00c      	beq.n	237f8 <_ZN20complex_dynamic_type3app17h7d73c2b7d1d23355E+0xe8>
   237de:	2803      	cmp	r0, #3
   237e0:	d105      	bne.n	237ee <_ZN20complex_dynamic_type3app17h7d73c2b7d1d23355E+0xde>
   237e2:	4820      	ldr	r0, [pc, #128]	@ (23864 <_ZN20complex_dynamic_type3app17h7d73c2b7d1d23355E+0x154>)
   237e4:	2105      	movs	r1, #5
   237e6:	2200      	movs	r2, #0
   237e8:	4613      	mov	r3, r2
   237ea:	df03      	svc	3
   237ec:	e004      	b.n	237f8 <_ZN20complex_dynamic_type3app17h7d73c2b7d1d23355E+0xe8>
   237ee:	481d      	ldr	r0, [pc, #116]	@ (23864 <_ZN20complex_dynamic_type3app17h7d73c2b7d1d23355E+0x154>)
   237f0:	2105      	movs	r1, #5
   237f2:	2200      	movs	r2, #0
   237f4:	4613      	mov	r3, r2
   237f6:	df04      	svc	4
   237f8:	a803      	add	r0, sp, #12
   237fa:	7006      	strb	r6, [r0, #0]
   237fc:	a80f      	add	r0, sp, #60	@ 0x3c
   237fe:	7800      	ldrb	r0, [r0, #0]
   23800:	2804      	cmp	r0, #4
   23802:	d008      	beq.n	23816 <_ZN20complex_dynamic_type3app17h7d73c2b7d1d23355E+0x106>
   23804:	2803      	cmp	r0, #3
   23806:	d120      	bne.n	2384a <_ZN20complex_dynamic_type3app17h7d73c2b7d1d23355E+0x13a>
   23808:	4626      	mov	r6, r4
   2380a:	4816      	ldr	r0, [pc, #88]	@ (23864 <_ZN20complex_dynamic_type3app17h7d73c2b7d1d23355E+0x154>)
   2380c:	2102      	movs	r1, #2
   2380e:	2200      	movs	r2, #0
   23810:	4613      	mov	r3, r2
   23812:	df03      	svc	3
   23814:	e005      	b.n	23822 <_ZN20complex_dynamic_type3app17h7d73c2b7d1d23355E+0x112>
   23816:	4626      	mov	r6, r4
   23818:	4812      	ldr	r0, [pc, #72]	@ (23864 <_ZN20complex_dynamic_type3app17h7d73c2b7d1d23355E+0x154>)
   2381a:	2102      	movs	r1, #2
   2381c:	2200      	movs	r2, #0
   2381e:	4613      	mov	r3, r2
   23820:	df04      	svc	4
   23822:	a803      	add	r0, sp, #12
   23824:	7804      	ldrb	r4, [r0, #0]
   23826:	1c68      	adds	r0, r5, #1
   23828:	225e      	movs	r2, #94	@ 0x5e
   2382a:	4631      	mov	r1, r6
   2382c:	f007 fc6a 	bl	2b104 <__aeabi_memcpy>
   23830:	9801      	ldr	r0, [sp, #4]
   23832:	7028      	strb	r0, [r5, #0]
   23834:	2c02      	cmp	r4, #2
   23836:	d006      	beq.n	23846 <_ZN20complex_dynamic_type3app17h7d73c2b7d1d23355E+0x136>
   23838:	480a      	ldr	r0, [pc, #40]	@ (23864 <_ZN20complex_dynamic_type3app17h7d73c2b7d1d23355E+0x154>)
   2383a:	2105      	movs	r1, #5
   2383c:	2200      	movs	r2, #0
   2383e:	4613      	mov	r3, r2
   23840:	2c04      	cmp	r4, #4
   23842:	d10b      	bne.n	2385c <_ZN20complex_dynamic_type3app17h7d73c2b7d1d23355E+0x14c>
   23844:	df04      	svc	4
   23846:	b027      	add	sp, #156	@ 0x9c
   23848:	bdf0      	pop	{r4, r5, r6, r7, pc}
   2384a:	1c68      	adds	r0, r5, #1
   2384c:	225e      	movs	r2, #94	@ 0x5e
   2384e:	4621      	mov	r1, r4
   23850:	f007 fc58 	bl	2b104 <__aeabi_memcpy>
   23854:	9801      	ldr	r0, [sp, #4]
   23856:	7028      	strb	r0, [r5, #0]
   23858:	b027      	add	sp, #156	@ 0x9c
   2385a:	bdf0      	pop	{r4, r5, r6, r7, pc}
   2385c:	df03      	svc	3
   2385e:	b027      	add	sp, #156	@ 0x9c
   23860:	bdf0      	pop	{r4, r5, r6, r7, pc}
   23862:	46c0      	nop			@ (mov r8, r8)
   23864:	0000022b 	.word	0x0000022b

00023868 <_ZN20complex_dynamic_type3app17h80f4f74aecf5c2e8E>:
   23868:	b5f0      	push	{r4, r5, r6, r7, lr}
   2386a:	af03      	add	r7, sp, #12
   2386c:	b0ad      	sub	sp, #180	@ 0xb4
   2386e:	9003      	str	r0, [sp, #12]
   23870:	a804      	add	r0, sp, #16
   23872:	2602      	movs	r6, #2
   23874:	7006      	strb	r6, [r0, #0]
   23876:	1c40      	adds	r0, r0, #1
   23878:	9002      	str	r0, [sp, #8]
   2387a:	2551      	movs	r5, #81	@ 0x51
   2387c:	462a      	mov	r2, r5
   2387e:	f007 fc41 	bl	2b104 <__aeabi_memcpy>
   23882:	ac19      	add	r4, sp, #100	@ 0x64
   23884:	1c60      	adds	r0, r4, #1
   23886:	214f      	movs	r1, #79	@ 0x4f
   23888:	9001      	str	r0, [sp, #4]
   2388a:	f007 fa7b 	bl	2ad84 <__aeabi_memclr>
   2388e:	7026      	strb	r6, [r4, #0]
   23890:	4849      	ldr	r0, [pc, #292]	@ (239b8 <_ZN20complex_dynamic_type3app17h80f4f74aecf5c2e8E+0x150>)
   23892:	4631      	mov	r1, r6
   23894:	9a02      	ldr	r2, [sp, #8]
   23896:	462b      	mov	r3, r5
   23898:	df04      	svc	4
   2389a:	2802      	cmp	r0, #2
   2389c:	d104      	bne.n	238a8 <_ZN20complex_dynamic_type3app17h80f4f74aecf5c2e8E+0x40>
   2389e:	2001      	movs	r0, #1
   238a0:	9a03      	ldr	r2, [sp, #12]
   238a2:	7010      	strb	r0, [r2, #0]
   238a4:	6051      	str	r1, [r2, #4]
   238a6:	e02d      	b.n	23904 <_ZN20complex_dynamic_type3app17h80f4f74aecf5c2e8E+0x9c>
   238a8:	9d03      	ldr	r5, [sp, #12]
   238aa:	a804      	add	r0, sp, #16
   238ac:	2104      	movs	r1, #4
   238ae:	7001      	strb	r1, [r0, #0]
   238b0:	4841      	ldr	r0, [pc, #260]	@ (239b8 <_ZN20complex_dynamic_type3app17h80f4f74aecf5c2e8E+0x150>)
   238b2:	234f      	movs	r3, #79	@ 0x4f
   238b4:	9c01      	ldr	r4, [sp, #4]
   238b6:	4622      	mov	r2, r4
   238b8:	df03      	svc	3
   238ba:	2802      	cmp	r0, #2
   238bc:	d10e      	bne.n	238dc <_ZN20complex_dynamic_type3app17h80f4f74aecf5c2e8E+0x74>
   238be:	2001      	movs	r0, #1
   238c0:	7028      	strb	r0, [r5, #0]
   238c2:	6069      	str	r1, [r5, #4]
   238c4:	a819      	add	r0, sp, #100	@ 0x64
   238c6:	7800      	ldrb	r0, [r0, #0]
   238c8:	2802      	cmp	r0, #2
   238ca:	d01b      	beq.n	23904 <_ZN20complex_dynamic_type3app17h80f4f74aecf5c2e8E+0x9c>
   238cc:	2803      	cmp	r0, #3
   238ce:	d014      	beq.n	238fa <_ZN20complex_dynamic_type3app17h80f4f74aecf5c2e8E+0x92>
   238d0:	4839      	ldr	r0, [pc, #228]	@ (239b8 <_ZN20complex_dynamic_type3app17h80f4f74aecf5c2e8E+0x150>)
   238d2:	2104      	movs	r1, #4
   238d4:	2200      	movs	r2, #0
   238d6:	4613      	mov	r3, r2
   238d8:	df04      	svc	4
   238da:	e013      	b.n	23904 <_ZN20complex_dynamic_type3app17h80f4f74aecf5c2e8E+0x9c>
   238dc:	a819      	add	r0, sp, #100	@ 0x64
   238de:	2103      	movs	r1, #3
   238e0:	7001      	strb	r1, [r0, #0]
   238e2:	4835      	ldr	r0, [pc, #212]	@ (239b8 <_ZN20complex_dynamic_type3app17h80f4f74aecf5c2e8E+0x150>)
   238e4:	2602      	movs	r6, #2
   238e6:	2204      	movs	r2, #4
   238e8:	2300      	movs	r3, #0
   238ea:	4631      	mov	r1, r6
   238ec:	9302      	str	r3, [sp, #8]
   238ee:	df02      	svc	2
   238f0:	2880      	cmp	r0, #128	@ 0x80
   238f2:	d21b      	bcs.n	2392c <_ZN20complex_dynamic_type3app17h80f4f74aecf5c2e8E+0xc4>
   238f4:	2001      	movs	r0, #1
   238f6:	7028      	strb	r0, [r5, #0]
   238f8:	6069      	str	r1, [r5, #4]
   238fa:	482f      	ldr	r0, [pc, #188]	@ (239b8 <_ZN20complex_dynamic_type3app17h80f4f74aecf5c2e8E+0x150>)
   238fc:	2104      	movs	r1, #4
   238fe:	2200      	movs	r2, #0
   23900:	4613      	mov	r3, r2
   23902:	df03      	svc	3
   23904:	a804      	add	r0, sp, #16
   23906:	7800      	ldrb	r0, [r0, #0]
   23908:	2802      	cmp	r0, #2
   2390a:	d047      	beq.n	2399c <_ZN20complex_dynamic_type3app17h80f4f74aecf5c2e8E+0x134>
   2390c:	2804      	cmp	r0, #4
   2390e:	d106      	bne.n	2391e <_ZN20complex_dynamic_type3app17h80f4f74aecf5c2e8E+0xb6>
   23910:	4829      	ldr	r0, [pc, #164]	@ (239b8 <_ZN20complex_dynamic_type3app17h80f4f74aecf5c2e8E+0x150>)
   23912:	2102      	movs	r1, #2
   23914:	2200      	movs	r2, #0
   23916:	4613      	mov	r3, r2
   23918:	df04      	svc	4
   2391a:	b02d      	add	sp, #180	@ 0xb4
   2391c:	bdf0      	pop	{r4, r5, r6, r7, pc}
   2391e:	4826      	ldr	r0, [pc, #152]	@ (239b8 <_ZN20complex_dynamic_type3app17h80f4f74aecf5c2e8E+0x150>)
   23920:	2102      	movs	r1, #2
   23922:	2200      	movs	r2, #0
   23924:	4613      	mov	r3, r2
   23926:	df03      	svc	3
   23928:	b02d      	add	sp, #180	@ 0xb4
   2392a:	bdf0      	pop	{r4, r5, r6, r7, pc}
   2392c:	a804      	add	r0, sp, #16
   2392e:	7800      	ldrb	r0, [r0, #0]
   23930:	2802      	cmp	r0, #2
   23932:	d00c      	beq.n	2394e <_ZN20complex_dynamic_type3app17h80f4f74aecf5c2e8E+0xe6>
   23934:	2803      	cmp	r0, #3
   23936:	d105      	bne.n	23944 <_ZN20complex_dynamic_type3app17h80f4f74aecf5c2e8E+0xdc>
   23938:	481f      	ldr	r0, [pc, #124]	@ (239b8 <_ZN20complex_dynamic_type3app17h80f4f74aecf5c2e8E+0x150>)
   2393a:	2102      	movs	r1, #2
   2393c:	2200      	movs	r2, #0
   2393e:	4613      	mov	r3, r2
   23940:	df03      	svc	3
   23942:	e004      	b.n	2394e <_ZN20complex_dynamic_type3app17h80f4f74aecf5c2e8E+0xe6>
   23944:	481c      	ldr	r0, [pc, #112]	@ (239b8 <_ZN20complex_dynamic_type3app17h80f4f74aecf5c2e8E+0x150>)
   23946:	2102      	movs	r1, #2
   23948:	2200      	movs	r2, #0
   2394a:	4613      	mov	r3, r2
   2394c:	df04      	svc	4
   2394e:	a804      	add	r0, sp, #16
   23950:	7006      	strb	r6, [r0, #0]
   23952:	a819      	add	r0, sp, #100	@ 0x64
   23954:	7800      	ldrb	r0, [r0, #0]
   23956:	2804      	cmp	r0, #4
   23958:	d008      	beq.n	2396c <_ZN20complex_dynamic_type3app17h80f4f74aecf5c2e8E+0x104>
   2395a:	2803      	cmp	r0, #3
   2395c:	d120      	bne.n	239a0 <_ZN20complex_dynamic_type3app17h80f4f74aecf5c2e8E+0x138>
   2395e:	4626      	mov	r6, r4
   23960:	4815      	ldr	r0, [pc, #84]	@ (239b8 <_ZN20complex_dynamic_type3app17h80f4f74aecf5c2e8E+0x150>)
   23962:	2104      	movs	r1, #4
   23964:	2200      	movs	r2, #0
   23966:	4613      	mov	r3, r2
   23968:	df03      	svc	3
   2396a:	e005      	b.n	23978 <_ZN20complex_dynamic_type3app17h80f4f74aecf5c2e8E+0x110>
   2396c:	4626      	mov	r6, r4
   2396e:	4812      	ldr	r0, [pc, #72]	@ (239b8 <_ZN20complex_dynamic_type3app17h80f4f74aecf5c2e8E+0x150>)
   23970:	2104      	movs	r1, #4
   23972:	2200      	movs	r2, #0
   23974:	4613      	mov	r3, r2
   23976:	df04      	svc	4
   23978:	a804      	add	r0, sp, #16
   2397a:	7804      	ldrb	r4, [r0, #0]
   2397c:	1c68      	adds	r0, r5, #1
   2397e:	224f      	movs	r2, #79	@ 0x4f
   23980:	4631      	mov	r1, r6
   23982:	f007 fbbf 	bl	2b104 <__aeabi_memcpy>
   23986:	9802      	ldr	r0, [sp, #8]
   23988:	7028      	strb	r0, [r5, #0]
   2398a:	2c02      	cmp	r4, #2
   2398c:	d006      	beq.n	2399c <_ZN20complex_dynamic_type3app17h80f4f74aecf5c2e8E+0x134>
   2398e:	480a      	ldr	r0, [pc, #40]	@ (239b8 <_ZN20complex_dynamic_type3app17h80f4f74aecf5c2e8E+0x150>)
   23990:	2102      	movs	r1, #2
   23992:	2200      	movs	r2, #0
   23994:	4613      	mov	r3, r2
   23996:	2c04      	cmp	r4, #4
   23998:	d10b      	bne.n	239b2 <_ZN20complex_dynamic_type3app17h80f4f74aecf5c2e8E+0x14a>
   2399a:	df04      	svc	4
   2399c:	b02d      	add	sp, #180	@ 0xb4
   2399e:	bdf0      	pop	{r4, r5, r6, r7, pc}
   239a0:	1c68      	adds	r0, r5, #1
   239a2:	224f      	movs	r2, #79	@ 0x4f
   239a4:	4621      	mov	r1, r4
   239a6:	f007 fbad 	bl	2b104 <__aeabi_memcpy>
   239aa:	9802      	ldr	r0, [sp, #8]
   239ac:	7028      	strb	r0, [r5, #0]
   239ae:	b02d      	add	sp, #180	@ 0xb4
   239b0:	bdf0      	pop	{r4, r5, r6, r7, pc}
   239b2:	df03      	svc	3
   239b4:	b02d      	add	sp, #180	@ 0xb4
   239b6:	bdf0      	pop	{r4, r5, r6, r7, pc}
   239b8:	00000e16 	.word	0x00000e16

000239bc <_ZN20complex_dynamic_type3app17h820684cb959972e0E>:
   239bc:	b5f0      	push	{r4, r5, r6, r7, lr}
   239be:	af03      	add	r7, sp, #12
   239c0:	b0a1      	sub	sp, #132	@ 0x84
   239c2:	9003      	str	r0, [sp, #12]
   239c4:	a804      	add	r0, sp, #16
   239c6:	2502      	movs	r5, #2
   239c8:	7005      	strb	r5, [r0, #0]
   239ca:	1c46      	adds	r6, r0, #1
   239cc:	225d      	movs	r2, #93	@ 0x5d
   239ce:	9202      	str	r2, [sp, #8]
   239d0:	4630      	mov	r0, r6
   239d2:	f007 fb97 	bl	2b104 <__aeabi_memcpy>
   239d6:	ac1c      	add	r4, sp, #112	@ 0x70
   239d8:	1c60      	adds	r0, r4, #1
   239da:	2112      	movs	r1, #18
   239dc:	9001      	str	r0, [sp, #4]
   239de:	f007 f9d1 	bl	2ad84 <__aeabi_memclr>
   239e2:	7025      	strb	r5, [r4, #0]
   239e4:	484a      	ldr	r0, [pc, #296]	@ (23b10 <_ZN20complex_dynamic_type3app17h820684cb959972e0E+0x154>)
   239e6:	2100      	movs	r1, #0
   239e8:	4632      	mov	r2, r6
   239ea:	9b02      	ldr	r3, [sp, #8]
   239ec:	df04      	svc	4
   239ee:	2802      	cmp	r0, #2
   239f0:	d104      	bne.n	239fc <_ZN20complex_dynamic_type3app17h820684cb959972e0E+0x40>
   239f2:	2001      	movs	r0, #1
   239f4:	9a03      	ldr	r2, [sp, #12]
   239f6:	7010      	strb	r0, [r2, #0]
   239f8:	6051      	str	r1, [r2, #4]
   239fa:	e02e      	b.n	23a5a <_ZN20complex_dynamic_type3app17h820684cb959972e0E+0x9e>
   239fc:	9d03      	ldr	r5, [sp, #12]
   239fe:	a804      	add	r0, sp, #16
   23a00:	2104      	movs	r1, #4
   23a02:	7001      	strb	r1, [r0, #0]
   23a04:	4842      	ldr	r0, [pc, #264]	@ (23b10 <_ZN20complex_dynamic_type3app17h820684cb959972e0E+0x154>)
   23a06:	2102      	movs	r1, #2
   23a08:	2312      	movs	r3, #18
   23a0a:	9c01      	ldr	r4, [sp, #4]
   23a0c:	4622      	mov	r2, r4
   23a0e:	df03      	svc	3
   23a10:	2802      	cmp	r0, #2
   23a12:	d10e      	bne.n	23a32 <_ZN20complex_dynamic_type3app17h820684cb959972e0E+0x76>
   23a14:	2001      	movs	r0, #1
   23a16:	7028      	strb	r0, [r5, #0]
   23a18:	6069      	str	r1, [r5, #4]
   23a1a:	a81c      	add	r0, sp, #112	@ 0x70
   23a1c:	7800      	ldrb	r0, [r0, #0]
   23a1e:	2802      	cmp	r0, #2
   23a20:	d01b      	beq.n	23a5a <_ZN20complex_dynamic_type3app17h820684cb959972e0E+0x9e>
   23a22:	2803      	cmp	r0, #3
   23a24:	d014      	beq.n	23a50 <_ZN20complex_dynamic_type3app17h820684cb959972e0E+0x94>
   23a26:	483a      	ldr	r0, [pc, #232]	@ (23b10 <_ZN20complex_dynamic_type3app17h820684cb959972e0E+0x154>)
   23a28:	2102      	movs	r1, #2
   23a2a:	2200      	movs	r2, #0
   23a2c:	4613      	mov	r3, r2
   23a2e:	df04      	svc	4
   23a30:	e013      	b.n	23a5a <_ZN20complex_dynamic_type3app17h820684cb959972e0E+0x9e>
   23a32:	a81c      	add	r0, sp, #112	@ 0x70
   23a34:	2103      	movs	r1, #3
   23a36:	7001      	strb	r1, [r0, #0]
   23a38:	4835      	ldr	r0, [pc, #212]	@ (23b10 <_ZN20complex_dynamic_type3app17h820684cb959972e0E+0x154>)
   23a3a:	2602      	movs	r6, #2
   23a3c:	2100      	movs	r1, #0
   23a3e:	4632      	mov	r2, r6
   23a40:	9102      	str	r1, [sp, #8]
   23a42:	460b      	mov	r3, r1
   23a44:	df02      	svc	2
   23a46:	2880      	cmp	r0, #128	@ 0x80
   23a48:	d21b      	bcs.n	23a82 <_ZN20complex_dynamic_type3app17h820684cb959972e0E+0xc6>
   23a4a:	2001      	movs	r0, #1
   23a4c:	7028      	strb	r0, [r5, #0]
   23a4e:	6069      	str	r1, [r5, #4]
   23a50:	482f      	ldr	r0, [pc, #188]	@ (23b10 <_ZN20complex_dynamic_type3app17h820684cb959972e0E+0x154>)
   23a52:	2102      	movs	r1, #2
   23a54:	2200      	movs	r2, #0
   23a56:	4613      	mov	r3, r2
   23a58:	df03      	svc	3
   23a5a:	a804      	add	r0, sp, #16
   23a5c:	7800      	ldrb	r0, [r0, #0]
   23a5e:	2802      	cmp	r0, #2
   23a60:	d047      	beq.n	23af2 <_ZN20complex_dynamic_type3app17h820684cb959972e0E+0x136>
   23a62:	2804      	cmp	r0, #4
   23a64:	d106      	bne.n	23a74 <_ZN20complex_dynamic_type3app17h820684cb959972e0E+0xb8>
   23a66:	482a      	ldr	r0, [pc, #168]	@ (23b10 <_ZN20complex_dynamic_type3app17h820684cb959972e0E+0x154>)
   23a68:	2100      	movs	r1, #0
   23a6a:	460a      	mov	r2, r1
   23a6c:	460b      	mov	r3, r1
   23a6e:	df04      	svc	4
   23a70:	b021      	add	sp, #132	@ 0x84
   23a72:	bdf0      	pop	{r4, r5, r6, r7, pc}
   23a74:	4826      	ldr	r0, [pc, #152]	@ (23b10 <_ZN20complex_dynamic_type3app17h820684cb959972e0E+0x154>)
   23a76:	2100      	movs	r1, #0
   23a78:	460a      	mov	r2, r1
   23a7a:	460b      	mov	r3, r1
   23a7c:	df03      	svc	3
   23a7e:	b021      	add	sp, #132	@ 0x84
   23a80:	bdf0      	pop	{r4, r5, r6, r7, pc}
   23a82:	a804      	add	r0, sp, #16
   23a84:	7800      	ldrb	r0, [r0, #0]
   23a86:	2802      	cmp	r0, #2
   23a88:	d00c      	beq.n	23aa4 <_ZN20complex_dynamic_type3app17h820684cb959972e0E+0xe8>
   23a8a:	2803      	cmp	r0, #3
   23a8c:	d105      	bne.n	23a9a <_ZN20complex_dynamic_type3app17h820684cb959972e0E+0xde>
   23a8e:	4820      	ldr	r0, [pc, #128]	@ (23b10 <_ZN20complex_dynamic_type3app17h820684cb959972e0E+0x154>)
   23a90:	2100      	movs	r1, #0
   23a92:	460a      	mov	r2, r1
   23a94:	460b      	mov	r3, r1
   23a96:	df03      	svc	3
   23a98:	e004      	b.n	23aa4 <_ZN20complex_dynamic_type3app17h820684cb959972e0E+0xe8>
   23a9a:	481d      	ldr	r0, [pc, #116]	@ (23b10 <_ZN20complex_dynamic_type3app17h820684cb959972e0E+0x154>)
   23a9c:	2100      	movs	r1, #0
   23a9e:	460a      	mov	r2, r1
   23aa0:	460b      	mov	r3, r1
   23aa2:	df04      	svc	4
   23aa4:	a804      	add	r0, sp, #16
   23aa6:	7006      	strb	r6, [r0, #0]
   23aa8:	a81c      	add	r0, sp, #112	@ 0x70
   23aaa:	7800      	ldrb	r0, [r0, #0]
   23aac:	2804      	cmp	r0, #4
   23aae:	d008      	beq.n	23ac2 <_ZN20complex_dynamic_type3app17h820684cb959972e0E+0x106>
   23ab0:	2803      	cmp	r0, #3
   23ab2:	d120      	bne.n	23af6 <_ZN20complex_dynamic_type3app17h820684cb959972e0E+0x13a>
   23ab4:	4626      	mov	r6, r4
   23ab6:	4816      	ldr	r0, [pc, #88]	@ (23b10 <_ZN20complex_dynamic_type3app17h820684cb959972e0E+0x154>)
   23ab8:	2102      	movs	r1, #2
   23aba:	2200      	movs	r2, #0
   23abc:	4613      	mov	r3, r2
   23abe:	df03      	svc	3
   23ac0:	e005      	b.n	23ace <_ZN20complex_dynamic_type3app17h820684cb959972e0E+0x112>
   23ac2:	4626      	mov	r6, r4
   23ac4:	4812      	ldr	r0, [pc, #72]	@ (23b10 <_ZN20complex_dynamic_type3app17h820684cb959972e0E+0x154>)
   23ac6:	2102      	movs	r1, #2
   23ac8:	2200      	movs	r2, #0
   23aca:	4613      	mov	r3, r2
   23acc:	df04      	svc	4
   23ace:	a804      	add	r0, sp, #16
   23ad0:	7804      	ldrb	r4, [r0, #0]
   23ad2:	1c68      	adds	r0, r5, #1
   23ad4:	2212      	movs	r2, #18
   23ad6:	4631      	mov	r1, r6
   23ad8:	f007 fb14 	bl	2b104 <__aeabi_memcpy>
   23adc:	9802      	ldr	r0, [sp, #8]
   23ade:	7028      	strb	r0, [r5, #0]
   23ae0:	2c02      	cmp	r4, #2
   23ae2:	d006      	beq.n	23af2 <_ZN20complex_dynamic_type3app17h820684cb959972e0E+0x136>
   23ae4:	480a      	ldr	r0, [pc, #40]	@ (23b10 <_ZN20complex_dynamic_type3app17h820684cb959972e0E+0x154>)
   23ae6:	2100      	movs	r1, #0
   23ae8:	460a      	mov	r2, r1
   23aea:	460b      	mov	r3, r1
   23aec:	2c04      	cmp	r4, #4
   23aee:	d10b      	bne.n	23b08 <_ZN20complex_dynamic_type3app17h820684cb959972e0E+0x14c>
   23af0:	df04      	svc	4
   23af2:	b021      	add	sp, #132	@ 0x84
   23af4:	bdf0      	pop	{r4, r5, r6, r7, pc}
   23af6:	1c68      	adds	r0, r5, #1
   23af8:	2212      	movs	r2, #18
   23afa:	4621      	mov	r1, r4
   23afc:	f007 fb02 	bl	2b104 <__aeabi_memcpy>
   23b00:	9802      	ldr	r0, [sp, #8]
   23b02:	7028      	strb	r0, [r5, #0]
   23b04:	b021      	add	sp, #132	@ 0x84
   23b06:	bdf0      	pop	{r4, r5, r6, r7, pc}
   23b08:	df03      	svc	3
   23b0a:	b021      	add	sp, #132	@ 0x84
   23b0c:	bdf0      	pop	{r4, r5, r6, r7, pc}
   23b0e:	46c0      	nop			@ (mov r8, r8)
   23b10:	000015f1 	.word	0x000015f1

00023b14 <_ZN20complex_dynamic_type3app17h823dcd5e14353519E>:
   23b14:	b5f0      	push	{r4, r5, r6, r7, lr}
   23b16:	af03      	add	r7, sp, #12
   23b18:	b099      	sub	sp, #100	@ 0x64
   23b1a:	9003      	str	r0, [sp, #12]
   23b1c:	a804      	add	r0, sp, #16
   23b1e:	2402      	movs	r4, #2
   23b20:	7004      	strb	r4, [r0, #0]
   23b22:	1c46      	adds	r6, r0, #1
   23b24:	2218      	movs	r2, #24
   23b26:	9202      	str	r2, [sp, #8]
   23b28:	4630      	mov	r0, r6
   23b2a:	f007 faeb 	bl	2b104 <__aeabi_memcpy>
   23b2e:	ad0b      	add	r5, sp, #44	@ 0x2c
   23b30:	1c68      	adds	r0, r5, #1
   23b32:	2136      	movs	r1, #54	@ 0x36
   23b34:	9001      	str	r0, [sp, #4]
   23b36:	f007 f925 	bl	2ad84 <__aeabi_memclr>
   23b3a:	9400      	str	r4, [sp, #0]
   23b3c:	702c      	strb	r4, [r5, #0]
   23b3e:	20f3      	movs	r0, #243	@ 0xf3
   23b40:	2108      	movs	r1, #8
   23b42:	4632      	mov	r2, r6
   23b44:	9b02      	ldr	r3, [sp, #8]
   23b46:	df04      	svc	4
   23b48:	2802      	cmp	r0, #2
   23b4a:	d104      	bne.n	23b56 <_ZN20complex_dynamic_type3app17h823dcd5e14353519E+0x42>
   23b4c:	2001      	movs	r0, #1
   23b4e:	9a03      	ldr	r2, [sp, #12]
   23b50:	7010      	strb	r0, [r2, #0]
   23b52:	6051      	str	r1, [r2, #4]
   23b54:	e02c      	b.n	23bb0 <_ZN20complex_dynamic_type3app17h823dcd5e14353519E+0x9c>
   23b56:	9d03      	ldr	r5, [sp, #12]
   23b58:	a804      	add	r0, sp, #16
   23b5a:	2104      	movs	r1, #4
   23b5c:	7001      	strb	r1, [r0, #0]
   23b5e:	20f3      	movs	r0, #243	@ 0xf3
   23b60:	2336      	movs	r3, #54	@ 0x36
   23b62:	9c01      	ldr	r4, [sp, #4]
   23b64:	4622      	mov	r2, r4
   23b66:	df03      	svc	3
   23b68:	2802      	cmp	r0, #2
   23b6a:	d10e      	bne.n	23b8a <_ZN20complex_dynamic_type3app17h823dcd5e14353519E+0x76>
   23b6c:	2001      	movs	r0, #1
   23b6e:	7028      	strb	r0, [r5, #0]
   23b70:	6069      	str	r1, [r5, #4]
   23b72:	a80b      	add	r0, sp, #44	@ 0x2c
   23b74:	7800      	ldrb	r0, [r0, #0]
   23b76:	2802      	cmp	r0, #2
   23b78:	d01a      	beq.n	23bb0 <_ZN20complex_dynamic_type3app17h823dcd5e14353519E+0x9c>
   23b7a:	2803      	cmp	r0, #3
   23b7c:	d013      	beq.n	23ba6 <_ZN20complex_dynamic_type3app17h823dcd5e14353519E+0x92>
   23b7e:	20f3      	movs	r0, #243	@ 0xf3
   23b80:	2104      	movs	r1, #4
   23b82:	2200      	movs	r2, #0
   23b84:	4613      	mov	r3, r2
   23b86:	df04      	svc	4
   23b88:	e012      	b.n	23bb0 <_ZN20complex_dynamic_type3app17h823dcd5e14353519E+0x9c>
   23b8a:	a80b      	add	r0, sp, #44	@ 0x2c
   23b8c:	2103      	movs	r1, #3
   23b8e:	7001      	strb	r1, [r0, #0]
   23b90:	20f3      	movs	r0, #243	@ 0xf3
   23b92:	2108      	movs	r1, #8
   23b94:	2204      	movs	r2, #4
   23b96:	2600      	movs	r6, #0
   23b98:	4633      	mov	r3, r6
   23b9a:	df02      	svc	2
   23b9c:	2880      	cmp	r0, #128	@ 0x80
   23b9e:	d21b      	bcs.n	23bd8 <_ZN20complex_dynamic_type3app17h823dcd5e14353519E+0xc4>
   23ba0:	2001      	movs	r0, #1
   23ba2:	7028      	strb	r0, [r5, #0]
   23ba4:	6069      	str	r1, [r5, #4]
   23ba6:	20f3      	movs	r0, #243	@ 0xf3
   23ba8:	2104      	movs	r1, #4
   23baa:	2200      	movs	r2, #0
   23bac:	4613      	mov	r3, r2
   23bae:	df03      	svc	3
   23bb0:	a804      	add	r0, sp, #16
   23bb2:	7800      	ldrb	r0, [r0, #0]
   23bb4:	2802      	cmp	r0, #2
   23bb6:	d045      	beq.n	23c44 <_ZN20complex_dynamic_type3app17h823dcd5e14353519E+0x130>
   23bb8:	2804      	cmp	r0, #4
   23bba:	d106      	bne.n	23bca <_ZN20complex_dynamic_type3app17h823dcd5e14353519E+0xb6>
   23bbc:	20f3      	movs	r0, #243	@ 0xf3
   23bbe:	2108      	movs	r1, #8
   23bc0:	2200      	movs	r2, #0
   23bc2:	4613      	mov	r3, r2
   23bc4:	df04      	svc	4
   23bc6:	b019      	add	sp, #100	@ 0x64
   23bc8:	bdf0      	pop	{r4, r5, r6, r7, pc}
   23bca:	20f3      	movs	r0, #243	@ 0xf3
   23bcc:	2108      	movs	r1, #8
   23bce:	2200      	movs	r2, #0
   23bd0:	4613      	mov	r3, r2
   23bd2:	df03      	svc	3
   23bd4:	b019      	add	sp, #100	@ 0x64
   23bd6:	bdf0      	pop	{r4, r5, r6, r7, pc}
   23bd8:	a804      	add	r0, sp, #16
   23bda:	7800      	ldrb	r0, [r0, #0]
   23bdc:	2802      	cmp	r0, #2
   23bde:	d00c      	beq.n	23bfa <_ZN20complex_dynamic_type3app17h823dcd5e14353519E+0xe6>
   23be0:	2803      	cmp	r0, #3
   23be2:	d105      	bne.n	23bf0 <_ZN20complex_dynamic_type3app17h823dcd5e14353519E+0xdc>
   23be4:	20f3      	movs	r0, #243	@ 0xf3
   23be6:	2108      	movs	r1, #8
   23be8:	2200      	movs	r2, #0
   23bea:	4613      	mov	r3, r2
   23bec:	df03      	svc	3
   23bee:	e004      	b.n	23bfa <_ZN20complex_dynamic_type3app17h823dcd5e14353519E+0xe6>
   23bf0:	20f3      	movs	r0, #243	@ 0xf3
   23bf2:	2108      	movs	r1, #8
   23bf4:	2200      	movs	r2, #0
   23bf6:	4613      	mov	r3, r2
   23bf8:	df04      	svc	4
   23bfa:	a804      	add	r0, sp, #16
   23bfc:	9900      	ldr	r1, [sp, #0]
   23bfe:	7001      	strb	r1, [r0, #0]
   23c00:	a80b      	add	r0, sp, #44	@ 0x2c
   23c02:	7800      	ldrb	r0, [r0, #0]
   23c04:	2804      	cmp	r0, #4
   23c06:	d007      	beq.n	23c18 <_ZN20complex_dynamic_type3app17h823dcd5e14353519E+0x104>
   23c08:	2803      	cmp	r0, #3
   23c0a:	d11d      	bne.n	23c48 <_ZN20complex_dynamic_type3app17h823dcd5e14353519E+0x134>
   23c0c:	20f3      	movs	r0, #243	@ 0xf3
   23c0e:	2104      	movs	r1, #4
   23c10:	2200      	movs	r2, #0
   23c12:	4613      	mov	r3, r2
   23c14:	df03      	svc	3
   23c16:	e004      	b.n	23c22 <_ZN20complex_dynamic_type3app17h823dcd5e14353519E+0x10e>
   23c18:	20f3      	movs	r0, #243	@ 0xf3
   23c1a:	2104      	movs	r1, #4
   23c1c:	2200      	movs	r2, #0
   23c1e:	4613      	mov	r3, r2
   23c20:	df04      	svc	4
   23c22:	a804      	add	r0, sp, #16
   23c24:	7804      	ldrb	r4, [r0, #0]
   23c26:	1c68      	adds	r0, r5, #1
   23c28:	2236      	movs	r2, #54	@ 0x36
   23c2a:	9901      	ldr	r1, [sp, #4]
   23c2c:	f007 fa6a 	bl	2b104 <__aeabi_memcpy>
   23c30:	702e      	strb	r6, [r5, #0]
   23c32:	2c02      	cmp	r4, #2
   23c34:	d006      	beq.n	23c44 <_ZN20complex_dynamic_type3app17h823dcd5e14353519E+0x130>
   23c36:	20f3      	movs	r0, #243	@ 0xf3
   23c38:	2108      	movs	r1, #8
   23c3a:	2200      	movs	r2, #0
   23c3c:	4613      	mov	r3, r2
   23c3e:	2c04      	cmp	r4, #4
   23c40:	d10a      	bne.n	23c58 <_ZN20complex_dynamic_type3app17h823dcd5e14353519E+0x144>
   23c42:	df04      	svc	4
   23c44:	b019      	add	sp, #100	@ 0x64
   23c46:	bdf0      	pop	{r4, r5, r6, r7, pc}
   23c48:	1c68      	adds	r0, r5, #1
   23c4a:	2236      	movs	r2, #54	@ 0x36
   23c4c:	4621      	mov	r1, r4
   23c4e:	f007 fa59 	bl	2b104 <__aeabi_memcpy>
   23c52:	702e      	strb	r6, [r5, #0]
   23c54:	b019      	add	sp, #100	@ 0x64
   23c56:	bdf0      	pop	{r4, r5, r6, r7, pc}
   23c58:	df03      	svc	3
   23c5a:	b019      	add	sp, #100	@ 0x64
   23c5c:	bdf0      	pop	{r4, r5, r6, r7, pc}
   23c5e:	d4d4      	bmi.n	23c0a <_ZN20complex_dynamic_type3app17h823dcd5e14353519E+0xf6>

00023c60 <_ZN20complex_dynamic_type3app17h86b04bdbbd8b2cb1E>:
   23c60:	b5f0      	push	{r4, r5, r6, r7, lr}
   23c62:	af03      	add	r7, sp, #12
   23c64:	b0a3      	sub	sp, #140	@ 0x8c
   23c66:	9004      	str	r0, [sp, #16]
   23c68:	a805      	add	r0, sp, #20
   23c6a:	2402      	movs	r4, #2
   23c6c:	7004      	strb	r4, [r0, #0]
   23c6e:	1c46      	adds	r6, r0, #1
   23c70:	2227      	movs	r2, #39	@ 0x27
   23c72:	9203      	str	r2, [sp, #12]
   23c74:	4630      	mov	r0, r6
   23c76:	f007 fa45 	bl	2b104 <__aeabi_memcpy>
   23c7a:	ad0f      	add	r5, sp, #60	@ 0x3c
   23c7c:	1c68      	adds	r0, r5, #1
   23c7e:	214f      	movs	r1, #79	@ 0x4f
   23c80:	9002      	str	r0, [sp, #8]
   23c82:	f007 f87f 	bl	2ad84 <__aeabi_memclr>
   23c86:	9401      	str	r4, [sp, #4]
   23c88:	702c      	strb	r4, [r5, #0]
   23c8a:	4848      	ldr	r0, [pc, #288]	@ (23dac <_ZN20complex_dynamic_type3app17h86b04bdbbd8b2cb1E+0x14c>)
   23c8c:	2109      	movs	r1, #9
   23c8e:	4632      	mov	r2, r6
   23c90:	9b03      	ldr	r3, [sp, #12]
   23c92:	df04      	svc	4
   23c94:	2802      	cmp	r0, #2
   23c96:	d104      	bne.n	23ca2 <_ZN20complex_dynamic_type3app17h86b04bdbbd8b2cb1E+0x42>
   23c98:	2001      	movs	r0, #1
   23c9a:	9a04      	ldr	r2, [sp, #16]
   23c9c:	7010      	strb	r0, [r2, #0]
   23c9e:	6051      	str	r1, [r2, #4]
   23ca0:	e02d      	b.n	23cfe <_ZN20complex_dynamic_type3app17h86b04bdbbd8b2cb1E+0x9e>
   23ca2:	9d04      	ldr	r5, [sp, #16]
   23ca4:	a805      	add	r0, sp, #20
   23ca6:	2104      	movs	r1, #4
   23ca8:	7001      	strb	r1, [r0, #0]
   23caa:	4840      	ldr	r0, [pc, #256]	@ (23dac <_ZN20complex_dynamic_type3app17h86b04bdbbd8b2cb1E+0x14c>)
   23cac:	2100      	movs	r1, #0
   23cae:	234f      	movs	r3, #79	@ 0x4f
   23cb0:	9c02      	ldr	r4, [sp, #8]
   23cb2:	4622      	mov	r2, r4
   23cb4:	df03      	svc	3
   23cb6:	2802      	cmp	r0, #2
   23cb8:	d10e      	bne.n	23cd8 <_ZN20complex_dynamic_type3app17h86b04bdbbd8b2cb1E+0x78>
   23cba:	2001      	movs	r0, #1
   23cbc:	7028      	strb	r0, [r5, #0]
   23cbe:	6069      	str	r1, [r5, #4]
   23cc0:	a80f      	add	r0, sp, #60	@ 0x3c
   23cc2:	7800      	ldrb	r0, [r0, #0]
   23cc4:	2802      	cmp	r0, #2
   23cc6:	d01a      	beq.n	23cfe <_ZN20complex_dynamic_type3app17h86b04bdbbd8b2cb1E+0x9e>
   23cc8:	2803      	cmp	r0, #3
   23cca:	d013      	beq.n	23cf4 <_ZN20complex_dynamic_type3app17h86b04bdbbd8b2cb1E+0x94>
   23ccc:	4837      	ldr	r0, [pc, #220]	@ (23dac <_ZN20complex_dynamic_type3app17h86b04bdbbd8b2cb1E+0x14c>)
   23cce:	2100      	movs	r1, #0
   23cd0:	460a      	mov	r2, r1
   23cd2:	460b      	mov	r3, r1
   23cd4:	df04      	svc	4
   23cd6:	e012      	b.n	23cfe <_ZN20complex_dynamic_type3app17h86b04bdbbd8b2cb1E+0x9e>
   23cd8:	a80f      	add	r0, sp, #60	@ 0x3c
   23cda:	2103      	movs	r1, #3
   23cdc:	7001      	strb	r1, [r0, #0]
   23cde:	4833      	ldr	r0, [pc, #204]	@ (23dac <_ZN20complex_dynamic_type3app17h86b04bdbbd8b2cb1E+0x14c>)
   23ce0:	2109      	movs	r1, #9
   23ce2:	2600      	movs	r6, #0
   23ce4:	4632      	mov	r2, r6
   23ce6:	4633      	mov	r3, r6
   23ce8:	df02      	svc	2
   23cea:	2880      	cmp	r0, #128	@ 0x80
   23cec:	d21b      	bcs.n	23d26 <_ZN20complex_dynamic_type3app17h86b04bdbbd8b2cb1E+0xc6>
   23cee:	2001      	movs	r0, #1
   23cf0:	7028      	strb	r0, [r5, #0]
   23cf2:	6069      	str	r1, [r5, #4]
   23cf4:	482d      	ldr	r0, [pc, #180]	@ (23dac <_ZN20complex_dynamic_type3app17h86b04bdbbd8b2cb1E+0x14c>)
   23cf6:	2100      	movs	r1, #0
   23cf8:	460a      	mov	r2, r1
   23cfa:	460b      	mov	r3, r1
   23cfc:	df03      	svc	3
   23cfe:	a805      	add	r0, sp, #20
   23d00:	7800      	ldrb	r0, [r0, #0]
   23d02:	2802      	cmp	r0, #2
   23d04:	d045      	beq.n	23d92 <_ZN20complex_dynamic_type3app17h86b04bdbbd8b2cb1E+0x132>
   23d06:	2804      	cmp	r0, #4
   23d08:	d106      	bne.n	23d18 <_ZN20complex_dynamic_type3app17h86b04bdbbd8b2cb1E+0xb8>
   23d0a:	4828      	ldr	r0, [pc, #160]	@ (23dac <_ZN20complex_dynamic_type3app17h86b04bdbbd8b2cb1E+0x14c>)
   23d0c:	2109      	movs	r1, #9
   23d0e:	2200      	movs	r2, #0
   23d10:	4613      	mov	r3, r2
   23d12:	df04      	svc	4
   23d14:	b023      	add	sp, #140	@ 0x8c
   23d16:	bdf0      	pop	{r4, r5, r6, r7, pc}
   23d18:	4824      	ldr	r0, [pc, #144]	@ (23dac <_ZN20complex_dynamic_type3app17h86b04bdbbd8b2cb1E+0x14c>)
   23d1a:	2109      	movs	r1, #9
   23d1c:	2200      	movs	r2, #0
   23d1e:	4613      	mov	r3, r2
   23d20:	df03      	svc	3
   23d22:	b023      	add	sp, #140	@ 0x8c
   23d24:	bdf0      	pop	{r4, r5, r6, r7, pc}
   23d26:	a805      	add	r0, sp, #20
   23d28:	7800      	ldrb	r0, [r0, #0]
   23d2a:	2802      	cmp	r0, #2
   23d2c:	d00c      	beq.n	23d48 <_ZN20complex_dynamic_type3app17h86b04bdbbd8b2cb1E+0xe8>
   23d2e:	2803      	cmp	r0, #3
   23d30:	d105      	bne.n	23d3e <_ZN20complex_dynamic_type3app17h86b04bdbbd8b2cb1E+0xde>
   23d32:	481e      	ldr	r0, [pc, #120]	@ (23dac <_ZN20complex_dynamic_type3app17h86b04bdbbd8b2cb1E+0x14c>)
   23d34:	2109      	movs	r1, #9
   23d36:	2200      	movs	r2, #0
   23d38:	4613      	mov	r3, r2
   23d3a:	df03      	svc	3
   23d3c:	e004      	b.n	23d48 <_ZN20complex_dynamic_type3app17h86b04bdbbd8b2cb1E+0xe8>
   23d3e:	481b      	ldr	r0, [pc, #108]	@ (23dac <_ZN20complex_dynamic_type3app17h86b04bdbbd8b2cb1E+0x14c>)
   23d40:	2109      	movs	r1, #9
   23d42:	2200      	movs	r2, #0
   23d44:	4613      	mov	r3, r2
   23d46:	df04      	svc	4
   23d48:	a805      	add	r0, sp, #20
   23d4a:	9901      	ldr	r1, [sp, #4]
   23d4c:	7001      	strb	r1, [r0, #0]
   23d4e:	a80f      	add	r0, sp, #60	@ 0x3c
   23d50:	7800      	ldrb	r0, [r0, #0]
   23d52:	2804      	cmp	r0, #4
   23d54:	d007      	beq.n	23d66 <_ZN20complex_dynamic_type3app17h86b04bdbbd8b2cb1E+0x106>
   23d56:	2803      	cmp	r0, #3
   23d58:	d11d      	bne.n	23d96 <_ZN20complex_dynamic_type3app17h86b04bdbbd8b2cb1E+0x136>
   23d5a:	4814      	ldr	r0, [pc, #80]	@ (23dac <_ZN20complex_dynamic_type3app17h86b04bdbbd8b2cb1E+0x14c>)
   23d5c:	2100      	movs	r1, #0
   23d5e:	460a      	mov	r2, r1
   23d60:	460b      	mov	r3, r1
   23d62:	df03      	svc	3
   23d64:	e004      	b.n	23d70 <_ZN20complex_dynamic_type3app17h86b04bdbbd8b2cb1E+0x110>
   23d66:	4811      	ldr	r0, [pc, #68]	@ (23dac <_ZN20complex_dynamic_type3app17h86b04bdbbd8b2cb1E+0x14c>)
   23d68:	2100      	movs	r1, #0
   23d6a:	460a      	mov	r2, r1
   23d6c:	460b      	mov	r3, r1
   23d6e:	df04      	svc	4
   23d70:	a805      	add	r0, sp, #20
   23d72:	7804      	ldrb	r4, [r0, #0]
   23d74:	1c68      	adds	r0, r5, #1
   23d76:	224f      	movs	r2, #79	@ 0x4f
   23d78:	9902      	ldr	r1, [sp, #8]
   23d7a:	f007 f9c3 	bl	2b104 <__aeabi_memcpy>
   23d7e:	702e      	strb	r6, [r5, #0]
   23d80:	2c02      	cmp	r4, #2
   23d82:	d006      	beq.n	23d92 <_ZN20complex_dynamic_type3app17h86b04bdbbd8b2cb1E+0x132>
   23d84:	4809      	ldr	r0, [pc, #36]	@ (23dac <_ZN20complex_dynamic_type3app17h86b04bdbbd8b2cb1E+0x14c>)
   23d86:	2109      	movs	r1, #9
   23d88:	2200      	movs	r2, #0
   23d8a:	4613      	mov	r3, r2
   23d8c:	2c04      	cmp	r4, #4
   23d8e:	d10a      	bne.n	23da6 <_ZN20complex_dynamic_type3app17h86b04bdbbd8b2cb1E+0x146>
   23d90:	df04      	svc	4
   23d92:	b023      	add	sp, #140	@ 0x8c
   23d94:	bdf0      	pop	{r4, r5, r6, r7, pc}
   23d96:	1c68      	adds	r0, r5, #1
   23d98:	224f      	movs	r2, #79	@ 0x4f
   23d9a:	4621      	mov	r1, r4
   23d9c:	f007 f9b2 	bl	2b104 <__aeabi_memcpy>
   23da0:	702e      	strb	r6, [r5, #0]
   23da2:	b023      	add	sp, #140	@ 0x8c
   23da4:	bdf0      	pop	{r4, r5, r6, r7, pc}
   23da6:	df03      	svc	3
   23da8:	b023      	add	sp, #140	@ 0x8c
   23daa:	bdf0      	pop	{r4, r5, r6, r7, pc}
   23dac:	00000b4c 	.word	0x00000b4c

00023db0 <_ZN20complex_dynamic_type3app17h8930452fe4e2a3a0E>:
   23db0:	b5f0      	push	{r4, r5, r6, r7, lr}
   23db2:	af03      	add	r7, sp, #12
   23db4:	b09d      	sub	sp, #116	@ 0x74
   23db6:	9003      	str	r0, [sp, #12]
   23db8:	a804      	add	r0, sp, #16
   23dba:	2402      	movs	r4, #2
   23dbc:	7004      	strb	r4, [r0, #0]
   23dbe:	1c46      	adds	r6, r0, #1
   23dc0:	2251      	movs	r2, #81	@ 0x51
   23dc2:	9202      	str	r2, [sp, #8]
   23dc4:	4630      	mov	r0, r6
   23dc6:	f007 f99d 	bl	2b104 <__aeabi_memcpy>
   23dca:	ad19      	add	r5, sp, #100	@ 0x64
   23dcc:	1c68      	adds	r0, r5, #1
   23dce:	210f      	movs	r1, #15
   23dd0:	9001      	str	r0, [sp, #4]
   23dd2:	f006 ffd7 	bl	2ad84 <__aeabi_memclr>
   23dd6:	9400      	str	r4, [sp, #0]
   23dd8:	702c      	strb	r4, [r5, #0]
   23dda:	4848      	ldr	r0, [pc, #288]	@ (23efc <_ZN20complex_dynamic_type3app17h8930452fe4e2a3a0E+0x14c>)
   23ddc:	2100      	movs	r1, #0
   23dde:	4632      	mov	r2, r6
   23de0:	9b02      	ldr	r3, [sp, #8]
   23de2:	df04      	svc	4
   23de4:	2802      	cmp	r0, #2
   23de6:	d104      	bne.n	23df2 <_ZN20complex_dynamic_type3app17h8930452fe4e2a3a0E+0x42>
   23de8:	2001      	movs	r0, #1
   23dea:	9a03      	ldr	r2, [sp, #12]
   23dec:	7010      	strb	r0, [r2, #0]
   23dee:	6051      	str	r1, [r2, #4]
   23df0:	e02c      	b.n	23e4c <_ZN20complex_dynamic_type3app17h8930452fe4e2a3a0E+0x9c>
   23df2:	9d03      	ldr	r5, [sp, #12]
   23df4:	a804      	add	r0, sp, #16
   23df6:	2104      	movs	r1, #4
   23df8:	7001      	strb	r1, [r0, #0]
   23dfa:	4840      	ldr	r0, [pc, #256]	@ (23efc <_ZN20complex_dynamic_type3app17h8930452fe4e2a3a0E+0x14c>)
   23dfc:	2403      	movs	r4, #3
   23dfe:	230f      	movs	r3, #15
   23e00:	4621      	mov	r1, r4
   23e02:	9a01      	ldr	r2, [sp, #4]
   23e04:	df03      	svc	3
   23e06:	2802      	cmp	r0, #2
   23e08:	d10e      	bne.n	23e28 <_ZN20complex_dynamic_type3app17h8930452fe4e2a3a0E+0x78>
   23e0a:	2001      	movs	r0, #1
   23e0c:	7028      	strb	r0, [r5, #0]
   23e0e:	6069      	str	r1, [r5, #4]
   23e10:	a819      	add	r0, sp, #100	@ 0x64
   23e12:	7800      	ldrb	r0, [r0, #0]
   23e14:	2802      	cmp	r0, #2
   23e16:	d019      	beq.n	23e4c <_ZN20complex_dynamic_type3app17h8930452fe4e2a3a0E+0x9c>
   23e18:	2803      	cmp	r0, #3
   23e1a:	d012      	beq.n	23e42 <_ZN20complex_dynamic_type3app17h8930452fe4e2a3a0E+0x92>
   23e1c:	4837      	ldr	r0, [pc, #220]	@ (23efc <_ZN20complex_dynamic_type3app17h8930452fe4e2a3a0E+0x14c>)
   23e1e:	2103      	movs	r1, #3
   23e20:	2200      	movs	r2, #0
   23e22:	4613      	mov	r3, r2
   23e24:	df04      	svc	4
   23e26:	e011      	b.n	23e4c <_ZN20complex_dynamic_type3app17h8930452fe4e2a3a0E+0x9c>
   23e28:	a819      	add	r0, sp, #100	@ 0x64
   23e2a:	7004      	strb	r4, [r0, #0]
   23e2c:	4833      	ldr	r0, [pc, #204]	@ (23efc <_ZN20complex_dynamic_type3app17h8930452fe4e2a3a0E+0x14c>)
   23e2e:	2600      	movs	r6, #0
   23e30:	4631      	mov	r1, r6
   23e32:	4622      	mov	r2, r4
   23e34:	4633      	mov	r3, r6
   23e36:	df02      	svc	2
   23e38:	2880      	cmp	r0, #128	@ 0x80
   23e3a:	d21b      	bcs.n	23e74 <_ZN20complex_dynamic_type3app17h8930452fe4e2a3a0E+0xc4>
   23e3c:	2001      	movs	r0, #1
   23e3e:	7028      	strb	r0, [r5, #0]
   23e40:	6069      	str	r1, [r5, #4]
   23e42:	482e      	ldr	r0, [pc, #184]	@ (23efc <_ZN20complex_dynamic_type3app17h8930452fe4e2a3a0E+0x14c>)
   23e44:	2103      	movs	r1, #3
   23e46:	2200      	movs	r2, #0
   23e48:	4613      	mov	r3, r2
   23e4a:	df03      	svc	3
   23e4c:	a804      	add	r0, sp, #16
   23e4e:	7800      	ldrb	r0, [r0, #0]
   23e50:	2802      	cmp	r0, #2
   23e52:	d045      	beq.n	23ee0 <_ZN20complex_dynamic_type3app17h8930452fe4e2a3a0E+0x130>
   23e54:	2804      	cmp	r0, #4
   23e56:	d106      	bne.n	23e66 <_ZN20complex_dynamic_type3app17h8930452fe4e2a3a0E+0xb6>
   23e58:	4828      	ldr	r0, [pc, #160]	@ (23efc <_ZN20complex_dynamic_type3app17h8930452fe4e2a3a0E+0x14c>)
   23e5a:	2100      	movs	r1, #0
   23e5c:	460a      	mov	r2, r1
   23e5e:	460b      	mov	r3, r1
   23e60:	df04      	svc	4
   23e62:	b01d      	add	sp, #116	@ 0x74
   23e64:	bdf0      	pop	{r4, r5, r6, r7, pc}
   23e66:	4825      	ldr	r0, [pc, #148]	@ (23efc <_ZN20complex_dynamic_type3app17h8930452fe4e2a3a0E+0x14c>)
   23e68:	2100      	movs	r1, #0
   23e6a:	460a      	mov	r2, r1
   23e6c:	460b      	mov	r3, r1
   23e6e:	df03      	svc	3
   23e70:	b01d      	add	sp, #116	@ 0x74
   23e72:	bdf0      	pop	{r4, r5, r6, r7, pc}
   23e74:	a804      	add	r0, sp, #16
   23e76:	7800      	ldrb	r0, [r0, #0]
   23e78:	2802      	cmp	r0, #2
   23e7a:	d00c      	beq.n	23e96 <_ZN20complex_dynamic_type3app17h8930452fe4e2a3a0E+0xe6>
   23e7c:	2803      	cmp	r0, #3
   23e7e:	d105      	bne.n	23e8c <_ZN20complex_dynamic_type3app17h8930452fe4e2a3a0E+0xdc>
   23e80:	481e      	ldr	r0, [pc, #120]	@ (23efc <_ZN20complex_dynamic_type3app17h8930452fe4e2a3a0E+0x14c>)
   23e82:	2100      	movs	r1, #0
   23e84:	460a      	mov	r2, r1
   23e86:	460b      	mov	r3, r1
   23e88:	df03      	svc	3
   23e8a:	e004      	b.n	23e96 <_ZN20complex_dynamic_type3app17h8930452fe4e2a3a0E+0xe6>
   23e8c:	481b      	ldr	r0, [pc, #108]	@ (23efc <_ZN20complex_dynamic_type3app17h8930452fe4e2a3a0E+0x14c>)
   23e8e:	2100      	movs	r1, #0
   23e90:	460a      	mov	r2, r1
   23e92:	460b      	mov	r3, r1
   23e94:	df04      	svc	4
   23e96:	a804      	add	r0, sp, #16
   23e98:	9900      	ldr	r1, [sp, #0]
   23e9a:	7001      	strb	r1, [r0, #0]
   23e9c:	a819      	add	r0, sp, #100	@ 0x64
   23e9e:	7800      	ldrb	r0, [r0, #0]
   23ea0:	2804      	cmp	r0, #4
   23ea2:	d007      	beq.n	23eb4 <_ZN20complex_dynamic_type3app17h8930452fe4e2a3a0E+0x104>
   23ea4:	2803      	cmp	r0, #3
   23ea6:	d11d      	bne.n	23ee4 <_ZN20complex_dynamic_type3app17h8930452fe4e2a3a0E+0x134>
   23ea8:	4814      	ldr	r0, [pc, #80]	@ (23efc <_ZN20complex_dynamic_type3app17h8930452fe4e2a3a0E+0x14c>)
   23eaa:	2103      	movs	r1, #3
   23eac:	2200      	movs	r2, #0
   23eae:	4613      	mov	r3, r2
   23eb0:	df03      	svc	3
   23eb2:	e004      	b.n	23ebe <_ZN20complex_dynamic_type3app17h8930452fe4e2a3a0E+0x10e>
   23eb4:	4811      	ldr	r0, [pc, #68]	@ (23efc <_ZN20complex_dynamic_type3app17h8930452fe4e2a3a0E+0x14c>)
   23eb6:	2103      	movs	r1, #3
   23eb8:	2200      	movs	r2, #0
   23eba:	4613      	mov	r3, r2
   23ebc:	df04      	svc	4
   23ebe:	a804      	add	r0, sp, #16
   23ec0:	7804      	ldrb	r4, [r0, #0]
   23ec2:	1c68      	adds	r0, r5, #1
   23ec4:	220f      	movs	r2, #15
   23ec6:	9901      	ldr	r1, [sp, #4]
   23ec8:	f007 f91c 	bl	2b104 <__aeabi_memcpy>
   23ecc:	702e      	strb	r6, [r5, #0]
   23ece:	2c02      	cmp	r4, #2
   23ed0:	d006      	beq.n	23ee0 <_ZN20complex_dynamic_type3app17h8930452fe4e2a3a0E+0x130>
   23ed2:	480a      	ldr	r0, [pc, #40]	@ (23efc <_ZN20complex_dynamic_type3app17h8930452fe4e2a3a0E+0x14c>)
   23ed4:	2100      	movs	r1, #0
   23ed6:	460a      	mov	r2, r1
   23ed8:	460b      	mov	r3, r1
   23eda:	2c04      	cmp	r4, #4
   23edc:	d10a      	bne.n	23ef4 <_ZN20complex_dynamic_type3app17h8930452fe4e2a3a0E+0x144>
   23ede:	df04      	svc	4
   23ee0:	b01d      	add	sp, #116	@ 0x74
   23ee2:	bdf0      	pop	{r4, r5, r6, r7, pc}
   23ee4:	1c68      	adds	r0, r5, #1
   23ee6:	220f      	movs	r2, #15
   23ee8:	9901      	ldr	r1, [sp, #4]
   23eea:	f007 f90b 	bl	2b104 <__aeabi_memcpy>
   23eee:	702e      	strb	r6, [r5, #0]
   23ef0:	b01d      	add	sp, #116	@ 0x74
   23ef2:	bdf0      	pop	{r4, r5, r6, r7, pc}
   23ef4:	df03      	svc	3
   23ef6:	b01d      	add	sp, #116	@ 0x74
   23ef8:	bdf0      	pop	{r4, r5, r6, r7, pc}
   23efa:	46c0      	nop			@ (mov r8, r8)
   23efc:	000013bf 	.word	0x000013bf

00023f00 <_ZN20complex_dynamic_type3app17h898d237385fc1c64E>:
   23f00:	b5f0      	push	{r4, r5, r6, r7, lr}
   23f02:	af03      	add	r7, sp, #12
   23f04:	b091      	sub	sp, #68	@ 0x44
   23f06:	9003      	str	r0, [sp, #12]
   23f08:	a804      	add	r0, sp, #16
   23f0a:	2402      	movs	r4, #2
   23f0c:	7004      	strb	r4, [r0, #0]
   23f0e:	1c46      	adds	r6, r0, #1
   23f10:	220d      	movs	r2, #13
   23f12:	9202      	str	r2, [sp, #8]
   23f14:	4630      	mov	r0, r6
   23f16:	f007 f8f5 	bl	2b104 <__aeabi_memcpy>
   23f1a:	ad08      	add	r5, sp, #32
   23f1c:	1c68      	adds	r0, r5, #1
   23f1e:	2121      	movs	r1, #33	@ 0x21
   23f20:	9001      	str	r0, [sp, #4]
   23f22:	f006 ff2f 	bl	2ad84 <__aeabi_memclr>
   23f26:	9400      	str	r4, [sp, #0]
   23f28:	702c      	strb	r4, [r5, #0]
   23f2a:	4848      	ldr	r0, [pc, #288]	@ (2404c <_ZN20complex_dynamic_type3app17h898d237385fc1c64E+0x14c>)
   23f2c:	2100      	movs	r1, #0
   23f2e:	4632      	mov	r2, r6
   23f30:	9b02      	ldr	r3, [sp, #8]
   23f32:	df04      	svc	4
   23f34:	2802      	cmp	r0, #2
   23f36:	d104      	bne.n	23f42 <_ZN20complex_dynamic_type3app17h898d237385fc1c64E+0x42>
   23f38:	2001      	movs	r0, #1
   23f3a:	9a03      	ldr	r2, [sp, #12]
   23f3c:	7010      	strb	r0, [r2, #0]
   23f3e:	6051      	str	r1, [r2, #4]
   23f40:	e02d      	b.n	23f9e <_ZN20complex_dynamic_type3app17h898d237385fc1c64E+0x9e>
   23f42:	9d03      	ldr	r5, [sp, #12]
   23f44:	a804      	add	r0, sp, #16
   23f46:	2104      	movs	r1, #4
   23f48:	7001      	strb	r1, [r0, #0]
   23f4a:	4840      	ldr	r0, [pc, #256]	@ (2404c <_ZN20complex_dynamic_type3app17h898d237385fc1c64E+0x14c>)
   23f4c:	2100      	movs	r1, #0
   23f4e:	2321      	movs	r3, #33	@ 0x21
   23f50:	9c01      	ldr	r4, [sp, #4]
   23f52:	4622      	mov	r2, r4
   23f54:	df03      	svc	3
   23f56:	2802      	cmp	r0, #2
   23f58:	d10e      	bne.n	23f78 <_ZN20complex_dynamic_type3app17h898d237385fc1c64E+0x78>
   23f5a:	2001      	movs	r0, #1
   23f5c:	7028      	strb	r0, [r5, #0]
   23f5e:	6069      	str	r1, [r5, #4]
   23f60:	a808      	add	r0, sp, #32
   23f62:	7800      	ldrb	r0, [r0, #0]
   23f64:	2802      	cmp	r0, #2
   23f66:	d01a      	beq.n	23f9e <_ZN20complex_dynamic_type3app17h898d237385fc1c64E+0x9e>
   23f68:	2803      	cmp	r0, #3
   23f6a:	d013      	beq.n	23f94 <_ZN20complex_dynamic_type3app17h898d237385fc1c64E+0x94>
   23f6c:	4837      	ldr	r0, [pc, #220]	@ (2404c <_ZN20complex_dynamic_type3app17h898d237385fc1c64E+0x14c>)
   23f6e:	2100      	movs	r1, #0
   23f70:	460a      	mov	r2, r1
   23f72:	460b      	mov	r3, r1
   23f74:	df04      	svc	4
   23f76:	e012      	b.n	23f9e <_ZN20complex_dynamic_type3app17h898d237385fc1c64E+0x9e>
   23f78:	a808      	add	r0, sp, #32
   23f7a:	2103      	movs	r1, #3
   23f7c:	7001      	strb	r1, [r0, #0]
   23f7e:	4833      	ldr	r0, [pc, #204]	@ (2404c <_ZN20complex_dynamic_type3app17h898d237385fc1c64E+0x14c>)
   23f80:	2600      	movs	r6, #0
   23f82:	4631      	mov	r1, r6
   23f84:	4632      	mov	r2, r6
   23f86:	4633      	mov	r3, r6
   23f88:	df02      	svc	2
   23f8a:	2880      	cmp	r0, #128	@ 0x80
   23f8c:	d21b      	bcs.n	23fc6 <_ZN20complex_dynamic_type3app17h898d237385fc1c64E+0xc6>
   23f8e:	2001      	movs	r0, #1
   23f90:	7028      	strb	r0, [r5, #0]
   23f92:	6069      	str	r1, [r5, #4]
   23f94:	482d      	ldr	r0, [pc, #180]	@ (2404c <_ZN20complex_dynamic_type3app17h898d237385fc1c64E+0x14c>)
   23f96:	2100      	movs	r1, #0
   23f98:	460a      	mov	r2, r1
   23f9a:	460b      	mov	r3, r1
   23f9c:	df03      	svc	3
   23f9e:	a804      	add	r0, sp, #16
   23fa0:	7800      	ldrb	r0, [r0, #0]
   23fa2:	2802      	cmp	r0, #2
   23fa4:	d045      	beq.n	24032 <_ZN20complex_dynamic_type3app17h898d237385fc1c64E+0x132>
   23fa6:	2804      	cmp	r0, #4
   23fa8:	d106      	bne.n	23fb8 <_ZN20complex_dynamic_type3app17h898d237385fc1c64E+0xb8>
   23faa:	4828      	ldr	r0, [pc, #160]	@ (2404c <_ZN20complex_dynamic_type3app17h898d237385fc1c64E+0x14c>)
   23fac:	2100      	movs	r1, #0
   23fae:	460a      	mov	r2, r1
   23fb0:	460b      	mov	r3, r1
   23fb2:	df04      	svc	4
   23fb4:	b011      	add	sp, #68	@ 0x44
   23fb6:	bdf0      	pop	{r4, r5, r6, r7, pc}
   23fb8:	4824      	ldr	r0, [pc, #144]	@ (2404c <_ZN20complex_dynamic_type3app17h898d237385fc1c64E+0x14c>)
   23fba:	2100      	movs	r1, #0
   23fbc:	460a      	mov	r2, r1
   23fbe:	460b      	mov	r3, r1
   23fc0:	df03      	svc	3
   23fc2:	b011      	add	sp, #68	@ 0x44
   23fc4:	bdf0      	pop	{r4, r5, r6, r7, pc}
   23fc6:	a804      	add	r0, sp, #16
   23fc8:	7800      	ldrb	r0, [r0, #0]
   23fca:	2802      	cmp	r0, #2
   23fcc:	d00c      	beq.n	23fe8 <_ZN20complex_dynamic_type3app17h898d237385fc1c64E+0xe8>
   23fce:	2803      	cmp	r0, #3
   23fd0:	d105      	bne.n	23fde <_ZN20complex_dynamic_type3app17h898d237385fc1c64E+0xde>
   23fd2:	481e      	ldr	r0, [pc, #120]	@ (2404c <_ZN20complex_dynamic_type3app17h898d237385fc1c64E+0x14c>)
   23fd4:	2100      	movs	r1, #0
   23fd6:	460a      	mov	r2, r1
   23fd8:	460b      	mov	r3, r1
   23fda:	df03      	svc	3
   23fdc:	e004      	b.n	23fe8 <_ZN20complex_dynamic_type3app17h898d237385fc1c64E+0xe8>
   23fde:	481b      	ldr	r0, [pc, #108]	@ (2404c <_ZN20complex_dynamic_type3app17h898d237385fc1c64E+0x14c>)
   23fe0:	2100      	movs	r1, #0
   23fe2:	460a      	mov	r2, r1
   23fe4:	460b      	mov	r3, r1
   23fe6:	df04      	svc	4
   23fe8:	a804      	add	r0, sp, #16
   23fea:	9900      	ldr	r1, [sp, #0]
   23fec:	7001      	strb	r1, [r0, #0]
   23fee:	a808      	add	r0, sp, #32
   23ff0:	7800      	ldrb	r0, [r0, #0]
   23ff2:	2804      	cmp	r0, #4
   23ff4:	d007      	beq.n	24006 <_ZN20complex_dynamic_type3app17h898d237385fc1c64E+0x106>
   23ff6:	2803      	cmp	r0, #3
   23ff8:	d11d      	bne.n	24036 <_ZN20complex_dynamic_type3app17h898d237385fc1c64E+0x136>
   23ffa:	4814      	ldr	r0, [pc, #80]	@ (2404c <_ZN20complex_dynamic_type3app17h898d237385fc1c64E+0x14c>)
   23ffc:	2100      	movs	r1, #0
   23ffe:	460a      	mov	r2, r1
   24000:	460b      	mov	r3, r1
   24002:	df03      	svc	3
   24004:	e004      	b.n	24010 <_ZN20complex_dynamic_type3app17h898d237385fc1c64E+0x110>
   24006:	4811      	ldr	r0, [pc, #68]	@ (2404c <_ZN20complex_dynamic_type3app17h898d237385fc1c64E+0x14c>)
   24008:	2100      	movs	r1, #0
   2400a:	460a      	mov	r2, r1
   2400c:	460b      	mov	r3, r1
   2400e:	df04      	svc	4
   24010:	a804      	add	r0, sp, #16
   24012:	7804      	ldrb	r4, [r0, #0]
   24014:	1c68      	adds	r0, r5, #1
   24016:	2221      	movs	r2, #33	@ 0x21
   24018:	9901      	ldr	r1, [sp, #4]
   2401a:	f007 f873 	bl	2b104 <__aeabi_memcpy>
   2401e:	702e      	strb	r6, [r5, #0]
   24020:	2c02      	cmp	r4, #2
   24022:	d006      	beq.n	24032 <_ZN20complex_dynamic_type3app17h898d237385fc1c64E+0x132>
   24024:	4809      	ldr	r0, [pc, #36]	@ (2404c <_ZN20complex_dynamic_type3app17h898d237385fc1c64E+0x14c>)
   24026:	2100      	movs	r1, #0
   24028:	460a      	mov	r2, r1
   2402a:	460b      	mov	r3, r1
   2402c:	2c04      	cmp	r4, #4
   2402e:	d10a      	bne.n	24046 <_ZN20complex_dynamic_type3app17h898d237385fc1c64E+0x146>
   24030:	df04      	svc	4
   24032:	b011      	add	sp, #68	@ 0x44
   24034:	bdf0      	pop	{r4, r5, r6, r7, pc}
   24036:	1c68      	adds	r0, r5, #1
   24038:	2221      	movs	r2, #33	@ 0x21
   2403a:	4621      	mov	r1, r4
   2403c:	f007 f862 	bl	2b104 <__aeabi_memcpy>
   24040:	702e      	strb	r6, [r5, #0]
   24042:	b011      	add	sp, #68	@ 0x44
   24044:	bdf0      	pop	{r4, r5, r6, r7, pc}
   24046:	df03      	svc	3
   24048:	b011      	add	sp, #68	@ 0x44
   2404a:	bdf0      	pop	{r4, r5, r6, r7, pc}
   2404c:	000016b0 	.word	0x000016b0

00024050 <_ZN20complex_dynamic_type3app17h8c7ab4ca06c25491E>:
   24050:	b5f0      	push	{r4, r5, r6, r7, lr}
   24052:	af03      	add	r7, sp, #12
   24054:	b097      	sub	sp, #92	@ 0x5c
   24056:	9004      	str	r0, [sp, #16]
   24058:	a805      	add	r0, sp, #20
   2405a:	2402      	movs	r4, #2
   2405c:	7004      	strb	r4, [r0, #0]
   2405e:	1c46      	adds	r6, r0, #1
   24060:	2229      	movs	r2, #41	@ 0x29
   24062:	9203      	str	r2, [sp, #12]
   24064:	4630      	mov	r0, r6
   24066:	f007 f84d 	bl	2b104 <__aeabi_memcpy>
   2406a:	ad10      	add	r5, sp, #64	@ 0x40
   2406c:	1c68      	adds	r0, r5, #1
   2406e:	211a      	movs	r1, #26
   24070:	9002      	str	r0, [sp, #8]
   24072:	f006 fe87 	bl	2ad84 <__aeabi_memclr>
   24076:	9401      	str	r4, [sp, #4]
   24078:	702c      	strb	r4, [r5, #0]
   2407a:	4848      	ldr	r0, [pc, #288]	@ (2419c <_ZN20complex_dynamic_type3app17h8c7ab4ca06c25491E+0x14c>)
   2407c:	2105      	movs	r1, #5
   2407e:	4632      	mov	r2, r6
   24080:	9b03      	ldr	r3, [sp, #12]
   24082:	df04      	svc	4
   24084:	2802      	cmp	r0, #2
   24086:	d104      	bne.n	24092 <_ZN20complex_dynamic_type3app17h8c7ab4ca06c25491E+0x42>
   24088:	2001      	movs	r0, #1
   2408a:	9a04      	ldr	r2, [sp, #16]
   2408c:	7010      	strb	r0, [r2, #0]
   2408e:	6051      	str	r1, [r2, #4]
   24090:	e02c      	b.n	240ec <_ZN20complex_dynamic_type3app17h8c7ab4ca06c25491E+0x9c>
   24092:	9d04      	ldr	r5, [sp, #16]
   24094:	a805      	add	r0, sp, #20
   24096:	2104      	movs	r1, #4
   24098:	7001      	strb	r1, [r0, #0]
   2409a:	4840      	ldr	r0, [pc, #256]	@ (2419c <_ZN20complex_dynamic_type3app17h8c7ab4ca06c25491E+0x14c>)
   2409c:	2403      	movs	r4, #3
   2409e:	231a      	movs	r3, #26
   240a0:	4621      	mov	r1, r4
   240a2:	9a02      	ldr	r2, [sp, #8]
   240a4:	df03      	svc	3
   240a6:	2802      	cmp	r0, #2
   240a8:	d10e      	bne.n	240c8 <_ZN20complex_dynamic_type3app17h8c7ab4ca06c25491E+0x78>
   240aa:	2001      	movs	r0, #1
   240ac:	7028      	strb	r0, [r5, #0]
   240ae:	6069      	str	r1, [r5, #4]
   240b0:	a810      	add	r0, sp, #64	@ 0x40
   240b2:	7800      	ldrb	r0, [r0, #0]
   240b4:	2802      	cmp	r0, #2
   240b6:	d019      	beq.n	240ec <_ZN20complex_dynamic_type3app17h8c7ab4ca06c25491E+0x9c>
   240b8:	2803      	cmp	r0, #3
   240ba:	d012      	beq.n	240e2 <_ZN20complex_dynamic_type3app17h8c7ab4ca06c25491E+0x92>
   240bc:	4837      	ldr	r0, [pc, #220]	@ (2419c <_ZN20complex_dynamic_type3app17h8c7ab4ca06c25491E+0x14c>)
   240be:	2103      	movs	r1, #3
   240c0:	2200      	movs	r2, #0
   240c2:	4613      	mov	r3, r2
   240c4:	df04      	svc	4
   240c6:	e011      	b.n	240ec <_ZN20complex_dynamic_type3app17h8c7ab4ca06c25491E+0x9c>
   240c8:	a810      	add	r0, sp, #64	@ 0x40
   240ca:	7004      	strb	r4, [r0, #0]
   240cc:	4833      	ldr	r0, [pc, #204]	@ (2419c <_ZN20complex_dynamic_type3app17h8c7ab4ca06c25491E+0x14c>)
   240ce:	2105      	movs	r1, #5
   240d0:	2600      	movs	r6, #0
   240d2:	4622      	mov	r2, r4
   240d4:	4633      	mov	r3, r6
   240d6:	df02      	svc	2
   240d8:	2880      	cmp	r0, #128	@ 0x80
   240da:	d21b      	bcs.n	24114 <_ZN20complex_dynamic_type3app17h8c7ab4ca06c25491E+0xc4>
   240dc:	2001      	movs	r0, #1
   240de:	7028      	strb	r0, [r5, #0]
   240e0:	6069      	str	r1, [r5, #4]
   240e2:	482e      	ldr	r0, [pc, #184]	@ (2419c <_ZN20complex_dynamic_type3app17h8c7ab4ca06c25491E+0x14c>)
   240e4:	2103      	movs	r1, #3
   240e6:	2200      	movs	r2, #0
   240e8:	4613      	mov	r3, r2
   240ea:	df03      	svc	3
   240ec:	a805      	add	r0, sp, #20
   240ee:	7800      	ldrb	r0, [r0, #0]
   240f0:	2802      	cmp	r0, #2
   240f2:	d045      	beq.n	24180 <_ZN20complex_dynamic_type3app17h8c7ab4ca06c25491E+0x130>
   240f4:	2804      	cmp	r0, #4
   240f6:	d106      	bne.n	24106 <_ZN20complex_dynamic_type3app17h8c7ab4ca06c25491E+0xb6>
   240f8:	4828      	ldr	r0, [pc, #160]	@ (2419c <_ZN20complex_dynamic_type3app17h8c7ab4ca06c25491E+0x14c>)
   240fa:	2105      	movs	r1, #5
   240fc:	2200      	movs	r2, #0
   240fe:	4613      	mov	r3, r2
   24100:	df04      	svc	4
   24102:	b017      	add	sp, #92	@ 0x5c
   24104:	bdf0      	pop	{r4, r5, r6, r7, pc}
   24106:	4825      	ldr	r0, [pc, #148]	@ (2419c <_ZN20complex_dynamic_type3app17h8c7ab4ca06c25491E+0x14c>)
   24108:	2105      	movs	r1, #5
   2410a:	2200      	movs	r2, #0
   2410c:	4613      	mov	r3, r2
   2410e:	df03      	svc	3
   24110:	b017      	add	sp, #92	@ 0x5c
   24112:	bdf0      	pop	{r4, r5, r6, r7, pc}
   24114:	a805      	add	r0, sp, #20
   24116:	7800      	ldrb	r0, [r0, #0]
   24118:	2802      	cmp	r0, #2
   2411a:	d00c      	beq.n	24136 <_ZN20complex_dynamic_type3app17h8c7ab4ca06c25491E+0xe6>
   2411c:	2803      	cmp	r0, #3
   2411e:	d105      	bne.n	2412c <_ZN20complex_dynamic_type3app17h8c7ab4ca06c25491E+0xdc>
   24120:	481e      	ldr	r0, [pc, #120]	@ (2419c <_ZN20complex_dynamic_type3app17h8c7ab4ca06c25491E+0x14c>)
   24122:	2105      	movs	r1, #5
   24124:	2200      	movs	r2, #0
   24126:	4613      	mov	r3, r2
   24128:	df03      	svc	3
   2412a:	e004      	b.n	24136 <_ZN20complex_dynamic_type3app17h8c7ab4ca06c25491E+0xe6>
   2412c:	481b      	ldr	r0, [pc, #108]	@ (2419c <_ZN20complex_dynamic_type3app17h8c7ab4ca06c25491E+0x14c>)
   2412e:	2105      	movs	r1, #5
   24130:	2200      	movs	r2, #0
   24132:	4613      	mov	r3, r2
   24134:	df04      	svc	4
   24136:	a805      	add	r0, sp, #20
   24138:	9901      	ldr	r1, [sp, #4]
   2413a:	7001      	strb	r1, [r0, #0]
   2413c:	a810      	add	r0, sp, #64	@ 0x40
   2413e:	7800      	ldrb	r0, [r0, #0]
   24140:	2804      	cmp	r0, #4
   24142:	d007      	beq.n	24154 <_ZN20complex_dynamic_type3app17h8c7ab4ca06c25491E+0x104>
   24144:	2803      	cmp	r0, #3
   24146:	d11d      	bne.n	24184 <_ZN20complex_dynamic_type3app17h8c7ab4ca06c25491E+0x134>
   24148:	4814      	ldr	r0, [pc, #80]	@ (2419c <_ZN20complex_dynamic_type3app17h8c7ab4ca06c25491E+0x14c>)
   2414a:	2103      	movs	r1, #3
   2414c:	2200      	movs	r2, #0
   2414e:	4613      	mov	r3, r2
   24150:	df03      	svc	3
   24152:	e004      	b.n	2415e <_ZN20complex_dynamic_type3app17h8c7ab4ca06c25491E+0x10e>
   24154:	4811      	ldr	r0, [pc, #68]	@ (2419c <_ZN20complex_dynamic_type3app17h8c7ab4ca06c25491E+0x14c>)
   24156:	2103      	movs	r1, #3
   24158:	2200      	movs	r2, #0
   2415a:	4613      	mov	r3, r2
   2415c:	df04      	svc	4
   2415e:	a805      	add	r0, sp, #20
   24160:	7804      	ldrb	r4, [r0, #0]
   24162:	1c68      	adds	r0, r5, #1
   24164:	221a      	movs	r2, #26
   24166:	9902      	ldr	r1, [sp, #8]
   24168:	f006 ffcc 	bl	2b104 <__aeabi_memcpy>
   2416c:	702e      	strb	r6, [r5, #0]
   2416e:	2c02      	cmp	r4, #2
   24170:	d006      	beq.n	24180 <_ZN20complex_dynamic_type3app17h8c7ab4ca06c25491E+0x130>
   24172:	480a      	ldr	r0, [pc, #40]	@ (2419c <_ZN20complex_dynamic_type3app17h8c7ab4ca06c25491E+0x14c>)
   24174:	2105      	movs	r1, #5
   24176:	2200      	movs	r2, #0
   24178:	4613      	mov	r3, r2
   2417a:	2c04      	cmp	r4, #4
   2417c:	d10a      	bne.n	24194 <_ZN20complex_dynamic_type3app17h8c7ab4ca06c25491E+0x144>
   2417e:	df04      	svc	4
   24180:	b017      	add	sp, #92	@ 0x5c
   24182:	bdf0      	pop	{r4, r5, r6, r7, pc}
   24184:	1c68      	adds	r0, r5, #1
   24186:	221a      	movs	r2, #26
   24188:	9902      	ldr	r1, [sp, #8]
   2418a:	f006 ffbb 	bl	2b104 <__aeabi_memcpy>
   2418e:	702e      	strb	r6, [r5, #0]
   24190:	b017      	add	sp, #92	@ 0x5c
   24192:	bdf0      	pop	{r4, r5, r6, r7, pc}
   24194:	df03      	svc	3
   24196:	b017      	add	sp, #92	@ 0x5c
   24198:	bdf0      	pop	{r4, r5, r6, r7, pc}
   2419a:	46c0      	nop			@ (mov r8, r8)
   2419c:	00002048 	.word	0x00002048

000241a0 <_ZN20complex_dynamic_type3app17h8cce0c063de09b6bE>:
   241a0:	b5f0      	push	{r4, r5, r6, r7, lr}
   241a2:	af03      	add	r7, sp, #12
   241a4:	b09d      	sub	sp, #116	@ 0x74
   241a6:	9003      	str	r0, [sp, #12]
   241a8:	a804      	add	r0, sp, #16
   241aa:	2402      	movs	r4, #2
   241ac:	7004      	strb	r4, [r0, #0]
   241ae:	1c46      	adds	r6, r0, #1
   241b0:	223b      	movs	r2, #59	@ 0x3b
   241b2:	9202      	str	r2, [sp, #8]
   241b4:	4630      	mov	r0, r6
   241b6:	f006 ffa5 	bl	2b104 <__aeabi_memcpy>
   241ba:	ad13      	add	r5, sp, #76	@ 0x4c
   241bc:	1c68      	adds	r0, r5, #1
   241be:	2127      	movs	r1, #39	@ 0x27
   241c0:	9001      	str	r0, [sp, #4]
   241c2:	f006 fddf 	bl	2ad84 <__aeabi_memclr>
   241c6:	9400      	str	r4, [sp, #0]
   241c8:	702c      	strb	r4, [r5, #0]
   241ca:	4848      	ldr	r0, [pc, #288]	@ (242ec <_ZN20complex_dynamic_type3app17h8cce0c063de09b6bE+0x14c>)
   241cc:	2105      	movs	r1, #5
   241ce:	4632      	mov	r2, r6
   241d0:	9b02      	ldr	r3, [sp, #8]
   241d2:	df04      	svc	4
   241d4:	2802      	cmp	r0, #2
   241d6:	d104      	bne.n	241e2 <_ZN20complex_dynamic_type3app17h8cce0c063de09b6bE+0x42>
   241d8:	2001      	movs	r0, #1
   241da:	9a03      	ldr	r2, [sp, #12]
   241dc:	7010      	strb	r0, [r2, #0]
   241de:	6051      	str	r1, [r2, #4]
   241e0:	e02c      	b.n	2423c <_ZN20complex_dynamic_type3app17h8cce0c063de09b6bE+0x9c>
   241e2:	9d03      	ldr	r5, [sp, #12]
   241e4:	a804      	add	r0, sp, #16
   241e6:	2104      	movs	r1, #4
   241e8:	7001      	strb	r1, [r0, #0]
   241ea:	4840      	ldr	r0, [pc, #256]	@ (242ec <_ZN20complex_dynamic_type3app17h8cce0c063de09b6bE+0x14c>)
   241ec:	2403      	movs	r4, #3
   241ee:	2327      	movs	r3, #39	@ 0x27
   241f0:	4621      	mov	r1, r4
   241f2:	9a01      	ldr	r2, [sp, #4]
   241f4:	df03      	svc	3
   241f6:	2802      	cmp	r0, #2
   241f8:	d10e      	bne.n	24218 <_ZN20complex_dynamic_type3app17h8cce0c063de09b6bE+0x78>
   241fa:	2001      	movs	r0, #1
   241fc:	7028      	strb	r0, [r5, #0]
   241fe:	6069      	str	r1, [r5, #4]
   24200:	a813      	add	r0, sp, #76	@ 0x4c
   24202:	7800      	ldrb	r0, [r0, #0]
   24204:	2802      	cmp	r0, #2
   24206:	d019      	beq.n	2423c <_ZN20complex_dynamic_type3app17h8cce0c063de09b6bE+0x9c>
   24208:	2803      	cmp	r0, #3
   2420a:	d012      	beq.n	24232 <_ZN20complex_dynamic_type3app17h8cce0c063de09b6bE+0x92>
   2420c:	4837      	ldr	r0, [pc, #220]	@ (242ec <_ZN20complex_dynamic_type3app17h8cce0c063de09b6bE+0x14c>)
   2420e:	2103      	movs	r1, #3
   24210:	2200      	movs	r2, #0
   24212:	4613      	mov	r3, r2
   24214:	df04      	svc	4
   24216:	e011      	b.n	2423c <_ZN20complex_dynamic_type3app17h8cce0c063de09b6bE+0x9c>
   24218:	a813      	add	r0, sp, #76	@ 0x4c
   2421a:	7004      	strb	r4, [r0, #0]
   2421c:	4833      	ldr	r0, [pc, #204]	@ (242ec <_ZN20complex_dynamic_type3app17h8cce0c063de09b6bE+0x14c>)
   2421e:	2105      	movs	r1, #5
   24220:	2600      	movs	r6, #0
   24222:	4622      	mov	r2, r4
   24224:	4633      	mov	r3, r6
   24226:	df02      	svc	2
   24228:	2880      	cmp	r0, #128	@ 0x80
   2422a:	d21b      	bcs.n	24264 <_ZN20complex_dynamic_type3app17h8cce0c063de09b6bE+0xc4>
   2422c:	2001      	movs	r0, #1
   2422e:	7028      	strb	r0, [r5, #0]
   24230:	6069      	str	r1, [r5, #4]
   24232:	482e      	ldr	r0, [pc, #184]	@ (242ec <_ZN20complex_dynamic_type3app17h8cce0c063de09b6bE+0x14c>)
   24234:	2103      	movs	r1, #3
   24236:	2200      	movs	r2, #0
   24238:	4613      	mov	r3, r2
   2423a:	df03      	svc	3
   2423c:	a804      	add	r0, sp, #16
   2423e:	7800      	ldrb	r0, [r0, #0]
   24240:	2802      	cmp	r0, #2
   24242:	d045      	beq.n	242d0 <_ZN20complex_dynamic_type3app17h8cce0c063de09b6bE+0x130>
   24244:	2804      	cmp	r0, #4
   24246:	d106      	bne.n	24256 <_ZN20complex_dynamic_type3app17h8cce0c063de09b6bE+0xb6>
   24248:	4828      	ldr	r0, [pc, #160]	@ (242ec <_ZN20complex_dynamic_type3app17h8cce0c063de09b6bE+0x14c>)
   2424a:	2105      	movs	r1, #5
   2424c:	2200      	movs	r2, #0
   2424e:	4613      	mov	r3, r2
   24250:	df04      	svc	4
   24252:	b01d      	add	sp, #116	@ 0x74
   24254:	bdf0      	pop	{r4, r5, r6, r7, pc}
   24256:	4825      	ldr	r0, [pc, #148]	@ (242ec <_ZN20complex_dynamic_type3app17h8cce0c063de09b6bE+0x14c>)
   24258:	2105      	movs	r1, #5
   2425a:	2200      	movs	r2, #0
   2425c:	4613      	mov	r3, r2
   2425e:	df03      	svc	3
   24260:	b01d      	add	sp, #116	@ 0x74
   24262:	bdf0      	pop	{r4, r5, r6, r7, pc}
   24264:	a804      	add	r0, sp, #16
   24266:	7800      	ldrb	r0, [r0, #0]
   24268:	2802      	cmp	r0, #2
   2426a:	d00c      	beq.n	24286 <_ZN20complex_dynamic_type3app17h8cce0c063de09b6bE+0xe6>
   2426c:	2803      	cmp	r0, #3
   2426e:	d105      	bne.n	2427c <_ZN20complex_dynamic_type3app17h8cce0c063de09b6bE+0xdc>
   24270:	481e      	ldr	r0, [pc, #120]	@ (242ec <_ZN20complex_dynamic_type3app17h8cce0c063de09b6bE+0x14c>)
   24272:	2105      	movs	r1, #5
   24274:	2200      	movs	r2, #0
   24276:	4613      	mov	r3, r2
   24278:	df03      	svc	3
   2427a:	e004      	b.n	24286 <_ZN20complex_dynamic_type3app17h8cce0c063de09b6bE+0xe6>
   2427c:	481b      	ldr	r0, [pc, #108]	@ (242ec <_ZN20complex_dynamic_type3app17h8cce0c063de09b6bE+0x14c>)
   2427e:	2105      	movs	r1, #5
   24280:	2200      	movs	r2, #0
   24282:	4613      	mov	r3, r2
   24284:	df04      	svc	4
   24286:	a804      	add	r0, sp, #16
   24288:	9900      	ldr	r1, [sp, #0]
   2428a:	7001      	strb	r1, [r0, #0]
   2428c:	a813      	add	r0, sp, #76	@ 0x4c
   2428e:	7800      	ldrb	r0, [r0, #0]
   24290:	2804      	cmp	r0, #4
   24292:	d007      	beq.n	242a4 <_ZN20complex_dynamic_type3app17h8cce0c063de09b6bE+0x104>
   24294:	2803      	cmp	r0, #3
   24296:	d11d      	bne.n	242d4 <_ZN20complex_dynamic_type3app17h8cce0c063de09b6bE+0x134>
   24298:	4814      	ldr	r0, [pc, #80]	@ (242ec <_ZN20complex_dynamic_type3app17h8cce0c063de09b6bE+0x14c>)
   2429a:	2103      	movs	r1, #3
   2429c:	2200      	movs	r2, #0
   2429e:	4613      	mov	r3, r2
   242a0:	df03      	svc	3
   242a2:	e004      	b.n	242ae <_ZN20complex_dynamic_type3app17h8cce0c063de09b6bE+0x10e>
   242a4:	4811      	ldr	r0, [pc, #68]	@ (242ec <_ZN20complex_dynamic_type3app17h8cce0c063de09b6bE+0x14c>)
   242a6:	2103      	movs	r1, #3
   242a8:	2200      	movs	r2, #0
   242aa:	4613      	mov	r3, r2
   242ac:	df04      	svc	4
   242ae:	a804      	add	r0, sp, #16
   242b0:	7804      	ldrb	r4, [r0, #0]
   242b2:	1c68      	adds	r0, r5, #1
   242b4:	2227      	movs	r2, #39	@ 0x27
   242b6:	9901      	ldr	r1, [sp, #4]
   242b8:	f006 ff24 	bl	2b104 <__aeabi_memcpy>
   242bc:	702e      	strb	r6, [r5, #0]
   242be:	2c02      	cmp	r4, #2
   242c0:	d006      	beq.n	242d0 <_ZN20complex_dynamic_type3app17h8cce0c063de09b6bE+0x130>
   242c2:	480a      	ldr	r0, [pc, #40]	@ (242ec <_ZN20complex_dynamic_type3app17h8cce0c063de09b6bE+0x14c>)
   242c4:	2105      	movs	r1, #5
   242c6:	2200      	movs	r2, #0
   242c8:	4613      	mov	r3, r2
   242ca:	2c04      	cmp	r4, #4
   242cc:	d10a      	bne.n	242e4 <_ZN20complex_dynamic_type3app17h8cce0c063de09b6bE+0x144>
   242ce:	df04      	svc	4
   242d0:	b01d      	add	sp, #116	@ 0x74
   242d2:	bdf0      	pop	{r4, r5, r6, r7, pc}
   242d4:	1c68      	adds	r0, r5, #1
   242d6:	2227      	movs	r2, #39	@ 0x27
   242d8:	9901      	ldr	r1, [sp, #4]
   242da:	f006 ff13 	bl	2b104 <__aeabi_memcpy>
   242de:	702e      	strb	r6, [r5, #0]
   242e0:	b01d      	add	sp, #116	@ 0x74
   242e2:	bdf0      	pop	{r4, r5, r6, r7, pc}
   242e4:	df03      	svc	3
   242e6:	b01d      	add	sp, #116	@ 0x74
   242e8:	bdf0      	pop	{r4, r5, r6, r7, pc}
   242ea:	46c0      	nop			@ (mov r8, r8)
   242ec:	00000bd3 	.word	0x00000bd3

000242f0 <_ZN20complex_dynamic_type3app17h8db354a7c0870e84E>:
   242f0:	b5f0      	push	{r4, r5, r6, r7, lr}
   242f2:	af03      	add	r7, sp, #12
   242f4:	b0a1      	sub	sp, #132	@ 0x84
   242f6:	9004      	str	r0, [sp, #16]
   242f8:	a805      	add	r0, sp, #20
   242fa:	2402      	movs	r4, #2
   242fc:	7004      	strb	r4, [r0, #0]
   242fe:	1c46      	adds	r6, r0, #1
   24300:	223c      	movs	r2, #60	@ 0x3c
   24302:	9203      	str	r2, [sp, #12]
   24304:	4630      	mov	r0, r6
   24306:	f006 fefd 	bl	2b104 <__aeabi_memcpy>
   2430a:	ad15      	add	r5, sp, #84	@ 0x54
   2430c:	1c68      	adds	r0, r5, #1
   2430e:	212c      	movs	r1, #44	@ 0x2c
   24310:	9002      	str	r0, [sp, #8]
   24312:	f006 fd37 	bl	2ad84 <__aeabi_memclr>
   24316:	9401      	str	r4, [sp, #4]
   24318:	702c      	strb	r4, [r5, #0]
   2431a:	4848      	ldr	r0, [pc, #288]	@ (2443c <_ZN20complex_dynamic_type3app17h8db354a7c0870e84E+0x14c>)
   2431c:	2105      	movs	r1, #5
   2431e:	4632      	mov	r2, r6
   24320:	9b03      	ldr	r3, [sp, #12]
   24322:	df04      	svc	4
   24324:	2802      	cmp	r0, #2
   24326:	d104      	bne.n	24332 <_ZN20complex_dynamic_type3app17h8db354a7c0870e84E+0x42>
   24328:	2001      	movs	r0, #1
   2432a:	9a04      	ldr	r2, [sp, #16]
   2432c:	7010      	strb	r0, [r2, #0]
   2432e:	6051      	str	r1, [r2, #4]
   24330:	e02d      	b.n	2438e <_ZN20complex_dynamic_type3app17h8db354a7c0870e84E+0x9e>
   24332:	9d04      	ldr	r5, [sp, #16]
   24334:	a805      	add	r0, sp, #20
   24336:	2104      	movs	r1, #4
   24338:	7001      	strb	r1, [r0, #0]
   2433a:	4840      	ldr	r0, [pc, #256]	@ (2443c <_ZN20complex_dynamic_type3app17h8db354a7c0870e84E+0x14c>)
   2433c:	2107      	movs	r1, #7
   2433e:	232c      	movs	r3, #44	@ 0x2c
   24340:	9c02      	ldr	r4, [sp, #8]
   24342:	4622      	mov	r2, r4
   24344:	df03      	svc	3
   24346:	2802      	cmp	r0, #2
   24348:	d10e      	bne.n	24368 <_ZN20complex_dynamic_type3app17h8db354a7c0870e84E+0x78>
   2434a:	2001      	movs	r0, #1
   2434c:	7028      	strb	r0, [r5, #0]
   2434e:	6069      	str	r1, [r5, #4]
   24350:	a815      	add	r0, sp, #84	@ 0x54
   24352:	7800      	ldrb	r0, [r0, #0]
   24354:	2802      	cmp	r0, #2
   24356:	d01a      	beq.n	2438e <_ZN20complex_dynamic_type3app17h8db354a7c0870e84E+0x9e>
   24358:	2803      	cmp	r0, #3
   2435a:	d013      	beq.n	24384 <_ZN20complex_dynamic_type3app17h8db354a7c0870e84E+0x94>
   2435c:	4837      	ldr	r0, [pc, #220]	@ (2443c <_ZN20complex_dynamic_type3app17h8db354a7c0870e84E+0x14c>)
   2435e:	2107      	movs	r1, #7
   24360:	2200      	movs	r2, #0
   24362:	4613      	mov	r3, r2
   24364:	df04      	svc	4
   24366:	e012      	b.n	2438e <_ZN20complex_dynamic_type3app17h8db354a7c0870e84E+0x9e>
   24368:	a815      	add	r0, sp, #84	@ 0x54
   2436a:	2103      	movs	r1, #3
   2436c:	7001      	strb	r1, [r0, #0]
   2436e:	4833      	ldr	r0, [pc, #204]	@ (2443c <_ZN20complex_dynamic_type3app17h8db354a7c0870e84E+0x14c>)
   24370:	2105      	movs	r1, #5
   24372:	2207      	movs	r2, #7
   24374:	2600      	movs	r6, #0
   24376:	4633      	mov	r3, r6
   24378:	df02      	svc	2
   2437a:	2880      	cmp	r0, #128	@ 0x80
   2437c:	d21b      	bcs.n	243b6 <_ZN20complex_dynamic_type3app17h8db354a7c0870e84E+0xc6>
   2437e:	2001      	movs	r0, #1
   24380:	7028      	strb	r0, [r5, #0]
   24382:	6069      	str	r1, [r5, #4]
   24384:	482d      	ldr	r0, [pc, #180]	@ (2443c <_ZN20complex_dynamic_type3app17h8db354a7c0870e84E+0x14c>)
   24386:	2107      	movs	r1, #7
   24388:	2200      	movs	r2, #0
   2438a:	4613      	mov	r3, r2
   2438c:	df03      	svc	3
   2438e:	a805      	add	r0, sp, #20
   24390:	7800      	ldrb	r0, [r0, #0]
   24392:	2802      	cmp	r0, #2
   24394:	d045      	beq.n	24422 <_ZN20complex_dynamic_type3app17h8db354a7c0870e84E+0x132>
   24396:	2804      	cmp	r0, #4
   24398:	d106      	bne.n	243a8 <_ZN20complex_dynamic_type3app17h8db354a7c0870e84E+0xb8>
   2439a:	4828      	ldr	r0, [pc, #160]	@ (2443c <_ZN20complex_dynamic_type3app17h8db354a7c0870e84E+0x14c>)
   2439c:	2105      	movs	r1, #5
   2439e:	2200      	movs	r2, #0
   243a0:	4613      	mov	r3, r2
   243a2:	df04      	svc	4
   243a4:	b021      	add	sp, #132	@ 0x84
   243a6:	bdf0      	pop	{r4, r5, r6, r7, pc}
   243a8:	4824      	ldr	r0, [pc, #144]	@ (2443c <_ZN20complex_dynamic_type3app17h8db354a7c0870e84E+0x14c>)
   243aa:	2105      	movs	r1, #5
   243ac:	2200      	movs	r2, #0
   243ae:	4613      	mov	r3, r2
   243b0:	df03      	svc	3
   243b2:	b021      	add	sp, #132	@ 0x84
   243b4:	bdf0      	pop	{r4, r5, r6, r7, pc}
   243b6:	a805      	add	r0, sp, #20
   243b8:	7800      	ldrb	r0, [r0, #0]
   243ba:	2802      	cmp	r0, #2
   243bc:	d00c      	beq.n	243d8 <_ZN20complex_dynamic_type3app17h8db354a7c0870e84E+0xe8>
   243be:	2803      	cmp	r0, #3
   243c0:	d105      	bne.n	243ce <_ZN20complex_dynamic_type3app17h8db354a7c0870e84E+0xde>
   243c2:	481e      	ldr	r0, [pc, #120]	@ (2443c <_ZN20complex_dynamic_type3app17h8db354a7c0870e84E+0x14c>)
   243c4:	2105      	movs	r1, #5
   243c6:	2200      	movs	r2, #0
   243c8:	4613      	mov	r3, r2
   243ca:	df03      	svc	3
   243cc:	e004      	b.n	243d8 <_ZN20complex_dynamic_type3app17h8db354a7c0870e84E+0xe8>
   243ce:	481b      	ldr	r0, [pc, #108]	@ (2443c <_ZN20complex_dynamic_type3app17h8db354a7c0870e84E+0x14c>)
   243d0:	2105      	movs	r1, #5
   243d2:	2200      	movs	r2, #0
   243d4:	4613      	mov	r3, r2
   243d6:	df04      	svc	4
   243d8:	a805      	add	r0, sp, #20
   243da:	9901      	ldr	r1, [sp, #4]
   243dc:	7001      	strb	r1, [r0, #0]
   243de:	a815      	add	r0, sp, #84	@ 0x54
   243e0:	7800      	ldrb	r0, [r0, #0]
   243e2:	2804      	cmp	r0, #4
   243e4:	d007      	beq.n	243f6 <_ZN20complex_dynamic_type3app17h8db354a7c0870e84E+0x106>
   243e6:	2803      	cmp	r0, #3
   243e8:	d11d      	bne.n	24426 <_ZN20complex_dynamic_type3app17h8db354a7c0870e84E+0x136>
   243ea:	4814      	ldr	r0, [pc, #80]	@ (2443c <_ZN20complex_dynamic_type3app17h8db354a7c0870e84E+0x14c>)
   243ec:	2107      	movs	r1, #7
   243ee:	2200      	movs	r2, #0
   243f0:	4613      	mov	r3, r2
   243f2:	df03      	svc	3
   243f4:	e004      	b.n	24400 <_ZN20complex_dynamic_type3app17h8db354a7c0870e84E+0x110>
   243f6:	4811      	ldr	r0, [pc, #68]	@ (2443c <_ZN20complex_dynamic_type3app17h8db354a7c0870e84E+0x14c>)
   243f8:	2107      	movs	r1, #7
   243fa:	2200      	movs	r2, #0
   243fc:	4613      	mov	r3, r2
   243fe:	df04      	svc	4
   24400:	a805      	add	r0, sp, #20
   24402:	7804      	ldrb	r4, [r0, #0]
   24404:	1c68      	adds	r0, r5, #1
   24406:	222c      	movs	r2, #44	@ 0x2c
   24408:	9902      	ldr	r1, [sp, #8]
   2440a:	f006 fe7b 	bl	2b104 <__aeabi_memcpy>
   2440e:	702e      	strb	r6, [r5, #0]
   24410:	2c02      	cmp	r4, #2
   24412:	d006      	beq.n	24422 <_ZN20complex_dynamic_type3app17h8db354a7c0870e84E+0x132>
   24414:	4809      	ldr	r0, [pc, #36]	@ (2443c <_ZN20complex_dynamic_type3app17h8db354a7c0870e84E+0x14c>)
   24416:	2105      	movs	r1, #5
   24418:	2200      	movs	r2, #0
   2441a:	4613      	mov	r3, r2
   2441c:	2c04      	cmp	r4, #4
   2441e:	d10a      	bne.n	24436 <_ZN20complex_dynamic_type3app17h8db354a7c0870e84E+0x146>
   24420:	df04      	svc	4
   24422:	b021      	add	sp, #132	@ 0x84
   24424:	bdf0      	pop	{r4, r5, r6, r7, pc}
   24426:	1c68      	adds	r0, r5, #1
   24428:	222c      	movs	r2, #44	@ 0x2c
   2442a:	4621      	mov	r1, r4
   2442c:	f006 fe6a 	bl	2b104 <__aeabi_memcpy>
   24430:	702e      	strb	r6, [r5, #0]
   24432:	b021      	add	sp, #132	@ 0x84
   24434:	bdf0      	pop	{r4, r5, r6, r7, pc}
   24436:	df03      	svc	3
   24438:	b021      	add	sp, #132	@ 0x84
   2443a:	bdf0      	pop	{r4, r5, r6, r7, pc}
   2443c:	00001eac 	.word	0x00001eac

00024440 <_ZN20complex_dynamic_type3app17h90d96a3ed88fddefE>:
   24440:	b5f0      	push	{r4, r5, r6, r7, lr}
   24442:	af03      	add	r7, sp, #12
   24444:	b0a9      	sub	sp, #164	@ 0xa4
   24446:	9003      	str	r0, [sp, #12]
   24448:	a804      	add	r0, sp, #16
   2444a:	2402      	movs	r4, #2
   2444c:	7004      	strb	r4, [r0, #0]
   2444e:	1c46      	adds	r6, r0, #1
   24450:	2263      	movs	r2, #99	@ 0x63
   24452:	9202      	str	r2, [sp, #8]
   24454:	4630      	mov	r0, r6
   24456:	f006 fe55 	bl	2b104 <__aeabi_memcpy>
   2445a:	ad1d      	add	r5, sp, #116	@ 0x74
   2445c:	1c68      	adds	r0, r5, #1
   2445e:	212c      	movs	r1, #44	@ 0x2c
   24460:	9001      	str	r0, [sp, #4]
   24462:	f006 fc8f 	bl	2ad84 <__aeabi_memclr>
   24466:	9400      	str	r4, [sp, #0]
   24468:	702c      	strb	r4, [r5, #0]
   2446a:	2018      	movs	r0, #24
   2446c:	2105      	movs	r1, #5
   2446e:	4632      	mov	r2, r6
   24470:	9b02      	ldr	r3, [sp, #8]
   24472:	df04      	svc	4
   24474:	2802      	cmp	r0, #2
   24476:	d104      	bne.n	24482 <_ZN20complex_dynamic_type3app17h90d96a3ed88fddefE+0x42>
   24478:	2001      	movs	r0, #1
   2447a:	9a03      	ldr	r2, [sp, #12]
   2447c:	7010      	strb	r0, [r2, #0]
   2447e:	6051      	str	r1, [r2, #4]
   24480:	e02c      	b.n	244dc <_ZN20complex_dynamic_type3app17h90d96a3ed88fddefE+0x9c>
   24482:	9d03      	ldr	r5, [sp, #12]
   24484:	a804      	add	r0, sp, #16
   24486:	2104      	movs	r1, #4
   24488:	7001      	strb	r1, [r0, #0]
   2448a:	2018      	movs	r0, #24
   2448c:	2403      	movs	r4, #3
   2448e:	232c      	movs	r3, #44	@ 0x2c
   24490:	4621      	mov	r1, r4
   24492:	9a01      	ldr	r2, [sp, #4]
   24494:	df03      	svc	3
   24496:	2802      	cmp	r0, #2
   24498:	d10e      	bne.n	244b8 <_ZN20complex_dynamic_type3app17h90d96a3ed88fddefE+0x78>
   2449a:	2001      	movs	r0, #1
   2449c:	7028      	strb	r0, [r5, #0]
   2449e:	6069      	str	r1, [r5, #4]
   244a0:	a81d      	add	r0, sp, #116	@ 0x74
   244a2:	7800      	ldrb	r0, [r0, #0]
   244a4:	2802      	cmp	r0, #2
   244a6:	d019      	beq.n	244dc <_ZN20complex_dynamic_type3app17h90d96a3ed88fddefE+0x9c>
   244a8:	2803      	cmp	r0, #3
   244aa:	d012      	beq.n	244d2 <_ZN20complex_dynamic_type3app17h90d96a3ed88fddefE+0x92>
   244ac:	2018      	movs	r0, #24
   244ae:	2103      	movs	r1, #3
   244b0:	2200      	movs	r2, #0
   244b2:	4613      	mov	r3, r2
   244b4:	df04      	svc	4
   244b6:	e011      	b.n	244dc <_ZN20complex_dynamic_type3app17h90d96a3ed88fddefE+0x9c>
   244b8:	a81d      	add	r0, sp, #116	@ 0x74
   244ba:	7004      	strb	r4, [r0, #0]
   244bc:	2018      	movs	r0, #24
   244be:	2105      	movs	r1, #5
   244c0:	2600      	movs	r6, #0
   244c2:	4622      	mov	r2, r4
   244c4:	4633      	mov	r3, r6
   244c6:	df02      	svc	2
   244c8:	2880      	cmp	r0, #128	@ 0x80
   244ca:	d21b      	bcs.n	24504 <_ZN20complex_dynamic_type3app17h90d96a3ed88fddefE+0xc4>
   244cc:	2001      	movs	r0, #1
   244ce:	7028      	strb	r0, [r5, #0]
   244d0:	6069      	str	r1, [r5, #4]
   244d2:	2018      	movs	r0, #24
   244d4:	2103      	movs	r1, #3
   244d6:	2200      	movs	r2, #0
   244d8:	4613      	mov	r3, r2
   244da:	df03      	svc	3
   244dc:	a804      	add	r0, sp, #16
   244de:	7800      	ldrb	r0, [r0, #0]
   244e0:	2802      	cmp	r0, #2
   244e2:	d045      	beq.n	24570 <_ZN20complex_dynamic_type3app17h90d96a3ed88fddefE+0x130>
   244e4:	2804      	cmp	r0, #4
   244e6:	d106      	bne.n	244f6 <_ZN20complex_dynamic_type3app17h90d96a3ed88fddefE+0xb6>
   244e8:	2018      	movs	r0, #24
   244ea:	2105      	movs	r1, #5
   244ec:	2200      	movs	r2, #0
   244ee:	4613      	mov	r3, r2
   244f0:	df04      	svc	4
   244f2:	b029      	add	sp, #164	@ 0xa4
   244f4:	bdf0      	pop	{r4, r5, r6, r7, pc}
   244f6:	2018      	movs	r0, #24
   244f8:	2105      	movs	r1, #5
   244fa:	2200      	movs	r2, #0
   244fc:	4613      	mov	r3, r2
   244fe:	df03      	svc	3
   24500:	b029      	add	sp, #164	@ 0xa4
   24502:	bdf0      	pop	{r4, r5, r6, r7, pc}
   24504:	a804      	add	r0, sp, #16
   24506:	7800      	ldrb	r0, [r0, #0]
   24508:	2802      	cmp	r0, #2
   2450a:	d00c      	beq.n	24526 <_ZN20complex_dynamic_type3app17h90d96a3ed88fddefE+0xe6>
   2450c:	2803      	cmp	r0, #3
   2450e:	d105      	bne.n	2451c <_ZN20complex_dynamic_type3app17h90d96a3ed88fddefE+0xdc>
   24510:	2018      	movs	r0, #24
   24512:	2105      	movs	r1, #5
   24514:	2200      	movs	r2, #0
   24516:	4613      	mov	r3, r2
   24518:	df03      	svc	3
   2451a:	e004      	b.n	24526 <_ZN20complex_dynamic_type3app17h90d96a3ed88fddefE+0xe6>
   2451c:	2018      	movs	r0, #24
   2451e:	2105      	movs	r1, #5
   24520:	2200      	movs	r2, #0
   24522:	4613      	mov	r3, r2
   24524:	df04      	svc	4
   24526:	a804      	add	r0, sp, #16
   24528:	9900      	ldr	r1, [sp, #0]
   2452a:	7001      	strb	r1, [r0, #0]
   2452c:	a81d      	add	r0, sp, #116	@ 0x74
   2452e:	7800      	ldrb	r0, [r0, #0]
   24530:	2804      	cmp	r0, #4
   24532:	d007      	beq.n	24544 <_ZN20complex_dynamic_type3app17h90d96a3ed88fddefE+0x104>
   24534:	2803      	cmp	r0, #3
   24536:	d11d      	bne.n	24574 <_ZN20complex_dynamic_type3app17h90d96a3ed88fddefE+0x134>
   24538:	2018      	movs	r0, #24
   2453a:	2103      	movs	r1, #3
   2453c:	2200      	movs	r2, #0
   2453e:	4613      	mov	r3, r2
   24540:	df03      	svc	3
   24542:	e004      	b.n	2454e <_ZN20complex_dynamic_type3app17h90d96a3ed88fddefE+0x10e>
   24544:	2018      	movs	r0, #24
   24546:	2103      	movs	r1, #3
   24548:	2200      	movs	r2, #0
   2454a:	4613      	mov	r3, r2
   2454c:	df04      	svc	4
   2454e:	a804      	add	r0, sp, #16
   24550:	7804      	ldrb	r4, [r0, #0]
   24552:	1c68      	adds	r0, r5, #1
   24554:	222c      	movs	r2, #44	@ 0x2c
   24556:	9901      	ldr	r1, [sp, #4]
   24558:	f006 fdd4 	bl	2b104 <__aeabi_memcpy>
   2455c:	702e      	strb	r6, [r5, #0]
   2455e:	2c02      	cmp	r4, #2
   24560:	d006      	beq.n	24570 <_ZN20complex_dynamic_type3app17h90d96a3ed88fddefE+0x130>
   24562:	2018      	movs	r0, #24
   24564:	2105      	movs	r1, #5
   24566:	2200      	movs	r2, #0
   24568:	4613      	mov	r3, r2
   2456a:	2c04      	cmp	r4, #4
   2456c:	d10a      	bne.n	24584 <_ZN20complex_dynamic_type3app17h90d96a3ed88fddefE+0x144>
   2456e:	df04      	svc	4
   24570:	b029      	add	sp, #164	@ 0xa4
   24572:	bdf0      	pop	{r4, r5, r6, r7, pc}
   24574:	1c68      	adds	r0, r5, #1
   24576:	222c      	movs	r2, #44	@ 0x2c
   24578:	9901      	ldr	r1, [sp, #4]
   2457a:	f006 fdc3 	bl	2b104 <__aeabi_memcpy>
   2457e:	702e      	strb	r6, [r5, #0]
   24580:	b029      	add	sp, #164	@ 0xa4
   24582:	bdf0      	pop	{r4, r5, r6, r7, pc}
   24584:	df03      	svc	3
   24586:	b029      	add	sp, #164	@ 0xa4
   24588:	bdf0      	pop	{r4, r5, r6, r7, pc}
   2458a:	d4d4      	bmi.n	24536 <_ZN20complex_dynamic_type3app17h90d96a3ed88fddefE+0xf6>

0002458c <_ZN20complex_dynamic_type3app17h913cba4f262118dbE>:
   2458c:	b5f0      	push	{r4, r5, r6, r7, lr}
   2458e:	af03      	add	r7, sp, #12
   24590:	b097      	sub	sp, #92	@ 0x5c
   24592:	9003      	str	r0, [sp, #12]
   24594:	a804      	add	r0, sp, #16
   24596:	2402      	movs	r4, #2
   24598:	7004      	strb	r4, [r0, #0]
   2459a:	1c46      	adds	r6, r0, #1
   2459c:	2223      	movs	r2, #35	@ 0x23
   2459e:	9202      	str	r2, [sp, #8]
   245a0:	4630      	mov	r0, r6
   245a2:	f006 fdaf 	bl	2b104 <__aeabi_memcpy>
   245a6:	ad0d      	add	r5, sp, #52	@ 0x34
   245a8:	1c68      	adds	r0, r5, #1
   245aa:	2124      	movs	r1, #36	@ 0x24
   245ac:	9001      	str	r0, [sp, #4]
   245ae:	f006 fbe9 	bl	2ad84 <__aeabi_memclr>
   245b2:	9400      	str	r4, [sp, #0]
   245b4:	702c      	strb	r4, [r5, #0]
   245b6:	4848      	ldr	r0, [pc, #288]	@ (246d8 <_ZN20complex_dynamic_type3app17h913cba4f262118dbE+0x14c>)
   245b8:	2504      	movs	r5, #4
   245ba:	4629      	mov	r1, r5
   245bc:	4632      	mov	r2, r6
   245be:	9b02      	ldr	r3, [sp, #8]
   245c0:	df04      	svc	4
   245c2:	2802      	cmp	r0, #2
   245c4:	d104      	bne.n	245d0 <_ZN20complex_dynamic_type3app17h913cba4f262118dbE+0x44>
   245c6:	2001      	movs	r0, #1
   245c8:	9a03      	ldr	r2, [sp, #12]
   245ca:	7010      	strb	r0, [r2, #0]
   245cc:	6051      	str	r1, [r2, #4]
   245ce:	e02c      	b.n	2462a <_ZN20complex_dynamic_type3app17h913cba4f262118dbE+0x9e>
   245d0:	9c03      	ldr	r4, [sp, #12]
   245d2:	a804      	add	r0, sp, #16
   245d4:	7005      	strb	r5, [r0, #0]
   245d6:	4840      	ldr	r0, [pc, #256]	@ (246d8 <_ZN20complex_dynamic_type3app17h913cba4f262118dbE+0x14c>)
   245d8:	2108      	movs	r1, #8
   245da:	2324      	movs	r3, #36	@ 0x24
   245dc:	9a01      	ldr	r2, [sp, #4]
   245de:	df03      	svc	3
   245e0:	2802      	cmp	r0, #2
   245e2:	d10e      	bne.n	24602 <_ZN20complex_dynamic_type3app17h913cba4f262118dbE+0x76>
   245e4:	2001      	movs	r0, #1
   245e6:	7020      	strb	r0, [r4, #0]
   245e8:	6061      	str	r1, [r4, #4]
   245ea:	a80d      	add	r0, sp, #52	@ 0x34
   245ec:	7800      	ldrb	r0, [r0, #0]
   245ee:	2802      	cmp	r0, #2
   245f0:	d01b      	beq.n	2462a <_ZN20complex_dynamic_type3app17h913cba4f262118dbE+0x9e>
   245f2:	2803      	cmp	r0, #3
   245f4:	d014      	beq.n	24620 <_ZN20complex_dynamic_type3app17h913cba4f262118dbE+0x94>
   245f6:	4838      	ldr	r0, [pc, #224]	@ (246d8 <_ZN20complex_dynamic_type3app17h913cba4f262118dbE+0x14c>)
   245f8:	2108      	movs	r1, #8
   245fa:	2200      	movs	r2, #0
   245fc:	4613      	mov	r3, r2
   245fe:	df04      	svc	4
   24600:	e013      	b.n	2462a <_ZN20complex_dynamic_type3app17h913cba4f262118dbE+0x9e>
   24602:	a80d      	add	r0, sp, #52	@ 0x34
   24604:	2103      	movs	r1, #3
   24606:	7001      	strb	r1, [r0, #0]
   24608:	4833      	ldr	r0, [pc, #204]	@ (246d8 <_ZN20complex_dynamic_type3app17h913cba4f262118dbE+0x14c>)
   2460a:	2104      	movs	r1, #4
   2460c:	2208      	movs	r2, #8
   2460e:	2600      	movs	r6, #0
   24610:	4633      	mov	r3, r6
   24612:	df02      	svc	2
   24614:	2880      	cmp	r0, #128	@ 0x80
   24616:	4625      	mov	r5, r4
   24618:	d21b      	bcs.n	24652 <_ZN20complex_dynamic_type3app17h913cba4f262118dbE+0xc6>
   2461a:	2001      	movs	r0, #1
   2461c:	7028      	strb	r0, [r5, #0]
   2461e:	6069      	str	r1, [r5, #4]
   24620:	482d      	ldr	r0, [pc, #180]	@ (246d8 <_ZN20complex_dynamic_type3app17h913cba4f262118dbE+0x14c>)
   24622:	2108      	movs	r1, #8
   24624:	2200      	movs	r2, #0
   24626:	4613      	mov	r3, r2
   24628:	df03      	svc	3
   2462a:	a804      	add	r0, sp, #16
   2462c:	7800      	ldrb	r0, [r0, #0]
   2462e:	2802      	cmp	r0, #2
   24630:	d045      	beq.n	246be <_ZN20complex_dynamic_type3app17h913cba4f262118dbE+0x132>
   24632:	2804      	cmp	r0, #4
   24634:	d106      	bne.n	24644 <_ZN20complex_dynamic_type3app17h913cba4f262118dbE+0xb8>
   24636:	4828      	ldr	r0, [pc, #160]	@ (246d8 <_ZN20complex_dynamic_type3app17h913cba4f262118dbE+0x14c>)
   24638:	2104      	movs	r1, #4
   2463a:	2200      	movs	r2, #0
   2463c:	4613      	mov	r3, r2
   2463e:	df04      	svc	4
   24640:	b017      	add	sp, #92	@ 0x5c
   24642:	bdf0      	pop	{r4, r5, r6, r7, pc}
   24644:	4824      	ldr	r0, [pc, #144]	@ (246d8 <_ZN20complex_dynamic_type3app17h913cba4f262118dbE+0x14c>)
   24646:	2104      	movs	r1, #4
   24648:	2200      	movs	r2, #0
   2464a:	4613      	mov	r3, r2
   2464c:	df03      	svc	3
   2464e:	b017      	add	sp, #92	@ 0x5c
   24650:	bdf0      	pop	{r4, r5, r6, r7, pc}
   24652:	a804      	add	r0, sp, #16
   24654:	7800      	ldrb	r0, [r0, #0]
   24656:	2802      	cmp	r0, #2
   24658:	d00c      	beq.n	24674 <_ZN20complex_dynamic_type3app17h913cba4f262118dbE+0xe8>
   2465a:	2803      	cmp	r0, #3
   2465c:	d105      	bne.n	2466a <_ZN20complex_dynamic_type3app17h913cba4f262118dbE+0xde>
   2465e:	481e      	ldr	r0, [pc, #120]	@ (246d8 <_ZN20complex_dynamic_type3app17h913cba4f262118dbE+0x14c>)
   24660:	2104      	movs	r1, #4
   24662:	2200      	movs	r2, #0
   24664:	4613      	mov	r3, r2
   24666:	df03      	svc	3
   24668:	e004      	b.n	24674 <_ZN20complex_dynamic_type3app17h913cba4f262118dbE+0xe8>
   2466a:	481b      	ldr	r0, [pc, #108]	@ (246d8 <_ZN20complex_dynamic_type3app17h913cba4f262118dbE+0x14c>)
   2466c:	2104      	movs	r1, #4
   2466e:	2200      	movs	r2, #0
   24670:	4613      	mov	r3, r2
   24672:	df04      	svc	4
   24674:	a804      	add	r0, sp, #16
   24676:	9900      	ldr	r1, [sp, #0]
   24678:	7001      	strb	r1, [r0, #0]
   2467a:	a80d      	add	r0, sp, #52	@ 0x34
   2467c:	7800      	ldrb	r0, [r0, #0]
   2467e:	2804      	cmp	r0, #4
   24680:	d007      	beq.n	24692 <_ZN20complex_dynamic_type3app17h913cba4f262118dbE+0x106>
   24682:	2803      	cmp	r0, #3
   24684:	d11d      	bne.n	246c2 <_ZN20complex_dynamic_type3app17h913cba4f262118dbE+0x136>
   24686:	4814      	ldr	r0, [pc, #80]	@ (246d8 <_ZN20complex_dynamic_type3app17h913cba4f262118dbE+0x14c>)
   24688:	2108      	movs	r1, #8
   2468a:	2200      	movs	r2, #0
   2468c:	4613      	mov	r3, r2
   2468e:	df03      	svc	3
   24690:	e004      	b.n	2469c <_ZN20complex_dynamic_type3app17h913cba4f262118dbE+0x110>
   24692:	4811      	ldr	r0, [pc, #68]	@ (246d8 <_ZN20complex_dynamic_type3app17h913cba4f262118dbE+0x14c>)
   24694:	2108      	movs	r1, #8
   24696:	2200      	movs	r2, #0
   24698:	4613      	mov	r3, r2
   2469a:	df04      	svc	4
   2469c:	a804      	add	r0, sp, #16
   2469e:	7804      	ldrb	r4, [r0, #0]
   246a0:	1c68      	adds	r0, r5, #1
   246a2:	2224      	movs	r2, #36	@ 0x24
   246a4:	9901      	ldr	r1, [sp, #4]
   246a6:	f006 fd2d 	bl	2b104 <__aeabi_memcpy>
   246aa:	702e      	strb	r6, [r5, #0]
   246ac:	2c02      	cmp	r4, #2
   246ae:	d006      	beq.n	246be <_ZN20complex_dynamic_type3app17h913cba4f262118dbE+0x132>
   246b0:	4809      	ldr	r0, [pc, #36]	@ (246d8 <_ZN20complex_dynamic_type3app17h913cba4f262118dbE+0x14c>)
   246b2:	2104      	movs	r1, #4
   246b4:	2200      	movs	r2, #0
   246b6:	4613      	mov	r3, r2
   246b8:	2c04      	cmp	r4, #4
   246ba:	d10a      	bne.n	246d2 <_ZN20complex_dynamic_type3app17h913cba4f262118dbE+0x146>
   246bc:	df04      	svc	4
   246be:	b017      	add	sp, #92	@ 0x5c
   246c0:	bdf0      	pop	{r4, r5, r6, r7, pc}
   246c2:	1c68      	adds	r0, r5, #1
   246c4:	2224      	movs	r2, #36	@ 0x24
   246c6:	9901      	ldr	r1, [sp, #4]
   246c8:	f006 fd1c 	bl	2b104 <__aeabi_memcpy>
   246cc:	702e      	strb	r6, [r5, #0]
   246ce:	b017      	add	sp, #92	@ 0x5c
   246d0:	bdf0      	pop	{r4, r5, r6, r7, pc}
   246d2:	df03      	svc	3
   246d4:	b017      	add	sp, #92	@ 0x5c
   246d6:	bdf0      	pop	{r4, r5, r6, r7, pc}
   246d8:	00001bd6 	.word	0x00001bd6

000246dc <_ZN20complex_dynamic_type3app17h931e367a9429da4fE>:
   246dc:	b5f0      	push	{r4, r5, r6, r7, lr}
   246de:	af03      	add	r7, sp, #12
   246e0:	b0ad      	sub	sp, #180	@ 0xb4
   246e2:	9003      	str	r0, [sp, #12]
   246e4:	a804      	add	r0, sp, #16
   246e6:	2402      	movs	r4, #2
   246e8:	7004      	strb	r4, [r0, #0]
   246ea:	1c46      	adds	r6, r0, #1
   246ec:	225d      	movs	r2, #93	@ 0x5d
   246ee:	9202      	str	r2, [sp, #8]
   246f0:	4630      	mov	r0, r6
   246f2:	f006 fd07 	bl	2b104 <__aeabi_memcpy>
   246f6:	ad1c      	add	r5, sp, #112	@ 0x70
   246f8:	1c68      	adds	r0, r5, #1
   246fa:	2140      	movs	r1, #64	@ 0x40
   246fc:	9001      	str	r0, [sp, #4]
   246fe:	f006 fb41 	bl	2ad84 <__aeabi_memclr>
   24702:	9400      	str	r4, [sp, #0]
   24704:	702c      	strb	r4, [r5, #0]
   24706:	4848      	ldr	r0, [pc, #288]	@ (24828 <_ZN20complex_dynamic_type3app17h931e367a9429da4fE+0x14c>)
   24708:	2108      	movs	r1, #8
   2470a:	4632      	mov	r2, r6
   2470c:	9b02      	ldr	r3, [sp, #8]
   2470e:	df04      	svc	4
   24710:	2802      	cmp	r0, #2
   24712:	d104      	bne.n	2471e <_ZN20complex_dynamic_type3app17h931e367a9429da4fE+0x42>
   24714:	2001      	movs	r0, #1
   24716:	9a03      	ldr	r2, [sp, #12]
   24718:	7010      	strb	r0, [r2, #0]
   2471a:	6051      	str	r1, [r2, #4]
   2471c:	e02c      	b.n	24778 <_ZN20complex_dynamic_type3app17h931e367a9429da4fE+0x9c>
   2471e:	9d03      	ldr	r5, [sp, #12]
   24720:	a804      	add	r0, sp, #16
   24722:	2104      	movs	r1, #4
   24724:	7001      	strb	r1, [r0, #0]
   24726:	4840      	ldr	r0, [pc, #256]	@ (24828 <_ZN20complex_dynamic_type3app17h931e367a9429da4fE+0x14c>)
   24728:	2340      	movs	r3, #64	@ 0x40
   2472a:	9c01      	ldr	r4, [sp, #4]
   2472c:	4622      	mov	r2, r4
   2472e:	df03      	svc	3
   24730:	2802      	cmp	r0, #2
   24732:	d10e      	bne.n	24752 <_ZN20complex_dynamic_type3app17h931e367a9429da4fE+0x76>
   24734:	2001      	movs	r0, #1
   24736:	7028      	strb	r0, [r5, #0]
   24738:	6069      	str	r1, [r5, #4]
   2473a:	a81c      	add	r0, sp, #112	@ 0x70
   2473c:	7800      	ldrb	r0, [r0, #0]
   2473e:	2802      	cmp	r0, #2
   24740:	d01a      	beq.n	24778 <_ZN20complex_dynamic_type3app17h931e367a9429da4fE+0x9c>
   24742:	2803      	cmp	r0, #3
   24744:	d013      	beq.n	2476e <_ZN20complex_dynamic_type3app17h931e367a9429da4fE+0x92>
   24746:	4838      	ldr	r0, [pc, #224]	@ (24828 <_ZN20complex_dynamic_type3app17h931e367a9429da4fE+0x14c>)
   24748:	2104      	movs	r1, #4
   2474a:	2200      	movs	r2, #0
   2474c:	4613      	mov	r3, r2
   2474e:	df04      	svc	4
   24750:	e012      	b.n	24778 <_ZN20complex_dynamic_type3app17h931e367a9429da4fE+0x9c>
   24752:	a81c      	add	r0, sp, #112	@ 0x70
   24754:	2103      	movs	r1, #3
   24756:	7001      	strb	r1, [r0, #0]
   24758:	4833      	ldr	r0, [pc, #204]	@ (24828 <_ZN20complex_dynamic_type3app17h931e367a9429da4fE+0x14c>)
   2475a:	2108      	movs	r1, #8
   2475c:	2204      	movs	r2, #4
   2475e:	2600      	movs	r6, #0
   24760:	4633      	mov	r3, r6
   24762:	df02      	svc	2
   24764:	2880      	cmp	r0, #128	@ 0x80
   24766:	d21b      	bcs.n	247a0 <_ZN20complex_dynamic_type3app17h931e367a9429da4fE+0xc4>
   24768:	2001      	movs	r0, #1
   2476a:	7028      	strb	r0, [r5, #0]
   2476c:	6069      	str	r1, [r5, #4]
   2476e:	482e      	ldr	r0, [pc, #184]	@ (24828 <_ZN20complex_dynamic_type3app17h931e367a9429da4fE+0x14c>)
   24770:	2104      	movs	r1, #4
   24772:	2200      	movs	r2, #0
   24774:	4613      	mov	r3, r2
   24776:	df03      	svc	3
   24778:	a804      	add	r0, sp, #16
   2477a:	7800      	ldrb	r0, [r0, #0]
   2477c:	2802      	cmp	r0, #2
   2477e:	d045      	beq.n	2480c <_ZN20complex_dynamic_type3app17h931e367a9429da4fE+0x130>
   24780:	2804      	cmp	r0, #4
   24782:	d106      	bne.n	24792 <_ZN20complex_dynamic_type3app17h931e367a9429da4fE+0xb6>
   24784:	4828      	ldr	r0, [pc, #160]	@ (24828 <_ZN20complex_dynamic_type3app17h931e367a9429da4fE+0x14c>)
   24786:	2108      	movs	r1, #8
   24788:	2200      	movs	r2, #0
   2478a:	4613      	mov	r3, r2
   2478c:	df04      	svc	4
   2478e:	b02d      	add	sp, #180	@ 0xb4
   24790:	bdf0      	pop	{r4, r5, r6, r7, pc}
   24792:	4825      	ldr	r0, [pc, #148]	@ (24828 <_ZN20complex_dynamic_type3app17h931e367a9429da4fE+0x14c>)
   24794:	2108      	movs	r1, #8
   24796:	2200      	movs	r2, #0
   24798:	4613      	mov	r3, r2
   2479a:	df03      	svc	3
   2479c:	b02d      	add	sp, #180	@ 0xb4
   2479e:	bdf0      	pop	{r4, r5, r6, r7, pc}
   247a0:	a804      	add	r0, sp, #16
   247a2:	7800      	ldrb	r0, [r0, #0]
   247a4:	2802      	cmp	r0, #2
   247a6:	d00c      	beq.n	247c2 <_ZN20complex_dynamic_type3app17h931e367a9429da4fE+0xe6>
   247a8:	2803      	cmp	r0, #3
   247aa:	d105      	bne.n	247b8 <_ZN20complex_dynamic_type3app17h931e367a9429da4fE+0xdc>
   247ac:	481e      	ldr	r0, [pc, #120]	@ (24828 <_ZN20complex_dynamic_type3app17h931e367a9429da4fE+0x14c>)
   247ae:	2108      	movs	r1, #8
   247b0:	2200      	movs	r2, #0
   247b2:	4613      	mov	r3, r2
   247b4:	df03      	svc	3
   247b6:	e004      	b.n	247c2 <_ZN20complex_dynamic_type3app17h931e367a9429da4fE+0xe6>
   247b8:	481b      	ldr	r0, [pc, #108]	@ (24828 <_ZN20complex_dynamic_type3app17h931e367a9429da4fE+0x14c>)
   247ba:	2108      	movs	r1, #8
   247bc:	2200      	movs	r2, #0
   247be:	4613      	mov	r3, r2
   247c0:	df04      	svc	4
   247c2:	a804      	add	r0, sp, #16
   247c4:	9900      	ldr	r1, [sp, #0]
   247c6:	7001      	strb	r1, [r0, #0]
   247c8:	a81c      	add	r0, sp, #112	@ 0x70
   247ca:	7800      	ldrb	r0, [r0, #0]
   247cc:	2804      	cmp	r0, #4
   247ce:	d007      	beq.n	247e0 <_ZN20complex_dynamic_type3app17h931e367a9429da4fE+0x104>
   247d0:	2803      	cmp	r0, #3
   247d2:	d11d      	bne.n	24810 <_ZN20complex_dynamic_type3app17h931e367a9429da4fE+0x134>
   247d4:	4814      	ldr	r0, [pc, #80]	@ (24828 <_ZN20complex_dynamic_type3app17h931e367a9429da4fE+0x14c>)
   247d6:	2104      	movs	r1, #4
   247d8:	2200      	movs	r2, #0
   247da:	4613      	mov	r3, r2
   247dc:	df03      	svc	3
   247de:	e004      	b.n	247ea <_ZN20complex_dynamic_type3app17h931e367a9429da4fE+0x10e>
   247e0:	4811      	ldr	r0, [pc, #68]	@ (24828 <_ZN20complex_dynamic_type3app17h931e367a9429da4fE+0x14c>)
   247e2:	2104      	movs	r1, #4
   247e4:	2200      	movs	r2, #0
   247e6:	4613      	mov	r3, r2
   247e8:	df04      	svc	4
   247ea:	a804      	add	r0, sp, #16
   247ec:	7804      	ldrb	r4, [r0, #0]
   247ee:	1c68      	adds	r0, r5, #1
   247f0:	2240      	movs	r2, #64	@ 0x40
   247f2:	9901      	ldr	r1, [sp, #4]
   247f4:	f006 fc86 	bl	2b104 <__aeabi_memcpy>
   247f8:	702e      	strb	r6, [r5, #0]
   247fa:	2c02      	cmp	r4, #2
   247fc:	d006      	beq.n	2480c <_ZN20complex_dynamic_type3app17h931e367a9429da4fE+0x130>
   247fe:	480a      	ldr	r0, [pc, #40]	@ (24828 <_ZN20complex_dynamic_type3app17h931e367a9429da4fE+0x14c>)
   24800:	2108      	movs	r1, #8
   24802:	2200      	movs	r2, #0
   24804:	4613      	mov	r3, r2
   24806:	2c04      	cmp	r4, #4
   24808:	d10a      	bne.n	24820 <_ZN20complex_dynamic_type3app17h931e367a9429da4fE+0x144>
   2480a:	df04      	svc	4
   2480c:	b02d      	add	sp, #180	@ 0xb4
   2480e:	bdf0      	pop	{r4, r5, r6, r7, pc}
   24810:	1c68      	adds	r0, r5, #1
   24812:	2240      	movs	r2, #64	@ 0x40
   24814:	4621      	mov	r1, r4
   24816:	f006 fc75 	bl	2b104 <__aeabi_memcpy>
   2481a:	702e      	strb	r6, [r5, #0]
   2481c:	b02d      	add	sp, #180	@ 0xb4
   2481e:	bdf0      	pop	{r4, r5, r6, r7, pc}
   24820:	df03      	svc	3
   24822:	b02d      	add	sp, #180	@ 0xb4
   24824:	bdf0      	pop	{r4, r5, r6, r7, pc}
   24826:	46c0      	nop			@ (mov r8, r8)
   24828:	00001028 	.word	0x00001028

0002482c <_ZN20complex_dynamic_type3app17h954023b0268a5531E>:
   2482c:	b5f0      	push	{r4, r5, r6, r7, lr}
   2482e:	af03      	add	r7, sp, #12
   24830:	b0a3      	sub	sp, #140	@ 0x8c
   24832:	9004      	str	r0, [sp, #16]
   24834:	a805      	add	r0, sp, #20
   24836:	2402      	movs	r4, #2
   24838:	7004      	strb	r4, [r0, #0]
   2483a:	1c40      	adds	r0, r0, #1
   2483c:	9003      	str	r0, [sp, #12]
   2483e:	2548      	movs	r5, #72	@ 0x48
   24840:	462a      	mov	r2, r5
   24842:	f006 fc5f 	bl	2b104 <__aeabi_memcpy>
   24846:	ae18      	add	r6, sp, #96	@ 0x60
   24848:	1c70      	adds	r0, r6, #1
   2484a:	2129      	movs	r1, #41	@ 0x29
   2484c:	9002      	str	r0, [sp, #8]
   2484e:	f006 fa99 	bl	2ad84 <__aeabi_memclr>
   24852:	9401      	str	r4, [sp, #4]
   24854:	7034      	strb	r4, [r6, #0]
   24856:	484a      	ldr	r0, [pc, #296]	@ (24980 <_ZN20complex_dynamic_type3app17h954023b0268a5531E+0x154>)
   24858:	2603      	movs	r6, #3
   2485a:	4631      	mov	r1, r6
   2485c:	9a03      	ldr	r2, [sp, #12]
   2485e:	462b      	mov	r3, r5
   24860:	df04      	svc	4
   24862:	2802      	cmp	r0, #2
   24864:	d104      	bne.n	24870 <_ZN20complex_dynamic_type3app17h954023b0268a5531E+0x44>
   24866:	2001      	movs	r0, #1
   24868:	9a04      	ldr	r2, [sp, #16]
   2486a:	7010      	strb	r0, [r2, #0]
   2486c:	6051      	str	r1, [r2, #4]
   2486e:	e02b      	b.n	248c8 <_ZN20complex_dynamic_type3app17h954023b0268a5531E+0x9c>
   24870:	9d04      	ldr	r5, [sp, #16]
   24872:	a805      	add	r0, sp, #20
   24874:	2104      	movs	r1, #4
   24876:	7001      	strb	r1, [r0, #0]
   24878:	4841      	ldr	r0, [pc, #260]	@ (24980 <_ZN20complex_dynamic_type3app17h954023b0268a5531E+0x154>)
   2487a:	2329      	movs	r3, #41	@ 0x29
   2487c:	9c02      	ldr	r4, [sp, #8]
   2487e:	4622      	mov	r2, r4
   24880:	df03      	svc	3
   24882:	2802      	cmp	r0, #2
   24884:	d10e      	bne.n	248a4 <_ZN20complex_dynamic_type3app17h954023b0268a5531E+0x78>
   24886:	2001      	movs	r0, #1
   24888:	7028      	strb	r0, [r5, #0]
   2488a:	6069      	str	r1, [r5, #4]
   2488c:	a818      	add	r0, sp, #96	@ 0x60
   2488e:	7800      	ldrb	r0, [r0, #0]
   24890:	2802      	cmp	r0, #2
   24892:	d019      	beq.n	248c8 <_ZN20complex_dynamic_type3app17h954023b0268a5531E+0x9c>
   24894:	2803      	cmp	r0, #3
   24896:	d012      	beq.n	248be <_ZN20complex_dynamic_type3app17h954023b0268a5531E+0x92>
   24898:	4839      	ldr	r0, [pc, #228]	@ (24980 <_ZN20complex_dynamic_type3app17h954023b0268a5531E+0x154>)
   2489a:	2104      	movs	r1, #4
   2489c:	2200      	movs	r2, #0
   2489e:	4613      	mov	r3, r2
   248a0:	df04      	svc	4
   248a2:	e011      	b.n	248c8 <_ZN20complex_dynamic_type3app17h954023b0268a5531E+0x9c>
   248a4:	a818      	add	r0, sp, #96	@ 0x60
   248a6:	7006      	strb	r6, [r0, #0]
   248a8:	4835      	ldr	r0, [pc, #212]	@ (24980 <_ZN20complex_dynamic_type3app17h954023b0268a5531E+0x154>)
   248aa:	2204      	movs	r2, #4
   248ac:	2300      	movs	r3, #0
   248ae:	4631      	mov	r1, r6
   248b0:	9303      	str	r3, [sp, #12]
   248b2:	df02      	svc	2
   248b4:	2880      	cmp	r0, #128	@ 0x80
   248b6:	d21b      	bcs.n	248f0 <_ZN20complex_dynamic_type3app17h954023b0268a5531E+0xc4>
   248b8:	2001      	movs	r0, #1
   248ba:	7028      	strb	r0, [r5, #0]
   248bc:	6069      	str	r1, [r5, #4]
   248be:	4830      	ldr	r0, [pc, #192]	@ (24980 <_ZN20complex_dynamic_type3app17h954023b0268a5531E+0x154>)
   248c0:	2104      	movs	r1, #4
   248c2:	2200      	movs	r2, #0
   248c4:	4613      	mov	r3, r2
   248c6:	df03      	svc	3
   248c8:	a805      	add	r0, sp, #20
   248ca:	7800      	ldrb	r0, [r0, #0]
   248cc:	2802      	cmp	r0, #2
   248ce:	d048      	beq.n	24962 <_ZN20complex_dynamic_type3app17h954023b0268a5531E+0x136>
   248d0:	2804      	cmp	r0, #4
   248d2:	d106      	bne.n	248e2 <_ZN20complex_dynamic_type3app17h954023b0268a5531E+0xb6>
   248d4:	482a      	ldr	r0, [pc, #168]	@ (24980 <_ZN20complex_dynamic_type3app17h954023b0268a5531E+0x154>)
   248d6:	2103      	movs	r1, #3
   248d8:	2200      	movs	r2, #0
   248da:	4613      	mov	r3, r2
   248dc:	df04      	svc	4
   248de:	b023      	add	sp, #140	@ 0x8c
   248e0:	bdf0      	pop	{r4, r5, r6, r7, pc}
   248e2:	4827      	ldr	r0, [pc, #156]	@ (24980 <_ZN20complex_dynamic_type3app17h954023b0268a5531E+0x154>)
   248e4:	2103      	movs	r1, #3
   248e6:	2200      	movs	r2, #0
   248e8:	4613      	mov	r3, r2
   248ea:	df03      	svc	3
   248ec:	b023      	add	sp, #140	@ 0x8c
   248ee:	bdf0      	pop	{r4, r5, r6, r7, pc}
   248f0:	a805      	add	r0, sp, #20
   248f2:	7800      	ldrb	r0, [r0, #0]
   248f4:	2802      	cmp	r0, #2
   248f6:	d00c      	beq.n	24912 <_ZN20complex_dynamic_type3app17h954023b0268a5531E+0xe6>
   248f8:	2803      	cmp	r0, #3
   248fa:	d105      	bne.n	24908 <_ZN20complex_dynamic_type3app17h954023b0268a5531E+0xdc>
   248fc:	4820      	ldr	r0, [pc, #128]	@ (24980 <_ZN20complex_dynamic_type3app17h954023b0268a5531E+0x154>)
   248fe:	2103      	movs	r1, #3
   24900:	2200      	movs	r2, #0
   24902:	4613      	mov	r3, r2
   24904:	df03      	svc	3
   24906:	e004      	b.n	24912 <_ZN20complex_dynamic_type3app17h954023b0268a5531E+0xe6>
   24908:	481d      	ldr	r0, [pc, #116]	@ (24980 <_ZN20complex_dynamic_type3app17h954023b0268a5531E+0x154>)
   2490a:	2103      	movs	r1, #3
   2490c:	2200      	movs	r2, #0
   2490e:	4613      	mov	r3, r2
   24910:	df04      	svc	4
   24912:	a805      	add	r0, sp, #20
   24914:	9901      	ldr	r1, [sp, #4]
   24916:	7001      	strb	r1, [r0, #0]
   24918:	a818      	add	r0, sp, #96	@ 0x60
   2491a:	7800      	ldrb	r0, [r0, #0]
   2491c:	2804      	cmp	r0, #4
   2491e:	d008      	beq.n	24932 <_ZN20complex_dynamic_type3app17h954023b0268a5531E+0x106>
   24920:	2803      	cmp	r0, #3
   24922:	d120      	bne.n	24966 <_ZN20complex_dynamic_type3app17h954023b0268a5531E+0x13a>
   24924:	4626      	mov	r6, r4
   24926:	4816      	ldr	r0, [pc, #88]	@ (24980 <_ZN20complex_dynamic_type3app17h954023b0268a5531E+0x154>)
   24928:	2104      	movs	r1, #4
   2492a:	2200      	movs	r2, #0
   2492c:	4613      	mov	r3, r2
   2492e:	df03      	svc	3
   24930:	e005      	b.n	2493e <_ZN20complex_dynamic_type3app17h954023b0268a5531E+0x112>
   24932:	4626      	mov	r6, r4
   24934:	4812      	ldr	r0, [pc, #72]	@ (24980 <_ZN20complex_dynamic_type3app17h954023b0268a5531E+0x154>)
   24936:	2104      	movs	r1, #4
   24938:	2200      	movs	r2, #0
   2493a:	4613      	mov	r3, r2
   2493c:	df04      	svc	4
   2493e:	a805      	add	r0, sp, #20
   24940:	7804      	ldrb	r4, [r0, #0]
   24942:	1c68      	adds	r0, r5, #1
   24944:	2229      	movs	r2, #41	@ 0x29
   24946:	4631      	mov	r1, r6
   24948:	f006 fbdc 	bl	2b104 <__aeabi_memcpy>
   2494c:	9803      	ldr	r0, [sp, #12]
   2494e:	7028      	strb	r0, [r5, #0]
   24950:	2c02      	cmp	r4, #2
   24952:	d006      	beq.n	24962 <_ZN20complex_dynamic_type3app17h954023b0268a5531E+0x136>
   24954:	480a      	ldr	r0, [pc, #40]	@ (24980 <_ZN20complex_dynamic_type3app17h954023b0268a5531E+0x154>)
   24956:	2103      	movs	r1, #3
   24958:	2200      	movs	r2, #0
   2495a:	4613      	mov	r3, r2
   2495c:	2c04      	cmp	r4, #4
   2495e:	d10b      	bne.n	24978 <_ZN20complex_dynamic_type3app17h954023b0268a5531E+0x14c>
   24960:	df04      	svc	4
   24962:	b023      	add	sp, #140	@ 0x8c
   24964:	bdf0      	pop	{r4, r5, r6, r7, pc}
   24966:	1c68      	adds	r0, r5, #1
   24968:	2229      	movs	r2, #41	@ 0x29
   2496a:	4621      	mov	r1, r4
   2496c:	f006 fbca 	bl	2b104 <__aeabi_memcpy>
   24970:	9803      	ldr	r0, [sp, #12]
   24972:	7028      	strb	r0, [r5, #0]
   24974:	b023      	add	sp, #140	@ 0x8c
   24976:	bdf0      	pop	{r4, r5, r6, r7, pc}
   24978:	df03      	svc	3
   2497a:	b023      	add	sp, #140	@ 0x8c
   2497c:	bdf0      	pop	{r4, r5, r6, r7, pc}
   2497e:	46c0      	nop			@ (mov r8, r8)
   24980:	000026a4 	.word	0x000026a4

00024984 <_ZN20complex_dynamic_type3app17h96af7c539213bd66E>:
   24984:	b5f0      	push	{r4, r5, r6, r7, lr}
   24986:	af03      	add	r7, sp, #12
   24988:	b0a1      	sub	sp, #132	@ 0x84
   2498a:	9003      	str	r0, [sp, #12]
   2498c:	a804      	add	r0, sp, #16
   2498e:	2402      	movs	r4, #2
   24990:	7004      	strb	r4, [r0, #0]
   24992:	1c46      	adds	r6, r0, #1
   24994:	223c      	movs	r2, #60	@ 0x3c
   24996:	9202      	str	r2, [sp, #8]
   24998:	4630      	mov	r0, r6
   2499a:	f006 fbb3 	bl	2b104 <__aeabi_memcpy>
   2499e:	ad14      	add	r5, sp, #80	@ 0x50
   249a0:	1c68      	adds	r0, r5, #1
   249a2:	2132      	movs	r1, #50	@ 0x32
   249a4:	9001      	str	r0, [sp, #4]
   249a6:	f006 f9ed 	bl	2ad84 <__aeabi_memclr>
   249aa:	9400      	str	r4, [sp, #0]
   249ac:	702c      	strb	r4, [r5, #0]
   249ae:	4848      	ldr	r0, [pc, #288]	@ (24ad0 <_ZN20complex_dynamic_type3app17h96af7c539213bd66E+0x14c>)
   249b0:	2106      	movs	r1, #6
   249b2:	4632      	mov	r2, r6
   249b4:	9b02      	ldr	r3, [sp, #8]
   249b6:	df04      	svc	4
   249b8:	2802      	cmp	r0, #2
   249ba:	d104      	bne.n	249c6 <_ZN20complex_dynamic_type3app17h96af7c539213bd66E+0x42>
   249bc:	2001      	movs	r0, #1
   249be:	9a03      	ldr	r2, [sp, #12]
   249c0:	7010      	strb	r0, [r2, #0]
   249c2:	6051      	str	r1, [r2, #4]
   249c4:	e02d      	b.n	24a22 <_ZN20complex_dynamic_type3app17h96af7c539213bd66E+0x9e>
   249c6:	9d03      	ldr	r5, [sp, #12]
   249c8:	a804      	add	r0, sp, #16
   249ca:	2104      	movs	r1, #4
   249cc:	7001      	strb	r1, [r0, #0]
   249ce:	4840      	ldr	r0, [pc, #256]	@ (24ad0 <_ZN20complex_dynamic_type3app17h96af7c539213bd66E+0x14c>)
   249d0:	2108      	movs	r1, #8
   249d2:	2332      	movs	r3, #50	@ 0x32
   249d4:	9c01      	ldr	r4, [sp, #4]
   249d6:	4622      	mov	r2, r4
   249d8:	df03      	svc	3
   249da:	2802      	cmp	r0, #2
   249dc:	d10e      	bne.n	249fc <_ZN20complex_dynamic_type3app17h96af7c539213bd66E+0x78>
   249de:	2001      	movs	r0, #1
   249e0:	7028      	strb	r0, [r5, #0]
   249e2:	6069      	str	r1, [r5, #4]
   249e4:	a814      	add	r0, sp, #80	@ 0x50
   249e6:	7800      	ldrb	r0, [r0, #0]
   249e8:	2802      	cmp	r0, #2
   249ea:	d01a      	beq.n	24a22 <_ZN20complex_dynamic_type3app17h96af7c539213bd66E+0x9e>
   249ec:	2803      	cmp	r0, #3
   249ee:	d013      	beq.n	24a18 <_ZN20complex_dynamic_type3app17h96af7c539213bd66E+0x94>
   249f0:	4837      	ldr	r0, [pc, #220]	@ (24ad0 <_ZN20complex_dynamic_type3app17h96af7c539213bd66E+0x14c>)
   249f2:	2108      	movs	r1, #8
   249f4:	2200      	movs	r2, #0
   249f6:	4613      	mov	r3, r2
   249f8:	df04      	svc	4
   249fa:	e012      	b.n	24a22 <_ZN20complex_dynamic_type3app17h96af7c539213bd66E+0x9e>
   249fc:	a814      	add	r0, sp, #80	@ 0x50
   249fe:	2103      	movs	r1, #3
   24a00:	7001      	strb	r1, [r0, #0]
   24a02:	4833      	ldr	r0, [pc, #204]	@ (24ad0 <_ZN20complex_dynamic_type3app17h96af7c539213bd66E+0x14c>)
   24a04:	2106      	movs	r1, #6
   24a06:	2208      	movs	r2, #8
   24a08:	2600      	movs	r6, #0
   24a0a:	4633      	mov	r3, r6
   24a0c:	df02      	svc	2
   24a0e:	2880      	cmp	r0, #128	@ 0x80
   24a10:	d21b      	bcs.n	24a4a <_ZN20complex_dynamic_type3app17h96af7c539213bd66E+0xc6>
   24a12:	2001      	movs	r0, #1
   24a14:	7028      	strb	r0, [r5, #0]
   24a16:	6069      	str	r1, [r5, #4]
   24a18:	482d      	ldr	r0, [pc, #180]	@ (24ad0 <_ZN20complex_dynamic_type3app17h96af7c539213bd66E+0x14c>)
   24a1a:	2108      	movs	r1, #8
   24a1c:	2200      	movs	r2, #0
   24a1e:	4613      	mov	r3, r2
   24a20:	df03      	svc	3
   24a22:	a804      	add	r0, sp, #16
   24a24:	7800      	ldrb	r0, [r0, #0]
   24a26:	2802      	cmp	r0, #2
   24a28:	d045      	beq.n	24ab6 <_ZN20complex_dynamic_type3app17h96af7c539213bd66E+0x132>
   24a2a:	2804      	cmp	r0, #4
   24a2c:	d106      	bne.n	24a3c <_ZN20complex_dynamic_type3app17h96af7c539213bd66E+0xb8>
   24a2e:	4828      	ldr	r0, [pc, #160]	@ (24ad0 <_ZN20complex_dynamic_type3app17h96af7c539213bd66E+0x14c>)
   24a30:	2106      	movs	r1, #6
   24a32:	2200      	movs	r2, #0
   24a34:	4613      	mov	r3, r2
   24a36:	df04      	svc	4
   24a38:	b021      	add	sp, #132	@ 0x84
   24a3a:	bdf0      	pop	{r4, r5, r6, r7, pc}
   24a3c:	4824      	ldr	r0, [pc, #144]	@ (24ad0 <_ZN20complex_dynamic_type3app17h96af7c539213bd66E+0x14c>)
   24a3e:	2106      	movs	r1, #6
   24a40:	2200      	movs	r2, #0
   24a42:	4613      	mov	r3, r2
   24a44:	df03      	svc	3
   24a46:	b021      	add	sp, #132	@ 0x84
   24a48:	bdf0      	pop	{r4, r5, r6, r7, pc}
   24a4a:	a804      	add	r0, sp, #16
   24a4c:	7800      	ldrb	r0, [r0, #0]
   24a4e:	2802      	cmp	r0, #2
   24a50:	d00c      	beq.n	24a6c <_ZN20complex_dynamic_type3app17h96af7c539213bd66E+0xe8>
   24a52:	2803      	cmp	r0, #3
   24a54:	d105      	bne.n	24a62 <_ZN20complex_dynamic_type3app17h96af7c539213bd66E+0xde>
   24a56:	481e      	ldr	r0, [pc, #120]	@ (24ad0 <_ZN20complex_dynamic_type3app17h96af7c539213bd66E+0x14c>)
   24a58:	2106      	movs	r1, #6
   24a5a:	2200      	movs	r2, #0
   24a5c:	4613      	mov	r3, r2
   24a5e:	df03      	svc	3
   24a60:	e004      	b.n	24a6c <_ZN20complex_dynamic_type3app17h96af7c539213bd66E+0xe8>
   24a62:	481b      	ldr	r0, [pc, #108]	@ (24ad0 <_ZN20complex_dynamic_type3app17h96af7c539213bd66E+0x14c>)
   24a64:	2106      	movs	r1, #6
   24a66:	2200      	movs	r2, #0
   24a68:	4613      	mov	r3, r2
   24a6a:	df04      	svc	4
   24a6c:	a804      	add	r0, sp, #16
   24a6e:	9900      	ldr	r1, [sp, #0]
   24a70:	7001      	strb	r1, [r0, #0]
   24a72:	a814      	add	r0, sp, #80	@ 0x50
   24a74:	7800      	ldrb	r0, [r0, #0]
   24a76:	2804      	cmp	r0, #4
   24a78:	d007      	beq.n	24a8a <_ZN20complex_dynamic_type3app17h96af7c539213bd66E+0x106>
   24a7a:	2803      	cmp	r0, #3
   24a7c:	d11d      	bne.n	24aba <_ZN20complex_dynamic_type3app17h96af7c539213bd66E+0x136>
   24a7e:	4814      	ldr	r0, [pc, #80]	@ (24ad0 <_ZN20complex_dynamic_type3app17h96af7c539213bd66E+0x14c>)
   24a80:	2108      	movs	r1, #8
   24a82:	2200      	movs	r2, #0
   24a84:	4613      	mov	r3, r2
   24a86:	df03      	svc	3
   24a88:	e004      	b.n	24a94 <_ZN20complex_dynamic_type3app17h96af7c539213bd66E+0x110>
   24a8a:	4811      	ldr	r0, [pc, #68]	@ (24ad0 <_ZN20complex_dynamic_type3app17h96af7c539213bd66E+0x14c>)
   24a8c:	2108      	movs	r1, #8
   24a8e:	2200      	movs	r2, #0
   24a90:	4613      	mov	r3, r2
   24a92:	df04      	svc	4
   24a94:	a804      	add	r0, sp, #16
   24a96:	7804      	ldrb	r4, [r0, #0]
   24a98:	1c68      	adds	r0, r5, #1
   24a9a:	2232      	movs	r2, #50	@ 0x32
   24a9c:	9901      	ldr	r1, [sp, #4]
   24a9e:	f006 fb31 	bl	2b104 <__aeabi_memcpy>
   24aa2:	702e      	strb	r6, [r5, #0]
   24aa4:	2c02      	cmp	r4, #2
   24aa6:	d006      	beq.n	24ab6 <_ZN20complex_dynamic_type3app17h96af7c539213bd66E+0x132>
   24aa8:	4809      	ldr	r0, [pc, #36]	@ (24ad0 <_ZN20complex_dynamic_type3app17h96af7c539213bd66E+0x14c>)
   24aaa:	2106      	movs	r1, #6
   24aac:	2200      	movs	r2, #0
   24aae:	4613      	mov	r3, r2
   24ab0:	2c04      	cmp	r4, #4
   24ab2:	d10a      	bne.n	24aca <_ZN20complex_dynamic_type3app17h96af7c539213bd66E+0x146>
   24ab4:	df04      	svc	4
   24ab6:	b021      	add	sp, #132	@ 0x84
   24ab8:	bdf0      	pop	{r4, r5, r6, r7, pc}
   24aba:	1c68      	adds	r0, r5, #1
   24abc:	2232      	movs	r2, #50	@ 0x32
   24abe:	4621      	mov	r1, r4
   24ac0:	f006 fb20 	bl	2b104 <__aeabi_memcpy>
   24ac4:	702e      	strb	r6, [r5, #0]
   24ac6:	b021      	add	sp, #132	@ 0x84
   24ac8:	bdf0      	pop	{r4, r5, r6, r7, pc}
   24aca:	df03      	svc	3
   24acc:	b021      	add	sp, #132	@ 0x84
   24ace:	bdf0      	pop	{r4, r5, r6, r7, pc}
   24ad0:	00001b1e 	.word	0x00001b1e

00024ad4 <_ZN20complex_dynamic_type3app17h9806aa90f2025929E>:
   24ad4:	b5f0      	push	{r4, r5, r6, r7, lr}
   24ad6:	af03      	add	r7, sp, #12
   24ad8:	b09b      	sub	sp, #108	@ 0x6c
   24ada:	9004      	str	r0, [sp, #16]
   24adc:	a805      	add	r0, sp, #20
   24ade:	2402      	movs	r4, #2
   24ae0:	7004      	strb	r4, [r0, #0]
   24ae2:	1c46      	adds	r6, r0, #1
   24ae4:	222c      	movs	r2, #44	@ 0x2c
   24ae6:	9203      	str	r2, [sp, #12]
   24ae8:	4630      	mov	r0, r6
   24aea:	f006 fb0b 	bl	2b104 <__aeabi_memcpy>
   24aee:	ad11      	add	r5, sp, #68	@ 0x44
   24af0:	1c68      	adds	r0, r5, #1
   24af2:	2127      	movs	r1, #39	@ 0x27
   24af4:	9002      	str	r0, [sp, #8]
   24af6:	f006 f945 	bl	2ad84 <__aeabi_memclr>
   24afa:	9401      	str	r4, [sp, #4]
   24afc:	702c      	strb	r4, [r5, #0]
   24afe:	4848      	ldr	r0, [pc, #288]	@ (24c20 <_ZN20complex_dynamic_type3app17h9806aa90f2025929E+0x14c>)
   24b00:	2504      	movs	r5, #4
   24b02:	4629      	mov	r1, r5
   24b04:	4632      	mov	r2, r6
   24b06:	9b03      	ldr	r3, [sp, #12]
   24b08:	df04      	svc	4
   24b0a:	2802      	cmp	r0, #2
   24b0c:	d104      	bne.n	24b18 <_ZN20complex_dynamic_type3app17h9806aa90f2025929E+0x44>
   24b0e:	2001      	movs	r0, #1
   24b10:	9a04      	ldr	r2, [sp, #16]
   24b12:	7010      	strb	r0, [r2, #0]
   24b14:	6051      	str	r1, [r2, #4]
   24b16:	e02b      	b.n	24b70 <_ZN20complex_dynamic_type3app17h9806aa90f2025929E+0x9c>
   24b18:	9e04      	ldr	r6, [sp, #16]
   24b1a:	a805      	add	r0, sp, #20
   24b1c:	7005      	strb	r5, [r0, #0]
   24b1e:	4840      	ldr	r0, [pc, #256]	@ (24c20 <_ZN20complex_dynamic_type3app17h9806aa90f2025929E+0x14c>)
   24b20:	2403      	movs	r4, #3
   24b22:	2327      	movs	r3, #39	@ 0x27
   24b24:	4621      	mov	r1, r4
   24b26:	9a02      	ldr	r2, [sp, #8]
   24b28:	df03      	svc	3
   24b2a:	2802      	cmp	r0, #2
   24b2c:	d10e      	bne.n	24b4c <_ZN20complex_dynamic_type3app17h9806aa90f2025929E+0x78>
   24b2e:	2001      	movs	r0, #1
   24b30:	7030      	strb	r0, [r6, #0]
   24b32:	6071      	str	r1, [r6, #4]
   24b34:	a811      	add	r0, sp, #68	@ 0x44
   24b36:	7800      	ldrb	r0, [r0, #0]
   24b38:	2802      	cmp	r0, #2
   24b3a:	d019      	beq.n	24b70 <_ZN20complex_dynamic_type3app17h9806aa90f2025929E+0x9c>
   24b3c:	2803      	cmp	r0, #3
   24b3e:	d012      	beq.n	24b66 <_ZN20complex_dynamic_type3app17h9806aa90f2025929E+0x92>
   24b40:	4837      	ldr	r0, [pc, #220]	@ (24c20 <_ZN20complex_dynamic_type3app17h9806aa90f2025929E+0x14c>)
   24b42:	2103      	movs	r1, #3
   24b44:	2200      	movs	r2, #0
   24b46:	4613      	mov	r3, r2
   24b48:	df04      	svc	4
   24b4a:	e011      	b.n	24b70 <_ZN20complex_dynamic_type3app17h9806aa90f2025929E+0x9c>
   24b4c:	a811      	add	r0, sp, #68	@ 0x44
   24b4e:	7004      	strb	r4, [r0, #0]
   24b50:	4833      	ldr	r0, [pc, #204]	@ (24c20 <_ZN20complex_dynamic_type3app17h9806aa90f2025929E+0x14c>)
   24b52:	2104      	movs	r1, #4
   24b54:	2500      	movs	r5, #0
   24b56:	4622      	mov	r2, r4
   24b58:	462b      	mov	r3, r5
   24b5a:	df02      	svc	2
   24b5c:	2880      	cmp	r0, #128	@ 0x80
   24b5e:	d21b      	bcs.n	24b98 <_ZN20complex_dynamic_type3app17h9806aa90f2025929E+0xc4>
   24b60:	2001      	movs	r0, #1
   24b62:	7030      	strb	r0, [r6, #0]
   24b64:	6071      	str	r1, [r6, #4]
   24b66:	482e      	ldr	r0, [pc, #184]	@ (24c20 <_ZN20complex_dynamic_type3app17h9806aa90f2025929E+0x14c>)
   24b68:	2103      	movs	r1, #3
   24b6a:	2200      	movs	r2, #0
   24b6c:	4613      	mov	r3, r2
   24b6e:	df03      	svc	3
   24b70:	a805      	add	r0, sp, #20
   24b72:	7800      	ldrb	r0, [r0, #0]
   24b74:	2802      	cmp	r0, #2
   24b76:	d045      	beq.n	24c04 <_ZN20complex_dynamic_type3app17h9806aa90f2025929E+0x130>
   24b78:	2804      	cmp	r0, #4
   24b7a:	d106      	bne.n	24b8a <_ZN20complex_dynamic_type3app17h9806aa90f2025929E+0xb6>
   24b7c:	4828      	ldr	r0, [pc, #160]	@ (24c20 <_ZN20complex_dynamic_type3app17h9806aa90f2025929E+0x14c>)
   24b7e:	2104      	movs	r1, #4
   24b80:	2200      	movs	r2, #0
   24b82:	4613      	mov	r3, r2
   24b84:	df04      	svc	4
   24b86:	b01b      	add	sp, #108	@ 0x6c
   24b88:	bdf0      	pop	{r4, r5, r6, r7, pc}
   24b8a:	4825      	ldr	r0, [pc, #148]	@ (24c20 <_ZN20complex_dynamic_type3app17h9806aa90f2025929E+0x14c>)
   24b8c:	2104      	movs	r1, #4
   24b8e:	2200      	movs	r2, #0
   24b90:	4613      	mov	r3, r2
   24b92:	df03      	svc	3
   24b94:	b01b      	add	sp, #108	@ 0x6c
   24b96:	bdf0      	pop	{r4, r5, r6, r7, pc}
   24b98:	a805      	add	r0, sp, #20
   24b9a:	7800      	ldrb	r0, [r0, #0]
   24b9c:	2802      	cmp	r0, #2
   24b9e:	d00c      	beq.n	24bba <_ZN20complex_dynamic_type3app17h9806aa90f2025929E+0xe6>
   24ba0:	2803      	cmp	r0, #3
   24ba2:	d105      	bne.n	24bb0 <_ZN20complex_dynamic_type3app17h9806aa90f2025929E+0xdc>
   24ba4:	481e      	ldr	r0, [pc, #120]	@ (24c20 <_ZN20complex_dynamic_type3app17h9806aa90f2025929E+0x14c>)
   24ba6:	2104      	movs	r1, #4
   24ba8:	2200      	movs	r2, #0
   24baa:	4613      	mov	r3, r2
   24bac:	df03      	svc	3
   24bae:	e004      	b.n	24bba <_ZN20complex_dynamic_type3app17h9806aa90f2025929E+0xe6>
   24bb0:	481b      	ldr	r0, [pc, #108]	@ (24c20 <_ZN20complex_dynamic_type3app17h9806aa90f2025929E+0x14c>)
   24bb2:	2104      	movs	r1, #4
   24bb4:	2200      	movs	r2, #0
   24bb6:	4613      	mov	r3, r2
   24bb8:	df04      	svc	4
   24bba:	a805      	add	r0, sp, #20
   24bbc:	9901      	ldr	r1, [sp, #4]
   24bbe:	7001      	strb	r1, [r0, #0]
   24bc0:	a811      	add	r0, sp, #68	@ 0x44
   24bc2:	7800      	ldrb	r0, [r0, #0]
   24bc4:	2804      	cmp	r0, #4
   24bc6:	d007      	beq.n	24bd8 <_ZN20complex_dynamic_type3app17h9806aa90f2025929E+0x104>
   24bc8:	2803      	cmp	r0, #3
   24bca:	d11d      	bne.n	24c08 <_ZN20complex_dynamic_type3app17h9806aa90f2025929E+0x134>
   24bcc:	4814      	ldr	r0, [pc, #80]	@ (24c20 <_ZN20complex_dynamic_type3app17h9806aa90f2025929E+0x14c>)
   24bce:	2103      	movs	r1, #3
   24bd0:	2200      	movs	r2, #0
   24bd2:	4613      	mov	r3, r2
   24bd4:	df03      	svc	3
   24bd6:	e004      	b.n	24be2 <_ZN20complex_dynamic_type3app17h9806aa90f2025929E+0x10e>
   24bd8:	4811      	ldr	r0, [pc, #68]	@ (24c20 <_ZN20complex_dynamic_type3app17h9806aa90f2025929E+0x14c>)
   24bda:	2103      	movs	r1, #3
   24bdc:	2200      	movs	r2, #0
   24bde:	4613      	mov	r3, r2
   24be0:	df04      	svc	4
   24be2:	a805      	add	r0, sp, #20
   24be4:	7804      	ldrb	r4, [r0, #0]
   24be6:	1c70      	adds	r0, r6, #1
   24be8:	2227      	movs	r2, #39	@ 0x27
   24bea:	9902      	ldr	r1, [sp, #8]
   24bec:	f006 fa8a 	bl	2b104 <__aeabi_memcpy>
   24bf0:	7035      	strb	r5, [r6, #0]
   24bf2:	2c02      	cmp	r4, #2
   24bf4:	d006      	beq.n	24c04 <_ZN20complex_dynamic_type3app17h9806aa90f2025929E+0x130>
   24bf6:	480a      	ldr	r0, [pc, #40]	@ (24c20 <_ZN20complex_dynamic_type3app17h9806aa90f2025929E+0x14c>)
   24bf8:	2104      	movs	r1, #4
   24bfa:	2200      	movs	r2, #0
   24bfc:	4613      	mov	r3, r2
   24bfe:	2c04      	cmp	r4, #4
   24c00:	d10a      	bne.n	24c18 <_ZN20complex_dynamic_type3app17h9806aa90f2025929E+0x144>
   24c02:	df04      	svc	4
   24c04:	b01b      	add	sp, #108	@ 0x6c
   24c06:	bdf0      	pop	{r4, r5, r6, r7, pc}
   24c08:	1c70      	adds	r0, r6, #1
   24c0a:	2227      	movs	r2, #39	@ 0x27
   24c0c:	9902      	ldr	r1, [sp, #8]
   24c0e:	f006 fa79 	bl	2b104 <__aeabi_memcpy>
   24c12:	7035      	strb	r5, [r6, #0]
   24c14:	b01b      	add	sp, #108	@ 0x6c
   24c16:	bdf0      	pop	{r4, r5, r6, r7, pc}
   24c18:	df03      	svc	3
   24c1a:	b01b      	add	sp, #108	@ 0x6c
   24c1c:	bdf0      	pop	{r4, r5, r6, r7, pc}
   24c1e:	46c0      	nop			@ (mov r8, r8)
   24c20:	000011b5 	.word	0x000011b5

00024c24 <_ZN20complex_dynamic_type3app17h996a43e6f3bbad40E>:
   24c24:	b5f0      	push	{r4, r5, r6, r7, lr}
   24c26:	af03      	add	r7, sp, #12
   24c28:	b0a5      	sub	sp, #148	@ 0x94
   24c2a:	9003      	str	r0, [sp, #12]
   24c2c:	a804      	add	r0, sp, #16
   24c2e:	2502      	movs	r5, #2
   24c30:	7005      	strb	r5, [r0, #0]
   24c32:	1c40      	adds	r0, r0, #1
   24c34:	9002      	str	r0, [sp, #8]
   24c36:	2661      	movs	r6, #97	@ 0x61
   24c38:	4632      	mov	r2, r6
   24c3a:	f006 fa63 	bl	2b104 <__aeabi_memcpy>
   24c3e:	ac1d      	add	r4, sp, #116	@ 0x74
   24c40:	1c60      	adds	r0, r4, #1
   24c42:	211e      	movs	r1, #30
   24c44:	9001      	str	r0, [sp, #4]
   24c46:	f006 f89d 	bl	2ad84 <__aeabi_memclr>
   24c4a:	9500      	str	r5, [sp, #0]
   24c4c:	7025      	strb	r5, [r4, #0]
   24c4e:	2031      	movs	r0, #49	@ 0x31
   24c50:	00c5      	lsls	r5, r0, #3
   24c52:	2404      	movs	r4, #4
   24c54:	4628      	mov	r0, r5
   24c56:	4621      	mov	r1, r4
   24c58:	9a02      	ldr	r2, [sp, #8]
   24c5a:	4633      	mov	r3, r6
   24c5c:	df04      	svc	4
   24c5e:	2802      	cmp	r0, #2
   24c60:	d104      	bne.n	24c6c <_ZN20complex_dynamic_type3app17h996a43e6f3bbad40E+0x48>
   24c62:	2001      	movs	r0, #1
   24c64:	9a03      	ldr	r2, [sp, #12]
   24c66:	7010      	strb	r0, [r2, #0]
   24c68:	6051      	str	r1, [r2, #4]
   24c6a:	e02c      	b.n	24cc6 <_ZN20complex_dynamic_type3app17h996a43e6f3bbad40E+0xa2>
   24c6c:	9e03      	ldr	r6, [sp, #12]
   24c6e:	a804      	add	r0, sp, #16
   24c70:	7004      	strb	r4, [r0, #0]
   24c72:	2106      	movs	r1, #6
   24c74:	231e      	movs	r3, #30
   24c76:	4628      	mov	r0, r5
   24c78:	9c01      	ldr	r4, [sp, #4]
   24c7a:	4622      	mov	r2, r4
   24c7c:	df03      	svc	3
   24c7e:	2802      	cmp	r0, #2
   24c80:	d10e      	bne.n	24ca0 <_ZN20complex_dynamic_type3app17h996a43e6f3bbad40E+0x7c>
   24c82:	2001      	movs	r0, #1
   24c84:	7030      	strb	r0, [r6, #0]
   24c86:	6071      	str	r1, [r6, #4]
   24c88:	a81d      	add	r0, sp, #116	@ 0x74
   24c8a:	7800      	ldrb	r0, [r0, #0]
   24c8c:	2802      	cmp	r0, #2
   24c8e:	d01a      	beq.n	24cc6 <_ZN20complex_dynamic_type3app17h996a43e6f3bbad40E+0xa2>
   24c90:	2803      	cmp	r0, #3
   24c92:	d013      	beq.n	24cbc <_ZN20complex_dynamic_type3app17h996a43e6f3bbad40E+0x98>
   24c94:	2106      	movs	r1, #6
   24c96:	2200      	movs	r2, #0
   24c98:	4628      	mov	r0, r5
   24c9a:	4613      	mov	r3, r2
   24c9c:	df04      	svc	4
   24c9e:	e012      	b.n	24cc6 <_ZN20complex_dynamic_type3app17h996a43e6f3bbad40E+0xa2>
   24ca0:	a81d      	add	r0, sp, #116	@ 0x74
   24ca2:	2103      	movs	r1, #3
   24ca4:	7001      	strb	r1, [r0, #0]
   24ca6:	2104      	movs	r1, #4
   24ca8:	2206      	movs	r2, #6
   24caa:	2300      	movs	r3, #0
   24cac:	4628      	mov	r0, r5
   24cae:	9302      	str	r3, [sp, #8]
   24cb0:	df02      	svc	2
   24cb2:	2880      	cmp	r0, #128	@ 0x80
   24cb4:	d219      	bcs.n	24cea <_ZN20complex_dynamic_type3app17h996a43e6f3bbad40E+0xc6>
   24cb6:	2001      	movs	r0, #1
   24cb8:	7030      	strb	r0, [r6, #0]
   24cba:	6071      	str	r1, [r6, #4]
   24cbc:	2106      	movs	r1, #6
   24cbe:	2200      	movs	r2, #0
   24cc0:	4628      	mov	r0, r5
   24cc2:	4613      	mov	r3, r2
   24cc4:	df03      	svc	3
   24cc6:	a804      	add	r0, sp, #16
   24cc8:	7800      	ldrb	r0, [r0, #0]
   24cca:	2802      	cmp	r0, #2
   24ccc:	d042      	beq.n	24d54 <_ZN20complex_dynamic_type3app17h996a43e6f3bbad40E+0x130>
   24cce:	2104      	movs	r1, #4
   24cd0:	2200      	movs	r2, #0
   24cd2:	2804      	cmp	r0, #4
   24cd4:	d104      	bne.n	24ce0 <_ZN20complex_dynamic_type3app17h996a43e6f3bbad40E+0xbc>
   24cd6:	4628      	mov	r0, r5
   24cd8:	4613      	mov	r3, r2
   24cda:	df04      	svc	4
   24cdc:	b025      	add	sp, #148	@ 0x94
   24cde:	bdf0      	pop	{r4, r5, r6, r7, pc}
   24ce0:	4628      	mov	r0, r5
   24ce2:	4613      	mov	r3, r2
   24ce4:	df03      	svc	3
   24ce6:	b025      	add	sp, #148	@ 0x94
   24ce8:	bdf0      	pop	{r4, r5, r6, r7, pc}
   24cea:	a804      	add	r0, sp, #16
   24cec:	7800      	ldrb	r0, [r0, #0]
   24cee:	2802      	cmp	r0, #2
   24cf0:	d00a      	beq.n	24d08 <_ZN20complex_dynamic_type3app17h996a43e6f3bbad40E+0xe4>
   24cf2:	2104      	movs	r1, #4
   24cf4:	2200      	movs	r2, #0
   24cf6:	2803      	cmp	r0, #3
   24cf8:	d103      	bne.n	24d02 <_ZN20complex_dynamic_type3app17h996a43e6f3bbad40E+0xde>
   24cfa:	4628      	mov	r0, r5
   24cfc:	4613      	mov	r3, r2
   24cfe:	df03      	svc	3
   24d00:	e002      	b.n	24d08 <_ZN20complex_dynamic_type3app17h996a43e6f3bbad40E+0xe4>
   24d02:	4628      	mov	r0, r5
   24d04:	4613      	mov	r3, r2
   24d06:	df04      	svc	4
   24d08:	a804      	add	r0, sp, #16
   24d0a:	9900      	ldr	r1, [sp, #0]
   24d0c:	7001      	strb	r1, [r0, #0]
   24d0e:	a81d      	add	r0, sp, #116	@ 0x74
   24d10:	7800      	ldrb	r0, [r0, #0]
   24d12:	2804      	cmp	r0, #4
   24d14:	d007      	beq.n	24d26 <_ZN20complex_dynamic_type3app17h996a43e6f3bbad40E+0x102>
   24d16:	2803      	cmp	r0, #3
   24d18:	d11e      	bne.n	24d58 <_ZN20complex_dynamic_type3app17h996a43e6f3bbad40E+0x134>
   24d1a:	2106      	movs	r1, #6
   24d1c:	2200      	movs	r2, #0
   24d1e:	4628      	mov	r0, r5
   24d20:	4613      	mov	r3, r2
   24d22:	df03      	svc	3
   24d24:	e004      	b.n	24d30 <_ZN20complex_dynamic_type3app17h996a43e6f3bbad40E+0x10c>
   24d26:	2106      	movs	r1, #6
   24d28:	2200      	movs	r2, #0
   24d2a:	4628      	mov	r0, r5
   24d2c:	4613      	mov	r3, r2
   24d2e:	df04      	svc	4
   24d30:	a804      	add	r0, sp, #16
   24d32:	7804      	ldrb	r4, [r0, #0]
   24d34:	1c70      	adds	r0, r6, #1
   24d36:	221e      	movs	r2, #30
   24d38:	9901      	ldr	r1, [sp, #4]
   24d3a:	f006 f9e3 	bl	2b104 <__aeabi_memcpy>
   24d3e:	9802      	ldr	r0, [sp, #8]
   24d40:	7030      	strb	r0, [r6, #0]
   24d42:	2c02      	cmp	r4, #2
   24d44:	d006      	beq.n	24d54 <_ZN20complex_dynamic_type3app17h996a43e6f3bbad40E+0x130>
   24d46:	2104      	movs	r1, #4
   24d48:	2200      	movs	r2, #0
   24d4a:	4628      	mov	r0, r5
   24d4c:	4613      	mov	r3, r2
   24d4e:	2c04      	cmp	r4, #4
   24d50:	d10b      	bne.n	24d6a <_ZN20complex_dynamic_type3app17h996a43e6f3bbad40E+0x146>
   24d52:	df04      	svc	4
   24d54:	b025      	add	sp, #148	@ 0x94
   24d56:	bdf0      	pop	{r4, r5, r6, r7, pc}
   24d58:	1c70      	adds	r0, r6, #1
   24d5a:	221e      	movs	r2, #30
   24d5c:	4621      	mov	r1, r4
   24d5e:	f006 f9d1 	bl	2b104 <__aeabi_memcpy>
   24d62:	9802      	ldr	r0, [sp, #8]
   24d64:	7030      	strb	r0, [r6, #0]
   24d66:	b025      	add	sp, #148	@ 0x94
   24d68:	bdf0      	pop	{r4, r5, r6, r7, pc}
   24d6a:	df03      	svc	3
   24d6c:	b025      	add	sp, #148	@ 0x94
   24d6e:	bdf0      	pop	{r4, r5, r6, r7, pc}

00024d70 <_ZN20complex_dynamic_type3app17h9b4588379009bb1dE>:
   24d70:	b5f0      	push	{r4, r5, r6, r7, lr}
   24d72:	af03      	add	r7, sp, #12
   24d74:	b093      	sub	sp, #76	@ 0x4c
   24d76:	9003      	str	r0, [sp, #12]
   24d78:	a804      	add	r0, sp, #16
   24d7a:	2402      	movs	r4, #2
   24d7c:	7004      	strb	r4, [r0, #0]
   24d7e:	1c46      	adds	r6, r0, #1
   24d80:	2218      	movs	r2, #24
   24d82:	9202      	str	r2, [sp, #8]
   24d84:	4630      	mov	r0, r6
   24d86:	f006 f9bd 	bl	2b104 <__aeabi_memcpy>
   24d8a:	ad0b      	add	r5, sp, #44	@ 0x2c
   24d8c:	1c68      	adds	r0, r5, #1
   24d8e:	211e      	movs	r1, #30
   24d90:	9001      	str	r0, [sp, #4]
   24d92:	f005 fff7 	bl	2ad84 <__aeabi_memclr>
   24d96:	9400      	str	r4, [sp, #0]
   24d98:	702c      	strb	r4, [r5, #0]
   24d9a:	4848      	ldr	r0, [pc, #288]	@ (24ebc <_ZN20complex_dynamic_type3app17h9b4588379009bb1dE+0x14c>)
   24d9c:	2109      	movs	r1, #9
   24d9e:	4632      	mov	r2, r6
   24da0:	9b02      	ldr	r3, [sp, #8]
   24da2:	df04      	svc	4
   24da4:	2802      	cmp	r0, #2
   24da6:	d104      	bne.n	24db2 <_ZN20complex_dynamic_type3app17h9b4588379009bb1dE+0x42>
   24da8:	2001      	movs	r0, #1
   24daa:	9a03      	ldr	r2, [sp, #12]
   24dac:	7010      	strb	r0, [r2, #0]
   24dae:	6051      	str	r1, [r2, #4]
   24db0:	e02d      	b.n	24e0e <_ZN20complex_dynamic_type3app17h9b4588379009bb1dE+0x9e>
   24db2:	9d03      	ldr	r5, [sp, #12]
   24db4:	a804      	add	r0, sp, #16
   24db6:	2104      	movs	r1, #4
   24db8:	7001      	strb	r1, [r0, #0]
   24dba:	4840      	ldr	r0, [pc, #256]	@ (24ebc <_ZN20complex_dynamic_type3app17h9b4588379009bb1dE+0x14c>)
   24dbc:	2105      	movs	r1, #5
   24dbe:	231e      	movs	r3, #30
   24dc0:	9c01      	ldr	r4, [sp, #4]
   24dc2:	4622      	mov	r2, r4
   24dc4:	df03      	svc	3
   24dc6:	2802      	cmp	r0, #2
   24dc8:	d10e      	bne.n	24de8 <_ZN20complex_dynamic_type3app17h9b4588379009bb1dE+0x78>
   24dca:	2001      	movs	r0, #1
   24dcc:	7028      	strb	r0, [r5, #0]
   24dce:	6069      	str	r1, [r5, #4]
   24dd0:	a80b      	add	r0, sp, #44	@ 0x2c
   24dd2:	7800      	ldrb	r0, [r0, #0]
   24dd4:	2802      	cmp	r0, #2
   24dd6:	d01a      	beq.n	24e0e <_ZN20complex_dynamic_type3app17h9b4588379009bb1dE+0x9e>
   24dd8:	2803      	cmp	r0, #3
   24dda:	d013      	beq.n	24e04 <_ZN20complex_dynamic_type3app17h9b4588379009bb1dE+0x94>
   24ddc:	4837      	ldr	r0, [pc, #220]	@ (24ebc <_ZN20complex_dynamic_type3app17h9b4588379009bb1dE+0x14c>)
   24dde:	2105      	movs	r1, #5
   24de0:	2200      	movs	r2, #0
   24de2:	4613      	mov	r3, r2
   24de4:	df04      	svc	4
   24de6:	e012      	b.n	24e0e <_ZN20complex_dynamic_type3app17h9b4588379009bb1dE+0x9e>
   24de8:	a80b      	add	r0, sp, #44	@ 0x2c
   24dea:	2103      	movs	r1, #3
   24dec:	7001      	strb	r1, [r0, #0]
   24dee:	4833      	ldr	r0, [pc, #204]	@ (24ebc <_ZN20complex_dynamic_type3app17h9b4588379009bb1dE+0x14c>)
   24df0:	2109      	movs	r1, #9
   24df2:	2205      	movs	r2, #5
   24df4:	2600      	movs	r6, #0
   24df6:	4633      	mov	r3, r6
   24df8:	df02      	svc	2
   24dfa:	2880      	cmp	r0, #128	@ 0x80
   24dfc:	d21b      	bcs.n	24e36 <_ZN20complex_dynamic_type3app17h9b4588379009bb1dE+0xc6>
   24dfe:	2001      	movs	r0, #1
   24e00:	7028      	strb	r0, [r5, #0]
   24e02:	6069      	str	r1, [r5, #4]
   24e04:	482d      	ldr	r0, [pc, #180]	@ (24ebc <_ZN20complex_dynamic_type3app17h9b4588379009bb1dE+0x14c>)
   24e06:	2105      	movs	r1, #5
   24e08:	2200      	movs	r2, #0
   24e0a:	4613      	mov	r3, r2
   24e0c:	df03      	svc	3
   24e0e:	a804      	add	r0, sp, #16
   24e10:	7800      	ldrb	r0, [r0, #0]
   24e12:	2802      	cmp	r0, #2
   24e14:	d045      	beq.n	24ea2 <_ZN20complex_dynamic_type3app17h9b4588379009bb1dE+0x132>
   24e16:	2804      	cmp	r0, #4
   24e18:	d106      	bne.n	24e28 <_ZN20complex_dynamic_type3app17h9b4588379009bb1dE+0xb8>
   24e1a:	4828      	ldr	r0, [pc, #160]	@ (24ebc <_ZN20complex_dynamic_type3app17h9b4588379009bb1dE+0x14c>)
   24e1c:	2109      	movs	r1, #9
   24e1e:	2200      	movs	r2, #0
   24e20:	4613      	mov	r3, r2
   24e22:	df04      	svc	4
   24e24:	b013      	add	sp, #76	@ 0x4c
   24e26:	bdf0      	pop	{r4, r5, r6, r7, pc}
   24e28:	4824      	ldr	r0, [pc, #144]	@ (24ebc <_ZN20complex_dynamic_type3app17h9b4588379009bb1dE+0x14c>)
   24e2a:	2109      	movs	r1, #9
   24e2c:	2200      	movs	r2, #0
   24e2e:	4613      	mov	r3, r2
   24e30:	df03      	svc	3
   24e32:	b013      	add	sp, #76	@ 0x4c
   24e34:	bdf0      	pop	{r4, r5, r6, r7, pc}
   24e36:	a804      	add	r0, sp, #16
   24e38:	7800      	ldrb	r0, [r0, #0]
   24e3a:	2802      	cmp	r0, #2
   24e3c:	d00c      	beq.n	24e58 <_ZN20complex_dynamic_type3app17h9b4588379009bb1dE+0xe8>
   24e3e:	2803      	cmp	r0, #3
   24e40:	d105      	bne.n	24e4e <_ZN20complex_dynamic_type3app17h9b4588379009bb1dE+0xde>
   24e42:	481e      	ldr	r0, [pc, #120]	@ (24ebc <_ZN20complex_dynamic_type3app17h9b4588379009bb1dE+0x14c>)
   24e44:	2109      	movs	r1, #9
   24e46:	2200      	movs	r2, #0
   24e48:	4613      	mov	r3, r2
   24e4a:	df03      	svc	3
   24e4c:	e004      	b.n	24e58 <_ZN20complex_dynamic_type3app17h9b4588379009bb1dE+0xe8>
   24e4e:	481b      	ldr	r0, [pc, #108]	@ (24ebc <_ZN20complex_dynamic_type3app17h9b4588379009bb1dE+0x14c>)
   24e50:	2109      	movs	r1, #9
   24e52:	2200      	movs	r2, #0
   24e54:	4613      	mov	r3, r2
   24e56:	df04      	svc	4
   24e58:	a804      	add	r0, sp, #16
   24e5a:	9900      	ldr	r1, [sp, #0]
   24e5c:	7001      	strb	r1, [r0, #0]
   24e5e:	a80b      	add	r0, sp, #44	@ 0x2c
   24e60:	7800      	ldrb	r0, [r0, #0]
   24e62:	2804      	cmp	r0, #4
   24e64:	d007      	beq.n	24e76 <_ZN20complex_dynamic_type3app17h9b4588379009bb1dE+0x106>
   24e66:	2803      	cmp	r0, #3
   24e68:	d11d      	bne.n	24ea6 <_ZN20complex_dynamic_type3app17h9b4588379009bb1dE+0x136>
   24e6a:	4814      	ldr	r0, [pc, #80]	@ (24ebc <_ZN20complex_dynamic_type3app17h9b4588379009bb1dE+0x14c>)
   24e6c:	2105      	movs	r1, #5
   24e6e:	2200      	movs	r2, #0
   24e70:	4613      	mov	r3, r2
   24e72:	df03      	svc	3
   24e74:	e004      	b.n	24e80 <_ZN20complex_dynamic_type3app17h9b4588379009bb1dE+0x110>
   24e76:	4811      	ldr	r0, [pc, #68]	@ (24ebc <_ZN20complex_dynamic_type3app17h9b4588379009bb1dE+0x14c>)
   24e78:	2105      	movs	r1, #5
   24e7a:	2200      	movs	r2, #0
   24e7c:	4613      	mov	r3, r2
   24e7e:	df04      	svc	4
   24e80:	a804      	add	r0, sp, #16
   24e82:	7804      	ldrb	r4, [r0, #0]
   24e84:	1c68      	adds	r0, r5, #1
   24e86:	221e      	movs	r2, #30
   24e88:	9901      	ldr	r1, [sp, #4]
   24e8a:	f006 f93b 	bl	2b104 <__aeabi_memcpy>
   24e8e:	702e      	strb	r6, [r5, #0]
   24e90:	2c02      	cmp	r4, #2
   24e92:	d006      	beq.n	24ea2 <_ZN20complex_dynamic_type3app17h9b4588379009bb1dE+0x132>
   24e94:	4809      	ldr	r0, [pc, #36]	@ (24ebc <_ZN20complex_dynamic_type3app17h9b4588379009bb1dE+0x14c>)
   24e96:	2109      	movs	r1, #9
   24e98:	2200      	movs	r2, #0
   24e9a:	4613      	mov	r3, r2
   24e9c:	2c04      	cmp	r4, #4
   24e9e:	d10a      	bne.n	24eb6 <_ZN20complex_dynamic_type3app17h9b4588379009bb1dE+0x146>
   24ea0:	df04      	svc	4
   24ea2:	b013      	add	sp, #76	@ 0x4c
   24ea4:	bdf0      	pop	{r4, r5, r6, r7, pc}
   24ea6:	1c68      	adds	r0, r5, #1
   24ea8:	221e      	movs	r2, #30
   24eaa:	4621      	mov	r1, r4
   24eac:	f006 f92a 	bl	2b104 <__aeabi_memcpy>
   24eb0:	702e      	strb	r6, [r5, #0]
   24eb2:	b013      	add	sp, #76	@ 0x4c
   24eb4:	bdf0      	pop	{r4, r5, r6, r7, pc}
   24eb6:	df03      	svc	3
   24eb8:	b013      	add	sp, #76	@ 0x4c
   24eba:	bdf0      	pop	{r4, r5, r6, r7, pc}
   24ebc:	00000cbb 	.word	0x00000cbb

00024ec0 <_ZN20complex_dynamic_type3app17h9f5d75a0db084ebcE>:
   24ec0:	b5f0      	push	{r4, r5, r6, r7, lr}
   24ec2:	af03      	add	r7, sp, #12
   24ec4:	b097      	sub	sp, #92	@ 0x5c
   24ec6:	9002      	str	r0, [sp, #8]
   24ec8:	a803      	add	r0, sp, #12
   24eca:	2602      	movs	r6, #2
   24ecc:	7006      	strb	r6, [r0, #0]
   24ece:	1c40      	adds	r0, r0, #1
   24ed0:	9001      	str	r0, [sp, #4]
   24ed2:	2523      	movs	r5, #35	@ 0x23
   24ed4:	462a      	mov	r2, r5
   24ed6:	f006 f915 	bl	2b104 <__aeabi_memcpy>
   24eda:	ac0c      	add	r4, sp, #48	@ 0x30
   24edc:	1c60      	adds	r0, r4, #1
   24ede:	212b      	movs	r1, #43	@ 0x2b
   24ee0:	9000      	str	r0, [sp, #0]
   24ee2:	f005 ff4f 	bl	2ad84 <__aeabi_memclr>
   24ee6:	7026      	strb	r6, [r4, #0]
   24ee8:	484a      	ldr	r0, [pc, #296]	@ (25014 <_ZN20complex_dynamic_type3app17h9f5d75a0db084ebcE+0x154>)
   24eea:	4631      	mov	r1, r6
   24eec:	9a01      	ldr	r2, [sp, #4]
   24eee:	462b      	mov	r3, r5
   24ef0:	df04      	svc	4
   24ef2:	2802      	cmp	r0, #2
   24ef4:	d104      	bne.n	24f00 <_ZN20complex_dynamic_type3app17h9f5d75a0db084ebcE+0x40>
   24ef6:	2001      	movs	r0, #1
   24ef8:	9a02      	ldr	r2, [sp, #8]
   24efa:	7010      	strb	r0, [r2, #0]
   24efc:	6051      	str	r1, [r2, #4]
   24efe:	e02e      	b.n	24f5e <_ZN20complex_dynamic_type3app17h9f5d75a0db084ebcE+0x9e>
   24f00:	9d02      	ldr	r5, [sp, #8]
   24f02:	a803      	add	r0, sp, #12
   24f04:	2104      	movs	r1, #4
   24f06:	7001      	strb	r1, [r0, #0]
   24f08:	4842      	ldr	r0, [pc, #264]	@ (25014 <_ZN20complex_dynamic_type3app17h9f5d75a0db084ebcE+0x154>)
   24f0a:	2100      	movs	r1, #0
   24f0c:	232b      	movs	r3, #43	@ 0x2b
   24f0e:	9c00      	ldr	r4, [sp, #0]
   24f10:	4622      	mov	r2, r4
   24f12:	df03      	svc	3
   24f14:	2802      	cmp	r0, #2
   24f16:	d10e      	bne.n	24f36 <_ZN20complex_dynamic_type3app17h9f5d75a0db084ebcE+0x76>
   24f18:	2001      	movs	r0, #1
   24f1a:	7028      	strb	r0, [r5, #0]
   24f1c:	6069      	str	r1, [r5, #4]
   24f1e:	a80c      	add	r0, sp, #48	@ 0x30
   24f20:	7800      	ldrb	r0, [r0, #0]
   24f22:	2802      	cmp	r0, #2
   24f24:	d01b      	beq.n	24f5e <_ZN20complex_dynamic_type3app17h9f5d75a0db084ebcE+0x9e>
   24f26:	2803      	cmp	r0, #3
   24f28:	d014      	beq.n	24f54 <_ZN20complex_dynamic_type3app17h9f5d75a0db084ebcE+0x94>
   24f2a:	483a      	ldr	r0, [pc, #232]	@ (25014 <_ZN20complex_dynamic_type3app17h9f5d75a0db084ebcE+0x154>)
   24f2c:	2100      	movs	r1, #0
   24f2e:	460a      	mov	r2, r1
   24f30:	460b      	mov	r3, r1
   24f32:	df04      	svc	4
   24f34:	e013      	b.n	24f5e <_ZN20complex_dynamic_type3app17h9f5d75a0db084ebcE+0x9e>
   24f36:	a80c      	add	r0, sp, #48	@ 0x30
   24f38:	2103      	movs	r1, #3
   24f3a:	7001      	strb	r1, [r0, #0]
   24f3c:	4835      	ldr	r0, [pc, #212]	@ (25014 <_ZN20complex_dynamic_type3app17h9f5d75a0db084ebcE+0x154>)
   24f3e:	2602      	movs	r6, #2
   24f40:	2200      	movs	r2, #0
   24f42:	4631      	mov	r1, r6
   24f44:	9201      	str	r2, [sp, #4]
   24f46:	4613      	mov	r3, r2
   24f48:	df02      	svc	2
   24f4a:	2880      	cmp	r0, #128	@ 0x80
   24f4c:	d21b      	bcs.n	24f86 <_ZN20complex_dynamic_type3app17h9f5d75a0db084ebcE+0xc6>
   24f4e:	2001      	movs	r0, #1
   24f50:	7028      	strb	r0, [r5, #0]
   24f52:	6069      	str	r1, [r5, #4]
   24f54:	482f      	ldr	r0, [pc, #188]	@ (25014 <_ZN20complex_dynamic_type3app17h9f5d75a0db084ebcE+0x154>)
   24f56:	2100      	movs	r1, #0
   24f58:	460a      	mov	r2, r1
   24f5a:	460b      	mov	r3, r1
   24f5c:	df03      	svc	3
   24f5e:	a803      	add	r0, sp, #12
   24f60:	7800      	ldrb	r0, [r0, #0]
   24f62:	2802      	cmp	r0, #2
   24f64:	d047      	beq.n	24ff6 <_ZN20complex_dynamic_type3app17h9f5d75a0db084ebcE+0x136>
   24f66:	2804      	cmp	r0, #4
   24f68:	d106      	bne.n	24f78 <_ZN20complex_dynamic_type3app17h9f5d75a0db084ebcE+0xb8>
   24f6a:	482a      	ldr	r0, [pc, #168]	@ (25014 <_ZN20complex_dynamic_type3app17h9f5d75a0db084ebcE+0x154>)
   24f6c:	2102      	movs	r1, #2
   24f6e:	2200      	movs	r2, #0
   24f70:	4613      	mov	r3, r2
   24f72:	df04      	svc	4
   24f74:	b017      	add	sp, #92	@ 0x5c
   24f76:	bdf0      	pop	{r4, r5, r6, r7, pc}
   24f78:	4826      	ldr	r0, [pc, #152]	@ (25014 <_ZN20complex_dynamic_type3app17h9f5d75a0db084ebcE+0x154>)
   24f7a:	2102      	movs	r1, #2
   24f7c:	2200      	movs	r2, #0
   24f7e:	4613      	mov	r3, r2
   24f80:	df03      	svc	3
   24f82:	b017      	add	sp, #92	@ 0x5c
   24f84:	bdf0      	pop	{r4, r5, r6, r7, pc}
   24f86:	a803      	add	r0, sp, #12
   24f88:	7800      	ldrb	r0, [r0, #0]
   24f8a:	2802      	cmp	r0, #2
   24f8c:	d00c      	beq.n	24fa8 <_ZN20complex_dynamic_type3app17h9f5d75a0db084ebcE+0xe8>
   24f8e:	2803      	cmp	r0, #3
   24f90:	d105      	bne.n	24f9e <_ZN20complex_dynamic_type3app17h9f5d75a0db084ebcE+0xde>
   24f92:	4820      	ldr	r0, [pc, #128]	@ (25014 <_ZN20complex_dynamic_type3app17h9f5d75a0db084ebcE+0x154>)
   24f94:	2102      	movs	r1, #2
   24f96:	2200      	movs	r2, #0
   24f98:	4613      	mov	r3, r2
   24f9a:	df03      	svc	3
   24f9c:	e004      	b.n	24fa8 <_ZN20complex_dynamic_type3app17h9f5d75a0db084ebcE+0xe8>
   24f9e:	481d      	ldr	r0, [pc, #116]	@ (25014 <_ZN20complex_dynamic_type3app17h9f5d75a0db084ebcE+0x154>)
   24fa0:	2102      	movs	r1, #2
   24fa2:	2200      	movs	r2, #0
   24fa4:	4613      	mov	r3, r2
   24fa6:	df04      	svc	4
   24fa8:	a803      	add	r0, sp, #12
   24faa:	7006      	strb	r6, [r0, #0]
   24fac:	a80c      	add	r0, sp, #48	@ 0x30
   24fae:	7800      	ldrb	r0, [r0, #0]
   24fb0:	2804      	cmp	r0, #4
   24fb2:	d008      	beq.n	24fc6 <_ZN20complex_dynamic_type3app17h9f5d75a0db084ebcE+0x106>
   24fb4:	2803      	cmp	r0, #3
   24fb6:	d120      	bne.n	24ffa <_ZN20complex_dynamic_type3app17h9f5d75a0db084ebcE+0x13a>
   24fb8:	4626      	mov	r6, r4
   24fba:	4816      	ldr	r0, [pc, #88]	@ (25014 <_ZN20complex_dynamic_type3app17h9f5d75a0db084ebcE+0x154>)
   24fbc:	2100      	movs	r1, #0
   24fbe:	460a      	mov	r2, r1
   24fc0:	460b      	mov	r3, r1
   24fc2:	df03      	svc	3
   24fc4:	e005      	b.n	24fd2 <_ZN20complex_dynamic_type3app17h9f5d75a0db084ebcE+0x112>
   24fc6:	4626      	mov	r6, r4
   24fc8:	4812      	ldr	r0, [pc, #72]	@ (25014 <_ZN20complex_dynamic_type3app17h9f5d75a0db084ebcE+0x154>)
   24fca:	2100      	movs	r1, #0
   24fcc:	460a      	mov	r2, r1
   24fce:	460b      	mov	r3, r1
   24fd0:	df04      	svc	4
   24fd2:	a803      	add	r0, sp, #12
   24fd4:	7804      	ldrb	r4, [r0, #0]
   24fd6:	1c68      	adds	r0, r5, #1
   24fd8:	222b      	movs	r2, #43	@ 0x2b
   24fda:	4631      	mov	r1, r6
   24fdc:	f006 f892 	bl	2b104 <__aeabi_memcpy>
   24fe0:	9801      	ldr	r0, [sp, #4]
   24fe2:	7028      	strb	r0, [r5, #0]
   24fe4:	2c02      	cmp	r4, #2
   24fe6:	d006      	beq.n	24ff6 <_ZN20complex_dynamic_type3app17h9f5d75a0db084ebcE+0x136>
   24fe8:	480a      	ldr	r0, [pc, #40]	@ (25014 <_ZN20complex_dynamic_type3app17h9f5d75a0db084ebcE+0x154>)
   24fea:	2102      	movs	r1, #2
   24fec:	2200      	movs	r2, #0
   24fee:	4613      	mov	r3, r2
   24ff0:	2c04      	cmp	r4, #4
   24ff2:	d10b      	bne.n	2500c <_ZN20complex_dynamic_type3app17h9f5d75a0db084ebcE+0x14c>
   24ff4:	df04      	svc	4
   24ff6:	b017      	add	sp, #92	@ 0x5c
   24ff8:	bdf0      	pop	{r4, r5, r6, r7, pc}
   24ffa:	1c68      	adds	r0, r5, #1
   24ffc:	222b      	movs	r2, #43	@ 0x2b
   24ffe:	4621      	mov	r1, r4
   25000:	f006 f880 	bl	2b104 <__aeabi_memcpy>
   25004:	9801      	ldr	r0, [sp, #4]
   25006:	7028      	strb	r0, [r5, #0]
   25008:	b017      	add	sp, #92	@ 0x5c
   2500a:	bdf0      	pop	{r4, r5, r6, r7, pc}
   2500c:	df03      	svc	3
   2500e:	b017      	add	sp, #92	@ 0x5c
   25010:	bdf0      	pop	{r4, r5, r6, r7, pc}
   25012:	46c0      	nop			@ (mov r8, r8)
   25014:	00000d5d 	.word	0x00000d5d

00025018 <_ZN20complex_dynamic_type3app17h9f9b66846b91398aE>:
   25018:	b5f0      	push	{r4, r5, r6, r7, lr}
   2501a:	af03      	add	r7, sp, #12
   2501c:	b099      	sub	sp, #100	@ 0x64
   2501e:	9003      	str	r0, [sp, #12]
   25020:	a804      	add	r0, sp, #16
   25022:	2502      	movs	r5, #2
   25024:	7005      	strb	r5, [r0, #0]
   25026:	1c40      	adds	r0, r0, #1
   25028:	9002      	str	r0, [sp, #8]
   2502a:	2611      	movs	r6, #17
   2502c:	4632      	mov	r2, r6
   2502e:	f006 f869 	bl	2b104 <__aeabi_memcpy>
   25032:	ac09      	add	r4, sp, #36	@ 0x24
   25034:	1c60      	adds	r0, r4, #1
   25036:	213f      	movs	r1, #63	@ 0x3f
   25038:	9001      	str	r0, [sp, #4]
   2503a:	f005 fea3 	bl	2ad84 <__aeabi_memclr>
   2503e:	9500      	str	r5, [sp, #0]
   25040:	7025      	strb	r5, [r4, #0]
   25042:	20cb      	movs	r0, #203	@ 0xcb
   25044:	0104      	lsls	r4, r0, #4
   25046:	2107      	movs	r1, #7
   25048:	4620      	mov	r0, r4
   2504a:	9a02      	ldr	r2, [sp, #8]
   2504c:	4633      	mov	r3, r6
   2504e:	df04      	svc	4
   25050:	2802      	cmp	r0, #2
   25052:	d104      	bne.n	2505e <_ZN20complex_dynamic_type3app17h9f9b66846b91398aE+0x46>
   25054:	2001      	movs	r0, #1
   25056:	9a03      	ldr	r2, [sp, #12]
   25058:	7010      	strb	r0, [r2, #0]
   2505a:	6051      	str	r1, [r2, #4]
   2505c:	e02c      	b.n	250b8 <_ZN20complex_dynamic_type3app17h9f9b66846b91398aE+0xa0>
   2505e:	9e03      	ldr	r6, [sp, #12]
   25060:	a804      	add	r0, sp, #16
   25062:	2104      	movs	r1, #4
   25064:	7001      	strb	r1, [r0, #0]
   25066:	233f      	movs	r3, #63	@ 0x3f
   25068:	4620      	mov	r0, r4
   2506a:	9d01      	ldr	r5, [sp, #4]
   2506c:	462a      	mov	r2, r5
   2506e:	df03      	svc	3
   25070:	2802      	cmp	r0, #2
   25072:	d10e      	bne.n	25092 <_ZN20complex_dynamic_type3app17h9f9b66846b91398aE+0x7a>
   25074:	2001      	movs	r0, #1
   25076:	7030      	strb	r0, [r6, #0]
   25078:	6071      	str	r1, [r6, #4]
   2507a:	a809      	add	r0, sp, #36	@ 0x24
   2507c:	7800      	ldrb	r0, [r0, #0]
   2507e:	2802      	cmp	r0, #2
   25080:	d01a      	beq.n	250b8 <_ZN20complex_dynamic_type3app17h9f9b66846b91398aE+0xa0>
   25082:	2803      	cmp	r0, #3
   25084:	d013      	beq.n	250ae <_ZN20complex_dynamic_type3app17h9f9b66846b91398aE+0x96>
   25086:	2104      	movs	r1, #4
   25088:	2200      	movs	r2, #0
   2508a:	4620      	mov	r0, r4
   2508c:	4613      	mov	r3, r2
   2508e:	df04      	svc	4
   25090:	e012      	b.n	250b8 <_ZN20complex_dynamic_type3app17h9f9b66846b91398aE+0xa0>
   25092:	a809      	add	r0, sp, #36	@ 0x24
   25094:	2103      	movs	r1, #3
   25096:	7001      	strb	r1, [r0, #0]
   25098:	2107      	movs	r1, #7
   2509a:	2204      	movs	r2, #4
   2509c:	2300      	movs	r3, #0
   2509e:	4620      	mov	r0, r4
   250a0:	9302      	str	r3, [sp, #8]
   250a2:	df02      	svc	2
   250a4:	2880      	cmp	r0, #128	@ 0x80
   250a6:	d219      	bcs.n	250dc <_ZN20complex_dynamic_type3app17h9f9b66846b91398aE+0xc4>
   250a8:	2001      	movs	r0, #1
   250aa:	7030      	strb	r0, [r6, #0]
   250ac:	6071      	str	r1, [r6, #4]
   250ae:	2104      	movs	r1, #4
   250b0:	2200      	movs	r2, #0
   250b2:	4620      	mov	r0, r4
   250b4:	4613      	mov	r3, r2
   250b6:	df03      	svc	3
   250b8:	a804      	add	r0, sp, #16
   250ba:	7800      	ldrb	r0, [r0, #0]
   250bc:	2802      	cmp	r0, #2
   250be:	d044      	beq.n	2514a <_ZN20complex_dynamic_type3app17h9f9b66846b91398aE+0x132>
   250c0:	2107      	movs	r1, #7
   250c2:	2200      	movs	r2, #0
   250c4:	2804      	cmp	r0, #4
   250c6:	d104      	bne.n	250d2 <_ZN20complex_dynamic_type3app17h9f9b66846b91398aE+0xba>
   250c8:	4620      	mov	r0, r4
   250ca:	4613      	mov	r3, r2
   250cc:	df04      	svc	4
   250ce:	b019      	add	sp, #100	@ 0x64
   250d0:	bdf0      	pop	{r4, r5, r6, r7, pc}
   250d2:	4620      	mov	r0, r4
   250d4:	4613      	mov	r3, r2
   250d6:	df03      	svc	3
   250d8:	b019      	add	sp, #100	@ 0x64
   250da:	bdf0      	pop	{r4, r5, r6, r7, pc}
   250dc:	a804      	add	r0, sp, #16
   250de:	7800      	ldrb	r0, [r0, #0]
   250e0:	2802      	cmp	r0, #2
   250e2:	d00a      	beq.n	250fa <_ZN20complex_dynamic_type3app17h9f9b66846b91398aE+0xe2>
   250e4:	2107      	movs	r1, #7
   250e6:	2200      	movs	r2, #0
   250e8:	2803      	cmp	r0, #3
   250ea:	d103      	bne.n	250f4 <_ZN20complex_dynamic_type3app17h9f9b66846b91398aE+0xdc>
   250ec:	4620      	mov	r0, r4
   250ee:	4613      	mov	r3, r2
   250f0:	df03      	svc	3
   250f2:	e002      	b.n	250fa <_ZN20complex_dynamic_type3app17h9f9b66846b91398aE+0xe2>
   250f4:	4620      	mov	r0, r4
   250f6:	4613      	mov	r3, r2
   250f8:	df04      	svc	4
   250fa:	a804      	add	r0, sp, #16
   250fc:	9900      	ldr	r1, [sp, #0]
   250fe:	7001      	strb	r1, [r0, #0]
   25100:	a809      	add	r0, sp, #36	@ 0x24
   25102:	7800      	ldrb	r0, [r0, #0]
   25104:	2804      	cmp	r0, #4
   25106:	d008      	beq.n	2511a <_ZN20complex_dynamic_type3app17h9f9b66846b91398aE+0x102>
   25108:	2803      	cmp	r0, #3
   2510a:	d120      	bne.n	2514e <_ZN20complex_dynamic_type3app17h9f9b66846b91398aE+0x136>
   2510c:	2104      	movs	r1, #4
   2510e:	2200      	movs	r2, #0
   25110:	9400      	str	r4, [sp, #0]
   25112:	4620      	mov	r0, r4
   25114:	4613      	mov	r3, r2
   25116:	df03      	svc	3
   25118:	e005      	b.n	25126 <_ZN20complex_dynamic_type3app17h9f9b66846b91398aE+0x10e>
   2511a:	2104      	movs	r1, #4
   2511c:	2200      	movs	r2, #0
   2511e:	9400      	str	r4, [sp, #0]
   25120:	4620      	mov	r0, r4
   25122:	4613      	mov	r3, r2
   25124:	df04      	svc	4
   25126:	a804      	add	r0, sp, #16
   25128:	7804      	ldrb	r4, [r0, #0]
   2512a:	1c70      	adds	r0, r6, #1
   2512c:	223f      	movs	r2, #63	@ 0x3f
   2512e:	4629      	mov	r1, r5
   25130:	f005 ffe8 	bl	2b104 <__aeabi_memcpy>
   25134:	9802      	ldr	r0, [sp, #8]
   25136:	7030      	strb	r0, [r6, #0]
   25138:	2c02      	cmp	r4, #2
   2513a:	d006      	beq.n	2514a <_ZN20complex_dynamic_type3app17h9f9b66846b91398aE+0x132>
   2513c:	2c04      	cmp	r4, #4
   2513e:	d10f      	bne.n	25160 <_ZN20complex_dynamic_type3app17h9f9b66846b91398aE+0x148>
   25140:	2107      	movs	r1, #7
   25142:	2200      	movs	r2, #0
   25144:	9800      	ldr	r0, [sp, #0]
   25146:	4613      	mov	r3, r2
   25148:	df04      	svc	4
   2514a:	b019      	add	sp, #100	@ 0x64
   2514c:	bdf0      	pop	{r4, r5, r6, r7, pc}
   2514e:	1c70      	adds	r0, r6, #1
   25150:	223f      	movs	r2, #63	@ 0x3f
   25152:	4629      	mov	r1, r5
   25154:	f005 ffd6 	bl	2b104 <__aeabi_memcpy>
   25158:	9802      	ldr	r0, [sp, #8]
   2515a:	7030      	strb	r0, [r6, #0]
   2515c:	b019      	add	sp, #100	@ 0x64
   2515e:	bdf0      	pop	{r4, r5, r6, r7, pc}
   25160:	9800      	ldr	r0, [sp, #0]
   25162:	2107      	movs	r1, #7
   25164:	2200      	movs	r2, #0
   25166:	4613      	mov	r3, r2
   25168:	df03      	svc	3
   2516a:	b019      	add	sp, #100	@ 0x64
   2516c:	bdf0      	pop	{r4, r5, r6, r7, pc}
   2516e:	d4d4      	bmi.n	2511a <_ZN20complex_dynamic_type3app17h9f9b66846b91398aE+0x102>

00025170 <_ZN20complex_dynamic_type3app17ha3ce99f0ef2f35d5E>:
   25170:	b5f0      	push	{r4, r5, r6, r7, lr}
   25172:	af03      	add	r7, sp, #12
   25174:	b0ad      	sub	sp, #180	@ 0xb4
   25176:	9003      	str	r0, [sp, #12]
   25178:	a804      	add	r0, sp, #16
   2517a:	2402      	movs	r4, #2
   2517c:	7004      	strb	r4, [r0, #0]
   2517e:	1c46      	adds	r6, r0, #1
   25180:	2253      	movs	r2, #83	@ 0x53
   25182:	9202      	str	r2, [sp, #8]
   25184:	4630      	mov	r0, r6
   25186:	f005 ffbd 	bl	2b104 <__aeabi_memcpy>
   2518a:	ad19      	add	r5, sp, #100	@ 0x64
   2518c:	1c68      	adds	r0, r5, #1
   2518e:	214d      	movs	r1, #77	@ 0x4d
   25190:	9001      	str	r0, [sp, #4]
   25192:	f005 fdf7 	bl	2ad84 <__aeabi_memclr>
   25196:	9400      	str	r4, [sp, #0]
   25198:	702c      	strb	r4, [r5, #0]
   2519a:	4848      	ldr	r0, [pc, #288]	@ (252bc <_ZN20complex_dynamic_type3app17ha3ce99f0ef2f35d5E+0x14c>)
   2519c:	2109      	movs	r1, #9
   2519e:	4632      	mov	r2, r6
   251a0:	9b02      	ldr	r3, [sp, #8]
   251a2:	df04      	svc	4
   251a4:	2802      	cmp	r0, #2
   251a6:	d104      	bne.n	251b2 <_ZN20complex_dynamic_type3app17ha3ce99f0ef2f35d5E+0x42>
   251a8:	2001      	movs	r0, #1
   251aa:	9a03      	ldr	r2, [sp, #12]
   251ac:	7010      	strb	r0, [r2, #0]
   251ae:	6051      	str	r1, [r2, #4]
   251b0:	e02c      	b.n	2520c <_ZN20complex_dynamic_type3app17ha3ce99f0ef2f35d5E+0x9c>
   251b2:	9d03      	ldr	r5, [sp, #12]
   251b4:	a804      	add	r0, sp, #16
   251b6:	2104      	movs	r1, #4
   251b8:	7001      	strb	r1, [r0, #0]
   251ba:	4840      	ldr	r0, [pc, #256]	@ (252bc <_ZN20complex_dynamic_type3app17ha3ce99f0ef2f35d5E+0x14c>)
   251bc:	234d      	movs	r3, #77	@ 0x4d
   251be:	9c01      	ldr	r4, [sp, #4]
   251c0:	4622      	mov	r2, r4
   251c2:	df03      	svc	3
   251c4:	2802      	cmp	r0, #2
   251c6:	d10e      	bne.n	251e6 <_ZN20complex_dynamic_type3app17ha3ce99f0ef2f35d5E+0x76>
   251c8:	2001      	movs	r0, #1
   251ca:	7028      	strb	r0, [r5, #0]
   251cc:	6069      	str	r1, [r5, #4]
   251ce:	a819      	add	r0, sp, #100	@ 0x64
   251d0:	7800      	ldrb	r0, [r0, #0]
   251d2:	2802      	cmp	r0, #2
   251d4:	d01a      	beq.n	2520c <_ZN20complex_dynamic_type3app17ha3ce99f0ef2f35d5E+0x9c>
   251d6:	2803      	cmp	r0, #3
   251d8:	d013      	beq.n	25202 <_ZN20complex_dynamic_type3app17ha3ce99f0ef2f35d5E+0x92>
   251da:	4838      	ldr	r0, [pc, #224]	@ (252bc <_ZN20complex_dynamic_type3app17ha3ce99f0ef2f35d5E+0x14c>)
   251dc:	2104      	movs	r1, #4
   251de:	2200      	movs	r2, #0
   251e0:	4613      	mov	r3, r2
   251e2:	df04      	svc	4
   251e4:	e012      	b.n	2520c <_ZN20complex_dynamic_type3app17ha3ce99f0ef2f35d5E+0x9c>
   251e6:	a819      	add	r0, sp, #100	@ 0x64
   251e8:	2103      	movs	r1, #3
   251ea:	7001      	strb	r1, [r0, #0]
   251ec:	4833      	ldr	r0, [pc, #204]	@ (252bc <_ZN20complex_dynamic_type3app17ha3ce99f0ef2f35d5E+0x14c>)
   251ee:	2109      	movs	r1, #9
   251f0:	2204      	movs	r2, #4
   251f2:	2600      	movs	r6, #0
   251f4:	4633      	mov	r3, r6
   251f6:	df02      	svc	2
   251f8:	2880      	cmp	r0, #128	@ 0x80
   251fa:	d21b      	bcs.n	25234 <_ZN20complex_dynamic_type3app17ha3ce99f0ef2f35d5E+0xc4>
   251fc:	2001      	movs	r0, #1
   251fe:	7028      	strb	r0, [r5, #0]
   25200:	6069      	str	r1, [r5, #4]
   25202:	482e      	ldr	r0, [pc, #184]	@ (252bc <_ZN20complex_dynamic_type3app17ha3ce99f0ef2f35d5E+0x14c>)
   25204:	2104      	movs	r1, #4
   25206:	2200      	movs	r2, #0
   25208:	4613      	mov	r3, r2
   2520a:	df03      	svc	3
   2520c:	a804      	add	r0, sp, #16
   2520e:	7800      	ldrb	r0, [r0, #0]
   25210:	2802      	cmp	r0, #2
   25212:	d045      	beq.n	252a0 <_ZN20complex_dynamic_type3app17ha3ce99f0ef2f35d5E+0x130>
   25214:	2804      	cmp	r0, #4
   25216:	d106      	bne.n	25226 <_ZN20complex_dynamic_type3app17ha3ce99f0ef2f35d5E+0xb6>
   25218:	4828      	ldr	r0, [pc, #160]	@ (252bc <_ZN20complex_dynamic_type3app17ha3ce99f0ef2f35d5E+0x14c>)
   2521a:	2109      	movs	r1, #9
   2521c:	2200      	movs	r2, #0
   2521e:	4613      	mov	r3, r2
   25220:	df04      	svc	4
   25222:	b02d      	add	sp, #180	@ 0xb4
   25224:	bdf0      	pop	{r4, r5, r6, r7, pc}
   25226:	4825      	ldr	r0, [pc, #148]	@ (252bc <_ZN20complex_dynamic_type3app17ha3ce99f0ef2f35d5E+0x14c>)
   25228:	2109      	movs	r1, #9
   2522a:	2200      	movs	r2, #0
   2522c:	4613      	mov	r3, r2
   2522e:	df03      	svc	3
   25230:	b02d      	add	sp, #180	@ 0xb4
   25232:	bdf0      	pop	{r4, r5, r6, r7, pc}
   25234:	a804      	add	r0, sp, #16
   25236:	7800      	ldrb	r0, [r0, #0]
   25238:	2802      	cmp	r0, #2
   2523a:	d00c      	beq.n	25256 <_ZN20complex_dynamic_type3app17ha3ce99f0ef2f35d5E+0xe6>
   2523c:	2803      	cmp	r0, #3
   2523e:	d105      	bne.n	2524c <_ZN20complex_dynamic_type3app17ha3ce99f0ef2f35d5E+0xdc>
   25240:	481e      	ldr	r0, [pc, #120]	@ (252bc <_ZN20complex_dynamic_type3app17ha3ce99f0ef2f35d5E+0x14c>)
   25242:	2109      	movs	r1, #9
   25244:	2200      	movs	r2, #0
   25246:	4613      	mov	r3, r2
   25248:	df03      	svc	3
   2524a:	e004      	b.n	25256 <_ZN20complex_dynamic_type3app17ha3ce99f0ef2f35d5E+0xe6>
   2524c:	481b      	ldr	r0, [pc, #108]	@ (252bc <_ZN20complex_dynamic_type3app17ha3ce99f0ef2f35d5E+0x14c>)
   2524e:	2109      	movs	r1, #9
   25250:	2200      	movs	r2, #0
   25252:	4613      	mov	r3, r2
   25254:	df04      	svc	4
   25256:	a804      	add	r0, sp, #16
   25258:	9900      	ldr	r1, [sp, #0]
   2525a:	7001      	strb	r1, [r0, #0]
   2525c:	a819      	add	r0, sp, #100	@ 0x64
   2525e:	7800      	ldrb	r0, [r0, #0]
   25260:	2804      	cmp	r0, #4
   25262:	d007      	beq.n	25274 <_ZN20complex_dynamic_type3app17ha3ce99f0ef2f35d5E+0x104>
   25264:	2803      	cmp	r0, #3
   25266:	d11d      	bne.n	252a4 <_ZN20complex_dynamic_type3app17ha3ce99f0ef2f35d5E+0x134>
   25268:	4814      	ldr	r0, [pc, #80]	@ (252bc <_ZN20complex_dynamic_type3app17ha3ce99f0ef2f35d5E+0x14c>)
   2526a:	2104      	movs	r1, #4
   2526c:	2200      	movs	r2, #0
   2526e:	4613      	mov	r3, r2
   25270:	df03      	svc	3
   25272:	e004      	b.n	2527e <_ZN20complex_dynamic_type3app17ha3ce99f0ef2f35d5E+0x10e>
   25274:	4811      	ldr	r0, [pc, #68]	@ (252bc <_ZN20complex_dynamic_type3app17ha3ce99f0ef2f35d5E+0x14c>)
   25276:	2104      	movs	r1, #4
   25278:	2200      	movs	r2, #0
   2527a:	4613      	mov	r3, r2
   2527c:	df04      	svc	4
   2527e:	a804      	add	r0, sp, #16
   25280:	7804      	ldrb	r4, [r0, #0]
   25282:	1c68      	adds	r0, r5, #1
   25284:	224d      	movs	r2, #77	@ 0x4d
   25286:	9901      	ldr	r1, [sp, #4]
   25288:	f005 ff3c 	bl	2b104 <__aeabi_memcpy>
   2528c:	702e      	strb	r6, [r5, #0]
   2528e:	2c02      	cmp	r4, #2
   25290:	d006      	beq.n	252a0 <_ZN20complex_dynamic_type3app17ha3ce99f0ef2f35d5E+0x130>
   25292:	480a      	ldr	r0, [pc, #40]	@ (252bc <_ZN20complex_dynamic_type3app17ha3ce99f0ef2f35d5E+0x14c>)
   25294:	2109      	movs	r1, #9
   25296:	2200      	movs	r2, #0
   25298:	4613      	mov	r3, r2
   2529a:	2c04      	cmp	r4, #4
   2529c:	d10a      	bne.n	252b4 <_ZN20complex_dynamic_type3app17ha3ce99f0ef2f35d5E+0x144>
   2529e:	df04      	svc	4
   252a0:	b02d      	add	sp, #180	@ 0xb4
   252a2:	bdf0      	pop	{r4, r5, r6, r7, pc}
   252a4:	1c68      	adds	r0, r5, #1
   252a6:	224d      	movs	r2, #77	@ 0x4d
   252a8:	4621      	mov	r1, r4
   252aa:	f005 ff2b 	bl	2b104 <__aeabi_memcpy>
   252ae:	702e      	strb	r6, [r5, #0]
   252b0:	b02d      	add	sp, #180	@ 0xb4
   252b2:	bdf0      	pop	{r4, r5, r6, r7, pc}
   252b4:	df03      	svc	3
   252b6:	b02d      	add	sp, #180	@ 0xb4
   252b8:	bdf0      	pop	{r4, r5, r6, r7, pc}
   252ba:	46c0      	nop			@ (mov r8, r8)
   252bc:	000016ba 	.word	0x000016ba

000252c0 <_ZN20complex_dynamic_type3app17habd4a1f0d83c8c33E>:
   252c0:	b5f0      	push	{r4, r5, r6, r7, lr}
   252c2:	af03      	add	r7, sp, #12
   252c4:	b099      	sub	sp, #100	@ 0x64
   252c6:	9003      	str	r0, [sp, #12]
   252c8:	a804      	add	r0, sp, #16
   252ca:	2402      	movs	r4, #2
   252cc:	7004      	strb	r4, [r0, #0]
   252ce:	1c46      	adds	r6, r0, #1
   252d0:	2225      	movs	r2, #37	@ 0x25
   252d2:	9202      	str	r2, [sp, #8]
   252d4:	4630      	mov	r0, r6
   252d6:	f005 ff15 	bl	2b104 <__aeabi_memcpy>
   252da:	ad0e      	add	r5, sp, #56	@ 0x38
   252dc:	1c68      	adds	r0, r5, #1
   252de:	212a      	movs	r1, #42	@ 0x2a
   252e0:	9001      	str	r0, [sp, #4]
   252e2:	f005 fd4f 	bl	2ad84 <__aeabi_memclr>
   252e6:	9400      	str	r4, [sp, #0]
   252e8:	702c      	strb	r4, [r5, #0]
   252ea:	4848      	ldr	r0, [pc, #288]	@ (2540c <_ZN20complex_dynamic_type3app17habd4a1f0d83c8c33E+0x14c>)
   252ec:	2100      	movs	r1, #0
   252ee:	4632      	mov	r2, r6
   252f0:	9b02      	ldr	r3, [sp, #8]
   252f2:	df04      	svc	4
   252f4:	2802      	cmp	r0, #2
   252f6:	d104      	bne.n	25302 <_ZN20complex_dynamic_type3app17habd4a1f0d83c8c33E+0x42>
   252f8:	2001      	movs	r0, #1
   252fa:	9a03      	ldr	r2, [sp, #12]
   252fc:	7010      	strb	r0, [r2, #0]
   252fe:	6051      	str	r1, [r2, #4]
   25300:	e02c      	b.n	2535c <_ZN20complex_dynamic_type3app17habd4a1f0d83c8c33E+0x9c>
   25302:	9d03      	ldr	r5, [sp, #12]
   25304:	a804      	add	r0, sp, #16
   25306:	2104      	movs	r1, #4
   25308:	7001      	strb	r1, [r0, #0]
   2530a:	4840      	ldr	r0, [pc, #256]	@ (2540c <_ZN20complex_dynamic_type3app17habd4a1f0d83c8c33E+0x14c>)
   2530c:	2403      	movs	r4, #3
   2530e:	232a      	movs	r3, #42	@ 0x2a
   25310:	4621      	mov	r1, r4
   25312:	9a01      	ldr	r2, [sp, #4]
   25314:	df03      	svc	3
   25316:	2802      	cmp	r0, #2
   25318:	d10e      	bne.n	25338 <_ZN20complex_dynamic_type3app17habd4a1f0d83c8c33E+0x78>
   2531a:	2001      	movs	r0, #1
   2531c:	7028      	strb	r0, [r5, #0]
   2531e:	6069      	str	r1, [r5, #4]
   25320:	a80e      	add	r0, sp, #56	@ 0x38
   25322:	7800      	ldrb	r0, [r0, #0]
   25324:	2802      	cmp	r0, #2
   25326:	d019      	beq.n	2535c <_ZN20complex_dynamic_type3app17habd4a1f0d83c8c33E+0x9c>
   25328:	2803      	cmp	r0, #3
   2532a:	d012      	beq.n	25352 <_ZN20complex_dynamic_type3app17habd4a1f0d83c8c33E+0x92>
   2532c:	4837      	ldr	r0, [pc, #220]	@ (2540c <_ZN20complex_dynamic_type3app17habd4a1f0d83c8c33E+0x14c>)
   2532e:	2103      	movs	r1, #3
   25330:	2200      	movs	r2, #0
   25332:	4613      	mov	r3, r2
   25334:	df04      	svc	4
   25336:	e011      	b.n	2535c <_ZN20complex_dynamic_type3app17habd4a1f0d83c8c33E+0x9c>
   25338:	a80e      	add	r0, sp, #56	@ 0x38
   2533a:	7004      	strb	r4, [r0, #0]
   2533c:	4833      	ldr	r0, [pc, #204]	@ (2540c <_ZN20complex_dynamic_type3app17habd4a1f0d83c8c33E+0x14c>)
   2533e:	2600      	movs	r6, #0
   25340:	4631      	mov	r1, r6
   25342:	4622      	mov	r2, r4
   25344:	4633      	mov	r3, r6
   25346:	df02      	svc	2
   25348:	2880      	cmp	r0, #128	@ 0x80
   2534a:	d21b      	bcs.n	25384 <_ZN20complex_dynamic_type3app17habd4a1f0d83c8c33E+0xc4>
   2534c:	2001      	movs	r0, #1
   2534e:	7028      	strb	r0, [r5, #0]
   25350:	6069      	str	r1, [r5, #4]
   25352:	482e      	ldr	r0, [pc, #184]	@ (2540c <_ZN20complex_dynamic_type3app17habd4a1f0d83c8c33E+0x14c>)
   25354:	2103      	movs	r1, #3
   25356:	2200      	movs	r2, #0
   25358:	4613      	mov	r3, r2
   2535a:	df03      	svc	3
   2535c:	a804      	add	r0, sp, #16
   2535e:	7800      	ldrb	r0, [r0, #0]
   25360:	2802      	cmp	r0, #2
   25362:	d045      	beq.n	253f0 <_ZN20complex_dynamic_type3app17habd4a1f0d83c8c33E+0x130>
   25364:	2804      	cmp	r0, #4
   25366:	d106      	bne.n	25376 <_ZN20complex_dynamic_type3app17habd4a1f0d83c8c33E+0xb6>
   25368:	4828      	ldr	r0, [pc, #160]	@ (2540c <_ZN20complex_dynamic_type3app17habd4a1f0d83c8c33E+0x14c>)
   2536a:	2100      	movs	r1, #0
   2536c:	460a      	mov	r2, r1
   2536e:	460b      	mov	r3, r1
   25370:	df04      	svc	4
   25372:	b019      	add	sp, #100	@ 0x64
   25374:	bdf0      	pop	{r4, r5, r6, r7, pc}
   25376:	4825      	ldr	r0, [pc, #148]	@ (2540c <_ZN20complex_dynamic_type3app17habd4a1f0d83c8c33E+0x14c>)
   25378:	2100      	movs	r1, #0
   2537a:	460a      	mov	r2, r1
   2537c:	460b      	mov	r3, r1
   2537e:	df03      	svc	3
   25380:	b019      	add	sp, #100	@ 0x64
   25382:	bdf0      	pop	{r4, r5, r6, r7, pc}
   25384:	a804      	add	r0, sp, #16
   25386:	7800      	ldrb	r0, [r0, #0]
   25388:	2802      	cmp	r0, #2
   2538a:	d00c      	beq.n	253a6 <_ZN20complex_dynamic_type3app17habd4a1f0d83c8c33E+0xe6>
   2538c:	2803      	cmp	r0, #3
   2538e:	d105      	bne.n	2539c <_ZN20complex_dynamic_type3app17habd4a1f0d83c8c33E+0xdc>
   25390:	481e      	ldr	r0, [pc, #120]	@ (2540c <_ZN20complex_dynamic_type3app17habd4a1f0d83c8c33E+0x14c>)
   25392:	2100      	movs	r1, #0
   25394:	460a      	mov	r2, r1
   25396:	460b      	mov	r3, r1
   25398:	df03      	svc	3
   2539a:	e004      	b.n	253a6 <_ZN20complex_dynamic_type3app17habd4a1f0d83c8c33E+0xe6>
   2539c:	481b      	ldr	r0, [pc, #108]	@ (2540c <_ZN20complex_dynamic_type3app17habd4a1f0d83c8c33E+0x14c>)
   2539e:	2100      	movs	r1, #0
   253a0:	460a      	mov	r2, r1
   253a2:	460b      	mov	r3, r1
   253a4:	df04      	svc	4
   253a6:	a804      	add	r0, sp, #16
   253a8:	9900      	ldr	r1, [sp, #0]
   253aa:	7001      	strb	r1, [r0, #0]
   253ac:	a80e      	add	r0, sp, #56	@ 0x38
   253ae:	7800      	ldrb	r0, [r0, #0]
   253b0:	2804      	cmp	r0, #4
   253b2:	d007      	beq.n	253c4 <_ZN20complex_dynamic_type3app17habd4a1f0d83c8c33E+0x104>
   253b4:	2803      	cmp	r0, #3
   253b6:	d11d      	bne.n	253f4 <_ZN20complex_dynamic_type3app17habd4a1f0d83c8c33E+0x134>
   253b8:	4814      	ldr	r0, [pc, #80]	@ (2540c <_ZN20complex_dynamic_type3app17habd4a1f0d83c8c33E+0x14c>)
   253ba:	2103      	movs	r1, #3
   253bc:	2200      	movs	r2, #0
   253be:	4613      	mov	r3, r2
   253c0:	df03      	svc	3
   253c2:	e004      	b.n	253ce <_ZN20complex_dynamic_type3app17habd4a1f0d83c8c33E+0x10e>
   253c4:	4811      	ldr	r0, [pc, #68]	@ (2540c <_ZN20complex_dynamic_type3app17habd4a1f0d83c8c33E+0x14c>)
   253c6:	2103      	movs	r1, #3
   253c8:	2200      	movs	r2, #0
   253ca:	4613      	mov	r3, r2
   253cc:	df04      	svc	4
   253ce:	a804      	add	r0, sp, #16
   253d0:	7804      	ldrb	r4, [r0, #0]
   253d2:	1c68      	adds	r0, r5, #1
   253d4:	222a      	movs	r2, #42	@ 0x2a
   253d6:	9901      	ldr	r1, [sp, #4]
   253d8:	f005 fe94 	bl	2b104 <__aeabi_memcpy>
   253dc:	702e      	strb	r6, [r5, #0]
   253de:	2c02      	cmp	r4, #2
   253e0:	d006      	beq.n	253f0 <_ZN20complex_dynamic_type3app17habd4a1f0d83c8c33E+0x130>
   253e2:	480a      	ldr	r0, [pc, #40]	@ (2540c <_ZN20complex_dynamic_type3app17habd4a1f0d83c8c33E+0x14c>)
   253e4:	2100      	movs	r1, #0
   253e6:	460a      	mov	r2, r1
   253e8:	460b      	mov	r3, r1
   253ea:	2c04      	cmp	r4, #4
   253ec:	d10a      	bne.n	25404 <_ZN20complex_dynamic_type3app17habd4a1f0d83c8c33E+0x144>
   253ee:	df04      	svc	4
   253f0:	b019      	add	sp, #100	@ 0x64
   253f2:	bdf0      	pop	{r4, r5, r6, r7, pc}
   253f4:	1c68      	adds	r0, r5, #1
   253f6:	222a      	movs	r2, #42	@ 0x2a
   253f8:	9901      	ldr	r1, [sp, #4]
   253fa:	f005 fe83 	bl	2b104 <__aeabi_memcpy>
   253fe:	702e      	strb	r6, [r5, #0]
   25400:	b019      	add	sp, #100	@ 0x64
   25402:	bdf0      	pop	{r4, r5, r6, r7, pc}
   25404:	df03      	svc	3
   25406:	b019      	add	sp, #100	@ 0x64
   25408:	bdf0      	pop	{r4, r5, r6, r7, pc}
   2540a:	46c0      	nop			@ (mov r8, r8)
   2540c:	0000093c 	.word	0x0000093c

00025410 <_ZN20complex_dynamic_type3app17hb400410a0d112acaE>:
   25410:	b5f0      	push	{r4, r5, r6, r7, lr}
   25412:	af03      	add	r7, sp, #12
   25414:	b0a3      	sub	sp, #140	@ 0x8c
   25416:	9003      	str	r0, [sp, #12]
   25418:	a804      	add	r0, sp, #16
   2541a:	2402      	movs	r4, #2
   2541c:	7004      	strb	r4, [r0, #0]
   2541e:	1c46      	adds	r6, r0, #1
   25420:	223c      	movs	r2, #60	@ 0x3c
   25422:	9202      	str	r2, [sp, #8]
   25424:	4630      	mov	r0, r6
   25426:	f005 fe6d 	bl	2b104 <__aeabi_memcpy>
   2542a:	ad14      	add	r5, sp, #80	@ 0x50
   2542c:	1c68      	adds	r0, r5, #1
   2542e:	2138      	movs	r1, #56	@ 0x38
   25430:	9001      	str	r0, [sp, #4]
   25432:	f005 fca7 	bl	2ad84 <__aeabi_memclr>
   25436:	9400      	str	r4, [sp, #0]
   25438:	702c      	strb	r4, [r5, #0]
   2543a:	4848      	ldr	r0, [pc, #288]	@ (2555c <_ZN20complex_dynamic_type3app17hb400410a0d112acaE+0x14c>)
   2543c:	2103      	movs	r1, #3
   2543e:	4632      	mov	r2, r6
   25440:	9b02      	ldr	r3, [sp, #8]
   25442:	df04      	svc	4
   25444:	2802      	cmp	r0, #2
   25446:	d104      	bne.n	25452 <_ZN20complex_dynamic_type3app17hb400410a0d112acaE+0x42>
   25448:	2001      	movs	r0, #1
   2544a:	9a03      	ldr	r2, [sp, #12]
   2544c:	7010      	strb	r0, [r2, #0]
   2544e:	6051      	str	r1, [r2, #4]
   25450:	e02c      	b.n	254ac <_ZN20complex_dynamic_type3app17hb400410a0d112acaE+0x9c>
   25452:	9d03      	ldr	r5, [sp, #12]
   25454:	a804      	add	r0, sp, #16
   25456:	2104      	movs	r1, #4
   25458:	7001      	strb	r1, [r0, #0]
   2545a:	4840      	ldr	r0, [pc, #256]	@ (2555c <_ZN20complex_dynamic_type3app17hb400410a0d112acaE+0x14c>)
   2545c:	2403      	movs	r4, #3
   2545e:	2338      	movs	r3, #56	@ 0x38
   25460:	4621      	mov	r1, r4
   25462:	9a01      	ldr	r2, [sp, #4]
   25464:	df03      	svc	3
   25466:	2802      	cmp	r0, #2
   25468:	d10e      	bne.n	25488 <_ZN20complex_dynamic_type3app17hb400410a0d112acaE+0x78>
   2546a:	2001      	movs	r0, #1
   2546c:	7028      	strb	r0, [r5, #0]
   2546e:	6069      	str	r1, [r5, #4]
   25470:	a814      	add	r0, sp, #80	@ 0x50
   25472:	7800      	ldrb	r0, [r0, #0]
   25474:	2802      	cmp	r0, #2
   25476:	d019      	beq.n	254ac <_ZN20complex_dynamic_type3app17hb400410a0d112acaE+0x9c>
   25478:	2803      	cmp	r0, #3
   2547a:	d012      	beq.n	254a2 <_ZN20complex_dynamic_type3app17hb400410a0d112acaE+0x92>
   2547c:	4837      	ldr	r0, [pc, #220]	@ (2555c <_ZN20complex_dynamic_type3app17hb400410a0d112acaE+0x14c>)
   2547e:	2103      	movs	r1, #3
   25480:	2200      	movs	r2, #0
   25482:	4613      	mov	r3, r2
   25484:	df04      	svc	4
   25486:	e011      	b.n	254ac <_ZN20complex_dynamic_type3app17hb400410a0d112acaE+0x9c>
   25488:	a814      	add	r0, sp, #80	@ 0x50
   2548a:	7004      	strb	r4, [r0, #0]
   2548c:	4833      	ldr	r0, [pc, #204]	@ (2555c <_ZN20complex_dynamic_type3app17hb400410a0d112acaE+0x14c>)
   2548e:	2600      	movs	r6, #0
   25490:	4621      	mov	r1, r4
   25492:	4622      	mov	r2, r4
   25494:	4633      	mov	r3, r6
   25496:	df02      	svc	2
   25498:	2880      	cmp	r0, #128	@ 0x80
   2549a:	d21b      	bcs.n	254d4 <_ZN20complex_dynamic_type3app17hb400410a0d112acaE+0xc4>
   2549c:	2001      	movs	r0, #1
   2549e:	7028      	strb	r0, [r5, #0]
   254a0:	6069      	str	r1, [r5, #4]
   254a2:	482e      	ldr	r0, [pc, #184]	@ (2555c <_ZN20complex_dynamic_type3app17hb400410a0d112acaE+0x14c>)
   254a4:	2103      	movs	r1, #3
   254a6:	2200      	movs	r2, #0
   254a8:	4613      	mov	r3, r2
   254aa:	df03      	svc	3
   254ac:	a804      	add	r0, sp, #16
   254ae:	7800      	ldrb	r0, [r0, #0]
   254b0:	2802      	cmp	r0, #2
   254b2:	d045      	beq.n	25540 <_ZN20complex_dynamic_type3app17hb400410a0d112acaE+0x130>
   254b4:	2804      	cmp	r0, #4
   254b6:	d106      	bne.n	254c6 <_ZN20complex_dynamic_type3app17hb400410a0d112acaE+0xb6>
   254b8:	4828      	ldr	r0, [pc, #160]	@ (2555c <_ZN20complex_dynamic_type3app17hb400410a0d112acaE+0x14c>)
   254ba:	2103      	movs	r1, #3
   254bc:	2200      	movs	r2, #0
   254be:	4613      	mov	r3, r2
   254c0:	df04      	svc	4
   254c2:	b023      	add	sp, #140	@ 0x8c
   254c4:	bdf0      	pop	{r4, r5, r6, r7, pc}
   254c6:	4825      	ldr	r0, [pc, #148]	@ (2555c <_ZN20complex_dynamic_type3app17hb400410a0d112acaE+0x14c>)
   254c8:	2103      	movs	r1, #3
   254ca:	2200      	movs	r2, #0
   254cc:	4613      	mov	r3, r2
   254ce:	df03      	svc	3
   254d0:	b023      	add	sp, #140	@ 0x8c
   254d2:	bdf0      	pop	{r4, r5, r6, r7, pc}
   254d4:	a804      	add	r0, sp, #16
   254d6:	7800      	ldrb	r0, [r0, #0]
   254d8:	2802      	cmp	r0, #2
   254da:	d00c      	beq.n	254f6 <_ZN20complex_dynamic_type3app17hb400410a0d112acaE+0xe6>
   254dc:	2803      	cmp	r0, #3
   254de:	d105      	bne.n	254ec <_ZN20complex_dynamic_type3app17hb400410a0d112acaE+0xdc>
   254e0:	481e      	ldr	r0, [pc, #120]	@ (2555c <_ZN20complex_dynamic_type3app17hb400410a0d112acaE+0x14c>)
   254e2:	2103      	movs	r1, #3
   254e4:	2200      	movs	r2, #0
   254e6:	4613      	mov	r3, r2
   254e8:	df03      	svc	3
   254ea:	e004      	b.n	254f6 <_ZN20complex_dynamic_type3app17hb400410a0d112acaE+0xe6>
   254ec:	481b      	ldr	r0, [pc, #108]	@ (2555c <_ZN20complex_dynamic_type3app17hb400410a0d112acaE+0x14c>)
   254ee:	2103      	movs	r1, #3
   254f0:	2200      	movs	r2, #0
   254f2:	4613      	mov	r3, r2
   254f4:	df04      	svc	4
   254f6:	a804      	add	r0, sp, #16
   254f8:	9900      	ldr	r1, [sp, #0]
   254fa:	7001      	strb	r1, [r0, #0]
   254fc:	a814      	add	r0, sp, #80	@ 0x50
   254fe:	7800      	ldrb	r0, [r0, #0]
   25500:	2804      	cmp	r0, #4
   25502:	d007      	beq.n	25514 <_ZN20complex_dynamic_type3app17hb400410a0d112acaE+0x104>
   25504:	2803      	cmp	r0, #3
   25506:	d11d      	bne.n	25544 <_ZN20complex_dynamic_type3app17hb400410a0d112acaE+0x134>
   25508:	4814      	ldr	r0, [pc, #80]	@ (2555c <_ZN20complex_dynamic_type3app17hb400410a0d112acaE+0x14c>)
   2550a:	2103      	movs	r1, #3
   2550c:	2200      	movs	r2, #0
   2550e:	4613      	mov	r3, r2
   25510:	df03      	svc	3
   25512:	e004      	b.n	2551e <_ZN20complex_dynamic_type3app17hb400410a0d112acaE+0x10e>
   25514:	4811      	ldr	r0, [pc, #68]	@ (2555c <_ZN20complex_dynamic_type3app17hb400410a0d112acaE+0x14c>)
   25516:	2103      	movs	r1, #3
   25518:	2200      	movs	r2, #0
   2551a:	4613      	mov	r3, r2
   2551c:	df04      	svc	4
   2551e:	a804      	add	r0, sp, #16
   25520:	7804      	ldrb	r4, [r0, #0]
   25522:	1c68      	adds	r0, r5, #1
   25524:	2238      	movs	r2, #56	@ 0x38
   25526:	9901      	ldr	r1, [sp, #4]
   25528:	f005 fdec 	bl	2b104 <__aeabi_memcpy>
   2552c:	702e      	strb	r6, [r5, #0]
   2552e:	2c02      	cmp	r4, #2
   25530:	d006      	beq.n	25540 <_ZN20complex_dynamic_type3app17hb400410a0d112acaE+0x130>
   25532:	480a      	ldr	r0, [pc, #40]	@ (2555c <_ZN20complex_dynamic_type3app17hb400410a0d112acaE+0x14c>)
   25534:	2103      	movs	r1, #3
   25536:	2200      	movs	r2, #0
   25538:	4613      	mov	r3, r2
   2553a:	2c04      	cmp	r4, #4
   2553c:	d10a      	bne.n	25554 <_ZN20complex_dynamic_type3app17hb400410a0d112acaE+0x144>
   2553e:	df04      	svc	4
   25540:	b023      	add	sp, #140	@ 0x8c
   25542:	bdf0      	pop	{r4, r5, r6, r7, pc}
   25544:	1c68      	adds	r0, r5, #1
   25546:	2238      	movs	r2, #56	@ 0x38
   25548:	9901      	ldr	r1, [sp, #4]
   2554a:	f005 fddb 	bl	2b104 <__aeabi_memcpy>
   2554e:	702e      	strb	r6, [r5, #0]
   25550:	b023      	add	sp, #140	@ 0x8c
   25552:	bdf0      	pop	{r4, r5, r6, r7, pc}
   25554:	df03      	svc	3
   25556:	b023      	add	sp, #140	@ 0x8c
   25558:	bdf0      	pop	{r4, r5, r6, r7, pc}
   2555a:	46c0      	nop			@ (mov r8, r8)
   2555c:	00001d19 	.word	0x00001d19

00025560 <_ZN20complex_dynamic_type3app17hb6022c3fb311ae6dE>:
   25560:	b5f0      	push	{r4, r5, r6, r7, lr}
   25562:	af03      	add	r7, sp, #12
   25564:	b0a9      	sub	sp, #164	@ 0xa4
   25566:	9003      	str	r0, [sp, #12]
   25568:	a804      	add	r0, sp, #16
   2556a:	2402      	movs	r4, #2
   2556c:	7004      	strb	r4, [r0, #0]
   2556e:	1c40      	adds	r0, r0, #1
   25570:	9002      	str	r0, [sp, #8]
   25572:	2550      	movs	r5, #80	@ 0x50
   25574:	462a      	mov	r2, r5
   25576:	f005 fdc5 	bl	2b104 <__aeabi_memcpy>
   2557a:	ae19      	add	r6, sp, #100	@ 0x64
   2557c:	1c70      	adds	r0, r6, #1
   2557e:	213c      	movs	r1, #60	@ 0x3c
   25580:	9001      	str	r0, [sp, #4]
   25582:	f005 fbff 	bl	2ad84 <__aeabi_memclr>
   25586:	9400      	str	r4, [sp, #0]
   25588:	7034      	strb	r4, [r6, #0]
   2558a:	484a      	ldr	r0, [pc, #296]	@ (256b4 <_ZN20complex_dynamic_type3app17hb6022c3fb311ae6dE+0x154>)
   2558c:	2603      	movs	r6, #3
   2558e:	4631      	mov	r1, r6
   25590:	9a02      	ldr	r2, [sp, #8]
   25592:	462b      	mov	r3, r5
   25594:	df04      	svc	4
   25596:	2802      	cmp	r0, #2
   25598:	d104      	bne.n	255a4 <_ZN20complex_dynamic_type3app17hb6022c3fb311ae6dE+0x44>
   2559a:	2001      	movs	r0, #1
   2559c:	9a03      	ldr	r2, [sp, #12]
   2559e:	7010      	strb	r0, [r2, #0]
   255a0:	6051      	str	r1, [r2, #4]
   255a2:	e02c      	b.n	255fe <_ZN20complex_dynamic_type3app17hb6022c3fb311ae6dE+0x9e>
   255a4:	9d03      	ldr	r5, [sp, #12]
   255a6:	a804      	add	r0, sp, #16
   255a8:	2104      	movs	r1, #4
   255aa:	7001      	strb	r1, [r0, #0]
   255ac:	4841      	ldr	r0, [pc, #260]	@ (256b4 <_ZN20complex_dynamic_type3app17hb6022c3fb311ae6dE+0x154>)
   255ae:	2109      	movs	r1, #9
   255b0:	233c      	movs	r3, #60	@ 0x3c
   255b2:	9c01      	ldr	r4, [sp, #4]
   255b4:	4622      	mov	r2, r4
   255b6:	df03      	svc	3
   255b8:	2802      	cmp	r0, #2
   255ba:	d10e      	bne.n	255da <_ZN20complex_dynamic_type3app17hb6022c3fb311ae6dE+0x7a>
   255bc:	2001      	movs	r0, #1
   255be:	7028      	strb	r0, [r5, #0]
   255c0:	6069      	str	r1, [r5, #4]
   255c2:	a819      	add	r0, sp, #100	@ 0x64
   255c4:	7800      	ldrb	r0, [r0, #0]
   255c6:	2802      	cmp	r0, #2
   255c8:	d019      	beq.n	255fe <_ZN20complex_dynamic_type3app17hb6022c3fb311ae6dE+0x9e>
   255ca:	2803      	cmp	r0, #3
   255cc:	d012      	beq.n	255f4 <_ZN20complex_dynamic_type3app17hb6022c3fb311ae6dE+0x94>
   255ce:	4839      	ldr	r0, [pc, #228]	@ (256b4 <_ZN20complex_dynamic_type3app17hb6022c3fb311ae6dE+0x154>)
   255d0:	2109      	movs	r1, #9
   255d2:	2200      	movs	r2, #0
   255d4:	4613      	mov	r3, r2
   255d6:	df04      	svc	4
   255d8:	e011      	b.n	255fe <_ZN20complex_dynamic_type3app17hb6022c3fb311ae6dE+0x9e>
   255da:	a819      	add	r0, sp, #100	@ 0x64
   255dc:	7006      	strb	r6, [r0, #0]
   255de:	4835      	ldr	r0, [pc, #212]	@ (256b4 <_ZN20complex_dynamic_type3app17hb6022c3fb311ae6dE+0x154>)
   255e0:	2209      	movs	r2, #9
   255e2:	2300      	movs	r3, #0
   255e4:	4631      	mov	r1, r6
   255e6:	9302      	str	r3, [sp, #8]
   255e8:	df02      	svc	2
   255ea:	2880      	cmp	r0, #128	@ 0x80
   255ec:	d21b      	bcs.n	25626 <_ZN20complex_dynamic_type3app17hb6022c3fb311ae6dE+0xc6>
   255ee:	2001      	movs	r0, #1
   255f0:	7028      	strb	r0, [r5, #0]
   255f2:	6069      	str	r1, [r5, #4]
   255f4:	482f      	ldr	r0, [pc, #188]	@ (256b4 <_ZN20complex_dynamic_type3app17hb6022c3fb311ae6dE+0x154>)
   255f6:	2109      	movs	r1, #9
   255f8:	2200      	movs	r2, #0
   255fa:	4613      	mov	r3, r2
   255fc:	df03      	svc	3
   255fe:	a804      	add	r0, sp, #16
   25600:	7800      	ldrb	r0, [r0, #0]
   25602:	2802      	cmp	r0, #2
   25604:	d048      	beq.n	25698 <_ZN20complex_dynamic_type3app17hb6022c3fb311ae6dE+0x138>
   25606:	2804      	cmp	r0, #4
   25608:	d106      	bne.n	25618 <_ZN20complex_dynamic_type3app17hb6022c3fb311ae6dE+0xb8>
   2560a:	482a      	ldr	r0, [pc, #168]	@ (256b4 <_ZN20complex_dynamic_type3app17hb6022c3fb311ae6dE+0x154>)
   2560c:	2103      	movs	r1, #3
   2560e:	2200      	movs	r2, #0
   25610:	4613      	mov	r3, r2
   25612:	df04      	svc	4
   25614:	b029      	add	sp, #164	@ 0xa4
   25616:	bdf0      	pop	{r4, r5, r6, r7, pc}
   25618:	4826      	ldr	r0, [pc, #152]	@ (256b4 <_ZN20complex_dynamic_type3app17hb6022c3fb311ae6dE+0x154>)
   2561a:	2103      	movs	r1, #3
   2561c:	2200      	movs	r2, #0
   2561e:	4613      	mov	r3, r2
   25620:	df03      	svc	3
   25622:	b029      	add	sp, #164	@ 0xa4
   25624:	bdf0      	pop	{r4, r5, r6, r7, pc}
   25626:	a804      	add	r0, sp, #16
   25628:	7800      	ldrb	r0, [r0, #0]
   2562a:	2802      	cmp	r0, #2
   2562c:	d00c      	beq.n	25648 <_ZN20complex_dynamic_type3app17hb6022c3fb311ae6dE+0xe8>
   2562e:	2803      	cmp	r0, #3
   25630:	d105      	bne.n	2563e <_ZN20complex_dynamic_type3app17hb6022c3fb311ae6dE+0xde>
   25632:	4820      	ldr	r0, [pc, #128]	@ (256b4 <_ZN20complex_dynamic_type3app17hb6022c3fb311ae6dE+0x154>)
   25634:	2103      	movs	r1, #3
   25636:	2200      	movs	r2, #0
   25638:	4613      	mov	r3, r2
   2563a:	df03      	svc	3
   2563c:	e004      	b.n	25648 <_ZN20complex_dynamic_type3app17hb6022c3fb311ae6dE+0xe8>
   2563e:	481d      	ldr	r0, [pc, #116]	@ (256b4 <_ZN20complex_dynamic_type3app17hb6022c3fb311ae6dE+0x154>)
   25640:	2103      	movs	r1, #3
   25642:	2200      	movs	r2, #0
   25644:	4613      	mov	r3, r2
   25646:	df04      	svc	4
   25648:	a804      	add	r0, sp, #16
   2564a:	9900      	ldr	r1, [sp, #0]
   2564c:	7001      	strb	r1, [r0, #0]
   2564e:	a819      	add	r0, sp, #100	@ 0x64
   25650:	7800      	ldrb	r0, [r0, #0]
   25652:	2804      	cmp	r0, #4
   25654:	d008      	beq.n	25668 <_ZN20complex_dynamic_type3app17hb6022c3fb311ae6dE+0x108>
   25656:	2803      	cmp	r0, #3
   25658:	d120      	bne.n	2569c <_ZN20complex_dynamic_type3app17hb6022c3fb311ae6dE+0x13c>
   2565a:	4626      	mov	r6, r4
   2565c:	4815      	ldr	r0, [pc, #84]	@ (256b4 <_ZN20complex_dynamic_type3app17hb6022c3fb311ae6dE+0x154>)
   2565e:	2109      	movs	r1, #9
   25660:	2200      	movs	r2, #0
   25662:	4613      	mov	r3, r2
   25664:	df03      	svc	3
   25666:	e005      	b.n	25674 <_ZN20complex_dynamic_type3app17hb6022c3fb311ae6dE+0x114>
   25668:	4626      	mov	r6, r4
   2566a:	4812      	ldr	r0, [pc, #72]	@ (256b4 <_ZN20complex_dynamic_type3app17hb6022c3fb311ae6dE+0x154>)
   2566c:	2109      	movs	r1, #9
   2566e:	2200      	movs	r2, #0
   25670:	4613      	mov	r3, r2
   25672:	df04      	svc	4
   25674:	a804      	add	r0, sp, #16
   25676:	7804      	ldrb	r4, [r0, #0]
   25678:	1c68      	adds	r0, r5, #1
   2567a:	223c      	movs	r2, #60	@ 0x3c
   2567c:	4631      	mov	r1, r6
   2567e:	f005 fd41 	bl	2b104 <__aeabi_memcpy>
   25682:	9802      	ldr	r0, [sp, #8]
   25684:	7028      	strb	r0, [r5, #0]
   25686:	2c02      	cmp	r4, #2
   25688:	d006      	beq.n	25698 <_ZN20complex_dynamic_type3app17hb6022c3fb311ae6dE+0x138>
   2568a:	480a      	ldr	r0, [pc, #40]	@ (256b4 <_ZN20complex_dynamic_type3app17hb6022c3fb311ae6dE+0x154>)
   2568c:	2103      	movs	r1, #3
   2568e:	2200      	movs	r2, #0
   25690:	4613      	mov	r3, r2
   25692:	2c04      	cmp	r4, #4
   25694:	d10b      	bne.n	256ae <_ZN20complex_dynamic_type3app17hb6022c3fb311ae6dE+0x14e>
   25696:	df04      	svc	4
   25698:	b029      	add	sp, #164	@ 0xa4
   2569a:	bdf0      	pop	{r4, r5, r6, r7, pc}
   2569c:	1c68      	adds	r0, r5, #1
   2569e:	223c      	movs	r2, #60	@ 0x3c
   256a0:	4621      	mov	r1, r4
   256a2:	f005 fd2f 	bl	2b104 <__aeabi_memcpy>
   256a6:	9802      	ldr	r0, [sp, #8]
   256a8:	7028      	strb	r0, [r5, #0]
   256aa:	b029      	add	sp, #164	@ 0xa4
   256ac:	bdf0      	pop	{r4, r5, r6, r7, pc}
   256ae:	df03      	svc	3
   256b0:	b029      	add	sp, #164	@ 0xa4
   256b2:	bdf0      	pop	{r4, r5, r6, r7, pc}
   256b4:	00000d7a 	.word	0x00000d7a

000256b8 <_ZN20complex_dynamic_type3app17hb7ee3c959d370b18E>:
   256b8:	b5f0      	push	{r4, r5, r6, r7, lr}
   256ba:	af03      	add	r7, sp, #12
   256bc:	b0a3      	sub	sp, #140	@ 0x8c
   256be:	9004      	str	r0, [sp, #16]
   256c0:	a805      	add	r0, sp, #20
   256c2:	2402      	movs	r4, #2
   256c4:	7004      	strb	r4, [r0, #0]
   256c6:	1c46      	adds	r6, r0, #1
   256c8:	2235      	movs	r2, #53	@ 0x35
   256ca:	9203      	str	r2, [sp, #12]
   256cc:	4630      	mov	r0, r6
   256ce:	f005 fd19 	bl	2b104 <__aeabi_memcpy>
   256d2:	ad13      	add	r5, sp, #76	@ 0x4c
   256d4:	1c68      	adds	r0, r5, #1
   256d6:	213f      	movs	r1, #63	@ 0x3f
   256d8:	9002      	str	r0, [sp, #8]
   256da:	f005 fb53 	bl	2ad84 <__aeabi_memclr>
   256de:	9401      	str	r4, [sp, #4]
   256e0:	702c      	strb	r4, [r5, #0]
   256e2:	4848      	ldr	r0, [pc, #288]	@ (25804 <_ZN20complex_dynamic_type3app17hb7ee3c959d370b18E+0x14c>)
   256e4:	2100      	movs	r1, #0
   256e6:	4632      	mov	r2, r6
   256e8:	9b03      	ldr	r3, [sp, #12]
   256ea:	df04      	svc	4
   256ec:	2802      	cmp	r0, #2
   256ee:	d104      	bne.n	256fa <_ZN20complex_dynamic_type3app17hb7ee3c959d370b18E+0x42>
   256f0:	2001      	movs	r0, #1
   256f2:	9a04      	ldr	r2, [sp, #16]
   256f4:	7010      	strb	r0, [r2, #0]
   256f6:	6051      	str	r1, [r2, #4]
   256f8:	e02c      	b.n	25754 <_ZN20complex_dynamic_type3app17hb7ee3c959d370b18E+0x9c>
   256fa:	9d04      	ldr	r5, [sp, #16]
   256fc:	a805      	add	r0, sp, #20
   256fe:	2104      	movs	r1, #4
   25700:	7001      	strb	r1, [r0, #0]
   25702:	4840      	ldr	r0, [pc, #256]	@ (25804 <_ZN20complex_dynamic_type3app17hb7ee3c959d370b18E+0x14c>)
   25704:	2403      	movs	r4, #3
   25706:	233f      	movs	r3, #63	@ 0x3f
   25708:	4621      	mov	r1, r4
   2570a:	9a02      	ldr	r2, [sp, #8]
   2570c:	df03      	svc	3
   2570e:	2802      	cmp	r0, #2
   25710:	d10e      	bne.n	25730 <_ZN20complex_dynamic_type3app17hb7ee3c959d370b18E+0x78>
   25712:	2001      	movs	r0, #1
   25714:	7028      	strb	r0, [r5, #0]
   25716:	6069      	str	r1, [r5, #4]
   25718:	a813      	add	r0, sp, #76	@ 0x4c
   2571a:	7800      	ldrb	r0, [r0, #0]
   2571c:	2802      	cmp	r0, #2
   2571e:	d019      	beq.n	25754 <_ZN20complex_dynamic_type3app17hb7ee3c959d370b18E+0x9c>
   25720:	2803      	cmp	r0, #3
   25722:	d012      	beq.n	2574a <_ZN20complex_dynamic_type3app17hb7ee3c959d370b18E+0x92>
   25724:	4837      	ldr	r0, [pc, #220]	@ (25804 <_ZN20complex_dynamic_type3app17hb7ee3c959d370b18E+0x14c>)
   25726:	2103      	movs	r1, #3
   25728:	2200      	movs	r2, #0
   2572a:	4613      	mov	r3, r2
   2572c:	df04      	svc	4
   2572e:	e011      	b.n	25754 <_ZN20complex_dynamic_type3app17hb7ee3c959d370b18E+0x9c>
   25730:	a813      	add	r0, sp, #76	@ 0x4c
   25732:	7004      	strb	r4, [r0, #0]
   25734:	4833      	ldr	r0, [pc, #204]	@ (25804 <_ZN20complex_dynamic_type3app17hb7ee3c959d370b18E+0x14c>)
   25736:	2600      	movs	r6, #0
   25738:	4631      	mov	r1, r6
   2573a:	4622      	mov	r2, r4
   2573c:	4633      	mov	r3, r6
   2573e:	df02      	svc	2
   25740:	2880      	cmp	r0, #128	@ 0x80
   25742:	d21b      	bcs.n	2577c <_ZN20complex_dynamic_type3app17hb7ee3c959d370b18E+0xc4>
   25744:	2001      	movs	r0, #1
   25746:	7028      	strb	r0, [r5, #0]
   25748:	6069      	str	r1, [r5, #4]
   2574a:	482e      	ldr	r0, [pc, #184]	@ (25804 <_ZN20complex_dynamic_type3app17hb7ee3c959d370b18E+0x14c>)
   2574c:	2103      	movs	r1, #3
   2574e:	2200      	movs	r2, #0
   25750:	4613      	mov	r3, r2
   25752:	df03      	svc	3
   25754:	a805      	add	r0, sp, #20
   25756:	7800      	ldrb	r0, [r0, #0]
   25758:	2802      	cmp	r0, #2
   2575a:	d045      	beq.n	257e8 <_ZN20complex_dynamic_type3app17hb7ee3c959d370b18E+0x130>
   2575c:	2804      	cmp	r0, #4
   2575e:	d106      	bne.n	2576e <_ZN20complex_dynamic_type3app17hb7ee3c959d370b18E+0xb6>
   25760:	4828      	ldr	r0, [pc, #160]	@ (25804 <_ZN20complex_dynamic_type3app17hb7ee3c959d370b18E+0x14c>)
   25762:	2100      	movs	r1, #0
   25764:	460a      	mov	r2, r1
   25766:	460b      	mov	r3, r1
   25768:	df04      	svc	4
   2576a:	b023      	add	sp, #140	@ 0x8c
   2576c:	bdf0      	pop	{r4, r5, r6, r7, pc}
   2576e:	4825      	ldr	r0, [pc, #148]	@ (25804 <_ZN20complex_dynamic_type3app17hb7ee3c959d370b18E+0x14c>)
   25770:	2100      	movs	r1, #0
   25772:	460a      	mov	r2, r1
   25774:	460b      	mov	r3, r1
   25776:	df03      	svc	3
   25778:	b023      	add	sp, #140	@ 0x8c
   2577a:	bdf0      	pop	{r4, r5, r6, r7, pc}
   2577c:	a805      	add	r0, sp, #20
   2577e:	7800      	ldrb	r0, [r0, #0]
   25780:	2802      	cmp	r0, #2
   25782:	d00c      	beq.n	2579e <_ZN20complex_dynamic_type3app17hb7ee3c959d370b18E+0xe6>
   25784:	2803      	cmp	r0, #3
   25786:	d105      	bne.n	25794 <_ZN20complex_dynamic_type3app17hb7ee3c959d370b18E+0xdc>
   25788:	481e      	ldr	r0, [pc, #120]	@ (25804 <_ZN20complex_dynamic_type3app17hb7ee3c959d370b18E+0x14c>)
   2578a:	2100      	movs	r1, #0
   2578c:	460a      	mov	r2, r1
   2578e:	460b      	mov	r3, r1
   25790:	df03      	svc	3
   25792:	e004      	b.n	2579e <_ZN20complex_dynamic_type3app17hb7ee3c959d370b18E+0xe6>
   25794:	481b      	ldr	r0, [pc, #108]	@ (25804 <_ZN20complex_dynamic_type3app17hb7ee3c959d370b18E+0x14c>)
   25796:	2100      	movs	r1, #0
   25798:	460a      	mov	r2, r1
   2579a:	460b      	mov	r3, r1
   2579c:	df04      	svc	4
   2579e:	a805      	add	r0, sp, #20
   257a0:	9901      	ldr	r1, [sp, #4]
   257a2:	7001      	strb	r1, [r0, #0]
   257a4:	a813      	add	r0, sp, #76	@ 0x4c
   257a6:	7800      	ldrb	r0, [r0, #0]
   257a8:	2804      	cmp	r0, #4
   257aa:	d007      	beq.n	257bc <_ZN20complex_dynamic_type3app17hb7ee3c959d370b18E+0x104>
   257ac:	2803      	cmp	r0, #3
   257ae:	d11d      	bne.n	257ec <_ZN20complex_dynamic_type3app17hb7ee3c959d370b18E+0x134>
   257b0:	4814      	ldr	r0, [pc, #80]	@ (25804 <_ZN20complex_dynamic_type3app17hb7ee3c959d370b18E+0x14c>)
   257b2:	2103      	movs	r1, #3
   257b4:	2200      	movs	r2, #0
   257b6:	4613      	mov	r3, r2
   257b8:	df03      	svc	3
   257ba:	e004      	b.n	257c6 <_ZN20complex_dynamic_type3app17hb7ee3c959d370b18E+0x10e>
   257bc:	4811      	ldr	r0, [pc, #68]	@ (25804 <_ZN20complex_dynamic_type3app17hb7ee3c959d370b18E+0x14c>)
   257be:	2103      	movs	r1, #3
   257c0:	2200      	movs	r2, #0
   257c2:	4613      	mov	r3, r2
   257c4:	df04      	svc	4
   257c6:	a805      	add	r0, sp, #20
   257c8:	7804      	ldrb	r4, [r0, #0]
   257ca:	1c68      	adds	r0, r5, #1
   257cc:	223f      	movs	r2, #63	@ 0x3f
   257ce:	9902      	ldr	r1, [sp, #8]
   257d0:	f005 fc98 	bl	2b104 <__aeabi_memcpy>
   257d4:	702e      	strb	r6, [r5, #0]
   257d6:	2c02      	cmp	r4, #2
   257d8:	d006      	beq.n	257e8 <_ZN20complex_dynamic_type3app17hb7ee3c959d370b18E+0x130>
   257da:	480a      	ldr	r0, [pc, #40]	@ (25804 <_ZN20complex_dynamic_type3app17hb7ee3c959d370b18E+0x14c>)
   257dc:	2100      	movs	r1, #0
   257de:	460a      	mov	r2, r1
   257e0:	460b      	mov	r3, r1
   257e2:	2c04      	cmp	r4, #4
   257e4:	d10a      	bne.n	257fc <_ZN20complex_dynamic_type3app17hb7ee3c959d370b18E+0x144>
   257e6:	df04      	svc	4
   257e8:	b023      	add	sp, #140	@ 0x8c
   257ea:	bdf0      	pop	{r4, r5, r6, r7, pc}
   257ec:	1c68      	adds	r0, r5, #1
   257ee:	223f      	movs	r2, #63	@ 0x3f
   257f0:	9902      	ldr	r1, [sp, #8]
   257f2:	f005 fc87 	bl	2b104 <__aeabi_memcpy>
   257f6:	702e      	strb	r6, [r5, #0]
   257f8:	b023      	add	sp, #140	@ 0x8c
   257fa:	bdf0      	pop	{r4, r5, r6, r7, pc}
   257fc:	df03      	svc	3
   257fe:	b023      	add	sp, #140	@ 0x8c
   25800:	bdf0      	pop	{r4, r5, r6, r7, pc}
   25802:	46c0      	nop			@ (mov r8, r8)
   25804:	00000e57 	.word	0x00000e57

00025808 <_ZN20complex_dynamic_type3app17hbc6ca88a4c7f6cc0E>:
   25808:	b5f0      	push	{r4, r5, r6, r7, lr}
   2580a:	af03      	add	r7, sp, #12
   2580c:	b09d      	sub	sp, #116	@ 0x74
   2580e:	9004      	str	r0, [sp, #16]
   25810:	a805      	add	r0, sp, #20
   25812:	2602      	movs	r6, #2
   25814:	7006      	strb	r6, [r0, #0]
   25816:	1c40      	adds	r0, r0, #1
   25818:	9003      	str	r0, [sp, #12]
   2581a:	251e      	movs	r5, #30
   2581c:	462a      	mov	r2, r5
   2581e:	f005 fc71 	bl	2b104 <__aeabi_memcpy>
   25822:	ac0d      	add	r4, sp, #52	@ 0x34
   25824:	1c60      	adds	r0, r4, #1
   25826:	213c      	movs	r1, #60	@ 0x3c
   25828:	9002      	str	r0, [sp, #8]
   2582a:	f005 faab 	bl	2ad84 <__aeabi_memclr>
   2582e:	7026      	strb	r6, [r4, #0]
   25830:	484a      	ldr	r0, [pc, #296]	@ (2595c <_ZN20complex_dynamic_type3app17hbc6ca88a4c7f6cc0E+0x154>)
   25832:	4631      	mov	r1, r6
   25834:	9a03      	ldr	r2, [sp, #12]
   25836:	462b      	mov	r3, r5
   25838:	df04      	svc	4
   2583a:	2802      	cmp	r0, #2
   2583c:	d104      	bne.n	25848 <_ZN20complex_dynamic_type3app17hbc6ca88a4c7f6cc0E+0x40>
   2583e:	2001      	movs	r0, #1
   25840:	9a04      	ldr	r2, [sp, #16]
   25842:	7010      	strb	r0, [r2, #0]
   25844:	6051      	str	r1, [r2, #4]
   25846:	e02e      	b.n	258a6 <_ZN20complex_dynamic_type3app17hbc6ca88a4c7f6cc0E+0x9e>
   25848:	9d04      	ldr	r5, [sp, #16]
   2584a:	a805      	add	r0, sp, #20
   2584c:	2104      	movs	r1, #4
   2584e:	7001      	strb	r1, [r0, #0]
   25850:	4842      	ldr	r0, [pc, #264]	@ (2595c <_ZN20complex_dynamic_type3app17hbc6ca88a4c7f6cc0E+0x154>)
   25852:	2603      	movs	r6, #3
   25854:	233c      	movs	r3, #60	@ 0x3c
   25856:	4631      	mov	r1, r6
   25858:	9c02      	ldr	r4, [sp, #8]
   2585a:	4622      	mov	r2, r4
   2585c:	df03      	svc	3
   2585e:	2802      	cmp	r0, #2
   25860:	d10e      	bne.n	25880 <_ZN20complex_dynamic_type3app17hbc6ca88a4c7f6cc0E+0x78>
   25862:	2001      	movs	r0, #1
   25864:	7028      	strb	r0, [r5, #0]
   25866:	6069      	str	r1, [r5, #4]
   25868:	a80d      	add	r0, sp, #52	@ 0x34
   2586a:	7800      	ldrb	r0, [r0, #0]
   2586c:	2802      	cmp	r0, #2
   2586e:	d01a      	beq.n	258a6 <_ZN20complex_dynamic_type3app17hbc6ca88a4c7f6cc0E+0x9e>
   25870:	2803      	cmp	r0, #3
   25872:	d013      	beq.n	2589c <_ZN20complex_dynamic_type3app17hbc6ca88a4c7f6cc0E+0x94>
   25874:	4839      	ldr	r0, [pc, #228]	@ (2595c <_ZN20complex_dynamic_type3app17hbc6ca88a4c7f6cc0E+0x154>)
   25876:	2103      	movs	r1, #3
   25878:	2200      	movs	r2, #0
   2587a:	4613      	mov	r3, r2
   2587c:	df04      	svc	4
   2587e:	e012      	b.n	258a6 <_ZN20complex_dynamic_type3app17hbc6ca88a4c7f6cc0E+0x9e>
   25880:	a80d      	add	r0, sp, #52	@ 0x34
   25882:	7006      	strb	r6, [r0, #0]
   25884:	4835      	ldr	r0, [pc, #212]	@ (2595c <_ZN20complex_dynamic_type3app17hbc6ca88a4c7f6cc0E+0x154>)
   25886:	2102      	movs	r1, #2
   25888:	2300      	movs	r3, #0
   2588a:	9101      	str	r1, [sp, #4]
   2588c:	4632      	mov	r2, r6
   2588e:	9303      	str	r3, [sp, #12]
   25890:	df02      	svc	2
   25892:	2880      	cmp	r0, #128	@ 0x80
   25894:	d21b      	bcs.n	258ce <_ZN20complex_dynamic_type3app17hbc6ca88a4c7f6cc0E+0xc6>
   25896:	2001      	movs	r0, #1
   25898:	7028      	strb	r0, [r5, #0]
   2589a:	6069      	str	r1, [r5, #4]
   2589c:	482f      	ldr	r0, [pc, #188]	@ (2595c <_ZN20complex_dynamic_type3app17hbc6ca88a4c7f6cc0E+0x154>)
   2589e:	2103      	movs	r1, #3
   258a0:	2200      	movs	r2, #0
   258a2:	4613      	mov	r3, r2
   258a4:	df03      	svc	3
   258a6:	a805      	add	r0, sp, #20
   258a8:	7800      	ldrb	r0, [r0, #0]
   258aa:	2802      	cmp	r0, #2
   258ac:	d048      	beq.n	25940 <_ZN20complex_dynamic_type3app17hbc6ca88a4c7f6cc0E+0x138>
   258ae:	2804      	cmp	r0, #4
   258b0:	d106      	bne.n	258c0 <_ZN20complex_dynamic_type3app17hbc6ca88a4c7f6cc0E+0xb8>
   258b2:	482a      	ldr	r0, [pc, #168]	@ (2595c <_ZN20complex_dynamic_type3app17hbc6ca88a4c7f6cc0E+0x154>)
   258b4:	2102      	movs	r1, #2
   258b6:	2200      	movs	r2, #0
   258b8:	4613      	mov	r3, r2
   258ba:	df04      	svc	4
   258bc:	b01d      	add	sp, #116	@ 0x74
   258be:	bdf0      	pop	{r4, r5, r6, r7, pc}
   258c0:	4826      	ldr	r0, [pc, #152]	@ (2595c <_ZN20complex_dynamic_type3app17hbc6ca88a4c7f6cc0E+0x154>)
   258c2:	2102      	movs	r1, #2
   258c4:	2200      	movs	r2, #0
   258c6:	4613      	mov	r3, r2
   258c8:	df03      	svc	3
   258ca:	b01d      	add	sp, #116	@ 0x74
   258cc:	bdf0      	pop	{r4, r5, r6, r7, pc}
   258ce:	a805      	add	r0, sp, #20
   258d0:	7800      	ldrb	r0, [r0, #0]
   258d2:	2802      	cmp	r0, #2
   258d4:	d00c      	beq.n	258f0 <_ZN20complex_dynamic_type3app17hbc6ca88a4c7f6cc0E+0xe8>
   258d6:	2803      	cmp	r0, #3
   258d8:	d105      	bne.n	258e6 <_ZN20complex_dynamic_type3app17hbc6ca88a4c7f6cc0E+0xde>
   258da:	4820      	ldr	r0, [pc, #128]	@ (2595c <_ZN20complex_dynamic_type3app17hbc6ca88a4c7f6cc0E+0x154>)
   258dc:	2102      	movs	r1, #2
   258de:	2200      	movs	r2, #0
   258e0:	4613      	mov	r3, r2
   258e2:	df03      	svc	3
   258e4:	e004      	b.n	258f0 <_ZN20complex_dynamic_type3app17hbc6ca88a4c7f6cc0E+0xe8>
   258e6:	481d      	ldr	r0, [pc, #116]	@ (2595c <_ZN20complex_dynamic_type3app17hbc6ca88a4c7f6cc0E+0x154>)
   258e8:	2102      	movs	r1, #2
   258ea:	2200      	movs	r2, #0
   258ec:	4613      	mov	r3, r2
   258ee:	df04      	svc	4
   258f0:	a805      	add	r0, sp, #20
   258f2:	9901      	ldr	r1, [sp, #4]
   258f4:	7001      	strb	r1, [r0, #0]
   258f6:	a80d      	add	r0, sp, #52	@ 0x34
   258f8:	7800      	ldrb	r0, [r0, #0]
   258fa:	2804      	cmp	r0, #4
   258fc:	d008      	beq.n	25910 <_ZN20complex_dynamic_type3app17hbc6ca88a4c7f6cc0E+0x108>
   258fe:	2803      	cmp	r0, #3
   25900:	d120      	bne.n	25944 <_ZN20complex_dynamic_type3app17hbc6ca88a4c7f6cc0E+0x13c>
   25902:	4626      	mov	r6, r4
   25904:	4815      	ldr	r0, [pc, #84]	@ (2595c <_ZN20complex_dynamic_type3app17hbc6ca88a4c7f6cc0E+0x154>)
   25906:	2103      	movs	r1, #3
   25908:	2200      	movs	r2, #0
   2590a:	4613      	mov	r3, r2
   2590c:	df03      	svc	3
   2590e:	e005      	b.n	2591c <_ZN20complex_dynamic_type3app17hbc6ca88a4c7f6cc0E+0x114>
   25910:	4626      	mov	r6, r4
   25912:	4812      	ldr	r0, [pc, #72]	@ (2595c <_ZN20complex_dynamic_type3app17hbc6ca88a4c7f6cc0E+0x154>)
   25914:	2103      	movs	r1, #3
   25916:	2200      	movs	r2, #0
   25918:	4613      	mov	r3, r2
   2591a:	df04      	svc	4
   2591c:	a805      	add	r0, sp, #20
   2591e:	7804      	ldrb	r4, [r0, #0]
   25920:	1c68      	adds	r0, r5, #1
   25922:	223c      	movs	r2, #60	@ 0x3c
   25924:	4631      	mov	r1, r6
   25926:	f005 fbed 	bl	2b104 <__aeabi_memcpy>
   2592a:	9803      	ldr	r0, [sp, #12]
   2592c:	7028      	strb	r0, [r5, #0]
   2592e:	2c02      	cmp	r4, #2
   25930:	d006      	beq.n	25940 <_ZN20complex_dynamic_type3app17hbc6ca88a4c7f6cc0E+0x138>
   25932:	480a      	ldr	r0, [pc, #40]	@ (2595c <_ZN20complex_dynamic_type3app17hbc6ca88a4c7f6cc0E+0x154>)
   25934:	2102      	movs	r1, #2
   25936:	2200      	movs	r2, #0
   25938:	4613      	mov	r3, r2
   2593a:	2c04      	cmp	r4, #4
   2593c:	d10b      	bne.n	25956 <_ZN20complex_dynamic_type3app17hbc6ca88a4c7f6cc0E+0x14e>
   2593e:	df04      	svc	4
   25940:	b01d      	add	sp, #116	@ 0x74
   25942:	bdf0      	pop	{r4, r5, r6, r7, pc}
   25944:	1c68      	adds	r0, r5, #1
   25946:	223c      	movs	r2, #60	@ 0x3c
   25948:	4621      	mov	r1, r4
   2594a:	f005 fbdb 	bl	2b104 <__aeabi_memcpy>
   2594e:	9803      	ldr	r0, [sp, #12]
   25950:	7028      	strb	r0, [r5, #0]
   25952:	b01d      	add	sp, #116	@ 0x74
   25954:	bdf0      	pop	{r4, r5, r6, r7, pc}
   25956:	df03      	svc	3
   25958:	b01d      	add	sp, #116	@ 0x74
   2595a:	bdf0      	pop	{r4, r5, r6, r7, pc}
   2595c:	00000b3c 	.word	0x00000b3c

00025960 <_ZN20complex_dynamic_type3app17hbe280682dbe9141dE>:
   25960:	b5f0      	push	{r4, r5, r6, r7, lr}
   25962:	af03      	add	r7, sp, #12
   25964:	b097      	sub	sp, #92	@ 0x5c
   25966:	9004      	str	r0, [sp, #16]
   25968:	a805      	add	r0, sp, #20
   2596a:	2402      	movs	r4, #2
   2596c:	7004      	strb	r4, [r0, #0]
   2596e:	1c46      	adds	r6, r0, #1
   25970:	2236      	movs	r2, #54	@ 0x36
   25972:	9203      	str	r2, [sp, #12]
   25974:	4630      	mov	r0, r6
   25976:	f005 fbc5 	bl	2b104 <__aeabi_memcpy>
   2597a:	ad13      	add	r5, sp, #76	@ 0x4c
   2597c:	1c68      	adds	r0, r5, #1
   2597e:	210f      	movs	r1, #15
   25980:	9002      	str	r0, [sp, #8]
   25982:	f005 f9ff 	bl	2ad84 <__aeabi_memclr>
   25986:	9401      	str	r4, [sp, #4]
   25988:	702c      	strb	r4, [r5, #0]
   2598a:	4848      	ldr	r0, [pc, #288]	@ (25aac <_ZN20complex_dynamic_type3app17hbe280682dbe9141dE+0x14c>)
   2598c:	2105      	movs	r1, #5
   2598e:	4632      	mov	r2, r6
   25990:	9b03      	ldr	r3, [sp, #12]
   25992:	df04      	svc	4
   25994:	2802      	cmp	r0, #2
   25996:	d104      	bne.n	259a2 <_ZN20complex_dynamic_type3app17hbe280682dbe9141dE+0x42>
   25998:	2001      	movs	r0, #1
   2599a:	9a04      	ldr	r2, [sp, #16]
   2599c:	7010      	strb	r0, [r2, #0]
   2599e:	6051      	str	r1, [r2, #4]
   259a0:	e02c      	b.n	259fc <_ZN20complex_dynamic_type3app17hbe280682dbe9141dE+0x9c>
   259a2:	9d04      	ldr	r5, [sp, #16]
   259a4:	a805      	add	r0, sp, #20
   259a6:	2104      	movs	r1, #4
   259a8:	7001      	strb	r1, [r0, #0]
   259aa:	4840      	ldr	r0, [pc, #256]	@ (25aac <_ZN20complex_dynamic_type3app17hbe280682dbe9141dE+0x14c>)
   259ac:	2403      	movs	r4, #3
   259ae:	230f      	movs	r3, #15
   259b0:	4621      	mov	r1, r4
   259b2:	9a02      	ldr	r2, [sp, #8]
   259b4:	df03      	svc	3
   259b6:	2802      	cmp	r0, #2
   259b8:	d10e      	bne.n	259d8 <_ZN20complex_dynamic_type3app17hbe280682dbe9141dE+0x78>
   259ba:	2001      	movs	r0, #1
   259bc:	7028      	strb	r0, [r5, #0]
   259be:	6069      	str	r1, [r5, #4]
   259c0:	a813      	add	r0, sp, #76	@ 0x4c
   259c2:	7800      	ldrb	r0, [r0, #0]
   259c4:	2802      	cmp	r0, #2
   259c6:	d019      	beq.n	259fc <_ZN20complex_dynamic_type3app17hbe280682dbe9141dE+0x9c>
   259c8:	2803      	cmp	r0, #3
   259ca:	d012      	beq.n	259f2 <_ZN20complex_dynamic_type3app17hbe280682dbe9141dE+0x92>
   259cc:	4837      	ldr	r0, [pc, #220]	@ (25aac <_ZN20complex_dynamic_type3app17hbe280682dbe9141dE+0x14c>)
   259ce:	2103      	movs	r1, #3
   259d0:	2200      	movs	r2, #0
   259d2:	4613      	mov	r3, r2
   259d4:	df04      	svc	4
   259d6:	e011      	b.n	259fc <_ZN20complex_dynamic_type3app17hbe280682dbe9141dE+0x9c>
   259d8:	a813      	add	r0, sp, #76	@ 0x4c
   259da:	7004      	strb	r4, [r0, #0]
   259dc:	4833      	ldr	r0, [pc, #204]	@ (25aac <_ZN20complex_dynamic_type3app17hbe280682dbe9141dE+0x14c>)
   259de:	2105      	movs	r1, #5
   259e0:	2600      	movs	r6, #0
   259e2:	4622      	mov	r2, r4
   259e4:	4633      	mov	r3, r6
   259e6:	df02      	svc	2
   259e8:	2880      	cmp	r0, #128	@ 0x80
   259ea:	d21b      	bcs.n	25a24 <_ZN20complex_dynamic_type3app17hbe280682dbe9141dE+0xc4>
   259ec:	2001      	movs	r0, #1
   259ee:	7028      	strb	r0, [r5, #0]
   259f0:	6069      	str	r1, [r5, #4]
   259f2:	482e      	ldr	r0, [pc, #184]	@ (25aac <_ZN20complex_dynamic_type3app17hbe280682dbe9141dE+0x14c>)
   259f4:	2103      	movs	r1, #3
   259f6:	2200      	movs	r2, #0
   259f8:	4613      	mov	r3, r2
   259fa:	df03      	svc	3
   259fc:	a805      	add	r0, sp, #20
   259fe:	7800      	ldrb	r0, [r0, #0]
   25a00:	2802      	cmp	r0, #2
   25a02:	d045      	beq.n	25a90 <_ZN20complex_dynamic_type3app17hbe280682dbe9141dE+0x130>
   25a04:	2804      	cmp	r0, #4
   25a06:	d106      	bne.n	25a16 <_ZN20complex_dynamic_type3app17hbe280682dbe9141dE+0xb6>
   25a08:	4828      	ldr	r0, [pc, #160]	@ (25aac <_ZN20complex_dynamic_type3app17hbe280682dbe9141dE+0x14c>)
   25a0a:	2105      	movs	r1, #5
   25a0c:	2200      	movs	r2, #0
   25a0e:	4613      	mov	r3, r2
   25a10:	df04      	svc	4
   25a12:	b017      	add	sp, #92	@ 0x5c
   25a14:	bdf0      	pop	{r4, r5, r6, r7, pc}
   25a16:	4825      	ldr	r0, [pc, #148]	@ (25aac <_ZN20complex_dynamic_type3app17hbe280682dbe9141dE+0x14c>)
   25a18:	2105      	movs	r1, #5
   25a1a:	2200      	movs	r2, #0
   25a1c:	4613      	mov	r3, r2
   25a1e:	df03      	svc	3
   25a20:	b017      	add	sp, #92	@ 0x5c
   25a22:	bdf0      	pop	{r4, r5, r6, r7, pc}
   25a24:	a805      	add	r0, sp, #20
   25a26:	7800      	ldrb	r0, [r0, #0]
   25a28:	2802      	cmp	r0, #2
   25a2a:	d00c      	beq.n	25a46 <_ZN20complex_dynamic_type3app17hbe280682dbe9141dE+0xe6>
   25a2c:	2803      	cmp	r0, #3
   25a2e:	d105      	bne.n	25a3c <_ZN20complex_dynamic_type3app17hbe280682dbe9141dE+0xdc>
   25a30:	481e      	ldr	r0, [pc, #120]	@ (25aac <_ZN20complex_dynamic_type3app17hbe280682dbe9141dE+0x14c>)
   25a32:	2105      	movs	r1, #5
   25a34:	2200      	movs	r2, #0
   25a36:	4613      	mov	r3, r2
   25a38:	df03      	svc	3
   25a3a:	e004      	b.n	25a46 <_ZN20complex_dynamic_type3app17hbe280682dbe9141dE+0xe6>
   25a3c:	481b      	ldr	r0, [pc, #108]	@ (25aac <_ZN20complex_dynamic_type3app17hbe280682dbe9141dE+0x14c>)
   25a3e:	2105      	movs	r1, #5
   25a40:	2200      	movs	r2, #0
   25a42:	4613      	mov	r3, r2
   25a44:	df04      	svc	4
   25a46:	a805      	add	r0, sp, #20
   25a48:	9901      	ldr	r1, [sp, #4]
   25a4a:	7001      	strb	r1, [r0, #0]
   25a4c:	a813      	add	r0, sp, #76	@ 0x4c
   25a4e:	7800      	ldrb	r0, [r0, #0]
   25a50:	2804      	cmp	r0, #4
   25a52:	d007      	beq.n	25a64 <_ZN20complex_dynamic_type3app17hbe280682dbe9141dE+0x104>
   25a54:	2803      	cmp	r0, #3
   25a56:	d11d      	bne.n	25a94 <_ZN20complex_dynamic_type3app17hbe280682dbe9141dE+0x134>
   25a58:	4814      	ldr	r0, [pc, #80]	@ (25aac <_ZN20complex_dynamic_type3app17hbe280682dbe9141dE+0x14c>)
   25a5a:	2103      	movs	r1, #3
   25a5c:	2200      	movs	r2, #0
   25a5e:	4613      	mov	r3, r2
   25a60:	df03      	svc	3
   25a62:	e004      	b.n	25a6e <_ZN20complex_dynamic_type3app17hbe280682dbe9141dE+0x10e>
   25a64:	4811      	ldr	r0, [pc, #68]	@ (25aac <_ZN20complex_dynamic_type3app17hbe280682dbe9141dE+0x14c>)
   25a66:	2103      	movs	r1, #3
   25a68:	2200      	movs	r2, #0
   25a6a:	4613      	mov	r3, r2
   25a6c:	df04      	svc	4
   25a6e:	a805      	add	r0, sp, #20
   25a70:	7804      	ldrb	r4, [r0, #0]
   25a72:	1c68      	adds	r0, r5, #1
   25a74:	220f      	movs	r2, #15
   25a76:	9902      	ldr	r1, [sp, #8]
   25a78:	f005 fb44 	bl	2b104 <__aeabi_memcpy>
   25a7c:	702e      	strb	r6, [r5, #0]
   25a7e:	2c02      	cmp	r4, #2
   25a80:	d006      	beq.n	25a90 <_ZN20complex_dynamic_type3app17hbe280682dbe9141dE+0x130>
   25a82:	480a      	ldr	r0, [pc, #40]	@ (25aac <_ZN20complex_dynamic_type3app17hbe280682dbe9141dE+0x14c>)
   25a84:	2105      	movs	r1, #5
   25a86:	2200      	movs	r2, #0
   25a88:	4613      	mov	r3, r2
   25a8a:	2c04      	cmp	r4, #4
   25a8c:	d10a      	bne.n	25aa4 <_ZN20complex_dynamic_type3app17hbe280682dbe9141dE+0x144>
   25a8e:	df04      	svc	4
   25a90:	b017      	add	sp, #92	@ 0x5c
   25a92:	bdf0      	pop	{r4, r5, r6, r7, pc}
   25a94:	1c68      	adds	r0, r5, #1
   25a96:	220f      	movs	r2, #15
   25a98:	9902      	ldr	r1, [sp, #8]
   25a9a:	f005 fb33 	bl	2b104 <__aeabi_memcpy>
   25a9e:	702e      	strb	r6, [r5, #0]
   25aa0:	b017      	add	sp, #92	@ 0x5c
   25aa2:	bdf0      	pop	{r4, r5, r6, r7, pc}
   25aa4:	df03      	svc	3
   25aa6:	b017      	add	sp, #92	@ 0x5c
   25aa8:	bdf0      	pop	{r4, r5, r6, r7, pc}
   25aaa:	46c0      	nop			@ (mov r8, r8)
   25aac:	00000653 	.word	0x00000653

00025ab0 <_ZN20complex_dynamic_type3app17hc0a5e3bc354cbe3eE>:
   25ab0:	b5f0      	push	{r4, r5, r6, r7, lr}
   25ab2:	af03      	add	r7, sp, #12
   25ab4:	b0a3      	sub	sp, #140	@ 0x8c
   25ab6:	9004      	str	r0, [sp, #16]
   25ab8:	a805      	add	r0, sp, #20
   25aba:	2402      	movs	r4, #2
   25abc:	7004      	strb	r4, [r0, #0]
   25abe:	1c46      	adds	r6, r0, #1
   25ac0:	2240      	movs	r2, #64	@ 0x40
   25ac2:	9203      	str	r2, [sp, #12]
   25ac4:	4630      	mov	r0, r6
   25ac6:	f005 fb1d 	bl	2b104 <__aeabi_memcpy>
   25aca:	ad16      	add	r5, sp, #88	@ 0x58
   25acc:	1c68      	adds	r0, r5, #1
   25ace:	2131      	movs	r1, #49	@ 0x31
   25ad0:	9002      	str	r0, [sp, #8]
   25ad2:	f005 f957 	bl	2ad84 <__aeabi_memclr>
   25ad6:	9401      	str	r4, [sp, #4]
   25ad8:	702c      	strb	r4, [r5, #0]
   25ada:	4848      	ldr	r0, [pc, #288]	@ (25bfc <_ZN20complex_dynamic_type3app17hc0a5e3bc354cbe3eE+0x14c>)
   25adc:	2108      	movs	r1, #8
   25ade:	4632      	mov	r2, r6
   25ae0:	9b03      	ldr	r3, [sp, #12]
   25ae2:	df04      	svc	4
   25ae4:	2802      	cmp	r0, #2
   25ae6:	d104      	bne.n	25af2 <_ZN20complex_dynamic_type3app17hc0a5e3bc354cbe3eE+0x42>
   25ae8:	2001      	movs	r0, #1
   25aea:	9a04      	ldr	r2, [sp, #16]
   25aec:	7010      	strb	r0, [r2, #0]
   25aee:	6051      	str	r1, [r2, #4]
   25af0:	e02d      	b.n	25b4e <_ZN20complex_dynamic_type3app17hc0a5e3bc354cbe3eE+0x9e>
   25af2:	9d04      	ldr	r5, [sp, #16]
   25af4:	a805      	add	r0, sp, #20
   25af6:	2104      	movs	r1, #4
   25af8:	7001      	strb	r1, [r0, #0]
   25afa:	4840      	ldr	r0, [pc, #256]	@ (25bfc <_ZN20complex_dynamic_type3app17hc0a5e3bc354cbe3eE+0x14c>)
   25afc:	2105      	movs	r1, #5
   25afe:	2331      	movs	r3, #49	@ 0x31
   25b00:	9c02      	ldr	r4, [sp, #8]
   25b02:	4622      	mov	r2, r4
   25b04:	df03      	svc	3
   25b06:	2802      	cmp	r0, #2
   25b08:	d10e      	bne.n	25b28 <_ZN20complex_dynamic_type3app17hc0a5e3bc354cbe3eE+0x78>
   25b0a:	2001      	movs	r0, #1
   25b0c:	7028      	strb	r0, [r5, #0]
   25b0e:	6069      	str	r1, [r5, #4]
   25b10:	a816      	add	r0, sp, #88	@ 0x58
   25b12:	7800      	ldrb	r0, [r0, #0]
   25b14:	2802      	cmp	r0, #2
   25b16:	d01a      	beq.n	25b4e <_ZN20complex_dynamic_type3app17hc0a5e3bc354cbe3eE+0x9e>
   25b18:	2803      	cmp	r0, #3
   25b1a:	d013      	beq.n	25b44 <_ZN20complex_dynamic_type3app17hc0a5e3bc354cbe3eE+0x94>
   25b1c:	4837      	ldr	r0, [pc, #220]	@ (25bfc <_ZN20complex_dynamic_type3app17hc0a5e3bc354cbe3eE+0x14c>)
   25b1e:	2105      	movs	r1, #5
   25b20:	2200      	movs	r2, #0
   25b22:	4613      	mov	r3, r2
   25b24:	df04      	svc	4
   25b26:	e012      	b.n	25b4e <_ZN20complex_dynamic_type3app17hc0a5e3bc354cbe3eE+0x9e>
   25b28:	a816      	add	r0, sp, #88	@ 0x58
   25b2a:	2103      	movs	r1, #3
   25b2c:	7001      	strb	r1, [r0, #0]
   25b2e:	4833      	ldr	r0, [pc, #204]	@ (25bfc <_ZN20complex_dynamic_type3app17hc0a5e3bc354cbe3eE+0x14c>)
   25b30:	2108      	movs	r1, #8
   25b32:	2205      	movs	r2, #5
   25b34:	2600      	movs	r6, #0
   25b36:	4633      	mov	r3, r6
   25b38:	df02      	svc	2
   25b3a:	2880      	cmp	r0, #128	@ 0x80
   25b3c:	d21b      	bcs.n	25b76 <_ZN20complex_dynamic_type3app17hc0a5e3bc354cbe3eE+0xc6>
   25b3e:	2001      	movs	r0, #1
   25b40:	7028      	strb	r0, [r5, #0]
   25b42:	6069      	str	r1, [r5, #4]
   25b44:	482d      	ldr	r0, [pc, #180]	@ (25bfc <_ZN20complex_dynamic_type3app17hc0a5e3bc354cbe3eE+0x14c>)
   25b46:	2105      	movs	r1, #5
   25b48:	2200      	movs	r2, #0
   25b4a:	4613      	mov	r3, r2
   25b4c:	df03      	svc	3
   25b4e:	a805      	add	r0, sp, #20
   25b50:	7800      	ldrb	r0, [r0, #0]
   25b52:	2802      	cmp	r0, #2
   25b54:	d045      	beq.n	25be2 <_ZN20complex_dynamic_type3app17hc0a5e3bc354cbe3eE+0x132>
   25b56:	2804      	cmp	r0, #4
   25b58:	d106      	bne.n	25b68 <_ZN20complex_dynamic_type3app17hc0a5e3bc354cbe3eE+0xb8>
   25b5a:	4828      	ldr	r0, [pc, #160]	@ (25bfc <_ZN20complex_dynamic_type3app17hc0a5e3bc354cbe3eE+0x14c>)
   25b5c:	2108      	movs	r1, #8
   25b5e:	2200      	movs	r2, #0
   25b60:	4613      	mov	r3, r2
   25b62:	df04      	svc	4
   25b64:	b023      	add	sp, #140	@ 0x8c
   25b66:	bdf0      	pop	{r4, r5, r6, r7, pc}
   25b68:	4824      	ldr	r0, [pc, #144]	@ (25bfc <_ZN20complex_dynamic_type3app17hc0a5e3bc354cbe3eE+0x14c>)
   25b6a:	2108      	movs	r1, #8
   25b6c:	2200      	movs	r2, #0
   25b6e:	4613      	mov	r3, r2
   25b70:	df03      	svc	3
   25b72:	b023      	add	sp, #140	@ 0x8c
   25b74:	bdf0      	pop	{r4, r5, r6, r7, pc}
   25b76:	a805      	add	r0, sp, #20
   25b78:	7800      	ldrb	r0, [r0, #0]
   25b7a:	2802      	cmp	r0, #2
   25b7c:	d00c      	beq.n	25b98 <_ZN20complex_dynamic_type3app17hc0a5e3bc354cbe3eE+0xe8>
   25b7e:	2803      	cmp	r0, #3
   25b80:	d105      	bne.n	25b8e <_ZN20complex_dynamic_type3app17hc0a5e3bc354cbe3eE+0xde>
   25b82:	481e      	ldr	r0, [pc, #120]	@ (25bfc <_ZN20complex_dynamic_type3app17hc0a5e3bc354cbe3eE+0x14c>)
   25b84:	2108      	movs	r1, #8
   25b86:	2200      	movs	r2, #0
   25b88:	4613      	mov	r3, r2
   25b8a:	df03      	svc	3
   25b8c:	e004      	b.n	25b98 <_ZN20complex_dynamic_type3app17hc0a5e3bc354cbe3eE+0xe8>
   25b8e:	481b      	ldr	r0, [pc, #108]	@ (25bfc <_ZN20complex_dynamic_type3app17hc0a5e3bc354cbe3eE+0x14c>)
   25b90:	2108      	movs	r1, #8
   25b92:	2200      	movs	r2, #0
   25b94:	4613      	mov	r3, r2
   25b96:	df04      	svc	4
   25b98:	a805      	add	r0, sp, #20
   25b9a:	9901      	ldr	r1, [sp, #4]
   25b9c:	7001      	strb	r1, [r0, #0]
   25b9e:	a816      	add	r0, sp, #88	@ 0x58
   25ba0:	7800      	ldrb	r0, [r0, #0]
   25ba2:	2804      	cmp	r0, #4
   25ba4:	d007      	beq.n	25bb6 <_ZN20complex_dynamic_type3app17hc0a5e3bc354cbe3eE+0x106>
   25ba6:	2803      	cmp	r0, #3
   25ba8:	d11d      	bne.n	25be6 <_ZN20complex_dynamic_type3app17hc0a5e3bc354cbe3eE+0x136>
   25baa:	4814      	ldr	r0, [pc, #80]	@ (25bfc <_ZN20complex_dynamic_type3app17hc0a5e3bc354cbe3eE+0x14c>)
   25bac:	2105      	movs	r1, #5
   25bae:	2200      	movs	r2, #0
   25bb0:	4613      	mov	r3, r2
   25bb2:	df03      	svc	3
   25bb4:	e004      	b.n	25bc0 <_ZN20complex_dynamic_type3app17hc0a5e3bc354cbe3eE+0x110>
   25bb6:	4811      	ldr	r0, [pc, #68]	@ (25bfc <_ZN20complex_dynamic_type3app17hc0a5e3bc354cbe3eE+0x14c>)
   25bb8:	2105      	movs	r1, #5
   25bba:	2200      	movs	r2, #0
   25bbc:	4613      	mov	r3, r2
   25bbe:	df04      	svc	4
   25bc0:	a805      	add	r0, sp, #20
   25bc2:	7804      	ldrb	r4, [r0, #0]
   25bc4:	1c68      	adds	r0, r5, #1
   25bc6:	2231      	movs	r2, #49	@ 0x31
   25bc8:	9902      	ldr	r1, [sp, #8]
   25bca:	f005 fa9b 	bl	2b104 <__aeabi_memcpy>
   25bce:	702e      	strb	r6, [r5, #0]
   25bd0:	2c02      	cmp	r4, #2
   25bd2:	d006      	beq.n	25be2 <_ZN20complex_dynamic_type3app17hc0a5e3bc354cbe3eE+0x132>
   25bd4:	4809      	ldr	r0, [pc, #36]	@ (25bfc <_ZN20complex_dynamic_type3app17hc0a5e3bc354cbe3eE+0x14c>)
   25bd6:	2108      	movs	r1, #8
   25bd8:	2200      	movs	r2, #0
   25bda:	4613      	mov	r3, r2
   25bdc:	2c04      	cmp	r4, #4
   25bde:	d10a      	bne.n	25bf6 <_ZN20complex_dynamic_type3app17hc0a5e3bc354cbe3eE+0x146>
   25be0:	df04      	svc	4
   25be2:	b023      	add	sp, #140	@ 0x8c
   25be4:	bdf0      	pop	{r4, r5, r6, r7, pc}
   25be6:	1c68      	adds	r0, r5, #1
   25be8:	2231      	movs	r2, #49	@ 0x31
   25bea:	4621      	mov	r1, r4
   25bec:	f005 fa8a 	bl	2b104 <__aeabi_memcpy>
   25bf0:	702e      	strb	r6, [r5, #0]
   25bf2:	b023      	add	sp, #140	@ 0x8c
   25bf4:	bdf0      	pop	{r4, r5, r6, r7, pc}
   25bf6:	df03      	svc	3
   25bf8:	b023      	add	sp, #140	@ 0x8c
   25bfa:	bdf0      	pop	{r4, r5, r6, r7, pc}
   25bfc:	00000fce 	.word	0x00000fce

00025c00 <_ZN20complex_dynamic_type3app17hc25ecb64b19229adE>:
   25c00:	b5f0      	push	{r4, r5, r6, r7, lr}
   25c02:	af03      	add	r7, sp, #12
   25c04:	b0a3      	sub	sp, #140	@ 0x8c
   25c06:	9004      	str	r0, [sp, #16]
   25c08:	a805      	add	r0, sp, #20
   25c0a:	2402      	movs	r4, #2
   25c0c:	7004      	strb	r4, [r0, #0]
   25c0e:	1c46      	adds	r6, r0, #1
   25c10:	2222      	movs	r2, #34	@ 0x22
   25c12:	9203      	str	r2, [sp, #12]
   25c14:	4630      	mov	r0, r6
   25c16:	f005 fa75 	bl	2b104 <__aeabi_memcpy>
   25c1a:	ad0e      	add	r5, sp, #56	@ 0x38
   25c1c:	1c68      	adds	r0, r5, #1
   25c1e:	2151      	movs	r1, #81	@ 0x51
   25c20:	9002      	str	r0, [sp, #8]
   25c22:	f005 f8af 	bl	2ad84 <__aeabi_memclr>
   25c26:	9401      	str	r4, [sp, #4]
   25c28:	702c      	strb	r4, [r5, #0]
   25c2a:	4848      	ldr	r0, [pc, #288]	@ (25d4c <_ZN20complex_dynamic_type3app17hc25ecb64b19229adE+0x14c>)
   25c2c:	2109      	movs	r1, #9
   25c2e:	4632      	mov	r2, r6
   25c30:	9b03      	ldr	r3, [sp, #12]
   25c32:	df04      	svc	4
   25c34:	2802      	cmp	r0, #2
   25c36:	d104      	bne.n	25c42 <_ZN20complex_dynamic_type3app17hc25ecb64b19229adE+0x42>
   25c38:	2001      	movs	r0, #1
   25c3a:	9a04      	ldr	r2, [sp, #16]
   25c3c:	7010      	strb	r0, [r2, #0]
   25c3e:	6051      	str	r1, [r2, #4]
   25c40:	e02d      	b.n	25c9e <_ZN20complex_dynamic_type3app17hc25ecb64b19229adE+0x9e>
   25c42:	9d04      	ldr	r5, [sp, #16]
   25c44:	a805      	add	r0, sp, #20
   25c46:	2104      	movs	r1, #4
   25c48:	7001      	strb	r1, [r0, #0]
   25c4a:	4840      	ldr	r0, [pc, #256]	@ (25d4c <_ZN20complex_dynamic_type3app17hc25ecb64b19229adE+0x14c>)
   25c4c:	2109      	movs	r1, #9
   25c4e:	2351      	movs	r3, #81	@ 0x51
   25c50:	9c02      	ldr	r4, [sp, #8]
   25c52:	4622      	mov	r2, r4
   25c54:	df03      	svc	3
   25c56:	2802      	cmp	r0, #2
   25c58:	d10e      	bne.n	25c78 <_ZN20complex_dynamic_type3app17hc25ecb64b19229adE+0x78>
   25c5a:	2001      	movs	r0, #1
   25c5c:	7028      	strb	r0, [r5, #0]
   25c5e:	6069      	str	r1, [r5, #4]
   25c60:	a80e      	add	r0, sp, #56	@ 0x38
   25c62:	7800      	ldrb	r0, [r0, #0]
   25c64:	2802      	cmp	r0, #2
   25c66:	d01a      	beq.n	25c9e <_ZN20complex_dynamic_type3app17hc25ecb64b19229adE+0x9e>
   25c68:	2803      	cmp	r0, #3
   25c6a:	d013      	beq.n	25c94 <_ZN20complex_dynamic_type3app17hc25ecb64b19229adE+0x94>
   25c6c:	4837      	ldr	r0, [pc, #220]	@ (25d4c <_ZN20complex_dynamic_type3app17hc25ecb64b19229adE+0x14c>)
   25c6e:	2109      	movs	r1, #9
   25c70:	2200      	movs	r2, #0
   25c72:	4613      	mov	r3, r2
   25c74:	df04      	svc	4
   25c76:	e012      	b.n	25c9e <_ZN20complex_dynamic_type3app17hc25ecb64b19229adE+0x9e>
   25c78:	a80e      	add	r0, sp, #56	@ 0x38
   25c7a:	2103      	movs	r1, #3
   25c7c:	7001      	strb	r1, [r0, #0]
   25c7e:	4833      	ldr	r0, [pc, #204]	@ (25d4c <_ZN20complex_dynamic_type3app17hc25ecb64b19229adE+0x14c>)
   25c80:	2109      	movs	r1, #9
   25c82:	2600      	movs	r6, #0
   25c84:	460a      	mov	r2, r1
   25c86:	4633      	mov	r3, r6
   25c88:	df02      	svc	2
   25c8a:	2880      	cmp	r0, #128	@ 0x80
   25c8c:	d21b      	bcs.n	25cc6 <_ZN20complex_dynamic_type3app17hc25ecb64b19229adE+0xc6>
   25c8e:	2001      	movs	r0, #1
   25c90:	7028      	strb	r0, [r5, #0]
   25c92:	6069      	str	r1, [r5, #4]
   25c94:	482d      	ldr	r0, [pc, #180]	@ (25d4c <_ZN20complex_dynamic_type3app17hc25ecb64b19229adE+0x14c>)
   25c96:	2109      	movs	r1, #9
   25c98:	2200      	movs	r2, #0
   25c9a:	4613      	mov	r3, r2
   25c9c:	df03      	svc	3
   25c9e:	a805      	add	r0, sp, #20
   25ca0:	7800      	ldrb	r0, [r0, #0]
   25ca2:	2802      	cmp	r0, #2
   25ca4:	d045      	beq.n	25d32 <_ZN20complex_dynamic_type3app17hc25ecb64b19229adE+0x132>
   25ca6:	2804      	cmp	r0, #4
   25ca8:	d106      	bne.n	25cb8 <_ZN20complex_dynamic_type3app17hc25ecb64b19229adE+0xb8>
   25caa:	4828      	ldr	r0, [pc, #160]	@ (25d4c <_ZN20complex_dynamic_type3app17hc25ecb64b19229adE+0x14c>)
   25cac:	2109      	movs	r1, #9
   25cae:	2200      	movs	r2, #0
   25cb0:	4613      	mov	r3, r2
   25cb2:	df04      	svc	4
   25cb4:	b023      	add	sp, #140	@ 0x8c
   25cb6:	bdf0      	pop	{r4, r5, r6, r7, pc}
   25cb8:	4824      	ldr	r0, [pc, #144]	@ (25d4c <_ZN20complex_dynamic_type3app17hc25ecb64b19229adE+0x14c>)
   25cba:	2109      	movs	r1, #9
   25cbc:	2200      	movs	r2, #0
   25cbe:	4613      	mov	r3, r2
   25cc0:	df03      	svc	3
   25cc2:	b023      	add	sp, #140	@ 0x8c
   25cc4:	bdf0      	pop	{r4, r5, r6, r7, pc}
   25cc6:	a805      	add	r0, sp, #20
   25cc8:	7800      	ldrb	r0, [r0, #0]
   25cca:	2802      	cmp	r0, #2
   25ccc:	d00c      	beq.n	25ce8 <_ZN20complex_dynamic_type3app17hc25ecb64b19229adE+0xe8>
   25cce:	2803      	cmp	r0, #3
   25cd0:	d105      	bne.n	25cde <_ZN20complex_dynamic_type3app17hc25ecb64b19229adE+0xde>
   25cd2:	481e      	ldr	r0, [pc, #120]	@ (25d4c <_ZN20complex_dynamic_type3app17hc25ecb64b19229adE+0x14c>)
   25cd4:	2109      	movs	r1, #9
   25cd6:	2200      	movs	r2, #0
   25cd8:	4613      	mov	r3, r2
   25cda:	df03      	svc	3
   25cdc:	e004      	b.n	25ce8 <_ZN20complex_dynamic_type3app17hc25ecb64b19229adE+0xe8>
   25cde:	481b      	ldr	r0, [pc, #108]	@ (25d4c <_ZN20complex_dynamic_type3app17hc25ecb64b19229adE+0x14c>)
   25ce0:	2109      	movs	r1, #9
   25ce2:	2200      	movs	r2, #0
   25ce4:	4613      	mov	r3, r2
   25ce6:	df04      	svc	4
   25ce8:	a805      	add	r0, sp, #20
   25cea:	9901      	ldr	r1, [sp, #4]
   25cec:	7001      	strb	r1, [r0, #0]
   25cee:	a80e      	add	r0, sp, #56	@ 0x38
   25cf0:	7800      	ldrb	r0, [r0, #0]
   25cf2:	2804      	cmp	r0, #4
   25cf4:	d007      	beq.n	25d06 <_ZN20complex_dynamic_type3app17hc25ecb64b19229adE+0x106>
   25cf6:	2803      	cmp	r0, #3
   25cf8:	d11d      	bne.n	25d36 <_ZN20complex_dynamic_type3app17hc25ecb64b19229adE+0x136>
   25cfa:	4814      	ldr	r0, [pc, #80]	@ (25d4c <_ZN20complex_dynamic_type3app17hc25ecb64b19229adE+0x14c>)
   25cfc:	2109      	movs	r1, #9
   25cfe:	2200      	movs	r2, #0
   25d00:	4613      	mov	r3, r2
   25d02:	df03      	svc	3
   25d04:	e004      	b.n	25d10 <_ZN20complex_dynamic_type3app17hc25ecb64b19229adE+0x110>
   25d06:	4811      	ldr	r0, [pc, #68]	@ (25d4c <_ZN20complex_dynamic_type3app17hc25ecb64b19229adE+0x14c>)
   25d08:	2109      	movs	r1, #9
   25d0a:	2200      	movs	r2, #0
   25d0c:	4613      	mov	r3, r2
   25d0e:	df04      	svc	4
   25d10:	a805      	add	r0, sp, #20
   25d12:	7804      	ldrb	r4, [r0, #0]
   25d14:	1c68      	adds	r0, r5, #1
   25d16:	2251      	movs	r2, #81	@ 0x51
   25d18:	9902      	ldr	r1, [sp, #8]
   25d1a:	f005 f9f3 	bl	2b104 <__aeabi_memcpy>
   25d1e:	702e      	strb	r6, [r5, #0]
   25d20:	2c02      	cmp	r4, #2
   25d22:	d006      	beq.n	25d32 <_ZN20complex_dynamic_type3app17hc25ecb64b19229adE+0x132>
   25d24:	4809      	ldr	r0, [pc, #36]	@ (25d4c <_ZN20complex_dynamic_type3app17hc25ecb64b19229adE+0x14c>)
   25d26:	2109      	movs	r1, #9
   25d28:	2200      	movs	r2, #0
   25d2a:	4613      	mov	r3, r2
   25d2c:	2c04      	cmp	r4, #4
   25d2e:	d10a      	bne.n	25d46 <_ZN20complex_dynamic_type3app17hc25ecb64b19229adE+0x146>
   25d30:	df04      	svc	4
   25d32:	b023      	add	sp, #140	@ 0x8c
   25d34:	bdf0      	pop	{r4, r5, r6, r7, pc}
   25d36:	1c68      	adds	r0, r5, #1
   25d38:	2251      	movs	r2, #81	@ 0x51
   25d3a:	4621      	mov	r1, r4
   25d3c:	f005 f9e2 	bl	2b104 <__aeabi_memcpy>
   25d40:	702e      	strb	r6, [r5, #0]
   25d42:	b023      	add	sp, #140	@ 0x8c
   25d44:	bdf0      	pop	{r4, r5, r6, r7, pc}
   25d46:	df03      	svc	3
   25d48:	b023      	add	sp, #140	@ 0x8c
   25d4a:	bdf0      	pop	{r4, r5, r6, r7, pc}
   25d4c:	0000055e 	.word	0x0000055e

00025d50 <_ZN20complex_dynamic_type3app17hc29184f8d2dfaa0bE>:
   25d50:	b5f0      	push	{r4, r5, r6, r7, lr}
   25d52:	af03      	add	r7, sp, #12
   25d54:	b099      	sub	sp, #100	@ 0x64
   25d56:	9003      	str	r0, [sp, #12]
   25d58:	a804      	add	r0, sp, #16
   25d5a:	2402      	movs	r4, #2
   25d5c:	7004      	strb	r4, [r0, #0]
   25d5e:	1c46      	adds	r6, r0, #1
   25d60:	223f      	movs	r2, #63	@ 0x3f
   25d62:	9202      	str	r2, [sp, #8]
   25d64:	4630      	mov	r0, r6
   25d66:	f005 f9cd 	bl	2b104 <__aeabi_memcpy>
   25d6a:	ad14      	add	r5, sp, #80	@ 0x50
   25d6c:	1c68      	adds	r0, r5, #1
   25d6e:	2111      	movs	r1, #17
   25d70:	9001      	str	r0, [sp, #4]
   25d72:	f005 f807 	bl	2ad84 <__aeabi_memclr>
   25d76:	9400      	str	r4, [sp, #0]
   25d78:	702c      	strb	r4, [r5, #0]
   25d7a:	4848      	ldr	r0, [pc, #288]	@ (25e9c <_ZN20complex_dynamic_type3app17hc29184f8d2dfaa0bE+0x14c>)
   25d7c:	2504      	movs	r5, #4
   25d7e:	4629      	mov	r1, r5
   25d80:	4632      	mov	r2, r6
   25d82:	9b02      	ldr	r3, [sp, #8]
   25d84:	df04      	svc	4
   25d86:	2802      	cmp	r0, #2
   25d88:	d104      	bne.n	25d94 <_ZN20complex_dynamic_type3app17hc29184f8d2dfaa0bE+0x44>
   25d8a:	2001      	movs	r0, #1
   25d8c:	9a03      	ldr	r2, [sp, #12]
   25d8e:	7010      	strb	r0, [r2, #0]
   25d90:	6051      	str	r1, [r2, #4]
   25d92:	e02b      	b.n	25dec <_ZN20complex_dynamic_type3app17hc29184f8d2dfaa0bE+0x9c>
   25d94:	9e03      	ldr	r6, [sp, #12]
   25d96:	a804      	add	r0, sp, #16
   25d98:	7005      	strb	r5, [r0, #0]
   25d9a:	4840      	ldr	r0, [pc, #256]	@ (25e9c <_ZN20complex_dynamic_type3app17hc29184f8d2dfaa0bE+0x14c>)
   25d9c:	2403      	movs	r4, #3
   25d9e:	2311      	movs	r3, #17
   25da0:	4621      	mov	r1, r4
   25da2:	9a01      	ldr	r2, [sp, #4]
   25da4:	df03      	svc	3
   25da6:	2802      	cmp	r0, #2
   25da8:	d10e      	bne.n	25dc8 <_ZN20complex_dynamic_type3app17hc29184f8d2dfaa0bE+0x78>
   25daa:	2001      	movs	r0, #1
   25dac:	7030      	strb	r0, [r6, #0]
   25dae:	6071      	str	r1, [r6, #4]
   25db0:	a814      	add	r0, sp, #80	@ 0x50
   25db2:	7800      	ldrb	r0, [r0, #0]
   25db4:	2802      	cmp	r0, #2
   25db6:	d019      	beq.n	25dec <_ZN20complex_dynamic_type3app17hc29184f8d2dfaa0bE+0x9c>
   25db8:	2803      	cmp	r0, #3
   25dba:	d012      	beq.n	25de2 <_ZN20complex_dynamic_type3app17hc29184f8d2dfaa0bE+0x92>
   25dbc:	4837      	ldr	r0, [pc, #220]	@ (25e9c <_ZN20complex_dynamic_type3app17hc29184f8d2dfaa0bE+0x14c>)
   25dbe:	2103      	movs	r1, #3
   25dc0:	2200      	movs	r2, #0
   25dc2:	4613      	mov	r3, r2
   25dc4:	df04      	svc	4
   25dc6:	e011      	b.n	25dec <_ZN20complex_dynamic_type3app17hc29184f8d2dfaa0bE+0x9c>
   25dc8:	a814      	add	r0, sp, #80	@ 0x50
   25dca:	7004      	strb	r4, [r0, #0]
   25dcc:	4833      	ldr	r0, [pc, #204]	@ (25e9c <_ZN20complex_dynamic_type3app17hc29184f8d2dfaa0bE+0x14c>)
   25dce:	2104      	movs	r1, #4
   25dd0:	2500      	movs	r5, #0
   25dd2:	4622      	mov	r2, r4
   25dd4:	462b      	mov	r3, r5
   25dd6:	df02      	svc	2
   25dd8:	2880      	cmp	r0, #128	@ 0x80
   25dda:	d21b      	bcs.n	25e14 <_ZN20complex_dynamic_type3app17hc29184f8d2dfaa0bE+0xc4>
   25ddc:	2001      	movs	r0, #1
   25dde:	7030      	strb	r0, [r6, #0]
   25de0:	6071      	str	r1, [r6, #4]
   25de2:	482e      	ldr	r0, [pc, #184]	@ (25e9c <_ZN20complex_dynamic_type3app17hc29184f8d2dfaa0bE+0x14c>)
   25de4:	2103      	movs	r1, #3
   25de6:	2200      	movs	r2, #0
   25de8:	4613      	mov	r3, r2
   25dea:	df03      	svc	3
   25dec:	a804      	add	r0, sp, #16
   25dee:	7800      	ldrb	r0, [r0, #0]
   25df0:	2802      	cmp	r0, #2
   25df2:	d045      	beq.n	25e80 <_ZN20complex_dynamic_type3app17hc29184f8d2dfaa0bE+0x130>
   25df4:	2804      	cmp	r0, #4
   25df6:	d106      	bne.n	25e06 <_ZN20complex_dynamic_type3app17hc29184f8d2dfaa0bE+0xb6>
   25df8:	4828      	ldr	r0, [pc, #160]	@ (25e9c <_ZN20complex_dynamic_type3app17hc29184f8d2dfaa0bE+0x14c>)
   25dfa:	2104      	movs	r1, #4
   25dfc:	2200      	movs	r2, #0
   25dfe:	4613      	mov	r3, r2
   25e00:	df04      	svc	4
   25e02:	b019      	add	sp, #100	@ 0x64
   25e04:	bdf0      	pop	{r4, r5, r6, r7, pc}
   25e06:	4825      	ldr	r0, [pc, #148]	@ (25e9c <_ZN20complex_dynamic_type3app17hc29184f8d2dfaa0bE+0x14c>)
   25e08:	2104      	movs	r1, #4
   25e0a:	2200      	movs	r2, #0
   25e0c:	4613      	mov	r3, r2
   25e0e:	df03      	svc	3
   25e10:	b019      	add	sp, #100	@ 0x64
   25e12:	bdf0      	pop	{r4, r5, r6, r7, pc}
   25e14:	a804      	add	r0, sp, #16
   25e16:	7800      	ldrb	r0, [r0, #0]
   25e18:	2802      	cmp	r0, #2
   25e1a:	d00c      	beq.n	25e36 <_ZN20complex_dynamic_type3app17hc29184f8d2dfaa0bE+0xe6>
   25e1c:	2803      	cmp	r0, #3
   25e1e:	d105      	bne.n	25e2c <_ZN20complex_dynamic_type3app17hc29184f8d2dfaa0bE+0xdc>
   25e20:	481e      	ldr	r0, [pc, #120]	@ (25e9c <_ZN20complex_dynamic_type3app17hc29184f8d2dfaa0bE+0x14c>)
   25e22:	2104      	movs	r1, #4
   25e24:	2200      	movs	r2, #0
   25e26:	4613      	mov	r3, r2
   25e28:	df03      	svc	3
   25e2a:	e004      	b.n	25e36 <_ZN20complex_dynamic_type3app17hc29184f8d2dfaa0bE+0xe6>
   25e2c:	481b      	ldr	r0, [pc, #108]	@ (25e9c <_ZN20complex_dynamic_type3app17hc29184f8d2dfaa0bE+0x14c>)
   25e2e:	2104      	movs	r1, #4
   25e30:	2200      	movs	r2, #0
   25e32:	4613      	mov	r3, r2
   25e34:	df04      	svc	4
   25e36:	a804      	add	r0, sp, #16
   25e38:	9900      	ldr	r1, [sp, #0]
   25e3a:	7001      	strb	r1, [r0, #0]
   25e3c:	a814      	add	r0, sp, #80	@ 0x50
   25e3e:	7800      	ldrb	r0, [r0, #0]
   25e40:	2804      	cmp	r0, #4
   25e42:	d007      	beq.n	25e54 <_ZN20complex_dynamic_type3app17hc29184f8d2dfaa0bE+0x104>
   25e44:	2803      	cmp	r0, #3
   25e46:	d11d      	bne.n	25e84 <_ZN20complex_dynamic_type3app17hc29184f8d2dfaa0bE+0x134>
   25e48:	4814      	ldr	r0, [pc, #80]	@ (25e9c <_ZN20complex_dynamic_type3app17hc29184f8d2dfaa0bE+0x14c>)
   25e4a:	2103      	movs	r1, #3
   25e4c:	2200      	movs	r2, #0
   25e4e:	4613      	mov	r3, r2
   25e50:	df03      	svc	3
   25e52:	e004      	b.n	25e5e <_ZN20complex_dynamic_type3app17hc29184f8d2dfaa0bE+0x10e>
   25e54:	4811      	ldr	r0, [pc, #68]	@ (25e9c <_ZN20complex_dynamic_type3app17hc29184f8d2dfaa0bE+0x14c>)
   25e56:	2103      	movs	r1, #3
   25e58:	2200      	movs	r2, #0
   25e5a:	4613      	mov	r3, r2
   25e5c:	df04      	svc	4
   25e5e:	a804      	add	r0, sp, #16
   25e60:	7804      	ldrb	r4, [r0, #0]
   25e62:	1c70      	adds	r0, r6, #1
   25e64:	2211      	movs	r2, #17
   25e66:	9901      	ldr	r1, [sp, #4]
   25e68:	f005 f94c 	bl	2b104 <__aeabi_memcpy>
   25e6c:	7035      	strb	r5, [r6, #0]
   25e6e:	2c02      	cmp	r4, #2
   25e70:	d006      	beq.n	25e80 <_ZN20complex_dynamic_type3app17hc29184f8d2dfaa0bE+0x130>
   25e72:	480a      	ldr	r0, [pc, #40]	@ (25e9c <_ZN20complex_dynamic_type3app17hc29184f8d2dfaa0bE+0x14c>)
   25e74:	2104      	movs	r1, #4
   25e76:	2200      	movs	r2, #0
   25e78:	4613      	mov	r3, r2
   25e7a:	2c04      	cmp	r4, #4
   25e7c:	d10a      	bne.n	25e94 <_ZN20complex_dynamic_type3app17hc29184f8d2dfaa0bE+0x144>
   25e7e:	df04      	svc	4
   25e80:	b019      	add	sp, #100	@ 0x64
   25e82:	bdf0      	pop	{r4, r5, r6, r7, pc}
   25e84:	1c70      	adds	r0, r6, #1
   25e86:	2211      	movs	r2, #17
   25e88:	9901      	ldr	r1, [sp, #4]
   25e8a:	f005 f93b 	bl	2b104 <__aeabi_memcpy>
   25e8e:	7035      	strb	r5, [r6, #0]
   25e90:	b019      	add	sp, #100	@ 0x64
   25e92:	bdf0      	pop	{r4, r5, r6, r7, pc}
   25e94:	df03      	svc	3
   25e96:	b019      	add	sp, #100	@ 0x64
   25e98:	bdf0      	pop	{r4, r5, r6, r7, pc}
   25e9a:	46c0      	nop			@ (mov r8, r8)
   25e9c:	000014d7 	.word	0x000014d7

00025ea0 <_ZN20complex_dynamic_type3app17hcb586085c476697bE>:
   25ea0:	b5f0      	push	{r4, r5, r6, r7, lr}
   25ea2:	af03      	add	r7, sp, #12
   25ea4:	b09b      	sub	sp, #108	@ 0x6c
   25ea6:	9003      	str	r0, [sp, #12]
   25ea8:	a804      	add	r0, sp, #16
   25eaa:	2402      	movs	r4, #2
   25eac:	7004      	strb	r4, [r0, #0]
   25eae:	1c46      	adds	r6, r0, #1
   25eb0:	2248      	movs	r2, #72	@ 0x48
   25eb2:	9202      	str	r2, [sp, #8]
   25eb4:	4630      	mov	r0, r6
   25eb6:	f005 f925 	bl	2b104 <__aeabi_memcpy>
   25eba:	ad17      	add	r5, sp, #92	@ 0x5c
   25ebc:	1c68      	adds	r0, r5, #1
   25ebe:	210f      	movs	r1, #15
   25ec0:	9001      	str	r0, [sp, #4]
   25ec2:	f004 ff5f 	bl	2ad84 <__aeabi_memclr>
   25ec6:	9400      	str	r4, [sp, #0]
   25ec8:	702c      	strb	r4, [r5, #0]
   25eca:	4848      	ldr	r0, [pc, #288]	@ (25fec <_ZN20complex_dynamic_type3app17hcb586085c476697bE+0x14c>)
   25ecc:	2108      	movs	r1, #8
   25ece:	4632      	mov	r2, r6
   25ed0:	9b02      	ldr	r3, [sp, #8]
   25ed2:	df04      	svc	4
   25ed4:	2802      	cmp	r0, #2
   25ed6:	d104      	bne.n	25ee2 <_ZN20complex_dynamic_type3app17hcb586085c476697bE+0x42>
   25ed8:	2001      	movs	r0, #1
   25eda:	9a03      	ldr	r2, [sp, #12]
   25edc:	7010      	strb	r0, [r2, #0]
   25ede:	6051      	str	r1, [r2, #4]
   25ee0:	e02d      	b.n	25f3e <_ZN20complex_dynamic_type3app17hcb586085c476697bE+0x9e>
   25ee2:	9d03      	ldr	r5, [sp, #12]
   25ee4:	a804      	add	r0, sp, #16
   25ee6:	2104      	movs	r1, #4
   25ee8:	7001      	strb	r1, [r0, #0]
   25eea:	4840      	ldr	r0, [pc, #256]	@ (25fec <_ZN20complex_dynamic_type3app17hcb586085c476697bE+0x14c>)
   25eec:	2109      	movs	r1, #9
   25eee:	230f      	movs	r3, #15
   25ef0:	9c01      	ldr	r4, [sp, #4]
   25ef2:	4622      	mov	r2, r4
   25ef4:	df03      	svc	3
   25ef6:	2802      	cmp	r0, #2
   25ef8:	d10e      	bne.n	25f18 <_ZN20complex_dynamic_type3app17hcb586085c476697bE+0x78>
   25efa:	2001      	movs	r0, #1
   25efc:	7028      	strb	r0, [r5, #0]
   25efe:	6069      	str	r1, [r5, #4]
   25f00:	a817      	add	r0, sp, #92	@ 0x5c
   25f02:	7800      	ldrb	r0, [r0, #0]
   25f04:	2802      	cmp	r0, #2
   25f06:	d01a      	beq.n	25f3e <_ZN20complex_dynamic_type3app17hcb586085c476697bE+0x9e>
   25f08:	2803      	cmp	r0, #3
   25f0a:	d013      	beq.n	25f34 <_ZN20complex_dynamic_type3app17hcb586085c476697bE+0x94>
   25f0c:	4837      	ldr	r0, [pc, #220]	@ (25fec <_ZN20complex_dynamic_type3app17hcb586085c476697bE+0x14c>)
   25f0e:	2109      	movs	r1, #9
   25f10:	2200      	movs	r2, #0
   25f12:	4613      	mov	r3, r2
   25f14:	df04      	svc	4
   25f16:	e012      	b.n	25f3e <_ZN20complex_dynamic_type3app17hcb586085c476697bE+0x9e>
   25f18:	a817      	add	r0, sp, #92	@ 0x5c
   25f1a:	2103      	movs	r1, #3
   25f1c:	7001      	strb	r1, [r0, #0]
   25f1e:	4833      	ldr	r0, [pc, #204]	@ (25fec <_ZN20complex_dynamic_type3app17hcb586085c476697bE+0x14c>)
   25f20:	2108      	movs	r1, #8
   25f22:	2209      	movs	r2, #9
   25f24:	2600      	movs	r6, #0
   25f26:	4633      	mov	r3, r6
   25f28:	df02      	svc	2
   25f2a:	2880      	cmp	r0, #128	@ 0x80
   25f2c:	d21b      	bcs.n	25f66 <_ZN20complex_dynamic_type3app17hcb586085c476697bE+0xc6>
   25f2e:	2001      	movs	r0, #1
   25f30:	7028      	strb	r0, [r5, #0]
   25f32:	6069      	str	r1, [r5, #4]
   25f34:	482d      	ldr	r0, [pc, #180]	@ (25fec <_ZN20complex_dynamic_type3app17hcb586085c476697bE+0x14c>)
   25f36:	2109      	movs	r1, #9
   25f38:	2200      	movs	r2, #0
   25f3a:	4613      	mov	r3, r2
   25f3c:	df03      	svc	3
   25f3e:	a804      	add	r0, sp, #16
   25f40:	7800      	ldrb	r0, [r0, #0]
   25f42:	2802      	cmp	r0, #2
   25f44:	d045      	beq.n	25fd2 <_ZN20complex_dynamic_type3app17hcb586085c476697bE+0x132>
   25f46:	2804      	cmp	r0, #4
   25f48:	d106      	bne.n	25f58 <_ZN20complex_dynamic_type3app17hcb586085c476697bE+0xb8>
   25f4a:	4828      	ldr	r0, [pc, #160]	@ (25fec <_ZN20complex_dynamic_type3app17hcb586085c476697bE+0x14c>)
   25f4c:	2108      	movs	r1, #8
   25f4e:	2200      	movs	r2, #0
   25f50:	4613      	mov	r3, r2
   25f52:	df04      	svc	4
   25f54:	b01b      	add	sp, #108	@ 0x6c
   25f56:	bdf0      	pop	{r4, r5, r6, r7, pc}
   25f58:	4824      	ldr	r0, [pc, #144]	@ (25fec <_ZN20complex_dynamic_type3app17hcb586085c476697bE+0x14c>)
   25f5a:	2108      	movs	r1, #8
   25f5c:	2200      	movs	r2, #0
   25f5e:	4613      	mov	r3, r2
   25f60:	df03      	svc	3
   25f62:	b01b      	add	sp, #108	@ 0x6c
   25f64:	bdf0      	pop	{r4, r5, r6, r7, pc}
   25f66:	a804      	add	r0, sp, #16
   25f68:	7800      	ldrb	r0, [r0, #0]
   25f6a:	2802      	cmp	r0, #2
   25f6c:	d00c      	beq.n	25f88 <_ZN20complex_dynamic_type3app17hcb586085c476697bE+0xe8>
   25f6e:	2803      	cmp	r0, #3
   25f70:	d105      	bne.n	25f7e <_ZN20complex_dynamic_type3app17hcb586085c476697bE+0xde>
   25f72:	481e      	ldr	r0, [pc, #120]	@ (25fec <_ZN20complex_dynamic_type3app17hcb586085c476697bE+0x14c>)
   25f74:	2108      	movs	r1, #8
   25f76:	2200      	movs	r2, #0
   25f78:	4613      	mov	r3, r2
   25f7a:	df03      	svc	3
   25f7c:	e004      	b.n	25f88 <_ZN20complex_dynamic_type3app17hcb586085c476697bE+0xe8>
   25f7e:	481b      	ldr	r0, [pc, #108]	@ (25fec <_ZN20complex_dynamic_type3app17hcb586085c476697bE+0x14c>)
   25f80:	2108      	movs	r1, #8
   25f82:	2200      	movs	r2, #0
   25f84:	4613      	mov	r3, r2
   25f86:	df04      	svc	4
   25f88:	a804      	add	r0, sp, #16
   25f8a:	9900      	ldr	r1, [sp, #0]
   25f8c:	7001      	strb	r1, [r0, #0]
   25f8e:	a817      	add	r0, sp, #92	@ 0x5c
   25f90:	7800      	ldrb	r0, [r0, #0]
   25f92:	2804      	cmp	r0, #4
   25f94:	d007      	beq.n	25fa6 <_ZN20complex_dynamic_type3app17hcb586085c476697bE+0x106>
   25f96:	2803      	cmp	r0, #3
   25f98:	d11d      	bne.n	25fd6 <_ZN20complex_dynamic_type3app17hcb586085c476697bE+0x136>
   25f9a:	4814      	ldr	r0, [pc, #80]	@ (25fec <_ZN20complex_dynamic_type3app17hcb586085c476697bE+0x14c>)
   25f9c:	2109      	movs	r1, #9
   25f9e:	2200      	movs	r2, #0
   25fa0:	4613      	mov	r3, r2
   25fa2:	df03      	svc	3
   25fa4:	e004      	b.n	25fb0 <_ZN20complex_dynamic_type3app17hcb586085c476697bE+0x110>
   25fa6:	4811      	ldr	r0, [pc, #68]	@ (25fec <_ZN20complex_dynamic_type3app17hcb586085c476697bE+0x14c>)
   25fa8:	2109      	movs	r1, #9
   25faa:	2200      	movs	r2, #0
   25fac:	4613      	mov	r3, r2
   25fae:	df04      	svc	4
   25fb0:	a804      	add	r0, sp, #16
   25fb2:	7804      	ldrb	r4, [r0, #0]
   25fb4:	1c68      	adds	r0, r5, #1
   25fb6:	220f      	movs	r2, #15
   25fb8:	9901      	ldr	r1, [sp, #4]
   25fba:	f005 f8a3 	bl	2b104 <__aeabi_memcpy>
   25fbe:	702e      	strb	r6, [r5, #0]
   25fc0:	2c02      	cmp	r4, #2
   25fc2:	d006      	beq.n	25fd2 <_ZN20complex_dynamic_type3app17hcb586085c476697bE+0x132>
   25fc4:	4809      	ldr	r0, [pc, #36]	@ (25fec <_ZN20complex_dynamic_type3app17hcb586085c476697bE+0x14c>)
   25fc6:	2108      	movs	r1, #8
   25fc8:	2200      	movs	r2, #0
   25fca:	4613      	mov	r3, r2
   25fcc:	2c04      	cmp	r4, #4
   25fce:	d10a      	bne.n	25fe6 <_ZN20complex_dynamic_type3app17hcb586085c476697bE+0x146>
   25fd0:	df04      	svc	4
   25fd2:	b01b      	add	sp, #108	@ 0x6c
   25fd4:	bdf0      	pop	{r4, r5, r6, r7, pc}
   25fd6:	1c68      	adds	r0, r5, #1
   25fd8:	220f      	movs	r2, #15
   25fda:	4621      	mov	r1, r4
   25fdc:	f005 f892 	bl	2b104 <__aeabi_memcpy>
   25fe0:	702e      	strb	r6, [r5, #0]
   25fe2:	b01b      	add	sp, #108	@ 0x6c
   25fe4:	bdf0      	pop	{r4, r5, r6, r7, pc}
   25fe6:	df03      	svc	3
   25fe8:	b01b      	add	sp, #108	@ 0x6c
   25fea:	bdf0      	pop	{r4, r5, r6, r7, pc}
   25fec:	0000111d 	.word	0x0000111d

00025ff0 <_ZN20complex_dynamic_type3app17hcee3fc31cc19b7b0E>:
   25ff0:	b5f0      	push	{r4, r5, r6, r7, lr}
   25ff2:	af03      	add	r7, sp, #12
   25ff4:	b09f      	sub	sp, #124	@ 0x7c
   25ff6:	9002      	str	r0, [sp, #8]
   25ff8:	a803      	add	r0, sp, #12
   25ffa:	2502      	movs	r5, #2
   25ffc:	7005      	strb	r5, [r0, #0]
   25ffe:	1c46      	adds	r6, r0, #1
   26000:	2236      	movs	r2, #54	@ 0x36
   26002:	9201      	str	r2, [sp, #4]
   26004:	4630      	mov	r0, r6
   26006:	f005 f87d 	bl	2b104 <__aeabi_memcpy>
   2600a:	ac11      	add	r4, sp, #68	@ 0x44
   2600c:	1c60      	adds	r0, r4, #1
   2600e:	2134      	movs	r1, #52	@ 0x34
   26010:	9000      	str	r0, [sp, #0]
   26012:	f004 feb7 	bl	2ad84 <__aeabi_memclr>
   26016:	7025      	strb	r5, [r4, #0]
   26018:	4849      	ldr	r0, [pc, #292]	@ (26140 <_ZN20complex_dynamic_type3app17hcee3fc31cc19b7b0E+0x150>)
   2601a:	2504      	movs	r5, #4
   2601c:	4629      	mov	r1, r5
   2601e:	4632      	mov	r2, r6
   26020:	9b01      	ldr	r3, [sp, #4]
   26022:	df04      	svc	4
   26024:	2802      	cmp	r0, #2
   26026:	d104      	bne.n	26032 <_ZN20complex_dynamic_type3app17hcee3fc31cc19b7b0E+0x42>
   26028:	2001      	movs	r0, #1
   2602a:	9a02      	ldr	r2, [sp, #8]
   2602c:	7010      	strb	r0, [r2, #0]
   2602e:	6051      	str	r1, [r2, #4]
   26030:	e02d      	b.n	2608e <_ZN20complex_dynamic_type3app17hcee3fc31cc19b7b0E+0x9e>
   26032:	9c02      	ldr	r4, [sp, #8]
   26034:	a803      	add	r0, sp, #12
   26036:	7005      	strb	r5, [r0, #0]
   26038:	4841      	ldr	r0, [pc, #260]	@ (26140 <_ZN20complex_dynamic_type3app17hcee3fc31cc19b7b0E+0x150>)
   2603a:	2102      	movs	r1, #2
   2603c:	2334      	movs	r3, #52	@ 0x34
   2603e:	9a00      	ldr	r2, [sp, #0]
   26040:	df03      	svc	3
   26042:	2802      	cmp	r0, #2
   26044:	d10e      	bne.n	26064 <_ZN20complex_dynamic_type3app17hcee3fc31cc19b7b0E+0x74>
   26046:	2001      	movs	r0, #1
   26048:	7020      	strb	r0, [r4, #0]
   2604a:	6061      	str	r1, [r4, #4]
   2604c:	a811      	add	r0, sp, #68	@ 0x44
   2604e:	7800      	ldrb	r0, [r0, #0]
   26050:	2802      	cmp	r0, #2
   26052:	d01c      	beq.n	2608e <_ZN20complex_dynamic_type3app17hcee3fc31cc19b7b0E+0x9e>
   26054:	2803      	cmp	r0, #3
   26056:	d015      	beq.n	26084 <_ZN20complex_dynamic_type3app17hcee3fc31cc19b7b0E+0x94>
   26058:	4839      	ldr	r0, [pc, #228]	@ (26140 <_ZN20complex_dynamic_type3app17hcee3fc31cc19b7b0E+0x150>)
   2605a:	2102      	movs	r1, #2
   2605c:	2200      	movs	r2, #0
   2605e:	4613      	mov	r3, r2
   26060:	df04      	svc	4
   26062:	e014      	b.n	2608e <_ZN20complex_dynamic_type3app17hcee3fc31cc19b7b0E+0x9e>
   26064:	a811      	add	r0, sp, #68	@ 0x44
   26066:	2103      	movs	r1, #3
   26068:	7001      	strb	r1, [r0, #0]
   2606a:	4835      	ldr	r0, [pc, #212]	@ (26140 <_ZN20complex_dynamic_type3app17hcee3fc31cc19b7b0E+0x150>)
   2606c:	2104      	movs	r1, #4
   2606e:	2602      	movs	r6, #2
   26070:	2300      	movs	r3, #0
   26072:	4632      	mov	r2, r6
   26074:	9301      	str	r3, [sp, #4]
   26076:	df02      	svc	2
   26078:	2880      	cmp	r0, #128	@ 0x80
   2607a:	4625      	mov	r5, r4
   2607c:	d21b      	bcs.n	260b6 <_ZN20complex_dynamic_type3app17hcee3fc31cc19b7b0E+0xc6>
   2607e:	2001      	movs	r0, #1
   26080:	7028      	strb	r0, [r5, #0]
   26082:	6069      	str	r1, [r5, #4]
   26084:	482e      	ldr	r0, [pc, #184]	@ (26140 <_ZN20complex_dynamic_type3app17hcee3fc31cc19b7b0E+0x150>)
   26086:	2102      	movs	r1, #2
   26088:	2200      	movs	r2, #0
   2608a:	4613      	mov	r3, r2
   2608c:	df03      	svc	3
   2608e:	a803      	add	r0, sp, #12
   26090:	7800      	ldrb	r0, [r0, #0]
   26092:	2802      	cmp	r0, #2
   26094:	d045      	beq.n	26122 <_ZN20complex_dynamic_type3app17hcee3fc31cc19b7b0E+0x132>
   26096:	2804      	cmp	r0, #4
   26098:	d106      	bne.n	260a8 <_ZN20complex_dynamic_type3app17hcee3fc31cc19b7b0E+0xb8>
   2609a:	4829      	ldr	r0, [pc, #164]	@ (26140 <_ZN20complex_dynamic_type3app17hcee3fc31cc19b7b0E+0x150>)
   2609c:	2104      	movs	r1, #4
   2609e:	2200      	movs	r2, #0
   260a0:	4613      	mov	r3, r2
   260a2:	df04      	svc	4
   260a4:	b01f      	add	sp, #124	@ 0x7c
   260a6:	bdf0      	pop	{r4, r5, r6, r7, pc}
   260a8:	4825      	ldr	r0, [pc, #148]	@ (26140 <_ZN20complex_dynamic_type3app17hcee3fc31cc19b7b0E+0x150>)
   260aa:	2104      	movs	r1, #4
   260ac:	2200      	movs	r2, #0
   260ae:	4613      	mov	r3, r2
   260b0:	df03      	svc	3
   260b2:	b01f      	add	sp, #124	@ 0x7c
   260b4:	bdf0      	pop	{r4, r5, r6, r7, pc}
   260b6:	a803      	add	r0, sp, #12
   260b8:	7800      	ldrb	r0, [r0, #0]
   260ba:	2802      	cmp	r0, #2
   260bc:	d00c      	beq.n	260d8 <_ZN20complex_dynamic_type3app17hcee3fc31cc19b7b0E+0xe8>
   260be:	2803      	cmp	r0, #3
   260c0:	d105      	bne.n	260ce <_ZN20complex_dynamic_type3app17hcee3fc31cc19b7b0E+0xde>
   260c2:	481f      	ldr	r0, [pc, #124]	@ (26140 <_ZN20complex_dynamic_type3app17hcee3fc31cc19b7b0E+0x150>)
   260c4:	2104      	movs	r1, #4
   260c6:	2200      	movs	r2, #0
   260c8:	4613      	mov	r3, r2
   260ca:	df03      	svc	3
   260cc:	e004      	b.n	260d8 <_ZN20complex_dynamic_type3app17hcee3fc31cc19b7b0E+0xe8>
   260ce:	481c      	ldr	r0, [pc, #112]	@ (26140 <_ZN20complex_dynamic_type3app17hcee3fc31cc19b7b0E+0x150>)
   260d0:	2104      	movs	r1, #4
   260d2:	2200      	movs	r2, #0
   260d4:	4613      	mov	r3, r2
   260d6:	df04      	svc	4
   260d8:	a803      	add	r0, sp, #12
   260da:	7006      	strb	r6, [r0, #0]
   260dc:	a811      	add	r0, sp, #68	@ 0x44
   260de:	7800      	ldrb	r0, [r0, #0]
   260e0:	2804      	cmp	r0, #4
   260e2:	d007      	beq.n	260f4 <_ZN20complex_dynamic_type3app17hcee3fc31cc19b7b0E+0x104>
   260e4:	2803      	cmp	r0, #3
   260e6:	d11e      	bne.n	26126 <_ZN20complex_dynamic_type3app17hcee3fc31cc19b7b0E+0x136>
   260e8:	4815      	ldr	r0, [pc, #84]	@ (26140 <_ZN20complex_dynamic_type3app17hcee3fc31cc19b7b0E+0x150>)
   260ea:	2102      	movs	r1, #2
   260ec:	2200      	movs	r2, #0
   260ee:	4613      	mov	r3, r2
   260f0:	df03      	svc	3
   260f2:	e004      	b.n	260fe <_ZN20complex_dynamic_type3app17hcee3fc31cc19b7b0E+0x10e>
   260f4:	4812      	ldr	r0, [pc, #72]	@ (26140 <_ZN20complex_dynamic_type3app17hcee3fc31cc19b7b0E+0x150>)
   260f6:	2102      	movs	r1, #2
   260f8:	2200      	movs	r2, #0
   260fa:	4613      	mov	r3, r2
   260fc:	df04      	svc	4
   260fe:	a803      	add	r0, sp, #12
   26100:	7804      	ldrb	r4, [r0, #0]
   26102:	1c68      	adds	r0, r5, #1
   26104:	2234      	movs	r2, #52	@ 0x34
   26106:	9900      	ldr	r1, [sp, #0]
   26108:	f004 fffc 	bl	2b104 <__aeabi_memcpy>
   2610c:	9801      	ldr	r0, [sp, #4]
   2610e:	7028      	strb	r0, [r5, #0]
   26110:	2c02      	cmp	r4, #2
   26112:	d006      	beq.n	26122 <_ZN20complex_dynamic_type3app17hcee3fc31cc19b7b0E+0x132>
   26114:	480a      	ldr	r0, [pc, #40]	@ (26140 <_ZN20complex_dynamic_type3app17hcee3fc31cc19b7b0E+0x150>)
   26116:	2104      	movs	r1, #4
   26118:	2200      	movs	r2, #0
   2611a:	4613      	mov	r3, r2
   2611c:	2c04      	cmp	r4, #4
   2611e:	d10b      	bne.n	26138 <_ZN20complex_dynamic_type3app17hcee3fc31cc19b7b0E+0x148>
   26120:	df04      	svc	4
   26122:	b01f      	add	sp, #124	@ 0x7c
   26124:	bdf0      	pop	{r4, r5, r6, r7, pc}
   26126:	1c68      	adds	r0, r5, #1
   26128:	2234      	movs	r2, #52	@ 0x34
   2612a:	9900      	ldr	r1, [sp, #0]
   2612c:	f004 ffea 	bl	2b104 <__aeabi_memcpy>
   26130:	9801      	ldr	r0, [sp, #4]
   26132:	7028      	strb	r0, [r5, #0]
   26134:	b01f      	add	sp, #124	@ 0x7c
   26136:	bdf0      	pop	{r4, r5, r6, r7, pc}
   26138:	df03      	svc	3
   2613a:	b01f      	add	sp, #124	@ 0x7c
   2613c:	bdf0      	pop	{r4, r5, r6, r7, pc}
   2613e:	46c0      	nop			@ (mov r8, r8)
   26140:	000023c6 	.word	0x000023c6

00026144 <_ZN20complex_dynamic_type3app17hd0553c45a8e1e234E>:
   26144:	b5f0      	push	{r4, r5, r6, r7, lr}
   26146:	af03      	add	r7, sp, #12
   26148:	b099      	sub	sp, #100	@ 0x64
   2614a:	9004      	str	r0, [sp, #16]
   2614c:	a805      	add	r0, sp, #20
   2614e:	2402      	movs	r4, #2
   26150:	7004      	strb	r4, [r0, #0]
   26152:	1c46      	adds	r6, r0, #1
   26154:	221e      	movs	r2, #30
   26156:	9203      	str	r2, [sp, #12]
   26158:	4630      	mov	r0, r6
   2615a:	f004 ffd3 	bl	2b104 <__aeabi_memcpy>
   2615e:	ad0d      	add	r5, sp, #52	@ 0x34
   26160:	1c68      	adds	r0, r5, #1
   26162:	212c      	movs	r1, #44	@ 0x2c
   26164:	9002      	str	r0, [sp, #8]
   26166:	f004 fe0d 	bl	2ad84 <__aeabi_memclr>
   2616a:	9401      	str	r4, [sp, #4]
   2616c:	702c      	strb	r4, [r5, #0]
   2616e:	4848      	ldr	r0, [pc, #288]	@ (26290 <_ZN20complex_dynamic_type3app17hd0553c45a8e1e234E+0x14c>)
   26170:	2107      	movs	r1, #7
   26172:	4632      	mov	r2, r6
   26174:	9b03      	ldr	r3, [sp, #12]
   26176:	df04      	svc	4
   26178:	2802      	cmp	r0, #2
   2617a:	d104      	bne.n	26186 <_ZN20complex_dynamic_type3app17hd0553c45a8e1e234E+0x42>
   2617c:	2001      	movs	r0, #1
   2617e:	9a04      	ldr	r2, [sp, #16]
   26180:	7010      	strb	r0, [r2, #0]
   26182:	6051      	str	r1, [r2, #4]
   26184:	e02d      	b.n	261e2 <_ZN20complex_dynamic_type3app17hd0553c45a8e1e234E+0x9e>
   26186:	9d04      	ldr	r5, [sp, #16]
   26188:	a805      	add	r0, sp, #20
   2618a:	2104      	movs	r1, #4
   2618c:	7001      	strb	r1, [r0, #0]
   2618e:	4840      	ldr	r0, [pc, #256]	@ (26290 <_ZN20complex_dynamic_type3app17hd0553c45a8e1e234E+0x14c>)
   26190:	2100      	movs	r1, #0
   26192:	232c      	movs	r3, #44	@ 0x2c
   26194:	9c02      	ldr	r4, [sp, #8]
   26196:	4622      	mov	r2, r4
   26198:	df03      	svc	3
   2619a:	2802      	cmp	r0, #2
   2619c:	d10e      	bne.n	261bc <_ZN20complex_dynamic_type3app17hd0553c45a8e1e234E+0x78>
   2619e:	2001      	movs	r0, #1
   261a0:	7028      	strb	r0, [r5, #0]
   261a2:	6069      	str	r1, [r5, #4]
   261a4:	a80d      	add	r0, sp, #52	@ 0x34
   261a6:	7800      	ldrb	r0, [r0, #0]
   261a8:	2802      	cmp	r0, #2
   261aa:	d01a      	beq.n	261e2 <_ZN20complex_dynamic_type3app17hd0553c45a8e1e234E+0x9e>
   261ac:	2803      	cmp	r0, #3
   261ae:	d013      	beq.n	261d8 <_ZN20complex_dynamic_type3app17hd0553c45a8e1e234E+0x94>
   261b0:	4837      	ldr	r0, [pc, #220]	@ (26290 <_ZN20complex_dynamic_type3app17hd0553c45a8e1e234E+0x14c>)
   261b2:	2100      	movs	r1, #0
   261b4:	460a      	mov	r2, r1
   261b6:	460b      	mov	r3, r1
   261b8:	df04      	svc	4
   261ba:	e012      	b.n	261e2 <_ZN20complex_dynamic_type3app17hd0553c45a8e1e234E+0x9e>
   261bc:	a80d      	add	r0, sp, #52	@ 0x34
   261be:	2103      	movs	r1, #3
   261c0:	7001      	strb	r1, [r0, #0]
   261c2:	4833      	ldr	r0, [pc, #204]	@ (26290 <_ZN20complex_dynamic_type3app17hd0553c45a8e1e234E+0x14c>)
   261c4:	2107      	movs	r1, #7
   261c6:	2600      	movs	r6, #0
   261c8:	4632      	mov	r2, r6
   261ca:	4633      	mov	r3, r6
   261cc:	df02      	svc	2
   261ce:	2880      	cmp	r0, #128	@ 0x80
   261d0:	d21b      	bcs.n	2620a <_ZN20complex_dynamic_type3app17hd0553c45a8e1e234E+0xc6>
   261d2:	2001      	movs	r0, #1
   261d4:	7028      	strb	r0, [r5, #0]
   261d6:	6069      	str	r1, [r5, #4]
   261d8:	482d      	ldr	r0, [pc, #180]	@ (26290 <_ZN20complex_dynamic_type3app17hd0553c45a8e1e234E+0x14c>)
   261da:	2100      	movs	r1, #0
   261dc:	460a      	mov	r2, r1
   261de:	460b      	mov	r3, r1
   261e0:	df03      	svc	3
   261e2:	a805      	add	r0, sp, #20
   261e4:	7800      	ldrb	r0, [r0, #0]
   261e6:	2802      	cmp	r0, #2
   261e8:	d045      	beq.n	26276 <_ZN20complex_dynamic_type3app17hd0553c45a8e1e234E+0x132>
   261ea:	2804      	cmp	r0, #4
   261ec:	d106      	bne.n	261fc <_ZN20complex_dynamic_type3app17hd0553c45a8e1e234E+0xb8>
   261ee:	4828      	ldr	r0, [pc, #160]	@ (26290 <_ZN20complex_dynamic_type3app17hd0553c45a8e1e234E+0x14c>)
   261f0:	2107      	movs	r1, #7
   261f2:	2200      	movs	r2, #0
   261f4:	4613      	mov	r3, r2
   261f6:	df04      	svc	4
   261f8:	b019      	add	sp, #100	@ 0x64
   261fa:	bdf0      	pop	{r4, r5, r6, r7, pc}
   261fc:	4824      	ldr	r0, [pc, #144]	@ (26290 <_ZN20complex_dynamic_type3app17hd0553c45a8e1e234E+0x14c>)
   261fe:	2107      	movs	r1, #7
   26200:	2200      	movs	r2, #0
   26202:	4613      	mov	r3, r2
   26204:	df03      	svc	3
   26206:	b019      	add	sp, #100	@ 0x64
   26208:	bdf0      	pop	{r4, r5, r6, r7, pc}
   2620a:	a805      	add	r0, sp, #20
   2620c:	7800      	ldrb	r0, [r0, #0]
   2620e:	2802      	cmp	r0, #2
   26210:	d00c      	beq.n	2622c <_ZN20complex_dynamic_type3app17hd0553c45a8e1e234E+0xe8>
   26212:	2803      	cmp	r0, #3
   26214:	d105      	bne.n	26222 <_ZN20complex_dynamic_type3app17hd0553c45a8e1e234E+0xde>
   26216:	481e      	ldr	r0, [pc, #120]	@ (26290 <_ZN20complex_dynamic_type3app17hd0553c45a8e1e234E+0x14c>)
   26218:	2107      	movs	r1, #7
   2621a:	2200      	movs	r2, #0
   2621c:	4613      	mov	r3, r2
   2621e:	df03      	svc	3
   26220:	e004      	b.n	2622c <_ZN20complex_dynamic_type3app17hd0553c45a8e1e234E+0xe8>
   26222:	481b      	ldr	r0, [pc, #108]	@ (26290 <_ZN20complex_dynamic_type3app17hd0553c45a8e1e234E+0x14c>)
   26224:	2107      	movs	r1, #7
   26226:	2200      	movs	r2, #0
   26228:	4613      	mov	r3, r2
   2622a:	df04      	svc	4
   2622c:	a805      	add	r0, sp, #20
   2622e:	9901      	ldr	r1, [sp, #4]
   26230:	7001      	strb	r1, [r0, #0]
   26232:	a80d      	add	r0, sp, #52	@ 0x34
   26234:	7800      	ldrb	r0, [r0, #0]
   26236:	2804      	cmp	r0, #4
   26238:	d007      	beq.n	2624a <_ZN20complex_dynamic_type3app17hd0553c45a8e1e234E+0x106>
   2623a:	2803      	cmp	r0, #3
   2623c:	d11d      	bne.n	2627a <_ZN20complex_dynamic_type3app17hd0553c45a8e1e234E+0x136>
   2623e:	4814      	ldr	r0, [pc, #80]	@ (26290 <_ZN20complex_dynamic_type3app17hd0553c45a8e1e234E+0x14c>)
   26240:	2100      	movs	r1, #0
   26242:	460a      	mov	r2, r1
   26244:	460b      	mov	r3, r1
   26246:	df03      	svc	3
   26248:	e004      	b.n	26254 <_ZN20complex_dynamic_type3app17hd0553c45a8e1e234E+0x110>
   2624a:	4811      	ldr	r0, [pc, #68]	@ (26290 <_ZN20complex_dynamic_type3app17hd0553c45a8e1e234E+0x14c>)
   2624c:	2100      	movs	r1, #0
   2624e:	460a      	mov	r2, r1
   26250:	460b      	mov	r3, r1
   26252:	df04      	svc	4
   26254:	a805      	add	r0, sp, #20
   26256:	7804      	ldrb	r4, [r0, #0]
   26258:	1c68      	adds	r0, r5, #1
   2625a:	222c      	movs	r2, #44	@ 0x2c
   2625c:	9902      	ldr	r1, [sp, #8]
   2625e:	f004 ff51 	bl	2b104 <__aeabi_memcpy>
   26262:	702e      	strb	r6, [r5, #0]
   26264:	2c02      	cmp	r4, #2
   26266:	d006      	beq.n	26276 <_ZN20complex_dynamic_type3app17hd0553c45a8e1e234E+0x132>
   26268:	4809      	ldr	r0, [pc, #36]	@ (26290 <_ZN20complex_dynamic_type3app17hd0553c45a8e1e234E+0x14c>)
   2626a:	2107      	movs	r1, #7
   2626c:	2200      	movs	r2, #0
   2626e:	4613      	mov	r3, r2
   26270:	2c04      	cmp	r4, #4
   26272:	d10a      	bne.n	2628a <_ZN20complex_dynamic_type3app17hd0553c45a8e1e234E+0x146>
   26274:	df04      	svc	4
   26276:	b019      	add	sp, #100	@ 0x64
   26278:	bdf0      	pop	{r4, r5, r6, r7, pc}
   2627a:	1c68      	adds	r0, r5, #1
   2627c:	222c      	movs	r2, #44	@ 0x2c
   2627e:	4621      	mov	r1, r4
   26280:	f004 ff40 	bl	2b104 <__aeabi_memcpy>
   26284:	702e      	strb	r6, [r5, #0]
   26286:	b019      	add	sp, #100	@ 0x64
   26288:	bdf0      	pop	{r4, r5, r6, r7, pc}
   2628a:	df03      	svc	3
   2628c:	b019      	add	sp, #100	@ 0x64
   2628e:	bdf0      	pop	{r4, r5, r6, r7, pc}
   26290:	000003fb 	.word	0x000003fb

00026294 <_ZN20complex_dynamic_type3app17hd0ecccbb0931b8efE>:
   26294:	b5f0      	push	{r4, r5, r6, r7, lr}
   26296:	af03      	add	r7, sp, #12
   26298:	b0ad      	sub	sp, #180	@ 0xb4
   2629a:	9004      	str	r0, [sp, #16]
   2629c:	a805      	add	r0, sp, #20
   2629e:	2402      	movs	r4, #2
   262a0:	7004      	strb	r4, [r0, #0]
   262a2:	1c46      	adds	r6, r0, #1
   262a4:	2246      	movs	r2, #70	@ 0x46
   262a6:	9203      	str	r2, [sp, #12]
   262a8:	4630      	mov	r0, r6
   262aa:	f004 ff2b 	bl	2b104 <__aeabi_memcpy>
   262ae:	ad17      	add	r5, sp, #92	@ 0x5c
   262b0:	1c68      	adds	r0, r5, #1
   262b2:	2156      	movs	r1, #86	@ 0x56
   262b4:	9002      	str	r0, [sp, #8]
   262b6:	f004 fd65 	bl	2ad84 <__aeabi_memclr>
   262ba:	9401      	str	r4, [sp, #4]
   262bc:	702c      	strb	r4, [r5, #0]
   262be:	4848      	ldr	r0, [pc, #288]	@ (263e0 <_ZN20complex_dynamic_type3app17hd0ecccbb0931b8efE+0x14c>)
   262c0:	2107      	movs	r1, #7
   262c2:	4632      	mov	r2, r6
   262c4:	9b03      	ldr	r3, [sp, #12]
   262c6:	df04      	svc	4
   262c8:	2802      	cmp	r0, #2
   262ca:	d104      	bne.n	262d6 <_ZN20complex_dynamic_type3app17hd0ecccbb0931b8efE+0x42>
   262cc:	2001      	movs	r0, #1
   262ce:	9a04      	ldr	r2, [sp, #16]
   262d0:	7010      	strb	r0, [r2, #0]
   262d2:	6051      	str	r1, [r2, #4]
   262d4:	e02c      	b.n	26330 <_ZN20complex_dynamic_type3app17hd0ecccbb0931b8efE+0x9c>
   262d6:	9d04      	ldr	r5, [sp, #16]
   262d8:	a805      	add	r0, sp, #20
   262da:	2104      	movs	r1, #4
   262dc:	7001      	strb	r1, [r0, #0]
   262de:	4840      	ldr	r0, [pc, #256]	@ (263e0 <_ZN20complex_dynamic_type3app17hd0ecccbb0931b8efE+0x14c>)
   262e0:	2403      	movs	r4, #3
   262e2:	2356      	movs	r3, #86	@ 0x56
   262e4:	4621      	mov	r1, r4
   262e6:	9a02      	ldr	r2, [sp, #8]
   262e8:	df03      	svc	3
   262ea:	2802      	cmp	r0, #2
   262ec:	d10e      	bne.n	2630c <_ZN20complex_dynamic_type3app17hd0ecccbb0931b8efE+0x78>
   262ee:	2001      	movs	r0, #1
   262f0:	7028      	strb	r0, [r5, #0]
   262f2:	6069      	str	r1, [r5, #4]
   262f4:	a817      	add	r0, sp, #92	@ 0x5c
   262f6:	7800      	ldrb	r0, [r0, #0]
   262f8:	2802      	cmp	r0, #2
   262fa:	d019      	beq.n	26330 <_ZN20complex_dynamic_type3app17hd0ecccbb0931b8efE+0x9c>
   262fc:	2803      	cmp	r0, #3
   262fe:	d012      	beq.n	26326 <_ZN20complex_dynamic_type3app17hd0ecccbb0931b8efE+0x92>
   26300:	4837      	ldr	r0, [pc, #220]	@ (263e0 <_ZN20complex_dynamic_type3app17hd0ecccbb0931b8efE+0x14c>)
   26302:	2103      	movs	r1, #3
   26304:	2200      	movs	r2, #0
   26306:	4613      	mov	r3, r2
   26308:	df04      	svc	4
   2630a:	e011      	b.n	26330 <_ZN20complex_dynamic_type3app17hd0ecccbb0931b8efE+0x9c>
   2630c:	a817      	add	r0, sp, #92	@ 0x5c
   2630e:	7004      	strb	r4, [r0, #0]
   26310:	4833      	ldr	r0, [pc, #204]	@ (263e0 <_ZN20complex_dynamic_type3app17hd0ecccbb0931b8efE+0x14c>)
   26312:	2107      	movs	r1, #7
   26314:	2600      	movs	r6, #0
   26316:	4622      	mov	r2, r4
   26318:	4633      	mov	r3, r6
   2631a:	df02      	svc	2
   2631c:	2880      	cmp	r0, #128	@ 0x80
   2631e:	d21b      	bcs.n	26358 <_ZN20complex_dynamic_type3app17hd0ecccbb0931b8efE+0xc4>
   26320:	2001      	movs	r0, #1
   26322:	7028      	strb	r0, [r5, #0]
   26324:	6069      	str	r1, [r5, #4]
   26326:	482e      	ldr	r0, [pc, #184]	@ (263e0 <_ZN20complex_dynamic_type3app17hd0ecccbb0931b8efE+0x14c>)
   26328:	2103      	movs	r1, #3
   2632a:	2200      	movs	r2, #0
   2632c:	4613      	mov	r3, r2
   2632e:	df03      	svc	3
   26330:	a805      	add	r0, sp, #20
   26332:	7800      	ldrb	r0, [r0, #0]
   26334:	2802      	cmp	r0, #2
   26336:	d045      	beq.n	263c4 <_ZN20complex_dynamic_type3app17hd0ecccbb0931b8efE+0x130>
   26338:	2804      	cmp	r0, #4
   2633a:	d106      	bne.n	2634a <_ZN20complex_dynamic_type3app17hd0ecccbb0931b8efE+0xb6>
   2633c:	4828      	ldr	r0, [pc, #160]	@ (263e0 <_ZN20complex_dynamic_type3app17hd0ecccbb0931b8efE+0x14c>)
   2633e:	2107      	movs	r1, #7
   26340:	2200      	movs	r2, #0
   26342:	4613      	mov	r3, r2
   26344:	df04      	svc	4
   26346:	b02d      	add	sp, #180	@ 0xb4
   26348:	bdf0      	pop	{r4, r5, r6, r7, pc}
   2634a:	4825      	ldr	r0, [pc, #148]	@ (263e0 <_ZN20complex_dynamic_type3app17hd0ecccbb0931b8efE+0x14c>)
   2634c:	2107      	movs	r1, #7
   2634e:	2200      	movs	r2, #0
   26350:	4613      	mov	r3, r2
   26352:	df03      	svc	3
   26354:	b02d      	add	sp, #180	@ 0xb4
   26356:	bdf0      	pop	{r4, r5, r6, r7, pc}
   26358:	a805      	add	r0, sp, #20
   2635a:	7800      	ldrb	r0, [r0, #0]
   2635c:	2802      	cmp	r0, #2
   2635e:	d00c      	beq.n	2637a <_ZN20complex_dynamic_type3app17hd0ecccbb0931b8efE+0xe6>
   26360:	2803      	cmp	r0, #3
   26362:	d105      	bne.n	26370 <_ZN20complex_dynamic_type3app17hd0ecccbb0931b8efE+0xdc>
   26364:	481e      	ldr	r0, [pc, #120]	@ (263e0 <_ZN20complex_dynamic_type3app17hd0ecccbb0931b8efE+0x14c>)
   26366:	2107      	movs	r1, #7
   26368:	2200      	movs	r2, #0
   2636a:	4613      	mov	r3, r2
   2636c:	df03      	svc	3
   2636e:	e004      	b.n	2637a <_ZN20complex_dynamic_type3app17hd0ecccbb0931b8efE+0xe6>
   26370:	481b      	ldr	r0, [pc, #108]	@ (263e0 <_ZN20complex_dynamic_type3app17hd0ecccbb0931b8efE+0x14c>)
   26372:	2107      	movs	r1, #7
   26374:	2200      	movs	r2, #0
   26376:	4613      	mov	r3, r2
   26378:	df04      	svc	4
   2637a:	a805      	add	r0, sp, #20
   2637c:	9901      	ldr	r1, [sp, #4]
   2637e:	7001      	strb	r1, [r0, #0]
   26380:	a817      	add	r0, sp, #92	@ 0x5c
   26382:	7800      	ldrb	r0, [r0, #0]
   26384:	2804      	cmp	r0, #4
   26386:	d007      	beq.n	26398 <_ZN20complex_dynamic_type3app17hd0ecccbb0931b8efE+0x104>
   26388:	2803      	cmp	r0, #3
   2638a:	d11d      	bne.n	263c8 <_ZN20complex_dynamic_type3app17hd0ecccbb0931b8efE+0x134>
   2638c:	4814      	ldr	r0, [pc, #80]	@ (263e0 <_ZN20complex_dynamic_type3app17hd0ecccbb0931b8efE+0x14c>)
   2638e:	2103      	movs	r1, #3
   26390:	2200      	movs	r2, #0
   26392:	4613      	mov	r3, r2
   26394:	df03      	svc	3
   26396:	e004      	b.n	263a2 <_ZN20complex_dynamic_type3app17hd0ecccbb0931b8efE+0x10e>
   26398:	4811      	ldr	r0, [pc, #68]	@ (263e0 <_ZN20complex_dynamic_type3app17hd0ecccbb0931b8efE+0x14c>)
   2639a:	2103      	movs	r1, #3
   2639c:	2200      	movs	r2, #0
   2639e:	4613      	mov	r3, r2
   263a0:	df04      	svc	4
   263a2:	a805      	add	r0, sp, #20
   263a4:	7804      	ldrb	r4, [r0, #0]
   263a6:	1c68      	adds	r0, r5, #1
   263a8:	2256      	movs	r2, #86	@ 0x56
   263aa:	9902      	ldr	r1, [sp, #8]
   263ac:	f004 feaa 	bl	2b104 <__aeabi_memcpy>
   263b0:	702e      	strb	r6, [r5, #0]
   263b2:	2c02      	cmp	r4, #2
   263b4:	d006      	beq.n	263c4 <_ZN20complex_dynamic_type3app17hd0ecccbb0931b8efE+0x130>
   263b6:	480a      	ldr	r0, [pc, #40]	@ (263e0 <_ZN20complex_dynamic_type3app17hd0ecccbb0931b8efE+0x14c>)
   263b8:	2107      	movs	r1, #7
   263ba:	2200      	movs	r2, #0
   263bc:	4613      	mov	r3, r2
   263be:	2c04      	cmp	r4, #4
   263c0:	d10a      	bne.n	263d8 <_ZN20complex_dynamic_type3app17hd0ecccbb0931b8efE+0x144>
   263c2:	df04      	svc	4
   263c4:	b02d      	add	sp, #180	@ 0xb4
   263c6:	bdf0      	pop	{r4, r5, r6, r7, pc}
   263c8:	1c68      	adds	r0, r5, #1
   263ca:	2256      	movs	r2, #86	@ 0x56
   263cc:	9902      	ldr	r1, [sp, #8]
   263ce:	f004 fe99 	bl	2b104 <__aeabi_memcpy>
   263d2:	702e      	strb	r6, [r5, #0]
   263d4:	b02d      	add	sp, #180	@ 0xb4
   263d6:	bdf0      	pop	{r4, r5, r6, r7, pc}
   263d8:	df03      	svc	3
   263da:	b02d      	add	sp, #180	@ 0xb4
   263dc:	bdf0      	pop	{r4, r5, r6, r7, pc}
   263de:	46c0      	nop			@ (mov r8, r8)
   263e0:	00001e50 	.word	0x00001e50

000263e4 <_ZN20complex_dynamic_type3app17hd2340fad7d17523cE>:
   263e4:	b5f0      	push	{r4, r5, r6, r7, lr}
   263e6:	af03      	add	r7, sp, #12
   263e8:	b0a7      	sub	sp, #156	@ 0x9c
   263ea:	9003      	str	r0, [sp, #12]
   263ec:	a804      	add	r0, sp, #16
   263ee:	2402      	movs	r4, #2
   263f0:	7004      	strb	r4, [r0, #0]
   263f2:	1c46      	adds	r6, r0, #1
   263f4:	224f      	movs	r2, #79	@ 0x4f
   263f6:	9202      	str	r2, [sp, #8]
   263f8:	4630      	mov	r0, r6
   263fa:	f004 fe83 	bl	2b104 <__aeabi_memcpy>
   263fe:	ad18      	add	r5, sp, #96	@ 0x60
   26400:	1c68      	adds	r0, r5, #1
   26402:	213b      	movs	r1, #59	@ 0x3b
   26404:	9001      	str	r0, [sp, #4]
   26406:	f004 fcbd 	bl	2ad84 <__aeabi_memclr>
   2640a:	9400      	str	r4, [sp, #0]
   2640c:	702c      	strb	r4, [r5, #0]
   2640e:	4848      	ldr	r0, [pc, #288]	@ (26530 <_ZN20complex_dynamic_type3app17hd2340fad7d17523cE+0x14c>)
   26410:	2108      	movs	r1, #8
   26412:	4632      	mov	r2, r6
   26414:	9b02      	ldr	r3, [sp, #8]
   26416:	df04      	svc	4
   26418:	2802      	cmp	r0, #2
   2641a:	d104      	bne.n	26426 <_ZN20complex_dynamic_type3app17hd2340fad7d17523cE+0x42>
   2641c:	2001      	movs	r0, #1
   2641e:	9a03      	ldr	r2, [sp, #12]
   26420:	7010      	strb	r0, [r2, #0]
   26422:	6051      	str	r1, [r2, #4]
   26424:	e02d      	b.n	26482 <_ZN20complex_dynamic_type3app17hd2340fad7d17523cE+0x9e>
   26426:	9d03      	ldr	r5, [sp, #12]
   26428:	a804      	add	r0, sp, #16
   2642a:	2104      	movs	r1, #4
   2642c:	7001      	strb	r1, [r0, #0]
   2642e:	4840      	ldr	r0, [pc, #256]	@ (26530 <_ZN20complex_dynamic_type3app17hd2340fad7d17523cE+0x14c>)
   26430:	2105      	movs	r1, #5
   26432:	233b      	movs	r3, #59	@ 0x3b
   26434:	9c01      	ldr	r4, [sp, #4]
   26436:	4622      	mov	r2, r4
   26438:	df03      	svc	3
   2643a:	2802      	cmp	r0, #2
   2643c:	d10e      	bne.n	2645c <_ZN20complex_dynamic_type3app17hd2340fad7d17523cE+0x78>
   2643e:	2001      	movs	r0, #1
   26440:	7028      	strb	r0, [r5, #0]
   26442:	6069      	str	r1, [r5, #4]
   26444:	a818      	add	r0, sp, #96	@ 0x60
   26446:	7800      	ldrb	r0, [r0, #0]
   26448:	2802      	cmp	r0, #2
   2644a:	d01a      	beq.n	26482 <_ZN20complex_dynamic_type3app17hd2340fad7d17523cE+0x9e>
   2644c:	2803      	cmp	r0, #3
   2644e:	d013      	beq.n	26478 <_ZN20complex_dynamic_type3app17hd2340fad7d17523cE+0x94>
   26450:	4837      	ldr	r0, [pc, #220]	@ (26530 <_ZN20complex_dynamic_type3app17hd2340fad7d17523cE+0x14c>)
   26452:	2105      	movs	r1, #5
   26454:	2200      	movs	r2, #0
   26456:	4613      	mov	r3, r2
   26458:	df04      	svc	4
   2645a:	e012      	b.n	26482 <_ZN20complex_dynamic_type3app17hd2340fad7d17523cE+0x9e>
   2645c:	a818      	add	r0, sp, #96	@ 0x60
   2645e:	2103      	movs	r1, #3
   26460:	7001      	strb	r1, [r0, #0]
   26462:	4833      	ldr	r0, [pc, #204]	@ (26530 <_ZN20complex_dynamic_type3app17hd2340fad7d17523cE+0x14c>)
   26464:	2108      	movs	r1, #8
   26466:	2205      	movs	r2, #5
   26468:	2600      	movs	r6, #0
   2646a:	4633      	mov	r3, r6
   2646c:	df02      	svc	2
   2646e:	2880      	cmp	r0, #128	@ 0x80
   26470:	d21b      	bcs.n	264aa <_ZN20complex_dynamic_type3app17hd2340fad7d17523cE+0xc6>
   26472:	2001      	movs	r0, #1
   26474:	7028      	strb	r0, [r5, #0]
   26476:	6069      	str	r1, [r5, #4]
   26478:	482d      	ldr	r0, [pc, #180]	@ (26530 <_ZN20complex_dynamic_type3app17hd2340fad7d17523cE+0x14c>)
   2647a:	2105      	movs	r1, #5
   2647c:	2200      	movs	r2, #0
   2647e:	4613      	mov	r3, r2
   26480:	df03      	svc	3
   26482:	a804      	add	r0, sp, #16
   26484:	7800      	ldrb	r0, [r0, #0]
   26486:	2802      	cmp	r0, #2
   26488:	d045      	beq.n	26516 <_ZN20complex_dynamic_type3app17hd2340fad7d17523cE+0x132>
   2648a:	2804      	cmp	r0, #4
   2648c:	d106      	bne.n	2649c <_ZN20complex_dynamic_type3app17hd2340fad7d17523cE+0xb8>
   2648e:	4828      	ldr	r0, [pc, #160]	@ (26530 <_ZN20complex_dynamic_type3app17hd2340fad7d17523cE+0x14c>)
   26490:	2108      	movs	r1, #8
   26492:	2200      	movs	r2, #0
   26494:	4613      	mov	r3, r2
   26496:	df04      	svc	4
   26498:	b027      	add	sp, #156	@ 0x9c
   2649a:	bdf0      	pop	{r4, r5, r6, r7, pc}
   2649c:	4824      	ldr	r0, [pc, #144]	@ (26530 <_ZN20complex_dynamic_type3app17hd2340fad7d17523cE+0x14c>)
   2649e:	2108      	movs	r1, #8
   264a0:	2200      	movs	r2, #0
   264a2:	4613      	mov	r3, r2
   264a4:	df03      	svc	3
   264a6:	b027      	add	sp, #156	@ 0x9c
   264a8:	bdf0      	pop	{r4, r5, r6, r7, pc}
   264aa:	a804      	add	r0, sp, #16
   264ac:	7800      	ldrb	r0, [r0, #0]
   264ae:	2802      	cmp	r0, #2
   264b0:	d00c      	beq.n	264cc <_ZN20complex_dynamic_type3app17hd2340fad7d17523cE+0xe8>
   264b2:	2803      	cmp	r0, #3
   264b4:	d105      	bne.n	264c2 <_ZN20complex_dynamic_type3app17hd2340fad7d17523cE+0xde>
   264b6:	481e      	ldr	r0, [pc, #120]	@ (26530 <_ZN20complex_dynamic_type3app17hd2340fad7d17523cE+0x14c>)
   264b8:	2108      	movs	r1, #8
   264ba:	2200      	movs	r2, #0
   264bc:	4613      	mov	r3, r2
   264be:	df03      	svc	3
   264c0:	e004      	b.n	264cc <_ZN20complex_dynamic_type3app17hd2340fad7d17523cE+0xe8>
   264c2:	481b      	ldr	r0, [pc, #108]	@ (26530 <_ZN20complex_dynamic_type3app17hd2340fad7d17523cE+0x14c>)
   264c4:	2108      	movs	r1, #8
   264c6:	2200      	movs	r2, #0
   264c8:	4613      	mov	r3, r2
   264ca:	df04      	svc	4
   264cc:	a804      	add	r0, sp, #16
   264ce:	9900      	ldr	r1, [sp, #0]
   264d0:	7001      	strb	r1, [r0, #0]
   264d2:	a818      	add	r0, sp, #96	@ 0x60
   264d4:	7800      	ldrb	r0, [r0, #0]
   264d6:	2804      	cmp	r0, #4
   264d8:	d007      	beq.n	264ea <_ZN20complex_dynamic_type3app17hd2340fad7d17523cE+0x106>
   264da:	2803      	cmp	r0, #3
   264dc:	d11d      	bne.n	2651a <_ZN20complex_dynamic_type3app17hd2340fad7d17523cE+0x136>
   264de:	4814      	ldr	r0, [pc, #80]	@ (26530 <_ZN20complex_dynamic_type3app17hd2340fad7d17523cE+0x14c>)
   264e0:	2105      	movs	r1, #5
   264e2:	2200      	movs	r2, #0
   264e4:	4613      	mov	r3, r2
   264e6:	df03      	svc	3
   264e8:	e004      	b.n	264f4 <_ZN20complex_dynamic_type3app17hd2340fad7d17523cE+0x110>
   264ea:	4811      	ldr	r0, [pc, #68]	@ (26530 <_ZN20complex_dynamic_type3app17hd2340fad7d17523cE+0x14c>)
   264ec:	2105      	movs	r1, #5
   264ee:	2200      	movs	r2, #0
   264f0:	4613      	mov	r3, r2
   264f2:	df04      	svc	4
   264f4:	a804      	add	r0, sp, #16
   264f6:	7804      	ldrb	r4, [r0, #0]
   264f8:	1c68      	adds	r0, r5, #1
   264fa:	223b      	movs	r2, #59	@ 0x3b
   264fc:	9901      	ldr	r1, [sp, #4]
   264fe:	f004 fe01 	bl	2b104 <__aeabi_memcpy>
   26502:	702e      	strb	r6, [r5, #0]
   26504:	2c02      	cmp	r4, #2
   26506:	d006      	beq.n	26516 <_ZN20complex_dynamic_type3app17hd2340fad7d17523cE+0x132>
   26508:	4809      	ldr	r0, [pc, #36]	@ (26530 <_ZN20complex_dynamic_type3app17hd2340fad7d17523cE+0x14c>)
   2650a:	2108      	movs	r1, #8
   2650c:	2200      	movs	r2, #0
   2650e:	4613      	mov	r3, r2
   26510:	2c04      	cmp	r4, #4
   26512:	d10a      	bne.n	2652a <_ZN20complex_dynamic_type3app17hd2340fad7d17523cE+0x146>
   26514:	df04      	svc	4
   26516:	b027      	add	sp, #156	@ 0x9c
   26518:	bdf0      	pop	{r4, r5, r6, r7, pc}
   2651a:	1c68      	adds	r0, r5, #1
   2651c:	223b      	movs	r2, #59	@ 0x3b
   2651e:	4621      	mov	r1, r4
   26520:	f004 fdf0 	bl	2b104 <__aeabi_memcpy>
   26524:	702e      	strb	r6, [r5, #0]
   26526:	b027      	add	sp, #156	@ 0x9c
   26528:	bdf0      	pop	{r4, r5, r6, r7, pc}
   2652a:	df03      	svc	3
   2652c:	b027      	add	sp, #156	@ 0x9c
   2652e:	bdf0      	pop	{r4, r5, r6, r7, pc}
   26530:	00000a06 	.word	0x00000a06

00026534 <_ZN20complex_dynamic_type3app17hd2f83a0d75c048f1E>:
   26534:	b5f0      	push	{r4, r5, r6, r7, lr}
   26536:	af03      	add	r7, sp, #12
   26538:	b097      	sub	sp, #92	@ 0x5c
   2653a:	9004      	str	r0, [sp, #16]
   2653c:	a805      	add	r0, sp, #20
   2653e:	2402      	movs	r4, #2
   26540:	7004      	strb	r4, [r0, #0]
   26542:	1c46      	adds	r6, r0, #1
   26544:	2227      	movs	r2, #39	@ 0x27
   26546:	9203      	str	r2, [sp, #12]
   26548:	4630      	mov	r0, r6
   2654a:	f004 fddb 	bl	2b104 <__aeabi_memcpy>
   2654e:	ad0f      	add	r5, sp, #60	@ 0x3c
   26550:	1c68      	adds	r0, r5, #1
   26552:	211e      	movs	r1, #30
   26554:	9002      	str	r0, [sp, #8]
   26556:	f004 fc15 	bl	2ad84 <__aeabi_memclr>
   2655a:	9401      	str	r4, [sp, #4]
   2655c:	702c      	strb	r4, [r5, #0]
   2655e:	4848      	ldr	r0, [pc, #288]	@ (26680 <_ZN20complex_dynamic_type3app17hd2f83a0d75c048f1E+0x14c>)
   26560:	2103      	movs	r1, #3
   26562:	4632      	mov	r2, r6
   26564:	9b03      	ldr	r3, [sp, #12]
   26566:	df04      	svc	4
   26568:	2802      	cmp	r0, #2
   2656a:	d104      	bne.n	26576 <_ZN20complex_dynamic_type3app17hd2f83a0d75c048f1E+0x42>
   2656c:	2001      	movs	r0, #1
   2656e:	9a04      	ldr	r2, [sp, #16]
   26570:	7010      	strb	r0, [r2, #0]
   26572:	6051      	str	r1, [r2, #4]
   26574:	e02c      	b.n	265d0 <_ZN20complex_dynamic_type3app17hd2f83a0d75c048f1E+0x9c>
   26576:	9d04      	ldr	r5, [sp, #16]
   26578:	a805      	add	r0, sp, #20
   2657a:	2104      	movs	r1, #4
   2657c:	7001      	strb	r1, [r0, #0]
   2657e:	4840      	ldr	r0, [pc, #256]	@ (26680 <_ZN20complex_dynamic_type3app17hd2f83a0d75c048f1E+0x14c>)
   26580:	2403      	movs	r4, #3
   26582:	231e      	movs	r3, #30
   26584:	4621      	mov	r1, r4
   26586:	9a02      	ldr	r2, [sp, #8]
   26588:	df03      	svc	3
   2658a:	2802      	cmp	r0, #2
   2658c:	d10e      	bne.n	265ac <_ZN20complex_dynamic_type3app17hd2f83a0d75c048f1E+0x78>
   2658e:	2001      	movs	r0, #1
   26590:	7028      	strb	r0, [r5, #0]
   26592:	6069      	str	r1, [r5, #4]
   26594:	a80f      	add	r0, sp, #60	@ 0x3c
   26596:	7800      	ldrb	r0, [r0, #0]
   26598:	2802      	cmp	r0, #2
   2659a:	d019      	beq.n	265d0 <_ZN20complex_dynamic_type3app17hd2f83a0d75c048f1E+0x9c>
   2659c:	2803      	cmp	r0, #3
   2659e:	d012      	beq.n	265c6 <_ZN20complex_dynamic_type3app17hd2f83a0d75c048f1E+0x92>
   265a0:	4837      	ldr	r0, [pc, #220]	@ (26680 <_ZN20complex_dynamic_type3app17hd2f83a0d75c048f1E+0x14c>)
   265a2:	2103      	movs	r1, #3
   265a4:	2200      	movs	r2, #0
   265a6:	4613      	mov	r3, r2
   265a8:	df04      	svc	4
   265aa:	e011      	b.n	265d0 <_ZN20complex_dynamic_type3app17hd2f83a0d75c048f1E+0x9c>
   265ac:	a80f      	add	r0, sp, #60	@ 0x3c
   265ae:	7004      	strb	r4, [r0, #0]
   265b0:	4833      	ldr	r0, [pc, #204]	@ (26680 <_ZN20complex_dynamic_type3app17hd2f83a0d75c048f1E+0x14c>)
   265b2:	2600      	movs	r6, #0
   265b4:	4621      	mov	r1, r4
   265b6:	4622      	mov	r2, r4
   265b8:	4633      	mov	r3, r6
   265ba:	df02      	svc	2
   265bc:	2880      	cmp	r0, #128	@ 0x80
   265be:	d21b      	bcs.n	265f8 <_ZN20complex_dynamic_type3app17hd2f83a0d75c048f1E+0xc4>
   265c0:	2001      	movs	r0, #1
   265c2:	7028      	strb	r0, [r5, #0]
   265c4:	6069      	str	r1, [r5, #4]
   265c6:	482e      	ldr	r0, [pc, #184]	@ (26680 <_ZN20complex_dynamic_type3app17hd2f83a0d75c048f1E+0x14c>)
   265c8:	2103      	movs	r1, #3
   265ca:	2200      	movs	r2, #0
   265cc:	4613      	mov	r3, r2
   265ce:	df03      	svc	3
   265d0:	a805      	add	r0, sp, #20
   265d2:	7800      	ldrb	r0, [r0, #0]
   265d4:	2802      	cmp	r0, #2
   265d6:	d045      	beq.n	26664 <_ZN20complex_dynamic_type3app17hd2f83a0d75c048f1E+0x130>
   265d8:	2804      	cmp	r0, #4
   265da:	d106      	bne.n	265ea <_ZN20complex_dynamic_type3app17hd2f83a0d75c048f1E+0xb6>
   265dc:	4828      	ldr	r0, [pc, #160]	@ (26680 <_ZN20complex_dynamic_type3app17hd2f83a0d75c048f1E+0x14c>)
   265de:	2103      	movs	r1, #3
   265e0:	2200      	movs	r2, #0
   265e2:	4613      	mov	r3, r2
   265e4:	df04      	svc	4
   265e6:	b017      	add	sp, #92	@ 0x5c
   265e8:	bdf0      	pop	{r4, r5, r6, r7, pc}
   265ea:	4825      	ldr	r0, [pc, #148]	@ (26680 <_ZN20complex_dynamic_type3app17hd2f83a0d75c048f1E+0x14c>)
   265ec:	2103      	movs	r1, #3
   265ee:	2200      	movs	r2, #0
   265f0:	4613      	mov	r3, r2
   265f2:	df03      	svc	3
   265f4:	b017      	add	sp, #92	@ 0x5c
   265f6:	bdf0      	pop	{r4, r5, r6, r7, pc}
   265f8:	a805      	add	r0, sp, #20
   265fa:	7800      	ldrb	r0, [r0, #0]
   265fc:	2802      	cmp	r0, #2
   265fe:	d00c      	beq.n	2661a <_ZN20complex_dynamic_type3app17hd2f83a0d75c048f1E+0xe6>
   26600:	2803      	cmp	r0, #3
   26602:	d105      	bne.n	26610 <_ZN20complex_dynamic_type3app17hd2f83a0d75c048f1E+0xdc>
   26604:	481e      	ldr	r0, [pc, #120]	@ (26680 <_ZN20complex_dynamic_type3app17hd2f83a0d75c048f1E+0x14c>)
   26606:	2103      	movs	r1, #3
   26608:	2200      	movs	r2, #0
   2660a:	4613      	mov	r3, r2
   2660c:	df03      	svc	3
   2660e:	e004      	b.n	2661a <_ZN20complex_dynamic_type3app17hd2f83a0d75c048f1E+0xe6>
   26610:	481b      	ldr	r0, [pc, #108]	@ (26680 <_ZN20complex_dynamic_type3app17hd2f83a0d75c048f1E+0x14c>)
   26612:	2103      	movs	r1, #3
   26614:	2200      	movs	r2, #0
   26616:	4613      	mov	r3, r2
   26618:	df04      	svc	4
   2661a:	a805      	add	r0, sp, #20
   2661c:	9901      	ldr	r1, [sp, #4]
   2661e:	7001      	strb	r1, [r0, #0]
   26620:	a80f      	add	r0, sp, #60	@ 0x3c
   26622:	7800      	ldrb	r0, [r0, #0]
   26624:	2804      	cmp	r0, #4
   26626:	d007      	beq.n	26638 <_ZN20complex_dynamic_type3app17hd2f83a0d75c048f1E+0x104>
   26628:	2803      	cmp	r0, #3
   2662a:	d11d      	bne.n	26668 <_ZN20complex_dynamic_type3app17hd2f83a0d75c048f1E+0x134>
   2662c:	4814      	ldr	r0, [pc, #80]	@ (26680 <_ZN20complex_dynamic_type3app17hd2f83a0d75c048f1E+0x14c>)
   2662e:	2103      	movs	r1, #3
   26630:	2200      	movs	r2, #0
   26632:	4613      	mov	r3, r2
   26634:	df03      	svc	3
   26636:	e004      	b.n	26642 <_ZN20complex_dynamic_type3app17hd2f83a0d75c048f1E+0x10e>
   26638:	4811      	ldr	r0, [pc, #68]	@ (26680 <_ZN20complex_dynamic_type3app17hd2f83a0d75c048f1E+0x14c>)
   2663a:	2103      	movs	r1, #3
   2663c:	2200      	movs	r2, #0
   2663e:	4613      	mov	r3, r2
   26640:	df04      	svc	4
   26642:	a805      	add	r0, sp, #20
   26644:	7804      	ldrb	r4, [r0, #0]
   26646:	1c68      	adds	r0, r5, #1
   26648:	221e      	movs	r2, #30
   2664a:	9902      	ldr	r1, [sp, #8]
   2664c:	f004 fd5a 	bl	2b104 <__aeabi_memcpy>
   26650:	702e      	strb	r6, [r5, #0]
   26652:	2c02      	cmp	r4, #2
   26654:	d006      	beq.n	26664 <_ZN20complex_dynamic_type3app17hd2f83a0d75c048f1E+0x130>
   26656:	480a      	ldr	r0, [pc, #40]	@ (26680 <_ZN20complex_dynamic_type3app17hd2f83a0d75c048f1E+0x14c>)
   26658:	2103      	movs	r1, #3
   2665a:	2200      	movs	r2, #0
   2665c:	4613      	mov	r3, r2
   2665e:	2c04      	cmp	r4, #4
   26660:	d10a      	bne.n	26678 <_ZN20complex_dynamic_type3app17hd2f83a0d75c048f1E+0x144>
   26662:	df04      	svc	4
   26664:	b017      	add	sp, #92	@ 0x5c
   26666:	bdf0      	pop	{r4, r5, r6, r7, pc}
   26668:	1c68      	adds	r0, r5, #1
   2666a:	221e      	movs	r2, #30
   2666c:	9902      	ldr	r1, [sp, #8]
   2666e:	f004 fd49 	bl	2b104 <__aeabi_memcpy>
   26672:	702e      	strb	r6, [r5, #0]
   26674:	b017      	add	sp, #92	@ 0x5c
   26676:	bdf0      	pop	{r4, r5, r6, r7, pc}
   26678:	df03      	svc	3
   2667a:	b017      	add	sp, #92	@ 0x5c
   2667c:	bdf0      	pop	{r4, r5, r6, r7, pc}
   2667e:	46c0      	nop			@ (mov r8, r8)
   26680:	000010e2 	.word	0x000010e2

00026684 <_ZN20complex_dynamic_type3app17hd6ab3f259de903e6E>:
   26684:	b5f0      	push	{r4, r5, r6, r7, lr}
   26686:	af03      	add	r7, sp, #12
   26688:	b0a3      	sub	sp, #140	@ 0x8c
   2668a:	9003      	str	r0, [sp, #12]
   2668c:	a804      	add	r0, sp, #16
   2668e:	2602      	movs	r6, #2
   26690:	7006      	strb	r6, [r0, #0]
   26692:	1c40      	adds	r0, r0, #1
   26694:	9002      	str	r0, [sp, #8]
   26696:	254a      	movs	r5, #74	@ 0x4a
   26698:	462a      	mov	r2, r5
   2669a:	f004 fd33 	bl	2b104 <__aeabi_memcpy>
   2669e:	ac17      	add	r4, sp, #92	@ 0x5c
   266a0:	1c60      	adds	r0, r4, #1
   266a2:	212d      	movs	r1, #45	@ 0x2d
   266a4:	9001      	str	r0, [sp, #4]
   266a6:	f004 fb6d 	bl	2ad84 <__aeabi_memclr>
   266aa:	7026      	strb	r6, [r4, #0]
   266ac:	484a      	ldr	r0, [pc, #296]	@ (267d8 <_ZN20complex_dynamic_type3app17hd6ab3f259de903e6E+0x154>)
   266ae:	4631      	mov	r1, r6
   266b0:	9a02      	ldr	r2, [sp, #8]
   266b2:	462b      	mov	r3, r5
   266b4:	df04      	svc	4
   266b6:	2802      	cmp	r0, #2
   266b8:	d104      	bne.n	266c4 <_ZN20complex_dynamic_type3app17hd6ab3f259de903e6E+0x40>
   266ba:	2001      	movs	r0, #1
   266bc:	9a03      	ldr	r2, [sp, #12]
   266be:	7010      	strb	r0, [r2, #0]
   266c0:	6051      	str	r1, [r2, #4]
   266c2:	e02e      	b.n	26722 <_ZN20complex_dynamic_type3app17hd6ab3f259de903e6E+0x9e>
   266c4:	9d03      	ldr	r5, [sp, #12]
   266c6:	a804      	add	r0, sp, #16
   266c8:	2104      	movs	r1, #4
   266ca:	7001      	strb	r1, [r0, #0]
   266cc:	4842      	ldr	r0, [pc, #264]	@ (267d8 <_ZN20complex_dynamic_type3app17hd6ab3f259de903e6E+0x154>)
   266ce:	2603      	movs	r6, #3
   266d0:	232d      	movs	r3, #45	@ 0x2d
   266d2:	4631      	mov	r1, r6
   266d4:	9c01      	ldr	r4, [sp, #4]
   266d6:	4622      	mov	r2, r4
   266d8:	df03      	svc	3
   266da:	2802      	cmp	r0, #2
   266dc:	d10e      	bne.n	266fc <_ZN20complex_dynamic_type3app17hd6ab3f259de903e6E+0x78>
   266de:	2001      	movs	r0, #1
   266e0:	7028      	strb	r0, [r5, #0]
   266e2:	6069      	str	r1, [r5, #4]
   266e4:	a817      	add	r0, sp, #92	@ 0x5c
   266e6:	7800      	ldrb	r0, [r0, #0]
   266e8:	2802      	cmp	r0, #2
   266ea:	d01a      	beq.n	26722 <_ZN20complex_dynamic_type3app17hd6ab3f259de903e6E+0x9e>
   266ec:	2803      	cmp	r0, #3
   266ee:	d013      	beq.n	26718 <_ZN20complex_dynamic_type3app17hd6ab3f259de903e6E+0x94>
   266f0:	4839      	ldr	r0, [pc, #228]	@ (267d8 <_ZN20complex_dynamic_type3app17hd6ab3f259de903e6E+0x154>)
   266f2:	2103      	movs	r1, #3
   266f4:	2200      	movs	r2, #0
   266f6:	4613      	mov	r3, r2
   266f8:	df04      	svc	4
   266fa:	e012      	b.n	26722 <_ZN20complex_dynamic_type3app17hd6ab3f259de903e6E+0x9e>
   266fc:	a817      	add	r0, sp, #92	@ 0x5c
   266fe:	7006      	strb	r6, [r0, #0]
   26700:	4835      	ldr	r0, [pc, #212]	@ (267d8 <_ZN20complex_dynamic_type3app17hd6ab3f259de903e6E+0x154>)
   26702:	2102      	movs	r1, #2
   26704:	2300      	movs	r3, #0
   26706:	9100      	str	r1, [sp, #0]
   26708:	4632      	mov	r2, r6
   2670a:	9302      	str	r3, [sp, #8]
   2670c:	df02      	svc	2
   2670e:	2880      	cmp	r0, #128	@ 0x80
   26710:	d21b      	bcs.n	2674a <_ZN20complex_dynamic_type3app17hd6ab3f259de903e6E+0xc6>
   26712:	2001      	movs	r0, #1
   26714:	7028      	strb	r0, [r5, #0]
   26716:	6069      	str	r1, [r5, #4]
   26718:	482f      	ldr	r0, [pc, #188]	@ (267d8 <_ZN20complex_dynamic_type3app17hd6ab3f259de903e6E+0x154>)
   2671a:	2103      	movs	r1, #3
   2671c:	2200      	movs	r2, #0
   2671e:	4613      	mov	r3, r2
   26720:	df03      	svc	3
   26722:	a804      	add	r0, sp, #16
   26724:	7800      	ldrb	r0, [r0, #0]
   26726:	2802      	cmp	r0, #2
   26728:	d048      	beq.n	267bc <_ZN20complex_dynamic_type3app17hd6ab3f259de903e6E+0x138>
   2672a:	2804      	cmp	r0, #4
   2672c:	d106      	bne.n	2673c <_ZN20complex_dynamic_type3app17hd6ab3f259de903e6E+0xb8>
   2672e:	482a      	ldr	r0, [pc, #168]	@ (267d8 <_ZN20complex_dynamic_type3app17hd6ab3f259de903e6E+0x154>)
   26730:	2102      	movs	r1, #2
   26732:	2200      	movs	r2, #0
   26734:	4613      	mov	r3, r2
   26736:	df04      	svc	4
   26738:	b023      	add	sp, #140	@ 0x8c
   2673a:	bdf0      	pop	{r4, r5, r6, r7, pc}
   2673c:	4826      	ldr	r0, [pc, #152]	@ (267d8 <_ZN20complex_dynamic_type3app17hd6ab3f259de903e6E+0x154>)
   2673e:	2102      	movs	r1, #2
   26740:	2200      	movs	r2, #0
   26742:	4613      	mov	r3, r2
   26744:	df03      	svc	3
   26746:	b023      	add	sp, #140	@ 0x8c
   26748:	bdf0      	pop	{r4, r5, r6, r7, pc}
   2674a:	a804      	add	r0, sp, #16
   2674c:	7800      	ldrb	r0, [r0, #0]
   2674e:	2802      	cmp	r0, #2
   26750:	d00c      	beq.n	2676c <_ZN20complex_dynamic_type3app17hd6ab3f259de903e6E+0xe8>
   26752:	2803      	cmp	r0, #3
   26754:	d105      	bne.n	26762 <_ZN20complex_dynamic_type3app17hd6ab3f259de903e6E+0xde>
   26756:	4820      	ldr	r0, [pc, #128]	@ (267d8 <_ZN20complex_dynamic_type3app17hd6ab3f259de903e6E+0x154>)
   26758:	2102      	movs	r1, #2
   2675a:	2200      	movs	r2, #0
   2675c:	4613      	mov	r3, r2
   2675e:	df03      	svc	3
   26760:	e004      	b.n	2676c <_ZN20complex_dynamic_type3app17hd6ab3f259de903e6E+0xe8>
   26762:	481d      	ldr	r0, [pc, #116]	@ (267d8 <_ZN20complex_dynamic_type3app17hd6ab3f259de903e6E+0x154>)
   26764:	2102      	movs	r1, #2
   26766:	2200      	movs	r2, #0
   26768:	4613      	mov	r3, r2
   2676a:	df04      	svc	4
   2676c:	a804      	add	r0, sp, #16
   2676e:	9900      	ldr	r1, [sp, #0]
   26770:	7001      	strb	r1, [r0, #0]
   26772:	a817      	add	r0, sp, #92	@ 0x5c
   26774:	7800      	ldrb	r0, [r0, #0]
   26776:	2804      	cmp	r0, #4
   26778:	d008      	beq.n	2678c <_ZN20complex_dynamic_type3app17hd6ab3f259de903e6E+0x108>
   2677a:	2803      	cmp	r0, #3
   2677c:	d120      	bne.n	267c0 <_ZN20complex_dynamic_type3app17hd6ab3f259de903e6E+0x13c>
   2677e:	4626      	mov	r6, r4
   26780:	4815      	ldr	r0, [pc, #84]	@ (267d8 <_ZN20complex_dynamic_type3app17hd6ab3f259de903e6E+0x154>)
   26782:	2103      	movs	r1, #3
   26784:	2200      	movs	r2, #0
   26786:	4613      	mov	r3, r2
   26788:	df03      	svc	3
   2678a:	e005      	b.n	26798 <_ZN20complex_dynamic_type3app17hd6ab3f259de903e6E+0x114>
   2678c:	4626      	mov	r6, r4
   2678e:	4812      	ldr	r0, [pc, #72]	@ (267d8 <_ZN20complex_dynamic_type3app17hd6ab3f259de903e6E+0x154>)
   26790:	2103      	movs	r1, #3
   26792:	2200      	movs	r2, #0
   26794:	4613      	mov	r3, r2
   26796:	df04      	svc	4
   26798:	a804      	add	r0, sp, #16
   2679a:	7804      	ldrb	r4, [r0, #0]
   2679c:	1c68      	adds	r0, r5, #1
   2679e:	222d      	movs	r2, #45	@ 0x2d
   267a0:	4631      	mov	r1, r6
   267a2:	f004 fcaf 	bl	2b104 <__aeabi_memcpy>
   267a6:	9802      	ldr	r0, [sp, #8]
   267a8:	7028      	strb	r0, [r5, #0]
   267aa:	2c02      	cmp	r4, #2
   267ac:	d006      	beq.n	267bc <_ZN20complex_dynamic_type3app17hd6ab3f259de903e6E+0x138>
   267ae:	480a      	ldr	r0, [pc, #40]	@ (267d8 <_ZN20complex_dynamic_type3app17hd6ab3f259de903e6E+0x154>)
   267b0:	2102      	movs	r1, #2
   267b2:	2200      	movs	r2, #0
   267b4:	4613      	mov	r3, r2
   267b6:	2c04      	cmp	r4, #4
   267b8:	d10b      	bne.n	267d2 <_ZN20complex_dynamic_type3app17hd6ab3f259de903e6E+0x14e>
   267ba:	df04      	svc	4
   267bc:	b023      	add	sp, #140	@ 0x8c
   267be:	bdf0      	pop	{r4, r5, r6, r7, pc}
   267c0:	1c68      	adds	r0, r5, #1
   267c2:	222d      	movs	r2, #45	@ 0x2d
   267c4:	4621      	mov	r1, r4
   267c6:	f004 fc9d 	bl	2b104 <__aeabi_memcpy>
   267ca:	9802      	ldr	r0, [sp, #8]
   267cc:	7028      	strb	r0, [r5, #0]
   267ce:	b023      	add	sp, #140	@ 0x8c
   267d0:	bdf0      	pop	{r4, r5, r6, r7, pc}
   267d2:	df03      	svc	3
   267d4:	b023      	add	sp, #140	@ 0x8c
   267d6:	bdf0      	pop	{r4, r5, r6, r7, pc}
   267d8:	00000e3d 	.word	0x00000e3d

000267dc <_ZN20complex_dynamic_type3app17hd70b8582bd8afdc9E>:
   267dc:	b5f0      	push	{r4, r5, r6, r7, lr}
   267de:	af03      	add	r7, sp, #12
   267e0:	b095      	sub	sp, #84	@ 0x54
   267e2:	9004      	str	r0, [sp, #16]
   267e4:	a805      	add	r0, sp, #20
   267e6:	2402      	movs	r4, #2
   267e8:	7004      	strb	r4, [r0, #0]
   267ea:	1c46      	adds	r6, r0, #1
   267ec:	2227      	movs	r2, #39	@ 0x27
   267ee:	9203      	str	r2, [sp, #12]
   267f0:	4630      	mov	r0, r6
   267f2:	f004 fc87 	bl	2b104 <__aeabi_memcpy>
   267f6:	ad0f      	add	r5, sp, #60	@ 0x3c
   267f8:	1c68      	adds	r0, r5, #1
   267fa:	2114      	movs	r1, #20
   267fc:	9002      	str	r0, [sp, #8]
   267fe:	f004 fac1 	bl	2ad84 <__aeabi_memclr>
   26802:	9401      	str	r4, [sp, #4]
   26804:	702c      	strb	r4, [r5, #0]
   26806:	4848      	ldr	r0, [pc, #288]	@ (26928 <_ZN20complex_dynamic_type3app17hd70b8582bd8afdc9E+0x14c>)
   26808:	2106      	movs	r1, #6
   2680a:	4632      	mov	r2, r6
   2680c:	9b03      	ldr	r3, [sp, #12]
   2680e:	df04      	svc	4
   26810:	2802      	cmp	r0, #2
   26812:	d104      	bne.n	2681e <_ZN20complex_dynamic_type3app17hd70b8582bd8afdc9E+0x42>
   26814:	2001      	movs	r0, #1
   26816:	9a04      	ldr	r2, [sp, #16]
   26818:	7010      	strb	r0, [r2, #0]
   2681a:	6051      	str	r1, [r2, #4]
   2681c:	e02d      	b.n	2687a <_ZN20complex_dynamic_type3app17hd70b8582bd8afdc9E+0x9e>
   2681e:	9d04      	ldr	r5, [sp, #16]
   26820:	a805      	add	r0, sp, #20
   26822:	2104      	movs	r1, #4
   26824:	7001      	strb	r1, [r0, #0]
   26826:	4840      	ldr	r0, [pc, #256]	@ (26928 <_ZN20complex_dynamic_type3app17hd70b8582bd8afdc9E+0x14c>)
   26828:	2105      	movs	r1, #5
   2682a:	2314      	movs	r3, #20
   2682c:	9c02      	ldr	r4, [sp, #8]
   2682e:	4622      	mov	r2, r4
   26830:	df03      	svc	3
   26832:	2802      	cmp	r0, #2
   26834:	d10e      	bne.n	26854 <_ZN20complex_dynamic_type3app17hd70b8582bd8afdc9E+0x78>
   26836:	2001      	movs	r0, #1
   26838:	7028      	strb	r0, [r5, #0]
   2683a:	6069      	str	r1, [r5, #4]
   2683c:	a80f      	add	r0, sp, #60	@ 0x3c
   2683e:	7800      	ldrb	r0, [r0, #0]
   26840:	2802      	cmp	r0, #2
   26842:	d01a      	beq.n	2687a <_ZN20complex_dynamic_type3app17hd70b8582bd8afdc9E+0x9e>
   26844:	2803      	cmp	r0, #3
   26846:	d013      	beq.n	26870 <_ZN20complex_dynamic_type3app17hd70b8582bd8afdc9E+0x94>
   26848:	4837      	ldr	r0, [pc, #220]	@ (26928 <_ZN20complex_dynamic_type3app17hd70b8582bd8afdc9E+0x14c>)
   2684a:	2105      	movs	r1, #5
   2684c:	2200      	movs	r2, #0
   2684e:	4613      	mov	r3, r2
   26850:	df04      	svc	4
   26852:	e012      	b.n	2687a <_ZN20complex_dynamic_type3app17hd70b8582bd8afdc9E+0x9e>
   26854:	a80f      	add	r0, sp, #60	@ 0x3c
   26856:	2103      	movs	r1, #3
   26858:	7001      	strb	r1, [r0, #0]
   2685a:	4833      	ldr	r0, [pc, #204]	@ (26928 <_ZN20complex_dynamic_type3app17hd70b8582bd8afdc9E+0x14c>)
   2685c:	2106      	movs	r1, #6
   2685e:	2205      	movs	r2, #5
   26860:	2600      	movs	r6, #0
   26862:	4633      	mov	r3, r6
   26864:	df02      	svc	2
   26866:	2880      	cmp	r0, #128	@ 0x80
   26868:	d21b      	bcs.n	268a2 <_ZN20complex_dynamic_type3app17hd70b8582bd8afdc9E+0xc6>
   2686a:	2001      	movs	r0, #1
   2686c:	7028      	strb	r0, [r5, #0]
   2686e:	6069      	str	r1, [r5, #4]
   26870:	482d      	ldr	r0, [pc, #180]	@ (26928 <_ZN20complex_dynamic_type3app17hd70b8582bd8afdc9E+0x14c>)
   26872:	2105      	movs	r1, #5
   26874:	2200      	movs	r2, #0
   26876:	4613      	mov	r3, r2
   26878:	df03      	svc	3
   2687a:	a805      	add	r0, sp, #20
   2687c:	7800      	ldrb	r0, [r0, #0]
   2687e:	2802      	cmp	r0, #2
   26880:	d045      	beq.n	2690e <_ZN20complex_dynamic_type3app17hd70b8582bd8afdc9E+0x132>
   26882:	2804      	cmp	r0, #4
   26884:	d106      	bne.n	26894 <_ZN20complex_dynamic_type3app17hd70b8582bd8afdc9E+0xb8>
   26886:	4828      	ldr	r0, [pc, #160]	@ (26928 <_ZN20complex_dynamic_type3app17hd70b8582bd8afdc9E+0x14c>)
   26888:	2106      	movs	r1, #6
   2688a:	2200      	movs	r2, #0
   2688c:	4613      	mov	r3, r2
   2688e:	df04      	svc	4
   26890:	b015      	add	sp, #84	@ 0x54
   26892:	bdf0      	pop	{r4, r5, r6, r7, pc}
   26894:	4824      	ldr	r0, [pc, #144]	@ (26928 <_ZN20complex_dynamic_type3app17hd70b8582bd8afdc9E+0x14c>)
   26896:	2106      	movs	r1, #6
   26898:	2200      	movs	r2, #0
   2689a:	4613      	mov	r3, r2
   2689c:	df03      	svc	3
   2689e:	b015      	add	sp, #84	@ 0x54
   268a0:	bdf0      	pop	{r4, r5, r6, r7, pc}
   268a2:	a805      	add	r0, sp, #20
   268a4:	7800      	ldrb	r0, [r0, #0]
   268a6:	2802      	cmp	r0, #2
   268a8:	d00c      	beq.n	268c4 <_ZN20complex_dynamic_type3app17hd70b8582bd8afdc9E+0xe8>
   268aa:	2803      	cmp	r0, #3
   268ac:	d105      	bne.n	268ba <_ZN20complex_dynamic_type3app17hd70b8582bd8afdc9E+0xde>
   268ae:	481e      	ldr	r0, [pc, #120]	@ (26928 <_ZN20complex_dynamic_type3app17hd70b8582bd8afdc9E+0x14c>)
   268b0:	2106      	movs	r1, #6
   268b2:	2200      	movs	r2, #0
   268b4:	4613      	mov	r3, r2
   268b6:	df03      	svc	3
   268b8:	e004      	b.n	268c4 <_ZN20complex_dynamic_type3app17hd70b8582bd8afdc9E+0xe8>
   268ba:	481b      	ldr	r0, [pc, #108]	@ (26928 <_ZN20complex_dynamic_type3app17hd70b8582bd8afdc9E+0x14c>)
   268bc:	2106      	movs	r1, #6
   268be:	2200      	movs	r2, #0
   268c0:	4613      	mov	r3, r2
   268c2:	df04      	svc	4
   268c4:	a805      	add	r0, sp, #20
   268c6:	9901      	ldr	r1, [sp, #4]
   268c8:	7001      	strb	r1, [r0, #0]
   268ca:	a80f      	add	r0, sp, #60	@ 0x3c
   268cc:	7800      	ldrb	r0, [r0, #0]
   268ce:	2804      	cmp	r0, #4
   268d0:	d007      	beq.n	268e2 <_ZN20complex_dynamic_type3app17hd70b8582bd8afdc9E+0x106>
   268d2:	2803      	cmp	r0, #3
   268d4:	d11d      	bne.n	26912 <_ZN20complex_dynamic_type3app17hd70b8582bd8afdc9E+0x136>
   268d6:	4814      	ldr	r0, [pc, #80]	@ (26928 <_ZN20complex_dynamic_type3app17hd70b8582bd8afdc9E+0x14c>)
   268d8:	2105      	movs	r1, #5
   268da:	2200      	movs	r2, #0
   268dc:	4613      	mov	r3, r2
   268de:	df03      	svc	3
   268e0:	e004      	b.n	268ec <_ZN20complex_dynamic_type3app17hd70b8582bd8afdc9E+0x110>
   268e2:	4811      	ldr	r0, [pc, #68]	@ (26928 <_ZN20complex_dynamic_type3app17hd70b8582bd8afdc9E+0x14c>)
   268e4:	2105      	movs	r1, #5
   268e6:	2200      	movs	r2, #0
   268e8:	4613      	mov	r3, r2
   268ea:	df04      	svc	4
   268ec:	a805      	add	r0, sp, #20
   268ee:	7804      	ldrb	r4, [r0, #0]
   268f0:	1c68      	adds	r0, r5, #1
   268f2:	2214      	movs	r2, #20
   268f4:	9902      	ldr	r1, [sp, #8]
   268f6:	f004 fc05 	bl	2b104 <__aeabi_memcpy>
   268fa:	702e      	strb	r6, [r5, #0]
   268fc:	2c02      	cmp	r4, #2
   268fe:	d006      	beq.n	2690e <_ZN20complex_dynamic_type3app17hd70b8582bd8afdc9E+0x132>
   26900:	4809      	ldr	r0, [pc, #36]	@ (26928 <_ZN20complex_dynamic_type3app17hd70b8582bd8afdc9E+0x14c>)
   26902:	2106      	movs	r1, #6
   26904:	2200      	movs	r2, #0
   26906:	4613      	mov	r3, r2
   26908:	2c04      	cmp	r4, #4
   2690a:	d10a      	bne.n	26922 <_ZN20complex_dynamic_type3app17hd70b8582bd8afdc9E+0x146>
   2690c:	df04      	svc	4
   2690e:	b015      	add	sp, #84	@ 0x54
   26910:	bdf0      	pop	{r4, r5, r6, r7, pc}
   26912:	1c68      	adds	r0, r5, #1
   26914:	2214      	movs	r2, #20
   26916:	4621      	mov	r1, r4
   26918:	f004 fbf4 	bl	2b104 <__aeabi_memcpy>
   2691c:	702e      	strb	r6, [r5, #0]
   2691e:	b015      	add	sp, #84	@ 0x54
   26920:	bdf0      	pop	{r4, r5, r6, r7, pc}
   26922:	df03      	svc	3
   26924:	b015      	add	sp, #84	@ 0x54
   26926:	bdf0      	pop	{r4, r5, r6, r7, pc}
   26928:	000022c9 	.word	0x000022c9

0002692c <_ZN20complex_dynamic_type3app17hd871d840a0b17bd7E>:
   2692c:	b5f0      	push	{r4, r5, r6, r7, lr}
   2692e:	af03      	add	r7, sp, #12
   26930:	b09f      	sub	sp, #124	@ 0x7c
   26932:	9004      	str	r0, [sp, #16]
   26934:	a805      	add	r0, sp, #20
   26936:	2402      	movs	r4, #2
   26938:	7004      	strb	r4, [r0, #0]
   2693a:	1c40      	adds	r0, r0, #1
   2693c:	9003      	str	r0, [sp, #12]
   2693e:	2532      	movs	r5, #50	@ 0x32
   26940:	462a      	mov	r2, r5
   26942:	f004 fbdf 	bl	2b104 <__aeabi_memcpy>
   26946:	ae12      	add	r6, sp, #72	@ 0x48
   26948:	1c70      	adds	r0, r6, #1
   2694a:	9002      	str	r0, [sp, #8]
   2694c:	4629      	mov	r1, r5
   2694e:	f004 fa19 	bl	2ad84 <__aeabi_memclr>
   26952:	9401      	str	r4, [sp, #4]
   26954:	7034      	strb	r4, [r6, #0]
   26956:	4848      	ldr	r0, [pc, #288]	@ (26a78 <_ZN20complex_dynamic_type3app17hd871d840a0b17bd7E+0x14c>)
   26958:	2603      	movs	r6, #3
   2695a:	4631      	mov	r1, r6
   2695c:	9a03      	ldr	r2, [sp, #12]
   2695e:	462b      	mov	r3, r5
   26960:	df04      	svc	4
   26962:	2802      	cmp	r0, #2
   26964:	d104      	bne.n	26970 <_ZN20complex_dynamic_type3app17hd871d840a0b17bd7E+0x44>
   26966:	2001      	movs	r0, #1
   26968:	9a04      	ldr	r2, [sp, #16]
   2696a:	7010      	strb	r0, [r2, #0]
   2696c:	6051      	str	r1, [r2, #4]
   2696e:	e02c      	b.n	269ca <_ZN20complex_dynamic_type3app17hd871d840a0b17bd7E+0x9e>
   26970:	9d04      	ldr	r5, [sp, #16]
   26972:	a805      	add	r0, sp, #20
   26974:	2104      	movs	r1, #4
   26976:	7001      	strb	r1, [r0, #0]
   26978:	483f      	ldr	r0, [pc, #252]	@ (26a78 <_ZN20complex_dynamic_type3app17hd871d840a0b17bd7E+0x14c>)
   2697a:	2401      	movs	r4, #1
   2697c:	2332      	movs	r3, #50	@ 0x32
   2697e:	4621      	mov	r1, r4
   26980:	9a02      	ldr	r2, [sp, #8]
   26982:	df03      	svc	3
   26984:	2802      	cmp	r0, #2
   26986:	d10d      	bne.n	269a4 <_ZN20complex_dynamic_type3app17hd871d840a0b17bd7E+0x78>
   26988:	702c      	strb	r4, [r5, #0]
   2698a:	6069      	str	r1, [r5, #4]
   2698c:	a812      	add	r0, sp, #72	@ 0x48
   2698e:	7800      	ldrb	r0, [r0, #0]
   26990:	2802      	cmp	r0, #2
   26992:	d01a      	beq.n	269ca <_ZN20complex_dynamic_type3app17hd871d840a0b17bd7E+0x9e>
   26994:	2803      	cmp	r0, #3
   26996:	d013      	beq.n	269c0 <_ZN20complex_dynamic_type3app17hd871d840a0b17bd7E+0x94>
   26998:	4837      	ldr	r0, [pc, #220]	@ (26a78 <_ZN20complex_dynamic_type3app17hd871d840a0b17bd7E+0x14c>)
   2699a:	2101      	movs	r1, #1
   2699c:	2200      	movs	r2, #0
   2699e:	4613      	mov	r3, r2
   269a0:	df04      	svc	4
   269a2:	e012      	b.n	269ca <_ZN20complex_dynamic_type3app17hd871d840a0b17bd7E+0x9e>
   269a4:	a812      	add	r0, sp, #72	@ 0x48
   269a6:	7006      	strb	r6, [r0, #0]
   269a8:	4833      	ldr	r0, [pc, #204]	@ (26a78 <_ZN20complex_dynamic_type3app17hd871d840a0b17bd7E+0x14c>)
   269aa:	2401      	movs	r4, #1
   269ac:	2200      	movs	r2, #0
   269ae:	4631      	mov	r1, r6
   269b0:	4616      	mov	r6, r2
   269b2:	4622      	mov	r2, r4
   269b4:	4633      	mov	r3, r6
   269b6:	df02      	svc	2
   269b8:	2880      	cmp	r0, #128	@ 0x80
   269ba:	d21a      	bcs.n	269f2 <_ZN20complex_dynamic_type3app17hd871d840a0b17bd7E+0xc6>
   269bc:	702c      	strb	r4, [r5, #0]
   269be:	6069      	str	r1, [r5, #4]
   269c0:	482d      	ldr	r0, [pc, #180]	@ (26a78 <_ZN20complex_dynamic_type3app17hd871d840a0b17bd7E+0x14c>)
   269c2:	2101      	movs	r1, #1
   269c4:	2200      	movs	r2, #0
   269c6:	4613      	mov	r3, r2
   269c8:	df03      	svc	3
   269ca:	a805      	add	r0, sp, #20
   269cc:	7800      	ldrb	r0, [r0, #0]
   269ce:	2802      	cmp	r0, #2
   269d0:	d045      	beq.n	26a5e <_ZN20complex_dynamic_type3app17hd871d840a0b17bd7E+0x132>
   269d2:	2804      	cmp	r0, #4
   269d4:	d106      	bne.n	269e4 <_ZN20complex_dynamic_type3app17hd871d840a0b17bd7E+0xb8>
   269d6:	4828      	ldr	r0, [pc, #160]	@ (26a78 <_ZN20complex_dynamic_type3app17hd871d840a0b17bd7E+0x14c>)
   269d8:	2103      	movs	r1, #3
   269da:	2200      	movs	r2, #0
   269dc:	4613      	mov	r3, r2
   269de:	df04      	svc	4
   269e0:	b01f      	add	sp, #124	@ 0x7c
   269e2:	bdf0      	pop	{r4, r5, r6, r7, pc}
   269e4:	4824      	ldr	r0, [pc, #144]	@ (26a78 <_ZN20complex_dynamic_type3app17hd871d840a0b17bd7E+0x14c>)
   269e6:	2103      	movs	r1, #3
   269e8:	2200      	movs	r2, #0
   269ea:	4613      	mov	r3, r2
   269ec:	df03      	svc	3
   269ee:	b01f      	add	sp, #124	@ 0x7c
   269f0:	bdf0      	pop	{r4, r5, r6, r7, pc}
   269f2:	a805      	add	r0, sp, #20
   269f4:	7800      	ldrb	r0, [r0, #0]
   269f6:	2802      	cmp	r0, #2
   269f8:	d00c      	beq.n	26a14 <_ZN20complex_dynamic_type3app17hd871d840a0b17bd7E+0xe8>
   269fa:	2803      	cmp	r0, #3
   269fc:	d105      	bne.n	26a0a <_ZN20complex_dynamic_type3app17hd871d840a0b17bd7E+0xde>
   269fe:	481e      	ldr	r0, [pc, #120]	@ (26a78 <_ZN20complex_dynamic_type3app17hd871d840a0b17bd7E+0x14c>)
   26a00:	2103      	movs	r1, #3
   26a02:	2200      	movs	r2, #0
   26a04:	4613      	mov	r3, r2
   26a06:	df03      	svc	3
   26a08:	e004      	b.n	26a14 <_ZN20complex_dynamic_type3app17hd871d840a0b17bd7E+0xe8>
   26a0a:	481b      	ldr	r0, [pc, #108]	@ (26a78 <_ZN20complex_dynamic_type3app17hd871d840a0b17bd7E+0x14c>)
   26a0c:	2103      	movs	r1, #3
   26a0e:	2200      	movs	r2, #0
   26a10:	4613      	mov	r3, r2
   26a12:	df04      	svc	4
   26a14:	a805      	add	r0, sp, #20
   26a16:	9901      	ldr	r1, [sp, #4]
   26a18:	7001      	strb	r1, [r0, #0]
   26a1a:	a812      	add	r0, sp, #72	@ 0x48
   26a1c:	7800      	ldrb	r0, [r0, #0]
   26a1e:	2804      	cmp	r0, #4
   26a20:	d007      	beq.n	26a32 <_ZN20complex_dynamic_type3app17hd871d840a0b17bd7E+0x106>
   26a22:	2803      	cmp	r0, #3
   26a24:	d11d      	bne.n	26a62 <_ZN20complex_dynamic_type3app17hd871d840a0b17bd7E+0x136>
   26a26:	4814      	ldr	r0, [pc, #80]	@ (26a78 <_ZN20complex_dynamic_type3app17hd871d840a0b17bd7E+0x14c>)
   26a28:	2101      	movs	r1, #1
   26a2a:	2200      	movs	r2, #0
   26a2c:	4613      	mov	r3, r2
   26a2e:	df03      	svc	3
   26a30:	e004      	b.n	26a3c <_ZN20complex_dynamic_type3app17hd871d840a0b17bd7E+0x110>
   26a32:	4811      	ldr	r0, [pc, #68]	@ (26a78 <_ZN20complex_dynamic_type3app17hd871d840a0b17bd7E+0x14c>)
   26a34:	2101      	movs	r1, #1
   26a36:	2200      	movs	r2, #0
   26a38:	4613      	mov	r3, r2
   26a3a:	df04      	svc	4
   26a3c:	a805      	add	r0, sp, #20
   26a3e:	7804      	ldrb	r4, [r0, #0]
   26a40:	1c68      	adds	r0, r5, #1
   26a42:	2232      	movs	r2, #50	@ 0x32
   26a44:	9902      	ldr	r1, [sp, #8]
   26a46:	f004 fb5d 	bl	2b104 <__aeabi_memcpy>
   26a4a:	702e      	strb	r6, [r5, #0]
   26a4c:	2c02      	cmp	r4, #2
   26a4e:	d006      	beq.n	26a5e <_ZN20complex_dynamic_type3app17hd871d840a0b17bd7E+0x132>
   26a50:	4809      	ldr	r0, [pc, #36]	@ (26a78 <_ZN20complex_dynamic_type3app17hd871d840a0b17bd7E+0x14c>)
   26a52:	2103      	movs	r1, #3
   26a54:	2200      	movs	r2, #0
   26a56:	4613      	mov	r3, r2
   26a58:	2c04      	cmp	r4, #4
   26a5a:	d10a      	bne.n	26a72 <_ZN20complex_dynamic_type3app17hd871d840a0b17bd7E+0x146>
   26a5c:	df04      	svc	4
   26a5e:	b01f      	add	sp, #124	@ 0x7c
   26a60:	bdf0      	pop	{r4, r5, r6, r7, pc}
   26a62:	9902      	ldr	r1, [sp, #8]
   26a64:	1c68      	adds	r0, r5, #1
   26a66:	2232      	movs	r2, #50	@ 0x32
   26a68:	f004 fb4c 	bl	2b104 <__aeabi_memcpy>
   26a6c:	702e      	strb	r6, [r5, #0]
   26a6e:	b01f      	add	sp, #124	@ 0x7c
   26a70:	bdf0      	pop	{r4, r5, r6, r7, pc}
   26a72:	df03      	svc	3
   26a74:	b01f      	add	sp, #124	@ 0x7c
   26a76:	bdf0      	pop	{r4, r5, r6, r7, pc}
   26a78:	00001f07 	.word	0x00001f07

00026a7c <_ZN20complex_dynamic_type3app17hd8fbac15ddee410cE>:
   26a7c:	b5f0      	push	{r4, r5, r6, r7, lr}
   26a7e:	af03      	add	r7, sp, #12
   26a80:	b0a9      	sub	sp, #164	@ 0xa4
   26a82:	9004      	str	r0, [sp, #16]
   26a84:	a805      	add	r0, sp, #20
   26a86:	2402      	movs	r4, #2
   26a88:	7004      	strb	r4, [r0, #0]
   26a8a:	1c46      	adds	r6, r0, #1
   26a8c:	224d      	movs	r2, #77	@ 0x4d
   26a8e:	9203      	str	r2, [sp, #12]
   26a90:	4630      	mov	r0, r6
   26a92:	f004 fb37 	bl	2b104 <__aeabi_memcpy>
   26a96:	ad19      	add	r5, sp, #100	@ 0x64
   26a98:	1c68      	adds	r0, r5, #1
   26a9a:	213c      	movs	r1, #60	@ 0x3c
   26a9c:	9002      	str	r0, [sp, #8]
   26a9e:	f004 f971 	bl	2ad84 <__aeabi_memclr>
   26aa2:	9401      	str	r4, [sp, #4]
   26aa4:	702c      	strb	r4, [r5, #0]
   26aa6:	4848      	ldr	r0, [pc, #288]	@ (26bc8 <_ZN20complex_dynamic_type3app17hd8fbac15ddee410cE+0x14c>)
   26aa8:	2504      	movs	r5, #4
   26aaa:	4629      	mov	r1, r5
   26aac:	4632      	mov	r2, r6
   26aae:	9b03      	ldr	r3, [sp, #12]
   26ab0:	df04      	svc	4
   26ab2:	2802      	cmp	r0, #2
   26ab4:	d104      	bne.n	26ac0 <_ZN20complex_dynamic_type3app17hd8fbac15ddee410cE+0x44>
   26ab6:	2001      	movs	r0, #1
   26ab8:	9a04      	ldr	r2, [sp, #16]
   26aba:	7010      	strb	r0, [r2, #0]
   26abc:	6051      	str	r1, [r2, #4]
   26abe:	e02c      	b.n	26b1a <_ZN20complex_dynamic_type3app17hd8fbac15ddee410cE+0x9e>
   26ac0:	9c04      	ldr	r4, [sp, #16]
   26ac2:	a805      	add	r0, sp, #20
   26ac4:	7005      	strb	r5, [r0, #0]
   26ac6:	4840      	ldr	r0, [pc, #256]	@ (26bc8 <_ZN20complex_dynamic_type3app17hd8fbac15ddee410cE+0x14c>)
   26ac8:	2109      	movs	r1, #9
   26aca:	233c      	movs	r3, #60	@ 0x3c
   26acc:	9a02      	ldr	r2, [sp, #8]
   26ace:	df03      	svc	3
   26ad0:	2802      	cmp	r0, #2
   26ad2:	d10e      	bne.n	26af2 <_ZN20complex_dynamic_type3app17hd8fbac15ddee410cE+0x76>
   26ad4:	2001      	movs	r0, #1
   26ad6:	7020      	strb	r0, [r4, #0]
   26ad8:	6061      	str	r1, [r4, #4]
   26ada:	a819      	add	r0, sp, #100	@ 0x64
   26adc:	7800      	ldrb	r0, [r0, #0]
   26ade:	2802      	cmp	r0, #2
   26ae0:	d01b      	beq.n	26b1a <_ZN20complex_dynamic_type3app17hd8fbac15ddee410cE+0x9e>
   26ae2:	2803      	cmp	r0, #3
   26ae4:	d014      	beq.n	26b10 <_ZN20complex_dynamic_type3app17hd8fbac15ddee410cE+0x94>
   26ae6:	4838      	ldr	r0, [pc, #224]	@ (26bc8 <_ZN20complex_dynamic_type3app17hd8fbac15ddee410cE+0x14c>)
   26ae8:	2109      	movs	r1, #9
   26aea:	2200      	movs	r2, #0
   26aec:	4613      	mov	r3, r2
   26aee:	df04      	svc	4
   26af0:	e013      	b.n	26b1a <_ZN20complex_dynamic_type3app17hd8fbac15ddee410cE+0x9e>
   26af2:	a819      	add	r0, sp, #100	@ 0x64
   26af4:	2103      	movs	r1, #3
   26af6:	7001      	strb	r1, [r0, #0]
   26af8:	4833      	ldr	r0, [pc, #204]	@ (26bc8 <_ZN20complex_dynamic_type3app17hd8fbac15ddee410cE+0x14c>)
   26afa:	2104      	movs	r1, #4
   26afc:	2209      	movs	r2, #9
   26afe:	2600      	movs	r6, #0
   26b00:	4633      	mov	r3, r6
   26b02:	df02      	svc	2
   26b04:	2880      	cmp	r0, #128	@ 0x80
   26b06:	4625      	mov	r5, r4
   26b08:	d21b      	bcs.n	26b42 <_ZN20complex_dynamic_type3app17hd8fbac15ddee410cE+0xc6>
   26b0a:	2001      	movs	r0, #1
   26b0c:	7028      	strb	r0, [r5, #0]
   26b0e:	6069      	str	r1, [r5, #4]
   26b10:	482d      	ldr	r0, [pc, #180]	@ (26bc8 <_ZN20complex_dynamic_type3app17hd8fbac15ddee410cE+0x14c>)
   26b12:	2109      	movs	r1, #9
   26b14:	2200      	movs	r2, #0
   26b16:	4613      	mov	r3, r2
   26b18:	df03      	svc	3
   26b1a:	a805      	add	r0, sp, #20
   26b1c:	7800      	ldrb	r0, [r0, #0]
   26b1e:	2802      	cmp	r0, #2
   26b20:	d045      	beq.n	26bae <_ZN20complex_dynamic_type3app17hd8fbac15ddee410cE+0x132>
   26b22:	2804      	cmp	r0, #4
   26b24:	d106      	bne.n	26b34 <_ZN20complex_dynamic_type3app17hd8fbac15ddee410cE+0xb8>
   26b26:	4828      	ldr	r0, [pc, #160]	@ (26bc8 <_ZN20complex_dynamic_type3app17hd8fbac15ddee410cE+0x14c>)
   26b28:	2104      	movs	r1, #4
   26b2a:	2200      	movs	r2, #0
   26b2c:	4613      	mov	r3, r2
   26b2e:	df04      	svc	4
   26b30:	b029      	add	sp, #164	@ 0xa4
   26b32:	bdf0      	pop	{r4, r5, r6, r7, pc}
   26b34:	4824      	ldr	r0, [pc, #144]	@ (26bc8 <_ZN20complex_dynamic_type3app17hd8fbac15ddee410cE+0x14c>)
   26b36:	2104      	movs	r1, #4
   26b38:	2200      	movs	r2, #0
   26b3a:	4613      	mov	r3, r2
   26b3c:	df03      	svc	3
   26b3e:	b029      	add	sp, #164	@ 0xa4
   26b40:	bdf0      	pop	{r4, r5, r6, r7, pc}
   26b42:	a805      	add	r0, sp, #20
   26b44:	7800      	ldrb	r0, [r0, #0]
   26b46:	2802      	cmp	r0, #2
   26b48:	d00c      	beq.n	26b64 <_ZN20complex_dynamic_type3app17hd8fbac15ddee410cE+0xe8>
   26b4a:	2803      	cmp	r0, #3
   26b4c:	d105      	bne.n	26b5a <_ZN20complex_dynamic_type3app17hd8fbac15ddee410cE+0xde>
   26b4e:	481e      	ldr	r0, [pc, #120]	@ (26bc8 <_ZN20complex_dynamic_type3app17hd8fbac15ddee410cE+0x14c>)
   26b50:	2104      	movs	r1, #4
   26b52:	2200      	movs	r2, #0
   26b54:	4613      	mov	r3, r2
   26b56:	df03      	svc	3
   26b58:	e004      	b.n	26b64 <_ZN20complex_dynamic_type3app17hd8fbac15ddee410cE+0xe8>
   26b5a:	481b      	ldr	r0, [pc, #108]	@ (26bc8 <_ZN20complex_dynamic_type3app17hd8fbac15ddee410cE+0x14c>)
   26b5c:	2104      	movs	r1, #4
   26b5e:	2200      	movs	r2, #0
   26b60:	4613      	mov	r3, r2
   26b62:	df04      	svc	4
   26b64:	a805      	add	r0, sp, #20
   26b66:	9901      	ldr	r1, [sp, #4]
   26b68:	7001      	strb	r1, [r0, #0]
   26b6a:	a819      	add	r0, sp, #100	@ 0x64
   26b6c:	7800      	ldrb	r0, [r0, #0]
   26b6e:	2804      	cmp	r0, #4
   26b70:	d007      	beq.n	26b82 <_ZN20complex_dynamic_type3app17hd8fbac15ddee410cE+0x106>
   26b72:	2803      	cmp	r0, #3
   26b74:	d11d      	bne.n	26bb2 <_ZN20complex_dynamic_type3app17hd8fbac15ddee410cE+0x136>
   26b76:	4814      	ldr	r0, [pc, #80]	@ (26bc8 <_ZN20complex_dynamic_type3app17hd8fbac15ddee410cE+0x14c>)
   26b78:	2109      	movs	r1, #9
   26b7a:	2200      	movs	r2, #0
   26b7c:	4613      	mov	r3, r2
   26b7e:	df03      	svc	3
   26b80:	e004      	b.n	26b8c <_ZN20complex_dynamic_type3app17hd8fbac15ddee410cE+0x110>
   26b82:	4811      	ldr	r0, [pc, #68]	@ (26bc8 <_ZN20complex_dynamic_type3app17hd8fbac15ddee410cE+0x14c>)
   26b84:	2109      	movs	r1, #9
   26b86:	2200      	movs	r2, #0
   26b88:	4613      	mov	r3, r2
   26b8a:	df04      	svc	4
   26b8c:	a805      	add	r0, sp, #20
   26b8e:	7804      	ldrb	r4, [r0, #0]
   26b90:	1c68      	adds	r0, r5, #1
   26b92:	223c      	movs	r2, #60	@ 0x3c
   26b94:	9902      	ldr	r1, [sp, #8]
   26b96:	f004 fab5 	bl	2b104 <__aeabi_memcpy>
   26b9a:	702e      	strb	r6, [r5, #0]
   26b9c:	2c02      	cmp	r4, #2
   26b9e:	d006      	beq.n	26bae <_ZN20complex_dynamic_type3app17hd8fbac15ddee410cE+0x132>
   26ba0:	4809      	ldr	r0, [pc, #36]	@ (26bc8 <_ZN20complex_dynamic_type3app17hd8fbac15ddee410cE+0x14c>)
   26ba2:	2104      	movs	r1, #4
   26ba4:	2200      	movs	r2, #0
   26ba6:	4613      	mov	r3, r2
   26ba8:	2c04      	cmp	r4, #4
   26baa:	d10a      	bne.n	26bc2 <_ZN20complex_dynamic_type3app17hd8fbac15ddee410cE+0x146>
   26bac:	df04      	svc	4
   26bae:	b029      	add	sp, #164	@ 0xa4
   26bb0:	bdf0      	pop	{r4, r5, r6, r7, pc}
   26bb2:	1c68      	adds	r0, r5, #1
   26bb4:	223c      	movs	r2, #60	@ 0x3c
   26bb6:	9902      	ldr	r1, [sp, #8]
   26bb8:	f004 faa4 	bl	2b104 <__aeabi_memcpy>
   26bbc:	702e      	strb	r6, [r5, #0]
   26bbe:	b029      	add	sp, #164	@ 0xa4
   26bc0:	bdf0      	pop	{r4, r5, r6, r7, pc}
   26bc2:	df03      	svc	3
   26bc4:	b029      	add	sp, #164	@ 0xa4
   26bc6:	bdf0      	pop	{r4, r5, r6, r7, pc}
   26bc8:	000021ab 	.word	0x000021ab

00026bcc <_ZN20complex_dynamic_type3app17hda38df68db21d4d7E>:
   26bcc:	b5f0      	push	{r4, r5, r6, r7, lr}
   26bce:	af03      	add	r7, sp, #12
   26bd0:	b0a9      	sub	sp, #164	@ 0xa4
   26bd2:	9004      	str	r0, [sp, #16]
   26bd4:	a805      	add	r0, sp, #20
   26bd6:	2402      	movs	r4, #2
   26bd8:	7004      	strb	r4, [r0, #0]
   26bda:	1c46      	adds	r6, r0, #1
   26bdc:	2253      	movs	r2, #83	@ 0x53
   26bde:	9203      	str	r2, [sp, #12]
   26be0:	4630      	mov	r0, r6
   26be2:	f004 fa8f 	bl	2b104 <__aeabi_memcpy>
   26be6:	ad1a      	add	r5, sp, #104	@ 0x68
   26be8:	1c68      	adds	r0, r5, #1
   26bea:	213a      	movs	r1, #58	@ 0x3a
   26bec:	9002      	str	r0, [sp, #8]
   26bee:	f004 f8c9 	bl	2ad84 <__aeabi_memclr>
   26bf2:	9401      	str	r4, [sp, #4]
   26bf4:	702c      	strb	r4, [r5, #0]
   26bf6:	4848      	ldr	r0, [pc, #288]	@ (26d18 <_ZN20complex_dynamic_type3app17hda38df68db21d4d7E+0x14c>)
   26bf8:	2106      	movs	r1, #6
   26bfa:	4632      	mov	r2, r6
   26bfc:	9b03      	ldr	r3, [sp, #12]
   26bfe:	df04      	svc	4
   26c00:	2802      	cmp	r0, #2
   26c02:	d104      	bne.n	26c0e <_ZN20complex_dynamic_type3app17hda38df68db21d4d7E+0x42>
   26c04:	2001      	movs	r0, #1
   26c06:	9a04      	ldr	r2, [sp, #16]
   26c08:	7010      	strb	r0, [r2, #0]
   26c0a:	6051      	str	r1, [r2, #4]
   26c0c:	e02d      	b.n	26c6a <_ZN20complex_dynamic_type3app17hda38df68db21d4d7E+0x9e>
   26c0e:	9d04      	ldr	r5, [sp, #16]
   26c10:	a805      	add	r0, sp, #20
   26c12:	2104      	movs	r1, #4
   26c14:	7001      	strb	r1, [r0, #0]
   26c16:	4840      	ldr	r0, [pc, #256]	@ (26d18 <_ZN20complex_dynamic_type3app17hda38df68db21d4d7E+0x14c>)
   26c18:	2107      	movs	r1, #7
   26c1a:	233a      	movs	r3, #58	@ 0x3a
   26c1c:	9c02      	ldr	r4, [sp, #8]
   26c1e:	4622      	mov	r2, r4
   26c20:	df03      	svc	3
   26c22:	2802      	cmp	r0, #2
   26c24:	d10e      	bne.n	26c44 <_ZN20complex_dynamic_type3app17hda38df68db21d4d7E+0x78>
   26c26:	2001      	movs	r0, #1
   26c28:	7028      	strb	r0, [r5, #0]
   26c2a:	6069      	str	r1, [r5, #4]
   26c2c:	a81a      	add	r0, sp, #104	@ 0x68
   26c2e:	7800      	ldrb	r0, [r0, #0]
   26c30:	2802      	cmp	r0, #2
   26c32:	d01a      	beq.n	26c6a <_ZN20complex_dynamic_type3app17hda38df68db21d4d7E+0x9e>
   26c34:	2803      	cmp	r0, #3
   26c36:	d013      	beq.n	26c60 <_ZN20complex_dynamic_type3app17hda38df68db21d4d7E+0x94>
   26c38:	4837      	ldr	r0, [pc, #220]	@ (26d18 <_ZN20complex_dynamic_type3app17hda38df68db21d4d7E+0x14c>)
   26c3a:	2107      	movs	r1, #7
   26c3c:	2200      	movs	r2, #0
   26c3e:	4613      	mov	r3, r2
   26c40:	df04      	svc	4
   26c42:	e012      	b.n	26c6a <_ZN20complex_dynamic_type3app17hda38df68db21d4d7E+0x9e>
   26c44:	a81a      	add	r0, sp, #104	@ 0x68
   26c46:	2103      	movs	r1, #3
   26c48:	7001      	strb	r1, [r0, #0]
   26c4a:	4833      	ldr	r0, [pc, #204]	@ (26d18 <_ZN20complex_dynamic_type3app17hda38df68db21d4d7E+0x14c>)
   26c4c:	2106      	movs	r1, #6
   26c4e:	2207      	movs	r2, #7
   26c50:	2600      	movs	r6, #0
   26c52:	4633      	mov	r3, r6
   26c54:	df02      	svc	2
   26c56:	2880      	cmp	r0, #128	@ 0x80
   26c58:	d21b      	bcs.n	26c92 <_ZN20complex_dynamic_type3app17hda38df68db21d4d7E+0xc6>
   26c5a:	2001      	movs	r0, #1
   26c5c:	7028      	strb	r0, [r5, #0]
   26c5e:	6069      	str	r1, [r5, #4]
   26c60:	482d      	ldr	r0, [pc, #180]	@ (26d18 <_ZN20complex_dynamic_type3app17hda38df68db21d4d7E+0x14c>)
   26c62:	2107      	movs	r1, #7
   26c64:	2200      	movs	r2, #0
   26c66:	4613      	mov	r3, r2
   26c68:	df03      	svc	3
   26c6a:	a805      	add	r0, sp, #20
   26c6c:	7800      	ldrb	r0, [r0, #0]
   26c6e:	2802      	cmp	r0, #2
   26c70:	d045      	beq.n	26cfe <_ZN20complex_dynamic_type3app17hda38df68db21d4d7E+0x132>
   26c72:	2804      	cmp	r0, #4
   26c74:	d106      	bne.n	26c84 <_ZN20complex_dynamic_type3app17hda38df68db21d4d7E+0xb8>
   26c76:	4828      	ldr	r0, [pc, #160]	@ (26d18 <_ZN20complex_dynamic_type3app17hda38df68db21d4d7E+0x14c>)
   26c78:	2106      	movs	r1, #6
   26c7a:	2200      	movs	r2, #0
   26c7c:	4613      	mov	r3, r2
   26c7e:	df04      	svc	4
   26c80:	b029      	add	sp, #164	@ 0xa4
   26c82:	bdf0      	pop	{r4, r5, r6, r7, pc}
   26c84:	4824      	ldr	r0, [pc, #144]	@ (26d18 <_ZN20complex_dynamic_type3app17hda38df68db21d4d7E+0x14c>)
   26c86:	2106      	movs	r1, #6
   26c88:	2200      	movs	r2, #0
   26c8a:	4613      	mov	r3, r2
   26c8c:	df03      	svc	3
   26c8e:	b029      	add	sp, #164	@ 0xa4
   26c90:	bdf0      	pop	{r4, r5, r6, r7, pc}
   26c92:	a805      	add	r0, sp, #20
   26c94:	7800      	ldrb	r0, [r0, #0]
   26c96:	2802      	cmp	r0, #2
   26c98:	d00c      	beq.n	26cb4 <_ZN20complex_dynamic_type3app17hda38df68db21d4d7E+0xe8>
   26c9a:	2803      	cmp	r0, #3
   26c9c:	d105      	bne.n	26caa <_ZN20complex_dynamic_type3app17hda38df68db21d4d7E+0xde>
   26c9e:	481e      	ldr	r0, [pc, #120]	@ (26d18 <_ZN20complex_dynamic_type3app17hda38df68db21d4d7E+0x14c>)
   26ca0:	2106      	movs	r1, #6
   26ca2:	2200      	movs	r2, #0
   26ca4:	4613      	mov	r3, r2
   26ca6:	df03      	svc	3
   26ca8:	e004      	b.n	26cb4 <_ZN20complex_dynamic_type3app17hda38df68db21d4d7E+0xe8>
   26caa:	481b      	ldr	r0, [pc, #108]	@ (26d18 <_ZN20complex_dynamic_type3app17hda38df68db21d4d7E+0x14c>)
   26cac:	2106      	movs	r1, #6
   26cae:	2200      	movs	r2, #0
   26cb0:	4613      	mov	r3, r2
   26cb2:	df04      	svc	4
   26cb4:	a805      	add	r0, sp, #20
   26cb6:	9901      	ldr	r1, [sp, #4]
   26cb8:	7001      	strb	r1, [r0, #0]
   26cba:	a81a      	add	r0, sp, #104	@ 0x68
   26cbc:	7800      	ldrb	r0, [r0, #0]
   26cbe:	2804      	cmp	r0, #4
   26cc0:	d007      	beq.n	26cd2 <_ZN20complex_dynamic_type3app17hda38df68db21d4d7E+0x106>
   26cc2:	2803      	cmp	r0, #3
   26cc4:	d11d      	bne.n	26d02 <_ZN20complex_dynamic_type3app17hda38df68db21d4d7E+0x136>
   26cc6:	4814      	ldr	r0, [pc, #80]	@ (26d18 <_ZN20complex_dynamic_type3app17hda38df68db21d4d7E+0x14c>)
   26cc8:	2107      	movs	r1, #7
   26cca:	2200      	movs	r2, #0
   26ccc:	4613      	mov	r3, r2
   26cce:	df03      	svc	3
   26cd0:	e004      	b.n	26cdc <_ZN20complex_dynamic_type3app17hda38df68db21d4d7E+0x110>
   26cd2:	4811      	ldr	r0, [pc, #68]	@ (26d18 <_ZN20complex_dynamic_type3app17hda38df68db21d4d7E+0x14c>)
   26cd4:	2107      	movs	r1, #7
   26cd6:	2200      	movs	r2, #0
   26cd8:	4613      	mov	r3, r2
   26cda:	df04      	svc	4
   26cdc:	a805      	add	r0, sp, #20
   26cde:	7804      	ldrb	r4, [r0, #0]
   26ce0:	1c68      	adds	r0, r5, #1
   26ce2:	223a      	movs	r2, #58	@ 0x3a
   26ce4:	9902      	ldr	r1, [sp, #8]
   26ce6:	f004 fa0d 	bl	2b104 <__aeabi_memcpy>
   26cea:	702e      	strb	r6, [r5, #0]
   26cec:	2c02      	cmp	r4, #2
   26cee:	d006      	beq.n	26cfe <_ZN20complex_dynamic_type3app17hda38df68db21d4d7E+0x132>
   26cf0:	4809      	ldr	r0, [pc, #36]	@ (26d18 <_ZN20complex_dynamic_type3app17hda38df68db21d4d7E+0x14c>)
   26cf2:	2106      	movs	r1, #6
   26cf4:	2200      	movs	r2, #0
   26cf6:	4613      	mov	r3, r2
   26cf8:	2c04      	cmp	r4, #4
   26cfa:	d10a      	bne.n	26d12 <_ZN20complex_dynamic_type3app17hda38df68db21d4d7E+0x146>
   26cfc:	df04      	svc	4
   26cfe:	b029      	add	sp, #164	@ 0xa4
   26d00:	bdf0      	pop	{r4, r5, r6, r7, pc}
   26d02:	1c68      	adds	r0, r5, #1
   26d04:	223a      	movs	r2, #58	@ 0x3a
   26d06:	4621      	mov	r1, r4
   26d08:	f004 f9fc 	bl	2b104 <__aeabi_memcpy>
   26d0c:	702e      	strb	r6, [r5, #0]
   26d0e:	b029      	add	sp, #164	@ 0xa4
   26d10:	bdf0      	pop	{r4, r5, r6, r7, pc}
   26d12:	df03      	svc	3
   26d14:	b029      	add	sp, #164	@ 0xa4
   26d16:	bdf0      	pop	{r4, r5, r6, r7, pc}
   26d18:	00002645 	.word	0x00002645

00026d1c <_ZN20complex_dynamic_type3app17hda41b662dba0582cE>:
   26d1c:	b5f0      	push	{r4, r5, r6, r7, lr}
   26d1e:	af03      	add	r7, sp, #12
   26d20:	b09f      	sub	sp, #124	@ 0x7c
   26d22:	9003      	str	r0, [sp, #12]
   26d24:	a804      	add	r0, sp, #16
   26d26:	2402      	movs	r4, #2
   26d28:	7004      	strb	r4, [r0, #0]
   26d2a:	1c46      	adds	r6, r0, #1
   26d2c:	2244      	movs	r2, #68	@ 0x44
   26d2e:	9202      	str	r2, [sp, #8]
   26d30:	4630      	mov	r0, r6
   26d32:	f004 f9e7 	bl	2b104 <__aeabi_memcpy>
   26d36:	ad16      	add	r5, sp, #88	@ 0x58
   26d38:	1c68      	adds	r0, r5, #1
   26d3a:	2123      	movs	r1, #35	@ 0x23
   26d3c:	9001      	str	r0, [sp, #4]
   26d3e:	f004 f821 	bl	2ad84 <__aeabi_memclr>
   26d42:	9400      	str	r4, [sp, #0]
   26d44:	702c      	strb	r4, [r5, #0]
   26d46:	4848      	ldr	r0, [pc, #288]	@ (26e68 <_ZN20complex_dynamic_type3app17hda41b662dba0582cE+0x14c>)
   26d48:	2106      	movs	r1, #6
   26d4a:	4632      	mov	r2, r6
   26d4c:	9b02      	ldr	r3, [sp, #8]
   26d4e:	df04      	svc	4
   26d50:	2802      	cmp	r0, #2
   26d52:	d104      	bne.n	26d5e <_ZN20complex_dynamic_type3app17hda41b662dba0582cE+0x42>
   26d54:	2001      	movs	r0, #1
   26d56:	9a03      	ldr	r2, [sp, #12]
   26d58:	7010      	strb	r0, [r2, #0]
   26d5a:	6051      	str	r1, [r2, #4]
   26d5c:	e02c      	b.n	26db8 <_ZN20complex_dynamic_type3app17hda41b662dba0582cE+0x9c>
   26d5e:	9d03      	ldr	r5, [sp, #12]
   26d60:	a804      	add	r0, sp, #16
   26d62:	2104      	movs	r1, #4
   26d64:	7001      	strb	r1, [r0, #0]
   26d66:	4840      	ldr	r0, [pc, #256]	@ (26e68 <_ZN20complex_dynamic_type3app17hda41b662dba0582cE+0x14c>)
   26d68:	2403      	movs	r4, #3
   26d6a:	2323      	movs	r3, #35	@ 0x23
   26d6c:	4621      	mov	r1, r4
   26d6e:	9a01      	ldr	r2, [sp, #4]
   26d70:	df03      	svc	3
   26d72:	2802      	cmp	r0, #2
   26d74:	d10e      	bne.n	26d94 <_ZN20complex_dynamic_type3app17hda41b662dba0582cE+0x78>
   26d76:	2001      	movs	r0, #1
   26d78:	7028      	strb	r0, [r5, #0]
   26d7a:	6069      	str	r1, [r5, #4]
   26d7c:	a816      	add	r0, sp, #88	@ 0x58
   26d7e:	7800      	ldrb	r0, [r0, #0]
   26d80:	2802      	cmp	r0, #2
   26d82:	d019      	beq.n	26db8 <_ZN20complex_dynamic_type3app17hda41b662dba0582cE+0x9c>
   26d84:	2803      	cmp	r0, #3
   26d86:	d012      	beq.n	26dae <_ZN20complex_dynamic_type3app17hda41b662dba0582cE+0x92>
   26d88:	4837      	ldr	r0, [pc, #220]	@ (26e68 <_ZN20complex_dynamic_type3app17hda41b662dba0582cE+0x14c>)
   26d8a:	2103      	movs	r1, #3
   26d8c:	2200      	movs	r2, #0
   26d8e:	4613      	mov	r3, r2
   26d90:	df04      	svc	4
   26d92:	e011      	b.n	26db8 <_ZN20complex_dynamic_type3app17hda41b662dba0582cE+0x9c>
   26d94:	a816      	add	r0, sp, #88	@ 0x58
   26d96:	7004      	strb	r4, [r0, #0]
   26d98:	4833      	ldr	r0, [pc, #204]	@ (26e68 <_ZN20complex_dynamic_type3app17hda41b662dba0582cE+0x14c>)
   26d9a:	2106      	movs	r1, #6
   26d9c:	2600      	movs	r6, #0
   26d9e:	4622      	mov	r2, r4
   26da0:	4633      	mov	r3, r6
   26da2:	df02      	svc	2
   26da4:	2880      	cmp	r0, #128	@ 0x80
   26da6:	d21b      	bcs.n	26de0 <_ZN20complex_dynamic_type3app17hda41b662dba0582cE+0xc4>
   26da8:	2001      	movs	r0, #1
   26daa:	7028      	strb	r0, [r5, #0]
   26dac:	6069      	str	r1, [r5, #4]
   26dae:	482e      	ldr	r0, [pc, #184]	@ (26e68 <_ZN20complex_dynamic_type3app17hda41b662dba0582cE+0x14c>)
   26db0:	2103      	movs	r1, #3
   26db2:	2200      	movs	r2, #0
   26db4:	4613      	mov	r3, r2
   26db6:	df03      	svc	3
   26db8:	a804      	add	r0, sp, #16
   26dba:	7800      	ldrb	r0, [r0, #0]
   26dbc:	2802      	cmp	r0, #2
   26dbe:	d045      	beq.n	26e4c <_ZN20complex_dynamic_type3app17hda41b662dba0582cE+0x130>
   26dc0:	2804      	cmp	r0, #4
   26dc2:	d106      	bne.n	26dd2 <_ZN20complex_dynamic_type3app17hda41b662dba0582cE+0xb6>
   26dc4:	4828      	ldr	r0, [pc, #160]	@ (26e68 <_ZN20complex_dynamic_type3app17hda41b662dba0582cE+0x14c>)
   26dc6:	2106      	movs	r1, #6
   26dc8:	2200      	movs	r2, #0
   26dca:	4613      	mov	r3, r2
   26dcc:	df04      	svc	4
   26dce:	b01f      	add	sp, #124	@ 0x7c
   26dd0:	bdf0      	pop	{r4, r5, r6, r7, pc}
   26dd2:	4825      	ldr	r0, [pc, #148]	@ (26e68 <_ZN20complex_dynamic_type3app17hda41b662dba0582cE+0x14c>)
   26dd4:	2106      	movs	r1, #6
   26dd6:	2200      	movs	r2, #0
   26dd8:	4613      	mov	r3, r2
   26dda:	df03      	svc	3
   26ddc:	b01f      	add	sp, #124	@ 0x7c
   26dde:	bdf0      	pop	{r4, r5, r6, r7, pc}
   26de0:	a804      	add	r0, sp, #16
   26de2:	7800      	ldrb	r0, [r0, #0]
   26de4:	2802      	cmp	r0, #2
   26de6:	d00c      	beq.n	26e02 <_ZN20complex_dynamic_type3app17hda41b662dba0582cE+0xe6>
   26de8:	2803      	cmp	r0, #3
   26dea:	d105      	bne.n	26df8 <_ZN20complex_dynamic_type3app17hda41b662dba0582cE+0xdc>
   26dec:	481e      	ldr	r0, [pc, #120]	@ (26e68 <_ZN20complex_dynamic_type3app17hda41b662dba0582cE+0x14c>)
   26dee:	2106      	movs	r1, #6
   26df0:	2200      	movs	r2, #0
   26df2:	4613      	mov	r3, r2
   26df4:	df03      	svc	3
   26df6:	e004      	b.n	26e02 <_ZN20complex_dynamic_type3app17hda41b662dba0582cE+0xe6>
   26df8:	481b      	ldr	r0, [pc, #108]	@ (26e68 <_ZN20complex_dynamic_type3app17hda41b662dba0582cE+0x14c>)
   26dfa:	2106      	movs	r1, #6
   26dfc:	2200      	movs	r2, #0
   26dfe:	4613      	mov	r3, r2
   26e00:	df04      	svc	4
   26e02:	a804      	add	r0, sp, #16
   26e04:	9900      	ldr	r1, [sp, #0]
   26e06:	7001      	strb	r1, [r0, #0]
   26e08:	a816      	add	r0, sp, #88	@ 0x58
   26e0a:	7800      	ldrb	r0, [r0, #0]
   26e0c:	2804      	cmp	r0, #4
   26e0e:	d007      	beq.n	26e20 <_ZN20complex_dynamic_type3app17hda41b662dba0582cE+0x104>
   26e10:	2803      	cmp	r0, #3
   26e12:	d11d      	bne.n	26e50 <_ZN20complex_dynamic_type3app17hda41b662dba0582cE+0x134>
   26e14:	4814      	ldr	r0, [pc, #80]	@ (26e68 <_ZN20complex_dynamic_type3app17hda41b662dba0582cE+0x14c>)
   26e16:	2103      	movs	r1, #3
   26e18:	2200      	movs	r2, #0
   26e1a:	4613      	mov	r3, r2
   26e1c:	df03      	svc	3
   26e1e:	e004      	b.n	26e2a <_ZN20complex_dynamic_type3app17hda41b662dba0582cE+0x10e>
   26e20:	4811      	ldr	r0, [pc, #68]	@ (26e68 <_ZN20complex_dynamic_type3app17hda41b662dba0582cE+0x14c>)
   26e22:	2103      	movs	r1, #3
   26e24:	2200      	movs	r2, #0
   26e26:	4613      	mov	r3, r2
   26e28:	df04      	svc	4
   26e2a:	a804      	add	r0, sp, #16
   26e2c:	7804      	ldrb	r4, [r0, #0]
   26e2e:	1c68      	adds	r0, r5, #1
   26e30:	2223      	movs	r2, #35	@ 0x23
   26e32:	9901      	ldr	r1, [sp, #4]
   26e34:	f004 f966 	bl	2b104 <__aeabi_memcpy>
   26e38:	702e      	strb	r6, [r5, #0]
   26e3a:	2c02      	cmp	r4, #2
   26e3c:	d006      	beq.n	26e4c <_ZN20complex_dynamic_type3app17hda41b662dba0582cE+0x130>
   26e3e:	480a      	ldr	r0, [pc, #40]	@ (26e68 <_ZN20complex_dynamic_type3app17hda41b662dba0582cE+0x14c>)
   26e40:	2106      	movs	r1, #6
   26e42:	2200      	movs	r2, #0
   26e44:	4613      	mov	r3, r2
   26e46:	2c04      	cmp	r4, #4
   26e48:	d10a      	bne.n	26e60 <_ZN20complex_dynamic_type3app17hda41b662dba0582cE+0x144>
   26e4a:	df04      	svc	4
   26e4c:	b01f      	add	sp, #124	@ 0x7c
   26e4e:	bdf0      	pop	{r4, r5, r6, r7, pc}
   26e50:	1c68      	adds	r0, r5, #1
   26e52:	2223      	movs	r2, #35	@ 0x23
   26e54:	9901      	ldr	r1, [sp, #4]
   26e56:	f004 f955 	bl	2b104 <__aeabi_memcpy>
   26e5a:	702e      	strb	r6, [r5, #0]
   26e5c:	b01f      	add	sp, #124	@ 0x7c
   26e5e:	bdf0      	pop	{r4, r5, r6, r7, pc}
   26e60:	df03      	svc	3
   26e62:	b01f      	add	sp, #124	@ 0x7c
   26e64:	bdf0      	pop	{r4, r5, r6, r7, pc}
   26e66:	46c0      	nop			@ (mov r8, r8)
   26e68:	000009bf 	.word	0x000009bf

00026e6c <_ZN20complex_dynamic_type3app17hdd692f40101f08b8E>:
   26e6c:	b5f0      	push	{r4, r5, r6, r7, lr}
   26e6e:	af03      	add	r7, sp, #12
   26e70:	b09d      	sub	sp, #116	@ 0x74
   26e72:	9004      	str	r0, [sp, #16]
   26e74:	a805      	add	r0, sp, #20
   26e76:	2402      	movs	r4, #2
   26e78:	7004      	strb	r4, [r0, #0]
   26e7a:	1c40      	adds	r0, r0, #1
   26e7c:	9003      	str	r0, [sp, #12]
   26e7e:	2541      	movs	r5, #65	@ 0x41
   26e80:	462a      	mov	r2, r5
   26e82:	f004 f93f 	bl	2b104 <__aeabi_memcpy>
   26e86:	ae16      	add	r6, sp, #88	@ 0x58
   26e88:	1c70      	adds	r0, r6, #1
   26e8a:	2118      	movs	r1, #24
   26e8c:	9002      	str	r0, [sp, #8]
   26e8e:	f003 ff79 	bl	2ad84 <__aeabi_memclr>
   26e92:	9401      	str	r4, [sp, #4]
   26e94:	7034      	strb	r4, [r6, #0]
   26e96:	4847      	ldr	r0, [pc, #284]	@ (26fb4 <_ZN20complex_dynamic_type3app17hdd692f40101f08b8E+0x148>)
   26e98:	2601      	movs	r6, #1
   26e9a:	4631      	mov	r1, r6
   26e9c:	9a03      	ldr	r2, [sp, #12]
   26e9e:	462b      	mov	r3, r5
   26ea0:	df04      	svc	4
   26ea2:	2802      	cmp	r0, #2
   26ea4:	d103      	bne.n	26eae <_ZN20complex_dynamic_type3app17hdd692f40101f08b8E+0x42>
   26ea6:	9804      	ldr	r0, [sp, #16]
   26ea8:	7006      	strb	r6, [r0, #0]
   26eaa:	6041      	str	r1, [r0, #4]
   26eac:	e02b      	b.n	26f06 <_ZN20complex_dynamic_type3app17hdd692f40101f08b8E+0x9a>
   26eae:	9d04      	ldr	r5, [sp, #16]
   26eb0:	a805      	add	r0, sp, #20
   26eb2:	2104      	movs	r1, #4
   26eb4:	7001      	strb	r1, [r0, #0]
   26eb6:	483f      	ldr	r0, [pc, #252]	@ (26fb4 <_ZN20complex_dynamic_type3app17hdd692f40101f08b8E+0x148>)
   26eb8:	2109      	movs	r1, #9
   26eba:	2318      	movs	r3, #24
   26ebc:	9a02      	ldr	r2, [sp, #8]
   26ebe:	df03      	svc	3
   26ec0:	2802      	cmp	r0, #2
   26ec2:	d10d      	bne.n	26ee0 <_ZN20complex_dynamic_type3app17hdd692f40101f08b8E+0x74>
   26ec4:	702e      	strb	r6, [r5, #0]
   26ec6:	6069      	str	r1, [r5, #4]
   26ec8:	a816      	add	r0, sp, #88	@ 0x58
   26eca:	7800      	ldrb	r0, [r0, #0]
   26ecc:	2802      	cmp	r0, #2
   26ece:	d01a      	beq.n	26f06 <_ZN20complex_dynamic_type3app17hdd692f40101f08b8E+0x9a>
   26ed0:	2803      	cmp	r0, #3
   26ed2:	d013      	beq.n	26efc <_ZN20complex_dynamic_type3app17hdd692f40101f08b8E+0x90>
   26ed4:	4837      	ldr	r0, [pc, #220]	@ (26fb4 <_ZN20complex_dynamic_type3app17hdd692f40101f08b8E+0x148>)
   26ed6:	2109      	movs	r1, #9
   26ed8:	2200      	movs	r2, #0
   26eda:	4613      	mov	r3, r2
   26edc:	df04      	svc	4
   26ede:	e012      	b.n	26f06 <_ZN20complex_dynamic_type3app17hdd692f40101f08b8E+0x9a>
   26ee0:	a816      	add	r0, sp, #88	@ 0x58
   26ee2:	2103      	movs	r1, #3
   26ee4:	7001      	strb	r1, [r0, #0]
   26ee6:	4833      	ldr	r0, [pc, #204]	@ (26fb4 <_ZN20complex_dynamic_type3app17hdd692f40101f08b8E+0x148>)
   26ee8:	2401      	movs	r4, #1
   26eea:	2209      	movs	r2, #9
   26eec:	2600      	movs	r6, #0
   26eee:	4621      	mov	r1, r4
   26ef0:	4633      	mov	r3, r6
   26ef2:	df02      	svc	2
   26ef4:	2880      	cmp	r0, #128	@ 0x80
   26ef6:	d21a      	bcs.n	26f2e <_ZN20complex_dynamic_type3app17hdd692f40101f08b8E+0xc2>
   26ef8:	702c      	strb	r4, [r5, #0]
   26efa:	6069      	str	r1, [r5, #4]
   26efc:	482d      	ldr	r0, [pc, #180]	@ (26fb4 <_ZN20complex_dynamic_type3app17hdd692f40101f08b8E+0x148>)
   26efe:	2109      	movs	r1, #9
   26f00:	2200      	movs	r2, #0
   26f02:	4613      	mov	r3, r2
   26f04:	df03      	svc	3
   26f06:	a805      	add	r0, sp, #20
   26f08:	7800      	ldrb	r0, [r0, #0]
   26f0a:	2802      	cmp	r0, #2
   26f0c:	d045      	beq.n	26f9a <_ZN20complex_dynamic_type3app17hdd692f40101f08b8E+0x12e>
   26f0e:	2804      	cmp	r0, #4
   26f10:	d106      	bne.n	26f20 <_ZN20complex_dynamic_type3app17hdd692f40101f08b8E+0xb4>
   26f12:	4828      	ldr	r0, [pc, #160]	@ (26fb4 <_ZN20complex_dynamic_type3app17hdd692f40101f08b8E+0x148>)
   26f14:	2101      	movs	r1, #1
   26f16:	2200      	movs	r2, #0
   26f18:	4613      	mov	r3, r2
   26f1a:	df04      	svc	4
   26f1c:	b01d      	add	sp, #116	@ 0x74
   26f1e:	bdf0      	pop	{r4, r5, r6, r7, pc}
   26f20:	4824      	ldr	r0, [pc, #144]	@ (26fb4 <_ZN20complex_dynamic_type3app17hdd692f40101f08b8E+0x148>)
   26f22:	2101      	movs	r1, #1
   26f24:	2200      	movs	r2, #0
   26f26:	4613      	mov	r3, r2
   26f28:	df03      	svc	3
   26f2a:	b01d      	add	sp, #116	@ 0x74
   26f2c:	bdf0      	pop	{r4, r5, r6, r7, pc}
   26f2e:	a805      	add	r0, sp, #20
   26f30:	7800      	ldrb	r0, [r0, #0]
   26f32:	2802      	cmp	r0, #2
   26f34:	d00c      	beq.n	26f50 <_ZN20complex_dynamic_type3app17hdd692f40101f08b8E+0xe4>
   26f36:	2803      	cmp	r0, #3
   26f38:	d105      	bne.n	26f46 <_ZN20complex_dynamic_type3app17hdd692f40101f08b8E+0xda>
   26f3a:	481e      	ldr	r0, [pc, #120]	@ (26fb4 <_ZN20complex_dynamic_type3app17hdd692f40101f08b8E+0x148>)
   26f3c:	2101      	movs	r1, #1
   26f3e:	2200      	movs	r2, #0
   26f40:	4613      	mov	r3, r2
   26f42:	df03      	svc	3
   26f44:	e004      	b.n	26f50 <_ZN20complex_dynamic_type3app17hdd692f40101f08b8E+0xe4>
   26f46:	481b      	ldr	r0, [pc, #108]	@ (26fb4 <_ZN20complex_dynamic_type3app17hdd692f40101f08b8E+0x148>)
   26f48:	2101      	movs	r1, #1
   26f4a:	2200      	movs	r2, #0
   26f4c:	4613      	mov	r3, r2
   26f4e:	df04      	svc	4
   26f50:	a805      	add	r0, sp, #20
   26f52:	9901      	ldr	r1, [sp, #4]
   26f54:	7001      	strb	r1, [r0, #0]
   26f56:	a816      	add	r0, sp, #88	@ 0x58
   26f58:	7800      	ldrb	r0, [r0, #0]
   26f5a:	2804      	cmp	r0, #4
   26f5c:	d007      	beq.n	26f6e <_ZN20complex_dynamic_type3app17hdd692f40101f08b8E+0x102>
   26f5e:	2803      	cmp	r0, #3
   26f60:	d11d      	bne.n	26f9e <_ZN20complex_dynamic_type3app17hdd692f40101f08b8E+0x132>
   26f62:	4814      	ldr	r0, [pc, #80]	@ (26fb4 <_ZN20complex_dynamic_type3app17hdd692f40101f08b8E+0x148>)
   26f64:	2109      	movs	r1, #9
   26f66:	2200      	movs	r2, #0
   26f68:	4613      	mov	r3, r2
   26f6a:	df03      	svc	3
   26f6c:	e004      	b.n	26f78 <_ZN20complex_dynamic_type3app17hdd692f40101f08b8E+0x10c>
   26f6e:	4811      	ldr	r0, [pc, #68]	@ (26fb4 <_ZN20complex_dynamic_type3app17hdd692f40101f08b8E+0x148>)
   26f70:	2109      	movs	r1, #9
   26f72:	2200      	movs	r2, #0
   26f74:	4613      	mov	r3, r2
   26f76:	df04      	svc	4
   26f78:	a805      	add	r0, sp, #20
   26f7a:	7804      	ldrb	r4, [r0, #0]
   26f7c:	1c68      	adds	r0, r5, #1
   26f7e:	2218      	movs	r2, #24
   26f80:	9902      	ldr	r1, [sp, #8]
   26f82:	f004 f8bf 	bl	2b104 <__aeabi_memcpy>
   26f86:	702e      	strb	r6, [r5, #0]
   26f88:	2c02      	cmp	r4, #2
   26f8a:	d006      	beq.n	26f9a <_ZN20complex_dynamic_type3app17hdd692f40101f08b8E+0x12e>
   26f8c:	4809      	ldr	r0, [pc, #36]	@ (26fb4 <_ZN20complex_dynamic_type3app17hdd692f40101f08b8E+0x148>)
   26f8e:	2101      	movs	r1, #1
   26f90:	2200      	movs	r2, #0
   26f92:	4613      	mov	r3, r2
   26f94:	2c04      	cmp	r4, #4
   26f96:	d10a      	bne.n	26fae <_ZN20complex_dynamic_type3app17hdd692f40101f08b8E+0x142>
   26f98:	df04      	svc	4
   26f9a:	b01d      	add	sp, #116	@ 0x74
   26f9c:	bdf0      	pop	{r4, r5, r6, r7, pc}
   26f9e:	9902      	ldr	r1, [sp, #8]
   26fa0:	1c68      	adds	r0, r5, #1
   26fa2:	2218      	movs	r2, #24
   26fa4:	f004 f8ae 	bl	2b104 <__aeabi_memcpy>
   26fa8:	702e      	strb	r6, [r5, #0]
   26faa:	b01d      	add	sp, #116	@ 0x74
   26fac:	bdf0      	pop	{r4, r5, r6, r7, pc}
   26fae:	df03      	svc	3
   26fb0:	b01d      	add	sp, #116	@ 0x74
   26fb2:	bdf0      	pop	{r4, r5, r6, r7, pc}
   26fb4:	00002156 	.word	0x00002156

00026fb8 <_ZN20complex_dynamic_type3app17hdf815c43d89fc657E>:
   26fb8:	b5f0      	push	{r4, r5, r6, r7, lr}
   26fba:	af03      	add	r7, sp, #12
   26fbc:	b0a5      	sub	sp, #148	@ 0x94
   26fbe:	9003      	str	r0, [sp, #12]
   26fc0:	a804      	add	r0, sp, #16
   26fc2:	2602      	movs	r6, #2
   26fc4:	7006      	strb	r6, [r0, #0]
   26fc6:	1c40      	adds	r0, r0, #1
   26fc8:	9002      	str	r0, [sp, #8]
   26fca:	252d      	movs	r5, #45	@ 0x2d
   26fcc:	462a      	mov	r2, r5
   26fce:	f004 f899 	bl	2b104 <__aeabi_memcpy>
   26fd2:	ac10      	add	r4, sp, #64	@ 0x40
   26fd4:	1c60      	adds	r0, r4, #1
   26fd6:	2153      	movs	r1, #83	@ 0x53
   26fd8:	9001      	str	r0, [sp, #4]
   26fda:	f003 fed3 	bl	2ad84 <__aeabi_memclr>
   26fde:	7026      	strb	r6, [r4, #0]
   26fe0:	484a      	ldr	r0, [pc, #296]	@ (2710c <_ZN20complex_dynamic_type3app17hdf815c43d89fc657E+0x154>)
   26fe2:	4631      	mov	r1, r6
   26fe4:	9a02      	ldr	r2, [sp, #8]
   26fe6:	462b      	mov	r3, r5
   26fe8:	df04      	svc	4
   26fea:	2802      	cmp	r0, #2
   26fec:	d104      	bne.n	26ff8 <_ZN20complex_dynamic_type3app17hdf815c43d89fc657E+0x40>
   26fee:	2001      	movs	r0, #1
   26ff0:	9a03      	ldr	r2, [sp, #12]
   26ff2:	7010      	strb	r0, [r2, #0]
   26ff4:	6051      	str	r1, [r2, #4]
   26ff6:	e02e      	b.n	27056 <_ZN20complex_dynamic_type3app17hdf815c43d89fc657E+0x9e>
   26ff8:	9d03      	ldr	r5, [sp, #12]
   26ffa:	a804      	add	r0, sp, #16
   26ffc:	2104      	movs	r1, #4
   26ffe:	7001      	strb	r1, [r0, #0]
   27000:	4842      	ldr	r0, [pc, #264]	@ (2710c <_ZN20complex_dynamic_type3app17hdf815c43d89fc657E+0x154>)
   27002:	2107      	movs	r1, #7
   27004:	2353      	movs	r3, #83	@ 0x53
   27006:	9c01      	ldr	r4, [sp, #4]
   27008:	4622      	mov	r2, r4
   2700a:	df03      	svc	3
   2700c:	2802      	cmp	r0, #2
   2700e:	d10e      	bne.n	2702e <_ZN20complex_dynamic_type3app17hdf815c43d89fc657E+0x76>
   27010:	2001      	movs	r0, #1
   27012:	7028      	strb	r0, [r5, #0]
   27014:	6069      	str	r1, [r5, #4]
   27016:	a810      	add	r0, sp, #64	@ 0x40
   27018:	7800      	ldrb	r0, [r0, #0]
   2701a:	2802      	cmp	r0, #2
   2701c:	d01b      	beq.n	27056 <_ZN20complex_dynamic_type3app17hdf815c43d89fc657E+0x9e>
   2701e:	2803      	cmp	r0, #3
   27020:	d014      	beq.n	2704c <_ZN20complex_dynamic_type3app17hdf815c43d89fc657E+0x94>
   27022:	483a      	ldr	r0, [pc, #232]	@ (2710c <_ZN20complex_dynamic_type3app17hdf815c43d89fc657E+0x154>)
   27024:	2107      	movs	r1, #7
   27026:	2200      	movs	r2, #0
   27028:	4613      	mov	r3, r2
   2702a:	df04      	svc	4
   2702c:	e013      	b.n	27056 <_ZN20complex_dynamic_type3app17hdf815c43d89fc657E+0x9e>
   2702e:	a810      	add	r0, sp, #64	@ 0x40
   27030:	2103      	movs	r1, #3
   27032:	7001      	strb	r1, [r0, #0]
   27034:	4835      	ldr	r0, [pc, #212]	@ (2710c <_ZN20complex_dynamic_type3app17hdf815c43d89fc657E+0x154>)
   27036:	2602      	movs	r6, #2
   27038:	2207      	movs	r2, #7
   2703a:	2300      	movs	r3, #0
   2703c:	4631      	mov	r1, r6
   2703e:	9302      	str	r3, [sp, #8]
   27040:	df02      	svc	2
   27042:	2880      	cmp	r0, #128	@ 0x80
   27044:	d21b      	bcs.n	2707e <_ZN20complex_dynamic_type3app17hdf815c43d89fc657E+0xc6>
   27046:	2001      	movs	r0, #1
   27048:	7028      	strb	r0, [r5, #0]
   2704a:	6069      	str	r1, [r5, #4]
   2704c:	482f      	ldr	r0, [pc, #188]	@ (2710c <_ZN20complex_dynamic_type3app17hdf815c43d89fc657E+0x154>)
   2704e:	2107      	movs	r1, #7
   27050:	2200      	movs	r2, #0
   27052:	4613      	mov	r3, r2
   27054:	df03      	svc	3
   27056:	a804      	add	r0, sp, #16
   27058:	7800      	ldrb	r0, [r0, #0]
   2705a:	2802      	cmp	r0, #2
   2705c:	d047      	beq.n	270ee <_ZN20complex_dynamic_type3app17hdf815c43d89fc657E+0x136>
   2705e:	2804      	cmp	r0, #4
   27060:	d106      	bne.n	27070 <_ZN20complex_dynamic_type3app17hdf815c43d89fc657E+0xb8>
   27062:	482a      	ldr	r0, [pc, #168]	@ (2710c <_ZN20complex_dynamic_type3app17hdf815c43d89fc657E+0x154>)
   27064:	2102      	movs	r1, #2
   27066:	2200      	movs	r2, #0
   27068:	4613      	mov	r3, r2
   2706a:	df04      	svc	4
   2706c:	b025      	add	sp, #148	@ 0x94
   2706e:	bdf0      	pop	{r4, r5, r6, r7, pc}
   27070:	4826      	ldr	r0, [pc, #152]	@ (2710c <_ZN20complex_dynamic_type3app17hdf815c43d89fc657E+0x154>)
   27072:	2102      	movs	r1, #2
   27074:	2200      	movs	r2, #0
   27076:	4613      	mov	r3, r2
   27078:	df03      	svc	3
   2707a:	b025      	add	sp, #148	@ 0x94
   2707c:	bdf0      	pop	{r4, r5, r6, r7, pc}
   2707e:	a804      	add	r0, sp, #16
   27080:	7800      	ldrb	r0, [r0, #0]
   27082:	2802      	cmp	r0, #2
   27084:	d00c      	beq.n	270a0 <_ZN20complex_dynamic_type3app17hdf815c43d89fc657E+0xe8>
   27086:	2803      	cmp	r0, #3
   27088:	d105      	bne.n	27096 <_ZN20complex_dynamic_type3app17hdf815c43d89fc657E+0xde>
   2708a:	4820      	ldr	r0, [pc, #128]	@ (2710c <_ZN20complex_dynamic_type3app17hdf815c43d89fc657E+0x154>)
   2708c:	2102      	movs	r1, #2
   2708e:	2200      	movs	r2, #0
   27090:	4613      	mov	r3, r2
   27092:	df03      	svc	3
   27094:	e004      	b.n	270a0 <_ZN20complex_dynamic_type3app17hdf815c43d89fc657E+0xe8>
   27096:	481d      	ldr	r0, [pc, #116]	@ (2710c <_ZN20complex_dynamic_type3app17hdf815c43d89fc657E+0x154>)
   27098:	2102      	movs	r1, #2
   2709a:	2200      	movs	r2, #0
   2709c:	4613      	mov	r3, r2
   2709e:	df04      	svc	4
   270a0:	a804      	add	r0, sp, #16
   270a2:	7006      	strb	r6, [r0, #0]
   270a4:	a810      	add	r0, sp, #64	@ 0x40
   270a6:	7800      	ldrb	r0, [r0, #0]
   270a8:	2804      	cmp	r0, #4
   270aa:	d008      	beq.n	270be <_ZN20complex_dynamic_type3app17hdf815c43d89fc657E+0x106>
   270ac:	2803      	cmp	r0, #3
   270ae:	d120      	bne.n	270f2 <_ZN20complex_dynamic_type3app17hdf815c43d89fc657E+0x13a>
   270b0:	4626      	mov	r6, r4
   270b2:	4816      	ldr	r0, [pc, #88]	@ (2710c <_ZN20complex_dynamic_type3app17hdf815c43d89fc657E+0x154>)
   270b4:	2107      	movs	r1, #7
   270b6:	2200      	movs	r2, #0
   270b8:	4613      	mov	r3, r2
   270ba:	df03      	svc	3
   270bc:	e005      	b.n	270ca <_ZN20complex_dynamic_type3app17hdf815c43d89fc657E+0x112>
   270be:	4626      	mov	r6, r4
   270c0:	4812      	ldr	r0, [pc, #72]	@ (2710c <_ZN20complex_dynamic_type3app17hdf815c43d89fc657E+0x154>)
   270c2:	2107      	movs	r1, #7
   270c4:	2200      	movs	r2, #0
   270c6:	4613      	mov	r3, r2
   270c8:	df04      	svc	4
   270ca:	a804      	add	r0, sp, #16
   270cc:	7804      	ldrb	r4, [r0, #0]
   270ce:	1c68      	adds	r0, r5, #1
   270d0:	2253      	movs	r2, #83	@ 0x53
   270d2:	4631      	mov	r1, r6
   270d4:	f004 f816 	bl	2b104 <__aeabi_memcpy>
   270d8:	9802      	ldr	r0, [sp, #8]
   270da:	7028      	strb	r0, [r5, #0]
   270dc:	2c02      	cmp	r4, #2
   270de:	d006      	beq.n	270ee <_ZN20complex_dynamic_type3app17hdf815c43d89fc657E+0x136>
   270e0:	480a      	ldr	r0, [pc, #40]	@ (2710c <_ZN20complex_dynamic_type3app17hdf815c43d89fc657E+0x154>)
   270e2:	2102      	movs	r1, #2
   270e4:	2200      	movs	r2, #0
   270e6:	4613      	mov	r3, r2
   270e8:	2c04      	cmp	r4, #4
   270ea:	d10b      	bne.n	27104 <_ZN20complex_dynamic_type3app17hdf815c43d89fc657E+0x14c>
   270ec:	df04      	svc	4
   270ee:	b025      	add	sp, #148	@ 0x94
   270f0:	bdf0      	pop	{r4, r5, r6, r7, pc}
   270f2:	1c68      	adds	r0, r5, #1
   270f4:	2253      	movs	r2, #83	@ 0x53
   270f6:	4621      	mov	r1, r4
   270f8:	f004 f804 	bl	2b104 <__aeabi_memcpy>
   270fc:	9802      	ldr	r0, [sp, #8]
   270fe:	7028      	strb	r0, [r5, #0]
   27100:	b025      	add	sp, #148	@ 0x94
   27102:	bdf0      	pop	{r4, r5, r6, r7, pc}
   27104:	df03      	svc	3
   27106:	b025      	add	sp, #148	@ 0x94
   27108:	bdf0      	pop	{r4, r5, r6, r7, pc}
   2710a:	46c0      	nop			@ (mov r8, r8)
   2710c:	00000ec3 	.word	0x00000ec3

00027110 <_ZN20complex_dynamic_type3app17he2001db13b272c55E>:
   27110:	b5f0      	push	{r4, r5, r6, r7, lr}
   27112:	af03      	add	r7, sp, #12
   27114:	b0a1      	sub	sp, #132	@ 0x84
   27116:	9003      	str	r0, [sp, #12]
   27118:	a804      	add	r0, sp, #16
   2711a:	2502      	movs	r5, #2
   2711c:	7005      	strb	r5, [r0, #0]
   2711e:	1c40      	adds	r0, r0, #1
   27120:	9002      	str	r0, [sp, #8]
   27122:	2638      	movs	r6, #56	@ 0x38
   27124:	4632      	mov	r2, r6
   27126:	f003 ffed 	bl	2b104 <__aeabi_memcpy>
   2712a:	ac13      	add	r4, sp, #76	@ 0x4c
   2712c:	1c60      	adds	r0, r4, #1
   2712e:	2134      	movs	r1, #52	@ 0x34
   27130:	9001      	str	r0, [sp, #4]
   27132:	f003 fe27 	bl	2ad84 <__aeabi_memclr>
   27136:	9500      	str	r5, [sp, #0]
   27138:	7025      	strb	r5, [r4, #0]
   2713a:	2097      	movs	r0, #151	@ 0x97
   2713c:	0044      	lsls	r4, r0, #1
   2713e:	2108      	movs	r1, #8
   27140:	4620      	mov	r0, r4
   27142:	9a02      	ldr	r2, [sp, #8]
   27144:	4633      	mov	r3, r6
   27146:	df04      	svc	4
   27148:	2802      	cmp	r0, #2
   2714a:	d104      	bne.n	27156 <_ZN20complex_dynamic_type3app17he2001db13b272c55E+0x46>
   2714c:	2001      	movs	r0, #1
   2714e:	9a03      	ldr	r2, [sp, #12]
   27150:	7010      	strb	r0, [r2, #0]
   27152:	6051      	str	r1, [r2, #4]
   27154:	e02c      	b.n	271b0 <_ZN20complex_dynamic_type3app17he2001db13b272c55E+0xa0>
   27156:	9e03      	ldr	r6, [sp, #12]
   27158:	a804      	add	r0, sp, #16
   2715a:	2104      	movs	r1, #4
   2715c:	7001      	strb	r1, [r0, #0]
   2715e:	2503      	movs	r5, #3
   27160:	2334      	movs	r3, #52	@ 0x34
   27162:	4620      	mov	r0, r4
   27164:	4629      	mov	r1, r5
   27166:	9a01      	ldr	r2, [sp, #4]
   27168:	df03      	svc	3
   2716a:	2802      	cmp	r0, #2
   2716c:	d10e      	bne.n	2718c <_ZN20complex_dynamic_type3app17he2001db13b272c55E+0x7c>
   2716e:	2001      	movs	r0, #1
   27170:	7030      	strb	r0, [r6, #0]
   27172:	6071      	str	r1, [r6, #4]
   27174:	a813      	add	r0, sp, #76	@ 0x4c
   27176:	7800      	ldrb	r0, [r0, #0]
   27178:	2802      	cmp	r0, #2
   2717a:	d019      	beq.n	271b0 <_ZN20complex_dynamic_type3app17he2001db13b272c55E+0xa0>
   2717c:	2803      	cmp	r0, #3
   2717e:	d012      	beq.n	271a6 <_ZN20complex_dynamic_type3app17he2001db13b272c55E+0x96>
   27180:	2103      	movs	r1, #3
   27182:	2200      	movs	r2, #0
   27184:	4620      	mov	r0, r4
   27186:	4613      	mov	r3, r2
   27188:	df04      	svc	4
   2718a:	e011      	b.n	271b0 <_ZN20complex_dynamic_type3app17he2001db13b272c55E+0xa0>
   2718c:	a813      	add	r0, sp, #76	@ 0x4c
   2718e:	7005      	strb	r5, [r0, #0]
   27190:	2108      	movs	r1, #8
   27192:	2300      	movs	r3, #0
   27194:	4620      	mov	r0, r4
   27196:	462a      	mov	r2, r5
   27198:	461d      	mov	r5, r3
   2719a:	df02      	svc	2
   2719c:	2880      	cmp	r0, #128	@ 0x80
   2719e:	d219      	bcs.n	271d4 <_ZN20complex_dynamic_type3app17he2001db13b272c55E+0xc4>
   271a0:	2001      	movs	r0, #1
   271a2:	7030      	strb	r0, [r6, #0]
   271a4:	6071      	str	r1, [r6, #4]
   271a6:	2103      	movs	r1, #3
   271a8:	2200      	movs	r2, #0
   271aa:	4620      	mov	r0, r4
   271ac:	4613      	mov	r3, r2
   271ae:	df03      	svc	3
   271b0:	a804      	add	r0, sp, #16
   271b2:	7800      	ldrb	r0, [r0, #0]
   271b4:	2802      	cmp	r0, #2
   271b6:	d043      	beq.n	27240 <_ZN20complex_dynamic_type3app17he2001db13b272c55E+0x130>
   271b8:	2108      	movs	r1, #8
   271ba:	2200      	movs	r2, #0
   271bc:	2804      	cmp	r0, #4
   271be:	d104      	bne.n	271ca <_ZN20complex_dynamic_type3app17he2001db13b272c55E+0xba>
   271c0:	4620      	mov	r0, r4
   271c2:	4613      	mov	r3, r2
   271c4:	df04      	svc	4
   271c6:	b021      	add	sp, #132	@ 0x84
   271c8:	bdf0      	pop	{r4, r5, r6, r7, pc}
   271ca:	4620      	mov	r0, r4
   271cc:	4613      	mov	r3, r2
   271ce:	df03      	svc	3
   271d0:	b021      	add	sp, #132	@ 0x84
   271d2:	bdf0      	pop	{r4, r5, r6, r7, pc}
   271d4:	a804      	add	r0, sp, #16
   271d6:	7800      	ldrb	r0, [r0, #0]
   271d8:	2802      	cmp	r0, #2
   271da:	d00a      	beq.n	271f2 <_ZN20complex_dynamic_type3app17he2001db13b272c55E+0xe2>
   271dc:	2108      	movs	r1, #8
   271de:	2200      	movs	r2, #0
   271e0:	2803      	cmp	r0, #3
   271e2:	d103      	bne.n	271ec <_ZN20complex_dynamic_type3app17he2001db13b272c55E+0xdc>
   271e4:	4620      	mov	r0, r4
   271e6:	4613      	mov	r3, r2
   271e8:	df03      	svc	3
   271ea:	e002      	b.n	271f2 <_ZN20complex_dynamic_type3app17he2001db13b272c55E+0xe2>
   271ec:	4620      	mov	r0, r4
   271ee:	4613      	mov	r3, r2
   271f0:	df04      	svc	4
   271f2:	a804      	add	r0, sp, #16
   271f4:	9900      	ldr	r1, [sp, #0]
   271f6:	7001      	strb	r1, [r0, #0]
   271f8:	a813      	add	r0, sp, #76	@ 0x4c
   271fa:	7800      	ldrb	r0, [r0, #0]
   271fc:	2804      	cmp	r0, #4
   271fe:	d008      	beq.n	27212 <_ZN20complex_dynamic_type3app17he2001db13b272c55E+0x102>
   27200:	2803      	cmp	r0, #3
   27202:	d11f      	bne.n	27244 <_ZN20complex_dynamic_type3app17he2001db13b272c55E+0x134>
   27204:	2103      	movs	r1, #3
   27206:	2200      	movs	r2, #0
   27208:	9402      	str	r4, [sp, #8]
   2720a:	4620      	mov	r0, r4
   2720c:	4613      	mov	r3, r2
   2720e:	df03      	svc	3
   27210:	e005      	b.n	2721e <_ZN20complex_dynamic_type3app17he2001db13b272c55E+0x10e>
   27212:	2103      	movs	r1, #3
   27214:	2200      	movs	r2, #0
   27216:	9402      	str	r4, [sp, #8]
   27218:	4620      	mov	r0, r4
   2721a:	4613      	mov	r3, r2
   2721c:	df04      	svc	4
   2721e:	a804      	add	r0, sp, #16
   27220:	7804      	ldrb	r4, [r0, #0]
   27222:	1c70      	adds	r0, r6, #1
   27224:	2234      	movs	r2, #52	@ 0x34
   27226:	9901      	ldr	r1, [sp, #4]
   27228:	f003 ff6c 	bl	2b104 <__aeabi_memcpy>
   2722c:	7035      	strb	r5, [r6, #0]
   2722e:	2c02      	cmp	r4, #2
   27230:	d006      	beq.n	27240 <_ZN20complex_dynamic_type3app17he2001db13b272c55E+0x130>
   27232:	2c04      	cmp	r4, #4
   27234:	d10e      	bne.n	27254 <_ZN20complex_dynamic_type3app17he2001db13b272c55E+0x144>
   27236:	2108      	movs	r1, #8
   27238:	2200      	movs	r2, #0
   2723a:	9802      	ldr	r0, [sp, #8]
   2723c:	4613      	mov	r3, r2
   2723e:	df04      	svc	4
   27240:	b021      	add	sp, #132	@ 0x84
   27242:	bdf0      	pop	{r4, r5, r6, r7, pc}
   27244:	9901      	ldr	r1, [sp, #4]
   27246:	1c70      	adds	r0, r6, #1
   27248:	2234      	movs	r2, #52	@ 0x34
   2724a:	f003 ff5b 	bl	2b104 <__aeabi_memcpy>
   2724e:	7035      	strb	r5, [r6, #0]
   27250:	b021      	add	sp, #132	@ 0x84
   27252:	bdf0      	pop	{r4, r5, r6, r7, pc}
   27254:	9802      	ldr	r0, [sp, #8]
   27256:	2108      	movs	r1, #8
   27258:	2200      	movs	r2, #0
   2725a:	4613      	mov	r3, r2
   2725c:	df03      	svc	3
   2725e:	b021      	add	sp, #132	@ 0x84
   27260:	bdf0      	pop	{r4, r5, r6, r7, pc}
   27262:	d4d4      	bmi.n	2720e <_ZN20complex_dynamic_type3app17he2001db13b272c55E+0xfe>

00027264 <_ZN20complex_dynamic_type3app17he27c2dc8c7575843E>:
   27264:	b5f0      	push	{r4, r5, r6, r7, lr}
   27266:	af03      	add	r7, sp, #12
   27268:	b09b      	sub	sp, #108	@ 0x6c
   2726a:	9003      	str	r0, [sp, #12]
   2726c:	a804      	add	r0, sp, #16
   2726e:	2602      	movs	r6, #2
   27270:	7006      	strb	r6, [r0, #0]
   27272:	1c40      	adds	r0, r0, #1
   27274:	9002      	str	r0, [sp, #8]
   27276:	2512      	movs	r5, #18
   27278:	462a      	mov	r2, r5
   2727a:	f003 ff43 	bl	2b104 <__aeabi_memcpy>
   2727e:	ac09      	add	r4, sp, #36	@ 0x24
   27280:	1c60      	adds	r0, r4, #1
   27282:	2144      	movs	r1, #68	@ 0x44
   27284:	9001      	str	r0, [sp, #4]
   27286:	f003 fd7d 	bl	2ad84 <__aeabi_memclr>
   2728a:	7026      	strb	r6, [r4, #0]
   2728c:	484a      	ldr	r0, [pc, #296]	@ (273b8 <_ZN20complex_dynamic_type3app17he27c2dc8c7575843E+0x154>)
   2728e:	4631      	mov	r1, r6
   27290:	9a02      	ldr	r2, [sp, #8]
   27292:	462b      	mov	r3, r5
   27294:	df04      	svc	4
   27296:	2802      	cmp	r0, #2
   27298:	d104      	bne.n	272a4 <_ZN20complex_dynamic_type3app17he27c2dc8c7575843E+0x40>
   2729a:	2001      	movs	r0, #1
   2729c:	9a03      	ldr	r2, [sp, #12]
   2729e:	7010      	strb	r0, [r2, #0]
   272a0:	6051      	str	r1, [r2, #4]
   272a2:	e02e      	b.n	27302 <_ZN20complex_dynamic_type3app17he27c2dc8c7575843E+0x9e>
   272a4:	9d03      	ldr	r5, [sp, #12]
   272a6:	a804      	add	r0, sp, #16
   272a8:	2104      	movs	r1, #4
   272aa:	7001      	strb	r1, [r0, #0]
   272ac:	4842      	ldr	r0, [pc, #264]	@ (273b8 <_ZN20complex_dynamic_type3app17he27c2dc8c7575843E+0x154>)
   272ae:	2109      	movs	r1, #9
   272b0:	2344      	movs	r3, #68	@ 0x44
   272b2:	9c01      	ldr	r4, [sp, #4]
   272b4:	4622      	mov	r2, r4
   272b6:	df03      	svc	3
   272b8:	2802      	cmp	r0, #2
   272ba:	d10e      	bne.n	272da <_ZN20complex_dynamic_type3app17he27c2dc8c7575843E+0x76>
   272bc:	2001      	movs	r0, #1
   272be:	7028      	strb	r0, [r5, #0]
   272c0:	6069      	str	r1, [r5, #4]
   272c2:	a809      	add	r0, sp, #36	@ 0x24
   272c4:	7800      	ldrb	r0, [r0, #0]
   272c6:	2802      	cmp	r0, #2
   272c8:	d01b      	beq.n	27302 <_ZN20complex_dynamic_type3app17he27c2dc8c7575843E+0x9e>
   272ca:	2803      	cmp	r0, #3
   272cc:	d014      	beq.n	272f8 <_ZN20complex_dynamic_type3app17he27c2dc8c7575843E+0x94>
   272ce:	483a      	ldr	r0, [pc, #232]	@ (273b8 <_ZN20complex_dynamic_type3app17he27c2dc8c7575843E+0x154>)
   272d0:	2109      	movs	r1, #9
   272d2:	2200      	movs	r2, #0
   272d4:	4613      	mov	r3, r2
   272d6:	df04      	svc	4
   272d8:	e013      	b.n	27302 <_ZN20complex_dynamic_type3app17he27c2dc8c7575843E+0x9e>
   272da:	a809      	add	r0, sp, #36	@ 0x24
   272dc:	2103      	movs	r1, #3
   272de:	7001      	strb	r1, [r0, #0]
   272e0:	4835      	ldr	r0, [pc, #212]	@ (273b8 <_ZN20complex_dynamic_type3app17he27c2dc8c7575843E+0x154>)
   272e2:	2602      	movs	r6, #2
   272e4:	2209      	movs	r2, #9
   272e6:	2300      	movs	r3, #0
   272e8:	4631      	mov	r1, r6
   272ea:	9302      	str	r3, [sp, #8]
   272ec:	df02      	svc	2
   272ee:	2880      	cmp	r0, #128	@ 0x80
   272f0:	d21b      	bcs.n	2732a <_ZN20complex_dynamic_type3app17he27c2dc8c7575843E+0xc6>
   272f2:	2001      	movs	r0, #1
   272f4:	7028      	strb	r0, [r5, #0]
   272f6:	6069      	str	r1, [r5, #4]
   272f8:	482f      	ldr	r0, [pc, #188]	@ (273b8 <_ZN20complex_dynamic_type3app17he27c2dc8c7575843E+0x154>)
   272fa:	2109      	movs	r1, #9
   272fc:	2200      	movs	r2, #0
   272fe:	4613      	mov	r3, r2
   27300:	df03      	svc	3
   27302:	a804      	add	r0, sp, #16
   27304:	7800      	ldrb	r0, [r0, #0]
   27306:	2802      	cmp	r0, #2
   27308:	d047      	beq.n	2739a <_ZN20complex_dynamic_type3app17he27c2dc8c7575843E+0x136>
   2730a:	2804      	cmp	r0, #4
   2730c:	d106      	bne.n	2731c <_ZN20complex_dynamic_type3app17he27c2dc8c7575843E+0xb8>
   2730e:	482a      	ldr	r0, [pc, #168]	@ (273b8 <_ZN20complex_dynamic_type3app17he27c2dc8c7575843E+0x154>)
   27310:	2102      	movs	r1, #2
   27312:	2200      	movs	r2, #0
   27314:	4613      	mov	r3, r2
   27316:	df04      	svc	4
   27318:	b01b      	add	sp, #108	@ 0x6c
   2731a:	bdf0      	pop	{r4, r5, r6, r7, pc}
   2731c:	4826      	ldr	r0, [pc, #152]	@ (273b8 <_ZN20complex_dynamic_type3app17he27c2dc8c7575843E+0x154>)
   2731e:	2102      	movs	r1, #2
   27320:	2200      	movs	r2, #0
   27322:	4613      	mov	r3, r2
   27324:	df03      	svc	3
   27326:	b01b      	add	sp, #108	@ 0x6c
   27328:	bdf0      	pop	{r4, r5, r6, r7, pc}
   2732a:	a804      	add	r0, sp, #16
   2732c:	7800      	ldrb	r0, [r0, #0]
   2732e:	2802      	cmp	r0, #2
   27330:	d00c      	beq.n	2734c <_ZN20complex_dynamic_type3app17he27c2dc8c7575843E+0xe8>
   27332:	2803      	cmp	r0, #3
   27334:	d105      	bne.n	27342 <_ZN20complex_dynamic_type3app17he27c2dc8c7575843E+0xde>
   27336:	4820      	ldr	r0, [pc, #128]	@ (273b8 <_ZN20complex_dynamic_type3app17he27c2dc8c7575843E+0x154>)
   27338:	2102      	movs	r1, #2
   2733a:	2200      	movs	r2, #0
   2733c:	4613      	mov	r3, r2
   2733e:	df03      	svc	3
   27340:	e004      	b.n	2734c <_ZN20complex_dynamic_type3app17he27c2dc8c7575843E+0xe8>
   27342:	481d      	ldr	r0, [pc, #116]	@ (273b8 <_ZN20complex_dynamic_type3app17he27c2dc8c7575843E+0x154>)
   27344:	2102      	movs	r1, #2
   27346:	2200      	movs	r2, #0
   27348:	4613      	mov	r3, r2
   2734a:	df04      	svc	4
   2734c:	a804      	add	r0, sp, #16
   2734e:	7006      	strb	r6, [r0, #0]
   27350:	a809      	add	r0, sp, #36	@ 0x24
   27352:	7800      	ldrb	r0, [r0, #0]
   27354:	2804      	cmp	r0, #4
   27356:	d008      	beq.n	2736a <_ZN20complex_dynamic_type3app17he27c2dc8c7575843E+0x106>
   27358:	2803      	cmp	r0, #3
   2735a:	d120      	bne.n	2739e <_ZN20complex_dynamic_type3app17he27c2dc8c7575843E+0x13a>
   2735c:	4626      	mov	r6, r4
   2735e:	4816      	ldr	r0, [pc, #88]	@ (273b8 <_ZN20complex_dynamic_type3app17he27c2dc8c7575843E+0x154>)
   27360:	2109      	movs	r1, #9
   27362:	2200      	movs	r2, #0
   27364:	4613      	mov	r3, r2
   27366:	df03      	svc	3
   27368:	e005      	b.n	27376 <_ZN20complex_dynamic_type3app17he27c2dc8c7575843E+0x112>
   2736a:	4626      	mov	r6, r4
   2736c:	4812      	ldr	r0, [pc, #72]	@ (273b8 <_ZN20complex_dynamic_type3app17he27c2dc8c7575843E+0x154>)
   2736e:	2109      	movs	r1, #9
   27370:	2200      	movs	r2, #0
   27372:	4613      	mov	r3, r2
   27374:	df04      	svc	4
   27376:	a804      	add	r0, sp, #16
   27378:	7804      	ldrb	r4, [r0, #0]
   2737a:	1c68      	adds	r0, r5, #1
   2737c:	2244      	movs	r2, #68	@ 0x44
   2737e:	4631      	mov	r1, r6
   27380:	f003 fec0 	bl	2b104 <__aeabi_memcpy>
   27384:	9802      	ldr	r0, [sp, #8]
   27386:	7028      	strb	r0, [r5, #0]
   27388:	2c02      	cmp	r4, #2
   2738a:	d006      	beq.n	2739a <_ZN20complex_dynamic_type3app17he27c2dc8c7575843E+0x136>
   2738c:	480a      	ldr	r0, [pc, #40]	@ (273b8 <_ZN20complex_dynamic_type3app17he27c2dc8c7575843E+0x154>)
   2738e:	2102      	movs	r1, #2
   27390:	2200      	movs	r2, #0
   27392:	4613      	mov	r3, r2
   27394:	2c04      	cmp	r4, #4
   27396:	d10b      	bne.n	273b0 <_ZN20complex_dynamic_type3app17he27c2dc8c7575843E+0x14c>
   27398:	df04      	svc	4
   2739a:	b01b      	add	sp, #108	@ 0x6c
   2739c:	bdf0      	pop	{r4, r5, r6, r7, pc}
   2739e:	1c68      	adds	r0, r5, #1
   273a0:	2244      	movs	r2, #68	@ 0x44
   273a2:	4621      	mov	r1, r4
   273a4:	f003 feae 	bl	2b104 <__aeabi_memcpy>
   273a8:	9802      	ldr	r0, [sp, #8]
   273aa:	7028      	strb	r0, [r5, #0]
   273ac:	b01b      	add	sp, #108	@ 0x6c
   273ae:	bdf0      	pop	{r4, r5, r6, r7, pc}
   273b0:	df03      	svc	3
   273b2:	b01b      	add	sp, #108	@ 0x6c
   273b4:	bdf0      	pop	{r4, r5, r6, r7, pc}
   273b6:	46c0      	nop			@ (mov r8, r8)
   273b8:	00002432 	.word	0x00002432

000273bc <_ZN20complex_dynamic_type3app17he7f03e0dea92096cE>:
   273bc:	b5f0      	push	{r4, r5, r6, r7, lr}
   273be:	af03      	add	r7, sp, #12
   273c0:	b0a1      	sub	sp, #132	@ 0x84
   273c2:	9004      	str	r0, [sp, #16]
   273c4:	a805      	add	r0, sp, #20
   273c6:	2402      	movs	r4, #2
   273c8:	7004      	strb	r4, [r0, #0]
   273ca:	1c46      	adds	r6, r0, #1
   273cc:	2249      	movs	r2, #73	@ 0x49
   273ce:	9203      	str	r2, [sp, #12]
   273d0:	4630      	mov	r0, r6
   273d2:	f003 fe97 	bl	2b104 <__aeabi_memcpy>
   273d6:	ad18      	add	r5, sp, #96	@ 0x60
   273d8:	1c68      	adds	r0, r5, #1
   273da:	2123      	movs	r1, #35	@ 0x23
   273dc:	9002      	str	r0, [sp, #8]
   273de:	f003 fcd1 	bl	2ad84 <__aeabi_memclr>
   273e2:	9401      	str	r4, [sp, #4]
   273e4:	702c      	strb	r4, [r5, #0]
   273e6:	4848      	ldr	r0, [pc, #288]	@ (27508 <_ZN20complex_dynamic_type3app17he7f03e0dea92096cE+0x14c>)
   273e8:	2107      	movs	r1, #7
   273ea:	4632      	mov	r2, r6
   273ec:	9b03      	ldr	r3, [sp, #12]
   273ee:	df04      	svc	4
   273f0:	2802      	cmp	r0, #2
   273f2:	d104      	bne.n	273fe <_ZN20complex_dynamic_type3app17he7f03e0dea92096cE+0x42>
   273f4:	2001      	movs	r0, #1
   273f6:	9a04      	ldr	r2, [sp, #16]
   273f8:	7010      	strb	r0, [r2, #0]
   273fa:	6051      	str	r1, [r2, #4]
   273fc:	e02c      	b.n	27458 <_ZN20complex_dynamic_type3app17he7f03e0dea92096cE+0x9c>
   273fe:	9d04      	ldr	r5, [sp, #16]
   27400:	a805      	add	r0, sp, #20
   27402:	2104      	movs	r1, #4
   27404:	7001      	strb	r1, [r0, #0]
   27406:	4840      	ldr	r0, [pc, #256]	@ (27508 <_ZN20complex_dynamic_type3app17he7f03e0dea92096cE+0x14c>)
   27408:	2401      	movs	r4, #1
   2740a:	2323      	movs	r3, #35	@ 0x23
   2740c:	4621      	mov	r1, r4
   2740e:	9a02      	ldr	r2, [sp, #8]
   27410:	df03      	svc	3
   27412:	2802      	cmp	r0, #2
   27414:	d10d      	bne.n	27432 <_ZN20complex_dynamic_type3app17he7f03e0dea92096cE+0x76>
   27416:	702c      	strb	r4, [r5, #0]
   27418:	6069      	str	r1, [r5, #4]
   2741a:	a818      	add	r0, sp, #96	@ 0x60
   2741c:	7800      	ldrb	r0, [r0, #0]
   2741e:	2802      	cmp	r0, #2
   27420:	d01a      	beq.n	27458 <_ZN20complex_dynamic_type3app17he7f03e0dea92096cE+0x9c>
   27422:	2803      	cmp	r0, #3
   27424:	d013      	beq.n	2744e <_ZN20complex_dynamic_type3app17he7f03e0dea92096cE+0x92>
   27426:	4838      	ldr	r0, [pc, #224]	@ (27508 <_ZN20complex_dynamic_type3app17he7f03e0dea92096cE+0x14c>)
   27428:	2101      	movs	r1, #1
   2742a:	2200      	movs	r2, #0
   2742c:	4613      	mov	r3, r2
   2742e:	df04      	svc	4
   27430:	e012      	b.n	27458 <_ZN20complex_dynamic_type3app17he7f03e0dea92096cE+0x9c>
   27432:	a818      	add	r0, sp, #96	@ 0x60
   27434:	2103      	movs	r1, #3
   27436:	7001      	strb	r1, [r0, #0]
   27438:	4833      	ldr	r0, [pc, #204]	@ (27508 <_ZN20complex_dynamic_type3app17he7f03e0dea92096cE+0x14c>)
   2743a:	2107      	movs	r1, #7
   2743c:	2401      	movs	r4, #1
   2743e:	2600      	movs	r6, #0
   27440:	4622      	mov	r2, r4
   27442:	4633      	mov	r3, r6
   27444:	df02      	svc	2
   27446:	2880      	cmp	r0, #128	@ 0x80
   27448:	d21a      	bcs.n	27480 <_ZN20complex_dynamic_type3app17he7f03e0dea92096cE+0xc4>
   2744a:	702c      	strb	r4, [r5, #0]
   2744c:	6069      	str	r1, [r5, #4]
   2744e:	482e      	ldr	r0, [pc, #184]	@ (27508 <_ZN20complex_dynamic_type3app17he7f03e0dea92096cE+0x14c>)
   27450:	2101      	movs	r1, #1
   27452:	2200      	movs	r2, #0
   27454:	4613      	mov	r3, r2
   27456:	df03      	svc	3
   27458:	a805      	add	r0, sp, #20
   2745a:	7800      	ldrb	r0, [r0, #0]
   2745c:	2802      	cmp	r0, #2
   2745e:	d045      	beq.n	274ec <_ZN20complex_dynamic_type3app17he7f03e0dea92096cE+0x130>
   27460:	2804      	cmp	r0, #4
   27462:	d106      	bne.n	27472 <_ZN20complex_dynamic_type3app17he7f03e0dea92096cE+0xb6>
   27464:	4828      	ldr	r0, [pc, #160]	@ (27508 <_ZN20complex_dynamic_type3app17he7f03e0dea92096cE+0x14c>)
   27466:	2107      	movs	r1, #7
   27468:	2200      	movs	r2, #0
   2746a:	4613      	mov	r3, r2
   2746c:	df04      	svc	4
   2746e:	b021      	add	sp, #132	@ 0x84
   27470:	bdf0      	pop	{r4, r5, r6, r7, pc}
   27472:	4825      	ldr	r0, [pc, #148]	@ (27508 <_ZN20complex_dynamic_type3app17he7f03e0dea92096cE+0x14c>)
   27474:	2107      	movs	r1, #7
   27476:	2200      	movs	r2, #0
   27478:	4613      	mov	r3, r2
   2747a:	df03      	svc	3
   2747c:	b021      	add	sp, #132	@ 0x84
   2747e:	bdf0      	pop	{r4, r5, r6, r7, pc}
   27480:	a805      	add	r0, sp, #20
   27482:	7800      	ldrb	r0, [r0, #0]
   27484:	2802      	cmp	r0, #2
   27486:	d00c      	beq.n	274a2 <_ZN20complex_dynamic_type3app17he7f03e0dea92096cE+0xe6>
   27488:	2803      	cmp	r0, #3
   2748a:	d105      	bne.n	27498 <_ZN20complex_dynamic_type3app17he7f03e0dea92096cE+0xdc>
   2748c:	481e      	ldr	r0, [pc, #120]	@ (27508 <_ZN20complex_dynamic_type3app17he7f03e0dea92096cE+0x14c>)
   2748e:	2107      	movs	r1, #7
   27490:	2200      	movs	r2, #0
   27492:	4613      	mov	r3, r2
   27494:	df03      	svc	3
   27496:	e004      	b.n	274a2 <_ZN20complex_dynamic_type3app17he7f03e0dea92096cE+0xe6>
   27498:	481b      	ldr	r0, [pc, #108]	@ (27508 <_ZN20complex_dynamic_type3app17he7f03e0dea92096cE+0x14c>)
   2749a:	2107      	movs	r1, #7
   2749c:	2200      	movs	r2, #0
   2749e:	4613      	mov	r3, r2
   274a0:	df04      	svc	4
   274a2:	a805      	add	r0, sp, #20
   274a4:	9901      	ldr	r1, [sp, #4]
   274a6:	7001      	strb	r1, [r0, #0]
   274a8:	a818      	add	r0, sp, #96	@ 0x60
   274aa:	7800      	ldrb	r0, [r0, #0]
   274ac:	2804      	cmp	r0, #4
   274ae:	d007      	beq.n	274c0 <_ZN20complex_dynamic_type3app17he7f03e0dea92096cE+0x104>
   274b0:	2803      	cmp	r0, #3
   274b2:	d11d      	bne.n	274f0 <_ZN20complex_dynamic_type3app17he7f03e0dea92096cE+0x134>
   274b4:	4814      	ldr	r0, [pc, #80]	@ (27508 <_ZN20complex_dynamic_type3app17he7f03e0dea92096cE+0x14c>)
   274b6:	2101      	movs	r1, #1
   274b8:	2200      	movs	r2, #0
   274ba:	4613      	mov	r3, r2
   274bc:	df03      	svc	3
   274be:	e004      	b.n	274ca <_ZN20complex_dynamic_type3app17he7f03e0dea92096cE+0x10e>
   274c0:	4811      	ldr	r0, [pc, #68]	@ (27508 <_ZN20complex_dynamic_type3app17he7f03e0dea92096cE+0x14c>)
   274c2:	2101      	movs	r1, #1
   274c4:	2200      	movs	r2, #0
   274c6:	4613      	mov	r3, r2
   274c8:	df04      	svc	4
   274ca:	a805      	add	r0, sp, #20
   274cc:	7804      	ldrb	r4, [r0, #0]
   274ce:	1c68      	adds	r0, r5, #1
   274d0:	2223      	movs	r2, #35	@ 0x23
   274d2:	9902      	ldr	r1, [sp, #8]
   274d4:	f003 fe16 	bl	2b104 <__aeabi_memcpy>
   274d8:	702e      	strb	r6, [r5, #0]
   274da:	2c02      	cmp	r4, #2
   274dc:	d006      	beq.n	274ec <_ZN20complex_dynamic_type3app17he7f03e0dea92096cE+0x130>
   274de:	480a      	ldr	r0, [pc, #40]	@ (27508 <_ZN20complex_dynamic_type3app17he7f03e0dea92096cE+0x14c>)
   274e0:	2107      	movs	r1, #7
   274e2:	2200      	movs	r2, #0
   274e4:	4613      	mov	r3, r2
   274e6:	2c04      	cmp	r4, #4
   274e8:	d10a      	bne.n	27500 <_ZN20complex_dynamic_type3app17he7f03e0dea92096cE+0x144>
   274ea:	df04      	svc	4
   274ec:	b021      	add	sp, #132	@ 0x84
   274ee:	bdf0      	pop	{r4, r5, r6, r7, pc}
   274f0:	1c68      	adds	r0, r5, #1
   274f2:	2223      	movs	r2, #35	@ 0x23
   274f4:	9902      	ldr	r1, [sp, #8]
   274f6:	f003 fe05 	bl	2b104 <__aeabi_memcpy>
   274fa:	702e      	strb	r6, [r5, #0]
   274fc:	b021      	add	sp, #132	@ 0x84
   274fe:	bdf0      	pop	{r4, r5, r6, r7, pc}
   27500:	df03      	svc	3
   27502:	b021      	add	sp, #132	@ 0x84
   27504:	bdf0      	pop	{r4, r5, r6, r7, pc}
   27506:	46c0      	nop			@ (mov r8, r8)
   27508:	00001551 	.word	0x00001551

0002750c <_ZN20complex_dynamic_type3app17hf0999444ce48ec15E>:
   2750c:	b5f0      	push	{r4, r5, r6, r7, lr}
   2750e:	af03      	add	r7, sp, #12
   27510:	b09b      	sub	sp, #108	@ 0x6c
   27512:	9003      	str	r0, [sp, #12]
   27514:	a804      	add	r0, sp, #16
   27516:	2402      	movs	r4, #2
   27518:	7004      	strb	r4, [r0, #0]
   2751a:	1c40      	adds	r0, r0, #1
   2751c:	9002      	str	r0, [sp, #8]
   2751e:	250e      	movs	r5, #14
   27520:	462a      	mov	r2, r5
   27522:	f003 fdef 	bl	2b104 <__aeabi_memcpy>
   27526:	ae08      	add	r6, sp, #32
   27528:	1c70      	adds	r0, r6, #1
   2752a:	2148      	movs	r1, #72	@ 0x48
   2752c:	9001      	str	r0, [sp, #4]
   2752e:	f003 fc29 	bl	2ad84 <__aeabi_memclr>
   27532:	9400      	str	r4, [sp, #0]
   27534:	7034      	strb	r4, [r6, #0]
   27536:	484a      	ldr	r0, [pc, #296]	@ (27660 <_ZN20complex_dynamic_type3app17hf0999444ce48ec15E+0x154>)
   27538:	2603      	movs	r6, #3
   2753a:	4631      	mov	r1, r6
   2753c:	9a02      	ldr	r2, [sp, #8]
   2753e:	462b      	mov	r3, r5
   27540:	df04      	svc	4
   27542:	2802      	cmp	r0, #2
   27544:	d104      	bne.n	27550 <_ZN20complex_dynamic_type3app17hf0999444ce48ec15E+0x44>
   27546:	2001      	movs	r0, #1
   27548:	9a03      	ldr	r2, [sp, #12]
   2754a:	7010      	strb	r0, [r2, #0]
   2754c:	6051      	str	r1, [r2, #4]
   2754e:	e02c      	b.n	275aa <_ZN20complex_dynamic_type3app17hf0999444ce48ec15E+0x9e>
   27550:	9d03      	ldr	r5, [sp, #12]
   27552:	a804      	add	r0, sp, #16
   27554:	2104      	movs	r1, #4
   27556:	7001      	strb	r1, [r0, #0]
   27558:	4841      	ldr	r0, [pc, #260]	@ (27660 <_ZN20complex_dynamic_type3app17hf0999444ce48ec15E+0x154>)
   2755a:	2108      	movs	r1, #8
   2755c:	2348      	movs	r3, #72	@ 0x48
   2755e:	9c01      	ldr	r4, [sp, #4]
   27560:	4622      	mov	r2, r4
   27562:	df03      	svc	3
   27564:	2802      	cmp	r0, #2
   27566:	d10e      	bne.n	27586 <_ZN20complex_dynamic_type3app17hf0999444ce48ec15E+0x7a>
   27568:	2001      	movs	r0, #1
   2756a:	7028      	strb	r0, [r5, #0]
   2756c:	6069      	str	r1, [r5, #4]
   2756e:	a808      	add	r0, sp, #32
   27570:	7800      	ldrb	r0, [r0, #0]
   27572:	2802      	cmp	r0, #2
   27574:	d019      	beq.n	275aa <_ZN20complex_dynamic_type3app17hf0999444ce48ec15E+0x9e>
   27576:	2803      	cmp	r0, #3
   27578:	d012      	beq.n	275a0 <_ZN20complex_dynamic_type3app17hf0999444ce48ec15E+0x94>
   2757a:	4839      	ldr	r0, [pc, #228]	@ (27660 <_ZN20complex_dynamic_type3app17hf0999444ce48ec15E+0x154>)
   2757c:	2108      	movs	r1, #8
   2757e:	2200      	movs	r2, #0
   27580:	4613      	mov	r3, r2
   27582:	df04      	svc	4
   27584:	e011      	b.n	275aa <_ZN20complex_dynamic_type3app17hf0999444ce48ec15E+0x9e>
   27586:	a808      	add	r0, sp, #32
   27588:	7006      	strb	r6, [r0, #0]
   2758a:	4835      	ldr	r0, [pc, #212]	@ (27660 <_ZN20complex_dynamic_type3app17hf0999444ce48ec15E+0x154>)
   2758c:	2208      	movs	r2, #8
   2758e:	2300      	movs	r3, #0
   27590:	4631      	mov	r1, r6
   27592:	9302      	str	r3, [sp, #8]
   27594:	df02      	svc	2
   27596:	2880      	cmp	r0, #128	@ 0x80
   27598:	d21b      	bcs.n	275d2 <_ZN20complex_dynamic_type3app17hf0999444ce48ec15E+0xc6>
   2759a:	2001      	movs	r0, #1
   2759c:	7028      	strb	r0, [r5, #0]
   2759e:	6069      	str	r1, [r5, #4]
   275a0:	482f      	ldr	r0, [pc, #188]	@ (27660 <_ZN20complex_dynamic_type3app17hf0999444ce48ec15E+0x154>)
   275a2:	2108      	movs	r1, #8
   275a4:	2200      	movs	r2, #0
   275a6:	4613      	mov	r3, r2
   275a8:	df03      	svc	3
   275aa:	a804      	add	r0, sp, #16
   275ac:	7800      	ldrb	r0, [r0, #0]
   275ae:	2802      	cmp	r0, #2
   275b0:	d048      	beq.n	27644 <_ZN20complex_dynamic_type3app17hf0999444ce48ec15E+0x138>
   275b2:	2804      	cmp	r0, #4
   275b4:	d106      	bne.n	275c4 <_ZN20complex_dynamic_type3app17hf0999444ce48ec15E+0xb8>
   275b6:	482a      	ldr	r0, [pc, #168]	@ (27660 <_ZN20complex_dynamic_type3app17hf0999444ce48ec15E+0x154>)
   275b8:	2103      	movs	r1, #3
   275ba:	2200      	movs	r2, #0
   275bc:	4613      	mov	r3, r2
   275be:	df04      	svc	4
   275c0:	b01b      	add	sp, #108	@ 0x6c
   275c2:	bdf0      	pop	{r4, r5, r6, r7, pc}
   275c4:	4826      	ldr	r0, [pc, #152]	@ (27660 <_ZN20complex_dynamic_type3app17hf0999444ce48ec15E+0x154>)
   275c6:	2103      	movs	r1, #3
   275c8:	2200      	movs	r2, #0
   275ca:	4613      	mov	r3, r2
   275cc:	df03      	svc	3
   275ce:	b01b      	add	sp, #108	@ 0x6c
   275d0:	bdf0      	pop	{r4, r5, r6, r7, pc}
   275d2:	a804      	add	r0, sp, #16
   275d4:	7800      	ldrb	r0, [r0, #0]
   275d6:	2802      	cmp	r0, #2
   275d8:	d00c      	beq.n	275f4 <_ZN20complex_dynamic_type3app17hf0999444ce48ec15E+0xe8>
   275da:	2803      	cmp	r0, #3
   275dc:	d105      	bne.n	275ea <_ZN20complex_dynamic_type3app17hf0999444ce48ec15E+0xde>
   275de:	4820      	ldr	r0, [pc, #128]	@ (27660 <_ZN20complex_dynamic_type3app17hf0999444ce48ec15E+0x154>)
   275e0:	2103      	movs	r1, #3
   275e2:	2200      	movs	r2, #0
   275e4:	4613      	mov	r3, r2
   275e6:	df03      	svc	3
   275e8:	e004      	b.n	275f4 <_ZN20complex_dynamic_type3app17hf0999444ce48ec15E+0xe8>
   275ea:	481d      	ldr	r0, [pc, #116]	@ (27660 <_ZN20complex_dynamic_type3app17hf0999444ce48ec15E+0x154>)
   275ec:	2103      	movs	r1, #3
   275ee:	2200      	movs	r2, #0
   275f0:	4613      	mov	r3, r2
   275f2:	df04      	svc	4
   275f4:	a804      	add	r0, sp, #16
   275f6:	9900      	ldr	r1, [sp, #0]
   275f8:	7001      	strb	r1, [r0, #0]
   275fa:	a808      	add	r0, sp, #32
   275fc:	7800      	ldrb	r0, [r0, #0]
   275fe:	2804      	cmp	r0, #4
   27600:	d008      	beq.n	27614 <_ZN20complex_dynamic_type3app17hf0999444ce48ec15E+0x108>
   27602:	2803      	cmp	r0, #3
   27604:	d120      	bne.n	27648 <_ZN20complex_dynamic_type3app17hf0999444ce48ec15E+0x13c>
   27606:	4626      	mov	r6, r4
   27608:	4815      	ldr	r0, [pc, #84]	@ (27660 <_ZN20complex_dynamic_type3app17hf0999444ce48ec15E+0x154>)
   2760a:	2108      	movs	r1, #8
   2760c:	2200      	movs	r2, #0
   2760e:	4613      	mov	r3, r2
   27610:	df03      	svc	3
   27612:	e005      	b.n	27620 <_ZN20complex_dynamic_type3app17hf0999444ce48ec15E+0x114>
   27614:	4626      	mov	r6, r4
   27616:	4812      	ldr	r0, [pc, #72]	@ (27660 <_ZN20complex_dynamic_type3app17hf0999444ce48ec15E+0x154>)
   27618:	2108      	movs	r1, #8
   2761a:	2200      	movs	r2, #0
   2761c:	4613      	mov	r3, r2
   2761e:	df04      	svc	4
   27620:	a804      	add	r0, sp, #16
   27622:	7804      	ldrb	r4, [r0, #0]
   27624:	1c68      	adds	r0, r5, #1
   27626:	2248      	movs	r2, #72	@ 0x48
   27628:	4631      	mov	r1, r6
   2762a:	f003 fd6b 	bl	2b104 <__aeabi_memcpy>
   2762e:	9802      	ldr	r0, [sp, #8]
   27630:	7028      	strb	r0, [r5, #0]
   27632:	2c02      	cmp	r4, #2
   27634:	d006      	beq.n	27644 <_ZN20complex_dynamic_type3app17hf0999444ce48ec15E+0x138>
   27636:	480a      	ldr	r0, [pc, #40]	@ (27660 <_ZN20complex_dynamic_type3app17hf0999444ce48ec15E+0x154>)
   27638:	2103      	movs	r1, #3
   2763a:	2200      	movs	r2, #0
   2763c:	4613      	mov	r3, r2
   2763e:	2c04      	cmp	r4, #4
   27640:	d10b      	bne.n	2765a <_ZN20complex_dynamic_type3app17hf0999444ce48ec15E+0x14e>
   27642:	df04      	svc	4
   27644:	b01b      	add	sp, #108	@ 0x6c
   27646:	bdf0      	pop	{r4, r5, r6, r7, pc}
   27648:	1c68      	adds	r0, r5, #1
   2764a:	2248      	movs	r2, #72	@ 0x48
   2764c:	4621      	mov	r1, r4
   2764e:	f003 fd59 	bl	2b104 <__aeabi_memcpy>
   27652:	9802      	ldr	r0, [sp, #8]
   27654:	7028      	strb	r0, [r5, #0]
   27656:	b01b      	add	sp, #108	@ 0x6c
   27658:	bdf0      	pop	{r4, r5, r6, r7, pc}
   2765a:	df03      	svc	3
   2765c:	b01b      	add	sp, #108	@ 0x6c
   2765e:	bdf0      	pop	{r4, r5, r6, r7, pc}
   27660:	000012d1 	.word	0x000012d1

00027664 <_ZN20complex_dynamic_type3app17hf1228079c3e9d9d1E>:
   27664:	b5f0      	push	{r4, r5, r6, r7, lr}
   27666:	af03      	add	r7, sp, #12
   27668:	b0a1      	sub	sp, #132	@ 0x84
   2766a:	9003      	str	r0, [sp, #12]
   2766c:	a804      	add	r0, sp, #16
   2766e:	2602      	movs	r6, #2
   27670:	7006      	strb	r6, [r0, #0]
   27672:	1c40      	adds	r0, r0, #1
   27674:	9002      	str	r0, [sp, #8]
   27676:	251e      	movs	r5, #30
   27678:	462a      	mov	r2, r5
   2767a:	f003 fd43 	bl	2b104 <__aeabi_memcpy>
   2767e:	ac0c      	add	r4, sp, #48	@ 0x30
   27680:	1c60      	adds	r0, r4, #1
   27682:	2151      	movs	r1, #81	@ 0x51
   27684:	9001      	str	r0, [sp, #4]
   27686:	f003 fb7d 	bl	2ad84 <__aeabi_memclr>
   2768a:	7026      	strb	r6, [r4, #0]
   2768c:	484a      	ldr	r0, [pc, #296]	@ (277b8 <_ZN20complex_dynamic_type3app17hf1228079c3e9d9d1E+0x154>)
   2768e:	4631      	mov	r1, r6
   27690:	9a02      	ldr	r2, [sp, #8]
   27692:	462b      	mov	r3, r5
   27694:	df04      	svc	4
   27696:	2802      	cmp	r0, #2
   27698:	d104      	bne.n	276a4 <_ZN20complex_dynamic_type3app17hf1228079c3e9d9d1E+0x40>
   2769a:	2001      	movs	r0, #1
   2769c:	9a03      	ldr	r2, [sp, #12]
   2769e:	7010      	strb	r0, [r2, #0]
   276a0:	6051      	str	r1, [r2, #4]
   276a2:	e02e      	b.n	27702 <_ZN20complex_dynamic_type3app17hf1228079c3e9d9d1E+0x9e>
   276a4:	9d03      	ldr	r5, [sp, #12]
   276a6:	a804      	add	r0, sp, #16
   276a8:	2104      	movs	r1, #4
   276aa:	7001      	strb	r1, [r0, #0]
   276ac:	4842      	ldr	r0, [pc, #264]	@ (277b8 <_ZN20complex_dynamic_type3app17hf1228079c3e9d9d1E+0x154>)
   276ae:	2100      	movs	r1, #0
   276b0:	2351      	movs	r3, #81	@ 0x51
   276b2:	9c01      	ldr	r4, [sp, #4]
   276b4:	4622      	mov	r2, r4
   276b6:	df03      	svc	3
   276b8:	2802      	cmp	r0, #2
   276ba:	d10e      	bne.n	276da <_ZN20complex_dynamic_type3app17hf1228079c3e9d9d1E+0x76>
   276bc:	2001      	movs	r0, #1
   276be:	7028      	strb	r0, [r5, #0]
   276c0:	6069      	str	r1, [r5, #4]
   276c2:	a80c      	add	r0, sp, #48	@ 0x30
   276c4:	7800      	ldrb	r0, [r0, #0]
   276c6:	2802      	cmp	r0, #2
   276c8:	d01b      	beq.n	27702 <_ZN20complex_dynamic_type3app17hf1228079c3e9d9d1E+0x9e>
   276ca:	2803      	cmp	r0, #3
   276cc:	d014      	beq.n	276f8 <_ZN20complex_dynamic_type3app17hf1228079c3e9d9d1E+0x94>
   276ce:	483a      	ldr	r0, [pc, #232]	@ (277b8 <_ZN20complex_dynamic_type3app17hf1228079c3e9d9d1E+0x154>)
   276d0:	2100      	movs	r1, #0
   276d2:	460a      	mov	r2, r1
   276d4:	460b      	mov	r3, r1
   276d6:	df04      	svc	4
   276d8:	e013      	b.n	27702 <_ZN20complex_dynamic_type3app17hf1228079c3e9d9d1E+0x9e>
   276da:	a80c      	add	r0, sp, #48	@ 0x30
   276dc:	2103      	movs	r1, #3
   276de:	7001      	strb	r1, [r0, #0]
   276e0:	4835      	ldr	r0, [pc, #212]	@ (277b8 <_ZN20complex_dynamic_type3app17hf1228079c3e9d9d1E+0x154>)
   276e2:	2602      	movs	r6, #2
   276e4:	2200      	movs	r2, #0
   276e6:	4631      	mov	r1, r6
   276e8:	9202      	str	r2, [sp, #8]
   276ea:	4613      	mov	r3, r2
   276ec:	df02      	svc	2
   276ee:	2880      	cmp	r0, #128	@ 0x80
   276f0:	d21b      	bcs.n	2772a <_ZN20complex_dynamic_type3app17hf1228079c3e9d9d1E+0xc6>
   276f2:	2001      	movs	r0, #1
   276f4:	7028      	strb	r0, [r5, #0]
   276f6:	6069      	str	r1, [r5, #4]
   276f8:	482f      	ldr	r0, [pc, #188]	@ (277b8 <_ZN20complex_dynamic_type3app17hf1228079c3e9d9d1E+0x154>)
   276fa:	2100      	movs	r1, #0
   276fc:	460a      	mov	r2, r1
   276fe:	460b      	mov	r3, r1
   27700:	df03      	svc	3
   27702:	a804      	add	r0, sp, #16
   27704:	7800      	ldrb	r0, [r0, #0]
   27706:	2802      	cmp	r0, #2
   27708:	d047      	beq.n	2779a <_ZN20complex_dynamic_type3app17hf1228079c3e9d9d1E+0x136>
   2770a:	2804      	cmp	r0, #4
   2770c:	d106      	bne.n	2771c <_ZN20complex_dynamic_type3app17hf1228079c3e9d9d1E+0xb8>
   2770e:	482a      	ldr	r0, [pc, #168]	@ (277b8 <_ZN20complex_dynamic_type3app17hf1228079c3e9d9d1E+0x154>)
   27710:	2102      	movs	r1, #2
   27712:	2200      	movs	r2, #0
   27714:	4613      	mov	r3, r2
   27716:	df04      	svc	4
   27718:	b021      	add	sp, #132	@ 0x84
   2771a:	bdf0      	pop	{r4, r5, r6, r7, pc}
   2771c:	4826      	ldr	r0, [pc, #152]	@ (277b8 <_ZN20complex_dynamic_type3app17hf1228079c3e9d9d1E+0x154>)
   2771e:	2102      	movs	r1, #2
   27720:	2200      	movs	r2, #0
   27722:	4613      	mov	r3, r2
   27724:	df03      	svc	3
   27726:	b021      	add	sp, #132	@ 0x84
   27728:	bdf0      	pop	{r4, r5, r6, r7, pc}
   2772a:	a804      	add	r0, sp, #16
   2772c:	7800      	ldrb	r0, [r0, #0]
   2772e:	2802      	cmp	r0, #2
   27730:	d00c      	beq.n	2774c <_ZN20complex_dynamic_type3app17hf1228079c3e9d9d1E+0xe8>
   27732:	2803      	cmp	r0, #3
   27734:	d105      	bne.n	27742 <_ZN20complex_dynamic_type3app17hf1228079c3e9d9d1E+0xde>
   27736:	4820      	ldr	r0, [pc, #128]	@ (277b8 <_ZN20complex_dynamic_type3app17hf1228079c3e9d9d1E+0x154>)
   27738:	2102      	movs	r1, #2
   2773a:	2200      	movs	r2, #0
   2773c:	4613      	mov	r3, r2
   2773e:	df03      	svc	3
   27740:	e004      	b.n	2774c <_ZN20complex_dynamic_type3app17hf1228079c3e9d9d1E+0xe8>
   27742:	481d      	ldr	r0, [pc, #116]	@ (277b8 <_ZN20complex_dynamic_type3app17hf1228079c3e9d9d1E+0x154>)
   27744:	2102      	movs	r1, #2
   27746:	2200      	movs	r2, #0
   27748:	4613      	mov	r3, r2
   2774a:	df04      	svc	4
   2774c:	a804      	add	r0, sp, #16
   2774e:	7006      	strb	r6, [r0, #0]
   27750:	a80c      	add	r0, sp, #48	@ 0x30
   27752:	7800      	ldrb	r0, [r0, #0]
   27754:	2804      	cmp	r0, #4
   27756:	d008      	beq.n	2776a <_ZN20complex_dynamic_type3app17hf1228079c3e9d9d1E+0x106>
   27758:	2803      	cmp	r0, #3
   2775a:	d120      	bne.n	2779e <_ZN20complex_dynamic_type3app17hf1228079c3e9d9d1E+0x13a>
   2775c:	4626      	mov	r6, r4
   2775e:	4816      	ldr	r0, [pc, #88]	@ (277b8 <_ZN20complex_dynamic_type3app17hf1228079c3e9d9d1E+0x154>)
   27760:	2100      	movs	r1, #0
   27762:	460a      	mov	r2, r1
   27764:	460b      	mov	r3, r1
   27766:	df03      	svc	3
   27768:	e005      	b.n	27776 <_ZN20complex_dynamic_type3app17hf1228079c3e9d9d1E+0x112>
   2776a:	4626      	mov	r6, r4
   2776c:	4812      	ldr	r0, [pc, #72]	@ (277b8 <_ZN20complex_dynamic_type3app17hf1228079c3e9d9d1E+0x154>)
   2776e:	2100      	movs	r1, #0
   27770:	460a      	mov	r2, r1
   27772:	460b      	mov	r3, r1
   27774:	df04      	svc	4
   27776:	a804      	add	r0, sp, #16
   27778:	7804      	ldrb	r4, [r0, #0]
   2777a:	1c68      	adds	r0, r5, #1
   2777c:	2251      	movs	r2, #81	@ 0x51
   2777e:	4631      	mov	r1, r6
   27780:	f003 fcc0 	bl	2b104 <__aeabi_memcpy>
   27784:	9802      	ldr	r0, [sp, #8]
   27786:	7028      	strb	r0, [r5, #0]
   27788:	2c02      	cmp	r4, #2
   2778a:	d006      	beq.n	2779a <_ZN20complex_dynamic_type3app17hf1228079c3e9d9d1E+0x136>
   2778c:	480a      	ldr	r0, [pc, #40]	@ (277b8 <_ZN20complex_dynamic_type3app17hf1228079c3e9d9d1E+0x154>)
   2778e:	2102      	movs	r1, #2
   27790:	2200      	movs	r2, #0
   27792:	4613      	mov	r3, r2
   27794:	2c04      	cmp	r4, #4
   27796:	d10b      	bne.n	277b0 <_ZN20complex_dynamic_type3app17hf1228079c3e9d9d1E+0x14c>
   27798:	df04      	svc	4
   2779a:	b021      	add	sp, #132	@ 0x84
   2779c:	bdf0      	pop	{r4, r5, r6, r7, pc}
   2779e:	1c68      	adds	r0, r5, #1
   277a0:	2251      	movs	r2, #81	@ 0x51
   277a2:	4621      	mov	r1, r4
   277a4:	f003 fcae 	bl	2b104 <__aeabi_memcpy>
   277a8:	9802      	ldr	r0, [sp, #8]
   277aa:	7028      	strb	r0, [r5, #0]
   277ac:	b021      	add	sp, #132	@ 0x84
   277ae:	bdf0      	pop	{r4, r5, r6, r7, pc}
   277b0:	df03      	svc	3
   277b2:	b021      	add	sp, #132	@ 0x84
   277b4:	bdf0      	pop	{r4, r5, r6, r7, pc}
   277b6:	46c0      	nop			@ (mov r8, r8)
   277b8:	0000196b 	.word	0x0000196b

000277bc <_ZN20complex_dynamic_type3app17hf262631441f420a3E>:
   277bc:	b5f0      	push	{r4, r5, r6, r7, lr}
   277be:	af03      	add	r7, sp, #12
   277c0:	b0b3      	sub	sp, #204	@ 0xcc
   277c2:	9004      	str	r0, [sp, #16]
   277c4:	a805      	add	r0, sp, #20
   277c6:	2402      	movs	r4, #2
   277c8:	7004      	strb	r4, [r0, #0]
   277ca:	1c46      	adds	r6, r0, #1
   277cc:	225e      	movs	r2, #94	@ 0x5e
   277ce:	9203      	str	r2, [sp, #12]
   277d0:	4630      	mov	r0, r6
   277d2:	f003 fc97 	bl	2b104 <__aeabi_memcpy>
   277d6:	ad1d      	add	r5, sp, #116	@ 0x74
   277d8:	1c68      	adds	r0, r5, #1
   277da:	2155      	movs	r1, #85	@ 0x55
   277dc:	9002      	str	r0, [sp, #8]
   277de:	f003 fad1 	bl	2ad84 <__aeabi_memclr>
   277e2:	9401      	str	r4, [sp, #4]
   277e4:	702c      	strb	r4, [r5, #0]
   277e6:	4848      	ldr	r0, [pc, #288]	@ (27908 <_ZN20complex_dynamic_type3app17hf262631441f420a3E+0x14c>)
   277e8:	2107      	movs	r1, #7
   277ea:	4632      	mov	r2, r6
   277ec:	9b03      	ldr	r3, [sp, #12]
   277ee:	df04      	svc	4
   277f0:	2802      	cmp	r0, #2
   277f2:	d104      	bne.n	277fe <_ZN20complex_dynamic_type3app17hf262631441f420a3E+0x42>
   277f4:	2001      	movs	r0, #1
   277f6:	9a04      	ldr	r2, [sp, #16]
   277f8:	7010      	strb	r0, [r2, #0]
   277fa:	6051      	str	r1, [r2, #4]
   277fc:	e02c      	b.n	27858 <_ZN20complex_dynamic_type3app17hf262631441f420a3E+0x9c>
   277fe:	9d04      	ldr	r5, [sp, #16]
   27800:	a805      	add	r0, sp, #20
   27802:	2104      	movs	r1, #4
   27804:	7001      	strb	r1, [r0, #0]
   27806:	4840      	ldr	r0, [pc, #256]	@ (27908 <_ZN20complex_dynamic_type3app17hf262631441f420a3E+0x14c>)
   27808:	2403      	movs	r4, #3
   2780a:	2355      	movs	r3, #85	@ 0x55
   2780c:	4621      	mov	r1, r4
   2780e:	9a02      	ldr	r2, [sp, #8]
   27810:	df03      	svc	3
   27812:	2802      	cmp	r0, #2
   27814:	d10e      	bne.n	27834 <_ZN20complex_dynamic_type3app17hf262631441f420a3E+0x78>
   27816:	2001      	movs	r0, #1
   27818:	7028      	strb	r0, [r5, #0]
   2781a:	6069      	str	r1, [r5, #4]
   2781c:	a81d      	add	r0, sp, #116	@ 0x74
   2781e:	7800      	ldrb	r0, [r0, #0]
   27820:	2802      	cmp	r0, #2
   27822:	d019      	beq.n	27858 <_ZN20complex_dynamic_type3app17hf262631441f420a3E+0x9c>
   27824:	2803      	cmp	r0, #3
   27826:	d012      	beq.n	2784e <_ZN20complex_dynamic_type3app17hf262631441f420a3E+0x92>
   27828:	4837      	ldr	r0, [pc, #220]	@ (27908 <_ZN20complex_dynamic_type3app17hf262631441f420a3E+0x14c>)
   2782a:	2103      	movs	r1, #3
   2782c:	2200      	movs	r2, #0
   2782e:	4613      	mov	r3, r2
   27830:	df04      	svc	4
   27832:	e011      	b.n	27858 <_ZN20complex_dynamic_type3app17hf262631441f420a3E+0x9c>
   27834:	a81d      	add	r0, sp, #116	@ 0x74
   27836:	7004      	strb	r4, [r0, #0]
   27838:	4833      	ldr	r0, [pc, #204]	@ (27908 <_ZN20complex_dynamic_type3app17hf262631441f420a3E+0x14c>)
   2783a:	2107      	movs	r1, #7
   2783c:	2600      	movs	r6, #0
   2783e:	4622      	mov	r2, r4
   27840:	4633      	mov	r3, r6
   27842:	df02      	svc	2
   27844:	2880      	cmp	r0, #128	@ 0x80
   27846:	d21b      	bcs.n	27880 <_ZN20complex_dynamic_type3app17hf262631441f420a3E+0xc4>
   27848:	2001      	movs	r0, #1
   2784a:	7028      	strb	r0, [r5, #0]
   2784c:	6069      	str	r1, [r5, #4]
   2784e:	482e      	ldr	r0, [pc, #184]	@ (27908 <_ZN20complex_dynamic_type3app17hf262631441f420a3E+0x14c>)
   27850:	2103      	movs	r1, #3
   27852:	2200      	movs	r2, #0
   27854:	4613      	mov	r3, r2
   27856:	df03      	svc	3
   27858:	a805      	add	r0, sp, #20
   2785a:	7800      	ldrb	r0, [r0, #0]
   2785c:	2802      	cmp	r0, #2
   2785e:	d045      	beq.n	278ec <_ZN20complex_dynamic_type3app17hf262631441f420a3E+0x130>
   27860:	2804      	cmp	r0, #4
   27862:	d106      	bne.n	27872 <_ZN20complex_dynamic_type3app17hf262631441f420a3E+0xb6>
   27864:	4828      	ldr	r0, [pc, #160]	@ (27908 <_ZN20complex_dynamic_type3app17hf262631441f420a3E+0x14c>)
   27866:	2107      	movs	r1, #7
   27868:	2200      	movs	r2, #0
   2786a:	4613      	mov	r3, r2
   2786c:	df04      	svc	4
   2786e:	b033      	add	sp, #204	@ 0xcc
   27870:	bdf0      	pop	{r4, r5, r6, r7, pc}
   27872:	4825      	ldr	r0, [pc, #148]	@ (27908 <_ZN20complex_dynamic_type3app17hf262631441f420a3E+0x14c>)
   27874:	2107      	movs	r1, #7
   27876:	2200      	movs	r2, #0
   27878:	4613      	mov	r3, r2
   2787a:	df03      	svc	3
   2787c:	b033      	add	sp, #204	@ 0xcc
   2787e:	bdf0      	pop	{r4, r5, r6, r7, pc}
   27880:	a805      	add	r0, sp, #20
   27882:	7800      	ldrb	r0, [r0, #0]
   27884:	2802      	cmp	r0, #2
   27886:	d00c      	beq.n	278a2 <_ZN20complex_dynamic_type3app17hf262631441f420a3E+0xe6>
   27888:	2803      	cmp	r0, #3
   2788a:	d105      	bne.n	27898 <_ZN20complex_dynamic_type3app17hf262631441f420a3E+0xdc>
   2788c:	481e      	ldr	r0, [pc, #120]	@ (27908 <_ZN20complex_dynamic_type3app17hf262631441f420a3E+0x14c>)
   2788e:	2107      	movs	r1, #7
   27890:	2200      	movs	r2, #0
   27892:	4613      	mov	r3, r2
   27894:	df03      	svc	3
   27896:	e004      	b.n	278a2 <_ZN20complex_dynamic_type3app17hf262631441f420a3E+0xe6>
   27898:	481b      	ldr	r0, [pc, #108]	@ (27908 <_ZN20complex_dynamic_type3app17hf262631441f420a3E+0x14c>)
   2789a:	2107      	movs	r1, #7
   2789c:	2200      	movs	r2, #0
   2789e:	4613      	mov	r3, r2
   278a0:	df04      	svc	4
   278a2:	a805      	add	r0, sp, #20
   278a4:	9901      	ldr	r1, [sp, #4]
   278a6:	7001      	strb	r1, [r0, #0]
   278a8:	a81d      	add	r0, sp, #116	@ 0x74
   278aa:	7800      	ldrb	r0, [r0, #0]
   278ac:	2804      	cmp	r0, #4
   278ae:	d007      	beq.n	278c0 <_ZN20complex_dynamic_type3app17hf262631441f420a3E+0x104>
   278b0:	2803      	cmp	r0, #3
   278b2:	d11d      	bne.n	278f0 <_ZN20complex_dynamic_type3app17hf262631441f420a3E+0x134>
   278b4:	4814      	ldr	r0, [pc, #80]	@ (27908 <_ZN20complex_dynamic_type3app17hf262631441f420a3E+0x14c>)
   278b6:	2103      	movs	r1, #3
   278b8:	2200      	movs	r2, #0
   278ba:	4613      	mov	r3, r2
   278bc:	df03      	svc	3
   278be:	e004      	b.n	278ca <_ZN20complex_dynamic_type3app17hf262631441f420a3E+0x10e>
   278c0:	4811      	ldr	r0, [pc, #68]	@ (27908 <_ZN20complex_dynamic_type3app17hf262631441f420a3E+0x14c>)
   278c2:	2103      	movs	r1, #3
   278c4:	2200      	movs	r2, #0
   278c6:	4613      	mov	r3, r2
   278c8:	df04      	svc	4
   278ca:	a805      	add	r0, sp, #20
   278cc:	7804      	ldrb	r4, [r0, #0]
   278ce:	1c68      	adds	r0, r5, #1
   278d0:	2255      	movs	r2, #85	@ 0x55
   278d2:	9902      	ldr	r1, [sp, #8]
   278d4:	f003 fc16 	bl	2b104 <__aeabi_memcpy>
   278d8:	702e      	strb	r6, [r5, #0]
   278da:	2c02      	cmp	r4, #2
   278dc:	d006      	beq.n	278ec <_ZN20complex_dynamic_type3app17hf262631441f420a3E+0x130>
   278de:	480a      	ldr	r0, [pc, #40]	@ (27908 <_ZN20complex_dynamic_type3app17hf262631441f420a3E+0x14c>)
   278e0:	2107      	movs	r1, #7
   278e2:	2200      	movs	r2, #0
   278e4:	4613      	mov	r3, r2
   278e6:	2c04      	cmp	r4, #4
   278e8:	d10a      	bne.n	27900 <_ZN20complex_dynamic_type3app17hf262631441f420a3E+0x144>
   278ea:	df04      	svc	4
   278ec:	b033      	add	sp, #204	@ 0xcc
   278ee:	bdf0      	pop	{r4, r5, r6, r7, pc}
   278f0:	1c68      	adds	r0, r5, #1
   278f2:	2255      	movs	r2, #85	@ 0x55
   278f4:	9902      	ldr	r1, [sp, #8]
   278f6:	f003 fc05 	bl	2b104 <__aeabi_memcpy>
   278fa:	702e      	strb	r6, [r5, #0]
   278fc:	b033      	add	sp, #204	@ 0xcc
   278fe:	bdf0      	pop	{r4, r5, r6, r7, pc}
   27900:	df03      	svc	3
   27902:	b033      	add	sp, #204	@ 0xcc
   27904:	bdf0      	pop	{r4, r5, r6, r7, pc}
   27906:	46c0      	nop			@ (mov r8, r8)
   27908:	0000178a 	.word	0x0000178a

0002790c <_ZN20complex_dynamic_type3app17hf4344a939c27328fE>:
   2790c:	b5f0      	push	{r4, r5, r6, r7, lr}
   2790e:	af03      	add	r7, sp, #12
   27910:	b097      	sub	sp, #92	@ 0x5c
   27912:	9003      	str	r0, [sp, #12]
   27914:	a804      	add	r0, sp, #16
   27916:	2402      	movs	r4, #2
   27918:	7004      	strb	r4, [r0, #0]
   2791a:	1c40      	adds	r0, r0, #1
   2791c:	9002      	str	r0, [sp, #8]
   2791e:	2510      	movs	r5, #16
   27920:	462a      	mov	r2, r5
   27922:	f003 fbef 	bl	2b104 <__aeabi_memcpy>
   27926:	ae09      	add	r6, sp, #36	@ 0x24
   27928:	1c70      	adds	r0, r6, #1
   2792a:	2136      	movs	r1, #54	@ 0x36
   2792c:	9001      	str	r0, [sp, #4]
   2792e:	f003 fa29 	bl	2ad84 <__aeabi_memclr>
   27932:	9400      	str	r4, [sp, #0]
   27934:	7034      	strb	r4, [r6, #0]
   27936:	4847      	ldr	r0, [pc, #284]	@ (27a54 <_ZN20complex_dynamic_type3app17hf4344a939c27328fE+0x148>)
   27938:	2601      	movs	r6, #1
   2793a:	4631      	mov	r1, r6
   2793c:	9a02      	ldr	r2, [sp, #8]
   2793e:	462b      	mov	r3, r5
   27940:	df04      	svc	4
   27942:	2802      	cmp	r0, #2
   27944:	d103      	bne.n	2794e <_ZN20complex_dynamic_type3app17hf4344a939c27328fE+0x42>
   27946:	9803      	ldr	r0, [sp, #12]
   27948:	7006      	strb	r6, [r0, #0]
   2794a:	6041      	str	r1, [r0, #4]
   2794c:	e02b      	b.n	279a6 <_ZN20complex_dynamic_type3app17hf4344a939c27328fE+0x9a>
   2794e:	9d03      	ldr	r5, [sp, #12]
   27950:	a804      	add	r0, sp, #16
   27952:	2104      	movs	r1, #4
   27954:	7001      	strb	r1, [r0, #0]
   27956:	483f      	ldr	r0, [pc, #252]	@ (27a54 <_ZN20complex_dynamic_type3app17hf4344a939c27328fE+0x148>)
   27958:	2107      	movs	r1, #7
   2795a:	2336      	movs	r3, #54	@ 0x36
   2795c:	9a01      	ldr	r2, [sp, #4]
   2795e:	df03      	svc	3
   27960:	2802      	cmp	r0, #2
   27962:	d10d      	bne.n	27980 <_ZN20complex_dynamic_type3app17hf4344a939c27328fE+0x74>
   27964:	702e      	strb	r6, [r5, #0]
   27966:	6069      	str	r1, [r5, #4]
   27968:	a809      	add	r0, sp, #36	@ 0x24
   2796a:	7800      	ldrb	r0, [r0, #0]
   2796c:	2802      	cmp	r0, #2
   2796e:	d01a      	beq.n	279a6 <_ZN20complex_dynamic_type3app17hf4344a939c27328fE+0x9a>
   27970:	2803      	cmp	r0, #3
   27972:	d013      	beq.n	2799c <_ZN20complex_dynamic_type3app17hf4344a939c27328fE+0x90>
   27974:	4837      	ldr	r0, [pc, #220]	@ (27a54 <_ZN20complex_dynamic_type3app17hf4344a939c27328fE+0x148>)
   27976:	2107      	movs	r1, #7
   27978:	2200      	movs	r2, #0
   2797a:	4613      	mov	r3, r2
   2797c:	df04      	svc	4
   2797e:	e012      	b.n	279a6 <_ZN20complex_dynamic_type3app17hf4344a939c27328fE+0x9a>
   27980:	a809      	add	r0, sp, #36	@ 0x24
   27982:	2103      	movs	r1, #3
   27984:	7001      	strb	r1, [r0, #0]
   27986:	4833      	ldr	r0, [pc, #204]	@ (27a54 <_ZN20complex_dynamic_type3app17hf4344a939c27328fE+0x148>)
   27988:	2401      	movs	r4, #1
   2798a:	2207      	movs	r2, #7
   2798c:	2600      	movs	r6, #0
   2798e:	4621      	mov	r1, r4
   27990:	4633      	mov	r3, r6
   27992:	df02      	svc	2
   27994:	2880      	cmp	r0, #128	@ 0x80
   27996:	d21a      	bcs.n	279ce <_ZN20complex_dynamic_type3app17hf4344a939c27328fE+0xc2>
   27998:	702c      	strb	r4, [r5, #0]
   2799a:	6069      	str	r1, [r5, #4]
   2799c:	482d      	ldr	r0, [pc, #180]	@ (27a54 <_ZN20complex_dynamic_type3app17hf4344a939c27328fE+0x148>)
   2799e:	2107      	movs	r1, #7
   279a0:	2200      	movs	r2, #0
   279a2:	4613      	mov	r3, r2
   279a4:	df03      	svc	3
   279a6:	a804      	add	r0, sp, #16
   279a8:	7800      	ldrb	r0, [r0, #0]
   279aa:	2802      	cmp	r0, #2
   279ac:	d045      	beq.n	27a3a <_ZN20complex_dynamic_type3app17hf4344a939c27328fE+0x12e>
   279ae:	2804      	cmp	r0, #4
   279b0:	d106      	bne.n	279c0 <_ZN20complex_dynamic_type3app17hf4344a939c27328fE+0xb4>
   279b2:	4828      	ldr	r0, [pc, #160]	@ (27a54 <_ZN20complex_dynamic_type3app17hf4344a939c27328fE+0x148>)
   279b4:	2101      	movs	r1, #1
   279b6:	2200      	movs	r2, #0
   279b8:	4613      	mov	r3, r2
   279ba:	df04      	svc	4
   279bc:	b017      	add	sp, #92	@ 0x5c
   279be:	bdf0      	pop	{r4, r5, r6, r7, pc}
   279c0:	4824      	ldr	r0, [pc, #144]	@ (27a54 <_ZN20complex_dynamic_type3app17hf4344a939c27328fE+0x148>)
   279c2:	2101      	movs	r1, #1
   279c4:	2200      	movs	r2, #0
   279c6:	4613      	mov	r3, r2
   279c8:	df03      	svc	3
   279ca:	b017      	add	sp, #92	@ 0x5c
   279cc:	bdf0      	pop	{r4, r5, r6, r7, pc}
   279ce:	a804      	add	r0, sp, #16
   279d0:	7800      	ldrb	r0, [r0, #0]
   279d2:	2802      	cmp	r0, #2
   279d4:	d00c      	beq.n	279f0 <_ZN20complex_dynamic_type3app17hf4344a939c27328fE+0xe4>
   279d6:	2803      	cmp	r0, #3
   279d8:	d105      	bne.n	279e6 <_ZN20complex_dynamic_type3app17hf4344a939c27328fE+0xda>
   279da:	481e      	ldr	r0, [pc, #120]	@ (27a54 <_ZN20complex_dynamic_type3app17hf4344a939c27328fE+0x148>)
   279dc:	2101      	movs	r1, #1
   279de:	2200      	movs	r2, #0
   279e0:	4613      	mov	r3, r2
   279e2:	df03      	svc	3
   279e4:	e004      	b.n	279f0 <_ZN20complex_dynamic_type3app17hf4344a939c27328fE+0xe4>
   279e6:	481b      	ldr	r0, [pc, #108]	@ (27a54 <_ZN20complex_dynamic_type3app17hf4344a939c27328fE+0x148>)
   279e8:	2101      	movs	r1, #1
   279ea:	2200      	movs	r2, #0
   279ec:	4613      	mov	r3, r2
   279ee:	df04      	svc	4
   279f0:	a804      	add	r0, sp, #16
   279f2:	9900      	ldr	r1, [sp, #0]
   279f4:	7001      	strb	r1, [r0, #0]
   279f6:	a809      	add	r0, sp, #36	@ 0x24
   279f8:	7800      	ldrb	r0, [r0, #0]
   279fa:	2804      	cmp	r0, #4
   279fc:	d007      	beq.n	27a0e <_ZN20complex_dynamic_type3app17hf4344a939c27328fE+0x102>
   279fe:	2803      	cmp	r0, #3
   27a00:	d11d      	bne.n	27a3e <_ZN20complex_dynamic_type3app17hf4344a939c27328fE+0x132>
   27a02:	4814      	ldr	r0, [pc, #80]	@ (27a54 <_ZN20complex_dynamic_type3app17hf4344a939c27328fE+0x148>)
   27a04:	2107      	movs	r1, #7
   27a06:	2200      	movs	r2, #0
   27a08:	4613      	mov	r3, r2
   27a0a:	df03      	svc	3
   27a0c:	e004      	b.n	27a18 <_ZN20complex_dynamic_type3app17hf4344a939c27328fE+0x10c>
   27a0e:	4811      	ldr	r0, [pc, #68]	@ (27a54 <_ZN20complex_dynamic_type3app17hf4344a939c27328fE+0x148>)
   27a10:	2107      	movs	r1, #7
   27a12:	2200      	movs	r2, #0
   27a14:	4613      	mov	r3, r2
   27a16:	df04      	svc	4
   27a18:	a804      	add	r0, sp, #16
   27a1a:	7804      	ldrb	r4, [r0, #0]
   27a1c:	1c68      	adds	r0, r5, #1
   27a1e:	2236      	movs	r2, #54	@ 0x36
   27a20:	9901      	ldr	r1, [sp, #4]
   27a22:	f003 fb6f 	bl	2b104 <__aeabi_memcpy>
   27a26:	702e      	strb	r6, [r5, #0]
   27a28:	2c02      	cmp	r4, #2
   27a2a:	d006      	beq.n	27a3a <_ZN20complex_dynamic_type3app17hf4344a939c27328fE+0x12e>
   27a2c:	4809      	ldr	r0, [pc, #36]	@ (27a54 <_ZN20complex_dynamic_type3app17hf4344a939c27328fE+0x148>)
   27a2e:	2101      	movs	r1, #1
   27a30:	2200      	movs	r2, #0
   27a32:	4613      	mov	r3, r2
   27a34:	2c04      	cmp	r4, #4
   27a36:	d10a      	bne.n	27a4e <_ZN20complex_dynamic_type3app17hf4344a939c27328fE+0x142>
   27a38:	df04      	svc	4
   27a3a:	b017      	add	sp, #92	@ 0x5c
   27a3c:	bdf0      	pop	{r4, r5, r6, r7, pc}
   27a3e:	9901      	ldr	r1, [sp, #4]
   27a40:	1c68      	adds	r0, r5, #1
   27a42:	2236      	movs	r2, #54	@ 0x36
   27a44:	f003 fb5e 	bl	2b104 <__aeabi_memcpy>
   27a48:	702e      	strb	r6, [r5, #0]
   27a4a:	b017      	add	sp, #92	@ 0x5c
   27a4c:	bdf0      	pop	{r4, r5, r6, r7, pc}
   27a4e:	df03      	svc	3
   27a50:	b017      	add	sp, #92	@ 0x5c
   27a52:	bdf0      	pop	{r4, r5, r6, r7, pc}
   27a54:	00001989 	.word	0x00001989

00027a58 <_ZN20complex_dynamic_type3app17hf7209346ccd80545E>:
   27a58:	b5f0      	push	{r4, r5, r6, r7, lr}
   27a5a:	af03      	add	r7, sp, #12
   27a5c:	b0a7      	sub	sp, #156	@ 0x9c
   27a5e:	9004      	str	r0, [sp, #16]
   27a60:	a805      	add	r0, sp, #20
   27a62:	2402      	movs	r4, #2
   27a64:	7004      	strb	r4, [r0, #0]
   27a66:	1c40      	adds	r0, r0, #1
   27a68:	9003      	str	r0, [sp, #12]
   27a6a:	252a      	movs	r5, #42	@ 0x2a
   27a6c:	462a      	mov	r2, r5
   27a6e:	f003 fb49 	bl	2b104 <__aeabi_memcpy>
   27a72:	ae10      	add	r6, sp, #64	@ 0x40
   27a74:	1c70      	adds	r0, r6, #1
   27a76:	2159      	movs	r1, #89	@ 0x59
   27a78:	9002      	str	r0, [sp, #8]
   27a7a:	f003 f983 	bl	2ad84 <__aeabi_memclr>
   27a7e:	9401      	str	r4, [sp, #4]
   27a80:	7034      	strb	r4, [r6, #0]
   27a82:	4849      	ldr	r0, [pc, #292]	@ (27ba8 <_ZN20complex_dynamic_type3app17hf7209346ccd80545E+0x150>)
   27a84:	2601      	movs	r6, #1
   27a86:	4631      	mov	r1, r6
   27a88:	9a03      	ldr	r2, [sp, #12]
   27a8a:	462b      	mov	r3, r5
   27a8c:	df04      	svc	4
   27a8e:	2802      	cmp	r0, #2
   27a90:	d103      	bne.n	27a9a <_ZN20complex_dynamic_type3app17hf7209346ccd80545E+0x42>
   27a92:	9804      	ldr	r0, [sp, #16]
   27a94:	7006      	strb	r6, [r0, #0]
   27a96:	6041      	str	r1, [r0, #4]
   27a98:	e02c      	b.n	27af4 <_ZN20complex_dynamic_type3app17hf7209346ccd80545E+0x9c>
   27a9a:	a805      	add	r0, sp, #20
   27a9c:	2104      	movs	r1, #4
   27a9e:	7001      	strb	r1, [r0, #0]
   27aa0:	4841      	ldr	r0, [pc, #260]	@ (27ba8 <_ZN20complex_dynamic_type3app17hf7209346ccd80545E+0x150>)
   27aa2:	2403      	movs	r4, #3
   27aa4:	2359      	movs	r3, #89	@ 0x59
   27aa6:	4621      	mov	r1, r4
   27aa8:	9a02      	ldr	r2, [sp, #8]
   27aaa:	df03      	svc	3
   27aac:	2802      	cmp	r0, #2
   27aae:	d10e      	bne.n	27ace <_ZN20complex_dynamic_type3app17hf7209346ccd80545E+0x76>
   27ab0:	9804      	ldr	r0, [sp, #16]
   27ab2:	7006      	strb	r6, [r0, #0]
   27ab4:	6041      	str	r1, [r0, #4]
   27ab6:	a810      	add	r0, sp, #64	@ 0x40
   27ab8:	7800      	ldrb	r0, [r0, #0]
   27aba:	2802      	cmp	r0, #2
   27abc:	d01a      	beq.n	27af4 <_ZN20complex_dynamic_type3app17hf7209346ccd80545E+0x9c>
   27abe:	2803      	cmp	r0, #3
   27ac0:	d013      	beq.n	27aea <_ZN20complex_dynamic_type3app17hf7209346ccd80545E+0x92>
   27ac2:	4839      	ldr	r0, [pc, #228]	@ (27ba8 <_ZN20complex_dynamic_type3app17hf7209346ccd80545E+0x150>)
   27ac4:	2103      	movs	r1, #3
   27ac6:	2200      	movs	r2, #0
   27ac8:	4613      	mov	r3, r2
   27aca:	df04      	svc	4
   27acc:	e012      	b.n	27af4 <_ZN20complex_dynamic_type3app17hf7209346ccd80545E+0x9c>
   27ace:	a810      	add	r0, sp, #64	@ 0x40
   27ad0:	7004      	strb	r4, [r0, #0]
   27ad2:	4835      	ldr	r0, [pc, #212]	@ (27ba8 <_ZN20complex_dynamic_type3app17hf7209346ccd80545E+0x150>)
   27ad4:	2501      	movs	r5, #1
   27ad6:	2600      	movs	r6, #0
   27ad8:	4629      	mov	r1, r5
   27ada:	4622      	mov	r2, r4
   27adc:	4633      	mov	r3, r6
   27ade:	df02      	svc	2
   27ae0:	2880      	cmp	r0, #128	@ 0x80
   27ae2:	d21b      	bcs.n	27b1c <_ZN20complex_dynamic_type3app17hf7209346ccd80545E+0xc4>
   27ae4:	9804      	ldr	r0, [sp, #16]
   27ae6:	7005      	strb	r5, [r0, #0]
   27ae8:	6041      	str	r1, [r0, #4]
   27aea:	482f      	ldr	r0, [pc, #188]	@ (27ba8 <_ZN20complex_dynamic_type3app17hf7209346ccd80545E+0x150>)
   27aec:	2103      	movs	r1, #3
   27aee:	2200      	movs	r2, #0
   27af0:	4613      	mov	r3, r2
   27af2:	df03      	svc	3
   27af4:	a805      	add	r0, sp, #20
   27af6:	7800      	ldrb	r0, [r0, #0]
   27af8:	2802      	cmp	r0, #2
   27afa:	d046      	beq.n	27b8a <_ZN20complex_dynamic_type3app17hf7209346ccd80545E+0x132>
   27afc:	2804      	cmp	r0, #4
   27afe:	d106      	bne.n	27b0e <_ZN20complex_dynamic_type3app17hf7209346ccd80545E+0xb6>
   27b00:	4829      	ldr	r0, [pc, #164]	@ (27ba8 <_ZN20complex_dynamic_type3app17hf7209346ccd80545E+0x150>)
   27b02:	2101      	movs	r1, #1
   27b04:	2200      	movs	r2, #0
   27b06:	4613      	mov	r3, r2
   27b08:	df04      	svc	4
   27b0a:	b027      	add	sp, #156	@ 0x9c
   27b0c:	bdf0      	pop	{r4, r5, r6, r7, pc}
   27b0e:	4826      	ldr	r0, [pc, #152]	@ (27ba8 <_ZN20complex_dynamic_type3app17hf7209346ccd80545E+0x150>)
   27b10:	2101      	movs	r1, #1
   27b12:	2200      	movs	r2, #0
   27b14:	4613      	mov	r3, r2
   27b16:	df03      	svc	3
   27b18:	b027      	add	sp, #156	@ 0x9c
   27b1a:	bdf0      	pop	{r4, r5, r6, r7, pc}
   27b1c:	a805      	add	r0, sp, #20
   27b1e:	7800      	ldrb	r0, [r0, #0]
   27b20:	2802      	cmp	r0, #2
   27b22:	d00c      	beq.n	27b3e <_ZN20complex_dynamic_type3app17hf7209346ccd80545E+0xe6>
   27b24:	2803      	cmp	r0, #3
   27b26:	d105      	bne.n	27b34 <_ZN20complex_dynamic_type3app17hf7209346ccd80545E+0xdc>
   27b28:	481f      	ldr	r0, [pc, #124]	@ (27ba8 <_ZN20complex_dynamic_type3app17hf7209346ccd80545E+0x150>)
   27b2a:	2101      	movs	r1, #1
   27b2c:	2200      	movs	r2, #0
   27b2e:	4613      	mov	r3, r2
   27b30:	df03      	svc	3
   27b32:	e004      	b.n	27b3e <_ZN20complex_dynamic_type3app17hf7209346ccd80545E+0xe6>
   27b34:	481c      	ldr	r0, [pc, #112]	@ (27ba8 <_ZN20complex_dynamic_type3app17hf7209346ccd80545E+0x150>)
   27b36:	2101      	movs	r1, #1
   27b38:	2200      	movs	r2, #0
   27b3a:	4613      	mov	r3, r2
   27b3c:	df04      	svc	4
   27b3e:	a805      	add	r0, sp, #20
   27b40:	9901      	ldr	r1, [sp, #4]
   27b42:	7001      	strb	r1, [r0, #0]
   27b44:	a810      	add	r0, sp, #64	@ 0x40
   27b46:	7800      	ldrb	r0, [r0, #0]
   27b48:	2804      	cmp	r0, #4
   27b4a:	d007      	beq.n	27b5c <_ZN20complex_dynamic_type3app17hf7209346ccd80545E+0x104>
   27b4c:	2803      	cmp	r0, #3
   27b4e:	d11e      	bne.n	27b8e <_ZN20complex_dynamic_type3app17hf7209346ccd80545E+0x136>
   27b50:	4815      	ldr	r0, [pc, #84]	@ (27ba8 <_ZN20complex_dynamic_type3app17hf7209346ccd80545E+0x150>)
   27b52:	2103      	movs	r1, #3
   27b54:	2200      	movs	r2, #0
   27b56:	4613      	mov	r3, r2
   27b58:	df03      	svc	3
   27b5a:	e004      	b.n	27b66 <_ZN20complex_dynamic_type3app17hf7209346ccd80545E+0x10e>
   27b5c:	4812      	ldr	r0, [pc, #72]	@ (27ba8 <_ZN20complex_dynamic_type3app17hf7209346ccd80545E+0x150>)
   27b5e:	2103      	movs	r1, #3
   27b60:	2200      	movs	r2, #0
   27b62:	4613      	mov	r3, r2
   27b64:	df04      	svc	4
   27b66:	a805      	add	r0, sp, #20
   27b68:	7804      	ldrb	r4, [r0, #0]
   27b6a:	9d04      	ldr	r5, [sp, #16]
   27b6c:	1c68      	adds	r0, r5, #1
   27b6e:	2259      	movs	r2, #89	@ 0x59
   27b70:	9902      	ldr	r1, [sp, #8]
   27b72:	f003 fac7 	bl	2b104 <__aeabi_memcpy>
   27b76:	702e      	strb	r6, [r5, #0]
   27b78:	2c02      	cmp	r4, #2
   27b7a:	d006      	beq.n	27b8a <_ZN20complex_dynamic_type3app17hf7209346ccd80545E+0x132>
   27b7c:	480a      	ldr	r0, [pc, #40]	@ (27ba8 <_ZN20complex_dynamic_type3app17hf7209346ccd80545E+0x150>)
   27b7e:	2101      	movs	r1, #1
   27b80:	2200      	movs	r2, #0
   27b82:	4613      	mov	r3, r2
   27b84:	2c04      	cmp	r4, #4
   27b86:	d10b      	bne.n	27ba0 <_ZN20complex_dynamic_type3app17hf7209346ccd80545E+0x148>
   27b88:	df04      	svc	4
   27b8a:	b027      	add	sp, #156	@ 0x9c
   27b8c:	bdf0      	pop	{r4, r5, r6, r7, pc}
   27b8e:	9c04      	ldr	r4, [sp, #16]
   27b90:	9902      	ldr	r1, [sp, #8]
   27b92:	1c60      	adds	r0, r4, #1
   27b94:	2259      	movs	r2, #89	@ 0x59
   27b96:	f003 fab5 	bl	2b104 <__aeabi_memcpy>
   27b9a:	7026      	strb	r6, [r4, #0]
   27b9c:	b027      	add	sp, #156	@ 0x9c
   27b9e:	bdf0      	pop	{r4, r5, r6, r7, pc}
   27ba0:	df03      	svc	3
   27ba2:	b027      	add	sp, #156	@ 0x9c
   27ba4:	bdf0      	pop	{r4, r5, r6, r7, pc}
   27ba6:	46c0      	nop			@ (mov r8, r8)
   27ba8:	00000ed2 	.word	0x00000ed2

00027bac <_ZN20complex_dynamic_type3app17hfdefcf08de6c8e11E>:
   27bac:	b5f0      	push	{r4, r5, r6, r7, lr}
   27bae:	af03      	add	r7, sp, #12
   27bb0:	b0a7      	sub	sp, #156	@ 0x9c
   27bb2:	9004      	str	r0, [sp, #16]
   27bb4:	a805      	add	r0, sp, #20
   27bb6:	2402      	movs	r4, #2
   27bb8:	7004      	strb	r4, [r0, #0]
   27bba:	1c46      	adds	r6, r0, #1
   27bbc:	224f      	movs	r2, #79	@ 0x4f
   27bbe:	9203      	str	r2, [sp, #12]
   27bc0:	4630      	mov	r0, r6
   27bc2:	f003 fa9f 	bl	2b104 <__aeabi_memcpy>
   27bc6:	ad19      	add	r5, sp, #100	@ 0x64
   27bc8:	1c68      	adds	r0, r5, #1
   27bca:	2135      	movs	r1, #53	@ 0x35
   27bcc:	9002      	str	r0, [sp, #8]
   27bce:	f003 f8d9 	bl	2ad84 <__aeabi_memclr>
   27bd2:	9401      	str	r4, [sp, #4]
   27bd4:	702c      	strb	r4, [r5, #0]
   27bd6:	4848      	ldr	r0, [pc, #288]	@ (27cf8 <_ZN20complex_dynamic_type3app17hfdefcf08de6c8e11E+0x14c>)
   27bd8:	2107      	movs	r1, #7
   27bda:	4632      	mov	r2, r6
   27bdc:	9b03      	ldr	r3, [sp, #12]
   27bde:	df04      	svc	4
   27be0:	2802      	cmp	r0, #2
   27be2:	d104      	bne.n	27bee <_ZN20complex_dynamic_type3app17hfdefcf08de6c8e11E+0x42>
   27be4:	2001      	movs	r0, #1
   27be6:	9a04      	ldr	r2, [sp, #16]
   27be8:	7010      	strb	r0, [r2, #0]
   27bea:	6051      	str	r1, [r2, #4]
   27bec:	e02c      	b.n	27c48 <_ZN20complex_dynamic_type3app17hfdefcf08de6c8e11E+0x9c>
   27bee:	9d04      	ldr	r5, [sp, #16]
   27bf0:	a805      	add	r0, sp, #20
   27bf2:	2104      	movs	r1, #4
   27bf4:	7001      	strb	r1, [r0, #0]
   27bf6:	4840      	ldr	r0, [pc, #256]	@ (27cf8 <_ZN20complex_dynamic_type3app17hfdefcf08de6c8e11E+0x14c>)
   27bf8:	2401      	movs	r4, #1
   27bfa:	2335      	movs	r3, #53	@ 0x35
   27bfc:	4621      	mov	r1, r4
   27bfe:	9a02      	ldr	r2, [sp, #8]
   27c00:	df03      	svc	3
   27c02:	2802      	cmp	r0, #2
   27c04:	d10d      	bne.n	27c22 <_ZN20complex_dynamic_type3app17hfdefcf08de6c8e11E+0x76>
   27c06:	702c      	strb	r4, [r5, #0]
   27c08:	6069      	str	r1, [r5, #4]
   27c0a:	a819      	add	r0, sp, #100	@ 0x64
   27c0c:	7800      	ldrb	r0, [r0, #0]
   27c0e:	2802      	cmp	r0, #2
   27c10:	d01a      	beq.n	27c48 <_ZN20complex_dynamic_type3app17hfdefcf08de6c8e11E+0x9c>
   27c12:	2803      	cmp	r0, #3
   27c14:	d013      	beq.n	27c3e <_ZN20complex_dynamic_type3app17hfdefcf08de6c8e11E+0x92>
   27c16:	4838      	ldr	r0, [pc, #224]	@ (27cf8 <_ZN20complex_dynamic_type3app17hfdefcf08de6c8e11E+0x14c>)
   27c18:	2101      	movs	r1, #1
   27c1a:	2200      	movs	r2, #0
   27c1c:	4613      	mov	r3, r2
   27c1e:	df04      	svc	4
   27c20:	e012      	b.n	27c48 <_ZN20complex_dynamic_type3app17hfdefcf08de6c8e11E+0x9c>
   27c22:	a819      	add	r0, sp, #100	@ 0x64
   27c24:	2103      	movs	r1, #3
   27c26:	7001      	strb	r1, [r0, #0]
   27c28:	4833      	ldr	r0, [pc, #204]	@ (27cf8 <_ZN20complex_dynamic_type3app17hfdefcf08de6c8e11E+0x14c>)
   27c2a:	2107      	movs	r1, #7
   27c2c:	2401      	movs	r4, #1
   27c2e:	2600      	movs	r6, #0
   27c30:	4622      	mov	r2, r4
   27c32:	4633      	mov	r3, r6
   27c34:	df02      	svc	2
   27c36:	2880      	cmp	r0, #128	@ 0x80
   27c38:	d21a      	bcs.n	27c70 <_ZN20complex_dynamic_type3app17hfdefcf08de6c8e11E+0xc4>
   27c3a:	702c      	strb	r4, [r5, #0]
   27c3c:	6069      	str	r1, [r5, #4]
   27c3e:	482e      	ldr	r0, [pc, #184]	@ (27cf8 <_ZN20complex_dynamic_type3app17hfdefcf08de6c8e11E+0x14c>)
   27c40:	2101      	movs	r1, #1
   27c42:	2200      	movs	r2, #0
   27c44:	4613      	mov	r3, r2
   27c46:	df03      	svc	3
   27c48:	a805      	add	r0, sp, #20
   27c4a:	7800      	ldrb	r0, [r0, #0]
   27c4c:	2802      	cmp	r0, #2
   27c4e:	d045      	beq.n	27cdc <_ZN20complex_dynamic_type3app17hfdefcf08de6c8e11E+0x130>
   27c50:	2804      	cmp	r0, #4
   27c52:	d106      	bne.n	27c62 <_ZN20complex_dynamic_type3app17hfdefcf08de6c8e11E+0xb6>
   27c54:	4828      	ldr	r0, [pc, #160]	@ (27cf8 <_ZN20complex_dynamic_type3app17hfdefcf08de6c8e11E+0x14c>)
   27c56:	2107      	movs	r1, #7
   27c58:	2200      	movs	r2, #0
   27c5a:	4613      	mov	r3, r2
   27c5c:	df04      	svc	4
   27c5e:	b027      	add	sp, #156	@ 0x9c
   27c60:	bdf0      	pop	{r4, r5, r6, r7, pc}
   27c62:	4825      	ldr	r0, [pc, #148]	@ (27cf8 <_ZN20complex_dynamic_type3app17hfdefcf08de6c8e11E+0x14c>)
   27c64:	2107      	movs	r1, #7
   27c66:	2200      	movs	r2, #0
   27c68:	4613      	mov	r3, r2
   27c6a:	df03      	svc	3
   27c6c:	b027      	add	sp, #156	@ 0x9c
   27c6e:	bdf0      	pop	{r4, r5, r6, r7, pc}
   27c70:	a805      	add	r0, sp, #20
   27c72:	7800      	ldrb	r0, [r0, #0]
   27c74:	2802      	cmp	r0, #2
   27c76:	d00c      	beq.n	27c92 <_ZN20complex_dynamic_type3app17hfdefcf08de6c8e11E+0xe6>
   27c78:	2803      	cmp	r0, #3
   27c7a:	d105      	bne.n	27c88 <_ZN20complex_dynamic_type3app17hfdefcf08de6c8e11E+0xdc>
   27c7c:	481e      	ldr	r0, [pc, #120]	@ (27cf8 <_ZN20complex_dynamic_type3app17hfdefcf08de6c8e11E+0x14c>)
   27c7e:	2107      	movs	r1, #7
   27c80:	2200      	movs	r2, #0
   27c82:	4613      	mov	r3, r2
   27c84:	df03      	svc	3
   27c86:	e004      	b.n	27c92 <_ZN20complex_dynamic_type3app17hfdefcf08de6c8e11E+0xe6>
   27c88:	481b      	ldr	r0, [pc, #108]	@ (27cf8 <_ZN20complex_dynamic_type3app17hfdefcf08de6c8e11E+0x14c>)
   27c8a:	2107      	movs	r1, #7
   27c8c:	2200      	movs	r2, #0
   27c8e:	4613      	mov	r3, r2
   27c90:	df04      	svc	4
   27c92:	a805      	add	r0, sp, #20
   27c94:	9901      	ldr	r1, [sp, #4]
   27c96:	7001      	strb	r1, [r0, #0]
   27c98:	a819      	add	r0, sp, #100	@ 0x64
   27c9a:	7800      	ldrb	r0, [r0, #0]
   27c9c:	2804      	cmp	r0, #4
   27c9e:	d007      	beq.n	27cb0 <_ZN20complex_dynamic_type3app17hfdefcf08de6c8e11E+0x104>
   27ca0:	2803      	cmp	r0, #3
   27ca2:	d11d      	bne.n	27ce0 <_ZN20complex_dynamic_type3app17hfdefcf08de6c8e11E+0x134>
   27ca4:	4814      	ldr	r0, [pc, #80]	@ (27cf8 <_ZN20complex_dynamic_type3app17hfdefcf08de6c8e11E+0x14c>)
   27ca6:	2101      	movs	r1, #1
   27ca8:	2200      	movs	r2, #0
   27caa:	4613      	mov	r3, r2
   27cac:	df03      	svc	3
   27cae:	e004      	b.n	27cba <_ZN20complex_dynamic_type3app17hfdefcf08de6c8e11E+0x10e>
   27cb0:	4811      	ldr	r0, [pc, #68]	@ (27cf8 <_ZN20complex_dynamic_type3app17hfdefcf08de6c8e11E+0x14c>)
   27cb2:	2101      	movs	r1, #1
   27cb4:	2200      	movs	r2, #0
   27cb6:	4613      	mov	r3, r2
   27cb8:	df04      	svc	4
   27cba:	a805      	add	r0, sp, #20
   27cbc:	7804      	ldrb	r4, [r0, #0]
   27cbe:	1c68      	adds	r0, r5, #1
   27cc0:	2235      	movs	r2, #53	@ 0x35
   27cc2:	9902      	ldr	r1, [sp, #8]
   27cc4:	f003 fa1e 	bl	2b104 <__aeabi_memcpy>
   27cc8:	702e      	strb	r6, [r5, #0]
   27cca:	2c02      	cmp	r4, #2
   27ccc:	d006      	beq.n	27cdc <_ZN20complex_dynamic_type3app17hfdefcf08de6c8e11E+0x130>
   27cce:	480a      	ldr	r0, [pc, #40]	@ (27cf8 <_ZN20complex_dynamic_type3app17hfdefcf08de6c8e11E+0x14c>)
   27cd0:	2107      	movs	r1, #7
   27cd2:	2200      	movs	r2, #0
   27cd4:	4613      	mov	r3, r2
   27cd6:	2c04      	cmp	r4, #4
   27cd8:	d10a      	bne.n	27cf0 <_ZN20complex_dynamic_type3app17hfdefcf08de6c8e11E+0x144>
   27cda:	df04      	svc	4
   27cdc:	b027      	add	sp, #156	@ 0x9c
   27cde:	bdf0      	pop	{r4, r5, r6, r7, pc}
   27ce0:	1c68      	adds	r0, r5, #1
   27ce2:	2235      	movs	r2, #53	@ 0x35
   27ce4:	9902      	ldr	r1, [sp, #8]
   27ce6:	f003 fa0d 	bl	2b104 <__aeabi_memcpy>
   27cea:	702e      	strb	r6, [r5, #0]
   27cec:	b027      	add	sp, #156	@ 0x9c
   27cee:	bdf0      	pop	{r4, r5, r6, r7, pc}
   27cf0:	df03      	svc	3
   27cf2:	b027      	add	sp, #156	@ 0x9c
   27cf4:	bdf0      	pop	{r4, r5, r6, r7, pc}
   27cf6:	46c0      	nop			@ (mov r8, r8)
   27cf8:	000016d7 	.word	0x000016d7

00027cfc <_start>:
   27cfc:	b5f0      	push	{r4, r5, r6, r7, lr}
   27cfe:	af03      	add	r7, sp, #12
   27d00:	4ed1      	ldr	r6, [pc, #836]	@ (28048 <_start+0x34c>)
   27d02:	44b5      	add	sp, r6
   27d04:	48d1      	ldr	r0, [pc, #836]	@ (2804c <_start+0x350>)
   27d06:	4468      	add	r0, sp
   27d08:	9008      	str	r0, [sp, #32]
   27d0a:	48d1      	ldr	r0, [pc, #836]	@ (28050 <_start+0x354>)
   27d0c:	4468      	add	r0, sp
   27d0e:	9007      	str	r0, [sp, #28]
   27d10:	ac1f      	add	r4, sp, #124	@ 0x7c
   27d12:	1c60      	adds	r0, r4, #1
   27d14:	900b      	str	r0, [sp, #44]	@ 0x2c
   27d16:	2628      	movs	r6, #40	@ 0x28
   27d18:	4631      	mov	r1, r6
   27d1a:	f003 f833 	bl	2ad84 <__aeabi_memclr>
   27d1e:	2502      	movs	r5, #2
   27d20:	7025      	strb	r5, [r4, #0]
   27d22:	4ccc      	ldr	r4, [pc, #816]	@ (28054 <_start+0x358>)
   27d24:	446c      	add	r4, sp
   27d26:	1c60      	adds	r0, r4, #1
   27d28:	2151      	movs	r1, #81	@ 0x51
   27d2a:	900a      	str	r0, [sp, #40]	@ 0x28
   27d2c:	f003 f82a 	bl	2ad84 <__aeabi_memclr>
   27d30:	9509      	str	r5, [sp, #36]	@ 0x24
   27d32:	7025      	strb	r5, [r4, #0]
   27d34:	48c8      	ldr	r0, [pc, #800]	@ (28058 <_start+0x35c>)
   27d36:	2109      	movs	r1, #9
   27d38:	9a0b      	ldr	r2, [sp, #44]	@ 0x2c
   27d3a:	4633      	mov	r3, r6
   27d3c:	df04      	svc	4
   27d3e:	ac4b      	add	r4, sp, #300	@ 0x12c
   27d40:	4ec6      	ldr	r6, [pc, #792]	@ (2805c <_start+0x360>)
   27d42:	446e      	add	r6, sp
   27d44:	4dc6      	ldr	r5, [pc, #792]	@ (28060 <_start+0x364>)
   27d46:	446d      	add	r5, sp
   27d48:	2802      	cmp	r0, #2
   27d4a:	d02b      	beq.n	27da4 <_start+0xa8>
   27d4c:	a81f      	add	r0, sp, #124	@ 0x7c
   27d4e:	2104      	movs	r1, #4
   27d50:	910b      	str	r1, [sp, #44]	@ 0x2c
   27d52:	7001      	strb	r1, [r0, #0]
   27d54:	48c0      	ldr	r0, [pc, #768]	@ (28058 <_start+0x35c>)
   27d56:	2109      	movs	r1, #9
   27d58:	2351      	movs	r3, #81	@ 0x51
   27d5a:	9a0a      	ldr	r2, [sp, #40]	@ 0x28
   27d5c:	df03      	svc	3
   27d5e:	2802      	cmp	r0, #2
   27d60:	d10d      	bne.n	27d7e <_start+0x82>
   27d62:	48bc      	ldr	r0, [pc, #752]	@ (28054 <_start+0x358>)
   27d64:	4468      	add	r0, sp
   27d66:	7800      	ldrb	r0, [r0, #0]
   27d68:	2802      	cmp	r0, #2
   27d6a:	d01b      	beq.n	27da4 <_start+0xa8>
   27d6c:	460c      	mov	r4, r1
   27d6e:	2803      	cmp	r0, #3
   27d70:	d012      	beq.n	27d98 <_start+0x9c>
   27d72:	48b9      	ldr	r0, [pc, #740]	@ (28058 <_start+0x35c>)
   27d74:	2109      	movs	r1, #9
   27d76:	2200      	movs	r2, #0
   27d78:	4613      	mov	r3, r2
   27d7a:	df04      	svc	4
   27d7c:	e011      	b.n	27da2 <_start+0xa6>
   27d7e:	48b5      	ldr	r0, [pc, #724]	@ (28054 <_start+0x358>)
   27d80:	4468      	add	r0, sp
   27d82:	2103      	movs	r1, #3
   27d84:	9106      	str	r1, [sp, #24]
   27d86:	7001      	strb	r1, [r0, #0]
   27d88:	48b3      	ldr	r0, [pc, #716]	@ (28058 <_start+0x35c>)
   27d8a:	2109      	movs	r1, #9
   27d8c:	2300      	movs	r3, #0
   27d8e:	460a      	mov	r2, r1
   27d90:	df02      	svc	2
   27d92:	2880      	cmp	r0, #128	@ 0x80
   27d94:	d220      	bcs.n	27dd8 <_start+0xdc>
   27d96:	460c      	mov	r4, r1
   27d98:	48af      	ldr	r0, [pc, #700]	@ (28058 <_start+0x35c>)
   27d9a:	2109      	movs	r1, #9
   27d9c:	2200      	movs	r2, #0
   27d9e:	4613      	mov	r3, r2
   27da0:	df03      	svc	3
   27da2:	4621      	mov	r1, r4
   27da4:	a81f      	add	r0, sp, #124	@ 0x7c
   27da6:	7800      	ldrb	r0, [r0, #0]
   27da8:	2802      	cmp	r0, #2
   27daa:	d010      	beq.n	27dce <_start+0xd2>
   27dac:	2804      	cmp	r0, #4
   27dae:	d107      	bne.n	27dc0 <_start+0xc4>
   27db0:	48a9      	ldr	r0, [pc, #676]	@ (28058 <_start+0x35c>)
   27db2:	2209      	movs	r2, #9
   27db4:	2300      	movs	r3, #0
   27db6:	460c      	mov	r4, r1
   27db8:	4611      	mov	r1, r2
   27dba:	461a      	mov	r2, r3
   27dbc:	df04      	svc	4
   27dbe:	e005      	b.n	27dcc <_start+0xd0>
   27dc0:	460c      	mov	r4, r1
   27dc2:	48a5      	ldr	r0, [pc, #660]	@ (28058 <_start+0x35c>)
   27dc4:	2109      	movs	r1, #9
   27dc6:	2200      	movs	r2, #0
   27dc8:	4613      	mov	r3, r2
   27dca:	df03      	svc	3
   27dcc:	4621      	mov	r1, r4
   27dce:	2001      	movs	r0, #1
   27dd0:	1ffe      	subs	r6, r7, #7
   27dd2:	3e05      	subs	r6, #5
   27dd4:	46b5      	mov	sp, r6
   27dd6:	bdf0      	pop	{r4, r5, r6, r7, pc}
   27dd8:	a81f      	add	r0, sp, #124	@ 0x7c
   27dda:	7800      	ldrb	r0, [r0, #0]
   27ddc:	2802      	cmp	r0, #2
   27dde:	d00c      	beq.n	27dfa <_start+0xfe>
   27de0:	2803      	cmp	r0, #3
   27de2:	d105      	bne.n	27df0 <_start+0xf4>
   27de4:	489c      	ldr	r0, [pc, #624]	@ (28058 <_start+0x35c>)
   27de6:	2109      	movs	r1, #9
   27de8:	2200      	movs	r2, #0
   27dea:	4613      	mov	r3, r2
   27dec:	df03      	svc	3
   27dee:	e004      	b.n	27dfa <_start+0xfe>
   27df0:	4899      	ldr	r0, [pc, #612]	@ (28058 <_start+0x35c>)
   27df2:	2109      	movs	r1, #9
   27df4:	2200      	movs	r2, #0
   27df6:	4613      	mov	r3, r2
   27df8:	df04      	svc	4
   27dfa:	a81f      	add	r0, sp, #124	@ 0x7c
   27dfc:	9909      	ldr	r1, [sp, #36]	@ 0x24
   27dfe:	7001      	strb	r1, [r0, #0]
   27e00:	4894      	ldr	r0, [pc, #592]	@ (28054 <_start+0x358>)
   27e02:	4468      	add	r0, sp
   27e04:	7800      	ldrb	r0, [r0, #0]
   27e06:	2804      	cmp	r0, #4
   27e08:	9504      	str	r5, [sp, #16]
   27e0a:	9603      	str	r6, [sp, #12]
   27e0c:	9405      	str	r4, [sp, #20]
   27e0e:	d007      	beq.n	27e20 <_start+0x124>
   27e10:	2803      	cmp	r0, #3
   27e12:	d129      	bne.n	27e68 <_start+0x16c>
   27e14:	4890      	ldr	r0, [pc, #576]	@ (28058 <_start+0x35c>)
   27e16:	2109      	movs	r1, #9
   27e18:	2200      	movs	r2, #0
   27e1a:	4613      	mov	r3, r2
   27e1c:	df03      	svc	3
   27e1e:	e004      	b.n	27e2a <_start+0x12e>
   27e20:	488d      	ldr	r0, [pc, #564]	@ (28058 <_start+0x35c>)
   27e22:	2109      	movs	r1, #9
   27e24:	2200      	movs	r2, #0
   27e26:	4613      	mov	r3, r2
   27e28:	df04      	svc	4
   27e2a:	9a0a      	ldr	r2, [sp, #40]	@ 0x28
   27e2c:	7890      	ldrb	r0, [r2, #2]
   27e2e:	a92f      	add	r1, sp, #188	@ 0xbc
   27e30:	7088      	strb	r0, [r1, #2]
   27e32:	7810      	ldrb	r0, [r2, #0]
   27e34:	7852      	ldrb	r2, [r2, #1]
   27e36:	0212      	lsls	r2, r2, #8
   27e38:	1810      	adds	r0, r2, r0
   27e3a:	8008      	strh	r0, [r1, #0]
   27e3c:	a81f      	add	r0, sp, #124	@ 0x7c
   27e3e:	7804      	ldrb	r4, [r0, #0]
   27e40:	9808      	ldr	r0, [sp, #32]
   27e42:	6e00      	ldr	r0, [r0, #96]	@ 0x60
   27e44:	900a      	str	r0, [sp, #40]	@ 0x28
   27e46:	4983      	ldr	r1, [pc, #524]	@ (28054 <_start+0x358>)
   27e48:	4469      	add	r1, sp
   27e4a:	3108      	adds	r1, #8
   27e4c:	a80c      	add	r0, sp, #48	@ 0x30
   27e4e:	224a      	movs	r2, #74	@ 0x4a
   27e50:	f002 fff8 	bl	2ae44 <__aeabi_memcpy4>
   27e54:	2c02      	cmp	r4, #2
   27e56:	d01c      	beq.n	27e92 <_start+0x196>
   27e58:	487f      	ldr	r0, [pc, #508]	@ (28058 <_start+0x35c>)
   27e5a:	2109      	movs	r1, #9
   27e5c:	2200      	movs	r2, #0
   27e5e:	4613      	mov	r3, r2
   27e60:	2c04      	cmp	r4, #4
   27e62:	d115      	bne.n	27e90 <_start+0x194>
   27e64:	df04      	svc	4
   27e66:	e014      	b.n	27e92 <_start+0x196>
   27e68:	9a0a      	ldr	r2, [sp, #40]	@ 0x28
   27e6a:	7890      	ldrb	r0, [r2, #2]
   27e6c:	a92f      	add	r1, sp, #188	@ 0xbc
   27e6e:	7088      	strb	r0, [r1, #2]
   27e70:	7810      	ldrb	r0, [r2, #0]
   27e72:	7852      	ldrb	r2, [r2, #1]
   27e74:	0212      	lsls	r2, r2, #8
   27e76:	1810      	adds	r0, r2, r0
   27e78:	8008      	strh	r0, [r1, #0]
   27e7a:	9808      	ldr	r0, [sp, #32]
   27e7c:	6e00      	ldr	r0, [r0, #96]	@ 0x60
   27e7e:	900a      	str	r0, [sp, #40]	@ 0x28
   27e80:	4974      	ldr	r1, [pc, #464]	@ (28054 <_start+0x358>)
   27e82:	4469      	add	r1, sp
   27e84:	3108      	adds	r1, #8
   27e86:	a80c      	add	r0, sp, #48	@ 0x30
   27e88:	224a      	movs	r2, #74	@ 0x4a
   27e8a:	f002 ffdb 	bl	2ae44 <__aeabi_memcpy4>
   27e8e:	e000      	b.n	27e92 <_start+0x196>
   27e90:	df03      	svc	3
   27e92:	a82f      	add	r0, sp, #188	@ 0xbc
   27e94:	7881      	ldrb	r1, [r0, #2]
   27e96:	4e6f      	ldr	r6, [pc, #444]	@ (28054 <_start+0x358>)
   27e98:	446e      	add	r6, sp
   27e9a:	70f1      	strb	r1, [r6, #3]
   27e9c:	7840      	ldrb	r0, [r0, #1]
   27e9e:	70b0      	strb	r0, [r6, #2]
   27ea0:	982f      	ldr	r0, [sp, #188]	@ 0xbc
   27ea2:	7070      	strb	r0, [r6, #1]
   27ea4:	4c69      	ldr	r4, [pc, #420]	@ (2804c <_start+0x350>)
   27ea6:	446c      	add	r4, sp
   27ea8:	a90c      	add	r1, sp, #48	@ 0x30
   27eaa:	254a      	movs	r5, #74	@ 0x4a
   27eac:	4620      	mov	r0, r4
   27eae:	462a      	mov	r2, r5
   27eb0:	f002 ffc8 	bl	2ae44 <__aeabi_memcpy4>
   27eb4:	4630      	mov	r0, r6
   27eb6:	3008      	adds	r0, #8
   27eb8:	4621      	mov	r1, r4
   27eba:	462a      	mov	r2, r5
   27ebc:	f002 ffc2 	bl	2ae44 <__aeabi_memcpy4>
   27ec0:	9c09      	ldr	r4, [sp, #36]	@ 0x24
   27ec2:	7034      	strb	r4, [r6, #0]
   27ec4:	9808      	ldr	r0, [sp, #32]
   27ec6:	990a      	ldr	r1, [sp, #40]	@ 0x28
   27ec8:	6601      	str	r1, [r0, #96]	@ 0x60
   27eca:	4d60      	ldr	r5, [pc, #384]	@ (2804c <_start+0x350>)
   27ecc:	446d      	add	r5, sp
   27ece:	1c68      	adds	r0, r5, #1
   27ed0:	2146      	movs	r1, #70	@ 0x46
   27ed2:	900a      	str	r0, [sp, #40]	@ 0x28
   27ed4:	f002 ff56 	bl	2ad84 <__aeabi_memclr>
   27ed8:	702c      	strb	r4, [r5, #0]
   27eda:	1c72      	adds	r2, r6, #1
   27edc:	4861      	ldr	r0, [pc, #388]	@ (28064 <_start+0x368>)
   27ede:	2107      	movs	r1, #7
   27ee0:	2351      	movs	r3, #81	@ 0x51
   27ee2:	df04      	svc	4
   27ee4:	2802      	cmp	r0, #2
   27ee6:	d02b      	beq.n	27f40 <_start+0x244>
   27ee8:	485a      	ldr	r0, [pc, #360]	@ (28054 <_start+0x358>)
   27eea:	4468      	add	r0, sp
   27eec:	990b      	ldr	r1, [sp, #44]	@ 0x2c
   27eee:	7001      	strb	r1, [r0, #0]
   27ef0:	485c      	ldr	r0, [pc, #368]	@ (28064 <_start+0x368>)
   27ef2:	2100      	movs	r1, #0
   27ef4:	2346      	movs	r3, #70	@ 0x46
   27ef6:	9c0a      	ldr	r4, [sp, #40]	@ 0x28
   27ef8:	4622      	mov	r2, r4
   27efa:	df03      	svc	3
   27efc:	2802      	cmp	r0, #2
   27efe:	d10d      	bne.n	27f1c <_start+0x220>
   27f00:	4852      	ldr	r0, [pc, #328]	@ (2804c <_start+0x350>)
   27f02:	4468      	add	r0, sp
   27f04:	7800      	ldrb	r0, [r0, #0]
   27f06:	2802      	cmp	r0, #2
   27f08:	d01a      	beq.n	27f40 <_start+0x244>
   27f0a:	460c      	mov	r4, r1
   27f0c:	2803      	cmp	r0, #3
   27f0e:	d011      	beq.n	27f34 <_start+0x238>
   27f10:	4854      	ldr	r0, [pc, #336]	@ (28064 <_start+0x368>)
   27f12:	2100      	movs	r1, #0
   27f14:	460a      	mov	r2, r1
   27f16:	460b      	mov	r3, r1
   27f18:	df04      	svc	4
   27f1a:	e010      	b.n	27f3e <_start+0x242>
   27f1c:	484b      	ldr	r0, [pc, #300]	@ (2804c <_start+0x350>)
   27f1e:	4468      	add	r0, sp
   27f20:	9906      	ldr	r1, [sp, #24]
   27f22:	7001      	strb	r1, [r0, #0]
   27f24:	484f      	ldr	r0, [pc, #316]	@ (28064 <_start+0x368>)
   27f26:	2107      	movs	r1, #7
   27f28:	2200      	movs	r2, #0
   27f2a:	4613      	mov	r3, r2
   27f2c:	df02      	svc	2
   27f2e:	2880      	cmp	r0, #128	@ 0x80
   27f30:	d21d      	bcs.n	27f6e <_start+0x272>
   27f32:	460c      	mov	r4, r1
   27f34:	484b      	ldr	r0, [pc, #300]	@ (28064 <_start+0x368>)
   27f36:	2100      	movs	r1, #0
   27f38:	460a      	mov	r2, r1
   27f3a:	460b      	mov	r3, r1
   27f3c:	df03      	svc	3
   27f3e:	4621      	mov	r1, r4
   27f40:	4844      	ldr	r0, [pc, #272]	@ (28054 <_start+0x358>)
   27f42:	4468      	add	r0, sp
   27f44:	7800      	ldrb	r0, [r0, #0]
   27f46:	2802      	cmp	r0, #2
   27f48:	d100      	bne.n	27f4c <_start+0x250>
   27f4a:	e740      	b.n	27dce <_start+0xd2>
   27f4c:	2804      	cmp	r0, #4
   27f4e:	d107      	bne.n	27f60 <_start+0x264>
   27f50:	4844      	ldr	r0, [pc, #272]	@ (28064 <_start+0x368>)
   27f52:	2207      	movs	r2, #7
   27f54:	2300      	movs	r3, #0
   27f56:	460c      	mov	r4, r1
   27f58:	4611      	mov	r1, r2
   27f5a:	461a      	mov	r2, r3
   27f5c:	df04      	svc	4
   27f5e:	e735      	b.n	27dcc <_start+0xd0>
   27f60:	460c      	mov	r4, r1
   27f62:	4840      	ldr	r0, [pc, #256]	@ (28064 <_start+0x368>)
   27f64:	2107      	movs	r1, #7
   27f66:	2200      	movs	r2, #0
   27f68:	4613      	mov	r3, r2
   27f6a:	df03      	svc	3
   27f6c:	e72e      	b.n	27dcc <_start+0xd0>
   27f6e:	4839      	ldr	r0, [pc, #228]	@ (28054 <_start+0x358>)
   27f70:	4468      	add	r0, sp
   27f72:	7800      	ldrb	r0, [r0, #0]
   27f74:	2802      	cmp	r0, #2
   27f76:	d00c      	beq.n	27f92 <_start+0x296>
   27f78:	2803      	cmp	r0, #3
   27f7a:	d105      	bne.n	27f88 <_start+0x28c>
   27f7c:	4839      	ldr	r0, [pc, #228]	@ (28064 <_start+0x368>)
   27f7e:	2107      	movs	r1, #7
   27f80:	2200      	movs	r2, #0
   27f82:	4613      	mov	r3, r2
   27f84:	df03      	svc	3
   27f86:	e004      	b.n	27f92 <_start+0x296>
   27f88:	4836      	ldr	r0, [pc, #216]	@ (28064 <_start+0x368>)
   27f8a:	2107      	movs	r1, #7
   27f8c:	2200      	movs	r2, #0
   27f8e:	4613      	mov	r3, r2
   27f90:	df04      	svc	4
   27f92:	4830      	ldr	r0, [pc, #192]	@ (28054 <_start+0x358>)
   27f94:	4468      	add	r0, sp
   27f96:	9909      	ldr	r1, [sp, #36]	@ 0x24
   27f98:	7001      	strb	r1, [r0, #0]
   27f9a:	482c      	ldr	r0, [pc, #176]	@ (2804c <_start+0x350>)
   27f9c:	4468      	add	r0, sp
   27f9e:	7800      	ldrb	r0, [r0, #0]
   27fa0:	2804      	cmp	r0, #4
   27fa2:	d007      	beq.n	27fb4 <_start+0x2b8>
   27fa4:	2803      	cmp	r0, #3
   27fa6:	d132      	bne.n	2800e <_start+0x312>
   27fa8:	482e      	ldr	r0, [pc, #184]	@ (28064 <_start+0x368>)
   27faa:	2100      	movs	r1, #0
   27fac:	460a      	mov	r2, r1
   27fae:	460b      	mov	r3, r1
   27fb0:	df03      	svc	3
   27fb2:	e004      	b.n	27fbe <_start+0x2c2>
   27fb4:	482b      	ldr	r0, [pc, #172]	@ (28064 <_start+0x368>)
   27fb6:	2100      	movs	r1, #0
   27fb8:	460a      	mov	r2, r1
   27fba:	460b      	mov	r3, r1
   27fbc:	df04      	svc	4
   27fbe:	78a0      	ldrb	r0, [r4, #2]
   27fc0:	a92f      	add	r1, sp, #188	@ 0xbc
   27fc2:	7088      	strb	r0, [r1, #2]
   27fc4:	7820      	ldrb	r0, [r4, #0]
   27fc6:	7862      	ldrb	r2, [r4, #1]
   27fc8:	0212      	lsls	r2, r2, #8
   27fca:	1810      	adds	r0, r2, r0
   27fcc:	8008      	strh	r0, [r1, #0]
   27fce:	4821      	ldr	r0, [pc, #132]	@ (28054 <_start+0x358>)
   27fd0:	4468      	add	r0, sp
   27fd2:	7800      	ldrb	r0, [r0, #0]
   27fd4:	491d      	ldr	r1, [pc, #116]	@ (2804c <_start+0x350>)
   27fd6:	4469      	add	r1, sp
   27fd8:	3108      	adds	r1, #8
   27fda:	9a07      	ldr	r2, [sp, #28]
   27fdc:	6812      	ldr	r2, [r2, #0]
   27fde:	9206      	str	r2, [sp, #24]
   27fe0:	aa1f      	add	r2, sp, #124	@ 0x7c
   27fe2:	c968      	ldmia	r1!, {r3, r5, r6}
   27fe4:	c268      	stmia	r2!, {r3, r5, r6}
   27fe6:	c978      	ldmia	r1!, {r3, r4, r5, r6}
   27fe8:	c278      	stmia	r2!, {r3, r4, r5, r6}
   27fea:	c978      	ldmia	r1!, {r3, r4, r5, r6}
   27fec:	c278      	stmia	r2!, {r3, r4, r5, r6}
   27fee:	c978      	ldmia	r1!, {r3, r4, r5, r6}
   27ff0:	c278      	stmia	r2!, {r3, r4, r5, r6}
   27ff2:	880b      	ldrh	r3, [r1, #0]
   27ff4:	8013      	strh	r3, [r2, #0]
   27ff6:	7889      	ldrb	r1, [r1, #2]
   27ff8:	7091      	strb	r1, [r2, #2]
   27ffa:	2802      	cmp	r0, #2
   27ffc:	d039      	beq.n	28072 <_start+0x376>
   27ffe:	2804      	cmp	r0, #4
   28000:	d132      	bne.n	28068 <_start+0x36c>
   28002:	4818      	ldr	r0, [pc, #96]	@ (28064 <_start+0x368>)
   28004:	2107      	movs	r1, #7
   28006:	2200      	movs	r2, #0
   28008:	4613      	mov	r3, r2
   2800a:	df04      	svc	4
   2800c:	e031      	b.n	28072 <_start+0x376>
   2800e:	78a0      	ldrb	r0, [r4, #2]
   28010:	a92f      	add	r1, sp, #188	@ 0xbc
   28012:	7088      	strb	r0, [r1, #2]
   28014:	7820      	ldrb	r0, [r4, #0]
   28016:	7862      	ldrb	r2, [r4, #1]
   28018:	0212      	lsls	r2, r2, #8
   2801a:	1810      	adds	r0, r2, r0
   2801c:	8008      	strh	r0, [r1, #0]
   2801e:	480b      	ldr	r0, [pc, #44]	@ (2804c <_start+0x350>)
   28020:	4468      	add	r0, sp
   28022:	3008      	adds	r0, #8
   28024:	9907      	ldr	r1, [sp, #28]
   28026:	6809      	ldr	r1, [r1, #0]
   28028:	9106      	str	r1, [sp, #24]
   2802a:	a91f      	add	r1, sp, #124	@ 0x7c
   2802c:	c82c      	ldmia	r0!, {r2, r3, r5}
   2802e:	c12c      	stmia	r1!, {r2, r3, r5}
   28030:	c86c      	ldmia	r0!, {r2, r3, r5, r6}
   28032:	c16c      	stmia	r1!, {r2, r3, r5, r6}
   28034:	c86c      	ldmia	r0!, {r2, r3, r5, r6}
   28036:	c16c      	stmia	r1!, {r2, r3, r5, r6}
   28038:	c86c      	ldmia	r0!, {r2, r3, r5, r6}
   2803a:	c16c      	stmia	r1!, {r2, r3, r5, r6}
   2803c:	8802      	ldrh	r2, [r0, #0]
   2803e:	800a      	strh	r2, [r1, #0]
   28040:	7880      	ldrb	r0, [r0, #2]
   28042:	7088      	strb	r0, [r1, #2]
   28044:	e015      	b.n	28072 <_start+0x376>
   28046:	46c0      	nop			@ (mov r8, r8)
   28048:	ffffeadc 	.word	0xffffeadc
   2804c:	000013a8 	.word	0x000013a8
   28050:	000013ac 	.word	0x000013ac
   28054:	00001404 	.word	0x00001404
   28058:	00002006 	.word	0x00002006
   2805c:	00000508 	.word	0x00000508
   28060:	000007dc 	.word	0x000007dc
   28064:	000020c4 	.word	0x000020c4
   28068:	48da      	ldr	r0, [pc, #872]	@ (283d4 <_start+0x6d8>)
   2806a:	2107      	movs	r1, #7
   2806c:	2200      	movs	r2, #0
   2806e:	4613      	mov	r3, r2
   28070:	df03      	svc	3
   28072:	a82f      	add	r0, sp, #188	@ 0xbc
   28074:	7881      	ldrb	r1, [r0, #2]
   28076:	4ad8      	ldr	r2, [pc, #864]	@ (283d8 <_start+0x6dc>)
   28078:	446a      	add	r2, sp
   2807a:	920a      	str	r2, [sp, #40]	@ 0x28
   2807c:	70d1      	strb	r1, [r2, #3]
   2807e:	7840      	ldrb	r0, [r0, #1]
   28080:	7090      	strb	r0, [r2, #2]
   28082:	982f      	ldr	r0, [sp, #188]	@ 0xbc
   28084:	7050      	strb	r0, [r2, #1]
   28086:	a91f      	add	r1, sp, #124	@ 0x7c
   28088:	a80c      	add	r0, sp, #48	@ 0x30
   2808a:	4602      	mov	r2, r0
   2808c:	c938      	ldmia	r1!, {r3, r4, r5}
   2808e:	c238      	stmia	r2!, {r3, r4, r5}
   28090:	c978      	ldmia	r1!, {r3, r4, r5, r6}
   28092:	c278      	stmia	r2!, {r3, r4, r5, r6}
   28094:	c978      	ldmia	r1!, {r3, r4, r5, r6}
   28096:	c278      	stmia	r2!, {r3, r4, r5, r6}
   28098:	c978      	ldmia	r1!, {r3, r4, r5, r6}
   2809a:	c278      	stmia	r2!, {r3, r4, r5, r6}
   2809c:	880b      	ldrh	r3, [r1, #0]
   2809e:	8013      	strh	r3, [r2, #0]
   280a0:	7889      	ldrb	r1, [r1, #2]
   280a2:	7091      	strb	r1, [r2, #2]
   280a4:	990a      	ldr	r1, [sp, #40]	@ 0x28
   280a6:	3108      	adds	r1, #8
   280a8:	c81c      	ldmia	r0!, {r2, r3, r4}
   280aa:	c11c      	stmia	r1!, {r2, r3, r4}
   280ac:	c83c      	ldmia	r0!, {r2, r3, r4, r5}
   280ae:	c13c      	stmia	r1!, {r2, r3, r4, r5}
   280b0:	c83c      	ldmia	r0!, {r2, r3, r4, r5}
   280b2:	c13c      	stmia	r1!, {r2, r3, r4, r5}
   280b4:	c83c      	ldmia	r0!, {r2, r3, r4, r5}
   280b6:	c13c      	stmia	r1!, {r2, r3, r4, r5}
   280b8:	8802      	ldrh	r2, [r0, #0]
   280ba:	800a      	strh	r2, [r1, #0]
   280bc:	7880      	ldrb	r0, [r0, #2]
   280be:	7088      	strb	r0, [r1, #2]
   280c0:	9e09      	ldr	r6, [sp, #36]	@ 0x24
   280c2:	9d0a      	ldr	r5, [sp, #40]	@ 0x28
   280c4:	702e      	strb	r6, [r5, #0]
   280c6:	9808      	ldr	r0, [sp, #32]
   280c8:	9906      	ldr	r1, [sp, #24]
   280ca:	6601      	str	r1, [r0, #96]	@ 0x60
   280cc:	4cc3      	ldr	r4, [pc, #780]	@ (283dc <_start+0x6e0>)
   280ce:	446c      	add	r4, sp
   280d0:	1c60      	adds	r0, r4, #1
   280d2:	2118      	movs	r1, #24
   280d4:	9006      	str	r0, [sp, #24]
   280d6:	f002 fe55 	bl	2ad84 <__aeabi_memclr>
   280da:	7026      	strb	r6, [r4, #0]
   280dc:	1c6a      	adds	r2, r5, #1
   280de:	48c0      	ldr	r0, [pc, #768]	@ (283e0 <_start+0x6e4>)
   280e0:	2403      	movs	r4, #3
   280e2:	2346      	movs	r3, #70	@ 0x46
   280e4:	4621      	mov	r1, r4
   280e6:	df04      	svc	4
   280e8:	2802      	cmp	r0, #2
   280ea:	d02b      	beq.n	28144 <_start+0x448>
   280ec:	48ba      	ldr	r0, [pc, #744]	@ (283d8 <_start+0x6dc>)
   280ee:	4468      	add	r0, sp
   280f0:	990b      	ldr	r1, [sp, #44]	@ 0x2c
   280f2:	7001      	strb	r1, [r0, #0]
   280f4:	48ba      	ldr	r0, [pc, #744]	@ (283e0 <_start+0x6e4>)
   280f6:	2102      	movs	r1, #2
   280f8:	2318      	movs	r3, #24
   280fa:	9d06      	ldr	r5, [sp, #24]
   280fc:	462a      	mov	r2, r5
   280fe:	df03      	svc	3
   28100:	2802      	cmp	r0, #2
   28102:	d10d      	bne.n	28120 <_start+0x424>
   28104:	48b5      	ldr	r0, [pc, #724]	@ (283dc <_start+0x6e0>)
   28106:	4468      	add	r0, sp
   28108:	7800      	ldrb	r0, [r0, #0]
   2810a:	2802      	cmp	r0, #2
   2810c:	d01a      	beq.n	28144 <_start+0x448>
   2810e:	460c      	mov	r4, r1
   28110:	2803      	cmp	r0, #3
   28112:	d011      	beq.n	28138 <_start+0x43c>
   28114:	48b2      	ldr	r0, [pc, #712]	@ (283e0 <_start+0x6e4>)
   28116:	2102      	movs	r1, #2
   28118:	2200      	movs	r2, #0
   2811a:	4613      	mov	r3, r2
   2811c:	df04      	svc	4
   2811e:	e010      	b.n	28142 <_start+0x446>
   28120:	48ae      	ldr	r0, [pc, #696]	@ (283dc <_start+0x6e0>)
   28122:	4468      	add	r0, sp
   28124:	7004      	strb	r4, [r0, #0]
   28126:	48ae      	ldr	r0, [pc, #696]	@ (283e0 <_start+0x6e4>)
   28128:	2602      	movs	r6, #2
   2812a:	2300      	movs	r3, #0
   2812c:	4621      	mov	r1, r4
   2812e:	4632      	mov	r2, r6
   28130:	df02      	svc	2
   28132:	2880      	cmp	r0, #128	@ 0x80
   28134:	d21d      	bcs.n	28172 <_start+0x476>
   28136:	460c      	mov	r4, r1
   28138:	48a9      	ldr	r0, [pc, #676]	@ (283e0 <_start+0x6e4>)
   2813a:	2102      	movs	r1, #2
   2813c:	2200      	movs	r2, #0
   2813e:	4613      	mov	r3, r2
   28140:	df03      	svc	3
   28142:	4621      	mov	r1, r4
   28144:	48a4      	ldr	r0, [pc, #656]	@ (283d8 <_start+0x6dc>)
   28146:	4468      	add	r0, sp
   28148:	7800      	ldrb	r0, [r0, #0]
   2814a:	2802      	cmp	r0, #2
   2814c:	d100      	bne.n	28150 <_start+0x454>
   2814e:	e63e      	b.n	27dce <_start+0xd2>
   28150:	2804      	cmp	r0, #4
   28152:	d107      	bne.n	28164 <_start+0x468>
   28154:	48a2      	ldr	r0, [pc, #648]	@ (283e0 <_start+0x6e4>)
   28156:	2203      	movs	r2, #3
   28158:	2300      	movs	r3, #0
   2815a:	460c      	mov	r4, r1
   2815c:	4611      	mov	r1, r2
   2815e:	461a      	mov	r2, r3
   28160:	df04      	svc	4
   28162:	e633      	b.n	27dcc <_start+0xd0>
   28164:	460c      	mov	r4, r1
   28166:	489e      	ldr	r0, [pc, #632]	@ (283e0 <_start+0x6e4>)
   28168:	2103      	movs	r1, #3
   2816a:	2200      	movs	r2, #0
   2816c:	4613      	mov	r3, r2
   2816e:	df03      	svc	3
   28170:	e62c      	b.n	27dcc <_start+0xd0>
   28172:	4899      	ldr	r0, [pc, #612]	@ (283d8 <_start+0x6dc>)
   28174:	4468      	add	r0, sp
   28176:	7800      	ldrb	r0, [r0, #0]
   28178:	2802      	cmp	r0, #2
   2817a:	d00c      	beq.n	28196 <_start+0x49a>
   2817c:	2803      	cmp	r0, #3
   2817e:	d105      	bne.n	2818c <_start+0x490>
   28180:	4897      	ldr	r0, [pc, #604]	@ (283e0 <_start+0x6e4>)
   28182:	2103      	movs	r1, #3
   28184:	2200      	movs	r2, #0
   28186:	4613      	mov	r3, r2
   28188:	df03      	svc	3
   2818a:	e004      	b.n	28196 <_start+0x49a>
   2818c:	4894      	ldr	r0, [pc, #592]	@ (283e0 <_start+0x6e4>)
   2818e:	2103      	movs	r1, #3
   28190:	2200      	movs	r2, #0
   28192:	4613      	mov	r3, r2
   28194:	df04      	svc	4
   28196:	4890      	ldr	r0, [pc, #576]	@ (283d8 <_start+0x6dc>)
   28198:	4468      	add	r0, sp
   2819a:	7006      	strb	r6, [r0, #0]
   2819c:	488f      	ldr	r0, [pc, #572]	@ (283dc <_start+0x6e0>)
   2819e:	4468      	add	r0, sp
   281a0:	7800      	ldrb	r0, [r0, #0]
   281a2:	2804      	cmp	r0, #4
   281a4:	9402      	str	r4, [sp, #8]
   281a6:	960a      	str	r6, [sp, #40]	@ 0x28
   281a8:	d007      	beq.n	281ba <_start+0x4be>
   281aa:	2803      	cmp	r0, #3
   281ac:	d12a      	bne.n	28204 <_start+0x508>
   281ae:	488c      	ldr	r0, [pc, #560]	@ (283e0 <_start+0x6e4>)
   281b0:	2102      	movs	r1, #2
   281b2:	2200      	movs	r2, #0
   281b4:	4613      	mov	r3, r2
   281b6:	df03      	svc	3
   281b8:	e004      	b.n	281c4 <_start+0x4c8>
   281ba:	4889      	ldr	r0, [pc, #548]	@ (283e0 <_start+0x6e4>)
   281bc:	2102      	movs	r1, #2
   281be:	2200      	movs	r2, #0
   281c0:	4613      	mov	r3, r2
   281c2:	df04      	svc	4
   281c4:	78a8      	ldrb	r0, [r5, #2]
   281c6:	a934      	add	r1, sp, #208	@ 0xd0
   281c8:	7088      	strb	r0, [r1, #2]
   281ca:	7828      	ldrb	r0, [r5, #0]
   281cc:	786a      	ldrb	r2, [r5, #1]
   281ce:	0212      	lsls	r2, r2, #8
   281d0:	1810      	adds	r0, r2, r0
   281d2:	8008      	strh	r0, [r1, #0]
   281d4:	4880      	ldr	r0, [pc, #512]	@ (283d8 <_start+0x6dc>)
   281d6:	4468      	add	r0, sp
   281d8:	7800      	ldrb	r0, [r0, #0]
   281da:	4980      	ldr	r1, [pc, #512]	@ (283dc <_start+0x6e0>)
   281dc:	4469      	add	r1, sp
   281de:	3108      	adds	r1, #8
   281e0:	9a07      	ldr	r2, [sp, #28]
   281e2:	6812      	ldr	r2, [r2, #0]
   281e4:	9209      	str	r2, [sp, #36]	@ 0x24
   281e6:	aa2f      	add	r2, sp, #188	@ 0xbc
   281e8:	c978      	ldmia	r1!, {r3, r4, r5, r6}
   281ea:	c278      	stmia	r2!, {r3, r4, r5, r6}
   281ec:	7809      	ldrb	r1, [r1, #0]
   281ee:	7011      	strb	r1, [r2, #0]
   281f0:	2802      	cmp	r0, #2
   281f2:	d020      	beq.n	28236 <_start+0x53a>
   281f4:	2804      	cmp	r0, #4
   281f6:	d119      	bne.n	2822c <_start+0x530>
   281f8:	4879      	ldr	r0, [pc, #484]	@ (283e0 <_start+0x6e4>)
   281fa:	2103      	movs	r1, #3
   281fc:	2200      	movs	r2, #0
   281fe:	4613      	mov	r3, r2
   28200:	df04      	svc	4
   28202:	e018      	b.n	28236 <_start+0x53a>
   28204:	78a8      	ldrb	r0, [r5, #2]
   28206:	a934      	add	r1, sp, #208	@ 0xd0
   28208:	7088      	strb	r0, [r1, #2]
   2820a:	7828      	ldrb	r0, [r5, #0]
   2820c:	786a      	ldrb	r2, [r5, #1]
   2820e:	0212      	lsls	r2, r2, #8
   28210:	1810      	adds	r0, r2, r0
   28212:	8008      	strh	r0, [r1, #0]
   28214:	4871      	ldr	r0, [pc, #452]	@ (283dc <_start+0x6e0>)
   28216:	4468      	add	r0, sp
   28218:	3008      	adds	r0, #8
   2821a:	9907      	ldr	r1, [sp, #28]
   2821c:	6809      	ldr	r1, [r1, #0]
   2821e:	9109      	str	r1, [sp, #36]	@ 0x24
   28220:	a92f      	add	r1, sp, #188	@ 0xbc
   28222:	c86c      	ldmia	r0!, {r2, r3, r5, r6}
   28224:	c16c      	stmia	r1!, {r2, r3, r5, r6}
   28226:	7800      	ldrb	r0, [r0, #0]
   28228:	7008      	strb	r0, [r1, #0]
   2822a:	e004      	b.n	28236 <_start+0x53a>
   2822c:	486c      	ldr	r0, [pc, #432]	@ (283e0 <_start+0x6e4>)
   2822e:	2103      	movs	r1, #3
   28230:	2200      	movs	r2, #0
   28232:	4613      	mov	r3, r2
   28234:	df03      	svc	3
   28236:	a834      	add	r0, sp, #208	@ 0xd0
   28238:	7881      	ldrb	r1, [r0, #2]
   2823a:	aa1f      	add	r2, sp, #124	@ 0x7c
   2823c:	9206      	str	r2, [sp, #24]
   2823e:	70d1      	strb	r1, [r2, #3]
   28240:	7840      	ldrb	r0, [r0, #1]
   28242:	7090      	strb	r0, [r2, #2]
   28244:	9834      	ldr	r0, [sp, #208]	@ 0xd0
   28246:	7050      	strb	r0, [r2, #1]
   28248:	a82f      	add	r0, sp, #188	@ 0xbc
   2824a:	a90c      	add	r1, sp, #48	@ 0x30
   2824c:	460a      	mov	r2, r1
   2824e:	c878      	ldmia	r0!, {r3, r4, r5, r6}
   28250:	c278      	stmia	r2!, {r3, r4, r5, r6}
   28252:	7800      	ldrb	r0, [r0, #0]
   28254:	7010      	strb	r0, [r2, #0]
   28256:	9e06      	ldr	r6, [sp, #24]
   28258:	4630      	mov	r0, r6
   2825a:	3008      	adds	r0, #8
   2825c:	c93c      	ldmia	r1!, {r2, r3, r4, r5}
   2825e:	c03c      	stmia	r0!, {r2, r3, r4, r5}
   28260:	7809      	ldrb	r1, [r1, #0]
   28262:	7001      	strb	r1, [r0, #0]
   28264:	9c0a      	ldr	r4, [sp, #40]	@ 0x28
   28266:	7034      	strb	r4, [r6, #0]
   28268:	9809      	ldr	r0, [sp, #36]	@ 0x24
   2826a:	9020      	str	r0, [sp, #128]	@ 0x80
   2826c:	4d5a      	ldr	r5, [pc, #360]	@ (283d8 <_start+0x6dc>)
   2826e:	446d      	add	r5, sp
   28270:	1c68      	adds	r0, r5, #1
   28272:	2136      	movs	r1, #54	@ 0x36
   28274:	9009      	str	r0, [sp, #36]	@ 0x24
   28276:	f002 fd85 	bl	2ad84 <__aeabi_memclr>
   2827a:	702c      	strb	r4, [r5, #0]
   2827c:	1c72      	adds	r2, r6, #1
   2827e:	4859      	ldr	r0, [pc, #356]	@ (283e4 <_start+0x6e8>)
   28280:	2100      	movs	r1, #0
   28282:	2318      	movs	r3, #24
   28284:	df04      	svc	4
   28286:	2802      	cmp	r0, #2
   28288:	d02a      	beq.n	282e0 <_start+0x5e4>
   2828a:	a81f      	add	r0, sp, #124	@ 0x7c
   2828c:	990b      	ldr	r1, [sp, #44]	@ 0x2c
   2828e:	7001      	strb	r1, [r0, #0]
   28290:	4854      	ldr	r0, [pc, #336]	@ (283e4 <_start+0x6e8>)
   28292:	2107      	movs	r1, #7
   28294:	2336      	movs	r3, #54	@ 0x36
   28296:	9d09      	ldr	r5, [sp, #36]	@ 0x24
   28298:	462a      	mov	r2, r5
   2829a:	df03      	svc	3
   2829c:	2802      	cmp	r0, #2
   2829e:	d10d      	bne.n	282bc <_start+0x5c0>
   282a0:	484d      	ldr	r0, [pc, #308]	@ (283d8 <_start+0x6dc>)
   282a2:	4468      	add	r0, sp
   282a4:	7800      	ldrb	r0, [r0, #0]
   282a6:	2802      	cmp	r0, #2
   282a8:	d01a      	beq.n	282e0 <_start+0x5e4>
   282aa:	460c      	mov	r4, r1
   282ac:	2803      	cmp	r0, #3
   282ae:	d011      	beq.n	282d4 <_start+0x5d8>
   282b0:	484c      	ldr	r0, [pc, #304]	@ (283e4 <_start+0x6e8>)
   282b2:	2107      	movs	r1, #7
   282b4:	2200      	movs	r2, #0
   282b6:	4613      	mov	r3, r2
   282b8:	df04      	svc	4
   282ba:	e010      	b.n	282de <_start+0x5e2>
   282bc:	4846      	ldr	r0, [pc, #280]	@ (283d8 <_start+0x6dc>)
   282be:	4468      	add	r0, sp
   282c0:	9902      	ldr	r1, [sp, #8]
   282c2:	7001      	strb	r1, [r0, #0]
   282c4:	4847      	ldr	r0, [pc, #284]	@ (283e4 <_start+0x6e8>)
   282c6:	2207      	movs	r2, #7
   282c8:	2100      	movs	r1, #0
   282ca:	460b      	mov	r3, r1
   282cc:	df02      	svc	2
   282ce:	2880      	cmp	r0, #128	@ 0x80
   282d0:	d21b      	bcs.n	2830a <_start+0x60e>
   282d2:	460c      	mov	r4, r1
   282d4:	4843      	ldr	r0, [pc, #268]	@ (283e4 <_start+0x6e8>)
   282d6:	2107      	movs	r1, #7
   282d8:	2200      	movs	r2, #0
   282da:	4613      	mov	r3, r2
   282dc:	df03      	svc	3
   282de:	4621      	mov	r1, r4
   282e0:	a81f      	add	r0, sp, #124	@ 0x7c
   282e2:	7800      	ldrb	r0, [r0, #0]
   282e4:	2802      	cmp	r0, #2
   282e6:	d100      	bne.n	282ea <_start+0x5ee>
   282e8:	e571      	b.n	27dce <_start+0xd2>
   282ea:	2804      	cmp	r0, #4
   282ec:	d106      	bne.n	282fc <_start+0x600>
   282ee:	483d      	ldr	r0, [pc, #244]	@ (283e4 <_start+0x6e8>)
   282f0:	2200      	movs	r2, #0
   282f2:	460c      	mov	r4, r1
   282f4:	4611      	mov	r1, r2
   282f6:	4613      	mov	r3, r2
   282f8:	df04      	svc	4
   282fa:	e567      	b.n	27dcc <_start+0xd0>
   282fc:	460c      	mov	r4, r1
   282fe:	4839      	ldr	r0, [pc, #228]	@ (283e4 <_start+0x6e8>)
   28300:	2100      	movs	r1, #0
   28302:	460a      	mov	r2, r1
   28304:	460b      	mov	r3, r1
   28306:	df03      	svc	3
   28308:	e560      	b.n	27dcc <_start+0xd0>
   2830a:	a81f      	add	r0, sp, #124	@ 0x7c
   2830c:	7800      	ldrb	r0, [r0, #0]
   2830e:	2802      	cmp	r0, #2
   28310:	d00c      	beq.n	2832c <_start+0x630>
   28312:	2803      	cmp	r0, #3
   28314:	d105      	bne.n	28322 <_start+0x626>
   28316:	4833      	ldr	r0, [pc, #204]	@ (283e4 <_start+0x6e8>)
   28318:	2100      	movs	r1, #0
   2831a:	460a      	mov	r2, r1
   2831c:	460b      	mov	r3, r1
   2831e:	df03      	svc	3
   28320:	e004      	b.n	2832c <_start+0x630>
   28322:	4830      	ldr	r0, [pc, #192]	@ (283e4 <_start+0x6e8>)
   28324:	2100      	movs	r1, #0
   28326:	460a      	mov	r2, r1
   28328:	460b      	mov	r3, r1
   2832a:	df04      	svc	4
   2832c:	a81f      	add	r0, sp, #124	@ 0x7c
   2832e:	7004      	strb	r4, [r0, #0]
   28330:	4829      	ldr	r0, [pc, #164]	@ (283d8 <_start+0x6dc>)
   28332:	4468      	add	r0, sp
   28334:	7800      	ldrb	r0, [r0, #0]
   28336:	2804      	cmp	r0, #4
   28338:	d007      	beq.n	2834a <_start+0x64e>
   2833a:	2803      	cmp	r0, #3
   2833c:	d12f      	bne.n	2839e <_start+0x6a2>
   2833e:	4829      	ldr	r0, [pc, #164]	@ (283e4 <_start+0x6e8>)
   28340:	2107      	movs	r1, #7
   28342:	2200      	movs	r2, #0
   28344:	4613      	mov	r3, r2
   28346:	df03      	svc	3
   28348:	e004      	b.n	28354 <_start+0x658>
   2834a:	4826      	ldr	r0, [pc, #152]	@ (283e4 <_start+0x6e8>)
   2834c:	2107      	movs	r1, #7
   2834e:	2200      	movs	r2, #0
   28350:	4613      	mov	r3, r2
   28352:	df04      	svc	4
   28354:	78a8      	ldrb	r0, [r5, #2]
   28356:	a92f      	add	r1, sp, #188	@ 0xbc
   28358:	7088      	strb	r0, [r1, #2]
   2835a:	7828      	ldrb	r0, [r5, #0]
   2835c:	786a      	ldrb	r2, [r5, #1]
   2835e:	0212      	lsls	r2, r2, #8
   28360:	1810      	adds	r0, r2, r0
   28362:	8008      	strh	r0, [r1, #0]
   28364:	a81f      	add	r0, sp, #124	@ 0x7c
   28366:	7800      	ldrb	r0, [r0, #0]
   28368:	491b      	ldr	r1, [pc, #108]	@ (283d8 <_start+0x6dc>)
   2836a:	4469      	add	r1, sp
   2836c:	3108      	adds	r1, #8
   2836e:	9a08      	ldr	r2, [sp, #32]
   28370:	6e12      	ldr	r2, [r2, #96]	@ 0x60
   28372:	9209      	str	r2, [sp, #36]	@ 0x24
   28374:	aa0c      	add	r2, sp, #48	@ 0x30
   28376:	c958      	ldmia	r1!, {r3, r4, r6}
   28378:	c258      	stmia	r2!, {r3, r4, r6}
   2837a:	c978      	ldmia	r1!, {r3, r4, r5, r6}
   2837c:	c278      	stmia	r2!, {r3, r4, r5, r6}
   2837e:	c978      	ldmia	r1!, {r3, r4, r5, r6}
   28380:	c278      	stmia	r2!, {r3, r4, r5, r6}
   28382:	880b      	ldrh	r3, [r1, #0]
   28384:	8013      	strh	r3, [r2, #0]
   28386:	7889      	ldrb	r1, [r1, #2]
   28388:	7091      	strb	r1, [r2, #2]
   2838a:	2802      	cmp	r0, #2
   2838c:	d031      	beq.n	283f2 <_start+0x6f6>
   2838e:	2804      	cmp	r0, #4
   28390:	d12a      	bne.n	283e8 <_start+0x6ec>
   28392:	4814      	ldr	r0, [pc, #80]	@ (283e4 <_start+0x6e8>)
   28394:	2100      	movs	r1, #0
   28396:	460a      	mov	r2, r1
   28398:	460b      	mov	r3, r1
   2839a:	df04      	svc	4
   2839c:	e029      	b.n	283f2 <_start+0x6f6>
   2839e:	78a8      	ldrb	r0, [r5, #2]
   283a0:	a92f      	add	r1, sp, #188	@ 0xbc
   283a2:	7088      	strb	r0, [r1, #2]
   283a4:	7828      	ldrb	r0, [r5, #0]
   283a6:	786a      	ldrb	r2, [r5, #1]
   283a8:	0212      	lsls	r2, r2, #8
   283aa:	1810      	adds	r0, r2, r0
   283ac:	8008      	strh	r0, [r1, #0]
   283ae:	480a      	ldr	r0, [pc, #40]	@ (283d8 <_start+0x6dc>)
   283b0:	4468      	add	r0, sp
   283b2:	3008      	adds	r0, #8
   283b4:	9908      	ldr	r1, [sp, #32]
   283b6:	6e09      	ldr	r1, [r1, #96]	@ 0x60
   283b8:	9109      	str	r1, [sp, #36]	@ 0x24
   283ba:	a90c      	add	r1, sp, #48	@ 0x30
   283bc:	c81c      	ldmia	r0!, {r2, r3, r4}
   283be:	c11c      	stmia	r1!, {r2, r3, r4}
   283c0:	c85c      	ldmia	r0!, {r2, r3, r4, r6}
   283c2:	c15c      	stmia	r1!, {r2, r3, r4, r6}
   283c4:	c85c      	ldmia	r0!, {r2, r3, r4, r6}
   283c6:	c15c      	stmia	r1!, {r2, r3, r4, r6}
   283c8:	8802      	ldrh	r2, [r0, #0]
   283ca:	800a      	strh	r2, [r1, #0]
   283cc:	7880      	ldrb	r0, [r0, #2]
   283ce:	7088      	strb	r0, [r1, #2]
   283d0:	e00f      	b.n	283f2 <_start+0x6f6>
   283d2:	46c0      	nop			@ (mov r8, r8)
   283d4:	000020c4 	.word	0x000020c4
   283d8:	00001404 	.word	0x00001404
   283dc:	000013a8 	.word	0x000013a8
   283e0:	000023cf 	.word	0x000023cf
   283e4:	0000021f 	.word	0x0000021f
   283e8:	48db      	ldr	r0, [pc, #876]	@ (28758 <_start+0xa5c>)
   283ea:	2100      	movs	r1, #0
   283ec:	460a      	mov	r2, r1
   283ee:	460b      	mov	r3, r1
   283f0:	df03      	svc	3
   283f2:	a82f      	add	r0, sp, #188	@ 0xbc
   283f4:	7881      	ldrb	r1, [r0, #2]
   283f6:	4ad9      	ldr	r2, [pc, #868]	@ (2875c <_start+0xa60>)
   283f8:	446a      	add	r2, sp
   283fa:	9206      	str	r2, [sp, #24]
   283fc:	70d1      	strb	r1, [r2, #3]
   283fe:	7840      	ldrb	r0, [r0, #1]
   28400:	7090      	strb	r0, [r2, #2]
   28402:	982f      	ldr	r0, [sp, #188]	@ 0xbc
   28404:	7050      	strb	r0, [r2, #1]
   28406:	a90c      	add	r1, sp, #48	@ 0x30
   28408:	48d5      	ldr	r0, [pc, #852]	@ (28760 <_start+0xa64>)
   2840a:	4468      	add	r0, sp
   2840c:	4602      	mov	r2, r0
   2840e:	c938      	ldmia	r1!, {r3, r4, r5}
   28410:	c238      	stmia	r2!, {r3, r4, r5}
   28412:	c978      	ldmia	r1!, {r3, r4, r5, r6}
   28414:	c278      	stmia	r2!, {r3, r4, r5, r6}
   28416:	c978      	ldmia	r1!, {r3, r4, r5, r6}
   28418:	c278      	stmia	r2!, {r3, r4, r5, r6}
   2841a:	880b      	ldrh	r3, [r1, #0]
   2841c:	8013      	strh	r3, [r2, #0]
   2841e:	7889      	ldrb	r1, [r1, #2]
   28420:	7091      	strb	r1, [r2, #2]
   28422:	9e06      	ldr	r6, [sp, #24]
   28424:	4631      	mov	r1, r6
   28426:	3108      	adds	r1, #8
   28428:	c81c      	ldmia	r0!, {r2, r3, r4}
   2842a:	c11c      	stmia	r1!, {r2, r3, r4}
   2842c:	c83c      	ldmia	r0!, {r2, r3, r4, r5}
   2842e:	c13c      	stmia	r1!, {r2, r3, r4, r5}
   28430:	c83c      	ldmia	r0!, {r2, r3, r4, r5}
   28432:	c13c      	stmia	r1!, {r2, r3, r4, r5}
   28434:	8802      	ldrh	r2, [r0, #0]
   28436:	800a      	strh	r2, [r1, #0]
   28438:	7880      	ldrb	r0, [r0, #2]
   2843a:	7088      	strb	r0, [r1, #2]
   2843c:	980a      	ldr	r0, [sp, #40]	@ 0x28
   2843e:	4635      	mov	r5, r6
   28440:	7030      	strb	r0, [r6, #0]
   28442:	4606      	mov	r6, r0
   28444:	9808      	ldr	r0, [sp, #32]
   28446:	9909      	ldr	r1, [sp, #36]	@ 0x24
   28448:	6601      	str	r1, [r0, #96]	@ 0x60
   2844a:	4cc5      	ldr	r4, [pc, #788]	@ (28760 <_start+0xa64>)
   2844c:	446c      	add	r4, sp
   2844e:	1c60      	adds	r0, r4, #1
   28450:	2125      	movs	r1, #37	@ 0x25
   28452:	9009      	str	r0, [sp, #36]	@ 0x24
   28454:	f002 fc96 	bl	2ad84 <__aeabi_memclr>
   28458:	7026      	strb	r6, [r4, #0]
   2845a:	1c6a      	adds	r2, r5, #1
   2845c:	48c1      	ldr	r0, [pc, #772]	@ (28764 <_start+0xa68>)
   2845e:	2107      	movs	r1, #7
   28460:	2336      	movs	r3, #54	@ 0x36
   28462:	df04      	svc	4
   28464:	2802      	cmp	r0, #2
   28466:	d02b      	beq.n	284c0 <_start+0x7c4>
   28468:	48bc      	ldr	r0, [pc, #752]	@ (2875c <_start+0xa60>)
   2846a:	4468      	add	r0, sp
   2846c:	990b      	ldr	r1, [sp, #44]	@ 0x2c
   2846e:	7001      	strb	r1, [r0, #0]
   28470:	48bc      	ldr	r0, [pc, #752]	@ (28764 <_start+0xa68>)
   28472:	2100      	movs	r1, #0
   28474:	2325      	movs	r3, #37	@ 0x25
   28476:	9e09      	ldr	r6, [sp, #36]	@ 0x24
   28478:	4632      	mov	r2, r6
   2847a:	df03      	svc	3
   2847c:	2802      	cmp	r0, #2
   2847e:	d10d      	bne.n	2849c <_start+0x7a0>
   28480:	9106      	str	r1, [sp, #24]
   28482:	48b7      	ldr	r0, [pc, #732]	@ (28760 <_start+0xa64>)
   28484:	4468      	add	r0, sp
   28486:	7800      	ldrb	r0, [r0, #0]
   28488:	2802      	cmp	r0, #2
   2848a:	d018      	beq.n	284be <_start+0x7c2>
   2848c:	2803      	cmp	r0, #3
   2848e:	d011      	beq.n	284b4 <_start+0x7b8>
   28490:	48b4      	ldr	r0, [pc, #720]	@ (28764 <_start+0xa68>)
   28492:	2100      	movs	r1, #0
   28494:	460a      	mov	r2, r1
   28496:	460b      	mov	r3, r1
   28498:	df04      	svc	4
   2849a:	e010      	b.n	284be <_start+0x7c2>
   2849c:	48b0      	ldr	r0, [pc, #704]	@ (28760 <_start+0xa64>)
   2849e:	4468      	add	r0, sp
   284a0:	9902      	ldr	r1, [sp, #8]
   284a2:	7001      	strb	r1, [r0, #0]
   284a4:	48af      	ldr	r0, [pc, #700]	@ (28764 <_start+0xa68>)
   284a6:	2107      	movs	r1, #7
   284a8:	2200      	movs	r2, #0
   284aa:	4613      	mov	r3, r2
   284ac:	df02      	svc	2
   284ae:	9106      	str	r1, [sp, #24]
   284b0:	2880      	cmp	r0, #128	@ 0x80
   284b2:	d21a      	bcs.n	284ea <_start+0x7ee>
   284b4:	48ab      	ldr	r0, [pc, #684]	@ (28764 <_start+0xa68>)
   284b6:	2100      	movs	r1, #0
   284b8:	460a      	mov	r2, r1
   284ba:	460b      	mov	r3, r1
   284bc:	df03      	svc	3
   284be:	9906      	ldr	r1, [sp, #24]
   284c0:	48a6      	ldr	r0, [pc, #664]	@ (2875c <_start+0xa60>)
   284c2:	4468      	add	r0, sp
   284c4:	7800      	ldrb	r0, [r0, #0]
   284c6:	2802      	cmp	r0, #2
   284c8:	d100      	bne.n	284cc <_start+0x7d0>
   284ca:	e480      	b.n	27dce <_start+0xd2>
   284cc:	460c      	mov	r4, r1
   284ce:	2804      	cmp	r0, #4
   284d0:	d105      	bne.n	284de <_start+0x7e2>
   284d2:	48a4      	ldr	r0, [pc, #656]	@ (28764 <_start+0xa68>)
   284d4:	2107      	movs	r1, #7
   284d6:	2200      	movs	r2, #0
   284d8:	4613      	mov	r3, r2
   284da:	df04      	svc	4
   284dc:	e476      	b.n	27dcc <_start+0xd0>
   284de:	48a1      	ldr	r0, [pc, #644]	@ (28764 <_start+0xa68>)
   284e0:	2107      	movs	r1, #7
   284e2:	2200      	movs	r2, #0
   284e4:	4613      	mov	r3, r2
   284e6:	df03      	svc	3
   284e8:	e470      	b.n	27dcc <_start+0xd0>
   284ea:	4634      	mov	r4, r6
   284ec:	489b      	ldr	r0, [pc, #620]	@ (2875c <_start+0xa60>)
   284ee:	4468      	add	r0, sp
   284f0:	7800      	ldrb	r0, [r0, #0]
   284f2:	2802      	cmp	r0, #2
   284f4:	d00c      	beq.n	28510 <_start+0x814>
   284f6:	2803      	cmp	r0, #3
   284f8:	d105      	bne.n	28506 <_start+0x80a>
   284fa:	489a      	ldr	r0, [pc, #616]	@ (28764 <_start+0xa68>)
   284fc:	2107      	movs	r1, #7
   284fe:	2200      	movs	r2, #0
   28500:	4613      	mov	r3, r2
   28502:	df03      	svc	3
   28504:	e004      	b.n	28510 <_start+0x814>
   28506:	4897      	ldr	r0, [pc, #604]	@ (28764 <_start+0xa68>)
   28508:	2107      	movs	r1, #7
   2850a:	2200      	movs	r2, #0
   2850c:	4613      	mov	r3, r2
   2850e:	df04      	svc	4
   28510:	4892      	ldr	r0, [pc, #584]	@ (2875c <_start+0xa60>)
   28512:	4468      	add	r0, sp
   28514:	990a      	ldr	r1, [sp, #40]	@ 0x28
   28516:	7001      	strb	r1, [r0, #0]
   28518:	4891      	ldr	r0, [pc, #580]	@ (28760 <_start+0xa64>)
   2851a:	4468      	add	r0, sp
   2851c:	7800      	ldrb	r0, [r0, #0]
   2851e:	2804      	cmp	r0, #4
   28520:	d007      	beq.n	28532 <_start+0x836>
   28522:	2803      	cmp	r0, #3
   28524:	d12c      	bne.n	28580 <_start+0x884>
   28526:	488f      	ldr	r0, [pc, #572]	@ (28764 <_start+0xa68>)
   28528:	2100      	movs	r1, #0
   2852a:	460a      	mov	r2, r1
   2852c:	460b      	mov	r3, r1
   2852e:	df03      	svc	3
   28530:	e004      	b.n	2853c <_start+0x840>
   28532:	488c      	ldr	r0, [pc, #560]	@ (28764 <_start+0xa68>)
   28534:	2100      	movs	r1, #0
   28536:	460a      	mov	r2, r1
   28538:	460b      	mov	r3, r1
   2853a:	df04      	svc	4
   2853c:	78a0      	ldrb	r0, [r4, #2]
   2853e:	a92f      	add	r1, sp, #188	@ 0xbc
   28540:	7088      	strb	r0, [r1, #2]
   28542:	7820      	ldrb	r0, [r4, #0]
   28544:	7862      	ldrb	r2, [r4, #1]
   28546:	0212      	lsls	r2, r2, #8
   28548:	1810      	adds	r0, r2, r0
   2854a:	8008      	strh	r0, [r1, #0]
   2854c:	4883      	ldr	r0, [pc, #524]	@ (2875c <_start+0xa60>)
   2854e:	4468      	add	r0, sp
   28550:	7800      	ldrb	r0, [r0, #0]
   28552:	4983      	ldr	r1, [pc, #524]	@ (28760 <_start+0xa64>)
   28554:	4469      	add	r1, sp
   28556:	3108      	adds	r1, #8
   28558:	9a07      	ldr	r2, [sp, #28]
   2855a:	6812      	ldr	r2, [r2, #0]
   2855c:	9209      	str	r2, [sp, #36]	@ 0x24
   2855e:	aa1f      	add	r2, sp, #124	@ 0x7c
   28560:	c958      	ldmia	r1!, {r3, r4, r6}
   28562:	c258      	stmia	r2!, {r3, r4, r6}
   28564:	c978      	ldmia	r1!, {r3, r4, r5, r6}
   28566:	c278      	stmia	r2!, {r3, r4, r5, r6}
   28568:	8809      	ldrh	r1, [r1, #0]
   2856a:	8011      	strh	r1, [r2, #0]
   2856c:	2802      	cmp	r0, #2
   2856e:	d022      	beq.n	285b6 <_start+0x8ba>
   28570:	2804      	cmp	r0, #4
   28572:	d11b      	bne.n	285ac <_start+0x8b0>
   28574:	487b      	ldr	r0, [pc, #492]	@ (28764 <_start+0xa68>)
   28576:	2107      	movs	r1, #7
   28578:	2200      	movs	r2, #0
   2857a:	4613      	mov	r3, r2
   2857c:	df04      	svc	4
   2857e:	e01a      	b.n	285b6 <_start+0x8ba>
   28580:	78a0      	ldrb	r0, [r4, #2]
   28582:	a92f      	add	r1, sp, #188	@ 0xbc
   28584:	7088      	strb	r0, [r1, #2]
   28586:	7820      	ldrb	r0, [r4, #0]
   28588:	7862      	ldrb	r2, [r4, #1]
   2858a:	0212      	lsls	r2, r2, #8
   2858c:	1810      	adds	r0, r2, r0
   2858e:	8008      	strh	r0, [r1, #0]
   28590:	4873      	ldr	r0, [pc, #460]	@ (28760 <_start+0xa64>)
   28592:	4468      	add	r0, sp
   28594:	3008      	adds	r0, #8
   28596:	9907      	ldr	r1, [sp, #28]
   28598:	6809      	ldr	r1, [r1, #0]
   2859a:	9109      	str	r1, [sp, #36]	@ 0x24
   2859c:	a91f      	add	r1, sp, #124	@ 0x7c
   2859e:	c81c      	ldmia	r0!, {r2, r3, r4}
   285a0:	c11c      	stmia	r1!, {r2, r3, r4}
   285a2:	c85c      	ldmia	r0!, {r2, r3, r4, r6}
   285a4:	c15c      	stmia	r1!, {r2, r3, r4, r6}
   285a6:	8800      	ldrh	r0, [r0, #0]
   285a8:	8008      	strh	r0, [r1, #0]
   285aa:	e004      	b.n	285b6 <_start+0x8ba>
   285ac:	486d      	ldr	r0, [pc, #436]	@ (28764 <_start+0xa68>)
   285ae:	2107      	movs	r1, #7
   285b0:	2200      	movs	r2, #0
   285b2:	4613      	mov	r3, r2
   285b4:	df03      	svc	3
   285b6:	a82f      	add	r0, sp, #188	@ 0xbc
   285b8:	7881      	ldrb	r1, [r0, #2]
   285ba:	4a68      	ldr	r2, [pc, #416]	@ (2875c <_start+0xa60>)
   285bc:	446a      	add	r2, sp
   285be:	9206      	str	r2, [sp, #24]
   285c0:	70d1      	strb	r1, [r2, #3]
   285c2:	7840      	ldrb	r0, [r0, #1]
   285c4:	7090      	strb	r0, [r2, #2]
   285c6:	982f      	ldr	r0, [sp, #188]	@ 0xbc
   285c8:	7050      	strb	r0, [r2, #1]
   285ca:	a91f      	add	r1, sp, #124	@ 0x7c
   285cc:	a80c      	add	r0, sp, #48	@ 0x30
   285ce:	4602      	mov	r2, r0
   285d0:	c938      	ldmia	r1!, {r3, r4, r5}
   285d2:	c238      	stmia	r2!, {r3, r4, r5}
   285d4:	c978      	ldmia	r1!, {r3, r4, r5, r6}
   285d6:	c278      	stmia	r2!, {r3, r4, r5, r6}
   285d8:	8809      	ldrh	r1, [r1, #0]
   285da:	8011      	strh	r1, [r2, #0]
   285dc:	9e06      	ldr	r6, [sp, #24]
   285de:	4631      	mov	r1, r6
   285e0:	3108      	adds	r1, #8
   285e2:	c81c      	ldmia	r0!, {r2, r3, r4}
   285e4:	c11c      	stmia	r1!, {r2, r3, r4}
   285e6:	c83c      	ldmia	r0!, {r2, r3, r4, r5}
   285e8:	c13c      	stmia	r1!, {r2, r3, r4, r5}
   285ea:	8800      	ldrh	r0, [r0, #0]
   285ec:	8008      	strh	r0, [r1, #0]
   285ee:	9d0a      	ldr	r5, [sp, #40]	@ 0x28
   285f0:	7035      	strb	r5, [r6, #0]
   285f2:	9808      	ldr	r0, [sp, #32]
   285f4:	9909      	ldr	r1, [sp, #36]	@ 0x24
   285f6:	6601      	str	r1, [r0, #96]	@ 0x60
   285f8:	4c59      	ldr	r4, [pc, #356]	@ (28760 <_start+0xa64>)
   285fa:	446c      	add	r4, sp
   285fc:	1c60      	adds	r0, r4, #1
   285fe:	210e      	movs	r1, #14
   28600:	9009      	str	r0, [sp, #36]	@ 0x24
   28602:	f002 fbbf 	bl	2ad84 <__aeabi_memclr>
   28606:	7025      	strb	r5, [r4, #0]
   28608:	1c72      	adds	r2, r6, #1
   2860a:	4857      	ldr	r0, [pc, #348]	@ (28768 <_start+0xa6c>)
   2860c:	2325      	movs	r3, #37	@ 0x25
   2860e:	4629      	mov	r1, r5
   28610:	df04      	svc	4
   28612:	2802      	cmp	r0, #2
   28614:	d101      	bne.n	2861a <_start+0x91e>
   28616:	460d      	mov	r5, r1
   28618:	e02a      	b.n	28670 <_start+0x974>
   2861a:	4850      	ldr	r0, [pc, #320]	@ (2875c <_start+0xa60>)
   2861c:	4468      	add	r0, sp
   2861e:	990b      	ldr	r1, [sp, #44]	@ 0x2c
   28620:	7001      	strb	r1, [r0, #0]
   28622:	4851      	ldr	r0, [pc, #324]	@ (28768 <_start+0xa6c>)
   28624:	2108      	movs	r1, #8
   28626:	230e      	movs	r3, #14
   28628:	9a09      	ldr	r2, [sp, #36]	@ 0x24
   2862a:	df03      	svc	3
   2862c:	2802      	cmp	r0, #2
   2862e:	d10d      	bne.n	2864c <_start+0x950>
   28630:	460d      	mov	r5, r1
   28632:	484b      	ldr	r0, [pc, #300]	@ (28760 <_start+0xa64>)
   28634:	4468      	add	r0, sp
   28636:	7800      	ldrb	r0, [r0, #0]
   28638:	2802      	cmp	r0, #2
   2863a:	d019      	beq.n	28670 <_start+0x974>
   2863c:	2803      	cmp	r0, #3
   2863e:	d012      	beq.n	28666 <_start+0x96a>
   28640:	4849      	ldr	r0, [pc, #292]	@ (28768 <_start+0xa6c>)
   28642:	2108      	movs	r1, #8
   28644:	2200      	movs	r2, #0
   28646:	4613      	mov	r3, r2
   28648:	df04      	svc	4
   2864a:	e011      	b.n	28670 <_start+0x974>
   2864c:	4844      	ldr	r0, [pc, #272]	@ (28760 <_start+0xa64>)
   2864e:	4468      	add	r0, sp
   28650:	9902      	ldr	r1, [sp, #8]
   28652:	7001      	strb	r1, [r0, #0]
   28654:	4844      	ldr	r0, [pc, #272]	@ (28768 <_start+0xa6c>)
   28656:	2402      	movs	r4, #2
   28658:	2208      	movs	r2, #8
   2865a:	2300      	movs	r3, #0
   2865c:	4621      	mov	r1, r4
   2865e:	df02      	svc	2
   28660:	2880      	cmp	r0, #128	@ 0x80
   28662:	d21b      	bcs.n	2869c <_start+0x9a0>
   28664:	460d      	mov	r5, r1
   28666:	4840      	ldr	r0, [pc, #256]	@ (28768 <_start+0xa6c>)
   28668:	2108      	movs	r1, #8
   2866a:	2200      	movs	r2, #0
   2866c:	4613      	mov	r3, r2
   2866e:	df03      	svc	3
   28670:	483a      	ldr	r0, [pc, #232]	@ (2875c <_start+0xa60>)
   28672:	4468      	add	r0, sp
   28674:	7800      	ldrb	r0, [r0, #0]
   28676:	2802      	cmp	r0, #2
   28678:	d00c      	beq.n	28694 <_start+0x998>
   2867a:	2804      	cmp	r0, #4
   2867c:	d105      	bne.n	2868a <_start+0x98e>
   2867e:	483a      	ldr	r0, [pc, #232]	@ (28768 <_start+0xa6c>)
   28680:	2102      	movs	r1, #2
   28682:	2200      	movs	r2, #0
   28684:	4613      	mov	r3, r2
   28686:	df04      	svc	4
   28688:	e004      	b.n	28694 <_start+0x998>
   2868a:	4837      	ldr	r0, [pc, #220]	@ (28768 <_start+0xa6c>)
   2868c:	2102      	movs	r1, #2
   2868e:	2200      	movs	r2, #0
   28690:	4613      	mov	r3, r2
   28692:	df03      	svc	3
   28694:	2001      	movs	r0, #1
   28696:	4629      	mov	r1, r5
   28698:	f7ff fb9a 	bl	27dd0 <_start+0xd4>
   2869c:	482f      	ldr	r0, [pc, #188]	@ (2875c <_start+0xa60>)
   2869e:	4468      	add	r0, sp
   286a0:	7800      	ldrb	r0, [r0, #0]
   286a2:	2802      	cmp	r0, #2
   286a4:	d00c      	beq.n	286c0 <_start+0x9c4>
   286a6:	2803      	cmp	r0, #3
   286a8:	d105      	bne.n	286b6 <_start+0x9ba>
   286aa:	482f      	ldr	r0, [pc, #188]	@ (28768 <_start+0xa6c>)
   286ac:	2102      	movs	r1, #2
   286ae:	2200      	movs	r2, #0
   286b0:	4613      	mov	r3, r2
   286b2:	df03      	svc	3
   286b4:	e004      	b.n	286c0 <_start+0x9c4>
   286b6:	482c      	ldr	r0, [pc, #176]	@ (28768 <_start+0xa6c>)
   286b8:	2102      	movs	r1, #2
   286ba:	2200      	movs	r2, #0
   286bc:	4613      	mov	r3, r2
   286be:	df04      	svc	4
   286c0:	4826      	ldr	r0, [pc, #152]	@ (2875c <_start+0xa60>)
   286c2:	4468      	add	r0, sp
   286c4:	7004      	strb	r4, [r0, #0]
   286c6:	4826      	ldr	r0, [pc, #152]	@ (28760 <_start+0xa64>)
   286c8:	4468      	add	r0, sp
   286ca:	7800      	ldrb	r0, [r0, #0]
   286cc:	2804      	cmp	r0, #4
   286ce:	d007      	beq.n	286e0 <_start+0x9e4>
   286d0:	2803      	cmp	r0, #3
   286d2:	d12b      	bne.n	2872c <_start+0xa30>
   286d4:	4824      	ldr	r0, [pc, #144]	@ (28768 <_start+0xa6c>)
   286d6:	2108      	movs	r1, #8
   286d8:	2200      	movs	r2, #0
   286da:	4613      	mov	r3, r2
   286dc:	df03      	svc	3
   286de:	e004      	b.n	286ea <_start+0x9ee>
   286e0:	4821      	ldr	r0, [pc, #132]	@ (28768 <_start+0xa6c>)
   286e2:	2108      	movs	r1, #8
   286e4:	2200      	movs	r2, #0
   286e6:	4613      	mov	r3, r2
   286e8:	df04      	svc	4
   286ea:	a81f      	add	r0, sp, #124	@ 0x7c
   286ec:	9b07      	ldr	r3, [sp, #28]
   286ee:	6899      	ldr	r1, [r3, #8]
   286f0:	8081      	strh	r1, [r0, #4]
   286f2:	9c09      	ldr	r4, [sp, #36]	@ 0x24
   286f4:	78a1      	ldrb	r1, [r4, #2]
   286f6:	aa2f      	add	r2, sp, #188	@ 0xbc
   286f8:	7091      	strb	r1, [r2, #2]
   286fa:	4919      	ldr	r1, [pc, #100]	@ (28760 <_start+0xa64>)
   286fc:	4469      	add	r1, sp
   286fe:	7b89      	ldrb	r1, [r1, #14]
   28700:	7181      	strb	r1, [r0, #6]
   28702:	7820      	ldrb	r0, [r4, #0]
   28704:	7861      	ldrb	r1, [r4, #1]
   28706:	0209      	lsls	r1, r1, #8
   28708:	1808      	adds	r0, r1, r0
   2870a:	8010      	strh	r0, [r2, #0]
   2870c:	6858      	ldr	r0, [r3, #4]
   2870e:	901f      	str	r0, [sp, #124]	@ 0x7c
   28710:	4812      	ldr	r0, [pc, #72]	@ (2875c <_start+0xa60>)
   28712:	4468      	add	r0, sp
   28714:	7800      	ldrb	r0, [r0, #0]
   28716:	681d      	ldr	r5, [r3, #0]
   28718:	2802      	cmp	r0, #2
   2871a:	d02f      	beq.n	2877c <_start+0xa80>
   2871c:	2804      	cmp	r0, #4
   2871e:	d125      	bne.n	2876c <_start+0xa70>
   28720:	4811      	ldr	r0, [pc, #68]	@ (28768 <_start+0xa6c>)
   28722:	2102      	movs	r1, #2
   28724:	2200      	movs	r2, #0
   28726:	4613      	mov	r3, r2
   28728:	df04      	svc	4
   2872a:	e027      	b.n	2877c <_start+0xa80>
   2872c:	a81f      	add	r0, sp, #124	@ 0x7c
   2872e:	9b07      	ldr	r3, [sp, #28]
   28730:	6899      	ldr	r1, [r3, #8]
   28732:	8081      	strh	r1, [r0, #4]
   28734:	9c09      	ldr	r4, [sp, #36]	@ 0x24
   28736:	78a1      	ldrb	r1, [r4, #2]
   28738:	aa2f      	add	r2, sp, #188	@ 0xbc
   2873a:	7091      	strb	r1, [r2, #2]
   2873c:	4908      	ldr	r1, [pc, #32]	@ (28760 <_start+0xa64>)
   2873e:	4469      	add	r1, sp
   28740:	7b89      	ldrb	r1, [r1, #14]
   28742:	7181      	strb	r1, [r0, #6]
   28744:	7820      	ldrb	r0, [r4, #0]
   28746:	7861      	ldrb	r1, [r4, #1]
   28748:	0209      	lsls	r1, r1, #8
   2874a:	1808      	adds	r0, r1, r0
   2874c:	8010      	strh	r0, [r2, #0]
   2874e:	6858      	ldr	r0, [r3, #4]
   28750:	901f      	str	r0, [sp, #124]	@ 0x7c
   28752:	681d      	ldr	r5, [r3, #0]
   28754:	e012      	b.n	2877c <_start+0xa80>
   28756:	46c0      	nop			@ (mov r8, r8)
   28758:	0000021f 	.word	0x0000021f
   2875c:	00001404 	.word	0x00001404
   28760:	000013a8 	.word	0x000013a8
   28764:	00001597 	.word	0x00001597
   28768:	00000667 	.word	0x00000667
   2876c:	4802      	ldr	r0, [pc, #8]	@ (28778 <_start+0xa7c>)
   2876e:	2102      	movs	r1, #2
   28770:	2200      	movs	r2, #0
   28772:	4613      	mov	r3, r2
   28774:	df03      	svc	3
   28776:	e001      	b.n	2877c <_start+0xa80>
   28778:	00000667 	.word	0x00000667
   2877c:	ac35      	add	r4, sp, #212	@ 0xd4
   2877e:	982f      	ldr	r0, [sp, #188]	@ 0xbc
   28780:	8020      	strh	r0, [r4, #0]
   28782:	a90c      	add	r1, sp, #48	@ 0x30
   28784:	9820      	ldr	r0, [sp, #128]	@ 0x80
   28786:	8088      	strh	r0, [r1, #4]
   28788:	a82f      	add	r0, sp, #188	@ 0xbc
   2878a:	7880      	ldrb	r0, [r0, #2]
   2878c:	70a0      	strb	r0, [r4, #2]
   2878e:	a81f      	add	r0, sp, #124	@ 0x7c
   28790:	7980      	ldrb	r0, [r0, #6]
   28792:	7188      	strb	r0, [r1, #6]
   28794:	70e5      	strb	r5, [r4, #3]
   28796:	0e28      	lsrs	r0, r5, #24
   28798:	71a0      	strb	r0, [r4, #6]
   2879a:	0c28      	lsrs	r0, r5, #16
   2879c:	7160      	strb	r0, [r4, #5]
   2879e:	0a28      	lsrs	r0, r5, #8
   287a0:	7120      	strb	r0, [r4, #4]
   287a2:	981f      	ldr	r0, [sp, #124]	@ 0x7c
   287a4:	900c      	str	r0, [sp, #48]	@ 0x30
   287a6:	1de0      	adds	r0, r4, #7
   287a8:	2207      	movs	r2, #7
   287aa:	f002 fcab 	bl	2b104 <__aeabi_memcpy>
   287ae:	4d05      	ldr	r5, [pc, #20]	@ (287c4 <_start+0xac8>)
   287b0:	446d      	add	r5, sp
   287b2:	4628      	mov	r0, r5
   287b4:	4621      	mov	r1, r4
   287b6:	f7fe fea9 	bl	2750c <_ZN20complex_dynamic_type3app17hf0999444ce48ec15E>
   287ba:	7828      	ldrb	r0, [r5, #0]
   287bc:	2801      	cmp	r0, #1
   287be:	d103      	bne.n	287c8 <_start+0xacc>
   287c0:	f002 fa8a 	bl	2acd8 <_start+0x2fdc>
   287c4:	00001404 	.word	0x00001404
   287c8:	4915      	ldr	r1, [pc, #84]	@ (28820 <_start+0xb24>)
   287ca:	4469      	add	r1, sp
   287cc:	78c8      	ldrb	r0, [r1, #3]
   287ce:	ac39      	add	r4, sp, #228	@ 0xe4
   287d0:	70a0      	strb	r0, [r4, #2]
   287d2:	7848      	ldrb	r0, [r1, #1]
   287d4:	788a      	ldrb	r2, [r1, #2]
   287d6:	0212      	lsls	r2, r2, #8
   287d8:	1810      	adds	r0, r2, r0
   287da:	8020      	strh	r0, [r4, #0]
   287dc:	9808      	ldr	r0, [sp, #32]
   287de:	6e06      	ldr	r6, [r0, #96]	@ 0x60
   287e0:	3108      	adds	r1, #8
   287e2:	4d10      	ldr	r5, [pc, #64]	@ (28824 <_start+0xb28>)
   287e4:	446d      	add	r5, sp
   287e6:	2241      	movs	r2, #65	@ 0x41
   287e8:	920b      	str	r2, [sp, #44]	@ 0x2c
   287ea:	4628      	mov	r0, r5
   287ec:	f002 fb2a 	bl	2ae44 <__aeabi_memcpy4>
   287f0:	0e30      	lsrs	r0, r6, #24
   287f2:	71a0      	strb	r0, [r4, #6]
   287f4:	0c30      	lsrs	r0, r6, #16
   287f6:	7160      	strb	r0, [r4, #5]
   287f8:	0a30      	lsrs	r0, r6, #8
   287fa:	7120      	strb	r0, [r4, #4]
   287fc:	70e6      	strb	r6, [r4, #3]
   287fe:	1de0      	adds	r0, r4, #7
   28800:	4629      	mov	r1, r5
   28802:	9a0b      	ldr	r2, [sp, #44]	@ 0x2c
   28804:	f002 fc7e 	bl	2b104 <__aeabi_memcpy>
   28808:	4d05      	ldr	r5, [pc, #20]	@ (28820 <_start+0xb24>)
   2880a:	446d      	add	r5, sp
   2880c:	4628      	mov	r0, r5
   2880e:	4621      	mov	r1, r4
   28810:	f7fd fb46 	bl	25ea0 <_ZN20complex_dynamic_type3app17hcb586085c476697bE>
   28814:	7828      	ldrb	r0, [r5, #0]
   28816:	2801      	cmp	r0, #1
   28818:	d106      	bne.n	28828 <_start+0xb2c>
   2881a:	f002 fa5d 	bl	2acd8 <_start+0x2fdc>
   2881e:	46c0      	nop			@ (mov r8, r8)
   28820:	00001404 	.word	0x00001404
   28824:	000013a8 	.word	0x000013a8
   28828:	9805      	ldr	r0, [sp, #20]
   2882a:	1cc0      	adds	r0, r0, #3
   2882c:	4a15      	ldr	r2, [pc, #84]	@ (28884 <_start+0xb88>)
   2882e:	446a      	add	r2, sp
   28830:	78d3      	ldrb	r3, [r2, #3]
   28832:	a94b      	add	r1, sp, #300	@ 0x12c
   28834:	708b      	strb	r3, [r1, #2]
   28836:	7853      	ldrb	r3, [r2, #1]
   28838:	7892      	ldrb	r2, [r2, #2]
   2883a:	0212      	lsls	r2, r2, #8
   2883c:	18d2      	adds	r2, r2, r3
   2883e:	800a      	strh	r2, [r1, #0]
   28840:	9c08      	ldr	r4, [sp, #32]
   28842:	3460      	adds	r4, #96	@ 0x60
   28844:	cc1c      	ldmia	r4, {r2, r3, r4}
   28846:	0e25      	lsrs	r5, r4, #24
   28848:	72c5      	strb	r5, [r0, #11]
   2884a:	0c25      	lsrs	r5, r4, #16
   2884c:	7285      	strb	r5, [r0, #10]
   2884e:	0a25      	lsrs	r5, r4, #8
   28850:	7245      	strb	r5, [r0, #9]
   28852:	7204      	strb	r4, [r0, #8]
   28854:	0e1c      	lsrs	r4, r3, #24
   28856:	71c4      	strb	r4, [r0, #7]
   28858:	0c1c      	lsrs	r4, r3, #16
   2885a:	7184      	strb	r4, [r0, #6]
   2885c:	0a1c      	lsrs	r4, r3, #8
   2885e:	7144      	strb	r4, [r0, #5]
   28860:	7103      	strb	r3, [r0, #4]
   28862:	0e13      	lsrs	r3, r2, #24
   28864:	70c3      	strb	r3, [r0, #3]
   28866:	0c13      	lsrs	r3, r2, #16
   28868:	7083      	strb	r3, [r0, #2]
   2886a:	0a13      	lsrs	r3, r2, #8
   2886c:	7043      	strb	r3, [r0, #1]
   2886e:	7002      	strb	r2, [r0, #0]
   28870:	4c04      	ldr	r4, [pc, #16]	@ (28884 <_start+0xb88>)
   28872:	446c      	add	r4, sp
   28874:	4620      	mov	r0, r4
   28876:	f7f7 fe35 	bl	204e4 <_ZN20complex_dynamic_type3app17h03e946a06716a8dcE>
   2887a:	7820      	ldrb	r0, [r4, #0]
   2887c:	2801      	cmp	r0, #1
   2887e:	d103      	bne.n	28888 <_start+0xb8c>
   28880:	f002 fa2a 	bl	2acd8 <_start+0x2fdc>
   28884:	00001404 	.word	0x00001404
   28888:	4817      	ldr	r0, [pc, #92]	@ (288e8 <_start+0xbec>)
   2888a:	4468      	add	r0, sp
   2888c:	78c1      	ldrb	r1, [r0, #3]
   2888e:	ac4f      	add	r4, sp, #316	@ 0x13c
   28890:	70a1      	strb	r1, [r4, #2]
   28892:	7841      	ldrb	r1, [r0, #1]
   28894:	7882      	ldrb	r2, [r0, #2]
   28896:	0212      	lsls	r2, r2, #8
   28898:	1851      	adds	r1, r2, r1
   2889a:	8021      	strh	r1, [r4, #0]
   2889c:	3008      	adds	r0, #8
   2889e:	9908      	ldr	r1, [sp, #32]
   288a0:	6e09      	ldr	r1, [r1, #96]	@ 0x60
   288a2:	910a      	str	r1, [sp, #40]	@ 0x28
   288a4:	4b11      	ldr	r3, [pc, #68]	@ (288ec <_start+0xbf0>)
   288a6:	446b      	add	r3, sp
   288a8:	930b      	str	r3, [sp, #44]	@ 0x2c
   288aa:	c864      	ldmia	r0!, {r2, r5, r6}
   288ac:	c364      	stmia	r3!, {r2, r5, r6}
   288ae:	c866      	ldmia	r0!, {r1, r2, r5, r6}
   288b0:	c366      	stmia	r3!, {r1, r2, r5, r6}
   288b2:	8800      	ldrh	r0, [r0, #0]
   288b4:	8018      	strh	r0, [r3, #0]
   288b6:	990a      	ldr	r1, [sp, #40]	@ 0x28
   288b8:	0e08      	lsrs	r0, r1, #24
   288ba:	71a0      	strb	r0, [r4, #6]
   288bc:	0c08      	lsrs	r0, r1, #16
   288be:	7160      	strb	r0, [r4, #5]
   288c0:	0a08      	lsrs	r0, r1, #8
   288c2:	7120      	strb	r0, [r4, #4]
   288c4:	70e1      	strb	r1, [r4, #3]
   288c6:	1de0      	adds	r0, r4, #7
   288c8:	221e      	movs	r2, #30
   288ca:	990b      	ldr	r1, [sp, #44]	@ 0x2c
   288cc:	f002 fc1a 	bl	2b104 <__aeabi_memcpy>
   288d0:	4d05      	ldr	r5, [pc, #20]	@ (288e8 <_start+0xbec>)
   288d2:	446d      	add	r5, sp
   288d4:	4628      	mov	r0, r5
   288d6:	4621      	mov	r1, r4
   288d8:	f7fc fcf2 	bl	252c0 <_ZN20complex_dynamic_type3app17habd4a1f0d83c8c33E>
   288dc:	7828      	ldrb	r0, [r5, #0]
   288de:	2801      	cmp	r0, #1
   288e0:	d106      	bne.n	288f0 <_start+0xbf4>
   288e2:	f002 f9f9 	bl	2acd8 <_start+0x2fdc>
   288e6:	46c0      	nop			@ (mov r8, r8)
   288e8:	00001404 	.word	0x00001404
   288ec:	000013a8 	.word	0x000013a8
   288f0:	4818      	ldr	r0, [pc, #96]	@ (28954 <_start+0xc58>)
   288f2:	4468      	add	r0, sp
   288f4:	78c1      	ldrb	r1, [r0, #3]
   288f6:	ac59      	add	r4, sp, #356	@ 0x164
   288f8:	70a1      	strb	r1, [r4, #2]
   288fa:	7841      	ldrb	r1, [r0, #1]
   288fc:	7882      	ldrb	r2, [r0, #2]
   288fe:	0212      	lsls	r2, r2, #8
   28900:	1851      	adds	r1, r2, r1
   28902:	8021      	strh	r1, [r4, #0]
   28904:	3008      	adds	r0, #8
   28906:	9908      	ldr	r1, [sp, #32]
   28908:	6e09      	ldr	r1, [r1, #96]	@ 0x60
   2890a:	910a      	str	r1, [sp, #40]	@ 0x28
   2890c:	4b12      	ldr	r3, [pc, #72]	@ (28958 <_start+0xc5c>)
   2890e:	446b      	add	r3, sp
   28910:	930b      	str	r3, [sp, #44]	@ 0x2c
   28912:	c866      	ldmia	r0!, {r1, r2, r5, r6}
   28914:	c366      	stmia	r3!, {r1, r2, r5, r6}
   28916:	c866      	ldmia	r0!, {r1, r2, r5, r6}
   28918:	c366      	stmia	r3!, {r1, r2, r5, r6}
   2891a:	8801      	ldrh	r1, [r0, #0]
   2891c:	8019      	strh	r1, [r3, #0]
   2891e:	7880      	ldrb	r0, [r0, #2]
   28920:	7098      	strb	r0, [r3, #2]
   28922:	990a      	ldr	r1, [sp, #40]	@ 0x28
   28924:	0e08      	lsrs	r0, r1, #24
   28926:	71a0      	strb	r0, [r4, #6]
   28928:	0c08      	lsrs	r0, r1, #16
   2892a:	7160      	strb	r0, [r4, #5]
   2892c:	0a08      	lsrs	r0, r1, #8
   2892e:	7120      	strb	r0, [r4, #4]
   28930:	70e1      	strb	r1, [r4, #3]
   28932:	1de0      	adds	r0, r4, #7
   28934:	2223      	movs	r2, #35	@ 0x23
   28936:	990b      	ldr	r1, [sp, #44]	@ 0x2c
   28938:	f002 fbe4 	bl	2b104 <__aeabi_memcpy>
   2893c:	4d05      	ldr	r5, [pc, #20]	@ (28954 <_start+0xc58>)
   2893e:	446d      	add	r5, sp
   28940:	4628      	mov	r0, r5
   28942:	4621      	mov	r1, r4
   28944:	f7f8 fc64 	bl	21210 <_ZN20complex_dynamic_type3app17h1f0c9730bd57e90dE>
   28948:	7828      	ldrb	r0, [r5, #0]
   2894a:	2801      	cmp	r0, #1
   2894c:	d106      	bne.n	2895c <_start+0xc60>
   2894e:	f002 f9c3 	bl	2acd8 <_start+0x2fdc>
   28952:	46c0      	nop			@ (mov r8, r8)
   28954:	00001404 	.word	0x00001404
   28958:	000013a8 	.word	0x000013a8
   2895c:	4915      	ldr	r1, [pc, #84]	@ (289b4 <_start+0xcb8>)
   2895e:	4469      	add	r1, sp
   28960:	78c8      	ldrb	r0, [r1, #3]
   28962:	ac64      	add	r4, sp, #400	@ 0x190
   28964:	70a0      	strb	r0, [r4, #2]
   28966:	7848      	ldrb	r0, [r1, #1]
   28968:	788a      	ldrb	r2, [r1, #2]
   2896a:	0212      	lsls	r2, r2, #8
   2896c:	1810      	adds	r0, r2, r0
   2896e:	8020      	strh	r0, [r4, #0]
   28970:	9808      	ldr	r0, [sp, #32]
   28972:	6e06      	ldr	r6, [r0, #96]	@ 0x60
   28974:	3108      	adds	r1, #8
   28976:	4d10      	ldr	r5, [pc, #64]	@ (289b8 <_start+0xcbc>)
   28978:	446d      	add	r5, sp
   2897a:	225c      	movs	r2, #92	@ 0x5c
   2897c:	920b      	str	r2, [sp, #44]	@ 0x2c
   2897e:	4628      	mov	r0, r5
   28980:	f002 fa60 	bl	2ae44 <__aeabi_memcpy4>
   28984:	0e30      	lsrs	r0, r6, #24
   28986:	71a0      	strb	r0, [r4, #6]
   28988:	0c30      	lsrs	r0, r6, #16
   2898a:	7160      	strb	r0, [r4, #5]
   2898c:	0a30      	lsrs	r0, r6, #8
   2898e:	7120      	strb	r0, [r4, #4]
   28990:	70e6      	strb	r6, [r4, #3]
   28992:	1de0      	adds	r0, r4, #7
   28994:	4629      	mov	r1, r5
   28996:	9a0b      	ldr	r2, [sp, #44]	@ 0x2c
   28998:	f002 fbb4 	bl	2b104 <__aeabi_memcpy>
   2899c:	4d05      	ldr	r5, [pc, #20]	@ (289b4 <_start+0xcb8>)
   2899e:	446d      	add	r5, sp
   289a0:	4628      	mov	r0, r5
   289a2:	4621      	mov	r1, r4
   289a4:	f7fa fa16 	bl	22dd4 <_ZN20complex_dynamic_type3app17h5ec178bf940e34feE>
   289a8:	7828      	ldrb	r0, [r5, #0]
   289aa:	2801      	cmp	r0, #1
   289ac:	d106      	bne.n	289bc <_start+0xcc0>
   289ae:	f002 f993 	bl	2acd8 <_start+0x2fdc>
   289b2:	46c0      	nop			@ (mov r8, r8)
   289b4:	00001404 	.word	0x00001404
   289b8:	000013a8 	.word	0x000013a8
   289bc:	4816      	ldr	r0, [pc, #88]	@ (28a18 <_start+0xd1c>)
   289be:	4468      	add	r0, sp
   289c0:	78c1      	ldrb	r1, [r0, #3]
   289c2:	ac7d      	add	r4, sp, #500	@ 0x1f4
   289c4:	70a1      	strb	r1, [r4, #2]
   289c6:	7841      	ldrb	r1, [r0, #1]
   289c8:	7882      	ldrb	r2, [r0, #2]
   289ca:	0212      	lsls	r2, r2, #8
   289cc:	1851      	adds	r1, r2, r1
   289ce:	8021      	strh	r1, [r4, #0]
   289d0:	3008      	adds	r0, #8
   289d2:	9908      	ldr	r1, [sp, #32]
   289d4:	6e09      	ldr	r1, [r1, #96]	@ 0x60
   289d6:	910a      	str	r1, [sp, #40]	@ 0x28
   289d8:	4b10      	ldr	r3, [pc, #64]	@ (28a1c <_start+0xd20>)
   289da:	446b      	add	r3, sp
   289dc:	930b      	str	r3, [sp, #44]	@ 0x2c
   289de:	c866      	ldmia	r0!, {r1, r2, r5, r6}
   289e0:	c366      	stmia	r3!, {r1, r2, r5, r6}
   289e2:	c866      	ldmia	r0!, {r1, r2, r5, r6}
   289e4:	c366      	stmia	r3!, {r1, r2, r5, r6}
   289e6:	990a      	ldr	r1, [sp, #40]	@ 0x28
   289e8:	0e08      	lsrs	r0, r1, #24
   289ea:	71a0      	strb	r0, [r4, #6]
   289ec:	0c08      	lsrs	r0, r1, #16
   289ee:	7160      	strb	r0, [r4, #5]
   289f0:	0a08      	lsrs	r0, r1, #8
   289f2:	7120      	strb	r0, [r4, #4]
   289f4:	70e1      	strb	r1, [r4, #3]
   289f6:	1de0      	adds	r0, r4, #7
   289f8:	2220      	movs	r2, #32
   289fa:	990b      	ldr	r1, [sp, #44]	@ 0x2c
   289fc:	f002 fb82 	bl	2b104 <__aeabi_memcpy>
   28a00:	4d05      	ldr	r5, [pc, #20]	@ (28a18 <_start+0xd1c>)
   28a02:	446d      	add	r5, sp
   28a04:	4628      	mov	r0, r5
   28a06:	4621      	mov	r1, r4
   28a08:	f7fd fd94 	bl	26534 <_ZN20complex_dynamic_type3app17hd2f83a0d75c048f1E>
   28a0c:	7828      	ldrb	r0, [r5, #0]
   28a0e:	2801      	cmp	r0, #1
   28a10:	d106      	bne.n	28a20 <_start+0xd24>
   28a12:	f002 f961 	bl	2acd8 <_start+0x2fdc>
   28a16:	46c0      	nop			@ (mov r8, r8)
   28a18:	00001404 	.word	0x00001404
   28a1c:	000013a8 	.word	0x000013a8
   28a20:	4817      	ldr	r0, [pc, #92]	@ (28a80 <_start+0xd84>)
   28a22:	4468      	add	r0, sp
   28a24:	78c1      	ldrb	r1, [r0, #3]
   28a26:	ac87      	add	r4, sp, #540	@ 0x21c
   28a28:	70a1      	strb	r1, [r4, #2]
   28a2a:	7841      	ldrb	r1, [r0, #1]
   28a2c:	7882      	ldrb	r2, [r0, #2]
   28a2e:	0212      	lsls	r2, r2, #8
   28a30:	1851      	adds	r1, r2, r1
   28a32:	8021      	strh	r1, [r4, #0]
   28a34:	3008      	adds	r0, #8
   28a36:	9908      	ldr	r1, [sp, #32]
   28a38:	6e09      	ldr	r1, [r1, #96]	@ 0x60
   28a3a:	4b12      	ldr	r3, [pc, #72]	@ (28a84 <_start+0xd88>)
   28a3c:	446b      	add	r3, sp
   28a3e:	930b      	str	r3, [sp, #44]	@ 0x2c
   28a40:	c860      	ldmia	r0!, {r5, r6}
   28a42:	c360      	stmia	r3!, {r5, r6}
   28a44:	c864      	ldmia	r0!, {r2, r5, r6}
   28a46:	c364      	stmia	r3!, {r2, r5, r6}
   28a48:	8802      	ldrh	r2, [r0, #0]
   28a4a:	801a      	strh	r2, [r3, #0]
   28a4c:	7880      	ldrb	r0, [r0, #2]
   28a4e:	7098      	strb	r0, [r3, #2]
   28a50:	0e08      	lsrs	r0, r1, #24
   28a52:	71a0      	strb	r0, [r4, #6]
   28a54:	0c08      	lsrs	r0, r1, #16
   28a56:	7160      	strb	r0, [r4, #5]
   28a58:	0a08      	lsrs	r0, r1, #8
   28a5a:	7120      	strb	r0, [r4, #4]
   28a5c:	70e1      	strb	r1, [r4, #3]
   28a5e:	1de0      	adds	r0, r4, #7
   28a60:	2217      	movs	r2, #23
   28a62:	990b      	ldr	r1, [sp, #44]	@ 0x2c
   28a64:	f002 fb4e 	bl	2b104 <__aeabi_memcpy>
   28a68:	4d05      	ldr	r5, [pc, #20]	@ (28a80 <_start+0xd84>)
   28a6a:	446d      	add	r5, sp
   28a6c:	4628      	mov	r0, r5
   28a6e:	4621      	mov	r1, r4
   28a70:	f7fd fb68 	bl	26144 <_ZN20complex_dynamic_type3app17hd0553c45a8e1e234E>
   28a74:	7828      	ldrb	r0, [r5, #0]
   28a76:	2801      	cmp	r0, #1
   28a78:	d106      	bne.n	28a88 <_start+0xd8c>
   28a7a:	f002 f92d 	bl	2acd8 <_start+0x2fdc>
   28a7e:	46c0      	nop			@ (mov r8, r8)
   28a80:	00001404 	.word	0x00001404
   28a84:	000013a8 	.word	0x000013a8
   28a88:	4817      	ldr	r0, [pc, #92]	@ (28ae8 <_start+0xdec>)
   28a8a:	4468      	add	r0, sp
   28a8c:	78c1      	ldrb	r1, [r0, #3]
   28a8e:	ac8f      	add	r4, sp, #572	@ 0x23c
   28a90:	70a1      	strb	r1, [r4, #2]
   28a92:	7841      	ldrb	r1, [r0, #1]
   28a94:	7882      	ldrb	r2, [r0, #2]
   28a96:	0212      	lsls	r2, r2, #8
   28a98:	1851      	adds	r1, r2, r1
   28a9a:	8021      	strh	r1, [r4, #0]
   28a9c:	3008      	adds	r0, #8
   28a9e:	9908      	ldr	r1, [sp, #32]
   28aa0:	6e09      	ldr	r1, [r1, #96]	@ 0x60
   28aa2:	4b12      	ldr	r3, [pc, #72]	@ (28aec <_start+0xdf0>)
   28aa4:	446b      	add	r3, sp
   28aa6:	930b      	str	r3, [sp, #44]	@ 0x2c
   28aa8:	c864      	ldmia	r0!, {r2, r5, r6}
   28aaa:	c364      	stmia	r3!, {r2, r5, r6}
   28aac:	c864      	ldmia	r0!, {r2, r5, r6}
   28aae:	c364      	stmia	r3!, {r2, r5, r6}
   28ab0:	c864      	ldmia	r0!, {r2, r5, r6}
   28ab2:	c364      	stmia	r3!, {r2, r5, r6}
   28ab4:	7800      	ldrb	r0, [r0, #0]
   28ab6:	7018      	strb	r0, [r3, #0]
   28ab8:	0e08      	lsrs	r0, r1, #24
   28aba:	71a0      	strb	r0, [r4, #6]
   28abc:	0c08      	lsrs	r0, r1, #16
   28abe:	7160      	strb	r0, [r4, #5]
   28ac0:	0a08      	lsrs	r0, r1, #8
   28ac2:	7120      	strb	r0, [r4, #4]
   28ac4:	70e1      	strb	r1, [r4, #3]
   28ac6:	1de0      	adds	r0, r4, #7
   28ac8:	2225      	movs	r2, #37	@ 0x25
   28aca:	990b      	ldr	r1, [sp, #44]	@ 0x2c
   28acc:	f002 fb1a 	bl	2b104 <__aeabi_memcpy>
   28ad0:	4d05      	ldr	r5, [pc, #20]	@ (28ae8 <_start+0xdec>)
   28ad2:	446d      	add	r5, sp
   28ad4:	4628      	mov	r0, r5
   28ad6:	4621      	mov	r1, r4
   28ad8:	f7f9 fcd4 	bl	22484 <_ZN20complex_dynamic_type3app17h537dc36382b9344fE>
   28adc:	7828      	ldrb	r0, [r5, #0]
   28ade:	2801      	cmp	r0, #1
   28ae0:	d106      	bne.n	28af0 <_start+0xdf4>
   28ae2:	f002 f8f9 	bl	2acd8 <_start+0x2fdc>
   28ae6:	46c0      	nop			@ (mov r8, r8)
   28ae8:	00001404 	.word	0x00001404
   28aec:	000013a8 	.word	0x000013a8
   28af0:	4817      	ldr	r0, [pc, #92]	@ (28b50 <_start+0xe54>)
   28af2:	4468      	add	r0, sp
   28af4:	78c1      	ldrb	r1, [r0, #3]
   28af6:	ac9a      	add	r4, sp, #616	@ 0x268
   28af8:	70a1      	strb	r1, [r4, #2]
   28afa:	7841      	ldrb	r1, [r0, #1]
   28afc:	7882      	ldrb	r2, [r0, #2]
   28afe:	0212      	lsls	r2, r2, #8
   28b00:	1851      	adds	r1, r2, r1
   28b02:	8021      	strh	r1, [r4, #0]
   28b04:	3008      	adds	r0, #8
   28b06:	9908      	ldr	r1, [sp, #32]
   28b08:	6e09      	ldr	r1, [r1, #96]	@ 0x60
   28b0a:	910a      	str	r1, [sp, #40]	@ 0x28
   28b0c:	4b11      	ldr	r3, [pc, #68]	@ (28b54 <_start+0xe58>)
   28b0e:	446b      	add	r3, sp
   28b10:	930b      	str	r3, [sp, #44]	@ 0x2c
   28b12:	c864      	ldmia	r0!, {r2, r5, r6}
   28b14:	c364      	stmia	r3!, {r2, r5, r6}
   28b16:	c866      	ldmia	r0!, {r1, r2, r5, r6}
   28b18:	c366      	stmia	r3!, {r1, r2, r5, r6}
   28b1a:	8800      	ldrh	r0, [r0, #0]
   28b1c:	8018      	strh	r0, [r3, #0]
   28b1e:	990a      	ldr	r1, [sp, #40]	@ 0x28
   28b20:	0e08      	lsrs	r0, r1, #24
   28b22:	71a0      	strb	r0, [r4, #6]
   28b24:	0c08      	lsrs	r0, r1, #16
   28b26:	7160      	strb	r0, [r4, #5]
   28b28:	0a08      	lsrs	r0, r1, #8
   28b2a:	7120      	strb	r0, [r4, #4]
   28b2c:	70e1      	strb	r1, [r4, #3]
   28b2e:	1de0      	adds	r0, r4, #7
   28b30:	221e      	movs	r2, #30
   28b32:	990b      	ldr	r1, [sp, #44]	@ 0x2c
   28b34:	f002 fae6 	bl	2b104 <__aeabi_memcpy>
   28b38:	4d05      	ldr	r5, [pc, #20]	@ (28b50 <_start+0xe54>)
   28b3a:	446d      	add	r5, sp
   28b3c:	4628      	mov	r0, r5
   28b3e:	4621      	mov	r1, r4
   28b40:	f7f7 fad0 	bl	200e4 <_ZN20complex_dynamic_type3app17h017c8bba17939b3bE>
   28b44:	7828      	ldrb	r0, [r5, #0]
   28b46:	2801      	cmp	r0, #1
   28b48:	d106      	bne.n	28b58 <_start+0xe5c>
   28b4a:	f002 f8c5 	bl	2acd8 <_start+0x2fdc>
   28b4e:	46c0      	nop			@ (mov r8, r8)
   28b50:	00001404 	.word	0x00001404
   28b54:	000013a8 	.word	0x000013a8
   28b58:	4816      	ldr	r0, [pc, #88]	@ (28bb4 <_start+0xeb8>)
   28b5a:	4468      	add	r0, sp
   28b5c:	78c1      	ldrb	r1, [r0, #3]
   28b5e:	aca4      	add	r4, sp, #656	@ 0x290
   28b60:	70a1      	strb	r1, [r4, #2]
   28b62:	7841      	ldrb	r1, [r0, #1]
   28b64:	7882      	ldrb	r2, [r0, #2]
   28b66:	0212      	lsls	r2, r2, #8
   28b68:	1851      	adds	r1, r2, r1
   28b6a:	8021      	strh	r1, [r4, #0]
   28b6c:	3008      	adds	r0, #8
   28b6e:	9908      	ldr	r1, [sp, #32]
   28b70:	6e09      	ldr	r1, [r1, #96]	@ 0x60
   28b72:	910a      	str	r1, [sp, #40]	@ 0x28
   28b74:	4b10      	ldr	r3, [pc, #64]	@ (28bb8 <_start+0xebc>)
   28b76:	446b      	add	r3, sp
   28b78:	930b      	str	r3, [sp, #44]	@ 0x2c
   28b7a:	c866      	ldmia	r0!, {r1, r2, r5, r6}
   28b7c:	c366      	stmia	r3!, {r1, r2, r5, r6}
   28b7e:	7800      	ldrb	r0, [r0, #0]
   28b80:	7018      	strb	r0, [r3, #0]
   28b82:	990a      	ldr	r1, [sp, #40]	@ 0x28
   28b84:	0e08      	lsrs	r0, r1, #24
   28b86:	71a0      	strb	r0, [r4, #6]
   28b88:	0c08      	lsrs	r0, r1, #16
   28b8a:	7160      	strb	r0, [r4, #5]
   28b8c:	0a08      	lsrs	r0, r1, #8
   28b8e:	7120      	strb	r0, [r4, #4]
   28b90:	70e1      	strb	r1, [r4, #3]
   28b92:	1de0      	adds	r0, r4, #7
   28b94:	2211      	movs	r2, #17
   28b96:	990b      	ldr	r1, [sp, #44]	@ 0x2c
   28b98:	f002 fab4 	bl	2b104 <__aeabi_memcpy>
   28b9c:	4d05      	ldr	r5, [pc, #20]	@ (28bb4 <_start+0xeb8>)
   28b9e:	446d      	add	r5, sp
   28ba0:	4628      	mov	r0, r5
   28ba2:	4621      	mov	r1, r4
   28ba4:	f7fa ffb6 	bl	23b14 <_ZN20complex_dynamic_type3app17h823dcd5e14353519E>
   28ba8:	7828      	ldrb	r0, [r5, #0]
   28baa:	2801      	cmp	r0, #1
   28bac:	d106      	bne.n	28bbc <_start+0xec0>
   28bae:	f002 f893 	bl	2acd8 <_start+0x2fdc>
   28bb2:	46c0      	nop			@ (mov r8, r8)
   28bb4:	00001404 	.word	0x00001404
   28bb8:	000013a8 	.word	0x000013a8
   28bbc:	4819      	ldr	r0, [pc, #100]	@ (28c24 <_start+0xf28>)
   28bbe:	4468      	add	r0, sp
   28bc0:	78c1      	ldrb	r1, [r0, #3]
   28bc2:	acaa      	add	r4, sp, #680	@ 0x2a8
   28bc4:	70a1      	strb	r1, [r4, #2]
   28bc6:	7841      	ldrb	r1, [r0, #1]
   28bc8:	7882      	ldrb	r2, [r0, #2]
   28bca:	0212      	lsls	r2, r2, #8
   28bcc:	1851      	adds	r1, r2, r1
   28bce:	8021      	strh	r1, [r4, #0]
   28bd0:	3008      	adds	r0, #8
   28bd2:	9908      	ldr	r1, [sp, #32]
   28bd4:	6e09      	ldr	r1, [r1, #96]	@ 0x60
   28bd6:	910a      	str	r1, [sp, #40]	@ 0x28
   28bd8:	4b13      	ldr	r3, [pc, #76]	@ (28c28 <_start+0xf2c>)
   28bda:	446b      	add	r3, sp
   28bdc:	930b      	str	r3, [sp, #44]	@ 0x2c
   28bde:	c864      	ldmia	r0!, {r2, r5, r6}
   28be0:	c364      	stmia	r3!, {r2, r5, r6}
   28be2:	c866      	ldmia	r0!, {r1, r2, r5, r6}
   28be4:	c366      	stmia	r3!, {r1, r2, r5, r6}
   28be6:	c866      	ldmia	r0!, {r1, r2, r5, r6}
   28be8:	c366      	stmia	r3!, {r1, r2, r5, r6}
   28bea:	8801      	ldrh	r1, [r0, #0]
   28bec:	8019      	strh	r1, [r3, #0]
   28bee:	7880      	ldrb	r0, [r0, #2]
   28bf0:	7098      	strb	r0, [r3, #2]
   28bf2:	990a      	ldr	r1, [sp, #40]	@ 0x28
   28bf4:	0e08      	lsrs	r0, r1, #24
   28bf6:	71a0      	strb	r0, [r4, #6]
   28bf8:	0c08      	lsrs	r0, r1, #16
   28bfa:	7160      	strb	r0, [r4, #5]
   28bfc:	0a08      	lsrs	r0, r1, #8
   28bfe:	7120      	strb	r0, [r4, #4]
   28c00:	70e1      	strb	r1, [r4, #3]
   28c02:	1de0      	adds	r0, r4, #7
   28c04:	222f      	movs	r2, #47	@ 0x2f
   28c06:	990b      	ldr	r1, [sp, #44]	@ 0x2c
   28c08:	f002 fa7c 	bl	2b104 <__aeabi_memcpy>
   28c0c:	4d05      	ldr	r5, [pc, #20]	@ (28c24 <_start+0xf28>)
   28c0e:	446d      	add	r5, sp
   28c10:	4628      	mov	r0, r5
   28c12:	4621      	mov	r1, r4
   28c14:	f7fd f9ec 	bl	25ff0 <_ZN20complex_dynamic_type3app17hcee3fc31cc19b7b0E>
   28c18:	7828      	ldrb	r0, [r5, #0]
   28c1a:	2801      	cmp	r0, #1
   28c1c:	d106      	bne.n	28c2c <_start+0xf30>
   28c1e:	f002 f85b 	bl	2acd8 <_start+0x2fdc>
   28c22:	46c0      	nop			@ (mov r8, r8)
   28c24:	00001404 	.word	0x00001404
   28c28:	000013a8 	.word	0x000013a8
   28c2c:	4818      	ldr	r0, [pc, #96]	@ (28c90 <_start+0xf94>)
   28c2e:	4468      	add	r0, sp
   28c30:	78c1      	ldrb	r1, [r0, #3]
   28c32:	acb8      	add	r4, sp, #736	@ 0x2e0
   28c34:	70a1      	strb	r1, [r4, #2]
   28c36:	7841      	ldrb	r1, [r0, #1]
   28c38:	7882      	ldrb	r2, [r0, #2]
   28c3a:	0212      	lsls	r2, r2, #8
   28c3c:	1851      	adds	r1, r2, r1
   28c3e:	8021      	strh	r1, [r4, #0]
   28c40:	3008      	adds	r0, #8
   28c42:	9908      	ldr	r1, [sp, #32]
   28c44:	6e09      	ldr	r1, [r1, #96]	@ 0x60
   28c46:	910a      	str	r1, [sp, #40]	@ 0x28
   28c48:	4b12      	ldr	r3, [pc, #72]	@ (28c94 <_start+0xf98>)
   28c4a:	446b      	add	r3, sp
   28c4c:	930b      	str	r3, [sp, #44]	@ 0x2c
   28c4e:	c864      	ldmia	r0!, {r2, r5, r6}
   28c50:	c364      	stmia	r3!, {r2, r5, r6}
   28c52:	c866      	ldmia	r0!, {r1, r2, r5, r6}
   28c54:	c366      	stmia	r3!, {r1, r2, r5, r6}
   28c56:	c866      	ldmia	r0!, {r1, r2, r5, r6}
   28c58:	c366      	stmia	r3!, {r1, r2, r5, r6}
   28c5a:	7800      	ldrb	r0, [r0, #0]
   28c5c:	7018      	strb	r0, [r3, #0]
   28c5e:	990a      	ldr	r1, [sp, #40]	@ 0x28
   28c60:	0e08      	lsrs	r0, r1, #24
   28c62:	71a0      	strb	r0, [r4, #6]
   28c64:	0c08      	lsrs	r0, r1, #16
   28c66:	7160      	strb	r0, [r4, #5]
   28c68:	0a08      	lsrs	r0, r1, #8
   28c6a:	7120      	strb	r0, [r4, #4]
   28c6c:	70e1      	strb	r1, [r4, #3]
   28c6e:	1de0      	adds	r0, r4, #7
   28c70:	222d      	movs	r2, #45	@ 0x2d
   28c72:	990b      	ldr	r1, [sp, #44]	@ 0x2c
   28c74:	f002 fa46 	bl	2b104 <__aeabi_memcpy>
   28c78:	4d05      	ldr	r5, [pc, #20]	@ (28c90 <_start+0xf94>)
   28c7a:	446d      	add	r5, sp
   28c7c:	4628      	mov	r0, r5
   28c7e:	4621      	mov	r1, r4
   28c80:	f7f7 fd7e 	bl	20780 <_ZN20complex_dynamic_type3app17h08c97303f41cdc8fE>
   28c84:	7828      	ldrb	r0, [r5, #0]
   28c86:	2801      	cmp	r0, #1
   28c88:	d106      	bne.n	28c98 <_start+0xf9c>
   28c8a:	f002 f825 	bl	2acd8 <_start+0x2fdc>
   28c8e:	46c0      	nop			@ (mov r8, r8)
   28c90:	00001404 	.word	0x00001404
   28c94:	000013a8 	.word	0x000013a8
   28c98:	4818      	ldr	r0, [pc, #96]	@ (28cfc <_start+0x1000>)
   28c9a:	4468      	add	r0, sp
   28c9c:	78c1      	ldrb	r1, [r0, #3]
   28c9e:	acc5      	add	r4, sp, #788	@ 0x314
   28ca0:	70a1      	strb	r1, [r4, #2]
   28ca2:	7841      	ldrb	r1, [r0, #1]
   28ca4:	7882      	ldrb	r2, [r0, #2]
   28ca6:	0212      	lsls	r2, r2, #8
   28ca8:	1851      	adds	r1, r2, r1
   28caa:	8021      	strh	r1, [r4, #0]
   28cac:	3008      	adds	r0, #8
   28cae:	9908      	ldr	r1, [sp, #32]
   28cb0:	6e09      	ldr	r1, [r1, #96]	@ 0x60
   28cb2:	4b13      	ldr	r3, [pc, #76]	@ (28d00 <_start+0x1004>)
   28cb4:	446b      	add	r3, sp
   28cb6:	930b      	str	r3, [sp, #44]	@ 0x2c
   28cb8:	c864      	ldmia	r0!, {r2, r5, r6}
   28cba:	c364      	stmia	r3!, {r2, r5, r6}
   28cbc:	c864      	ldmia	r0!, {r2, r5, r6}
   28cbe:	c364      	stmia	r3!, {r2, r5, r6}
   28cc0:	c864      	ldmia	r0!, {r2, r5, r6}
   28cc2:	c364      	stmia	r3!, {r2, r5, r6}
   28cc4:	8802      	ldrh	r2, [r0, #0]
   28cc6:	801a      	strh	r2, [r3, #0]
   28cc8:	7880      	ldrb	r0, [r0, #2]
   28cca:	7098      	strb	r0, [r3, #2]
   28ccc:	0e08      	lsrs	r0, r1, #24
   28cce:	71a0      	strb	r0, [r4, #6]
   28cd0:	0c08      	lsrs	r0, r1, #16
   28cd2:	7160      	strb	r0, [r4, #5]
   28cd4:	0a08      	lsrs	r0, r1, #8
   28cd6:	7120      	strb	r0, [r4, #4]
   28cd8:	70e1      	strb	r1, [r4, #3]
   28cda:	1de0      	adds	r0, r4, #7
   28cdc:	2227      	movs	r2, #39	@ 0x27
   28cde:	990b      	ldr	r1, [sp, #44]	@ 0x2c
   28ce0:	f002 fa10 	bl	2b104 <__aeabi_memcpy>
   28ce4:	4d05      	ldr	r5, [pc, #20]	@ (28cfc <_start+0x1000>)
   28ce6:	446d      	add	r5, sp
   28ce8:	4628      	mov	r0, r5
   28cea:	4621      	mov	r1, r4
   28cec:	f7f8 ff2e 	bl	21b4c <_ZN20complex_dynamic_type3app17h31ed042db246bcfeE>
   28cf0:	7828      	ldrb	r0, [r5, #0]
   28cf2:	2801      	cmp	r0, #1
   28cf4:	d106      	bne.n	28d04 <_start+0x1008>
   28cf6:	f001 ffef 	bl	2acd8 <_start+0x2fdc>
   28cfa:	46c0      	nop			@ (mov r8, r8)
   28cfc:	00001404 	.word	0x00001404
   28d00:	000013a8 	.word	0x000013a8
   28d04:	4818      	ldr	r0, [pc, #96]	@ (28d68 <_start+0x106c>)
   28d06:	4468      	add	r0, sp
   28d08:	78c1      	ldrb	r1, [r0, #3]
   28d0a:	acd1      	add	r4, sp, #836	@ 0x344
   28d0c:	70a1      	strb	r1, [r4, #2]
   28d0e:	7841      	ldrb	r1, [r0, #1]
   28d10:	7882      	ldrb	r2, [r0, #2]
   28d12:	0212      	lsls	r2, r2, #8
   28d14:	1851      	adds	r1, r2, r1
   28d16:	8021      	strh	r1, [r4, #0]
   28d18:	3008      	adds	r0, #8
   28d1a:	9908      	ldr	r1, [sp, #32]
   28d1c:	6e09      	ldr	r1, [r1, #96]	@ 0x60
   28d1e:	910a      	str	r1, [sp, #40]	@ 0x28
   28d20:	4b12      	ldr	r3, [pc, #72]	@ (28d6c <_start+0x1070>)
   28d22:	446b      	add	r3, sp
   28d24:	930b      	str	r3, [sp, #44]	@ 0x2c
   28d26:	c866      	ldmia	r0!, {r1, r2, r5, r6}
   28d28:	c366      	stmia	r3!, {r1, r2, r5, r6}
   28d2a:	c866      	ldmia	r0!, {r1, r2, r5, r6}
   28d2c:	c366      	stmia	r3!, {r1, r2, r5, r6}
   28d2e:	c866      	ldmia	r0!, {r1, r2, r5, r6}
   28d30:	c366      	stmia	r3!, {r1, r2, r5, r6}
   28d32:	7800      	ldrb	r0, [r0, #0]
   28d34:	7018      	strb	r0, [r3, #0]
   28d36:	990a      	ldr	r1, [sp, #40]	@ 0x28
   28d38:	0e08      	lsrs	r0, r1, #24
   28d3a:	71a0      	strb	r0, [r4, #6]
   28d3c:	0c08      	lsrs	r0, r1, #16
   28d3e:	7160      	strb	r0, [r4, #5]
   28d40:	0a08      	lsrs	r0, r1, #8
   28d42:	7120      	strb	r0, [r4, #4]
   28d44:	70e1      	strb	r1, [r4, #3]
   28d46:	1de0      	adds	r0, r4, #7
   28d48:	2231      	movs	r2, #49	@ 0x31
   28d4a:	990b      	ldr	r1, [sp, #44]	@ 0x2c
   28d4c:	f002 f9da 	bl	2b104 <__aeabi_memcpy>
   28d50:	4d05      	ldr	r5, [pc, #20]	@ (28d68 <_start+0x106c>)
   28d52:	446d      	add	r5, sp
   28d54:	4628      	mov	r0, r5
   28d56:	4621      	mov	r1, r4
   28d58:	f7fe f9da 	bl	27110 <_ZN20complex_dynamic_type3app17he2001db13b272c55E>
   28d5c:	7828      	ldrb	r0, [r5, #0]
   28d5e:	2801      	cmp	r0, #1
   28d60:	d106      	bne.n	28d70 <_start+0x1074>
   28d62:	f001 ffb9 	bl	2acd8 <_start+0x2fdc>
   28d66:	46c0      	nop			@ (mov r8, r8)
   28d68:	00001404 	.word	0x00001404
   28d6c:	000013a8 	.word	0x000013a8
   28d70:	4818      	ldr	r0, [pc, #96]	@ (28dd4 <_start+0x10d8>)
   28d72:	4468      	add	r0, sp
   28d74:	78c1      	ldrb	r1, [r0, #3]
   28d76:	acdf      	add	r4, sp, #892	@ 0x37c
   28d78:	70a1      	strb	r1, [r4, #2]
   28d7a:	7841      	ldrb	r1, [r0, #1]
   28d7c:	7882      	ldrb	r2, [r0, #2]
   28d7e:	0212      	lsls	r2, r2, #8
   28d80:	1851      	adds	r1, r2, r1
   28d82:	8021      	strh	r1, [r4, #0]
   28d84:	3008      	adds	r0, #8
   28d86:	9908      	ldr	r1, [sp, #32]
   28d88:	6e09      	ldr	r1, [r1, #96]	@ 0x60
   28d8a:	910a      	str	r1, [sp, #40]	@ 0x28
   28d8c:	4b12      	ldr	r3, [pc, #72]	@ (28dd8 <_start+0x10dc>)
   28d8e:	446b      	add	r3, sp
   28d90:	930b      	str	r3, [sp, #44]	@ 0x2c
   28d92:	c864      	ldmia	r0!, {r2, r5, r6}
   28d94:	c364      	stmia	r3!, {r2, r5, r6}
   28d96:	c866      	ldmia	r0!, {r1, r2, r5, r6}
   28d98:	c366      	stmia	r3!, {r1, r2, r5, r6}
   28d9a:	c866      	ldmia	r0!, {r1, r2, r5, r6}
   28d9c:	c366      	stmia	r3!, {r1, r2, r5, r6}
   28d9e:	7800      	ldrb	r0, [r0, #0]
   28da0:	7018      	strb	r0, [r3, #0]
   28da2:	990a      	ldr	r1, [sp, #40]	@ 0x28
   28da4:	0e08      	lsrs	r0, r1, #24
   28da6:	71a0      	strb	r0, [r4, #6]
   28da8:	0c08      	lsrs	r0, r1, #16
   28daa:	7160      	strb	r0, [r4, #5]
   28dac:	0a08      	lsrs	r0, r1, #8
   28dae:	7120      	strb	r0, [r4, #4]
   28db0:	70e1      	strb	r1, [r4, #3]
   28db2:	1de0      	adds	r0, r4, #7
   28db4:	222d      	movs	r2, #45	@ 0x2d
   28db6:	990b      	ldr	r1, [sp, #44]	@ 0x2c
   28db8:	f002 f9a4 	bl	2b104 <__aeabi_memcpy>
   28dbc:	4d05      	ldr	r5, [pc, #20]	@ (28dd4 <_start+0x10d8>)
   28dbe:	446d      	add	r5, sp
   28dc0:	4628      	mov	r0, r5
   28dc2:	4621      	mov	r1, r4
   28dc4:	f7f9 fa0e 	bl	221e4 <_ZN20complex_dynamic_type3app17h5105ab75999ed4aeE>
   28dc8:	7828      	ldrb	r0, [r5, #0]
   28dca:	2801      	cmp	r0, #1
   28dcc:	d106      	bne.n	28ddc <_start+0x10e0>
   28dce:	f001 ff83 	bl	2acd8 <_start+0x2fdc>
   28dd2:	46c0      	nop			@ (mov r8, r8)
   28dd4:	00001404 	.word	0x00001404
   28dd8:	000013a8 	.word	0x000013a8
   28ddc:	4817      	ldr	r0, [pc, #92]	@ (28e3c <_start+0x1140>)
   28dde:	4468      	add	r0, sp
   28de0:	78c1      	ldrb	r1, [r0, #3]
   28de2:	acec      	add	r4, sp, #944	@ 0x3b0
   28de4:	70a1      	strb	r1, [r4, #2]
   28de6:	7841      	ldrb	r1, [r0, #1]
   28de8:	7882      	ldrb	r2, [r0, #2]
   28dea:	0212      	lsls	r2, r2, #8
   28dec:	1851      	adds	r1, r2, r1
   28dee:	8021      	strh	r1, [r4, #0]
   28df0:	3008      	adds	r0, #8
   28df2:	9908      	ldr	r1, [sp, #32]
   28df4:	6e09      	ldr	r1, [r1, #96]	@ 0x60
   28df6:	910a      	str	r1, [sp, #40]	@ 0x28
   28df8:	4b11      	ldr	r3, [pc, #68]	@ (28e40 <_start+0x1144>)
   28dfa:	446b      	add	r3, sp
   28dfc:	930b      	str	r3, [sp, #44]	@ 0x2c
   28dfe:	c866      	ldmia	r0!, {r1, r2, r5, r6}
   28e00:	c366      	stmia	r3!, {r1, r2, r5, r6}
   28e02:	8801      	ldrh	r1, [r0, #0]
   28e04:	8019      	strh	r1, [r3, #0]
   28e06:	7880      	ldrb	r0, [r0, #2]
   28e08:	7098      	strb	r0, [r3, #2]
   28e0a:	990a      	ldr	r1, [sp, #40]	@ 0x28
   28e0c:	0e08      	lsrs	r0, r1, #24
   28e0e:	71a0      	strb	r0, [r4, #6]
   28e10:	0c08      	lsrs	r0, r1, #16
   28e12:	7160      	strb	r0, [r4, #5]
   28e14:	0a08      	lsrs	r0, r1, #8
   28e16:	7120      	strb	r0, [r4, #4]
   28e18:	70e1      	strb	r1, [r4, #3]
   28e1a:	1de0      	adds	r0, r4, #7
   28e1c:	2213      	movs	r2, #19
   28e1e:	990b      	ldr	r1, [sp, #44]	@ 0x2c
   28e20:	f002 f970 	bl	2b104 <__aeabi_memcpy>
   28e24:	4d05      	ldr	r5, [pc, #20]	@ (28e3c <_start+0x1140>)
   28e26:	446d      	add	r5, sp
   28e28:	4628      	mov	r0, r5
   28e2a:	4621      	mov	r1, r4
   28e2c:	f7fa f9cc 	bl	231c8 <_ZN20complex_dynamic_type3app17h647d1edbc2735600E>
   28e30:	7828      	ldrb	r0, [r5, #0]
   28e32:	2801      	cmp	r0, #1
   28e34:	d106      	bne.n	28e44 <_start+0x1148>
   28e36:	f001 ff4f 	bl	2acd8 <_start+0x2fdc>
   28e3a:	46c0      	nop			@ (mov r8, r8)
   28e3c:	00001404 	.word	0x00001404
   28e40:	000013a8 	.word	0x000013a8
   28e44:	4915      	ldr	r1, [pc, #84]	@ (28e9c <_start+0x11a0>)
   28e46:	4469      	add	r1, sp
   28e48:	78c8      	ldrb	r0, [r1, #3]
   28e4a:	acf3      	add	r4, sp, #972	@ 0x3cc
   28e4c:	70a0      	strb	r0, [r4, #2]
   28e4e:	7848      	ldrb	r0, [r1, #1]
   28e50:	788a      	ldrb	r2, [r1, #2]
   28e52:	0212      	lsls	r2, r2, #8
   28e54:	1810      	adds	r0, r2, r0
   28e56:	8020      	strh	r0, [r4, #0]
   28e58:	9808      	ldr	r0, [sp, #32]
   28e5a:	6e06      	ldr	r6, [r0, #96]	@ 0x60
   28e5c:	3108      	adds	r1, #8
   28e5e:	4d10      	ldr	r5, [pc, #64]	@ (28ea0 <_start+0x11a4>)
   28e60:	446d      	add	r5, sp
   28e62:	2249      	movs	r2, #73	@ 0x49
   28e64:	920b      	str	r2, [sp, #44]	@ 0x2c
   28e66:	4628      	mov	r0, r5
   28e68:	f001 ffec 	bl	2ae44 <__aeabi_memcpy4>
   28e6c:	0e30      	lsrs	r0, r6, #24
   28e6e:	71a0      	strb	r0, [r4, #6]
   28e70:	0c30      	lsrs	r0, r6, #16
   28e72:	7160      	strb	r0, [r4, #5]
   28e74:	0a30      	lsrs	r0, r6, #8
   28e76:	7120      	strb	r0, [r4, #4]
   28e78:	70e6      	strb	r6, [r4, #3]
   28e7a:	1de0      	adds	r0, r4, #7
   28e7c:	4629      	mov	r1, r5
   28e7e:	9a0b      	ldr	r2, [sp, #44]	@ 0x2c
   28e80:	f002 f940 	bl	2b104 <__aeabi_memcpy>
   28e84:	4d05      	ldr	r5, [pc, #20]	@ (28e9c <_start+0x11a0>)
   28e86:	446d      	add	r5, sp
   28e88:	4628      	mov	r0, r5
   28e8a:	4621      	mov	r1, r4
   28e8c:	f7fc fb68 	bl	25560 <_ZN20complex_dynamic_type3app17hb6022c3fb311ae6dE>
   28e90:	7828      	ldrb	r0, [r5, #0]
   28e92:	2801      	cmp	r0, #1
   28e94:	d106      	bne.n	28ea4 <_start+0x11a8>
   28e96:	f001 ff1f 	bl	2acd8 <_start+0x2fdc>
   28e9a:	46c0      	nop			@ (mov r8, r8)
   28e9c:	00001404 	.word	0x00001404
   28ea0:	000013a8 	.word	0x000013a8
   28ea4:	4819      	ldr	r0, [pc, #100]	@ (28f0c <_start+0x1210>)
   28ea6:	4468      	add	r0, sp
   28ea8:	78c1      	ldrb	r1, [r0, #3]
   28eaa:	acff      	add	r4, sp, #1020	@ 0x3fc
   28eac:	3420      	adds	r4, #32
   28eae:	70a1      	strb	r1, [r4, #2]
   28eb0:	7841      	ldrb	r1, [r0, #1]
   28eb2:	7882      	ldrb	r2, [r0, #2]
   28eb4:	0212      	lsls	r2, r2, #8
   28eb6:	1851      	adds	r1, r2, r1
   28eb8:	8021      	strh	r1, [r4, #0]
   28eba:	3008      	adds	r0, #8
   28ebc:	9908      	ldr	r1, [sp, #32]
   28ebe:	6e09      	ldr	r1, [r1, #96]	@ 0x60
   28ec0:	910a      	str	r1, [sp, #40]	@ 0x28
   28ec2:	4b13      	ldr	r3, [pc, #76]	@ (28f10 <_start+0x1214>)
   28ec4:	446b      	add	r3, sp
   28ec6:	930b      	str	r3, [sp, #44]	@ 0x2c
   28ec8:	c864      	ldmia	r0!, {r2, r5, r6}
   28eca:	c364      	stmia	r3!, {r2, r5, r6}
   28ecc:	c864      	ldmia	r0!, {r2, r5, r6}
   28ece:	c364      	stmia	r3!, {r2, r5, r6}
   28ed0:	c864      	ldmia	r0!, {r2, r5, r6}
   28ed2:	c364      	stmia	r3!, {r2, r5, r6}
   28ed4:	c866      	ldmia	r0!, {r1, r2, r5, r6}
   28ed6:	c366      	stmia	r3!, {r1, r2, r5, r6}
   28ed8:	7800      	ldrb	r0, [r0, #0]
   28eda:	7018      	strb	r0, [r3, #0]
   28edc:	990a      	ldr	r1, [sp, #40]	@ 0x28
   28ede:	0e08      	lsrs	r0, r1, #24
   28ee0:	71a0      	strb	r0, [r4, #6]
   28ee2:	0c08      	lsrs	r0, r1, #16
   28ee4:	7160      	strb	r0, [r4, #5]
   28ee6:	0a08      	lsrs	r0, r1, #8
   28ee8:	7120      	strb	r0, [r4, #4]
   28eea:	70e1      	strb	r1, [r4, #3]
   28eec:	1de0      	adds	r0, r4, #7
   28eee:	2235      	movs	r2, #53	@ 0x35
   28ef0:	990b      	ldr	r1, [sp, #44]	@ 0x2c
   28ef2:	f002 f907 	bl	2b104 <__aeabi_memcpy>
   28ef6:	4d05      	ldr	r5, [pc, #20]	@ (28f0c <_start+0x1210>)
   28ef8:	446d      	add	r5, sp
   28efa:	4628      	mov	r0, r5
   28efc:	4621      	mov	r1, r4
   28efe:	f7fb fd41 	bl	24984 <_ZN20complex_dynamic_type3app17h96af7c539213bd66E>
   28f02:	7828      	ldrb	r0, [r5, #0]
   28f04:	2801      	cmp	r0, #1
   28f06:	d105      	bne.n	28f14 <_start+0x1218>
   28f08:	f001 fee6 	bl	2acd8 <_start+0x2fdc>
   28f0c:	00001404 	.word	0x00001404
   28f10:	000013a8 	.word	0x000013a8
   28f14:	4819      	ldr	r0, [pc, #100]	@ (28f7c <_start+0x1280>)
   28f16:	4468      	add	r0, sp
   28f18:	78c1      	ldrb	r1, [r0, #3]
   28f1a:	acff      	add	r4, sp, #1020	@ 0x3fc
   28f1c:	345c      	adds	r4, #92	@ 0x5c
   28f1e:	70a1      	strb	r1, [r4, #2]
   28f20:	7841      	ldrb	r1, [r0, #1]
   28f22:	7882      	ldrb	r2, [r0, #2]
   28f24:	0212      	lsls	r2, r2, #8
   28f26:	1851      	adds	r1, r2, r1
   28f28:	8021      	strh	r1, [r4, #0]
   28f2a:	3008      	adds	r0, #8
   28f2c:	9908      	ldr	r1, [sp, #32]
   28f2e:	6e09      	ldr	r1, [r1, #96]	@ 0x60
   28f30:	910a      	str	r1, [sp, #40]	@ 0x28
   28f32:	4b13      	ldr	r3, [pc, #76]	@ (28f80 <_start+0x1284>)
   28f34:	446b      	add	r3, sp
   28f36:	930b      	str	r3, [sp, #44]	@ 0x2c
   28f38:	c864      	ldmia	r0!, {r2, r5, r6}
   28f3a:	c364      	stmia	r3!, {r2, r5, r6}
   28f3c:	c864      	ldmia	r0!, {r2, r5, r6}
   28f3e:	c364      	stmia	r3!, {r2, r5, r6}
   28f40:	c866      	ldmia	r0!, {r1, r2, r5, r6}
   28f42:	c366      	stmia	r3!, {r1, r2, r5, r6}
   28f44:	8801      	ldrh	r1, [r0, #0]
   28f46:	8019      	strh	r1, [r3, #0]
   28f48:	7880      	ldrb	r0, [r0, #2]
   28f4a:	7098      	strb	r0, [r3, #2]
   28f4c:	990a      	ldr	r1, [sp, #40]	@ 0x28
   28f4e:	0e08      	lsrs	r0, r1, #24
   28f50:	71a0      	strb	r0, [r4, #6]
   28f52:	0c08      	lsrs	r0, r1, #16
   28f54:	7160      	strb	r0, [r4, #5]
   28f56:	0a08      	lsrs	r0, r1, #8
   28f58:	7120      	strb	r0, [r4, #4]
   28f5a:	70e1      	strb	r1, [r4, #3]
   28f5c:	1de0      	adds	r0, r4, #7
   28f5e:	222b      	movs	r2, #43	@ 0x2b
   28f60:	990b      	ldr	r1, [sp, #44]	@ 0x2c
   28f62:	f002 f8cf 	bl	2b104 <__aeabi_memcpy>
   28f66:	4d05      	ldr	r5, [pc, #20]	@ (28f7c <_start+0x1280>)
   28f68:	446d      	add	r5, sp
   28f6a:	4628      	mov	r0, r5
   28f6c:	4621      	mov	r1, r4
   28f6e:	f7fd fcdd 	bl	2692c <_ZN20complex_dynamic_type3app17hd871d840a0b17bd7E>
   28f72:	7828      	ldrb	r0, [r5, #0]
   28f74:	2801      	cmp	r0, #1
   28f76:	d105      	bne.n	28f84 <_start+0x1288>
   28f78:	f001 feae 	bl	2acd8 <_start+0x2fdc>
   28f7c:	00001404 	.word	0x00001404
   28f80:	000013a8 	.word	0x000013a8
   28f84:	4819      	ldr	r0, [pc, #100]	@ (28fec <_start+0x12f0>)
   28f86:	4468      	add	r0, sp
   28f88:	78c1      	ldrb	r1, [r0, #3]
   28f8a:	acff      	add	r4, sp, #1020	@ 0x3fc
   28f8c:	3490      	adds	r4, #144	@ 0x90
   28f8e:	70a1      	strb	r1, [r4, #2]
   28f90:	7841      	ldrb	r1, [r0, #1]
   28f92:	7882      	ldrb	r2, [r0, #2]
   28f94:	0212      	lsls	r2, r2, #8
   28f96:	1851      	adds	r1, r2, r1
   28f98:	8021      	strh	r1, [r4, #0]
   28f9a:	3008      	adds	r0, #8
   28f9c:	9908      	ldr	r1, [sp, #32]
   28f9e:	6e09      	ldr	r1, [r1, #96]	@ 0x60
   28fa0:	910a      	str	r1, [sp, #40]	@ 0x28
   28fa2:	4b13      	ldr	r3, [pc, #76]	@ (28ff0 <_start+0x12f4>)
   28fa4:	446b      	add	r3, sp
   28fa6:	930b      	str	r3, [sp, #44]	@ 0x2c
   28fa8:	c864      	ldmia	r0!, {r2, r5, r6}
   28faa:	c364      	stmia	r3!, {r2, r5, r6}
   28fac:	c864      	ldmia	r0!, {r2, r5, r6}
   28fae:	c364      	stmia	r3!, {r2, r5, r6}
   28fb0:	c866      	ldmia	r0!, {r1, r2, r5, r6}
   28fb2:	c366      	stmia	r3!, {r1, r2, r5, r6}
   28fb4:	8801      	ldrh	r1, [r0, #0]
   28fb6:	8019      	strh	r1, [r3, #0]
   28fb8:	7880      	ldrb	r0, [r0, #2]
   28fba:	7098      	strb	r0, [r3, #2]
   28fbc:	990a      	ldr	r1, [sp, #40]	@ 0x28
   28fbe:	0e08      	lsrs	r0, r1, #24
   28fc0:	71a0      	strb	r0, [r4, #6]
   28fc2:	0c08      	lsrs	r0, r1, #16
   28fc4:	7160      	strb	r0, [r4, #5]
   28fc6:	0a08      	lsrs	r0, r1, #8
   28fc8:	7120      	strb	r0, [r4, #4]
   28fca:	70e1      	strb	r1, [r4, #3]
   28fcc:	1de0      	adds	r0, r4, #7
   28fce:	222b      	movs	r2, #43	@ 0x2b
   28fd0:	990b      	ldr	r1, [sp, #44]	@ 0x2c
   28fd2:	f002 f897 	bl	2b104 <__aeabi_memcpy>
   28fd6:	4d05      	ldr	r5, [pc, #20]	@ (28fec <_start+0x12f0>)
   28fd8:	446d      	add	r5, sp
   28fda:	4628      	mov	r0, r5
   28fdc:	4621      	mov	r1, r4
   28fde:	f7f8 ffb1 	bl	21f44 <_ZN20complex_dynamic_type3app17h4ddcd32951a06e76E>
   28fe2:	7828      	ldrb	r0, [r5, #0]
   28fe4:	2801      	cmp	r0, #1
   28fe6:	d105      	bne.n	28ff4 <_start+0x12f8>
   28fe8:	f001 fe76 	bl	2acd8 <_start+0x2fdc>
   28fec:	00001404 	.word	0x00001404
   28ff0:	000013a8 	.word	0x000013a8
   28ff4:	4914      	ldr	r1, [pc, #80]	@ (29048 <_start+0x134c>)
   28ff6:	4469      	add	r1, sp
   28ff8:	9b08      	ldr	r3, [sp, #32]
   28ffa:	6ed8      	ldr	r0, [r3, #108]	@ 0x6c
   28ffc:	7208      	strb	r0, [r1, #8]
   28ffe:	4813      	ldr	r0, [pc, #76]	@ (2904c <_start+0x1350>)
   29000:	4468      	add	r0, sp
   29002:	78c2      	ldrb	r2, [r0, #3]
   29004:	acff      	add	r4, sp, #1020	@ 0x3fc
   29006:	34c4      	adds	r4, #196	@ 0xc4
   29008:	70a2      	strb	r2, [r4, #2]
   2900a:	7842      	ldrb	r2, [r0, #1]
   2900c:	7880      	ldrb	r0, [r0, #2]
   2900e:	0200      	lsls	r0, r0, #8
   29010:	1880      	adds	r0, r0, r2
   29012:	8020      	strh	r0, [r4, #0]
   29014:	6e18      	ldr	r0, [r3, #96]	@ 0x60
   29016:	70e0      	strb	r0, [r4, #3]
   29018:	0e02      	lsrs	r2, r0, #24
   2901a:	71a2      	strb	r2, [r4, #6]
   2901c:	0c02      	lsrs	r2, r0, #16
   2901e:	7162      	strb	r2, [r4, #5]
   29020:	0a00      	lsrs	r0, r0, #8
   29022:	7120      	strb	r0, [r4, #4]
   29024:	6e58      	ldr	r0, [r3, #100]	@ 0x64
   29026:	6e9a      	ldr	r2, [r3, #104]	@ 0x68
   29028:	c305      	stmia	r3!, {r0, r2}
   2902a:	1de0      	adds	r0, r4, #7
   2902c:	2209      	movs	r2, #9
   2902e:	f002 f869 	bl	2b104 <__aeabi_memcpy>
   29032:	4d06      	ldr	r5, [pc, #24]	@ (2904c <_start+0x1350>)
   29034:	446d      	add	r5, sp
   29036:	4628      	mov	r0, r5
   29038:	4621      	mov	r1, r4
   2903a:	f7fe fc67 	bl	2790c <_ZN20complex_dynamic_type3app17hf4344a939c27328fE>
   2903e:	7828      	ldrb	r0, [r5, #0]
   29040:	2801      	cmp	r0, #1
   29042:	d105      	bne.n	29050 <_start+0x1354>
   29044:	f001 fe48 	bl	2acd8 <_start+0x2fdc>
   29048:	000013a8 	.word	0x000013a8
   2904c:	00001404 	.word	0x00001404
   29050:	4819      	ldr	r0, [pc, #100]	@ (290b8 <_start+0x13bc>)
   29052:	4468      	add	r0, sp
   29054:	78c1      	ldrb	r1, [r0, #3]
   29056:	acff      	add	r4, sp, #1020	@ 0x3fc
   29058:	34d4      	adds	r4, #212	@ 0xd4
   2905a:	70a1      	strb	r1, [r4, #2]
   2905c:	7841      	ldrb	r1, [r0, #1]
   2905e:	7882      	ldrb	r2, [r0, #2]
   29060:	0212      	lsls	r2, r2, #8
   29062:	1851      	adds	r1, r2, r1
   29064:	8021      	strh	r1, [r4, #0]
   29066:	3008      	adds	r0, #8
   29068:	9908      	ldr	r1, [sp, #32]
   2906a:	6e09      	ldr	r1, [r1, #96]	@ 0x60
   2906c:	910a      	str	r1, [sp, #40]	@ 0x28
   2906e:	4b13      	ldr	r3, [pc, #76]	@ (290bc <_start+0x13c0>)
   29070:	446b      	add	r3, sp
   29072:	930b      	str	r3, [sp, #44]	@ 0x2c
   29074:	c864      	ldmia	r0!, {r2, r5, r6}
   29076:	c364      	stmia	r3!, {r2, r5, r6}
   29078:	c866      	ldmia	r0!, {r1, r2, r5, r6}
   2907a:	c366      	stmia	r3!, {r1, r2, r5, r6}
   2907c:	c866      	ldmia	r0!, {r1, r2, r5, r6}
   2907e:	c366      	stmia	r3!, {r1, r2, r5, r6}
   29080:	8801      	ldrh	r1, [r0, #0]
   29082:	8019      	strh	r1, [r3, #0]
   29084:	7880      	ldrb	r0, [r0, #2]
   29086:	7098      	strb	r0, [r3, #2]
   29088:	990a      	ldr	r1, [sp, #40]	@ 0x28
   2908a:	0e08      	lsrs	r0, r1, #24
   2908c:	71a0      	strb	r0, [r4, #6]
   2908e:	0c08      	lsrs	r0, r1, #16
   29090:	7160      	strb	r0, [r4, #5]
   29092:	0a08      	lsrs	r0, r1, #8
   29094:	7120      	strb	r0, [r4, #4]
   29096:	70e1      	strb	r1, [r4, #3]
   29098:	1de0      	adds	r0, r4, #7
   2909a:	222f      	movs	r2, #47	@ 0x2f
   2909c:	990b      	ldr	r1, [sp, #44]	@ 0x2c
   2909e:	f002 f831 	bl	2b104 <__aeabi_memcpy>
   290a2:	4d05      	ldr	r5, [pc, #20]	@ (290b8 <_start+0x13bc>)
   290a4:	446d      	add	r5, sp
   290a6:	4628      	mov	r0, r5
   290a8:	4621      	mov	r1, r4
   290aa:	f7fc fc59 	bl	25960 <_ZN20complex_dynamic_type3app17hbe280682dbe9141dE>
   290ae:	7828      	ldrb	r0, [r5, #0]
   290b0:	2801      	cmp	r0, #1
   290b2:	d105      	bne.n	290c0 <_start+0x13c4>
   290b4:	f001 fe10 	bl	2acd8 <_start+0x2fdc>
   290b8:	00001404 	.word	0x00001404
   290bc:	000013a8 	.word	0x000013a8
   290c0:	9803      	ldr	r0, [sp, #12]
   290c2:	1cc0      	adds	r0, r0, #3
   290c4:	4a16      	ldr	r2, [pc, #88]	@ (29120 <_start+0x1424>)
   290c6:	446a      	add	r2, sp
   290c8:	78d3      	ldrb	r3, [r2, #3]
   290ca:	4916      	ldr	r1, [pc, #88]	@ (29124 <_start+0x1428>)
   290cc:	4469      	add	r1, sp
   290ce:	708b      	strb	r3, [r1, #2]
   290d0:	7853      	ldrb	r3, [r2, #1]
   290d2:	7892      	ldrb	r2, [r2, #2]
   290d4:	0212      	lsls	r2, r2, #8
   290d6:	18d2      	adds	r2, r2, r3
   290d8:	800a      	strh	r2, [r1, #0]
   290da:	9c08      	ldr	r4, [sp, #32]
   290dc:	3460      	adds	r4, #96	@ 0x60
   290de:	cc1c      	ldmia	r4, {r2, r3, r4}
   290e0:	0e25      	lsrs	r5, r4, #24
   290e2:	72c5      	strb	r5, [r0, #11]
   290e4:	0c25      	lsrs	r5, r4, #16
   290e6:	7285      	strb	r5, [r0, #10]
   290e8:	0a25      	lsrs	r5, r4, #8
   290ea:	7245      	strb	r5, [r0, #9]
   290ec:	7204      	strb	r4, [r0, #8]
   290ee:	0e1c      	lsrs	r4, r3, #24
   290f0:	71c4      	strb	r4, [r0, #7]
   290f2:	0c1c      	lsrs	r4, r3, #16
   290f4:	7184      	strb	r4, [r0, #6]
   290f6:	0a1c      	lsrs	r4, r3, #8
   290f8:	7144      	strb	r4, [r0, #5]
   290fa:	7103      	strb	r3, [r0, #4]
   290fc:	0e13      	lsrs	r3, r2, #24
   290fe:	70c3      	strb	r3, [r0, #3]
   29100:	0c13      	lsrs	r3, r2, #16
   29102:	7083      	strb	r3, [r0, #2]
   29104:	0a13      	lsrs	r3, r2, #8
   29106:	7043      	strb	r3, [r0, #1]
   29108:	7002      	strb	r2, [r0, #0]
   2910a:	4c05      	ldr	r4, [pc, #20]	@ (29120 <_start+0x1424>)
   2910c:	446c      	add	r4, sp
   2910e:	4620      	mov	r0, r4
   29110:	f7f7 fe82 	bl	20e18 <_ZN20complex_dynamic_type3app17h17344ac39208109aE>
   29114:	7820      	ldrb	r0, [r4, #0]
   29116:	2801      	cmp	r0, #1
   29118:	d106      	bne.n	29128 <_start+0x142c>
   2911a:	f001 fddd 	bl	2acd8 <_start+0x2fdc>
   2911e:	46c0      	nop			@ (mov r8, r8)
   29120:	00001404 	.word	0x00001404
   29124:	00000508 	.word	0x00000508
   29128:	4813      	ldr	r0, [pc, #76]	@ (29178 <_start+0x147c>)
   2912a:	4468      	add	r0, sp
   2912c:	78c1      	ldrb	r1, [r0, #3]
   2912e:	4c13      	ldr	r4, [pc, #76]	@ (2917c <_start+0x1480>)
   29130:	446c      	add	r4, sp
   29132:	70a1      	strb	r1, [r4, #2]
   29134:	7841      	ldrb	r1, [r0, #1]
   29136:	7880      	ldrb	r0, [r0, #2]
   29138:	0200      	lsls	r0, r0, #8
   2913a:	1840      	adds	r0, r0, r1
   2913c:	8020      	strh	r0, [r4, #0]
   2913e:	9e08      	ldr	r6, [sp, #32]
   29140:	4633      	mov	r3, r6
   29142:	3360      	adds	r3, #96	@ 0x60
   29144:	cb0f      	ldmia	r3, {r0, r1, r2, r3}
   29146:	70e0      	strb	r0, [r4, #3]
   29148:	0e05      	lsrs	r5, r0, #24
   2914a:	71a5      	strb	r5, [r4, #6]
   2914c:	0c05      	lsrs	r5, r0, #16
   2914e:	7165      	strb	r5, [r4, #5]
   29150:	0a00      	lsrs	r0, r0, #8
   29152:	7120      	strb	r0, [r4, #4]
   29154:	c60e      	stmia	r6!, {r1, r2, r3}
   29156:	1de0      	adds	r0, r4, #7
   29158:	4909      	ldr	r1, [pc, #36]	@ (29180 <_start+0x1484>)
   2915a:	4469      	add	r1, sp
   2915c:	220c      	movs	r2, #12
   2915e:	f001 ffd1 	bl	2b104 <__aeabi_memcpy>
   29162:	4d05      	ldr	r5, [pc, #20]	@ (29178 <_start+0x147c>)
   29164:	446d      	add	r5, sp
   29166:	4628      	mov	r0, r5
   29168:	4621      	mov	r1, r4
   2916a:	f7f7 fdad 	bl	20cc8 <_ZN20complex_dynamic_type3app17h15ab81a409cdf75bE>
   2916e:	7828      	ldrb	r0, [r5, #0]
   29170:	2801      	cmp	r0, #1
   29172:	d107      	bne.n	29184 <_start+0x1488>
   29174:	f001 fdb0 	bl	2acd8 <_start+0x2fdc>
   29178:	00001404 	.word	0x00001404
   2917c:	00000518 	.word	0x00000518
   29180:	000013a8 	.word	0x000013a8
   29184:	4915      	ldr	r1, [pc, #84]	@ (291dc <_start+0x14e0>)
   29186:	4469      	add	r1, sp
   29188:	78c8      	ldrb	r0, [r1, #3]
   2918a:	4c15      	ldr	r4, [pc, #84]	@ (291e0 <_start+0x14e4>)
   2918c:	446c      	add	r4, sp
   2918e:	70a0      	strb	r0, [r4, #2]
   29190:	7848      	ldrb	r0, [r1, #1]
   29192:	788a      	ldrb	r2, [r1, #2]
   29194:	0212      	lsls	r2, r2, #8
   29196:	1810      	adds	r0, r2, r0
   29198:	8020      	strh	r0, [r4, #0]
   2919a:	9808      	ldr	r0, [sp, #32]
   2919c:	6e05      	ldr	r5, [r0, #96]	@ 0x60
   2919e:	3108      	adds	r1, #8
   291a0:	4810      	ldr	r0, [pc, #64]	@ (291e4 <_start+0x14e8>)
   291a2:	4468      	add	r0, sp
   291a4:	900b      	str	r0, [sp, #44]	@ 0x2c
   291a6:	264e      	movs	r6, #78	@ 0x4e
   291a8:	4632      	mov	r2, r6
   291aa:	f001 fe4b 	bl	2ae44 <__aeabi_memcpy4>
   291ae:	0e28      	lsrs	r0, r5, #24
   291b0:	71a0      	strb	r0, [r4, #6]
   291b2:	0c28      	lsrs	r0, r5, #16
   291b4:	7160      	strb	r0, [r4, #5]
   291b6:	0a28      	lsrs	r0, r5, #8
   291b8:	7120      	strb	r0, [r4, #4]
   291ba:	70e5      	strb	r5, [r4, #3]
   291bc:	1de0      	adds	r0, r4, #7
   291be:	990b      	ldr	r1, [sp, #44]	@ 0x2c
   291c0:	4632      	mov	r2, r6
   291c2:	f001 ff9f 	bl	2b104 <__aeabi_memcpy>
   291c6:	4d05      	ldr	r5, [pc, #20]	@ (291dc <_start+0x14e0>)
   291c8:	446d      	add	r5, sp
   291ca:	4628      	mov	r0, r5
   291cc:	4621      	mov	r1, r4
   291ce:	f7fa f94f 	bl	23470 <_ZN20complex_dynamic_type3app17h683027ea98caef8eE>
   291d2:	7828      	ldrb	r0, [r5, #0]
   291d4:	2801      	cmp	r0, #1
   291d6:	d107      	bne.n	291e8 <_start+0x14ec>
   291d8:	f001 fd7e 	bl	2acd8 <_start+0x2fdc>
   291dc:	00001404 	.word	0x00001404
   291e0:	0000052c 	.word	0x0000052c
   291e4:	000013a8 	.word	0x000013a8
   291e8:	4819      	ldr	r0, [pc, #100]	@ (29250 <_start+0x1554>)
   291ea:	4468      	add	r0, sp
   291ec:	78c1      	ldrb	r1, [r0, #3]
   291ee:	4c19      	ldr	r4, [pc, #100]	@ (29254 <_start+0x1558>)
   291f0:	446c      	add	r4, sp
   291f2:	70a1      	strb	r1, [r4, #2]
   291f4:	7841      	ldrb	r1, [r0, #1]
   291f6:	7882      	ldrb	r2, [r0, #2]
   291f8:	0212      	lsls	r2, r2, #8
   291fa:	1851      	adds	r1, r2, r1
   291fc:	8021      	strh	r1, [r4, #0]
   291fe:	3008      	adds	r0, #8
   29200:	9908      	ldr	r1, [sp, #32]
   29202:	6e09      	ldr	r1, [r1, #96]	@ 0x60
   29204:	910a      	str	r1, [sp, #40]	@ 0x28
   29206:	4b14      	ldr	r3, [pc, #80]	@ (29258 <_start+0x155c>)
   29208:	446b      	add	r3, sp
   2920a:	930b      	str	r3, [sp, #44]	@ 0x2c
   2920c:	c864      	ldmia	r0!, {r2, r5, r6}
   2920e:	c364      	stmia	r3!, {r2, r5, r6}
   29210:	c864      	ldmia	r0!, {r2, r5, r6}
   29212:	c364      	stmia	r3!, {r2, r5, r6}
   29214:	c866      	ldmia	r0!, {r1, r2, r5, r6}
   29216:	c366      	stmia	r3!, {r1, r2, r5, r6}
   29218:	8801      	ldrh	r1, [r0, #0]
   2921a:	8019      	strh	r1, [r3, #0]
   2921c:	7880      	ldrb	r0, [r0, #2]
   2921e:	7098      	strb	r0, [r3, #2]
   29220:	990a      	ldr	r1, [sp, #40]	@ 0x28
   29222:	0e08      	lsrs	r0, r1, #24
   29224:	71a0      	strb	r0, [r4, #6]
   29226:	0c08      	lsrs	r0, r1, #16
   29228:	7160      	strb	r0, [r4, #5]
   2922a:	0a08      	lsrs	r0, r1, #8
   2922c:	7120      	strb	r0, [r4, #4]
   2922e:	70e1      	strb	r1, [r4, #3]
   29230:	1de0      	adds	r0, r4, #7
   29232:	222b      	movs	r2, #43	@ 0x2b
   29234:	990b      	ldr	r1, [sp, #44]	@ 0x2c
   29236:	f001 ff65 	bl	2b104 <__aeabi_memcpy>
   2923a:	4d05      	ldr	r5, [pc, #20]	@ (29250 <_start+0x1554>)
   2923c:	446d      	add	r5, sp
   2923e:	4628      	mov	r0, r5
   29240:	4621      	mov	r1, r4
   29242:	f7f6 fffb 	bl	2023c <_ZN20complex_dynamic_type3app17h01ca4c1c143de487E>
   29246:	7828      	ldrb	r0, [r5, #0]
   29248:	2801      	cmp	r0, #1
   2924a:	d107      	bne.n	2925c <_start+0x1560>
   2924c:	f001 fd44 	bl	2acd8 <_start+0x2fdc>
   29250:	00001404 	.word	0x00001404
   29254:	00000584 	.word	0x00000584
   29258:	000013a8 	.word	0x000013a8
   2925c:	4819      	ldr	r0, [pc, #100]	@ (292c4 <_start+0x15c8>)
   2925e:	4468      	add	r0, sp
   29260:	78c1      	ldrb	r1, [r0, #3]
   29262:	4c19      	ldr	r4, [pc, #100]	@ (292c8 <_start+0x15cc>)
   29264:	446c      	add	r4, sp
   29266:	70a1      	strb	r1, [r4, #2]
   29268:	7841      	ldrb	r1, [r0, #1]
   2926a:	7882      	ldrb	r2, [r0, #2]
   2926c:	0212      	lsls	r2, r2, #8
   2926e:	1851      	adds	r1, r2, r1
   29270:	8021      	strh	r1, [r4, #0]
   29272:	3008      	adds	r0, #8
   29274:	9908      	ldr	r1, [sp, #32]
   29276:	6e09      	ldr	r1, [r1, #96]	@ 0x60
   29278:	910a      	str	r1, [sp, #40]	@ 0x28
   2927a:	4b14      	ldr	r3, [pc, #80]	@ (292cc <_start+0x15d0>)
   2927c:	446b      	add	r3, sp
   2927e:	930b      	str	r3, [sp, #44]	@ 0x2c
   29280:	c864      	ldmia	r0!, {r2, r5, r6}
   29282:	c364      	stmia	r3!, {r2, r5, r6}
   29284:	c866      	ldmia	r0!, {r1, r2, r5, r6}
   29286:	c366      	stmia	r3!, {r1, r2, r5, r6}
   29288:	c826      	ldmia	r0!, {r1, r2, r5}
   2928a:	c326      	stmia	r3!, {r1, r2, r5}
   2928c:	c866      	ldmia	r0!, {r1, r2, r5, r6}
   2928e:	c366      	stmia	r3!, {r1, r2, r5, r6}
   29290:	8800      	ldrh	r0, [r0, #0]
   29292:	8018      	strh	r0, [r3, #0]
   29294:	990a      	ldr	r1, [sp, #40]	@ 0x28
   29296:	0e08      	lsrs	r0, r1, #24
   29298:	71a0      	strb	r0, [r4, #6]
   2929a:	0c08      	lsrs	r0, r1, #16
   2929c:	7160      	strb	r0, [r4, #5]
   2929e:	0a08      	lsrs	r0, r1, #8
   292a0:	7120      	strb	r0, [r4, #4]
   292a2:	70e1      	strb	r1, [r4, #3]
   292a4:	1de0      	adds	r0, r4, #7
   292a6:	223a      	movs	r2, #58	@ 0x3a
   292a8:	990b      	ldr	r1, [sp, #44]	@ 0x2c
   292aa:	f001 ff2b 	bl	2b104 <__aeabi_memcpy>
   292ae:	4d05      	ldr	r5, [pc, #20]	@ (292c4 <_start+0x15c8>)
   292b0:	446d      	add	r5, sp
   292b2:	4628      	mov	r0, r5
   292b4:	4621      	mov	r1, r4
   292b6:	f7f8 faf7 	bl	218a8 <_ZN20complex_dynamic_type3app17h2f370e0da9853665E>
   292ba:	7828      	ldrb	r0, [r5, #0]
   292bc:	2801      	cmp	r0, #1
   292be:	d107      	bne.n	292d0 <_start+0x15d4>
   292c0:	f001 fd0a 	bl	2acd8 <_start+0x2fdc>
   292c4:	00001404 	.word	0x00001404
   292c8:	000005b8 	.word	0x000005b8
   292cc:	000013a8 	.word	0x000013a8
   292d0:	4817      	ldr	r0, [pc, #92]	@ (29330 <_start+0x1634>)
   292d2:	4468      	add	r0, sp
   292d4:	78c1      	ldrb	r1, [r0, #3]
   292d6:	4c17      	ldr	r4, [pc, #92]	@ (29334 <_start+0x1638>)
   292d8:	446c      	add	r4, sp
   292da:	70a1      	strb	r1, [r4, #2]
   292dc:	7841      	ldrb	r1, [r0, #1]
   292de:	7882      	ldrb	r2, [r0, #2]
   292e0:	0212      	lsls	r2, r2, #8
   292e2:	1851      	adds	r1, r2, r1
   292e4:	8021      	strh	r1, [r4, #0]
   292e6:	3008      	adds	r0, #8
   292e8:	9908      	ldr	r1, [sp, #32]
   292ea:	6e09      	ldr	r1, [r1, #96]	@ 0x60
   292ec:	4b12      	ldr	r3, [pc, #72]	@ (29338 <_start+0x163c>)
   292ee:	446b      	add	r3, sp
   292f0:	930b      	str	r3, [sp, #44]	@ 0x2c
   292f2:	c864      	ldmia	r0!, {r2, r5, r6}
   292f4:	c364      	stmia	r3!, {r2, r5, r6}
   292f6:	c864      	ldmia	r0!, {r2, r5, r6}
   292f8:	c364      	stmia	r3!, {r2, r5, r6}
   292fa:	8802      	ldrh	r2, [r0, #0]
   292fc:	801a      	strh	r2, [r3, #0]
   292fe:	7880      	ldrb	r0, [r0, #2]
   29300:	7098      	strb	r0, [r3, #2]
   29302:	0e08      	lsrs	r0, r1, #24
   29304:	71a0      	strb	r0, [r4, #6]
   29306:	0c08      	lsrs	r0, r1, #16
   29308:	7160      	strb	r0, [r4, #5]
   2930a:	0a08      	lsrs	r0, r1, #8
   2930c:	7120      	strb	r0, [r4, #4]
   2930e:	70e1      	strb	r1, [r4, #3]
   29310:	1de0      	adds	r0, r4, #7
   29312:	221b      	movs	r2, #27
   29314:	990b      	ldr	r1, [sp, #44]	@ 0x2c
   29316:	f001 fef5 	bl	2b104 <__aeabi_memcpy>
   2931a:	4d05      	ldr	r5, [pc, #20]	@ (29330 <_start+0x1634>)
   2931c:	446d      	add	r5, sp
   2931e:	4628      	mov	r0, r5
   29320:	4621      	mov	r1, r4
   29322:	f7fc fc6d 	bl	25c00 <_ZN20complex_dynamic_type3app17hc25ecb64b19229adE>
   29326:	7828      	ldrb	r0, [r5, #0]
   29328:	2801      	cmp	r0, #1
   2932a:	d107      	bne.n	2933c <_start+0x1640>
   2932c:	f001 fcd4 	bl	2acd8 <_start+0x2fdc>
   29330:	00001404 	.word	0x00001404
   29334:	000005fc 	.word	0x000005fc
   29338:	000013a8 	.word	0x000013a8
   2933c:	4915      	ldr	r1, [pc, #84]	@ (29394 <_start+0x1698>)
   2933e:	4469      	add	r1, sp
   29340:	78c8      	ldrb	r0, [r1, #3]
   29342:	4c15      	ldr	r4, [pc, #84]	@ (29398 <_start+0x169c>)
   29344:	446c      	add	r4, sp
   29346:	70a0      	strb	r0, [r4, #2]
   29348:	7848      	ldrb	r0, [r1, #1]
   2934a:	788a      	ldrb	r2, [r1, #2]
   2934c:	0212      	lsls	r2, r2, #8
   2934e:	1810      	adds	r0, r2, r0
   29350:	8020      	strh	r0, [r4, #0]
   29352:	9808      	ldr	r0, [sp, #32]
   29354:	6e05      	ldr	r5, [r0, #96]	@ 0x60
   29356:	3108      	adds	r1, #8
   29358:	4810      	ldr	r0, [pc, #64]	@ (2939c <_start+0x16a0>)
   2935a:	4468      	add	r0, sp
   2935c:	900b      	str	r0, [sp, #44]	@ 0x2c
   2935e:	264a      	movs	r6, #74	@ 0x4a
   29360:	4632      	mov	r2, r6
   29362:	f001 fd6f 	bl	2ae44 <__aeabi_memcpy4>
   29366:	0e28      	lsrs	r0, r5, #24
   29368:	71a0      	strb	r0, [r4, #6]
   2936a:	0c28      	lsrs	r0, r5, #16
   2936c:	7160      	strb	r0, [r4, #5]
   2936e:	0a28      	lsrs	r0, r5, #8
   29370:	7120      	strb	r0, [r4, #4]
   29372:	70e5      	strb	r5, [r4, #3]
   29374:	1de0      	adds	r0, r4, #7
   29376:	990b      	ldr	r1, [sp, #44]	@ 0x2c
   29378:	4632      	mov	r2, r6
   2937a:	f001 fec3 	bl	2b104 <__aeabi_memcpy>
   2937e:	4d05      	ldr	r5, [pc, #20]	@ (29394 <_start+0x1698>)
   29380:	446d      	add	r5, sp
   29382:	4628      	mov	r0, r5
   29384:	4621      	mov	r1, r4
   29386:	f7fa fa6f 	bl	23868 <_ZN20complex_dynamic_type3app17h80f4f74aecf5c2e8E>
   2938a:	7828      	ldrb	r0, [r5, #0]
   2938c:	2801      	cmp	r0, #1
   2938e:	d107      	bne.n	293a0 <_start+0x16a4>
   29390:	f001 fca2 	bl	2acd8 <_start+0x2fdc>
   29394:	00001404 	.word	0x00001404
   29398:	00000620 	.word	0x00000620
   2939c:	000013a8 	.word	0x000013a8
   293a0:	4915      	ldr	r1, [pc, #84]	@ (293f8 <_start+0x16fc>)
   293a2:	4469      	add	r1, sp
   293a4:	78c8      	ldrb	r0, [r1, #3]
   293a6:	4c15      	ldr	r4, [pc, #84]	@ (293fc <_start+0x1700>)
   293a8:	446c      	add	r4, sp
   293aa:	70a0      	strb	r0, [r4, #2]
   293ac:	7848      	ldrb	r0, [r1, #1]
   293ae:	788a      	ldrb	r2, [r1, #2]
   293b0:	0212      	lsls	r2, r2, #8
   293b2:	1810      	adds	r0, r2, r0
   293b4:	8020      	strh	r0, [r4, #0]
   293b6:	9808      	ldr	r0, [sp, #32]
   293b8:	6e05      	ldr	r5, [r0, #96]	@ 0x60
   293ba:	3108      	adds	r1, #8
   293bc:	4810      	ldr	r0, [pc, #64]	@ (29400 <_start+0x1704>)
   293be:	4468      	add	r0, sp
   293c0:	900b      	str	r0, [sp, #44]	@ 0x2c
   293c2:	2648      	movs	r6, #72	@ 0x48
   293c4:	4632      	mov	r2, r6
   293c6:	f001 fd3d 	bl	2ae44 <__aeabi_memcpy4>
   293ca:	0e28      	lsrs	r0, r5, #24
   293cc:	71a0      	strb	r0, [r4, #6]
   293ce:	0c28      	lsrs	r0, r5, #16
   293d0:	7160      	strb	r0, [r4, #5]
   293d2:	0a28      	lsrs	r0, r5, #8
   293d4:	7120      	strb	r0, [r4, #4]
   293d6:	70e5      	strb	r5, [r4, #3]
   293d8:	1de0      	adds	r0, r4, #7
   293da:	990b      	ldr	r1, [sp, #44]	@ 0x2c
   293dc:	4632      	mov	r2, r6
   293de:	f001 fe91 	bl	2b104 <__aeabi_memcpy>
   293e2:	4d05      	ldr	r5, [pc, #20]	@ (293f8 <_start+0x16fc>)
   293e4:	446d      	add	r5, sp
   293e6:	4628      	mov	r0, r5
   293e8:	4621      	mov	r1, r4
   293ea:	f7fc fffb 	bl	263e4 <_ZN20complex_dynamic_type3app17hd2340fad7d17523cE>
   293ee:	7828      	ldrb	r0, [r5, #0]
   293f0:	2801      	cmp	r0, #1
   293f2:	d107      	bne.n	29404 <_start+0x1708>
   293f4:	f001 fc70 	bl	2acd8 <_start+0x2fdc>
   293f8:	00001404 	.word	0x00001404
   293fc:	00000674 	.word	0x00000674
   29400:	000013a8 	.word	0x000013a8
   29404:	4818      	ldr	r0, [pc, #96]	@ (29468 <_start+0x176c>)
   29406:	4468      	add	r0, sp
   29408:	78c1      	ldrb	r1, [r0, #3]
   2940a:	4c18      	ldr	r4, [pc, #96]	@ (2946c <_start+0x1770>)
   2940c:	446c      	add	r4, sp
   2940e:	70a1      	strb	r1, [r4, #2]
   29410:	7841      	ldrb	r1, [r0, #1]
   29412:	7882      	ldrb	r2, [r0, #2]
   29414:	0212      	lsls	r2, r2, #8
   29416:	1851      	adds	r1, r2, r1
   29418:	8021      	strh	r1, [r4, #0]
   2941a:	3008      	adds	r0, #8
   2941c:	9908      	ldr	r1, [sp, #32]
   2941e:	6e09      	ldr	r1, [r1, #96]	@ 0x60
   29420:	910a      	str	r1, [sp, #40]	@ 0x28
   29422:	4b13      	ldr	r3, [pc, #76]	@ (29470 <_start+0x1774>)
   29424:	446b      	add	r3, sp
   29426:	930b      	str	r3, [sp, #44]	@ 0x2c
   29428:	c864      	ldmia	r0!, {r2, r5, r6}
   2942a:	c364      	stmia	r3!, {r2, r5, r6}
   2942c:	c864      	ldmia	r0!, {r2, r5, r6}
   2942e:	c364      	stmia	r3!, {r2, r5, r6}
   29430:	c864      	ldmia	r0!, {r2, r5, r6}
   29432:	c364      	stmia	r3!, {r2, r5, r6}
   29434:	c866      	ldmia	r0!, {r1, r2, r5, r6}
   29436:	c366      	stmia	r3!, {r1, r2, r5, r6}
   29438:	990a      	ldr	r1, [sp, #40]	@ 0x28
   2943a:	0e08      	lsrs	r0, r1, #24
   2943c:	71a0      	strb	r0, [r4, #6]
   2943e:	0c08      	lsrs	r0, r1, #16
   29440:	7160      	strb	r0, [r4, #5]
   29442:	0a08      	lsrs	r0, r1, #8
   29444:	7120      	strb	r0, [r4, #4]
   29446:	70e1      	strb	r1, [r4, #3]
   29448:	1de0      	adds	r0, r4, #7
   2944a:	2234      	movs	r2, #52	@ 0x34
   2944c:	990b      	ldr	r1, [sp, #44]	@ 0x2c
   2944e:	f001 fe59 	bl	2b104 <__aeabi_memcpy>
   29452:	4d05      	ldr	r5, [pc, #20]	@ (29468 <_start+0x176c>)
   29454:	446d      	add	r5, sp
   29456:	4628      	mov	r0, r5
   29458:	4621      	mov	r1, r4
   2945a:	f7fa fea1 	bl	241a0 <_ZN20complex_dynamic_type3app17h8cce0c063de09b6bE>
   2945e:	7828      	ldrb	r0, [r5, #0]
   29460:	2801      	cmp	r0, #1
   29462:	d107      	bne.n	29474 <_start+0x1778>
   29464:	f001 fc38 	bl	2acd8 <_start+0x2fdc>
   29468:	00001404 	.word	0x00001404
   2946c:	000006c4 	.word	0x000006c4
   29470:	000013a8 	.word	0x000013a8
   29474:	4816      	ldr	r0, [pc, #88]	@ (294d0 <_start+0x17d4>)
   29476:	4468      	add	r0, sp
   29478:	78c1      	ldrb	r1, [r0, #3]
   2947a:	4c16      	ldr	r4, [pc, #88]	@ (294d4 <_start+0x17d8>)
   2947c:	446c      	add	r4, sp
   2947e:	70a1      	strb	r1, [r4, #2]
   29480:	7841      	ldrb	r1, [r0, #1]
   29482:	7882      	ldrb	r2, [r0, #2]
   29484:	0212      	lsls	r2, r2, #8
   29486:	1851      	adds	r1, r2, r1
   29488:	8021      	strh	r1, [r4, #0]
   2948a:	3008      	adds	r0, #8
   2948c:	9908      	ldr	r1, [sp, #32]
   2948e:	6e09      	ldr	r1, [r1, #96]	@ 0x60
   29490:	910a      	str	r1, [sp, #40]	@ 0x28
   29492:	4b11      	ldr	r3, [pc, #68]	@ (294d8 <_start+0x17dc>)
   29494:	446b      	add	r3, sp
   29496:	930b      	str	r3, [sp, #44]	@ 0x2c
   29498:	c866      	ldmia	r0!, {r1, r2, r5, r6}
   2949a:	c366      	stmia	r3!, {r1, r2, r5, r6}
   2949c:	c866      	ldmia	r0!, {r1, r2, r5, r6}
   2949e:	c366      	stmia	r3!, {r1, r2, r5, r6}
   294a0:	990a      	ldr	r1, [sp, #40]	@ 0x28
   294a2:	0e08      	lsrs	r0, r1, #24
   294a4:	71a0      	strb	r0, [r4, #6]
   294a6:	0c08      	lsrs	r0, r1, #16
   294a8:	7160      	strb	r0, [r4, #5]
   294aa:	0a08      	lsrs	r0, r1, #8
   294ac:	7120      	strb	r0, [r4, #4]
   294ae:	70e1      	strb	r1, [r4, #3]
   294b0:	1de0      	adds	r0, r4, #7
   294b2:	2220      	movs	r2, #32
   294b4:	990b      	ldr	r1, [sp, #44]	@ 0x2c
   294b6:	f001 fe25 	bl	2b104 <__aeabi_memcpy>
   294ba:	4d05      	ldr	r5, [pc, #20]	@ (294d0 <_start+0x17d4>)
   294bc:	446d      	add	r5, sp
   294be:	4628      	mov	r0, r5
   294c0:	4621      	mov	r1, r4
   294c2:	f7fd f98b 	bl	267dc <_ZN20complex_dynamic_type3app17hd70b8582bd8afdc9E>
   294c6:	7828      	ldrb	r0, [r5, #0]
   294c8:	2801      	cmp	r0, #1
   294ca:	d107      	bne.n	294dc <_start+0x17e0>
   294cc:	f001 fc04 	bl	2acd8 <_start+0x2fdc>
   294d0:	00001404 	.word	0x00001404
   294d4:	00000700 	.word	0x00000700
   294d8:	000013a8 	.word	0x000013a8
   294dc:	4915      	ldr	r1, [pc, #84]	@ (29534 <_start+0x1838>)
   294de:	4469      	add	r1, sp
   294e0:	9d08      	ldr	r5, [sp, #32]
   294e2:	6f28      	ldr	r0, [r5, #112]	@ 0x70
   294e4:	7308      	strb	r0, [r1, #12]
   294e6:	4814      	ldr	r0, [pc, #80]	@ (29538 <_start+0x183c>)
   294e8:	4468      	add	r0, sp
   294ea:	78c2      	ldrb	r2, [r0, #3]
   294ec:	4c13      	ldr	r4, [pc, #76]	@ (2953c <_start+0x1840>)
   294ee:	446c      	add	r4, sp
   294f0:	70a2      	strb	r2, [r4, #2]
   294f2:	7842      	ldrb	r2, [r0, #1]
   294f4:	7880      	ldrb	r0, [r0, #2]
   294f6:	0200      	lsls	r0, r0, #8
   294f8:	1880      	adds	r0, r0, r2
   294fa:	8020      	strh	r0, [r4, #0]
   294fc:	6e28      	ldr	r0, [r5, #96]	@ 0x60
   294fe:	70e0      	strb	r0, [r4, #3]
   29500:	0e02      	lsrs	r2, r0, #24
   29502:	71a2      	strb	r2, [r4, #6]
   29504:	0c02      	lsrs	r2, r0, #16
   29506:	7162      	strb	r2, [r4, #5]
   29508:	0a00      	lsrs	r0, r0, #8
   2950a:	7120      	strb	r0, [r4, #4]
   2950c:	462b      	mov	r3, r5
   2950e:	3364      	adds	r3, #100	@ 0x64
   29510:	cb0d      	ldmia	r3, {r0, r2, r3}
   29512:	c50d      	stmia	r5!, {r0, r2, r3}
   29514:	1de0      	adds	r0, r4, #7
   29516:	220d      	movs	r2, #13
   29518:	f001 fdf4 	bl	2b104 <__aeabi_memcpy>
   2951c:	4d06      	ldr	r5, [pc, #24]	@ (29538 <_start+0x183c>)
   2951e:	446d      	add	r5, sp
   29520:	4628      	mov	r0, r5
   29522:	4621      	mov	r1, r4
   29524:	f7f7 fd24 	bl	20f70 <_ZN20complex_dynamic_type3app17h1998f12efd7fb3aeE>
   29528:	7828      	ldrb	r0, [r5, #0]
   2952a:	2801      	cmp	r0, #1
   2952c:	d108      	bne.n	29540 <_start+0x1844>
   2952e:	f001 fbd3 	bl	2acd8 <_start+0x2fdc>
   29532:	46c0      	nop			@ (mov r8, r8)
   29534:	000013a8 	.word	0x000013a8
   29538:	00001404 	.word	0x00001404
   2953c:	00000728 	.word	0x00000728
   29540:	4816      	ldr	r0, [pc, #88]	@ (2959c <_start+0x18a0>)
   29542:	4468      	add	r0, sp
   29544:	78c1      	ldrb	r1, [r0, #3]
   29546:	4c16      	ldr	r4, [pc, #88]	@ (295a0 <_start+0x18a4>)
   29548:	446c      	add	r4, sp
   2954a:	70a1      	strb	r1, [r4, #2]
   2954c:	7841      	ldrb	r1, [r0, #1]
   2954e:	7882      	ldrb	r2, [r0, #2]
   29550:	0212      	lsls	r2, r2, #8
   29552:	1851      	adds	r1, r2, r1
   29554:	8021      	strh	r1, [r4, #0]
   29556:	3008      	adds	r0, #8
   29558:	9908      	ldr	r1, [sp, #32]
   2955a:	6e09      	ldr	r1, [r1, #96]	@ 0x60
   2955c:	4b11      	ldr	r3, [pc, #68]	@ (295a4 <_start+0x18a8>)
   2955e:	446b      	add	r3, sp
   29560:	930b      	str	r3, [sp, #44]	@ 0x2c
   29562:	c864      	ldmia	r0!, {r2, r5, r6}
   29564:	c364      	stmia	r3!, {r2, r5, r6}
   29566:	c864      	ldmia	r0!, {r2, r5, r6}
   29568:	c364      	stmia	r3!, {r2, r5, r6}
   2956a:	c864      	ldmia	r0!, {r2, r5, r6}
   2956c:	c364      	stmia	r3!, {r2, r5, r6}
   2956e:	0e08      	lsrs	r0, r1, #24
   29570:	71a0      	strb	r0, [r4, #6]
   29572:	0c08      	lsrs	r0, r1, #16
   29574:	7160      	strb	r0, [r4, #5]
   29576:	0a08      	lsrs	r0, r1, #8
   29578:	7120      	strb	r0, [r4, #4]
   2957a:	70e1      	strb	r1, [r4, #3]
   2957c:	1de0      	adds	r0, r4, #7
   2957e:	2224      	movs	r2, #36	@ 0x24
   29580:	990b      	ldr	r1, [sp, #44]	@ 0x2c
   29582:	f001 fdbf 	bl	2b104 <__aeabi_memcpy>
   29586:	4d05      	ldr	r5, [pc, #20]	@ (2959c <_start+0x18a0>)
   29588:	446d      	add	r5, sp
   2958a:	4628      	mov	r0, r5
   2958c:	4621      	mov	r1, r4
   2958e:	f7f9 f825 	bl	225dc <_ZN20complex_dynamic_type3app17h548c8333cd80ee16E>
   29592:	7828      	ldrb	r0, [r5, #0]
   29594:	2801      	cmp	r0, #1
   29596:	d107      	bne.n	295a8 <_start+0x18ac>
   29598:	f001 fb9e 	bl	2acd8 <_start+0x2fdc>
   2959c:	00001404 	.word	0x00001404
   295a0:	0000073c 	.word	0x0000073c
   295a4:	000013a8 	.word	0x000013a8
   295a8:	4817      	ldr	r0, [pc, #92]	@ (29608 <_start+0x190c>)
   295aa:	4468      	add	r0, sp
   295ac:	78c1      	ldrb	r1, [r0, #3]
   295ae:	4c17      	ldr	r4, [pc, #92]	@ (2960c <_start+0x1910>)
   295b0:	446c      	add	r4, sp
   295b2:	70a1      	strb	r1, [r4, #2]
   295b4:	7841      	ldrb	r1, [r0, #1]
   295b6:	7882      	ldrb	r2, [r0, #2]
   295b8:	0212      	lsls	r2, r2, #8
   295ba:	1851      	adds	r1, r2, r1
   295bc:	8021      	strh	r1, [r4, #0]
   295be:	3008      	adds	r0, #8
   295c0:	9908      	ldr	r1, [sp, #32]
   295c2:	6e09      	ldr	r1, [r1, #96]	@ 0x60
   295c4:	4b12      	ldr	r3, [pc, #72]	@ (29610 <_start+0x1914>)
   295c6:	446b      	add	r3, sp
   295c8:	930b      	str	r3, [sp, #44]	@ 0x2c
   295ca:	c860      	ldmia	r0!, {r5, r6}
   295cc:	c360      	stmia	r3!, {r5, r6}
   295ce:	c864      	ldmia	r0!, {r2, r5, r6}
   295d0:	c364      	stmia	r3!, {r2, r5, r6}
   295d2:	8802      	ldrh	r2, [r0, #0]
   295d4:	801a      	strh	r2, [r3, #0]
   295d6:	7880      	ldrb	r0, [r0, #2]
   295d8:	7098      	strb	r0, [r3, #2]
   295da:	0e08      	lsrs	r0, r1, #24
   295dc:	71a0      	strb	r0, [r4, #6]
   295de:	0c08      	lsrs	r0, r1, #16
   295e0:	7160      	strb	r0, [r4, #5]
   295e2:	0a08      	lsrs	r0, r1, #8
   295e4:	7120      	strb	r0, [r4, #4]
   295e6:	70e1      	strb	r1, [r4, #3]
   295e8:	1de0      	adds	r0, r4, #7
   295ea:	2217      	movs	r2, #23
   295ec:	990b      	ldr	r1, [sp, #44]	@ 0x2c
   295ee:	f001 fd89 	bl	2b104 <__aeabi_memcpy>
   295f2:	4d05      	ldr	r5, [pc, #20]	@ (29608 <_start+0x190c>)
   295f4:	446d      	add	r5, sp
   295f6:	4628      	mov	r0, r5
   295f8:	4621      	mov	r1, r4
   295fa:	f7fe f833 	bl	27664 <_ZN20complex_dynamic_type3app17hf1228079c3e9d9d1E>
   295fe:	7828      	ldrb	r0, [r5, #0]
   29600:	2801      	cmp	r0, #1
   29602:	d107      	bne.n	29614 <_start+0x1918>
   29604:	f001 fb68 	bl	2acd8 <_start+0x2fdc>
   29608:	00001404 	.word	0x00001404
   2960c:	00000768 	.word	0x00000768
   29610:	000013a8 	.word	0x000013a8
   29614:	4915      	ldr	r1, [pc, #84]	@ (2966c <_start+0x1970>)
   29616:	4469      	add	r1, sp
   29618:	78c8      	ldrb	r0, [r1, #3]
   2961a:	4c15      	ldr	r4, [pc, #84]	@ (29670 <_start+0x1974>)
   2961c:	446c      	add	r4, sp
   2961e:	70a0      	strb	r0, [r4, #2]
   29620:	7848      	ldrb	r0, [r1, #1]
   29622:	788a      	ldrb	r2, [r1, #2]
   29624:	0212      	lsls	r2, r2, #8
   29626:	1810      	adds	r0, r2, r0
   29628:	8020      	strh	r0, [r4, #0]
   2962a:	9808      	ldr	r0, [sp, #32]
   2962c:	6e05      	ldr	r5, [r0, #96]	@ 0x60
   2962e:	3108      	adds	r1, #8
   29630:	4810      	ldr	r0, [pc, #64]	@ (29674 <_start+0x1978>)
   29632:	4468      	add	r0, sp
   29634:	900b      	str	r0, [sp, #44]	@ 0x2c
   29636:	264a      	movs	r6, #74	@ 0x4a
   29638:	4632      	mov	r2, r6
   2963a:	f001 fc03 	bl	2ae44 <__aeabi_memcpy4>
   2963e:	0e28      	lsrs	r0, r5, #24
   29640:	71a0      	strb	r0, [r4, #6]
   29642:	0c28      	lsrs	r0, r5, #16
   29644:	7160      	strb	r0, [r4, #5]
   29646:	0a28      	lsrs	r0, r5, #8
   29648:	7120      	strb	r0, [r4, #4]
   2964a:	70e5      	strb	r5, [r4, #3]
   2964c:	1de0      	adds	r0, r4, #7
   2964e:	990b      	ldr	r1, [sp, #44]	@ 0x2c
   29650:	4632      	mov	r2, r6
   29652:	f001 fd57 	bl	2b104 <__aeabi_memcpy>
   29656:	4d05      	ldr	r5, [pc, #20]	@ (2966c <_start+0x1970>)
   29658:	446d      	add	r5, sp
   2965a:	4628      	mov	r0, r5
   2965c:	4621      	mov	r1, r4
   2965e:	f7fa fba7 	bl	23db0 <_ZN20complex_dynamic_type3app17h8930452fe4e2a3a0E>
   29662:	7828      	ldrb	r0, [r5, #0]
   29664:	2801      	cmp	r0, #1
   29666:	d107      	bne.n	29678 <_start+0x197c>
   29668:	f001 fb36 	bl	2acd8 <_start+0x2fdc>
   2966c:	00001404 	.word	0x00001404
   29670:	00000788 	.word	0x00000788
   29674:	000013a8 	.word	0x000013a8
   29678:	9804      	ldr	r0, [sp, #16]
   2967a:	1cc0      	adds	r0, r0, #3
   2967c:	4a16      	ldr	r2, [pc, #88]	@ (296d8 <_start+0x19dc>)
   2967e:	446a      	add	r2, sp
   29680:	78d3      	ldrb	r3, [r2, #3]
   29682:	4916      	ldr	r1, [pc, #88]	@ (296dc <_start+0x19e0>)
   29684:	4469      	add	r1, sp
   29686:	708b      	strb	r3, [r1, #2]
   29688:	7853      	ldrb	r3, [r2, #1]
   2968a:	7892      	ldrb	r2, [r2, #2]
   2968c:	0212      	lsls	r2, r2, #8
   2968e:	18d2      	adds	r2, r2, r3
   29690:	800a      	strh	r2, [r1, #0]
   29692:	9c08      	ldr	r4, [sp, #32]
   29694:	3460      	adds	r4, #96	@ 0x60
   29696:	cc1c      	ldmia	r4, {r2, r3, r4}
   29698:	0e25      	lsrs	r5, r4, #24
   2969a:	72c5      	strb	r5, [r0, #11]
   2969c:	0c25      	lsrs	r5, r4, #16
   2969e:	7285      	strb	r5, [r0, #10]
   296a0:	0a25      	lsrs	r5, r4, #8
   296a2:	7245      	strb	r5, [r0, #9]
   296a4:	7204      	strb	r4, [r0, #8]
   296a6:	0e1c      	lsrs	r4, r3, #24
   296a8:	71c4      	strb	r4, [r0, #7]
   296aa:	0c1c      	lsrs	r4, r3, #16
   296ac:	7184      	strb	r4, [r0, #6]
   296ae:	0a1c      	lsrs	r4, r3, #8
   296b0:	7144      	strb	r4, [r0, #5]
   296b2:	7103      	strb	r3, [r0, #4]
   296b4:	0e13      	lsrs	r3, r2, #24
   296b6:	70c3      	strb	r3, [r0, #3]
   296b8:	0c13      	lsrs	r3, r2, #16
   296ba:	7083      	strb	r3, [r0, #2]
   296bc:	0a13      	lsrs	r3, r2, #8
   296be:	7043      	strb	r3, [r0, #1]
   296c0:	7002      	strb	r2, [r0, #0]
   296c2:	4c05      	ldr	r4, [pc, #20]	@ (296d8 <_start+0x19dc>)
   296c4:	446c      	add	r4, sp
   296c6:	4620      	mov	r0, r4
   296c8:	f7f9 fe26 	bl	23318 <_ZN20complex_dynamic_type3app17h67253825b67f64c2E>
   296cc:	7820      	ldrb	r0, [r4, #0]
   296ce:	2801      	cmp	r0, #1
   296d0:	d106      	bne.n	296e0 <_start+0x19e4>
   296d2:	f001 fb01 	bl	2acd8 <_start+0x2fdc>
   296d6:	46c0      	nop			@ (mov r8, r8)
   296d8:	00001404 	.word	0x00001404
   296dc:	000007dc 	.word	0x000007dc
   296e0:	481a      	ldr	r0, [pc, #104]	@ (2974c <_start+0x1a50>)
   296e2:	4468      	add	r0, sp
   296e4:	78c1      	ldrb	r1, [r0, #3]
   296e6:	4c1a      	ldr	r4, [pc, #104]	@ (29750 <_start+0x1a54>)
   296e8:	446c      	add	r4, sp
   296ea:	70a1      	strb	r1, [r4, #2]
   296ec:	7841      	ldrb	r1, [r0, #1]
   296ee:	7882      	ldrb	r2, [r0, #2]
   296f0:	0212      	lsls	r2, r2, #8
   296f2:	1851      	adds	r1, r2, r1
   296f4:	8021      	strh	r1, [r4, #0]
   296f6:	3008      	adds	r0, #8
   296f8:	9908      	ldr	r1, [sp, #32]
   296fa:	6e09      	ldr	r1, [r1, #96]	@ 0x60
   296fc:	910a      	str	r1, [sp, #40]	@ 0x28
   296fe:	4b15      	ldr	r3, [pc, #84]	@ (29754 <_start+0x1a58>)
   29700:	446b      	add	r3, sp
   29702:	930b      	str	r3, [sp, #44]	@ 0x2c
   29704:	c864      	ldmia	r0!, {r2, r5, r6}
   29706:	c364      	stmia	r3!, {r2, r5, r6}
   29708:	c866      	ldmia	r0!, {r1, r2, r5, r6}
   2970a:	c366      	stmia	r3!, {r1, r2, r5, r6}
   2970c:	c866      	ldmia	r0!, {r1, r2, r5, r6}
   2970e:	c366      	stmia	r3!, {r1, r2, r5, r6}
   29710:	c866      	ldmia	r0!, {r1, r2, r5, r6}
   29712:	c366      	stmia	r3!, {r1, r2, r5, r6}
   29714:	8801      	ldrh	r1, [r0, #0]
   29716:	8019      	strh	r1, [r3, #0]
   29718:	7880      	ldrb	r0, [r0, #2]
   2971a:	7098      	strb	r0, [r3, #2]
   2971c:	990a      	ldr	r1, [sp, #40]	@ 0x28
   2971e:	0e08      	lsrs	r0, r1, #24
   29720:	71a0      	strb	r0, [r4, #6]
   29722:	0c08      	lsrs	r0, r1, #16
   29724:	7160      	strb	r0, [r4, #5]
   29726:	0a08      	lsrs	r0, r1, #8
   29728:	7120      	strb	r0, [r4, #4]
   2972a:	70e1      	strb	r1, [r4, #3]
   2972c:	1de0      	adds	r0, r4, #7
   2972e:	223f      	movs	r2, #63	@ 0x3f
   29730:	990b      	ldr	r1, [sp, #44]	@ 0x2c
   29732:	f001 fce7 	bl	2b104 <__aeabi_memcpy>
   29736:	4d05      	ldr	r5, [pc, #20]	@ (2974c <_start+0x1a50>)
   29738:	446d      	add	r5, sp
   2973a:	4628      	mov	r0, r5
   2973c:	4621      	mov	r1, r4
   2973e:	f7fc fda9 	bl	26294 <_ZN20complex_dynamic_type3app17hd0ecccbb0931b8efE>
   29742:	7828      	ldrb	r0, [r5, #0]
   29744:	2801      	cmp	r0, #1
   29746:	d107      	bne.n	29758 <_start+0x1a5c>
   29748:	f001 fac6 	bl	2acd8 <_start+0x2fdc>
   2974c:	00001404 	.word	0x00001404
   29750:	000007ec 	.word	0x000007ec
   29754:	000013a8 	.word	0x000013a8
   29758:	4915      	ldr	r1, [pc, #84]	@ (297b0 <_start+0x1ab4>)
   2975a:	4469      	add	r1, sp
   2975c:	78c8      	ldrb	r0, [r1, #3]
   2975e:	4c15      	ldr	r4, [pc, #84]	@ (297b4 <_start+0x1ab8>)
   29760:	446c      	add	r4, sp
   29762:	70a0      	strb	r0, [r4, #2]
   29764:	7848      	ldrb	r0, [r1, #1]
   29766:	788a      	ldrb	r2, [r1, #2]
   29768:	0212      	lsls	r2, r2, #8
   2976a:	1810      	adds	r0, r2, r0
   2976c:	8020      	strh	r0, [r4, #0]
   2976e:	9808      	ldr	r0, [sp, #32]
   29770:	6e05      	ldr	r5, [r0, #96]	@ 0x60
   29772:	3108      	adds	r1, #8
   29774:	4810      	ldr	r0, [pc, #64]	@ (297b8 <_start+0x1abc>)
   29776:	4468      	add	r0, sp
   29778:	900b      	str	r0, [sp, #44]	@ 0x2c
   2977a:	264f      	movs	r6, #79	@ 0x4f
   2977c:	4632      	mov	r2, r6
   2977e:	f001 fb61 	bl	2ae44 <__aeabi_memcpy4>
   29782:	0e28      	lsrs	r0, r5, #24
   29784:	71a0      	strb	r0, [r4, #6]
   29786:	0c28      	lsrs	r0, r5, #16
   29788:	7160      	strb	r0, [r4, #5]
   2978a:	0a28      	lsrs	r0, r5, #8
   2978c:	7120      	strb	r0, [r4, #4]
   2978e:	70e5      	strb	r5, [r4, #3]
   29790:	1de0      	adds	r0, r4, #7
   29792:	990b      	ldr	r1, [sp, #44]	@ 0x2c
   29794:	4632      	mov	r2, r6
   29796:	f001 fcb5 	bl	2b104 <__aeabi_memcpy>
   2979a:	4d05      	ldr	r5, [pc, #20]	@ (297b0 <_start+0x1ab4>)
   2979c:	446d      	add	r5, sp
   2979e:	4628      	mov	r0, r5
   297a0:	4621      	mov	r1, r4
   297a2:	f7f7 f941 	bl	20a28 <_ZN20complex_dynamic_type3app17h0aa0a75be210833bE>
   297a6:	7828      	ldrb	r0, [r5, #0]
   297a8:	2801      	cmp	r0, #1
   297aa:	d107      	bne.n	297bc <_start+0x1ac0>
   297ac:	f001 fa94 	bl	2acd8 <_start+0x2fdc>
   297b0:	00001404 	.word	0x00001404
   297b4:	00000834 	.word	0x00000834
   297b8:	000013a8 	.word	0x000013a8
   297bc:	4915      	ldr	r1, [pc, #84]	@ (29814 <_start+0x1b18>)
   297be:	4469      	add	r1, sp
   297c0:	78c8      	ldrb	r0, [r1, #3]
   297c2:	4c15      	ldr	r4, [pc, #84]	@ (29818 <_start+0x1b1c>)
   297c4:	446c      	add	r4, sp
   297c6:	70a0      	strb	r0, [r4, #2]
   297c8:	7848      	ldrb	r0, [r1, #1]
   297ca:	788a      	ldrb	r2, [r1, #2]
   297cc:	0212      	lsls	r2, r2, #8
   297ce:	1810      	adds	r0, r2, r0
   297d0:	8020      	strh	r0, [r4, #0]
   297d2:	9808      	ldr	r0, [sp, #32]
   297d4:	6e05      	ldr	r5, [r0, #96]	@ 0x60
   297d6:	3108      	adds	r1, #8
   297d8:	4810      	ldr	r0, [pc, #64]	@ (2981c <_start+0x1b20>)
   297da:	4468      	add	r0, sp
   297dc:	900b      	str	r0, [sp, #44]	@ 0x2c
   297de:	2642      	movs	r6, #66	@ 0x42
   297e0:	4632      	mov	r2, r6
   297e2:	f001 fb2f 	bl	2ae44 <__aeabi_memcpy4>
   297e6:	0e28      	lsrs	r0, r5, #24
   297e8:	71a0      	strb	r0, [r4, #6]
   297ea:	0c28      	lsrs	r0, r5, #16
   297ec:	7160      	strb	r0, [r4, #5]
   297ee:	0a28      	lsrs	r0, r5, #8
   297f0:	7120      	strb	r0, [r4, #4]
   297f2:	70e5      	strb	r5, [r4, #3]
   297f4:	1de0      	adds	r0, r4, #7
   297f6:	990b      	ldr	r1, [sp, #44]	@ 0x2c
   297f8:	4632      	mov	r2, r6
   297fa:	f001 fc83 	bl	2b104 <__aeabi_memcpy>
   297fe:	4d05      	ldr	r5, [pc, #20]	@ (29814 <_start+0x1b18>)
   29800:	446d      	add	r5, sp
   29802:	4628      	mov	r0, r5
   29804:	4621      	mov	r1, r4
   29806:	f7fd fdd9 	bl	273bc <_ZN20complex_dynamic_type3app17he7f03e0dea92096cE>
   2980a:	7828      	ldrb	r0, [r5, #0]
   2980c:	2801      	cmp	r0, #1
   2980e:	d107      	bne.n	29820 <_start+0x1b24>
   29810:	f001 fa62 	bl	2acd8 <_start+0x2fdc>
   29814:	00001404 	.word	0x00001404
   29818:	0000088c 	.word	0x0000088c
   2981c:	000013a8 	.word	0x000013a8
   29820:	4816      	ldr	r0, [pc, #88]	@ (2987c <_start+0x1b80>)
   29822:	4468      	add	r0, sp
   29824:	78c1      	ldrb	r1, [r0, #3]
   29826:	4c16      	ldr	r4, [pc, #88]	@ (29880 <_start+0x1b84>)
   29828:	446c      	add	r4, sp
   2982a:	70a1      	strb	r1, [r4, #2]
   2982c:	7841      	ldrb	r1, [r0, #1]
   2982e:	7882      	ldrb	r2, [r0, #2]
   29830:	0212      	lsls	r2, r2, #8
   29832:	1851      	adds	r1, r2, r1
   29834:	8021      	strh	r1, [r4, #0]
   29836:	3008      	adds	r0, #8
   29838:	9908      	ldr	r1, [sp, #32]
   2983a:	6e09      	ldr	r1, [r1, #96]	@ 0x60
   2983c:	910a      	str	r1, [sp, #40]	@ 0x28
   2983e:	4b11      	ldr	r3, [pc, #68]	@ (29884 <_start+0x1b88>)
   29840:	446b      	add	r3, sp
   29842:	930b      	str	r3, [sp, #44]	@ 0x2c
   29844:	c864      	ldmia	r0!, {r2, r5, r6}
   29846:	c364      	stmia	r3!, {r2, r5, r6}
   29848:	c866      	ldmia	r0!, {r1, r2, r5, r6}
   2984a:	c366      	stmia	r3!, {r1, r2, r5, r6}
   2984c:	990a      	ldr	r1, [sp, #40]	@ 0x28
   2984e:	0e08      	lsrs	r0, r1, #24
   29850:	71a0      	strb	r0, [r4, #6]
   29852:	0c08      	lsrs	r0, r1, #16
   29854:	7160      	strb	r0, [r4, #5]
   29856:	0a08      	lsrs	r0, r1, #8
   29858:	7120      	strb	r0, [r4, #4]
   2985a:	70e1      	strb	r1, [r4, #3]
   2985c:	1de0      	adds	r0, r4, #7
   2985e:	221c      	movs	r2, #28
   29860:	990b      	ldr	r1, [sp, #44]	@ 0x2c
   29862:	f001 fc4f 	bl	2b104 <__aeabi_memcpy>
   29866:	4d05      	ldr	r5, [pc, #20]	@ (2987c <_start+0x1b80>)
   29868:	446d      	add	r5, sp
   2986a:	4628      	mov	r0, r5
   2986c:	4621      	mov	r1, r4
   2986e:	f7fb fb27 	bl	24ec0 <_ZN20complex_dynamic_type3app17h9f5d75a0db084ebcE>
   29872:	7828      	ldrb	r0, [r5, #0]
   29874:	2801      	cmp	r0, #1
   29876:	d107      	bne.n	29888 <_start+0x1b8c>
   29878:	f001 fa2e 	bl	2acd8 <_start+0x2fdc>
   2987c:	00001404 	.word	0x00001404
   29880:	000008d8 	.word	0x000008d8
   29884:	000013a8 	.word	0x000013a8
   29888:	4816      	ldr	r0, [pc, #88]	@ (298e4 <_start+0x1be8>)
   2988a:	4468      	add	r0, sp
   2988c:	78c1      	ldrb	r1, [r0, #3]
   2988e:	4c16      	ldr	r4, [pc, #88]	@ (298e8 <_start+0x1bec>)
   29890:	446c      	add	r4, sp
   29892:	70a1      	strb	r1, [r4, #2]
   29894:	7841      	ldrb	r1, [r0, #1]
   29896:	7882      	ldrb	r2, [r0, #2]
   29898:	0212      	lsls	r2, r2, #8
   2989a:	1851      	adds	r1, r2, r1
   2989c:	8021      	strh	r1, [r4, #0]
   2989e:	3008      	adds	r0, #8
   298a0:	9908      	ldr	r1, [sp, #32]
   298a2:	6e09      	ldr	r1, [r1, #96]	@ 0x60
   298a4:	4b11      	ldr	r3, [pc, #68]	@ (298ec <_start+0x1bf0>)
   298a6:	446b      	add	r3, sp
   298a8:	930b      	str	r3, [sp, #44]	@ 0x2c
   298aa:	c864      	ldmia	r0!, {r2, r5, r6}
   298ac:	c364      	stmia	r3!, {r2, r5, r6}
   298ae:	c864      	ldmia	r0!, {r2, r5, r6}
   298b0:	c364      	stmia	r3!, {r2, r5, r6}
   298b2:	c864      	ldmia	r0!, {r2, r5, r6}
   298b4:	c364      	stmia	r3!, {r2, r5, r6}
   298b6:	0e08      	lsrs	r0, r1, #24
   298b8:	71a0      	strb	r0, [r4, #6]
   298ba:	0c08      	lsrs	r0, r1, #16
   298bc:	7160      	strb	r0, [r4, #5]
   298be:	0a08      	lsrs	r0, r1, #8
   298c0:	7120      	strb	r0, [r4, #4]
   298c2:	70e1      	strb	r1, [r4, #3]
   298c4:	1de0      	adds	r0, r4, #7
   298c6:	2224      	movs	r2, #36	@ 0x24
   298c8:	990b      	ldr	r1, [sp, #44]	@ 0x2c
   298ca:	f001 fc1b 	bl	2b104 <__aeabi_memcpy>
   298ce:	4d05      	ldr	r5, [pc, #20]	@ (298e4 <_start+0x1be8>)
   298d0:	446d      	add	r5, sp
   298d2:	4628      	mov	r0, r5
   298d4:	4621      	mov	r1, r4
   298d6:	f7f9 fe73 	bl	235c0 <_ZN20complex_dynamic_type3app17h789b6cb9ec1cbcaeE>
   298da:	7828      	ldrb	r0, [r5, #0]
   298dc:	2801      	cmp	r0, #1
   298de:	d107      	bne.n	298f0 <_start+0x1bf4>
   298e0:	f001 f9fa 	bl	2acd8 <_start+0x2fdc>
   298e4:	00001404 	.word	0x00001404
   298e8:	000008fc 	.word	0x000008fc
   298ec:	000013a8 	.word	0x000013a8
   298f0:	4914      	ldr	r1, [pc, #80]	@ (29944 <_start+0x1c48>)
   298f2:	4469      	add	r1, sp
   298f4:	9b08      	ldr	r3, [sp, #32]
   298f6:	6e98      	ldr	r0, [r3, #104]	@ 0x68
   298f8:	8088      	strh	r0, [r1, #4]
   298fa:	4813      	ldr	r0, [pc, #76]	@ (29948 <_start+0x1c4c>)
   298fc:	4468      	add	r0, sp
   298fe:	78c2      	ldrb	r2, [r0, #3]
   29900:	4c12      	ldr	r4, [pc, #72]	@ (2994c <_start+0x1c50>)
   29902:	446c      	add	r4, sp
   29904:	70a2      	strb	r2, [r4, #2]
   29906:	7842      	ldrb	r2, [r0, #1]
   29908:	7880      	ldrb	r0, [r0, #2]
   2990a:	0200      	lsls	r0, r0, #8
   2990c:	1880      	adds	r0, r0, r2
   2990e:	8020      	strh	r0, [r4, #0]
   29910:	6e18      	ldr	r0, [r3, #96]	@ 0x60
   29912:	70e0      	strb	r0, [r4, #3]
   29914:	0e02      	lsrs	r2, r0, #24
   29916:	71a2      	strb	r2, [r4, #6]
   29918:	0c02      	lsrs	r2, r0, #16
   2991a:	7162      	strb	r2, [r4, #5]
   2991c:	0a00      	lsrs	r0, r0, #8
   2991e:	7120      	strb	r0, [r4, #4]
   29920:	6e58      	ldr	r0, [r3, #100]	@ 0x64
   29922:	6018      	str	r0, [r3, #0]
   29924:	1de0      	adds	r0, r4, #7
   29926:	2206      	movs	r2, #6
   29928:	f001 fbec 	bl	2b104 <__aeabi_memcpy>
   2992c:	4d06      	ldr	r5, [pc, #24]	@ (29948 <_start+0x1c4c>)
   2992e:	446d      	add	r5, sp
   29930:	4628      	mov	r0, r5
   29932:	4621      	mov	r1, r4
   29934:	f7fa fae4 	bl	23f00 <_ZN20complex_dynamic_type3app17h898d237385fc1c64E>
   29938:	7828      	ldrb	r0, [r5, #0]
   2993a:	2801      	cmp	r0, #1
   2993c:	d108      	bne.n	29950 <_start+0x1c54>
   2993e:	f001 f9cb 	bl	2acd8 <_start+0x2fdc>
   29942:	46c0      	nop			@ (mov r8, r8)
   29944:	000013a8 	.word	0x000013a8
   29948:	00001404 	.word	0x00001404
   2994c:	00000928 	.word	0x00000928
   29950:	4816      	ldr	r0, [pc, #88]	@ (299ac <_start+0x1cb0>)
   29952:	4468      	add	r0, sp
   29954:	78c1      	ldrb	r1, [r0, #3]
   29956:	4c16      	ldr	r4, [pc, #88]	@ (299b0 <_start+0x1cb4>)
   29958:	446c      	add	r4, sp
   2995a:	70a1      	strb	r1, [r4, #2]
   2995c:	7841      	ldrb	r1, [r0, #1]
   2995e:	7882      	ldrb	r2, [r0, #2]
   29960:	0212      	lsls	r2, r2, #8
   29962:	1851      	adds	r1, r2, r1
   29964:	8021      	strh	r1, [r4, #0]
   29966:	3008      	adds	r0, #8
   29968:	9908      	ldr	r1, [sp, #32]
   2996a:	6e09      	ldr	r1, [r1, #96]	@ 0x60
   2996c:	4b11      	ldr	r3, [pc, #68]	@ (299b4 <_start+0x1cb8>)
   2996e:	446b      	add	r3, sp
   29970:	930b      	str	r3, [sp, #44]	@ 0x2c
   29972:	c864      	ldmia	r0!, {r2, r5, r6}
   29974:	c364      	stmia	r3!, {r2, r5, r6}
   29976:	c864      	ldmia	r0!, {r2, r5, r6}
   29978:	c364      	stmia	r3!, {r2, r5, r6}
   2997a:	8800      	ldrh	r0, [r0, #0]
   2997c:	8018      	strh	r0, [r3, #0]
   2997e:	0e08      	lsrs	r0, r1, #24
   29980:	71a0      	strb	r0, [r4, #6]
   29982:	0c08      	lsrs	r0, r1, #16
   29984:	7160      	strb	r0, [r4, #5]
   29986:	0a08      	lsrs	r0, r1, #8
   29988:	7120      	strb	r0, [r4, #4]
   2998a:	70e1      	strb	r1, [r4, #3]
   2998c:	1de0      	adds	r0, r4, #7
   2998e:	221a      	movs	r2, #26
   29990:	990b      	ldr	r1, [sp, #44]	@ 0x2c
   29992:	f001 fbb7 	bl	2b104 <__aeabi_memcpy>
   29996:	4d05      	ldr	r5, [pc, #20]	@ (299ac <_start+0x1cb0>)
   29998:	446d      	add	r5, sp
   2999a:	4628      	mov	r0, r5
   2999c:	4621      	mov	r1, r4
   2999e:	f7f7 fcdf 	bl	21360 <_ZN20complex_dynamic_type3app17h20f7842a58b95296E>
   299a2:	7828      	ldrb	r0, [r5, #0]
   299a4:	2801      	cmp	r0, #1
   299a6:	d107      	bne.n	299b8 <_start+0x1cbc>
   299a8:	f001 f996 	bl	2acd8 <_start+0x2fdc>
   299ac:	00001404 	.word	0x00001404
   299b0:	00000938 	.word	0x00000938
   299b4:	000013a8 	.word	0x000013a8
   299b8:	4915      	ldr	r1, [pc, #84]	@ (29a10 <_start+0x1d14>)
   299ba:	4469      	add	r1, sp
   299bc:	78c8      	ldrb	r0, [r1, #3]
   299be:	4c15      	ldr	r4, [pc, #84]	@ (29a14 <_start+0x1d18>)
   299c0:	446c      	add	r4, sp
   299c2:	70a0      	strb	r0, [r4, #2]
   299c4:	7848      	ldrb	r0, [r1, #1]
   299c6:	788a      	ldrb	r2, [r1, #2]
   299c8:	0212      	lsls	r2, r2, #8
   299ca:	1810      	adds	r0, r2, r0
   299cc:	8020      	strh	r0, [r4, #0]
   299ce:	9808      	ldr	r0, [sp, #32]
   299d0:	6e05      	ldr	r5, [r0, #96]	@ 0x60
   299d2:	3108      	adds	r1, #8
   299d4:	4810      	ldr	r0, [pc, #64]	@ (29a18 <_start+0x1d1c>)
   299d6:	4468      	add	r0, sp
   299d8:	900b      	str	r0, [sp, #44]	@ 0x2c
   299da:	264c      	movs	r6, #76	@ 0x4c
   299dc:	4632      	mov	r2, r6
   299de:	f001 fa31 	bl	2ae44 <__aeabi_memcpy4>
   299e2:	0e28      	lsrs	r0, r5, #24
   299e4:	71a0      	strb	r0, [r4, #6]
   299e6:	0c28      	lsrs	r0, r5, #16
   299e8:	7160      	strb	r0, [r4, #5]
   299ea:	0a28      	lsrs	r0, r5, #8
   299ec:	7120      	strb	r0, [r4, #4]
   299ee:	70e5      	strb	r5, [r4, #3]
   299f0:	1de0      	adds	r0, r4, #7
   299f2:	990b      	ldr	r1, [sp, #44]	@ 0x2c
   299f4:	4632      	mov	r2, r6
   299f6:	f001 fb85 	bl	2b104 <__aeabi_memcpy>
   299fa:	4d05      	ldr	r5, [pc, #20]	@ (29a10 <_start+0x1d14>)
   299fc:	446d      	add	r5, sp
   299fe:	4628      	mov	r0, r5
   29a00:	4621      	mov	r1, r4
   29a02:	f7fb fbb5 	bl	25170 <_ZN20complex_dynamic_type3app17ha3ce99f0ef2f35d5E>
   29a06:	7828      	ldrb	r0, [r5, #0]
   29a08:	2801      	cmp	r0, #1
   29a0a:	d107      	bne.n	29a1c <_start+0x1d20>
   29a0c:	f001 f964 	bl	2acd8 <_start+0x2fdc>
   29a10:	00001404 	.word	0x00001404
   29a14:	0000095c 	.word	0x0000095c
   29a18:	000013a8 	.word	0x000013a8
   29a1c:	4915      	ldr	r1, [pc, #84]	@ (29a74 <_start+0x1d78>)
   29a1e:	4469      	add	r1, sp
   29a20:	78c8      	ldrb	r0, [r1, #3]
   29a22:	4c15      	ldr	r4, [pc, #84]	@ (29a78 <_start+0x1d7c>)
   29a24:	446c      	add	r4, sp
   29a26:	70a0      	strb	r0, [r4, #2]
   29a28:	7848      	ldrb	r0, [r1, #1]
   29a2a:	788a      	ldrb	r2, [r1, #2]
   29a2c:	0212      	lsls	r2, r2, #8
   29a2e:	1810      	adds	r0, r2, r0
   29a30:	8020      	strh	r0, [r4, #0]
   29a32:	9808      	ldr	r0, [sp, #32]
   29a34:	6e05      	ldr	r5, [r0, #96]	@ 0x60
   29a36:	3108      	adds	r1, #8
   29a38:	4810      	ldr	r0, [pc, #64]	@ (29a7c <_start+0x1d80>)
   29a3a:	4468      	add	r0, sp
   29a3c:	900b      	str	r0, [sp, #44]	@ 0x2c
   29a3e:	2646      	movs	r6, #70	@ 0x46
   29a40:	4632      	mov	r2, r6
   29a42:	f001 f9ff 	bl	2ae44 <__aeabi_memcpy4>
   29a46:	0e28      	lsrs	r0, r5, #24
   29a48:	71a0      	strb	r0, [r4, #6]
   29a4a:	0c28      	lsrs	r0, r5, #16
   29a4c:	7160      	strb	r0, [r4, #5]
   29a4e:	0a28      	lsrs	r0, r5, #8
   29a50:	7120      	strb	r0, [r4, #4]
   29a52:	70e5      	strb	r5, [r4, #3]
   29a54:	1de0      	adds	r0, r4, #7
   29a56:	990b      	ldr	r1, [sp, #44]	@ 0x2c
   29a58:	4632      	mov	r2, r6
   29a5a:	f001 fb53 	bl	2b104 <__aeabi_memcpy>
   29a5e:	4d05      	ldr	r5, [pc, #20]	@ (29a74 <_start+0x1d78>)
   29a60:	446d      	add	r5, sp
   29a62:	4628      	mov	r0, r5
   29a64:	4621      	mov	r1, r4
   29a66:	f7fd f809 	bl	26a7c <_ZN20complex_dynamic_type3app17hd8fbac15ddee410cE>
   29a6a:	7828      	ldrb	r0, [r5, #0]
   29a6c:	2801      	cmp	r0, #1
   29a6e:	d107      	bne.n	29a80 <_start+0x1d84>
   29a70:	f001 f932 	bl	2acd8 <_start+0x2fdc>
   29a74:	00001404 	.word	0x00001404
   29a78:	000009b0 	.word	0x000009b0
   29a7c:	000013a8 	.word	0x000013a8
   29a80:	4819      	ldr	r0, [pc, #100]	@ (29ae8 <_start+0x1dec>)
   29a82:	4468      	add	r0, sp
   29a84:	78c1      	ldrb	r1, [r0, #3]
   29a86:	4c19      	ldr	r4, [pc, #100]	@ (29aec <_start+0x1df0>)
   29a88:	446c      	add	r4, sp
   29a8a:	70a1      	strb	r1, [r4, #2]
   29a8c:	7841      	ldrb	r1, [r0, #1]
   29a8e:	7882      	ldrb	r2, [r0, #2]
   29a90:	0212      	lsls	r2, r2, #8
   29a92:	1851      	adds	r1, r2, r1
   29a94:	8021      	strh	r1, [r4, #0]
   29a96:	3008      	adds	r0, #8
   29a98:	9908      	ldr	r1, [sp, #32]
   29a9a:	6e09      	ldr	r1, [r1, #96]	@ 0x60
   29a9c:	910a      	str	r1, [sp, #40]	@ 0x28
   29a9e:	4b14      	ldr	r3, [pc, #80]	@ (29af0 <_start+0x1df4>)
   29aa0:	446b      	add	r3, sp
   29aa2:	930b      	str	r3, [sp, #44]	@ 0x2c
   29aa4:	c864      	ldmia	r0!, {r2, r5, r6}
   29aa6:	c364      	stmia	r3!, {r2, r5, r6}
   29aa8:	c864      	ldmia	r0!, {r2, r5, r6}
   29aaa:	c364      	stmia	r3!, {r2, r5, r6}
   29aac:	c864      	ldmia	r0!, {r2, r5, r6}
   29aae:	c364      	stmia	r3!, {r2, r5, r6}
   29ab0:	c866      	ldmia	r0!, {r1, r2, r5, r6}
   29ab2:	c366      	stmia	r3!, {r1, r2, r5, r6}
   29ab4:	7800      	ldrb	r0, [r0, #0]
   29ab6:	7018      	strb	r0, [r3, #0]
   29ab8:	990a      	ldr	r1, [sp, #40]	@ 0x28
   29aba:	0e08      	lsrs	r0, r1, #24
   29abc:	71a0      	strb	r0, [r4, #6]
   29abe:	0c08      	lsrs	r0, r1, #16
   29ac0:	7160      	strb	r0, [r4, #5]
   29ac2:	0a08      	lsrs	r0, r1, #8
   29ac4:	7120      	strb	r0, [r4, #4]
   29ac6:	70e1      	strb	r1, [r4, #3]
   29ac8:	1de0      	adds	r0, r4, #7
   29aca:	2235      	movs	r2, #53	@ 0x35
   29acc:	990b      	ldr	r1, [sp, #44]	@ 0x2c
   29ace:	f001 fb19 	bl	2b104 <__aeabi_memcpy>
   29ad2:	4d05      	ldr	r5, [pc, #20]	@ (29ae8 <_start+0x1dec>)
   29ad4:	446d      	add	r5, sp
   29ad6:	4628      	mov	r0, r5
   29ad8:	4621      	mov	r1, r4
   29ada:	f7fb fc99 	bl	25410 <_ZN20complex_dynamic_type3app17hb400410a0d112acaE>
   29ade:	7828      	ldrb	r0, [r5, #0]
   29ae0:	2801      	cmp	r0, #1
   29ae2:	d107      	bne.n	29af4 <_start+0x1df8>
   29ae4:	f001 f8f8 	bl	2acd8 <_start+0x2fdc>
   29ae8:	00001404 	.word	0x00001404
   29aec:	00000a00 	.word	0x00000a00
   29af0:	000013a8 	.word	0x000013a8
   29af4:	4818      	ldr	r0, [pc, #96]	@ (29b58 <_start+0x1e5c>)
   29af6:	4468      	add	r0, sp
   29af8:	78c1      	ldrb	r1, [r0, #3]
   29afa:	4c18      	ldr	r4, [pc, #96]	@ (29b5c <_start+0x1e60>)
   29afc:	446c      	add	r4, sp
   29afe:	70a1      	strb	r1, [r4, #2]
   29b00:	7841      	ldrb	r1, [r0, #1]
   29b02:	7882      	ldrb	r2, [r0, #2]
   29b04:	0212      	lsls	r2, r2, #8
   29b06:	1851      	adds	r1, r2, r1
   29b08:	8021      	strh	r1, [r4, #0]
   29b0a:	3008      	adds	r0, #8
   29b0c:	9908      	ldr	r1, [sp, #32]
   29b0e:	6e09      	ldr	r1, [r1, #96]	@ 0x60
   29b10:	910a      	str	r1, [sp, #40]	@ 0x28
   29b12:	4b13      	ldr	r3, [pc, #76]	@ (29b60 <_start+0x1e64>)
   29b14:	446b      	add	r3, sp
   29b16:	930b      	str	r3, [sp, #44]	@ 0x2c
   29b18:	c866      	ldmia	r0!, {r1, r2, r5, r6}
   29b1a:	c366      	stmia	r3!, {r1, r2, r5, r6}
   29b1c:	c866      	ldmia	r0!, {r1, r2, r5, r6}
   29b1e:	c366      	stmia	r3!, {r1, r2, r5, r6}
   29b20:	c866      	ldmia	r0!, {r1, r2, r5, r6}
   29b22:	c366      	stmia	r3!, {r1, r2, r5, r6}
   29b24:	7800      	ldrb	r0, [r0, #0]
   29b26:	7018      	strb	r0, [r3, #0]
   29b28:	990a      	ldr	r1, [sp, #40]	@ 0x28
   29b2a:	0e08      	lsrs	r0, r1, #24
   29b2c:	71a0      	strb	r0, [r4, #6]
   29b2e:	0c08      	lsrs	r0, r1, #16
   29b30:	7160      	strb	r0, [r4, #5]
   29b32:	0a08      	lsrs	r0, r1, #8
   29b34:	7120      	strb	r0, [r4, #4]
   29b36:	70e1      	strb	r1, [r4, #3]
   29b38:	1de0      	adds	r0, r4, #7
   29b3a:	2231      	movs	r2, #49	@ 0x31
   29b3c:	990b      	ldr	r1, [sp, #44]	@ 0x2c
   29b3e:	f001 fae1 	bl	2b104 <__aeabi_memcpy>
   29b42:	4d05      	ldr	r5, [pc, #20]	@ (29b58 <_start+0x1e5c>)
   29b44:	446d      	add	r5, sp
   29b46:	4628      	mov	r0, r5
   29b48:	4621      	mov	r1, r4
   29b4a:	f7f6 fc1f 	bl	2038c <_ZN20complex_dynamic_type3app17h03d60e5dd578708bE>
   29b4e:	7828      	ldrb	r0, [r5, #0]
   29b50:	2801      	cmp	r0, #1
   29b52:	d107      	bne.n	29b64 <_start+0x1e68>
   29b54:	f001 f8c0 	bl	2acd8 <_start+0x2fdc>
   29b58:	00001404 	.word	0x00001404
   29b5c:	00000a3c 	.word	0x00000a3c
   29b60:	000013a8 	.word	0x000013a8
   29b64:	4816      	ldr	r0, [pc, #88]	@ (29bc0 <_start+0x1ec4>)
   29b66:	4468      	add	r0, sp
   29b68:	78c1      	ldrb	r1, [r0, #3]
   29b6a:	4c16      	ldr	r4, [pc, #88]	@ (29bc4 <_start+0x1ec8>)
   29b6c:	446c      	add	r4, sp
   29b6e:	70a1      	strb	r1, [r4, #2]
   29b70:	7841      	ldrb	r1, [r0, #1]
   29b72:	7882      	ldrb	r2, [r0, #2]
   29b74:	0212      	lsls	r2, r2, #8
   29b76:	1851      	adds	r1, r2, r1
   29b78:	8021      	strh	r1, [r4, #0]
   29b7a:	3008      	adds	r0, #8
   29b7c:	9908      	ldr	r1, [sp, #32]
   29b7e:	6e09      	ldr	r1, [r1, #96]	@ 0x60
   29b80:	910a      	str	r1, [sp, #40]	@ 0x28
   29b82:	4b11      	ldr	r3, [pc, #68]	@ (29bc8 <_start+0x1ecc>)
   29b84:	446b      	add	r3, sp
   29b86:	930b      	str	r3, [sp, #44]	@ 0x2c
   29b88:	c866      	ldmia	r0!, {r1, r2, r5, r6}
   29b8a:	c366      	stmia	r3!, {r1, r2, r5, r6}
   29b8c:	c866      	ldmia	r0!, {r1, r2, r5, r6}
   29b8e:	c366      	stmia	r3!, {r1, r2, r5, r6}
   29b90:	990a      	ldr	r1, [sp, #40]	@ 0x28
   29b92:	0e08      	lsrs	r0, r1, #24
   29b94:	71a0      	strb	r0, [r4, #6]
   29b96:	0c08      	lsrs	r0, r1, #16
   29b98:	7160      	strb	r0, [r4, #5]
   29b9a:	0a08      	lsrs	r0, r1, #8
   29b9c:	7120      	strb	r0, [r4, #4]
   29b9e:	70e1      	strb	r1, [r4, #3]
   29ba0:	1de0      	adds	r0, r4, #7
   29ba2:	2220      	movs	r2, #32
   29ba4:	990b      	ldr	r1, [sp, #44]	@ 0x2c
   29ba6:	f001 faad 	bl	2b104 <__aeabi_memcpy>
   29baa:	4d05      	ldr	r5, [pc, #20]	@ (29bc0 <_start+0x1ec4>)
   29bac:	446d      	add	r5, sp
   29bae:	4628      	mov	r0, r5
   29bb0:	4621      	mov	r1, r4
   29bb2:	f7f9 fa61 	bl	23078 <_ZN20complex_dynamic_type3app17h6145f5ad2954b95dE>
   29bb6:	7828      	ldrb	r0, [r5, #0]
   29bb8:	2801      	cmp	r0, #1
   29bba:	d107      	bne.n	29bcc <_start+0x1ed0>
   29bbc:	f001 f88c 	bl	2acd8 <_start+0x2fdc>
   29bc0:	00001404 	.word	0x00001404
   29bc4:	00000a74 	.word	0x00000a74
   29bc8:	000013a8 	.word	0x000013a8
   29bcc:	4915      	ldr	r1, [pc, #84]	@ (29c24 <_start+0x1f28>)
   29bce:	4469      	add	r1, sp
   29bd0:	78c8      	ldrb	r0, [r1, #3]
   29bd2:	4c15      	ldr	r4, [pc, #84]	@ (29c28 <_start+0x1f2c>)
   29bd4:	446c      	add	r4, sp
   29bd6:	70a0      	strb	r0, [r4, #2]
   29bd8:	7848      	ldrb	r0, [r1, #1]
   29bda:	788a      	ldrb	r2, [r1, #2]
   29bdc:	0212      	lsls	r2, r2, #8
   29bde:	1810      	adds	r0, r2, r0
   29be0:	8020      	strh	r0, [r4, #0]
   29be2:	9808      	ldr	r0, [sp, #32]
   29be4:	6e05      	ldr	r5, [r0, #96]	@ 0x60
   29be6:	3108      	adds	r1, #8
   29be8:	4810      	ldr	r0, [pc, #64]	@ (29c2c <_start+0x1f30>)
   29bea:	4468      	add	r0, sp
   29bec:	900b      	str	r0, [sp, #44]	@ 0x2c
   29bee:	264a      	movs	r6, #74	@ 0x4a
   29bf0:	4632      	mov	r2, r6
   29bf2:	f001 f927 	bl	2ae44 <__aeabi_memcpy4>
   29bf6:	0e28      	lsrs	r0, r5, #24
   29bf8:	71a0      	strb	r0, [r4, #6]
   29bfa:	0c28      	lsrs	r0, r5, #16
   29bfc:	7160      	strb	r0, [r4, #5]
   29bfe:	0a28      	lsrs	r0, r5, #8
   29c00:	7120      	strb	r0, [r4, #4]
   29c02:	70e5      	strb	r5, [r4, #3]
   29c04:	1de0      	adds	r0, r4, #7
   29c06:	990b      	ldr	r1, [sp, #44]	@ 0x2c
   29c08:	4632      	mov	r2, r6
   29c0a:	f001 fa7b 	bl	2b104 <__aeabi_memcpy>
   29c0e:	4d05      	ldr	r5, [pc, #20]	@ (29c24 <_start+0x1f28>)
   29c10:	446d      	add	r5, sp
   29c12:	4628      	mov	r0, r5
   29c14:	4621      	mov	r1, r4
   29c16:	f7f8 fb8d 	bl	22334 <_ZN20complex_dynamic_type3app17h5249f906495b8fd3E>
   29c1a:	7828      	ldrb	r0, [r5, #0]
   29c1c:	2801      	cmp	r0, #1
   29c1e:	d107      	bne.n	29c30 <_start+0x1f34>
   29c20:	f001 f85a 	bl	2acd8 <_start+0x2fdc>
   29c24:	00001404 	.word	0x00001404
   29c28:	00000a9c 	.word	0x00000a9c
   29c2c:	000013a8 	.word	0x000013a8
   29c30:	4915      	ldr	r1, [pc, #84]	@ (29c88 <_start+0x1f8c>)
   29c32:	4469      	add	r1, sp
   29c34:	78c8      	ldrb	r0, [r1, #3]
   29c36:	4c15      	ldr	r4, [pc, #84]	@ (29c8c <_start+0x1f90>)
   29c38:	446c      	add	r4, sp
   29c3a:	70a0      	strb	r0, [r4, #2]
   29c3c:	7848      	ldrb	r0, [r1, #1]
   29c3e:	788a      	ldrb	r2, [r1, #2]
   29c40:	0212      	lsls	r2, r2, #8
   29c42:	1810      	adds	r0, r2, r0
   29c44:	8020      	strh	r0, [r4, #0]
   29c46:	9808      	ldr	r0, [sp, #32]
   29c48:	6e05      	ldr	r5, [r0, #96]	@ 0x60
   29c4a:	3108      	adds	r1, #8
   29c4c:	4810      	ldr	r0, [pc, #64]	@ (29c90 <_start+0x1f94>)
   29c4e:	4468      	add	r0, sp
   29c50:	900b      	str	r0, [sp, #44]	@ 0x2c
   29c52:	2648      	movs	r6, #72	@ 0x48
   29c54:	4632      	mov	r2, r6
   29c56:	f001 f8f5 	bl	2ae44 <__aeabi_memcpy4>
   29c5a:	0e28      	lsrs	r0, r5, #24
   29c5c:	71a0      	strb	r0, [r4, #6]
   29c5e:	0c28      	lsrs	r0, r5, #16
   29c60:	7160      	strb	r0, [r4, #5]
   29c62:	0a28      	lsrs	r0, r5, #8
   29c64:	7120      	strb	r0, [r4, #4]
   29c66:	70e5      	strb	r5, [r4, #3]
   29c68:	1de0      	adds	r0, r4, #7
   29c6a:	990b      	ldr	r1, [sp, #44]	@ 0x2c
   29c6c:	4632      	mov	r2, r6
   29c6e:	f001 fa49 	bl	2b104 <__aeabi_memcpy>
   29c72:	4d05      	ldr	r5, [pc, #20]	@ (29c88 <_start+0x1f8c>)
   29c74:	446d      	add	r5, sp
   29c76:	4628      	mov	r0, r5
   29c78:	4621      	mov	r1, r4
   29c7a:	f7f8 fe03 	bl	22884 <_ZN20complex_dynamic_type3app17h59f2e207a74a91deE>
   29c7e:	7828      	ldrb	r0, [r5, #0]
   29c80:	2801      	cmp	r0, #1
   29c82:	d107      	bne.n	29c94 <_start+0x1f98>
   29c84:	f001 f828 	bl	2acd8 <_start+0x2fdc>
   29c88:	00001404 	.word	0x00001404
   29c8c:	00000af0 	.word	0x00000af0
   29c90:	000013a8 	.word	0x000013a8
   29c94:	4915      	ldr	r1, [pc, #84]	@ (29cec <_start+0x1ff0>)
   29c96:	4469      	add	r1, sp
   29c98:	78c8      	ldrb	r0, [r1, #3]
   29c9a:	4c15      	ldr	r4, [pc, #84]	@ (29cf0 <_start+0x1ff4>)
   29c9c:	446c      	add	r4, sp
   29c9e:	70a0      	strb	r0, [r4, #2]
   29ca0:	7848      	ldrb	r0, [r1, #1]
   29ca2:	788a      	ldrb	r2, [r1, #2]
   29ca4:	0212      	lsls	r2, r2, #8
   29ca6:	1810      	adds	r0, r2, r0
   29ca8:	8020      	strh	r0, [r4, #0]
   29caa:	9808      	ldr	r0, [sp, #32]
   29cac:	6e05      	ldr	r5, [r0, #96]	@ 0x60
   29cae:	3108      	adds	r1, #8
   29cb0:	4810      	ldr	r0, [pc, #64]	@ (29cf4 <_start+0x1ff8>)
   29cb2:	4468      	add	r0, sp
   29cb4:	900b      	str	r0, [sp, #44]	@ 0x2c
   29cb6:	265a      	movs	r6, #90	@ 0x5a
   29cb8:	4632      	mov	r2, r6
   29cba:	f001 f8c3 	bl	2ae44 <__aeabi_memcpy4>
   29cbe:	0e28      	lsrs	r0, r5, #24
   29cc0:	71a0      	strb	r0, [r4, #6]
   29cc2:	0c28      	lsrs	r0, r5, #16
   29cc4:	7160      	strb	r0, [r4, #5]
   29cc6:	0a28      	lsrs	r0, r5, #8
   29cc8:	7120      	strb	r0, [r4, #4]
   29cca:	70e5      	strb	r5, [r4, #3]
   29ccc:	1de0      	adds	r0, r4, #7
   29cce:	990b      	ldr	r1, [sp, #44]	@ 0x2c
   29cd0:	4632      	mov	r2, r6
   29cd2:	f001 fa17 	bl	2b104 <__aeabi_memcpy>
   29cd6:	4d05      	ldr	r5, [pc, #20]	@ (29cec <_start+0x1ff0>)
   29cd8:	446d      	add	r5, sp
   29cda:	4628      	mov	r0, r5
   29cdc:	4621      	mov	r1, r4
   29cde:	f7fa ffa1 	bl	24c24 <_ZN20complex_dynamic_type3app17h996a43e6f3bbad40E>
   29ce2:	7828      	ldrb	r0, [r5, #0]
   29ce4:	2801      	cmp	r0, #1
   29ce6:	d107      	bne.n	29cf8 <_start+0x1ffc>
   29ce8:	f000 fff6 	bl	2acd8 <_start+0x2fdc>
   29cec:	00001404 	.word	0x00001404
   29cf0:	00000b40 	.word	0x00000b40
   29cf4:	000013a8 	.word	0x000013a8
   29cf8:	4817      	ldr	r0, [pc, #92]	@ (29d58 <_start+0x205c>)
   29cfa:	4468      	add	r0, sp
   29cfc:	78c1      	ldrb	r1, [r0, #3]
   29cfe:	4c17      	ldr	r4, [pc, #92]	@ (29d5c <_start+0x2060>)
   29d00:	446c      	add	r4, sp
   29d02:	70a1      	strb	r1, [r4, #2]
   29d04:	7841      	ldrb	r1, [r0, #1]
   29d06:	7882      	ldrb	r2, [r0, #2]
   29d08:	0212      	lsls	r2, r2, #8
   29d0a:	1851      	adds	r1, r2, r1
   29d0c:	8021      	strh	r1, [r4, #0]
   29d0e:	3008      	adds	r0, #8
   29d10:	9908      	ldr	r1, [sp, #32]
   29d12:	6e09      	ldr	r1, [r1, #96]	@ 0x60
   29d14:	4b12      	ldr	r3, [pc, #72]	@ (29d60 <_start+0x2064>)
   29d16:	446b      	add	r3, sp
   29d18:	930b      	str	r3, [sp, #44]	@ 0x2c
   29d1a:	c860      	ldmia	r0!, {r5, r6}
   29d1c:	c360      	stmia	r3!, {r5, r6}
   29d1e:	c864      	ldmia	r0!, {r2, r5, r6}
   29d20:	c364      	stmia	r3!, {r2, r5, r6}
   29d22:	8802      	ldrh	r2, [r0, #0]
   29d24:	801a      	strh	r2, [r3, #0]
   29d26:	7880      	ldrb	r0, [r0, #2]
   29d28:	7098      	strb	r0, [r3, #2]
   29d2a:	0e08      	lsrs	r0, r1, #24
   29d2c:	71a0      	strb	r0, [r4, #6]
   29d2e:	0c08      	lsrs	r0, r1, #16
   29d30:	7160      	strb	r0, [r4, #5]
   29d32:	0a08      	lsrs	r0, r1, #8
   29d34:	7120      	strb	r0, [r4, #4]
   29d36:	70e1      	strb	r1, [r4, #3]
   29d38:	1de0      	adds	r0, r4, #7
   29d3a:	2217      	movs	r2, #23
   29d3c:	990b      	ldr	r1, [sp, #44]	@ 0x2c
   29d3e:	f001 f9e1 	bl	2b104 <__aeabi_memcpy>
   29d42:	4d05      	ldr	r5, [pc, #20]	@ (29d58 <_start+0x205c>)
   29d44:	446d      	add	r5, sp
   29d46:	4628      	mov	r0, r5
   29d48:	4621      	mov	r1, r4
   29d4a:	f7f7 fd05 	bl	21758 <_ZN20complex_dynamic_type3app17h2cf2a07544c470c5E>
   29d4e:	7828      	ldrb	r0, [r5, #0]
   29d50:	2801      	cmp	r0, #1
   29d52:	d107      	bne.n	29d64 <_start+0x2068>
   29d54:	f000 ffc0 	bl	2acd8 <_start+0x2fdc>
   29d58:	00001404 	.word	0x00001404
   29d5c:	00000ba4 	.word	0x00000ba4
   29d60:	000013a8 	.word	0x000013a8
   29d64:	4816      	ldr	r0, [pc, #88]	@ (29dc0 <_start+0x20c4>)
   29d66:	4468      	add	r0, sp
   29d68:	78c1      	ldrb	r1, [r0, #3]
   29d6a:	4c16      	ldr	r4, [pc, #88]	@ (29dc4 <_start+0x20c8>)
   29d6c:	446c      	add	r4, sp
   29d6e:	70a1      	strb	r1, [r4, #2]
   29d70:	7841      	ldrb	r1, [r0, #1]
   29d72:	7882      	ldrb	r2, [r0, #2]
   29d74:	0212      	lsls	r2, r2, #8
   29d76:	1851      	adds	r1, r2, r1
   29d78:	8021      	strh	r1, [r4, #0]
   29d7a:	3008      	adds	r0, #8
   29d7c:	9908      	ldr	r1, [sp, #32]
   29d7e:	6e09      	ldr	r1, [r1, #96]	@ 0x60
   29d80:	4b11      	ldr	r3, [pc, #68]	@ (29dc8 <_start+0x20cc>)
   29d82:	446b      	add	r3, sp
   29d84:	930b      	str	r3, [sp, #44]	@ 0x2c
   29d86:	c864      	ldmia	r0!, {r2, r5, r6}
   29d88:	c364      	stmia	r3!, {r2, r5, r6}
   29d8a:	c864      	ldmia	r0!, {r2, r5, r6}
   29d8c:	c364      	stmia	r3!, {r2, r5, r6}
   29d8e:	8800      	ldrh	r0, [r0, #0]
   29d90:	8018      	strh	r0, [r3, #0]
   29d92:	0e08      	lsrs	r0, r1, #24
   29d94:	71a0      	strb	r0, [r4, #6]
   29d96:	0c08      	lsrs	r0, r1, #16
   29d98:	7160      	strb	r0, [r4, #5]
   29d9a:	0a08      	lsrs	r0, r1, #8
   29d9c:	7120      	strb	r0, [r4, #4]
   29d9e:	70e1      	strb	r1, [r4, #3]
   29da0:	1de0      	adds	r0, r4, #7
   29da2:	221a      	movs	r2, #26
   29da4:	990b      	ldr	r1, [sp, #44]	@ 0x2c
   29da6:	f001 f9ad 	bl	2b104 <__aeabi_memcpy>
   29daa:	4d05      	ldr	r5, [pc, #20]	@ (29dc0 <_start+0x20c4>)
   29dac:	446d      	add	r5, sp
   29dae:	4628      	mov	r0, r5
   29db0:	4621      	mov	r1, r4
   29db2:	f7f9 f8b7 	bl	22f24 <_ZN20complex_dynamic_type3app17h61151b2563c6b384E>
   29db6:	7828      	ldrb	r0, [r5, #0]
   29db8:	2801      	cmp	r0, #1
   29dba:	d107      	bne.n	29dcc <_start+0x20d0>
   29dbc:	f000 ff8c 	bl	2acd8 <_start+0x2fdc>
   29dc0:	00001404 	.word	0x00001404
   29dc4:	00000bc4 	.word	0x00000bc4
   29dc8:	000013a8 	.word	0x000013a8
   29dcc:	4818      	ldr	r0, [pc, #96]	@ (29e30 <_start+0x2134>)
   29dce:	4468      	add	r0, sp
   29dd0:	78c1      	ldrb	r1, [r0, #3]
   29dd2:	4c18      	ldr	r4, [pc, #96]	@ (29e34 <_start+0x2138>)
   29dd4:	446c      	add	r4, sp
   29dd6:	70a1      	strb	r1, [r4, #2]
   29dd8:	7841      	ldrb	r1, [r0, #1]
   29dda:	7882      	ldrb	r2, [r0, #2]
   29ddc:	0212      	lsls	r2, r2, #8
   29dde:	1851      	adds	r1, r2, r1
   29de0:	8021      	strh	r1, [r4, #0]
   29de2:	3008      	adds	r0, #8
   29de4:	9908      	ldr	r1, [sp, #32]
   29de6:	6e09      	ldr	r1, [r1, #96]	@ 0x60
   29de8:	910a      	str	r1, [sp, #40]	@ 0x28
   29dea:	4b13      	ldr	r3, [pc, #76]	@ (29e38 <_start+0x213c>)
   29dec:	446b      	add	r3, sp
   29dee:	930b      	str	r3, [sp, #44]	@ 0x2c
   29df0:	c866      	ldmia	r0!, {r1, r2, r5, r6}
   29df2:	c366      	stmia	r3!, {r1, r2, r5, r6}
   29df4:	c866      	ldmia	r0!, {r1, r2, r5, r6}
   29df6:	c366      	stmia	r3!, {r1, r2, r5, r6}
   29df8:	8801      	ldrh	r1, [r0, #0]
   29dfa:	8019      	strh	r1, [r3, #0]
   29dfc:	7880      	ldrb	r0, [r0, #2]
   29dfe:	7098      	strb	r0, [r3, #2]
   29e00:	990a      	ldr	r1, [sp, #40]	@ 0x28
   29e02:	0e08      	lsrs	r0, r1, #24
   29e04:	71a0      	strb	r0, [r4, #6]
   29e06:	0c08      	lsrs	r0, r1, #16
   29e08:	7160      	strb	r0, [r4, #5]
   29e0a:	0a08      	lsrs	r0, r1, #8
   29e0c:	7120      	strb	r0, [r4, #4]
   29e0e:	70e1      	strb	r1, [r4, #3]
   29e10:	1de0      	adds	r0, r4, #7
   29e12:	2223      	movs	r2, #35	@ 0x23
   29e14:	990b      	ldr	r1, [sp, #44]	@ 0x2c
   29e16:	f001 f975 	bl	2b104 <__aeabi_memcpy>
   29e1a:	4d05      	ldr	r5, [pc, #20]	@ (29e30 <_start+0x2134>)
   29e1c:	446d      	add	r5, sp
   29e1e:	4628      	mov	r0, r5
   29e20:	4621      	mov	r1, r4
   29e22:	f7fd fe19 	bl	27a58 <_ZN20complex_dynamic_type3app17hf7209346ccd80545E>
   29e26:	7828      	ldrb	r0, [r5, #0]
   29e28:	2801      	cmp	r0, #1
   29e2a:	d107      	bne.n	29e3c <_start+0x2140>
   29e2c:	f000 ff54 	bl	2acd8 <_start+0x2fdc>
   29e30:	00001404 	.word	0x00001404
   29e34:	00000be8 	.word	0x00000be8
   29e38:	000013a8 	.word	0x000013a8
   29e3c:	4915      	ldr	r1, [pc, #84]	@ (29e94 <_start+0x2198>)
   29e3e:	4469      	add	r1, sp
   29e40:	78c8      	ldrb	r0, [r1, #3]
   29e42:	4c15      	ldr	r4, [pc, #84]	@ (29e98 <_start+0x219c>)
   29e44:	446c      	add	r4, sp
   29e46:	70a0      	strb	r0, [r4, #2]
   29e48:	7848      	ldrb	r0, [r1, #1]
   29e4a:	788a      	ldrb	r2, [r1, #2]
   29e4c:	0212      	lsls	r2, r2, #8
   29e4e:	1810      	adds	r0, r2, r0
   29e50:	8020      	strh	r0, [r4, #0]
   29e52:	9808      	ldr	r0, [sp, #32]
   29e54:	6e05      	ldr	r5, [r0, #96]	@ 0x60
   29e56:	3108      	adds	r1, #8
   29e58:	4810      	ldr	r0, [pc, #64]	@ (29e9c <_start+0x21a0>)
   29e5a:	4468      	add	r0, sp
   29e5c:	900b      	str	r0, [sp, #44]	@ 0x2c
   29e5e:	2652      	movs	r6, #82	@ 0x52
   29e60:	4632      	mov	r2, r6
   29e62:	f000 ffef 	bl	2ae44 <__aeabi_memcpy4>
   29e66:	0e28      	lsrs	r0, r5, #24
   29e68:	71a0      	strb	r0, [r4, #6]
   29e6a:	0c28      	lsrs	r0, r5, #16
   29e6c:	7160      	strb	r0, [r4, #5]
   29e6e:	0a28      	lsrs	r0, r5, #8
   29e70:	7120      	strb	r0, [r4, #4]
   29e72:	70e5      	strb	r5, [r4, #3]
   29e74:	1de0      	adds	r0, r4, #7
   29e76:	990b      	ldr	r1, [sp, #44]	@ 0x2c
   29e78:	4632      	mov	r2, r6
   29e7a:	f001 f943 	bl	2b104 <__aeabi_memcpy>
   29e7e:	4d05      	ldr	r5, [pc, #20]	@ (29e94 <_start+0x2198>)
   29e80:	446d      	add	r5, sp
   29e82:	4628      	mov	r0, r5
   29e84:	4621      	mov	r1, r4
   29e86:	f7f8 f905 	bl	22094 <_ZN20complex_dynamic_type3app17h4e642b1e3a654091E>
   29e8a:	7828      	ldrb	r0, [r5, #0]
   29e8c:	2801      	cmp	r0, #1
   29e8e:	d107      	bne.n	29ea0 <_start+0x21a4>
   29e90:	f000 ff22 	bl	2acd8 <_start+0x2fdc>
   29e94:	00001404 	.word	0x00001404
   29e98:	00000c14 	.word	0x00000c14
   29e9c:	000013a8 	.word	0x000013a8
   29ea0:	4915      	ldr	r1, [pc, #84]	@ (29ef8 <_start+0x21fc>)
   29ea2:	4469      	add	r1, sp
   29ea4:	78c8      	ldrb	r0, [r1, #3]
   29ea6:	4c15      	ldr	r4, [pc, #84]	@ (29efc <_start+0x2200>)
   29ea8:	446c      	add	r4, sp
   29eaa:	70a0      	strb	r0, [r4, #2]
   29eac:	7848      	ldrb	r0, [r1, #1]
   29eae:	788a      	ldrb	r2, [r1, #2]
   29eb0:	0212      	lsls	r2, r2, #8
   29eb2:	1810      	adds	r0, r2, r0
   29eb4:	8020      	strh	r0, [r4, #0]
   29eb6:	9808      	ldr	r0, [sp, #32]
   29eb8:	6e05      	ldr	r5, [r0, #96]	@ 0x60
   29eba:	3108      	adds	r1, #8
   29ebc:	4810      	ldr	r0, [pc, #64]	@ (29f00 <_start+0x2204>)
   29ebe:	4468      	add	r0, sp
   29ec0:	900b      	str	r0, [sp, #44]	@ 0x2c
   29ec2:	2643      	movs	r6, #67	@ 0x43
   29ec4:	4632      	mov	r2, r6
   29ec6:	f000 ffbd 	bl	2ae44 <__aeabi_memcpy4>
   29eca:	0e28      	lsrs	r0, r5, #24
   29ecc:	71a0      	strb	r0, [r4, #6]
   29ece:	0c28      	lsrs	r0, r5, #16
   29ed0:	7160      	strb	r0, [r4, #5]
   29ed2:	0a28      	lsrs	r0, r5, #8
   29ed4:	7120      	strb	r0, [r4, #4]
   29ed6:	70e5      	strb	r5, [r4, #3]
   29ed8:	1de0      	adds	r0, r4, #7
   29eda:	990b      	ldr	r1, [sp, #44]	@ 0x2c
   29edc:	4632      	mov	r2, r6
   29ede:	f001 f911 	bl	2b104 <__aeabi_memcpy>
   29ee2:	4d05      	ldr	r5, [pc, #20]	@ (29ef8 <_start+0x21fc>)
   29ee4:	446d      	add	r5, sp
   29ee6:	4628      	mov	r0, r5
   29ee8:	4621      	mov	r1, r4
   29eea:	f7fc fbcb 	bl	26684 <_ZN20complex_dynamic_type3app17hd6ab3f259de903e6E>
   29eee:	7828      	ldrb	r0, [r5, #0]
   29ef0:	2801      	cmp	r0, #1
   29ef2:	d107      	bne.n	29f04 <_start+0x2208>
   29ef4:	f000 fef0 	bl	2acd8 <_start+0x2fdc>
   29ef8:	00001404 	.word	0x00001404
   29efc:	00000c70 	.word	0x00000c70
   29f00:	000013a8 	.word	0x000013a8
   29f04:	4817      	ldr	r0, [pc, #92]	@ (29f64 <_start+0x2268>)
   29f06:	4468      	add	r0, sp
   29f08:	78c1      	ldrb	r1, [r0, #3]
   29f0a:	4c17      	ldr	r4, [pc, #92]	@ (29f68 <_start+0x226c>)
   29f0c:	446c      	add	r4, sp
   29f0e:	70a1      	strb	r1, [r4, #2]
   29f10:	7841      	ldrb	r1, [r0, #1]
   29f12:	7882      	ldrb	r2, [r0, #2]
   29f14:	0212      	lsls	r2, r2, #8
   29f16:	1851      	adds	r1, r2, r1
   29f18:	8021      	strh	r1, [r4, #0]
   29f1a:	3008      	adds	r0, #8
   29f1c:	9908      	ldr	r1, [sp, #32]
   29f1e:	6e09      	ldr	r1, [r1, #96]	@ 0x60
   29f20:	4b12      	ldr	r3, [pc, #72]	@ (29f6c <_start+0x2270>)
   29f22:	446b      	add	r3, sp
   29f24:	930b      	str	r3, [sp, #44]	@ 0x2c
   29f26:	c864      	ldmia	r0!, {r2, r5, r6}
   29f28:	c364      	stmia	r3!, {r2, r5, r6}
   29f2a:	c864      	ldmia	r0!, {r2, r5, r6}
   29f2c:	c364      	stmia	r3!, {r2, r5, r6}
   29f2e:	c864      	ldmia	r0!, {r2, r5, r6}
   29f30:	c364      	stmia	r3!, {r2, r5, r6}
   29f32:	8800      	ldrh	r0, [r0, #0]
   29f34:	8018      	strh	r0, [r3, #0]
   29f36:	0e08      	lsrs	r0, r1, #24
   29f38:	71a0      	strb	r0, [r4, #6]
   29f3a:	0c08      	lsrs	r0, r1, #16
   29f3c:	7160      	strb	r0, [r4, #5]
   29f3e:	0a08      	lsrs	r0, r1, #8
   29f40:	7120      	strb	r0, [r4, #4]
   29f42:	70e1      	strb	r1, [r4, #3]
   29f44:	1de0      	adds	r0, r4, #7
   29f46:	2226      	movs	r2, #38	@ 0x26
   29f48:	990b      	ldr	r1, [sp, #44]	@ 0x2c
   29f4a:	f001 f8db 	bl	2b104 <__aeabi_memcpy>
   29f4e:	4d05      	ldr	r5, [pc, #20]	@ (29f64 <_start+0x2268>)
   29f50:	446d      	add	r5, sp
   29f52:	4628      	mov	r0, r5
   29f54:	4621      	mov	r1, r4
   29f56:	f7fd f82f 	bl	26fb8 <_ZN20complex_dynamic_type3app17hdf815c43d89fc657E>
   29f5a:	7828      	ldrb	r0, [r5, #0]
   29f5c:	2801      	cmp	r0, #1
   29f5e:	d107      	bne.n	29f70 <_start+0x2274>
   29f60:	f000 feba 	bl	2acd8 <_start+0x2fdc>
   29f64:	00001404 	.word	0x00001404
   29f68:	00000cbc 	.word	0x00000cbc
   29f6c:	000013a8 	.word	0x000013a8
   29f70:	4915      	ldr	r1, [pc, #84]	@ (29fc8 <_start+0x22cc>)
   29f72:	4469      	add	r1, sp
   29f74:	78c8      	ldrb	r0, [r1, #3]
   29f76:	4c15      	ldr	r4, [pc, #84]	@ (29fcc <_start+0x22d0>)
   29f78:	446c      	add	r4, sp
   29f7a:	70a0      	strb	r0, [r4, #2]
   29f7c:	7848      	ldrb	r0, [r1, #1]
   29f7e:	788a      	ldrb	r2, [r1, #2]
   29f80:	0212      	lsls	r2, r2, #8
   29f82:	1810      	adds	r0, r2, r0
   29f84:	8020      	strh	r0, [r4, #0]
   29f86:	9808      	ldr	r0, [sp, #32]
   29f88:	6e05      	ldr	r5, [r0, #96]	@ 0x60
   29f8a:	3108      	adds	r1, #8
   29f8c:	4810      	ldr	r0, [pc, #64]	@ (29fd0 <_start+0x22d4>)
   29f8e:	4468      	add	r0, sp
   29f90:	900b      	str	r0, [sp, #44]	@ 0x2c
   29f92:	264c      	movs	r6, #76	@ 0x4c
   29f94:	4632      	mov	r2, r6
   29f96:	f000 ff55 	bl	2ae44 <__aeabi_memcpy4>
   29f9a:	0e28      	lsrs	r0, r5, #24
   29f9c:	71a0      	strb	r0, [r4, #6]
   29f9e:	0c28      	lsrs	r0, r5, #16
   29fa0:	7160      	strb	r0, [r4, #5]
   29fa2:	0a28      	lsrs	r0, r5, #8
   29fa4:	7120      	strb	r0, [r4, #4]
   29fa6:	70e5      	strb	r5, [r4, #3]
   29fa8:	1de0      	adds	r0, r4, #7
   29faa:	990b      	ldr	r1, [sp, #44]	@ 0x2c
   29fac:	4632      	mov	r2, r6
   29fae:	f001 f8a9 	bl	2b104 <__aeabi_memcpy>
   29fb2:	4d05      	ldr	r5, [pc, #20]	@ (29fc8 <_start+0x22cc>)
   29fb4:	446d      	add	r5, sp
   29fb6:	4628      	mov	r0, r5
   29fb8:	4621      	mov	r1, r4
   29fba:	f7fc fe07 	bl	26bcc <_ZN20complex_dynamic_type3app17hda38df68db21d4d7E>
   29fbe:	7828      	ldrb	r0, [r5, #0]
   29fc0:	2801      	cmp	r0, #1
   29fc2:	d107      	bne.n	29fd4 <_start+0x22d8>
   29fc4:	f000 fe88 	bl	2acd8 <_start+0x2fdc>
   29fc8:	00001404 	.word	0x00001404
   29fcc:	00000cec 	.word	0x00000cec
   29fd0:	000013a8 	.word	0x000013a8
   29fd4:	4819      	ldr	r0, [pc, #100]	@ (2a03c <_start+0x2340>)
   29fd6:	4468      	add	r0, sp
   29fd8:	78c1      	ldrb	r1, [r0, #3]
   29fda:	4c19      	ldr	r4, [pc, #100]	@ (2a040 <_start+0x2344>)
   29fdc:	446c      	add	r4, sp
   29fde:	70a1      	strb	r1, [r4, #2]
   29fe0:	7841      	ldrb	r1, [r0, #1]
   29fe2:	7882      	ldrb	r2, [r0, #2]
   29fe4:	0212      	lsls	r2, r2, #8
   29fe6:	1851      	adds	r1, r2, r1
   29fe8:	8021      	strh	r1, [r4, #0]
   29fea:	3008      	adds	r0, #8
   29fec:	9908      	ldr	r1, [sp, #32]
   29fee:	6e09      	ldr	r1, [r1, #96]	@ 0x60
   29ff0:	910a      	str	r1, [sp, #40]	@ 0x28
   29ff2:	4b14      	ldr	r3, [pc, #80]	@ (2a044 <_start+0x2348>)
   29ff4:	446b      	add	r3, sp
   29ff6:	930b      	str	r3, [sp, #44]	@ 0x2c
   29ff8:	c866      	ldmia	r0!, {r1, r2, r5, r6}
   29ffa:	c366      	stmia	r3!, {r1, r2, r5, r6}
   29ffc:	c866      	ldmia	r0!, {r1, r2, r5, r6}
   29ffe:	c366      	stmia	r3!, {r1, r2, r5, r6}
   2a000:	c866      	ldmia	r0!, {r1, r2, r5, r6}
   2a002:	c366      	stmia	r3!, {r1, r2, r5, r6}
   2a004:	8801      	ldrh	r1, [r0, #0]
   2a006:	8019      	strh	r1, [r3, #0]
   2a008:	7880      	ldrb	r0, [r0, #2]
   2a00a:	7098      	strb	r0, [r3, #2]
   2a00c:	990a      	ldr	r1, [sp, #40]	@ 0x28
   2a00e:	0e08      	lsrs	r0, r1, #24
   2a010:	71a0      	strb	r0, [r4, #6]
   2a012:	0c08      	lsrs	r0, r1, #16
   2a014:	7160      	strb	r0, [r4, #5]
   2a016:	0a08      	lsrs	r0, r1, #8
   2a018:	7120      	strb	r0, [r4, #4]
   2a01a:	70e1      	strb	r1, [r4, #3]
   2a01c:	1de0      	adds	r0, r4, #7
   2a01e:	2233      	movs	r2, #51	@ 0x33
   2a020:	990b      	ldr	r1, [sp, #44]	@ 0x2c
   2a022:	f001 f86f 	bl	2b104 <__aeabi_memcpy>
   2a026:	4d05      	ldr	r5, [pc, #20]	@ (2a03c <_start+0x2340>)
   2a028:	446d      	add	r5, sp
   2a02a:	4628      	mov	r0, r5
   2a02c:	4621      	mov	r1, r4
   2a02e:	f7f6 faff 	bl	20630 <_ZN20complex_dynamic_type3app17h05155be0111142b5E>
   2a032:	7828      	ldrb	r0, [r5, #0]
   2a034:	2801      	cmp	r0, #1
   2a036:	d107      	bne.n	2a048 <_start+0x234c>
   2a038:	f000 fe4e 	bl	2acd8 <_start+0x2fdc>
   2a03c:	00001404 	.word	0x00001404
   2a040:	00000d40 	.word	0x00000d40
   2a044:	000013a8 	.word	0x000013a8
   2a048:	4915      	ldr	r1, [pc, #84]	@ (2a0a0 <_start+0x23a4>)
   2a04a:	4469      	add	r1, sp
   2a04c:	78c8      	ldrb	r0, [r1, #3]
   2a04e:	4c15      	ldr	r4, [pc, #84]	@ (2a0a4 <_start+0x23a8>)
   2a050:	446c      	add	r4, sp
   2a052:	70a0      	strb	r0, [r4, #2]
   2a054:	7848      	ldrb	r0, [r1, #1]
   2a056:	788a      	ldrb	r2, [r1, #2]
   2a058:	0212      	lsls	r2, r2, #8
   2a05a:	1810      	adds	r0, r2, r0
   2a05c:	8020      	strh	r0, [r4, #0]
   2a05e:	9808      	ldr	r0, [sp, #32]
   2a060:	6e05      	ldr	r5, [r0, #96]	@ 0x60
   2a062:	3108      	adds	r1, #8
   2a064:	4810      	ldr	r0, [pc, #64]	@ (2a0a8 <_start+0x23ac>)
   2a066:	4468      	add	r0, sp
   2a068:	900b      	str	r0, [sp, #44]	@ 0x2c
   2a06a:	2656      	movs	r6, #86	@ 0x56
   2a06c:	4632      	mov	r2, r6
   2a06e:	f000 fee9 	bl	2ae44 <__aeabi_memcpy4>
   2a072:	0e28      	lsrs	r0, r5, #24
   2a074:	71a0      	strb	r0, [r4, #6]
   2a076:	0c28      	lsrs	r0, r5, #16
   2a078:	7160      	strb	r0, [r4, #5]
   2a07a:	0a28      	lsrs	r0, r5, #8
   2a07c:	7120      	strb	r0, [r4, #4]
   2a07e:	70e5      	strb	r5, [r4, #3]
   2a080:	1de0      	adds	r0, r4, #7
   2a082:	990b      	ldr	r1, [sp, #44]	@ 0x2c
   2a084:	4632      	mov	r2, r6
   2a086:	f001 f83d 	bl	2b104 <__aeabi_memcpy>
   2a08a:	4d05      	ldr	r5, [pc, #20]	@ (2a0a0 <_start+0x23a4>)
   2a08c:	446d      	add	r5, sp
   2a08e:	4628      	mov	r0, r5
   2a090:	4621      	mov	r1, r4
   2a092:	f7fa fb23 	bl	246dc <_ZN20complex_dynamic_type3app17h931e367a9429da4fE>
   2a096:	7828      	ldrb	r0, [r5, #0]
   2a098:	2801      	cmp	r0, #1
   2a09a:	d107      	bne.n	2a0ac <_start+0x23b0>
   2a09c:	f000 fe1c 	bl	2acd8 <_start+0x2fdc>
   2a0a0:	00001404 	.word	0x00001404
   2a0a4:	00000d7c 	.word	0x00000d7c
   2a0a8:	000013a8 	.word	0x000013a8
   2a0ac:	4819      	ldr	r0, [pc, #100]	@ (2a114 <_start+0x2418>)
   2a0ae:	4468      	add	r0, sp
   2a0b0:	78c1      	ldrb	r1, [r0, #3]
   2a0b2:	4c19      	ldr	r4, [pc, #100]	@ (2a118 <_start+0x241c>)
   2a0b4:	446c      	add	r4, sp
   2a0b6:	70a1      	strb	r1, [r4, #2]
   2a0b8:	7841      	ldrb	r1, [r0, #1]
   2a0ba:	7882      	ldrb	r2, [r0, #2]
   2a0bc:	0212      	lsls	r2, r2, #8
   2a0be:	1851      	adds	r1, r2, r1
   2a0c0:	8021      	strh	r1, [r4, #0]
   2a0c2:	3008      	adds	r0, #8
   2a0c4:	9908      	ldr	r1, [sp, #32]
   2a0c6:	6e09      	ldr	r1, [r1, #96]	@ 0x60
   2a0c8:	910a      	str	r1, [sp, #40]	@ 0x28
   2a0ca:	4b14      	ldr	r3, [pc, #80]	@ (2a11c <_start+0x2420>)
   2a0cc:	446b      	add	r3, sp
   2a0ce:	930b      	str	r3, [sp, #44]	@ 0x2c
   2a0d0:	c864      	ldmia	r0!, {r2, r5, r6}
   2a0d2:	c364      	stmia	r3!, {r2, r5, r6}
   2a0d4:	c866      	ldmia	r0!, {r1, r2, r5, r6}
   2a0d6:	c366      	stmia	r3!, {r1, r2, r5, r6}
   2a0d8:	c826      	ldmia	r0!, {r1, r2, r5}
   2a0da:	c326      	stmia	r3!, {r1, r2, r5}
   2a0dc:	c866      	ldmia	r0!, {r1, r2, r5, r6}
   2a0de:	c366      	stmia	r3!, {r1, r2, r5, r6}
   2a0e0:	7800      	ldrb	r0, [r0, #0]
   2a0e2:	7018      	strb	r0, [r3, #0]
   2a0e4:	990a      	ldr	r1, [sp, #40]	@ 0x28
   2a0e6:	0e08      	lsrs	r0, r1, #24
   2a0e8:	71a0      	strb	r0, [r4, #6]
   2a0ea:	0c08      	lsrs	r0, r1, #16
   2a0ec:	7160      	strb	r0, [r4, #5]
   2a0ee:	0a08      	lsrs	r0, r1, #8
   2a0f0:	7120      	strb	r0, [r4, #4]
   2a0f2:	70e1      	strb	r1, [r4, #3]
   2a0f4:	1de0      	adds	r0, r4, #7
   2a0f6:	2239      	movs	r2, #57	@ 0x39
   2a0f8:	990b      	ldr	r1, [sp, #44]	@ 0x2c
   2a0fa:	f001 f803 	bl	2b104 <__aeabi_memcpy>
   2a0fe:	4d05      	ldr	r5, [pc, #20]	@ (2a114 <_start+0x2418>)
   2a100:	446d      	add	r5, sp
   2a102:	4628      	mov	r0, r5
   2a104:	4621      	mov	r1, r4
   2a106:	f7fb fcd3 	bl	25ab0 <_ZN20complex_dynamic_type3app17hc0a5e3bc354cbe3eE>
   2a10a:	7828      	ldrb	r0, [r5, #0]
   2a10c:	2801      	cmp	r0, #1
   2a10e:	d107      	bne.n	2a120 <_start+0x2424>
   2a110:	f000 fde2 	bl	2acd8 <_start+0x2fdc>
   2a114:	00001404 	.word	0x00001404
   2a118:	00000ddc 	.word	0x00000ddc
   2a11c:	000013a8 	.word	0x000013a8
   2a120:	4818      	ldr	r0, [pc, #96]	@ (2a184 <_start+0x2488>)
   2a122:	4468      	add	r0, sp
   2a124:	78c1      	ldrb	r1, [r0, #3]
   2a126:	4c18      	ldr	r4, [pc, #96]	@ (2a188 <_start+0x248c>)
   2a128:	446c      	add	r4, sp
   2a12a:	70a1      	strb	r1, [r4, #2]
   2a12c:	7841      	ldrb	r1, [r0, #1]
   2a12e:	7882      	ldrb	r2, [r0, #2]
   2a130:	0212      	lsls	r2, r2, #8
   2a132:	1851      	adds	r1, r2, r1
   2a134:	8021      	strh	r1, [r4, #0]
   2a136:	3008      	adds	r0, #8
   2a138:	9908      	ldr	r1, [sp, #32]
   2a13a:	6e09      	ldr	r1, [r1, #96]	@ 0x60
   2a13c:	910a      	str	r1, [sp, #40]	@ 0x28
   2a13e:	4b13      	ldr	r3, [pc, #76]	@ (2a18c <_start+0x2490>)
   2a140:	446b      	add	r3, sp
   2a142:	930b      	str	r3, [sp, #44]	@ 0x2c
   2a144:	c864      	ldmia	r0!, {r2, r5, r6}
   2a146:	c364      	stmia	r3!, {r2, r5, r6}
   2a148:	c864      	ldmia	r0!, {r2, r5, r6}
   2a14a:	c364      	stmia	r3!, {r2, r5, r6}
   2a14c:	c866      	ldmia	r0!, {r1, r2, r5, r6}
   2a14e:	c366      	stmia	r3!, {r1, r2, r5, r6}
   2a150:	8800      	ldrh	r0, [r0, #0]
   2a152:	8018      	strh	r0, [r3, #0]
   2a154:	990a      	ldr	r1, [sp, #40]	@ 0x28
   2a156:	0e08      	lsrs	r0, r1, #24
   2a158:	71a0      	strb	r0, [r4, #6]
   2a15a:	0c08      	lsrs	r0, r1, #16
   2a15c:	7160      	strb	r0, [r4, #5]
   2a15e:	0a08      	lsrs	r0, r1, #8
   2a160:	7120      	strb	r0, [r4, #4]
   2a162:	70e1      	strb	r1, [r4, #3]
   2a164:	1de0      	adds	r0, r4, #7
   2a166:	222a      	movs	r2, #42	@ 0x2a
   2a168:	990b      	ldr	r1, [sp, #44]	@ 0x2c
   2a16a:	f000 ffcb 	bl	2b104 <__aeabi_memcpy>
   2a16e:	4d05      	ldr	r5, [pc, #20]	@ (2a184 <_start+0x2488>)
   2a170:	446d      	add	r5, sp
   2a172:	4628      	mov	r0, r5
   2a174:	4621      	mov	r1, r4
   2a176:	f7f8 fcdd 	bl	22b34 <_ZN20complex_dynamic_type3app17h5a9fd78e134820e1E>
   2a17a:	7828      	ldrb	r0, [r5, #0]
   2a17c:	2801      	cmp	r0, #1
   2a17e:	d107      	bne.n	2a190 <_start+0x2494>
   2a180:	f000 fdaa 	bl	2acd8 <_start+0x2fdc>
   2a184:	00001404 	.word	0x00001404
   2a188:	00000e1c 	.word	0x00000e1c
   2a18c:	000013a8 	.word	0x000013a8
   2a190:	4915      	ldr	r1, [pc, #84]	@ (2a1e8 <_start+0x24ec>)
   2a192:	4469      	add	r1, sp
   2a194:	78c8      	ldrb	r0, [r1, #3]
   2a196:	4c15      	ldr	r4, [pc, #84]	@ (2a1ec <_start+0x24f0>)
   2a198:	446c      	add	r4, sp
   2a19a:	70a0      	strb	r0, [r4, #2]
   2a19c:	7848      	ldrb	r0, [r1, #1]
   2a19e:	788a      	ldrb	r2, [r1, #2]
   2a1a0:	0212      	lsls	r2, r2, #8
   2a1a2:	1810      	adds	r0, r2, r0
   2a1a4:	8020      	strh	r0, [r4, #0]
   2a1a6:	9808      	ldr	r0, [sp, #32]
   2a1a8:	6e05      	ldr	r5, [r0, #96]	@ 0x60
   2a1aa:	3108      	adds	r1, #8
   2a1ac:	4810      	ldr	r0, [pc, #64]	@ (2a1f0 <_start+0x24f4>)
   2a1ae:	4468      	add	r0, sp
   2a1b0:	900b      	str	r0, [sp, #44]	@ 0x2c
   2a1b2:	2641      	movs	r6, #65	@ 0x41
   2a1b4:	4632      	mov	r2, r6
   2a1b6:	f000 fe45 	bl	2ae44 <__aeabi_memcpy4>
   2a1ba:	0e28      	lsrs	r0, r5, #24
   2a1bc:	71a0      	strb	r0, [r4, #6]
   2a1be:	0c28      	lsrs	r0, r5, #16
   2a1c0:	7160      	strb	r0, [r4, #5]
   2a1c2:	0a28      	lsrs	r0, r5, #8
   2a1c4:	7120      	strb	r0, [r4, #4]
   2a1c6:	70e5      	strb	r5, [r4, #3]
   2a1c8:	1de0      	adds	r0, r4, #7
   2a1ca:	990b      	ldr	r1, [sp, #44]	@ 0x2c
   2a1cc:	4632      	mov	r2, r6
   2a1ce:	f000 ff99 	bl	2b104 <__aeabi_memcpy>
   2a1d2:	4d05      	ldr	r5, [pc, #20]	@ (2a1e8 <_start+0x24ec>)
   2a1d4:	446d      	add	r5, sp
   2a1d6:	4628      	mov	r0, r5
   2a1d8:	4621      	mov	r1, r4
   2a1da:	f7fa fb27 	bl	2482c <_ZN20complex_dynamic_type3app17h954023b0268a5531E>
   2a1de:	7828      	ldrb	r0, [r5, #0]
   2a1e0:	2801      	cmp	r0, #1
   2a1e2:	d107      	bne.n	2a1f4 <_start+0x24f8>
   2a1e4:	f000 fd78 	bl	2acd8 <_start+0x2fdc>
   2a1e8:	00001404 	.word	0x00001404
   2a1ec:	00000e50 	.word	0x00000e50
   2a1f0:	000013a8 	.word	0x000013a8
   2a1f4:	4817      	ldr	r0, [pc, #92]	@ (2a254 <_start+0x2558>)
   2a1f6:	4468      	add	r0, sp
   2a1f8:	78c1      	ldrb	r1, [r0, #3]
   2a1fa:	4c17      	ldr	r4, [pc, #92]	@ (2a258 <_start+0x255c>)
   2a1fc:	446c      	add	r4, sp
   2a1fe:	70a1      	strb	r1, [r4, #2]
   2a200:	7841      	ldrb	r1, [r0, #1]
   2a202:	7882      	ldrb	r2, [r0, #2]
   2a204:	0212      	lsls	r2, r2, #8
   2a206:	1851      	adds	r1, r2, r1
   2a208:	8021      	strh	r1, [r4, #0]
   2a20a:	3008      	adds	r0, #8
   2a20c:	9908      	ldr	r1, [sp, #32]
   2a20e:	6e09      	ldr	r1, [r1, #96]	@ 0x60
   2a210:	910a      	str	r1, [sp, #40]	@ 0x28
   2a212:	4b12      	ldr	r3, [pc, #72]	@ (2a25c <_start+0x2560>)
   2a214:	446b      	add	r3, sp
   2a216:	930b      	str	r3, [sp, #44]	@ 0x2c
   2a218:	c866      	ldmia	r0!, {r1, r2, r5, r6}
   2a21a:	c366      	stmia	r3!, {r1, r2, r5, r6}
   2a21c:	c866      	ldmia	r0!, {r1, r2, r5, r6}
   2a21e:	c366      	stmia	r3!, {r1, r2, r5, r6}
   2a220:	8800      	ldrh	r0, [r0, #0]
   2a222:	8018      	strh	r0, [r3, #0]
   2a224:	990a      	ldr	r1, [sp, #40]	@ 0x28
   2a226:	0e08      	lsrs	r0, r1, #24
   2a228:	71a0      	strb	r0, [r4, #6]
   2a22a:	0c08      	lsrs	r0, r1, #16
   2a22c:	7160      	strb	r0, [r4, #5]
   2a22e:	0a08      	lsrs	r0, r1, #8
   2a230:	7120      	strb	r0, [r4, #4]
   2a232:	70e1      	strb	r1, [r4, #3]
   2a234:	1de0      	adds	r0, r4, #7
   2a236:	2222      	movs	r2, #34	@ 0x22
   2a238:	990b      	ldr	r1, [sp, #44]	@ 0x2c
   2a23a:	f000 ff63 	bl	2b104 <__aeabi_memcpy>
   2a23e:	4d05      	ldr	r5, [pc, #20]	@ (2a254 <_start+0x2558>)
   2a240:	446d      	add	r5, sp
   2a242:	4628      	mov	r0, r5
   2a244:	4621      	mov	r1, r4
   2a246:	f7f9 ff03 	bl	24050 <_ZN20complex_dynamic_type3app17h8c7ab4ca06c25491E>
   2a24a:	7828      	ldrb	r0, [r5, #0]
   2a24c:	2801      	cmp	r0, #1
   2a24e:	d107      	bne.n	2a260 <_start+0x2564>
   2a250:	f000 fd42 	bl	2acd8 <_start+0x2fdc>
   2a254:	00001404 	.word	0x00001404
   2a258:	00000e98 	.word	0x00000e98
   2a25c:	000013a8 	.word	0x000013a8
   2a260:	4817      	ldr	r0, [pc, #92]	@ (2a2c0 <_start+0x25c4>)
   2a262:	4468      	add	r0, sp
   2a264:	78c1      	ldrb	r1, [r0, #3]
   2a266:	4c17      	ldr	r4, [pc, #92]	@ (2a2c4 <_start+0x25c8>)
   2a268:	446c      	add	r4, sp
   2a26a:	70a1      	strb	r1, [r4, #2]
   2a26c:	7841      	ldrb	r1, [r0, #1]
   2a26e:	7882      	ldrb	r2, [r0, #2]
   2a270:	0212      	lsls	r2, r2, #8
   2a272:	1851      	adds	r1, r2, r1
   2a274:	8021      	strh	r1, [r4, #0]
   2a276:	3008      	adds	r0, #8
   2a278:	9908      	ldr	r1, [sp, #32]
   2a27a:	6e09      	ldr	r1, [r1, #96]	@ 0x60
   2a27c:	910a      	str	r1, [sp, #40]	@ 0x28
   2a27e:	4b12      	ldr	r3, [pc, #72]	@ (2a2c8 <_start+0x25cc>)
   2a280:	446b      	add	r3, sp
   2a282:	930b      	str	r3, [sp, #44]	@ 0x2c
   2a284:	c866      	ldmia	r0!, {r1, r2, r5, r6}
   2a286:	c366      	stmia	r3!, {r1, r2, r5, r6}
   2a288:	8801      	ldrh	r1, [r0, #0]
   2a28a:	8019      	strh	r1, [r3, #0]
   2a28c:	7880      	ldrb	r0, [r0, #2]
   2a28e:	7098      	strb	r0, [r3, #2]
   2a290:	990a      	ldr	r1, [sp, #40]	@ 0x28
   2a292:	0e08      	lsrs	r0, r1, #24
   2a294:	71a0      	strb	r0, [r4, #6]
   2a296:	0c08      	lsrs	r0, r1, #16
   2a298:	7160      	strb	r0, [r4, #5]
   2a29a:	0a08      	lsrs	r0, r1, #8
   2a29c:	7120      	strb	r0, [r4, #4]
   2a29e:	70e1      	strb	r1, [r4, #3]
   2a2a0:	1de0      	adds	r0, r4, #7
   2a2a2:	2213      	movs	r2, #19
   2a2a4:	990b      	ldr	r1, [sp, #44]	@ 0x2c
   2a2a6:	f000 ff2d 	bl	2b104 <__aeabi_memcpy>
   2a2aa:	4d05      	ldr	r5, [pc, #20]	@ (2a2c0 <_start+0x25c4>)
   2a2ac:	446d      	add	r5, sp
   2a2ae:	4628      	mov	r0, r5
   2a2b0:	4621      	mov	r1, r4
   2a2b2:	f7f8 fa3b 	bl	2272c <_ZN20complex_dynamic_type3app17h5908cc76345a3160E>
   2a2b6:	7828      	ldrb	r0, [r5, #0]
   2a2b8:	2801      	cmp	r0, #1
   2a2ba:	d107      	bne.n	2a2cc <_start+0x25d0>
   2a2bc:	f000 fd0c 	bl	2acd8 <_start+0x2fdc>
   2a2c0:	00001404 	.word	0x00001404
   2a2c4:	00000ec4 	.word	0x00000ec4
   2a2c8:	000013a8 	.word	0x000013a8
   2a2cc:	4815      	ldr	r0, [pc, #84]	@ (2a324 <_start+0x2628>)
   2a2ce:	4468      	add	r0, sp
   2a2d0:	78c1      	ldrb	r1, [r0, #3]
   2a2d2:	4c15      	ldr	r4, [pc, #84]	@ (2a328 <_start+0x262c>)
   2a2d4:	446c      	add	r4, sp
   2a2d6:	70a1      	strb	r1, [r4, #2]
   2a2d8:	7841      	ldrb	r1, [r0, #1]
   2a2da:	7882      	ldrb	r2, [r0, #2]
   2a2dc:	0212      	lsls	r2, r2, #8
   2a2de:	1851      	adds	r1, r2, r1
   2a2e0:	8021      	strh	r1, [r4, #0]
   2a2e2:	3008      	adds	r0, #8
   2a2e4:	9908      	ldr	r1, [sp, #32]
   2a2e6:	6e09      	ldr	r1, [r1, #96]	@ 0x60
   2a2e8:	4b10      	ldr	r3, [pc, #64]	@ (2a32c <_start+0x2630>)
   2a2ea:	446b      	add	r3, sp
   2a2ec:	930b      	str	r3, [sp, #44]	@ 0x2c
   2a2ee:	c860      	ldmia	r0!, {r5, r6}
   2a2f0:	c360      	stmia	r3!, {r5, r6}
   2a2f2:	c864      	ldmia	r0!, {r2, r5, r6}
   2a2f4:	c364      	stmia	r3!, {r2, r5, r6}
   2a2f6:	0e08      	lsrs	r0, r1, #24
   2a2f8:	71a0      	strb	r0, [r4, #6]
   2a2fa:	0c08      	lsrs	r0, r1, #16
   2a2fc:	7160      	strb	r0, [r4, #5]
   2a2fe:	0a08      	lsrs	r0, r1, #8
   2a300:	7120      	strb	r0, [r4, #4]
   2a302:	70e1      	strb	r1, [r4, #3]
   2a304:	1de0      	adds	r0, r4, #7
   2a306:	2214      	movs	r2, #20
   2a308:	990b      	ldr	r1, [sp, #44]	@ 0x2c
   2a30a:	f000 fefb 	bl	2b104 <__aeabi_memcpy>
   2a30e:	4d05      	ldr	r5, [pc, #20]	@ (2a324 <_start+0x2628>)
   2a310:	446d      	add	r5, sp
   2a312:	4628      	mov	r0, r5
   2a314:	4621      	mov	r1, r4
   2a316:	f7f7 fd69 	bl	21dec <_ZN20complex_dynamic_type3app17h3ddb6eeaf4872ae8E>
   2a31a:	7828      	ldrb	r0, [r5, #0]
   2a31c:	2801      	cmp	r0, #1
   2a31e:	d107      	bne.n	2a330 <_start+0x2634>
   2a320:	f000 fcda 	bl	2acd8 <_start+0x2fdc>
   2a324:	00001404 	.word	0x00001404
   2a328:	00000ee0 	.word	0x00000ee0
   2a32c:	000013a8 	.word	0x000013a8
   2a330:	4819      	ldr	r0, [pc, #100]	@ (2a398 <_start+0x269c>)
   2a332:	4468      	add	r0, sp
   2a334:	78c1      	ldrb	r1, [r0, #3]
   2a336:	4c19      	ldr	r4, [pc, #100]	@ (2a39c <_start+0x26a0>)
   2a338:	446c      	add	r4, sp
   2a33a:	70a1      	strb	r1, [r4, #2]
   2a33c:	7841      	ldrb	r1, [r0, #1]
   2a33e:	7882      	ldrb	r2, [r0, #2]
   2a340:	0212      	lsls	r2, r2, #8
   2a342:	1851      	adds	r1, r2, r1
   2a344:	8021      	strh	r1, [r4, #0]
   2a346:	3008      	adds	r0, #8
   2a348:	9908      	ldr	r1, [sp, #32]
   2a34a:	6e09      	ldr	r1, [r1, #96]	@ 0x60
   2a34c:	910a      	str	r1, [sp, #40]	@ 0x28
   2a34e:	4b14      	ldr	r3, [pc, #80]	@ (2a3a0 <_start+0x26a4>)
   2a350:	446b      	add	r3, sp
   2a352:	930b      	str	r3, [sp, #44]	@ 0x2c
   2a354:	c864      	ldmia	r0!, {r2, r5, r6}
   2a356:	c364      	stmia	r3!, {r2, r5, r6}
   2a358:	c866      	ldmia	r0!, {r1, r2, r5, r6}
   2a35a:	c366      	stmia	r3!, {r1, r2, r5, r6}
   2a35c:	c826      	ldmia	r0!, {r1, r2, r5}
   2a35e:	c326      	stmia	r3!, {r1, r2, r5}
   2a360:	c866      	ldmia	r0!, {r1, r2, r5, r6}
   2a362:	c366      	stmia	r3!, {r1, r2, r5, r6}
   2a364:	8800      	ldrh	r0, [r0, #0]
   2a366:	8018      	strh	r0, [r3, #0]
   2a368:	990a      	ldr	r1, [sp, #40]	@ 0x28
   2a36a:	0e08      	lsrs	r0, r1, #24
   2a36c:	71a0      	strb	r0, [r4, #6]
   2a36e:	0c08      	lsrs	r0, r1, #16
   2a370:	7160      	strb	r0, [r4, #5]
   2a372:	0a08      	lsrs	r0, r1, #8
   2a374:	7120      	strb	r0, [r4, #4]
   2a376:	70e1      	strb	r1, [r4, #3]
   2a378:	1de0      	adds	r0, r4, #7
   2a37a:	223a      	movs	r2, #58	@ 0x3a
   2a37c:	990b      	ldr	r1, [sp, #44]	@ 0x2c
   2a37e:	f000 fec1 	bl	2b104 <__aeabi_memcpy>
   2a382:	4d05      	ldr	r5, [pc, #20]	@ (2a398 <_start+0x269c>)
   2a384:	446d      	add	r5, sp
   2a386:	4628      	mov	r0, r5
   2a388:	4621      	mov	r1, r4
   2a38a:	f7fc fd6f 	bl	26e6c <_ZN20complex_dynamic_type3app17hdd692f40101f08b8E>
   2a38e:	7828      	ldrb	r0, [r5, #0]
   2a390:	2801      	cmp	r0, #1
   2a392:	d107      	bne.n	2a3a4 <_start+0x26a8>
   2a394:	f000 fca0 	bl	2acd8 <_start+0x2fdc>
   2a398:	00001404 	.word	0x00001404
   2a39c:	00000efc 	.word	0x00000efc
   2a3a0:	000013a8 	.word	0x000013a8
   2a3a4:	4816      	ldr	r0, [pc, #88]	@ (2a400 <_start+0x2704>)
   2a3a6:	4468      	add	r0, sp
   2a3a8:	78c1      	ldrb	r1, [r0, #3]
   2a3aa:	4c16      	ldr	r4, [pc, #88]	@ (2a404 <_start+0x2708>)
   2a3ac:	446c      	add	r4, sp
   2a3ae:	70a1      	strb	r1, [r4, #2]
   2a3b0:	7841      	ldrb	r1, [r0, #1]
   2a3b2:	7882      	ldrb	r2, [r0, #2]
   2a3b4:	0212      	lsls	r2, r2, #8
   2a3b6:	1851      	adds	r1, r2, r1
   2a3b8:	8021      	strh	r1, [r4, #0]
   2a3ba:	3008      	adds	r0, #8
   2a3bc:	9908      	ldr	r1, [sp, #32]
   2a3be:	6e09      	ldr	r1, [r1, #96]	@ 0x60
   2a3c0:	910a      	str	r1, [sp, #40]	@ 0x28
   2a3c2:	4b11      	ldr	r3, [pc, #68]	@ (2a408 <_start+0x270c>)
   2a3c4:	446b      	add	r3, sp
   2a3c6:	930b      	str	r3, [sp, #44]	@ 0x2c
   2a3c8:	c866      	ldmia	r0!, {r1, r2, r5, r6}
   2a3ca:	c366      	stmia	r3!, {r1, r2, r5, r6}
   2a3cc:	7800      	ldrb	r0, [r0, #0]
   2a3ce:	7018      	strb	r0, [r3, #0]
   2a3d0:	990a      	ldr	r1, [sp, #40]	@ 0x28
   2a3d2:	0e08      	lsrs	r0, r1, #24
   2a3d4:	71a0      	strb	r0, [r4, #6]
   2a3d6:	0c08      	lsrs	r0, r1, #16
   2a3d8:	7160      	strb	r0, [r4, #5]
   2a3da:	0a08      	lsrs	r0, r1, #8
   2a3dc:	7120      	strb	r0, [r4, #4]
   2a3de:	70e1      	strb	r1, [r4, #3]
   2a3e0:	1de0      	adds	r0, r4, #7
   2a3e2:	2211      	movs	r2, #17
   2a3e4:	990b      	ldr	r1, [sp, #44]	@ 0x2c
   2a3e6:	f000 fe8d 	bl	2b104 <__aeabi_memcpy>
   2a3ea:	4d05      	ldr	r5, [pc, #20]	@ (2a400 <_start+0x2704>)
   2a3ec:	446d      	add	r5, sp
   2a3ee:	4628      	mov	r0, r5
   2a3f0:	4621      	mov	r1, r4
   2a3f2:	f7fa fcbd 	bl	24d70 <_ZN20complex_dynamic_type3app17h9b4588379009bb1dE>
   2a3f6:	7828      	ldrb	r0, [r5, #0]
   2a3f8:	2801      	cmp	r0, #1
   2a3fa:	d107      	bne.n	2a40c <_start+0x2710>
   2a3fc:	f000 fc6c 	bl	2acd8 <_start+0x2fdc>
   2a400:	00001404 	.word	0x00001404
   2a404:	00000f40 	.word	0x00000f40
   2a408:	000013a8 	.word	0x000013a8
   2a40c:	4817      	ldr	r0, [pc, #92]	@ (2a46c <_start+0x2770>)
   2a40e:	4468      	add	r0, sp
   2a410:	78c1      	ldrb	r1, [r0, #3]
   2a412:	4c17      	ldr	r4, [pc, #92]	@ (2a470 <_start+0x2774>)
   2a414:	446c      	add	r4, sp
   2a416:	70a1      	strb	r1, [r4, #2]
   2a418:	7841      	ldrb	r1, [r0, #1]
   2a41a:	7882      	ldrb	r2, [r0, #2]
   2a41c:	0212      	lsls	r2, r2, #8
   2a41e:	1851      	adds	r1, r2, r1
   2a420:	8021      	strh	r1, [r4, #0]
   2a422:	3008      	adds	r0, #8
   2a424:	9908      	ldr	r1, [sp, #32]
   2a426:	6e09      	ldr	r1, [r1, #96]	@ 0x60
   2a428:	4b12      	ldr	r3, [pc, #72]	@ (2a474 <_start+0x2778>)
   2a42a:	446b      	add	r3, sp
   2a42c:	930b      	str	r3, [sp, #44]	@ 0x2c
   2a42e:	c860      	ldmia	r0!, {r5, r6}
   2a430:	c360      	stmia	r3!, {r5, r6}
   2a432:	c864      	ldmia	r0!, {r2, r5, r6}
   2a434:	c364      	stmia	r3!, {r2, r5, r6}
   2a436:	8802      	ldrh	r2, [r0, #0]
   2a438:	801a      	strh	r2, [r3, #0]
   2a43a:	7880      	ldrb	r0, [r0, #2]
   2a43c:	7098      	strb	r0, [r3, #2]
   2a43e:	0e08      	lsrs	r0, r1, #24
   2a440:	71a0      	strb	r0, [r4, #6]
   2a442:	0c08      	lsrs	r0, r1, #16
   2a444:	7160      	strb	r0, [r4, #5]
   2a446:	0a08      	lsrs	r0, r1, #8
   2a448:	7120      	strb	r0, [r4, #4]
   2a44a:	70e1      	strb	r1, [r4, #3]
   2a44c:	1de0      	adds	r0, r4, #7
   2a44e:	2217      	movs	r2, #23
   2a450:	990b      	ldr	r1, [sp, #44]	@ 0x2c
   2a452:	f000 fe57 	bl	2b104 <__aeabi_memcpy>
   2a456:	4d05      	ldr	r5, [pc, #20]	@ (2a46c <_start+0x2770>)
   2a458:	446d      	add	r5, sp
   2a45a:	4628      	mov	r0, r5
   2a45c:	4621      	mov	r1, r4
   2a45e:	f7fb f9d3 	bl	25808 <_ZN20complex_dynamic_type3app17hbc6ca88a4c7f6cc0E>
   2a462:	7828      	ldrb	r0, [r5, #0]
   2a464:	2801      	cmp	r0, #1
   2a466:	d107      	bne.n	2a478 <_start+0x277c>
   2a468:	f000 fc36 	bl	2acd8 <_start+0x2fdc>
   2a46c:	00001404 	.word	0x00001404
   2a470:	00000f58 	.word	0x00000f58
   2a474:	000013a8 	.word	0x000013a8
   2a478:	4819      	ldr	r0, [pc, #100]	@ (2a4e0 <_start+0x27e4>)
   2a47a:	4468      	add	r0, sp
   2a47c:	78c1      	ldrb	r1, [r0, #3]
   2a47e:	4c19      	ldr	r4, [pc, #100]	@ (2a4e4 <_start+0x27e8>)
   2a480:	446c      	add	r4, sp
   2a482:	70a1      	strb	r1, [r4, #2]
   2a484:	7841      	ldrb	r1, [r0, #1]
   2a486:	7882      	ldrb	r2, [r0, #2]
   2a488:	0212      	lsls	r2, r2, #8
   2a48a:	1851      	adds	r1, r2, r1
   2a48c:	8021      	strh	r1, [r4, #0]
   2a48e:	3008      	adds	r0, #8
   2a490:	9908      	ldr	r1, [sp, #32]
   2a492:	6e09      	ldr	r1, [r1, #96]	@ 0x60
   2a494:	910a      	str	r1, [sp, #40]	@ 0x28
   2a496:	4b14      	ldr	r3, [pc, #80]	@ (2a4e8 <_start+0x27ec>)
   2a498:	446b      	add	r3, sp
   2a49a:	930b      	str	r3, [sp, #44]	@ 0x2c
   2a49c:	c864      	ldmia	r0!, {r2, r5, r6}
   2a49e:	c364      	stmia	r3!, {r2, r5, r6}
   2a4a0:	c864      	ldmia	r0!, {r2, r5, r6}
   2a4a2:	c364      	stmia	r3!, {r2, r5, r6}
   2a4a4:	c864      	ldmia	r0!, {r2, r5, r6}
   2a4a6:	c364      	stmia	r3!, {r2, r5, r6}
   2a4a8:	c866      	ldmia	r0!, {r1, r2, r5, r6}
   2a4aa:	c366      	stmia	r3!, {r1, r2, r5, r6}
   2a4ac:	7800      	ldrb	r0, [r0, #0]
   2a4ae:	7018      	strb	r0, [r3, #0]
   2a4b0:	990a      	ldr	r1, [sp, #40]	@ 0x28
   2a4b2:	0e08      	lsrs	r0, r1, #24
   2a4b4:	71a0      	strb	r0, [r4, #6]
   2a4b6:	0c08      	lsrs	r0, r1, #16
   2a4b8:	7160      	strb	r0, [r4, #5]
   2a4ba:	0a08      	lsrs	r0, r1, #8
   2a4bc:	7120      	strb	r0, [r4, #4]
   2a4be:	70e1      	strb	r1, [r4, #3]
   2a4c0:	1de0      	adds	r0, r4, #7
   2a4c2:	2235      	movs	r2, #53	@ 0x35
   2a4c4:	990b      	ldr	r1, [sp, #44]	@ 0x2c
   2a4c6:	f000 fe1d 	bl	2b104 <__aeabi_memcpy>
   2a4ca:	4d05      	ldr	r5, [pc, #20]	@ (2a4e0 <_start+0x27e4>)
   2a4cc:	446d      	add	r5, sp
   2a4ce:	4628      	mov	r0, r5
   2a4d0:	4621      	mov	r1, r4
   2a4d2:	f7f9 ff0d 	bl	242f0 <_ZN20complex_dynamic_type3app17h8db354a7c0870e84E>
   2a4d6:	7828      	ldrb	r0, [r5, #0]
   2a4d8:	2801      	cmp	r0, #1
   2a4da:	d107      	bne.n	2a4ec <_start+0x27f0>
   2a4dc:	e3fc      	b.n	2acd8 <_start+0x2fdc>
   2a4de:	46c0      	nop			@ (mov r8, r8)
   2a4e0:	00001404 	.word	0x00001404
   2a4e4:	00000f78 	.word	0x00000f78
   2a4e8:	000013a8 	.word	0x000013a8
   2a4ec:	4817      	ldr	r0, [pc, #92]	@ (2a54c <_start+0x2850>)
   2a4ee:	4468      	add	r0, sp
   2a4f0:	78c1      	ldrb	r1, [r0, #3]
   2a4f2:	4c17      	ldr	r4, [pc, #92]	@ (2a550 <_start+0x2854>)
   2a4f4:	446c      	add	r4, sp
   2a4f6:	70a1      	strb	r1, [r4, #2]
   2a4f8:	7841      	ldrb	r1, [r0, #1]
   2a4fa:	7882      	ldrb	r2, [r0, #2]
   2a4fc:	0212      	lsls	r2, r2, #8
   2a4fe:	1851      	adds	r1, r2, r1
   2a500:	8021      	strh	r1, [r4, #0]
   2a502:	3008      	adds	r0, #8
   2a504:	9908      	ldr	r1, [sp, #32]
   2a506:	6e09      	ldr	r1, [r1, #96]	@ 0x60
   2a508:	4b12      	ldr	r3, [pc, #72]	@ (2a554 <_start+0x2858>)
   2a50a:	446b      	add	r3, sp
   2a50c:	930b      	str	r3, [sp, #44]	@ 0x2c
   2a50e:	c864      	ldmia	r0!, {r2, r5, r6}
   2a510:	c364      	stmia	r3!, {r2, r5, r6}
   2a512:	c864      	ldmia	r0!, {r2, r5, r6}
   2a514:	c364      	stmia	r3!, {r2, r5, r6}
   2a516:	c864      	ldmia	r0!, {r2, r5, r6}
   2a518:	c364      	stmia	r3!, {r2, r5, r6}
   2a51a:	7800      	ldrb	r0, [r0, #0]
   2a51c:	7018      	strb	r0, [r3, #0]
   2a51e:	0e08      	lsrs	r0, r1, #24
   2a520:	71a0      	strb	r0, [r4, #6]
   2a522:	0c08      	lsrs	r0, r1, #16
   2a524:	7160      	strb	r0, [r4, #5]
   2a526:	0a08      	lsrs	r0, r1, #8
   2a528:	7120      	strb	r0, [r4, #4]
   2a52a:	70e1      	strb	r1, [r4, #3]
   2a52c:	1de0      	adds	r0, r4, #7
   2a52e:	2225      	movs	r2, #37	@ 0x25
   2a530:	990b      	ldr	r1, [sp, #44]	@ 0x2c
   2a532:	f000 fde7 	bl	2b104 <__aeabi_memcpy>
   2a536:	4d05      	ldr	r5, [pc, #20]	@ (2a54c <_start+0x2850>)
   2a538:	446d      	add	r5, sp
   2a53a:	4628      	mov	r0, r5
   2a53c:	4621      	mov	r1, r4
   2a53e:	f7fa fac9 	bl	24ad4 <_ZN20complex_dynamic_type3app17h9806aa90f2025929E>
   2a542:	7828      	ldrb	r0, [r5, #0]
   2a544:	2801      	cmp	r0, #1
   2a546:	d107      	bne.n	2a558 <_start+0x285c>
   2a548:	e3c6      	b.n	2acd8 <_start+0x2fdc>
   2a54a:	46c0      	nop			@ (mov r8, r8)
   2a54c:	00001404 	.word	0x00001404
   2a550:	00000fb4 	.word	0x00000fb4
   2a554:	000013a8 	.word	0x000013a8
   2a558:	4816      	ldr	r0, [pc, #88]	@ (2a5b4 <_start+0x28b8>)
   2a55a:	4468      	add	r0, sp
   2a55c:	78c1      	ldrb	r1, [r0, #3]
   2a55e:	4c16      	ldr	r4, [pc, #88]	@ (2a5b8 <_start+0x28bc>)
   2a560:	446c      	add	r4, sp
   2a562:	70a1      	strb	r1, [r4, #2]
   2a564:	7841      	ldrb	r1, [r0, #1]
   2a566:	7882      	ldrb	r2, [r0, #2]
   2a568:	0212      	lsls	r2, r2, #8
   2a56a:	1851      	adds	r1, r2, r1
   2a56c:	8021      	strh	r1, [r4, #0]
   2a56e:	3008      	adds	r0, #8
   2a570:	9908      	ldr	r1, [sp, #32]
   2a572:	6e09      	ldr	r1, [r1, #96]	@ 0x60
   2a574:	910a      	str	r1, [sp, #40]	@ 0x28
   2a576:	4b11      	ldr	r3, [pc, #68]	@ (2a5bc <_start+0x28c0>)
   2a578:	446b      	add	r3, sp
   2a57a:	930b      	str	r3, [sp, #44]	@ 0x2c
   2a57c:	c866      	ldmia	r0!, {r1, r2, r5, r6}
   2a57e:	c366      	stmia	r3!, {r1, r2, r5, r6}
   2a580:	c866      	ldmia	r0!, {r1, r2, r5, r6}
   2a582:	c366      	stmia	r3!, {r1, r2, r5, r6}
   2a584:	990a      	ldr	r1, [sp, #40]	@ 0x28
   2a586:	0e08      	lsrs	r0, r1, #24
   2a588:	71a0      	strb	r0, [r4, #6]
   2a58a:	0c08      	lsrs	r0, r1, #16
   2a58c:	7160      	strb	r0, [r4, #5]
   2a58e:	0a08      	lsrs	r0, r1, #8
   2a590:	7120      	strb	r0, [r4, #4]
   2a592:	70e1      	strb	r1, [r4, #3]
   2a594:	1de0      	adds	r0, r4, #7
   2a596:	2220      	movs	r2, #32
   2a598:	990b      	ldr	r1, [sp, #44]	@ 0x2c
   2a59a:	f000 fdb3 	bl	2b104 <__aeabi_memcpy>
   2a59e:	4d05      	ldr	r5, [pc, #20]	@ (2a5b4 <_start+0x28b8>)
   2a5a0:	446d      	add	r5, sp
   2a5a2:	4628      	mov	r0, r5
   2a5a4:	4621      	mov	r1, r4
   2a5a6:	f7f9 fb5b 	bl	23c60 <_ZN20complex_dynamic_type3app17h86b04bdbbd8b2cb1E>
   2a5aa:	7828      	ldrb	r0, [r5, #0]
   2a5ac:	2801      	cmp	r0, #1
   2a5ae:	d107      	bne.n	2a5c0 <_start+0x28c4>
   2a5b0:	e392      	b.n	2acd8 <_start+0x2fdc>
   2a5b2:	46c0      	nop			@ (mov r8, r8)
   2a5b4:	00001404 	.word	0x00001404
   2a5b8:	00000fe0 	.word	0x00000fe0
   2a5bc:	000013a8 	.word	0x000013a8
   2a5c0:	4915      	ldr	r1, [pc, #84]	@ (2a618 <_start+0x291c>)
   2a5c2:	4469      	add	r1, sp
   2a5c4:	78c8      	ldrb	r0, [r1, #3]
   2a5c6:	4c15      	ldr	r4, [pc, #84]	@ (2a61c <_start+0x2920>)
   2a5c8:	446c      	add	r4, sp
   2a5ca:	70a0      	strb	r0, [r4, #2]
   2a5cc:	7848      	ldrb	r0, [r1, #1]
   2a5ce:	788a      	ldrb	r2, [r1, #2]
   2a5d0:	0212      	lsls	r2, r2, #8
   2a5d2:	1810      	adds	r0, r2, r0
   2a5d4:	8020      	strh	r0, [r4, #0]
   2a5d6:	9808      	ldr	r0, [sp, #32]
   2a5d8:	6e05      	ldr	r5, [r0, #96]	@ 0x60
   2a5da:	3108      	adds	r1, #8
   2a5dc:	4810      	ldr	r0, [pc, #64]	@ (2a620 <_start+0x2924>)
   2a5de:	4468      	add	r0, sp
   2a5e0:	900b      	str	r0, [sp, #44]	@ 0x2c
   2a5e2:	2648      	movs	r6, #72	@ 0x48
   2a5e4:	4632      	mov	r2, r6
   2a5e6:	f000 fc2d 	bl	2ae44 <__aeabi_memcpy4>
   2a5ea:	0e28      	lsrs	r0, r5, #24
   2a5ec:	71a0      	strb	r0, [r4, #6]
   2a5ee:	0c28      	lsrs	r0, r5, #16
   2a5f0:	7160      	strb	r0, [r4, #5]
   2a5f2:	0a28      	lsrs	r0, r5, #8
   2a5f4:	7120      	strb	r0, [r4, #4]
   2a5f6:	70e5      	strb	r5, [r4, #3]
   2a5f8:	1de0      	adds	r0, r4, #7
   2a5fa:	990b      	ldr	r1, [sp, #44]	@ 0x2c
   2a5fc:	4632      	mov	r2, r6
   2a5fe:	f000 fd81 	bl	2b104 <__aeabi_memcpy>
   2a602:	4d05      	ldr	r5, [pc, #20]	@ (2a618 <_start+0x291c>)
   2a604:	446d      	add	r5, sp
   2a606:	4628      	mov	r0, r5
   2a608:	4621      	mov	r1, r4
   2a60a:	f7fd facf 	bl	27bac <_ZN20complex_dynamic_type3app17hfdefcf08de6c8e11E>
   2a60e:	7828      	ldrb	r0, [r5, #0]
   2a610:	2801      	cmp	r0, #1
   2a612:	d107      	bne.n	2a624 <_start+0x2928>
   2a614:	e360      	b.n	2acd8 <_start+0x2fdc>
   2a616:	46c0      	nop			@ (mov r8, r8)
   2a618:	00001404 	.word	0x00001404
   2a61c:	00001008 	.word	0x00001008
   2a620:	000013a8 	.word	0x000013a8
   2a624:	4818      	ldr	r0, [pc, #96]	@ (2a688 <_start+0x298c>)
   2a626:	4468      	add	r0, sp
   2a628:	78c1      	ldrb	r1, [r0, #3]
   2a62a:	4c18      	ldr	r4, [pc, #96]	@ (2a68c <_start+0x2990>)
   2a62c:	446c      	add	r4, sp
   2a62e:	70a1      	strb	r1, [r4, #2]
   2a630:	7841      	ldrb	r1, [r0, #1]
   2a632:	7882      	ldrb	r2, [r0, #2]
   2a634:	0212      	lsls	r2, r2, #8
   2a636:	1851      	adds	r1, r2, r1
   2a638:	8021      	strh	r1, [r4, #0]
   2a63a:	3008      	adds	r0, #8
   2a63c:	9908      	ldr	r1, [sp, #32]
   2a63e:	6e09      	ldr	r1, [r1, #96]	@ 0x60
   2a640:	910a      	str	r1, [sp, #40]	@ 0x28
   2a642:	4b13      	ldr	r3, [pc, #76]	@ (2a690 <_start+0x2994>)
   2a644:	446b      	add	r3, sp
   2a646:	930b      	str	r3, [sp, #44]	@ 0x2c
   2a648:	c864      	ldmia	r0!, {r2, r5, r6}
   2a64a:	c364      	stmia	r3!, {r2, r5, r6}
   2a64c:	c866      	ldmia	r0!, {r1, r2, r5, r6}
   2a64e:	c366      	stmia	r3!, {r1, r2, r5, r6}
   2a650:	c866      	ldmia	r0!, {r1, r2, r5, r6}
   2a652:	c366      	stmia	r3!, {r1, r2, r5, r6}
   2a654:	8800      	ldrh	r0, [r0, #0]
   2a656:	8018      	strh	r0, [r3, #0]
   2a658:	990a      	ldr	r1, [sp, #40]	@ 0x28
   2a65a:	0e08      	lsrs	r0, r1, #24
   2a65c:	71a0      	strb	r0, [r4, #6]
   2a65e:	0c08      	lsrs	r0, r1, #16
   2a660:	7160      	strb	r0, [r4, #5]
   2a662:	0a08      	lsrs	r0, r1, #8
   2a664:	7120      	strb	r0, [r4, #4]
   2a666:	70e1      	strb	r1, [r4, #3]
   2a668:	1de0      	adds	r0, r4, #7
   2a66a:	222e      	movs	r2, #46	@ 0x2e
   2a66c:	990b      	ldr	r1, [sp, #44]	@ 0x2c
   2a66e:	f000 fd49 	bl	2b104 <__aeabi_memcpy>
   2a672:	4d05      	ldr	r5, [pc, #20]	@ (2a688 <_start+0x298c>)
   2a674:	446d      	add	r5, sp
   2a676:	4628      	mov	r0, r5
   2a678:	4621      	mov	r1, r4
   2a67a:	f7fb f81d 	bl	256b8 <_ZN20complex_dynamic_type3app17hb7ee3c959d370b18E>
   2a67e:	7828      	ldrb	r0, [r5, #0]
   2a680:	2801      	cmp	r0, #1
   2a682:	d107      	bne.n	2a694 <_start+0x2998>
   2a684:	e328      	b.n	2acd8 <_start+0x2fdc>
   2a686:	46c0      	nop			@ (mov r8, r8)
   2a688:	00001404 	.word	0x00001404
   2a68c:	00001058 	.word	0x00001058
   2a690:	000013a8 	.word	0x000013a8
   2a694:	4818      	ldr	r0, [pc, #96]	@ (2a6f8 <_start+0x29fc>)
   2a696:	4468      	add	r0, sp
   2a698:	78c1      	ldrb	r1, [r0, #3]
   2a69a:	4c18      	ldr	r4, [pc, #96]	@ (2a6fc <_start+0x2a00>)
   2a69c:	446c      	add	r4, sp
   2a69e:	70a1      	strb	r1, [r4, #2]
   2a6a0:	7841      	ldrb	r1, [r0, #1]
   2a6a2:	7882      	ldrb	r2, [r0, #2]
   2a6a4:	0212      	lsls	r2, r2, #8
   2a6a6:	1851      	adds	r1, r2, r1
   2a6a8:	8021      	strh	r1, [r4, #0]
   2a6aa:	3008      	adds	r0, #8
   2a6ac:	9908      	ldr	r1, [sp, #32]
   2a6ae:	6e09      	ldr	r1, [r1, #96]	@ 0x60
   2a6b0:	910a      	str	r1, [sp, #40]	@ 0x28
   2a6b2:	4b13      	ldr	r3, [pc, #76]	@ (2a700 <_start+0x2a04>)
   2a6b4:	446b      	add	r3, sp
   2a6b6:	930b      	str	r3, [sp, #44]	@ 0x2c
   2a6b8:	c864      	ldmia	r0!, {r2, r5, r6}
   2a6ba:	c364      	stmia	r3!, {r2, r5, r6}
   2a6bc:	c866      	ldmia	r0!, {r1, r2, r5, r6}
   2a6be:	c366      	stmia	r3!, {r1, r2, r5, r6}
   2a6c0:	c826      	ldmia	r0!, {r1, r2, r5}
   2a6c2:	c326      	stmia	r3!, {r1, r2, r5}
   2a6c4:	c866      	ldmia	r0!, {r1, r2, r5, r6}
   2a6c6:	c366      	stmia	r3!, {r1, r2, r5, r6}
   2a6c8:	990a      	ldr	r1, [sp, #40]	@ 0x28
   2a6ca:	0e08      	lsrs	r0, r1, #24
   2a6cc:	71a0      	strb	r0, [r4, #6]
   2a6ce:	0c08      	lsrs	r0, r1, #16
   2a6d0:	7160      	strb	r0, [r4, #5]
   2a6d2:	0a08      	lsrs	r0, r1, #8
   2a6d4:	7120      	strb	r0, [r4, #4]
   2a6d6:	70e1      	strb	r1, [r4, #3]
   2a6d8:	1de0      	adds	r0, r4, #7
   2a6da:	2238      	movs	r2, #56	@ 0x38
   2a6dc:	990b      	ldr	r1, [sp, #44]	@ 0x2c
   2a6de:	f000 fd11 	bl	2b104 <__aeabi_memcpy>
   2a6e2:	4d05      	ldr	r5, [pc, #20]	@ (2a6f8 <_start+0x29fc>)
   2a6e4:	446d      	add	r5, sp
   2a6e6:	4628      	mov	r0, r5
   2a6e8:	4621      	mov	r1, r4
   2a6ea:	f7fb fb31 	bl	25d50 <_ZN20complex_dynamic_type3app17hc29184f8d2dfaa0bE>
   2a6ee:	7828      	ldrb	r0, [r5, #0]
   2a6f0:	2801      	cmp	r0, #1
   2a6f2:	d107      	bne.n	2a704 <_start+0x2a08>
   2a6f4:	e2f0      	b.n	2acd8 <_start+0x2fdc>
   2a6f6:	46c0      	nop			@ (mov r8, r8)
   2a6f8:	00001404 	.word	0x00001404
   2a6fc:	00001090 	.word	0x00001090
   2a700:	000013a8 	.word	0x000013a8
   2a704:	4914      	ldr	r1, [pc, #80]	@ (2a758 <_start+0x2a5c>)
   2a706:	4469      	add	r1, sp
   2a708:	9b08      	ldr	r3, [sp, #32]
   2a70a:	6ed8      	ldr	r0, [r3, #108]	@ 0x6c
   2a70c:	8108      	strh	r0, [r1, #8]
   2a70e:	4813      	ldr	r0, [pc, #76]	@ (2a75c <_start+0x2a60>)
   2a710:	4468      	add	r0, sp
   2a712:	78c2      	ldrb	r2, [r0, #3]
   2a714:	4c12      	ldr	r4, [pc, #72]	@ (2a760 <_start+0x2a64>)
   2a716:	446c      	add	r4, sp
   2a718:	70a2      	strb	r2, [r4, #2]
   2a71a:	7842      	ldrb	r2, [r0, #1]
   2a71c:	7880      	ldrb	r0, [r0, #2]
   2a71e:	0200      	lsls	r0, r0, #8
   2a720:	1880      	adds	r0, r0, r2
   2a722:	8020      	strh	r0, [r4, #0]
   2a724:	6e18      	ldr	r0, [r3, #96]	@ 0x60
   2a726:	70e0      	strb	r0, [r4, #3]
   2a728:	0e02      	lsrs	r2, r0, #24
   2a72a:	71a2      	strb	r2, [r4, #6]
   2a72c:	0c02      	lsrs	r2, r0, #16
   2a72e:	7162      	strb	r2, [r4, #5]
   2a730:	0a00      	lsrs	r0, r0, #8
   2a732:	7120      	strb	r0, [r4, #4]
   2a734:	6e58      	ldr	r0, [r3, #100]	@ 0x64
   2a736:	6e9a      	ldr	r2, [r3, #104]	@ 0x68
   2a738:	c305      	stmia	r3!, {r0, r2}
   2a73a:	1de0      	adds	r0, r4, #7
   2a73c:	220a      	movs	r2, #10
   2a73e:	f000 fce1 	bl	2b104 <__aeabi_memcpy>
   2a742:	4d06      	ldr	r5, [pc, #24]	@ (2a75c <_start+0x2a60>)
   2a744:	446d      	add	r5, sp
   2a746:	4628      	mov	r0, r5
   2a748:	4621      	mov	r1, r4
   2a74a:	f7fa fc65 	bl	25018 <_ZN20complex_dynamic_type3app17h9f9b66846b91398aE>
   2a74e:	7828      	ldrb	r0, [r5, #0]
   2a750:	2801      	cmp	r0, #1
   2a752:	d107      	bne.n	2a764 <_start+0x2a68>
   2a754:	e2c0      	b.n	2acd8 <_start+0x2fdc>
   2a756:	46c0      	nop			@ (mov r8, r8)
   2a758:	000013a8 	.word	0x000013a8
   2a75c:	00001404 	.word	0x00001404
   2a760:	000010d0 	.word	0x000010d0
   2a764:	4818      	ldr	r0, [pc, #96]	@ (2a7c8 <_start+0x2acc>)
   2a766:	4468      	add	r0, sp
   2a768:	78c1      	ldrb	r1, [r0, #3]
   2a76a:	4c18      	ldr	r4, [pc, #96]	@ (2a7cc <_start+0x2ad0>)
   2a76c:	446c      	add	r4, sp
   2a76e:	70a1      	strb	r1, [r4, #2]
   2a770:	7841      	ldrb	r1, [r0, #1]
   2a772:	7882      	ldrb	r2, [r0, #2]
   2a774:	0212      	lsls	r2, r2, #8
   2a776:	1851      	adds	r1, r2, r1
   2a778:	8021      	strh	r1, [r4, #0]
   2a77a:	3008      	adds	r0, #8
   2a77c:	9908      	ldr	r1, [sp, #32]
   2a77e:	6e09      	ldr	r1, [r1, #96]	@ 0x60
   2a780:	910a      	str	r1, [sp, #40]	@ 0x28
   2a782:	4b13      	ldr	r3, [pc, #76]	@ (2a7d0 <_start+0x2ad4>)
   2a784:	446b      	add	r3, sp
   2a786:	930b      	str	r3, [sp, #44]	@ 0x2c
   2a788:	c864      	ldmia	r0!, {r2, r5, r6}
   2a78a:	c364      	stmia	r3!, {r2, r5, r6}
   2a78c:	c866      	ldmia	r0!, {r1, r2, r5, r6}
   2a78e:	c366      	stmia	r3!, {r1, r2, r5, r6}
   2a790:	c826      	ldmia	r0!, {r1, r2, r5}
   2a792:	c326      	stmia	r3!, {r1, r2, r5}
   2a794:	c866      	ldmia	r0!, {r1, r2, r5, r6}
   2a796:	c366      	stmia	r3!, {r1, r2, r5, r6}
   2a798:	990a      	ldr	r1, [sp, #40]	@ 0x28
   2a79a:	0e08      	lsrs	r0, r1, #24
   2a79c:	71a0      	strb	r0, [r4, #6]
   2a79e:	0c08      	lsrs	r0, r1, #16
   2a7a0:	7160      	strb	r0, [r4, #5]
   2a7a2:	0a08      	lsrs	r0, r1, #8
   2a7a4:	7120      	strb	r0, [r4, #4]
   2a7a6:	70e1      	strb	r1, [r4, #3]
   2a7a8:	1de0      	adds	r0, r4, #7
   2a7aa:	2238      	movs	r2, #56	@ 0x38
   2a7ac:	990b      	ldr	r1, [sp, #44]	@ 0x2c
   2a7ae:	f000 fca9 	bl	2b104 <__aeabi_memcpy>
   2a7b2:	4d05      	ldr	r5, [pc, #20]	@ (2a7c8 <_start+0x2acc>)
   2a7b4:	446d      	add	r5, sp
   2a7b6:	4628      	mov	r0, r5
   2a7b8:	4621      	mov	r1, r4
   2a7ba:	f7f6 f9dd 	bl	20b78 <_ZN20complex_dynamic_type3app17h0e7edd768080d200E>
   2a7be:	7828      	ldrb	r0, [r5, #0]
   2a7c0:	2801      	cmp	r0, #1
   2a7c2:	d107      	bne.n	2a7d4 <_start+0x2ad8>
   2a7c4:	e288      	b.n	2acd8 <_start+0x2fdc>
   2a7c6:	46c0      	nop			@ (mov r8, r8)
   2a7c8:	00001404 	.word	0x00001404
   2a7cc:	000010e4 	.word	0x000010e4
   2a7d0:	000013a8 	.word	0x000013a8
   2a7d4:	4816      	ldr	r0, [pc, #88]	@ (2a830 <_start+0x2b34>)
   2a7d6:	4468      	add	r0, sp
   2a7d8:	78c1      	ldrb	r1, [r0, #3]
   2a7da:	4c16      	ldr	r4, [pc, #88]	@ (2a834 <_start+0x2b38>)
   2a7dc:	446c      	add	r4, sp
   2a7de:	70a1      	strb	r1, [r4, #2]
   2a7e0:	7841      	ldrb	r1, [r0, #1]
   2a7e2:	7882      	ldrb	r2, [r0, #2]
   2a7e4:	0212      	lsls	r2, r2, #8
   2a7e6:	1851      	adds	r1, r2, r1
   2a7e8:	8021      	strh	r1, [r4, #0]
   2a7ea:	3008      	adds	r0, #8
   2a7ec:	9908      	ldr	r1, [sp, #32]
   2a7ee:	6e09      	ldr	r1, [r1, #96]	@ 0x60
   2a7f0:	4b11      	ldr	r3, [pc, #68]	@ (2a838 <_start+0x2b3c>)
   2a7f2:	446b      	add	r3, sp
   2a7f4:	930b      	str	r3, [sp, #44]	@ 0x2c
   2a7f6:	c860      	ldmia	r0!, {r5, r6}
   2a7f8:	c360      	stmia	r3!, {r5, r6}
   2a7fa:	c864      	ldmia	r0!, {r2, r5, r6}
   2a7fc:	c364      	stmia	r3!, {r2, r5, r6}
   2a7fe:	7800      	ldrb	r0, [r0, #0]
   2a800:	7018      	strb	r0, [r3, #0]
   2a802:	0e08      	lsrs	r0, r1, #24
   2a804:	71a0      	strb	r0, [r4, #6]
   2a806:	0c08      	lsrs	r0, r1, #16
   2a808:	7160      	strb	r0, [r4, #5]
   2a80a:	0a08      	lsrs	r0, r1, #8
   2a80c:	7120      	strb	r0, [r4, #4]
   2a80e:	70e1      	strb	r1, [r4, #3]
   2a810:	1de0      	adds	r0, r4, #7
   2a812:	2215      	movs	r2, #21
   2a814:	990b      	ldr	r1, [sp, #44]	@ 0x2c
   2a816:	f000 fc75 	bl	2b104 <__aeabi_memcpy>
   2a81a:	4d05      	ldr	r5, [pc, #20]	@ (2a830 <_start+0x2b34>)
   2a81c:	446d      	add	r5, sp
   2a81e:	4628      	mov	r0, r5
   2a820:	4621      	mov	r1, r4
   2a822:	f7f7 fa3b 	bl	21c9c <_ZN20complex_dynamic_type3app17h33448ac458654cc8E>
   2a826:	7828      	ldrb	r0, [r5, #0]
   2a828:	2801      	cmp	r0, #1
   2a82a:	d107      	bne.n	2a83c <_start+0x2b40>
   2a82c:	e254      	b.n	2acd8 <_start+0x2fdc>
   2a82e:	46c0      	nop			@ (mov r8, r8)
   2a830:	00001404 	.word	0x00001404
   2a834:	00001124 	.word	0x00001124
   2a838:	000013a8 	.word	0x000013a8
   2a83c:	4915      	ldr	r1, [pc, #84]	@ (2a894 <_start+0x2b98>)
   2a83e:	4469      	add	r1, sp
   2a840:	78c8      	ldrb	r0, [r1, #3]
   2a842:	4c15      	ldr	r4, [pc, #84]	@ (2a898 <_start+0x2b9c>)
   2a844:	446c      	add	r4, sp
   2a846:	70a0      	strb	r0, [r4, #2]
   2a848:	7848      	ldrb	r0, [r1, #1]
   2a84a:	788a      	ldrb	r2, [r1, #2]
   2a84c:	0212      	lsls	r2, r2, #8
   2a84e:	1810      	adds	r0, r2, r0
   2a850:	8020      	strh	r0, [r4, #0]
   2a852:	9808      	ldr	r0, [sp, #32]
   2a854:	6e05      	ldr	r5, [r0, #96]	@ 0x60
   2a856:	3108      	adds	r1, #8
   2a858:	4810      	ldr	r0, [pc, #64]	@ (2a89c <_start+0x2ba0>)
   2a85a:	4468      	add	r0, sp
   2a85c:	900b      	str	r0, [sp, #44]	@ 0x2c
   2a85e:	2656      	movs	r6, #86	@ 0x56
   2a860:	4632      	mov	r2, r6
   2a862:	f000 faef 	bl	2ae44 <__aeabi_memcpy4>
   2a866:	0e28      	lsrs	r0, r5, #24
   2a868:	71a0      	strb	r0, [r4, #6]
   2a86a:	0c28      	lsrs	r0, r5, #16
   2a86c:	7160      	strb	r0, [r4, #5]
   2a86e:	0a28      	lsrs	r0, r5, #8
   2a870:	7120      	strb	r0, [r4, #4]
   2a872:	70e5      	strb	r5, [r4, #3]
   2a874:	1de0      	adds	r0, r4, #7
   2a876:	990b      	ldr	r1, [sp, #44]	@ 0x2c
   2a878:	4632      	mov	r2, r6
   2a87a:	f000 fc43 	bl	2b104 <__aeabi_memcpy>
   2a87e:	4d05      	ldr	r5, [pc, #20]	@ (2a894 <_start+0x2b98>)
   2a880:	446d      	add	r5, sp
   2a882:	4628      	mov	r0, r5
   2a884:	4621      	mov	r1, r4
   2a886:	f7f9 f899 	bl	239bc <_ZN20complex_dynamic_type3app17h820684cb959972e0E>
   2a88a:	7828      	ldrb	r0, [r5, #0]
   2a88c:	2801      	cmp	r0, #1
   2a88e:	d107      	bne.n	2a8a0 <_start+0x2ba4>
   2a890:	e222      	b.n	2acd8 <_start+0x2fdc>
   2a892:	46c0      	nop			@ (mov r8, r8)
   2a894:	00001404 	.word	0x00001404
   2a898:	00001140 	.word	0x00001140
   2a89c:	000013a8 	.word	0x000013a8
   2a8a0:	4915      	ldr	r1, [pc, #84]	@ (2a8f8 <_start+0x2bfc>)
   2a8a2:	4469      	add	r1, sp
   2a8a4:	9b08      	ldr	r3, [sp, #32]
   2a8a6:	6ed8      	ldr	r0, [r3, #108]	@ 0x6c
   2a8a8:	8108      	strh	r0, [r1, #8]
   2a8aa:	4814      	ldr	r0, [pc, #80]	@ (2a8fc <_start+0x2c00>)
   2a8ac:	4468      	add	r0, sp
   2a8ae:	78c2      	ldrb	r2, [r0, #3]
   2a8b0:	4c13      	ldr	r4, [pc, #76]	@ (2a900 <_start+0x2c04>)
   2a8b2:	446c      	add	r4, sp
   2a8b4:	70a2      	strb	r2, [r4, #2]
   2a8b6:	7c82      	ldrb	r2, [r0, #18]
   2a8b8:	728a      	strb	r2, [r1, #10]
   2a8ba:	7842      	ldrb	r2, [r0, #1]
   2a8bc:	7880      	ldrb	r0, [r0, #2]
   2a8be:	0200      	lsls	r0, r0, #8
   2a8c0:	1880      	adds	r0, r0, r2
   2a8c2:	8020      	strh	r0, [r4, #0]
   2a8c4:	6e18      	ldr	r0, [r3, #96]	@ 0x60
   2a8c6:	70e0      	strb	r0, [r4, #3]
   2a8c8:	0e02      	lsrs	r2, r0, #24
   2a8ca:	71a2      	strb	r2, [r4, #6]
   2a8cc:	0c02      	lsrs	r2, r0, #16
   2a8ce:	7162      	strb	r2, [r4, #5]
   2a8d0:	0a00      	lsrs	r0, r0, #8
   2a8d2:	7120      	strb	r0, [r4, #4]
   2a8d4:	6e58      	ldr	r0, [r3, #100]	@ 0x64
   2a8d6:	6e9a      	ldr	r2, [r3, #104]	@ 0x68
   2a8d8:	c305      	stmia	r3!, {r0, r2}
   2a8da:	1de0      	adds	r0, r4, #7
   2a8dc:	220b      	movs	r2, #11
   2a8de:	f000 fc11 	bl	2b104 <__aeabi_memcpy>
   2a8e2:	4d06      	ldr	r5, [pc, #24]	@ (2a8fc <_start+0x2c00>)
   2a8e4:	446d      	add	r5, sp
   2a8e6:	4628      	mov	r0, r5
   2a8e8:	4621      	mov	r1, r4
   2a8ea:	f7fc fcbb 	bl	27264 <_ZN20complex_dynamic_type3app17he27c2dc8c7575843E>
   2a8ee:	7828      	ldrb	r0, [r5, #0]
   2a8f0:	2801      	cmp	r0, #1
   2a8f2:	d107      	bne.n	2a904 <_start+0x2c08>
   2a8f4:	e1f0      	b.n	2acd8 <_start+0x2fdc>
   2a8f6:	46c0      	nop			@ (mov r8, r8)
   2a8f8:	000013a8 	.word	0x000013a8
   2a8fc:	00001404 	.word	0x00001404
   2a900:	000011a0 	.word	0x000011a0
   2a904:	48f6      	ldr	r0, [pc, #984]	@ (2ace0 <_start+0x2fe4>)
   2a906:	4468      	add	r0, sp
   2a908:	78c1      	ldrb	r1, [r0, #3]
   2a90a:	4cf6      	ldr	r4, [pc, #984]	@ (2ace4 <_start+0x2fe8>)
   2a90c:	446c      	add	r4, sp
   2a90e:	70a1      	strb	r1, [r4, #2]
   2a910:	7841      	ldrb	r1, [r0, #1]
   2a912:	7882      	ldrb	r2, [r0, #2]
   2a914:	0212      	lsls	r2, r2, #8
   2a916:	1851      	adds	r1, r2, r1
   2a918:	8021      	strh	r1, [r4, #0]
   2a91a:	3008      	adds	r0, #8
   2a91c:	9908      	ldr	r1, [sp, #32]
   2a91e:	6e09      	ldr	r1, [r1, #96]	@ 0x60
   2a920:	910a      	str	r1, [sp, #40]	@ 0x28
   2a922:	4bf1      	ldr	r3, [pc, #964]	@ (2ace8 <_start+0x2fec>)
   2a924:	446b      	add	r3, sp
   2a926:	930b      	str	r3, [sp, #44]	@ 0x2c
   2a928:	c864      	ldmia	r0!, {r2, r5, r6}
   2a92a:	c364      	stmia	r3!, {r2, r5, r6}
   2a92c:	c866      	ldmia	r0!, {r1, r2, r5, r6}
   2a92e:	c366      	stmia	r3!, {r1, r2, r5, r6}
   2a930:	c866      	ldmia	r0!, {r1, r2, r5, r6}
   2a932:	c366      	stmia	r3!, {r1, r2, r5, r6}
   2a934:	c866      	ldmia	r0!, {r1, r2, r5, r6}
   2a936:	c366      	stmia	r3!, {r1, r2, r5, r6}
   2a938:	7800      	ldrb	r0, [r0, #0]
   2a93a:	7018      	strb	r0, [r3, #0]
   2a93c:	990a      	ldr	r1, [sp, #40]	@ 0x28
   2a93e:	0e08      	lsrs	r0, r1, #24
   2a940:	71a0      	strb	r0, [r4, #6]
   2a942:	0c08      	lsrs	r0, r1, #16
   2a944:	7160      	strb	r0, [r4, #5]
   2a946:	0a08      	lsrs	r0, r1, #8
   2a948:	7120      	strb	r0, [r4, #4]
   2a94a:	70e1      	strb	r1, [r4, #3]
   2a94c:	1de0      	adds	r0, r4, #7
   2a94e:	223d      	movs	r2, #61	@ 0x3d
   2a950:	990b      	ldr	r1, [sp, #44]	@ 0x2c
   2a952:	f000 fbd7 	bl	2b104 <__aeabi_memcpy>
   2a956:	4dfe      	ldr	r5, [pc, #1016]	@ (2ad50 <_start+0x3054>)
   2a958:	446d      	add	r5, sp
   2a95a:	4628      	mov	r0, r5
   2a95c:	4621      	mov	r1, r4
   2a95e:	f7fc f9dd 	bl	26d1c <_ZN20complex_dynamic_type3app17hda41b662dba0582cE>
   2a962:	7828      	ldrb	r0, [r5, #0]
   2a964:	2801      	cmp	r0, #1
   2a966:	d100      	bne.n	2a96a <_start+0x2c6e>
   2a968:	e1b6      	b.n	2acd8 <_start+0x2fdc>
   2a96a:	48f9      	ldr	r0, [pc, #996]	@ (2ad50 <_start+0x3054>)
   2a96c:	4468      	add	r0, sp
   2a96e:	78c1      	ldrb	r1, [r0, #3]
   2a970:	4cf9      	ldr	r4, [pc, #996]	@ (2ad58 <_start+0x305c>)
   2a972:	446c      	add	r4, sp
   2a974:	70a1      	strb	r1, [r4, #2]
   2a976:	7841      	ldrb	r1, [r0, #1]
   2a978:	7882      	ldrb	r2, [r0, #2]
   2a97a:	0212      	lsls	r2, r2, #8
   2a97c:	1851      	adds	r1, r2, r1
   2a97e:	8021      	strh	r1, [r4, #0]
   2a980:	3008      	adds	r0, #8
   2a982:	9908      	ldr	r1, [sp, #32]
   2a984:	6e09      	ldr	r1, [r1, #96]	@ 0x60
   2a986:	910a      	str	r1, [sp, #40]	@ 0x28
   2a988:	4bf2      	ldr	r3, [pc, #968]	@ (2ad54 <_start+0x3058>)
   2a98a:	446b      	add	r3, sp
   2a98c:	930b      	str	r3, [sp, #44]	@ 0x2c
   2a98e:	c864      	ldmia	r0!, {r2, r5, r6}
   2a990:	c364      	stmia	r3!, {r2, r5, r6}
   2a992:	c866      	ldmia	r0!, {r1, r2, r5, r6}
   2a994:	c366      	stmia	r3!, {r1, r2, r5, r6}
   2a996:	990a      	ldr	r1, [sp, #40]	@ 0x28
   2a998:	0e08      	lsrs	r0, r1, #24
   2a99a:	71a0      	strb	r0, [r4, #6]
   2a99c:	0c08      	lsrs	r0, r1, #16
   2a99e:	7160      	strb	r0, [r4, #5]
   2a9a0:	0a08      	lsrs	r0, r1, #8
   2a9a2:	7120      	strb	r0, [r4, #4]
   2a9a4:	70e1      	strb	r1, [r4, #3]
   2a9a6:	1de0      	adds	r0, r4, #7
   2a9a8:	221c      	movs	r2, #28
   2a9aa:	990b      	ldr	r1, [sp, #44]	@ 0x2c
   2a9ac:	f000 fbaa 	bl	2b104 <__aeabi_memcpy>
   2a9b0:	4de7      	ldr	r5, [pc, #924]	@ (2ad50 <_start+0x3054>)
   2a9b2:	446d      	add	r5, sp
   2a9b4:	4628      	mov	r0, r5
   2a9b6:	4621      	mov	r1, r4
   2a9b8:	f7f9 fde8 	bl	2458c <_ZN20complex_dynamic_type3app17h913cba4f262118dbE>
   2a9bc:	7828      	ldrb	r0, [r5, #0]
   2a9be:	2801      	cmp	r0, #1
   2a9c0:	d100      	bne.n	2a9c4 <_start+0x2cc8>
   2a9c2:	e189      	b.n	2acd8 <_start+0x2fdc>
   2a9c4:	48e2      	ldr	r0, [pc, #904]	@ (2ad50 <_start+0x3054>)
   2a9c6:	4468      	add	r0, sp
   2a9c8:	78c1      	ldrb	r1, [r0, #3]
   2a9ca:	4ce4      	ldr	r4, [pc, #912]	@ (2ad5c <_start+0x3060>)
   2a9cc:	446c      	add	r4, sp
   2a9ce:	70a1      	strb	r1, [r4, #2]
   2a9d0:	7841      	ldrb	r1, [r0, #1]
   2a9d2:	7882      	ldrb	r2, [r0, #2]
   2a9d4:	0212      	lsls	r2, r2, #8
   2a9d6:	1851      	adds	r1, r2, r1
   2a9d8:	8021      	strh	r1, [r4, #0]
   2a9da:	3008      	adds	r0, #8
   2a9dc:	9908      	ldr	r1, [sp, #32]
   2a9de:	6e09      	ldr	r1, [r1, #96]	@ 0x60
   2a9e0:	910a      	str	r1, [sp, #40]	@ 0x28
   2a9e2:	4bdc      	ldr	r3, [pc, #880]	@ (2ad54 <_start+0x3058>)
   2a9e4:	446b      	add	r3, sp
   2a9e6:	930b      	str	r3, [sp, #44]	@ 0x2c
   2a9e8:	c864      	ldmia	r0!, {r2, r5, r6}
   2a9ea:	c364      	stmia	r3!, {r2, r5, r6}
   2a9ec:	c866      	ldmia	r0!, {r1, r2, r5, r6}
   2a9ee:	c366      	stmia	r3!, {r1, r2, r5, r6}
   2a9f0:	7800      	ldrb	r0, [r0, #0]
   2a9f2:	7018      	strb	r0, [r3, #0]
   2a9f4:	990a      	ldr	r1, [sp, #40]	@ 0x28
   2a9f6:	0e08      	lsrs	r0, r1, #24
   2a9f8:	71a0      	strb	r0, [r4, #6]
   2a9fa:	0c08      	lsrs	r0, r1, #16
   2a9fc:	7160      	strb	r0, [r4, #5]
   2a9fe:	0a08      	lsrs	r0, r1, #8
   2aa00:	7120      	strb	r0, [r4, #4]
   2aa02:	70e1      	strb	r1, [r4, #3]
   2aa04:	1de0      	adds	r0, r4, #7
   2aa06:	221d      	movs	r2, #29
   2aa08:	990b      	ldr	r1, [sp, #44]	@ 0x2c
   2aa0a:	f000 fb7b 	bl	2b104 <__aeabi_memcpy>
   2aa0e:	4dd0      	ldr	r5, [pc, #832]	@ (2ad50 <_start+0x3054>)
   2aa10:	446d      	add	r5, sp
   2aa12:	4628      	mov	r0, r5
   2aa14:	4621      	mov	r1, r4
   2aa16:	f7f6 fdf7 	bl	21608 <_ZN20complex_dynamic_type3app17h25ea7601bd2fc8e1E>
   2aa1a:	7828      	ldrb	r0, [r5, #0]
   2aa1c:	2801      	cmp	r0, #1
   2aa1e:	d100      	bne.n	2aa22 <_start+0x2d26>
   2aa20:	e15a      	b.n	2acd8 <_start+0x2fdc>
   2aa22:	48cb      	ldr	r0, [pc, #812]	@ (2ad50 <_start+0x3054>)
   2aa24:	4468      	add	r0, sp
   2aa26:	78c1      	ldrb	r1, [r0, #3]
   2aa28:	4ccd      	ldr	r4, [pc, #820]	@ (2ad60 <_start+0x3064>)
   2aa2a:	446c      	add	r4, sp
   2aa2c:	70a1      	strb	r1, [r4, #2]
   2aa2e:	7841      	ldrb	r1, [r0, #1]
   2aa30:	7882      	ldrb	r2, [r0, #2]
   2aa32:	0212      	lsls	r2, r2, #8
   2aa34:	1851      	adds	r1, r2, r1
   2aa36:	8021      	strh	r1, [r4, #0]
   2aa38:	3008      	adds	r0, #8
   2aa3a:	9908      	ldr	r1, [sp, #32]
   2aa3c:	6e09      	ldr	r1, [r1, #96]	@ 0x60
   2aa3e:	910a      	str	r1, [sp, #40]	@ 0x28
   2aa40:	4bc4      	ldr	r3, [pc, #784]	@ (2ad54 <_start+0x3058>)
   2aa42:	446b      	add	r3, sp
   2aa44:	930b      	str	r3, [sp, #44]	@ 0x2c
   2aa46:	c864      	ldmia	r0!, {r2, r5, r6}
   2aa48:	c364      	stmia	r3!, {r2, r5, r6}
   2aa4a:	c864      	ldmia	r0!, {r2, r5, r6}
   2aa4c:	c364      	stmia	r3!, {r2, r5, r6}
   2aa4e:	c866      	ldmia	r0!, {r1, r2, r5, r6}
   2aa50:	c366      	stmia	r3!, {r1, r2, r5, r6}
   2aa52:	990a      	ldr	r1, [sp, #40]	@ 0x28
   2aa54:	0e08      	lsrs	r0, r1, #24
   2aa56:	71a0      	strb	r0, [r4, #6]
   2aa58:	0c08      	lsrs	r0, r1, #16
   2aa5a:	7160      	strb	r0, [r4, #5]
   2aa5c:	0a08      	lsrs	r0, r1, #8
   2aa5e:	7120      	strb	r0, [r4, #4]
   2aa60:	70e1      	strb	r1, [r4, #3]
   2aa62:	1de0      	adds	r0, r4, #7
   2aa64:	2228      	movs	r2, #40	@ 0x28
   2aa66:	990b      	ldr	r1, [sp, #44]	@ 0x2c
   2aa68:	f000 fb4c 	bl	2b104 <__aeabi_memcpy>
   2aa6c:	4db8      	ldr	r5, [pc, #736]	@ (2ad50 <_start+0x3054>)
   2aa6e:	446d      	add	r5, sp
   2aa70:	4628      	mov	r0, r5
   2aa72:	4621      	mov	r1, r4
   2aa74:	f7f8 fe4c 	bl	23710 <_ZN20complex_dynamic_type3app17h7d73c2b7d1d23355E>
   2aa78:	7828      	ldrb	r0, [r5, #0]
   2aa7a:	2801      	cmp	r0, #1
   2aa7c:	d100      	bne.n	2aa80 <_start+0x2d84>
   2aa7e:	e12b      	b.n	2acd8 <_start+0x2fdc>
   2aa80:	49b3      	ldr	r1, [pc, #716]	@ (2ad50 <_start+0x3054>)
   2aa82:	4469      	add	r1, sp
   2aa84:	78c8      	ldrb	r0, [r1, #3]
   2aa86:	4cb7      	ldr	r4, [pc, #732]	@ (2ad64 <_start+0x3068>)
   2aa88:	446c      	add	r4, sp
   2aa8a:	70a0      	strb	r0, [r4, #2]
   2aa8c:	7848      	ldrb	r0, [r1, #1]
   2aa8e:	788a      	ldrb	r2, [r1, #2]
   2aa90:	0212      	lsls	r2, r2, #8
   2aa92:	1810      	adds	r0, r2, r0
   2aa94:	8020      	strh	r0, [r4, #0]
   2aa96:	9808      	ldr	r0, [sp, #32]
   2aa98:	6e05      	ldr	r5, [r0, #96]	@ 0x60
   2aa9a:	3108      	adds	r1, #8
   2aa9c:	48ad      	ldr	r0, [pc, #692]	@ (2ad54 <_start+0x3058>)
   2aa9e:	4468      	add	r0, sp
   2aaa0:	900b      	str	r0, [sp, #44]	@ 0x2c
   2aaa2:	2657      	movs	r6, #87	@ 0x57
   2aaa4:	4632      	mov	r2, r6
   2aaa6:	f000 f9cd 	bl	2ae44 <__aeabi_memcpy4>
   2aaaa:	0e28      	lsrs	r0, r5, #24
   2aaac:	71a0      	strb	r0, [r4, #6]
   2aaae:	0c28      	lsrs	r0, r5, #16
   2aab0:	7160      	strb	r0, [r4, #5]
   2aab2:	0a28      	lsrs	r0, r5, #8
   2aab4:	7120      	strb	r0, [r4, #4]
   2aab6:	70e5      	strb	r5, [r4, #3]
   2aab8:	1de0      	adds	r0, r4, #7
   2aaba:	990b      	ldr	r1, [sp, #44]	@ 0x2c
   2aabc:	4632      	mov	r2, r6
   2aabe:	f000 fb21 	bl	2b104 <__aeabi_memcpy>
   2aac2:	4da3      	ldr	r5, [pc, #652]	@ (2ad50 <_start+0x3054>)
   2aac4:	446d      	add	r5, sp
   2aac6:	4628      	mov	r0, r5
   2aac8:	4621      	mov	r1, r4
   2aaca:	f7fc fe77 	bl	277bc <_ZN20complex_dynamic_type3app17hf262631441f420a3E>
   2aace:	7828      	ldrb	r0, [r5, #0]
   2aad0:	2801      	cmp	r0, #1
   2aad2:	d100      	bne.n	2aad6 <_start+0x2dda>
   2aad4:	e100      	b.n	2acd8 <_start+0x2fdc>
   2aad6:	499e      	ldr	r1, [pc, #632]	@ (2ad50 <_start+0x3054>)
   2aad8:	4469      	add	r1, sp
   2aada:	78c8      	ldrb	r0, [r1, #3]
   2aadc:	4ca2      	ldr	r4, [pc, #648]	@ (2ad68 <_start+0x306c>)
   2aade:	446c      	add	r4, sp
   2aae0:	70a0      	strb	r0, [r4, #2]
   2aae2:	7848      	ldrb	r0, [r1, #1]
   2aae4:	788a      	ldrb	r2, [r1, #2]
   2aae6:	0212      	lsls	r2, r2, #8
   2aae8:	1810      	adds	r0, r2, r0
   2aaea:	8020      	strh	r0, [r4, #0]
   2aaec:	9808      	ldr	r0, [sp, #32]
   2aaee:	6e05      	ldr	r5, [r0, #96]	@ 0x60
   2aaf0:	3108      	adds	r1, #8
   2aaf2:	4898      	ldr	r0, [pc, #608]	@ (2ad54 <_start+0x3058>)
   2aaf4:	4468      	add	r0, sp
   2aaf6:	900b      	str	r0, [sp, #44]	@ 0x2c
   2aaf8:	264e      	movs	r6, #78	@ 0x4e
   2aafa:	4632      	mov	r2, r6
   2aafc:	f000 f9a2 	bl	2ae44 <__aeabi_memcpy4>
   2ab00:	0e28      	lsrs	r0, r5, #24
   2ab02:	71a0      	strb	r0, [r4, #6]
   2ab04:	0c28      	lsrs	r0, r5, #16
   2ab06:	7160      	strb	r0, [r4, #5]
   2ab08:	0a28      	lsrs	r0, r5, #8
   2ab0a:	7120      	strb	r0, [r4, #4]
   2ab0c:	70e5      	strb	r5, [r4, #3]
   2ab0e:	1de0      	adds	r0, r4, #7
   2ab10:	990b      	ldr	r1, [sp, #44]	@ 0x2c
   2ab12:	4632      	mov	r2, r6
   2ab14:	f000 faf6 	bl	2b104 <__aeabi_memcpy>
   2ab18:	4d8d      	ldr	r5, [pc, #564]	@ (2ad50 <_start+0x3054>)
   2ab1a:	446d      	add	r5, sp
   2ab1c:	4628      	mov	r0, r5
   2ab1e:	4621      	mov	r1, r4
   2ab20:	f7f6 ff68 	bl	219f4 <_ZN20complex_dynamic_type3app17h31062acde393bac3E>
   2ab24:	7828      	ldrb	r0, [r5, #0]
   2ab26:	2801      	cmp	r0, #1
   2ab28:	d100      	bne.n	2ab2c <_start+0x2e30>
   2ab2a:	e0d5      	b.n	2acd8 <_start+0x2fdc>
   2ab2c:	4989      	ldr	r1, [pc, #548]	@ (2ad54 <_start+0x3058>)
   2ab2e:	4469      	add	r1, sp
   2ab30:	9b08      	ldr	r3, [sp, #32]
   2ab32:	6ed8      	ldr	r0, [r3, #108]	@ 0x6c
   2ab34:	8108      	strh	r0, [r1, #8]
   2ab36:	4886      	ldr	r0, [pc, #536]	@ (2ad50 <_start+0x3054>)
   2ab38:	4468      	add	r0, sp
   2ab3a:	78c2      	ldrb	r2, [r0, #3]
   2ab3c:	4c8b      	ldr	r4, [pc, #556]	@ (2ad6c <_start+0x3070>)
   2ab3e:	446c      	add	r4, sp
   2ab40:	70a2      	strb	r2, [r4, #2]
   2ab42:	7842      	ldrb	r2, [r0, #1]
   2ab44:	7880      	ldrb	r0, [r0, #2]
   2ab46:	0200      	lsls	r0, r0, #8
   2ab48:	1880      	adds	r0, r0, r2
   2ab4a:	8020      	strh	r0, [r4, #0]
   2ab4c:	6e18      	ldr	r0, [r3, #96]	@ 0x60
   2ab4e:	70e0      	strb	r0, [r4, #3]
   2ab50:	0e02      	lsrs	r2, r0, #24
   2ab52:	71a2      	strb	r2, [r4, #6]
   2ab54:	0c02      	lsrs	r2, r0, #16
   2ab56:	7162      	strb	r2, [r4, #5]
   2ab58:	0a00      	lsrs	r0, r0, #8
   2ab5a:	7120      	strb	r0, [r4, #4]
   2ab5c:	6e58      	ldr	r0, [r3, #100]	@ 0x64
   2ab5e:	6e9a      	ldr	r2, [r3, #104]	@ 0x68
   2ab60:	c305      	stmia	r3!, {r0, r2}
   2ab62:	1de0      	adds	r0, r4, #7
   2ab64:	220a      	movs	r2, #10
   2ab66:	f000 facd 	bl	2b104 <__aeabi_memcpy>
   2ab6a:	4d79      	ldr	r5, [pc, #484]	@ (2ad50 <_start+0x3054>)
   2ab6c:	446d      	add	r5, sp
   2ab6e:	4628      	mov	r0, r5
   2ab70:	4621      	mov	r1, r4
   2ab72:	f7f8 f887 	bl	22c84 <_ZN20complex_dynamic_type3app17h5b2adeb418214c66E>
   2ab76:	7828      	ldrb	r0, [r5, #0]
   2ab78:	2801      	cmp	r0, #1
   2ab7a:	d100      	bne.n	2ab7e <_start+0x2e82>
   2ab7c:	e0ac      	b.n	2acd8 <_start+0x2fdc>
   2ab7e:	4974      	ldr	r1, [pc, #464]	@ (2ad50 <_start+0x3054>)
   2ab80:	4469      	add	r1, sp
   2ab82:	78c8      	ldrb	r0, [r1, #3]
   2ab84:	4c7a      	ldr	r4, [pc, #488]	@ (2ad70 <_start+0x3074>)
   2ab86:	446c      	add	r4, sp
   2ab88:	70a0      	strb	r0, [r4, #2]
   2ab8a:	7848      	ldrb	r0, [r1, #1]
   2ab8c:	788a      	ldrb	r2, [r1, #2]
   2ab8e:	0212      	lsls	r2, r2, #8
   2ab90:	1810      	adds	r0, r2, r0
   2ab92:	8020      	strh	r0, [r4, #0]
   2ab94:	9808      	ldr	r0, [sp, #32]
   2ab96:	6e05      	ldr	r5, [r0, #96]	@ 0x60
   2ab98:	3108      	adds	r1, #8
   2ab9a:	486e      	ldr	r0, [pc, #440]	@ (2ad54 <_start+0x3058>)
   2ab9c:	4468      	add	r0, sp
   2ab9e:	900b      	str	r0, [sp, #44]	@ 0x2c
   2aba0:	2649      	movs	r6, #73	@ 0x49
   2aba2:	4632      	mov	r2, r6
   2aba4:	f000 f94e 	bl	2ae44 <__aeabi_memcpy4>
   2aba8:	0e28      	lsrs	r0, r5, #24
   2abaa:	71a0      	strb	r0, [r4, #6]
   2abac:	0c28      	lsrs	r0, r5, #16
   2abae:	7160      	strb	r0, [r4, #5]
   2abb0:	0a28      	lsrs	r0, r5, #8
   2abb2:	7120      	strb	r0, [r4, #4]
   2abb4:	70e5      	strb	r5, [r4, #3]
   2abb6:	1de0      	adds	r0, r4, #7
   2abb8:	990b      	ldr	r1, [sp, #44]	@ 0x2c
   2abba:	4632      	mov	r2, r6
   2abbc:	f000 faa2 	bl	2b104 <__aeabi_memcpy>
   2abc0:	4d63      	ldr	r5, [pc, #396]	@ (2ad50 <_start+0x3054>)
   2abc2:	446d      	add	r5, sp
   2abc4:	4628      	mov	r0, r5
   2abc6:	4621      	mov	r1, r4
   2abc8:	f7f6 fa7a 	bl	210c0 <_ZN20complex_dynamic_type3app17h1eefdde76a31681fE>
   2abcc:	7828      	ldrb	r0, [r5, #0]
   2abce:	2801      	cmp	r0, #1
   2abd0:	d100      	bne.n	2abd4 <_start+0x2ed8>
   2abd2:	e081      	b.n	2acd8 <_start+0x2fdc>
   2abd4:	485e      	ldr	r0, [pc, #376]	@ (2ad50 <_start+0x3054>)
   2abd6:	4468      	add	r0, sp
   2abd8:	78c1      	ldrb	r1, [r0, #3]
   2abda:	4c66      	ldr	r4, [pc, #408]	@ (2ad74 <_start+0x3078>)
   2abdc:	446c      	add	r4, sp
   2abde:	70a1      	strb	r1, [r4, #2]
   2abe0:	7841      	ldrb	r1, [r0, #1]
   2abe2:	7882      	ldrb	r2, [r0, #2]
   2abe4:	0212      	lsls	r2, r2, #8
   2abe6:	1851      	adds	r1, r2, r1
   2abe8:	8021      	strh	r1, [r4, #0]
   2abea:	3008      	adds	r0, #8
   2abec:	9908      	ldr	r1, [sp, #32]
   2abee:	6e09      	ldr	r1, [r1, #96]	@ 0x60
   2abf0:	4b58      	ldr	r3, [pc, #352]	@ (2ad54 <_start+0x3058>)
   2abf2:	446b      	add	r3, sp
   2abf4:	930b      	str	r3, [sp, #44]	@ 0x2c
   2abf6:	c860      	ldmia	r0!, {r5, r6}
   2abf8:	c360      	stmia	r3!, {r5, r6}
   2abfa:	c864      	ldmia	r0!, {r2, r5, r6}
   2abfc:	c364      	stmia	r3!, {r2, r5, r6}
   2abfe:	0e08      	lsrs	r0, r1, #24
   2ac00:	71a0      	strb	r0, [r4, #6]
   2ac02:	0c08      	lsrs	r0, r1, #16
   2ac04:	7160      	strb	r0, [r4, #5]
   2ac06:	0a08      	lsrs	r0, r1, #8
   2ac08:	7120      	strb	r0, [r4, #4]
   2ac0a:	70e1      	strb	r1, [r4, #3]
   2ac0c:	1de0      	adds	r0, r4, #7
   2ac0e:	2214      	movs	r2, #20
   2ac10:	990b      	ldr	r1, [sp, #44]	@ 0x2c
   2ac12:	f000 fa77 	bl	2b104 <__aeabi_memcpy>
   2ac16:	4d4e      	ldr	r5, [pc, #312]	@ (2ad50 <_start+0x3054>)
   2ac18:	446d      	add	r5, sp
   2ac1a:	4628      	mov	r0, r5
   2ac1c:	4621      	mov	r1, r4
   2ac1e:	f7f6 fc4b 	bl	214b8 <_ZN20complex_dynamic_type3app17h2295f5d8efed4b62E>
   2ac22:	7828      	ldrb	r0, [r5, #0]
   2ac24:	2801      	cmp	r0, #1
   2ac26:	d057      	beq.n	2acd8 <_start+0x2fdc>
   2ac28:	4949      	ldr	r1, [pc, #292]	@ (2ad50 <_start+0x3054>)
   2ac2a:	4469      	add	r1, sp
   2ac2c:	78c8      	ldrb	r0, [r1, #3]
   2ac2e:	4c52      	ldr	r4, [pc, #328]	@ (2ad78 <_start+0x307c>)
   2ac30:	446c      	add	r4, sp
   2ac32:	70a0      	strb	r0, [r4, #2]
   2ac34:	7848      	ldrb	r0, [r1, #1]
   2ac36:	788a      	ldrb	r2, [r1, #2]
   2ac38:	0212      	lsls	r2, r2, #8
   2ac3a:	1810      	adds	r0, r2, r0
   2ac3c:	8020      	strh	r0, [r4, #0]
   2ac3e:	9808      	ldr	r0, [sp, #32]
   2ac40:	6e05      	ldr	r5, [r0, #96]	@ 0x60
   2ac42:	3108      	adds	r1, #8
   2ac44:	4843      	ldr	r0, [pc, #268]	@ (2ad54 <_start+0x3058>)
   2ac46:	4468      	add	r0, sp
   2ac48:	900b      	str	r0, [sp, #44]	@ 0x2c
   2ac4a:	265c      	movs	r6, #92	@ 0x5c
   2ac4c:	4632      	mov	r2, r6
   2ac4e:	f000 f8f9 	bl	2ae44 <__aeabi_memcpy4>
   2ac52:	0e28      	lsrs	r0, r5, #24
   2ac54:	71a0      	strb	r0, [r4, #6]
   2ac56:	0c28      	lsrs	r0, r5, #16
   2ac58:	7160      	strb	r0, [r4, #5]
   2ac5a:	0a28      	lsrs	r0, r5, #8
   2ac5c:	7120      	strb	r0, [r4, #4]
   2ac5e:	70e5      	strb	r5, [r4, #3]
   2ac60:	1de0      	adds	r0, r4, #7
   2ac62:	990b      	ldr	r1, [sp, #44]	@ 0x2c
   2ac64:	4632      	mov	r2, r6
   2ac66:	f000 fa4d 	bl	2b104 <__aeabi_memcpy>
   2ac6a:	4d39      	ldr	r5, [pc, #228]	@ (2ad50 <_start+0x3054>)
   2ac6c:	446d      	add	r5, sp
   2ac6e:	4628      	mov	r0, r5
   2ac70:	4621      	mov	r1, r4
   2ac72:	f7f9 fbe5 	bl	24440 <_ZN20complex_dynamic_type3app17h90d96a3ed88fddefE>
   2ac76:	7828      	ldrb	r0, [r5, #0]
   2ac78:	2801      	cmp	r0, #1
   2ac7a:	d02d      	beq.n	2acd8 <_start+0x2fdc>
   2ac7c:	4834      	ldr	r0, [pc, #208]	@ (2ad50 <_start+0x3054>)
   2ac7e:	4468      	add	r0, sp
   2ac80:	78c1      	ldrb	r1, [r0, #3]
   2ac82:	4c3e      	ldr	r4, [pc, #248]	@ (2ad7c <_start+0x3080>)
   2ac84:	446c      	add	r4, sp
   2ac86:	70a1      	strb	r1, [r4, #2]
   2ac88:	7841      	ldrb	r1, [r0, #1]
   2ac8a:	7882      	ldrb	r2, [r0, #2]
   2ac8c:	0212      	lsls	r2, r2, #8
   2ac8e:	1851      	adds	r1, r2, r1
   2ac90:	8021      	strh	r1, [r4, #0]
   2ac92:	3008      	adds	r0, #8
   2ac94:	9908      	ldr	r1, [sp, #32]
   2ac96:	6e09      	ldr	r1, [r1, #96]	@ 0x60
   2ac98:	4b2e      	ldr	r3, [pc, #184]	@ (2ad54 <_start+0x3058>)
   2ac9a:	446b      	add	r3, sp
   2ac9c:	930b      	str	r3, [sp, #44]	@ 0x2c
   2ac9e:	c864      	ldmia	r0!, {r2, r5, r6}
   2aca0:	c364      	stmia	r3!, {r2, r5, r6}
   2aca2:	c864      	ldmia	r0!, {r2, r5, r6}
   2aca4:	c364      	stmia	r3!, {r2, r5, r6}
   2aca6:	c864      	ldmia	r0!, {r2, r5, r6}
   2aca8:	c364      	stmia	r3!, {r2, r5, r6}
   2acaa:	7800      	ldrb	r0, [r0, #0]
   2acac:	7018      	strb	r0, [r3, #0]
   2acae:	0e08      	lsrs	r0, r1, #24
   2acb0:	71a0      	strb	r0, [r4, #6]
   2acb2:	0c08      	lsrs	r0, r1, #16
   2acb4:	7160      	strb	r0, [r4, #5]
   2acb6:	0a08      	lsrs	r0, r1, #8
   2acb8:	7120      	strb	r0, [r4, #4]
   2acba:	70e1      	strb	r1, [r4, #3]
   2acbc:	1de0      	adds	r0, r4, #7
   2acbe:	2225      	movs	r2, #37	@ 0x25
   2acc0:	990b      	ldr	r1, [sp, #44]	@ 0x2c
   2acc2:	f000 fa1f 	bl	2b104 <__aeabi_memcpy>
   2acc6:	4d22      	ldr	r5, [pc, #136]	@ (2ad50 <_start+0x3054>)
   2acc8:	446d      	add	r5, sp
   2acca:	4628      	mov	r0, r5
   2accc:	4621      	mov	r1, r4
   2acce:	f7f7 fe85 	bl	229dc <_ZN20complex_dynamic_type3app17h5a74796f26c01511E>
   2acd2:	7828      	ldrb	r0, [r5, #0]
   2acd4:	2801      	cmp	r0, #1
   2acd6:	d109      	bne.n	2acec <_start+0x2ff0>
   2acd8:	9808      	ldr	r0, [sp, #32]
   2acda:	6e01      	ldr	r1, [r0, #96]	@ 0x60
   2acdc:	f7fd f877 	bl	27dce <_start+0xd2>
   2ace0:	00001404 	.word	0x00001404
   2ace4:	000011b4 	.word	0x000011b4
   2ace8:	000013a8 	.word	0x000013a8
   2acec:	4818      	ldr	r0, [pc, #96]	@ (2ad50 <_start+0x3054>)
   2acee:	4468      	add	r0, sp
   2acf0:	78c1      	ldrb	r1, [r0, #3]
   2acf2:	4c23      	ldr	r4, [pc, #140]	@ (2ad80 <_start+0x3084>)
   2acf4:	446c      	add	r4, sp
   2acf6:	70a1      	strb	r1, [r4, #2]
   2acf8:	7841      	ldrb	r1, [r0, #1]
   2acfa:	7882      	ldrb	r2, [r0, #2]
   2acfc:	0212      	lsls	r2, r2, #8
   2acfe:	1851      	adds	r1, r2, r1
   2ad00:	8021      	strh	r1, [r4, #0]
   2ad02:	3008      	adds	r0, #8
   2ad04:	9908      	ldr	r1, [sp, #32]
   2ad06:	6e09      	ldr	r1, [r1, #96]	@ 0x60
   2ad08:	910a      	str	r1, [sp, #40]	@ 0x28
   2ad0a:	4b12      	ldr	r3, [pc, #72]	@ (2ad54 <_start+0x3058>)
   2ad0c:	446b      	add	r3, sp
   2ad0e:	930b      	str	r3, [sp, #44]	@ 0x2c
   2ad10:	c866      	ldmia	r0!, {r1, r2, r5, r6}
   2ad12:	c366      	stmia	r3!, {r1, r2, r5, r6}
   2ad14:	c866      	ldmia	r0!, {r1, r2, r5, r6}
   2ad16:	c366      	stmia	r3!, {r1, r2, r5, r6}
   2ad18:	8801      	ldrh	r1, [r0, #0]
   2ad1a:	8019      	strh	r1, [r3, #0]
   2ad1c:	7880      	ldrb	r0, [r0, #2]
   2ad1e:	7098      	strb	r0, [r3, #2]
   2ad20:	990a      	ldr	r1, [sp, #40]	@ 0x28
   2ad22:	0e08      	lsrs	r0, r1, #24
   2ad24:	71a0      	strb	r0, [r4, #6]
   2ad26:	0c08      	lsrs	r0, r1, #16
   2ad28:	7160      	strb	r0, [r4, #5]
   2ad2a:	0a08      	lsrs	r0, r1, #8
   2ad2c:	7120      	strb	r0, [r4, #4]
   2ad2e:	70e1      	strb	r1, [r4, #3]
   2ad30:	1de0      	adds	r0, r4, #7
   2ad32:	2223      	movs	r2, #35	@ 0x23
   2ad34:	990b      	ldr	r1, [sp, #44]	@ 0x2c
   2ad36:	f000 f9e5 	bl	2b104 <__aeabi_memcpy>
   2ad3a:	4d05      	ldr	r5, [pc, #20]	@ (2ad50 <_start+0x3054>)
   2ad3c:	446d      	add	r5, sp
   2ad3e:	4628      	mov	r0, r5
   2ad40:	4621      	mov	r1, r4
   2ad42:	f7f5 fdc9 	bl	208d8 <_ZN20complex_dynamic_type3app17h08e2b22467b91e81E>
   2ad46:	7828      	ldrb	r0, [r5, #0]
   2ad48:	9908      	ldr	r1, [sp, #32]
   2ad4a:	6e09      	ldr	r1, [r1, #96]	@ 0x60
   2ad4c:	f7fd f840 	bl	27dd0 <_start+0xd4>
   2ad50:	00001404 	.word	0x00001404
   2ad54:	000013a8 	.word	0x000013a8
   2ad58:	000011f8 	.word	0x000011f8
   2ad5c:	0000121c 	.word	0x0000121c
   2ad60:	00001240 	.word	0x00001240
   2ad64:	00001270 	.word	0x00001270
   2ad68:	000012d0 	.word	0x000012d0
   2ad6c:	00001328 	.word	0x00001328
   2ad70:	0000133c 	.word	0x0000133c
   2ad74:	0000138c 	.word	0x0000138c
   2ad78:	00001468 	.word	0x00001468
   2ad7c:	000014cc 	.word	0x000014cc
   2ad80:	000014f8 	.word	0x000014f8

0002ad84 <__aeabi_memclr>:
   2ad84:	b5f0      	push	{r4, r5, r6, r7, lr}
   2ad86:	af03      	add	r7, sp, #12
   2ad88:	2910      	cmp	r1, #16
   2ad8a:	d332      	bcc.n	2adf2 <__aeabi_memclr+0x6e>
   2ad8c:	4244      	negs	r4, r0
   2ad8e:	2203      	movs	r2, #3
   2ad90:	4014      	ands	r4, r2
   2ad92:	1903      	adds	r3, r0, r4
   2ad94:	4298      	cmp	r0, r3
   2ad96:	d218      	bcs.n	2adca <__aeabi_memclr+0x46>
   2ad98:	1e65      	subs	r5, r4, #1
   2ad9a:	2c00      	cmp	r4, #0
   2ad9c:	d00b      	beq.n	2adb6 <__aeabi_memclr+0x32>
   2ad9e:	2600      	movs	r6, #0
   2ada0:	7006      	strb	r6, [r0, #0]
   2ada2:	2c01      	cmp	r4, #1
   2ada4:	d103      	bne.n	2adae <__aeabi_memclr+0x2a>
   2ada6:	1c40      	adds	r0, r0, #1
   2ada8:	2d03      	cmp	r5, #3
   2adaa:	d206      	bcs.n	2adba <__aeabi_memclr+0x36>
   2adac:	e00d      	b.n	2adca <__aeabi_memclr+0x46>
   2adae:	7046      	strb	r6, [r0, #1]
   2adb0:	2c02      	cmp	r4, #2
   2adb2:	d142      	bne.n	2ae3a <__aeabi_memclr+0xb6>
   2adb4:	1c80      	adds	r0, r0, #2
   2adb6:	2d03      	cmp	r5, #3
   2adb8:	d307      	bcc.n	2adca <__aeabi_memclr+0x46>
   2adba:	2500      	movs	r5, #0
   2adbc:	70c5      	strb	r5, [r0, #3]
   2adbe:	7085      	strb	r5, [r0, #2]
   2adc0:	7045      	strb	r5, [r0, #1]
   2adc2:	7005      	strb	r5, [r0, #0]
   2adc4:	1d00      	adds	r0, r0, #4
   2adc6:	4298      	cmp	r0, r3
   2adc8:	d1f7      	bne.n	2adba <__aeabi_memclr+0x36>
   2adca:	1b09      	subs	r1, r1, r4
   2adcc:	4608      	mov	r0, r1
   2adce:	4390      	bics	r0, r2
   2add0:	1818      	adds	r0, r3, r0
   2add2:	4283      	cmp	r3, r0
   2add4:	d20c      	bcs.n	2adf0 <__aeabi_memclr+0x6c>
   2add6:	2400      	movs	r4, #0
   2add8:	c310      	stmia	r3!, {r4}
   2adda:	4283      	cmp	r3, r0
   2addc:	d208      	bcs.n	2adf0 <__aeabi_memclr+0x6c>
   2adde:	c310      	stmia	r3!, {r4}
   2ade0:	4283      	cmp	r3, r0
   2ade2:	d205      	bcs.n	2adf0 <__aeabi_memclr+0x6c>
   2ade4:	c310      	stmia	r3!, {r4}
   2ade6:	4283      	cmp	r3, r0
   2ade8:	d202      	bcs.n	2adf0 <__aeabi_memclr+0x6c>
   2adea:	c310      	stmia	r3!, {r4}
   2adec:	4283      	cmp	r3, r0
   2adee:	d3f2      	bcc.n	2add6 <__aeabi_memclr+0x52>
   2adf0:	4011      	ands	r1, r2
   2adf2:	1842      	adds	r2, r0, r1
   2adf4:	4290      	cmp	r0, r2
   2adf6:	d21a      	bcs.n	2ae2e <__aeabi_memclr+0xaa>
   2adf8:	2303      	movs	r3, #3
   2adfa:	400b      	ands	r3, r1
   2adfc:	1e49      	subs	r1, r1, #1
   2adfe:	2b00      	cmp	r3, #0
   2ae00:	d00b      	beq.n	2ae1a <__aeabi_memclr+0x96>
   2ae02:	2400      	movs	r4, #0
   2ae04:	7004      	strb	r4, [r0, #0]
   2ae06:	2b01      	cmp	r3, #1
   2ae08:	d103      	bne.n	2ae12 <__aeabi_memclr+0x8e>
   2ae0a:	1c40      	adds	r0, r0, #1
   2ae0c:	2903      	cmp	r1, #3
   2ae0e:	d206      	bcs.n	2ae1e <__aeabi_memclr+0x9a>
   2ae10:	e00d      	b.n	2ae2e <__aeabi_memclr+0xaa>
   2ae12:	7044      	strb	r4, [r0, #1]
   2ae14:	2b02      	cmp	r3, #2
   2ae16:	d10b      	bne.n	2ae30 <__aeabi_memclr+0xac>
   2ae18:	1c80      	adds	r0, r0, #2
   2ae1a:	2903      	cmp	r1, #3
   2ae1c:	d307      	bcc.n	2ae2e <__aeabi_memclr+0xaa>
   2ae1e:	2100      	movs	r1, #0
   2ae20:	70c1      	strb	r1, [r0, #3]
   2ae22:	7081      	strb	r1, [r0, #2]
   2ae24:	7041      	strb	r1, [r0, #1]
   2ae26:	7001      	strb	r1, [r0, #0]
   2ae28:	1d00      	adds	r0, r0, #4
   2ae2a:	4290      	cmp	r0, r2
   2ae2c:	d1f7      	bne.n	2ae1e <__aeabi_memclr+0x9a>
   2ae2e:	bdf0      	pop	{r4, r5, r6, r7, pc}
   2ae30:	7084      	strb	r4, [r0, #2]
   2ae32:	1cc0      	adds	r0, r0, #3
   2ae34:	2903      	cmp	r1, #3
   2ae36:	d2f2      	bcs.n	2ae1e <__aeabi_memclr+0x9a>
   2ae38:	e7f9      	b.n	2ae2e <__aeabi_memclr+0xaa>
   2ae3a:	7086      	strb	r6, [r0, #2]
   2ae3c:	1cc0      	adds	r0, r0, #3
   2ae3e:	2d03      	cmp	r5, #3
   2ae40:	d2bb      	bcs.n	2adba <__aeabi_memclr+0x36>
   2ae42:	e7c2      	b.n	2adca <__aeabi_memclr+0x46>

0002ae44 <__aeabi_memcpy4>:
   2ae44:	b5f0      	push	{r4, r5, r6, r7, lr}
   2ae46:	af03      	add	r7, sp, #12
   2ae48:	b081      	sub	sp, #4
   2ae4a:	2a04      	cmp	r2, #4
   2ae4c:	d32d      	bcc.n	2aeaa <__aeabi_memcpy4+0x66>
   2ae4e:	1f13      	subs	r3, r2, #4
   2ae50:	250c      	movs	r5, #12
   2ae52:	401d      	ands	r5, r3
   2ae54:	2d0c      	cmp	r5, #12
   2ae56:	d019      	beq.n	2ae8c <__aeabi_memcpy4+0x48>
   2ae58:	9200      	str	r2, [sp, #0]
   2ae5a:	460e      	mov	r6, r1
   2ae5c:	c904      	ldmia	r1!, {r2}
   2ae5e:	4604      	mov	r4, r0
   2ae60:	c004      	stmia	r0!, {r2}
   2ae62:	071a      	lsls	r2, r3, #28
   2ae64:	0f92      	lsrs	r2, r2, #30
   2ae66:	461a      	mov	r2, r3
   2ae68:	d010      	beq.n	2ae8c <__aeabi_memcpy4+0x48>
   2ae6a:	4631      	mov	r1, r6
   2ae6c:	6872      	ldr	r2, [r6, #4]
   2ae6e:	6062      	str	r2, [r4, #4]
   2ae70:	2d04      	cmp	r5, #4
   2ae72:	d104      	bne.n	2ae7e <__aeabi_memcpy4+0x3a>
   2ae74:	9a00      	ldr	r2, [sp, #0]
   2ae76:	3a08      	subs	r2, #8
   2ae78:	3108      	adds	r1, #8
   2ae7a:	3408      	adds	r4, #8
   2ae7c:	e005      	b.n	2ae8a <__aeabi_memcpy4+0x46>
   2ae7e:	688a      	ldr	r2, [r1, #8]
   2ae80:	60a2      	str	r2, [r4, #8]
   2ae82:	9a00      	ldr	r2, [sp, #0]
   2ae84:	3a0c      	subs	r2, #12
   2ae86:	310c      	adds	r1, #12
   2ae88:	340c      	adds	r4, #12
   2ae8a:	4620      	mov	r0, r4
   2ae8c:	2b0c      	cmp	r3, #12
   2ae8e:	d30c      	bcc.n	2aeaa <__aeabi_memcpy4+0x66>
   2ae90:	680b      	ldr	r3, [r1, #0]
   2ae92:	6003      	str	r3, [r0, #0]
   2ae94:	684b      	ldr	r3, [r1, #4]
   2ae96:	6043      	str	r3, [r0, #4]
   2ae98:	688b      	ldr	r3, [r1, #8]
   2ae9a:	6083      	str	r3, [r0, #8]
   2ae9c:	68cb      	ldr	r3, [r1, #12]
   2ae9e:	60c3      	str	r3, [r0, #12]
   2aea0:	3110      	adds	r1, #16
   2aea2:	3010      	adds	r0, #16
   2aea4:	3a10      	subs	r2, #16
   2aea6:	2a03      	cmp	r2, #3
   2aea8:	d8f2      	bhi.n	2ae90 <__aeabi_memcpy4+0x4c>
   2aeaa:	f000 f802 	bl	2aeb2 <_ZN17compiler_builtins3mem6memcpy17h1f9dbb1c3fd18e2fE>
   2aeae:	b001      	add	sp, #4
   2aeb0:	bdf0      	pop	{r4, r5, r6, r7, pc}

0002aeb2 <_ZN17compiler_builtins3mem6memcpy17h1f9dbb1c3fd18e2fE>:
   2aeb2:	b5f0      	push	{r4, r5, r6, r7, lr}
   2aeb4:	af03      	add	r7, sp, #12
   2aeb6:	b08f      	sub	sp, #60	@ 0x3c
   2aeb8:	2a10      	cmp	r2, #16
   2aeba:	d315      	bcc.n	2aee8 <_ZN17compiler_builtins3mem6memcpy17h1f9dbb1c3fd18e2fE+0x36>
   2aebc:	920b      	str	r2, [sp, #44]	@ 0x2c
   2aebe:	4242      	negs	r2, r0
   2aec0:	2303      	movs	r3, #3
   2aec2:	9308      	str	r3, [sp, #32]
   2aec4:	401a      	ands	r2, r3
   2aec6:	1885      	adds	r5, r0, r2
   2aec8:	900a      	str	r0, [sp, #40]	@ 0x28
   2aeca:	42a8      	cmp	r0, r5
   2aecc:	d22a      	bcs.n	2af24 <_ZN17compiler_builtins3mem6memcpy17h1f9dbb1c3fd18e2fE+0x72>
   2aece:	1e54      	subs	r4, r2, #1
   2aed0:	2a00      	cmp	r2, #0
   2aed2:	980a      	ldr	r0, [sp, #40]	@ 0x28
   2aed4:	4606      	mov	r6, r0
   2aed6:	460b      	mov	r3, r1
   2aed8:	d016      	beq.n	2af08 <_ZN17compiler_builtins3mem6memcpy17h1f9dbb1c3fd18e2fE+0x56>
   2aeda:	780b      	ldrb	r3, [r1, #0]
   2aedc:	7003      	strb	r3, [r0, #0]
   2aede:	2a01      	cmp	r2, #1
   2aee0:	d107      	bne.n	2aef2 <_ZN17compiler_builtins3mem6memcpy17h1f9dbb1c3fd18e2fE+0x40>
   2aee2:	1c4b      	adds	r3, r1, #1
   2aee4:	1c46      	adds	r6, r0, #1
   2aee6:	e00f      	b.n	2af08 <_ZN17compiler_builtins3mem6memcpy17h1f9dbb1c3fd18e2fE+0x56>
   2aee8:	4603      	mov	r3, r0
   2aeea:	189c      	adds	r4, r3, r2
   2aeec:	42a3      	cmp	r3, r4
   2aeee:	d341      	bcc.n	2af74 <_ZN17compiler_builtins3mem6memcpy17h1f9dbb1c3fd18e2fE+0xc2>
   2aef0:	e062      	b.n	2afb8 <_ZN17compiler_builtins3mem6memcpy17h1f9dbb1c3fd18e2fE+0x106>
   2aef2:	784b      	ldrb	r3, [r1, #1]
   2aef4:	7043      	strb	r3, [r0, #1]
   2aef6:	2a02      	cmp	r2, #2
   2aef8:	d102      	bne.n	2af00 <_ZN17compiler_builtins3mem6memcpy17h1f9dbb1c3fd18e2fE+0x4e>
   2aefa:	1c8b      	adds	r3, r1, #2
   2aefc:	1c86      	adds	r6, r0, #2
   2aefe:	e003      	b.n	2af08 <_ZN17compiler_builtins3mem6memcpy17h1f9dbb1c3fd18e2fE+0x56>
   2af00:	788b      	ldrb	r3, [r1, #2]
   2af02:	7083      	strb	r3, [r0, #2]
   2af04:	1ccb      	adds	r3, r1, #3
   2af06:	1cc6      	adds	r6, r0, #3
   2af08:	2c03      	cmp	r4, #3
   2af0a:	d30b      	bcc.n	2af24 <_ZN17compiler_builtins3mem6memcpy17h1f9dbb1c3fd18e2fE+0x72>
   2af0c:	781c      	ldrb	r4, [r3, #0]
   2af0e:	7034      	strb	r4, [r6, #0]
   2af10:	785c      	ldrb	r4, [r3, #1]
   2af12:	7074      	strb	r4, [r6, #1]
   2af14:	789c      	ldrb	r4, [r3, #2]
   2af16:	70b4      	strb	r4, [r6, #2]
   2af18:	78dc      	ldrb	r4, [r3, #3]
   2af1a:	70f4      	strb	r4, [r6, #3]
   2af1c:	1d1b      	adds	r3, r3, #4
   2af1e:	1d36      	adds	r6, r6, #4
   2af20:	42ae      	cmp	r6, r5
   2af22:	d1f3      	bne.n	2af0c <_ZN17compiler_builtins3mem6memcpy17h1f9dbb1c3fd18e2fE+0x5a>
   2af24:	980b      	ldr	r0, [sp, #44]	@ 0x2c
   2af26:	1a80      	subs	r0, r0, r2
   2af28:	900b      	str	r0, [sp, #44]	@ 0x2c
   2af2a:	9c08      	ldr	r4, [sp, #32]
   2af2c:	43a0      	bics	r0, r4
   2af2e:	182b      	adds	r3, r5, r0
   2af30:	188e      	adds	r6, r1, r2
   2af32:	9609      	str	r6, [sp, #36]	@ 0x24
   2af34:	4026      	ands	r6, r4
   2af36:	9007      	str	r0, [sp, #28]
   2af38:	d147      	bne.n	2afca <_ZN17compiler_builtins3mem6memcpy17h1f9dbb1c3fd18e2fE+0x118>
   2af3a:	429d      	cmp	r5, r3
   2af3c:	9a0b      	ldr	r2, [sp, #44]	@ 0x2c
   2af3e:	9e09      	ldr	r6, [sp, #36]	@ 0x24
   2af40:	d211      	bcs.n	2af66 <_ZN17compiler_builtins3mem6memcpy17h1f9dbb1c3fd18e2fE+0xb4>
   2af42:	4631      	mov	r1, r6
   2af44:	6808      	ldr	r0, [r1, #0]
   2af46:	c501      	stmia	r5!, {r0}
   2af48:	429d      	cmp	r5, r3
   2af4a:	d20c      	bcs.n	2af66 <_ZN17compiler_builtins3mem6memcpy17h1f9dbb1c3fd18e2fE+0xb4>
   2af4c:	6848      	ldr	r0, [r1, #4]
   2af4e:	c501      	stmia	r5!, {r0}
   2af50:	429d      	cmp	r5, r3
   2af52:	d208      	bcs.n	2af66 <_ZN17compiler_builtins3mem6memcpy17h1f9dbb1c3fd18e2fE+0xb4>
   2af54:	6888      	ldr	r0, [r1, #8]
   2af56:	c501      	stmia	r5!, {r0}
   2af58:	429d      	cmp	r5, r3
   2af5a:	d204      	bcs.n	2af66 <_ZN17compiler_builtins3mem6memcpy17h1f9dbb1c3fd18e2fE+0xb4>
   2af5c:	68c8      	ldr	r0, [r1, #12]
   2af5e:	c501      	stmia	r5!, {r0}
   2af60:	3110      	adds	r1, #16
   2af62:	429d      	cmp	r5, r3
   2af64:	d3ee      	bcc.n	2af44 <_ZN17compiler_builtins3mem6memcpy17h1f9dbb1c3fd18e2fE+0x92>
   2af66:	4022      	ands	r2, r4
   2af68:	9807      	ldr	r0, [sp, #28]
   2af6a:	1831      	adds	r1, r6, r0
   2af6c:	980a      	ldr	r0, [sp, #40]	@ 0x28
   2af6e:	189c      	adds	r4, r3, r2
   2af70:	42a3      	cmp	r3, r4
   2af72:	d221      	bcs.n	2afb8 <_ZN17compiler_builtins3mem6memcpy17h1f9dbb1c3fd18e2fE+0x106>
   2af74:	2503      	movs	r5, #3
   2af76:	4015      	ands	r5, r2
   2af78:	1e52      	subs	r2, r2, #1
   2af7a:	2d00      	cmp	r5, #0
   2af7c:	d00e      	beq.n	2af9c <_ZN17compiler_builtins3mem6memcpy17h1f9dbb1c3fd18e2fE+0xea>
   2af7e:	780e      	ldrb	r6, [r1, #0]
   2af80:	701e      	strb	r6, [r3, #0]
   2af82:	2d01      	cmp	r5, #1
   2af84:	d104      	bne.n	2af90 <_ZN17compiler_builtins3mem6memcpy17h1f9dbb1c3fd18e2fE+0xde>
   2af86:	1c49      	adds	r1, r1, #1
   2af88:	1c5b      	adds	r3, r3, #1
   2af8a:	2a03      	cmp	r2, #3
   2af8c:	d208      	bcs.n	2afa0 <_ZN17compiler_builtins3mem6memcpy17h1f9dbb1c3fd18e2fE+0xee>
   2af8e:	e013      	b.n	2afb8 <_ZN17compiler_builtins3mem6memcpy17h1f9dbb1c3fd18e2fE+0x106>
   2af90:	784e      	ldrb	r6, [r1, #1]
   2af92:	705e      	strb	r6, [r3, #1]
   2af94:	2d02      	cmp	r5, #2
   2af96:	d111      	bne.n	2afbc <_ZN17compiler_builtins3mem6memcpy17h1f9dbb1c3fd18e2fE+0x10a>
   2af98:	1c89      	adds	r1, r1, #2
   2af9a:	1c9b      	adds	r3, r3, #2
   2af9c:	2a03      	cmp	r2, #3
   2af9e:	d30b      	bcc.n	2afb8 <_ZN17compiler_builtins3mem6memcpy17h1f9dbb1c3fd18e2fE+0x106>
   2afa0:	780a      	ldrb	r2, [r1, #0]
   2afa2:	701a      	strb	r2, [r3, #0]
   2afa4:	784a      	ldrb	r2, [r1, #1]
   2afa6:	705a      	strb	r2, [r3, #1]
   2afa8:	788a      	ldrb	r2, [r1, #2]
   2afaa:	709a      	strb	r2, [r3, #2]
   2afac:	78ca      	ldrb	r2, [r1, #3]
   2afae:	70da      	strb	r2, [r3, #3]
   2afb0:	1d09      	adds	r1, r1, #4
   2afb2:	1d1b      	adds	r3, r3, #4
   2afb4:	42a3      	cmp	r3, r4
   2afb6:	d1f3      	bne.n	2afa0 <_ZN17compiler_builtins3mem6memcpy17h1f9dbb1c3fd18e2fE+0xee>
   2afb8:	b00f      	add	sp, #60	@ 0x3c
   2afba:	bdf0      	pop	{r4, r5, r6, r7, pc}
   2afbc:	788d      	ldrb	r5, [r1, #2]
   2afbe:	709d      	strb	r5, [r3, #2]
   2afc0:	1cc9      	adds	r1, r1, #3
   2afc2:	1cdb      	adds	r3, r3, #3
   2afc4:	2a03      	cmp	r2, #3
   2afc6:	d2eb      	bcs.n	2afa0 <_ZN17compiler_builtins3mem6memcpy17h1f9dbb1c3fd18e2fE+0xee>
   2afc8:	e7f6      	b.n	2afb8 <_ZN17compiler_builtins3mem6memcpy17h1f9dbb1c3fd18e2fE+0x106>
   2afca:	2400      	movs	r4, #0
   2afcc:	9406      	str	r4, [sp, #24]
   2afce:	940e      	str	r4, [sp, #56]	@ 0x38
   2afd0:	ac0e      	add	r4, sp, #56	@ 0x38
   2afd2:	19a4      	adds	r4, r4, r6
   2afd4:	9405      	str	r4, [sp, #20]
   2afd6:	2404      	movs	r4, #4
   2afd8:	1ba4      	subs	r4, r4, r6
   2afda:	9404      	str	r4, [sp, #16]
   2afdc:	07e4      	lsls	r4, r4, #31
   2afde:	9600      	str	r6, [sp, #0]
   2afe0:	d006      	beq.n	2aff0 <_ZN17compiler_builtins3mem6memcpy17h1f9dbb1c3fd18e2fE+0x13e>
   2afe2:	9c09      	ldr	r4, [sp, #36]	@ 0x24
   2afe4:	7824      	ldrb	r4, [r4, #0]
   2afe6:	9e05      	ldr	r6, [sp, #20]
   2afe8:	7034      	strb	r4, [r6, #0]
   2afea:	9e00      	ldr	r6, [sp, #0]
   2afec:	2401      	movs	r4, #1
   2afee:	9406      	str	r4, [sp, #24]
   2aff0:	9c04      	ldr	r4, [sp, #16]
   2aff2:	07a4      	lsls	r4, r4, #30
   2aff4:	d508      	bpl.n	2b008 <_ZN17compiler_builtins3mem6memcpy17h1f9dbb1c3fd18e2fE+0x156>
   2aff6:	9c09      	ldr	r4, [sp, #36]	@ 0x24
   2aff8:	9204      	str	r2, [sp, #16]
   2affa:	9a06      	ldr	r2, [sp, #24]
   2affc:	5aa4      	ldrh	r4, [r4, r2]
   2affe:	9e05      	ldr	r6, [sp, #20]
   2b000:	9a06      	ldr	r2, [sp, #24]
   2b002:	52b4      	strh	r4, [r6, r2]
   2b004:	9a04      	ldr	r2, [sp, #16]
   2b006:	9e00      	ldr	r6, [sp, #0]
   2b008:	00f4      	lsls	r4, r6, #3
   2b00a:	9403      	str	r4, [sp, #12]
   2b00c:	9c0e      	ldr	r4, [sp, #56]	@ 0x38
   2b00e:	9406      	str	r4, [sp, #24]
   2b010:	1d2c      	adds	r4, r5, #4
   2b012:	429c      	cmp	r4, r3
   2b014:	d236      	bcs.n	2b084 <_ZN17compiler_builtins3mem6memcpy17h1f9dbb1c3fd18e2fE+0x1d2>
   2b016:	4274      	negs	r4, r6
   2b018:	1909      	adds	r1, r1, r4
   2b01a:	9105      	str	r1, [sp, #20]
   2b01c:	9d03      	ldr	r5, [sp, #12]
   2b01e:	4269      	negs	r1, r5
   2b020:	2418      	movs	r4, #24
   2b022:	400c      	ands	r4, r1
   2b024:	9402      	str	r4, [sp, #8]
   2b026:	990a      	ldr	r1, [sp, #40]	@ 0x28
   2b028:	9104      	str	r1, [sp, #16]
   2b02a:	4629      	mov	r1, r5
   2b02c:	9c06      	ldr	r4, [sp, #24]
   2b02e:	40cc      	lsrs	r4, r1
   2b030:	9406      	str	r4, [sp, #24]
   2b032:	9905      	ldr	r1, [sp, #20]
   2b034:	1889      	adds	r1, r1, r2
   2b036:	9101      	str	r1, [sp, #4]
   2b038:	6849      	ldr	r1, [r1, #4]
   2b03a:	460c      	mov	r4, r1
   2b03c:	9d02      	ldr	r5, [sp, #8]
   2b03e:	40ac      	lsls	r4, r5
   2b040:	9d06      	ldr	r5, [sp, #24]
   2b042:	432c      	orrs	r4, r5
   2b044:	9d04      	ldr	r5, [sp, #16]
   2b046:	50ac      	str	r4, [r5, r2]
   2b048:	18ad      	adds	r5, r5, r2
   2b04a:	462c      	mov	r4, r5
   2b04c:	3408      	adds	r4, #8
   2b04e:	429c      	cmp	r4, r3
   2b050:	d21c      	bcs.n	2b08c <_ZN17compiler_builtins3mem6memcpy17h1f9dbb1c3fd18e2fE+0x1da>
   2b052:	9c03      	ldr	r4, [sp, #12]
   2b054:	40e1      	lsrs	r1, r4
   2b056:	9c01      	ldr	r4, [sp, #4]
   2b058:	68a4      	ldr	r4, [r4, #8]
   2b05a:	9406      	str	r4, [sp, #24]
   2b05c:	9501      	str	r5, [sp, #4]
   2b05e:	9d02      	ldr	r5, [sp, #8]
   2b060:	40ac      	lsls	r4, r5
   2b062:	430c      	orrs	r4, r1
   2b064:	9901      	ldr	r1, [sp, #4]
   2b066:	604c      	str	r4, [r1, #4]
   2b068:	9904      	ldr	r1, [sp, #16]
   2b06a:	3108      	adds	r1, #8
   2b06c:	9104      	str	r1, [sp, #16]
   2b06e:	188d      	adds	r5, r1, r2
   2b070:	1d29      	adds	r1, r5, #4
   2b072:	9c05      	ldr	r4, [sp, #20]
   2b074:	3408      	adds	r4, #8
   2b076:	9405      	str	r4, [sp, #20]
   2b078:	4299      	cmp	r1, r3
   2b07a:	9903      	ldr	r1, [sp, #12]
   2b07c:	d3d6      	bcc.n	2b02c <_ZN17compiler_builtins3mem6memcpy17h1f9dbb1c3fd18e2fE+0x17a>
   2b07e:	9805      	ldr	r0, [sp, #20]
   2b080:	1880      	adds	r0, r0, r2
   2b082:	e001      	b.n	2b088 <_ZN17compiler_builtins3mem6memcpy17h1f9dbb1c3fd18e2fE+0x1d6>
   2b084:	9809      	ldr	r0, [sp, #36]	@ 0x24
   2b086:	1b80      	subs	r0, r0, r6
   2b088:	9005      	str	r0, [sp, #20]
   2b08a:	e004      	b.n	2b096 <_ZN17compiler_builtins3mem6memcpy17h1f9dbb1c3fd18e2fE+0x1e4>
   2b08c:	9801      	ldr	r0, [sp, #4]
   2b08e:	1d00      	adds	r0, r0, #4
   2b090:	9005      	str	r0, [sp, #20]
   2b092:	1d2d      	adds	r5, r5, #4
   2b094:	9106      	str	r1, [sp, #24]
   2b096:	a80d      	add	r0, sp, #52	@ 0x34
   2b098:	2100      	movs	r1, #0
   2b09a:	9004      	str	r0, [sp, #16]
   2b09c:	7001      	strb	r1, [r0, #0]
   2b09e:	a80c      	add	r0, sp, #48	@ 0x30
   2b0a0:	7001      	strb	r1, [r0, #0]
   2b0a2:	2e01      	cmp	r6, #1
   2b0a4:	460e      	mov	r6, r1
   2b0a6:	460c      	mov	r4, r1
   2b0a8:	9102      	str	r1, [sp, #8]
   2b0aa:	9a0b      	ldr	r2, [sp, #44]	@ 0x2c
   2b0ac:	d009      	beq.n	2b0c2 <_ZN17compiler_builtins3mem6memcpy17h1f9dbb1c3fd18e2fE+0x210>
   2b0ae:	9c05      	ldr	r4, [sp, #20]
   2b0b0:	7960      	ldrb	r0, [r4, #5]
   2b0b2:	7926      	ldrb	r6, [r4, #4]
   2b0b4:	ac0d      	add	r4, sp, #52	@ 0x34
   2b0b6:	7026      	strb	r6, [r4, #0]
   2b0b8:	0204      	lsls	r4, r0, #8
   2b0ba:	2002      	movs	r0, #2
   2b0bc:	9002      	str	r0, [sp, #8]
   2b0be:	a80c      	add	r0, sp, #48	@ 0x30
   2b0c0:	9004      	str	r0, [sp, #16]
   2b0c2:	9809      	ldr	r0, [sp, #36]	@ 0x24
   2b0c4:	07c0      	lsls	r0, r0, #31
   2b0c6:	d00a      	beq.n	2b0de <_ZN17compiler_builtins3mem6memcpy17h1f9dbb1c3fd18e2fE+0x22c>
   2b0c8:	9805      	ldr	r0, [sp, #20]
   2b0ca:	1d00      	adds	r0, r0, #4
   2b0cc:	9902      	ldr	r1, [sp, #8]
   2b0ce:	5c40      	ldrb	r0, [r0, r1]
   2b0d0:	9904      	ldr	r1, [sp, #16]
   2b0d2:	7008      	strb	r0, [r1, #0]
   2b0d4:	a80d      	add	r0, sp, #52	@ 0x34
   2b0d6:	7806      	ldrb	r6, [r0, #0]
   2b0d8:	a80c      	add	r0, sp, #48	@ 0x30
   2b0da:	7800      	ldrb	r0, [r0, #0]
   2b0dc:	0401      	lsls	r1, r0, #16
   2b0de:	9605      	str	r6, [sp, #20]
   2b0e0:	9803      	ldr	r0, [sp, #12]
   2b0e2:	4240      	negs	r0, r0
   2b0e4:	9004      	str	r0, [sp, #16]
   2b0e6:	2618      	movs	r6, #24
   2b0e8:	9804      	ldr	r0, [sp, #16]
   2b0ea:	4006      	ands	r6, r0
   2b0ec:	430c      	orrs	r4, r1
   2b0ee:	9905      	ldr	r1, [sp, #20]
   2b0f0:	430c      	orrs	r4, r1
   2b0f2:	40b4      	lsls	r4, r6
   2b0f4:	9906      	ldr	r1, [sp, #24]
   2b0f6:	9803      	ldr	r0, [sp, #12]
   2b0f8:	40c1      	lsrs	r1, r0
   2b0fa:	4321      	orrs	r1, r4
   2b0fc:	6029      	str	r1, [r5, #0]
   2b0fe:	9c08      	ldr	r4, [sp, #32]
   2b100:	9e09      	ldr	r6, [sp, #36]	@ 0x24
   2b102:	e730      	b.n	2af66 <_ZN17compiler_builtins3mem6memcpy17h1f9dbb1c3fd18e2fE+0xb4>

0002b104 <__aeabi_memcpy>:
   2b104:	b580      	push	{r7, lr}
   2b106:	af00      	add	r7, sp, #0
   2b108:	f7ff fed3 	bl	2aeb2 <_ZN17compiler_builtins3mem6memcpy17h1f9dbb1c3fd18e2fE>
   2b10c:	bd80      	pop	{r7, pc}
