
target/thumbv6m-none-eabi/opt-s/examples/complex_dynamic_type:     file format elf32-littlearm

Sections:
Idx Name          Size      VMA       LMA       File off  Algn
  0 .ARM.exidx    00000010  000100d4  000100d4  000000d4  2**2
                  CONTENTS, ALLOC, LOAD, READONLY, DATA
  1 .text         0000a4a2  000200e4  000200e4  000000e4  2**2
                  CONTENTS, ALLOC, LOAD, READONLY, CODE
  2 .comment      00000099  00000000  00000000  0000a586  2**0
                  CONTENTS, READONLY
  3 .ARM.attributes 00000032  00000000  00000000  0000a61f  2**0
                  CONTENTS, READONLY

Disassembly of section .text:

000200e4 <_ZN9allow_pin12dynamic_type23Buffer$LT$B$C$_$C$_$GT$5allow17h1b2820bb4a1e1771E>:
   200e4:	b5f0      	push	{r4, r5, r6, r7, lr}
   200e6:	af03      	add	r7, sp, #12
   200e8:	4606      	mov	r6, r0
   200ea:	7800      	ldrb	r0, [r0, #0]
   200ec:	2401      	movs	r4, #1
   200ee:	2802      	cmp	r0, #2
   200f0:	d109      	bne.n	20106 <_ZN9allow_pin12dynamic_type23Buffer$LT$B$C$_$C$_$GT$5allow17h1b2820bb4a1e1771E+0x22>
   200f2:	4615      	mov	r5, r2
   200f4:	460b      	mov	r3, r1
   200f6:	1c72      	adds	r2, r6, #1
   200f8:	b2e8      	uxtb	r0, r5
   200fa:	2803      	cmp	r0, #3
   200fc:	d105      	bne.n	2010a <_ZN9allow_pin12dynamic_type23Buffer$LT$B$C$_$C$_$GT$5allow17h1b2820bb4a1e1771E+0x26>
   200fe:	4807      	ldr	r0, [pc, #28]	@ (2011c <_ZN9allow_pin12dynamic_type23Buffer$LT$B$C$_$C$_$GT$5allow17h1b2820bb4a1e1771E+0x38>)
   20100:	2106      	movs	r1, #6
   20102:	df03      	svc	3
   20104:	e004      	b.n	20110 <_ZN9allow_pin12dynamic_type23Buffer$LT$B$C$_$C$_$GT$5allow17h1b2820bb4a1e1771E+0x2c>
   20106:	2103      	movs	r1, #3
   20108:	e006      	b.n	20118 <_ZN9allow_pin12dynamic_type23Buffer$LT$B$C$_$C$_$GT$5allow17h1b2820bb4a1e1771E+0x34>
   2010a:	4804      	ldr	r0, [pc, #16]	@ (2011c <_ZN9allow_pin12dynamic_type23Buffer$LT$B$C$_$C$_$GT$5allow17h1b2820bb4a1e1771E+0x38>)
   2010c:	2106      	movs	r1, #6
   2010e:	df04      	svc	4
   20110:	2802      	cmp	r0, #2
   20112:	d001      	beq.n	20118 <_ZN9allow_pin12dynamic_type23Buffer$LT$B$C$_$C$_$GT$5allow17h1b2820bb4a1e1771E+0x34>
   20114:	7035      	strb	r5, [r6, #0]
   20116:	2400      	movs	r4, #0
   20118:	4620      	mov	r0, r4
   2011a:	bdf0      	pop	{r4, r5, r6, r7, pc}
   2011c:	00001c6b 	.word	0x00001c6b

00020120 <_ZN9allow_pin12dynamic_type23Buffer$LT$B$C$_$C$_$GT$5allow17h2018b3bba3d150e7E>:
   20120:	b5f0      	push	{r4, r5, r6, r7, lr}
   20122:	af03      	add	r7, sp, #12
   20124:	4606      	mov	r6, r0
   20126:	7800      	ldrb	r0, [r0, #0]
   20128:	2401      	movs	r4, #1
   2012a:	2802      	cmp	r0, #2
   2012c:	d109      	bne.n	20142 <_ZN9allow_pin12dynamic_type23Buffer$LT$B$C$_$C$_$GT$5allow17h2018b3bba3d150e7E+0x22>
   2012e:	4615      	mov	r5, r2
   20130:	460b      	mov	r3, r1
   20132:	1c72      	adds	r2, r6, #1
   20134:	b2e8      	uxtb	r0, r5
   20136:	2803      	cmp	r0, #3
   20138:	d105      	bne.n	20146 <_ZN9allow_pin12dynamic_type23Buffer$LT$B$C$_$C$_$GT$5allow17h2018b3bba3d150e7E+0x26>
   2013a:	4807      	ldr	r0, [pc, #28]	@ (20158 <_ZN9allow_pin12dynamic_type23Buffer$LT$B$C$_$C$_$GT$5allow17h2018b3bba3d150e7E+0x38>)
   2013c:	2100      	movs	r1, #0
   2013e:	df03      	svc	3
   20140:	e004      	b.n	2014c <_ZN9allow_pin12dynamic_type23Buffer$LT$B$C$_$C$_$GT$5allow17h2018b3bba3d150e7E+0x2c>
   20142:	2103      	movs	r1, #3
   20144:	e006      	b.n	20154 <_ZN9allow_pin12dynamic_type23Buffer$LT$B$C$_$C$_$GT$5allow17h2018b3bba3d150e7E+0x34>
   20146:	4804      	ldr	r0, [pc, #16]	@ (20158 <_ZN9allow_pin12dynamic_type23Buffer$LT$B$C$_$C$_$GT$5allow17h2018b3bba3d150e7E+0x38>)
   20148:	2100      	movs	r1, #0
   2014a:	df04      	svc	4
   2014c:	2802      	cmp	r0, #2
   2014e:	d001      	beq.n	20154 <_ZN9allow_pin12dynamic_type23Buffer$LT$B$C$_$C$_$GT$5allow17h2018b3bba3d150e7E+0x34>
   20150:	7035      	strb	r5, [r6, #0]
   20152:	2400      	movs	r4, #0
   20154:	4620      	mov	r0, r4
   20156:	bdf0      	pop	{r4, r5, r6, r7, pc}
   20158:	000016b0 	.word	0x000016b0

0002015c <_ZN9allow_pin12dynamic_type23Buffer$LT$B$C$_$C$_$GT$5allow17h2c291363bd4b071eE>:
   2015c:	b5f0      	push	{r4, r5, r6, r7, lr}
   2015e:	af03      	add	r7, sp, #12
   20160:	4606      	mov	r6, r0
   20162:	7800      	ldrb	r0, [r0, #0]
   20164:	2401      	movs	r4, #1
   20166:	2802      	cmp	r0, #2
   20168:	d109      	bne.n	2017e <_ZN9allow_pin12dynamic_type23Buffer$LT$B$C$_$C$_$GT$5allow17h2c291363bd4b071eE+0x22>
   2016a:	4615      	mov	r5, r2
   2016c:	460b      	mov	r3, r1
   2016e:	1c72      	adds	r2, r6, #1
   20170:	b2e8      	uxtb	r0, r5
   20172:	2803      	cmp	r0, #3
   20174:	d105      	bne.n	20182 <_ZN9allow_pin12dynamic_type23Buffer$LT$B$C$_$C$_$GT$5allow17h2c291363bd4b071eE+0x26>
   20176:	4807      	ldr	r0, [pc, #28]	@ (20194 <_ZN9allow_pin12dynamic_type23Buffer$LT$B$C$_$C$_$GT$5allow17h2c291363bd4b071eE+0x38>)
   20178:	2103      	movs	r1, #3
   2017a:	df03      	svc	3
   2017c:	e004      	b.n	20188 <_ZN9allow_pin12dynamic_type23Buffer$LT$B$C$_$C$_$GT$5allow17h2c291363bd4b071eE+0x2c>
   2017e:	2103      	movs	r1, #3
   20180:	e006      	b.n	20190 <_ZN9allow_pin12dynamic_type23Buffer$LT$B$C$_$C$_$GT$5allow17h2c291363bd4b071eE+0x34>
   20182:	4804      	ldr	r0, [pc, #16]	@ (20194 <_ZN9allow_pin12dynamic_type23Buffer$LT$B$C$_$C$_$GT$5allow17h2c291363bd4b071eE+0x38>)
   20184:	2103      	movs	r1, #3
   20186:	df04      	svc	4
   20188:	2802      	cmp	r0, #2
   2018a:	d001      	beq.n	20190 <_ZN9allow_pin12dynamic_type23Buffer$LT$B$C$_$C$_$GT$5allow17h2c291363bd4b071eE+0x34>
   2018c:	7035      	strb	r5, [r6, #0]
   2018e:	2400      	movs	r4, #0
   20190:	4620      	mov	r0, r4
   20192:	bdf0      	pop	{r4, r5, r6, r7, pc}
   20194:	000010e2 	.word	0x000010e2

00020198 <_ZN9allow_pin12dynamic_type23Buffer$LT$B$C$_$C$_$GT$5allow17h44e8705f88810bc2E>:
   20198:	b5f0      	push	{r4, r5, r6, r7, lr}
   2019a:	af03      	add	r7, sp, #12
   2019c:	4606      	mov	r6, r0
   2019e:	7800      	ldrb	r0, [r0, #0]
   201a0:	2401      	movs	r4, #1
   201a2:	2802      	cmp	r0, #2
   201a4:	d109      	bne.n	201ba <_ZN9allow_pin12dynamic_type23Buffer$LT$B$C$_$C$_$GT$5allow17h44e8705f88810bc2E+0x22>
   201a6:	4615      	mov	r5, r2
   201a8:	460b      	mov	r3, r1
   201aa:	1c72      	adds	r2, r6, #1
   201ac:	b2e8      	uxtb	r0, r5
   201ae:	2803      	cmp	r0, #3
   201b0:	d105      	bne.n	201be <_ZN9allow_pin12dynamic_type23Buffer$LT$B$C$_$C$_$GT$5allow17h44e8705f88810bc2E+0x26>
   201b2:	4807      	ldr	r0, [pc, #28]	@ (201d0 <_ZN9allow_pin12dynamic_type23Buffer$LT$B$C$_$C$_$GT$5allow17h44e8705f88810bc2E+0x38>)
   201b4:	2102      	movs	r1, #2
   201b6:	df03      	svc	3
   201b8:	e004      	b.n	201c4 <_ZN9allow_pin12dynamic_type23Buffer$LT$B$C$_$C$_$GT$5allow17h44e8705f88810bc2E+0x2c>
   201ba:	2103      	movs	r1, #3
   201bc:	e006      	b.n	201cc <_ZN9allow_pin12dynamic_type23Buffer$LT$B$C$_$C$_$GT$5allow17h44e8705f88810bc2E+0x34>
   201be:	4804      	ldr	r0, [pc, #16]	@ (201d0 <_ZN9allow_pin12dynamic_type23Buffer$LT$B$C$_$C$_$GT$5allow17h44e8705f88810bc2E+0x38>)
   201c0:	2102      	movs	r1, #2
   201c2:	df04      	svc	4
   201c4:	2802      	cmp	r0, #2
   201c6:	d001      	beq.n	201cc <_ZN9allow_pin12dynamic_type23Buffer$LT$B$C$_$C$_$GT$5allow17h44e8705f88810bc2E+0x34>
   201c8:	7035      	strb	r5, [r6, #0]
   201ca:	2400      	movs	r4, #0
   201cc:	4620      	mov	r0, r4
   201ce:	bdf0      	pop	{r4, r5, r6, r7, pc}
   201d0:	00000c89 	.word	0x00000c89

000201d4 <_ZN9allow_pin12dynamic_type23Buffer$LT$B$C$_$C$_$GT$5allow17h6d6d223bc8265b67E>:
   201d4:	b5f0      	push	{r4, r5, r6, r7, lr}
   201d6:	af03      	add	r7, sp, #12
   201d8:	4606      	mov	r6, r0
   201da:	7800      	ldrb	r0, [r0, #0]
   201dc:	2401      	movs	r4, #1
   201de:	2802      	cmp	r0, #2
   201e0:	d109      	bne.n	201f6 <_ZN9allow_pin12dynamic_type23Buffer$LT$B$C$_$C$_$GT$5allow17h6d6d223bc8265b67E+0x22>
   201e2:	4615      	mov	r5, r2
   201e4:	460b      	mov	r3, r1
   201e6:	1c72      	adds	r2, r6, #1
   201e8:	b2e8      	uxtb	r0, r5
   201ea:	2803      	cmp	r0, #3
   201ec:	d105      	bne.n	201fa <_ZN9allow_pin12dynamic_type23Buffer$LT$B$C$_$C$_$GT$5allow17h6d6d223bc8265b67E+0x26>
   201ee:	4807      	ldr	r0, [pc, #28]	@ (2020c <_ZN9allow_pin12dynamic_type23Buffer$LT$B$C$_$C$_$GT$5allow17h6d6d223bc8265b67E+0x38>)
   201f0:	2109      	movs	r1, #9
   201f2:	df03      	svc	3
   201f4:	e004      	b.n	20200 <_ZN9allow_pin12dynamic_type23Buffer$LT$B$C$_$C$_$GT$5allow17h6d6d223bc8265b67E+0x2c>
   201f6:	2103      	movs	r1, #3
   201f8:	e006      	b.n	20208 <_ZN9allow_pin12dynamic_type23Buffer$LT$B$C$_$C$_$GT$5allow17h6d6d223bc8265b67E+0x34>
   201fa:	4804      	ldr	r0, [pc, #16]	@ (2020c <_ZN9allow_pin12dynamic_type23Buffer$LT$B$C$_$C$_$GT$5allow17h6d6d223bc8265b67E+0x38>)
   201fc:	2109      	movs	r1, #9
   201fe:	df04      	svc	4
   20200:	2802      	cmp	r0, #2
   20202:	d001      	beq.n	20208 <_ZN9allow_pin12dynamic_type23Buffer$LT$B$C$_$C$_$GT$5allow17h6d6d223bc8265b67E+0x34>
   20204:	7035      	strb	r5, [r6, #0]
   20206:	2400      	movs	r4, #0
   20208:	4620      	mov	r0, r4
   2020a:	bdf0      	pop	{r4, r5, r6, r7, pc}
   2020c:	00000a9d 	.word	0x00000a9d

00020210 <_ZN9allow_pin12dynamic_type23Buffer$LT$B$C$_$C$_$GT$5allow17h9d320a4da3f04079E>:
   20210:	b5f0      	push	{r4, r5, r6, r7, lr}
   20212:	af03      	add	r7, sp, #12
   20214:	4606      	mov	r6, r0
   20216:	7800      	ldrb	r0, [r0, #0]
   20218:	2401      	movs	r4, #1
   2021a:	2802      	cmp	r0, #2
   2021c:	d109      	bne.n	20232 <_ZN9allow_pin12dynamic_type23Buffer$LT$B$C$_$C$_$GT$5allow17h9d320a4da3f04079E+0x22>
   2021e:	4615      	mov	r5, r2
   20220:	460b      	mov	r3, r1
   20222:	1c72      	adds	r2, r6, #1
   20224:	b2e8      	uxtb	r0, r5
   20226:	2803      	cmp	r0, #3
   20228:	d105      	bne.n	20236 <_ZN9allow_pin12dynamic_type23Buffer$LT$B$C$_$C$_$GT$5allow17h9d320a4da3f04079E+0x26>
   2022a:	4807      	ldr	r0, [pc, #28]	@ (20248 <_ZN9allow_pin12dynamic_type23Buffer$LT$B$C$_$C$_$GT$5allow17h9d320a4da3f04079E+0x38>)
   2022c:	2109      	movs	r1, #9
   2022e:	df03      	svc	3
   20230:	e004      	b.n	2023c <_ZN9allow_pin12dynamic_type23Buffer$LT$B$C$_$C$_$GT$5allow17h9d320a4da3f04079E+0x2c>
   20232:	2103      	movs	r1, #3
   20234:	e006      	b.n	20244 <_ZN9allow_pin12dynamic_type23Buffer$LT$B$C$_$C$_$GT$5allow17h9d320a4da3f04079E+0x34>
   20236:	4804      	ldr	r0, [pc, #16]	@ (20248 <_ZN9allow_pin12dynamic_type23Buffer$LT$B$C$_$C$_$GT$5allow17h9d320a4da3f04079E+0x38>)
   20238:	2109      	movs	r1, #9
   2023a:	df04      	svc	4
   2023c:	2802      	cmp	r0, #2
   2023e:	d001      	beq.n	20244 <_ZN9allow_pin12dynamic_type23Buffer$LT$B$C$_$C$_$GT$5allow17h9d320a4da3f04079E+0x34>
   20240:	7035      	strb	r5, [r6, #0]
   20242:	2400      	movs	r4, #0
   20244:	4620      	mov	r0, r4
   20246:	bdf0      	pop	{r4, r5, r6, r7, pc}
   20248:	0000055e 	.word	0x0000055e

0002024c <_ZN9allow_pin12dynamic_type23Buffer$LT$B$C$_$C$_$GT$5allow17ha4f36bb15a0c4487E>:
   2024c:	b5f0      	push	{r4, r5, r6, r7, lr}
   2024e:	af03      	add	r7, sp, #12
   20250:	4606      	mov	r6, r0
   20252:	7800      	ldrb	r0, [r0, #0]
   20254:	2401      	movs	r4, #1
   20256:	2802      	cmp	r0, #2
   20258:	d109      	bne.n	2026e <_ZN9allow_pin12dynamic_type23Buffer$LT$B$C$_$C$_$GT$5allow17ha4f36bb15a0c4487E+0x22>
   2025a:	4615      	mov	r5, r2
   2025c:	460b      	mov	r3, r1
   2025e:	1c72      	adds	r2, r6, #1
   20260:	b2e8      	uxtb	r0, r5
   20262:	2803      	cmp	r0, #3
   20264:	d105      	bne.n	20272 <_ZN9allow_pin12dynamic_type23Buffer$LT$B$C$_$C$_$GT$5allow17ha4f36bb15a0c4487E+0x26>
   20266:	4807      	ldr	r0, [pc, #28]	@ (20284 <_ZN9allow_pin12dynamic_type23Buffer$LT$B$C$_$C$_$GT$5allow17ha4f36bb15a0c4487E+0x38>)
   20268:	2103      	movs	r1, #3
   2026a:	df03      	svc	3
   2026c:	e004      	b.n	20278 <_ZN9allow_pin12dynamic_type23Buffer$LT$B$C$_$C$_$GT$5allow17ha4f36bb15a0c4487E+0x2c>
   2026e:	2103      	movs	r1, #3
   20270:	e006      	b.n	20280 <_ZN9allow_pin12dynamic_type23Buffer$LT$B$C$_$C$_$GT$5allow17ha4f36bb15a0c4487E+0x34>
   20272:	4804      	ldr	r0, [pc, #16]	@ (20284 <_ZN9allow_pin12dynamic_type23Buffer$LT$B$C$_$C$_$GT$5allow17ha4f36bb15a0c4487E+0x38>)
   20274:	2103      	movs	r1, #3
   20276:	df04      	svc	4
   20278:	2802      	cmp	r0, #2
   2027a:	d001      	beq.n	20280 <_ZN9allow_pin12dynamic_type23Buffer$LT$B$C$_$C$_$GT$5allow17ha4f36bb15a0c4487E+0x34>
   2027c:	7035      	strb	r5, [r6, #0]
   2027e:	2400      	movs	r4, #0
   20280:	4620      	mov	r0, r4
   20282:	bdf0      	pop	{r4, r5, r6, r7, pc}
   20284:	00002548 	.word	0x00002548

00020288 <_ZN9allow_pin12dynamic_type23Buffer$LT$B$C$_$C$_$GT$5allow17hb69eb7ecb6f626d4E>:
   20288:	b5f0      	push	{r4, r5, r6, r7, lr}
   2028a:	af03      	add	r7, sp, #12
   2028c:	4606      	mov	r6, r0
   2028e:	7800      	ldrb	r0, [r0, #0]
   20290:	2401      	movs	r4, #1
   20292:	2802      	cmp	r0, #2
   20294:	d109      	bne.n	202aa <_ZN9allow_pin12dynamic_type23Buffer$LT$B$C$_$C$_$GT$5allow17hb69eb7ecb6f626d4E+0x22>
   20296:	4615      	mov	r5, r2
   20298:	460b      	mov	r3, r1
   2029a:	1c72      	adds	r2, r6, #1
   2029c:	b2e8      	uxtb	r0, r5
   2029e:	2803      	cmp	r0, #3
   202a0:	d105      	bne.n	202ae <_ZN9allow_pin12dynamic_type23Buffer$LT$B$C$_$C$_$GT$5allow17hb69eb7ecb6f626d4E+0x26>
   202a2:	4807      	ldr	r0, [pc, #28]	@ (202c0 <_ZN9allow_pin12dynamic_type23Buffer$LT$B$C$_$C$_$GT$5allow17hb69eb7ecb6f626d4E+0x38>)
   202a4:	2109      	movs	r1, #9
   202a6:	df03      	svc	3
   202a8:	e004      	b.n	202b4 <_ZN9allow_pin12dynamic_type23Buffer$LT$B$C$_$C$_$GT$5allow17hb69eb7ecb6f626d4E+0x2c>
   202aa:	2103      	movs	r1, #3
   202ac:	e006      	b.n	202bc <_ZN9allow_pin12dynamic_type23Buffer$LT$B$C$_$C$_$GT$5allow17hb69eb7ecb6f626d4E+0x34>
   202ae:	4804      	ldr	r0, [pc, #16]	@ (202c0 <_ZN9allow_pin12dynamic_type23Buffer$LT$B$C$_$C$_$GT$5allow17hb69eb7ecb6f626d4E+0x38>)
   202b0:	2109      	movs	r1, #9
   202b2:	df04      	svc	4
   202b4:	2802      	cmp	r0, #2
   202b6:	d001      	beq.n	202bc <_ZN9allow_pin12dynamic_type23Buffer$LT$B$C$_$C$_$GT$5allow17hb69eb7ecb6f626d4E+0x34>
   202b8:	7035      	strb	r5, [r6, #0]
   202ba:	2400      	movs	r4, #0
   202bc:	4620      	mov	r0, r4
   202be:	bdf0      	pop	{r4, r5, r6, r7, pc}
   202c0:	00002006 	.word	0x00002006

000202c4 <_ZN9allow_pin12dynamic_type23Buffer$LT$B$C$_$C$_$GT$5allow17hc3fc49490ee033a6E>:
   202c4:	b5f0      	push	{r4, r5, r6, r7, lr}
   202c6:	af03      	add	r7, sp, #12
   202c8:	4606      	mov	r6, r0
   202ca:	7800      	ldrb	r0, [r0, #0]
   202cc:	2401      	movs	r4, #1
   202ce:	2802      	cmp	r0, #2
   202d0:	d109      	bne.n	202e6 <_ZN9allow_pin12dynamic_type23Buffer$LT$B$C$_$C$_$GT$5allow17hc3fc49490ee033a6E+0x22>
   202d2:	4615      	mov	r5, r2
   202d4:	460b      	mov	r3, r1
   202d6:	1c72      	adds	r2, r6, #1
   202d8:	b2e8      	uxtb	r0, r5
   202da:	2803      	cmp	r0, #3
   202dc:	d105      	bne.n	202ea <_ZN9allow_pin12dynamic_type23Buffer$LT$B$C$_$C$_$GT$5allow17hc3fc49490ee033a6E+0x26>
   202de:	4807      	ldr	r0, [pc, #28]	@ (202fc <_ZN9allow_pin12dynamic_type23Buffer$LT$B$C$_$C$_$GT$5allow17hc3fc49490ee033a6E+0x38>)
   202e0:	2108      	movs	r1, #8
   202e2:	df03      	svc	3
   202e4:	e004      	b.n	202f0 <_ZN9allow_pin12dynamic_type23Buffer$LT$B$C$_$C$_$GT$5allow17hc3fc49490ee033a6E+0x2c>
   202e6:	2103      	movs	r1, #3
   202e8:	e006      	b.n	202f8 <_ZN9allow_pin12dynamic_type23Buffer$LT$B$C$_$C$_$GT$5allow17hc3fc49490ee033a6E+0x34>
   202ea:	4804      	ldr	r0, [pc, #16]	@ (202fc <_ZN9allow_pin12dynamic_type23Buffer$LT$B$C$_$C$_$GT$5allow17hc3fc49490ee033a6E+0x38>)
   202ec:	2108      	movs	r1, #8
   202ee:	df04      	svc	4
   202f0:	2802      	cmp	r0, #2
   202f2:	d001      	beq.n	202f8 <_ZN9allow_pin12dynamic_type23Buffer$LT$B$C$_$C$_$GT$5allow17hc3fc49490ee033a6E+0x34>
   202f4:	7035      	strb	r5, [r6, #0]
   202f6:	2400      	movs	r4, #0
   202f8:	4620      	mov	r0, r4
   202fa:	bdf0      	pop	{r4, r5, r6, r7, pc}
   202fc:	00002095 	.word	0x00002095

00020300 <_ZN9allow_pin12dynamic_type23Buffer$LT$B$C$_$C$_$GT$5allow17hc408ae422deb27bbE>:
   20300:	b5f0      	push	{r4, r5, r6, r7, lr}
   20302:	af03      	add	r7, sp, #12
   20304:	4606      	mov	r6, r0
   20306:	7800      	ldrb	r0, [r0, #0]
   20308:	2401      	movs	r4, #1
   2030a:	2802      	cmp	r0, #2
   2030c:	d109      	bne.n	20322 <_ZN9allow_pin12dynamic_type23Buffer$LT$B$C$_$C$_$GT$5allow17hc408ae422deb27bbE+0x22>
   2030e:	4615      	mov	r5, r2
   20310:	460b      	mov	r3, r1
   20312:	1c72      	adds	r2, r6, #1
   20314:	b2e8      	uxtb	r0, r5
   20316:	2803      	cmp	r0, #3
   20318:	d105      	bne.n	20326 <_ZN9allow_pin12dynamic_type23Buffer$LT$B$C$_$C$_$GT$5allow17hc408ae422deb27bbE+0x26>
   2031a:	4807      	ldr	r0, [pc, #28]	@ (20338 <_ZN9allow_pin12dynamic_type23Buffer$LT$B$C$_$C$_$GT$5allow17hc408ae422deb27bbE+0x38>)
   2031c:	2103      	movs	r1, #3
   2031e:	df03      	svc	3
   20320:	e004      	b.n	2032c <_ZN9allow_pin12dynamic_type23Buffer$LT$B$C$_$C$_$GT$5allow17hc408ae422deb27bbE+0x2c>
   20322:	2103      	movs	r1, #3
   20324:	e006      	b.n	20334 <_ZN9allow_pin12dynamic_type23Buffer$LT$B$C$_$C$_$GT$5allow17hc408ae422deb27bbE+0x34>
   20326:	4804      	ldr	r0, [pc, #16]	@ (20338 <_ZN9allow_pin12dynamic_type23Buffer$LT$B$C$_$C$_$GT$5allow17hc408ae422deb27bbE+0x38>)
   20328:	2103      	movs	r1, #3
   2032a:	df04      	svc	4
   2032c:	2802      	cmp	r0, #2
   2032e:	d001      	beq.n	20334 <_ZN9allow_pin12dynamic_type23Buffer$LT$B$C$_$C$_$GT$5allow17hc408ae422deb27bbE+0x34>
   20330:	7035      	strb	r5, [r6, #0]
   20332:	2400      	movs	r4, #0
   20334:	4620      	mov	r0, r4
   20336:	bdf0      	pop	{r4, r5, r6, r7, pc}
   20338:	00001d19 	.word	0x00001d19

0002033c <_ZN20complex_dynamic_type3app17h00db8c3e0db7e02aE>:
   2033c:	b5f0      	push	{r4, r5, r6, r7, lr}
   2033e:	af03      	add	r7, sp, #12
   20340:	b095      	sub	sp, #84	@ 0x54
   20342:	9003      	str	r0, [sp, #12]
   20344:	a804      	add	r0, sp, #16
   20346:	2502      	movs	r5, #2
   20348:	7005      	strb	r5, [r0, #0]
   2034a:	1c40      	adds	r0, r0, #1
   2034c:	9002      	str	r0, [sp, #8]
   2034e:	2625      	movs	r6, #37	@ 0x25
   20350:	4632      	mov	r2, r6
   20352:	f00a f913 	bl	2a57c <__aeabi_memcpy>
   20356:	ac0e      	add	r4, sp, #56	@ 0x38
   20358:	1c60      	adds	r0, r4, #1
   2035a:	2118      	movs	r1, #24
   2035c:	9001      	str	r0, [sp, #4]
   2035e:	f009 ff4d 	bl	2a1fc <__aeabi_memclr>
   20362:	9500      	str	r5, [sp, #0]
   20364:	7025      	strb	r5, [r4, #0]
   20366:	20a7      	movs	r0, #167	@ 0xa7
   20368:	0104      	lsls	r4, r0, #4
   2036a:	2109      	movs	r1, #9
   2036c:	4620      	mov	r0, r4
   2036e:	9a02      	ldr	r2, [sp, #8]
   20370:	4633      	mov	r3, r6
   20372:	df04      	svc	4
   20374:	2802      	cmp	r0, #2
   20376:	d104      	bne.n	20382 <_ZN20complex_dynamic_type3app17h00db8c3e0db7e02aE+0x46>
   20378:	2001      	movs	r0, #1
   2037a:	9a03      	ldr	r2, [sp, #12]
   2037c:	7010      	strb	r0, [r2, #0]
   2037e:	6051      	str	r1, [r2, #4]
   20380:	e02d      	b.n	203de <_ZN20complex_dynamic_type3app17h00db8c3e0db7e02aE+0xa2>
   20382:	9e03      	ldr	r6, [sp, #12]
   20384:	a804      	add	r0, sp, #16
   20386:	2104      	movs	r1, #4
   20388:	7001      	strb	r1, [r0, #0]
   2038a:	2108      	movs	r1, #8
   2038c:	2318      	movs	r3, #24
   2038e:	4620      	mov	r0, r4
   20390:	9d01      	ldr	r5, [sp, #4]
   20392:	462a      	mov	r2, r5
   20394:	df03      	svc	3
   20396:	2802      	cmp	r0, #2
   20398:	d10e      	bne.n	203b8 <_ZN20complex_dynamic_type3app17h00db8c3e0db7e02aE+0x7c>
   2039a:	2001      	movs	r0, #1
   2039c:	7030      	strb	r0, [r6, #0]
   2039e:	6071      	str	r1, [r6, #4]
   203a0:	a80e      	add	r0, sp, #56	@ 0x38
   203a2:	7800      	ldrb	r0, [r0, #0]
   203a4:	2802      	cmp	r0, #2
   203a6:	d01a      	beq.n	203de <_ZN20complex_dynamic_type3app17h00db8c3e0db7e02aE+0xa2>
   203a8:	2803      	cmp	r0, #3
   203aa:	d013      	beq.n	203d4 <_ZN20complex_dynamic_type3app17h00db8c3e0db7e02aE+0x98>
   203ac:	2108      	movs	r1, #8
   203ae:	2200      	movs	r2, #0
   203b0:	4620      	mov	r0, r4
   203b2:	4613      	mov	r3, r2
   203b4:	df04      	svc	4
   203b6:	e012      	b.n	203de <_ZN20complex_dynamic_type3app17h00db8c3e0db7e02aE+0xa2>
   203b8:	a80e      	add	r0, sp, #56	@ 0x38
   203ba:	2103      	movs	r1, #3
   203bc:	7001      	strb	r1, [r0, #0]
   203be:	2109      	movs	r1, #9
   203c0:	2208      	movs	r2, #8
   203c2:	2300      	movs	r3, #0
   203c4:	4620      	mov	r0, r4
   203c6:	9302      	str	r3, [sp, #8]
   203c8:	df02      	svc	2
   203ca:	287f      	cmp	r0, #127	@ 0x7f
   203cc:	d817      	bhi.n	203fe <_ZN20complex_dynamic_type3app17h00db8c3e0db7e02aE+0xc2>
   203ce:	2001      	movs	r0, #1
   203d0:	7030      	strb	r0, [r6, #0]
   203d2:	6071      	str	r1, [r6, #4]
   203d4:	2108      	movs	r1, #8
   203d6:	2200      	movs	r2, #0
   203d8:	4620      	mov	r0, r4
   203da:	4613      	mov	r3, r2
   203dc:	df03      	svc	3
   203de:	4625      	mov	r5, r4
   203e0:	a804      	add	r0, sp, #16
   203e2:	7804      	ldrb	r4, [r0, #0]
   203e4:	2c02      	cmp	r4, #2
   203e6:	d008      	beq.n	203fa <_ZN20complex_dynamic_type3app17h00db8c3e0db7e02aE+0xbe>
   203e8:	2109      	movs	r1, #9
   203ea:	2200      	movs	r2, #0
   203ec:	4628      	mov	r0, r5
   203ee:	4613      	mov	r3, r2
   203f0:	2c03      	cmp	r4, #3
   203f2:	d101      	bne.n	203f8 <_ZN20complex_dynamic_type3app17h00db8c3e0db7e02aE+0xbc>
   203f4:	df03      	svc	3
   203f6:	e000      	b.n	203fa <_ZN20complex_dynamic_type3app17h00db8c3e0db7e02aE+0xbe>
   203f8:	df04      	svc	4
   203fa:	b015      	add	sp, #84	@ 0x54
   203fc:	bdf0      	pop	{r4, r5, r6, r7, pc}
   203fe:	a804      	add	r0, sp, #16
   20400:	7800      	ldrb	r0, [r0, #0]
   20402:	2802      	cmp	r0, #2
   20404:	d01b      	beq.n	2043e <_ZN20complex_dynamic_type3app17h00db8c3e0db7e02aE+0x102>
   20406:	2109      	movs	r1, #9
   20408:	2200      	movs	r2, #0
   2040a:	2803      	cmp	r0, #3
   2040c:	d103      	bne.n	20416 <_ZN20complex_dynamic_type3app17h00db8c3e0db7e02aE+0xda>
   2040e:	4620      	mov	r0, r4
   20410:	4613      	mov	r3, r2
   20412:	df03      	svc	3
   20414:	e002      	b.n	2041c <_ZN20complex_dynamic_type3app17h00db8c3e0db7e02aE+0xe0>
   20416:	4620      	mov	r0, r4
   20418:	4613      	mov	r3, r2
   2041a:	df04      	svc	4
   2041c:	a804      	add	r0, sp, #16
   2041e:	9900      	ldr	r1, [sp, #0]
   20420:	7001      	strb	r1, [r0, #0]
   20422:	a80e      	add	r0, sp, #56	@ 0x38
   20424:	7800      	ldrb	r0, [r0, #0]
   20426:	2803      	cmp	r0, #3
   20428:	d009      	beq.n	2043e <_ZN20complex_dynamic_type3app17h00db8c3e0db7e02aE+0x102>
   2042a:	2802      	cmp	r0, #2
   2042c:	d10e      	bne.n	2044c <_ZN20complex_dynamic_type3app17h00db8c3e0db7e02aE+0x110>
   2042e:	1c70      	adds	r0, r6, #1
   20430:	2218      	movs	r2, #24
   20432:	4629      	mov	r1, r5
   20434:	f00a f8a2 	bl	2a57c <__aeabi_memcpy>
   20438:	9802      	ldr	r0, [sp, #8]
   2043a:	7030      	strb	r0, [r6, #0]
   2043c:	e7dd      	b.n	203fa <_ZN20complex_dynamic_type3app17h00db8c3e0db7e02aE+0xbe>
   2043e:	2108      	movs	r1, #8
   20440:	2200      	movs	r2, #0
   20442:	4625      	mov	r5, r4
   20444:	4620      	mov	r0, r4
   20446:	4613      	mov	r3, r2
   20448:	df03      	svc	3
   2044a:	e005      	b.n	20458 <_ZN20complex_dynamic_type3app17h00db8c3e0db7e02aE+0x11c>
   2044c:	2108      	movs	r1, #8
   2044e:	2200      	movs	r2, #0
   20450:	4625      	mov	r5, r4
   20452:	4620      	mov	r0, r4
   20454:	4613      	mov	r3, r2
   20456:	df04      	svc	4
   20458:	a804      	add	r0, sp, #16
   2045a:	7804      	ldrb	r4, [r0, #0]
   2045c:	1c70      	adds	r0, r6, #1
   2045e:	2218      	movs	r2, #24
   20460:	9901      	ldr	r1, [sp, #4]
   20462:	f00a f88b 	bl	2a57c <__aeabi_memcpy>
   20466:	9802      	ldr	r0, [sp, #8]
   20468:	7030      	strb	r0, [r6, #0]
   2046a:	e7bb      	b.n	203e4 <_ZN20complex_dynamic_type3app17h00db8c3e0db7e02aE+0xa8>

0002046c <_ZN20complex_dynamic_type3app17h05a2fa5c19b44b05E>:
   2046c:	b5f0      	push	{r4, r5, r6, r7, lr}
   2046e:	af03      	add	r7, sp, #12
   20470:	b0ad      	sub	sp, #180	@ 0xb4
   20472:	9003      	str	r0, [sp, #12]
   20474:	ae04      	add	r6, sp, #16
   20476:	2502      	movs	r5, #2
   20478:	7035      	strb	r5, [r6, #0]
   2047a:	1c70      	adds	r0, r6, #1
   2047c:	2256      	movs	r2, #86	@ 0x56
   2047e:	9202      	str	r2, [sp, #8]
   20480:	f00a f87c 	bl	2a57c <__aeabi_memcpy>
   20484:	ac1a      	add	r4, sp, #104	@ 0x68
   20486:	1c60      	adds	r0, r4, #1
   20488:	2149      	movs	r1, #73	@ 0x49
   2048a:	9001      	str	r0, [sp, #4]
   2048c:	f009 feb6 	bl	2a1fc <__aeabi_memclr>
   20490:	7025      	strb	r5, [r4, #0]
   20492:	2204      	movs	r2, #4
   20494:	4630      	mov	r0, r6
   20496:	9902      	ldr	r1, [sp, #8]
   20498:	f7ff fe24 	bl	200e4 <_ZN9allow_pin12dynamic_type23Buffer$LT$B$C$_$C$_$GT$5allow17h1b2820bb4a1e1771E>
   2049c:	07c0      	lsls	r0, r0, #31
   2049e:	d10e      	bne.n	204be <_ZN20complex_dynamic_type3app17h05a2fa5c19b44b05E+0x52>
   204a0:	a81a      	add	r0, sp, #104	@ 0x68
   204a2:	2149      	movs	r1, #73	@ 0x49
   204a4:	2203      	movs	r2, #3
   204a6:	f7ff fe1d 	bl	200e4 <_ZN9allow_pin12dynamic_type23Buffer$LT$B$C$_$C$_$GT$5allow17h1b2820bb4a1e1771E>
   204aa:	07c0      	lsls	r0, r0, #31
   204ac:	d107      	bne.n	204be <_ZN20complex_dynamic_type3app17h05a2fa5c19b44b05E+0x52>
   204ae:	4831      	ldr	r0, [pc, #196]	@ (20574 <_ZN20complex_dynamic_type3app17h05a2fa5c19b44b05E+0x108>)
   204b0:	2106      	movs	r1, #6
   204b2:	2600      	movs	r6, #0
   204b4:	460a      	mov	r2, r1
   204b6:	4633      	mov	r3, r6
   204b8:	df02      	svc	2
   204ba:	287f      	cmp	r0, #127	@ 0x7f
   204bc:	d823      	bhi.n	20506 <_ZN20complex_dynamic_type3app17h05a2fa5c19b44b05E+0x9a>
   204be:	2001      	movs	r0, #1
   204c0:	9a03      	ldr	r2, [sp, #12]
   204c2:	7010      	strb	r0, [r2, #0]
   204c4:	6051      	str	r1, [r2, #4]
   204c6:	a81a      	add	r0, sp, #104	@ 0x68
   204c8:	7800      	ldrb	r0, [r0, #0]
   204ca:	2802      	cmp	r0, #2
   204cc:	d00c      	beq.n	204e8 <_ZN20complex_dynamic_type3app17h05a2fa5c19b44b05E+0x7c>
   204ce:	2803      	cmp	r0, #3
   204d0:	d105      	bne.n	204de <_ZN20complex_dynamic_type3app17h05a2fa5c19b44b05E+0x72>
   204d2:	4828      	ldr	r0, [pc, #160]	@ (20574 <_ZN20complex_dynamic_type3app17h05a2fa5c19b44b05E+0x108>)
   204d4:	2106      	movs	r1, #6
   204d6:	2200      	movs	r2, #0
   204d8:	4613      	mov	r3, r2
   204da:	df03      	svc	3
   204dc:	e004      	b.n	204e8 <_ZN20complex_dynamic_type3app17h05a2fa5c19b44b05E+0x7c>
   204de:	4825      	ldr	r0, [pc, #148]	@ (20574 <_ZN20complex_dynamic_type3app17h05a2fa5c19b44b05E+0x108>)
   204e0:	2106      	movs	r1, #6
   204e2:	2200      	movs	r2, #0
   204e4:	4613      	mov	r3, r2
   204e6:	df04      	svc	4
   204e8:	a804      	add	r0, sp, #16
   204ea:	7804      	ldrb	r4, [r0, #0]
   204ec:	2c02      	cmp	r4, #2
   204ee:	d008      	beq.n	20502 <_ZN20complex_dynamic_type3app17h05a2fa5c19b44b05E+0x96>
   204f0:	4820      	ldr	r0, [pc, #128]	@ (20574 <_ZN20complex_dynamic_type3app17h05a2fa5c19b44b05E+0x108>)
   204f2:	2106      	movs	r1, #6
   204f4:	2200      	movs	r2, #0
   204f6:	4613      	mov	r3, r2
   204f8:	2c03      	cmp	r4, #3
   204fa:	d101      	bne.n	20500 <_ZN20complex_dynamic_type3app17h05a2fa5c19b44b05E+0x94>
   204fc:	df03      	svc	3
   204fe:	e000      	b.n	20502 <_ZN20complex_dynamic_type3app17h05a2fa5c19b44b05E+0x96>
   20500:	df04      	svc	4
   20502:	b02d      	add	sp, #180	@ 0xb4
   20504:	bdf0      	pop	{r4, r5, r6, r7, pc}
   20506:	a804      	add	r0, sp, #16
   20508:	7800      	ldrb	r0, [r0, #0]
   2050a:	2802      	cmp	r0, #2
   2050c:	d00c      	beq.n	20528 <_ZN20complex_dynamic_type3app17h05a2fa5c19b44b05E+0xbc>
   2050e:	2803      	cmp	r0, #3
   20510:	d105      	bne.n	2051e <_ZN20complex_dynamic_type3app17h05a2fa5c19b44b05E+0xb2>
   20512:	4818      	ldr	r0, [pc, #96]	@ (20574 <_ZN20complex_dynamic_type3app17h05a2fa5c19b44b05E+0x108>)
   20514:	2106      	movs	r1, #6
   20516:	2200      	movs	r2, #0
   20518:	4613      	mov	r3, r2
   2051a:	df03      	svc	3
   2051c:	e004      	b.n	20528 <_ZN20complex_dynamic_type3app17h05a2fa5c19b44b05E+0xbc>
   2051e:	4815      	ldr	r0, [pc, #84]	@ (20574 <_ZN20complex_dynamic_type3app17h05a2fa5c19b44b05E+0x108>)
   20520:	2106      	movs	r1, #6
   20522:	2200      	movs	r2, #0
   20524:	4613      	mov	r3, r2
   20526:	df04      	svc	4
   20528:	a804      	add	r0, sp, #16
   2052a:	7005      	strb	r5, [r0, #0]
   2052c:	a81a      	add	r0, sp, #104	@ 0x68
   2052e:	7800      	ldrb	r0, [r0, #0]
   20530:	2803      	cmp	r0, #3
   20532:	d009      	beq.n	20548 <_ZN20complex_dynamic_type3app17h05a2fa5c19b44b05E+0xdc>
   20534:	2802      	cmp	r0, #2
   20536:	d10d      	bne.n	20554 <_ZN20complex_dynamic_type3app17h05a2fa5c19b44b05E+0xe8>
   20538:	9c03      	ldr	r4, [sp, #12]
   2053a:	1c60      	adds	r0, r4, #1
   2053c:	2249      	movs	r2, #73	@ 0x49
   2053e:	9901      	ldr	r1, [sp, #4]
   20540:	f00a f81c 	bl	2a57c <__aeabi_memcpy>
   20544:	7026      	strb	r6, [r4, #0]
   20546:	e7dc      	b.n	20502 <_ZN20complex_dynamic_type3app17h05a2fa5c19b44b05E+0x96>
   20548:	480a      	ldr	r0, [pc, #40]	@ (20574 <_ZN20complex_dynamic_type3app17h05a2fa5c19b44b05E+0x108>)
   2054a:	2106      	movs	r1, #6
   2054c:	2200      	movs	r2, #0
   2054e:	4613      	mov	r3, r2
   20550:	df03      	svc	3
   20552:	e004      	b.n	2055e <_ZN20complex_dynamic_type3app17h05a2fa5c19b44b05E+0xf2>
   20554:	4807      	ldr	r0, [pc, #28]	@ (20574 <_ZN20complex_dynamic_type3app17h05a2fa5c19b44b05E+0x108>)
   20556:	2106      	movs	r1, #6
   20558:	2200      	movs	r2, #0
   2055a:	4613      	mov	r3, r2
   2055c:	df04      	svc	4
   2055e:	a804      	add	r0, sp, #16
   20560:	7804      	ldrb	r4, [r0, #0]
   20562:	9d03      	ldr	r5, [sp, #12]
   20564:	1c68      	adds	r0, r5, #1
   20566:	2249      	movs	r2, #73	@ 0x49
   20568:	9901      	ldr	r1, [sp, #4]
   2056a:	f00a f807 	bl	2a57c <__aeabi_memcpy>
   2056e:	702e      	strb	r6, [r5, #0]
   20570:	e7bc      	b.n	204ec <_ZN20complex_dynamic_type3app17h05a2fa5c19b44b05E+0x80>
   20572:	46c0      	nop			@ (mov r8, r8)
   20574:	00001c6b 	.word	0x00001c6b

00020578 <_ZN20complex_dynamic_type3app17h09d49f23ab6a81e3E>:
   20578:	b5f0      	push	{r4, r5, r6, r7, lr}
   2057a:	af03      	add	r7, sp, #12
   2057c:	b0ab      	sub	sp, #172	@ 0xac
   2057e:	9003      	str	r0, [sp, #12]
   20580:	a804      	add	r0, sp, #16
   20582:	2402      	movs	r4, #2
   20584:	7004      	strb	r4, [r0, #0]
   20586:	1c46      	adds	r6, r0, #1
   20588:	223a      	movs	r2, #58	@ 0x3a
   2058a:	9202      	str	r2, [sp, #8]
   2058c:	4630      	mov	r0, r6
   2058e:	f009 fff5 	bl	2a57c <__aeabi_memcpy>
   20592:	ad13      	add	r5, sp, #76	@ 0x4c
   20594:	1c68      	adds	r0, r5, #1
   20596:	215d      	movs	r1, #93	@ 0x5d
   20598:	9001      	str	r0, [sp, #4]
   2059a:	f009 fe2f 	bl	2a1fc <__aeabi_memclr>
   2059e:	9400      	str	r4, [sp, #0]
   205a0:	702c      	strb	r4, [r5, #0]
   205a2:	483f      	ldr	r0, [pc, #252]	@ (206a0 <_ZN20complex_dynamic_type3app17h09d49f23ab6a81e3E+0x128>)
   205a4:	2100      	movs	r1, #0
   205a6:	4632      	mov	r2, r6
   205a8:	9b02      	ldr	r3, [sp, #8]
   205aa:	df04      	svc	4
   205ac:	2802      	cmp	r0, #2
   205ae:	d104      	bne.n	205ba <_ZN20complex_dynamic_type3app17h09d49f23ab6a81e3E+0x42>
   205b0:	2001      	movs	r0, #1
   205b2:	9a03      	ldr	r2, [sp, #12]
   205b4:	7010      	strb	r0, [r2, #0]
   205b6:	6051      	str	r1, [r2, #4]
   205b8:	e02d      	b.n	20616 <_ZN20complex_dynamic_type3app17h09d49f23ab6a81e3E+0x9e>
   205ba:	9d03      	ldr	r5, [sp, #12]
   205bc:	a804      	add	r0, sp, #16
   205be:	2104      	movs	r1, #4
   205c0:	7001      	strb	r1, [r0, #0]
   205c2:	4837      	ldr	r0, [pc, #220]	@ (206a0 <_ZN20complex_dynamic_type3app17h09d49f23ab6a81e3E+0x128>)
   205c4:	2105      	movs	r1, #5
   205c6:	235d      	movs	r3, #93	@ 0x5d
   205c8:	9c01      	ldr	r4, [sp, #4]
   205ca:	4622      	mov	r2, r4
   205cc:	df03      	svc	3
   205ce:	2802      	cmp	r0, #2
   205d0:	d10e      	bne.n	205f0 <_ZN20complex_dynamic_type3app17h09d49f23ab6a81e3E+0x78>
   205d2:	2001      	movs	r0, #1
   205d4:	7028      	strb	r0, [r5, #0]
   205d6:	6069      	str	r1, [r5, #4]
   205d8:	a813      	add	r0, sp, #76	@ 0x4c
   205da:	7800      	ldrb	r0, [r0, #0]
   205dc:	2802      	cmp	r0, #2
   205de:	d01a      	beq.n	20616 <_ZN20complex_dynamic_type3app17h09d49f23ab6a81e3E+0x9e>
   205e0:	2803      	cmp	r0, #3
   205e2:	d013      	beq.n	2060c <_ZN20complex_dynamic_type3app17h09d49f23ab6a81e3E+0x94>
   205e4:	482e      	ldr	r0, [pc, #184]	@ (206a0 <_ZN20complex_dynamic_type3app17h09d49f23ab6a81e3E+0x128>)
   205e6:	2105      	movs	r1, #5
   205e8:	2200      	movs	r2, #0
   205ea:	4613      	mov	r3, r2
   205ec:	df04      	svc	4
   205ee:	e012      	b.n	20616 <_ZN20complex_dynamic_type3app17h09d49f23ab6a81e3E+0x9e>
   205f0:	a813      	add	r0, sp, #76	@ 0x4c
   205f2:	2103      	movs	r1, #3
   205f4:	7001      	strb	r1, [r0, #0]
   205f6:	482a      	ldr	r0, [pc, #168]	@ (206a0 <_ZN20complex_dynamic_type3app17h09d49f23ab6a81e3E+0x128>)
   205f8:	2205      	movs	r2, #5
   205fa:	2600      	movs	r6, #0
   205fc:	4631      	mov	r1, r6
   205fe:	4633      	mov	r3, r6
   20600:	df02      	svc	2
   20602:	287f      	cmp	r0, #127	@ 0x7f
   20604:	d816      	bhi.n	20634 <_ZN20complex_dynamic_type3app17h09d49f23ab6a81e3E+0xbc>
   20606:	2001      	movs	r0, #1
   20608:	7028      	strb	r0, [r5, #0]
   2060a:	6069      	str	r1, [r5, #4]
   2060c:	4824      	ldr	r0, [pc, #144]	@ (206a0 <_ZN20complex_dynamic_type3app17h09d49f23ab6a81e3E+0x128>)
   2060e:	2105      	movs	r1, #5
   20610:	2200      	movs	r2, #0
   20612:	4613      	mov	r3, r2
   20614:	df03      	svc	3
   20616:	a804      	add	r0, sp, #16
   20618:	7804      	ldrb	r4, [r0, #0]
   2061a:	2c02      	cmp	r4, #2
   2061c:	d008      	beq.n	20630 <_ZN20complex_dynamic_type3app17h09d49f23ab6a81e3E+0xb8>
   2061e:	4820      	ldr	r0, [pc, #128]	@ (206a0 <_ZN20complex_dynamic_type3app17h09d49f23ab6a81e3E+0x128>)
   20620:	2100      	movs	r1, #0
   20622:	460a      	mov	r2, r1
   20624:	460b      	mov	r3, r1
   20626:	2c03      	cmp	r4, #3
   20628:	d101      	bne.n	2062e <_ZN20complex_dynamic_type3app17h09d49f23ab6a81e3E+0xb6>
   2062a:	df03      	svc	3
   2062c:	e000      	b.n	20630 <_ZN20complex_dynamic_type3app17h09d49f23ab6a81e3E+0xb8>
   2062e:	df04      	svc	4
   20630:	b02b      	add	sp, #172	@ 0xac
   20632:	bdf0      	pop	{r4, r5, r6, r7, pc}
   20634:	a804      	add	r0, sp, #16
   20636:	7800      	ldrb	r0, [r0, #0]
   20638:	2802      	cmp	r0, #2
   2063a:	d01c      	beq.n	20676 <_ZN20complex_dynamic_type3app17h09d49f23ab6a81e3E+0xfe>
   2063c:	2803      	cmp	r0, #3
   2063e:	d105      	bne.n	2064c <_ZN20complex_dynamic_type3app17h09d49f23ab6a81e3E+0xd4>
   20640:	4817      	ldr	r0, [pc, #92]	@ (206a0 <_ZN20complex_dynamic_type3app17h09d49f23ab6a81e3E+0x128>)
   20642:	2100      	movs	r1, #0
   20644:	460a      	mov	r2, r1
   20646:	460b      	mov	r3, r1
   20648:	df03      	svc	3
   2064a:	e004      	b.n	20656 <_ZN20complex_dynamic_type3app17h09d49f23ab6a81e3E+0xde>
   2064c:	4814      	ldr	r0, [pc, #80]	@ (206a0 <_ZN20complex_dynamic_type3app17h09d49f23ab6a81e3E+0x128>)
   2064e:	2100      	movs	r1, #0
   20650:	460a      	mov	r2, r1
   20652:	460b      	mov	r3, r1
   20654:	df04      	svc	4
   20656:	a804      	add	r0, sp, #16
   20658:	9900      	ldr	r1, [sp, #0]
   2065a:	7001      	strb	r1, [r0, #0]
   2065c:	a813      	add	r0, sp, #76	@ 0x4c
   2065e:	7800      	ldrb	r0, [r0, #0]
   20660:	2803      	cmp	r0, #3
   20662:	d008      	beq.n	20676 <_ZN20complex_dynamic_type3app17h09d49f23ab6a81e3E+0xfe>
   20664:	2802      	cmp	r0, #2
   20666:	d10c      	bne.n	20682 <_ZN20complex_dynamic_type3app17h09d49f23ab6a81e3E+0x10a>
   20668:	1c68      	adds	r0, r5, #1
   2066a:	225d      	movs	r2, #93	@ 0x5d
   2066c:	4621      	mov	r1, r4
   2066e:	f009 ff85 	bl	2a57c <__aeabi_memcpy>
   20672:	702e      	strb	r6, [r5, #0]
   20674:	e7dc      	b.n	20630 <_ZN20complex_dynamic_type3app17h09d49f23ab6a81e3E+0xb8>
   20676:	480a      	ldr	r0, [pc, #40]	@ (206a0 <_ZN20complex_dynamic_type3app17h09d49f23ab6a81e3E+0x128>)
   20678:	2105      	movs	r1, #5
   2067a:	2200      	movs	r2, #0
   2067c:	4613      	mov	r3, r2
   2067e:	df03      	svc	3
   20680:	e004      	b.n	2068c <_ZN20complex_dynamic_type3app17h09d49f23ab6a81e3E+0x114>
   20682:	4807      	ldr	r0, [pc, #28]	@ (206a0 <_ZN20complex_dynamic_type3app17h09d49f23ab6a81e3E+0x128>)
   20684:	2105      	movs	r1, #5
   20686:	2200      	movs	r2, #0
   20688:	4613      	mov	r3, r2
   2068a:	df04      	svc	4
   2068c:	a804      	add	r0, sp, #16
   2068e:	7804      	ldrb	r4, [r0, #0]
   20690:	1c68      	adds	r0, r5, #1
   20692:	225d      	movs	r2, #93	@ 0x5d
   20694:	9901      	ldr	r1, [sp, #4]
   20696:	f009 ff71 	bl	2a57c <__aeabi_memcpy>
   2069a:	702e      	strb	r6, [r5, #0]
   2069c:	e7bd      	b.n	2061a <_ZN20complex_dynamic_type3app17h09d49f23ab6a81e3E+0xa2>
   2069e:	46c0      	nop			@ (mov r8, r8)
   206a0:	000014a4 	.word	0x000014a4

000206a4 <_ZN20complex_dynamic_type3app17h10a1577959aa6e03E>:
   206a4:	b5f0      	push	{r4, r5, r6, r7, lr}
   206a6:	af03      	add	r7, sp, #12
   206a8:	b0a1      	sub	sp, #132	@ 0x84
   206aa:	9004      	str	r0, [sp, #16]
   206ac:	a805      	add	r0, sp, #20
   206ae:	2402      	movs	r4, #2
   206b0:	7004      	strb	r4, [r0, #0]
   206b2:	1c46      	adds	r6, r0, #1
   206b4:	223c      	movs	r2, #60	@ 0x3c
   206b6:	9203      	str	r2, [sp, #12]
   206b8:	4630      	mov	r0, r6
   206ba:	f009 ff5f 	bl	2a57c <__aeabi_memcpy>
   206be:	ad15      	add	r5, sp, #84	@ 0x54
   206c0:	1c68      	adds	r0, r5, #1
   206c2:	212c      	movs	r1, #44	@ 0x2c
   206c4:	9002      	str	r0, [sp, #8]
   206c6:	f009 fd99 	bl	2a1fc <__aeabi_memclr>
   206ca:	9401      	str	r4, [sp, #4]
   206cc:	702c      	strb	r4, [r5, #0]
   206ce:	483f      	ldr	r0, [pc, #252]	@ (207cc <_ZN20complex_dynamic_type3app17h10a1577959aa6e03E+0x128>)
   206d0:	2105      	movs	r1, #5
   206d2:	4632      	mov	r2, r6
   206d4:	9b03      	ldr	r3, [sp, #12]
   206d6:	df04      	svc	4
   206d8:	2802      	cmp	r0, #2
   206da:	d104      	bne.n	206e6 <_ZN20complex_dynamic_type3app17h10a1577959aa6e03E+0x42>
   206dc:	2001      	movs	r0, #1
   206de:	9a04      	ldr	r2, [sp, #16]
   206e0:	7010      	strb	r0, [r2, #0]
   206e2:	6051      	str	r1, [r2, #4]
   206e4:	e02d      	b.n	20742 <_ZN20complex_dynamic_type3app17h10a1577959aa6e03E+0x9e>
   206e6:	9d04      	ldr	r5, [sp, #16]
   206e8:	a805      	add	r0, sp, #20
   206ea:	2104      	movs	r1, #4
   206ec:	7001      	strb	r1, [r0, #0]
   206ee:	4837      	ldr	r0, [pc, #220]	@ (207cc <_ZN20complex_dynamic_type3app17h10a1577959aa6e03E+0x128>)
   206f0:	2107      	movs	r1, #7
   206f2:	232c      	movs	r3, #44	@ 0x2c
   206f4:	9c02      	ldr	r4, [sp, #8]
   206f6:	4622      	mov	r2, r4
   206f8:	df03      	svc	3
   206fa:	2802      	cmp	r0, #2
   206fc:	d10e      	bne.n	2071c <_ZN20complex_dynamic_type3app17h10a1577959aa6e03E+0x78>
   206fe:	2001      	movs	r0, #1
   20700:	7028      	strb	r0, [r5, #0]
   20702:	6069      	str	r1, [r5, #4]
   20704:	a815      	add	r0, sp, #84	@ 0x54
   20706:	7800      	ldrb	r0, [r0, #0]
   20708:	2802      	cmp	r0, #2
   2070a:	d01a      	beq.n	20742 <_ZN20complex_dynamic_type3app17h10a1577959aa6e03E+0x9e>
   2070c:	2803      	cmp	r0, #3
   2070e:	d013      	beq.n	20738 <_ZN20complex_dynamic_type3app17h10a1577959aa6e03E+0x94>
   20710:	482e      	ldr	r0, [pc, #184]	@ (207cc <_ZN20complex_dynamic_type3app17h10a1577959aa6e03E+0x128>)
   20712:	2107      	movs	r1, #7
   20714:	2200      	movs	r2, #0
   20716:	4613      	mov	r3, r2
   20718:	df04      	svc	4
   2071a:	e012      	b.n	20742 <_ZN20complex_dynamic_type3app17h10a1577959aa6e03E+0x9e>
   2071c:	a815      	add	r0, sp, #84	@ 0x54
   2071e:	2103      	movs	r1, #3
   20720:	7001      	strb	r1, [r0, #0]
   20722:	482a      	ldr	r0, [pc, #168]	@ (207cc <_ZN20complex_dynamic_type3app17h10a1577959aa6e03E+0x128>)
   20724:	2105      	movs	r1, #5
   20726:	2207      	movs	r2, #7
   20728:	2600      	movs	r6, #0
   2072a:	4633      	mov	r3, r6
   2072c:	df02      	svc	2
   2072e:	287f      	cmp	r0, #127	@ 0x7f
   20730:	d816      	bhi.n	20760 <_ZN20complex_dynamic_type3app17h10a1577959aa6e03E+0xbc>
   20732:	2001      	movs	r0, #1
   20734:	7028      	strb	r0, [r5, #0]
   20736:	6069      	str	r1, [r5, #4]
   20738:	4824      	ldr	r0, [pc, #144]	@ (207cc <_ZN20complex_dynamic_type3app17h10a1577959aa6e03E+0x128>)
   2073a:	2107      	movs	r1, #7
   2073c:	2200      	movs	r2, #0
   2073e:	4613      	mov	r3, r2
   20740:	df03      	svc	3
   20742:	a805      	add	r0, sp, #20
   20744:	7804      	ldrb	r4, [r0, #0]
   20746:	2c02      	cmp	r4, #2
   20748:	d008      	beq.n	2075c <_ZN20complex_dynamic_type3app17h10a1577959aa6e03E+0xb8>
   2074a:	4820      	ldr	r0, [pc, #128]	@ (207cc <_ZN20complex_dynamic_type3app17h10a1577959aa6e03E+0x128>)
   2074c:	2105      	movs	r1, #5
   2074e:	2200      	movs	r2, #0
   20750:	4613      	mov	r3, r2
   20752:	2c03      	cmp	r4, #3
   20754:	d101      	bne.n	2075a <_ZN20complex_dynamic_type3app17h10a1577959aa6e03E+0xb6>
   20756:	df03      	svc	3
   20758:	e000      	b.n	2075c <_ZN20complex_dynamic_type3app17h10a1577959aa6e03E+0xb8>
   2075a:	df04      	svc	4
   2075c:	b021      	add	sp, #132	@ 0x84
   2075e:	bdf0      	pop	{r4, r5, r6, r7, pc}
   20760:	a805      	add	r0, sp, #20
   20762:	7800      	ldrb	r0, [r0, #0]
   20764:	2802      	cmp	r0, #2
   20766:	d01c      	beq.n	207a2 <_ZN20complex_dynamic_type3app17h10a1577959aa6e03E+0xfe>
   20768:	2803      	cmp	r0, #3
   2076a:	d105      	bne.n	20778 <_ZN20complex_dynamic_type3app17h10a1577959aa6e03E+0xd4>
   2076c:	4817      	ldr	r0, [pc, #92]	@ (207cc <_ZN20complex_dynamic_type3app17h10a1577959aa6e03E+0x128>)
   2076e:	2105      	movs	r1, #5
   20770:	2200      	movs	r2, #0
   20772:	4613      	mov	r3, r2
   20774:	df03      	svc	3
   20776:	e004      	b.n	20782 <_ZN20complex_dynamic_type3app17h10a1577959aa6e03E+0xde>
   20778:	4814      	ldr	r0, [pc, #80]	@ (207cc <_ZN20complex_dynamic_type3app17h10a1577959aa6e03E+0x128>)
   2077a:	2105      	movs	r1, #5
   2077c:	2200      	movs	r2, #0
   2077e:	4613      	mov	r3, r2
   20780:	df04      	svc	4
   20782:	a805      	add	r0, sp, #20
   20784:	9901      	ldr	r1, [sp, #4]
   20786:	7001      	strb	r1, [r0, #0]
   20788:	a815      	add	r0, sp, #84	@ 0x54
   2078a:	7800      	ldrb	r0, [r0, #0]
   2078c:	2803      	cmp	r0, #3
   2078e:	d008      	beq.n	207a2 <_ZN20complex_dynamic_type3app17h10a1577959aa6e03E+0xfe>
   20790:	2802      	cmp	r0, #2
   20792:	d10c      	bne.n	207ae <_ZN20complex_dynamic_type3app17h10a1577959aa6e03E+0x10a>
   20794:	1c68      	adds	r0, r5, #1
   20796:	222c      	movs	r2, #44	@ 0x2c
   20798:	4621      	mov	r1, r4
   2079a:	f009 feef 	bl	2a57c <__aeabi_memcpy>
   2079e:	702e      	strb	r6, [r5, #0]
   207a0:	e7dc      	b.n	2075c <_ZN20complex_dynamic_type3app17h10a1577959aa6e03E+0xb8>
   207a2:	480a      	ldr	r0, [pc, #40]	@ (207cc <_ZN20complex_dynamic_type3app17h10a1577959aa6e03E+0x128>)
   207a4:	2107      	movs	r1, #7
   207a6:	2200      	movs	r2, #0
   207a8:	4613      	mov	r3, r2
   207aa:	df03      	svc	3
   207ac:	e004      	b.n	207b8 <_ZN20complex_dynamic_type3app17h10a1577959aa6e03E+0x114>
   207ae:	4807      	ldr	r0, [pc, #28]	@ (207cc <_ZN20complex_dynamic_type3app17h10a1577959aa6e03E+0x128>)
   207b0:	2107      	movs	r1, #7
   207b2:	2200      	movs	r2, #0
   207b4:	4613      	mov	r3, r2
   207b6:	df04      	svc	4
   207b8:	a805      	add	r0, sp, #20
   207ba:	7804      	ldrb	r4, [r0, #0]
   207bc:	1c68      	adds	r0, r5, #1
   207be:	222c      	movs	r2, #44	@ 0x2c
   207c0:	9902      	ldr	r1, [sp, #8]
   207c2:	f009 fedb 	bl	2a57c <__aeabi_memcpy>
   207c6:	702e      	strb	r6, [r5, #0]
   207c8:	e7bd      	b.n	20746 <_ZN20complex_dynamic_type3app17h10a1577959aa6e03E+0xa2>
   207ca:	46c0      	nop			@ (mov r8, r8)
   207cc:	00001eac 	.word	0x00001eac

000207d0 <_ZN20complex_dynamic_type3app17h117323bbc0eaafd4E>:
   207d0:	b5f0      	push	{r4, r5, r6, r7, lr}
   207d2:	af03      	add	r7, sp, #12
   207d4:	b0a3      	sub	sp, #140	@ 0x8c
   207d6:	9003      	str	r0, [sp, #12]
   207d8:	a804      	add	r0, sp, #16
   207da:	2402      	movs	r4, #2
   207dc:	7004      	strb	r4, [r0, #0]
   207de:	1c46      	adds	r6, r0, #1
   207e0:	2227      	movs	r2, #39	@ 0x27
   207e2:	9202      	str	r2, [sp, #8]
   207e4:	4630      	mov	r0, r6
   207e6:	f009 fec9 	bl	2a57c <__aeabi_memcpy>
   207ea:	ad0e      	add	r5, sp, #56	@ 0x38
   207ec:	1c68      	adds	r0, r5, #1
   207ee:	2151      	movs	r1, #81	@ 0x51
   207f0:	9001      	str	r0, [sp, #4]
   207f2:	f009 fd03 	bl	2a1fc <__aeabi_memclr>
   207f6:	9400      	str	r4, [sp, #0]
   207f8:	702c      	strb	r4, [r5, #0]
   207fa:	483e      	ldr	r0, [pc, #248]	@ (208f4 <_ZN20complex_dynamic_type3app17h117323bbc0eaafd4E+0x124>)
   207fc:	2100      	movs	r1, #0
   207fe:	4632      	mov	r2, r6
   20800:	9b02      	ldr	r3, [sp, #8]
   20802:	df04      	svc	4
   20804:	2802      	cmp	r0, #2
   20806:	d104      	bne.n	20812 <_ZN20complex_dynamic_type3app17h117323bbc0eaafd4E+0x42>
   20808:	2001      	movs	r0, #1
   2080a:	9a03      	ldr	r2, [sp, #12]
   2080c:	7010      	strb	r0, [r2, #0]
   2080e:	6051      	str	r1, [r2, #4]
   20810:	e02c      	b.n	2086c <_ZN20complex_dynamic_type3app17h117323bbc0eaafd4E+0x9c>
   20812:	9d03      	ldr	r5, [sp, #12]
   20814:	a804      	add	r0, sp, #16
   20816:	2104      	movs	r1, #4
   20818:	7001      	strb	r1, [r0, #0]
   2081a:	4836      	ldr	r0, [pc, #216]	@ (208f4 <_ZN20complex_dynamic_type3app17h117323bbc0eaafd4E+0x124>)
   2081c:	2351      	movs	r3, #81	@ 0x51
   2081e:	9c01      	ldr	r4, [sp, #4]
   20820:	4622      	mov	r2, r4
   20822:	df03      	svc	3
   20824:	2802      	cmp	r0, #2
   20826:	d10e      	bne.n	20846 <_ZN20complex_dynamic_type3app17h117323bbc0eaafd4E+0x76>
   20828:	2001      	movs	r0, #1
   2082a:	7028      	strb	r0, [r5, #0]
   2082c:	6069      	str	r1, [r5, #4]
   2082e:	a80e      	add	r0, sp, #56	@ 0x38
   20830:	7800      	ldrb	r0, [r0, #0]
   20832:	2802      	cmp	r0, #2
   20834:	d01a      	beq.n	2086c <_ZN20complex_dynamic_type3app17h117323bbc0eaafd4E+0x9c>
   20836:	2803      	cmp	r0, #3
   20838:	d013      	beq.n	20862 <_ZN20complex_dynamic_type3app17h117323bbc0eaafd4E+0x92>
   2083a:	482e      	ldr	r0, [pc, #184]	@ (208f4 <_ZN20complex_dynamic_type3app17h117323bbc0eaafd4E+0x124>)
   2083c:	2104      	movs	r1, #4
   2083e:	2200      	movs	r2, #0
   20840:	4613      	mov	r3, r2
   20842:	df04      	svc	4
   20844:	e012      	b.n	2086c <_ZN20complex_dynamic_type3app17h117323bbc0eaafd4E+0x9c>
   20846:	a80e      	add	r0, sp, #56	@ 0x38
   20848:	2103      	movs	r1, #3
   2084a:	7001      	strb	r1, [r0, #0]
   2084c:	4829      	ldr	r0, [pc, #164]	@ (208f4 <_ZN20complex_dynamic_type3app17h117323bbc0eaafd4E+0x124>)
   2084e:	2204      	movs	r2, #4
   20850:	2600      	movs	r6, #0
   20852:	4631      	mov	r1, r6
   20854:	4633      	mov	r3, r6
   20856:	df02      	svc	2
   20858:	287f      	cmp	r0, #127	@ 0x7f
   2085a:	d816      	bhi.n	2088a <_ZN20complex_dynamic_type3app17h117323bbc0eaafd4E+0xba>
   2085c:	2001      	movs	r0, #1
   2085e:	7028      	strb	r0, [r5, #0]
   20860:	6069      	str	r1, [r5, #4]
   20862:	4824      	ldr	r0, [pc, #144]	@ (208f4 <_ZN20complex_dynamic_type3app17h117323bbc0eaafd4E+0x124>)
   20864:	2104      	movs	r1, #4
   20866:	2200      	movs	r2, #0
   20868:	4613      	mov	r3, r2
   2086a:	df03      	svc	3
   2086c:	a804      	add	r0, sp, #16
   2086e:	7804      	ldrb	r4, [r0, #0]
   20870:	2c02      	cmp	r4, #2
   20872:	d008      	beq.n	20886 <_ZN20complex_dynamic_type3app17h117323bbc0eaafd4E+0xb6>
   20874:	481f      	ldr	r0, [pc, #124]	@ (208f4 <_ZN20complex_dynamic_type3app17h117323bbc0eaafd4E+0x124>)
   20876:	2100      	movs	r1, #0
   20878:	460a      	mov	r2, r1
   2087a:	460b      	mov	r3, r1
   2087c:	2c03      	cmp	r4, #3
   2087e:	d101      	bne.n	20884 <_ZN20complex_dynamic_type3app17h117323bbc0eaafd4E+0xb4>
   20880:	df03      	svc	3
   20882:	e000      	b.n	20886 <_ZN20complex_dynamic_type3app17h117323bbc0eaafd4E+0xb6>
   20884:	df04      	svc	4
   20886:	b023      	add	sp, #140	@ 0x8c
   20888:	bdf0      	pop	{r4, r5, r6, r7, pc}
   2088a:	a804      	add	r0, sp, #16
   2088c:	7800      	ldrb	r0, [r0, #0]
   2088e:	2802      	cmp	r0, #2
   20890:	d01c      	beq.n	208cc <_ZN20complex_dynamic_type3app17h117323bbc0eaafd4E+0xfc>
   20892:	2803      	cmp	r0, #3
   20894:	d105      	bne.n	208a2 <_ZN20complex_dynamic_type3app17h117323bbc0eaafd4E+0xd2>
   20896:	4817      	ldr	r0, [pc, #92]	@ (208f4 <_ZN20complex_dynamic_type3app17h117323bbc0eaafd4E+0x124>)
   20898:	2100      	movs	r1, #0
   2089a:	460a      	mov	r2, r1
   2089c:	460b      	mov	r3, r1
   2089e:	df03      	svc	3
   208a0:	e004      	b.n	208ac <_ZN20complex_dynamic_type3app17h117323bbc0eaafd4E+0xdc>
   208a2:	4814      	ldr	r0, [pc, #80]	@ (208f4 <_ZN20complex_dynamic_type3app17h117323bbc0eaafd4E+0x124>)
   208a4:	2100      	movs	r1, #0
   208a6:	460a      	mov	r2, r1
   208a8:	460b      	mov	r3, r1
   208aa:	df04      	svc	4
   208ac:	a804      	add	r0, sp, #16
   208ae:	9900      	ldr	r1, [sp, #0]
   208b0:	7001      	strb	r1, [r0, #0]
   208b2:	a80e      	add	r0, sp, #56	@ 0x38
   208b4:	7800      	ldrb	r0, [r0, #0]
   208b6:	2803      	cmp	r0, #3
   208b8:	d008      	beq.n	208cc <_ZN20complex_dynamic_type3app17h117323bbc0eaafd4E+0xfc>
   208ba:	2802      	cmp	r0, #2
   208bc:	d10c      	bne.n	208d8 <_ZN20complex_dynamic_type3app17h117323bbc0eaafd4E+0x108>
   208be:	1c68      	adds	r0, r5, #1
   208c0:	2251      	movs	r2, #81	@ 0x51
   208c2:	4621      	mov	r1, r4
   208c4:	f009 fe5a 	bl	2a57c <__aeabi_memcpy>
   208c8:	702e      	strb	r6, [r5, #0]
   208ca:	e7dc      	b.n	20886 <_ZN20complex_dynamic_type3app17h117323bbc0eaafd4E+0xb6>
   208cc:	4809      	ldr	r0, [pc, #36]	@ (208f4 <_ZN20complex_dynamic_type3app17h117323bbc0eaafd4E+0x124>)
   208ce:	2104      	movs	r1, #4
   208d0:	2200      	movs	r2, #0
   208d2:	4613      	mov	r3, r2
   208d4:	df03      	svc	3
   208d6:	e004      	b.n	208e2 <_ZN20complex_dynamic_type3app17h117323bbc0eaafd4E+0x112>
   208d8:	4806      	ldr	r0, [pc, #24]	@ (208f4 <_ZN20complex_dynamic_type3app17h117323bbc0eaafd4E+0x124>)
   208da:	2104      	movs	r1, #4
   208dc:	2200      	movs	r2, #0
   208de:	4613      	mov	r3, r2
   208e0:	df04      	svc	4
   208e2:	a804      	add	r0, sp, #16
   208e4:	7804      	ldrb	r4, [r0, #0]
   208e6:	1c68      	adds	r0, r5, #1
   208e8:	2251      	movs	r2, #81	@ 0x51
   208ea:	9901      	ldr	r1, [sp, #4]
   208ec:	f009 fe46 	bl	2a57c <__aeabi_memcpy>
   208f0:	702e      	strb	r6, [r5, #0]
   208f2:	e7bd      	b.n	20870 <_ZN20complex_dynamic_type3app17h117323bbc0eaafd4E+0xa0>
   208f4:	00000a36 	.word	0x00000a36

000208f8 <_ZN20complex_dynamic_type3app17h1428cc478016f8d5E>:
   208f8:	b5f0      	push	{r4, r5, r6, r7, lr}
   208fa:	af03      	add	r7, sp, #12
   208fc:	b0ad      	sub	sp, #180	@ 0xb4
   208fe:	9003      	str	r0, [sp, #12]
   20900:	a804      	add	r0, sp, #16
   20902:	2402      	movs	r4, #2
   20904:	7004      	strb	r4, [r0, #0]
   20906:	1c46      	adds	r6, r0, #1
   20908:	2253      	movs	r2, #83	@ 0x53
   2090a:	9202      	str	r2, [sp, #8]
   2090c:	4630      	mov	r0, r6
   2090e:	f009 fe35 	bl	2a57c <__aeabi_memcpy>
   20912:	ad19      	add	r5, sp, #100	@ 0x64
   20914:	1c68      	adds	r0, r5, #1
   20916:	214d      	movs	r1, #77	@ 0x4d
   20918:	9001      	str	r0, [sp, #4]
   2091a:	f009 fc6f 	bl	2a1fc <__aeabi_memclr>
   2091e:	9400      	str	r4, [sp, #0]
   20920:	702c      	strb	r4, [r5, #0]
   20922:	483e      	ldr	r0, [pc, #248]	@ (20a1c <_ZN20complex_dynamic_type3app17h1428cc478016f8d5E+0x124>)
   20924:	2109      	movs	r1, #9
   20926:	4632      	mov	r2, r6
   20928:	9b02      	ldr	r3, [sp, #8]
   2092a:	df04      	svc	4
   2092c:	2802      	cmp	r0, #2
   2092e:	d104      	bne.n	2093a <_ZN20complex_dynamic_type3app17h1428cc478016f8d5E+0x42>
   20930:	2001      	movs	r0, #1
   20932:	9a03      	ldr	r2, [sp, #12]
   20934:	7010      	strb	r0, [r2, #0]
   20936:	6051      	str	r1, [r2, #4]
   20938:	e02c      	b.n	20994 <_ZN20complex_dynamic_type3app17h1428cc478016f8d5E+0x9c>
   2093a:	9d03      	ldr	r5, [sp, #12]
   2093c:	a804      	add	r0, sp, #16
   2093e:	2104      	movs	r1, #4
   20940:	7001      	strb	r1, [r0, #0]
   20942:	4836      	ldr	r0, [pc, #216]	@ (20a1c <_ZN20complex_dynamic_type3app17h1428cc478016f8d5E+0x124>)
   20944:	234d      	movs	r3, #77	@ 0x4d
   20946:	9c01      	ldr	r4, [sp, #4]
   20948:	4622      	mov	r2, r4
   2094a:	df03      	svc	3
   2094c:	2802      	cmp	r0, #2
   2094e:	d10e      	bne.n	2096e <_ZN20complex_dynamic_type3app17h1428cc478016f8d5E+0x76>
   20950:	2001      	movs	r0, #1
   20952:	7028      	strb	r0, [r5, #0]
   20954:	6069      	str	r1, [r5, #4]
   20956:	a819      	add	r0, sp, #100	@ 0x64
   20958:	7800      	ldrb	r0, [r0, #0]
   2095a:	2802      	cmp	r0, #2
   2095c:	d01a      	beq.n	20994 <_ZN20complex_dynamic_type3app17h1428cc478016f8d5E+0x9c>
   2095e:	2803      	cmp	r0, #3
   20960:	d013      	beq.n	2098a <_ZN20complex_dynamic_type3app17h1428cc478016f8d5E+0x92>
   20962:	482e      	ldr	r0, [pc, #184]	@ (20a1c <_ZN20complex_dynamic_type3app17h1428cc478016f8d5E+0x124>)
   20964:	2104      	movs	r1, #4
   20966:	2200      	movs	r2, #0
   20968:	4613      	mov	r3, r2
   2096a:	df04      	svc	4
   2096c:	e012      	b.n	20994 <_ZN20complex_dynamic_type3app17h1428cc478016f8d5E+0x9c>
   2096e:	a819      	add	r0, sp, #100	@ 0x64
   20970:	2103      	movs	r1, #3
   20972:	7001      	strb	r1, [r0, #0]
   20974:	4829      	ldr	r0, [pc, #164]	@ (20a1c <_ZN20complex_dynamic_type3app17h1428cc478016f8d5E+0x124>)
   20976:	2109      	movs	r1, #9
   20978:	2204      	movs	r2, #4
   2097a:	2600      	movs	r6, #0
   2097c:	4633      	mov	r3, r6
   2097e:	df02      	svc	2
   20980:	287f      	cmp	r0, #127	@ 0x7f
   20982:	d816      	bhi.n	209b2 <_ZN20complex_dynamic_type3app17h1428cc478016f8d5E+0xba>
   20984:	2001      	movs	r0, #1
   20986:	7028      	strb	r0, [r5, #0]
   20988:	6069      	str	r1, [r5, #4]
   2098a:	4824      	ldr	r0, [pc, #144]	@ (20a1c <_ZN20complex_dynamic_type3app17h1428cc478016f8d5E+0x124>)
   2098c:	2104      	movs	r1, #4
   2098e:	2200      	movs	r2, #0
   20990:	4613      	mov	r3, r2
   20992:	df03      	svc	3
   20994:	a804      	add	r0, sp, #16
   20996:	7804      	ldrb	r4, [r0, #0]
   20998:	2c02      	cmp	r4, #2
   2099a:	d008      	beq.n	209ae <_ZN20complex_dynamic_type3app17h1428cc478016f8d5E+0xb6>
   2099c:	481f      	ldr	r0, [pc, #124]	@ (20a1c <_ZN20complex_dynamic_type3app17h1428cc478016f8d5E+0x124>)
   2099e:	2109      	movs	r1, #9
   209a0:	2200      	movs	r2, #0
   209a2:	4613      	mov	r3, r2
   209a4:	2c03      	cmp	r4, #3
   209a6:	d101      	bne.n	209ac <_ZN20complex_dynamic_type3app17h1428cc478016f8d5E+0xb4>
   209a8:	df03      	svc	3
   209aa:	e000      	b.n	209ae <_ZN20complex_dynamic_type3app17h1428cc478016f8d5E+0xb6>
   209ac:	df04      	svc	4
   209ae:	b02d      	add	sp, #180	@ 0xb4
   209b0:	bdf0      	pop	{r4, r5, r6, r7, pc}
   209b2:	a804      	add	r0, sp, #16
   209b4:	7800      	ldrb	r0, [r0, #0]
   209b6:	2802      	cmp	r0, #2
   209b8:	d01c      	beq.n	209f4 <_ZN20complex_dynamic_type3app17h1428cc478016f8d5E+0xfc>
   209ba:	2803      	cmp	r0, #3
   209bc:	d105      	bne.n	209ca <_ZN20complex_dynamic_type3app17h1428cc478016f8d5E+0xd2>
   209be:	4817      	ldr	r0, [pc, #92]	@ (20a1c <_ZN20complex_dynamic_type3app17h1428cc478016f8d5E+0x124>)
   209c0:	2109      	movs	r1, #9
   209c2:	2200      	movs	r2, #0
   209c4:	4613      	mov	r3, r2
   209c6:	df03      	svc	3
   209c8:	e004      	b.n	209d4 <_ZN20complex_dynamic_type3app17h1428cc478016f8d5E+0xdc>
   209ca:	4814      	ldr	r0, [pc, #80]	@ (20a1c <_ZN20complex_dynamic_type3app17h1428cc478016f8d5E+0x124>)
   209cc:	2109      	movs	r1, #9
   209ce:	2200      	movs	r2, #0
   209d0:	4613      	mov	r3, r2
   209d2:	df04      	svc	4
   209d4:	a804      	add	r0, sp, #16
   209d6:	9900      	ldr	r1, [sp, #0]
   209d8:	7001      	strb	r1, [r0, #0]
   209da:	a819      	add	r0, sp, #100	@ 0x64
   209dc:	7800      	ldrb	r0, [r0, #0]
   209de:	2803      	cmp	r0, #3
   209e0:	d008      	beq.n	209f4 <_ZN20complex_dynamic_type3app17h1428cc478016f8d5E+0xfc>
   209e2:	2802      	cmp	r0, #2
   209e4:	d10c      	bne.n	20a00 <_ZN20complex_dynamic_type3app17h1428cc478016f8d5E+0x108>
   209e6:	1c68      	adds	r0, r5, #1
   209e8:	224d      	movs	r2, #77	@ 0x4d
   209ea:	4621      	mov	r1, r4
   209ec:	f009 fdc6 	bl	2a57c <__aeabi_memcpy>
   209f0:	702e      	strb	r6, [r5, #0]
   209f2:	e7dc      	b.n	209ae <_ZN20complex_dynamic_type3app17h1428cc478016f8d5E+0xb6>
   209f4:	4809      	ldr	r0, [pc, #36]	@ (20a1c <_ZN20complex_dynamic_type3app17h1428cc478016f8d5E+0x124>)
   209f6:	2104      	movs	r1, #4
   209f8:	2200      	movs	r2, #0
   209fa:	4613      	mov	r3, r2
   209fc:	df03      	svc	3
   209fe:	e004      	b.n	20a0a <_ZN20complex_dynamic_type3app17h1428cc478016f8d5E+0x112>
   20a00:	4806      	ldr	r0, [pc, #24]	@ (20a1c <_ZN20complex_dynamic_type3app17h1428cc478016f8d5E+0x124>)
   20a02:	2104      	movs	r1, #4
   20a04:	2200      	movs	r2, #0
   20a06:	4613      	mov	r3, r2
   20a08:	df04      	svc	4
   20a0a:	a804      	add	r0, sp, #16
   20a0c:	7804      	ldrb	r4, [r0, #0]
   20a0e:	1c68      	adds	r0, r5, #1
   20a10:	224d      	movs	r2, #77	@ 0x4d
   20a12:	9901      	ldr	r1, [sp, #4]
   20a14:	f009 fdb2 	bl	2a57c <__aeabi_memcpy>
   20a18:	702e      	strb	r6, [r5, #0]
   20a1a:	e7bd      	b.n	20998 <_ZN20complex_dynamic_type3app17h1428cc478016f8d5E+0xa0>
   20a1c:	000016ba 	.word	0x000016ba

00020a20 <_ZN20complex_dynamic_type3app17h161e97fd151d1cb1E>:
   20a20:	b5f0      	push	{r4, r5, r6, r7, lr}
   20a22:	af03      	add	r7, sp, #12
   20a24:	b0a3      	sub	sp, #140	@ 0x8c
   20a26:	9004      	str	r0, [sp, #16]
   20a28:	a805      	add	r0, sp, #20
   20a2a:	2402      	movs	r4, #2
   20a2c:	7004      	strb	r4, [r0, #0]
   20a2e:	1c46      	adds	r6, r0, #1
   20a30:	2235      	movs	r2, #53	@ 0x35
   20a32:	9203      	str	r2, [sp, #12]
   20a34:	4630      	mov	r0, r6
   20a36:	f009 fda1 	bl	2a57c <__aeabi_memcpy>
   20a3a:	ad13      	add	r5, sp, #76	@ 0x4c
   20a3c:	1c68      	adds	r0, r5, #1
   20a3e:	213f      	movs	r1, #63	@ 0x3f
   20a40:	9002      	str	r0, [sp, #8]
   20a42:	f009 fbdb 	bl	2a1fc <__aeabi_memclr>
   20a46:	9401      	str	r4, [sp, #4]
   20a48:	702c      	strb	r4, [r5, #0]
   20a4a:	483e      	ldr	r0, [pc, #248]	@ (20b44 <_ZN20complex_dynamic_type3app17h161e97fd151d1cb1E+0x124>)
   20a4c:	2100      	movs	r1, #0
   20a4e:	4632      	mov	r2, r6
   20a50:	9b03      	ldr	r3, [sp, #12]
   20a52:	df04      	svc	4
   20a54:	2802      	cmp	r0, #2
   20a56:	d104      	bne.n	20a62 <_ZN20complex_dynamic_type3app17h161e97fd151d1cb1E+0x42>
   20a58:	2001      	movs	r0, #1
   20a5a:	9a04      	ldr	r2, [sp, #16]
   20a5c:	7010      	strb	r0, [r2, #0]
   20a5e:	6051      	str	r1, [r2, #4]
   20a60:	e02c      	b.n	20abc <_ZN20complex_dynamic_type3app17h161e97fd151d1cb1E+0x9c>
   20a62:	9d04      	ldr	r5, [sp, #16]
   20a64:	a805      	add	r0, sp, #20
   20a66:	2104      	movs	r1, #4
   20a68:	7001      	strb	r1, [r0, #0]
   20a6a:	4836      	ldr	r0, [pc, #216]	@ (20b44 <_ZN20complex_dynamic_type3app17h161e97fd151d1cb1E+0x124>)
   20a6c:	2403      	movs	r4, #3
   20a6e:	233f      	movs	r3, #63	@ 0x3f
   20a70:	4621      	mov	r1, r4
   20a72:	9a02      	ldr	r2, [sp, #8]
   20a74:	df03      	svc	3
   20a76:	2802      	cmp	r0, #2
   20a78:	d10e      	bne.n	20a98 <_ZN20complex_dynamic_type3app17h161e97fd151d1cb1E+0x78>
   20a7a:	2001      	movs	r0, #1
   20a7c:	7028      	strb	r0, [r5, #0]
   20a7e:	6069      	str	r1, [r5, #4]
   20a80:	a813      	add	r0, sp, #76	@ 0x4c
   20a82:	7800      	ldrb	r0, [r0, #0]
   20a84:	2802      	cmp	r0, #2
   20a86:	d019      	beq.n	20abc <_ZN20complex_dynamic_type3app17h161e97fd151d1cb1E+0x9c>
   20a88:	2803      	cmp	r0, #3
   20a8a:	d012      	beq.n	20ab2 <_ZN20complex_dynamic_type3app17h161e97fd151d1cb1E+0x92>
   20a8c:	482d      	ldr	r0, [pc, #180]	@ (20b44 <_ZN20complex_dynamic_type3app17h161e97fd151d1cb1E+0x124>)
   20a8e:	2103      	movs	r1, #3
   20a90:	2200      	movs	r2, #0
   20a92:	4613      	mov	r3, r2
   20a94:	df04      	svc	4
   20a96:	e011      	b.n	20abc <_ZN20complex_dynamic_type3app17h161e97fd151d1cb1E+0x9c>
   20a98:	a813      	add	r0, sp, #76	@ 0x4c
   20a9a:	7004      	strb	r4, [r0, #0]
   20a9c:	4829      	ldr	r0, [pc, #164]	@ (20b44 <_ZN20complex_dynamic_type3app17h161e97fd151d1cb1E+0x124>)
   20a9e:	2600      	movs	r6, #0
   20aa0:	4631      	mov	r1, r6
   20aa2:	4622      	mov	r2, r4
   20aa4:	4633      	mov	r3, r6
   20aa6:	df02      	svc	2
   20aa8:	287f      	cmp	r0, #127	@ 0x7f
   20aaa:	d816      	bhi.n	20ada <_ZN20complex_dynamic_type3app17h161e97fd151d1cb1E+0xba>
   20aac:	2001      	movs	r0, #1
   20aae:	7028      	strb	r0, [r5, #0]
   20ab0:	6069      	str	r1, [r5, #4]
   20ab2:	4824      	ldr	r0, [pc, #144]	@ (20b44 <_ZN20complex_dynamic_type3app17h161e97fd151d1cb1E+0x124>)
   20ab4:	2103      	movs	r1, #3
   20ab6:	2200      	movs	r2, #0
   20ab8:	4613      	mov	r3, r2
   20aba:	df03      	svc	3
   20abc:	a805      	add	r0, sp, #20
   20abe:	7804      	ldrb	r4, [r0, #0]
   20ac0:	2c02      	cmp	r4, #2
   20ac2:	d008      	beq.n	20ad6 <_ZN20complex_dynamic_type3app17h161e97fd151d1cb1E+0xb6>
   20ac4:	481f      	ldr	r0, [pc, #124]	@ (20b44 <_ZN20complex_dynamic_type3app17h161e97fd151d1cb1E+0x124>)
   20ac6:	2100      	movs	r1, #0
   20ac8:	460a      	mov	r2, r1
   20aca:	460b      	mov	r3, r1
   20acc:	2c03      	cmp	r4, #3
   20ace:	d101      	bne.n	20ad4 <_ZN20complex_dynamic_type3app17h161e97fd151d1cb1E+0xb4>
   20ad0:	df03      	svc	3
   20ad2:	e000      	b.n	20ad6 <_ZN20complex_dynamic_type3app17h161e97fd151d1cb1E+0xb6>
   20ad4:	df04      	svc	4
   20ad6:	b023      	add	sp, #140	@ 0x8c
   20ad8:	bdf0      	pop	{r4, r5, r6, r7, pc}
   20ada:	a805      	add	r0, sp, #20
   20adc:	7800      	ldrb	r0, [r0, #0]
   20ade:	2802      	cmp	r0, #2
   20ae0:	d01c      	beq.n	20b1c <_ZN20complex_dynamic_type3app17h161e97fd151d1cb1E+0xfc>
   20ae2:	2803      	cmp	r0, #3
   20ae4:	d105      	bne.n	20af2 <_ZN20complex_dynamic_type3app17h161e97fd151d1cb1E+0xd2>
   20ae6:	4817      	ldr	r0, [pc, #92]	@ (20b44 <_ZN20complex_dynamic_type3app17h161e97fd151d1cb1E+0x124>)
   20ae8:	2100      	movs	r1, #0
   20aea:	460a      	mov	r2, r1
   20aec:	460b      	mov	r3, r1
   20aee:	df03      	svc	3
   20af0:	e004      	b.n	20afc <_ZN20complex_dynamic_type3app17h161e97fd151d1cb1E+0xdc>
   20af2:	4814      	ldr	r0, [pc, #80]	@ (20b44 <_ZN20complex_dynamic_type3app17h161e97fd151d1cb1E+0x124>)
   20af4:	2100      	movs	r1, #0
   20af6:	460a      	mov	r2, r1
   20af8:	460b      	mov	r3, r1
   20afa:	df04      	svc	4
   20afc:	9901      	ldr	r1, [sp, #4]
   20afe:	a805      	add	r0, sp, #20
   20b00:	7001      	strb	r1, [r0, #0]
   20b02:	a813      	add	r0, sp, #76	@ 0x4c
   20b04:	7800      	ldrb	r0, [r0, #0]
   20b06:	2803      	cmp	r0, #3
   20b08:	d008      	beq.n	20b1c <_ZN20complex_dynamic_type3app17h161e97fd151d1cb1E+0xfc>
   20b0a:	2802      	cmp	r0, #2
   20b0c:	d10c      	bne.n	20b28 <_ZN20complex_dynamic_type3app17h161e97fd151d1cb1E+0x108>
   20b0e:	1c68      	adds	r0, r5, #1
   20b10:	223f      	movs	r2, #63	@ 0x3f
   20b12:	9902      	ldr	r1, [sp, #8]
   20b14:	f009 fd32 	bl	2a57c <__aeabi_memcpy>
   20b18:	702e      	strb	r6, [r5, #0]
   20b1a:	e7dc      	b.n	20ad6 <_ZN20complex_dynamic_type3app17h161e97fd151d1cb1E+0xb6>
   20b1c:	4809      	ldr	r0, [pc, #36]	@ (20b44 <_ZN20complex_dynamic_type3app17h161e97fd151d1cb1E+0x124>)
   20b1e:	2103      	movs	r1, #3
   20b20:	2200      	movs	r2, #0
   20b22:	4613      	mov	r3, r2
   20b24:	df03      	svc	3
   20b26:	e004      	b.n	20b32 <_ZN20complex_dynamic_type3app17h161e97fd151d1cb1E+0x112>
   20b28:	4806      	ldr	r0, [pc, #24]	@ (20b44 <_ZN20complex_dynamic_type3app17h161e97fd151d1cb1E+0x124>)
   20b2a:	2103      	movs	r1, #3
   20b2c:	2200      	movs	r2, #0
   20b2e:	4613      	mov	r3, r2
   20b30:	df04      	svc	4
   20b32:	a805      	add	r0, sp, #20
   20b34:	7804      	ldrb	r4, [r0, #0]
   20b36:	1c68      	adds	r0, r5, #1
   20b38:	223f      	movs	r2, #63	@ 0x3f
   20b3a:	9902      	ldr	r1, [sp, #8]
   20b3c:	f009 fd1e 	bl	2a57c <__aeabi_memcpy>
   20b40:	702e      	strb	r6, [r5, #0]
   20b42:	e7bd      	b.n	20ac0 <_ZN20complex_dynamic_type3app17h161e97fd151d1cb1E+0xa0>
   20b44:	00000e57 	.word	0x00000e57

00020b48 <_ZN20complex_dynamic_type3app17h1df639a9782c9083E>:
   20b48:	b5f0      	push	{r4, r5, r6, r7, lr}
   20b4a:	af03      	add	r7, sp, #12
   20b4c:	b093      	sub	sp, #76	@ 0x4c
   20b4e:	9003      	str	r0, [sp, #12]
   20b50:	a804      	add	r0, sp, #16
   20b52:	2402      	movs	r4, #2
   20b54:	7004      	strb	r4, [r0, #0]
   20b56:	1c46      	adds	r6, r0, #1
   20b58:	2218      	movs	r2, #24
   20b5a:	9202      	str	r2, [sp, #8]
   20b5c:	4630      	mov	r0, r6
   20b5e:	f009 fd0d 	bl	2a57c <__aeabi_memcpy>
   20b62:	ad0b      	add	r5, sp, #44	@ 0x2c
   20b64:	1c68      	adds	r0, r5, #1
   20b66:	211e      	movs	r1, #30
   20b68:	9001      	str	r0, [sp, #4]
   20b6a:	f009 fb47 	bl	2a1fc <__aeabi_memclr>
   20b6e:	9400      	str	r4, [sp, #0]
   20b70:	702c      	strb	r4, [r5, #0]
   20b72:	483f      	ldr	r0, [pc, #252]	@ (20c70 <_ZN20complex_dynamic_type3app17h1df639a9782c9083E+0x128>)
   20b74:	2109      	movs	r1, #9
   20b76:	4632      	mov	r2, r6
   20b78:	9b02      	ldr	r3, [sp, #8]
   20b7a:	df04      	svc	4
   20b7c:	2802      	cmp	r0, #2
   20b7e:	d104      	bne.n	20b8a <_ZN20complex_dynamic_type3app17h1df639a9782c9083E+0x42>
   20b80:	2001      	movs	r0, #1
   20b82:	9a03      	ldr	r2, [sp, #12]
   20b84:	7010      	strb	r0, [r2, #0]
   20b86:	6051      	str	r1, [r2, #4]
   20b88:	e02d      	b.n	20be6 <_ZN20complex_dynamic_type3app17h1df639a9782c9083E+0x9e>
   20b8a:	9d03      	ldr	r5, [sp, #12]
   20b8c:	a804      	add	r0, sp, #16
   20b8e:	2104      	movs	r1, #4
   20b90:	7001      	strb	r1, [r0, #0]
   20b92:	4837      	ldr	r0, [pc, #220]	@ (20c70 <_ZN20complex_dynamic_type3app17h1df639a9782c9083E+0x128>)
   20b94:	2105      	movs	r1, #5
   20b96:	231e      	movs	r3, #30
   20b98:	9c01      	ldr	r4, [sp, #4]
   20b9a:	4622      	mov	r2, r4
   20b9c:	df03      	svc	3
   20b9e:	2802      	cmp	r0, #2
   20ba0:	d10e      	bne.n	20bc0 <_ZN20complex_dynamic_type3app17h1df639a9782c9083E+0x78>
   20ba2:	2001      	movs	r0, #1
   20ba4:	7028      	strb	r0, [r5, #0]
   20ba6:	6069      	str	r1, [r5, #4]
   20ba8:	a80b      	add	r0, sp, #44	@ 0x2c
   20baa:	7800      	ldrb	r0, [r0, #0]
   20bac:	2802      	cmp	r0, #2
   20bae:	d01a      	beq.n	20be6 <_ZN20complex_dynamic_type3app17h1df639a9782c9083E+0x9e>
   20bb0:	2803      	cmp	r0, #3
   20bb2:	d013      	beq.n	20bdc <_ZN20complex_dynamic_type3app17h1df639a9782c9083E+0x94>
   20bb4:	482e      	ldr	r0, [pc, #184]	@ (20c70 <_ZN20complex_dynamic_type3app17h1df639a9782c9083E+0x128>)
   20bb6:	2105      	movs	r1, #5
   20bb8:	2200      	movs	r2, #0
   20bba:	4613      	mov	r3, r2
   20bbc:	df04      	svc	4
   20bbe:	e012      	b.n	20be6 <_ZN20complex_dynamic_type3app17h1df639a9782c9083E+0x9e>
   20bc0:	a80b      	add	r0, sp, #44	@ 0x2c
   20bc2:	2103      	movs	r1, #3
   20bc4:	7001      	strb	r1, [r0, #0]
   20bc6:	482a      	ldr	r0, [pc, #168]	@ (20c70 <_ZN20complex_dynamic_type3app17h1df639a9782c9083E+0x128>)
   20bc8:	2109      	movs	r1, #9
   20bca:	2205      	movs	r2, #5
   20bcc:	2600      	movs	r6, #0
   20bce:	4633      	mov	r3, r6
   20bd0:	df02      	svc	2
   20bd2:	287f      	cmp	r0, #127	@ 0x7f
   20bd4:	d816      	bhi.n	20c04 <_ZN20complex_dynamic_type3app17h1df639a9782c9083E+0xbc>
   20bd6:	2001      	movs	r0, #1
   20bd8:	7028      	strb	r0, [r5, #0]
   20bda:	6069      	str	r1, [r5, #4]
   20bdc:	4824      	ldr	r0, [pc, #144]	@ (20c70 <_ZN20complex_dynamic_type3app17h1df639a9782c9083E+0x128>)
   20bde:	2105      	movs	r1, #5
   20be0:	2200      	movs	r2, #0
   20be2:	4613      	mov	r3, r2
   20be4:	df03      	svc	3
   20be6:	a804      	add	r0, sp, #16
   20be8:	7804      	ldrb	r4, [r0, #0]
   20bea:	2c02      	cmp	r4, #2
   20bec:	d008      	beq.n	20c00 <_ZN20complex_dynamic_type3app17h1df639a9782c9083E+0xb8>
   20bee:	4820      	ldr	r0, [pc, #128]	@ (20c70 <_ZN20complex_dynamic_type3app17h1df639a9782c9083E+0x128>)
   20bf0:	2109      	movs	r1, #9
   20bf2:	2200      	movs	r2, #0
   20bf4:	4613      	mov	r3, r2
   20bf6:	2c03      	cmp	r4, #3
   20bf8:	d101      	bne.n	20bfe <_ZN20complex_dynamic_type3app17h1df639a9782c9083E+0xb6>
   20bfa:	df03      	svc	3
   20bfc:	e000      	b.n	20c00 <_ZN20complex_dynamic_type3app17h1df639a9782c9083E+0xb8>
   20bfe:	df04      	svc	4
   20c00:	b013      	add	sp, #76	@ 0x4c
   20c02:	bdf0      	pop	{r4, r5, r6, r7, pc}
   20c04:	a804      	add	r0, sp, #16
   20c06:	7800      	ldrb	r0, [r0, #0]
   20c08:	2802      	cmp	r0, #2
   20c0a:	d01c      	beq.n	20c46 <_ZN20complex_dynamic_type3app17h1df639a9782c9083E+0xfe>
   20c0c:	2803      	cmp	r0, #3
   20c0e:	d105      	bne.n	20c1c <_ZN20complex_dynamic_type3app17h1df639a9782c9083E+0xd4>
   20c10:	4817      	ldr	r0, [pc, #92]	@ (20c70 <_ZN20complex_dynamic_type3app17h1df639a9782c9083E+0x128>)
   20c12:	2109      	movs	r1, #9
   20c14:	2200      	movs	r2, #0
   20c16:	4613      	mov	r3, r2
   20c18:	df03      	svc	3
   20c1a:	e004      	b.n	20c26 <_ZN20complex_dynamic_type3app17h1df639a9782c9083E+0xde>
   20c1c:	4814      	ldr	r0, [pc, #80]	@ (20c70 <_ZN20complex_dynamic_type3app17h1df639a9782c9083E+0x128>)
   20c1e:	2109      	movs	r1, #9
   20c20:	2200      	movs	r2, #0
   20c22:	4613      	mov	r3, r2
   20c24:	df04      	svc	4
   20c26:	a804      	add	r0, sp, #16
   20c28:	9900      	ldr	r1, [sp, #0]
   20c2a:	7001      	strb	r1, [r0, #0]
   20c2c:	a80b      	add	r0, sp, #44	@ 0x2c
   20c2e:	7800      	ldrb	r0, [r0, #0]
   20c30:	2803      	cmp	r0, #3
   20c32:	d008      	beq.n	20c46 <_ZN20complex_dynamic_type3app17h1df639a9782c9083E+0xfe>
   20c34:	2802      	cmp	r0, #2
   20c36:	d10c      	bne.n	20c52 <_ZN20complex_dynamic_type3app17h1df639a9782c9083E+0x10a>
   20c38:	1c68      	adds	r0, r5, #1
   20c3a:	221e      	movs	r2, #30
   20c3c:	4621      	mov	r1, r4
   20c3e:	f009 fc9d 	bl	2a57c <__aeabi_memcpy>
   20c42:	702e      	strb	r6, [r5, #0]
   20c44:	e7dc      	b.n	20c00 <_ZN20complex_dynamic_type3app17h1df639a9782c9083E+0xb8>
   20c46:	480a      	ldr	r0, [pc, #40]	@ (20c70 <_ZN20complex_dynamic_type3app17h1df639a9782c9083E+0x128>)
   20c48:	2105      	movs	r1, #5
   20c4a:	2200      	movs	r2, #0
   20c4c:	4613      	mov	r3, r2
   20c4e:	df03      	svc	3
   20c50:	e004      	b.n	20c5c <_ZN20complex_dynamic_type3app17h1df639a9782c9083E+0x114>
   20c52:	4807      	ldr	r0, [pc, #28]	@ (20c70 <_ZN20complex_dynamic_type3app17h1df639a9782c9083E+0x128>)
   20c54:	2105      	movs	r1, #5
   20c56:	2200      	movs	r2, #0
   20c58:	4613      	mov	r3, r2
   20c5a:	df04      	svc	4
   20c5c:	a804      	add	r0, sp, #16
   20c5e:	7804      	ldrb	r4, [r0, #0]
   20c60:	1c68      	adds	r0, r5, #1
   20c62:	221e      	movs	r2, #30
   20c64:	9901      	ldr	r1, [sp, #4]
   20c66:	f009 fc89 	bl	2a57c <__aeabi_memcpy>
   20c6a:	702e      	strb	r6, [r5, #0]
   20c6c:	e7bd      	b.n	20bea <_ZN20complex_dynamic_type3app17h1df639a9782c9083E+0xa2>
   20c6e:	46c0      	nop			@ (mov r8, r8)
   20c70:	00000cbb 	.word	0x00000cbb

00020c74 <_ZN20complex_dynamic_type3app17h20e2f9f1fa975081E>:
   20c74:	b5f0      	push	{r4, r5, r6, r7, lr}
   20c76:	af03      	add	r7, sp, #12
   20c78:	b0b1      	sub	sp, #196	@ 0xc4
   20c7a:	9003      	str	r0, [sp, #12]
   20c7c:	a804      	add	r0, sp, #16
   20c7e:	2502      	movs	r5, #2
   20c80:	7005      	strb	r5, [r0, #0]
   20c82:	1c46      	adds	r6, r0, #1
   20c84:	224f      	movs	r2, #79	@ 0x4f
   20c86:	9202      	str	r2, [sp, #8]
   20c88:	4630      	mov	r0, r6
   20c8a:	f009 fc77 	bl	2a57c <__aeabi_memcpy>
   20c8e:	ac18      	add	r4, sp, #96	@ 0x60
   20c90:	1c60      	adds	r0, r4, #1
   20c92:	2161      	movs	r1, #97	@ 0x61
   20c94:	9001      	str	r0, [sp, #4]
   20c96:	f009 fab1 	bl	2a1fc <__aeabi_memclr>
   20c9a:	7025      	strb	r5, [r4, #0]
   20c9c:	20db      	movs	r0, #219	@ 0xdb
   20c9e:	0044      	lsls	r4, r0, #1
   20ca0:	4620      	mov	r0, r4
   20ca2:	4629      	mov	r1, r5
   20ca4:	4632      	mov	r2, r6
   20ca6:	9b02      	ldr	r3, [sp, #8]
   20ca8:	df04      	svc	4
   20caa:	2802      	cmp	r0, #2
   20cac:	d104      	bne.n	20cb8 <_ZN20complex_dynamic_type3app17h20e2f9f1fa975081E+0x44>
   20cae:	2001      	movs	r0, #1
   20cb0:	9a03      	ldr	r2, [sp, #12]
   20cb2:	7010      	strb	r0, [r2, #0]
   20cb4:	6051      	str	r1, [r2, #4]
   20cb6:	e02e      	b.n	20d16 <_ZN20complex_dynamic_type3app17h20e2f9f1fa975081E+0xa2>
   20cb8:	9e03      	ldr	r6, [sp, #12]
   20cba:	a804      	add	r0, sp, #16
   20cbc:	2104      	movs	r1, #4
   20cbe:	7001      	strb	r1, [r0, #0]
   20cc0:	2108      	movs	r1, #8
   20cc2:	2361      	movs	r3, #97	@ 0x61
   20cc4:	4620      	mov	r0, r4
   20cc6:	9d01      	ldr	r5, [sp, #4]
   20cc8:	462a      	mov	r2, r5
   20cca:	df03      	svc	3
   20ccc:	2802      	cmp	r0, #2
   20cce:	d10e      	bne.n	20cee <_ZN20complex_dynamic_type3app17h20e2f9f1fa975081E+0x7a>
   20cd0:	2001      	movs	r0, #1
   20cd2:	7030      	strb	r0, [r6, #0]
   20cd4:	6071      	str	r1, [r6, #4]
   20cd6:	a818      	add	r0, sp, #96	@ 0x60
   20cd8:	7800      	ldrb	r0, [r0, #0]
   20cda:	2802      	cmp	r0, #2
   20cdc:	d01b      	beq.n	20d16 <_ZN20complex_dynamic_type3app17h20e2f9f1fa975081E+0xa2>
   20cde:	2803      	cmp	r0, #3
   20ce0:	d014      	beq.n	20d0c <_ZN20complex_dynamic_type3app17h20e2f9f1fa975081E+0x98>
   20ce2:	2108      	movs	r1, #8
   20ce4:	2200      	movs	r2, #0
   20ce6:	4620      	mov	r0, r4
   20ce8:	4613      	mov	r3, r2
   20cea:	df04      	svc	4
   20cec:	e013      	b.n	20d16 <_ZN20complex_dynamic_type3app17h20e2f9f1fa975081E+0xa2>
   20cee:	a818      	add	r0, sp, #96	@ 0x60
   20cf0:	2103      	movs	r1, #3
   20cf2:	7001      	strb	r1, [r0, #0]
   20cf4:	2102      	movs	r1, #2
   20cf6:	2208      	movs	r2, #8
   20cf8:	2300      	movs	r3, #0
   20cfa:	4620      	mov	r0, r4
   20cfc:	9100      	str	r1, [sp, #0]
   20cfe:	9302      	str	r3, [sp, #8]
   20d00:	df02      	svc	2
   20d02:	287f      	cmp	r0, #127	@ 0x7f
   20d04:	d817      	bhi.n	20d36 <_ZN20complex_dynamic_type3app17h20e2f9f1fa975081E+0xc2>
   20d06:	2001      	movs	r0, #1
   20d08:	7030      	strb	r0, [r6, #0]
   20d0a:	6071      	str	r1, [r6, #4]
   20d0c:	2108      	movs	r1, #8
   20d0e:	2200      	movs	r2, #0
   20d10:	4620      	mov	r0, r4
   20d12:	4613      	mov	r3, r2
   20d14:	df03      	svc	3
   20d16:	4625      	mov	r5, r4
   20d18:	a804      	add	r0, sp, #16
   20d1a:	7804      	ldrb	r4, [r0, #0]
   20d1c:	2c02      	cmp	r4, #2
   20d1e:	d008      	beq.n	20d32 <_ZN20complex_dynamic_type3app17h20e2f9f1fa975081E+0xbe>
   20d20:	2102      	movs	r1, #2
   20d22:	2200      	movs	r2, #0
   20d24:	4628      	mov	r0, r5
   20d26:	4613      	mov	r3, r2
   20d28:	2c03      	cmp	r4, #3
   20d2a:	d101      	bne.n	20d30 <_ZN20complex_dynamic_type3app17h20e2f9f1fa975081E+0xbc>
   20d2c:	df03      	svc	3
   20d2e:	e000      	b.n	20d32 <_ZN20complex_dynamic_type3app17h20e2f9f1fa975081E+0xbe>
   20d30:	df04      	svc	4
   20d32:	b031      	add	sp, #196	@ 0xc4
   20d34:	bdf0      	pop	{r4, r5, r6, r7, pc}
   20d36:	a804      	add	r0, sp, #16
   20d38:	7800      	ldrb	r0, [r0, #0]
   20d3a:	2802      	cmp	r0, #2
   20d3c:	d01b      	beq.n	20d76 <_ZN20complex_dynamic_type3app17h20e2f9f1fa975081E+0x102>
   20d3e:	2102      	movs	r1, #2
   20d40:	2200      	movs	r2, #0
   20d42:	2803      	cmp	r0, #3
   20d44:	d103      	bne.n	20d4e <_ZN20complex_dynamic_type3app17h20e2f9f1fa975081E+0xda>
   20d46:	4620      	mov	r0, r4
   20d48:	4613      	mov	r3, r2
   20d4a:	df03      	svc	3
   20d4c:	e002      	b.n	20d54 <_ZN20complex_dynamic_type3app17h20e2f9f1fa975081E+0xe0>
   20d4e:	4620      	mov	r0, r4
   20d50:	4613      	mov	r3, r2
   20d52:	df04      	svc	4
   20d54:	a804      	add	r0, sp, #16
   20d56:	9900      	ldr	r1, [sp, #0]
   20d58:	7001      	strb	r1, [r0, #0]
   20d5a:	a818      	add	r0, sp, #96	@ 0x60
   20d5c:	7800      	ldrb	r0, [r0, #0]
   20d5e:	2803      	cmp	r0, #3
   20d60:	d009      	beq.n	20d76 <_ZN20complex_dynamic_type3app17h20e2f9f1fa975081E+0x102>
   20d62:	2802      	cmp	r0, #2
   20d64:	d10e      	bne.n	20d84 <_ZN20complex_dynamic_type3app17h20e2f9f1fa975081E+0x110>
   20d66:	1c70      	adds	r0, r6, #1
   20d68:	2261      	movs	r2, #97	@ 0x61
   20d6a:	4629      	mov	r1, r5
   20d6c:	f009 fc06 	bl	2a57c <__aeabi_memcpy>
   20d70:	9802      	ldr	r0, [sp, #8]
   20d72:	7030      	strb	r0, [r6, #0]
   20d74:	e7dd      	b.n	20d32 <_ZN20complex_dynamic_type3app17h20e2f9f1fa975081E+0xbe>
   20d76:	2108      	movs	r1, #8
   20d78:	2200      	movs	r2, #0
   20d7a:	4625      	mov	r5, r4
   20d7c:	4620      	mov	r0, r4
   20d7e:	4613      	mov	r3, r2
   20d80:	df03      	svc	3
   20d82:	e005      	b.n	20d90 <_ZN20complex_dynamic_type3app17h20e2f9f1fa975081E+0x11c>
   20d84:	2108      	movs	r1, #8
   20d86:	2200      	movs	r2, #0
   20d88:	4625      	mov	r5, r4
   20d8a:	4620      	mov	r0, r4
   20d8c:	4613      	mov	r3, r2
   20d8e:	df04      	svc	4
   20d90:	a804      	add	r0, sp, #16
   20d92:	7804      	ldrb	r4, [r0, #0]
   20d94:	1c70      	adds	r0, r6, #1
   20d96:	2261      	movs	r2, #97	@ 0x61
   20d98:	9901      	ldr	r1, [sp, #4]
   20d9a:	f009 fbef 	bl	2a57c <__aeabi_memcpy>
   20d9e:	9802      	ldr	r0, [sp, #8]
   20da0:	7030      	strb	r0, [r6, #0]
   20da2:	e7bb      	b.n	20d1c <_ZN20complex_dynamic_type3app17h20e2f9f1fa975081E+0xa8>

00020da4 <_ZN20complex_dynamic_type3app17h2466a01600a572b2E>:
   20da4:	b5f0      	push	{r4, r5, r6, r7, lr}
   20da6:	af03      	add	r7, sp, #12
   20da8:	b09d      	sub	sp, #116	@ 0x74
   20daa:	9004      	str	r0, [sp, #16]
   20dac:	a805      	add	r0, sp, #20
   20dae:	2402      	movs	r4, #2
   20db0:	7004      	strb	r4, [r0, #0]
   20db2:	1c40      	adds	r0, r0, #1
   20db4:	9003      	str	r0, [sp, #12]
   20db6:	2541      	movs	r5, #65	@ 0x41
   20db8:	462a      	mov	r2, r5
   20dba:	f009 fbdf 	bl	2a57c <__aeabi_memcpy>
   20dbe:	ae16      	add	r6, sp, #88	@ 0x58
   20dc0:	1c70      	adds	r0, r6, #1
   20dc2:	2118      	movs	r1, #24
   20dc4:	9002      	str	r0, [sp, #8]
   20dc6:	f009 fa19 	bl	2a1fc <__aeabi_memclr>
   20dca:	9401      	str	r4, [sp, #4]
   20dcc:	7034      	strb	r4, [r6, #0]
   20dce:	483e      	ldr	r0, [pc, #248]	@ (20ec8 <_ZN20complex_dynamic_type3app17h2466a01600a572b2E+0x124>)
   20dd0:	2601      	movs	r6, #1
   20dd2:	4631      	mov	r1, r6
   20dd4:	9a03      	ldr	r2, [sp, #12]
   20dd6:	462b      	mov	r3, r5
   20dd8:	df04      	svc	4
   20dda:	2802      	cmp	r0, #2
   20ddc:	d103      	bne.n	20de6 <_ZN20complex_dynamic_type3app17h2466a01600a572b2E+0x42>
   20dde:	9804      	ldr	r0, [sp, #16]
   20de0:	7006      	strb	r6, [r0, #0]
   20de2:	6041      	str	r1, [r0, #4]
   20de4:	e02b      	b.n	20e3e <_ZN20complex_dynamic_type3app17h2466a01600a572b2E+0x9a>
   20de6:	9d04      	ldr	r5, [sp, #16]
   20de8:	a805      	add	r0, sp, #20
   20dea:	2104      	movs	r1, #4
   20dec:	7001      	strb	r1, [r0, #0]
   20dee:	4836      	ldr	r0, [pc, #216]	@ (20ec8 <_ZN20complex_dynamic_type3app17h2466a01600a572b2E+0x124>)
   20df0:	2109      	movs	r1, #9
   20df2:	2318      	movs	r3, #24
   20df4:	9a02      	ldr	r2, [sp, #8]
   20df6:	df03      	svc	3
   20df8:	2802      	cmp	r0, #2
   20dfa:	d10d      	bne.n	20e18 <_ZN20complex_dynamic_type3app17h2466a01600a572b2E+0x74>
   20dfc:	702e      	strb	r6, [r5, #0]
   20dfe:	6069      	str	r1, [r5, #4]
   20e00:	a816      	add	r0, sp, #88	@ 0x58
   20e02:	7800      	ldrb	r0, [r0, #0]
   20e04:	2802      	cmp	r0, #2
   20e06:	d01a      	beq.n	20e3e <_ZN20complex_dynamic_type3app17h2466a01600a572b2E+0x9a>
   20e08:	2803      	cmp	r0, #3
   20e0a:	d013      	beq.n	20e34 <_ZN20complex_dynamic_type3app17h2466a01600a572b2E+0x90>
   20e0c:	482e      	ldr	r0, [pc, #184]	@ (20ec8 <_ZN20complex_dynamic_type3app17h2466a01600a572b2E+0x124>)
   20e0e:	2109      	movs	r1, #9
   20e10:	2200      	movs	r2, #0
   20e12:	4613      	mov	r3, r2
   20e14:	df04      	svc	4
   20e16:	e012      	b.n	20e3e <_ZN20complex_dynamic_type3app17h2466a01600a572b2E+0x9a>
   20e18:	a816      	add	r0, sp, #88	@ 0x58
   20e1a:	2103      	movs	r1, #3
   20e1c:	7001      	strb	r1, [r0, #0]
   20e1e:	482a      	ldr	r0, [pc, #168]	@ (20ec8 <_ZN20complex_dynamic_type3app17h2466a01600a572b2E+0x124>)
   20e20:	2401      	movs	r4, #1
   20e22:	2209      	movs	r2, #9
   20e24:	2600      	movs	r6, #0
   20e26:	4621      	mov	r1, r4
   20e28:	4633      	mov	r3, r6
   20e2a:	df02      	svc	2
   20e2c:	287f      	cmp	r0, #127	@ 0x7f
   20e2e:	d815      	bhi.n	20e5c <_ZN20complex_dynamic_type3app17h2466a01600a572b2E+0xb8>
   20e30:	702c      	strb	r4, [r5, #0]
   20e32:	6069      	str	r1, [r5, #4]
   20e34:	4824      	ldr	r0, [pc, #144]	@ (20ec8 <_ZN20complex_dynamic_type3app17h2466a01600a572b2E+0x124>)
   20e36:	2109      	movs	r1, #9
   20e38:	2200      	movs	r2, #0
   20e3a:	4613      	mov	r3, r2
   20e3c:	df03      	svc	3
   20e3e:	a805      	add	r0, sp, #20
   20e40:	7804      	ldrb	r4, [r0, #0]
   20e42:	2c02      	cmp	r4, #2
   20e44:	d008      	beq.n	20e58 <_ZN20complex_dynamic_type3app17h2466a01600a572b2E+0xb4>
   20e46:	4820      	ldr	r0, [pc, #128]	@ (20ec8 <_ZN20complex_dynamic_type3app17h2466a01600a572b2E+0x124>)
   20e48:	2101      	movs	r1, #1
   20e4a:	2200      	movs	r2, #0
   20e4c:	4613      	mov	r3, r2
   20e4e:	2c03      	cmp	r4, #3
   20e50:	d101      	bne.n	20e56 <_ZN20complex_dynamic_type3app17h2466a01600a572b2E+0xb2>
   20e52:	df03      	svc	3
   20e54:	e000      	b.n	20e58 <_ZN20complex_dynamic_type3app17h2466a01600a572b2E+0xb4>
   20e56:	df04      	svc	4
   20e58:	b01d      	add	sp, #116	@ 0x74
   20e5a:	bdf0      	pop	{r4, r5, r6, r7, pc}
   20e5c:	a805      	add	r0, sp, #20
   20e5e:	7800      	ldrb	r0, [r0, #0]
   20e60:	2802      	cmp	r0, #2
   20e62:	9c02      	ldr	r4, [sp, #8]
   20e64:	d01c      	beq.n	20ea0 <_ZN20complex_dynamic_type3app17h2466a01600a572b2E+0xfc>
   20e66:	2803      	cmp	r0, #3
   20e68:	d105      	bne.n	20e76 <_ZN20complex_dynamic_type3app17h2466a01600a572b2E+0xd2>
   20e6a:	4817      	ldr	r0, [pc, #92]	@ (20ec8 <_ZN20complex_dynamic_type3app17h2466a01600a572b2E+0x124>)
   20e6c:	2101      	movs	r1, #1
   20e6e:	2200      	movs	r2, #0
   20e70:	4613      	mov	r3, r2
   20e72:	df03      	svc	3
   20e74:	e004      	b.n	20e80 <_ZN20complex_dynamic_type3app17h2466a01600a572b2E+0xdc>
   20e76:	4814      	ldr	r0, [pc, #80]	@ (20ec8 <_ZN20complex_dynamic_type3app17h2466a01600a572b2E+0x124>)
   20e78:	2101      	movs	r1, #1
   20e7a:	2200      	movs	r2, #0
   20e7c:	4613      	mov	r3, r2
   20e7e:	df04      	svc	4
   20e80:	a805      	add	r0, sp, #20
   20e82:	9901      	ldr	r1, [sp, #4]
   20e84:	7001      	strb	r1, [r0, #0]
   20e86:	a816      	add	r0, sp, #88	@ 0x58
   20e88:	7800      	ldrb	r0, [r0, #0]
   20e8a:	2803      	cmp	r0, #3
   20e8c:	d008      	beq.n	20ea0 <_ZN20complex_dynamic_type3app17h2466a01600a572b2E+0xfc>
   20e8e:	2802      	cmp	r0, #2
   20e90:	d10c      	bne.n	20eac <_ZN20complex_dynamic_type3app17h2466a01600a572b2E+0x108>
   20e92:	1c68      	adds	r0, r5, #1
   20e94:	2218      	movs	r2, #24
   20e96:	4621      	mov	r1, r4
   20e98:	f009 fb70 	bl	2a57c <__aeabi_memcpy>
   20e9c:	702e      	strb	r6, [r5, #0]
   20e9e:	e7db      	b.n	20e58 <_ZN20complex_dynamic_type3app17h2466a01600a572b2E+0xb4>
   20ea0:	4809      	ldr	r0, [pc, #36]	@ (20ec8 <_ZN20complex_dynamic_type3app17h2466a01600a572b2E+0x124>)
   20ea2:	2109      	movs	r1, #9
   20ea4:	2200      	movs	r2, #0
   20ea6:	4613      	mov	r3, r2
   20ea8:	df03      	svc	3
   20eaa:	e004      	b.n	20eb6 <_ZN20complex_dynamic_type3app17h2466a01600a572b2E+0x112>
   20eac:	4806      	ldr	r0, [pc, #24]	@ (20ec8 <_ZN20complex_dynamic_type3app17h2466a01600a572b2E+0x124>)
   20eae:	2109      	movs	r1, #9
   20eb0:	2200      	movs	r2, #0
   20eb2:	4613      	mov	r3, r2
   20eb4:	df04      	svc	4
   20eb6:	a805      	add	r0, sp, #20
   20eb8:	7804      	ldrb	r4, [r0, #0]
   20eba:	1c68      	adds	r0, r5, #1
   20ebc:	2218      	movs	r2, #24
   20ebe:	9902      	ldr	r1, [sp, #8]
   20ec0:	f009 fb5c 	bl	2a57c <__aeabi_memcpy>
   20ec4:	702e      	strb	r6, [r5, #0]
   20ec6:	e7bc      	b.n	20e42 <_ZN20complex_dynamic_type3app17h2466a01600a572b2E+0x9e>
   20ec8:	00002156 	.word	0x00002156

00020ecc <_ZN20complex_dynamic_type3app17h255dadcd05bc2f29E>:
   20ecc:	b5f0      	push	{r4, r5, r6, r7, lr}
   20ece:	af03      	add	r7, sp, #12
   20ed0:	b099      	sub	sp, #100	@ 0x64
   20ed2:	9003      	str	r0, [sp, #12]
   20ed4:	a804      	add	r0, sp, #16
   20ed6:	2402      	movs	r4, #2
   20ed8:	7004      	strb	r4, [r0, #0]
   20eda:	1c46      	adds	r6, r0, #1
   20edc:	2225      	movs	r2, #37	@ 0x25
   20ede:	9202      	str	r2, [sp, #8]
   20ee0:	4630      	mov	r0, r6
   20ee2:	f009 fb4b 	bl	2a57c <__aeabi_memcpy>
   20ee6:	ad0e      	add	r5, sp, #56	@ 0x38
   20ee8:	1c68      	adds	r0, r5, #1
   20eea:	212a      	movs	r1, #42	@ 0x2a
   20eec:	9001      	str	r0, [sp, #4]
   20eee:	f009 f985 	bl	2a1fc <__aeabi_memclr>
   20ef2:	9400      	str	r4, [sp, #0]
   20ef4:	702c      	strb	r4, [r5, #0]
   20ef6:	483e      	ldr	r0, [pc, #248]	@ (20ff0 <_ZN20complex_dynamic_type3app17h255dadcd05bc2f29E+0x124>)
   20ef8:	2100      	movs	r1, #0
   20efa:	4632      	mov	r2, r6
   20efc:	9b02      	ldr	r3, [sp, #8]
   20efe:	df04      	svc	4
   20f00:	2802      	cmp	r0, #2
   20f02:	d104      	bne.n	20f0e <_ZN20complex_dynamic_type3app17h255dadcd05bc2f29E+0x42>
   20f04:	2001      	movs	r0, #1
   20f06:	9a03      	ldr	r2, [sp, #12]
   20f08:	7010      	strb	r0, [r2, #0]
   20f0a:	6051      	str	r1, [r2, #4]
   20f0c:	e02c      	b.n	20f68 <_ZN20complex_dynamic_type3app17h255dadcd05bc2f29E+0x9c>
   20f0e:	9d03      	ldr	r5, [sp, #12]
   20f10:	a804      	add	r0, sp, #16
   20f12:	2104      	movs	r1, #4
   20f14:	7001      	strb	r1, [r0, #0]
   20f16:	4836      	ldr	r0, [pc, #216]	@ (20ff0 <_ZN20complex_dynamic_type3app17h255dadcd05bc2f29E+0x124>)
   20f18:	2403      	movs	r4, #3
   20f1a:	232a      	movs	r3, #42	@ 0x2a
   20f1c:	4621      	mov	r1, r4
   20f1e:	9a01      	ldr	r2, [sp, #4]
   20f20:	df03      	svc	3
   20f22:	2802      	cmp	r0, #2
   20f24:	d10e      	bne.n	20f44 <_ZN20complex_dynamic_type3app17h255dadcd05bc2f29E+0x78>
   20f26:	2001      	movs	r0, #1
   20f28:	7028      	strb	r0, [r5, #0]
   20f2a:	6069      	str	r1, [r5, #4]
   20f2c:	a80e      	add	r0, sp, #56	@ 0x38
   20f2e:	7800      	ldrb	r0, [r0, #0]
   20f30:	2802      	cmp	r0, #2
   20f32:	d019      	beq.n	20f68 <_ZN20complex_dynamic_type3app17h255dadcd05bc2f29E+0x9c>
   20f34:	2803      	cmp	r0, #3
   20f36:	d012      	beq.n	20f5e <_ZN20complex_dynamic_type3app17h255dadcd05bc2f29E+0x92>
   20f38:	482d      	ldr	r0, [pc, #180]	@ (20ff0 <_ZN20complex_dynamic_type3app17h255dadcd05bc2f29E+0x124>)
   20f3a:	2103      	movs	r1, #3
   20f3c:	2200      	movs	r2, #0
   20f3e:	4613      	mov	r3, r2
   20f40:	df04      	svc	4
   20f42:	e011      	b.n	20f68 <_ZN20complex_dynamic_type3app17h255dadcd05bc2f29E+0x9c>
   20f44:	a80e      	add	r0, sp, #56	@ 0x38
   20f46:	7004      	strb	r4, [r0, #0]
   20f48:	4829      	ldr	r0, [pc, #164]	@ (20ff0 <_ZN20complex_dynamic_type3app17h255dadcd05bc2f29E+0x124>)
   20f4a:	2600      	movs	r6, #0
   20f4c:	4631      	mov	r1, r6
   20f4e:	4622      	mov	r2, r4
   20f50:	4633      	mov	r3, r6
   20f52:	df02      	svc	2
   20f54:	287f      	cmp	r0, #127	@ 0x7f
   20f56:	d816      	bhi.n	20f86 <_ZN20complex_dynamic_type3app17h255dadcd05bc2f29E+0xba>
   20f58:	2001      	movs	r0, #1
   20f5a:	7028      	strb	r0, [r5, #0]
   20f5c:	6069      	str	r1, [r5, #4]
   20f5e:	4824      	ldr	r0, [pc, #144]	@ (20ff0 <_ZN20complex_dynamic_type3app17h255dadcd05bc2f29E+0x124>)
   20f60:	2103      	movs	r1, #3
   20f62:	2200      	movs	r2, #0
   20f64:	4613      	mov	r3, r2
   20f66:	df03      	svc	3
   20f68:	a804      	add	r0, sp, #16
   20f6a:	7804      	ldrb	r4, [r0, #0]
   20f6c:	2c02      	cmp	r4, #2
   20f6e:	d008      	beq.n	20f82 <_ZN20complex_dynamic_type3app17h255dadcd05bc2f29E+0xb6>
   20f70:	481f      	ldr	r0, [pc, #124]	@ (20ff0 <_ZN20complex_dynamic_type3app17h255dadcd05bc2f29E+0x124>)
   20f72:	2100      	movs	r1, #0
   20f74:	460a      	mov	r2, r1
   20f76:	460b      	mov	r3, r1
   20f78:	2c03      	cmp	r4, #3
   20f7a:	d101      	bne.n	20f80 <_ZN20complex_dynamic_type3app17h255dadcd05bc2f29E+0xb4>
   20f7c:	df03      	svc	3
   20f7e:	e000      	b.n	20f82 <_ZN20complex_dynamic_type3app17h255dadcd05bc2f29E+0xb6>
   20f80:	df04      	svc	4
   20f82:	b019      	add	sp, #100	@ 0x64
   20f84:	bdf0      	pop	{r4, r5, r6, r7, pc}
   20f86:	a804      	add	r0, sp, #16
   20f88:	7800      	ldrb	r0, [r0, #0]
   20f8a:	2802      	cmp	r0, #2
   20f8c:	d01c      	beq.n	20fc8 <_ZN20complex_dynamic_type3app17h255dadcd05bc2f29E+0xfc>
   20f8e:	2803      	cmp	r0, #3
   20f90:	d105      	bne.n	20f9e <_ZN20complex_dynamic_type3app17h255dadcd05bc2f29E+0xd2>
   20f92:	4817      	ldr	r0, [pc, #92]	@ (20ff0 <_ZN20complex_dynamic_type3app17h255dadcd05bc2f29E+0x124>)
   20f94:	2100      	movs	r1, #0
   20f96:	460a      	mov	r2, r1
   20f98:	460b      	mov	r3, r1
   20f9a:	df03      	svc	3
   20f9c:	e004      	b.n	20fa8 <_ZN20complex_dynamic_type3app17h255dadcd05bc2f29E+0xdc>
   20f9e:	4814      	ldr	r0, [pc, #80]	@ (20ff0 <_ZN20complex_dynamic_type3app17h255dadcd05bc2f29E+0x124>)
   20fa0:	2100      	movs	r1, #0
   20fa2:	460a      	mov	r2, r1
   20fa4:	460b      	mov	r3, r1
   20fa6:	df04      	svc	4
   20fa8:	9900      	ldr	r1, [sp, #0]
   20faa:	a804      	add	r0, sp, #16
   20fac:	7001      	strb	r1, [r0, #0]
   20fae:	a80e      	add	r0, sp, #56	@ 0x38
   20fb0:	7800      	ldrb	r0, [r0, #0]
   20fb2:	2803      	cmp	r0, #3
   20fb4:	d008      	beq.n	20fc8 <_ZN20complex_dynamic_type3app17h255dadcd05bc2f29E+0xfc>
   20fb6:	2802      	cmp	r0, #2
   20fb8:	d10c      	bne.n	20fd4 <_ZN20complex_dynamic_type3app17h255dadcd05bc2f29E+0x108>
   20fba:	1c68      	adds	r0, r5, #1
   20fbc:	222a      	movs	r2, #42	@ 0x2a
   20fbe:	9901      	ldr	r1, [sp, #4]
   20fc0:	f009 fadc 	bl	2a57c <__aeabi_memcpy>
   20fc4:	702e      	strb	r6, [r5, #0]
   20fc6:	e7dc      	b.n	20f82 <_ZN20complex_dynamic_type3app17h255dadcd05bc2f29E+0xb6>
   20fc8:	4809      	ldr	r0, [pc, #36]	@ (20ff0 <_ZN20complex_dynamic_type3app17h255dadcd05bc2f29E+0x124>)
   20fca:	2103      	movs	r1, #3
   20fcc:	2200      	movs	r2, #0
   20fce:	4613      	mov	r3, r2
   20fd0:	df03      	svc	3
   20fd2:	e004      	b.n	20fde <_ZN20complex_dynamic_type3app17h255dadcd05bc2f29E+0x112>
   20fd4:	4806      	ldr	r0, [pc, #24]	@ (20ff0 <_ZN20complex_dynamic_type3app17h255dadcd05bc2f29E+0x124>)
   20fd6:	2103      	movs	r1, #3
   20fd8:	2200      	movs	r2, #0
   20fda:	4613      	mov	r3, r2
   20fdc:	df04      	svc	4
   20fde:	a804      	add	r0, sp, #16
   20fe0:	7804      	ldrb	r4, [r0, #0]
   20fe2:	1c68      	adds	r0, r5, #1
   20fe4:	222a      	movs	r2, #42	@ 0x2a
   20fe6:	9901      	ldr	r1, [sp, #4]
   20fe8:	f009 fac8 	bl	2a57c <__aeabi_memcpy>
   20fec:	702e      	strb	r6, [r5, #0]
   20fee:	e7bd      	b.n	20f6c <_ZN20complex_dynamic_type3app17h255dadcd05bc2f29E+0xa0>
   20ff0:	0000093c 	.word	0x0000093c

00020ff4 <_ZN20complex_dynamic_type3app17h274e3a8dcfe6e346E>:
   20ff4:	b5f0      	push	{r4, r5, r6, r7, lr}
   20ff6:	af03      	add	r7, sp, #12
   20ff8:	b09b      	sub	sp, #108	@ 0x6c
   20ffa:	9004      	str	r0, [sp, #16]
   20ffc:	a805      	add	r0, sp, #20
   20ffe:	2402      	movs	r4, #2
   21000:	7004      	strb	r4, [r0, #0]
   21002:	1c46      	adds	r6, r0, #1
   21004:	222a      	movs	r2, #42	@ 0x2a
   21006:	9203      	str	r2, [sp, #12]
   21008:	4630      	mov	r0, r6
   2100a:	f009 fab7 	bl	2a57c <__aeabi_memcpy>
   2100e:	ad10      	add	r5, sp, #64	@ 0x40
   21010:	1c68      	adds	r0, r5, #1
   21012:	2128      	movs	r1, #40	@ 0x28
   21014:	9002      	str	r0, [sp, #8]
   21016:	f009 f8f1 	bl	2a1fc <__aeabi_memclr>
   2101a:	9401      	str	r4, [sp, #4]
   2101c:	702c      	strb	r4, [r5, #0]
   2101e:	483f      	ldr	r0, [pc, #252]	@ (2111c <_ZN20complex_dynamic_type3app17h274e3a8dcfe6e346E+0x128>)
   21020:	2504      	movs	r5, #4
   21022:	4629      	mov	r1, r5
   21024:	4632      	mov	r2, r6
   21026:	9b03      	ldr	r3, [sp, #12]
   21028:	df04      	svc	4
   2102a:	2802      	cmp	r0, #2
   2102c:	d104      	bne.n	21038 <_ZN20complex_dynamic_type3app17h274e3a8dcfe6e346E+0x44>
   2102e:	2001      	movs	r0, #1
   21030:	9a04      	ldr	r2, [sp, #16]
   21032:	7010      	strb	r0, [r2, #0]
   21034:	6051      	str	r1, [r2, #4]
   21036:	e02c      	b.n	21092 <_ZN20complex_dynamic_type3app17h274e3a8dcfe6e346E+0x9e>
   21038:	9c04      	ldr	r4, [sp, #16]
   2103a:	a805      	add	r0, sp, #20
   2103c:	7005      	strb	r5, [r0, #0]
   2103e:	4837      	ldr	r0, [pc, #220]	@ (2111c <_ZN20complex_dynamic_type3app17h274e3a8dcfe6e346E+0x128>)
   21040:	2108      	movs	r1, #8
   21042:	2328      	movs	r3, #40	@ 0x28
   21044:	9a02      	ldr	r2, [sp, #8]
   21046:	df03      	svc	3
   21048:	2802      	cmp	r0, #2
   2104a:	d10e      	bne.n	2106a <_ZN20complex_dynamic_type3app17h274e3a8dcfe6e346E+0x76>
   2104c:	2001      	movs	r0, #1
   2104e:	7020      	strb	r0, [r4, #0]
   21050:	6061      	str	r1, [r4, #4]
   21052:	a810      	add	r0, sp, #64	@ 0x40
   21054:	7800      	ldrb	r0, [r0, #0]
   21056:	2802      	cmp	r0, #2
   21058:	d01b      	beq.n	21092 <_ZN20complex_dynamic_type3app17h274e3a8dcfe6e346E+0x9e>
   2105a:	2803      	cmp	r0, #3
   2105c:	d014      	beq.n	21088 <_ZN20complex_dynamic_type3app17h274e3a8dcfe6e346E+0x94>
   2105e:	482f      	ldr	r0, [pc, #188]	@ (2111c <_ZN20complex_dynamic_type3app17h274e3a8dcfe6e346E+0x128>)
   21060:	2108      	movs	r1, #8
   21062:	2200      	movs	r2, #0
   21064:	4613      	mov	r3, r2
   21066:	df04      	svc	4
   21068:	e013      	b.n	21092 <_ZN20complex_dynamic_type3app17h274e3a8dcfe6e346E+0x9e>
   2106a:	a810      	add	r0, sp, #64	@ 0x40
   2106c:	2103      	movs	r1, #3
   2106e:	7001      	strb	r1, [r0, #0]
   21070:	482a      	ldr	r0, [pc, #168]	@ (2111c <_ZN20complex_dynamic_type3app17h274e3a8dcfe6e346E+0x128>)
   21072:	2104      	movs	r1, #4
   21074:	2208      	movs	r2, #8
   21076:	2600      	movs	r6, #0
   21078:	4633      	mov	r3, r6
   2107a:	df02      	svc	2
   2107c:	287f      	cmp	r0, #127	@ 0x7f
   2107e:	4625      	mov	r5, r4
   21080:	d816      	bhi.n	210b0 <_ZN20complex_dynamic_type3app17h274e3a8dcfe6e346E+0xbc>
   21082:	2001      	movs	r0, #1
   21084:	7028      	strb	r0, [r5, #0]
   21086:	6069      	str	r1, [r5, #4]
   21088:	4824      	ldr	r0, [pc, #144]	@ (2111c <_ZN20complex_dynamic_type3app17h274e3a8dcfe6e346E+0x128>)
   2108a:	2108      	movs	r1, #8
   2108c:	2200      	movs	r2, #0
   2108e:	4613      	mov	r3, r2
   21090:	df03      	svc	3
   21092:	a805      	add	r0, sp, #20
   21094:	7804      	ldrb	r4, [r0, #0]
   21096:	2c02      	cmp	r4, #2
   21098:	d008      	beq.n	210ac <_ZN20complex_dynamic_type3app17h274e3a8dcfe6e346E+0xb8>
   2109a:	4820      	ldr	r0, [pc, #128]	@ (2111c <_ZN20complex_dynamic_type3app17h274e3a8dcfe6e346E+0x128>)
   2109c:	2104      	movs	r1, #4
   2109e:	2200      	movs	r2, #0
   210a0:	4613      	mov	r3, r2
   210a2:	2c03      	cmp	r4, #3
   210a4:	d101      	bne.n	210aa <_ZN20complex_dynamic_type3app17h274e3a8dcfe6e346E+0xb6>
   210a6:	df03      	svc	3
   210a8:	e000      	b.n	210ac <_ZN20complex_dynamic_type3app17h274e3a8dcfe6e346E+0xb8>
   210aa:	df04      	svc	4
   210ac:	b01b      	add	sp, #108	@ 0x6c
   210ae:	bdf0      	pop	{r4, r5, r6, r7, pc}
   210b0:	a805      	add	r0, sp, #20
   210b2:	7800      	ldrb	r0, [r0, #0]
   210b4:	2802      	cmp	r0, #2
   210b6:	d01c      	beq.n	210f2 <_ZN20complex_dynamic_type3app17h274e3a8dcfe6e346E+0xfe>
   210b8:	2803      	cmp	r0, #3
   210ba:	d105      	bne.n	210c8 <_ZN20complex_dynamic_type3app17h274e3a8dcfe6e346E+0xd4>
   210bc:	4817      	ldr	r0, [pc, #92]	@ (2111c <_ZN20complex_dynamic_type3app17h274e3a8dcfe6e346E+0x128>)
   210be:	2104      	movs	r1, #4
   210c0:	2200      	movs	r2, #0
   210c2:	4613      	mov	r3, r2
   210c4:	df03      	svc	3
   210c6:	e004      	b.n	210d2 <_ZN20complex_dynamic_type3app17h274e3a8dcfe6e346E+0xde>
   210c8:	4814      	ldr	r0, [pc, #80]	@ (2111c <_ZN20complex_dynamic_type3app17h274e3a8dcfe6e346E+0x128>)
   210ca:	2104      	movs	r1, #4
   210cc:	2200      	movs	r2, #0
   210ce:	4613      	mov	r3, r2
   210d0:	df04      	svc	4
   210d2:	9901      	ldr	r1, [sp, #4]
   210d4:	a805      	add	r0, sp, #20
   210d6:	7001      	strb	r1, [r0, #0]
   210d8:	a810      	add	r0, sp, #64	@ 0x40
   210da:	7800      	ldrb	r0, [r0, #0]
   210dc:	2803      	cmp	r0, #3
   210de:	d008      	beq.n	210f2 <_ZN20complex_dynamic_type3app17h274e3a8dcfe6e346E+0xfe>
   210e0:	2802      	cmp	r0, #2
   210e2:	d10c      	bne.n	210fe <_ZN20complex_dynamic_type3app17h274e3a8dcfe6e346E+0x10a>
   210e4:	1c68      	adds	r0, r5, #1
   210e6:	2228      	movs	r2, #40	@ 0x28
   210e8:	9902      	ldr	r1, [sp, #8]
   210ea:	f009 fa47 	bl	2a57c <__aeabi_memcpy>
   210ee:	702e      	strb	r6, [r5, #0]
   210f0:	e7dc      	b.n	210ac <_ZN20complex_dynamic_type3app17h274e3a8dcfe6e346E+0xb8>
   210f2:	480a      	ldr	r0, [pc, #40]	@ (2111c <_ZN20complex_dynamic_type3app17h274e3a8dcfe6e346E+0x128>)
   210f4:	2108      	movs	r1, #8
   210f6:	2200      	movs	r2, #0
   210f8:	4613      	mov	r3, r2
   210fa:	df03      	svc	3
   210fc:	e004      	b.n	21108 <_ZN20complex_dynamic_type3app17h274e3a8dcfe6e346E+0x114>
   210fe:	4807      	ldr	r0, [pc, #28]	@ (2111c <_ZN20complex_dynamic_type3app17h274e3a8dcfe6e346E+0x128>)
   21100:	2108      	movs	r1, #8
   21102:	2200      	movs	r2, #0
   21104:	4613      	mov	r3, r2
   21106:	df04      	svc	4
   21108:	a805      	add	r0, sp, #20
   2110a:	7804      	ldrb	r4, [r0, #0]
   2110c:	1c68      	adds	r0, r5, #1
   2110e:	2228      	movs	r2, #40	@ 0x28
   21110:	9902      	ldr	r1, [sp, #8]
   21112:	f009 fa33 	bl	2a57c <__aeabi_memcpy>
   21116:	702e      	strb	r6, [r5, #0]
   21118:	e7bd      	b.n	21096 <_ZN20complex_dynamic_type3app17h274e3a8dcfe6e346E+0xa2>
   2111a:	46c0      	nop			@ (mov r8, r8)
   2111c:	00001efa 	.word	0x00001efa

00021120 <_ZN20complex_dynamic_type3app17h2999883e6c16a12cE>:
   21120:	b5f0      	push	{r4, r5, r6, r7, lr}
   21122:	af03      	add	r7, sp, #12
   21124:	b0ad      	sub	sp, #180	@ 0xb4
   21126:	9003      	str	r0, [sp, #12]
   21128:	a804      	add	r0, sp, #16
   2112a:	2402      	movs	r4, #2
   2112c:	7004      	strb	r4, [r0, #0]
   2112e:	1c46      	adds	r6, r0, #1
   21130:	225d      	movs	r2, #93	@ 0x5d
   21132:	9202      	str	r2, [sp, #8]
   21134:	4630      	mov	r0, r6
   21136:	f009 fa21 	bl	2a57c <__aeabi_memcpy>
   2113a:	ad1c      	add	r5, sp, #112	@ 0x70
   2113c:	1c68      	adds	r0, r5, #1
   2113e:	2140      	movs	r1, #64	@ 0x40
   21140:	9001      	str	r0, [sp, #4]
   21142:	f009 f85b 	bl	2a1fc <__aeabi_memclr>
   21146:	9400      	str	r4, [sp, #0]
   21148:	702c      	strb	r4, [r5, #0]
   2114a:	483e      	ldr	r0, [pc, #248]	@ (21244 <_ZN20complex_dynamic_type3app17h2999883e6c16a12cE+0x124>)
   2114c:	2108      	movs	r1, #8
   2114e:	4632      	mov	r2, r6
   21150:	9b02      	ldr	r3, [sp, #8]
   21152:	df04      	svc	4
   21154:	2802      	cmp	r0, #2
   21156:	d104      	bne.n	21162 <_ZN20complex_dynamic_type3app17h2999883e6c16a12cE+0x42>
   21158:	2001      	movs	r0, #1
   2115a:	9a03      	ldr	r2, [sp, #12]
   2115c:	7010      	strb	r0, [r2, #0]
   2115e:	6051      	str	r1, [r2, #4]
   21160:	e02c      	b.n	211bc <_ZN20complex_dynamic_type3app17h2999883e6c16a12cE+0x9c>
   21162:	9d03      	ldr	r5, [sp, #12]
   21164:	a804      	add	r0, sp, #16
   21166:	2104      	movs	r1, #4
   21168:	7001      	strb	r1, [r0, #0]
   2116a:	4836      	ldr	r0, [pc, #216]	@ (21244 <_ZN20complex_dynamic_type3app17h2999883e6c16a12cE+0x124>)
   2116c:	2340      	movs	r3, #64	@ 0x40
   2116e:	9c01      	ldr	r4, [sp, #4]
   21170:	4622      	mov	r2, r4
   21172:	df03      	svc	3
   21174:	2802      	cmp	r0, #2
   21176:	d10e      	bne.n	21196 <_ZN20complex_dynamic_type3app17h2999883e6c16a12cE+0x76>
   21178:	2001      	movs	r0, #1
   2117a:	7028      	strb	r0, [r5, #0]
   2117c:	6069      	str	r1, [r5, #4]
   2117e:	a81c      	add	r0, sp, #112	@ 0x70
   21180:	7800      	ldrb	r0, [r0, #0]
   21182:	2802      	cmp	r0, #2
   21184:	d01a      	beq.n	211bc <_ZN20complex_dynamic_type3app17h2999883e6c16a12cE+0x9c>
   21186:	2803      	cmp	r0, #3
   21188:	d013      	beq.n	211b2 <_ZN20complex_dynamic_type3app17h2999883e6c16a12cE+0x92>
   2118a:	482e      	ldr	r0, [pc, #184]	@ (21244 <_ZN20complex_dynamic_type3app17h2999883e6c16a12cE+0x124>)
   2118c:	2104      	movs	r1, #4
   2118e:	2200      	movs	r2, #0
   21190:	4613      	mov	r3, r2
   21192:	df04      	svc	4
   21194:	e012      	b.n	211bc <_ZN20complex_dynamic_type3app17h2999883e6c16a12cE+0x9c>
   21196:	a81c      	add	r0, sp, #112	@ 0x70
   21198:	2103      	movs	r1, #3
   2119a:	7001      	strb	r1, [r0, #0]
   2119c:	4829      	ldr	r0, [pc, #164]	@ (21244 <_ZN20complex_dynamic_type3app17h2999883e6c16a12cE+0x124>)
   2119e:	2108      	movs	r1, #8
   211a0:	2204      	movs	r2, #4
   211a2:	2600      	movs	r6, #0
   211a4:	4633      	mov	r3, r6
   211a6:	df02      	svc	2
   211a8:	287f      	cmp	r0, #127	@ 0x7f
   211aa:	d816      	bhi.n	211da <_ZN20complex_dynamic_type3app17h2999883e6c16a12cE+0xba>
   211ac:	2001      	movs	r0, #1
   211ae:	7028      	strb	r0, [r5, #0]
   211b0:	6069      	str	r1, [r5, #4]
   211b2:	4824      	ldr	r0, [pc, #144]	@ (21244 <_ZN20complex_dynamic_type3app17h2999883e6c16a12cE+0x124>)
   211b4:	2104      	movs	r1, #4
   211b6:	2200      	movs	r2, #0
   211b8:	4613      	mov	r3, r2
   211ba:	df03      	svc	3
   211bc:	a804      	add	r0, sp, #16
   211be:	7804      	ldrb	r4, [r0, #0]
   211c0:	2c02      	cmp	r4, #2
   211c2:	d008      	beq.n	211d6 <_ZN20complex_dynamic_type3app17h2999883e6c16a12cE+0xb6>
   211c4:	481f      	ldr	r0, [pc, #124]	@ (21244 <_ZN20complex_dynamic_type3app17h2999883e6c16a12cE+0x124>)
   211c6:	2108      	movs	r1, #8
   211c8:	2200      	movs	r2, #0
   211ca:	4613      	mov	r3, r2
   211cc:	2c03      	cmp	r4, #3
   211ce:	d101      	bne.n	211d4 <_ZN20complex_dynamic_type3app17h2999883e6c16a12cE+0xb4>
   211d0:	df03      	svc	3
   211d2:	e000      	b.n	211d6 <_ZN20complex_dynamic_type3app17h2999883e6c16a12cE+0xb6>
   211d4:	df04      	svc	4
   211d6:	b02d      	add	sp, #180	@ 0xb4
   211d8:	bdf0      	pop	{r4, r5, r6, r7, pc}
   211da:	a804      	add	r0, sp, #16
   211dc:	7800      	ldrb	r0, [r0, #0]
   211de:	2802      	cmp	r0, #2
   211e0:	d01c      	beq.n	2121c <_ZN20complex_dynamic_type3app17h2999883e6c16a12cE+0xfc>
   211e2:	2803      	cmp	r0, #3
   211e4:	d105      	bne.n	211f2 <_ZN20complex_dynamic_type3app17h2999883e6c16a12cE+0xd2>
   211e6:	4817      	ldr	r0, [pc, #92]	@ (21244 <_ZN20complex_dynamic_type3app17h2999883e6c16a12cE+0x124>)
   211e8:	2108      	movs	r1, #8
   211ea:	2200      	movs	r2, #0
   211ec:	4613      	mov	r3, r2
   211ee:	df03      	svc	3
   211f0:	e004      	b.n	211fc <_ZN20complex_dynamic_type3app17h2999883e6c16a12cE+0xdc>
   211f2:	4814      	ldr	r0, [pc, #80]	@ (21244 <_ZN20complex_dynamic_type3app17h2999883e6c16a12cE+0x124>)
   211f4:	2108      	movs	r1, #8
   211f6:	2200      	movs	r2, #0
   211f8:	4613      	mov	r3, r2
   211fa:	df04      	svc	4
   211fc:	a804      	add	r0, sp, #16
   211fe:	9900      	ldr	r1, [sp, #0]
   21200:	7001      	strb	r1, [r0, #0]
   21202:	a81c      	add	r0, sp, #112	@ 0x70
   21204:	7800      	ldrb	r0, [r0, #0]
   21206:	2803      	cmp	r0, #3
   21208:	d008      	beq.n	2121c <_ZN20complex_dynamic_type3app17h2999883e6c16a12cE+0xfc>
   2120a:	2802      	cmp	r0, #2
   2120c:	d10c      	bne.n	21228 <_ZN20complex_dynamic_type3app17h2999883e6c16a12cE+0x108>
   2120e:	1c68      	adds	r0, r5, #1
   21210:	2240      	movs	r2, #64	@ 0x40
   21212:	4621      	mov	r1, r4
   21214:	f009 f9b2 	bl	2a57c <__aeabi_memcpy>
   21218:	702e      	strb	r6, [r5, #0]
   2121a:	e7dc      	b.n	211d6 <_ZN20complex_dynamic_type3app17h2999883e6c16a12cE+0xb6>
   2121c:	4809      	ldr	r0, [pc, #36]	@ (21244 <_ZN20complex_dynamic_type3app17h2999883e6c16a12cE+0x124>)
   2121e:	2104      	movs	r1, #4
   21220:	2200      	movs	r2, #0
   21222:	4613      	mov	r3, r2
   21224:	df03      	svc	3
   21226:	e004      	b.n	21232 <_ZN20complex_dynamic_type3app17h2999883e6c16a12cE+0x112>
   21228:	4806      	ldr	r0, [pc, #24]	@ (21244 <_ZN20complex_dynamic_type3app17h2999883e6c16a12cE+0x124>)
   2122a:	2104      	movs	r1, #4
   2122c:	2200      	movs	r2, #0
   2122e:	4613      	mov	r3, r2
   21230:	df04      	svc	4
   21232:	a804      	add	r0, sp, #16
   21234:	7804      	ldrb	r4, [r0, #0]
   21236:	1c68      	adds	r0, r5, #1
   21238:	2240      	movs	r2, #64	@ 0x40
   2123a:	9901      	ldr	r1, [sp, #4]
   2123c:	f009 f99e 	bl	2a57c <__aeabi_memcpy>
   21240:	702e      	strb	r6, [r5, #0]
   21242:	e7bd      	b.n	211c0 <_ZN20complex_dynamic_type3app17h2999883e6c16a12cE+0xa0>
   21244:	00001028 	.word	0x00001028

00021248 <_ZN20complex_dynamic_type3app17h2af0944f04798376E>:
   21248:	b5f0      	push	{r4, r5, r6, r7, lr}
   2124a:	af03      	add	r7, sp, #12
   2124c:	b09f      	sub	sp, #124	@ 0x7c
   2124e:	9003      	str	r0, [sp, #12]
   21250:	a804      	add	r0, sp, #16
   21252:	2402      	movs	r4, #2
   21254:	7004      	strb	r4, [r0, #0]
   21256:	1c46      	adds	r6, r0, #1
   21258:	2213      	movs	r2, #19
   2125a:	9202      	str	r2, [sp, #8]
   2125c:	4630      	mov	r0, r6
   2125e:	f009 f98d 	bl	2a57c <__aeabi_memcpy>
   21262:	ad09      	add	r5, sp, #36	@ 0x24
   21264:	1c68      	adds	r0, r5, #1
   21266:	2155      	movs	r1, #85	@ 0x55
   21268:	9001      	str	r0, [sp, #4]
   2126a:	f008 ffc7 	bl	2a1fc <__aeabi_memclr>
   2126e:	9400      	str	r4, [sp, #0]
   21270:	702c      	strb	r4, [r5, #0]
   21272:	483f      	ldr	r0, [pc, #252]	@ (21370 <_ZN20complex_dynamic_type3app17h2af0944f04798376E+0x128>)
   21274:	2109      	movs	r1, #9
   21276:	4632      	mov	r2, r6
   21278:	9b02      	ldr	r3, [sp, #8]
   2127a:	df04      	svc	4
   2127c:	2802      	cmp	r0, #2
   2127e:	d104      	bne.n	2128a <_ZN20complex_dynamic_type3app17h2af0944f04798376E+0x42>
   21280:	2001      	movs	r0, #1
   21282:	9a03      	ldr	r2, [sp, #12]
   21284:	7010      	strb	r0, [r2, #0]
   21286:	6051      	str	r1, [r2, #4]
   21288:	e02d      	b.n	212e6 <_ZN20complex_dynamic_type3app17h2af0944f04798376E+0x9e>
   2128a:	9d03      	ldr	r5, [sp, #12]
   2128c:	a804      	add	r0, sp, #16
   2128e:	2104      	movs	r1, #4
   21290:	7001      	strb	r1, [r0, #0]
   21292:	4837      	ldr	r0, [pc, #220]	@ (21370 <_ZN20complex_dynamic_type3app17h2af0944f04798376E+0x128>)
   21294:	2107      	movs	r1, #7
   21296:	2355      	movs	r3, #85	@ 0x55
   21298:	9c01      	ldr	r4, [sp, #4]
   2129a:	4622      	mov	r2, r4
   2129c:	df03      	svc	3
   2129e:	2802      	cmp	r0, #2
   212a0:	d10e      	bne.n	212c0 <_ZN20complex_dynamic_type3app17h2af0944f04798376E+0x78>
   212a2:	2001      	movs	r0, #1
   212a4:	7028      	strb	r0, [r5, #0]
   212a6:	6069      	str	r1, [r5, #4]
   212a8:	a809      	add	r0, sp, #36	@ 0x24
   212aa:	7800      	ldrb	r0, [r0, #0]
   212ac:	2802      	cmp	r0, #2
   212ae:	d01a      	beq.n	212e6 <_ZN20complex_dynamic_type3app17h2af0944f04798376E+0x9e>
   212b0:	2803      	cmp	r0, #3
   212b2:	d013      	beq.n	212dc <_ZN20complex_dynamic_type3app17h2af0944f04798376E+0x94>
   212b4:	482e      	ldr	r0, [pc, #184]	@ (21370 <_ZN20complex_dynamic_type3app17h2af0944f04798376E+0x128>)
   212b6:	2107      	movs	r1, #7
   212b8:	2200      	movs	r2, #0
   212ba:	4613      	mov	r3, r2
   212bc:	df04      	svc	4
   212be:	e012      	b.n	212e6 <_ZN20complex_dynamic_type3app17h2af0944f04798376E+0x9e>
   212c0:	a809      	add	r0, sp, #36	@ 0x24
   212c2:	2103      	movs	r1, #3
   212c4:	7001      	strb	r1, [r0, #0]
   212c6:	482a      	ldr	r0, [pc, #168]	@ (21370 <_ZN20complex_dynamic_type3app17h2af0944f04798376E+0x128>)
   212c8:	2109      	movs	r1, #9
   212ca:	2207      	movs	r2, #7
   212cc:	2600      	movs	r6, #0
   212ce:	4633      	mov	r3, r6
   212d0:	df02      	svc	2
   212d2:	287f      	cmp	r0, #127	@ 0x7f
   212d4:	d816      	bhi.n	21304 <_ZN20complex_dynamic_type3app17h2af0944f04798376E+0xbc>
   212d6:	2001      	movs	r0, #1
   212d8:	7028      	strb	r0, [r5, #0]
   212da:	6069      	str	r1, [r5, #4]
   212dc:	4824      	ldr	r0, [pc, #144]	@ (21370 <_ZN20complex_dynamic_type3app17h2af0944f04798376E+0x128>)
   212de:	2107      	movs	r1, #7
   212e0:	2200      	movs	r2, #0
   212e2:	4613      	mov	r3, r2
   212e4:	df03      	svc	3
   212e6:	a804      	add	r0, sp, #16
   212e8:	7804      	ldrb	r4, [r0, #0]
   212ea:	2c02      	cmp	r4, #2
   212ec:	d008      	beq.n	21300 <_ZN20complex_dynamic_type3app17h2af0944f04798376E+0xb8>
   212ee:	4820      	ldr	r0, [pc, #128]	@ (21370 <_ZN20complex_dynamic_type3app17h2af0944f04798376E+0x128>)
   212f0:	2109      	movs	r1, #9
   212f2:	2200      	movs	r2, #0
   212f4:	4613      	mov	r3, r2
   212f6:	2c03      	cmp	r4, #3
   212f8:	d101      	bne.n	212fe <_ZN20complex_dynamic_type3app17h2af0944f04798376E+0xb6>
   212fa:	df03      	svc	3
   212fc:	e000      	b.n	21300 <_ZN20complex_dynamic_type3app17h2af0944f04798376E+0xb8>
   212fe:	df04      	svc	4
   21300:	b01f      	add	sp, #124	@ 0x7c
   21302:	bdf0      	pop	{r4, r5, r6, r7, pc}
   21304:	a804      	add	r0, sp, #16
   21306:	7800      	ldrb	r0, [r0, #0]
   21308:	2802      	cmp	r0, #2
   2130a:	d01c      	beq.n	21346 <_ZN20complex_dynamic_type3app17h2af0944f04798376E+0xfe>
   2130c:	2803      	cmp	r0, #3
   2130e:	d105      	bne.n	2131c <_ZN20complex_dynamic_type3app17h2af0944f04798376E+0xd4>
   21310:	4817      	ldr	r0, [pc, #92]	@ (21370 <_ZN20complex_dynamic_type3app17h2af0944f04798376E+0x128>)
   21312:	2109      	movs	r1, #9
   21314:	2200      	movs	r2, #0
   21316:	4613      	mov	r3, r2
   21318:	df03      	svc	3
   2131a:	e004      	b.n	21326 <_ZN20complex_dynamic_type3app17h2af0944f04798376E+0xde>
   2131c:	4814      	ldr	r0, [pc, #80]	@ (21370 <_ZN20complex_dynamic_type3app17h2af0944f04798376E+0x128>)
   2131e:	2109      	movs	r1, #9
   21320:	2200      	movs	r2, #0
   21322:	4613      	mov	r3, r2
   21324:	df04      	svc	4
   21326:	a804      	add	r0, sp, #16
   21328:	9900      	ldr	r1, [sp, #0]
   2132a:	7001      	strb	r1, [r0, #0]
   2132c:	a809      	add	r0, sp, #36	@ 0x24
   2132e:	7800      	ldrb	r0, [r0, #0]
   21330:	2803      	cmp	r0, #3
   21332:	d008      	beq.n	21346 <_ZN20complex_dynamic_type3app17h2af0944f04798376E+0xfe>
   21334:	2802      	cmp	r0, #2
   21336:	d10c      	bne.n	21352 <_ZN20complex_dynamic_type3app17h2af0944f04798376E+0x10a>
   21338:	1c68      	adds	r0, r5, #1
   2133a:	2255      	movs	r2, #85	@ 0x55
   2133c:	4621      	mov	r1, r4
   2133e:	f009 f91d 	bl	2a57c <__aeabi_memcpy>
   21342:	702e      	strb	r6, [r5, #0]
   21344:	e7dc      	b.n	21300 <_ZN20complex_dynamic_type3app17h2af0944f04798376E+0xb8>
   21346:	480a      	ldr	r0, [pc, #40]	@ (21370 <_ZN20complex_dynamic_type3app17h2af0944f04798376E+0x128>)
   21348:	2107      	movs	r1, #7
   2134a:	2200      	movs	r2, #0
   2134c:	4613      	mov	r3, r2
   2134e:	df03      	svc	3
   21350:	e004      	b.n	2135c <_ZN20complex_dynamic_type3app17h2af0944f04798376E+0x114>
   21352:	4807      	ldr	r0, [pc, #28]	@ (21370 <_ZN20complex_dynamic_type3app17h2af0944f04798376E+0x128>)
   21354:	2107      	movs	r1, #7
   21356:	2200      	movs	r2, #0
   21358:	4613      	mov	r3, r2
   2135a:	df04      	svc	4
   2135c:	a804      	add	r0, sp, #16
   2135e:	7804      	ldrb	r4, [r0, #0]
   21360:	1c68      	adds	r0, r5, #1
   21362:	2255      	movs	r2, #85	@ 0x55
   21364:	9901      	ldr	r1, [sp, #4]
   21366:	f009 f909 	bl	2a57c <__aeabi_memcpy>
   2136a:	702e      	strb	r6, [r5, #0]
   2136c:	e7bd      	b.n	212ea <_ZN20complex_dynamic_type3app17h2af0944f04798376E+0xa2>
   2136e:	46c0      	nop			@ (mov r8, r8)
   21370:	0000032e 	.word	0x0000032e

00021374 <_ZN20complex_dynamic_type3app17h2b277d75c4cf29cbE>:
   21374:	b5f0      	push	{r4, r5, r6, r7, lr}
   21376:	af03      	add	r7, sp, #12
   21378:	b0a9      	sub	sp, #164	@ 0xa4
   2137a:	9003      	str	r0, [sp, #12]
   2137c:	a804      	add	r0, sp, #16
   2137e:	2402      	movs	r4, #2
   21380:	7004      	strb	r4, [r0, #0]
   21382:	1c46      	adds	r6, r0, #1
   21384:	2263      	movs	r2, #99	@ 0x63
   21386:	9202      	str	r2, [sp, #8]
   21388:	4630      	mov	r0, r6
   2138a:	f009 f8f7 	bl	2a57c <__aeabi_memcpy>
   2138e:	ad1d      	add	r5, sp, #116	@ 0x74
   21390:	1c68      	adds	r0, r5, #1
   21392:	212c      	movs	r1, #44	@ 0x2c
   21394:	9001      	str	r0, [sp, #4]
   21396:	f008 ff31 	bl	2a1fc <__aeabi_memclr>
   2139a:	9400      	str	r4, [sp, #0]
   2139c:	702c      	strb	r4, [r5, #0]
   2139e:	2018      	movs	r0, #24
   213a0:	2105      	movs	r1, #5
   213a2:	4632      	mov	r2, r6
   213a4:	9b02      	ldr	r3, [sp, #8]
   213a6:	df04      	svc	4
   213a8:	2802      	cmp	r0, #2
   213aa:	d104      	bne.n	213b6 <_ZN20complex_dynamic_type3app17h2b277d75c4cf29cbE+0x42>
   213ac:	2001      	movs	r0, #1
   213ae:	9a03      	ldr	r2, [sp, #12]
   213b0:	7010      	strb	r0, [r2, #0]
   213b2:	6051      	str	r1, [r2, #4]
   213b4:	e02c      	b.n	21410 <_ZN20complex_dynamic_type3app17h2b277d75c4cf29cbE+0x9c>
   213b6:	9d03      	ldr	r5, [sp, #12]
   213b8:	a804      	add	r0, sp, #16
   213ba:	2104      	movs	r1, #4
   213bc:	7001      	strb	r1, [r0, #0]
   213be:	2018      	movs	r0, #24
   213c0:	2403      	movs	r4, #3
   213c2:	232c      	movs	r3, #44	@ 0x2c
   213c4:	4621      	mov	r1, r4
   213c6:	9a01      	ldr	r2, [sp, #4]
   213c8:	df03      	svc	3
   213ca:	2802      	cmp	r0, #2
   213cc:	d10e      	bne.n	213ec <_ZN20complex_dynamic_type3app17h2b277d75c4cf29cbE+0x78>
   213ce:	2001      	movs	r0, #1
   213d0:	7028      	strb	r0, [r5, #0]
   213d2:	6069      	str	r1, [r5, #4]
   213d4:	a81d      	add	r0, sp, #116	@ 0x74
   213d6:	7800      	ldrb	r0, [r0, #0]
   213d8:	2802      	cmp	r0, #2
   213da:	d019      	beq.n	21410 <_ZN20complex_dynamic_type3app17h2b277d75c4cf29cbE+0x9c>
   213dc:	2803      	cmp	r0, #3
   213de:	d012      	beq.n	21406 <_ZN20complex_dynamic_type3app17h2b277d75c4cf29cbE+0x92>
   213e0:	2018      	movs	r0, #24
   213e2:	2103      	movs	r1, #3
   213e4:	2200      	movs	r2, #0
   213e6:	4613      	mov	r3, r2
   213e8:	df04      	svc	4
   213ea:	e011      	b.n	21410 <_ZN20complex_dynamic_type3app17h2b277d75c4cf29cbE+0x9c>
   213ec:	a81d      	add	r0, sp, #116	@ 0x74
   213ee:	7004      	strb	r4, [r0, #0]
   213f0:	2018      	movs	r0, #24
   213f2:	2105      	movs	r1, #5
   213f4:	2600      	movs	r6, #0
   213f6:	4622      	mov	r2, r4
   213f8:	4633      	mov	r3, r6
   213fa:	df02      	svc	2
   213fc:	287f      	cmp	r0, #127	@ 0x7f
   213fe:	d816      	bhi.n	2142e <_ZN20complex_dynamic_type3app17h2b277d75c4cf29cbE+0xba>
   21400:	2001      	movs	r0, #1
   21402:	7028      	strb	r0, [r5, #0]
   21404:	6069      	str	r1, [r5, #4]
   21406:	2018      	movs	r0, #24
   21408:	2103      	movs	r1, #3
   2140a:	2200      	movs	r2, #0
   2140c:	4613      	mov	r3, r2
   2140e:	df03      	svc	3
   21410:	a804      	add	r0, sp, #16
   21412:	7804      	ldrb	r4, [r0, #0]
   21414:	2c02      	cmp	r4, #2
   21416:	d008      	beq.n	2142a <_ZN20complex_dynamic_type3app17h2b277d75c4cf29cbE+0xb6>
   21418:	2018      	movs	r0, #24
   2141a:	2105      	movs	r1, #5
   2141c:	2200      	movs	r2, #0
   2141e:	4613      	mov	r3, r2
   21420:	2c03      	cmp	r4, #3
   21422:	d101      	bne.n	21428 <_ZN20complex_dynamic_type3app17h2b277d75c4cf29cbE+0xb4>
   21424:	df03      	svc	3
   21426:	e000      	b.n	2142a <_ZN20complex_dynamic_type3app17h2b277d75c4cf29cbE+0xb6>
   21428:	df04      	svc	4
   2142a:	b029      	add	sp, #164	@ 0xa4
   2142c:	bdf0      	pop	{r4, r5, r6, r7, pc}
   2142e:	a804      	add	r0, sp, #16
   21430:	7800      	ldrb	r0, [r0, #0]
   21432:	2802      	cmp	r0, #2
   21434:	d01c      	beq.n	21470 <_ZN20complex_dynamic_type3app17h2b277d75c4cf29cbE+0xfc>
   21436:	2803      	cmp	r0, #3
   21438:	d105      	bne.n	21446 <_ZN20complex_dynamic_type3app17h2b277d75c4cf29cbE+0xd2>
   2143a:	2018      	movs	r0, #24
   2143c:	2105      	movs	r1, #5
   2143e:	2200      	movs	r2, #0
   21440:	4613      	mov	r3, r2
   21442:	df03      	svc	3
   21444:	e004      	b.n	21450 <_ZN20complex_dynamic_type3app17h2b277d75c4cf29cbE+0xdc>
   21446:	2018      	movs	r0, #24
   21448:	2105      	movs	r1, #5
   2144a:	2200      	movs	r2, #0
   2144c:	4613      	mov	r3, r2
   2144e:	df04      	svc	4
   21450:	9900      	ldr	r1, [sp, #0]
   21452:	a804      	add	r0, sp, #16
   21454:	7001      	strb	r1, [r0, #0]
   21456:	a81d      	add	r0, sp, #116	@ 0x74
   21458:	7800      	ldrb	r0, [r0, #0]
   2145a:	2803      	cmp	r0, #3
   2145c:	d008      	beq.n	21470 <_ZN20complex_dynamic_type3app17h2b277d75c4cf29cbE+0xfc>
   2145e:	2802      	cmp	r0, #2
   21460:	d10c      	bne.n	2147c <_ZN20complex_dynamic_type3app17h2b277d75c4cf29cbE+0x108>
   21462:	1c68      	adds	r0, r5, #1
   21464:	222c      	movs	r2, #44	@ 0x2c
   21466:	9901      	ldr	r1, [sp, #4]
   21468:	f009 f888 	bl	2a57c <__aeabi_memcpy>
   2146c:	702e      	strb	r6, [r5, #0]
   2146e:	e7dc      	b.n	2142a <_ZN20complex_dynamic_type3app17h2b277d75c4cf29cbE+0xb6>
   21470:	2018      	movs	r0, #24
   21472:	2103      	movs	r1, #3
   21474:	2200      	movs	r2, #0
   21476:	4613      	mov	r3, r2
   21478:	df03      	svc	3
   2147a:	e004      	b.n	21486 <_ZN20complex_dynamic_type3app17h2b277d75c4cf29cbE+0x112>
   2147c:	2018      	movs	r0, #24
   2147e:	2103      	movs	r1, #3
   21480:	2200      	movs	r2, #0
   21482:	4613      	mov	r3, r2
   21484:	df04      	svc	4
   21486:	a804      	add	r0, sp, #16
   21488:	7804      	ldrb	r4, [r0, #0]
   2148a:	1c68      	adds	r0, r5, #1
   2148c:	222c      	movs	r2, #44	@ 0x2c
   2148e:	9901      	ldr	r1, [sp, #4]
   21490:	f009 f874 	bl	2a57c <__aeabi_memcpy>
   21494:	702e      	strb	r6, [r5, #0]
   21496:	e7bd      	b.n	21414 <_ZN20complex_dynamic_type3app17h2b277d75c4cf29cbE+0xa0>

00021498 <_ZN20complex_dynamic_type3app17h30136ecc9cfcff52E>:
   21498:	b5f0      	push	{r4, r5, r6, r7, lr}
   2149a:	af03      	add	r7, sp, #12
   2149c:	b0a1      	sub	sp, #132	@ 0x84
   2149e:	9003      	str	r0, [sp, #12]
   214a0:	a804      	add	r0, sp, #16
   214a2:	2602      	movs	r6, #2
   214a4:	7006      	strb	r6, [r0, #0]
   214a6:	1c40      	adds	r0, r0, #1
   214a8:	9002      	str	r0, [sp, #8]
   214aa:	251e      	movs	r5, #30
   214ac:	462a      	mov	r2, r5
   214ae:	f009 f865 	bl	2a57c <__aeabi_memcpy>
   214b2:	ac0c      	add	r4, sp, #48	@ 0x30
   214b4:	1c60      	adds	r0, r4, #1
   214b6:	2151      	movs	r1, #81	@ 0x51
   214b8:	9001      	str	r0, [sp, #4]
   214ba:	f008 fe9f 	bl	2a1fc <__aeabi_memclr>
   214be:	7026      	strb	r6, [r4, #0]
   214c0:	4841      	ldr	r0, [pc, #260]	@ (215c8 <_ZN20complex_dynamic_type3app17h30136ecc9cfcff52E+0x130>)
   214c2:	4631      	mov	r1, r6
   214c4:	9a02      	ldr	r2, [sp, #8]
   214c6:	462b      	mov	r3, r5
   214c8:	df04      	svc	4
   214ca:	2802      	cmp	r0, #2
   214cc:	d104      	bne.n	214d8 <_ZN20complex_dynamic_type3app17h30136ecc9cfcff52E+0x40>
   214ce:	2001      	movs	r0, #1
   214d0:	9a03      	ldr	r2, [sp, #12]
   214d2:	7010      	strb	r0, [r2, #0]
   214d4:	6051      	str	r1, [r2, #4]
   214d6:	e02e      	b.n	21536 <_ZN20complex_dynamic_type3app17h30136ecc9cfcff52E+0x9e>
   214d8:	9c03      	ldr	r4, [sp, #12]
   214da:	a804      	add	r0, sp, #16
   214dc:	2104      	movs	r1, #4
   214de:	7001      	strb	r1, [r0, #0]
   214e0:	4839      	ldr	r0, [pc, #228]	@ (215c8 <_ZN20complex_dynamic_type3app17h30136ecc9cfcff52E+0x130>)
   214e2:	2100      	movs	r1, #0
   214e4:	2351      	movs	r3, #81	@ 0x51
   214e6:	9d01      	ldr	r5, [sp, #4]
   214e8:	462a      	mov	r2, r5
   214ea:	df03      	svc	3
   214ec:	2802      	cmp	r0, #2
   214ee:	d10e      	bne.n	2150e <_ZN20complex_dynamic_type3app17h30136ecc9cfcff52E+0x76>
   214f0:	2001      	movs	r0, #1
   214f2:	7020      	strb	r0, [r4, #0]
   214f4:	6061      	str	r1, [r4, #4]
   214f6:	a80c      	add	r0, sp, #48	@ 0x30
   214f8:	7800      	ldrb	r0, [r0, #0]
   214fa:	2802      	cmp	r0, #2
   214fc:	d01b      	beq.n	21536 <_ZN20complex_dynamic_type3app17h30136ecc9cfcff52E+0x9e>
   214fe:	2803      	cmp	r0, #3
   21500:	d014      	beq.n	2152c <_ZN20complex_dynamic_type3app17h30136ecc9cfcff52E+0x94>
   21502:	4831      	ldr	r0, [pc, #196]	@ (215c8 <_ZN20complex_dynamic_type3app17h30136ecc9cfcff52E+0x130>)
   21504:	2100      	movs	r1, #0
   21506:	460a      	mov	r2, r1
   21508:	460b      	mov	r3, r1
   2150a:	df04      	svc	4
   2150c:	e013      	b.n	21536 <_ZN20complex_dynamic_type3app17h30136ecc9cfcff52E+0x9e>
   2150e:	a80c      	add	r0, sp, #48	@ 0x30
   21510:	2103      	movs	r1, #3
   21512:	7001      	strb	r1, [r0, #0]
   21514:	482c      	ldr	r0, [pc, #176]	@ (215c8 <_ZN20complex_dynamic_type3app17h30136ecc9cfcff52E+0x130>)
   21516:	2602      	movs	r6, #2
   21518:	2200      	movs	r2, #0
   2151a:	4631      	mov	r1, r6
   2151c:	9202      	str	r2, [sp, #8]
   2151e:	4613      	mov	r3, r2
   21520:	df02      	svc	2
   21522:	287f      	cmp	r0, #127	@ 0x7f
   21524:	d816      	bhi.n	21554 <_ZN20complex_dynamic_type3app17h30136ecc9cfcff52E+0xbc>
   21526:	2001      	movs	r0, #1
   21528:	7020      	strb	r0, [r4, #0]
   2152a:	6061      	str	r1, [r4, #4]
   2152c:	4826      	ldr	r0, [pc, #152]	@ (215c8 <_ZN20complex_dynamic_type3app17h30136ecc9cfcff52E+0x130>)
   2152e:	2100      	movs	r1, #0
   21530:	460a      	mov	r2, r1
   21532:	460b      	mov	r3, r1
   21534:	df03      	svc	3
   21536:	a804      	add	r0, sp, #16
   21538:	7804      	ldrb	r4, [r0, #0]
   2153a:	2c02      	cmp	r4, #2
   2153c:	d008      	beq.n	21550 <_ZN20complex_dynamic_type3app17h30136ecc9cfcff52E+0xb8>
   2153e:	4822      	ldr	r0, [pc, #136]	@ (215c8 <_ZN20complex_dynamic_type3app17h30136ecc9cfcff52E+0x130>)
   21540:	2102      	movs	r1, #2
   21542:	2200      	movs	r2, #0
   21544:	4613      	mov	r3, r2
   21546:	2c03      	cmp	r4, #3
   21548:	d101      	bne.n	2154e <_ZN20complex_dynamic_type3app17h30136ecc9cfcff52E+0xb6>
   2154a:	df03      	svc	3
   2154c:	e000      	b.n	21550 <_ZN20complex_dynamic_type3app17h30136ecc9cfcff52E+0xb8>
   2154e:	df04      	svc	4
   21550:	b021      	add	sp, #132	@ 0x84
   21552:	bdf0      	pop	{r4, r5, r6, r7, pc}
   21554:	a804      	add	r0, sp, #16
   21556:	7800      	ldrb	r0, [r0, #0]
   21558:	2802      	cmp	r0, #2
   2155a:	d01c      	beq.n	21596 <_ZN20complex_dynamic_type3app17h30136ecc9cfcff52E+0xfe>
   2155c:	2803      	cmp	r0, #3
   2155e:	d105      	bne.n	2156c <_ZN20complex_dynamic_type3app17h30136ecc9cfcff52E+0xd4>
   21560:	4819      	ldr	r0, [pc, #100]	@ (215c8 <_ZN20complex_dynamic_type3app17h30136ecc9cfcff52E+0x130>)
   21562:	2102      	movs	r1, #2
   21564:	2200      	movs	r2, #0
   21566:	4613      	mov	r3, r2
   21568:	df03      	svc	3
   2156a:	e004      	b.n	21576 <_ZN20complex_dynamic_type3app17h30136ecc9cfcff52E+0xde>
   2156c:	4816      	ldr	r0, [pc, #88]	@ (215c8 <_ZN20complex_dynamic_type3app17h30136ecc9cfcff52E+0x130>)
   2156e:	2102      	movs	r1, #2
   21570:	2200      	movs	r2, #0
   21572:	4613      	mov	r3, r2
   21574:	df04      	svc	4
   21576:	a804      	add	r0, sp, #16
   21578:	7006      	strb	r6, [r0, #0]
   2157a:	a80c      	add	r0, sp, #48	@ 0x30
   2157c:	7800      	ldrb	r0, [r0, #0]
   2157e:	2803      	cmp	r0, #3
   21580:	d009      	beq.n	21596 <_ZN20complex_dynamic_type3app17h30136ecc9cfcff52E+0xfe>
   21582:	2802      	cmp	r0, #2
   21584:	d10e      	bne.n	215a4 <_ZN20complex_dynamic_type3app17h30136ecc9cfcff52E+0x10c>
   21586:	1c60      	adds	r0, r4, #1
   21588:	2251      	movs	r2, #81	@ 0x51
   2158a:	4629      	mov	r1, r5
   2158c:	f008 fff6 	bl	2a57c <__aeabi_memcpy>
   21590:	9802      	ldr	r0, [sp, #8]
   21592:	7020      	strb	r0, [r4, #0]
   21594:	e7dc      	b.n	21550 <_ZN20complex_dynamic_type3app17h30136ecc9cfcff52E+0xb8>
   21596:	462e      	mov	r6, r5
   21598:	480b      	ldr	r0, [pc, #44]	@ (215c8 <_ZN20complex_dynamic_type3app17h30136ecc9cfcff52E+0x130>)
   2159a:	2100      	movs	r1, #0
   2159c:	460a      	mov	r2, r1
   2159e:	460b      	mov	r3, r1
   215a0:	df03      	svc	3
   215a2:	e005      	b.n	215b0 <_ZN20complex_dynamic_type3app17h30136ecc9cfcff52E+0x118>
   215a4:	462e      	mov	r6, r5
   215a6:	4808      	ldr	r0, [pc, #32]	@ (215c8 <_ZN20complex_dynamic_type3app17h30136ecc9cfcff52E+0x130>)
   215a8:	2100      	movs	r1, #0
   215aa:	460a      	mov	r2, r1
   215ac:	460b      	mov	r3, r1
   215ae:	df04      	svc	4
   215b0:	4625      	mov	r5, r4
   215b2:	a804      	add	r0, sp, #16
   215b4:	7804      	ldrb	r4, [r0, #0]
   215b6:	1c68      	adds	r0, r5, #1
   215b8:	2251      	movs	r2, #81	@ 0x51
   215ba:	4631      	mov	r1, r6
   215bc:	f008 ffde 	bl	2a57c <__aeabi_memcpy>
   215c0:	9802      	ldr	r0, [sp, #8]
   215c2:	7028      	strb	r0, [r5, #0]
   215c4:	e7b9      	b.n	2153a <_ZN20complex_dynamic_type3app17h30136ecc9cfcff52E+0xa2>
   215c6:	46c0      	nop			@ (mov r8, r8)
   215c8:	0000196b 	.word	0x0000196b

000215cc <_ZN20complex_dynamic_type3app17h31f6a8a13ee804c7E>:
   215cc:	b5f0      	push	{r4, r5, r6, r7, lr}
   215ce:	af03      	add	r7, sp, #12
   215d0:	b091      	sub	sp, #68	@ 0x44
   215d2:	9003      	str	r0, [sp, #12]
   215d4:	ae04      	add	r6, sp, #16
   215d6:	2502      	movs	r5, #2
   215d8:	7035      	strb	r5, [r6, #0]
   215da:	1c70      	adds	r0, r6, #1
   215dc:	220d      	movs	r2, #13
   215de:	9202      	str	r2, [sp, #8]
   215e0:	f008 ffcc 	bl	2a57c <__aeabi_memcpy>
   215e4:	ac08      	add	r4, sp, #32
   215e6:	1c60      	adds	r0, r4, #1
   215e8:	2121      	movs	r1, #33	@ 0x21
   215ea:	9001      	str	r0, [sp, #4]
   215ec:	f008 fe06 	bl	2a1fc <__aeabi_memclr>
   215f0:	7025      	strb	r5, [r4, #0]
   215f2:	2204      	movs	r2, #4
   215f4:	4630      	mov	r0, r6
   215f6:	9902      	ldr	r1, [sp, #8]
   215f8:	f7fe fd92 	bl	20120 <_ZN9allow_pin12dynamic_type23Buffer$LT$B$C$_$C$_$GT$5allow17h2018b3bba3d150e7E>
   215fc:	07c0      	lsls	r0, r0, #31
   215fe:	d10e      	bne.n	2161e <_ZN20complex_dynamic_type3app17h31f6a8a13ee804c7E+0x52>
   21600:	a808      	add	r0, sp, #32
   21602:	2121      	movs	r1, #33	@ 0x21
   21604:	2203      	movs	r2, #3
   21606:	f7fe fd8b 	bl	20120 <_ZN9allow_pin12dynamic_type23Buffer$LT$B$C$_$C$_$GT$5allow17h2018b3bba3d150e7E>
   2160a:	07c0      	lsls	r0, r0, #31
   2160c:	d107      	bne.n	2161e <_ZN20complex_dynamic_type3app17h31f6a8a13ee804c7E+0x52>
   2160e:	4831      	ldr	r0, [pc, #196]	@ (216d4 <_ZN20complex_dynamic_type3app17h31f6a8a13ee804c7E+0x108>)
   21610:	2600      	movs	r6, #0
   21612:	4631      	mov	r1, r6
   21614:	4632      	mov	r2, r6
   21616:	4633      	mov	r3, r6
   21618:	df02      	svc	2
   2161a:	287f      	cmp	r0, #127	@ 0x7f
   2161c:	d823      	bhi.n	21666 <_ZN20complex_dynamic_type3app17h31f6a8a13ee804c7E+0x9a>
   2161e:	2001      	movs	r0, #1
   21620:	9a03      	ldr	r2, [sp, #12]
   21622:	7010      	strb	r0, [r2, #0]
   21624:	6051      	str	r1, [r2, #4]
   21626:	a808      	add	r0, sp, #32
   21628:	7800      	ldrb	r0, [r0, #0]
   2162a:	2802      	cmp	r0, #2
   2162c:	d00c      	beq.n	21648 <_ZN20complex_dynamic_type3app17h31f6a8a13ee804c7E+0x7c>
   2162e:	2803      	cmp	r0, #3
   21630:	d105      	bne.n	2163e <_ZN20complex_dynamic_type3app17h31f6a8a13ee804c7E+0x72>
   21632:	4828      	ldr	r0, [pc, #160]	@ (216d4 <_ZN20complex_dynamic_type3app17h31f6a8a13ee804c7E+0x108>)
   21634:	2100      	movs	r1, #0
   21636:	460a      	mov	r2, r1
   21638:	460b      	mov	r3, r1
   2163a:	df03      	svc	3
   2163c:	e004      	b.n	21648 <_ZN20complex_dynamic_type3app17h31f6a8a13ee804c7E+0x7c>
   2163e:	4825      	ldr	r0, [pc, #148]	@ (216d4 <_ZN20complex_dynamic_type3app17h31f6a8a13ee804c7E+0x108>)
   21640:	2100      	movs	r1, #0
   21642:	460a      	mov	r2, r1
   21644:	460b      	mov	r3, r1
   21646:	df04      	svc	4
   21648:	a804      	add	r0, sp, #16
   2164a:	7804      	ldrb	r4, [r0, #0]
   2164c:	2c02      	cmp	r4, #2
   2164e:	d008      	beq.n	21662 <_ZN20complex_dynamic_type3app17h31f6a8a13ee804c7E+0x96>
   21650:	4820      	ldr	r0, [pc, #128]	@ (216d4 <_ZN20complex_dynamic_type3app17h31f6a8a13ee804c7E+0x108>)
   21652:	2100      	movs	r1, #0
   21654:	460a      	mov	r2, r1
   21656:	460b      	mov	r3, r1
   21658:	2c03      	cmp	r4, #3
   2165a:	d101      	bne.n	21660 <_ZN20complex_dynamic_type3app17h31f6a8a13ee804c7E+0x94>
   2165c:	df03      	svc	3
   2165e:	e000      	b.n	21662 <_ZN20complex_dynamic_type3app17h31f6a8a13ee804c7E+0x96>
   21660:	df04      	svc	4
   21662:	b011      	add	sp, #68	@ 0x44
   21664:	bdf0      	pop	{r4, r5, r6, r7, pc}
   21666:	a804      	add	r0, sp, #16
   21668:	7800      	ldrb	r0, [r0, #0]
   2166a:	2802      	cmp	r0, #2
   2166c:	d00c      	beq.n	21688 <_ZN20complex_dynamic_type3app17h31f6a8a13ee804c7E+0xbc>
   2166e:	2803      	cmp	r0, #3
   21670:	d105      	bne.n	2167e <_ZN20complex_dynamic_type3app17h31f6a8a13ee804c7E+0xb2>
   21672:	4818      	ldr	r0, [pc, #96]	@ (216d4 <_ZN20complex_dynamic_type3app17h31f6a8a13ee804c7E+0x108>)
   21674:	2100      	movs	r1, #0
   21676:	460a      	mov	r2, r1
   21678:	460b      	mov	r3, r1
   2167a:	df03      	svc	3
   2167c:	e004      	b.n	21688 <_ZN20complex_dynamic_type3app17h31f6a8a13ee804c7E+0xbc>
   2167e:	4815      	ldr	r0, [pc, #84]	@ (216d4 <_ZN20complex_dynamic_type3app17h31f6a8a13ee804c7E+0x108>)
   21680:	2100      	movs	r1, #0
   21682:	460a      	mov	r2, r1
   21684:	460b      	mov	r3, r1
   21686:	df04      	svc	4
   21688:	a804      	add	r0, sp, #16
   2168a:	7005      	strb	r5, [r0, #0]
   2168c:	a808      	add	r0, sp, #32
   2168e:	7800      	ldrb	r0, [r0, #0]
   21690:	2803      	cmp	r0, #3
   21692:	d009      	beq.n	216a8 <_ZN20complex_dynamic_type3app17h31f6a8a13ee804c7E+0xdc>
   21694:	2802      	cmp	r0, #2
   21696:	d10d      	bne.n	216b4 <_ZN20complex_dynamic_type3app17h31f6a8a13ee804c7E+0xe8>
   21698:	9c03      	ldr	r4, [sp, #12]
   2169a:	1c60      	adds	r0, r4, #1
   2169c:	2221      	movs	r2, #33	@ 0x21
   2169e:	9901      	ldr	r1, [sp, #4]
   216a0:	f008 ff6c 	bl	2a57c <__aeabi_memcpy>
   216a4:	7026      	strb	r6, [r4, #0]
   216a6:	e7dc      	b.n	21662 <_ZN20complex_dynamic_type3app17h31f6a8a13ee804c7E+0x96>
   216a8:	480a      	ldr	r0, [pc, #40]	@ (216d4 <_ZN20complex_dynamic_type3app17h31f6a8a13ee804c7E+0x108>)
   216aa:	2100      	movs	r1, #0
   216ac:	460a      	mov	r2, r1
   216ae:	460b      	mov	r3, r1
   216b0:	df03      	svc	3
   216b2:	e004      	b.n	216be <_ZN20complex_dynamic_type3app17h31f6a8a13ee804c7E+0xf2>
   216b4:	4807      	ldr	r0, [pc, #28]	@ (216d4 <_ZN20complex_dynamic_type3app17h31f6a8a13ee804c7E+0x108>)
   216b6:	2100      	movs	r1, #0
   216b8:	460a      	mov	r2, r1
   216ba:	460b      	mov	r3, r1
   216bc:	df04      	svc	4
   216be:	a804      	add	r0, sp, #16
   216c0:	7804      	ldrb	r4, [r0, #0]
   216c2:	9d03      	ldr	r5, [sp, #12]
   216c4:	1c68      	adds	r0, r5, #1
   216c6:	2221      	movs	r2, #33	@ 0x21
   216c8:	9901      	ldr	r1, [sp, #4]
   216ca:	f008 ff57 	bl	2a57c <__aeabi_memcpy>
   216ce:	702e      	strb	r6, [r5, #0]
   216d0:	e7bc      	b.n	2164c <_ZN20complex_dynamic_type3app17h31f6a8a13ee804c7E+0x80>
   216d2:	46c0      	nop			@ (mov r8, r8)
   216d4:	000016b0 	.word	0x000016b0

000216d8 <_ZN20complex_dynamic_type3app17h3366cd25743259e8E>:
   216d8:	b5f0      	push	{r4, r5, r6, r7, lr}
   216da:	af03      	add	r7, sp, #12
   216dc:	b099      	sub	sp, #100	@ 0x64
   216de:	9002      	str	r0, [sp, #8]
   216e0:	a803      	add	r0, sp, #12
   216e2:	2502      	movs	r5, #2
   216e4:	7005      	strb	r5, [r0, #0]
   216e6:	1c46      	adds	r6, r0, #1
   216e8:	220f      	movs	r2, #15
   216ea:	9201      	str	r2, [sp, #4]
   216ec:	4630      	mov	r0, r6
   216ee:	f008 ff45 	bl	2a57c <__aeabi_memcpy>
   216f2:	ac07      	add	r4, sp, #28
   216f4:	1c60      	adds	r0, r4, #1
   216f6:	2146      	movs	r1, #70	@ 0x46
   216f8:	9000      	str	r0, [sp, #0]
   216fa:	f008 fd7f 	bl	2a1fc <__aeabi_memclr>
   216fe:	7025      	strb	r5, [r4, #0]
   21700:	4841      	ldr	r0, [pc, #260]	@ (21808 <_ZN20complex_dynamic_type3app17h3366cd25743259e8E+0x130>)
   21702:	2109      	movs	r1, #9
   21704:	4632      	mov	r2, r6
   21706:	9b01      	ldr	r3, [sp, #4]
   21708:	df04      	svc	4
   2170a:	2802      	cmp	r0, #2
   2170c:	d104      	bne.n	21718 <_ZN20complex_dynamic_type3app17h3366cd25743259e8E+0x40>
   2170e:	2001      	movs	r0, #1
   21710:	9a02      	ldr	r2, [sp, #8]
   21712:	7010      	strb	r0, [r2, #0]
   21714:	6051      	str	r1, [r2, #4]
   21716:	e02e      	b.n	21776 <_ZN20complex_dynamic_type3app17h3366cd25743259e8E+0x9e>
   21718:	9c02      	ldr	r4, [sp, #8]
   2171a:	a803      	add	r0, sp, #12
   2171c:	2104      	movs	r1, #4
   2171e:	7001      	strb	r1, [r0, #0]
   21720:	4839      	ldr	r0, [pc, #228]	@ (21808 <_ZN20complex_dynamic_type3app17h3366cd25743259e8E+0x130>)
   21722:	2102      	movs	r1, #2
   21724:	2346      	movs	r3, #70	@ 0x46
   21726:	9d00      	ldr	r5, [sp, #0]
   21728:	462a      	mov	r2, r5
   2172a:	df03      	svc	3
   2172c:	2802      	cmp	r0, #2
   2172e:	d10e      	bne.n	2174e <_ZN20complex_dynamic_type3app17h3366cd25743259e8E+0x76>
   21730:	2001      	movs	r0, #1
   21732:	7020      	strb	r0, [r4, #0]
   21734:	6061      	str	r1, [r4, #4]
   21736:	a807      	add	r0, sp, #28
   21738:	7800      	ldrb	r0, [r0, #0]
   2173a:	2802      	cmp	r0, #2
   2173c:	d01b      	beq.n	21776 <_ZN20complex_dynamic_type3app17h3366cd25743259e8E+0x9e>
   2173e:	2803      	cmp	r0, #3
   21740:	d014      	beq.n	2176c <_ZN20complex_dynamic_type3app17h3366cd25743259e8E+0x94>
   21742:	4831      	ldr	r0, [pc, #196]	@ (21808 <_ZN20complex_dynamic_type3app17h3366cd25743259e8E+0x130>)
   21744:	2102      	movs	r1, #2
   21746:	2200      	movs	r2, #0
   21748:	4613      	mov	r3, r2
   2174a:	df04      	svc	4
   2174c:	e013      	b.n	21776 <_ZN20complex_dynamic_type3app17h3366cd25743259e8E+0x9e>
   2174e:	a807      	add	r0, sp, #28
   21750:	2103      	movs	r1, #3
   21752:	7001      	strb	r1, [r0, #0]
   21754:	482c      	ldr	r0, [pc, #176]	@ (21808 <_ZN20complex_dynamic_type3app17h3366cd25743259e8E+0x130>)
   21756:	2109      	movs	r1, #9
   21758:	2602      	movs	r6, #2
   2175a:	2300      	movs	r3, #0
   2175c:	4632      	mov	r2, r6
   2175e:	9301      	str	r3, [sp, #4]
   21760:	df02      	svc	2
   21762:	287f      	cmp	r0, #127	@ 0x7f
   21764:	d816      	bhi.n	21794 <_ZN20complex_dynamic_type3app17h3366cd25743259e8E+0xbc>
   21766:	2001      	movs	r0, #1
   21768:	7020      	strb	r0, [r4, #0]
   2176a:	6061      	str	r1, [r4, #4]
   2176c:	4826      	ldr	r0, [pc, #152]	@ (21808 <_ZN20complex_dynamic_type3app17h3366cd25743259e8E+0x130>)
   2176e:	2102      	movs	r1, #2
   21770:	2200      	movs	r2, #0
   21772:	4613      	mov	r3, r2
   21774:	df03      	svc	3
   21776:	a803      	add	r0, sp, #12
   21778:	7804      	ldrb	r4, [r0, #0]
   2177a:	2c02      	cmp	r4, #2
   2177c:	d008      	beq.n	21790 <_ZN20complex_dynamic_type3app17h3366cd25743259e8E+0xb8>
   2177e:	4822      	ldr	r0, [pc, #136]	@ (21808 <_ZN20complex_dynamic_type3app17h3366cd25743259e8E+0x130>)
   21780:	2109      	movs	r1, #9
   21782:	2200      	movs	r2, #0
   21784:	4613      	mov	r3, r2
   21786:	2c03      	cmp	r4, #3
   21788:	d101      	bne.n	2178e <_ZN20complex_dynamic_type3app17h3366cd25743259e8E+0xb6>
   2178a:	df03      	svc	3
   2178c:	e000      	b.n	21790 <_ZN20complex_dynamic_type3app17h3366cd25743259e8E+0xb8>
   2178e:	df04      	svc	4
   21790:	b019      	add	sp, #100	@ 0x64
   21792:	bdf0      	pop	{r4, r5, r6, r7, pc}
   21794:	a803      	add	r0, sp, #12
   21796:	7800      	ldrb	r0, [r0, #0]
   21798:	2802      	cmp	r0, #2
   2179a:	d01c      	beq.n	217d6 <_ZN20complex_dynamic_type3app17h3366cd25743259e8E+0xfe>
   2179c:	2803      	cmp	r0, #3
   2179e:	d105      	bne.n	217ac <_ZN20complex_dynamic_type3app17h3366cd25743259e8E+0xd4>
   217a0:	4819      	ldr	r0, [pc, #100]	@ (21808 <_ZN20complex_dynamic_type3app17h3366cd25743259e8E+0x130>)
   217a2:	2109      	movs	r1, #9
   217a4:	2200      	movs	r2, #0
   217a6:	4613      	mov	r3, r2
   217a8:	df03      	svc	3
   217aa:	e004      	b.n	217b6 <_ZN20complex_dynamic_type3app17h3366cd25743259e8E+0xde>
   217ac:	4816      	ldr	r0, [pc, #88]	@ (21808 <_ZN20complex_dynamic_type3app17h3366cd25743259e8E+0x130>)
   217ae:	2109      	movs	r1, #9
   217b0:	2200      	movs	r2, #0
   217b2:	4613      	mov	r3, r2
   217b4:	df04      	svc	4
   217b6:	a803      	add	r0, sp, #12
   217b8:	7006      	strb	r6, [r0, #0]
   217ba:	a807      	add	r0, sp, #28
   217bc:	7800      	ldrb	r0, [r0, #0]
   217be:	2803      	cmp	r0, #3
   217c0:	d009      	beq.n	217d6 <_ZN20complex_dynamic_type3app17h3366cd25743259e8E+0xfe>
   217c2:	2802      	cmp	r0, #2
   217c4:	d10e      	bne.n	217e4 <_ZN20complex_dynamic_type3app17h3366cd25743259e8E+0x10c>
   217c6:	1c60      	adds	r0, r4, #1
   217c8:	2246      	movs	r2, #70	@ 0x46
   217ca:	4629      	mov	r1, r5
   217cc:	f008 fed6 	bl	2a57c <__aeabi_memcpy>
   217d0:	9801      	ldr	r0, [sp, #4]
   217d2:	7020      	strb	r0, [r4, #0]
   217d4:	e7dc      	b.n	21790 <_ZN20complex_dynamic_type3app17h3366cd25743259e8E+0xb8>
   217d6:	462e      	mov	r6, r5
   217d8:	480b      	ldr	r0, [pc, #44]	@ (21808 <_ZN20complex_dynamic_type3app17h3366cd25743259e8E+0x130>)
   217da:	2102      	movs	r1, #2
   217dc:	2200      	movs	r2, #0
   217de:	4613      	mov	r3, r2
   217e0:	df03      	svc	3
   217e2:	e005      	b.n	217f0 <_ZN20complex_dynamic_type3app17h3366cd25743259e8E+0x118>
   217e4:	462e      	mov	r6, r5
   217e6:	4808      	ldr	r0, [pc, #32]	@ (21808 <_ZN20complex_dynamic_type3app17h3366cd25743259e8E+0x130>)
   217e8:	2102      	movs	r1, #2
   217ea:	2200      	movs	r2, #0
   217ec:	4613      	mov	r3, r2
   217ee:	df04      	svc	4
   217f0:	4625      	mov	r5, r4
   217f2:	a803      	add	r0, sp, #12
   217f4:	7804      	ldrb	r4, [r0, #0]
   217f6:	1c68      	adds	r0, r5, #1
   217f8:	2246      	movs	r2, #70	@ 0x46
   217fa:	4631      	mov	r1, r6
   217fc:	f008 febe 	bl	2a57c <__aeabi_memcpy>
   21800:	9801      	ldr	r0, [sp, #4]
   21802:	7028      	strb	r0, [r5, #0]
   21804:	e7b9      	b.n	2177a <_ZN20complex_dynamic_type3app17h3366cd25743259e8E+0xa2>
   21806:	46c0      	nop			@ (mov r8, r8)
   21808:	00001d7e 	.word	0x00001d7e

0002180c <_ZN20complex_dynamic_type3app17h36c8622f5934bc13E>:
   2180c:	b5f0      	push	{r4, r5, r6, r7, lr}
   2180e:	af03      	add	r7, sp, #12
   21810:	b097      	sub	sp, #92	@ 0x5c
   21812:	9004      	str	r0, [sp, #16]
   21814:	a805      	add	r0, sp, #20
   21816:	2402      	movs	r4, #2
   21818:	7004      	strb	r4, [r0, #0]
   2181a:	1c46      	adds	r6, r0, #1
   2181c:	2232      	movs	r2, #50	@ 0x32
   2181e:	9203      	str	r2, [sp, #12]
   21820:	4630      	mov	r0, r6
   21822:	f008 feab 	bl	2a57c <__aeabi_memcpy>
   21826:	ad12      	add	r5, sp, #72	@ 0x48
   21828:	1c68      	adds	r0, r5, #1
   2182a:	2110      	movs	r1, #16
   2182c:	9002      	str	r0, [sp, #8]
   2182e:	f008 fce5 	bl	2a1fc <__aeabi_memclr>
   21832:	9401      	str	r4, [sp, #4]
   21834:	702c      	strb	r4, [r5, #0]
   21836:	483f      	ldr	r0, [pc, #252]	@ (21934 <_ZN20complex_dynamic_type3app17h36c8622f5934bc13E+0x128>)
   21838:	2504      	movs	r5, #4
   2183a:	4629      	mov	r1, r5
   2183c:	4632      	mov	r2, r6
   2183e:	9b03      	ldr	r3, [sp, #12]
   21840:	df04      	svc	4
   21842:	2802      	cmp	r0, #2
   21844:	d104      	bne.n	21850 <_ZN20complex_dynamic_type3app17h36c8622f5934bc13E+0x44>
   21846:	2001      	movs	r0, #1
   21848:	9a04      	ldr	r2, [sp, #16]
   2184a:	7010      	strb	r0, [r2, #0]
   2184c:	6051      	str	r1, [r2, #4]
   2184e:	e02c      	b.n	218aa <_ZN20complex_dynamic_type3app17h36c8622f5934bc13E+0x9e>
   21850:	9c04      	ldr	r4, [sp, #16]
   21852:	a805      	add	r0, sp, #20
   21854:	7005      	strb	r5, [r0, #0]
   21856:	4837      	ldr	r0, [pc, #220]	@ (21934 <_ZN20complex_dynamic_type3app17h36c8622f5934bc13E+0x128>)
   21858:	2109      	movs	r1, #9
   2185a:	2310      	movs	r3, #16
   2185c:	9a02      	ldr	r2, [sp, #8]
   2185e:	df03      	svc	3
   21860:	2802      	cmp	r0, #2
   21862:	d10e      	bne.n	21882 <_ZN20complex_dynamic_type3app17h36c8622f5934bc13E+0x76>
   21864:	2001      	movs	r0, #1
   21866:	7020      	strb	r0, [r4, #0]
   21868:	6061      	str	r1, [r4, #4]
   2186a:	a812      	add	r0, sp, #72	@ 0x48
   2186c:	7800      	ldrb	r0, [r0, #0]
   2186e:	2802      	cmp	r0, #2
   21870:	d01b      	beq.n	218aa <_ZN20complex_dynamic_type3app17h36c8622f5934bc13E+0x9e>
   21872:	2803      	cmp	r0, #3
   21874:	d014      	beq.n	218a0 <_ZN20complex_dynamic_type3app17h36c8622f5934bc13E+0x94>
   21876:	482f      	ldr	r0, [pc, #188]	@ (21934 <_ZN20complex_dynamic_type3app17h36c8622f5934bc13E+0x128>)
   21878:	2109      	movs	r1, #9
   2187a:	2200      	movs	r2, #0
   2187c:	4613      	mov	r3, r2
   2187e:	df04      	svc	4
   21880:	e013      	b.n	218aa <_ZN20complex_dynamic_type3app17h36c8622f5934bc13E+0x9e>
   21882:	a812      	add	r0, sp, #72	@ 0x48
   21884:	2103      	movs	r1, #3
   21886:	7001      	strb	r1, [r0, #0]
   21888:	482a      	ldr	r0, [pc, #168]	@ (21934 <_ZN20complex_dynamic_type3app17h36c8622f5934bc13E+0x128>)
   2188a:	2104      	movs	r1, #4
   2188c:	2209      	movs	r2, #9
   2188e:	2600      	movs	r6, #0
   21890:	4633      	mov	r3, r6
   21892:	df02      	svc	2
   21894:	287f      	cmp	r0, #127	@ 0x7f
   21896:	4625      	mov	r5, r4
   21898:	d816      	bhi.n	218c8 <_ZN20complex_dynamic_type3app17h36c8622f5934bc13E+0xbc>
   2189a:	2001      	movs	r0, #1
   2189c:	7028      	strb	r0, [r5, #0]
   2189e:	6069      	str	r1, [r5, #4]
   218a0:	4824      	ldr	r0, [pc, #144]	@ (21934 <_ZN20complex_dynamic_type3app17h36c8622f5934bc13E+0x128>)
   218a2:	2109      	movs	r1, #9
   218a4:	2200      	movs	r2, #0
   218a6:	4613      	mov	r3, r2
   218a8:	df03      	svc	3
   218aa:	a805      	add	r0, sp, #20
   218ac:	7804      	ldrb	r4, [r0, #0]
   218ae:	2c02      	cmp	r4, #2
   218b0:	d008      	beq.n	218c4 <_ZN20complex_dynamic_type3app17h36c8622f5934bc13E+0xb8>
   218b2:	4820      	ldr	r0, [pc, #128]	@ (21934 <_ZN20complex_dynamic_type3app17h36c8622f5934bc13E+0x128>)
   218b4:	2104      	movs	r1, #4
   218b6:	2200      	movs	r2, #0
   218b8:	4613      	mov	r3, r2
   218ba:	2c03      	cmp	r4, #3
   218bc:	d101      	bne.n	218c2 <_ZN20complex_dynamic_type3app17h36c8622f5934bc13E+0xb6>
   218be:	df03      	svc	3
   218c0:	e000      	b.n	218c4 <_ZN20complex_dynamic_type3app17h36c8622f5934bc13E+0xb8>
   218c2:	df04      	svc	4
   218c4:	b017      	add	sp, #92	@ 0x5c
   218c6:	bdf0      	pop	{r4, r5, r6, r7, pc}
   218c8:	a805      	add	r0, sp, #20
   218ca:	7800      	ldrb	r0, [r0, #0]
   218cc:	2802      	cmp	r0, #2
   218ce:	d01c      	beq.n	2190a <_ZN20complex_dynamic_type3app17h36c8622f5934bc13E+0xfe>
   218d0:	2803      	cmp	r0, #3
   218d2:	d105      	bne.n	218e0 <_ZN20complex_dynamic_type3app17h36c8622f5934bc13E+0xd4>
   218d4:	4817      	ldr	r0, [pc, #92]	@ (21934 <_ZN20complex_dynamic_type3app17h36c8622f5934bc13E+0x128>)
   218d6:	2104      	movs	r1, #4
   218d8:	2200      	movs	r2, #0
   218da:	4613      	mov	r3, r2
   218dc:	df03      	svc	3
   218de:	e004      	b.n	218ea <_ZN20complex_dynamic_type3app17h36c8622f5934bc13E+0xde>
   218e0:	4814      	ldr	r0, [pc, #80]	@ (21934 <_ZN20complex_dynamic_type3app17h36c8622f5934bc13E+0x128>)
   218e2:	2104      	movs	r1, #4
   218e4:	2200      	movs	r2, #0
   218e6:	4613      	mov	r3, r2
   218e8:	df04      	svc	4
   218ea:	9901      	ldr	r1, [sp, #4]
   218ec:	a805      	add	r0, sp, #20
   218ee:	7001      	strb	r1, [r0, #0]
   218f0:	a812      	add	r0, sp, #72	@ 0x48
   218f2:	7800      	ldrb	r0, [r0, #0]
   218f4:	2803      	cmp	r0, #3
   218f6:	d008      	beq.n	2190a <_ZN20complex_dynamic_type3app17h36c8622f5934bc13E+0xfe>
   218f8:	2802      	cmp	r0, #2
   218fa:	d10c      	bne.n	21916 <_ZN20complex_dynamic_type3app17h36c8622f5934bc13E+0x10a>
   218fc:	1c68      	adds	r0, r5, #1
   218fe:	2210      	movs	r2, #16
   21900:	9902      	ldr	r1, [sp, #8]
   21902:	f008 fe3b 	bl	2a57c <__aeabi_memcpy>
   21906:	702e      	strb	r6, [r5, #0]
   21908:	e7dc      	b.n	218c4 <_ZN20complex_dynamic_type3app17h36c8622f5934bc13E+0xb8>
   2190a:	480a      	ldr	r0, [pc, #40]	@ (21934 <_ZN20complex_dynamic_type3app17h36c8622f5934bc13E+0x128>)
   2190c:	2109      	movs	r1, #9
   2190e:	2200      	movs	r2, #0
   21910:	4613      	mov	r3, r2
   21912:	df03      	svc	3
   21914:	e004      	b.n	21920 <_ZN20complex_dynamic_type3app17h36c8622f5934bc13E+0x114>
   21916:	4807      	ldr	r0, [pc, #28]	@ (21934 <_ZN20complex_dynamic_type3app17h36c8622f5934bc13E+0x128>)
   21918:	2109      	movs	r1, #9
   2191a:	2200      	movs	r2, #0
   2191c:	4613      	mov	r3, r2
   2191e:	df04      	svc	4
   21920:	a805      	add	r0, sp, #20
   21922:	7804      	ldrb	r4, [r0, #0]
   21924:	1c68      	adds	r0, r5, #1
   21926:	2210      	movs	r2, #16
   21928:	9902      	ldr	r1, [sp, #8]
   2192a:	f008 fe27 	bl	2a57c <__aeabi_memcpy>
   2192e:	702e      	strb	r6, [r5, #0]
   21930:	e7bd      	b.n	218ae <_ZN20complex_dynamic_type3app17h36c8622f5934bc13E+0xa2>
   21932:	46c0      	nop			@ (mov r8, r8)
   21934:	000019d6 	.word	0x000019d6

00021938 <_ZN20complex_dynamic_type3app17h39259bc4b61b07ddE>:
   21938:	b5f0      	push	{r4, r5, r6, r7, lr}
   2193a:	af03      	add	r7, sp, #12
   2193c:	b09d      	sub	sp, #116	@ 0x74
   2193e:	9004      	str	r0, [sp, #16]
   21940:	a805      	add	r0, sp, #20
   21942:	2602      	movs	r6, #2
   21944:	7006      	strb	r6, [r0, #0]
   21946:	1c40      	adds	r0, r0, #1
   21948:	9003      	str	r0, [sp, #12]
   2194a:	251e      	movs	r5, #30
   2194c:	462a      	mov	r2, r5
   2194e:	f008 fe15 	bl	2a57c <__aeabi_memcpy>
   21952:	ac0d      	add	r4, sp, #52	@ 0x34
   21954:	1c60      	adds	r0, r4, #1
   21956:	213c      	movs	r1, #60	@ 0x3c
   21958:	9002      	str	r0, [sp, #8]
   2195a:	f008 fc4f 	bl	2a1fc <__aeabi_memclr>
   2195e:	7026      	strb	r6, [r4, #0]
   21960:	4841      	ldr	r0, [pc, #260]	@ (21a68 <_ZN20complex_dynamic_type3app17h39259bc4b61b07ddE+0x130>)
   21962:	4631      	mov	r1, r6
   21964:	9a03      	ldr	r2, [sp, #12]
   21966:	462b      	mov	r3, r5
   21968:	df04      	svc	4
   2196a:	2802      	cmp	r0, #2
   2196c:	d104      	bne.n	21978 <_ZN20complex_dynamic_type3app17h39259bc4b61b07ddE+0x40>
   2196e:	2001      	movs	r0, #1
   21970:	9a04      	ldr	r2, [sp, #16]
   21972:	7010      	strb	r0, [r2, #0]
   21974:	6051      	str	r1, [r2, #4]
   21976:	e02e      	b.n	219d6 <_ZN20complex_dynamic_type3app17h39259bc4b61b07ddE+0x9e>
   21978:	9d04      	ldr	r5, [sp, #16]
   2197a:	a805      	add	r0, sp, #20
   2197c:	2104      	movs	r1, #4
   2197e:	7001      	strb	r1, [r0, #0]
   21980:	4839      	ldr	r0, [pc, #228]	@ (21a68 <_ZN20complex_dynamic_type3app17h39259bc4b61b07ddE+0x130>)
   21982:	2603      	movs	r6, #3
   21984:	233c      	movs	r3, #60	@ 0x3c
   21986:	4631      	mov	r1, r6
   21988:	9c02      	ldr	r4, [sp, #8]
   2198a:	4622      	mov	r2, r4
   2198c:	df03      	svc	3
   2198e:	2802      	cmp	r0, #2
   21990:	d10e      	bne.n	219b0 <_ZN20complex_dynamic_type3app17h39259bc4b61b07ddE+0x78>
   21992:	2001      	movs	r0, #1
   21994:	7028      	strb	r0, [r5, #0]
   21996:	6069      	str	r1, [r5, #4]
   21998:	a80d      	add	r0, sp, #52	@ 0x34
   2199a:	7800      	ldrb	r0, [r0, #0]
   2199c:	2802      	cmp	r0, #2
   2199e:	d01a      	beq.n	219d6 <_ZN20complex_dynamic_type3app17h39259bc4b61b07ddE+0x9e>
   219a0:	2803      	cmp	r0, #3
   219a2:	d013      	beq.n	219cc <_ZN20complex_dynamic_type3app17h39259bc4b61b07ddE+0x94>
   219a4:	4830      	ldr	r0, [pc, #192]	@ (21a68 <_ZN20complex_dynamic_type3app17h39259bc4b61b07ddE+0x130>)
   219a6:	2103      	movs	r1, #3
   219a8:	2200      	movs	r2, #0
   219aa:	4613      	mov	r3, r2
   219ac:	df04      	svc	4
   219ae:	e012      	b.n	219d6 <_ZN20complex_dynamic_type3app17h39259bc4b61b07ddE+0x9e>
   219b0:	a80d      	add	r0, sp, #52	@ 0x34
   219b2:	7006      	strb	r6, [r0, #0]
   219b4:	482c      	ldr	r0, [pc, #176]	@ (21a68 <_ZN20complex_dynamic_type3app17h39259bc4b61b07ddE+0x130>)
   219b6:	2102      	movs	r1, #2
   219b8:	2300      	movs	r3, #0
   219ba:	9101      	str	r1, [sp, #4]
   219bc:	4632      	mov	r2, r6
   219be:	9303      	str	r3, [sp, #12]
   219c0:	df02      	svc	2
   219c2:	287f      	cmp	r0, #127	@ 0x7f
   219c4:	d816      	bhi.n	219f4 <_ZN20complex_dynamic_type3app17h39259bc4b61b07ddE+0xbc>
   219c6:	2001      	movs	r0, #1
   219c8:	7028      	strb	r0, [r5, #0]
   219ca:	6069      	str	r1, [r5, #4]
   219cc:	4826      	ldr	r0, [pc, #152]	@ (21a68 <_ZN20complex_dynamic_type3app17h39259bc4b61b07ddE+0x130>)
   219ce:	2103      	movs	r1, #3
   219d0:	2200      	movs	r2, #0
   219d2:	4613      	mov	r3, r2
   219d4:	df03      	svc	3
   219d6:	a805      	add	r0, sp, #20
   219d8:	7804      	ldrb	r4, [r0, #0]
   219da:	2c02      	cmp	r4, #2
   219dc:	d008      	beq.n	219f0 <_ZN20complex_dynamic_type3app17h39259bc4b61b07ddE+0xb8>
   219de:	4822      	ldr	r0, [pc, #136]	@ (21a68 <_ZN20complex_dynamic_type3app17h39259bc4b61b07ddE+0x130>)
   219e0:	2102      	movs	r1, #2
   219e2:	2200      	movs	r2, #0
   219e4:	4613      	mov	r3, r2
   219e6:	2c03      	cmp	r4, #3
   219e8:	d101      	bne.n	219ee <_ZN20complex_dynamic_type3app17h39259bc4b61b07ddE+0xb6>
   219ea:	df03      	svc	3
   219ec:	e000      	b.n	219f0 <_ZN20complex_dynamic_type3app17h39259bc4b61b07ddE+0xb8>
   219ee:	df04      	svc	4
   219f0:	b01d      	add	sp, #116	@ 0x74
   219f2:	bdf0      	pop	{r4, r5, r6, r7, pc}
   219f4:	a805      	add	r0, sp, #20
   219f6:	7800      	ldrb	r0, [r0, #0]
   219f8:	2802      	cmp	r0, #2
   219fa:	d01d      	beq.n	21a38 <_ZN20complex_dynamic_type3app17h39259bc4b61b07ddE+0x100>
   219fc:	2803      	cmp	r0, #3
   219fe:	d105      	bne.n	21a0c <_ZN20complex_dynamic_type3app17h39259bc4b61b07ddE+0xd4>
   21a00:	4819      	ldr	r0, [pc, #100]	@ (21a68 <_ZN20complex_dynamic_type3app17h39259bc4b61b07ddE+0x130>)
   21a02:	2102      	movs	r1, #2
   21a04:	2200      	movs	r2, #0
   21a06:	4613      	mov	r3, r2
   21a08:	df03      	svc	3
   21a0a:	e004      	b.n	21a16 <_ZN20complex_dynamic_type3app17h39259bc4b61b07ddE+0xde>
   21a0c:	4816      	ldr	r0, [pc, #88]	@ (21a68 <_ZN20complex_dynamic_type3app17h39259bc4b61b07ddE+0x130>)
   21a0e:	2102      	movs	r1, #2
   21a10:	2200      	movs	r2, #0
   21a12:	4613      	mov	r3, r2
   21a14:	df04      	svc	4
   21a16:	9901      	ldr	r1, [sp, #4]
   21a18:	a805      	add	r0, sp, #20
   21a1a:	7001      	strb	r1, [r0, #0]
   21a1c:	a80d      	add	r0, sp, #52	@ 0x34
   21a1e:	7800      	ldrb	r0, [r0, #0]
   21a20:	2803      	cmp	r0, #3
   21a22:	d009      	beq.n	21a38 <_ZN20complex_dynamic_type3app17h39259bc4b61b07ddE+0x100>
   21a24:	2802      	cmp	r0, #2
   21a26:	d10e      	bne.n	21a46 <_ZN20complex_dynamic_type3app17h39259bc4b61b07ddE+0x10e>
   21a28:	1c68      	adds	r0, r5, #1
   21a2a:	223c      	movs	r2, #60	@ 0x3c
   21a2c:	4621      	mov	r1, r4
   21a2e:	f008 fda5 	bl	2a57c <__aeabi_memcpy>
   21a32:	9803      	ldr	r0, [sp, #12]
   21a34:	7028      	strb	r0, [r5, #0]
   21a36:	e7db      	b.n	219f0 <_ZN20complex_dynamic_type3app17h39259bc4b61b07ddE+0xb8>
   21a38:	4626      	mov	r6, r4
   21a3a:	480b      	ldr	r0, [pc, #44]	@ (21a68 <_ZN20complex_dynamic_type3app17h39259bc4b61b07ddE+0x130>)
   21a3c:	2103      	movs	r1, #3
   21a3e:	2200      	movs	r2, #0
   21a40:	4613      	mov	r3, r2
   21a42:	df03      	svc	3
   21a44:	e005      	b.n	21a52 <_ZN20complex_dynamic_type3app17h39259bc4b61b07ddE+0x11a>
   21a46:	4626      	mov	r6, r4
   21a48:	4807      	ldr	r0, [pc, #28]	@ (21a68 <_ZN20complex_dynamic_type3app17h39259bc4b61b07ddE+0x130>)
   21a4a:	2103      	movs	r1, #3
   21a4c:	2200      	movs	r2, #0
   21a4e:	4613      	mov	r3, r2
   21a50:	df04      	svc	4
   21a52:	a805      	add	r0, sp, #20
   21a54:	7804      	ldrb	r4, [r0, #0]
   21a56:	1c68      	adds	r0, r5, #1
   21a58:	223c      	movs	r2, #60	@ 0x3c
   21a5a:	4631      	mov	r1, r6
   21a5c:	f008 fd8e 	bl	2a57c <__aeabi_memcpy>
   21a60:	9803      	ldr	r0, [sp, #12]
   21a62:	7028      	strb	r0, [r5, #0]
   21a64:	e7b9      	b.n	219da <_ZN20complex_dynamic_type3app17h39259bc4b61b07ddE+0xa2>
   21a66:	46c0      	nop			@ (mov r8, r8)
   21a68:	00000b3c 	.word	0x00000b3c

00021a6c <_ZN20complex_dynamic_type3app17h39c6dc660ac55295E>:
   21a6c:	b5f0      	push	{r4, r5, r6, r7, lr}
   21a6e:	af03      	add	r7, sp, #12
   21a70:	b0ad      	sub	sp, #180	@ 0xb4
   21a72:	9003      	str	r0, [sp, #12]
   21a74:	a804      	add	r0, sp, #16
   21a76:	2602      	movs	r6, #2
   21a78:	7006      	strb	r6, [r0, #0]
   21a7a:	1c40      	adds	r0, r0, #1
   21a7c:	9002      	str	r0, [sp, #8]
   21a7e:	2551      	movs	r5, #81	@ 0x51
   21a80:	462a      	mov	r2, r5
   21a82:	f008 fd7b 	bl	2a57c <__aeabi_memcpy>
   21a86:	ac19      	add	r4, sp, #100	@ 0x64
   21a88:	1c60      	adds	r0, r4, #1
   21a8a:	214f      	movs	r1, #79	@ 0x4f
   21a8c:	9001      	str	r0, [sp, #4]
   21a8e:	f008 fbb5 	bl	2a1fc <__aeabi_memclr>
   21a92:	7026      	strb	r6, [r4, #0]
   21a94:	4840      	ldr	r0, [pc, #256]	@ (21b98 <_ZN20complex_dynamic_type3app17h39c6dc660ac55295E+0x12c>)
   21a96:	4631      	mov	r1, r6
   21a98:	9a02      	ldr	r2, [sp, #8]
   21a9a:	462b      	mov	r3, r5
   21a9c:	df04      	svc	4
   21a9e:	2802      	cmp	r0, #2
   21aa0:	d104      	bne.n	21aac <_ZN20complex_dynamic_type3app17h39c6dc660ac55295E+0x40>
   21aa2:	2001      	movs	r0, #1
   21aa4:	9a03      	ldr	r2, [sp, #12]
   21aa6:	7010      	strb	r0, [r2, #0]
   21aa8:	6051      	str	r1, [r2, #4]
   21aaa:	e02d      	b.n	21b08 <_ZN20complex_dynamic_type3app17h39c6dc660ac55295E+0x9c>
   21aac:	9c03      	ldr	r4, [sp, #12]
   21aae:	a804      	add	r0, sp, #16
   21ab0:	2104      	movs	r1, #4
   21ab2:	7001      	strb	r1, [r0, #0]
   21ab4:	4838      	ldr	r0, [pc, #224]	@ (21b98 <_ZN20complex_dynamic_type3app17h39c6dc660ac55295E+0x12c>)
   21ab6:	234f      	movs	r3, #79	@ 0x4f
   21ab8:	9d01      	ldr	r5, [sp, #4]
   21aba:	462a      	mov	r2, r5
   21abc:	df03      	svc	3
   21abe:	2802      	cmp	r0, #2
   21ac0:	d10e      	bne.n	21ae0 <_ZN20complex_dynamic_type3app17h39c6dc660ac55295E+0x74>
   21ac2:	2001      	movs	r0, #1
   21ac4:	7020      	strb	r0, [r4, #0]
   21ac6:	6061      	str	r1, [r4, #4]
   21ac8:	a819      	add	r0, sp, #100	@ 0x64
   21aca:	7800      	ldrb	r0, [r0, #0]
   21acc:	2802      	cmp	r0, #2
   21ace:	d01b      	beq.n	21b08 <_ZN20complex_dynamic_type3app17h39c6dc660ac55295E+0x9c>
   21ad0:	2803      	cmp	r0, #3
   21ad2:	d014      	beq.n	21afe <_ZN20complex_dynamic_type3app17h39c6dc660ac55295E+0x92>
   21ad4:	4830      	ldr	r0, [pc, #192]	@ (21b98 <_ZN20complex_dynamic_type3app17h39c6dc660ac55295E+0x12c>)
   21ad6:	2104      	movs	r1, #4
   21ad8:	2200      	movs	r2, #0
   21ada:	4613      	mov	r3, r2
   21adc:	df04      	svc	4
   21ade:	e013      	b.n	21b08 <_ZN20complex_dynamic_type3app17h39c6dc660ac55295E+0x9c>
   21ae0:	a819      	add	r0, sp, #100	@ 0x64
   21ae2:	2103      	movs	r1, #3
   21ae4:	7001      	strb	r1, [r0, #0]
   21ae6:	482c      	ldr	r0, [pc, #176]	@ (21b98 <_ZN20complex_dynamic_type3app17h39c6dc660ac55295E+0x12c>)
   21ae8:	2602      	movs	r6, #2
   21aea:	2204      	movs	r2, #4
   21aec:	2300      	movs	r3, #0
   21aee:	4631      	mov	r1, r6
   21af0:	9302      	str	r3, [sp, #8]
   21af2:	df02      	svc	2
   21af4:	287f      	cmp	r0, #127	@ 0x7f
   21af6:	d816      	bhi.n	21b26 <_ZN20complex_dynamic_type3app17h39c6dc660ac55295E+0xba>
   21af8:	2001      	movs	r0, #1
   21afa:	7020      	strb	r0, [r4, #0]
   21afc:	6061      	str	r1, [r4, #4]
   21afe:	4826      	ldr	r0, [pc, #152]	@ (21b98 <_ZN20complex_dynamic_type3app17h39c6dc660ac55295E+0x12c>)
   21b00:	2104      	movs	r1, #4
   21b02:	2200      	movs	r2, #0
   21b04:	4613      	mov	r3, r2
   21b06:	df03      	svc	3
   21b08:	a804      	add	r0, sp, #16
   21b0a:	7804      	ldrb	r4, [r0, #0]
   21b0c:	2c02      	cmp	r4, #2
   21b0e:	d008      	beq.n	21b22 <_ZN20complex_dynamic_type3app17h39c6dc660ac55295E+0xb6>
   21b10:	4821      	ldr	r0, [pc, #132]	@ (21b98 <_ZN20complex_dynamic_type3app17h39c6dc660ac55295E+0x12c>)
   21b12:	2102      	movs	r1, #2
   21b14:	2200      	movs	r2, #0
   21b16:	4613      	mov	r3, r2
   21b18:	2c03      	cmp	r4, #3
   21b1a:	d101      	bne.n	21b20 <_ZN20complex_dynamic_type3app17h39c6dc660ac55295E+0xb4>
   21b1c:	df03      	svc	3
   21b1e:	e000      	b.n	21b22 <_ZN20complex_dynamic_type3app17h39c6dc660ac55295E+0xb6>
   21b20:	df04      	svc	4
   21b22:	b02d      	add	sp, #180	@ 0xb4
   21b24:	bdf0      	pop	{r4, r5, r6, r7, pc}
   21b26:	a804      	add	r0, sp, #16
   21b28:	7800      	ldrb	r0, [r0, #0]
   21b2a:	2802      	cmp	r0, #2
   21b2c:	d01c      	beq.n	21b68 <_ZN20complex_dynamic_type3app17h39c6dc660ac55295E+0xfc>
   21b2e:	2803      	cmp	r0, #3
   21b30:	d105      	bne.n	21b3e <_ZN20complex_dynamic_type3app17h39c6dc660ac55295E+0xd2>
   21b32:	4819      	ldr	r0, [pc, #100]	@ (21b98 <_ZN20complex_dynamic_type3app17h39c6dc660ac55295E+0x12c>)
   21b34:	2102      	movs	r1, #2
   21b36:	2200      	movs	r2, #0
   21b38:	4613      	mov	r3, r2
   21b3a:	df03      	svc	3
   21b3c:	e004      	b.n	21b48 <_ZN20complex_dynamic_type3app17h39c6dc660ac55295E+0xdc>
   21b3e:	4816      	ldr	r0, [pc, #88]	@ (21b98 <_ZN20complex_dynamic_type3app17h39c6dc660ac55295E+0x12c>)
   21b40:	2102      	movs	r1, #2
   21b42:	2200      	movs	r2, #0
   21b44:	4613      	mov	r3, r2
   21b46:	df04      	svc	4
   21b48:	a804      	add	r0, sp, #16
   21b4a:	7006      	strb	r6, [r0, #0]
   21b4c:	a819      	add	r0, sp, #100	@ 0x64
   21b4e:	7800      	ldrb	r0, [r0, #0]
   21b50:	2803      	cmp	r0, #3
   21b52:	d009      	beq.n	21b68 <_ZN20complex_dynamic_type3app17h39c6dc660ac55295E+0xfc>
   21b54:	2802      	cmp	r0, #2
   21b56:	d10e      	bne.n	21b76 <_ZN20complex_dynamic_type3app17h39c6dc660ac55295E+0x10a>
   21b58:	1c60      	adds	r0, r4, #1
   21b5a:	224f      	movs	r2, #79	@ 0x4f
   21b5c:	4629      	mov	r1, r5
   21b5e:	f008 fd0d 	bl	2a57c <__aeabi_memcpy>
   21b62:	9802      	ldr	r0, [sp, #8]
   21b64:	7020      	strb	r0, [r4, #0]
   21b66:	e7dc      	b.n	21b22 <_ZN20complex_dynamic_type3app17h39c6dc660ac55295E+0xb6>
   21b68:	462e      	mov	r6, r5
   21b6a:	480b      	ldr	r0, [pc, #44]	@ (21b98 <_ZN20complex_dynamic_type3app17h39c6dc660ac55295E+0x12c>)
   21b6c:	2104      	movs	r1, #4
   21b6e:	2200      	movs	r2, #0
   21b70:	4613      	mov	r3, r2
   21b72:	df03      	svc	3
   21b74:	e005      	b.n	21b82 <_ZN20complex_dynamic_type3app17h39c6dc660ac55295E+0x116>
   21b76:	462e      	mov	r6, r5
   21b78:	4807      	ldr	r0, [pc, #28]	@ (21b98 <_ZN20complex_dynamic_type3app17h39c6dc660ac55295E+0x12c>)
   21b7a:	2104      	movs	r1, #4
   21b7c:	2200      	movs	r2, #0
   21b7e:	4613      	mov	r3, r2
   21b80:	df04      	svc	4
   21b82:	4625      	mov	r5, r4
   21b84:	a804      	add	r0, sp, #16
   21b86:	7804      	ldrb	r4, [r0, #0]
   21b88:	1c68      	adds	r0, r5, #1
   21b8a:	224f      	movs	r2, #79	@ 0x4f
   21b8c:	4631      	mov	r1, r6
   21b8e:	f008 fcf5 	bl	2a57c <__aeabi_memcpy>
   21b92:	9802      	ldr	r0, [sp, #8]
   21b94:	7028      	strb	r0, [r5, #0]
   21b96:	e7b9      	b.n	21b0c <_ZN20complex_dynamic_type3app17h39c6dc660ac55295E+0xa0>
   21b98:	00000e16 	.word	0x00000e16

00021b9c <_ZN20complex_dynamic_type3app17h465a7feff40d24c9E>:
   21b9c:	b5f0      	push	{r4, r5, r6, r7, lr}
   21b9e:	af03      	add	r7, sp, #12
   21ba0:	b099      	sub	sp, #100	@ 0x64
   21ba2:	9003      	str	r0, [sp, #12]
   21ba4:	a804      	add	r0, sp, #16
   21ba6:	2402      	movs	r4, #2
   21ba8:	7004      	strb	r4, [r0, #0]
   21baa:	1c46      	adds	r6, r0, #1
   21bac:	223f      	movs	r2, #63	@ 0x3f
   21bae:	9202      	str	r2, [sp, #8]
   21bb0:	4630      	mov	r0, r6
   21bb2:	f008 fce3 	bl	2a57c <__aeabi_memcpy>
   21bb6:	ad14      	add	r5, sp, #80	@ 0x50
   21bb8:	1c68      	adds	r0, r5, #1
   21bba:	2111      	movs	r1, #17
   21bbc:	9001      	str	r0, [sp, #4]
   21bbe:	f008 fb1d 	bl	2a1fc <__aeabi_memclr>
   21bc2:	9400      	str	r4, [sp, #0]
   21bc4:	702c      	strb	r4, [r5, #0]
   21bc6:	483f      	ldr	r0, [pc, #252]	@ (21cc4 <_ZN20complex_dynamic_type3app17h465a7feff40d24c9E+0x128>)
   21bc8:	2504      	movs	r5, #4
   21bca:	4629      	mov	r1, r5
   21bcc:	4632      	mov	r2, r6
   21bce:	9b02      	ldr	r3, [sp, #8]
   21bd0:	df04      	svc	4
   21bd2:	2802      	cmp	r0, #2
   21bd4:	d104      	bne.n	21be0 <_ZN20complex_dynamic_type3app17h465a7feff40d24c9E+0x44>
   21bd6:	2001      	movs	r0, #1
   21bd8:	9a03      	ldr	r2, [sp, #12]
   21bda:	7010      	strb	r0, [r2, #0]
   21bdc:	6051      	str	r1, [r2, #4]
   21bde:	e02b      	b.n	21c38 <_ZN20complex_dynamic_type3app17h465a7feff40d24c9E+0x9c>
   21be0:	9e03      	ldr	r6, [sp, #12]
   21be2:	a804      	add	r0, sp, #16
   21be4:	7005      	strb	r5, [r0, #0]
   21be6:	4837      	ldr	r0, [pc, #220]	@ (21cc4 <_ZN20complex_dynamic_type3app17h465a7feff40d24c9E+0x128>)
   21be8:	2403      	movs	r4, #3
   21bea:	2311      	movs	r3, #17
   21bec:	4621      	mov	r1, r4
   21bee:	9a01      	ldr	r2, [sp, #4]
   21bf0:	df03      	svc	3
   21bf2:	2802      	cmp	r0, #2
   21bf4:	d10e      	bne.n	21c14 <_ZN20complex_dynamic_type3app17h465a7feff40d24c9E+0x78>
   21bf6:	2001      	movs	r0, #1
   21bf8:	7030      	strb	r0, [r6, #0]
   21bfa:	6071      	str	r1, [r6, #4]
   21bfc:	a814      	add	r0, sp, #80	@ 0x50
   21bfe:	7800      	ldrb	r0, [r0, #0]
   21c00:	2802      	cmp	r0, #2
   21c02:	d019      	beq.n	21c38 <_ZN20complex_dynamic_type3app17h465a7feff40d24c9E+0x9c>
   21c04:	2803      	cmp	r0, #3
   21c06:	d012      	beq.n	21c2e <_ZN20complex_dynamic_type3app17h465a7feff40d24c9E+0x92>
   21c08:	482e      	ldr	r0, [pc, #184]	@ (21cc4 <_ZN20complex_dynamic_type3app17h465a7feff40d24c9E+0x128>)
   21c0a:	2103      	movs	r1, #3
   21c0c:	2200      	movs	r2, #0
   21c0e:	4613      	mov	r3, r2
   21c10:	df04      	svc	4
   21c12:	e011      	b.n	21c38 <_ZN20complex_dynamic_type3app17h465a7feff40d24c9E+0x9c>
   21c14:	a814      	add	r0, sp, #80	@ 0x50
   21c16:	7004      	strb	r4, [r0, #0]
   21c18:	482a      	ldr	r0, [pc, #168]	@ (21cc4 <_ZN20complex_dynamic_type3app17h465a7feff40d24c9E+0x128>)
   21c1a:	2104      	movs	r1, #4
   21c1c:	2300      	movs	r3, #0
   21c1e:	4622      	mov	r2, r4
   21c20:	9302      	str	r3, [sp, #8]
   21c22:	df02      	svc	2
   21c24:	287f      	cmp	r0, #127	@ 0x7f
   21c26:	d816      	bhi.n	21c56 <_ZN20complex_dynamic_type3app17h465a7feff40d24c9E+0xba>
   21c28:	2001      	movs	r0, #1
   21c2a:	7030      	strb	r0, [r6, #0]
   21c2c:	6071      	str	r1, [r6, #4]
   21c2e:	4825      	ldr	r0, [pc, #148]	@ (21cc4 <_ZN20complex_dynamic_type3app17h465a7feff40d24c9E+0x128>)
   21c30:	2103      	movs	r1, #3
   21c32:	2200      	movs	r2, #0
   21c34:	4613      	mov	r3, r2
   21c36:	df03      	svc	3
   21c38:	a804      	add	r0, sp, #16
   21c3a:	7804      	ldrb	r4, [r0, #0]
   21c3c:	2c02      	cmp	r4, #2
   21c3e:	d008      	beq.n	21c52 <_ZN20complex_dynamic_type3app17h465a7feff40d24c9E+0xb6>
   21c40:	4820      	ldr	r0, [pc, #128]	@ (21cc4 <_ZN20complex_dynamic_type3app17h465a7feff40d24c9E+0x128>)
   21c42:	2104      	movs	r1, #4
   21c44:	2200      	movs	r2, #0
   21c46:	4613      	mov	r3, r2
   21c48:	2c03      	cmp	r4, #3
   21c4a:	d101      	bne.n	21c50 <_ZN20complex_dynamic_type3app17h465a7feff40d24c9E+0xb4>
   21c4c:	df03      	svc	3
   21c4e:	e000      	b.n	21c52 <_ZN20complex_dynamic_type3app17h465a7feff40d24c9E+0xb6>
   21c50:	df04      	svc	4
   21c52:	b019      	add	sp, #100	@ 0x64
   21c54:	bdf0      	pop	{r4, r5, r6, r7, pc}
   21c56:	a804      	add	r0, sp, #16
   21c58:	7800      	ldrb	r0, [r0, #0]
   21c5a:	2802      	cmp	r0, #2
   21c5c:	d01d      	beq.n	21c9a <_ZN20complex_dynamic_type3app17h465a7feff40d24c9E+0xfe>
   21c5e:	2803      	cmp	r0, #3
   21c60:	d105      	bne.n	21c6e <_ZN20complex_dynamic_type3app17h465a7feff40d24c9E+0xd2>
   21c62:	4818      	ldr	r0, [pc, #96]	@ (21cc4 <_ZN20complex_dynamic_type3app17h465a7feff40d24c9E+0x128>)
   21c64:	2104      	movs	r1, #4
   21c66:	2200      	movs	r2, #0
   21c68:	4613      	mov	r3, r2
   21c6a:	df03      	svc	3
   21c6c:	e004      	b.n	21c78 <_ZN20complex_dynamic_type3app17h465a7feff40d24c9E+0xdc>
   21c6e:	4815      	ldr	r0, [pc, #84]	@ (21cc4 <_ZN20complex_dynamic_type3app17h465a7feff40d24c9E+0x128>)
   21c70:	2104      	movs	r1, #4
   21c72:	2200      	movs	r2, #0
   21c74:	4613      	mov	r3, r2
   21c76:	df04      	svc	4
   21c78:	9900      	ldr	r1, [sp, #0]
   21c7a:	a804      	add	r0, sp, #16
   21c7c:	7001      	strb	r1, [r0, #0]
   21c7e:	a814      	add	r0, sp, #80	@ 0x50
   21c80:	7800      	ldrb	r0, [r0, #0]
   21c82:	2803      	cmp	r0, #3
   21c84:	d009      	beq.n	21c9a <_ZN20complex_dynamic_type3app17h465a7feff40d24c9E+0xfe>
   21c86:	2802      	cmp	r0, #2
   21c88:	d10d      	bne.n	21ca6 <_ZN20complex_dynamic_type3app17h465a7feff40d24c9E+0x10a>
   21c8a:	1c70      	adds	r0, r6, #1
   21c8c:	2211      	movs	r2, #17
   21c8e:	9901      	ldr	r1, [sp, #4]
   21c90:	f008 fc74 	bl	2a57c <__aeabi_memcpy>
   21c94:	9802      	ldr	r0, [sp, #8]
   21c96:	7030      	strb	r0, [r6, #0]
   21c98:	e7db      	b.n	21c52 <_ZN20complex_dynamic_type3app17h465a7feff40d24c9E+0xb6>
   21c9a:	480a      	ldr	r0, [pc, #40]	@ (21cc4 <_ZN20complex_dynamic_type3app17h465a7feff40d24c9E+0x128>)
   21c9c:	2103      	movs	r1, #3
   21c9e:	2200      	movs	r2, #0
   21ca0:	4613      	mov	r3, r2
   21ca2:	df03      	svc	3
   21ca4:	e004      	b.n	21cb0 <_ZN20complex_dynamic_type3app17h465a7feff40d24c9E+0x114>
   21ca6:	4807      	ldr	r0, [pc, #28]	@ (21cc4 <_ZN20complex_dynamic_type3app17h465a7feff40d24c9E+0x128>)
   21ca8:	2103      	movs	r1, #3
   21caa:	2200      	movs	r2, #0
   21cac:	4613      	mov	r3, r2
   21cae:	df04      	svc	4
   21cb0:	a804      	add	r0, sp, #16
   21cb2:	7804      	ldrb	r4, [r0, #0]
   21cb4:	1c70      	adds	r0, r6, #1
   21cb6:	2211      	movs	r2, #17
   21cb8:	9901      	ldr	r1, [sp, #4]
   21cba:	f008 fc5f 	bl	2a57c <__aeabi_memcpy>
   21cbe:	9802      	ldr	r0, [sp, #8]
   21cc0:	7030      	strb	r0, [r6, #0]
   21cc2:	e7bb      	b.n	21c3c <_ZN20complex_dynamic_type3app17h465a7feff40d24c9E+0xa0>
   21cc4:	000014d7 	.word	0x000014d7

00021cc8 <_ZN20complex_dynamic_type3app17h47e927740b8b4245E>:
   21cc8:	b5f0      	push	{r4, r5, r6, r7, lr}
   21cca:	af03      	add	r7, sp, #12
   21ccc:	b099      	sub	sp, #100	@ 0x64
   21cce:	9003      	str	r0, [sp, #12]
   21cd0:	a804      	add	r0, sp, #16
   21cd2:	2402      	movs	r4, #2
   21cd4:	7004      	strb	r4, [r0, #0]
   21cd6:	1c46      	adds	r6, r0, #1
   21cd8:	2234      	movs	r2, #52	@ 0x34
   21cda:	9202      	str	r2, [sp, #8]
   21cdc:	4630      	mov	r0, r6
   21cde:	f008 fc4d 	bl	2a57c <__aeabi_memcpy>
   21ce2:	ad12      	add	r5, sp, #72	@ 0x48
   21ce4:	1c68      	adds	r0, r5, #1
   21ce6:	211a      	movs	r1, #26
   21ce8:	9001      	str	r0, [sp, #4]
   21cea:	f008 fa87 	bl	2a1fc <__aeabi_memclr>
   21cee:	9400      	str	r4, [sp, #0]
   21cf0:	702c      	strb	r4, [r5, #0]
   21cf2:	483f      	ldr	r0, [pc, #252]	@ (21df0 <_ZN20complex_dynamic_type3app17h47e927740b8b4245E+0x128>)
   21cf4:	2100      	movs	r1, #0
   21cf6:	4632      	mov	r2, r6
   21cf8:	9b02      	ldr	r3, [sp, #8]
   21cfa:	df04      	svc	4
   21cfc:	2802      	cmp	r0, #2
   21cfe:	d104      	bne.n	21d0a <_ZN20complex_dynamic_type3app17h47e927740b8b4245E+0x42>
   21d00:	2001      	movs	r0, #1
   21d02:	9a03      	ldr	r2, [sp, #12]
   21d04:	7010      	strb	r0, [r2, #0]
   21d06:	6051      	str	r1, [r2, #4]
   21d08:	e02d      	b.n	21d66 <_ZN20complex_dynamic_type3app17h47e927740b8b4245E+0x9e>
   21d0a:	9d03      	ldr	r5, [sp, #12]
   21d0c:	a804      	add	r0, sp, #16
   21d0e:	2104      	movs	r1, #4
   21d10:	7001      	strb	r1, [r0, #0]
   21d12:	4837      	ldr	r0, [pc, #220]	@ (21df0 <_ZN20complex_dynamic_type3app17h47e927740b8b4245E+0x128>)
   21d14:	2105      	movs	r1, #5
   21d16:	231a      	movs	r3, #26
   21d18:	9c01      	ldr	r4, [sp, #4]
   21d1a:	4622      	mov	r2, r4
   21d1c:	df03      	svc	3
   21d1e:	2802      	cmp	r0, #2
   21d20:	d10e      	bne.n	21d40 <_ZN20complex_dynamic_type3app17h47e927740b8b4245E+0x78>
   21d22:	2001      	movs	r0, #1
   21d24:	7028      	strb	r0, [r5, #0]
   21d26:	6069      	str	r1, [r5, #4]
   21d28:	a812      	add	r0, sp, #72	@ 0x48
   21d2a:	7800      	ldrb	r0, [r0, #0]
   21d2c:	2802      	cmp	r0, #2
   21d2e:	d01a      	beq.n	21d66 <_ZN20complex_dynamic_type3app17h47e927740b8b4245E+0x9e>
   21d30:	2803      	cmp	r0, #3
   21d32:	d013      	beq.n	21d5c <_ZN20complex_dynamic_type3app17h47e927740b8b4245E+0x94>
   21d34:	482e      	ldr	r0, [pc, #184]	@ (21df0 <_ZN20complex_dynamic_type3app17h47e927740b8b4245E+0x128>)
   21d36:	2105      	movs	r1, #5
   21d38:	2200      	movs	r2, #0
   21d3a:	4613      	mov	r3, r2
   21d3c:	df04      	svc	4
   21d3e:	e012      	b.n	21d66 <_ZN20complex_dynamic_type3app17h47e927740b8b4245E+0x9e>
   21d40:	a812      	add	r0, sp, #72	@ 0x48
   21d42:	2103      	movs	r1, #3
   21d44:	7001      	strb	r1, [r0, #0]
   21d46:	482a      	ldr	r0, [pc, #168]	@ (21df0 <_ZN20complex_dynamic_type3app17h47e927740b8b4245E+0x128>)
   21d48:	2205      	movs	r2, #5
   21d4a:	2600      	movs	r6, #0
   21d4c:	4631      	mov	r1, r6
   21d4e:	4633      	mov	r3, r6
   21d50:	df02      	svc	2
   21d52:	287f      	cmp	r0, #127	@ 0x7f
   21d54:	d816      	bhi.n	21d84 <_ZN20complex_dynamic_type3app17h47e927740b8b4245E+0xbc>
   21d56:	2001      	movs	r0, #1
   21d58:	7028      	strb	r0, [r5, #0]
   21d5a:	6069      	str	r1, [r5, #4]
   21d5c:	4824      	ldr	r0, [pc, #144]	@ (21df0 <_ZN20complex_dynamic_type3app17h47e927740b8b4245E+0x128>)
   21d5e:	2105      	movs	r1, #5
   21d60:	2200      	movs	r2, #0
   21d62:	4613      	mov	r3, r2
   21d64:	df03      	svc	3
   21d66:	a804      	add	r0, sp, #16
   21d68:	7804      	ldrb	r4, [r0, #0]
   21d6a:	2c02      	cmp	r4, #2
   21d6c:	d008      	beq.n	21d80 <_ZN20complex_dynamic_type3app17h47e927740b8b4245E+0xb8>
   21d6e:	4820      	ldr	r0, [pc, #128]	@ (21df0 <_ZN20complex_dynamic_type3app17h47e927740b8b4245E+0x128>)
   21d70:	2100      	movs	r1, #0
   21d72:	460a      	mov	r2, r1
   21d74:	460b      	mov	r3, r1
   21d76:	2c03      	cmp	r4, #3
   21d78:	d101      	bne.n	21d7e <_ZN20complex_dynamic_type3app17h47e927740b8b4245E+0xb6>
   21d7a:	df03      	svc	3
   21d7c:	e000      	b.n	21d80 <_ZN20complex_dynamic_type3app17h47e927740b8b4245E+0xb8>
   21d7e:	df04      	svc	4
   21d80:	b019      	add	sp, #100	@ 0x64
   21d82:	bdf0      	pop	{r4, r5, r6, r7, pc}
   21d84:	a804      	add	r0, sp, #16
   21d86:	7800      	ldrb	r0, [r0, #0]
   21d88:	2802      	cmp	r0, #2
   21d8a:	d01c      	beq.n	21dc6 <_ZN20complex_dynamic_type3app17h47e927740b8b4245E+0xfe>
   21d8c:	2803      	cmp	r0, #3
   21d8e:	d105      	bne.n	21d9c <_ZN20complex_dynamic_type3app17h47e927740b8b4245E+0xd4>
   21d90:	4817      	ldr	r0, [pc, #92]	@ (21df0 <_ZN20complex_dynamic_type3app17h47e927740b8b4245E+0x128>)
   21d92:	2100      	movs	r1, #0
   21d94:	460a      	mov	r2, r1
   21d96:	460b      	mov	r3, r1
   21d98:	df03      	svc	3
   21d9a:	e004      	b.n	21da6 <_ZN20complex_dynamic_type3app17h47e927740b8b4245E+0xde>
   21d9c:	4814      	ldr	r0, [pc, #80]	@ (21df0 <_ZN20complex_dynamic_type3app17h47e927740b8b4245E+0x128>)
   21d9e:	2100      	movs	r1, #0
   21da0:	460a      	mov	r2, r1
   21da2:	460b      	mov	r3, r1
   21da4:	df04      	svc	4
   21da6:	a804      	add	r0, sp, #16
   21da8:	9900      	ldr	r1, [sp, #0]
   21daa:	7001      	strb	r1, [r0, #0]
   21dac:	a812      	add	r0, sp, #72	@ 0x48
   21dae:	7800      	ldrb	r0, [r0, #0]
   21db0:	2803      	cmp	r0, #3
   21db2:	d008      	beq.n	21dc6 <_ZN20complex_dynamic_type3app17h47e927740b8b4245E+0xfe>
   21db4:	2802      	cmp	r0, #2
   21db6:	d10c      	bne.n	21dd2 <_ZN20complex_dynamic_type3app17h47e927740b8b4245E+0x10a>
   21db8:	1c68      	adds	r0, r5, #1
   21dba:	221a      	movs	r2, #26
   21dbc:	4621      	mov	r1, r4
   21dbe:	f008 fbdd 	bl	2a57c <__aeabi_memcpy>
   21dc2:	702e      	strb	r6, [r5, #0]
   21dc4:	e7dc      	b.n	21d80 <_ZN20complex_dynamic_type3app17h47e927740b8b4245E+0xb8>
   21dc6:	480a      	ldr	r0, [pc, #40]	@ (21df0 <_ZN20complex_dynamic_type3app17h47e927740b8b4245E+0x128>)
   21dc8:	2105      	movs	r1, #5
   21dca:	2200      	movs	r2, #0
   21dcc:	4613      	mov	r3, r2
   21dce:	df03      	svc	3
   21dd0:	e004      	b.n	21ddc <_ZN20complex_dynamic_type3app17h47e927740b8b4245E+0x114>
   21dd2:	4807      	ldr	r0, [pc, #28]	@ (21df0 <_ZN20complex_dynamic_type3app17h47e927740b8b4245E+0x128>)
   21dd4:	2105      	movs	r1, #5
   21dd6:	2200      	movs	r2, #0
   21dd8:	4613      	mov	r3, r2
   21dda:	df04      	svc	4
   21ddc:	a804      	add	r0, sp, #16
   21dde:	7804      	ldrb	r4, [r0, #0]
   21de0:	1c68      	adds	r0, r5, #1
   21de2:	221a      	movs	r2, #26
   21de4:	9901      	ldr	r1, [sp, #4]
   21de6:	f008 fbc9 	bl	2a57c <__aeabi_memcpy>
   21dea:	702e      	strb	r6, [r5, #0]
   21dec:	e7bd      	b.n	21d6a <_ZN20complex_dynamic_type3app17h47e927740b8b4245E+0xa2>
   21dee:	46c0      	nop			@ (mov r8, r8)
   21df0:	000012cc 	.word	0x000012cc

00021df4 <_ZN20complex_dynamic_type3app17h4a8007f520d0b27dE>:
   21df4:	b5f0      	push	{r4, r5, r6, r7, lr}
   21df6:	af03      	add	r7, sp, #12
   21df8:	b099      	sub	sp, #100	@ 0x64
   21dfa:	9004      	str	r0, [sp, #16]
   21dfc:	a805      	add	r0, sp, #20
   21dfe:	2402      	movs	r4, #2
   21e00:	7004      	strb	r4, [r0, #0]
   21e02:	1c46      	adds	r6, r0, #1
   21e04:	221e      	movs	r2, #30
   21e06:	9203      	str	r2, [sp, #12]
   21e08:	4630      	mov	r0, r6
   21e0a:	f008 fbb7 	bl	2a57c <__aeabi_memcpy>
   21e0e:	ad0d      	add	r5, sp, #52	@ 0x34
   21e10:	1c68      	adds	r0, r5, #1
   21e12:	212c      	movs	r1, #44	@ 0x2c
   21e14:	9002      	str	r0, [sp, #8]
   21e16:	f008 f9f1 	bl	2a1fc <__aeabi_memclr>
   21e1a:	9401      	str	r4, [sp, #4]
   21e1c:	702c      	strb	r4, [r5, #0]
   21e1e:	483f      	ldr	r0, [pc, #252]	@ (21f1c <_ZN20complex_dynamic_type3app17h4a8007f520d0b27dE+0x128>)
   21e20:	2107      	movs	r1, #7
   21e22:	4632      	mov	r2, r6
   21e24:	9b03      	ldr	r3, [sp, #12]
   21e26:	df04      	svc	4
   21e28:	2802      	cmp	r0, #2
   21e2a:	d104      	bne.n	21e36 <_ZN20complex_dynamic_type3app17h4a8007f520d0b27dE+0x42>
   21e2c:	2001      	movs	r0, #1
   21e2e:	9a04      	ldr	r2, [sp, #16]
   21e30:	7010      	strb	r0, [r2, #0]
   21e32:	6051      	str	r1, [r2, #4]
   21e34:	e02d      	b.n	21e92 <_ZN20complex_dynamic_type3app17h4a8007f520d0b27dE+0x9e>
   21e36:	9d04      	ldr	r5, [sp, #16]
   21e38:	a805      	add	r0, sp, #20
   21e3a:	2104      	movs	r1, #4
   21e3c:	7001      	strb	r1, [r0, #0]
   21e3e:	4837      	ldr	r0, [pc, #220]	@ (21f1c <_ZN20complex_dynamic_type3app17h4a8007f520d0b27dE+0x128>)
   21e40:	2100      	movs	r1, #0
   21e42:	232c      	movs	r3, #44	@ 0x2c
   21e44:	9c02      	ldr	r4, [sp, #8]
   21e46:	4622      	mov	r2, r4
   21e48:	df03      	svc	3
   21e4a:	2802      	cmp	r0, #2
   21e4c:	d10e      	bne.n	21e6c <_ZN20complex_dynamic_type3app17h4a8007f520d0b27dE+0x78>
   21e4e:	2001      	movs	r0, #1
   21e50:	7028      	strb	r0, [r5, #0]
   21e52:	6069      	str	r1, [r5, #4]
   21e54:	a80d      	add	r0, sp, #52	@ 0x34
   21e56:	7800      	ldrb	r0, [r0, #0]
   21e58:	2802      	cmp	r0, #2
   21e5a:	d01a      	beq.n	21e92 <_ZN20complex_dynamic_type3app17h4a8007f520d0b27dE+0x9e>
   21e5c:	2803      	cmp	r0, #3
   21e5e:	d013      	beq.n	21e88 <_ZN20complex_dynamic_type3app17h4a8007f520d0b27dE+0x94>
   21e60:	482e      	ldr	r0, [pc, #184]	@ (21f1c <_ZN20complex_dynamic_type3app17h4a8007f520d0b27dE+0x128>)
   21e62:	2100      	movs	r1, #0
   21e64:	460a      	mov	r2, r1
   21e66:	460b      	mov	r3, r1
   21e68:	df04      	svc	4
   21e6a:	e012      	b.n	21e92 <_ZN20complex_dynamic_type3app17h4a8007f520d0b27dE+0x9e>
   21e6c:	a80d      	add	r0, sp, #52	@ 0x34
   21e6e:	2103      	movs	r1, #3
   21e70:	7001      	strb	r1, [r0, #0]
   21e72:	482a      	ldr	r0, [pc, #168]	@ (21f1c <_ZN20complex_dynamic_type3app17h4a8007f520d0b27dE+0x128>)
   21e74:	2107      	movs	r1, #7
   21e76:	2600      	movs	r6, #0
   21e78:	4632      	mov	r2, r6
   21e7a:	4633      	mov	r3, r6
   21e7c:	df02      	svc	2
   21e7e:	287f      	cmp	r0, #127	@ 0x7f
   21e80:	d816      	bhi.n	21eb0 <_ZN20complex_dynamic_type3app17h4a8007f520d0b27dE+0xbc>
   21e82:	2001      	movs	r0, #1
   21e84:	7028      	strb	r0, [r5, #0]
   21e86:	6069      	str	r1, [r5, #4]
   21e88:	4824      	ldr	r0, [pc, #144]	@ (21f1c <_ZN20complex_dynamic_type3app17h4a8007f520d0b27dE+0x128>)
   21e8a:	2100      	movs	r1, #0
   21e8c:	460a      	mov	r2, r1
   21e8e:	460b      	mov	r3, r1
   21e90:	df03      	svc	3
   21e92:	a805      	add	r0, sp, #20
   21e94:	7804      	ldrb	r4, [r0, #0]
   21e96:	2c02      	cmp	r4, #2
   21e98:	d008      	beq.n	21eac <_ZN20complex_dynamic_type3app17h4a8007f520d0b27dE+0xb8>
   21e9a:	4820      	ldr	r0, [pc, #128]	@ (21f1c <_ZN20complex_dynamic_type3app17h4a8007f520d0b27dE+0x128>)
   21e9c:	2107      	movs	r1, #7
   21e9e:	2200      	movs	r2, #0
   21ea0:	4613      	mov	r3, r2
   21ea2:	2c03      	cmp	r4, #3
   21ea4:	d101      	bne.n	21eaa <_ZN20complex_dynamic_type3app17h4a8007f520d0b27dE+0xb6>
   21ea6:	df03      	svc	3
   21ea8:	e000      	b.n	21eac <_ZN20complex_dynamic_type3app17h4a8007f520d0b27dE+0xb8>
   21eaa:	df04      	svc	4
   21eac:	b019      	add	sp, #100	@ 0x64
   21eae:	bdf0      	pop	{r4, r5, r6, r7, pc}
   21eb0:	a805      	add	r0, sp, #20
   21eb2:	7800      	ldrb	r0, [r0, #0]
   21eb4:	2802      	cmp	r0, #2
   21eb6:	d01c      	beq.n	21ef2 <_ZN20complex_dynamic_type3app17h4a8007f520d0b27dE+0xfe>
   21eb8:	2803      	cmp	r0, #3
   21eba:	d105      	bne.n	21ec8 <_ZN20complex_dynamic_type3app17h4a8007f520d0b27dE+0xd4>
   21ebc:	4817      	ldr	r0, [pc, #92]	@ (21f1c <_ZN20complex_dynamic_type3app17h4a8007f520d0b27dE+0x128>)
   21ebe:	2107      	movs	r1, #7
   21ec0:	2200      	movs	r2, #0
   21ec2:	4613      	mov	r3, r2
   21ec4:	df03      	svc	3
   21ec6:	e004      	b.n	21ed2 <_ZN20complex_dynamic_type3app17h4a8007f520d0b27dE+0xde>
   21ec8:	4814      	ldr	r0, [pc, #80]	@ (21f1c <_ZN20complex_dynamic_type3app17h4a8007f520d0b27dE+0x128>)
   21eca:	2107      	movs	r1, #7
   21ecc:	2200      	movs	r2, #0
   21ece:	4613      	mov	r3, r2
   21ed0:	df04      	svc	4
   21ed2:	a805      	add	r0, sp, #20
   21ed4:	9901      	ldr	r1, [sp, #4]
   21ed6:	7001      	strb	r1, [r0, #0]
   21ed8:	a80d      	add	r0, sp, #52	@ 0x34
   21eda:	7800      	ldrb	r0, [r0, #0]
   21edc:	2803      	cmp	r0, #3
   21ede:	d008      	beq.n	21ef2 <_ZN20complex_dynamic_type3app17h4a8007f520d0b27dE+0xfe>
   21ee0:	2802      	cmp	r0, #2
   21ee2:	d10c      	bne.n	21efe <_ZN20complex_dynamic_type3app17h4a8007f520d0b27dE+0x10a>
   21ee4:	1c68      	adds	r0, r5, #1
   21ee6:	222c      	movs	r2, #44	@ 0x2c
   21ee8:	4621      	mov	r1, r4
   21eea:	f008 fb47 	bl	2a57c <__aeabi_memcpy>
   21eee:	702e      	strb	r6, [r5, #0]
   21ef0:	e7dc      	b.n	21eac <_ZN20complex_dynamic_type3app17h4a8007f520d0b27dE+0xb8>
   21ef2:	480a      	ldr	r0, [pc, #40]	@ (21f1c <_ZN20complex_dynamic_type3app17h4a8007f520d0b27dE+0x128>)
   21ef4:	2100      	movs	r1, #0
   21ef6:	460a      	mov	r2, r1
   21ef8:	460b      	mov	r3, r1
   21efa:	df03      	svc	3
   21efc:	e004      	b.n	21f08 <_ZN20complex_dynamic_type3app17h4a8007f520d0b27dE+0x114>
   21efe:	4807      	ldr	r0, [pc, #28]	@ (21f1c <_ZN20complex_dynamic_type3app17h4a8007f520d0b27dE+0x128>)
   21f00:	2100      	movs	r1, #0
   21f02:	460a      	mov	r2, r1
   21f04:	460b      	mov	r3, r1
   21f06:	df04      	svc	4
   21f08:	a805      	add	r0, sp, #20
   21f0a:	7804      	ldrb	r4, [r0, #0]
   21f0c:	1c68      	adds	r0, r5, #1
   21f0e:	222c      	movs	r2, #44	@ 0x2c
   21f10:	9902      	ldr	r1, [sp, #8]
   21f12:	f008 fb33 	bl	2a57c <__aeabi_memcpy>
   21f16:	702e      	strb	r6, [r5, #0]
   21f18:	e7bd      	b.n	21e96 <_ZN20complex_dynamic_type3app17h4a8007f520d0b27dE+0xa2>
   21f1a:	46c0      	nop			@ (mov r8, r8)
   21f1c:	000003fb 	.word	0x000003fb

00021f20 <_ZN20complex_dynamic_type3app17h4aed087ed72ac959E>:
   21f20:	b5f0      	push	{r4, r5, r6, r7, lr}
   21f22:	af03      	add	r7, sp, #12
   21f24:	b0a5      	sub	sp, #148	@ 0x94
   21f26:	9003      	str	r0, [sp, #12]
   21f28:	a804      	add	r0, sp, #16
   21f2a:	2602      	movs	r6, #2
   21f2c:	7006      	strb	r6, [r0, #0]
   21f2e:	1c40      	adds	r0, r0, #1
   21f30:	9002      	str	r0, [sp, #8]
   21f32:	252d      	movs	r5, #45	@ 0x2d
   21f34:	462a      	mov	r2, r5
   21f36:	f008 fb21 	bl	2a57c <__aeabi_memcpy>
   21f3a:	ac10      	add	r4, sp, #64	@ 0x40
   21f3c:	1c60      	adds	r0, r4, #1
   21f3e:	2153      	movs	r1, #83	@ 0x53
   21f40:	9001      	str	r0, [sp, #4]
   21f42:	f008 f95b 	bl	2a1fc <__aeabi_memclr>
   21f46:	7026      	strb	r6, [r4, #0]
   21f48:	4841      	ldr	r0, [pc, #260]	@ (22050 <_ZN20complex_dynamic_type3app17h4aed087ed72ac959E+0x130>)
   21f4a:	4631      	mov	r1, r6
   21f4c:	9a02      	ldr	r2, [sp, #8]
   21f4e:	462b      	mov	r3, r5
   21f50:	df04      	svc	4
   21f52:	2802      	cmp	r0, #2
   21f54:	d104      	bne.n	21f60 <_ZN20complex_dynamic_type3app17h4aed087ed72ac959E+0x40>
   21f56:	2001      	movs	r0, #1
   21f58:	9a03      	ldr	r2, [sp, #12]
   21f5a:	7010      	strb	r0, [r2, #0]
   21f5c:	6051      	str	r1, [r2, #4]
   21f5e:	e02e      	b.n	21fbe <_ZN20complex_dynamic_type3app17h4aed087ed72ac959E+0x9e>
   21f60:	9c03      	ldr	r4, [sp, #12]
   21f62:	a804      	add	r0, sp, #16
   21f64:	2104      	movs	r1, #4
   21f66:	7001      	strb	r1, [r0, #0]
   21f68:	4839      	ldr	r0, [pc, #228]	@ (22050 <_ZN20complex_dynamic_type3app17h4aed087ed72ac959E+0x130>)
   21f6a:	2107      	movs	r1, #7
   21f6c:	2353      	movs	r3, #83	@ 0x53
   21f6e:	9d01      	ldr	r5, [sp, #4]
   21f70:	462a      	mov	r2, r5
   21f72:	df03      	svc	3
   21f74:	2802      	cmp	r0, #2
   21f76:	d10e      	bne.n	21f96 <_ZN20complex_dynamic_type3app17h4aed087ed72ac959E+0x76>
   21f78:	2001      	movs	r0, #1
   21f7a:	7020      	strb	r0, [r4, #0]
   21f7c:	6061      	str	r1, [r4, #4]
   21f7e:	a810      	add	r0, sp, #64	@ 0x40
   21f80:	7800      	ldrb	r0, [r0, #0]
   21f82:	2802      	cmp	r0, #2
   21f84:	d01b      	beq.n	21fbe <_ZN20complex_dynamic_type3app17h4aed087ed72ac959E+0x9e>
   21f86:	2803      	cmp	r0, #3
   21f88:	d014      	beq.n	21fb4 <_ZN20complex_dynamic_type3app17h4aed087ed72ac959E+0x94>
   21f8a:	4831      	ldr	r0, [pc, #196]	@ (22050 <_ZN20complex_dynamic_type3app17h4aed087ed72ac959E+0x130>)
   21f8c:	2107      	movs	r1, #7
   21f8e:	2200      	movs	r2, #0
   21f90:	4613      	mov	r3, r2
   21f92:	df04      	svc	4
   21f94:	e013      	b.n	21fbe <_ZN20complex_dynamic_type3app17h4aed087ed72ac959E+0x9e>
   21f96:	a810      	add	r0, sp, #64	@ 0x40
   21f98:	2103      	movs	r1, #3
   21f9a:	7001      	strb	r1, [r0, #0]
   21f9c:	482c      	ldr	r0, [pc, #176]	@ (22050 <_ZN20complex_dynamic_type3app17h4aed087ed72ac959E+0x130>)
   21f9e:	2602      	movs	r6, #2
   21fa0:	2207      	movs	r2, #7
   21fa2:	2300      	movs	r3, #0
   21fa4:	4631      	mov	r1, r6
   21fa6:	9302      	str	r3, [sp, #8]
   21fa8:	df02      	svc	2
   21faa:	287f      	cmp	r0, #127	@ 0x7f
   21fac:	d816      	bhi.n	21fdc <_ZN20complex_dynamic_type3app17h4aed087ed72ac959E+0xbc>
   21fae:	2001      	movs	r0, #1
   21fb0:	7020      	strb	r0, [r4, #0]
   21fb2:	6061      	str	r1, [r4, #4]
   21fb4:	4826      	ldr	r0, [pc, #152]	@ (22050 <_ZN20complex_dynamic_type3app17h4aed087ed72ac959E+0x130>)
   21fb6:	2107      	movs	r1, #7
   21fb8:	2200      	movs	r2, #0
   21fba:	4613      	mov	r3, r2
   21fbc:	df03      	svc	3
   21fbe:	a804      	add	r0, sp, #16
   21fc0:	7804      	ldrb	r4, [r0, #0]
   21fc2:	2c02      	cmp	r4, #2
   21fc4:	d008      	beq.n	21fd8 <_ZN20complex_dynamic_type3app17h4aed087ed72ac959E+0xb8>
   21fc6:	4822      	ldr	r0, [pc, #136]	@ (22050 <_ZN20complex_dynamic_type3app17h4aed087ed72ac959E+0x130>)
   21fc8:	2102      	movs	r1, #2
   21fca:	2200      	movs	r2, #0
   21fcc:	4613      	mov	r3, r2
   21fce:	2c03      	cmp	r4, #3
   21fd0:	d101      	bne.n	21fd6 <_ZN20complex_dynamic_type3app17h4aed087ed72ac959E+0xb6>
   21fd2:	df03      	svc	3
   21fd4:	e000      	b.n	21fd8 <_ZN20complex_dynamic_type3app17h4aed087ed72ac959E+0xb8>
   21fd6:	df04      	svc	4
   21fd8:	b025      	add	sp, #148	@ 0x94
   21fda:	bdf0      	pop	{r4, r5, r6, r7, pc}
   21fdc:	a804      	add	r0, sp, #16
   21fde:	7800      	ldrb	r0, [r0, #0]
   21fe0:	2802      	cmp	r0, #2
   21fe2:	d01c      	beq.n	2201e <_ZN20complex_dynamic_type3app17h4aed087ed72ac959E+0xfe>
   21fe4:	2803      	cmp	r0, #3
   21fe6:	d105      	bne.n	21ff4 <_ZN20complex_dynamic_type3app17h4aed087ed72ac959E+0xd4>
   21fe8:	4819      	ldr	r0, [pc, #100]	@ (22050 <_ZN20complex_dynamic_type3app17h4aed087ed72ac959E+0x130>)
   21fea:	2102      	movs	r1, #2
   21fec:	2200      	movs	r2, #0
   21fee:	4613      	mov	r3, r2
   21ff0:	df03      	svc	3
   21ff2:	e004      	b.n	21ffe <_ZN20complex_dynamic_type3app17h4aed087ed72ac959E+0xde>
   21ff4:	4816      	ldr	r0, [pc, #88]	@ (22050 <_ZN20complex_dynamic_type3app17h4aed087ed72ac959E+0x130>)
   21ff6:	2102      	movs	r1, #2
   21ff8:	2200      	movs	r2, #0
   21ffa:	4613      	mov	r3, r2
   21ffc:	df04      	svc	4
   21ffe:	a804      	add	r0, sp, #16
   22000:	7006      	strb	r6, [r0, #0]
   22002:	a810      	add	r0, sp, #64	@ 0x40
   22004:	7800      	ldrb	r0, [r0, #0]
   22006:	2803      	cmp	r0, #3
   22008:	d009      	beq.n	2201e <_ZN20complex_dynamic_type3app17h4aed087ed72ac959E+0xfe>
   2200a:	2802      	cmp	r0, #2
   2200c:	d10e      	bne.n	2202c <_ZN20complex_dynamic_type3app17h4aed087ed72ac959E+0x10c>
   2200e:	1c60      	adds	r0, r4, #1
   22010:	2253      	movs	r2, #83	@ 0x53
   22012:	4629      	mov	r1, r5
   22014:	f008 fab2 	bl	2a57c <__aeabi_memcpy>
   22018:	9802      	ldr	r0, [sp, #8]
   2201a:	7020      	strb	r0, [r4, #0]
   2201c:	e7dc      	b.n	21fd8 <_ZN20complex_dynamic_type3app17h4aed087ed72ac959E+0xb8>
   2201e:	462e      	mov	r6, r5
   22020:	480b      	ldr	r0, [pc, #44]	@ (22050 <_ZN20complex_dynamic_type3app17h4aed087ed72ac959E+0x130>)
   22022:	2107      	movs	r1, #7
   22024:	2200      	movs	r2, #0
   22026:	4613      	mov	r3, r2
   22028:	df03      	svc	3
   2202a:	e005      	b.n	22038 <_ZN20complex_dynamic_type3app17h4aed087ed72ac959E+0x118>
   2202c:	462e      	mov	r6, r5
   2202e:	4808      	ldr	r0, [pc, #32]	@ (22050 <_ZN20complex_dynamic_type3app17h4aed087ed72ac959E+0x130>)
   22030:	2107      	movs	r1, #7
   22032:	2200      	movs	r2, #0
   22034:	4613      	mov	r3, r2
   22036:	df04      	svc	4
   22038:	4625      	mov	r5, r4
   2203a:	a804      	add	r0, sp, #16
   2203c:	7804      	ldrb	r4, [r0, #0]
   2203e:	1c68      	adds	r0, r5, #1
   22040:	2253      	movs	r2, #83	@ 0x53
   22042:	4631      	mov	r1, r6
   22044:	f008 fa9a 	bl	2a57c <__aeabi_memcpy>
   22048:	9802      	ldr	r0, [sp, #8]
   2204a:	7028      	strb	r0, [r5, #0]
   2204c:	e7b9      	b.n	21fc2 <_ZN20complex_dynamic_type3app17h4aed087ed72ac959E+0xa2>
   2204e:	46c0      	nop			@ (mov r8, r8)
   22050:	00000ec3 	.word	0x00000ec3

00022054 <_ZN20complex_dynamic_type3app17h4c4e52a9af1b8fe4E>:
   22054:	b5f0      	push	{r4, r5, r6, r7, lr}
   22056:	af03      	add	r7, sp, #12
   22058:	b09b      	sub	sp, #108	@ 0x6c
   2205a:	9004      	str	r0, [sp, #16]
   2205c:	a805      	add	r0, sp, #20
   2205e:	2402      	movs	r4, #2
   22060:	7004      	strb	r4, [r0, #0]
   22062:	1c46      	adds	r6, r0, #1
   22064:	2224      	movs	r2, #36	@ 0x24
   22066:	9203      	str	r2, [sp, #12]
   22068:	4630      	mov	r0, r6
   2206a:	f008 fa87 	bl	2a57c <__aeabi_memcpy>
   2206e:	ad0f      	add	r5, sp, #60	@ 0x3c
   22070:	1c68      	adds	r0, r5, #1
   22072:	212f      	movs	r1, #47	@ 0x2f
   22074:	9002      	str	r0, [sp, #8]
   22076:	f008 f8c1 	bl	2a1fc <__aeabi_memclr>
   2207a:	9401      	str	r4, [sp, #4]
   2207c:	702c      	strb	r4, [r5, #0]
   2207e:	483f      	ldr	r0, [pc, #252]	@ (2217c <_ZN20complex_dynamic_type3app17h4c4e52a9af1b8fe4E+0x128>)
   22080:	2106      	movs	r1, #6
   22082:	4632      	mov	r2, r6
   22084:	9b03      	ldr	r3, [sp, #12]
   22086:	df04      	svc	4
   22088:	2802      	cmp	r0, #2
   2208a:	d104      	bne.n	22096 <_ZN20complex_dynamic_type3app17h4c4e52a9af1b8fe4E+0x42>
   2208c:	2001      	movs	r0, #1
   2208e:	9a04      	ldr	r2, [sp, #16]
   22090:	7010      	strb	r0, [r2, #0]
   22092:	6051      	str	r1, [r2, #4]
   22094:	e02d      	b.n	220f2 <_ZN20complex_dynamic_type3app17h4c4e52a9af1b8fe4E+0x9e>
   22096:	9d04      	ldr	r5, [sp, #16]
   22098:	a805      	add	r0, sp, #20
   2209a:	2104      	movs	r1, #4
   2209c:	7001      	strb	r1, [r0, #0]
   2209e:	4837      	ldr	r0, [pc, #220]	@ (2217c <_ZN20complex_dynamic_type3app17h4c4e52a9af1b8fe4E+0x128>)
   220a0:	2109      	movs	r1, #9
   220a2:	232f      	movs	r3, #47	@ 0x2f
   220a4:	9c02      	ldr	r4, [sp, #8]
   220a6:	4622      	mov	r2, r4
   220a8:	df03      	svc	3
   220aa:	2802      	cmp	r0, #2
   220ac:	d10e      	bne.n	220cc <_ZN20complex_dynamic_type3app17h4c4e52a9af1b8fe4E+0x78>
   220ae:	2001      	movs	r0, #1
   220b0:	7028      	strb	r0, [r5, #0]
   220b2:	6069      	str	r1, [r5, #4]
   220b4:	a80f      	add	r0, sp, #60	@ 0x3c
   220b6:	7800      	ldrb	r0, [r0, #0]
   220b8:	2802      	cmp	r0, #2
   220ba:	d01a      	beq.n	220f2 <_ZN20complex_dynamic_type3app17h4c4e52a9af1b8fe4E+0x9e>
   220bc:	2803      	cmp	r0, #3
   220be:	d013      	beq.n	220e8 <_ZN20complex_dynamic_type3app17h4c4e52a9af1b8fe4E+0x94>
   220c0:	482e      	ldr	r0, [pc, #184]	@ (2217c <_ZN20complex_dynamic_type3app17h4c4e52a9af1b8fe4E+0x128>)
   220c2:	2109      	movs	r1, #9
   220c4:	2200      	movs	r2, #0
   220c6:	4613      	mov	r3, r2
   220c8:	df04      	svc	4
   220ca:	e012      	b.n	220f2 <_ZN20complex_dynamic_type3app17h4c4e52a9af1b8fe4E+0x9e>
   220cc:	a80f      	add	r0, sp, #60	@ 0x3c
   220ce:	2103      	movs	r1, #3
   220d0:	7001      	strb	r1, [r0, #0]
   220d2:	482a      	ldr	r0, [pc, #168]	@ (2217c <_ZN20complex_dynamic_type3app17h4c4e52a9af1b8fe4E+0x128>)
   220d4:	2106      	movs	r1, #6
   220d6:	2209      	movs	r2, #9
   220d8:	2600      	movs	r6, #0
   220da:	4633      	mov	r3, r6
   220dc:	df02      	svc	2
   220de:	287f      	cmp	r0, #127	@ 0x7f
   220e0:	d816      	bhi.n	22110 <_ZN20complex_dynamic_type3app17h4c4e52a9af1b8fe4E+0xbc>
   220e2:	2001      	movs	r0, #1
   220e4:	7028      	strb	r0, [r5, #0]
   220e6:	6069      	str	r1, [r5, #4]
   220e8:	4824      	ldr	r0, [pc, #144]	@ (2217c <_ZN20complex_dynamic_type3app17h4c4e52a9af1b8fe4E+0x128>)
   220ea:	2109      	movs	r1, #9
   220ec:	2200      	movs	r2, #0
   220ee:	4613      	mov	r3, r2
   220f0:	df03      	svc	3
   220f2:	a805      	add	r0, sp, #20
   220f4:	7804      	ldrb	r4, [r0, #0]
   220f6:	2c02      	cmp	r4, #2
   220f8:	d008      	beq.n	2210c <_ZN20complex_dynamic_type3app17h4c4e52a9af1b8fe4E+0xb8>
   220fa:	4820      	ldr	r0, [pc, #128]	@ (2217c <_ZN20complex_dynamic_type3app17h4c4e52a9af1b8fe4E+0x128>)
   220fc:	2106      	movs	r1, #6
   220fe:	2200      	movs	r2, #0
   22100:	4613      	mov	r3, r2
   22102:	2c03      	cmp	r4, #3
   22104:	d101      	bne.n	2210a <_ZN20complex_dynamic_type3app17h4c4e52a9af1b8fe4E+0xb6>
   22106:	df03      	svc	3
   22108:	e000      	b.n	2210c <_ZN20complex_dynamic_type3app17h4c4e52a9af1b8fe4E+0xb8>
   2210a:	df04      	svc	4
   2210c:	b01b      	add	sp, #108	@ 0x6c
   2210e:	bdf0      	pop	{r4, r5, r6, r7, pc}
   22110:	a805      	add	r0, sp, #20
   22112:	7800      	ldrb	r0, [r0, #0]
   22114:	2802      	cmp	r0, #2
   22116:	d01c      	beq.n	22152 <_ZN20complex_dynamic_type3app17h4c4e52a9af1b8fe4E+0xfe>
   22118:	2803      	cmp	r0, #3
   2211a:	d105      	bne.n	22128 <_ZN20complex_dynamic_type3app17h4c4e52a9af1b8fe4E+0xd4>
   2211c:	4817      	ldr	r0, [pc, #92]	@ (2217c <_ZN20complex_dynamic_type3app17h4c4e52a9af1b8fe4E+0x128>)
   2211e:	2106      	movs	r1, #6
   22120:	2200      	movs	r2, #0
   22122:	4613      	mov	r3, r2
   22124:	df03      	svc	3
   22126:	e004      	b.n	22132 <_ZN20complex_dynamic_type3app17h4c4e52a9af1b8fe4E+0xde>
   22128:	4814      	ldr	r0, [pc, #80]	@ (2217c <_ZN20complex_dynamic_type3app17h4c4e52a9af1b8fe4E+0x128>)
   2212a:	2106      	movs	r1, #6
   2212c:	2200      	movs	r2, #0
   2212e:	4613      	mov	r3, r2
   22130:	df04      	svc	4
   22132:	a805      	add	r0, sp, #20
   22134:	9901      	ldr	r1, [sp, #4]
   22136:	7001      	strb	r1, [r0, #0]
   22138:	a80f      	add	r0, sp, #60	@ 0x3c
   2213a:	7800      	ldrb	r0, [r0, #0]
   2213c:	2803      	cmp	r0, #3
   2213e:	d008      	beq.n	22152 <_ZN20complex_dynamic_type3app17h4c4e52a9af1b8fe4E+0xfe>
   22140:	2802      	cmp	r0, #2
   22142:	d10c      	bne.n	2215e <_ZN20complex_dynamic_type3app17h4c4e52a9af1b8fe4E+0x10a>
   22144:	1c68      	adds	r0, r5, #1
   22146:	222f      	movs	r2, #47	@ 0x2f
   22148:	4621      	mov	r1, r4
   2214a:	f008 fa17 	bl	2a57c <__aeabi_memcpy>
   2214e:	702e      	strb	r6, [r5, #0]
   22150:	e7dc      	b.n	2210c <_ZN20complex_dynamic_type3app17h4c4e52a9af1b8fe4E+0xb8>
   22152:	480a      	ldr	r0, [pc, #40]	@ (2217c <_ZN20complex_dynamic_type3app17h4c4e52a9af1b8fe4E+0x128>)
   22154:	2109      	movs	r1, #9
   22156:	2200      	movs	r2, #0
   22158:	4613      	mov	r3, r2
   2215a:	df03      	svc	3
   2215c:	e004      	b.n	22168 <_ZN20complex_dynamic_type3app17h4c4e52a9af1b8fe4E+0x114>
   2215e:	4807      	ldr	r0, [pc, #28]	@ (2217c <_ZN20complex_dynamic_type3app17h4c4e52a9af1b8fe4E+0x128>)
   22160:	2109      	movs	r1, #9
   22162:	2200      	movs	r2, #0
   22164:	4613      	mov	r3, r2
   22166:	df04      	svc	4
   22168:	a805      	add	r0, sp, #20
   2216a:	7804      	ldrb	r4, [r0, #0]
   2216c:	1c68      	adds	r0, r5, #1
   2216e:	222f      	movs	r2, #47	@ 0x2f
   22170:	9902      	ldr	r1, [sp, #8]
   22172:	f008 fa03 	bl	2a57c <__aeabi_memcpy>
   22176:	702e      	strb	r6, [r5, #0]
   22178:	e7bd      	b.n	220f6 <_ZN20complex_dynamic_type3app17h4c4e52a9af1b8fe4E+0xa2>
   2217a:	46c0      	nop			@ (mov r8, r8)
   2217c:	00001273 	.word	0x00001273

00022180 <_ZN20complex_dynamic_type3app17h4db3087656b3c33aE>:
   22180:	b5f0      	push	{r4, r5, r6, r7, lr}
   22182:	af03      	add	r7, sp, #12
   22184:	b0ad      	sub	sp, #180	@ 0xb4
   22186:	9004      	str	r0, [sp, #16]
   22188:	a805      	add	r0, sp, #20
   2218a:	2402      	movs	r4, #2
   2218c:	7004      	strb	r4, [r0, #0]
   2218e:	1c46      	adds	r6, r0, #1
   22190:	2246      	movs	r2, #70	@ 0x46
   22192:	9203      	str	r2, [sp, #12]
   22194:	4630      	mov	r0, r6
   22196:	f008 f9f1 	bl	2a57c <__aeabi_memcpy>
   2219a:	ad17      	add	r5, sp, #92	@ 0x5c
   2219c:	1c68      	adds	r0, r5, #1
   2219e:	2156      	movs	r1, #86	@ 0x56
   221a0:	9002      	str	r0, [sp, #8]
   221a2:	f008 f82b 	bl	2a1fc <__aeabi_memclr>
   221a6:	9401      	str	r4, [sp, #4]
   221a8:	702c      	strb	r4, [r5, #0]
   221aa:	483e      	ldr	r0, [pc, #248]	@ (222a4 <_ZN20complex_dynamic_type3app17h4db3087656b3c33aE+0x124>)
   221ac:	2107      	movs	r1, #7
   221ae:	4632      	mov	r2, r6
   221b0:	9b03      	ldr	r3, [sp, #12]
   221b2:	df04      	svc	4
   221b4:	2802      	cmp	r0, #2
   221b6:	d104      	bne.n	221c2 <_ZN20complex_dynamic_type3app17h4db3087656b3c33aE+0x42>
   221b8:	2001      	movs	r0, #1
   221ba:	9a04      	ldr	r2, [sp, #16]
   221bc:	7010      	strb	r0, [r2, #0]
   221be:	6051      	str	r1, [r2, #4]
   221c0:	e02c      	b.n	2221c <_ZN20complex_dynamic_type3app17h4db3087656b3c33aE+0x9c>
   221c2:	9d04      	ldr	r5, [sp, #16]
   221c4:	a805      	add	r0, sp, #20
   221c6:	2104      	movs	r1, #4
   221c8:	7001      	strb	r1, [r0, #0]
   221ca:	4836      	ldr	r0, [pc, #216]	@ (222a4 <_ZN20complex_dynamic_type3app17h4db3087656b3c33aE+0x124>)
   221cc:	2403      	movs	r4, #3
   221ce:	2356      	movs	r3, #86	@ 0x56
   221d0:	4621      	mov	r1, r4
   221d2:	9a02      	ldr	r2, [sp, #8]
   221d4:	df03      	svc	3
   221d6:	2802      	cmp	r0, #2
   221d8:	d10e      	bne.n	221f8 <_ZN20complex_dynamic_type3app17h4db3087656b3c33aE+0x78>
   221da:	2001      	movs	r0, #1
   221dc:	7028      	strb	r0, [r5, #0]
   221de:	6069      	str	r1, [r5, #4]
   221e0:	a817      	add	r0, sp, #92	@ 0x5c
   221e2:	7800      	ldrb	r0, [r0, #0]
   221e4:	2802      	cmp	r0, #2
   221e6:	d019      	beq.n	2221c <_ZN20complex_dynamic_type3app17h4db3087656b3c33aE+0x9c>
   221e8:	2803      	cmp	r0, #3
   221ea:	d012      	beq.n	22212 <_ZN20complex_dynamic_type3app17h4db3087656b3c33aE+0x92>
   221ec:	482d      	ldr	r0, [pc, #180]	@ (222a4 <_ZN20complex_dynamic_type3app17h4db3087656b3c33aE+0x124>)
   221ee:	2103      	movs	r1, #3
   221f0:	2200      	movs	r2, #0
   221f2:	4613      	mov	r3, r2
   221f4:	df04      	svc	4
   221f6:	e011      	b.n	2221c <_ZN20complex_dynamic_type3app17h4db3087656b3c33aE+0x9c>
   221f8:	a817      	add	r0, sp, #92	@ 0x5c
   221fa:	7004      	strb	r4, [r0, #0]
   221fc:	4829      	ldr	r0, [pc, #164]	@ (222a4 <_ZN20complex_dynamic_type3app17h4db3087656b3c33aE+0x124>)
   221fe:	2107      	movs	r1, #7
   22200:	2600      	movs	r6, #0
   22202:	4622      	mov	r2, r4
   22204:	4633      	mov	r3, r6
   22206:	df02      	svc	2
   22208:	287f      	cmp	r0, #127	@ 0x7f
   2220a:	d816      	bhi.n	2223a <_ZN20complex_dynamic_type3app17h4db3087656b3c33aE+0xba>
   2220c:	2001      	movs	r0, #1
   2220e:	7028      	strb	r0, [r5, #0]
   22210:	6069      	str	r1, [r5, #4]
   22212:	4824      	ldr	r0, [pc, #144]	@ (222a4 <_ZN20complex_dynamic_type3app17h4db3087656b3c33aE+0x124>)
   22214:	2103      	movs	r1, #3
   22216:	2200      	movs	r2, #0
   22218:	4613      	mov	r3, r2
   2221a:	df03      	svc	3
   2221c:	a805      	add	r0, sp, #20
   2221e:	7804      	ldrb	r4, [r0, #0]
   22220:	2c02      	cmp	r4, #2
   22222:	d008      	beq.n	22236 <_ZN20complex_dynamic_type3app17h4db3087656b3c33aE+0xb6>
   22224:	481f      	ldr	r0, [pc, #124]	@ (222a4 <_ZN20complex_dynamic_type3app17h4db3087656b3c33aE+0x124>)
   22226:	2107      	movs	r1, #7
   22228:	2200      	movs	r2, #0
   2222a:	4613      	mov	r3, r2
   2222c:	2c03      	cmp	r4, #3
   2222e:	d101      	bne.n	22234 <_ZN20complex_dynamic_type3app17h4db3087656b3c33aE+0xb4>
   22230:	df03      	svc	3
   22232:	e000      	b.n	22236 <_ZN20complex_dynamic_type3app17h4db3087656b3c33aE+0xb6>
   22234:	df04      	svc	4
   22236:	b02d      	add	sp, #180	@ 0xb4
   22238:	bdf0      	pop	{r4, r5, r6, r7, pc}
   2223a:	a805      	add	r0, sp, #20
   2223c:	7800      	ldrb	r0, [r0, #0]
   2223e:	2802      	cmp	r0, #2
   22240:	d01c      	beq.n	2227c <_ZN20complex_dynamic_type3app17h4db3087656b3c33aE+0xfc>
   22242:	2803      	cmp	r0, #3
   22244:	d105      	bne.n	22252 <_ZN20complex_dynamic_type3app17h4db3087656b3c33aE+0xd2>
   22246:	4817      	ldr	r0, [pc, #92]	@ (222a4 <_ZN20complex_dynamic_type3app17h4db3087656b3c33aE+0x124>)
   22248:	2107      	movs	r1, #7
   2224a:	2200      	movs	r2, #0
   2224c:	4613      	mov	r3, r2
   2224e:	df03      	svc	3
   22250:	e004      	b.n	2225c <_ZN20complex_dynamic_type3app17h4db3087656b3c33aE+0xdc>
   22252:	4814      	ldr	r0, [pc, #80]	@ (222a4 <_ZN20complex_dynamic_type3app17h4db3087656b3c33aE+0x124>)
   22254:	2107      	movs	r1, #7
   22256:	2200      	movs	r2, #0
   22258:	4613      	mov	r3, r2
   2225a:	df04      	svc	4
   2225c:	9901      	ldr	r1, [sp, #4]
   2225e:	a805      	add	r0, sp, #20
   22260:	7001      	strb	r1, [r0, #0]
   22262:	a817      	add	r0, sp, #92	@ 0x5c
   22264:	7800      	ldrb	r0, [r0, #0]
   22266:	2803      	cmp	r0, #3
   22268:	d008      	beq.n	2227c <_ZN20complex_dynamic_type3app17h4db3087656b3c33aE+0xfc>
   2226a:	2802      	cmp	r0, #2
   2226c:	d10c      	bne.n	22288 <_ZN20complex_dynamic_type3app17h4db3087656b3c33aE+0x108>
   2226e:	1c68      	adds	r0, r5, #1
   22270:	2256      	movs	r2, #86	@ 0x56
   22272:	9902      	ldr	r1, [sp, #8]
   22274:	f008 f982 	bl	2a57c <__aeabi_memcpy>
   22278:	702e      	strb	r6, [r5, #0]
   2227a:	e7dc      	b.n	22236 <_ZN20complex_dynamic_type3app17h4db3087656b3c33aE+0xb6>
   2227c:	4809      	ldr	r0, [pc, #36]	@ (222a4 <_ZN20complex_dynamic_type3app17h4db3087656b3c33aE+0x124>)
   2227e:	2103      	movs	r1, #3
   22280:	2200      	movs	r2, #0
   22282:	4613      	mov	r3, r2
   22284:	df03      	svc	3
   22286:	e004      	b.n	22292 <_ZN20complex_dynamic_type3app17h4db3087656b3c33aE+0x112>
   22288:	4806      	ldr	r0, [pc, #24]	@ (222a4 <_ZN20complex_dynamic_type3app17h4db3087656b3c33aE+0x124>)
   2228a:	2103      	movs	r1, #3
   2228c:	2200      	movs	r2, #0
   2228e:	4613      	mov	r3, r2
   22290:	df04      	svc	4
   22292:	a805      	add	r0, sp, #20
   22294:	7804      	ldrb	r4, [r0, #0]
   22296:	1c68      	adds	r0, r5, #1
   22298:	2256      	movs	r2, #86	@ 0x56
   2229a:	9902      	ldr	r1, [sp, #8]
   2229c:	f008 f96e 	bl	2a57c <__aeabi_memcpy>
   222a0:	702e      	strb	r6, [r5, #0]
   222a2:	e7bd      	b.n	22220 <_ZN20complex_dynamic_type3app17h4db3087656b3c33aE+0xa0>
   222a4:	00001e50 	.word	0x00001e50

000222a8 <_ZN20complex_dynamic_type3app17h53559da16dc74da5E>:
   222a8:	b5f0      	push	{r4, r5, r6, r7, lr}
   222aa:	af03      	add	r7, sp, #12
   222ac:	b0a9      	sub	sp, #164	@ 0xa4
   222ae:	9004      	str	r0, [sp, #16]
   222b0:	a805      	add	r0, sp, #20
   222b2:	2402      	movs	r4, #2
   222b4:	7004      	strb	r4, [r0, #0]
   222b6:	1c46      	adds	r6, r0, #1
   222b8:	222a      	movs	r2, #42	@ 0x2a
   222ba:	9203      	str	r2, [sp, #12]
   222bc:	4630      	mov	r0, r6
   222be:	f008 f95d 	bl	2a57c <__aeabi_memcpy>
   222c2:	ad10      	add	r5, sp, #64	@ 0x40
   222c4:	1c68      	adds	r0, r5, #1
   222c6:	2163      	movs	r1, #99	@ 0x63
   222c8:	9002      	str	r0, [sp, #8]
   222ca:	f007 ff97 	bl	2a1fc <__aeabi_memclr>
   222ce:	9401      	str	r4, [sp, #4]
   222d0:	702c      	strb	r4, [r5, #0]
   222d2:	483f      	ldr	r0, [pc, #252]	@ (223d0 <_ZN20complex_dynamic_type3app17h53559da16dc74da5E+0x128>)
   222d4:	2504      	movs	r5, #4
   222d6:	4629      	mov	r1, r5
   222d8:	4632      	mov	r2, r6
   222da:	9b03      	ldr	r3, [sp, #12]
   222dc:	df04      	svc	4
   222de:	2802      	cmp	r0, #2
   222e0:	d104      	bne.n	222ec <_ZN20complex_dynamic_type3app17h53559da16dc74da5E+0x44>
   222e2:	2001      	movs	r0, #1
   222e4:	9a04      	ldr	r2, [sp, #16]
   222e6:	7010      	strb	r0, [r2, #0]
   222e8:	6051      	str	r1, [r2, #4]
   222ea:	e02c      	b.n	22346 <_ZN20complex_dynamic_type3app17h53559da16dc74da5E+0x9e>
   222ec:	9c04      	ldr	r4, [sp, #16]
   222ee:	a805      	add	r0, sp, #20
   222f0:	7005      	strb	r5, [r0, #0]
   222f2:	4837      	ldr	r0, [pc, #220]	@ (223d0 <_ZN20complex_dynamic_type3app17h53559da16dc74da5E+0x128>)
   222f4:	2100      	movs	r1, #0
   222f6:	2363      	movs	r3, #99	@ 0x63
   222f8:	9a02      	ldr	r2, [sp, #8]
   222fa:	df03      	svc	3
   222fc:	2802      	cmp	r0, #2
   222fe:	d10e      	bne.n	2231e <_ZN20complex_dynamic_type3app17h53559da16dc74da5E+0x76>
   22300:	2001      	movs	r0, #1
   22302:	7020      	strb	r0, [r4, #0]
   22304:	6061      	str	r1, [r4, #4]
   22306:	a810      	add	r0, sp, #64	@ 0x40
   22308:	7800      	ldrb	r0, [r0, #0]
   2230a:	2802      	cmp	r0, #2
   2230c:	d01b      	beq.n	22346 <_ZN20complex_dynamic_type3app17h53559da16dc74da5E+0x9e>
   2230e:	2803      	cmp	r0, #3
   22310:	d014      	beq.n	2233c <_ZN20complex_dynamic_type3app17h53559da16dc74da5E+0x94>
   22312:	482f      	ldr	r0, [pc, #188]	@ (223d0 <_ZN20complex_dynamic_type3app17h53559da16dc74da5E+0x128>)
   22314:	2100      	movs	r1, #0
   22316:	460a      	mov	r2, r1
   22318:	460b      	mov	r3, r1
   2231a:	df04      	svc	4
   2231c:	e013      	b.n	22346 <_ZN20complex_dynamic_type3app17h53559da16dc74da5E+0x9e>
   2231e:	a810      	add	r0, sp, #64	@ 0x40
   22320:	2103      	movs	r1, #3
   22322:	7001      	strb	r1, [r0, #0]
   22324:	482a      	ldr	r0, [pc, #168]	@ (223d0 <_ZN20complex_dynamic_type3app17h53559da16dc74da5E+0x128>)
   22326:	2104      	movs	r1, #4
   22328:	2600      	movs	r6, #0
   2232a:	4632      	mov	r2, r6
   2232c:	4633      	mov	r3, r6
   2232e:	df02      	svc	2
   22330:	287f      	cmp	r0, #127	@ 0x7f
   22332:	4625      	mov	r5, r4
   22334:	d816      	bhi.n	22364 <_ZN20complex_dynamic_type3app17h53559da16dc74da5E+0xbc>
   22336:	2001      	movs	r0, #1
   22338:	7028      	strb	r0, [r5, #0]
   2233a:	6069      	str	r1, [r5, #4]
   2233c:	4824      	ldr	r0, [pc, #144]	@ (223d0 <_ZN20complex_dynamic_type3app17h53559da16dc74da5E+0x128>)
   2233e:	2100      	movs	r1, #0
   22340:	460a      	mov	r2, r1
   22342:	460b      	mov	r3, r1
   22344:	df03      	svc	3
   22346:	a805      	add	r0, sp, #20
   22348:	7804      	ldrb	r4, [r0, #0]
   2234a:	2c02      	cmp	r4, #2
   2234c:	d008      	beq.n	22360 <_ZN20complex_dynamic_type3app17h53559da16dc74da5E+0xb8>
   2234e:	4820      	ldr	r0, [pc, #128]	@ (223d0 <_ZN20complex_dynamic_type3app17h53559da16dc74da5E+0x128>)
   22350:	2104      	movs	r1, #4
   22352:	2200      	movs	r2, #0
   22354:	4613      	mov	r3, r2
   22356:	2c03      	cmp	r4, #3
   22358:	d101      	bne.n	2235e <_ZN20complex_dynamic_type3app17h53559da16dc74da5E+0xb6>
   2235a:	df03      	svc	3
   2235c:	e000      	b.n	22360 <_ZN20complex_dynamic_type3app17h53559da16dc74da5E+0xb8>
   2235e:	df04      	svc	4
   22360:	b029      	add	sp, #164	@ 0xa4
   22362:	bdf0      	pop	{r4, r5, r6, r7, pc}
   22364:	a805      	add	r0, sp, #20
   22366:	7800      	ldrb	r0, [r0, #0]
   22368:	2802      	cmp	r0, #2
   2236a:	d01c      	beq.n	223a6 <_ZN20complex_dynamic_type3app17h53559da16dc74da5E+0xfe>
   2236c:	2803      	cmp	r0, #3
   2236e:	d105      	bne.n	2237c <_ZN20complex_dynamic_type3app17h53559da16dc74da5E+0xd4>
   22370:	4817      	ldr	r0, [pc, #92]	@ (223d0 <_ZN20complex_dynamic_type3app17h53559da16dc74da5E+0x128>)
   22372:	2104      	movs	r1, #4
   22374:	2200      	movs	r2, #0
   22376:	4613      	mov	r3, r2
   22378:	df03      	svc	3
   2237a:	e004      	b.n	22386 <_ZN20complex_dynamic_type3app17h53559da16dc74da5E+0xde>
   2237c:	4814      	ldr	r0, [pc, #80]	@ (223d0 <_ZN20complex_dynamic_type3app17h53559da16dc74da5E+0x128>)
   2237e:	2104      	movs	r1, #4
   22380:	2200      	movs	r2, #0
   22382:	4613      	mov	r3, r2
   22384:	df04      	svc	4
   22386:	9901      	ldr	r1, [sp, #4]
   22388:	a805      	add	r0, sp, #20
   2238a:	7001      	strb	r1, [r0, #0]
   2238c:	a810      	add	r0, sp, #64	@ 0x40
   2238e:	7800      	ldrb	r0, [r0, #0]
   22390:	2803      	cmp	r0, #3
   22392:	d008      	beq.n	223a6 <_ZN20complex_dynamic_type3app17h53559da16dc74da5E+0xfe>
   22394:	2802      	cmp	r0, #2
   22396:	d10c      	bne.n	223b2 <_ZN20complex_dynamic_type3app17h53559da16dc74da5E+0x10a>
   22398:	1c68      	adds	r0, r5, #1
   2239a:	2263      	movs	r2, #99	@ 0x63
   2239c:	9902      	ldr	r1, [sp, #8]
   2239e:	f008 f8ed 	bl	2a57c <__aeabi_memcpy>
   223a2:	702e      	strb	r6, [r5, #0]
   223a4:	e7dc      	b.n	22360 <_ZN20complex_dynamic_type3app17h53559da16dc74da5E+0xb8>
   223a6:	480a      	ldr	r0, [pc, #40]	@ (223d0 <_ZN20complex_dynamic_type3app17h53559da16dc74da5E+0x128>)
   223a8:	2100      	movs	r1, #0
   223aa:	460a      	mov	r2, r1
   223ac:	460b      	mov	r3, r1
   223ae:	df03      	svc	3
   223b0:	e004      	b.n	223bc <_ZN20complex_dynamic_type3app17h53559da16dc74da5E+0x114>
   223b2:	4807      	ldr	r0, [pc, #28]	@ (223d0 <_ZN20complex_dynamic_type3app17h53559da16dc74da5E+0x128>)
   223b4:	2100      	movs	r1, #0
   223b6:	460a      	mov	r2, r1
   223b8:	460b      	mov	r3, r1
   223ba:	df04      	svc	4
   223bc:	a805      	add	r0, sp, #20
   223be:	7804      	ldrb	r4, [r0, #0]
   223c0:	1c68      	adds	r0, r5, #1
   223c2:	2263      	movs	r2, #99	@ 0x63
   223c4:	9902      	ldr	r1, [sp, #8]
   223c6:	f008 f8d9 	bl	2a57c <__aeabi_memcpy>
   223ca:	702e      	strb	r6, [r5, #0]
   223cc:	e7bd      	b.n	2234a <_ZN20complex_dynamic_type3app17h53559da16dc74da5E+0xa2>
   223ce:	46c0      	nop			@ (mov r8, r8)
   223d0:	00001c7c 	.word	0x00001c7c

000223d4 <_ZN20complex_dynamic_type3app17h55311fb61246ae50E>:
   223d4:	b5f0      	push	{r4, r5, r6, r7, lr}
   223d6:	af03      	add	r7, sp, #12
   223d8:	b0a1      	sub	sp, #132	@ 0x84
   223da:	9004      	str	r0, [sp, #16]
   223dc:	a805      	add	r0, sp, #20
   223de:	2402      	movs	r4, #2
   223e0:	7004      	strb	r4, [r0, #0]
   223e2:	1c46      	adds	r6, r0, #1
   223e4:	221a      	movs	r2, #26
   223e6:	9203      	str	r2, [sp, #12]
   223e8:	4630      	mov	r0, r6
   223ea:	f008 f8c7 	bl	2a57c <__aeabi_memcpy>
   223ee:	ad0c      	add	r5, sp, #48	@ 0x30
   223f0:	1c68      	adds	r0, r5, #1
   223f2:	2150      	movs	r1, #80	@ 0x50
   223f4:	9002      	str	r0, [sp, #8]
   223f6:	f007 ff01 	bl	2a1fc <__aeabi_memclr>
   223fa:	9401      	str	r4, [sp, #4]
   223fc:	702c      	strb	r4, [r5, #0]
   223fe:	483e      	ldr	r0, [pc, #248]	@ (224f8 <_ZN20complex_dynamic_type3app17h55311fb61246ae50E+0x124>)
   22400:	2107      	movs	r1, #7
   22402:	4632      	mov	r2, r6
   22404:	9b03      	ldr	r3, [sp, #12]
   22406:	df04      	svc	4
   22408:	2802      	cmp	r0, #2
   2240a:	d104      	bne.n	22416 <_ZN20complex_dynamic_type3app17h55311fb61246ae50E+0x42>
   2240c:	2001      	movs	r0, #1
   2240e:	9a04      	ldr	r2, [sp, #16]
   22410:	7010      	strb	r0, [r2, #0]
   22412:	6051      	str	r1, [r2, #4]
   22414:	e02c      	b.n	22470 <_ZN20complex_dynamic_type3app17h55311fb61246ae50E+0x9c>
   22416:	9d04      	ldr	r5, [sp, #16]
   22418:	a805      	add	r0, sp, #20
   2241a:	2104      	movs	r1, #4
   2241c:	7001      	strb	r1, [r0, #0]
   2241e:	4836      	ldr	r0, [pc, #216]	@ (224f8 <_ZN20complex_dynamic_type3app17h55311fb61246ae50E+0x124>)
   22420:	2350      	movs	r3, #80	@ 0x50
   22422:	9c02      	ldr	r4, [sp, #8]
   22424:	4622      	mov	r2, r4
   22426:	df03      	svc	3
   22428:	2802      	cmp	r0, #2
   2242a:	d10e      	bne.n	2244a <_ZN20complex_dynamic_type3app17h55311fb61246ae50E+0x76>
   2242c:	2001      	movs	r0, #1
   2242e:	7028      	strb	r0, [r5, #0]
   22430:	6069      	str	r1, [r5, #4]
   22432:	a80c      	add	r0, sp, #48	@ 0x30
   22434:	7800      	ldrb	r0, [r0, #0]
   22436:	2802      	cmp	r0, #2
   22438:	d01a      	beq.n	22470 <_ZN20complex_dynamic_type3app17h55311fb61246ae50E+0x9c>
   2243a:	2803      	cmp	r0, #3
   2243c:	d013      	beq.n	22466 <_ZN20complex_dynamic_type3app17h55311fb61246ae50E+0x92>
   2243e:	482e      	ldr	r0, [pc, #184]	@ (224f8 <_ZN20complex_dynamic_type3app17h55311fb61246ae50E+0x124>)
   22440:	2104      	movs	r1, #4
   22442:	2200      	movs	r2, #0
   22444:	4613      	mov	r3, r2
   22446:	df04      	svc	4
   22448:	e012      	b.n	22470 <_ZN20complex_dynamic_type3app17h55311fb61246ae50E+0x9c>
   2244a:	a80c      	add	r0, sp, #48	@ 0x30
   2244c:	2103      	movs	r1, #3
   2244e:	7001      	strb	r1, [r0, #0]
   22450:	4829      	ldr	r0, [pc, #164]	@ (224f8 <_ZN20complex_dynamic_type3app17h55311fb61246ae50E+0x124>)
   22452:	2107      	movs	r1, #7
   22454:	2204      	movs	r2, #4
   22456:	2600      	movs	r6, #0
   22458:	4633      	mov	r3, r6
   2245a:	df02      	svc	2
   2245c:	287f      	cmp	r0, #127	@ 0x7f
   2245e:	d816      	bhi.n	2248e <_ZN20complex_dynamic_type3app17h55311fb61246ae50E+0xba>
   22460:	2001      	movs	r0, #1
   22462:	7028      	strb	r0, [r5, #0]
   22464:	6069      	str	r1, [r5, #4]
   22466:	4824      	ldr	r0, [pc, #144]	@ (224f8 <_ZN20complex_dynamic_type3app17h55311fb61246ae50E+0x124>)
   22468:	2104      	movs	r1, #4
   2246a:	2200      	movs	r2, #0
   2246c:	4613      	mov	r3, r2
   2246e:	df03      	svc	3
   22470:	a805      	add	r0, sp, #20
   22472:	7804      	ldrb	r4, [r0, #0]
   22474:	2c02      	cmp	r4, #2
   22476:	d008      	beq.n	2248a <_ZN20complex_dynamic_type3app17h55311fb61246ae50E+0xb6>
   22478:	481f      	ldr	r0, [pc, #124]	@ (224f8 <_ZN20complex_dynamic_type3app17h55311fb61246ae50E+0x124>)
   2247a:	2107      	movs	r1, #7
   2247c:	2200      	movs	r2, #0
   2247e:	4613      	mov	r3, r2
   22480:	2c03      	cmp	r4, #3
   22482:	d101      	bne.n	22488 <_ZN20complex_dynamic_type3app17h55311fb61246ae50E+0xb4>
   22484:	df03      	svc	3
   22486:	e000      	b.n	2248a <_ZN20complex_dynamic_type3app17h55311fb61246ae50E+0xb6>
   22488:	df04      	svc	4
   2248a:	b021      	add	sp, #132	@ 0x84
   2248c:	bdf0      	pop	{r4, r5, r6, r7, pc}
   2248e:	a805      	add	r0, sp, #20
   22490:	7800      	ldrb	r0, [r0, #0]
   22492:	2802      	cmp	r0, #2
   22494:	d01c      	beq.n	224d0 <_ZN20complex_dynamic_type3app17h55311fb61246ae50E+0xfc>
   22496:	2803      	cmp	r0, #3
   22498:	d105      	bne.n	224a6 <_ZN20complex_dynamic_type3app17h55311fb61246ae50E+0xd2>
   2249a:	4817      	ldr	r0, [pc, #92]	@ (224f8 <_ZN20complex_dynamic_type3app17h55311fb61246ae50E+0x124>)
   2249c:	2107      	movs	r1, #7
   2249e:	2200      	movs	r2, #0
   224a0:	4613      	mov	r3, r2
   224a2:	df03      	svc	3
   224a4:	e004      	b.n	224b0 <_ZN20complex_dynamic_type3app17h55311fb61246ae50E+0xdc>
   224a6:	4814      	ldr	r0, [pc, #80]	@ (224f8 <_ZN20complex_dynamic_type3app17h55311fb61246ae50E+0x124>)
   224a8:	2107      	movs	r1, #7
   224aa:	2200      	movs	r2, #0
   224ac:	4613      	mov	r3, r2
   224ae:	df04      	svc	4
   224b0:	a805      	add	r0, sp, #20
   224b2:	9901      	ldr	r1, [sp, #4]
   224b4:	7001      	strb	r1, [r0, #0]
   224b6:	a80c      	add	r0, sp, #48	@ 0x30
   224b8:	7800      	ldrb	r0, [r0, #0]
   224ba:	2803      	cmp	r0, #3
   224bc:	d008      	beq.n	224d0 <_ZN20complex_dynamic_type3app17h55311fb61246ae50E+0xfc>
   224be:	2802      	cmp	r0, #2
   224c0:	d10c      	bne.n	224dc <_ZN20complex_dynamic_type3app17h55311fb61246ae50E+0x108>
   224c2:	1c68      	adds	r0, r5, #1
   224c4:	2250      	movs	r2, #80	@ 0x50
   224c6:	4621      	mov	r1, r4
   224c8:	f008 f858 	bl	2a57c <__aeabi_memcpy>
   224cc:	702e      	strb	r6, [r5, #0]
   224ce:	e7dc      	b.n	2248a <_ZN20complex_dynamic_type3app17h55311fb61246ae50E+0xb6>
   224d0:	4809      	ldr	r0, [pc, #36]	@ (224f8 <_ZN20complex_dynamic_type3app17h55311fb61246ae50E+0x124>)
   224d2:	2104      	movs	r1, #4
   224d4:	2200      	movs	r2, #0
   224d6:	4613      	mov	r3, r2
   224d8:	df03      	svc	3
   224da:	e004      	b.n	224e6 <_ZN20complex_dynamic_type3app17h55311fb61246ae50E+0x112>
   224dc:	4806      	ldr	r0, [pc, #24]	@ (224f8 <_ZN20complex_dynamic_type3app17h55311fb61246ae50E+0x124>)
   224de:	2104      	movs	r1, #4
   224e0:	2200      	movs	r2, #0
   224e2:	4613      	mov	r3, r2
   224e4:	df04      	svc	4
   224e6:	a805      	add	r0, sp, #20
   224e8:	7804      	ldrb	r4, [r0, #0]
   224ea:	1c68      	adds	r0, r5, #1
   224ec:	2250      	movs	r2, #80	@ 0x50
   224ee:	9902      	ldr	r1, [sp, #8]
   224f0:	f008 f844 	bl	2a57c <__aeabi_memcpy>
   224f4:	702e      	strb	r6, [r5, #0]
   224f6:	e7bd      	b.n	22474 <_ZN20complex_dynamic_type3app17h55311fb61246ae50E+0xa0>
   224f8:	00000aee 	.word	0x00000aee

000224fc <_ZN20complex_dynamic_type3app17h59f8bc91d92f73e0E>:
   224fc:	b5f0      	push	{r4, r5, r6, r7, lr}
   224fe:	af03      	add	r7, sp, #12
   22500:	b0a3      	sub	sp, #140	@ 0x8c
   22502:	9002      	str	r0, [sp, #8]
   22504:	ae03      	add	r6, sp, #12
   22506:	2502      	movs	r5, #2
   22508:	7035      	strb	r5, [r6, #0]
   2250a:	1c70      	adds	r0, r6, #1
   2250c:	221b      	movs	r2, #27
   2250e:	9201      	str	r2, [sp, #4]
   22510:	f008 f834 	bl	2a57c <__aeabi_memcpy>
   22514:	ac0a      	add	r4, sp, #40	@ 0x28
   22516:	1c60      	adds	r0, r4, #1
   22518:	2163      	movs	r1, #99	@ 0x63
   2251a:	9000      	str	r0, [sp, #0]
   2251c:	f007 fe6e 	bl	2a1fc <__aeabi_memclr>
   22520:	7025      	strb	r5, [r4, #0]
   22522:	2204      	movs	r2, #4
   22524:	4630      	mov	r0, r6
   22526:	9901      	ldr	r1, [sp, #4]
   22528:	f7fd fe90 	bl	2024c <_ZN9allow_pin12dynamic_type23Buffer$LT$B$C$_$C$_$GT$5allow17ha4f36bb15a0c4487E>
   2252c:	07c0      	lsls	r0, r0, #31
   2252e:	d10e      	bne.n	2254e <_ZN20complex_dynamic_type3app17h59f8bc91d92f73e0E+0x52>
   22530:	a80a      	add	r0, sp, #40	@ 0x28
   22532:	2163      	movs	r1, #99	@ 0x63
   22534:	2203      	movs	r2, #3
   22536:	f7fd fe89 	bl	2024c <_ZN9allow_pin12dynamic_type23Buffer$LT$B$C$_$C$_$GT$5allow17ha4f36bb15a0c4487E>
   2253a:	07c0      	lsls	r0, r0, #31
   2253c:	d107      	bne.n	2254e <_ZN20complex_dynamic_type3app17h59f8bc91d92f73e0E+0x52>
   2253e:	4831      	ldr	r0, [pc, #196]	@ (22604 <_ZN20complex_dynamic_type3app17h59f8bc91d92f73e0E+0x108>)
   22540:	2103      	movs	r1, #3
   22542:	2600      	movs	r6, #0
   22544:	460a      	mov	r2, r1
   22546:	4633      	mov	r3, r6
   22548:	df02      	svc	2
   2254a:	287f      	cmp	r0, #127	@ 0x7f
   2254c:	d823      	bhi.n	22596 <_ZN20complex_dynamic_type3app17h59f8bc91d92f73e0E+0x9a>
   2254e:	2001      	movs	r0, #1
   22550:	9a02      	ldr	r2, [sp, #8]
   22552:	7010      	strb	r0, [r2, #0]
   22554:	6051      	str	r1, [r2, #4]
   22556:	a80a      	add	r0, sp, #40	@ 0x28
   22558:	7800      	ldrb	r0, [r0, #0]
   2255a:	2802      	cmp	r0, #2
   2255c:	d00c      	beq.n	22578 <_ZN20complex_dynamic_type3app17h59f8bc91d92f73e0E+0x7c>
   2255e:	2803      	cmp	r0, #3
   22560:	d105      	bne.n	2256e <_ZN20complex_dynamic_type3app17h59f8bc91d92f73e0E+0x72>
   22562:	4828      	ldr	r0, [pc, #160]	@ (22604 <_ZN20complex_dynamic_type3app17h59f8bc91d92f73e0E+0x108>)
   22564:	2103      	movs	r1, #3
   22566:	2200      	movs	r2, #0
   22568:	4613      	mov	r3, r2
   2256a:	df03      	svc	3
   2256c:	e004      	b.n	22578 <_ZN20complex_dynamic_type3app17h59f8bc91d92f73e0E+0x7c>
   2256e:	4825      	ldr	r0, [pc, #148]	@ (22604 <_ZN20complex_dynamic_type3app17h59f8bc91d92f73e0E+0x108>)
   22570:	2103      	movs	r1, #3
   22572:	2200      	movs	r2, #0
   22574:	4613      	mov	r3, r2
   22576:	df04      	svc	4
   22578:	a803      	add	r0, sp, #12
   2257a:	7804      	ldrb	r4, [r0, #0]
   2257c:	2c02      	cmp	r4, #2
   2257e:	d008      	beq.n	22592 <_ZN20complex_dynamic_type3app17h59f8bc91d92f73e0E+0x96>
   22580:	4820      	ldr	r0, [pc, #128]	@ (22604 <_ZN20complex_dynamic_type3app17h59f8bc91d92f73e0E+0x108>)
   22582:	2103      	movs	r1, #3
   22584:	2200      	movs	r2, #0
   22586:	4613      	mov	r3, r2
   22588:	2c03      	cmp	r4, #3
   2258a:	d101      	bne.n	22590 <_ZN20complex_dynamic_type3app17h59f8bc91d92f73e0E+0x94>
   2258c:	df03      	svc	3
   2258e:	e000      	b.n	22592 <_ZN20complex_dynamic_type3app17h59f8bc91d92f73e0E+0x96>
   22590:	df04      	svc	4
   22592:	b023      	add	sp, #140	@ 0x8c
   22594:	bdf0      	pop	{r4, r5, r6, r7, pc}
   22596:	a803      	add	r0, sp, #12
   22598:	7800      	ldrb	r0, [r0, #0]
   2259a:	2802      	cmp	r0, #2
   2259c:	d00c      	beq.n	225b8 <_ZN20complex_dynamic_type3app17h59f8bc91d92f73e0E+0xbc>
   2259e:	2803      	cmp	r0, #3
   225a0:	d105      	bne.n	225ae <_ZN20complex_dynamic_type3app17h59f8bc91d92f73e0E+0xb2>
   225a2:	4818      	ldr	r0, [pc, #96]	@ (22604 <_ZN20complex_dynamic_type3app17h59f8bc91d92f73e0E+0x108>)
   225a4:	2103      	movs	r1, #3
   225a6:	2200      	movs	r2, #0
   225a8:	4613      	mov	r3, r2
   225aa:	df03      	svc	3
   225ac:	e004      	b.n	225b8 <_ZN20complex_dynamic_type3app17h59f8bc91d92f73e0E+0xbc>
   225ae:	4815      	ldr	r0, [pc, #84]	@ (22604 <_ZN20complex_dynamic_type3app17h59f8bc91d92f73e0E+0x108>)
   225b0:	2103      	movs	r1, #3
   225b2:	2200      	movs	r2, #0
   225b4:	4613      	mov	r3, r2
   225b6:	df04      	svc	4
   225b8:	a803      	add	r0, sp, #12
   225ba:	7005      	strb	r5, [r0, #0]
   225bc:	a80a      	add	r0, sp, #40	@ 0x28
   225be:	7800      	ldrb	r0, [r0, #0]
   225c0:	2803      	cmp	r0, #3
   225c2:	d009      	beq.n	225d8 <_ZN20complex_dynamic_type3app17h59f8bc91d92f73e0E+0xdc>
   225c4:	2802      	cmp	r0, #2
   225c6:	d10d      	bne.n	225e4 <_ZN20complex_dynamic_type3app17h59f8bc91d92f73e0E+0xe8>
   225c8:	9c02      	ldr	r4, [sp, #8]
   225ca:	1c60      	adds	r0, r4, #1
   225cc:	2263      	movs	r2, #99	@ 0x63
   225ce:	9900      	ldr	r1, [sp, #0]
   225d0:	f007 ffd4 	bl	2a57c <__aeabi_memcpy>
   225d4:	7026      	strb	r6, [r4, #0]
   225d6:	e7dc      	b.n	22592 <_ZN20complex_dynamic_type3app17h59f8bc91d92f73e0E+0x96>
   225d8:	480a      	ldr	r0, [pc, #40]	@ (22604 <_ZN20complex_dynamic_type3app17h59f8bc91d92f73e0E+0x108>)
   225da:	2103      	movs	r1, #3
   225dc:	2200      	movs	r2, #0
   225de:	4613      	mov	r3, r2
   225e0:	df03      	svc	3
   225e2:	e004      	b.n	225ee <_ZN20complex_dynamic_type3app17h59f8bc91d92f73e0E+0xf2>
   225e4:	4807      	ldr	r0, [pc, #28]	@ (22604 <_ZN20complex_dynamic_type3app17h59f8bc91d92f73e0E+0x108>)
   225e6:	2103      	movs	r1, #3
   225e8:	2200      	movs	r2, #0
   225ea:	4613      	mov	r3, r2
   225ec:	df04      	svc	4
   225ee:	a803      	add	r0, sp, #12
   225f0:	7804      	ldrb	r4, [r0, #0]
   225f2:	9d02      	ldr	r5, [sp, #8]
   225f4:	1c68      	adds	r0, r5, #1
   225f6:	2263      	movs	r2, #99	@ 0x63
   225f8:	9900      	ldr	r1, [sp, #0]
   225fa:	f007 ffbf 	bl	2a57c <__aeabi_memcpy>
   225fe:	702e      	strb	r6, [r5, #0]
   22600:	e7bc      	b.n	2257c <_ZN20complex_dynamic_type3app17h59f8bc91d92f73e0E+0x80>
   22602:	46c0      	nop			@ (mov r8, r8)
   22604:	00002548 	.word	0x00002548

00022608 <_ZN20complex_dynamic_type3app17h5ba3ba04678c216dE>:
   22608:	b5f0      	push	{r4, r5, r6, r7, lr}
   2260a:	af03      	add	r7, sp, #12
   2260c:	b0a3      	sub	sp, #140	@ 0x8c
   2260e:	9003      	str	r0, [sp, #12]
   22610:	a804      	add	r0, sp, #16
   22612:	2602      	movs	r6, #2
   22614:	7006      	strb	r6, [r0, #0]
   22616:	1c40      	adds	r0, r0, #1
   22618:	9002      	str	r0, [sp, #8]
   2261a:	254a      	movs	r5, #74	@ 0x4a
   2261c:	462a      	mov	r2, r5
   2261e:	f007 ffad 	bl	2a57c <__aeabi_memcpy>
   22622:	ac17      	add	r4, sp, #92	@ 0x5c
   22624:	1c60      	adds	r0, r4, #1
   22626:	212d      	movs	r1, #45	@ 0x2d
   22628:	9001      	str	r0, [sp, #4]
   2262a:	f007 fde7 	bl	2a1fc <__aeabi_memclr>
   2262e:	7026      	strb	r6, [r4, #0]
   22630:	4841      	ldr	r0, [pc, #260]	@ (22738 <_ZN20complex_dynamic_type3app17h5ba3ba04678c216dE+0x130>)
   22632:	4631      	mov	r1, r6
   22634:	9a02      	ldr	r2, [sp, #8]
   22636:	462b      	mov	r3, r5
   22638:	df04      	svc	4
   2263a:	2802      	cmp	r0, #2
   2263c:	d104      	bne.n	22648 <_ZN20complex_dynamic_type3app17h5ba3ba04678c216dE+0x40>
   2263e:	2001      	movs	r0, #1
   22640:	9a03      	ldr	r2, [sp, #12]
   22642:	7010      	strb	r0, [r2, #0]
   22644:	6051      	str	r1, [r2, #4]
   22646:	e02e      	b.n	226a6 <_ZN20complex_dynamic_type3app17h5ba3ba04678c216dE+0x9e>
   22648:	9d03      	ldr	r5, [sp, #12]
   2264a:	a804      	add	r0, sp, #16
   2264c:	2104      	movs	r1, #4
   2264e:	7001      	strb	r1, [r0, #0]
   22650:	4839      	ldr	r0, [pc, #228]	@ (22738 <_ZN20complex_dynamic_type3app17h5ba3ba04678c216dE+0x130>)
   22652:	2603      	movs	r6, #3
   22654:	232d      	movs	r3, #45	@ 0x2d
   22656:	4631      	mov	r1, r6
   22658:	9c01      	ldr	r4, [sp, #4]
   2265a:	4622      	mov	r2, r4
   2265c:	df03      	svc	3
   2265e:	2802      	cmp	r0, #2
   22660:	d10e      	bne.n	22680 <_ZN20complex_dynamic_type3app17h5ba3ba04678c216dE+0x78>
   22662:	2001      	movs	r0, #1
   22664:	7028      	strb	r0, [r5, #0]
   22666:	6069      	str	r1, [r5, #4]
   22668:	a817      	add	r0, sp, #92	@ 0x5c
   2266a:	7800      	ldrb	r0, [r0, #0]
   2266c:	2802      	cmp	r0, #2
   2266e:	d01a      	beq.n	226a6 <_ZN20complex_dynamic_type3app17h5ba3ba04678c216dE+0x9e>
   22670:	2803      	cmp	r0, #3
   22672:	d013      	beq.n	2269c <_ZN20complex_dynamic_type3app17h5ba3ba04678c216dE+0x94>
   22674:	4830      	ldr	r0, [pc, #192]	@ (22738 <_ZN20complex_dynamic_type3app17h5ba3ba04678c216dE+0x130>)
   22676:	2103      	movs	r1, #3
   22678:	2200      	movs	r2, #0
   2267a:	4613      	mov	r3, r2
   2267c:	df04      	svc	4
   2267e:	e012      	b.n	226a6 <_ZN20complex_dynamic_type3app17h5ba3ba04678c216dE+0x9e>
   22680:	a817      	add	r0, sp, #92	@ 0x5c
   22682:	7006      	strb	r6, [r0, #0]
   22684:	482c      	ldr	r0, [pc, #176]	@ (22738 <_ZN20complex_dynamic_type3app17h5ba3ba04678c216dE+0x130>)
   22686:	2102      	movs	r1, #2
   22688:	2300      	movs	r3, #0
   2268a:	9100      	str	r1, [sp, #0]
   2268c:	4632      	mov	r2, r6
   2268e:	9302      	str	r3, [sp, #8]
   22690:	df02      	svc	2
   22692:	287f      	cmp	r0, #127	@ 0x7f
   22694:	d816      	bhi.n	226c4 <_ZN20complex_dynamic_type3app17h5ba3ba04678c216dE+0xbc>
   22696:	2001      	movs	r0, #1
   22698:	7028      	strb	r0, [r5, #0]
   2269a:	6069      	str	r1, [r5, #4]
   2269c:	4826      	ldr	r0, [pc, #152]	@ (22738 <_ZN20complex_dynamic_type3app17h5ba3ba04678c216dE+0x130>)
   2269e:	2103      	movs	r1, #3
   226a0:	2200      	movs	r2, #0
   226a2:	4613      	mov	r3, r2
   226a4:	df03      	svc	3
   226a6:	a804      	add	r0, sp, #16
   226a8:	7804      	ldrb	r4, [r0, #0]
   226aa:	2c02      	cmp	r4, #2
   226ac:	d008      	beq.n	226c0 <_ZN20complex_dynamic_type3app17h5ba3ba04678c216dE+0xb8>
   226ae:	4822      	ldr	r0, [pc, #136]	@ (22738 <_ZN20complex_dynamic_type3app17h5ba3ba04678c216dE+0x130>)
   226b0:	2102      	movs	r1, #2
   226b2:	2200      	movs	r2, #0
   226b4:	4613      	mov	r3, r2
   226b6:	2c03      	cmp	r4, #3
   226b8:	d101      	bne.n	226be <_ZN20complex_dynamic_type3app17h5ba3ba04678c216dE+0xb6>
   226ba:	df03      	svc	3
   226bc:	e000      	b.n	226c0 <_ZN20complex_dynamic_type3app17h5ba3ba04678c216dE+0xb8>
   226be:	df04      	svc	4
   226c0:	b023      	add	sp, #140	@ 0x8c
   226c2:	bdf0      	pop	{r4, r5, r6, r7, pc}
   226c4:	a804      	add	r0, sp, #16
   226c6:	7800      	ldrb	r0, [r0, #0]
   226c8:	2802      	cmp	r0, #2
   226ca:	d01d      	beq.n	22708 <_ZN20complex_dynamic_type3app17h5ba3ba04678c216dE+0x100>
   226cc:	2803      	cmp	r0, #3
   226ce:	d105      	bne.n	226dc <_ZN20complex_dynamic_type3app17h5ba3ba04678c216dE+0xd4>
   226d0:	4819      	ldr	r0, [pc, #100]	@ (22738 <_ZN20complex_dynamic_type3app17h5ba3ba04678c216dE+0x130>)
   226d2:	2102      	movs	r1, #2
   226d4:	2200      	movs	r2, #0
   226d6:	4613      	mov	r3, r2
   226d8:	df03      	svc	3
   226da:	e004      	b.n	226e6 <_ZN20complex_dynamic_type3app17h5ba3ba04678c216dE+0xde>
   226dc:	4816      	ldr	r0, [pc, #88]	@ (22738 <_ZN20complex_dynamic_type3app17h5ba3ba04678c216dE+0x130>)
   226de:	2102      	movs	r1, #2
   226e0:	2200      	movs	r2, #0
   226e2:	4613      	mov	r3, r2
   226e4:	df04      	svc	4
   226e6:	9900      	ldr	r1, [sp, #0]
   226e8:	a804      	add	r0, sp, #16
   226ea:	7001      	strb	r1, [r0, #0]
   226ec:	a817      	add	r0, sp, #92	@ 0x5c
   226ee:	7800      	ldrb	r0, [r0, #0]
   226f0:	2803      	cmp	r0, #3
   226f2:	d009      	beq.n	22708 <_ZN20complex_dynamic_type3app17h5ba3ba04678c216dE+0x100>
   226f4:	2802      	cmp	r0, #2
   226f6:	d10e      	bne.n	22716 <_ZN20complex_dynamic_type3app17h5ba3ba04678c216dE+0x10e>
   226f8:	1c68      	adds	r0, r5, #1
   226fa:	222d      	movs	r2, #45	@ 0x2d
   226fc:	4621      	mov	r1, r4
   226fe:	f007 ff3d 	bl	2a57c <__aeabi_memcpy>
   22702:	9802      	ldr	r0, [sp, #8]
   22704:	7028      	strb	r0, [r5, #0]
   22706:	e7db      	b.n	226c0 <_ZN20complex_dynamic_type3app17h5ba3ba04678c216dE+0xb8>
   22708:	4626      	mov	r6, r4
   2270a:	480b      	ldr	r0, [pc, #44]	@ (22738 <_ZN20complex_dynamic_type3app17h5ba3ba04678c216dE+0x130>)
   2270c:	2103      	movs	r1, #3
   2270e:	2200      	movs	r2, #0
   22710:	4613      	mov	r3, r2
   22712:	df03      	svc	3
   22714:	e005      	b.n	22722 <_ZN20complex_dynamic_type3app17h5ba3ba04678c216dE+0x11a>
   22716:	4626      	mov	r6, r4
   22718:	4807      	ldr	r0, [pc, #28]	@ (22738 <_ZN20complex_dynamic_type3app17h5ba3ba04678c216dE+0x130>)
   2271a:	2103      	movs	r1, #3
   2271c:	2200      	movs	r2, #0
   2271e:	4613      	mov	r3, r2
   22720:	df04      	svc	4
   22722:	a804      	add	r0, sp, #16
   22724:	7804      	ldrb	r4, [r0, #0]
   22726:	1c68      	adds	r0, r5, #1
   22728:	222d      	movs	r2, #45	@ 0x2d
   2272a:	4631      	mov	r1, r6
   2272c:	f007 ff26 	bl	2a57c <__aeabi_memcpy>
   22730:	9802      	ldr	r0, [sp, #8]
   22732:	7028      	strb	r0, [r5, #0]
   22734:	e7b9      	b.n	226aa <_ZN20complex_dynamic_type3app17h5ba3ba04678c216dE+0xa2>
   22736:	46c0      	nop			@ (mov r8, r8)
   22738:	00000e3d 	.word	0x00000e3d

0002273c <_ZN20complex_dynamic_type3app17h5c3cf3f55452a669E>:
   2273c:	b5f0      	push	{r4, r5, r6, r7, lr}
   2273e:	af03      	add	r7, sp, #12
   22740:	b0a1      	sub	sp, #132	@ 0x84
   22742:	9003      	str	r0, [sp, #12]
   22744:	a804      	add	r0, sp, #16
   22746:	2502      	movs	r5, #2
   22748:	7005      	strb	r5, [r0, #0]
   2274a:	1c46      	adds	r6, r0, #1
   2274c:	225d      	movs	r2, #93	@ 0x5d
   2274e:	9202      	str	r2, [sp, #8]
   22750:	4630      	mov	r0, r6
   22752:	f007 ff13 	bl	2a57c <__aeabi_memcpy>
   22756:	ac1c      	add	r4, sp, #112	@ 0x70
   22758:	1c60      	adds	r0, r4, #1
   2275a:	2112      	movs	r1, #18
   2275c:	9001      	str	r0, [sp, #4]
   2275e:	f007 fd4d 	bl	2a1fc <__aeabi_memclr>
   22762:	7025      	strb	r5, [r4, #0]
   22764:	4841      	ldr	r0, [pc, #260]	@ (2286c <_ZN20complex_dynamic_type3app17h5c3cf3f55452a669E+0x130>)
   22766:	2100      	movs	r1, #0
   22768:	4632      	mov	r2, r6
   2276a:	9b02      	ldr	r3, [sp, #8]
   2276c:	df04      	svc	4
   2276e:	2802      	cmp	r0, #2
   22770:	d104      	bne.n	2277c <_ZN20complex_dynamic_type3app17h5c3cf3f55452a669E+0x40>
   22772:	2001      	movs	r0, #1
   22774:	9a03      	ldr	r2, [sp, #12]
   22776:	7010      	strb	r0, [r2, #0]
   22778:	6051      	str	r1, [r2, #4]
   2277a:	e02e      	b.n	227da <_ZN20complex_dynamic_type3app17h5c3cf3f55452a669E+0x9e>
   2277c:	9c03      	ldr	r4, [sp, #12]
   2277e:	a804      	add	r0, sp, #16
   22780:	2104      	movs	r1, #4
   22782:	7001      	strb	r1, [r0, #0]
   22784:	4839      	ldr	r0, [pc, #228]	@ (2286c <_ZN20complex_dynamic_type3app17h5c3cf3f55452a669E+0x130>)
   22786:	2102      	movs	r1, #2
   22788:	2312      	movs	r3, #18
   2278a:	9d01      	ldr	r5, [sp, #4]
   2278c:	462a      	mov	r2, r5
   2278e:	df03      	svc	3
   22790:	2802      	cmp	r0, #2
   22792:	d10e      	bne.n	227b2 <_ZN20complex_dynamic_type3app17h5c3cf3f55452a669E+0x76>
   22794:	2001      	movs	r0, #1
   22796:	7020      	strb	r0, [r4, #0]
   22798:	6061      	str	r1, [r4, #4]
   2279a:	a81c      	add	r0, sp, #112	@ 0x70
   2279c:	7800      	ldrb	r0, [r0, #0]
   2279e:	2802      	cmp	r0, #2
   227a0:	d01b      	beq.n	227da <_ZN20complex_dynamic_type3app17h5c3cf3f55452a669E+0x9e>
   227a2:	2803      	cmp	r0, #3
   227a4:	d014      	beq.n	227d0 <_ZN20complex_dynamic_type3app17h5c3cf3f55452a669E+0x94>
   227a6:	4831      	ldr	r0, [pc, #196]	@ (2286c <_ZN20complex_dynamic_type3app17h5c3cf3f55452a669E+0x130>)
   227a8:	2102      	movs	r1, #2
   227aa:	2200      	movs	r2, #0
   227ac:	4613      	mov	r3, r2
   227ae:	df04      	svc	4
   227b0:	e013      	b.n	227da <_ZN20complex_dynamic_type3app17h5c3cf3f55452a669E+0x9e>
   227b2:	a81c      	add	r0, sp, #112	@ 0x70
   227b4:	2103      	movs	r1, #3
   227b6:	7001      	strb	r1, [r0, #0]
   227b8:	482c      	ldr	r0, [pc, #176]	@ (2286c <_ZN20complex_dynamic_type3app17h5c3cf3f55452a669E+0x130>)
   227ba:	2602      	movs	r6, #2
   227bc:	2100      	movs	r1, #0
   227be:	4632      	mov	r2, r6
   227c0:	9102      	str	r1, [sp, #8]
   227c2:	460b      	mov	r3, r1
   227c4:	df02      	svc	2
   227c6:	287f      	cmp	r0, #127	@ 0x7f
   227c8:	d816      	bhi.n	227f8 <_ZN20complex_dynamic_type3app17h5c3cf3f55452a669E+0xbc>
   227ca:	2001      	movs	r0, #1
   227cc:	7020      	strb	r0, [r4, #0]
   227ce:	6061      	str	r1, [r4, #4]
   227d0:	4826      	ldr	r0, [pc, #152]	@ (2286c <_ZN20complex_dynamic_type3app17h5c3cf3f55452a669E+0x130>)
   227d2:	2102      	movs	r1, #2
   227d4:	2200      	movs	r2, #0
   227d6:	4613      	mov	r3, r2
   227d8:	df03      	svc	3
   227da:	a804      	add	r0, sp, #16
   227dc:	7804      	ldrb	r4, [r0, #0]
   227de:	2c02      	cmp	r4, #2
   227e0:	d008      	beq.n	227f4 <_ZN20complex_dynamic_type3app17h5c3cf3f55452a669E+0xb8>
   227e2:	4822      	ldr	r0, [pc, #136]	@ (2286c <_ZN20complex_dynamic_type3app17h5c3cf3f55452a669E+0x130>)
   227e4:	2100      	movs	r1, #0
   227e6:	460a      	mov	r2, r1
   227e8:	460b      	mov	r3, r1
   227ea:	2c03      	cmp	r4, #3
   227ec:	d101      	bne.n	227f2 <_ZN20complex_dynamic_type3app17h5c3cf3f55452a669E+0xb6>
   227ee:	df03      	svc	3
   227f0:	e000      	b.n	227f4 <_ZN20complex_dynamic_type3app17h5c3cf3f55452a669E+0xb8>
   227f2:	df04      	svc	4
   227f4:	b021      	add	sp, #132	@ 0x84
   227f6:	bdf0      	pop	{r4, r5, r6, r7, pc}
   227f8:	a804      	add	r0, sp, #16
   227fa:	7800      	ldrb	r0, [r0, #0]
   227fc:	2802      	cmp	r0, #2
   227fe:	d01c      	beq.n	2283a <_ZN20complex_dynamic_type3app17h5c3cf3f55452a669E+0xfe>
   22800:	2803      	cmp	r0, #3
   22802:	d105      	bne.n	22810 <_ZN20complex_dynamic_type3app17h5c3cf3f55452a669E+0xd4>
   22804:	4819      	ldr	r0, [pc, #100]	@ (2286c <_ZN20complex_dynamic_type3app17h5c3cf3f55452a669E+0x130>)
   22806:	2100      	movs	r1, #0
   22808:	460a      	mov	r2, r1
   2280a:	460b      	mov	r3, r1
   2280c:	df03      	svc	3
   2280e:	e004      	b.n	2281a <_ZN20complex_dynamic_type3app17h5c3cf3f55452a669E+0xde>
   22810:	4816      	ldr	r0, [pc, #88]	@ (2286c <_ZN20complex_dynamic_type3app17h5c3cf3f55452a669E+0x130>)
   22812:	2100      	movs	r1, #0
   22814:	460a      	mov	r2, r1
   22816:	460b      	mov	r3, r1
   22818:	df04      	svc	4
   2281a:	a804      	add	r0, sp, #16
   2281c:	7006      	strb	r6, [r0, #0]
   2281e:	a81c      	add	r0, sp, #112	@ 0x70
   22820:	7800      	ldrb	r0, [r0, #0]
   22822:	2803      	cmp	r0, #3
   22824:	d009      	beq.n	2283a <_ZN20complex_dynamic_type3app17h5c3cf3f55452a669E+0xfe>
   22826:	2802      	cmp	r0, #2
   22828:	d10e      	bne.n	22848 <_ZN20complex_dynamic_type3app17h5c3cf3f55452a669E+0x10c>
   2282a:	1c60      	adds	r0, r4, #1
   2282c:	2212      	movs	r2, #18
   2282e:	4629      	mov	r1, r5
   22830:	f007 fea4 	bl	2a57c <__aeabi_memcpy>
   22834:	9802      	ldr	r0, [sp, #8]
   22836:	7020      	strb	r0, [r4, #0]
   22838:	e7dc      	b.n	227f4 <_ZN20complex_dynamic_type3app17h5c3cf3f55452a669E+0xb8>
   2283a:	462e      	mov	r6, r5
   2283c:	480b      	ldr	r0, [pc, #44]	@ (2286c <_ZN20complex_dynamic_type3app17h5c3cf3f55452a669E+0x130>)
   2283e:	2102      	movs	r1, #2
   22840:	2200      	movs	r2, #0
   22842:	4613      	mov	r3, r2
   22844:	df03      	svc	3
   22846:	e005      	b.n	22854 <_ZN20complex_dynamic_type3app17h5c3cf3f55452a669E+0x118>
   22848:	462e      	mov	r6, r5
   2284a:	4808      	ldr	r0, [pc, #32]	@ (2286c <_ZN20complex_dynamic_type3app17h5c3cf3f55452a669E+0x130>)
   2284c:	2102      	movs	r1, #2
   2284e:	2200      	movs	r2, #0
   22850:	4613      	mov	r3, r2
   22852:	df04      	svc	4
   22854:	4625      	mov	r5, r4
   22856:	a804      	add	r0, sp, #16
   22858:	7804      	ldrb	r4, [r0, #0]
   2285a:	1c68      	adds	r0, r5, #1
   2285c:	2212      	movs	r2, #18
   2285e:	4631      	mov	r1, r6
   22860:	f007 fe8c 	bl	2a57c <__aeabi_memcpy>
   22864:	9802      	ldr	r0, [sp, #8]
   22866:	7028      	strb	r0, [r5, #0]
   22868:	e7b9      	b.n	227de <_ZN20complex_dynamic_type3app17h5c3cf3f55452a669E+0xa2>
   2286a:	46c0      	nop			@ (mov r8, r8)
   2286c:	000015f1 	.word	0x000015f1

00022870 <_ZN20complex_dynamic_type3app17h5d7400dcbf723e06E>:
   22870:	b5f0      	push	{r4, r5, r6, r7, lr}
   22872:	af03      	add	r7, sp, #12
   22874:	b0a3      	sub	sp, #140	@ 0x8c
   22876:	9004      	str	r0, [sp, #16]
   22878:	a805      	add	r0, sp, #20
   2287a:	2402      	movs	r4, #2
   2287c:	7004      	strb	r4, [r0, #0]
   2287e:	1c46      	adds	r6, r0, #1
   22880:	2232      	movs	r2, #50	@ 0x32
   22882:	9203      	str	r2, [sp, #12]
   22884:	4630      	mov	r0, r6
   22886:	f007 fe79 	bl	2a57c <__aeabi_memcpy>
   2288a:	ad12      	add	r5, sp, #72	@ 0x48
   2288c:	1c68      	adds	r0, r5, #1
   2288e:	2141      	movs	r1, #65	@ 0x41
   22890:	9002      	str	r0, [sp, #8]
   22892:	f007 fcb3 	bl	2a1fc <__aeabi_memclr>
   22896:	9401      	str	r4, [sp, #4]
   22898:	702c      	strb	r4, [r5, #0]
   2289a:	483f      	ldr	r0, [pc, #252]	@ (22998 <_ZN20complex_dynamic_type3app17h5d7400dcbf723e06E+0x128>)
   2289c:	2107      	movs	r1, #7
   2289e:	4632      	mov	r2, r6
   228a0:	9b03      	ldr	r3, [sp, #12]
   228a2:	df04      	svc	4
   228a4:	2802      	cmp	r0, #2
   228a6:	d104      	bne.n	228b2 <_ZN20complex_dynamic_type3app17h5d7400dcbf723e06E+0x42>
   228a8:	2001      	movs	r0, #1
   228aa:	9a04      	ldr	r2, [sp, #16]
   228ac:	7010      	strb	r0, [r2, #0]
   228ae:	6051      	str	r1, [r2, #4]
   228b0:	e02d      	b.n	2290e <_ZN20complex_dynamic_type3app17h5d7400dcbf723e06E+0x9e>
   228b2:	9d04      	ldr	r5, [sp, #16]
   228b4:	a805      	add	r0, sp, #20
   228b6:	2104      	movs	r1, #4
   228b8:	7001      	strb	r1, [r0, #0]
   228ba:	4837      	ldr	r0, [pc, #220]	@ (22998 <_ZN20complex_dynamic_type3app17h5d7400dcbf723e06E+0x128>)
   228bc:	2105      	movs	r1, #5
   228be:	2341      	movs	r3, #65	@ 0x41
   228c0:	9c02      	ldr	r4, [sp, #8]
   228c2:	4622      	mov	r2, r4
   228c4:	df03      	svc	3
   228c6:	2802      	cmp	r0, #2
   228c8:	d10e      	bne.n	228e8 <_ZN20complex_dynamic_type3app17h5d7400dcbf723e06E+0x78>
   228ca:	2001      	movs	r0, #1
   228cc:	7028      	strb	r0, [r5, #0]
   228ce:	6069      	str	r1, [r5, #4]
   228d0:	a812      	add	r0, sp, #72	@ 0x48
   228d2:	7800      	ldrb	r0, [r0, #0]
   228d4:	2802      	cmp	r0, #2
   228d6:	d01a      	beq.n	2290e <_ZN20complex_dynamic_type3app17h5d7400dcbf723e06E+0x9e>
   228d8:	2803      	cmp	r0, #3
   228da:	d013      	beq.n	22904 <_ZN20complex_dynamic_type3app17h5d7400dcbf723e06E+0x94>
   228dc:	482e      	ldr	r0, [pc, #184]	@ (22998 <_ZN20complex_dynamic_type3app17h5d7400dcbf723e06E+0x128>)
   228de:	2105      	movs	r1, #5
   228e0:	2200      	movs	r2, #0
   228e2:	4613      	mov	r3, r2
   228e4:	df04      	svc	4
   228e6:	e012      	b.n	2290e <_ZN20complex_dynamic_type3app17h5d7400dcbf723e06E+0x9e>
   228e8:	a812      	add	r0, sp, #72	@ 0x48
   228ea:	2103      	movs	r1, #3
   228ec:	7001      	strb	r1, [r0, #0]
   228ee:	482a      	ldr	r0, [pc, #168]	@ (22998 <_ZN20complex_dynamic_type3app17h5d7400dcbf723e06E+0x128>)
   228f0:	2107      	movs	r1, #7
   228f2:	2205      	movs	r2, #5
   228f4:	2600      	movs	r6, #0
   228f6:	4633      	mov	r3, r6
   228f8:	df02      	svc	2
   228fa:	287f      	cmp	r0, #127	@ 0x7f
   228fc:	d816      	bhi.n	2292c <_ZN20complex_dynamic_type3app17h5d7400dcbf723e06E+0xbc>
   228fe:	2001      	movs	r0, #1
   22900:	7028      	strb	r0, [r5, #0]
   22902:	6069      	str	r1, [r5, #4]
   22904:	4824      	ldr	r0, [pc, #144]	@ (22998 <_ZN20complex_dynamic_type3app17h5d7400dcbf723e06E+0x128>)
   22906:	2105      	movs	r1, #5
   22908:	2200      	movs	r2, #0
   2290a:	4613      	mov	r3, r2
   2290c:	df03      	svc	3
   2290e:	a805      	add	r0, sp, #20
   22910:	7804      	ldrb	r4, [r0, #0]
   22912:	2c02      	cmp	r4, #2
   22914:	d008      	beq.n	22928 <_ZN20complex_dynamic_type3app17h5d7400dcbf723e06E+0xb8>
   22916:	4820      	ldr	r0, [pc, #128]	@ (22998 <_ZN20complex_dynamic_type3app17h5d7400dcbf723e06E+0x128>)
   22918:	2107      	movs	r1, #7
   2291a:	2200      	movs	r2, #0
   2291c:	4613      	mov	r3, r2
   2291e:	2c03      	cmp	r4, #3
   22920:	d101      	bne.n	22926 <_ZN20complex_dynamic_type3app17h5d7400dcbf723e06E+0xb6>
   22922:	df03      	svc	3
   22924:	e000      	b.n	22928 <_ZN20complex_dynamic_type3app17h5d7400dcbf723e06E+0xb8>
   22926:	df04      	svc	4
   22928:	b023      	add	sp, #140	@ 0x8c
   2292a:	bdf0      	pop	{r4, r5, r6, r7, pc}
   2292c:	a805      	add	r0, sp, #20
   2292e:	7800      	ldrb	r0, [r0, #0]
   22930:	2802      	cmp	r0, #2
   22932:	d01c      	beq.n	2296e <_ZN20complex_dynamic_type3app17h5d7400dcbf723e06E+0xfe>
   22934:	2803      	cmp	r0, #3
   22936:	d105      	bne.n	22944 <_ZN20complex_dynamic_type3app17h5d7400dcbf723e06E+0xd4>
   22938:	4817      	ldr	r0, [pc, #92]	@ (22998 <_ZN20complex_dynamic_type3app17h5d7400dcbf723e06E+0x128>)
   2293a:	2107      	movs	r1, #7
   2293c:	2200      	movs	r2, #0
   2293e:	4613      	mov	r3, r2
   22940:	df03      	svc	3
   22942:	e004      	b.n	2294e <_ZN20complex_dynamic_type3app17h5d7400dcbf723e06E+0xde>
   22944:	4814      	ldr	r0, [pc, #80]	@ (22998 <_ZN20complex_dynamic_type3app17h5d7400dcbf723e06E+0x128>)
   22946:	2107      	movs	r1, #7
   22948:	2200      	movs	r2, #0
   2294a:	4613      	mov	r3, r2
   2294c:	df04      	svc	4
   2294e:	a805      	add	r0, sp, #20
   22950:	9901      	ldr	r1, [sp, #4]
   22952:	7001      	strb	r1, [r0, #0]
   22954:	a812      	add	r0, sp, #72	@ 0x48
   22956:	7800      	ldrb	r0, [r0, #0]
   22958:	2803      	cmp	r0, #3
   2295a:	d008      	beq.n	2296e <_ZN20complex_dynamic_type3app17h5d7400dcbf723e06E+0xfe>
   2295c:	2802      	cmp	r0, #2
   2295e:	d10c      	bne.n	2297a <_ZN20complex_dynamic_type3app17h5d7400dcbf723e06E+0x10a>
   22960:	1c68      	adds	r0, r5, #1
   22962:	2241      	movs	r2, #65	@ 0x41
   22964:	4621      	mov	r1, r4
   22966:	f007 fe09 	bl	2a57c <__aeabi_memcpy>
   2296a:	702e      	strb	r6, [r5, #0]
   2296c:	e7dc      	b.n	22928 <_ZN20complex_dynamic_type3app17h5d7400dcbf723e06E+0xb8>
   2296e:	480a      	ldr	r0, [pc, #40]	@ (22998 <_ZN20complex_dynamic_type3app17h5d7400dcbf723e06E+0x128>)
   22970:	2105      	movs	r1, #5
   22972:	2200      	movs	r2, #0
   22974:	4613      	mov	r3, r2
   22976:	df03      	svc	3
   22978:	e004      	b.n	22984 <_ZN20complex_dynamic_type3app17h5d7400dcbf723e06E+0x114>
   2297a:	4807      	ldr	r0, [pc, #28]	@ (22998 <_ZN20complex_dynamic_type3app17h5d7400dcbf723e06E+0x128>)
   2297c:	2105      	movs	r1, #5
   2297e:	2200      	movs	r2, #0
   22980:	4613      	mov	r3, r2
   22982:	df04      	svc	4
   22984:	a805      	add	r0, sp, #20
   22986:	7804      	ldrb	r4, [r0, #0]
   22988:	1c68      	adds	r0, r5, #1
   2298a:	2241      	movs	r2, #65	@ 0x41
   2298c:	9902      	ldr	r1, [sp, #8]
   2298e:	f007 fdf5 	bl	2a57c <__aeabi_memcpy>
   22992:	702e      	strb	r6, [r5, #0]
   22994:	e7bd      	b.n	22912 <_ZN20complex_dynamic_type3app17h5d7400dcbf723e06E+0xa2>
   22996:	46c0      	nop			@ (mov r8, r8)
   22998:	0000091d 	.word	0x0000091d

0002299c <_ZN20complex_dynamic_type3app17h5f4edb844f64d175E>:
   2299c:	b5f0      	push	{r4, r5, r6, r7, lr}
   2299e:	af03      	add	r7, sp, #12
   229a0:	b095      	sub	sp, #84	@ 0x54
   229a2:	9002      	str	r0, [sp, #8]
   229a4:	ae03      	add	r6, sp, #12
   229a6:	2502      	movs	r5, #2
   229a8:	7035      	strb	r5, [r6, #0]
   229aa:	1c70      	adds	r0, r6, #1
   229ac:	2227      	movs	r2, #39	@ 0x27
   229ae:	9201      	str	r2, [sp, #4]
   229b0:	f007 fde4 	bl	2a57c <__aeabi_memcpy>
   229b4:	ac0d      	add	r4, sp, #52	@ 0x34
   229b6:	1c60      	adds	r0, r4, #1
   229b8:	211e      	movs	r1, #30
   229ba:	9000      	str	r0, [sp, #0]
   229bc:	f007 fc1e 	bl	2a1fc <__aeabi_memclr>
   229c0:	7025      	strb	r5, [r4, #0]
   229c2:	2204      	movs	r2, #4
   229c4:	4630      	mov	r0, r6
   229c6:	9901      	ldr	r1, [sp, #4]
   229c8:	f7fd fbc8 	bl	2015c <_ZN9allow_pin12dynamic_type23Buffer$LT$B$C$_$C$_$GT$5allow17h2c291363bd4b071eE>
   229cc:	07c0      	lsls	r0, r0, #31
   229ce:	d10e      	bne.n	229ee <_ZN20complex_dynamic_type3app17h5f4edb844f64d175E+0x52>
   229d0:	a80d      	add	r0, sp, #52	@ 0x34
   229d2:	211e      	movs	r1, #30
   229d4:	2203      	movs	r2, #3
   229d6:	f7fd fbc1 	bl	2015c <_ZN9allow_pin12dynamic_type23Buffer$LT$B$C$_$C$_$GT$5allow17h2c291363bd4b071eE>
   229da:	07c0      	lsls	r0, r0, #31
   229dc:	d107      	bne.n	229ee <_ZN20complex_dynamic_type3app17h5f4edb844f64d175E+0x52>
   229de:	4831      	ldr	r0, [pc, #196]	@ (22aa4 <_ZN20complex_dynamic_type3app17h5f4edb844f64d175E+0x108>)
   229e0:	2103      	movs	r1, #3
   229e2:	2600      	movs	r6, #0
   229e4:	460a      	mov	r2, r1
   229e6:	4633      	mov	r3, r6
   229e8:	df02      	svc	2
   229ea:	287f      	cmp	r0, #127	@ 0x7f
   229ec:	d823      	bhi.n	22a36 <_ZN20complex_dynamic_type3app17h5f4edb844f64d175E+0x9a>
   229ee:	2001      	movs	r0, #1
   229f0:	9a02      	ldr	r2, [sp, #8]
   229f2:	7010      	strb	r0, [r2, #0]
   229f4:	6051      	str	r1, [r2, #4]
   229f6:	a80d      	add	r0, sp, #52	@ 0x34
   229f8:	7800      	ldrb	r0, [r0, #0]
   229fa:	2802      	cmp	r0, #2
   229fc:	d00c      	beq.n	22a18 <_ZN20complex_dynamic_type3app17h5f4edb844f64d175E+0x7c>
   229fe:	2803      	cmp	r0, #3
   22a00:	d105      	bne.n	22a0e <_ZN20complex_dynamic_type3app17h5f4edb844f64d175E+0x72>
   22a02:	4828      	ldr	r0, [pc, #160]	@ (22aa4 <_ZN20complex_dynamic_type3app17h5f4edb844f64d175E+0x108>)
   22a04:	2103      	movs	r1, #3
   22a06:	2200      	movs	r2, #0
   22a08:	4613      	mov	r3, r2
   22a0a:	df03      	svc	3
   22a0c:	e004      	b.n	22a18 <_ZN20complex_dynamic_type3app17h5f4edb844f64d175E+0x7c>
   22a0e:	4825      	ldr	r0, [pc, #148]	@ (22aa4 <_ZN20complex_dynamic_type3app17h5f4edb844f64d175E+0x108>)
   22a10:	2103      	movs	r1, #3
   22a12:	2200      	movs	r2, #0
   22a14:	4613      	mov	r3, r2
   22a16:	df04      	svc	4
   22a18:	a803      	add	r0, sp, #12
   22a1a:	7804      	ldrb	r4, [r0, #0]
   22a1c:	2c02      	cmp	r4, #2
   22a1e:	d008      	beq.n	22a32 <_ZN20complex_dynamic_type3app17h5f4edb844f64d175E+0x96>
   22a20:	4820      	ldr	r0, [pc, #128]	@ (22aa4 <_ZN20complex_dynamic_type3app17h5f4edb844f64d175E+0x108>)
   22a22:	2103      	movs	r1, #3
   22a24:	2200      	movs	r2, #0
   22a26:	4613      	mov	r3, r2
   22a28:	2c03      	cmp	r4, #3
   22a2a:	d101      	bne.n	22a30 <_ZN20complex_dynamic_type3app17h5f4edb844f64d175E+0x94>
   22a2c:	df03      	svc	3
   22a2e:	e000      	b.n	22a32 <_ZN20complex_dynamic_type3app17h5f4edb844f64d175E+0x96>
   22a30:	df04      	svc	4
   22a32:	b015      	add	sp, #84	@ 0x54
   22a34:	bdf0      	pop	{r4, r5, r6, r7, pc}
   22a36:	a803      	add	r0, sp, #12
   22a38:	7800      	ldrb	r0, [r0, #0]
   22a3a:	2802      	cmp	r0, #2
   22a3c:	d00c      	beq.n	22a58 <_ZN20complex_dynamic_type3app17h5f4edb844f64d175E+0xbc>
   22a3e:	2803      	cmp	r0, #3
   22a40:	d105      	bne.n	22a4e <_ZN20complex_dynamic_type3app17h5f4edb844f64d175E+0xb2>
   22a42:	4818      	ldr	r0, [pc, #96]	@ (22aa4 <_ZN20complex_dynamic_type3app17h5f4edb844f64d175E+0x108>)
   22a44:	2103      	movs	r1, #3
   22a46:	2200      	movs	r2, #0
   22a48:	4613      	mov	r3, r2
   22a4a:	df03      	svc	3
   22a4c:	e004      	b.n	22a58 <_ZN20complex_dynamic_type3app17h5f4edb844f64d175E+0xbc>
   22a4e:	4815      	ldr	r0, [pc, #84]	@ (22aa4 <_ZN20complex_dynamic_type3app17h5f4edb844f64d175E+0x108>)
   22a50:	2103      	movs	r1, #3
   22a52:	2200      	movs	r2, #0
   22a54:	4613      	mov	r3, r2
   22a56:	df04      	svc	4
   22a58:	a803      	add	r0, sp, #12
   22a5a:	7005      	strb	r5, [r0, #0]
   22a5c:	a80d      	add	r0, sp, #52	@ 0x34
   22a5e:	7800      	ldrb	r0, [r0, #0]
   22a60:	2803      	cmp	r0, #3
   22a62:	d009      	beq.n	22a78 <_ZN20complex_dynamic_type3app17h5f4edb844f64d175E+0xdc>
   22a64:	2802      	cmp	r0, #2
   22a66:	d10d      	bne.n	22a84 <_ZN20complex_dynamic_type3app17h5f4edb844f64d175E+0xe8>
   22a68:	9c02      	ldr	r4, [sp, #8]
   22a6a:	1c60      	adds	r0, r4, #1
   22a6c:	221e      	movs	r2, #30
   22a6e:	9900      	ldr	r1, [sp, #0]
   22a70:	f007 fd84 	bl	2a57c <__aeabi_memcpy>
   22a74:	7026      	strb	r6, [r4, #0]
   22a76:	e7dc      	b.n	22a32 <_ZN20complex_dynamic_type3app17h5f4edb844f64d175E+0x96>
   22a78:	480a      	ldr	r0, [pc, #40]	@ (22aa4 <_ZN20complex_dynamic_type3app17h5f4edb844f64d175E+0x108>)
   22a7a:	2103      	movs	r1, #3
   22a7c:	2200      	movs	r2, #0
   22a7e:	4613      	mov	r3, r2
   22a80:	df03      	svc	3
   22a82:	e004      	b.n	22a8e <_ZN20complex_dynamic_type3app17h5f4edb844f64d175E+0xf2>
   22a84:	4807      	ldr	r0, [pc, #28]	@ (22aa4 <_ZN20complex_dynamic_type3app17h5f4edb844f64d175E+0x108>)
   22a86:	2103      	movs	r1, #3
   22a88:	2200      	movs	r2, #0
   22a8a:	4613      	mov	r3, r2
   22a8c:	df04      	svc	4
   22a8e:	a803      	add	r0, sp, #12
   22a90:	7804      	ldrb	r4, [r0, #0]
   22a92:	9d02      	ldr	r5, [sp, #8]
   22a94:	1c68      	adds	r0, r5, #1
   22a96:	221e      	movs	r2, #30
   22a98:	9900      	ldr	r1, [sp, #0]
   22a9a:	f007 fd6f 	bl	2a57c <__aeabi_memcpy>
   22a9e:	702e      	strb	r6, [r5, #0]
   22aa0:	e7bc      	b.n	22a1c <_ZN20complex_dynamic_type3app17h5f4edb844f64d175E+0x80>
   22aa2:	46c0      	nop			@ (mov r8, r8)
   22aa4:	000010e2 	.word	0x000010e2

00022aa8 <_ZN20complex_dynamic_type3app17h65d4f1ea1aa3d4c4E>:
   22aa8:	b5f0      	push	{r4, r5, r6, r7, lr}
   22aaa:	af03      	add	r7, sp, #12
   22aac:	b09d      	sub	sp, #116	@ 0x74
   22aae:	9003      	str	r0, [sp, #12]
   22ab0:	a804      	add	r0, sp, #16
   22ab2:	2602      	movs	r6, #2
   22ab4:	7006      	strb	r6, [r0, #0]
   22ab6:	1c40      	adds	r0, r0, #1
   22ab8:	9002      	str	r0, [sp, #8]
   22aba:	2538      	movs	r5, #56	@ 0x38
   22abc:	462a      	mov	r2, r5
   22abe:	f007 fd5d 	bl	2a57c <__aeabi_memcpy>
   22ac2:	ac13      	add	r4, sp, #76	@ 0x4c
   22ac4:	1c60      	adds	r0, r4, #1
   22ac6:	2127      	movs	r1, #39	@ 0x27
   22ac8:	9001      	str	r0, [sp, #4]
   22aca:	f007 fb97 	bl	2a1fc <__aeabi_memclr>
   22ace:	7026      	strb	r6, [r4, #0]
   22ad0:	4841      	ldr	r0, [pc, #260]	@ (22bd8 <_ZN20complex_dynamic_type3app17h65d4f1ea1aa3d4c4E+0x130>)
   22ad2:	4631      	mov	r1, r6
   22ad4:	9a02      	ldr	r2, [sp, #8]
   22ad6:	462b      	mov	r3, r5
   22ad8:	df04      	svc	4
   22ada:	2802      	cmp	r0, #2
   22adc:	d104      	bne.n	22ae8 <_ZN20complex_dynamic_type3app17h65d4f1ea1aa3d4c4E+0x40>
   22ade:	2001      	movs	r0, #1
   22ae0:	9a03      	ldr	r2, [sp, #12]
   22ae2:	7010      	strb	r0, [r2, #0]
   22ae4:	6051      	str	r1, [r2, #4]
   22ae6:	e02e      	b.n	22b46 <_ZN20complex_dynamic_type3app17h65d4f1ea1aa3d4c4E+0x9e>
   22ae8:	9c03      	ldr	r4, [sp, #12]
   22aea:	a804      	add	r0, sp, #16
   22aec:	2104      	movs	r1, #4
   22aee:	7001      	strb	r1, [r0, #0]
   22af0:	4839      	ldr	r0, [pc, #228]	@ (22bd8 <_ZN20complex_dynamic_type3app17h65d4f1ea1aa3d4c4E+0x130>)
   22af2:	2108      	movs	r1, #8
   22af4:	2327      	movs	r3, #39	@ 0x27
   22af6:	9d01      	ldr	r5, [sp, #4]
   22af8:	462a      	mov	r2, r5
   22afa:	df03      	svc	3
   22afc:	2802      	cmp	r0, #2
   22afe:	d10e      	bne.n	22b1e <_ZN20complex_dynamic_type3app17h65d4f1ea1aa3d4c4E+0x76>
   22b00:	2001      	movs	r0, #1
   22b02:	7020      	strb	r0, [r4, #0]
   22b04:	6061      	str	r1, [r4, #4]
   22b06:	a813      	add	r0, sp, #76	@ 0x4c
   22b08:	7800      	ldrb	r0, [r0, #0]
   22b0a:	2802      	cmp	r0, #2
   22b0c:	d01b      	beq.n	22b46 <_ZN20complex_dynamic_type3app17h65d4f1ea1aa3d4c4E+0x9e>
   22b0e:	2803      	cmp	r0, #3
   22b10:	d014      	beq.n	22b3c <_ZN20complex_dynamic_type3app17h65d4f1ea1aa3d4c4E+0x94>
   22b12:	4831      	ldr	r0, [pc, #196]	@ (22bd8 <_ZN20complex_dynamic_type3app17h65d4f1ea1aa3d4c4E+0x130>)
   22b14:	2108      	movs	r1, #8
   22b16:	2200      	movs	r2, #0
   22b18:	4613      	mov	r3, r2
   22b1a:	df04      	svc	4
   22b1c:	e013      	b.n	22b46 <_ZN20complex_dynamic_type3app17h65d4f1ea1aa3d4c4E+0x9e>
   22b1e:	a813      	add	r0, sp, #76	@ 0x4c
   22b20:	2103      	movs	r1, #3
   22b22:	7001      	strb	r1, [r0, #0]
   22b24:	482c      	ldr	r0, [pc, #176]	@ (22bd8 <_ZN20complex_dynamic_type3app17h65d4f1ea1aa3d4c4E+0x130>)
   22b26:	2602      	movs	r6, #2
   22b28:	2208      	movs	r2, #8
   22b2a:	2300      	movs	r3, #0
   22b2c:	4631      	mov	r1, r6
   22b2e:	9302      	str	r3, [sp, #8]
   22b30:	df02      	svc	2
   22b32:	287f      	cmp	r0, #127	@ 0x7f
   22b34:	d816      	bhi.n	22b64 <_ZN20complex_dynamic_type3app17h65d4f1ea1aa3d4c4E+0xbc>
   22b36:	2001      	movs	r0, #1
   22b38:	7020      	strb	r0, [r4, #0]
   22b3a:	6061      	str	r1, [r4, #4]
   22b3c:	4826      	ldr	r0, [pc, #152]	@ (22bd8 <_ZN20complex_dynamic_type3app17h65d4f1ea1aa3d4c4E+0x130>)
   22b3e:	2108      	movs	r1, #8
   22b40:	2200      	movs	r2, #0
   22b42:	4613      	mov	r3, r2
   22b44:	df03      	svc	3
   22b46:	a804      	add	r0, sp, #16
   22b48:	7804      	ldrb	r4, [r0, #0]
   22b4a:	2c02      	cmp	r4, #2
   22b4c:	d008      	beq.n	22b60 <_ZN20complex_dynamic_type3app17h65d4f1ea1aa3d4c4E+0xb8>
   22b4e:	4822      	ldr	r0, [pc, #136]	@ (22bd8 <_ZN20complex_dynamic_type3app17h65d4f1ea1aa3d4c4E+0x130>)
   22b50:	2102      	movs	r1, #2
   22b52:	2200      	movs	r2, #0
   22b54:	4613      	mov	r3, r2
   22b56:	2c03      	cmp	r4, #3
   22b58:	d101      	bne.n	22b5e <_ZN20complex_dynamic_type3app17h65d4f1ea1aa3d4c4E+0xb6>
   22b5a:	df03      	svc	3
   22b5c:	e000      	b.n	22b60 <_ZN20complex_dynamic_type3app17h65d4f1ea1aa3d4c4E+0xb8>
   22b5e:	df04      	svc	4
   22b60:	b01d      	add	sp, #116	@ 0x74
   22b62:	bdf0      	pop	{r4, r5, r6, r7, pc}
   22b64:	a804      	add	r0, sp, #16
   22b66:	7800      	ldrb	r0, [r0, #0]
   22b68:	2802      	cmp	r0, #2
   22b6a:	d01c      	beq.n	22ba6 <_ZN20complex_dynamic_type3app17h65d4f1ea1aa3d4c4E+0xfe>
   22b6c:	2803      	cmp	r0, #3
   22b6e:	d105      	bne.n	22b7c <_ZN20complex_dynamic_type3app17h65d4f1ea1aa3d4c4E+0xd4>
   22b70:	4819      	ldr	r0, [pc, #100]	@ (22bd8 <_ZN20complex_dynamic_type3app17h65d4f1ea1aa3d4c4E+0x130>)
   22b72:	2102      	movs	r1, #2
   22b74:	2200      	movs	r2, #0
   22b76:	4613      	mov	r3, r2
   22b78:	df03      	svc	3
   22b7a:	e004      	b.n	22b86 <_ZN20complex_dynamic_type3app17h65d4f1ea1aa3d4c4E+0xde>
   22b7c:	4816      	ldr	r0, [pc, #88]	@ (22bd8 <_ZN20complex_dynamic_type3app17h65d4f1ea1aa3d4c4E+0x130>)
   22b7e:	2102      	movs	r1, #2
   22b80:	2200      	movs	r2, #0
   22b82:	4613      	mov	r3, r2
   22b84:	df04      	svc	4
   22b86:	a804      	add	r0, sp, #16
   22b88:	7006      	strb	r6, [r0, #0]
   22b8a:	a813      	add	r0, sp, #76	@ 0x4c
   22b8c:	7800      	ldrb	r0, [r0, #0]
   22b8e:	2803      	cmp	r0, #3
   22b90:	d009      	beq.n	22ba6 <_ZN20complex_dynamic_type3app17h65d4f1ea1aa3d4c4E+0xfe>
   22b92:	2802      	cmp	r0, #2
   22b94:	d10e      	bne.n	22bb4 <_ZN20complex_dynamic_type3app17h65d4f1ea1aa3d4c4E+0x10c>
   22b96:	1c60      	adds	r0, r4, #1
   22b98:	2227      	movs	r2, #39	@ 0x27
   22b9a:	4629      	mov	r1, r5
   22b9c:	f007 fcee 	bl	2a57c <__aeabi_memcpy>
   22ba0:	9802      	ldr	r0, [sp, #8]
   22ba2:	7020      	strb	r0, [r4, #0]
   22ba4:	e7dc      	b.n	22b60 <_ZN20complex_dynamic_type3app17h65d4f1ea1aa3d4c4E+0xb8>
   22ba6:	462e      	mov	r6, r5
   22ba8:	480b      	ldr	r0, [pc, #44]	@ (22bd8 <_ZN20complex_dynamic_type3app17h65d4f1ea1aa3d4c4E+0x130>)
   22baa:	2108      	movs	r1, #8
   22bac:	2200      	movs	r2, #0
   22bae:	4613      	mov	r3, r2
   22bb0:	df03      	svc	3
   22bb2:	e005      	b.n	22bc0 <_ZN20complex_dynamic_type3app17h65d4f1ea1aa3d4c4E+0x118>
   22bb4:	462e      	mov	r6, r5
   22bb6:	4808      	ldr	r0, [pc, #32]	@ (22bd8 <_ZN20complex_dynamic_type3app17h65d4f1ea1aa3d4c4E+0x130>)
   22bb8:	2108      	movs	r1, #8
   22bba:	2200      	movs	r2, #0
   22bbc:	4613      	mov	r3, r2
   22bbe:	df04      	svc	4
   22bc0:	4625      	mov	r5, r4
   22bc2:	a804      	add	r0, sp, #16
   22bc4:	7804      	ldrb	r4, [r0, #0]
   22bc6:	1c68      	adds	r0, r5, #1
   22bc8:	2227      	movs	r2, #39	@ 0x27
   22bca:	4631      	mov	r1, r6
   22bcc:	f007 fcd6 	bl	2a57c <__aeabi_memcpy>
   22bd0:	9802      	ldr	r0, [sp, #8]
   22bd2:	7028      	strb	r0, [r5, #0]
   22bd4:	e7b9      	b.n	22b4a <_ZN20complex_dynamic_type3app17h65d4f1ea1aa3d4c4E+0xa2>
   22bd6:	46c0      	nop			@ (mov r8, r8)
   22bd8:	00000e2b 	.word	0x00000e2b

00022bdc <_ZN20complex_dynamic_type3app17h7243ba051c0542feE>:
   22bdc:	b5f0      	push	{r4, r5, r6, r7, lr}
   22bde:	af03      	add	r7, sp, #12
   22be0:	b09f      	sub	sp, #124	@ 0x7c
   22be2:	9004      	str	r0, [sp, #16]
   22be4:	a805      	add	r0, sp, #20
   22be6:	2402      	movs	r4, #2
   22be8:	7004      	strb	r4, [r0, #0]
   22bea:	1c40      	adds	r0, r0, #1
   22bec:	9003      	str	r0, [sp, #12]
   22bee:	2541      	movs	r5, #65	@ 0x41
   22bf0:	462a      	mov	r2, r5
   22bf2:	f007 fcc3 	bl	2a57c <__aeabi_memcpy>
   22bf6:	ae16      	add	r6, sp, #88	@ 0x58
   22bf8:	1c70      	adds	r0, r6, #1
   22bfa:	2122      	movs	r1, #34	@ 0x22
   22bfc:	9002      	str	r0, [sp, #8]
   22bfe:	f007 fafd 	bl	2a1fc <__aeabi_memclr>
   22c02:	9401      	str	r4, [sp, #4]
   22c04:	7034      	strb	r4, [r6, #0]
   22c06:	483e      	ldr	r0, [pc, #248]	@ (22d00 <_ZN20complex_dynamic_type3app17h7243ba051c0542feE+0x124>)
   22c08:	2601      	movs	r6, #1
   22c0a:	4631      	mov	r1, r6
   22c0c:	9a03      	ldr	r2, [sp, #12]
   22c0e:	462b      	mov	r3, r5
   22c10:	df04      	svc	4
   22c12:	2802      	cmp	r0, #2
   22c14:	d103      	bne.n	22c1e <_ZN20complex_dynamic_type3app17h7243ba051c0542feE+0x42>
   22c16:	9804      	ldr	r0, [sp, #16]
   22c18:	7006      	strb	r6, [r0, #0]
   22c1a:	6041      	str	r1, [r0, #4]
   22c1c:	e02b      	b.n	22c76 <_ZN20complex_dynamic_type3app17h7243ba051c0542feE+0x9a>
   22c1e:	9d04      	ldr	r5, [sp, #16]
   22c20:	a805      	add	r0, sp, #20
   22c22:	2104      	movs	r1, #4
   22c24:	7001      	strb	r1, [r0, #0]
   22c26:	4836      	ldr	r0, [pc, #216]	@ (22d00 <_ZN20complex_dynamic_type3app17h7243ba051c0542feE+0x124>)
   22c28:	2100      	movs	r1, #0
   22c2a:	2322      	movs	r3, #34	@ 0x22
   22c2c:	9a02      	ldr	r2, [sp, #8]
   22c2e:	df03      	svc	3
   22c30:	2802      	cmp	r0, #2
   22c32:	d10d      	bne.n	22c50 <_ZN20complex_dynamic_type3app17h7243ba051c0542feE+0x74>
   22c34:	702e      	strb	r6, [r5, #0]
   22c36:	6069      	str	r1, [r5, #4]
   22c38:	a816      	add	r0, sp, #88	@ 0x58
   22c3a:	7800      	ldrb	r0, [r0, #0]
   22c3c:	2802      	cmp	r0, #2
   22c3e:	d01a      	beq.n	22c76 <_ZN20complex_dynamic_type3app17h7243ba051c0542feE+0x9a>
   22c40:	2803      	cmp	r0, #3
   22c42:	d013      	beq.n	22c6c <_ZN20complex_dynamic_type3app17h7243ba051c0542feE+0x90>
   22c44:	482e      	ldr	r0, [pc, #184]	@ (22d00 <_ZN20complex_dynamic_type3app17h7243ba051c0542feE+0x124>)
   22c46:	2100      	movs	r1, #0
   22c48:	460a      	mov	r2, r1
   22c4a:	460b      	mov	r3, r1
   22c4c:	df04      	svc	4
   22c4e:	e012      	b.n	22c76 <_ZN20complex_dynamic_type3app17h7243ba051c0542feE+0x9a>
   22c50:	a816      	add	r0, sp, #88	@ 0x58
   22c52:	2103      	movs	r1, #3
   22c54:	7001      	strb	r1, [r0, #0]
   22c56:	482a      	ldr	r0, [pc, #168]	@ (22d00 <_ZN20complex_dynamic_type3app17h7243ba051c0542feE+0x124>)
   22c58:	2401      	movs	r4, #1
   22c5a:	2600      	movs	r6, #0
   22c5c:	4621      	mov	r1, r4
   22c5e:	4632      	mov	r2, r6
   22c60:	4633      	mov	r3, r6
   22c62:	df02      	svc	2
   22c64:	287f      	cmp	r0, #127	@ 0x7f
   22c66:	d815      	bhi.n	22c94 <_ZN20complex_dynamic_type3app17h7243ba051c0542feE+0xb8>
   22c68:	702c      	strb	r4, [r5, #0]
   22c6a:	6069      	str	r1, [r5, #4]
   22c6c:	4824      	ldr	r0, [pc, #144]	@ (22d00 <_ZN20complex_dynamic_type3app17h7243ba051c0542feE+0x124>)
   22c6e:	2100      	movs	r1, #0
   22c70:	460a      	mov	r2, r1
   22c72:	460b      	mov	r3, r1
   22c74:	df03      	svc	3
   22c76:	a805      	add	r0, sp, #20
   22c78:	7804      	ldrb	r4, [r0, #0]
   22c7a:	2c02      	cmp	r4, #2
   22c7c:	d008      	beq.n	22c90 <_ZN20complex_dynamic_type3app17h7243ba051c0542feE+0xb4>
   22c7e:	4820      	ldr	r0, [pc, #128]	@ (22d00 <_ZN20complex_dynamic_type3app17h7243ba051c0542feE+0x124>)
   22c80:	2101      	movs	r1, #1
   22c82:	2200      	movs	r2, #0
   22c84:	4613      	mov	r3, r2
   22c86:	2c03      	cmp	r4, #3
   22c88:	d101      	bne.n	22c8e <_ZN20complex_dynamic_type3app17h7243ba051c0542feE+0xb2>
   22c8a:	df03      	svc	3
   22c8c:	e000      	b.n	22c90 <_ZN20complex_dynamic_type3app17h7243ba051c0542feE+0xb4>
   22c8e:	df04      	svc	4
   22c90:	b01f      	add	sp, #124	@ 0x7c
   22c92:	bdf0      	pop	{r4, r5, r6, r7, pc}
   22c94:	a805      	add	r0, sp, #20
   22c96:	7800      	ldrb	r0, [r0, #0]
   22c98:	2802      	cmp	r0, #2
   22c9a:	9c02      	ldr	r4, [sp, #8]
   22c9c:	d01c      	beq.n	22cd8 <_ZN20complex_dynamic_type3app17h7243ba051c0542feE+0xfc>
   22c9e:	2803      	cmp	r0, #3
   22ca0:	d105      	bne.n	22cae <_ZN20complex_dynamic_type3app17h7243ba051c0542feE+0xd2>
   22ca2:	4817      	ldr	r0, [pc, #92]	@ (22d00 <_ZN20complex_dynamic_type3app17h7243ba051c0542feE+0x124>)
   22ca4:	2101      	movs	r1, #1
   22ca6:	2200      	movs	r2, #0
   22ca8:	4613      	mov	r3, r2
   22caa:	df03      	svc	3
   22cac:	e004      	b.n	22cb8 <_ZN20complex_dynamic_type3app17h7243ba051c0542feE+0xdc>
   22cae:	4814      	ldr	r0, [pc, #80]	@ (22d00 <_ZN20complex_dynamic_type3app17h7243ba051c0542feE+0x124>)
   22cb0:	2101      	movs	r1, #1
   22cb2:	2200      	movs	r2, #0
   22cb4:	4613      	mov	r3, r2
   22cb6:	df04      	svc	4
   22cb8:	a805      	add	r0, sp, #20
   22cba:	9901      	ldr	r1, [sp, #4]
   22cbc:	7001      	strb	r1, [r0, #0]
   22cbe:	a816      	add	r0, sp, #88	@ 0x58
   22cc0:	7800      	ldrb	r0, [r0, #0]
   22cc2:	2803      	cmp	r0, #3
   22cc4:	d008      	beq.n	22cd8 <_ZN20complex_dynamic_type3app17h7243ba051c0542feE+0xfc>
   22cc6:	2802      	cmp	r0, #2
   22cc8:	d10c      	bne.n	22ce4 <_ZN20complex_dynamic_type3app17h7243ba051c0542feE+0x108>
   22cca:	1c68      	adds	r0, r5, #1
   22ccc:	2222      	movs	r2, #34	@ 0x22
   22cce:	4621      	mov	r1, r4
   22cd0:	f007 fc54 	bl	2a57c <__aeabi_memcpy>
   22cd4:	702e      	strb	r6, [r5, #0]
   22cd6:	e7db      	b.n	22c90 <_ZN20complex_dynamic_type3app17h7243ba051c0542feE+0xb4>
   22cd8:	4809      	ldr	r0, [pc, #36]	@ (22d00 <_ZN20complex_dynamic_type3app17h7243ba051c0542feE+0x124>)
   22cda:	2100      	movs	r1, #0
   22cdc:	460a      	mov	r2, r1
   22cde:	460b      	mov	r3, r1
   22ce0:	df03      	svc	3
   22ce2:	e004      	b.n	22cee <_ZN20complex_dynamic_type3app17h7243ba051c0542feE+0x112>
   22ce4:	4806      	ldr	r0, [pc, #24]	@ (22d00 <_ZN20complex_dynamic_type3app17h7243ba051c0542feE+0x124>)
   22ce6:	2100      	movs	r1, #0
   22ce8:	460a      	mov	r2, r1
   22cea:	460b      	mov	r3, r1
   22cec:	df04      	svc	4
   22cee:	a805      	add	r0, sp, #20
   22cf0:	7804      	ldrb	r4, [r0, #0]
   22cf2:	1c68      	adds	r0, r5, #1
   22cf4:	2222      	movs	r2, #34	@ 0x22
   22cf6:	9902      	ldr	r1, [sp, #8]
   22cf8:	f007 fc40 	bl	2a57c <__aeabi_memcpy>
   22cfc:	702e      	strb	r6, [r5, #0]
   22cfe:	e7bc      	b.n	22c7a <_ZN20complex_dynamic_type3app17h7243ba051c0542feE+0x9e>
   22d00:	0000247c 	.word	0x0000247c

00022d04 <_ZN20complex_dynamic_type3app17h72d28e56f632e202E>:
   22d04:	b5f0      	push	{r4, r5, r6, r7, lr}
   22d06:	af03      	add	r7, sp, #12
   22d08:	b0a7      	sub	sp, #156	@ 0x9c
   22d0a:	9004      	str	r0, [sp, #16]
   22d0c:	a805      	add	r0, sp, #20
   22d0e:	2402      	movs	r4, #2
   22d10:	7004      	strb	r4, [r0, #0]
   22d12:	1c40      	adds	r0, r0, #1
   22d14:	9003      	str	r0, [sp, #12]
   22d16:	252a      	movs	r5, #42	@ 0x2a
   22d18:	462a      	mov	r2, r5
   22d1a:	f007 fc2f 	bl	2a57c <__aeabi_memcpy>
   22d1e:	ae10      	add	r6, sp, #64	@ 0x40
   22d20:	1c70      	adds	r0, r6, #1
   22d22:	2159      	movs	r1, #89	@ 0x59
   22d24:	9002      	str	r0, [sp, #8]
   22d26:	f007 fa69 	bl	2a1fc <__aeabi_memclr>
   22d2a:	9401      	str	r4, [sp, #4]
   22d2c:	7034      	strb	r4, [r6, #0]
   22d2e:	483f      	ldr	r0, [pc, #252]	@ (22e2c <_ZN20complex_dynamic_type3app17h72d28e56f632e202E+0x128>)
   22d30:	2601      	movs	r6, #1
   22d32:	4631      	mov	r1, r6
   22d34:	9a03      	ldr	r2, [sp, #12]
   22d36:	462b      	mov	r3, r5
   22d38:	df04      	svc	4
   22d3a:	2802      	cmp	r0, #2
   22d3c:	d103      	bne.n	22d46 <_ZN20complex_dynamic_type3app17h72d28e56f632e202E+0x42>
   22d3e:	9804      	ldr	r0, [sp, #16]
   22d40:	7006      	strb	r6, [r0, #0]
   22d42:	6041      	str	r1, [r0, #4]
   22d44:	e02c      	b.n	22da0 <_ZN20complex_dynamic_type3app17h72d28e56f632e202E+0x9c>
   22d46:	a805      	add	r0, sp, #20
   22d48:	2104      	movs	r1, #4
   22d4a:	7001      	strb	r1, [r0, #0]
   22d4c:	4837      	ldr	r0, [pc, #220]	@ (22e2c <_ZN20complex_dynamic_type3app17h72d28e56f632e202E+0x128>)
   22d4e:	2403      	movs	r4, #3
   22d50:	2359      	movs	r3, #89	@ 0x59
   22d52:	4621      	mov	r1, r4
   22d54:	9a02      	ldr	r2, [sp, #8]
   22d56:	df03      	svc	3
   22d58:	2802      	cmp	r0, #2
   22d5a:	d10e      	bne.n	22d7a <_ZN20complex_dynamic_type3app17h72d28e56f632e202E+0x76>
   22d5c:	9804      	ldr	r0, [sp, #16]
   22d5e:	7006      	strb	r6, [r0, #0]
   22d60:	6041      	str	r1, [r0, #4]
   22d62:	a810      	add	r0, sp, #64	@ 0x40
   22d64:	7800      	ldrb	r0, [r0, #0]
   22d66:	2802      	cmp	r0, #2
   22d68:	d01a      	beq.n	22da0 <_ZN20complex_dynamic_type3app17h72d28e56f632e202E+0x9c>
   22d6a:	2803      	cmp	r0, #3
   22d6c:	d013      	beq.n	22d96 <_ZN20complex_dynamic_type3app17h72d28e56f632e202E+0x92>
   22d6e:	482f      	ldr	r0, [pc, #188]	@ (22e2c <_ZN20complex_dynamic_type3app17h72d28e56f632e202E+0x128>)
   22d70:	2103      	movs	r1, #3
   22d72:	2200      	movs	r2, #0
   22d74:	4613      	mov	r3, r2
   22d76:	df04      	svc	4
   22d78:	e012      	b.n	22da0 <_ZN20complex_dynamic_type3app17h72d28e56f632e202E+0x9c>
   22d7a:	a810      	add	r0, sp, #64	@ 0x40
   22d7c:	7004      	strb	r4, [r0, #0]
   22d7e:	482b      	ldr	r0, [pc, #172]	@ (22e2c <_ZN20complex_dynamic_type3app17h72d28e56f632e202E+0x128>)
   22d80:	2501      	movs	r5, #1
   22d82:	2600      	movs	r6, #0
   22d84:	4629      	mov	r1, r5
   22d86:	4622      	mov	r2, r4
   22d88:	4633      	mov	r3, r6
   22d8a:	df02      	svc	2
   22d8c:	287f      	cmp	r0, #127	@ 0x7f
   22d8e:	d816      	bhi.n	22dbe <_ZN20complex_dynamic_type3app17h72d28e56f632e202E+0xba>
   22d90:	9804      	ldr	r0, [sp, #16]
   22d92:	7005      	strb	r5, [r0, #0]
   22d94:	6041      	str	r1, [r0, #4]
   22d96:	4825      	ldr	r0, [pc, #148]	@ (22e2c <_ZN20complex_dynamic_type3app17h72d28e56f632e202E+0x128>)
   22d98:	2103      	movs	r1, #3
   22d9a:	2200      	movs	r2, #0
   22d9c:	4613      	mov	r3, r2
   22d9e:	df03      	svc	3
   22da0:	a805      	add	r0, sp, #20
   22da2:	7804      	ldrb	r4, [r0, #0]
   22da4:	2c02      	cmp	r4, #2
   22da6:	d008      	beq.n	22dba <_ZN20complex_dynamic_type3app17h72d28e56f632e202E+0xb6>
   22da8:	4820      	ldr	r0, [pc, #128]	@ (22e2c <_ZN20complex_dynamic_type3app17h72d28e56f632e202E+0x128>)
   22daa:	2101      	movs	r1, #1
   22dac:	2200      	movs	r2, #0
   22dae:	4613      	mov	r3, r2
   22db0:	2c03      	cmp	r4, #3
   22db2:	d101      	bne.n	22db8 <_ZN20complex_dynamic_type3app17h72d28e56f632e202E+0xb4>
   22db4:	df03      	svc	3
   22db6:	e000      	b.n	22dba <_ZN20complex_dynamic_type3app17h72d28e56f632e202E+0xb6>
   22db8:	df04      	svc	4
   22dba:	b027      	add	sp, #156	@ 0x9c
   22dbc:	bdf0      	pop	{r4, r5, r6, r7, pc}
   22dbe:	a805      	add	r0, sp, #20
   22dc0:	7800      	ldrb	r0, [r0, #0]
   22dc2:	2802      	cmp	r0, #2
   22dc4:	9d04      	ldr	r5, [sp, #16]
   22dc6:	d01c      	beq.n	22e02 <_ZN20complex_dynamic_type3app17h72d28e56f632e202E+0xfe>
   22dc8:	2803      	cmp	r0, #3
   22dca:	d105      	bne.n	22dd8 <_ZN20complex_dynamic_type3app17h72d28e56f632e202E+0xd4>
   22dcc:	4817      	ldr	r0, [pc, #92]	@ (22e2c <_ZN20complex_dynamic_type3app17h72d28e56f632e202E+0x128>)
   22dce:	2101      	movs	r1, #1
   22dd0:	2200      	movs	r2, #0
   22dd2:	4613      	mov	r3, r2
   22dd4:	df03      	svc	3
   22dd6:	e004      	b.n	22de2 <_ZN20complex_dynamic_type3app17h72d28e56f632e202E+0xde>
   22dd8:	4814      	ldr	r0, [pc, #80]	@ (22e2c <_ZN20complex_dynamic_type3app17h72d28e56f632e202E+0x128>)
   22dda:	2101      	movs	r1, #1
   22ddc:	2200      	movs	r2, #0
   22dde:	4613      	mov	r3, r2
   22de0:	df04      	svc	4
   22de2:	9901      	ldr	r1, [sp, #4]
   22de4:	a805      	add	r0, sp, #20
   22de6:	7001      	strb	r1, [r0, #0]
   22de8:	a810      	add	r0, sp, #64	@ 0x40
   22dea:	7800      	ldrb	r0, [r0, #0]
   22dec:	2803      	cmp	r0, #3
   22dee:	d008      	beq.n	22e02 <_ZN20complex_dynamic_type3app17h72d28e56f632e202E+0xfe>
   22df0:	2802      	cmp	r0, #2
   22df2:	d10c      	bne.n	22e0e <_ZN20complex_dynamic_type3app17h72d28e56f632e202E+0x10a>
   22df4:	1c68      	adds	r0, r5, #1
   22df6:	2259      	movs	r2, #89	@ 0x59
   22df8:	9902      	ldr	r1, [sp, #8]
   22dfa:	f007 fbbf 	bl	2a57c <__aeabi_memcpy>
   22dfe:	702e      	strb	r6, [r5, #0]
   22e00:	e7db      	b.n	22dba <_ZN20complex_dynamic_type3app17h72d28e56f632e202E+0xb6>
   22e02:	480a      	ldr	r0, [pc, #40]	@ (22e2c <_ZN20complex_dynamic_type3app17h72d28e56f632e202E+0x128>)
   22e04:	2103      	movs	r1, #3
   22e06:	2200      	movs	r2, #0
   22e08:	4613      	mov	r3, r2
   22e0a:	df03      	svc	3
   22e0c:	e004      	b.n	22e18 <_ZN20complex_dynamic_type3app17h72d28e56f632e202E+0x114>
   22e0e:	4807      	ldr	r0, [pc, #28]	@ (22e2c <_ZN20complex_dynamic_type3app17h72d28e56f632e202E+0x128>)
   22e10:	2103      	movs	r1, #3
   22e12:	2200      	movs	r2, #0
   22e14:	4613      	mov	r3, r2
   22e16:	df04      	svc	4
   22e18:	a805      	add	r0, sp, #20
   22e1a:	7804      	ldrb	r4, [r0, #0]
   22e1c:	1c68      	adds	r0, r5, #1
   22e1e:	2259      	movs	r2, #89	@ 0x59
   22e20:	9902      	ldr	r1, [sp, #8]
   22e22:	f007 fbab 	bl	2a57c <__aeabi_memcpy>
   22e26:	702e      	strb	r6, [r5, #0]
   22e28:	e7bc      	b.n	22da4 <_ZN20complex_dynamic_type3app17h72d28e56f632e202E+0xa0>
   22e2a:	46c0      	nop			@ (mov r8, r8)
   22e2c:	00000ed2 	.word	0x00000ed2

00022e30 <_ZN20complex_dynamic_type3app17h7c016a70107dafbfE>:
   22e30:	b5f0      	push	{r4, r5, r6, r7, lr}
   22e32:	af03      	add	r7, sp, #12
   22e34:	b0a1      	sub	sp, #132	@ 0x84
   22e36:	9003      	str	r0, [sp, #12]
   22e38:	a804      	add	r0, sp, #16
   22e3a:	2402      	movs	r4, #2
   22e3c:	7004      	strb	r4, [r0, #0]
   22e3e:	1c46      	adds	r6, r0, #1
   22e40:	223c      	movs	r2, #60	@ 0x3c
   22e42:	9202      	str	r2, [sp, #8]
   22e44:	4630      	mov	r0, r6
   22e46:	f007 fb99 	bl	2a57c <__aeabi_memcpy>
   22e4a:	ad14      	add	r5, sp, #80	@ 0x50
   22e4c:	1c68      	adds	r0, r5, #1
   22e4e:	2132      	movs	r1, #50	@ 0x32
   22e50:	9001      	str	r0, [sp, #4]
   22e52:	f007 f9d3 	bl	2a1fc <__aeabi_memclr>
   22e56:	9400      	str	r4, [sp, #0]
   22e58:	702c      	strb	r4, [r5, #0]
   22e5a:	483f      	ldr	r0, [pc, #252]	@ (22f58 <_ZN20complex_dynamic_type3app17h7c016a70107dafbfE+0x128>)
   22e5c:	2106      	movs	r1, #6
   22e5e:	4632      	mov	r2, r6
   22e60:	9b02      	ldr	r3, [sp, #8]
   22e62:	df04      	svc	4
   22e64:	2802      	cmp	r0, #2
   22e66:	d104      	bne.n	22e72 <_ZN20complex_dynamic_type3app17h7c016a70107dafbfE+0x42>
   22e68:	2001      	movs	r0, #1
   22e6a:	9a03      	ldr	r2, [sp, #12]
   22e6c:	7010      	strb	r0, [r2, #0]
   22e6e:	6051      	str	r1, [r2, #4]
   22e70:	e02d      	b.n	22ece <_ZN20complex_dynamic_type3app17h7c016a70107dafbfE+0x9e>
   22e72:	9d03      	ldr	r5, [sp, #12]
   22e74:	a804      	add	r0, sp, #16
   22e76:	2104      	movs	r1, #4
   22e78:	7001      	strb	r1, [r0, #0]
   22e7a:	4837      	ldr	r0, [pc, #220]	@ (22f58 <_ZN20complex_dynamic_type3app17h7c016a70107dafbfE+0x128>)
   22e7c:	2108      	movs	r1, #8
   22e7e:	2332      	movs	r3, #50	@ 0x32
   22e80:	9c01      	ldr	r4, [sp, #4]
   22e82:	4622      	mov	r2, r4
   22e84:	df03      	svc	3
   22e86:	2802      	cmp	r0, #2
   22e88:	d10e      	bne.n	22ea8 <_ZN20complex_dynamic_type3app17h7c016a70107dafbfE+0x78>
   22e8a:	2001      	movs	r0, #1
   22e8c:	7028      	strb	r0, [r5, #0]
   22e8e:	6069      	str	r1, [r5, #4]
   22e90:	a814      	add	r0, sp, #80	@ 0x50
   22e92:	7800      	ldrb	r0, [r0, #0]
   22e94:	2802      	cmp	r0, #2
   22e96:	d01a      	beq.n	22ece <_ZN20complex_dynamic_type3app17h7c016a70107dafbfE+0x9e>
   22e98:	2803      	cmp	r0, #3
   22e9a:	d013      	beq.n	22ec4 <_ZN20complex_dynamic_type3app17h7c016a70107dafbfE+0x94>
   22e9c:	482e      	ldr	r0, [pc, #184]	@ (22f58 <_ZN20complex_dynamic_type3app17h7c016a70107dafbfE+0x128>)
   22e9e:	2108      	movs	r1, #8
   22ea0:	2200      	movs	r2, #0
   22ea2:	4613      	mov	r3, r2
   22ea4:	df04      	svc	4
   22ea6:	e012      	b.n	22ece <_ZN20complex_dynamic_type3app17h7c016a70107dafbfE+0x9e>
   22ea8:	a814      	add	r0, sp, #80	@ 0x50
   22eaa:	2103      	movs	r1, #3
   22eac:	7001      	strb	r1, [r0, #0]
   22eae:	482a      	ldr	r0, [pc, #168]	@ (22f58 <_ZN20complex_dynamic_type3app17h7c016a70107dafbfE+0x128>)
   22eb0:	2106      	movs	r1, #6
   22eb2:	2208      	movs	r2, #8
   22eb4:	2600      	movs	r6, #0
   22eb6:	4633      	mov	r3, r6
   22eb8:	df02      	svc	2
   22eba:	287f      	cmp	r0, #127	@ 0x7f
   22ebc:	d816      	bhi.n	22eec <_ZN20complex_dynamic_type3app17h7c016a70107dafbfE+0xbc>
   22ebe:	2001      	movs	r0, #1
   22ec0:	7028      	strb	r0, [r5, #0]
   22ec2:	6069      	str	r1, [r5, #4]
   22ec4:	4824      	ldr	r0, [pc, #144]	@ (22f58 <_ZN20complex_dynamic_type3app17h7c016a70107dafbfE+0x128>)
   22ec6:	2108      	movs	r1, #8
   22ec8:	2200      	movs	r2, #0
   22eca:	4613      	mov	r3, r2
   22ecc:	df03      	svc	3
   22ece:	a804      	add	r0, sp, #16
   22ed0:	7804      	ldrb	r4, [r0, #0]
   22ed2:	2c02      	cmp	r4, #2
   22ed4:	d008      	beq.n	22ee8 <_ZN20complex_dynamic_type3app17h7c016a70107dafbfE+0xb8>
   22ed6:	4820      	ldr	r0, [pc, #128]	@ (22f58 <_ZN20complex_dynamic_type3app17h7c016a70107dafbfE+0x128>)
   22ed8:	2106      	movs	r1, #6
   22eda:	2200      	movs	r2, #0
   22edc:	4613      	mov	r3, r2
   22ede:	2c03      	cmp	r4, #3
   22ee0:	d101      	bne.n	22ee6 <_ZN20complex_dynamic_type3app17h7c016a70107dafbfE+0xb6>
   22ee2:	df03      	svc	3
   22ee4:	e000      	b.n	22ee8 <_ZN20complex_dynamic_type3app17h7c016a70107dafbfE+0xb8>
   22ee6:	df04      	svc	4
   22ee8:	b021      	add	sp, #132	@ 0x84
   22eea:	bdf0      	pop	{r4, r5, r6, r7, pc}
   22eec:	a804      	add	r0, sp, #16
   22eee:	7800      	ldrb	r0, [r0, #0]
   22ef0:	2802      	cmp	r0, #2
   22ef2:	d01c      	beq.n	22f2e <_ZN20complex_dynamic_type3app17h7c016a70107dafbfE+0xfe>
   22ef4:	2803      	cmp	r0, #3
   22ef6:	d105      	bne.n	22f04 <_ZN20complex_dynamic_type3app17h7c016a70107dafbfE+0xd4>
   22ef8:	4817      	ldr	r0, [pc, #92]	@ (22f58 <_ZN20complex_dynamic_type3app17h7c016a70107dafbfE+0x128>)
   22efa:	2106      	movs	r1, #6
   22efc:	2200      	movs	r2, #0
   22efe:	4613      	mov	r3, r2
   22f00:	df03      	svc	3
   22f02:	e004      	b.n	22f0e <_ZN20complex_dynamic_type3app17h7c016a70107dafbfE+0xde>
   22f04:	4814      	ldr	r0, [pc, #80]	@ (22f58 <_ZN20complex_dynamic_type3app17h7c016a70107dafbfE+0x128>)
   22f06:	2106      	movs	r1, #6
   22f08:	2200      	movs	r2, #0
   22f0a:	4613      	mov	r3, r2
   22f0c:	df04      	svc	4
   22f0e:	a804      	add	r0, sp, #16
   22f10:	9900      	ldr	r1, [sp, #0]
   22f12:	7001      	strb	r1, [r0, #0]
   22f14:	a814      	add	r0, sp, #80	@ 0x50
   22f16:	7800      	ldrb	r0, [r0, #0]
   22f18:	2803      	cmp	r0, #3
   22f1a:	d008      	beq.n	22f2e <_ZN20complex_dynamic_type3app17h7c016a70107dafbfE+0xfe>
   22f1c:	2802      	cmp	r0, #2
   22f1e:	d10c      	bne.n	22f3a <_ZN20complex_dynamic_type3app17h7c016a70107dafbfE+0x10a>
   22f20:	1c68      	adds	r0, r5, #1
   22f22:	2232      	movs	r2, #50	@ 0x32
   22f24:	4621      	mov	r1, r4
   22f26:	f007 fb29 	bl	2a57c <__aeabi_memcpy>
   22f2a:	702e      	strb	r6, [r5, #0]
   22f2c:	e7dc      	b.n	22ee8 <_ZN20complex_dynamic_type3app17h7c016a70107dafbfE+0xb8>
   22f2e:	480a      	ldr	r0, [pc, #40]	@ (22f58 <_ZN20complex_dynamic_type3app17h7c016a70107dafbfE+0x128>)
   22f30:	2108      	movs	r1, #8
   22f32:	2200      	movs	r2, #0
   22f34:	4613      	mov	r3, r2
   22f36:	df03      	svc	3
   22f38:	e004      	b.n	22f44 <_ZN20complex_dynamic_type3app17h7c016a70107dafbfE+0x114>
   22f3a:	4807      	ldr	r0, [pc, #28]	@ (22f58 <_ZN20complex_dynamic_type3app17h7c016a70107dafbfE+0x128>)
   22f3c:	2108      	movs	r1, #8
   22f3e:	2200      	movs	r2, #0
   22f40:	4613      	mov	r3, r2
   22f42:	df04      	svc	4
   22f44:	a804      	add	r0, sp, #16
   22f46:	7804      	ldrb	r4, [r0, #0]
   22f48:	1c68      	adds	r0, r5, #1
   22f4a:	2232      	movs	r2, #50	@ 0x32
   22f4c:	9901      	ldr	r1, [sp, #4]
   22f4e:	f007 fb15 	bl	2a57c <__aeabi_memcpy>
   22f52:	702e      	strb	r6, [r5, #0]
   22f54:	e7bd      	b.n	22ed2 <_ZN20complex_dynamic_type3app17h7c016a70107dafbfE+0xa2>
   22f56:	46c0      	nop			@ (mov r8, r8)
   22f58:	00001b1e 	.word	0x00001b1e

00022f5c <_ZN20complex_dynamic_type3app17h82838d2dc1af1a1aE>:
   22f5c:	b5f0      	push	{r4, r5, r6, r7, lr}
   22f5e:	af03      	add	r7, sp, #12
   22f60:	b09b      	sub	sp, #108	@ 0x6c
   22f62:	9003      	str	r0, [sp, #12]
   22f64:	a804      	add	r0, sp, #16
   22f66:	2402      	movs	r4, #2
   22f68:	7004      	strb	r4, [r0, #0]
   22f6a:	1c40      	adds	r0, r0, #1
   22f6c:	9002      	str	r0, [sp, #8]
   22f6e:	250e      	movs	r5, #14
   22f70:	462a      	mov	r2, r5
   22f72:	f007 fb03 	bl	2a57c <__aeabi_memcpy>
   22f76:	ae08      	add	r6, sp, #32
   22f78:	1c70      	adds	r0, r6, #1
   22f7a:	2148      	movs	r1, #72	@ 0x48
   22f7c:	9001      	str	r0, [sp, #4]
   22f7e:	f007 f93d 	bl	2a1fc <__aeabi_memclr>
   22f82:	9400      	str	r4, [sp, #0]
   22f84:	7034      	strb	r4, [r6, #0]
   22f86:	4841      	ldr	r0, [pc, #260]	@ (2308c <_ZN20complex_dynamic_type3app17h82838d2dc1af1a1aE+0x130>)
   22f88:	2603      	movs	r6, #3
   22f8a:	4631      	mov	r1, r6
   22f8c:	9a02      	ldr	r2, [sp, #8]
   22f8e:	462b      	mov	r3, r5
   22f90:	df04      	svc	4
   22f92:	2802      	cmp	r0, #2
   22f94:	d104      	bne.n	22fa0 <_ZN20complex_dynamic_type3app17h82838d2dc1af1a1aE+0x44>
   22f96:	2001      	movs	r0, #1
   22f98:	9a03      	ldr	r2, [sp, #12]
   22f9a:	7010      	strb	r0, [r2, #0]
   22f9c:	6051      	str	r1, [r2, #4]
   22f9e:	e02c      	b.n	22ffa <_ZN20complex_dynamic_type3app17h82838d2dc1af1a1aE+0x9e>
   22fa0:	9d03      	ldr	r5, [sp, #12]
   22fa2:	a804      	add	r0, sp, #16
   22fa4:	2104      	movs	r1, #4
   22fa6:	7001      	strb	r1, [r0, #0]
   22fa8:	4838      	ldr	r0, [pc, #224]	@ (2308c <_ZN20complex_dynamic_type3app17h82838d2dc1af1a1aE+0x130>)
   22faa:	2108      	movs	r1, #8
   22fac:	2348      	movs	r3, #72	@ 0x48
   22fae:	9c01      	ldr	r4, [sp, #4]
   22fb0:	4622      	mov	r2, r4
   22fb2:	df03      	svc	3
   22fb4:	2802      	cmp	r0, #2
   22fb6:	d10e      	bne.n	22fd6 <_ZN20complex_dynamic_type3app17h82838d2dc1af1a1aE+0x7a>
   22fb8:	2001      	movs	r0, #1
   22fba:	7028      	strb	r0, [r5, #0]
   22fbc:	6069      	str	r1, [r5, #4]
   22fbe:	a808      	add	r0, sp, #32
   22fc0:	7800      	ldrb	r0, [r0, #0]
   22fc2:	2802      	cmp	r0, #2
   22fc4:	d019      	beq.n	22ffa <_ZN20complex_dynamic_type3app17h82838d2dc1af1a1aE+0x9e>
   22fc6:	2803      	cmp	r0, #3
   22fc8:	d012      	beq.n	22ff0 <_ZN20complex_dynamic_type3app17h82838d2dc1af1a1aE+0x94>
   22fca:	4830      	ldr	r0, [pc, #192]	@ (2308c <_ZN20complex_dynamic_type3app17h82838d2dc1af1a1aE+0x130>)
   22fcc:	2108      	movs	r1, #8
   22fce:	2200      	movs	r2, #0
   22fd0:	4613      	mov	r3, r2
   22fd2:	df04      	svc	4
   22fd4:	e011      	b.n	22ffa <_ZN20complex_dynamic_type3app17h82838d2dc1af1a1aE+0x9e>
   22fd6:	a808      	add	r0, sp, #32
   22fd8:	7006      	strb	r6, [r0, #0]
   22fda:	482c      	ldr	r0, [pc, #176]	@ (2308c <_ZN20complex_dynamic_type3app17h82838d2dc1af1a1aE+0x130>)
   22fdc:	2208      	movs	r2, #8
   22fde:	2300      	movs	r3, #0
   22fe0:	4631      	mov	r1, r6
   22fe2:	9302      	str	r3, [sp, #8]
   22fe4:	df02      	svc	2
   22fe6:	287f      	cmp	r0, #127	@ 0x7f
   22fe8:	d816      	bhi.n	23018 <_ZN20complex_dynamic_type3app17h82838d2dc1af1a1aE+0xbc>
   22fea:	2001      	movs	r0, #1
   22fec:	7028      	strb	r0, [r5, #0]
   22fee:	6069      	str	r1, [r5, #4]
   22ff0:	4826      	ldr	r0, [pc, #152]	@ (2308c <_ZN20complex_dynamic_type3app17h82838d2dc1af1a1aE+0x130>)
   22ff2:	2108      	movs	r1, #8
   22ff4:	2200      	movs	r2, #0
   22ff6:	4613      	mov	r3, r2
   22ff8:	df03      	svc	3
   22ffa:	a804      	add	r0, sp, #16
   22ffc:	7804      	ldrb	r4, [r0, #0]
   22ffe:	2c02      	cmp	r4, #2
   23000:	d008      	beq.n	23014 <_ZN20complex_dynamic_type3app17h82838d2dc1af1a1aE+0xb8>
   23002:	4822      	ldr	r0, [pc, #136]	@ (2308c <_ZN20complex_dynamic_type3app17h82838d2dc1af1a1aE+0x130>)
   23004:	2103      	movs	r1, #3
   23006:	2200      	movs	r2, #0
   23008:	4613      	mov	r3, r2
   2300a:	2c03      	cmp	r4, #3
   2300c:	d101      	bne.n	23012 <_ZN20complex_dynamic_type3app17h82838d2dc1af1a1aE+0xb6>
   2300e:	df03      	svc	3
   23010:	e000      	b.n	23014 <_ZN20complex_dynamic_type3app17h82838d2dc1af1a1aE+0xb8>
   23012:	df04      	svc	4
   23014:	b01b      	add	sp, #108	@ 0x6c
   23016:	bdf0      	pop	{r4, r5, r6, r7, pc}
   23018:	a804      	add	r0, sp, #16
   2301a:	7800      	ldrb	r0, [r0, #0]
   2301c:	2802      	cmp	r0, #2
   2301e:	d01d      	beq.n	2305c <_ZN20complex_dynamic_type3app17h82838d2dc1af1a1aE+0x100>
   23020:	2803      	cmp	r0, #3
   23022:	d105      	bne.n	23030 <_ZN20complex_dynamic_type3app17h82838d2dc1af1a1aE+0xd4>
   23024:	4819      	ldr	r0, [pc, #100]	@ (2308c <_ZN20complex_dynamic_type3app17h82838d2dc1af1a1aE+0x130>)
   23026:	2103      	movs	r1, #3
   23028:	2200      	movs	r2, #0
   2302a:	4613      	mov	r3, r2
   2302c:	df03      	svc	3
   2302e:	e004      	b.n	2303a <_ZN20complex_dynamic_type3app17h82838d2dc1af1a1aE+0xde>
   23030:	4816      	ldr	r0, [pc, #88]	@ (2308c <_ZN20complex_dynamic_type3app17h82838d2dc1af1a1aE+0x130>)
   23032:	2103      	movs	r1, #3
   23034:	2200      	movs	r2, #0
   23036:	4613      	mov	r3, r2
   23038:	df04      	svc	4
   2303a:	9900      	ldr	r1, [sp, #0]
   2303c:	a804      	add	r0, sp, #16
   2303e:	7001      	strb	r1, [r0, #0]
   23040:	a808      	add	r0, sp, #32
   23042:	7800      	ldrb	r0, [r0, #0]
   23044:	2803      	cmp	r0, #3
   23046:	d009      	beq.n	2305c <_ZN20complex_dynamic_type3app17h82838d2dc1af1a1aE+0x100>
   23048:	2802      	cmp	r0, #2
   2304a:	d10e      	bne.n	2306a <_ZN20complex_dynamic_type3app17h82838d2dc1af1a1aE+0x10e>
   2304c:	1c68      	adds	r0, r5, #1
   2304e:	2248      	movs	r2, #72	@ 0x48
   23050:	4621      	mov	r1, r4
   23052:	f007 fa93 	bl	2a57c <__aeabi_memcpy>
   23056:	9802      	ldr	r0, [sp, #8]
   23058:	7028      	strb	r0, [r5, #0]
   2305a:	e7db      	b.n	23014 <_ZN20complex_dynamic_type3app17h82838d2dc1af1a1aE+0xb8>
   2305c:	4626      	mov	r6, r4
   2305e:	480b      	ldr	r0, [pc, #44]	@ (2308c <_ZN20complex_dynamic_type3app17h82838d2dc1af1a1aE+0x130>)
   23060:	2108      	movs	r1, #8
   23062:	2200      	movs	r2, #0
   23064:	4613      	mov	r3, r2
   23066:	df03      	svc	3
   23068:	e005      	b.n	23076 <_ZN20complex_dynamic_type3app17h82838d2dc1af1a1aE+0x11a>
   2306a:	4626      	mov	r6, r4
   2306c:	4807      	ldr	r0, [pc, #28]	@ (2308c <_ZN20complex_dynamic_type3app17h82838d2dc1af1a1aE+0x130>)
   2306e:	2108      	movs	r1, #8
   23070:	2200      	movs	r2, #0
   23072:	4613      	mov	r3, r2
   23074:	df04      	svc	4
   23076:	a804      	add	r0, sp, #16
   23078:	7804      	ldrb	r4, [r0, #0]
   2307a:	1c68      	adds	r0, r5, #1
   2307c:	2248      	movs	r2, #72	@ 0x48
   2307e:	4631      	mov	r1, r6
   23080:	f007 fa7c 	bl	2a57c <__aeabi_memcpy>
   23084:	9802      	ldr	r0, [sp, #8]
   23086:	7028      	strb	r0, [r5, #0]
   23088:	e7b9      	b.n	22ffe <_ZN20complex_dynamic_type3app17h82838d2dc1af1a1aE+0xa2>
   2308a:	46c0      	nop			@ (mov r8, r8)
   2308c:	000012d1 	.word	0x000012d1

00023090 <_ZN20complex_dynamic_type3app17h846cdb8a77e1a0a8E>:
   23090:	b5f0      	push	{r4, r5, r6, r7, lr}
   23092:	af03      	add	r7, sp, #12
   23094:	b0a9      	sub	sp, #164	@ 0xa4
   23096:	9003      	str	r0, [sp, #12]
   23098:	a804      	add	r0, sp, #16
   2309a:	2402      	movs	r4, #2
   2309c:	7004      	strb	r4, [r0, #0]
   2309e:	1c40      	adds	r0, r0, #1
   230a0:	9002      	str	r0, [sp, #8]
   230a2:	2550      	movs	r5, #80	@ 0x50
   230a4:	462a      	mov	r2, r5
   230a6:	f007 fa69 	bl	2a57c <__aeabi_memcpy>
   230aa:	ae19      	add	r6, sp, #100	@ 0x64
   230ac:	1c70      	adds	r0, r6, #1
   230ae:	213c      	movs	r1, #60	@ 0x3c
   230b0:	9001      	str	r0, [sp, #4]
   230b2:	f007 f8a3 	bl	2a1fc <__aeabi_memclr>
   230b6:	9400      	str	r4, [sp, #0]
   230b8:	7034      	strb	r4, [r6, #0]
   230ba:	4841      	ldr	r0, [pc, #260]	@ (231c0 <_ZN20complex_dynamic_type3app17h846cdb8a77e1a0a8E+0x130>)
   230bc:	2603      	movs	r6, #3
   230be:	4631      	mov	r1, r6
   230c0:	9a02      	ldr	r2, [sp, #8]
   230c2:	462b      	mov	r3, r5
   230c4:	df04      	svc	4
   230c6:	2802      	cmp	r0, #2
   230c8:	d104      	bne.n	230d4 <_ZN20complex_dynamic_type3app17h846cdb8a77e1a0a8E+0x44>
   230ca:	2001      	movs	r0, #1
   230cc:	9a03      	ldr	r2, [sp, #12]
   230ce:	7010      	strb	r0, [r2, #0]
   230d0:	6051      	str	r1, [r2, #4]
   230d2:	e02c      	b.n	2312e <_ZN20complex_dynamic_type3app17h846cdb8a77e1a0a8E+0x9e>
   230d4:	9d03      	ldr	r5, [sp, #12]
   230d6:	a804      	add	r0, sp, #16
   230d8:	2104      	movs	r1, #4
   230da:	7001      	strb	r1, [r0, #0]
   230dc:	4838      	ldr	r0, [pc, #224]	@ (231c0 <_ZN20complex_dynamic_type3app17h846cdb8a77e1a0a8E+0x130>)
   230de:	2109      	movs	r1, #9
   230e0:	233c      	movs	r3, #60	@ 0x3c
   230e2:	9c01      	ldr	r4, [sp, #4]
   230e4:	4622      	mov	r2, r4
   230e6:	df03      	svc	3
   230e8:	2802      	cmp	r0, #2
   230ea:	d10e      	bne.n	2310a <_ZN20complex_dynamic_type3app17h846cdb8a77e1a0a8E+0x7a>
   230ec:	2001      	movs	r0, #1
   230ee:	7028      	strb	r0, [r5, #0]
   230f0:	6069      	str	r1, [r5, #4]
   230f2:	a819      	add	r0, sp, #100	@ 0x64
   230f4:	7800      	ldrb	r0, [r0, #0]
   230f6:	2802      	cmp	r0, #2
   230f8:	d019      	beq.n	2312e <_ZN20complex_dynamic_type3app17h846cdb8a77e1a0a8E+0x9e>
   230fa:	2803      	cmp	r0, #3
   230fc:	d012      	beq.n	23124 <_ZN20complex_dynamic_type3app17h846cdb8a77e1a0a8E+0x94>
   230fe:	4830      	ldr	r0, [pc, #192]	@ (231c0 <_ZN20complex_dynamic_type3app17h846cdb8a77e1a0a8E+0x130>)
   23100:	2109      	movs	r1, #9
   23102:	2200      	movs	r2, #0
   23104:	4613      	mov	r3, r2
   23106:	df04      	svc	4
   23108:	e011      	b.n	2312e <_ZN20complex_dynamic_type3app17h846cdb8a77e1a0a8E+0x9e>
   2310a:	a819      	add	r0, sp, #100	@ 0x64
   2310c:	7006      	strb	r6, [r0, #0]
   2310e:	482c      	ldr	r0, [pc, #176]	@ (231c0 <_ZN20complex_dynamic_type3app17h846cdb8a77e1a0a8E+0x130>)
   23110:	2209      	movs	r2, #9
   23112:	2300      	movs	r3, #0
   23114:	4631      	mov	r1, r6
   23116:	9302      	str	r3, [sp, #8]
   23118:	df02      	svc	2
   2311a:	287f      	cmp	r0, #127	@ 0x7f
   2311c:	d816      	bhi.n	2314c <_ZN20complex_dynamic_type3app17h846cdb8a77e1a0a8E+0xbc>
   2311e:	2001      	movs	r0, #1
   23120:	7028      	strb	r0, [r5, #0]
   23122:	6069      	str	r1, [r5, #4]
   23124:	4826      	ldr	r0, [pc, #152]	@ (231c0 <_ZN20complex_dynamic_type3app17h846cdb8a77e1a0a8E+0x130>)
   23126:	2109      	movs	r1, #9
   23128:	2200      	movs	r2, #0
   2312a:	4613      	mov	r3, r2
   2312c:	df03      	svc	3
   2312e:	a804      	add	r0, sp, #16
   23130:	7804      	ldrb	r4, [r0, #0]
   23132:	2c02      	cmp	r4, #2
   23134:	d008      	beq.n	23148 <_ZN20complex_dynamic_type3app17h846cdb8a77e1a0a8E+0xb8>
   23136:	4822      	ldr	r0, [pc, #136]	@ (231c0 <_ZN20complex_dynamic_type3app17h846cdb8a77e1a0a8E+0x130>)
   23138:	2103      	movs	r1, #3
   2313a:	2200      	movs	r2, #0
   2313c:	4613      	mov	r3, r2
   2313e:	2c03      	cmp	r4, #3
   23140:	d101      	bne.n	23146 <_ZN20complex_dynamic_type3app17h846cdb8a77e1a0a8E+0xb6>
   23142:	df03      	svc	3
   23144:	e000      	b.n	23148 <_ZN20complex_dynamic_type3app17h846cdb8a77e1a0a8E+0xb8>
   23146:	df04      	svc	4
   23148:	b029      	add	sp, #164	@ 0xa4
   2314a:	bdf0      	pop	{r4, r5, r6, r7, pc}
   2314c:	a804      	add	r0, sp, #16
   2314e:	7800      	ldrb	r0, [r0, #0]
   23150:	2802      	cmp	r0, #2
   23152:	d01d      	beq.n	23190 <_ZN20complex_dynamic_type3app17h846cdb8a77e1a0a8E+0x100>
   23154:	2803      	cmp	r0, #3
   23156:	d105      	bne.n	23164 <_ZN20complex_dynamic_type3app17h846cdb8a77e1a0a8E+0xd4>
   23158:	4819      	ldr	r0, [pc, #100]	@ (231c0 <_ZN20complex_dynamic_type3app17h846cdb8a77e1a0a8E+0x130>)
   2315a:	2103      	movs	r1, #3
   2315c:	2200      	movs	r2, #0
   2315e:	4613      	mov	r3, r2
   23160:	df03      	svc	3
   23162:	e004      	b.n	2316e <_ZN20complex_dynamic_type3app17h846cdb8a77e1a0a8E+0xde>
   23164:	4816      	ldr	r0, [pc, #88]	@ (231c0 <_ZN20complex_dynamic_type3app17h846cdb8a77e1a0a8E+0x130>)
   23166:	2103      	movs	r1, #3
   23168:	2200      	movs	r2, #0
   2316a:	4613      	mov	r3, r2
   2316c:	df04      	svc	4
   2316e:	9900      	ldr	r1, [sp, #0]
   23170:	a804      	add	r0, sp, #16
   23172:	7001      	strb	r1, [r0, #0]
   23174:	a819      	add	r0, sp, #100	@ 0x64
   23176:	7800      	ldrb	r0, [r0, #0]
   23178:	2803      	cmp	r0, #3
   2317a:	d009      	beq.n	23190 <_ZN20complex_dynamic_type3app17h846cdb8a77e1a0a8E+0x100>
   2317c:	2802      	cmp	r0, #2
   2317e:	d10e      	bne.n	2319e <_ZN20complex_dynamic_type3app17h846cdb8a77e1a0a8E+0x10e>
   23180:	1c68      	adds	r0, r5, #1
   23182:	223c      	movs	r2, #60	@ 0x3c
   23184:	4621      	mov	r1, r4
   23186:	f007 f9f9 	bl	2a57c <__aeabi_memcpy>
   2318a:	9802      	ldr	r0, [sp, #8]
   2318c:	7028      	strb	r0, [r5, #0]
   2318e:	e7db      	b.n	23148 <_ZN20complex_dynamic_type3app17h846cdb8a77e1a0a8E+0xb8>
   23190:	4626      	mov	r6, r4
   23192:	480b      	ldr	r0, [pc, #44]	@ (231c0 <_ZN20complex_dynamic_type3app17h846cdb8a77e1a0a8E+0x130>)
   23194:	2109      	movs	r1, #9
   23196:	2200      	movs	r2, #0
   23198:	4613      	mov	r3, r2
   2319a:	df03      	svc	3
   2319c:	e005      	b.n	231aa <_ZN20complex_dynamic_type3app17h846cdb8a77e1a0a8E+0x11a>
   2319e:	4626      	mov	r6, r4
   231a0:	4807      	ldr	r0, [pc, #28]	@ (231c0 <_ZN20complex_dynamic_type3app17h846cdb8a77e1a0a8E+0x130>)
   231a2:	2109      	movs	r1, #9
   231a4:	2200      	movs	r2, #0
   231a6:	4613      	mov	r3, r2
   231a8:	df04      	svc	4
   231aa:	a804      	add	r0, sp, #16
   231ac:	7804      	ldrb	r4, [r0, #0]
   231ae:	1c68      	adds	r0, r5, #1
   231b0:	223c      	movs	r2, #60	@ 0x3c
   231b2:	4631      	mov	r1, r6
   231b4:	f007 f9e2 	bl	2a57c <__aeabi_memcpy>
   231b8:	9802      	ldr	r0, [sp, #8]
   231ba:	7028      	strb	r0, [r5, #0]
   231bc:	e7b9      	b.n	23132 <_ZN20complex_dynamic_type3app17h846cdb8a77e1a0a8E+0xa2>
   231be:	46c0      	nop			@ (mov r8, r8)
   231c0:	00000d7a 	.word	0x00000d7a

000231c4 <_ZN20complex_dynamic_type3app17h84c79c79eac5efe6E>:
   231c4:	b5f0      	push	{r4, r5, r6, r7, lr}
   231c6:	af03      	add	r7, sp, #12
   231c8:	b0a7      	sub	sp, #156	@ 0x9c
   231ca:	9002      	str	r0, [sp, #8]
   231cc:	a803      	add	r0, sp, #12
   231ce:	2502      	movs	r5, #2
   231d0:	7005      	strb	r5, [r0, #0]
   231d2:	1c46      	adds	r6, r0, #1
   231d4:	222f      	movs	r2, #47	@ 0x2f
   231d6:	9201      	str	r2, [sp, #4]
   231d8:	4630      	mov	r0, r6
   231da:	f007 f9cf 	bl	2a57c <__aeabi_memcpy>
   231de:	ac0f      	add	r4, sp, #60	@ 0x3c
   231e0:	1c60      	adds	r0, r4, #1
   231e2:	215e      	movs	r1, #94	@ 0x5e
   231e4:	9000      	str	r0, [sp, #0]
   231e6:	f007 f809 	bl	2a1fc <__aeabi_memclr>
   231ea:	7025      	strb	r5, [r4, #0]
   231ec:	4841      	ldr	r0, [pc, #260]	@ (232f4 <_ZN20complex_dynamic_type3app17h84c79c79eac5efe6E+0x130>)
   231ee:	2105      	movs	r1, #5
   231f0:	4632      	mov	r2, r6
   231f2:	9b01      	ldr	r3, [sp, #4]
   231f4:	df04      	svc	4
   231f6:	2802      	cmp	r0, #2
   231f8:	d104      	bne.n	23204 <_ZN20complex_dynamic_type3app17h84c79c79eac5efe6E+0x40>
   231fa:	2001      	movs	r0, #1
   231fc:	9a02      	ldr	r2, [sp, #8]
   231fe:	7010      	strb	r0, [r2, #0]
   23200:	6051      	str	r1, [r2, #4]
   23202:	e02e      	b.n	23262 <_ZN20complex_dynamic_type3app17h84c79c79eac5efe6E+0x9e>
   23204:	9c02      	ldr	r4, [sp, #8]
   23206:	a803      	add	r0, sp, #12
   23208:	2104      	movs	r1, #4
   2320a:	7001      	strb	r1, [r0, #0]
   2320c:	4839      	ldr	r0, [pc, #228]	@ (232f4 <_ZN20complex_dynamic_type3app17h84c79c79eac5efe6E+0x130>)
   2320e:	2102      	movs	r1, #2
   23210:	235e      	movs	r3, #94	@ 0x5e
   23212:	9d00      	ldr	r5, [sp, #0]
   23214:	462a      	mov	r2, r5
   23216:	df03      	svc	3
   23218:	2802      	cmp	r0, #2
   2321a:	d10e      	bne.n	2323a <_ZN20complex_dynamic_type3app17h84c79c79eac5efe6E+0x76>
   2321c:	2001      	movs	r0, #1
   2321e:	7020      	strb	r0, [r4, #0]
   23220:	6061      	str	r1, [r4, #4]
   23222:	a80f      	add	r0, sp, #60	@ 0x3c
   23224:	7800      	ldrb	r0, [r0, #0]
   23226:	2802      	cmp	r0, #2
   23228:	d01b      	beq.n	23262 <_ZN20complex_dynamic_type3app17h84c79c79eac5efe6E+0x9e>
   2322a:	2803      	cmp	r0, #3
   2322c:	d014      	beq.n	23258 <_ZN20complex_dynamic_type3app17h84c79c79eac5efe6E+0x94>
   2322e:	4831      	ldr	r0, [pc, #196]	@ (232f4 <_ZN20complex_dynamic_type3app17h84c79c79eac5efe6E+0x130>)
   23230:	2102      	movs	r1, #2
   23232:	2200      	movs	r2, #0
   23234:	4613      	mov	r3, r2
   23236:	df04      	svc	4
   23238:	e013      	b.n	23262 <_ZN20complex_dynamic_type3app17h84c79c79eac5efe6E+0x9e>
   2323a:	a80f      	add	r0, sp, #60	@ 0x3c
   2323c:	2103      	movs	r1, #3
   2323e:	7001      	strb	r1, [r0, #0]
   23240:	482c      	ldr	r0, [pc, #176]	@ (232f4 <_ZN20complex_dynamic_type3app17h84c79c79eac5efe6E+0x130>)
   23242:	2105      	movs	r1, #5
   23244:	2602      	movs	r6, #2
   23246:	2300      	movs	r3, #0
   23248:	4632      	mov	r2, r6
   2324a:	9301      	str	r3, [sp, #4]
   2324c:	df02      	svc	2
   2324e:	287f      	cmp	r0, #127	@ 0x7f
   23250:	d816      	bhi.n	23280 <_ZN20complex_dynamic_type3app17h84c79c79eac5efe6E+0xbc>
   23252:	2001      	movs	r0, #1
   23254:	7020      	strb	r0, [r4, #0]
   23256:	6061      	str	r1, [r4, #4]
   23258:	4826      	ldr	r0, [pc, #152]	@ (232f4 <_ZN20complex_dynamic_type3app17h84c79c79eac5efe6E+0x130>)
   2325a:	2102      	movs	r1, #2
   2325c:	2200      	movs	r2, #0
   2325e:	4613      	mov	r3, r2
   23260:	df03      	svc	3
   23262:	a803      	add	r0, sp, #12
   23264:	7804      	ldrb	r4, [r0, #0]
   23266:	2c02      	cmp	r4, #2
   23268:	d008      	beq.n	2327c <_ZN20complex_dynamic_type3app17h84c79c79eac5efe6E+0xb8>
   2326a:	4822      	ldr	r0, [pc, #136]	@ (232f4 <_ZN20complex_dynamic_type3app17h84c79c79eac5efe6E+0x130>)
   2326c:	2105      	movs	r1, #5
   2326e:	2200      	movs	r2, #0
   23270:	4613      	mov	r3, r2
   23272:	2c03      	cmp	r4, #3
   23274:	d101      	bne.n	2327a <_ZN20complex_dynamic_type3app17h84c79c79eac5efe6E+0xb6>
   23276:	df03      	svc	3
   23278:	e000      	b.n	2327c <_ZN20complex_dynamic_type3app17h84c79c79eac5efe6E+0xb8>
   2327a:	df04      	svc	4
   2327c:	b027      	add	sp, #156	@ 0x9c
   2327e:	bdf0      	pop	{r4, r5, r6, r7, pc}
   23280:	a803      	add	r0, sp, #12
   23282:	7800      	ldrb	r0, [r0, #0]
   23284:	2802      	cmp	r0, #2
   23286:	d01c      	beq.n	232c2 <_ZN20complex_dynamic_type3app17h84c79c79eac5efe6E+0xfe>
   23288:	2803      	cmp	r0, #3
   2328a:	d105      	bne.n	23298 <_ZN20complex_dynamic_type3app17h84c79c79eac5efe6E+0xd4>
   2328c:	4819      	ldr	r0, [pc, #100]	@ (232f4 <_ZN20complex_dynamic_type3app17h84c79c79eac5efe6E+0x130>)
   2328e:	2105      	movs	r1, #5
   23290:	2200      	movs	r2, #0
   23292:	4613      	mov	r3, r2
   23294:	df03      	svc	3
   23296:	e004      	b.n	232a2 <_ZN20complex_dynamic_type3app17h84c79c79eac5efe6E+0xde>
   23298:	4816      	ldr	r0, [pc, #88]	@ (232f4 <_ZN20complex_dynamic_type3app17h84c79c79eac5efe6E+0x130>)
   2329a:	2105      	movs	r1, #5
   2329c:	2200      	movs	r2, #0
   2329e:	4613      	mov	r3, r2
   232a0:	df04      	svc	4
   232a2:	a803      	add	r0, sp, #12
   232a4:	7006      	strb	r6, [r0, #0]
   232a6:	a80f      	add	r0, sp, #60	@ 0x3c
   232a8:	7800      	ldrb	r0, [r0, #0]
   232aa:	2803      	cmp	r0, #3
   232ac:	d009      	beq.n	232c2 <_ZN20complex_dynamic_type3app17h84c79c79eac5efe6E+0xfe>
   232ae:	2802      	cmp	r0, #2
   232b0:	d10e      	bne.n	232d0 <_ZN20complex_dynamic_type3app17h84c79c79eac5efe6E+0x10c>
   232b2:	1c60      	adds	r0, r4, #1
   232b4:	225e      	movs	r2, #94	@ 0x5e
   232b6:	4629      	mov	r1, r5
   232b8:	f007 f960 	bl	2a57c <__aeabi_memcpy>
   232bc:	9801      	ldr	r0, [sp, #4]
   232be:	7020      	strb	r0, [r4, #0]
   232c0:	e7dc      	b.n	2327c <_ZN20complex_dynamic_type3app17h84c79c79eac5efe6E+0xb8>
   232c2:	462e      	mov	r6, r5
   232c4:	480b      	ldr	r0, [pc, #44]	@ (232f4 <_ZN20complex_dynamic_type3app17h84c79c79eac5efe6E+0x130>)
   232c6:	2102      	movs	r1, #2
   232c8:	2200      	movs	r2, #0
   232ca:	4613      	mov	r3, r2
   232cc:	df03      	svc	3
   232ce:	e005      	b.n	232dc <_ZN20complex_dynamic_type3app17h84c79c79eac5efe6E+0x118>
   232d0:	462e      	mov	r6, r5
   232d2:	4808      	ldr	r0, [pc, #32]	@ (232f4 <_ZN20complex_dynamic_type3app17h84c79c79eac5efe6E+0x130>)
   232d4:	2102      	movs	r1, #2
   232d6:	2200      	movs	r2, #0
   232d8:	4613      	mov	r3, r2
   232da:	df04      	svc	4
   232dc:	4625      	mov	r5, r4
   232de:	a803      	add	r0, sp, #12
   232e0:	7804      	ldrb	r4, [r0, #0]
   232e2:	1c68      	adds	r0, r5, #1
   232e4:	225e      	movs	r2, #94	@ 0x5e
   232e6:	4631      	mov	r1, r6
   232e8:	f007 f948 	bl	2a57c <__aeabi_memcpy>
   232ec:	9801      	ldr	r0, [sp, #4]
   232ee:	7028      	strb	r0, [r5, #0]
   232f0:	e7b9      	b.n	23266 <_ZN20complex_dynamic_type3app17h84c79c79eac5efe6E+0xa2>
   232f2:	46c0      	nop			@ (mov r8, r8)
   232f4:	0000022b 	.word	0x0000022b

000232f8 <_ZN20complex_dynamic_type3app17h89e395c62fcf17dcE>:
   232f8:	b5f0      	push	{r4, r5, r6, r7, lr}
   232fa:	af03      	add	r7, sp, #12
   232fc:	b0a1      	sub	sp, #132	@ 0x84
   232fe:	9002      	str	r0, [sp, #8]
   23300:	ae03      	add	r6, sp, #12
   23302:	2502      	movs	r5, #2
   23304:	7035      	strb	r5, [r6, #0]
   23306:	1c70      	adds	r0, r6, #1
   23308:	2222      	movs	r2, #34	@ 0x22
   2330a:	9201      	str	r2, [sp, #4]
   2330c:	f007 f936 	bl	2a57c <__aeabi_memcpy>
   23310:	ac0c      	add	r4, sp, #48	@ 0x30
   23312:	1c60      	adds	r0, r4, #1
   23314:	2151      	movs	r1, #81	@ 0x51
   23316:	9000      	str	r0, [sp, #0]
   23318:	f006 ff70 	bl	2a1fc <__aeabi_memclr>
   2331c:	7025      	strb	r5, [r4, #0]
   2331e:	2204      	movs	r2, #4
   23320:	4630      	mov	r0, r6
   23322:	9901      	ldr	r1, [sp, #4]
   23324:	f7fc ff74 	bl	20210 <_ZN9allow_pin12dynamic_type23Buffer$LT$B$C$_$C$_$GT$5allow17h9d320a4da3f04079E>
   23328:	07c0      	lsls	r0, r0, #31
   2332a:	d10e      	bne.n	2334a <_ZN20complex_dynamic_type3app17h89e395c62fcf17dcE+0x52>
   2332c:	a80c      	add	r0, sp, #48	@ 0x30
   2332e:	2151      	movs	r1, #81	@ 0x51
   23330:	2203      	movs	r2, #3
   23332:	f7fc ff6d 	bl	20210 <_ZN9allow_pin12dynamic_type23Buffer$LT$B$C$_$C$_$GT$5allow17h9d320a4da3f04079E>
   23336:	07c0      	lsls	r0, r0, #31
   23338:	d107      	bne.n	2334a <_ZN20complex_dynamic_type3app17h89e395c62fcf17dcE+0x52>
   2333a:	4831      	ldr	r0, [pc, #196]	@ (23400 <_ZN20complex_dynamic_type3app17h89e395c62fcf17dcE+0x108>)
   2333c:	2109      	movs	r1, #9
   2333e:	2600      	movs	r6, #0
   23340:	460a      	mov	r2, r1
   23342:	4633      	mov	r3, r6
   23344:	df02      	svc	2
   23346:	287f      	cmp	r0, #127	@ 0x7f
   23348:	d823      	bhi.n	23392 <_ZN20complex_dynamic_type3app17h89e395c62fcf17dcE+0x9a>
   2334a:	2001      	movs	r0, #1
   2334c:	9a02      	ldr	r2, [sp, #8]
   2334e:	7010      	strb	r0, [r2, #0]
   23350:	6051      	str	r1, [r2, #4]
   23352:	a80c      	add	r0, sp, #48	@ 0x30
   23354:	7800      	ldrb	r0, [r0, #0]
   23356:	2802      	cmp	r0, #2
   23358:	d00c      	beq.n	23374 <_ZN20complex_dynamic_type3app17h89e395c62fcf17dcE+0x7c>
   2335a:	2803      	cmp	r0, #3
   2335c:	d105      	bne.n	2336a <_ZN20complex_dynamic_type3app17h89e395c62fcf17dcE+0x72>
   2335e:	4828      	ldr	r0, [pc, #160]	@ (23400 <_ZN20complex_dynamic_type3app17h89e395c62fcf17dcE+0x108>)
   23360:	2109      	movs	r1, #9
   23362:	2200      	movs	r2, #0
   23364:	4613      	mov	r3, r2
   23366:	df03      	svc	3
   23368:	e004      	b.n	23374 <_ZN20complex_dynamic_type3app17h89e395c62fcf17dcE+0x7c>
   2336a:	4825      	ldr	r0, [pc, #148]	@ (23400 <_ZN20complex_dynamic_type3app17h89e395c62fcf17dcE+0x108>)
   2336c:	2109      	movs	r1, #9
   2336e:	2200      	movs	r2, #0
   23370:	4613      	mov	r3, r2
   23372:	df04      	svc	4
   23374:	a803      	add	r0, sp, #12
   23376:	7804      	ldrb	r4, [r0, #0]
   23378:	2c02      	cmp	r4, #2
   2337a:	d008      	beq.n	2338e <_ZN20complex_dynamic_type3app17h89e395c62fcf17dcE+0x96>
   2337c:	4820      	ldr	r0, [pc, #128]	@ (23400 <_ZN20complex_dynamic_type3app17h89e395c62fcf17dcE+0x108>)
   2337e:	2109      	movs	r1, #9
   23380:	2200      	movs	r2, #0
   23382:	4613      	mov	r3, r2
   23384:	2c03      	cmp	r4, #3
   23386:	d101      	bne.n	2338c <_ZN20complex_dynamic_type3app17h89e395c62fcf17dcE+0x94>
   23388:	df03      	svc	3
   2338a:	e000      	b.n	2338e <_ZN20complex_dynamic_type3app17h89e395c62fcf17dcE+0x96>
   2338c:	df04      	svc	4
   2338e:	b021      	add	sp, #132	@ 0x84
   23390:	bdf0      	pop	{r4, r5, r6, r7, pc}
   23392:	a803      	add	r0, sp, #12
   23394:	7800      	ldrb	r0, [r0, #0]
   23396:	2802      	cmp	r0, #2
   23398:	d00c      	beq.n	233b4 <_ZN20complex_dynamic_type3app17h89e395c62fcf17dcE+0xbc>
   2339a:	2803      	cmp	r0, #3
   2339c:	d105      	bne.n	233aa <_ZN20complex_dynamic_type3app17h89e395c62fcf17dcE+0xb2>
   2339e:	4818      	ldr	r0, [pc, #96]	@ (23400 <_ZN20complex_dynamic_type3app17h89e395c62fcf17dcE+0x108>)
   233a0:	2109      	movs	r1, #9
   233a2:	2200      	movs	r2, #0
   233a4:	4613      	mov	r3, r2
   233a6:	df03      	svc	3
   233a8:	e004      	b.n	233b4 <_ZN20complex_dynamic_type3app17h89e395c62fcf17dcE+0xbc>
   233aa:	4815      	ldr	r0, [pc, #84]	@ (23400 <_ZN20complex_dynamic_type3app17h89e395c62fcf17dcE+0x108>)
   233ac:	2109      	movs	r1, #9
   233ae:	2200      	movs	r2, #0
   233b0:	4613      	mov	r3, r2
   233b2:	df04      	svc	4
   233b4:	a803      	add	r0, sp, #12
   233b6:	7005      	strb	r5, [r0, #0]
   233b8:	a80c      	add	r0, sp, #48	@ 0x30
   233ba:	7800      	ldrb	r0, [r0, #0]
   233bc:	2803      	cmp	r0, #3
   233be:	d009      	beq.n	233d4 <_ZN20complex_dynamic_type3app17h89e395c62fcf17dcE+0xdc>
   233c0:	2802      	cmp	r0, #2
   233c2:	d10d      	bne.n	233e0 <_ZN20complex_dynamic_type3app17h89e395c62fcf17dcE+0xe8>
   233c4:	9c02      	ldr	r4, [sp, #8]
   233c6:	1c60      	adds	r0, r4, #1
   233c8:	2251      	movs	r2, #81	@ 0x51
   233ca:	9900      	ldr	r1, [sp, #0]
   233cc:	f007 f8d6 	bl	2a57c <__aeabi_memcpy>
   233d0:	7026      	strb	r6, [r4, #0]
   233d2:	e7dc      	b.n	2338e <_ZN20complex_dynamic_type3app17h89e395c62fcf17dcE+0x96>
   233d4:	480a      	ldr	r0, [pc, #40]	@ (23400 <_ZN20complex_dynamic_type3app17h89e395c62fcf17dcE+0x108>)
   233d6:	2109      	movs	r1, #9
   233d8:	2200      	movs	r2, #0
   233da:	4613      	mov	r3, r2
   233dc:	df03      	svc	3
   233de:	e004      	b.n	233ea <_ZN20complex_dynamic_type3app17h89e395c62fcf17dcE+0xf2>
   233e0:	4807      	ldr	r0, [pc, #28]	@ (23400 <_ZN20complex_dynamic_type3app17h89e395c62fcf17dcE+0x108>)
   233e2:	2109      	movs	r1, #9
   233e4:	2200      	movs	r2, #0
   233e6:	4613      	mov	r3, r2
   233e8:	df04      	svc	4
   233ea:	a803      	add	r0, sp, #12
   233ec:	7804      	ldrb	r4, [r0, #0]
   233ee:	9d02      	ldr	r5, [sp, #8]
   233f0:	1c68      	adds	r0, r5, #1
   233f2:	2251      	movs	r2, #81	@ 0x51
   233f4:	9900      	ldr	r1, [sp, #0]
   233f6:	f007 f8c1 	bl	2a57c <__aeabi_memcpy>
   233fa:	702e      	strb	r6, [r5, #0]
   233fc:	e7bc      	b.n	23378 <_ZN20complex_dynamic_type3app17h89e395c62fcf17dcE+0x80>
   233fe:	46c0      	nop			@ (mov r8, r8)
   23400:	0000055e 	.word	0x0000055e

00023404 <_ZN20complex_dynamic_type3app17h8a68867ca7d49226E>:
   23404:	b5f0      	push	{r4, r5, r6, r7, lr}
   23406:	af03      	add	r7, sp, #12
   23408:	b09f      	sub	sp, #124	@ 0x7c
   2340a:	9004      	str	r0, [sp, #16]
   2340c:	a805      	add	r0, sp, #20
   2340e:	2402      	movs	r4, #2
   23410:	7004      	strb	r4, [r0, #0]
   23412:	1c46      	adds	r6, r0, #1
   23414:	2211      	movs	r2, #17
   23416:	9203      	str	r2, [sp, #12]
   23418:	4630      	mov	r0, r6
   2341a:	f007 f8af 	bl	2a57c <__aeabi_memcpy>
   2341e:	ad0a      	add	r5, sp, #40	@ 0x28
   23420:	1c68      	adds	r0, r5, #1
   23422:	2150      	movs	r1, #80	@ 0x50
   23424:	9002      	str	r0, [sp, #8]
   23426:	f006 fee9 	bl	2a1fc <__aeabi_memclr>
   2342a:	9401      	str	r4, [sp, #4]
   2342c:	702c      	strb	r4, [r5, #0]
   2342e:	483f      	ldr	r0, [pc, #252]	@ (2352c <_ZN20complex_dynamic_type3app17h8a68867ca7d49226E+0x128>)
   23430:	2106      	movs	r1, #6
   23432:	4632      	mov	r2, r6
   23434:	9b03      	ldr	r3, [sp, #12]
   23436:	df04      	svc	4
   23438:	2802      	cmp	r0, #2
   2343a:	d104      	bne.n	23446 <_ZN20complex_dynamic_type3app17h8a68867ca7d49226E+0x42>
   2343c:	2001      	movs	r0, #1
   2343e:	9a04      	ldr	r2, [sp, #16]
   23440:	7010      	strb	r0, [r2, #0]
   23442:	6051      	str	r1, [r2, #4]
   23444:	e02d      	b.n	234a2 <_ZN20complex_dynamic_type3app17h8a68867ca7d49226E+0x9e>
   23446:	9d04      	ldr	r5, [sp, #16]
   23448:	a805      	add	r0, sp, #20
   2344a:	2104      	movs	r1, #4
   2344c:	7001      	strb	r1, [r0, #0]
   2344e:	4837      	ldr	r0, [pc, #220]	@ (2352c <_ZN20complex_dynamic_type3app17h8a68867ca7d49226E+0x128>)
   23450:	2105      	movs	r1, #5
   23452:	2350      	movs	r3, #80	@ 0x50
   23454:	9c02      	ldr	r4, [sp, #8]
   23456:	4622      	mov	r2, r4
   23458:	df03      	svc	3
   2345a:	2802      	cmp	r0, #2
   2345c:	d10e      	bne.n	2347c <_ZN20complex_dynamic_type3app17h8a68867ca7d49226E+0x78>
   2345e:	2001      	movs	r0, #1
   23460:	7028      	strb	r0, [r5, #0]
   23462:	6069      	str	r1, [r5, #4]
   23464:	a80a      	add	r0, sp, #40	@ 0x28
   23466:	7800      	ldrb	r0, [r0, #0]
   23468:	2802      	cmp	r0, #2
   2346a:	d01a      	beq.n	234a2 <_ZN20complex_dynamic_type3app17h8a68867ca7d49226E+0x9e>
   2346c:	2803      	cmp	r0, #3
   2346e:	d013      	beq.n	23498 <_ZN20complex_dynamic_type3app17h8a68867ca7d49226E+0x94>
   23470:	482e      	ldr	r0, [pc, #184]	@ (2352c <_ZN20complex_dynamic_type3app17h8a68867ca7d49226E+0x128>)
   23472:	2105      	movs	r1, #5
   23474:	2200      	movs	r2, #0
   23476:	4613      	mov	r3, r2
   23478:	df04      	svc	4
   2347a:	e012      	b.n	234a2 <_ZN20complex_dynamic_type3app17h8a68867ca7d49226E+0x9e>
   2347c:	a80a      	add	r0, sp, #40	@ 0x28
   2347e:	2103      	movs	r1, #3
   23480:	7001      	strb	r1, [r0, #0]
   23482:	482a      	ldr	r0, [pc, #168]	@ (2352c <_ZN20complex_dynamic_type3app17h8a68867ca7d49226E+0x128>)
   23484:	2106      	movs	r1, #6
   23486:	2205      	movs	r2, #5
   23488:	2600      	movs	r6, #0
   2348a:	4633      	mov	r3, r6
   2348c:	df02      	svc	2
   2348e:	287f      	cmp	r0, #127	@ 0x7f
   23490:	d816      	bhi.n	234c0 <_ZN20complex_dynamic_type3app17h8a68867ca7d49226E+0xbc>
   23492:	2001      	movs	r0, #1
   23494:	7028      	strb	r0, [r5, #0]
   23496:	6069      	str	r1, [r5, #4]
   23498:	4824      	ldr	r0, [pc, #144]	@ (2352c <_ZN20complex_dynamic_type3app17h8a68867ca7d49226E+0x128>)
   2349a:	2105      	movs	r1, #5
   2349c:	2200      	movs	r2, #0
   2349e:	4613      	mov	r3, r2
   234a0:	df03      	svc	3
   234a2:	a805      	add	r0, sp, #20
   234a4:	7804      	ldrb	r4, [r0, #0]
   234a6:	2c02      	cmp	r4, #2
   234a8:	d008      	beq.n	234bc <_ZN20complex_dynamic_type3app17h8a68867ca7d49226E+0xb8>
   234aa:	4820      	ldr	r0, [pc, #128]	@ (2352c <_ZN20complex_dynamic_type3app17h8a68867ca7d49226E+0x128>)
   234ac:	2106      	movs	r1, #6
   234ae:	2200      	movs	r2, #0
   234b0:	4613      	mov	r3, r2
   234b2:	2c03      	cmp	r4, #3
   234b4:	d101      	bne.n	234ba <_ZN20complex_dynamic_type3app17h8a68867ca7d49226E+0xb6>
   234b6:	df03      	svc	3
   234b8:	e000      	b.n	234bc <_ZN20complex_dynamic_type3app17h8a68867ca7d49226E+0xb8>
   234ba:	df04      	svc	4
   234bc:	b01f      	add	sp, #124	@ 0x7c
   234be:	bdf0      	pop	{r4, r5, r6, r7, pc}
   234c0:	a805      	add	r0, sp, #20
   234c2:	7800      	ldrb	r0, [r0, #0]
   234c4:	2802      	cmp	r0, #2
   234c6:	d01c      	beq.n	23502 <_ZN20complex_dynamic_type3app17h8a68867ca7d49226E+0xfe>
   234c8:	2803      	cmp	r0, #3
   234ca:	d105      	bne.n	234d8 <_ZN20complex_dynamic_type3app17h8a68867ca7d49226E+0xd4>
   234cc:	4817      	ldr	r0, [pc, #92]	@ (2352c <_ZN20complex_dynamic_type3app17h8a68867ca7d49226E+0x128>)
   234ce:	2106      	movs	r1, #6
   234d0:	2200      	movs	r2, #0
   234d2:	4613      	mov	r3, r2
   234d4:	df03      	svc	3
   234d6:	e004      	b.n	234e2 <_ZN20complex_dynamic_type3app17h8a68867ca7d49226E+0xde>
   234d8:	4814      	ldr	r0, [pc, #80]	@ (2352c <_ZN20complex_dynamic_type3app17h8a68867ca7d49226E+0x128>)
   234da:	2106      	movs	r1, #6
   234dc:	2200      	movs	r2, #0
   234de:	4613      	mov	r3, r2
   234e0:	df04      	svc	4
   234e2:	a805      	add	r0, sp, #20
   234e4:	9901      	ldr	r1, [sp, #4]
   234e6:	7001      	strb	r1, [r0, #0]
   234e8:	a80a      	add	r0, sp, #40	@ 0x28
   234ea:	7800      	ldrb	r0, [r0, #0]
   234ec:	2803      	cmp	r0, #3
   234ee:	d008      	beq.n	23502 <_ZN20complex_dynamic_type3app17h8a68867ca7d49226E+0xfe>
   234f0:	2802      	cmp	r0, #2
   234f2:	d10c      	bne.n	2350e <_ZN20complex_dynamic_type3app17h8a68867ca7d49226E+0x10a>
   234f4:	1c68      	adds	r0, r5, #1
   234f6:	2250      	movs	r2, #80	@ 0x50
   234f8:	4621      	mov	r1, r4
   234fa:	f007 f83f 	bl	2a57c <__aeabi_memcpy>
   234fe:	702e      	strb	r6, [r5, #0]
   23500:	e7dc      	b.n	234bc <_ZN20complex_dynamic_type3app17h8a68867ca7d49226E+0xb8>
   23502:	480a      	ldr	r0, [pc, #40]	@ (2352c <_ZN20complex_dynamic_type3app17h8a68867ca7d49226E+0x128>)
   23504:	2105      	movs	r1, #5
   23506:	2200      	movs	r2, #0
   23508:	4613      	mov	r3, r2
   2350a:	df03      	svc	3
   2350c:	e004      	b.n	23518 <_ZN20complex_dynamic_type3app17h8a68867ca7d49226E+0x114>
   2350e:	4807      	ldr	r0, [pc, #28]	@ (2352c <_ZN20complex_dynamic_type3app17h8a68867ca7d49226E+0x128>)
   23510:	2105      	movs	r1, #5
   23512:	2200      	movs	r2, #0
   23514:	4613      	mov	r3, r2
   23516:	df04      	svc	4
   23518:	a805      	add	r0, sp, #20
   2351a:	7804      	ldrb	r4, [r0, #0]
   2351c:	1c68      	adds	r0, r5, #1
   2351e:	2250      	movs	r2, #80	@ 0x50
   23520:	9902      	ldr	r1, [sp, #8]
   23522:	f007 f82b 	bl	2a57c <__aeabi_memcpy>
   23526:	702e      	strb	r6, [r5, #0]
   23528:	e7bd      	b.n	234a6 <_ZN20complex_dynamic_type3app17h8a68867ca7d49226E+0xa2>
   2352a:	46c0      	nop			@ (mov r8, r8)
   2352c:	00001aa9 	.word	0x00001aa9

00023530 <_ZN20complex_dynamic_type3app17h8c0f94b20fe150fbE>:
   23530:	b5f0      	push	{r4, r5, r6, r7, lr}
   23532:	af03      	add	r7, sp, #12
   23534:	b09b      	sub	sp, #108	@ 0x6c
   23536:	9003      	str	r0, [sp, #12]
   23538:	a804      	add	r0, sp, #16
   2353a:	2602      	movs	r6, #2
   2353c:	7006      	strb	r6, [r0, #0]
   2353e:	1c40      	adds	r0, r0, #1
   23540:	9002      	str	r0, [sp, #8]
   23542:	2512      	movs	r5, #18
   23544:	462a      	mov	r2, r5
   23546:	f007 f819 	bl	2a57c <__aeabi_memcpy>
   2354a:	ac09      	add	r4, sp, #36	@ 0x24
   2354c:	1c60      	adds	r0, r4, #1
   2354e:	2144      	movs	r1, #68	@ 0x44
   23550:	9001      	str	r0, [sp, #4]
   23552:	f006 fe53 	bl	2a1fc <__aeabi_memclr>
   23556:	7026      	strb	r6, [r4, #0]
   23558:	4841      	ldr	r0, [pc, #260]	@ (23660 <_ZN20complex_dynamic_type3app17h8c0f94b20fe150fbE+0x130>)
   2355a:	4631      	mov	r1, r6
   2355c:	9a02      	ldr	r2, [sp, #8]
   2355e:	462b      	mov	r3, r5
   23560:	df04      	svc	4
   23562:	2802      	cmp	r0, #2
   23564:	d104      	bne.n	23570 <_ZN20complex_dynamic_type3app17h8c0f94b20fe150fbE+0x40>
   23566:	2001      	movs	r0, #1
   23568:	9a03      	ldr	r2, [sp, #12]
   2356a:	7010      	strb	r0, [r2, #0]
   2356c:	6051      	str	r1, [r2, #4]
   2356e:	e02e      	b.n	235ce <_ZN20complex_dynamic_type3app17h8c0f94b20fe150fbE+0x9e>
   23570:	9c03      	ldr	r4, [sp, #12]
   23572:	a804      	add	r0, sp, #16
   23574:	2104      	movs	r1, #4
   23576:	7001      	strb	r1, [r0, #0]
   23578:	4839      	ldr	r0, [pc, #228]	@ (23660 <_ZN20complex_dynamic_type3app17h8c0f94b20fe150fbE+0x130>)
   2357a:	2109      	movs	r1, #9
   2357c:	2344      	movs	r3, #68	@ 0x44
   2357e:	9d01      	ldr	r5, [sp, #4]
   23580:	462a      	mov	r2, r5
   23582:	df03      	svc	3
   23584:	2802      	cmp	r0, #2
   23586:	d10e      	bne.n	235a6 <_ZN20complex_dynamic_type3app17h8c0f94b20fe150fbE+0x76>
   23588:	2001      	movs	r0, #1
   2358a:	7020      	strb	r0, [r4, #0]
   2358c:	6061      	str	r1, [r4, #4]
   2358e:	a809      	add	r0, sp, #36	@ 0x24
   23590:	7800      	ldrb	r0, [r0, #0]
   23592:	2802      	cmp	r0, #2
   23594:	d01b      	beq.n	235ce <_ZN20complex_dynamic_type3app17h8c0f94b20fe150fbE+0x9e>
   23596:	2803      	cmp	r0, #3
   23598:	d014      	beq.n	235c4 <_ZN20complex_dynamic_type3app17h8c0f94b20fe150fbE+0x94>
   2359a:	4831      	ldr	r0, [pc, #196]	@ (23660 <_ZN20complex_dynamic_type3app17h8c0f94b20fe150fbE+0x130>)
   2359c:	2109      	movs	r1, #9
   2359e:	2200      	movs	r2, #0
   235a0:	4613      	mov	r3, r2
   235a2:	df04      	svc	4
   235a4:	e013      	b.n	235ce <_ZN20complex_dynamic_type3app17h8c0f94b20fe150fbE+0x9e>
   235a6:	a809      	add	r0, sp, #36	@ 0x24
   235a8:	2103      	movs	r1, #3
   235aa:	7001      	strb	r1, [r0, #0]
   235ac:	482c      	ldr	r0, [pc, #176]	@ (23660 <_ZN20complex_dynamic_type3app17h8c0f94b20fe150fbE+0x130>)
   235ae:	2602      	movs	r6, #2
   235b0:	2209      	movs	r2, #9
   235b2:	2300      	movs	r3, #0
   235b4:	4631      	mov	r1, r6
   235b6:	9302      	str	r3, [sp, #8]
   235b8:	df02      	svc	2
   235ba:	287f      	cmp	r0, #127	@ 0x7f
   235bc:	d816      	bhi.n	235ec <_ZN20complex_dynamic_type3app17h8c0f94b20fe150fbE+0xbc>
   235be:	2001      	movs	r0, #1
   235c0:	7020      	strb	r0, [r4, #0]
   235c2:	6061      	str	r1, [r4, #4]
   235c4:	4826      	ldr	r0, [pc, #152]	@ (23660 <_ZN20complex_dynamic_type3app17h8c0f94b20fe150fbE+0x130>)
   235c6:	2109      	movs	r1, #9
   235c8:	2200      	movs	r2, #0
   235ca:	4613      	mov	r3, r2
   235cc:	df03      	svc	3
   235ce:	a804      	add	r0, sp, #16
   235d0:	7804      	ldrb	r4, [r0, #0]
   235d2:	2c02      	cmp	r4, #2
   235d4:	d008      	beq.n	235e8 <_ZN20complex_dynamic_type3app17h8c0f94b20fe150fbE+0xb8>
   235d6:	4822      	ldr	r0, [pc, #136]	@ (23660 <_ZN20complex_dynamic_type3app17h8c0f94b20fe150fbE+0x130>)
   235d8:	2102      	movs	r1, #2
   235da:	2200      	movs	r2, #0
   235dc:	4613      	mov	r3, r2
   235de:	2c03      	cmp	r4, #3
   235e0:	d101      	bne.n	235e6 <_ZN20complex_dynamic_type3app17h8c0f94b20fe150fbE+0xb6>
   235e2:	df03      	svc	3
   235e4:	e000      	b.n	235e8 <_ZN20complex_dynamic_type3app17h8c0f94b20fe150fbE+0xb8>
   235e6:	df04      	svc	4
   235e8:	b01b      	add	sp, #108	@ 0x6c
   235ea:	bdf0      	pop	{r4, r5, r6, r7, pc}
   235ec:	a804      	add	r0, sp, #16
   235ee:	7800      	ldrb	r0, [r0, #0]
   235f0:	2802      	cmp	r0, #2
   235f2:	d01c      	beq.n	2362e <_ZN20complex_dynamic_type3app17h8c0f94b20fe150fbE+0xfe>
   235f4:	2803      	cmp	r0, #3
   235f6:	d105      	bne.n	23604 <_ZN20complex_dynamic_type3app17h8c0f94b20fe150fbE+0xd4>
   235f8:	4819      	ldr	r0, [pc, #100]	@ (23660 <_ZN20complex_dynamic_type3app17h8c0f94b20fe150fbE+0x130>)
   235fa:	2102      	movs	r1, #2
   235fc:	2200      	movs	r2, #0
   235fe:	4613      	mov	r3, r2
   23600:	df03      	svc	3
   23602:	e004      	b.n	2360e <_ZN20complex_dynamic_type3app17h8c0f94b20fe150fbE+0xde>
   23604:	4816      	ldr	r0, [pc, #88]	@ (23660 <_ZN20complex_dynamic_type3app17h8c0f94b20fe150fbE+0x130>)
   23606:	2102      	movs	r1, #2
   23608:	2200      	movs	r2, #0
   2360a:	4613      	mov	r3, r2
   2360c:	df04      	svc	4
   2360e:	a804      	add	r0, sp, #16
   23610:	7006      	strb	r6, [r0, #0]
   23612:	a809      	add	r0, sp, #36	@ 0x24
   23614:	7800      	ldrb	r0, [r0, #0]
   23616:	2803      	cmp	r0, #3
   23618:	d009      	beq.n	2362e <_ZN20complex_dynamic_type3app17h8c0f94b20fe150fbE+0xfe>
   2361a:	2802      	cmp	r0, #2
   2361c:	d10e      	bne.n	2363c <_ZN20complex_dynamic_type3app17h8c0f94b20fe150fbE+0x10c>
   2361e:	1c60      	adds	r0, r4, #1
   23620:	2244      	movs	r2, #68	@ 0x44
   23622:	4629      	mov	r1, r5
   23624:	f006 ffaa 	bl	2a57c <__aeabi_memcpy>
   23628:	9802      	ldr	r0, [sp, #8]
   2362a:	7020      	strb	r0, [r4, #0]
   2362c:	e7dc      	b.n	235e8 <_ZN20complex_dynamic_type3app17h8c0f94b20fe150fbE+0xb8>
   2362e:	462e      	mov	r6, r5
   23630:	480b      	ldr	r0, [pc, #44]	@ (23660 <_ZN20complex_dynamic_type3app17h8c0f94b20fe150fbE+0x130>)
   23632:	2109      	movs	r1, #9
   23634:	2200      	movs	r2, #0
   23636:	4613      	mov	r3, r2
   23638:	df03      	svc	3
   2363a:	e005      	b.n	23648 <_ZN20complex_dynamic_type3app17h8c0f94b20fe150fbE+0x118>
   2363c:	462e      	mov	r6, r5
   2363e:	4808      	ldr	r0, [pc, #32]	@ (23660 <_ZN20complex_dynamic_type3app17h8c0f94b20fe150fbE+0x130>)
   23640:	2109      	movs	r1, #9
   23642:	2200      	movs	r2, #0
   23644:	4613      	mov	r3, r2
   23646:	df04      	svc	4
   23648:	4625      	mov	r5, r4
   2364a:	a804      	add	r0, sp, #16
   2364c:	7804      	ldrb	r4, [r0, #0]
   2364e:	1c68      	adds	r0, r5, #1
   23650:	2244      	movs	r2, #68	@ 0x44
   23652:	4631      	mov	r1, r6
   23654:	f006 ff92 	bl	2a57c <__aeabi_memcpy>
   23658:	9802      	ldr	r0, [sp, #8]
   2365a:	7028      	strb	r0, [r5, #0]
   2365c:	e7b9      	b.n	235d2 <_ZN20complex_dynamic_type3app17h8c0f94b20fe150fbE+0xa2>
   2365e:	46c0      	nop			@ (mov r8, r8)
   23660:	00002432 	.word	0x00002432

00023664 <_ZN20complex_dynamic_type3app17h8d0fb49d9dd587baE>:
   23664:	b5f0      	push	{r4, r5, r6, r7, lr}
   23666:	af03      	add	r7, sp, #12
   23668:	b0ad      	sub	sp, #180	@ 0xb4
   2366a:	9003      	str	r0, [sp, #12]
   2366c:	a804      	add	r0, sp, #16
   2366e:	2402      	movs	r4, #2
   23670:	7004      	strb	r4, [r0, #0]
   23672:	1c46      	adds	r6, r0, #1
   23674:	2251      	movs	r2, #81	@ 0x51
   23676:	9202      	str	r2, [sp, #8]
   23678:	4630      	mov	r0, r6
   2367a:	f006 ff7f 	bl	2a57c <__aeabi_memcpy>
   2367e:	ad19      	add	r5, sp, #100	@ 0x64
   23680:	1c68      	adds	r0, r5, #1
   23682:	214f      	movs	r1, #79	@ 0x4f
   23684:	9001      	str	r0, [sp, #4]
   23686:	f006 fdb9 	bl	2a1fc <__aeabi_memclr>
   2368a:	9400      	str	r4, [sp, #0]
   2368c:	702c      	strb	r4, [r5, #0]
   2368e:	483f      	ldr	r0, [pc, #252]	@ (2378c <_ZN20complex_dynamic_type3app17h8d0fb49d9dd587baE+0x128>)
   23690:	2504      	movs	r5, #4
   23692:	4629      	mov	r1, r5
   23694:	4632      	mov	r2, r6
   23696:	9b02      	ldr	r3, [sp, #8]
   23698:	df04      	svc	4
   2369a:	2802      	cmp	r0, #2
   2369c:	d104      	bne.n	236a8 <_ZN20complex_dynamic_type3app17h8d0fb49d9dd587baE+0x44>
   2369e:	2001      	movs	r0, #1
   236a0:	9a03      	ldr	r2, [sp, #12]
   236a2:	7010      	strb	r0, [r2, #0]
   236a4:	6051      	str	r1, [r2, #4]
   236a6:	e02c      	b.n	23702 <_ZN20complex_dynamic_type3app17h8d0fb49d9dd587baE+0x9e>
   236a8:	9c03      	ldr	r4, [sp, #12]
   236aa:	a804      	add	r0, sp, #16
   236ac:	7005      	strb	r5, [r0, #0]
   236ae:	4837      	ldr	r0, [pc, #220]	@ (2378c <_ZN20complex_dynamic_type3app17h8d0fb49d9dd587baE+0x128>)
   236b0:	2109      	movs	r1, #9
   236b2:	234f      	movs	r3, #79	@ 0x4f
   236b4:	9a01      	ldr	r2, [sp, #4]
   236b6:	df03      	svc	3
   236b8:	2802      	cmp	r0, #2
   236ba:	d10e      	bne.n	236da <_ZN20complex_dynamic_type3app17h8d0fb49d9dd587baE+0x76>
   236bc:	2001      	movs	r0, #1
   236be:	7020      	strb	r0, [r4, #0]
   236c0:	6061      	str	r1, [r4, #4]
   236c2:	a819      	add	r0, sp, #100	@ 0x64
   236c4:	7800      	ldrb	r0, [r0, #0]
   236c6:	2802      	cmp	r0, #2
   236c8:	d01b      	beq.n	23702 <_ZN20complex_dynamic_type3app17h8d0fb49d9dd587baE+0x9e>
   236ca:	2803      	cmp	r0, #3
   236cc:	d014      	beq.n	236f8 <_ZN20complex_dynamic_type3app17h8d0fb49d9dd587baE+0x94>
   236ce:	482f      	ldr	r0, [pc, #188]	@ (2378c <_ZN20complex_dynamic_type3app17h8d0fb49d9dd587baE+0x128>)
   236d0:	2109      	movs	r1, #9
   236d2:	2200      	movs	r2, #0
   236d4:	4613      	mov	r3, r2
   236d6:	df04      	svc	4
   236d8:	e013      	b.n	23702 <_ZN20complex_dynamic_type3app17h8d0fb49d9dd587baE+0x9e>
   236da:	a819      	add	r0, sp, #100	@ 0x64
   236dc:	2103      	movs	r1, #3
   236de:	7001      	strb	r1, [r0, #0]
   236e0:	482a      	ldr	r0, [pc, #168]	@ (2378c <_ZN20complex_dynamic_type3app17h8d0fb49d9dd587baE+0x128>)
   236e2:	2104      	movs	r1, #4
   236e4:	2209      	movs	r2, #9
   236e6:	2600      	movs	r6, #0
   236e8:	4633      	mov	r3, r6
   236ea:	df02      	svc	2
   236ec:	287f      	cmp	r0, #127	@ 0x7f
   236ee:	4625      	mov	r5, r4
   236f0:	d816      	bhi.n	23720 <_ZN20complex_dynamic_type3app17h8d0fb49d9dd587baE+0xbc>
   236f2:	2001      	movs	r0, #1
   236f4:	7028      	strb	r0, [r5, #0]
   236f6:	6069      	str	r1, [r5, #4]
   236f8:	4824      	ldr	r0, [pc, #144]	@ (2378c <_ZN20complex_dynamic_type3app17h8d0fb49d9dd587baE+0x128>)
   236fa:	2109      	movs	r1, #9
   236fc:	2200      	movs	r2, #0
   236fe:	4613      	mov	r3, r2
   23700:	df03      	svc	3
   23702:	a804      	add	r0, sp, #16
   23704:	7804      	ldrb	r4, [r0, #0]
   23706:	2c02      	cmp	r4, #2
   23708:	d008      	beq.n	2371c <_ZN20complex_dynamic_type3app17h8d0fb49d9dd587baE+0xb8>
   2370a:	4820      	ldr	r0, [pc, #128]	@ (2378c <_ZN20complex_dynamic_type3app17h8d0fb49d9dd587baE+0x128>)
   2370c:	2104      	movs	r1, #4
   2370e:	2200      	movs	r2, #0
   23710:	4613      	mov	r3, r2
   23712:	2c03      	cmp	r4, #3
   23714:	d101      	bne.n	2371a <_ZN20complex_dynamic_type3app17h8d0fb49d9dd587baE+0xb6>
   23716:	df03      	svc	3
   23718:	e000      	b.n	2371c <_ZN20complex_dynamic_type3app17h8d0fb49d9dd587baE+0xb8>
   2371a:	df04      	svc	4
   2371c:	b02d      	add	sp, #180	@ 0xb4
   2371e:	bdf0      	pop	{r4, r5, r6, r7, pc}
   23720:	a804      	add	r0, sp, #16
   23722:	7800      	ldrb	r0, [r0, #0]
   23724:	2802      	cmp	r0, #2
   23726:	d01c      	beq.n	23762 <_ZN20complex_dynamic_type3app17h8d0fb49d9dd587baE+0xfe>
   23728:	2803      	cmp	r0, #3
   2372a:	d105      	bne.n	23738 <_ZN20complex_dynamic_type3app17h8d0fb49d9dd587baE+0xd4>
   2372c:	4817      	ldr	r0, [pc, #92]	@ (2378c <_ZN20complex_dynamic_type3app17h8d0fb49d9dd587baE+0x128>)
   2372e:	2104      	movs	r1, #4
   23730:	2200      	movs	r2, #0
   23732:	4613      	mov	r3, r2
   23734:	df03      	svc	3
   23736:	e004      	b.n	23742 <_ZN20complex_dynamic_type3app17h8d0fb49d9dd587baE+0xde>
   23738:	4814      	ldr	r0, [pc, #80]	@ (2378c <_ZN20complex_dynamic_type3app17h8d0fb49d9dd587baE+0x128>)
   2373a:	2104      	movs	r1, #4
   2373c:	2200      	movs	r2, #0
   2373e:	4613      	mov	r3, r2
   23740:	df04      	svc	4
   23742:	9900      	ldr	r1, [sp, #0]
   23744:	a804      	add	r0, sp, #16
   23746:	7001      	strb	r1, [r0, #0]
   23748:	a819      	add	r0, sp, #100	@ 0x64
   2374a:	7800      	ldrb	r0, [r0, #0]
   2374c:	2803      	cmp	r0, #3
   2374e:	d008      	beq.n	23762 <_ZN20complex_dynamic_type3app17h8d0fb49d9dd587baE+0xfe>
   23750:	2802      	cmp	r0, #2
   23752:	d10c      	bne.n	2376e <_ZN20complex_dynamic_type3app17h8d0fb49d9dd587baE+0x10a>
   23754:	1c68      	adds	r0, r5, #1
   23756:	224f      	movs	r2, #79	@ 0x4f
   23758:	9901      	ldr	r1, [sp, #4]
   2375a:	f006 ff0f 	bl	2a57c <__aeabi_memcpy>
   2375e:	702e      	strb	r6, [r5, #0]
   23760:	e7dc      	b.n	2371c <_ZN20complex_dynamic_type3app17h8d0fb49d9dd587baE+0xb8>
   23762:	480a      	ldr	r0, [pc, #40]	@ (2378c <_ZN20complex_dynamic_type3app17h8d0fb49d9dd587baE+0x128>)
   23764:	2109      	movs	r1, #9
   23766:	2200      	movs	r2, #0
   23768:	4613      	mov	r3, r2
   2376a:	df03      	svc	3
   2376c:	e004      	b.n	23778 <_ZN20complex_dynamic_type3app17h8d0fb49d9dd587baE+0x114>
   2376e:	4807      	ldr	r0, [pc, #28]	@ (2378c <_ZN20complex_dynamic_type3app17h8d0fb49d9dd587baE+0x128>)
   23770:	2109      	movs	r1, #9
   23772:	2200      	movs	r2, #0
   23774:	4613      	mov	r3, r2
   23776:	df04      	svc	4
   23778:	a804      	add	r0, sp, #16
   2377a:	7804      	ldrb	r4, [r0, #0]
   2377c:	1c68      	adds	r0, r5, #1
   2377e:	224f      	movs	r2, #79	@ 0x4f
   23780:	9901      	ldr	r1, [sp, #4]
   23782:	f006 fefb 	bl	2a57c <__aeabi_memcpy>
   23786:	702e      	strb	r6, [r5, #0]
   23788:	e7bd      	b.n	23706 <_ZN20complex_dynamic_type3app17h8d0fb49d9dd587baE+0xa2>
   2378a:	46c0      	nop			@ (mov r8, r8)
   2378c:	000020ee 	.word	0x000020ee

00023790 <_ZN20complex_dynamic_type3app17h90c4a236db18be73E>:
   23790:	b5f0      	push	{r4, r5, r6, r7, lr}
   23792:	af03      	add	r7, sp, #12
   23794:	b093      	sub	sp, #76	@ 0x4c
   23796:	9003      	str	r0, [sp, #12]
   23798:	a804      	add	r0, sp, #16
   2379a:	2402      	movs	r4, #2
   2379c:	7004      	strb	r4, [r0, #0]
   2379e:	1c46      	adds	r6, r0, #1
   237a0:	222b      	movs	r2, #43	@ 0x2b
   237a2:	9202      	str	r2, [sp, #8]
   237a4:	4630      	mov	r0, r6
   237a6:	f006 fee9 	bl	2a57c <__aeabi_memcpy>
   237aa:	ad0f      	add	r5, sp, #60	@ 0x3c
   237ac:	1c68      	adds	r0, r5, #1
   237ae:	210d      	movs	r1, #13
   237b0:	9001      	str	r0, [sp, #4]
   237b2:	f006 fd23 	bl	2a1fc <__aeabi_memclr>
   237b6:	9400      	str	r4, [sp, #0]
   237b8:	702c      	strb	r4, [r5, #0]
   237ba:	483f      	ldr	r0, [pc, #252]	@ (238b8 <_ZN20complex_dynamic_type3app17h90c4a236db18be73E+0x128>)
   237bc:	2106      	movs	r1, #6
   237be:	4632      	mov	r2, r6
   237c0:	9b02      	ldr	r3, [sp, #8]
   237c2:	df04      	svc	4
   237c4:	2802      	cmp	r0, #2
   237c6:	d104      	bne.n	237d2 <_ZN20complex_dynamic_type3app17h90c4a236db18be73E+0x42>
   237c8:	2001      	movs	r0, #1
   237ca:	9a03      	ldr	r2, [sp, #12]
   237cc:	7010      	strb	r0, [r2, #0]
   237ce:	6051      	str	r1, [r2, #4]
   237d0:	e02d      	b.n	2382e <_ZN20complex_dynamic_type3app17h90c4a236db18be73E+0x9e>
   237d2:	9d03      	ldr	r5, [sp, #12]
   237d4:	a804      	add	r0, sp, #16
   237d6:	2104      	movs	r1, #4
   237d8:	7001      	strb	r1, [r0, #0]
   237da:	4837      	ldr	r0, [pc, #220]	@ (238b8 <_ZN20complex_dynamic_type3app17h90c4a236db18be73E+0x128>)
   237dc:	2100      	movs	r1, #0
   237de:	230d      	movs	r3, #13
   237e0:	9c01      	ldr	r4, [sp, #4]
   237e2:	4622      	mov	r2, r4
   237e4:	df03      	svc	3
   237e6:	2802      	cmp	r0, #2
   237e8:	d10e      	bne.n	23808 <_ZN20complex_dynamic_type3app17h90c4a236db18be73E+0x78>
   237ea:	2001      	movs	r0, #1
   237ec:	7028      	strb	r0, [r5, #0]
   237ee:	6069      	str	r1, [r5, #4]
   237f0:	a80f      	add	r0, sp, #60	@ 0x3c
   237f2:	7800      	ldrb	r0, [r0, #0]
   237f4:	2802      	cmp	r0, #2
   237f6:	d01a      	beq.n	2382e <_ZN20complex_dynamic_type3app17h90c4a236db18be73E+0x9e>
   237f8:	2803      	cmp	r0, #3
   237fa:	d013      	beq.n	23824 <_ZN20complex_dynamic_type3app17h90c4a236db18be73E+0x94>
   237fc:	482e      	ldr	r0, [pc, #184]	@ (238b8 <_ZN20complex_dynamic_type3app17h90c4a236db18be73E+0x128>)
   237fe:	2100      	movs	r1, #0
   23800:	460a      	mov	r2, r1
   23802:	460b      	mov	r3, r1
   23804:	df04      	svc	4
   23806:	e012      	b.n	2382e <_ZN20complex_dynamic_type3app17h90c4a236db18be73E+0x9e>
   23808:	a80f      	add	r0, sp, #60	@ 0x3c
   2380a:	2103      	movs	r1, #3
   2380c:	7001      	strb	r1, [r0, #0]
   2380e:	482a      	ldr	r0, [pc, #168]	@ (238b8 <_ZN20complex_dynamic_type3app17h90c4a236db18be73E+0x128>)
   23810:	2106      	movs	r1, #6
   23812:	2600      	movs	r6, #0
   23814:	4632      	mov	r2, r6
   23816:	4633      	mov	r3, r6
   23818:	df02      	svc	2
   2381a:	287f      	cmp	r0, #127	@ 0x7f
   2381c:	d816      	bhi.n	2384c <_ZN20complex_dynamic_type3app17h90c4a236db18be73E+0xbc>
   2381e:	2001      	movs	r0, #1
   23820:	7028      	strb	r0, [r5, #0]
   23822:	6069      	str	r1, [r5, #4]
   23824:	4824      	ldr	r0, [pc, #144]	@ (238b8 <_ZN20complex_dynamic_type3app17h90c4a236db18be73E+0x128>)
   23826:	2100      	movs	r1, #0
   23828:	460a      	mov	r2, r1
   2382a:	460b      	mov	r3, r1
   2382c:	df03      	svc	3
   2382e:	a804      	add	r0, sp, #16
   23830:	7804      	ldrb	r4, [r0, #0]
   23832:	2c02      	cmp	r4, #2
   23834:	d008      	beq.n	23848 <_ZN20complex_dynamic_type3app17h90c4a236db18be73E+0xb8>
   23836:	4820      	ldr	r0, [pc, #128]	@ (238b8 <_ZN20complex_dynamic_type3app17h90c4a236db18be73E+0x128>)
   23838:	2106      	movs	r1, #6
   2383a:	2200      	movs	r2, #0
   2383c:	4613      	mov	r3, r2
   2383e:	2c03      	cmp	r4, #3
   23840:	d101      	bne.n	23846 <_ZN20complex_dynamic_type3app17h90c4a236db18be73E+0xb6>
   23842:	df03      	svc	3
   23844:	e000      	b.n	23848 <_ZN20complex_dynamic_type3app17h90c4a236db18be73E+0xb8>
   23846:	df04      	svc	4
   23848:	b013      	add	sp, #76	@ 0x4c
   2384a:	bdf0      	pop	{r4, r5, r6, r7, pc}
   2384c:	a804      	add	r0, sp, #16
   2384e:	7800      	ldrb	r0, [r0, #0]
   23850:	2802      	cmp	r0, #2
   23852:	d01c      	beq.n	2388e <_ZN20complex_dynamic_type3app17h90c4a236db18be73E+0xfe>
   23854:	2803      	cmp	r0, #3
   23856:	d105      	bne.n	23864 <_ZN20complex_dynamic_type3app17h90c4a236db18be73E+0xd4>
   23858:	4817      	ldr	r0, [pc, #92]	@ (238b8 <_ZN20complex_dynamic_type3app17h90c4a236db18be73E+0x128>)
   2385a:	2106      	movs	r1, #6
   2385c:	2200      	movs	r2, #0
   2385e:	4613      	mov	r3, r2
   23860:	df03      	svc	3
   23862:	e004      	b.n	2386e <_ZN20complex_dynamic_type3app17h90c4a236db18be73E+0xde>
   23864:	4814      	ldr	r0, [pc, #80]	@ (238b8 <_ZN20complex_dynamic_type3app17h90c4a236db18be73E+0x128>)
   23866:	2106      	movs	r1, #6
   23868:	2200      	movs	r2, #0
   2386a:	4613      	mov	r3, r2
   2386c:	df04      	svc	4
   2386e:	a804      	add	r0, sp, #16
   23870:	9900      	ldr	r1, [sp, #0]
   23872:	7001      	strb	r1, [r0, #0]
   23874:	a80f      	add	r0, sp, #60	@ 0x3c
   23876:	7800      	ldrb	r0, [r0, #0]
   23878:	2803      	cmp	r0, #3
   2387a:	d008      	beq.n	2388e <_ZN20complex_dynamic_type3app17h90c4a236db18be73E+0xfe>
   2387c:	2802      	cmp	r0, #2
   2387e:	d10c      	bne.n	2389a <_ZN20complex_dynamic_type3app17h90c4a236db18be73E+0x10a>
   23880:	1c68      	adds	r0, r5, #1
   23882:	220d      	movs	r2, #13
   23884:	4621      	mov	r1, r4
   23886:	f006 fe79 	bl	2a57c <__aeabi_memcpy>
   2388a:	702e      	strb	r6, [r5, #0]
   2388c:	e7dc      	b.n	23848 <_ZN20complex_dynamic_type3app17h90c4a236db18be73E+0xb8>
   2388e:	480a      	ldr	r0, [pc, #40]	@ (238b8 <_ZN20complex_dynamic_type3app17h90c4a236db18be73E+0x128>)
   23890:	2100      	movs	r1, #0
   23892:	460a      	mov	r2, r1
   23894:	460b      	mov	r3, r1
   23896:	df03      	svc	3
   23898:	e004      	b.n	238a4 <_ZN20complex_dynamic_type3app17h90c4a236db18be73E+0x114>
   2389a:	4807      	ldr	r0, [pc, #28]	@ (238b8 <_ZN20complex_dynamic_type3app17h90c4a236db18be73E+0x128>)
   2389c:	2100      	movs	r1, #0
   2389e:	460a      	mov	r2, r1
   238a0:	460b      	mov	r3, r1
   238a2:	df04      	svc	4
   238a4:	a804      	add	r0, sp, #16
   238a6:	7804      	ldrb	r4, [r0, #0]
   238a8:	1c68      	adds	r0, r5, #1
   238aa:	220d      	movs	r2, #13
   238ac:	9901      	ldr	r1, [sp, #4]
   238ae:	f006 fe65 	bl	2a57c <__aeabi_memcpy>
   238b2:	702e      	strb	r6, [r5, #0]
   238b4:	e7bd      	b.n	23832 <_ZN20complex_dynamic_type3app17h90c4a236db18be73E+0xa2>
   238b6:	46c0      	nop			@ (mov r8, r8)
   238b8:	00001465 	.word	0x00001465

000238bc <_ZN20complex_dynamic_type3app17h919f9f785e57699cE>:
   238bc:	b5f0      	push	{r4, r5, r6, r7, lr}
   238be:	af03      	add	r7, sp, #12
   238c0:	b09b      	sub	sp, #108	@ 0x6c
   238c2:	9003      	str	r0, [sp, #12]
   238c4:	a804      	add	r0, sp, #16
   238c6:	2402      	movs	r4, #2
   238c8:	7004      	strb	r4, [r0, #0]
   238ca:	1c40      	adds	r0, r0, #1
   238cc:	9002      	str	r0, [sp, #8]
   238ce:	252c      	movs	r5, #44	@ 0x2c
   238d0:	462a      	mov	r2, r5
   238d2:	f006 fe53 	bl	2a57c <__aeabi_memcpy>
   238d6:	ae10      	add	r6, sp, #64	@ 0x40
   238d8:	1c70      	adds	r0, r6, #1
   238da:	212a      	movs	r1, #42	@ 0x2a
   238dc:	9001      	str	r0, [sp, #4]
   238de:	f006 fc8d 	bl	2a1fc <__aeabi_memclr>
   238e2:	9400      	str	r4, [sp, #0]
   238e4:	7034      	strb	r4, [r6, #0]
   238e6:	4841      	ldr	r0, [pc, #260]	@ (239ec <_ZN20complex_dynamic_type3app17h919f9f785e57699cE+0x130>)
   238e8:	2603      	movs	r6, #3
   238ea:	4631      	mov	r1, r6
   238ec:	9a02      	ldr	r2, [sp, #8]
   238ee:	462b      	mov	r3, r5
   238f0:	df04      	svc	4
   238f2:	2802      	cmp	r0, #2
   238f4:	d104      	bne.n	23900 <_ZN20complex_dynamic_type3app17h919f9f785e57699cE+0x44>
   238f6:	2001      	movs	r0, #1
   238f8:	9a03      	ldr	r2, [sp, #12]
   238fa:	7010      	strb	r0, [r2, #0]
   238fc:	6051      	str	r1, [r2, #4]
   238fe:	e02c      	b.n	2395a <_ZN20complex_dynamic_type3app17h919f9f785e57699cE+0x9e>
   23900:	9d03      	ldr	r5, [sp, #12]
   23902:	a804      	add	r0, sp, #16
   23904:	2104      	movs	r1, #4
   23906:	7001      	strb	r1, [r0, #0]
   23908:	4838      	ldr	r0, [pc, #224]	@ (239ec <_ZN20complex_dynamic_type3app17h919f9f785e57699cE+0x130>)
   2390a:	2100      	movs	r1, #0
   2390c:	232a      	movs	r3, #42	@ 0x2a
   2390e:	9c01      	ldr	r4, [sp, #4]
   23910:	4622      	mov	r2, r4
   23912:	df03      	svc	3
   23914:	2802      	cmp	r0, #2
   23916:	d10e      	bne.n	23936 <_ZN20complex_dynamic_type3app17h919f9f785e57699cE+0x7a>
   23918:	2001      	movs	r0, #1
   2391a:	7028      	strb	r0, [r5, #0]
   2391c:	6069      	str	r1, [r5, #4]
   2391e:	a810      	add	r0, sp, #64	@ 0x40
   23920:	7800      	ldrb	r0, [r0, #0]
   23922:	2802      	cmp	r0, #2
   23924:	d019      	beq.n	2395a <_ZN20complex_dynamic_type3app17h919f9f785e57699cE+0x9e>
   23926:	2803      	cmp	r0, #3
   23928:	d012      	beq.n	23950 <_ZN20complex_dynamic_type3app17h919f9f785e57699cE+0x94>
   2392a:	4830      	ldr	r0, [pc, #192]	@ (239ec <_ZN20complex_dynamic_type3app17h919f9f785e57699cE+0x130>)
   2392c:	2100      	movs	r1, #0
   2392e:	460a      	mov	r2, r1
   23930:	460b      	mov	r3, r1
   23932:	df04      	svc	4
   23934:	e011      	b.n	2395a <_ZN20complex_dynamic_type3app17h919f9f785e57699cE+0x9e>
   23936:	a810      	add	r0, sp, #64	@ 0x40
   23938:	7006      	strb	r6, [r0, #0]
   2393a:	482c      	ldr	r0, [pc, #176]	@ (239ec <_ZN20complex_dynamic_type3app17h919f9f785e57699cE+0x130>)
   2393c:	2200      	movs	r2, #0
   2393e:	4631      	mov	r1, r6
   23940:	9202      	str	r2, [sp, #8]
   23942:	4613      	mov	r3, r2
   23944:	df02      	svc	2
   23946:	287f      	cmp	r0, #127	@ 0x7f
   23948:	d816      	bhi.n	23978 <_ZN20complex_dynamic_type3app17h919f9f785e57699cE+0xbc>
   2394a:	2001      	movs	r0, #1
   2394c:	7028      	strb	r0, [r5, #0]
   2394e:	6069      	str	r1, [r5, #4]
   23950:	4826      	ldr	r0, [pc, #152]	@ (239ec <_ZN20complex_dynamic_type3app17h919f9f785e57699cE+0x130>)
   23952:	2100      	movs	r1, #0
   23954:	460a      	mov	r2, r1
   23956:	460b      	mov	r3, r1
   23958:	df03      	svc	3
   2395a:	a804      	add	r0, sp, #16
   2395c:	7804      	ldrb	r4, [r0, #0]
   2395e:	2c02      	cmp	r4, #2
   23960:	d008      	beq.n	23974 <_ZN20complex_dynamic_type3app17h919f9f785e57699cE+0xb8>
   23962:	4822      	ldr	r0, [pc, #136]	@ (239ec <_ZN20complex_dynamic_type3app17h919f9f785e57699cE+0x130>)
   23964:	2103      	movs	r1, #3
   23966:	2200      	movs	r2, #0
   23968:	4613      	mov	r3, r2
   2396a:	2c03      	cmp	r4, #3
   2396c:	d101      	bne.n	23972 <_ZN20complex_dynamic_type3app17h919f9f785e57699cE+0xb6>
   2396e:	df03      	svc	3
   23970:	e000      	b.n	23974 <_ZN20complex_dynamic_type3app17h919f9f785e57699cE+0xb8>
   23972:	df04      	svc	4
   23974:	b01b      	add	sp, #108	@ 0x6c
   23976:	bdf0      	pop	{r4, r5, r6, r7, pc}
   23978:	a804      	add	r0, sp, #16
   2397a:	7800      	ldrb	r0, [r0, #0]
   2397c:	2802      	cmp	r0, #2
   2397e:	d01d      	beq.n	239bc <_ZN20complex_dynamic_type3app17h919f9f785e57699cE+0x100>
   23980:	2803      	cmp	r0, #3
   23982:	d105      	bne.n	23990 <_ZN20complex_dynamic_type3app17h919f9f785e57699cE+0xd4>
   23984:	4819      	ldr	r0, [pc, #100]	@ (239ec <_ZN20complex_dynamic_type3app17h919f9f785e57699cE+0x130>)
   23986:	2103      	movs	r1, #3
   23988:	2200      	movs	r2, #0
   2398a:	4613      	mov	r3, r2
   2398c:	df03      	svc	3
   2398e:	e004      	b.n	2399a <_ZN20complex_dynamic_type3app17h919f9f785e57699cE+0xde>
   23990:	4816      	ldr	r0, [pc, #88]	@ (239ec <_ZN20complex_dynamic_type3app17h919f9f785e57699cE+0x130>)
   23992:	2103      	movs	r1, #3
   23994:	2200      	movs	r2, #0
   23996:	4613      	mov	r3, r2
   23998:	df04      	svc	4
   2399a:	9900      	ldr	r1, [sp, #0]
   2399c:	a804      	add	r0, sp, #16
   2399e:	7001      	strb	r1, [r0, #0]
   239a0:	a810      	add	r0, sp, #64	@ 0x40
   239a2:	7800      	ldrb	r0, [r0, #0]
   239a4:	2803      	cmp	r0, #3
   239a6:	d009      	beq.n	239bc <_ZN20complex_dynamic_type3app17h919f9f785e57699cE+0x100>
   239a8:	2802      	cmp	r0, #2
   239aa:	d10e      	bne.n	239ca <_ZN20complex_dynamic_type3app17h919f9f785e57699cE+0x10e>
   239ac:	1c68      	adds	r0, r5, #1
   239ae:	222a      	movs	r2, #42	@ 0x2a
   239b0:	4621      	mov	r1, r4
   239b2:	f006 fde3 	bl	2a57c <__aeabi_memcpy>
   239b6:	9802      	ldr	r0, [sp, #8]
   239b8:	7028      	strb	r0, [r5, #0]
   239ba:	e7db      	b.n	23974 <_ZN20complex_dynamic_type3app17h919f9f785e57699cE+0xb8>
   239bc:	4626      	mov	r6, r4
   239be:	480b      	ldr	r0, [pc, #44]	@ (239ec <_ZN20complex_dynamic_type3app17h919f9f785e57699cE+0x130>)
   239c0:	2100      	movs	r1, #0
   239c2:	460a      	mov	r2, r1
   239c4:	460b      	mov	r3, r1
   239c6:	df03      	svc	3
   239c8:	e005      	b.n	239d6 <_ZN20complex_dynamic_type3app17h919f9f785e57699cE+0x11a>
   239ca:	4626      	mov	r6, r4
   239cc:	4807      	ldr	r0, [pc, #28]	@ (239ec <_ZN20complex_dynamic_type3app17h919f9f785e57699cE+0x130>)
   239ce:	2100      	movs	r1, #0
   239d0:	460a      	mov	r2, r1
   239d2:	460b      	mov	r3, r1
   239d4:	df04      	svc	4
   239d6:	a804      	add	r0, sp, #16
   239d8:	7804      	ldrb	r4, [r0, #0]
   239da:	1c68      	adds	r0, r5, #1
   239dc:	222a      	movs	r2, #42	@ 0x2a
   239de:	4631      	mov	r1, r6
   239e0:	f006 fdcc 	bl	2a57c <__aeabi_memcpy>
   239e4:	9802      	ldr	r0, [sp, #8]
   239e6:	7028      	strb	r0, [r5, #0]
   239e8:	e7b9      	b.n	2395e <_ZN20complex_dynamic_type3app17h919f9f785e57699cE+0xa2>
   239ea:	46c0      	nop			@ (mov r8, r8)
   239ec:	000024f0 	.word	0x000024f0

000239f0 <_ZN20complex_dynamic_type3app17h922207d988857a97E>:
   239f0:	b5f0      	push	{r4, r5, r6, r7, lr}
   239f2:	af03      	add	r7, sp, #12
   239f4:	b09f      	sub	sp, #124	@ 0x7c
   239f6:	9003      	str	r0, [sp, #12]
   239f8:	a804      	add	r0, sp, #16
   239fa:	2402      	movs	r4, #2
   239fc:	7004      	strb	r4, [r0, #0]
   239fe:	1c46      	adds	r6, r0, #1
   23a00:	2244      	movs	r2, #68	@ 0x44
   23a02:	9202      	str	r2, [sp, #8]
   23a04:	4630      	mov	r0, r6
   23a06:	f006 fdb9 	bl	2a57c <__aeabi_memcpy>
   23a0a:	ad16      	add	r5, sp, #88	@ 0x58
   23a0c:	1c68      	adds	r0, r5, #1
   23a0e:	2123      	movs	r1, #35	@ 0x23
   23a10:	9001      	str	r0, [sp, #4]
   23a12:	f006 fbf3 	bl	2a1fc <__aeabi_memclr>
   23a16:	9400      	str	r4, [sp, #0]
   23a18:	702c      	strb	r4, [r5, #0]
   23a1a:	483e      	ldr	r0, [pc, #248]	@ (23b14 <_ZN20complex_dynamic_type3app17h922207d988857a97E+0x124>)
   23a1c:	2106      	movs	r1, #6
   23a1e:	4632      	mov	r2, r6
   23a20:	9b02      	ldr	r3, [sp, #8]
   23a22:	df04      	svc	4
   23a24:	2802      	cmp	r0, #2
   23a26:	d104      	bne.n	23a32 <_ZN20complex_dynamic_type3app17h922207d988857a97E+0x42>
   23a28:	2001      	movs	r0, #1
   23a2a:	9a03      	ldr	r2, [sp, #12]
   23a2c:	7010      	strb	r0, [r2, #0]
   23a2e:	6051      	str	r1, [r2, #4]
   23a30:	e02c      	b.n	23a8c <_ZN20complex_dynamic_type3app17h922207d988857a97E+0x9c>
   23a32:	9d03      	ldr	r5, [sp, #12]
   23a34:	a804      	add	r0, sp, #16
   23a36:	2104      	movs	r1, #4
   23a38:	7001      	strb	r1, [r0, #0]
   23a3a:	4836      	ldr	r0, [pc, #216]	@ (23b14 <_ZN20complex_dynamic_type3app17h922207d988857a97E+0x124>)
   23a3c:	2403      	movs	r4, #3
   23a3e:	2323      	movs	r3, #35	@ 0x23
   23a40:	4621      	mov	r1, r4
   23a42:	9a01      	ldr	r2, [sp, #4]
   23a44:	df03      	svc	3
   23a46:	2802      	cmp	r0, #2
   23a48:	d10e      	bne.n	23a68 <_ZN20complex_dynamic_type3app17h922207d988857a97E+0x78>
   23a4a:	2001      	movs	r0, #1
   23a4c:	7028      	strb	r0, [r5, #0]
   23a4e:	6069      	str	r1, [r5, #4]
   23a50:	a816      	add	r0, sp, #88	@ 0x58
   23a52:	7800      	ldrb	r0, [r0, #0]
   23a54:	2802      	cmp	r0, #2
   23a56:	d019      	beq.n	23a8c <_ZN20complex_dynamic_type3app17h922207d988857a97E+0x9c>
   23a58:	2803      	cmp	r0, #3
   23a5a:	d012      	beq.n	23a82 <_ZN20complex_dynamic_type3app17h922207d988857a97E+0x92>
   23a5c:	482d      	ldr	r0, [pc, #180]	@ (23b14 <_ZN20complex_dynamic_type3app17h922207d988857a97E+0x124>)
   23a5e:	2103      	movs	r1, #3
   23a60:	2200      	movs	r2, #0
   23a62:	4613      	mov	r3, r2
   23a64:	df04      	svc	4
   23a66:	e011      	b.n	23a8c <_ZN20complex_dynamic_type3app17h922207d988857a97E+0x9c>
   23a68:	a816      	add	r0, sp, #88	@ 0x58
   23a6a:	7004      	strb	r4, [r0, #0]
   23a6c:	4829      	ldr	r0, [pc, #164]	@ (23b14 <_ZN20complex_dynamic_type3app17h922207d988857a97E+0x124>)
   23a6e:	2106      	movs	r1, #6
   23a70:	2600      	movs	r6, #0
   23a72:	4622      	mov	r2, r4
   23a74:	4633      	mov	r3, r6
   23a76:	df02      	svc	2
   23a78:	287f      	cmp	r0, #127	@ 0x7f
   23a7a:	d816      	bhi.n	23aaa <_ZN20complex_dynamic_type3app17h922207d988857a97E+0xba>
   23a7c:	2001      	movs	r0, #1
   23a7e:	7028      	strb	r0, [r5, #0]
   23a80:	6069      	str	r1, [r5, #4]
   23a82:	4824      	ldr	r0, [pc, #144]	@ (23b14 <_ZN20complex_dynamic_type3app17h922207d988857a97E+0x124>)
   23a84:	2103      	movs	r1, #3
   23a86:	2200      	movs	r2, #0
   23a88:	4613      	mov	r3, r2
   23a8a:	df03      	svc	3
   23a8c:	a804      	add	r0, sp, #16
   23a8e:	7804      	ldrb	r4, [r0, #0]
   23a90:	2c02      	cmp	r4, #2
   23a92:	d008      	beq.n	23aa6 <_ZN20complex_dynamic_type3app17h922207d988857a97E+0xb6>
   23a94:	481f      	ldr	r0, [pc, #124]	@ (23b14 <_ZN20complex_dynamic_type3app17h922207d988857a97E+0x124>)
   23a96:	2106      	movs	r1, #6
   23a98:	2200      	movs	r2, #0
   23a9a:	4613      	mov	r3, r2
   23a9c:	2c03      	cmp	r4, #3
   23a9e:	d101      	bne.n	23aa4 <_ZN20complex_dynamic_type3app17h922207d988857a97E+0xb4>
   23aa0:	df03      	svc	3
   23aa2:	e000      	b.n	23aa6 <_ZN20complex_dynamic_type3app17h922207d988857a97E+0xb6>
   23aa4:	df04      	svc	4
   23aa6:	b01f      	add	sp, #124	@ 0x7c
   23aa8:	bdf0      	pop	{r4, r5, r6, r7, pc}
   23aaa:	a804      	add	r0, sp, #16
   23aac:	7800      	ldrb	r0, [r0, #0]
   23aae:	2802      	cmp	r0, #2
   23ab0:	d01c      	beq.n	23aec <_ZN20complex_dynamic_type3app17h922207d988857a97E+0xfc>
   23ab2:	2803      	cmp	r0, #3
   23ab4:	d105      	bne.n	23ac2 <_ZN20complex_dynamic_type3app17h922207d988857a97E+0xd2>
   23ab6:	4817      	ldr	r0, [pc, #92]	@ (23b14 <_ZN20complex_dynamic_type3app17h922207d988857a97E+0x124>)
   23ab8:	2106      	movs	r1, #6
   23aba:	2200      	movs	r2, #0
   23abc:	4613      	mov	r3, r2
   23abe:	df03      	svc	3
   23ac0:	e004      	b.n	23acc <_ZN20complex_dynamic_type3app17h922207d988857a97E+0xdc>
   23ac2:	4814      	ldr	r0, [pc, #80]	@ (23b14 <_ZN20complex_dynamic_type3app17h922207d988857a97E+0x124>)
   23ac4:	2106      	movs	r1, #6
   23ac6:	2200      	movs	r2, #0
   23ac8:	4613      	mov	r3, r2
   23aca:	df04      	svc	4
   23acc:	9900      	ldr	r1, [sp, #0]
   23ace:	a804      	add	r0, sp, #16
   23ad0:	7001      	strb	r1, [r0, #0]
   23ad2:	a816      	add	r0, sp, #88	@ 0x58
   23ad4:	7800      	ldrb	r0, [r0, #0]
   23ad6:	2803      	cmp	r0, #3
   23ad8:	d008      	beq.n	23aec <_ZN20complex_dynamic_type3app17h922207d988857a97E+0xfc>
   23ada:	2802      	cmp	r0, #2
   23adc:	d10c      	bne.n	23af8 <_ZN20complex_dynamic_type3app17h922207d988857a97E+0x108>
   23ade:	1c68      	adds	r0, r5, #1
   23ae0:	2223      	movs	r2, #35	@ 0x23
   23ae2:	9901      	ldr	r1, [sp, #4]
   23ae4:	f006 fd4a 	bl	2a57c <__aeabi_memcpy>
   23ae8:	702e      	strb	r6, [r5, #0]
   23aea:	e7dc      	b.n	23aa6 <_ZN20complex_dynamic_type3app17h922207d988857a97E+0xb6>
   23aec:	4809      	ldr	r0, [pc, #36]	@ (23b14 <_ZN20complex_dynamic_type3app17h922207d988857a97E+0x124>)
   23aee:	2103      	movs	r1, #3
   23af0:	2200      	movs	r2, #0
   23af2:	4613      	mov	r3, r2
   23af4:	df03      	svc	3
   23af6:	e004      	b.n	23b02 <_ZN20complex_dynamic_type3app17h922207d988857a97E+0x112>
   23af8:	4806      	ldr	r0, [pc, #24]	@ (23b14 <_ZN20complex_dynamic_type3app17h922207d988857a97E+0x124>)
   23afa:	2103      	movs	r1, #3
   23afc:	2200      	movs	r2, #0
   23afe:	4613      	mov	r3, r2
   23b00:	df04      	svc	4
   23b02:	a804      	add	r0, sp, #16
   23b04:	7804      	ldrb	r4, [r0, #0]
   23b06:	1c68      	adds	r0, r5, #1
   23b08:	2223      	movs	r2, #35	@ 0x23
   23b0a:	9901      	ldr	r1, [sp, #4]
   23b0c:	f006 fd36 	bl	2a57c <__aeabi_memcpy>
   23b10:	702e      	strb	r6, [r5, #0]
   23b12:	e7bd      	b.n	23a90 <_ZN20complex_dynamic_type3app17h922207d988857a97E+0xa0>
   23b14:	000009bf 	.word	0x000009bf

00023b18 <_ZN20complex_dynamic_type3app17h943b85a610ba91daE>:
   23b18:	b5f0      	push	{r4, r5, r6, r7, lr}
   23b1a:	af03      	add	r7, sp, #12
   23b1c:	b097      	sub	sp, #92	@ 0x5c
   23b1e:	9003      	str	r0, [sp, #12]
   23b20:	a804      	add	r0, sp, #16
   23b22:	2402      	movs	r4, #2
   23b24:	7004      	strb	r4, [r0, #0]
   23b26:	1c46      	adds	r6, r0, #1
   23b28:	222b      	movs	r2, #43	@ 0x2b
   23b2a:	9202      	str	r2, [sp, #8]
   23b2c:	4630      	mov	r0, r6
   23b2e:	f006 fd25 	bl	2a57c <__aeabi_memcpy>
   23b32:	ad0f      	add	r5, sp, #60	@ 0x3c
   23b34:	1c68      	adds	r0, r5, #1
   23b36:	211e      	movs	r1, #30
   23b38:	9001      	str	r0, [sp, #4]
   23b3a:	f006 fb5f 	bl	2a1fc <__aeabi_memclr>
   23b3e:	9400      	str	r4, [sp, #0]
   23b40:	702c      	strb	r4, [r5, #0]
   23b42:	483f      	ldr	r0, [pc, #252]	@ (23c40 <_ZN20complex_dynamic_type3app17h943b85a610ba91daE+0x128>)
   23b44:	2107      	movs	r1, #7
   23b46:	4632      	mov	r2, r6
   23b48:	9b02      	ldr	r3, [sp, #8]
   23b4a:	df04      	svc	4
   23b4c:	2802      	cmp	r0, #2
   23b4e:	d104      	bne.n	23b5a <_ZN20complex_dynamic_type3app17h943b85a610ba91daE+0x42>
   23b50:	2001      	movs	r0, #1
   23b52:	9a03      	ldr	r2, [sp, #12]
   23b54:	7010      	strb	r0, [r2, #0]
   23b56:	6051      	str	r1, [r2, #4]
   23b58:	e02d      	b.n	23bb6 <_ZN20complex_dynamic_type3app17h943b85a610ba91daE+0x9e>
   23b5a:	9d03      	ldr	r5, [sp, #12]
   23b5c:	a804      	add	r0, sp, #16
   23b5e:	2104      	movs	r1, #4
   23b60:	7001      	strb	r1, [r0, #0]
   23b62:	4837      	ldr	r0, [pc, #220]	@ (23c40 <_ZN20complex_dynamic_type3app17h943b85a610ba91daE+0x128>)
   23b64:	2108      	movs	r1, #8
   23b66:	231e      	movs	r3, #30
   23b68:	9c01      	ldr	r4, [sp, #4]
   23b6a:	4622      	mov	r2, r4
   23b6c:	df03      	svc	3
   23b6e:	2802      	cmp	r0, #2
   23b70:	d10e      	bne.n	23b90 <_ZN20complex_dynamic_type3app17h943b85a610ba91daE+0x78>
   23b72:	2001      	movs	r0, #1
   23b74:	7028      	strb	r0, [r5, #0]
   23b76:	6069      	str	r1, [r5, #4]
   23b78:	a80f      	add	r0, sp, #60	@ 0x3c
   23b7a:	7800      	ldrb	r0, [r0, #0]
   23b7c:	2802      	cmp	r0, #2
   23b7e:	d01a      	beq.n	23bb6 <_ZN20complex_dynamic_type3app17h943b85a610ba91daE+0x9e>
   23b80:	2803      	cmp	r0, #3
   23b82:	d013      	beq.n	23bac <_ZN20complex_dynamic_type3app17h943b85a610ba91daE+0x94>
   23b84:	482e      	ldr	r0, [pc, #184]	@ (23c40 <_ZN20complex_dynamic_type3app17h943b85a610ba91daE+0x128>)
   23b86:	2108      	movs	r1, #8
   23b88:	2200      	movs	r2, #0
   23b8a:	4613      	mov	r3, r2
   23b8c:	df04      	svc	4
   23b8e:	e012      	b.n	23bb6 <_ZN20complex_dynamic_type3app17h943b85a610ba91daE+0x9e>
   23b90:	a80f      	add	r0, sp, #60	@ 0x3c
   23b92:	2103      	movs	r1, #3
   23b94:	7001      	strb	r1, [r0, #0]
   23b96:	482a      	ldr	r0, [pc, #168]	@ (23c40 <_ZN20complex_dynamic_type3app17h943b85a610ba91daE+0x128>)
   23b98:	2107      	movs	r1, #7
   23b9a:	2208      	movs	r2, #8
   23b9c:	2600      	movs	r6, #0
   23b9e:	4633      	mov	r3, r6
   23ba0:	df02      	svc	2
   23ba2:	287f      	cmp	r0, #127	@ 0x7f
   23ba4:	d816      	bhi.n	23bd4 <_ZN20complex_dynamic_type3app17h943b85a610ba91daE+0xbc>
   23ba6:	2001      	movs	r0, #1
   23ba8:	7028      	strb	r0, [r5, #0]
   23baa:	6069      	str	r1, [r5, #4]
   23bac:	4824      	ldr	r0, [pc, #144]	@ (23c40 <_ZN20complex_dynamic_type3app17h943b85a610ba91daE+0x128>)
   23bae:	2108      	movs	r1, #8
   23bb0:	2200      	movs	r2, #0
   23bb2:	4613      	mov	r3, r2
   23bb4:	df03      	svc	3
   23bb6:	a804      	add	r0, sp, #16
   23bb8:	7804      	ldrb	r4, [r0, #0]
   23bba:	2c02      	cmp	r4, #2
   23bbc:	d008      	beq.n	23bd0 <_ZN20complex_dynamic_type3app17h943b85a610ba91daE+0xb8>
   23bbe:	4820      	ldr	r0, [pc, #128]	@ (23c40 <_ZN20complex_dynamic_type3app17h943b85a610ba91daE+0x128>)
   23bc0:	2107      	movs	r1, #7
   23bc2:	2200      	movs	r2, #0
   23bc4:	4613      	mov	r3, r2
   23bc6:	2c03      	cmp	r4, #3
   23bc8:	d101      	bne.n	23bce <_ZN20complex_dynamic_type3app17h943b85a610ba91daE+0xb6>
   23bca:	df03      	svc	3
   23bcc:	e000      	b.n	23bd0 <_ZN20complex_dynamic_type3app17h943b85a610ba91daE+0xb8>
   23bce:	df04      	svc	4
   23bd0:	b017      	add	sp, #92	@ 0x5c
   23bd2:	bdf0      	pop	{r4, r5, r6, r7, pc}
   23bd4:	a804      	add	r0, sp, #16
   23bd6:	7800      	ldrb	r0, [r0, #0]
   23bd8:	2802      	cmp	r0, #2
   23bda:	d01c      	beq.n	23c16 <_ZN20complex_dynamic_type3app17h943b85a610ba91daE+0xfe>
   23bdc:	2803      	cmp	r0, #3
   23bde:	d105      	bne.n	23bec <_ZN20complex_dynamic_type3app17h943b85a610ba91daE+0xd4>
   23be0:	4817      	ldr	r0, [pc, #92]	@ (23c40 <_ZN20complex_dynamic_type3app17h943b85a610ba91daE+0x128>)
   23be2:	2107      	movs	r1, #7
   23be4:	2200      	movs	r2, #0
   23be6:	4613      	mov	r3, r2
   23be8:	df03      	svc	3
   23bea:	e004      	b.n	23bf6 <_ZN20complex_dynamic_type3app17h943b85a610ba91daE+0xde>
   23bec:	4814      	ldr	r0, [pc, #80]	@ (23c40 <_ZN20complex_dynamic_type3app17h943b85a610ba91daE+0x128>)
   23bee:	2107      	movs	r1, #7
   23bf0:	2200      	movs	r2, #0
   23bf2:	4613      	mov	r3, r2
   23bf4:	df04      	svc	4
   23bf6:	a804      	add	r0, sp, #16
   23bf8:	9900      	ldr	r1, [sp, #0]
   23bfa:	7001      	strb	r1, [r0, #0]
   23bfc:	a80f      	add	r0, sp, #60	@ 0x3c
   23bfe:	7800      	ldrb	r0, [r0, #0]
   23c00:	2803      	cmp	r0, #3
   23c02:	d008      	beq.n	23c16 <_ZN20complex_dynamic_type3app17h943b85a610ba91daE+0xfe>
   23c04:	2802      	cmp	r0, #2
   23c06:	d10c      	bne.n	23c22 <_ZN20complex_dynamic_type3app17h943b85a610ba91daE+0x10a>
   23c08:	1c68      	adds	r0, r5, #1
   23c0a:	221e      	movs	r2, #30
   23c0c:	4621      	mov	r1, r4
   23c0e:	f006 fcb5 	bl	2a57c <__aeabi_memcpy>
   23c12:	702e      	strb	r6, [r5, #0]
   23c14:	e7dc      	b.n	23bd0 <_ZN20complex_dynamic_type3app17h943b85a610ba91daE+0xb8>
   23c16:	480a      	ldr	r0, [pc, #40]	@ (23c40 <_ZN20complex_dynamic_type3app17h943b85a610ba91daE+0x128>)
   23c18:	2108      	movs	r1, #8
   23c1a:	2200      	movs	r2, #0
   23c1c:	4613      	mov	r3, r2
   23c1e:	df03      	svc	3
   23c20:	e004      	b.n	23c2c <_ZN20complex_dynamic_type3app17h943b85a610ba91daE+0x114>
   23c22:	4807      	ldr	r0, [pc, #28]	@ (23c40 <_ZN20complex_dynamic_type3app17h943b85a610ba91daE+0x128>)
   23c24:	2108      	movs	r1, #8
   23c26:	2200      	movs	r2, #0
   23c28:	4613      	mov	r3, r2
   23c2a:	df04      	svc	4
   23c2c:	a804      	add	r0, sp, #16
   23c2e:	7804      	ldrb	r4, [r0, #0]
   23c30:	1c68      	adds	r0, r5, #1
   23c32:	221e      	movs	r2, #30
   23c34:	9901      	ldr	r1, [sp, #4]
   23c36:	f006 fca1 	bl	2a57c <__aeabi_memcpy>
   23c3a:	702e      	strb	r6, [r5, #0]
   23c3c:	e7bd      	b.n	23bba <_ZN20complex_dynamic_type3app17h943b85a610ba91daE+0xa2>
   23c3e:	46c0      	nop			@ (mov r8, r8)
   23c40:	000007e3 	.word	0x000007e3

00023c44 <_ZN20complex_dynamic_type3app17h9990110f811bdee4E>:
   23c44:	b5f0      	push	{r4, r5, r6, r7, lr}
   23c46:	af03      	add	r7, sp, #12
   23c48:	b099      	sub	sp, #100	@ 0x64
   23c4a:	9003      	str	r0, [sp, #12]
   23c4c:	a804      	add	r0, sp, #16
   23c4e:	2502      	movs	r5, #2
   23c50:	7005      	strb	r5, [r0, #0]
   23c52:	1c40      	adds	r0, r0, #1
   23c54:	9002      	str	r0, [sp, #8]
   23c56:	2611      	movs	r6, #17
   23c58:	4632      	mov	r2, r6
   23c5a:	f006 fc8f 	bl	2a57c <__aeabi_memcpy>
   23c5e:	ac09      	add	r4, sp, #36	@ 0x24
   23c60:	1c60      	adds	r0, r4, #1
   23c62:	213f      	movs	r1, #63	@ 0x3f
   23c64:	9001      	str	r0, [sp, #4]
   23c66:	f006 fac9 	bl	2a1fc <__aeabi_memclr>
   23c6a:	9500      	str	r5, [sp, #0]
   23c6c:	7025      	strb	r5, [r4, #0]
   23c6e:	20cb      	movs	r0, #203	@ 0xcb
   23c70:	0104      	lsls	r4, r0, #4
   23c72:	2107      	movs	r1, #7
   23c74:	4620      	mov	r0, r4
   23c76:	9a02      	ldr	r2, [sp, #8]
   23c78:	4633      	mov	r3, r6
   23c7a:	df04      	svc	4
   23c7c:	2802      	cmp	r0, #2
   23c7e:	d104      	bne.n	23c8a <_ZN20complex_dynamic_type3app17h9990110f811bdee4E+0x46>
   23c80:	2001      	movs	r0, #1
   23c82:	9a03      	ldr	r2, [sp, #12]
   23c84:	7010      	strb	r0, [r2, #0]
   23c86:	6051      	str	r1, [r2, #4]
   23c88:	e02c      	b.n	23ce4 <_ZN20complex_dynamic_type3app17h9990110f811bdee4E+0xa0>
   23c8a:	9e03      	ldr	r6, [sp, #12]
   23c8c:	a804      	add	r0, sp, #16
   23c8e:	2104      	movs	r1, #4
   23c90:	7001      	strb	r1, [r0, #0]
   23c92:	233f      	movs	r3, #63	@ 0x3f
   23c94:	4620      	mov	r0, r4
   23c96:	9d01      	ldr	r5, [sp, #4]
   23c98:	462a      	mov	r2, r5
   23c9a:	df03      	svc	3
   23c9c:	2802      	cmp	r0, #2
   23c9e:	d10e      	bne.n	23cbe <_ZN20complex_dynamic_type3app17h9990110f811bdee4E+0x7a>
   23ca0:	2001      	movs	r0, #1
   23ca2:	7030      	strb	r0, [r6, #0]
   23ca4:	6071      	str	r1, [r6, #4]
   23ca6:	a809      	add	r0, sp, #36	@ 0x24
   23ca8:	7800      	ldrb	r0, [r0, #0]
   23caa:	2802      	cmp	r0, #2
   23cac:	d01a      	beq.n	23ce4 <_ZN20complex_dynamic_type3app17h9990110f811bdee4E+0xa0>
   23cae:	2803      	cmp	r0, #3
   23cb0:	d013      	beq.n	23cda <_ZN20complex_dynamic_type3app17h9990110f811bdee4E+0x96>
   23cb2:	2104      	movs	r1, #4
   23cb4:	2200      	movs	r2, #0
   23cb6:	4620      	mov	r0, r4
   23cb8:	4613      	mov	r3, r2
   23cba:	df04      	svc	4
   23cbc:	e012      	b.n	23ce4 <_ZN20complex_dynamic_type3app17h9990110f811bdee4E+0xa0>
   23cbe:	a809      	add	r0, sp, #36	@ 0x24
   23cc0:	2103      	movs	r1, #3
   23cc2:	7001      	strb	r1, [r0, #0]
   23cc4:	2107      	movs	r1, #7
   23cc6:	2204      	movs	r2, #4
   23cc8:	2300      	movs	r3, #0
   23cca:	4620      	mov	r0, r4
   23ccc:	9302      	str	r3, [sp, #8]
   23cce:	df02      	svc	2
   23cd0:	287f      	cmp	r0, #127	@ 0x7f
   23cd2:	d817      	bhi.n	23d04 <_ZN20complex_dynamic_type3app17h9990110f811bdee4E+0xc0>
   23cd4:	2001      	movs	r0, #1
   23cd6:	7030      	strb	r0, [r6, #0]
   23cd8:	6071      	str	r1, [r6, #4]
   23cda:	2104      	movs	r1, #4
   23cdc:	2200      	movs	r2, #0
   23cde:	4620      	mov	r0, r4
   23ce0:	4613      	mov	r3, r2
   23ce2:	df03      	svc	3
   23ce4:	4625      	mov	r5, r4
   23ce6:	a804      	add	r0, sp, #16
   23ce8:	7804      	ldrb	r4, [r0, #0]
   23cea:	2c02      	cmp	r4, #2
   23cec:	d008      	beq.n	23d00 <_ZN20complex_dynamic_type3app17h9990110f811bdee4E+0xbc>
   23cee:	2107      	movs	r1, #7
   23cf0:	2200      	movs	r2, #0
   23cf2:	4628      	mov	r0, r5
   23cf4:	4613      	mov	r3, r2
   23cf6:	2c03      	cmp	r4, #3
   23cf8:	d101      	bne.n	23cfe <_ZN20complex_dynamic_type3app17h9990110f811bdee4E+0xba>
   23cfa:	df03      	svc	3
   23cfc:	e000      	b.n	23d00 <_ZN20complex_dynamic_type3app17h9990110f811bdee4E+0xbc>
   23cfe:	df04      	svc	4
   23d00:	b019      	add	sp, #100	@ 0x64
   23d02:	bdf0      	pop	{r4, r5, r6, r7, pc}
   23d04:	a804      	add	r0, sp, #16
   23d06:	7800      	ldrb	r0, [r0, #0]
   23d08:	2802      	cmp	r0, #2
   23d0a:	d01b      	beq.n	23d44 <_ZN20complex_dynamic_type3app17h9990110f811bdee4E+0x100>
   23d0c:	2107      	movs	r1, #7
   23d0e:	2200      	movs	r2, #0
   23d10:	2803      	cmp	r0, #3
   23d12:	d103      	bne.n	23d1c <_ZN20complex_dynamic_type3app17h9990110f811bdee4E+0xd8>
   23d14:	4620      	mov	r0, r4
   23d16:	4613      	mov	r3, r2
   23d18:	df03      	svc	3
   23d1a:	e002      	b.n	23d22 <_ZN20complex_dynamic_type3app17h9990110f811bdee4E+0xde>
   23d1c:	4620      	mov	r0, r4
   23d1e:	4613      	mov	r3, r2
   23d20:	df04      	svc	4
   23d22:	a804      	add	r0, sp, #16
   23d24:	9900      	ldr	r1, [sp, #0]
   23d26:	7001      	strb	r1, [r0, #0]
   23d28:	a809      	add	r0, sp, #36	@ 0x24
   23d2a:	7800      	ldrb	r0, [r0, #0]
   23d2c:	2803      	cmp	r0, #3
   23d2e:	d009      	beq.n	23d44 <_ZN20complex_dynamic_type3app17h9990110f811bdee4E+0x100>
   23d30:	2802      	cmp	r0, #2
   23d32:	d10e      	bne.n	23d52 <_ZN20complex_dynamic_type3app17h9990110f811bdee4E+0x10e>
   23d34:	1c70      	adds	r0, r6, #1
   23d36:	223f      	movs	r2, #63	@ 0x3f
   23d38:	4629      	mov	r1, r5
   23d3a:	f006 fc1f 	bl	2a57c <__aeabi_memcpy>
   23d3e:	9802      	ldr	r0, [sp, #8]
   23d40:	7030      	strb	r0, [r6, #0]
   23d42:	e7dd      	b.n	23d00 <_ZN20complex_dynamic_type3app17h9990110f811bdee4E+0xbc>
   23d44:	2104      	movs	r1, #4
   23d46:	2200      	movs	r2, #0
   23d48:	4625      	mov	r5, r4
   23d4a:	4620      	mov	r0, r4
   23d4c:	4613      	mov	r3, r2
   23d4e:	df03      	svc	3
   23d50:	e005      	b.n	23d5e <_ZN20complex_dynamic_type3app17h9990110f811bdee4E+0x11a>
   23d52:	2104      	movs	r1, #4
   23d54:	2200      	movs	r2, #0
   23d56:	4625      	mov	r5, r4
   23d58:	4620      	mov	r0, r4
   23d5a:	4613      	mov	r3, r2
   23d5c:	df04      	svc	4
   23d5e:	a804      	add	r0, sp, #16
   23d60:	7804      	ldrb	r4, [r0, #0]
   23d62:	1c70      	adds	r0, r6, #1
   23d64:	223f      	movs	r2, #63	@ 0x3f
   23d66:	9901      	ldr	r1, [sp, #4]
   23d68:	f006 fc08 	bl	2a57c <__aeabi_memcpy>
   23d6c:	9802      	ldr	r0, [sp, #8]
   23d6e:	7030      	strb	r0, [r6, #0]
   23d70:	e7bb      	b.n	23cea <_ZN20complex_dynamic_type3app17h9990110f811bdee4E+0xa6>
   23d72:	d4d4      	bmi.n	23d1e <_ZN20complex_dynamic_type3app17h9990110f811bdee4E+0xda>

00023d74 <_ZN20complex_dynamic_type3app17h9b03f42ae037d5deE>:
   23d74:	b5f0      	push	{r4, r5, r6, r7, lr}
   23d76:	af03      	add	r7, sp, #12
   23d78:	b09d      	sub	sp, #116	@ 0x74
   23d7a:	9004      	str	r0, [sp, #16]
   23d7c:	a805      	add	r0, sp, #20
   23d7e:	2402      	movs	r4, #2
   23d80:	7004      	strb	r4, [r0, #0]
   23d82:	1c46      	adds	r6, r0, #1
   23d84:	223f      	movs	r2, #63	@ 0x3f
   23d86:	9203      	str	r2, [sp, #12]
   23d88:	4630      	mov	r0, r6
   23d8a:	f006 fbf7 	bl	2a57c <__aeabi_memcpy>
   23d8e:	ad15      	add	r5, sp, #84	@ 0x54
   23d90:	1c68      	adds	r0, r5, #1
   23d92:	211c      	movs	r1, #28
   23d94:	9002      	str	r0, [sp, #8]
   23d96:	f006 fa31 	bl	2a1fc <__aeabi_memclr>
   23d9a:	9401      	str	r4, [sp, #4]
   23d9c:	702c      	strb	r4, [r5, #0]
   23d9e:	483f      	ldr	r0, [pc, #252]	@ (23e9c <_ZN20complex_dynamic_type3app17h9b03f42ae037d5deE+0x128>)
   23da0:	2105      	movs	r1, #5
   23da2:	4632      	mov	r2, r6
   23da4:	9b03      	ldr	r3, [sp, #12]
   23da6:	df04      	svc	4
   23da8:	2802      	cmp	r0, #2
   23daa:	d104      	bne.n	23db6 <_ZN20complex_dynamic_type3app17h9b03f42ae037d5deE+0x42>
   23dac:	2001      	movs	r0, #1
   23dae:	9a04      	ldr	r2, [sp, #16]
   23db0:	7010      	strb	r0, [r2, #0]
   23db2:	6051      	str	r1, [r2, #4]
   23db4:	e02d      	b.n	23e12 <_ZN20complex_dynamic_type3app17h9b03f42ae037d5deE+0x9e>
   23db6:	9d04      	ldr	r5, [sp, #16]
   23db8:	a805      	add	r0, sp, #20
   23dba:	2104      	movs	r1, #4
   23dbc:	7001      	strb	r1, [r0, #0]
   23dbe:	4837      	ldr	r0, [pc, #220]	@ (23e9c <_ZN20complex_dynamic_type3app17h9b03f42ae037d5deE+0x128>)
   23dc0:	2109      	movs	r1, #9
   23dc2:	231c      	movs	r3, #28
   23dc4:	9c02      	ldr	r4, [sp, #8]
   23dc6:	4622      	mov	r2, r4
   23dc8:	df03      	svc	3
   23dca:	2802      	cmp	r0, #2
   23dcc:	d10e      	bne.n	23dec <_ZN20complex_dynamic_type3app17h9b03f42ae037d5deE+0x78>
   23dce:	2001      	movs	r0, #1
   23dd0:	7028      	strb	r0, [r5, #0]
   23dd2:	6069      	str	r1, [r5, #4]
   23dd4:	a815      	add	r0, sp, #84	@ 0x54
   23dd6:	7800      	ldrb	r0, [r0, #0]
   23dd8:	2802      	cmp	r0, #2
   23dda:	d01a      	beq.n	23e12 <_ZN20complex_dynamic_type3app17h9b03f42ae037d5deE+0x9e>
   23ddc:	2803      	cmp	r0, #3
   23dde:	d013      	beq.n	23e08 <_ZN20complex_dynamic_type3app17h9b03f42ae037d5deE+0x94>
   23de0:	482e      	ldr	r0, [pc, #184]	@ (23e9c <_ZN20complex_dynamic_type3app17h9b03f42ae037d5deE+0x128>)
   23de2:	2109      	movs	r1, #9
   23de4:	2200      	movs	r2, #0
   23de6:	4613      	mov	r3, r2
   23de8:	df04      	svc	4
   23dea:	e012      	b.n	23e12 <_ZN20complex_dynamic_type3app17h9b03f42ae037d5deE+0x9e>
   23dec:	a815      	add	r0, sp, #84	@ 0x54
   23dee:	2103      	movs	r1, #3
   23df0:	7001      	strb	r1, [r0, #0]
   23df2:	482a      	ldr	r0, [pc, #168]	@ (23e9c <_ZN20complex_dynamic_type3app17h9b03f42ae037d5deE+0x128>)
   23df4:	2105      	movs	r1, #5
   23df6:	2209      	movs	r2, #9
   23df8:	2600      	movs	r6, #0
   23dfa:	4633      	mov	r3, r6
   23dfc:	df02      	svc	2
   23dfe:	287f      	cmp	r0, #127	@ 0x7f
   23e00:	d816      	bhi.n	23e30 <_ZN20complex_dynamic_type3app17h9b03f42ae037d5deE+0xbc>
   23e02:	2001      	movs	r0, #1
   23e04:	7028      	strb	r0, [r5, #0]
   23e06:	6069      	str	r1, [r5, #4]
   23e08:	4824      	ldr	r0, [pc, #144]	@ (23e9c <_ZN20complex_dynamic_type3app17h9b03f42ae037d5deE+0x128>)
   23e0a:	2109      	movs	r1, #9
   23e0c:	2200      	movs	r2, #0
   23e0e:	4613      	mov	r3, r2
   23e10:	df03      	svc	3
   23e12:	a805      	add	r0, sp, #20
   23e14:	7804      	ldrb	r4, [r0, #0]
   23e16:	2c02      	cmp	r4, #2
   23e18:	d008      	beq.n	23e2c <_ZN20complex_dynamic_type3app17h9b03f42ae037d5deE+0xb8>
   23e1a:	4820      	ldr	r0, [pc, #128]	@ (23e9c <_ZN20complex_dynamic_type3app17h9b03f42ae037d5deE+0x128>)
   23e1c:	2105      	movs	r1, #5
   23e1e:	2200      	movs	r2, #0
   23e20:	4613      	mov	r3, r2
   23e22:	2c03      	cmp	r4, #3
   23e24:	d101      	bne.n	23e2a <_ZN20complex_dynamic_type3app17h9b03f42ae037d5deE+0xb6>
   23e26:	df03      	svc	3
   23e28:	e000      	b.n	23e2c <_ZN20complex_dynamic_type3app17h9b03f42ae037d5deE+0xb8>
   23e2a:	df04      	svc	4
   23e2c:	b01d      	add	sp, #116	@ 0x74
   23e2e:	bdf0      	pop	{r4, r5, r6, r7, pc}
   23e30:	a805      	add	r0, sp, #20
   23e32:	7800      	ldrb	r0, [r0, #0]
   23e34:	2802      	cmp	r0, #2
   23e36:	d01c      	beq.n	23e72 <_ZN20complex_dynamic_type3app17h9b03f42ae037d5deE+0xfe>
   23e38:	2803      	cmp	r0, #3
   23e3a:	d105      	bne.n	23e48 <_ZN20complex_dynamic_type3app17h9b03f42ae037d5deE+0xd4>
   23e3c:	4817      	ldr	r0, [pc, #92]	@ (23e9c <_ZN20complex_dynamic_type3app17h9b03f42ae037d5deE+0x128>)
   23e3e:	2105      	movs	r1, #5
   23e40:	2200      	movs	r2, #0
   23e42:	4613      	mov	r3, r2
   23e44:	df03      	svc	3
   23e46:	e004      	b.n	23e52 <_ZN20complex_dynamic_type3app17h9b03f42ae037d5deE+0xde>
   23e48:	4814      	ldr	r0, [pc, #80]	@ (23e9c <_ZN20complex_dynamic_type3app17h9b03f42ae037d5deE+0x128>)
   23e4a:	2105      	movs	r1, #5
   23e4c:	2200      	movs	r2, #0
   23e4e:	4613      	mov	r3, r2
   23e50:	df04      	svc	4
   23e52:	a805      	add	r0, sp, #20
   23e54:	9901      	ldr	r1, [sp, #4]
   23e56:	7001      	strb	r1, [r0, #0]
   23e58:	a815      	add	r0, sp, #84	@ 0x54
   23e5a:	7800      	ldrb	r0, [r0, #0]
   23e5c:	2803      	cmp	r0, #3
   23e5e:	d008      	beq.n	23e72 <_ZN20complex_dynamic_type3app17h9b03f42ae037d5deE+0xfe>
   23e60:	2802      	cmp	r0, #2
   23e62:	d10c      	bne.n	23e7e <_ZN20complex_dynamic_type3app17h9b03f42ae037d5deE+0x10a>
   23e64:	1c68      	adds	r0, r5, #1
   23e66:	221c      	movs	r2, #28
   23e68:	4621      	mov	r1, r4
   23e6a:	f006 fb87 	bl	2a57c <__aeabi_memcpy>
   23e6e:	702e      	strb	r6, [r5, #0]
   23e70:	e7dc      	b.n	23e2c <_ZN20complex_dynamic_type3app17h9b03f42ae037d5deE+0xb8>
   23e72:	480a      	ldr	r0, [pc, #40]	@ (23e9c <_ZN20complex_dynamic_type3app17h9b03f42ae037d5deE+0x128>)
   23e74:	2109      	movs	r1, #9
   23e76:	2200      	movs	r2, #0
   23e78:	4613      	mov	r3, r2
   23e7a:	df03      	svc	3
   23e7c:	e004      	b.n	23e88 <_ZN20complex_dynamic_type3app17h9b03f42ae037d5deE+0x114>
   23e7e:	4807      	ldr	r0, [pc, #28]	@ (23e9c <_ZN20complex_dynamic_type3app17h9b03f42ae037d5deE+0x128>)
   23e80:	2109      	movs	r1, #9
   23e82:	2200      	movs	r2, #0
   23e84:	4613      	mov	r3, r2
   23e86:	df04      	svc	4
   23e88:	a805      	add	r0, sp, #20
   23e8a:	7804      	ldrb	r4, [r0, #0]
   23e8c:	1c68      	adds	r0, r5, #1
   23e8e:	221c      	movs	r2, #28
   23e90:	9902      	ldr	r1, [sp, #8]
   23e92:	f006 fb73 	bl	2a57c <__aeabi_memcpy>
   23e96:	702e      	strb	r6, [r5, #0]
   23e98:	e7bd      	b.n	23e16 <_ZN20complex_dynamic_type3app17h9b03f42ae037d5deE+0xa2>
   23e9a:	46c0      	nop			@ (mov r8, r8)
   23e9c:	00001694 	.word	0x00001694

00023ea0 <_ZN20complex_dynamic_type3app17h9d71dfca921e9722E>:
   23ea0:	b5f0      	push	{r4, r5, r6, r7, lr}
   23ea2:	af03      	add	r7, sp, #12
   23ea4:	b0a7      	sub	sp, #156	@ 0x9c
   23ea6:	9003      	str	r0, [sp, #12]
   23ea8:	a804      	add	r0, sp, #16
   23eaa:	2402      	movs	r4, #2
   23eac:	7004      	strb	r4, [r0, #0]
   23eae:	1c46      	adds	r6, r0, #1
   23eb0:	2263      	movs	r2, #99	@ 0x63
   23eb2:	9202      	str	r2, [sp, #8]
   23eb4:	4630      	mov	r0, r6
   23eb6:	f006 fb61 	bl	2a57c <__aeabi_memcpy>
   23eba:	ad1d      	add	r5, sp, #116	@ 0x74
   23ebc:	1c68      	adds	r0, r5, #1
   23ebe:	2127      	movs	r1, #39	@ 0x27
   23ec0:	9001      	str	r0, [sp, #4]
   23ec2:	f006 f99b 	bl	2a1fc <__aeabi_memclr>
   23ec6:	9400      	str	r4, [sp, #0]
   23ec8:	702c      	strb	r4, [r5, #0]
   23eca:	483f      	ldr	r0, [pc, #252]	@ (23fc8 <_ZN20complex_dynamic_type3app17h9d71dfca921e9722E+0x128>)
   23ecc:	2107      	movs	r1, #7
   23ece:	4632      	mov	r2, r6
   23ed0:	9b02      	ldr	r3, [sp, #8]
   23ed2:	df04      	svc	4
   23ed4:	2802      	cmp	r0, #2
   23ed6:	d104      	bne.n	23ee2 <_ZN20complex_dynamic_type3app17h9d71dfca921e9722E+0x42>
   23ed8:	2001      	movs	r0, #1
   23eda:	9a03      	ldr	r2, [sp, #12]
   23edc:	7010      	strb	r0, [r2, #0]
   23ede:	6051      	str	r1, [r2, #4]
   23ee0:	e02d      	b.n	23f3e <_ZN20complex_dynamic_type3app17h9d71dfca921e9722E+0x9e>
   23ee2:	9d03      	ldr	r5, [sp, #12]
   23ee4:	a804      	add	r0, sp, #16
   23ee6:	2104      	movs	r1, #4
   23ee8:	7001      	strb	r1, [r0, #0]
   23eea:	4837      	ldr	r0, [pc, #220]	@ (23fc8 <_ZN20complex_dynamic_type3app17h9d71dfca921e9722E+0x128>)
   23eec:	2100      	movs	r1, #0
   23eee:	2327      	movs	r3, #39	@ 0x27
   23ef0:	9c01      	ldr	r4, [sp, #4]
   23ef2:	4622      	mov	r2, r4
   23ef4:	df03      	svc	3
   23ef6:	2802      	cmp	r0, #2
   23ef8:	d10e      	bne.n	23f18 <_ZN20complex_dynamic_type3app17h9d71dfca921e9722E+0x78>
   23efa:	2001      	movs	r0, #1
   23efc:	7028      	strb	r0, [r5, #0]
   23efe:	6069      	str	r1, [r5, #4]
   23f00:	a81d      	add	r0, sp, #116	@ 0x74
   23f02:	7800      	ldrb	r0, [r0, #0]
   23f04:	2802      	cmp	r0, #2
   23f06:	d01a      	beq.n	23f3e <_ZN20complex_dynamic_type3app17h9d71dfca921e9722E+0x9e>
   23f08:	2803      	cmp	r0, #3
   23f0a:	d013      	beq.n	23f34 <_ZN20complex_dynamic_type3app17h9d71dfca921e9722E+0x94>
   23f0c:	482e      	ldr	r0, [pc, #184]	@ (23fc8 <_ZN20complex_dynamic_type3app17h9d71dfca921e9722E+0x128>)
   23f0e:	2100      	movs	r1, #0
   23f10:	460a      	mov	r2, r1
   23f12:	460b      	mov	r3, r1
   23f14:	df04      	svc	4
   23f16:	e012      	b.n	23f3e <_ZN20complex_dynamic_type3app17h9d71dfca921e9722E+0x9e>
   23f18:	a81d      	add	r0, sp, #116	@ 0x74
   23f1a:	2103      	movs	r1, #3
   23f1c:	7001      	strb	r1, [r0, #0]
   23f1e:	482a      	ldr	r0, [pc, #168]	@ (23fc8 <_ZN20complex_dynamic_type3app17h9d71dfca921e9722E+0x128>)
   23f20:	2107      	movs	r1, #7
   23f22:	2600      	movs	r6, #0
   23f24:	4632      	mov	r2, r6
   23f26:	4633      	mov	r3, r6
   23f28:	df02      	svc	2
   23f2a:	287f      	cmp	r0, #127	@ 0x7f
   23f2c:	d816      	bhi.n	23f5c <_ZN20complex_dynamic_type3app17h9d71dfca921e9722E+0xbc>
   23f2e:	2001      	movs	r0, #1
   23f30:	7028      	strb	r0, [r5, #0]
   23f32:	6069      	str	r1, [r5, #4]
   23f34:	4824      	ldr	r0, [pc, #144]	@ (23fc8 <_ZN20complex_dynamic_type3app17h9d71dfca921e9722E+0x128>)
   23f36:	2100      	movs	r1, #0
   23f38:	460a      	mov	r2, r1
   23f3a:	460b      	mov	r3, r1
   23f3c:	df03      	svc	3
   23f3e:	a804      	add	r0, sp, #16
   23f40:	7804      	ldrb	r4, [r0, #0]
   23f42:	2c02      	cmp	r4, #2
   23f44:	d008      	beq.n	23f58 <_ZN20complex_dynamic_type3app17h9d71dfca921e9722E+0xb8>
   23f46:	4820      	ldr	r0, [pc, #128]	@ (23fc8 <_ZN20complex_dynamic_type3app17h9d71dfca921e9722E+0x128>)
   23f48:	2107      	movs	r1, #7
   23f4a:	2200      	movs	r2, #0
   23f4c:	4613      	mov	r3, r2
   23f4e:	2c03      	cmp	r4, #3
   23f50:	d101      	bne.n	23f56 <_ZN20complex_dynamic_type3app17h9d71dfca921e9722E+0xb6>
   23f52:	df03      	svc	3
   23f54:	e000      	b.n	23f58 <_ZN20complex_dynamic_type3app17h9d71dfca921e9722E+0xb8>
   23f56:	df04      	svc	4
   23f58:	b027      	add	sp, #156	@ 0x9c
   23f5a:	bdf0      	pop	{r4, r5, r6, r7, pc}
   23f5c:	a804      	add	r0, sp, #16
   23f5e:	7800      	ldrb	r0, [r0, #0]
   23f60:	2802      	cmp	r0, #2
   23f62:	d01c      	beq.n	23f9e <_ZN20complex_dynamic_type3app17h9d71dfca921e9722E+0xfe>
   23f64:	2803      	cmp	r0, #3
   23f66:	d105      	bne.n	23f74 <_ZN20complex_dynamic_type3app17h9d71dfca921e9722E+0xd4>
   23f68:	4817      	ldr	r0, [pc, #92]	@ (23fc8 <_ZN20complex_dynamic_type3app17h9d71dfca921e9722E+0x128>)
   23f6a:	2107      	movs	r1, #7
   23f6c:	2200      	movs	r2, #0
   23f6e:	4613      	mov	r3, r2
   23f70:	df03      	svc	3
   23f72:	e004      	b.n	23f7e <_ZN20complex_dynamic_type3app17h9d71dfca921e9722E+0xde>
   23f74:	4814      	ldr	r0, [pc, #80]	@ (23fc8 <_ZN20complex_dynamic_type3app17h9d71dfca921e9722E+0x128>)
   23f76:	2107      	movs	r1, #7
   23f78:	2200      	movs	r2, #0
   23f7a:	4613      	mov	r3, r2
   23f7c:	df04      	svc	4
   23f7e:	a804      	add	r0, sp, #16
   23f80:	9900      	ldr	r1, [sp, #0]
   23f82:	7001      	strb	r1, [r0, #0]
   23f84:	a81d      	add	r0, sp, #116	@ 0x74
   23f86:	7800      	ldrb	r0, [r0, #0]
   23f88:	2803      	cmp	r0, #3
   23f8a:	d008      	beq.n	23f9e <_ZN20complex_dynamic_type3app17h9d71dfca921e9722E+0xfe>
   23f8c:	2802      	cmp	r0, #2
   23f8e:	d10c      	bne.n	23faa <_ZN20complex_dynamic_type3app17h9d71dfca921e9722E+0x10a>
   23f90:	1c68      	adds	r0, r5, #1
   23f92:	2227      	movs	r2, #39	@ 0x27
   23f94:	4621      	mov	r1, r4
   23f96:	f006 faf1 	bl	2a57c <__aeabi_memcpy>
   23f9a:	702e      	strb	r6, [r5, #0]
   23f9c:	e7dc      	b.n	23f58 <_ZN20complex_dynamic_type3app17h9d71dfca921e9722E+0xb8>
   23f9e:	480a      	ldr	r0, [pc, #40]	@ (23fc8 <_ZN20complex_dynamic_type3app17h9d71dfca921e9722E+0x128>)
   23fa0:	2100      	movs	r1, #0
   23fa2:	460a      	mov	r2, r1
   23fa4:	460b      	mov	r3, r1
   23fa6:	df03      	svc	3
   23fa8:	e004      	b.n	23fb4 <_ZN20complex_dynamic_type3app17h9d71dfca921e9722E+0x114>
   23faa:	4807      	ldr	r0, [pc, #28]	@ (23fc8 <_ZN20complex_dynamic_type3app17h9d71dfca921e9722E+0x128>)
   23fac:	2100      	movs	r1, #0
   23fae:	460a      	mov	r2, r1
   23fb0:	460b      	mov	r3, r1
   23fb2:	df04      	svc	4
   23fb4:	a804      	add	r0, sp, #16
   23fb6:	7804      	ldrb	r4, [r0, #0]
   23fb8:	1c68      	adds	r0, r5, #1
   23fba:	2227      	movs	r2, #39	@ 0x27
   23fbc:	9901      	ldr	r1, [sp, #4]
   23fbe:	f006 fadd 	bl	2a57c <__aeabi_memcpy>
   23fc2:	702e      	strb	r6, [r5, #0]
   23fc4:	e7bd      	b.n	23f42 <_ZN20complex_dynamic_type3app17h9d71dfca921e9722E+0xa2>
   23fc6:	46c0      	nop			@ (mov r8, r8)
   23fc8:	00001e54 	.word	0x00001e54

00023fcc <_ZN20complex_dynamic_type3app17h9e15cc2e31a9f57bE>:
   23fcc:	b5f0      	push	{r4, r5, r6, r7, lr}
   23fce:	af03      	add	r7, sp, #12
   23fd0:	b0b3      	sub	sp, #204	@ 0xcc
   23fd2:	9004      	str	r0, [sp, #16]
   23fd4:	a805      	add	r0, sp, #20
   23fd6:	2402      	movs	r4, #2
   23fd8:	7004      	strb	r4, [r0, #0]
   23fda:	1c46      	adds	r6, r0, #1
   23fdc:	225e      	movs	r2, #94	@ 0x5e
   23fde:	9203      	str	r2, [sp, #12]
   23fe0:	4630      	mov	r0, r6
   23fe2:	f006 facb 	bl	2a57c <__aeabi_memcpy>
   23fe6:	ad1d      	add	r5, sp, #116	@ 0x74
   23fe8:	1c68      	adds	r0, r5, #1
   23fea:	2155      	movs	r1, #85	@ 0x55
   23fec:	9002      	str	r0, [sp, #8]
   23fee:	f006 f905 	bl	2a1fc <__aeabi_memclr>
   23ff2:	9401      	str	r4, [sp, #4]
   23ff4:	702c      	strb	r4, [r5, #0]
   23ff6:	483e      	ldr	r0, [pc, #248]	@ (240f0 <_ZN20complex_dynamic_type3app17h9e15cc2e31a9f57bE+0x124>)
   23ff8:	2107      	movs	r1, #7
   23ffa:	4632      	mov	r2, r6
   23ffc:	9b03      	ldr	r3, [sp, #12]
   23ffe:	df04      	svc	4
   24000:	2802      	cmp	r0, #2
   24002:	d104      	bne.n	2400e <_ZN20complex_dynamic_type3app17h9e15cc2e31a9f57bE+0x42>
   24004:	2001      	movs	r0, #1
   24006:	9a04      	ldr	r2, [sp, #16]
   24008:	7010      	strb	r0, [r2, #0]
   2400a:	6051      	str	r1, [r2, #4]
   2400c:	e02c      	b.n	24068 <_ZN20complex_dynamic_type3app17h9e15cc2e31a9f57bE+0x9c>
   2400e:	9d04      	ldr	r5, [sp, #16]
   24010:	a805      	add	r0, sp, #20
   24012:	2104      	movs	r1, #4
   24014:	7001      	strb	r1, [r0, #0]
   24016:	4836      	ldr	r0, [pc, #216]	@ (240f0 <_ZN20complex_dynamic_type3app17h9e15cc2e31a9f57bE+0x124>)
   24018:	2403      	movs	r4, #3
   2401a:	2355      	movs	r3, #85	@ 0x55
   2401c:	4621      	mov	r1, r4
   2401e:	9a02      	ldr	r2, [sp, #8]
   24020:	df03      	svc	3
   24022:	2802      	cmp	r0, #2
   24024:	d10e      	bne.n	24044 <_ZN20complex_dynamic_type3app17h9e15cc2e31a9f57bE+0x78>
   24026:	2001      	movs	r0, #1
   24028:	7028      	strb	r0, [r5, #0]
   2402a:	6069      	str	r1, [r5, #4]
   2402c:	a81d      	add	r0, sp, #116	@ 0x74
   2402e:	7800      	ldrb	r0, [r0, #0]
   24030:	2802      	cmp	r0, #2
   24032:	d019      	beq.n	24068 <_ZN20complex_dynamic_type3app17h9e15cc2e31a9f57bE+0x9c>
   24034:	2803      	cmp	r0, #3
   24036:	d012      	beq.n	2405e <_ZN20complex_dynamic_type3app17h9e15cc2e31a9f57bE+0x92>
   24038:	482d      	ldr	r0, [pc, #180]	@ (240f0 <_ZN20complex_dynamic_type3app17h9e15cc2e31a9f57bE+0x124>)
   2403a:	2103      	movs	r1, #3
   2403c:	2200      	movs	r2, #0
   2403e:	4613      	mov	r3, r2
   24040:	df04      	svc	4
   24042:	e011      	b.n	24068 <_ZN20complex_dynamic_type3app17h9e15cc2e31a9f57bE+0x9c>
   24044:	a81d      	add	r0, sp, #116	@ 0x74
   24046:	7004      	strb	r4, [r0, #0]
   24048:	4829      	ldr	r0, [pc, #164]	@ (240f0 <_ZN20complex_dynamic_type3app17h9e15cc2e31a9f57bE+0x124>)
   2404a:	2107      	movs	r1, #7
   2404c:	2600      	movs	r6, #0
   2404e:	4622      	mov	r2, r4
   24050:	4633      	mov	r3, r6
   24052:	df02      	svc	2
   24054:	287f      	cmp	r0, #127	@ 0x7f
   24056:	d816      	bhi.n	24086 <_ZN20complex_dynamic_type3app17h9e15cc2e31a9f57bE+0xba>
   24058:	2001      	movs	r0, #1
   2405a:	7028      	strb	r0, [r5, #0]
   2405c:	6069      	str	r1, [r5, #4]
   2405e:	4824      	ldr	r0, [pc, #144]	@ (240f0 <_ZN20complex_dynamic_type3app17h9e15cc2e31a9f57bE+0x124>)
   24060:	2103      	movs	r1, #3
   24062:	2200      	movs	r2, #0
   24064:	4613      	mov	r3, r2
   24066:	df03      	svc	3
   24068:	a805      	add	r0, sp, #20
   2406a:	7804      	ldrb	r4, [r0, #0]
   2406c:	2c02      	cmp	r4, #2
   2406e:	d008      	beq.n	24082 <_ZN20complex_dynamic_type3app17h9e15cc2e31a9f57bE+0xb6>
   24070:	481f      	ldr	r0, [pc, #124]	@ (240f0 <_ZN20complex_dynamic_type3app17h9e15cc2e31a9f57bE+0x124>)
   24072:	2107      	movs	r1, #7
   24074:	2200      	movs	r2, #0
   24076:	4613      	mov	r3, r2
   24078:	2c03      	cmp	r4, #3
   2407a:	d101      	bne.n	24080 <_ZN20complex_dynamic_type3app17h9e15cc2e31a9f57bE+0xb4>
   2407c:	df03      	svc	3
   2407e:	e000      	b.n	24082 <_ZN20complex_dynamic_type3app17h9e15cc2e31a9f57bE+0xb6>
   24080:	df04      	svc	4
   24082:	b033      	add	sp, #204	@ 0xcc
   24084:	bdf0      	pop	{r4, r5, r6, r7, pc}
   24086:	a805      	add	r0, sp, #20
   24088:	7800      	ldrb	r0, [r0, #0]
   2408a:	2802      	cmp	r0, #2
   2408c:	d01c      	beq.n	240c8 <_ZN20complex_dynamic_type3app17h9e15cc2e31a9f57bE+0xfc>
   2408e:	2803      	cmp	r0, #3
   24090:	d105      	bne.n	2409e <_ZN20complex_dynamic_type3app17h9e15cc2e31a9f57bE+0xd2>
   24092:	4817      	ldr	r0, [pc, #92]	@ (240f0 <_ZN20complex_dynamic_type3app17h9e15cc2e31a9f57bE+0x124>)
   24094:	2107      	movs	r1, #7
   24096:	2200      	movs	r2, #0
   24098:	4613      	mov	r3, r2
   2409a:	df03      	svc	3
   2409c:	e004      	b.n	240a8 <_ZN20complex_dynamic_type3app17h9e15cc2e31a9f57bE+0xdc>
   2409e:	4814      	ldr	r0, [pc, #80]	@ (240f0 <_ZN20complex_dynamic_type3app17h9e15cc2e31a9f57bE+0x124>)
   240a0:	2107      	movs	r1, #7
   240a2:	2200      	movs	r2, #0
   240a4:	4613      	mov	r3, r2
   240a6:	df04      	svc	4
   240a8:	9901      	ldr	r1, [sp, #4]
   240aa:	a805      	add	r0, sp, #20
   240ac:	7001      	strb	r1, [r0, #0]
   240ae:	a81d      	add	r0, sp, #116	@ 0x74
   240b0:	7800      	ldrb	r0, [r0, #0]
   240b2:	2803      	cmp	r0, #3
   240b4:	d008      	beq.n	240c8 <_ZN20complex_dynamic_type3app17h9e15cc2e31a9f57bE+0xfc>
   240b6:	2802      	cmp	r0, #2
   240b8:	d10c      	bne.n	240d4 <_ZN20complex_dynamic_type3app17h9e15cc2e31a9f57bE+0x108>
   240ba:	1c68      	adds	r0, r5, #1
   240bc:	2255      	movs	r2, #85	@ 0x55
   240be:	9902      	ldr	r1, [sp, #8]
   240c0:	f006 fa5c 	bl	2a57c <__aeabi_memcpy>
   240c4:	702e      	strb	r6, [r5, #0]
   240c6:	e7dc      	b.n	24082 <_ZN20complex_dynamic_type3app17h9e15cc2e31a9f57bE+0xb6>
   240c8:	4809      	ldr	r0, [pc, #36]	@ (240f0 <_ZN20complex_dynamic_type3app17h9e15cc2e31a9f57bE+0x124>)
   240ca:	2103      	movs	r1, #3
   240cc:	2200      	movs	r2, #0
   240ce:	4613      	mov	r3, r2
   240d0:	df03      	svc	3
   240d2:	e004      	b.n	240de <_ZN20complex_dynamic_type3app17h9e15cc2e31a9f57bE+0x112>
   240d4:	4806      	ldr	r0, [pc, #24]	@ (240f0 <_ZN20complex_dynamic_type3app17h9e15cc2e31a9f57bE+0x124>)
   240d6:	2103      	movs	r1, #3
   240d8:	2200      	movs	r2, #0
   240da:	4613      	mov	r3, r2
   240dc:	df04      	svc	4
   240de:	a805      	add	r0, sp, #20
   240e0:	7804      	ldrb	r4, [r0, #0]
   240e2:	1c68      	adds	r0, r5, #1
   240e4:	2255      	movs	r2, #85	@ 0x55
   240e6:	9902      	ldr	r1, [sp, #8]
   240e8:	f006 fa48 	bl	2a57c <__aeabi_memcpy>
   240ec:	702e      	strb	r6, [r5, #0]
   240ee:	e7bd      	b.n	2406c <_ZN20complex_dynamic_type3app17h9e15cc2e31a9f57bE+0xa0>
   240f0:	0000178a 	.word	0x0000178a

000240f4 <_ZN20complex_dynamic_type3app17ha002006dd8f98a0fE>:
   240f4:	b5f0      	push	{r4, r5, r6, r7, lr}
   240f6:	af03      	add	r7, sp, #12
   240f8:	b09b      	sub	sp, #108	@ 0x6c
   240fa:	9003      	str	r0, [sp, #12]
   240fc:	a804      	add	r0, sp, #16
   240fe:	2402      	movs	r4, #2
   24100:	7004      	strb	r4, [r0, #0]
   24102:	1c46      	adds	r6, r0, #1
   24104:	2248      	movs	r2, #72	@ 0x48
   24106:	9202      	str	r2, [sp, #8]
   24108:	4630      	mov	r0, r6
   2410a:	f006 fa37 	bl	2a57c <__aeabi_memcpy>
   2410e:	ad17      	add	r5, sp, #92	@ 0x5c
   24110:	1c68      	adds	r0, r5, #1
   24112:	210f      	movs	r1, #15
   24114:	9001      	str	r0, [sp, #4]
   24116:	f006 f871 	bl	2a1fc <__aeabi_memclr>
   2411a:	9400      	str	r4, [sp, #0]
   2411c:	702c      	strb	r4, [r5, #0]
   2411e:	483f      	ldr	r0, [pc, #252]	@ (2421c <_ZN20complex_dynamic_type3app17ha002006dd8f98a0fE+0x128>)
   24120:	2108      	movs	r1, #8
   24122:	4632      	mov	r2, r6
   24124:	9b02      	ldr	r3, [sp, #8]
   24126:	df04      	svc	4
   24128:	2802      	cmp	r0, #2
   2412a:	d104      	bne.n	24136 <_ZN20complex_dynamic_type3app17ha002006dd8f98a0fE+0x42>
   2412c:	2001      	movs	r0, #1
   2412e:	9a03      	ldr	r2, [sp, #12]
   24130:	7010      	strb	r0, [r2, #0]
   24132:	6051      	str	r1, [r2, #4]
   24134:	e02d      	b.n	24192 <_ZN20complex_dynamic_type3app17ha002006dd8f98a0fE+0x9e>
   24136:	9d03      	ldr	r5, [sp, #12]
   24138:	a804      	add	r0, sp, #16
   2413a:	2104      	movs	r1, #4
   2413c:	7001      	strb	r1, [r0, #0]
   2413e:	4837      	ldr	r0, [pc, #220]	@ (2421c <_ZN20complex_dynamic_type3app17ha002006dd8f98a0fE+0x128>)
   24140:	2109      	movs	r1, #9
   24142:	230f      	movs	r3, #15
   24144:	9c01      	ldr	r4, [sp, #4]
   24146:	4622      	mov	r2, r4
   24148:	df03      	svc	3
   2414a:	2802      	cmp	r0, #2
   2414c:	d10e      	bne.n	2416c <_ZN20complex_dynamic_type3app17ha002006dd8f98a0fE+0x78>
   2414e:	2001      	movs	r0, #1
   24150:	7028      	strb	r0, [r5, #0]
   24152:	6069      	str	r1, [r5, #4]
   24154:	a817      	add	r0, sp, #92	@ 0x5c
   24156:	7800      	ldrb	r0, [r0, #0]
   24158:	2802      	cmp	r0, #2
   2415a:	d01a      	beq.n	24192 <_ZN20complex_dynamic_type3app17ha002006dd8f98a0fE+0x9e>
   2415c:	2803      	cmp	r0, #3
   2415e:	d013      	beq.n	24188 <_ZN20complex_dynamic_type3app17ha002006dd8f98a0fE+0x94>
   24160:	482e      	ldr	r0, [pc, #184]	@ (2421c <_ZN20complex_dynamic_type3app17ha002006dd8f98a0fE+0x128>)
   24162:	2109      	movs	r1, #9
   24164:	2200      	movs	r2, #0
   24166:	4613      	mov	r3, r2
   24168:	df04      	svc	4
   2416a:	e012      	b.n	24192 <_ZN20complex_dynamic_type3app17ha002006dd8f98a0fE+0x9e>
   2416c:	a817      	add	r0, sp, #92	@ 0x5c
   2416e:	2103      	movs	r1, #3
   24170:	7001      	strb	r1, [r0, #0]
   24172:	482a      	ldr	r0, [pc, #168]	@ (2421c <_ZN20complex_dynamic_type3app17ha002006dd8f98a0fE+0x128>)
   24174:	2108      	movs	r1, #8
   24176:	2209      	movs	r2, #9
   24178:	2600      	movs	r6, #0
   2417a:	4633      	mov	r3, r6
   2417c:	df02      	svc	2
   2417e:	287f      	cmp	r0, #127	@ 0x7f
   24180:	d816      	bhi.n	241b0 <_ZN20complex_dynamic_type3app17ha002006dd8f98a0fE+0xbc>
   24182:	2001      	movs	r0, #1
   24184:	7028      	strb	r0, [r5, #0]
   24186:	6069      	str	r1, [r5, #4]
   24188:	4824      	ldr	r0, [pc, #144]	@ (2421c <_ZN20complex_dynamic_type3app17ha002006dd8f98a0fE+0x128>)
   2418a:	2109      	movs	r1, #9
   2418c:	2200      	movs	r2, #0
   2418e:	4613      	mov	r3, r2
   24190:	df03      	svc	3
   24192:	a804      	add	r0, sp, #16
   24194:	7804      	ldrb	r4, [r0, #0]
   24196:	2c02      	cmp	r4, #2
   24198:	d008      	beq.n	241ac <_ZN20complex_dynamic_type3app17ha002006dd8f98a0fE+0xb8>
   2419a:	4820      	ldr	r0, [pc, #128]	@ (2421c <_ZN20complex_dynamic_type3app17ha002006dd8f98a0fE+0x128>)
   2419c:	2108      	movs	r1, #8
   2419e:	2200      	movs	r2, #0
   241a0:	4613      	mov	r3, r2
   241a2:	2c03      	cmp	r4, #3
   241a4:	d101      	bne.n	241aa <_ZN20complex_dynamic_type3app17ha002006dd8f98a0fE+0xb6>
   241a6:	df03      	svc	3
   241a8:	e000      	b.n	241ac <_ZN20complex_dynamic_type3app17ha002006dd8f98a0fE+0xb8>
   241aa:	df04      	svc	4
   241ac:	b01b      	add	sp, #108	@ 0x6c
   241ae:	bdf0      	pop	{r4, r5, r6, r7, pc}
   241b0:	a804      	add	r0, sp, #16
   241b2:	7800      	ldrb	r0, [r0, #0]
   241b4:	2802      	cmp	r0, #2
   241b6:	d01c      	beq.n	241f2 <_ZN20complex_dynamic_type3app17ha002006dd8f98a0fE+0xfe>
   241b8:	2803      	cmp	r0, #3
   241ba:	d105      	bne.n	241c8 <_ZN20complex_dynamic_type3app17ha002006dd8f98a0fE+0xd4>
   241bc:	4817      	ldr	r0, [pc, #92]	@ (2421c <_ZN20complex_dynamic_type3app17ha002006dd8f98a0fE+0x128>)
   241be:	2108      	movs	r1, #8
   241c0:	2200      	movs	r2, #0
   241c2:	4613      	mov	r3, r2
   241c4:	df03      	svc	3
   241c6:	e004      	b.n	241d2 <_ZN20complex_dynamic_type3app17ha002006dd8f98a0fE+0xde>
   241c8:	4814      	ldr	r0, [pc, #80]	@ (2421c <_ZN20complex_dynamic_type3app17ha002006dd8f98a0fE+0x128>)
   241ca:	2108      	movs	r1, #8
   241cc:	2200      	movs	r2, #0
   241ce:	4613      	mov	r3, r2
   241d0:	df04      	svc	4
   241d2:	a804      	add	r0, sp, #16
   241d4:	9900      	ldr	r1, [sp, #0]
   241d6:	7001      	strb	r1, [r0, #0]
   241d8:	a817      	add	r0, sp, #92	@ 0x5c
   241da:	7800      	ldrb	r0, [r0, #0]
   241dc:	2803      	cmp	r0, #3
   241de:	d008      	beq.n	241f2 <_ZN20complex_dynamic_type3app17ha002006dd8f98a0fE+0xfe>
   241e0:	2802      	cmp	r0, #2
   241e2:	d10c      	bne.n	241fe <_ZN20complex_dynamic_type3app17ha002006dd8f98a0fE+0x10a>
   241e4:	1c68      	adds	r0, r5, #1
   241e6:	220f      	movs	r2, #15
   241e8:	4621      	mov	r1, r4
   241ea:	f006 f9c7 	bl	2a57c <__aeabi_memcpy>
   241ee:	702e      	strb	r6, [r5, #0]
   241f0:	e7dc      	b.n	241ac <_ZN20complex_dynamic_type3app17ha002006dd8f98a0fE+0xb8>
   241f2:	480a      	ldr	r0, [pc, #40]	@ (2421c <_ZN20complex_dynamic_type3app17ha002006dd8f98a0fE+0x128>)
   241f4:	2109      	movs	r1, #9
   241f6:	2200      	movs	r2, #0
   241f8:	4613      	mov	r3, r2
   241fa:	df03      	svc	3
   241fc:	e004      	b.n	24208 <_ZN20complex_dynamic_type3app17ha002006dd8f98a0fE+0x114>
   241fe:	4807      	ldr	r0, [pc, #28]	@ (2421c <_ZN20complex_dynamic_type3app17ha002006dd8f98a0fE+0x128>)
   24200:	2109      	movs	r1, #9
   24202:	2200      	movs	r2, #0
   24204:	4613      	mov	r3, r2
   24206:	df04      	svc	4
   24208:	a804      	add	r0, sp, #16
   2420a:	7804      	ldrb	r4, [r0, #0]
   2420c:	1c68      	adds	r0, r5, #1
   2420e:	220f      	movs	r2, #15
   24210:	9901      	ldr	r1, [sp, #4]
   24212:	f006 f9b3 	bl	2a57c <__aeabi_memcpy>
   24216:	702e      	strb	r6, [r5, #0]
   24218:	e7bd      	b.n	24196 <_ZN20complex_dynamic_type3app17ha002006dd8f98a0fE+0xa2>
   2421a:	46c0      	nop			@ (mov r8, r8)
   2421c:	0000111d 	.word	0x0000111d

00024220 <_ZN20complex_dynamic_type3app17ha3d783b7efd639dbE>:
   24220:	b5f0      	push	{r4, r5, r6, r7, lr}
   24222:	af03      	add	r7, sp, #12
   24224:	b0a9      	sub	sp, #164	@ 0xa4
   24226:	9004      	str	r0, [sp, #16]
   24228:	a805      	add	r0, sp, #20
   2422a:	2402      	movs	r4, #2
   2422c:	7004      	strb	r4, [r0, #0]
   2422e:	1c46      	adds	r6, r0, #1
   24230:	2253      	movs	r2, #83	@ 0x53
   24232:	9203      	str	r2, [sp, #12]
   24234:	4630      	mov	r0, r6
   24236:	f006 f9a1 	bl	2a57c <__aeabi_memcpy>
   2423a:	ad1a      	add	r5, sp, #104	@ 0x68
   2423c:	1c68      	adds	r0, r5, #1
   2423e:	213a      	movs	r1, #58	@ 0x3a
   24240:	9002      	str	r0, [sp, #8]
   24242:	f005 ffdb 	bl	2a1fc <__aeabi_memclr>
   24246:	9401      	str	r4, [sp, #4]
   24248:	702c      	strb	r4, [r5, #0]
   2424a:	483f      	ldr	r0, [pc, #252]	@ (24348 <_ZN20complex_dynamic_type3app17ha3d783b7efd639dbE+0x128>)
   2424c:	2106      	movs	r1, #6
   2424e:	4632      	mov	r2, r6
   24250:	9b03      	ldr	r3, [sp, #12]
   24252:	df04      	svc	4
   24254:	2802      	cmp	r0, #2
   24256:	d104      	bne.n	24262 <_ZN20complex_dynamic_type3app17ha3d783b7efd639dbE+0x42>
   24258:	2001      	movs	r0, #1
   2425a:	9a04      	ldr	r2, [sp, #16]
   2425c:	7010      	strb	r0, [r2, #0]
   2425e:	6051      	str	r1, [r2, #4]
   24260:	e02d      	b.n	242be <_ZN20complex_dynamic_type3app17ha3d783b7efd639dbE+0x9e>
   24262:	9d04      	ldr	r5, [sp, #16]
   24264:	a805      	add	r0, sp, #20
   24266:	2104      	movs	r1, #4
   24268:	7001      	strb	r1, [r0, #0]
   2426a:	4837      	ldr	r0, [pc, #220]	@ (24348 <_ZN20complex_dynamic_type3app17ha3d783b7efd639dbE+0x128>)
   2426c:	2107      	movs	r1, #7
   2426e:	233a      	movs	r3, #58	@ 0x3a
   24270:	9c02      	ldr	r4, [sp, #8]
   24272:	4622      	mov	r2, r4
   24274:	df03      	svc	3
   24276:	2802      	cmp	r0, #2
   24278:	d10e      	bne.n	24298 <_ZN20complex_dynamic_type3app17ha3d783b7efd639dbE+0x78>
   2427a:	2001      	movs	r0, #1
   2427c:	7028      	strb	r0, [r5, #0]
   2427e:	6069      	str	r1, [r5, #4]
   24280:	a81a      	add	r0, sp, #104	@ 0x68
   24282:	7800      	ldrb	r0, [r0, #0]
   24284:	2802      	cmp	r0, #2
   24286:	d01a      	beq.n	242be <_ZN20complex_dynamic_type3app17ha3d783b7efd639dbE+0x9e>
   24288:	2803      	cmp	r0, #3
   2428a:	d013      	beq.n	242b4 <_ZN20complex_dynamic_type3app17ha3d783b7efd639dbE+0x94>
   2428c:	482e      	ldr	r0, [pc, #184]	@ (24348 <_ZN20complex_dynamic_type3app17ha3d783b7efd639dbE+0x128>)
   2428e:	2107      	movs	r1, #7
   24290:	2200      	movs	r2, #0
   24292:	4613      	mov	r3, r2
   24294:	df04      	svc	4
   24296:	e012      	b.n	242be <_ZN20complex_dynamic_type3app17ha3d783b7efd639dbE+0x9e>
   24298:	a81a      	add	r0, sp, #104	@ 0x68
   2429a:	2103      	movs	r1, #3
   2429c:	7001      	strb	r1, [r0, #0]
   2429e:	482a      	ldr	r0, [pc, #168]	@ (24348 <_ZN20complex_dynamic_type3app17ha3d783b7efd639dbE+0x128>)
   242a0:	2106      	movs	r1, #6
   242a2:	2207      	movs	r2, #7
   242a4:	2600      	movs	r6, #0
   242a6:	4633      	mov	r3, r6
   242a8:	df02      	svc	2
   242aa:	287f      	cmp	r0, #127	@ 0x7f
   242ac:	d816      	bhi.n	242dc <_ZN20complex_dynamic_type3app17ha3d783b7efd639dbE+0xbc>
   242ae:	2001      	movs	r0, #1
   242b0:	7028      	strb	r0, [r5, #0]
   242b2:	6069      	str	r1, [r5, #4]
   242b4:	4824      	ldr	r0, [pc, #144]	@ (24348 <_ZN20complex_dynamic_type3app17ha3d783b7efd639dbE+0x128>)
   242b6:	2107      	movs	r1, #7
   242b8:	2200      	movs	r2, #0
   242ba:	4613      	mov	r3, r2
   242bc:	df03      	svc	3
   242be:	a805      	add	r0, sp, #20
   242c0:	7804      	ldrb	r4, [r0, #0]
   242c2:	2c02      	cmp	r4, #2
   242c4:	d008      	beq.n	242d8 <_ZN20complex_dynamic_type3app17ha3d783b7efd639dbE+0xb8>
   242c6:	4820      	ldr	r0, [pc, #128]	@ (24348 <_ZN20complex_dynamic_type3app17ha3d783b7efd639dbE+0x128>)
   242c8:	2106      	movs	r1, #6
   242ca:	2200      	movs	r2, #0
   242cc:	4613      	mov	r3, r2
   242ce:	2c03      	cmp	r4, #3
   242d0:	d101      	bne.n	242d6 <_ZN20complex_dynamic_type3app17ha3d783b7efd639dbE+0xb6>
   242d2:	df03      	svc	3
   242d4:	e000      	b.n	242d8 <_ZN20complex_dynamic_type3app17ha3d783b7efd639dbE+0xb8>
   242d6:	df04      	svc	4
   242d8:	b029      	add	sp, #164	@ 0xa4
   242da:	bdf0      	pop	{r4, r5, r6, r7, pc}
   242dc:	a805      	add	r0, sp, #20
   242de:	7800      	ldrb	r0, [r0, #0]
   242e0:	2802      	cmp	r0, #2
   242e2:	d01c      	beq.n	2431e <_ZN20complex_dynamic_type3app17ha3d783b7efd639dbE+0xfe>
   242e4:	2803      	cmp	r0, #3
   242e6:	d105      	bne.n	242f4 <_ZN20complex_dynamic_type3app17ha3d783b7efd639dbE+0xd4>
   242e8:	4817      	ldr	r0, [pc, #92]	@ (24348 <_ZN20complex_dynamic_type3app17ha3d783b7efd639dbE+0x128>)
   242ea:	2106      	movs	r1, #6
   242ec:	2200      	movs	r2, #0
   242ee:	4613      	mov	r3, r2
   242f0:	df03      	svc	3
   242f2:	e004      	b.n	242fe <_ZN20complex_dynamic_type3app17ha3d783b7efd639dbE+0xde>
   242f4:	4814      	ldr	r0, [pc, #80]	@ (24348 <_ZN20complex_dynamic_type3app17ha3d783b7efd639dbE+0x128>)
   242f6:	2106      	movs	r1, #6
   242f8:	2200      	movs	r2, #0
   242fa:	4613      	mov	r3, r2
   242fc:	df04      	svc	4
   242fe:	a805      	add	r0, sp, #20
   24300:	9901      	ldr	r1, [sp, #4]
   24302:	7001      	strb	r1, [r0, #0]
   24304:	a81a      	add	r0, sp, #104	@ 0x68
   24306:	7800      	ldrb	r0, [r0, #0]
   24308:	2803      	cmp	r0, #3
   2430a:	d008      	beq.n	2431e <_ZN20complex_dynamic_type3app17ha3d783b7efd639dbE+0xfe>
   2430c:	2802      	cmp	r0, #2
   2430e:	d10c      	bne.n	2432a <_ZN20complex_dynamic_type3app17ha3d783b7efd639dbE+0x10a>
   24310:	1c68      	adds	r0, r5, #1
   24312:	223a      	movs	r2, #58	@ 0x3a
   24314:	4621      	mov	r1, r4
   24316:	f006 f931 	bl	2a57c <__aeabi_memcpy>
   2431a:	702e      	strb	r6, [r5, #0]
   2431c:	e7dc      	b.n	242d8 <_ZN20complex_dynamic_type3app17ha3d783b7efd639dbE+0xb8>
   2431e:	480a      	ldr	r0, [pc, #40]	@ (24348 <_ZN20complex_dynamic_type3app17ha3d783b7efd639dbE+0x128>)
   24320:	2107      	movs	r1, #7
   24322:	2200      	movs	r2, #0
   24324:	4613      	mov	r3, r2
   24326:	df03      	svc	3
   24328:	e004      	b.n	24334 <_ZN20complex_dynamic_type3app17ha3d783b7efd639dbE+0x114>
   2432a:	4807      	ldr	r0, [pc, #28]	@ (24348 <_ZN20complex_dynamic_type3app17ha3d783b7efd639dbE+0x128>)
   2432c:	2107      	movs	r1, #7
   2432e:	2200      	movs	r2, #0
   24330:	4613      	mov	r3, r2
   24332:	df04      	svc	4
   24334:	a805      	add	r0, sp, #20
   24336:	7804      	ldrb	r4, [r0, #0]
   24338:	1c68      	adds	r0, r5, #1
   2433a:	223a      	movs	r2, #58	@ 0x3a
   2433c:	9902      	ldr	r1, [sp, #8]
   2433e:	f006 f91d 	bl	2a57c <__aeabi_memcpy>
   24342:	702e      	strb	r6, [r5, #0]
   24344:	e7bd      	b.n	242c2 <_ZN20complex_dynamic_type3app17ha3d783b7efd639dbE+0xa2>
   24346:	46c0      	nop			@ (mov r8, r8)
   24348:	00002645 	.word	0x00002645

0002434c <_ZN20complex_dynamic_type3app17ha3f99b68b1837e9eE>:
   2434c:	b5f0      	push	{r4, r5, r6, r7, lr}
   2434e:	af03      	add	r7, sp, #12
   24350:	b09f      	sub	sp, #124	@ 0x7c
   24352:	9003      	str	r0, [sp, #12]
   24354:	ae04      	add	r6, sp, #16
   24356:	2502      	movs	r5, #2
   24358:	7035      	strb	r5, [r6, #0]
   2435a:	1c70      	adds	r0, r6, #1
   2435c:	222e      	movs	r2, #46	@ 0x2e
   2435e:	9202      	str	r2, [sp, #8]
   24360:	f006 f90c 	bl	2a57c <__aeabi_memcpy>
   24364:	ac10      	add	r4, sp, #64	@ 0x40
   24366:	1c60      	adds	r0, r4, #1
   24368:	2138      	movs	r1, #56	@ 0x38
   2436a:	9001      	str	r0, [sp, #4]
   2436c:	f005 ff46 	bl	2a1fc <__aeabi_memclr>
   24370:	7025      	strb	r5, [r4, #0]
   24372:	2204      	movs	r2, #4
   24374:	4630      	mov	r0, r6
   24376:	9902      	ldr	r1, [sp, #8]
   24378:	f7fb ff2c 	bl	201d4 <_ZN9allow_pin12dynamic_type23Buffer$LT$B$C$_$C$_$GT$5allow17h6d6d223bc8265b67E>
   2437c:	07c0      	lsls	r0, r0, #31
   2437e:	d10e      	bne.n	2439e <_ZN20complex_dynamic_type3app17ha3f99b68b1837e9eE+0x52>
   24380:	a810      	add	r0, sp, #64	@ 0x40
   24382:	2138      	movs	r1, #56	@ 0x38
   24384:	2203      	movs	r2, #3
   24386:	f7fb ff25 	bl	201d4 <_ZN9allow_pin12dynamic_type23Buffer$LT$B$C$_$C$_$GT$5allow17h6d6d223bc8265b67E>
   2438a:	07c0      	lsls	r0, r0, #31
   2438c:	d107      	bne.n	2439e <_ZN20complex_dynamic_type3app17ha3f99b68b1837e9eE+0x52>
   2438e:	4831      	ldr	r0, [pc, #196]	@ (24454 <_ZN20complex_dynamic_type3app17ha3f99b68b1837e9eE+0x108>)
   24390:	2109      	movs	r1, #9
   24392:	2600      	movs	r6, #0
   24394:	460a      	mov	r2, r1
   24396:	4633      	mov	r3, r6
   24398:	df02      	svc	2
   2439a:	287f      	cmp	r0, #127	@ 0x7f
   2439c:	d823      	bhi.n	243e6 <_ZN20complex_dynamic_type3app17ha3f99b68b1837e9eE+0x9a>
   2439e:	2001      	movs	r0, #1
   243a0:	9a03      	ldr	r2, [sp, #12]
   243a2:	7010      	strb	r0, [r2, #0]
   243a4:	6051      	str	r1, [r2, #4]
   243a6:	a810      	add	r0, sp, #64	@ 0x40
   243a8:	7800      	ldrb	r0, [r0, #0]
   243aa:	2802      	cmp	r0, #2
   243ac:	d00c      	beq.n	243c8 <_ZN20complex_dynamic_type3app17ha3f99b68b1837e9eE+0x7c>
   243ae:	2803      	cmp	r0, #3
   243b0:	d105      	bne.n	243be <_ZN20complex_dynamic_type3app17ha3f99b68b1837e9eE+0x72>
   243b2:	4828      	ldr	r0, [pc, #160]	@ (24454 <_ZN20complex_dynamic_type3app17ha3f99b68b1837e9eE+0x108>)
   243b4:	2109      	movs	r1, #9
   243b6:	2200      	movs	r2, #0
   243b8:	4613      	mov	r3, r2
   243ba:	df03      	svc	3
   243bc:	e004      	b.n	243c8 <_ZN20complex_dynamic_type3app17ha3f99b68b1837e9eE+0x7c>
   243be:	4825      	ldr	r0, [pc, #148]	@ (24454 <_ZN20complex_dynamic_type3app17ha3f99b68b1837e9eE+0x108>)
   243c0:	2109      	movs	r1, #9
   243c2:	2200      	movs	r2, #0
   243c4:	4613      	mov	r3, r2
   243c6:	df04      	svc	4
   243c8:	a804      	add	r0, sp, #16
   243ca:	7804      	ldrb	r4, [r0, #0]
   243cc:	2c02      	cmp	r4, #2
   243ce:	d008      	beq.n	243e2 <_ZN20complex_dynamic_type3app17ha3f99b68b1837e9eE+0x96>
   243d0:	4820      	ldr	r0, [pc, #128]	@ (24454 <_ZN20complex_dynamic_type3app17ha3f99b68b1837e9eE+0x108>)
   243d2:	2109      	movs	r1, #9
   243d4:	2200      	movs	r2, #0
   243d6:	4613      	mov	r3, r2
   243d8:	2c03      	cmp	r4, #3
   243da:	d101      	bne.n	243e0 <_ZN20complex_dynamic_type3app17ha3f99b68b1837e9eE+0x94>
   243dc:	df03      	svc	3
   243de:	e000      	b.n	243e2 <_ZN20complex_dynamic_type3app17ha3f99b68b1837e9eE+0x96>
   243e0:	df04      	svc	4
   243e2:	b01f      	add	sp, #124	@ 0x7c
   243e4:	bdf0      	pop	{r4, r5, r6, r7, pc}
   243e6:	a804      	add	r0, sp, #16
   243e8:	7800      	ldrb	r0, [r0, #0]
   243ea:	2802      	cmp	r0, #2
   243ec:	d00c      	beq.n	24408 <_ZN20complex_dynamic_type3app17ha3f99b68b1837e9eE+0xbc>
   243ee:	2803      	cmp	r0, #3
   243f0:	d105      	bne.n	243fe <_ZN20complex_dynamic_type3app17ha3f99b68b1837e9eE+0xb2>
   243f2:	4818      	ldr	r0, [pc, #96]	@ (24454 <_ZN20complex_dynamic_type3app17ha3f99b68b1837e9eE+0x108>)
   243f4:	2109      	movs	r1, #9
   243f6:	2200      	movs	r2, #0
   243f8:	4613      	mov	r3, r2
   243fa:	df03      	svc	3
   243fc:	e004      	b.n	24408 <_ZN20complex_dynamic_type3app17ha3f99b68b1837e9eE+0xbc>
   243fe:	4815      	ldr	r0, [pc, #84]	@ (24454 <_ZN20complex_dynamic_type3app17ha3f99b68b1837e9eE+0x108>)
   24400:	2109      	movs	r1, #9
   24402:	2200      	movs	r2, #0
   24404:	4613      	mov	r3, r2
   24406:	df04      	svc	4
   24408:	a804      	add	r0, sp, #16
   2440a:	7005      	strb	r5, [r0, #0]
   2440c:	a810      	add	r0, sp, #64	@ 0x40
   2440e:	7800      	ldrb	r0, [r0, #0]
   24410:	2803      	cmp	r0, #3
   24412:	d009      	beq.n	24428 <_ZN20complex_dynamic_type3app17ha3f99b68b1837e9eE+0xdc>
   24414:	2802      	cmp	r0, #2
   24416:	d10d      	bne.n	24434 <_ZN20complex_dynamic_type3app17ha3f99b68b1837e9eE+0xe8>
   24418:	9c03      	ldr	r4, [sp, #12]
   2441a:	1c60      	adds	r0, r4, #1
   2441c:	2238      	movs	r2, #56	@ 0x38
   2441e:	9901      	ldr	r1, [sp, #4]
   24420:	f006 f8ac 	bl	2a57c <__aeabi_memcpy>
   24424:	7026      	strb	r6, [r4, #0]
   24426:	e7dc      	b.n	243e2 <_ZN20complex_dynamic_type3app17ha3f99b68b1837e9eE+0x96>
   24428:	480a      	ldr	r0, [pc, #40]	@ (24454 <_ZN20complex_dynamic_type3app17ha3f99b68b1837e9eE+0x108>)
   2442a:	2109      	movs	r1, #9
   2442c:	2200      	movs	r2, #0
   2442e:	4613      	mov	r3, r2
   24430:	df03      	svc	3
   24432:	e004      	b.n	2443e <_ZN20complex_dynamic_type3app17ha3f99b68b1837e9eE+0xf2>
   24434:	4807      	ldr	r0, [pc, #28]	@ (24454 <_ZN20complex_dynamic_type3app17ha3f99b68b1837e9eE+0x108>)
   24436:	2109      	movs	r1, #9
   24438:	2200      	movs	r2, #0
   2443a:	4613      	mov	r3, r2
   2443c:	df04      	svc	4
   2443e:	a804      	add	r0, sp, #16
   24440:	7804      	ldrb	r4, [r0, #0]
   24442:	9d03      	ldr	r5, [sp, #12]
   24444:	1c68      	adds	r0, r5, #1
   24446:	2238      	movs	r2, #56	@ 0x38
   24448:	9901      	ldr	r1, [sp, #4]
   2444a:	f006 f897 	bl	2a57c <__aeabi_memcpy>
   2444e:	702e      	strb	r6, [r5, #0]
   24450:	e7bc      	b.n	243cc <_ZN20complex_dynamic_type3app17ha3f99b68b1837e9eE+0x80>
   24452:	46c0      	nop			@ (mov r8, r8)
   24454:	00000a9d 	.word	0x00000a9d

00024458 <_ZN20complex_dynamic_type3app17ha4473be7e380ae01E>:
   24458:	b5f0      	push	{r4, r5, r6, r7, lr}
   2445a:	af03      	add	r7, sp, #12
   2445c:	b09f      	sub	sp, #124	@ 0x7c
   2445e:	9004      	str	r0, [sp, #16]
   24460:	a805      	add	r0, sp, #20
   24462:	2402      	movs	r4, #2
   24464:	7004      	strb	r4, [r0, #0]
   24466:	1c40      	adds	r0, r0, #1
   24468:	9003      	str	r0, [sp, #12]
   2446a:	2532      	movs	r5, #50	@ 0x32
   2446c:	462a      	mov	r2, r5
   2446e:	f006 f885 	bl	2a57c <__aeabi_memcpy>
   24472:	ae12      	add	r6, sp, #72	@ 0x48
   24474:	1c70      	adds	r0, r6, #1
   24476:	9002      	str	r0, [sp, #8]
   24478:	4629      	mov	r1, r5
   2447a:	f005 febf 	bl	2a1fc <__aeabi_memclr>
   2447e:	9401      	str	r4, [sp, #4]
   24480:	7034      	strb	r4, [r6, #0]
   24482:	4840      	ldr	r0, [pc, #256]	@ (24584 <_ZN20complex_dynamic_type3app17ha4473be7e380ae01E+0x12c>)
   24484:	2603      	movs	r6, #3
   24486:	4631      	mov	r1, r6
   24488:	9a03      	ldr	r2, [sp, #12]
   2448a:	462b      	mov	r3, r5
   2448c:	df04      	svc	4
   2448e:	2802      	cmp	r0, #2
   24490:	d104      	bne.n	2449c <_ZN20complex_dynamic_type3app17ha4473be7e380ae01E+0x44>
   24492:	2001      	movs	r0, #1
   24494:	9a04      	ldr	r2, [sp, #16]
   24496:	7010      	strb	r0, [r2, #0]
   24498:	6051      	str	r1, [r2, #4]
   2449a:	e02b      	b.n	244f4 <_ZN20complex_dynamic_type3app17ha4473be7e380ae01E+0x9c>
   2449c:	9d04      	ldr	r5, [sp, #16]
   2449e:	a805      	add	r0, sp, #20
   244a0:	2104      	movs	r1, #4
   244a2:	7001      	strb	r1, [r0, #0]
   244a4:	4837      	ldr	r0, [pc, #220]	@ (24584 <_ZN20complex_dynamic_type3app17ha4473be7e380ae01E+0x12c>)
   244a6:	2401      	movs	r4, #1
   244a8:	2332      	movs	r3, #50	@ 0x32
   244aa:	4621      	mov	r1, r4
   244ac:	9a02      	ldr	r2, [sp, #8]
   244ae:	df03      	svc	3
   244b0:	2802      	cmp	r0, #2
   244b2:	d10d      	bne.n	244d0 <_ZN20complex_dynamic_type3app17ha4473be7e380ae01E+0x78>
   244b4:	702c      	strb	r4, [r5, #0]
   244b6:	6069      	str	r1, [r5, #4]
   244b8:	a812      	add	r0, sp, #72	@ 0x48
   244ba:	7800      	ldrb	r0, [r0, #0]
   244bc:	2802      	cmp	r0, #2
   244be:	d019      	beq.n	244f4 <_ZN20complex_dynamic_type3app17ha4473be7e380ae01E+0x9c>
   244c0:	2803      	cmp	r0, #3
   244c2:	d012      	beq.n	244ea <_ZN20complex_dynamic_type3app17ha4473be7e380ae01E+0x92>
   244c4:	482f      	ldr	r0, [pc, #188]	@ (24584 <_ZN20complex_dynamic_type3app17ha4473be7e380ae01E+0x12c>)
   244c6:	2101      	movs	r1, #1
   244c8:	2200      	movs	r2, #0
   244ca:	4613      	mov	r3, r2
   244cc:	df04      	svc	4
   244ce:	e011      	b.n	244f4 <_ZN20complex_dynamic_type3app17ha4473be7e380ae01E+0x9c>
   244d0:	a812      	add	r0, sp, #72	@ 0x48
   244d2:	7006      	strb	r6, [r0, #0]
   244d4:	482b      	ldr	r0, [pc, #172]	@ (24584 <_ZN20complex_dynamic_type3app17ha4473be7e380ae01E+0x12c>)
   244d6:	2401      	movs	r4, #1
   244d8:	2300      	movs	r3, #0
   244da:	4631      	mov	r1, r6
   244dc:	4622      	mov	r2, r4
   244de:	9303      	str	r3, [sp, #12]
   244e0:	df02      	svc	2
   244e2:	287f      	cmp	r0, #127	@ 0x7f
   244e4:	d815      	bhi.n	24512 <_ZN20complex_dynamic_type3app17ha4473be7e380ae01E+0xba>
   244e6:	702c      	strb	r4, [r5, #0]
   244e8:	6069      	str	r1, [r5, #4]
   244ea:	4826      	ldr	r0, [pc, #152]	@ (24584 <_ZN20complex_dynamic_type3app17ha4473be7e380ae01E+0x12c>)
   244ec:	2101      	movs	r1, #1
   244ee:	2200      	movs	r2, #0
   244f0:	4613      	mov	r3, r2
   244f2:	df03      	svc	3
   244f4:	a805      	add	r0, sp, #20
   244f6:	7804      	ldrb	r4, [r0, #0]
   244f8:	2c02      	cmp	r4, #2
   244fa:	d008      	beq.n	2450e <_ZN20complex_dynamic_type3app17ha4473be7e380ae01E+0xb6>
   244fc:	4821      	ldr	r0, [pc, #132]	@ (24584 <_ZN20complex_dynamic_type3app17ha4473be7e380ae01E+0x12c>)
   244fe:	2103      	movs	r1, #3
   24500:	2200      	movs	r2, #0
   24502:	4613      	mov	r3, r2
   24504:	2c03      	cmp	r4, #3
   24506:	d101      	bne.n	2450c <_ZN20complex_dynamic_type3app17ha4473be7e380ae01E+0xb4>
   24508:	df03      	svc	3
   2450a:	e000      	b.n	2450e <_ZN20complex_dynamic_type3app17ha4473be7e380ae01E+0xb6>
   2450c:	df04      	svc	4
   2450e:	b01f      	add	sp, #124	@ 0x7c
   24510:	bdf0      	pop	{r4, r5, r6, r7, pc}
   24512:	a805      	add	r0, sp, #20
   24514:	7800      	ldrb	r0, [r0, #0]
   24516:	2802      	cmp	r0, #2
   24518:	9e02      	ldr	r6, [sp, #8]
   2451a:	d01d      	beq.n	24558 <_ZN20complex_dynamic_type3app17ha4473be7e380ae01E+0x100>
   2451c:	2803      	cmp	r0, #3
   2451e:	d105      	bne.n	2452c <_ZN20complex_dynamic_type3app17ha4473be7e380ae01E+0xd4>
   24520:	4818      	ldr	r0, [pc, #96]	@ (24584 <_ZN20complex_dynamic_type3app17ha4473be7e380ae01E+0x12c>)
   24522:	2103      	movs	r1, #3
   24524:	2200      	movs	r2, #0
   24526:	4613      	mov	r3, r2
   24528:	df03      	svc	3
   2452a:	e004      	b.n	24536 <_ZN20complex_dynamic_type3app17ha4473be7e380ae01E+0xde>
   2452c:	4815      	ldr	r0, [pc, #84]	@ (24584 <_ZN20complex_dynamic_type3app17ha4473be7e380ae01E+0x12c>)
   2452e:	2103      	movs	r1, #3
   24530:	2200      	movs	r2, #0
   24532:	4613      	mov	r3, r2
   24534:	df04      	svc	4
   24536:	9901      	ldr	r1, [sp, #4]
   24538:	a805      	add	r0, sp, #20
   2453a:	7001      	strb	r1, [r0, #0]
   2453c:	a812      	add	r0, sp, #72	@ 0x48
   2453e:	7800      	ldrb	r0, [r0, #0]
   24540:	2803      	cmp	r0, #3
   24542:	d009      	beq.n	24558 <_ZN20complex_dynamic_type3app17ha4473be7e380ae01E+0x100>
   24544:	2802      	cmp	r0, #2
   24546:	d10d      	bne.n	24564 <_ZN20complex_dynamic_type3app17ha4473be7e380ae01E+0x10c>
   24548:	1c68      	adds	r0, r5, #1
   2454a:	2232      	movs	r2, #50	@ 0x32
   2454c:	4631      	mov	r1, r6
   2454e:	f006 f815 	bl	2a57c <__aeabi_memcpy>
   24552:	9803      	ldr	r0, [sp, #12]
   24554:	7028      	strb	r0, [r5, #0]
   24556:	e7da      	b.n	2450e <_ZN20complex_dynamic_type3app17ha4473be7e380ae01E+0xb6>
   24558:	480a      	ldr	r0, [pc, #40]	@ (24584 <_ZN20complex_dynamic_type3app17ha4473be7e380ae01E+0x12c>)
   2455a:	2101      	movs	r1, #1
   2455c:	2200      	movs	r2, #0
   2455e:	4613      	mov	r3, r2
   24560:	df03      	svc	3
   24562:	e004      	b.n	2456e <_ZN20complex_dynamic_type3app17ha4473be7e380ae01E+0x116>
   24564:	4807      	ldr	r0, [pc, #28]	@ (24584 <_ZN20complex_dynamic_type3app17ha4473be7e380ae01E+0x12c>)
   24566:	2101      	movs	r1, #1
   24568:	2200      	movs	r2, #0
   2456a:	4613      	mov	r3, r2
   2456c:	df04      	svc	4
   2456e:	a805      	add	r0, sp, #20
   24570:	7804      	ldrb	r4, [r0, #0]
   24572:	1c68      	adds	r0, r5, #1
   24574:	2232      	movs	r2, #50	@ 0x32
   24576:	4631      	mov	r1, r6
   24578:	f006 f800 	bl	2a57c <__aeabi_memcpy>
   2457c:	9803      	ldr	r0, [sp, #12]
   2457e:	7028      	strb	r0, [r5, #0]
   24580:	e7ba      	b.n	244f8 <_ZN20complex_dynamic_type3app17ha4473be7e380ae01E+0xa0>
   24582:	46c0      	nop			@ (mov r8, r8)
   24584:	00001f07 	.word	0x00001f07

00024588 <_ZN20complex_dynamic_type3app17ha6e4c8ffb12abcfdE>:
   24588:	b5f0      	push	{r4, r5, r6, r7, lr}
   2458a:	af03      	add	r7, sp, #12
   2458c:	b097      	sub	sp, #92	@ 0x5c
   2458e:	9004      	str	r0, [sp, #16]
   24590:	a805      	add	r0, sp, #20
   24592:	2402      	movs	r4, #2
   24594:	7004      	strb	r4, [r0, #0]
   24596:	1c46      	adds	r6, r0, #1
   24598:	2236      	movs	r2, #54	@ 0x36
   2459a:	9203      	str	r2, [sp, #12]
   2459c:	4630      	mov	r0, r6
   2459e:	f005 ffed 	bl	2a57c <__aeabi_memcpy>
   245a2:	ad13      	add	r5, sp, #76	@ 0x4c
   245a4:	1c68      	adds	r0, r5, #1
   245a6:	210f      	movs	r1, #15
   245a8:	9002      	str	r0, [sp, #8]
   245aa:	f005 fe27 	bl	2a1fc <__aeabi_memclr>
   245ae:	9401      	str	r4, [sp, #4]
   245b0:	702c      	strb	r4, [r5, #0]
   245b2:	483e      	ldr	r0, [pc, #248]	@ (246ac <_ZN20complex_dynamic_type3app17ha6e4c8ffb12abcfdE+0x124>)
   245b4:	2105      	movs	r1, #5
   245b6:	4632      	mov	r2, r6
   245b8:	9b03      	ldr	r3, [sp, #12]
   245ba:	df04      	svc	4
   245bc:	2802      	cmp	r0, #2
   245be:	d104      	bne.n	245ca <_ZN20complex_dynamic_type3app17ha6e4c8ffb12abcfdE+0x42>
   245c0:	2001      	movs	r0, #1
   245c2:	9a04      	ldr	r2, [sp, #16]
   245c4:	7010      	strb	r0, [r2, #0]
   245c6:	6051      	str	r1, [r2, #4]
   245c8:	e02c      	b.n	24624 <_ZN20complex_dynamic_type3app17ha6e4c8ffb12abcfdE+0x9c>
   245ca:	9d04      	ldr	r5, [sp, #16]
   245cc:	a805      	add	r0, sp, #20
   245ce:	2104      	movs	r1, #4
   245d0:	7001      	strb	r1, [r0, #0]
   245d2:	4836      	ldr	r0, [pc, #216]	@ (246ac <_ZN20complex_dynamic_type3app17ha6e4c8ffb12abcfdE+0x124>)
   245d4:	2403      	movs	r4, #3
   245d6:	230f      	movs	r3, #15
   245d8:	4621      	mov	r1, r4
   245da:	9a02      	ldr	r2, [sp, #8]
   245dc:	df03      	svc	3
   245de:	2802      	cmp	r0, #2
   245e0:	d10e      	bne.n	24600 <_ZN20complex_dynamic_type3app17ha6e4c8ffb12abcfdE+0x78>
   245e2:	2001      	movs	r0, #1
   245e4:	7028      	strb	r0, [r5, #0]
   245e6:	6069      	str	r1, [r5, #4]
   245e8:	a813      	add	r0, sp, #76	@ 0x4c
   245ea:	7800      	ldrb	r0, [r0, #0]
   245ec:	2802      	cmp	r0, #2
   245ee:	d019      	beq.n	24624 <_ZN20complex_dynamic_type3app17ha6e4c8ffb12abcfdE+0x9c>
   245f0:	2803      	cmp	r0, #3
   245f2:	d012      	beq.n	2461a <_ZN20complex_dynamic_type3app17ha6e4c8ffb12abcfdE+0x92>
   245f4:	482d      	ldr	r0, [pc, #180]	@ (246ac <_ZN20complex_dynamic_type3app17ha6e4c8ffb12abcfdE+0x124>)
   245f6:	2103      	movs	r1, #3
   245f8:	2200      	movs	r2, #0
   245fa:	4613      	mov	r3, r2
   245fc:	df04      	svc	4
   245fe:	e011      	b.n	24624 <_ZN20complex_dynamic_type3app17ha6e4c8ffb12abcfdE+0x9c>
   24600:	a813      	add	r0, sp, #76	@ 0x4c
   24602:	7004      	strb	r4, [r0, #0]
   24604:	4829      	ldr	r0, [pc, #164]	@ (246ac <_ZN20complex_dynamic_type3app17ha6e4c8ffb12abcfdE+0x124>)
   24606:	2105      	movs	r1, #5
   24608:	2600      	movs	r6, #0
   2460a:	4622      	mov	r2, r4
   2460c:	4633      	mov	r3, r6
   2460e:	df02      	svc	2
   24610:	287f      	cmp	r0, #127	@ 0x7f
   24612:	d816      	bhi.n	24642 <_ZN20complex_dynamic_type3app17ha6e4c8ffb12abcfdE+0xba>
   24614:	2001      	movs	r0, #1
   24616:	7028      	strb	r0, [r5, #0]
   24618:	6069      	str	r1, [r5, #4]
   2461a:	4824      	ldr	r0, [pc, #144]	@ (246ac <_ZN20complex_dynamic_type3app17ha6e4c8ffb12abcfdE+0x124>)
   2461c:	2103      	movs	r1, #3
   2461e:	2200      	movs	r2, #0
   24620:	4613      	mov	r3, r2
   24622:	df03      	svc	3
   24624:	a805      	add	r0, sp, #20
   24626:	7804      	ldrb	r4, [r0, #0]
   24628:	2c02      	cmp	r4, #2
   2462a:	d008      	beq.n	2463e <_ZN20complex_dynamic_type3app17ha6e4c8ffb12abcfdE+0xb6>
   2462c:	481f      	ldr	r0, [pc, #124]	@ (246ac <_ZN20complex_dynamic_type3app17ha6e4c8ffb12abcfdE+0x124>)
   2462e:	2105      	movs	r1, #5
   24630:	2200      	movs	r2, #0
   24632:	4613      	mov	r3, r2
   24634:	2c03      	cmp	r4, #3
   24636:	d101      	bne.n	2463c <_ZN20complex_dynamic_type3app17ha6e4c8ffb12abcfdE+0xb4>
   24638:	df03      	svc	3
   2463a:	e000      	b.n	2463e <_ZN20complex_dynamic_type3app17ha6e4c8ffb12abcfdE+0xb6>
   2463c:	df04      	svc	4
   2463e:	b017      	add	sp, #92	@ 0x5c
   24640:	bdf0      	pop	{r4, r5, r6, r7, pc}
   24642:	a805      	add	r0, sp, #20
   24644:	7800      	ldrb	r0, [r0, #0]
   24646:	2802      	cmp	r0, #2
   24648:	d01c      	beq.n	24684 <_ZN20complex_dynamic_type3app17ha6e4c8ffb12abcfdE+0xfc>
   2464a:	2803      	cmp	r0, #3
   2464c:	d105      	bne.n	2465a <_ZN20complex_dynamic_type3app17ha6e4c8ffb12abcfdE+0xd2>
   2464e:	4817      	ldr	r0, [pc, #92]	@ (246ac <_ZN20complex_dynamic_type3app17ha6e4c8ffb12abcfdE+0x124>)
   24650:	2105      	movs	r1, #5
   24652:	2200      	movs	r2, #0
   24654:	4613      	mov	r3, r2
   24656:	df03      	svc	3
   24658:	e004      	b.n	24664 <_ZN20complex_dynamic_type3app17ha6e4c8ffb12abcfdE+0xdc>
   2465a:	4814      	ldr	r0, [pc, #80]	@ (246ac <_ZN20complex_dynamic_type3app17ha6e4c8ffb12abcfdE+0x124>)
   2465c:	2105      	movs	r1, #5
   2465e:	2200      	movs	r2, #0
   24660:	4613      	mov	r3, r2
   24662:	df04      	svc	4
   24664:	9901      	ldr	r1, [sp, #4]
   24666:	a805      	add	r0, sp, #20
   24668:	7001      	strb	r1, [r0, #0]
   2466a:	a813      	add	r0, sp, #76	@ 0x4c
   2466c:	7800      	ldrb	r0, [r0, #0]
   2466e:	2803      	cmp	r0, #3
   24670:	d008      	beq.n	24684 <_ZN20complex_dynamic_type3app17ha6e4c8ffb12abcfdE+0xfc>
   24672:	2802      	cmp	r0, #2
   24674:	d10c      	bne.n	24690 <_ZN20complex_dynamic_type3app17ha6e4c8ffb12abcfdE+0x108>
   24676:	1c68      	adds	r0, r5, #1
   24678:	220f      	movs	r2, #15
   2467a:	9902      	ldr	r1, [sp, #8]
   2467c:	f005 ff7e 	bl	2a57c <__aeabi_memcpy>
   24680:	702e      	strb	r6, [r5, #0]
   24682:	e7dc      	b.n	2463e <_ZN20complex_dynamic_type3app17ha6e4c8ffb12abcfdE+0xb6>
   24684:	4809      	ldr	r0, [pc, #36]	@ (246ac <_ZN20complex_dynamic_type3app17ha6e4c8ffb12abcfdE+0x124>)
   24686:	2103      	movs	r1, #3
   24688:	2200      	movs	r2, #0
   2468a:	4613      	mov	r3, r2
   2468c:	df03      	svc	3
   2468e:	e004      	b.n	2469a <_ZN20complex_dynamic_type3app17ha6e4c8ffb12abcfdE+0x112>
   24690:	4806      	ldr	r0, [pc, #24]	@ (246ac <_ZN20complex_dynamic_type3app17ha6e4c8ffb12abcfdE+0x124>)
   24692:	2103      	movs	r1, #3
   24694:	2200      	movs	r2, #0
   24696:	4613      	mov	r3, r2
   24698:	df04      	svc	4
   2469a:	a805      	add	r0, sp, #20
   2469c:	7804      	ldrb	r4, [r0, #0]
   2469e:	1c68      	adds	r0, r5, #1
   246a0:	220f      	movs	r2, #15
   246a2:	9902      	ldr	r1, [sp, #8]
   246a4:	f005 ff6a 	bl	2a57c <__aeabi_memcpy>
   246a8:	702e      	strb	r6, [r5, #0]
   246aa:	e7bd      	b.n	24628 <_ZN20complex_dynamic_type3app17ha6e4c8ffb12abcfdE+0xa0>
   246ac:	00000653 	.word	0x00000653

000246b0 <_ZN20complex_dynamic_type3app17ha7b1df6c8b28b697E>:
   246b0:	b5f0      	push	{r4, r5, r6, r7, lr}
   246b2:	af03      	add	r7, sp, #12
   246b4:	b091      	sub	sp, #68	@ 0x44
   246b6:	9002      	str	r0, [sp, #8]
   246b8:	a803      	add	r0, sp, #12
   246ba:	2502      	movs	r5, #2
   246bc:	7005      	strb	r5, [r0, #0]
   246be:	1c46      	adds	r6, r0, #1
   246c0:	221a      	movs	r2, #26
   246c2:	9201      	str	r2, [sp, #4]
   246c4:	4630      	mov	r0, r6
   246c6:	f005 ff59 	bl	2a57c <__aeabi_memcpy>
   246ca:	ac0a      	add	r4, sp, #40	@ 0x28
   246cc:	1c60      	adds	r0, r4, #1
   246ce:	211b      	movs	r1, #27
   246d0:	9000      	str	r0, [sp, #0]
   246d2:	f005 fd93 	bl	2a1fc <__aeabi_memclr>
   246d6:	7025      	strb	r5, [r4, #0]
   246d8:	4841      	ldr	r0, [pc, #260]	@ (247e0 <_ZN20complex_dynamic_type3app17ha7b1df6c8b28b697E+0x130>)
   246da:	2105      	movs	r1, #5
   246dc:	4632      	mov	r2, r6
   246de:	9b01      	ldr	r3, [sp, #4]
   246e0:	df04      	svc	4
   246e2:	2802      	cmp	r0, #2
   246e4:	d104      	bne.n	246f0 <_ZN20complex_dynamic_type3app17ha7b1df6c8b28b697E+0x40>
   246e6:	2001      	movs	r0, #1
   246e8:	9a02      	ldr	r2, [sp, #8]
   246ea:	7010      	strb	r0, [r2, #0]
   246ec:	6051      	str	r1, [r2, #4]
   246ee:	e02e      	b.n	2474e <_ZN20complex_dynamic_type3app17ha7b1df6c8b28b697E+0x9e>
   246f0:	9c02      	ldr	r4, [sp, #8]
   246f2:	a803      	add	r0, sp, #12
   246f4:	2104      	movs	r1, #4
   246f6:	7001      	strb	r1, [r0, #0]
   246f8:	4839      	ldr	r0, [pc, #228]	@ (247e0 <_ZN20complex_dynamic_type3app17ha7b1df6c8b28b697E+0x130>)
   246fa:	2102      	movs	r1, #2
   246fc:	231b      	movs	r3, #27
   246fe:	9d00      	ldr	r5, [sp, #0]
   24700:	462a      	mov	r2, r5
   24702:	df03      	svc	3
   24704:	2802      	cmp	r0, #2
   24706:	d10e      	bne.n	24726 <_ZN20complex_dynamic_type3app17ha7b1df6c8b28b697E+0x76>
   24708:	2001      	movs	r0, #1
   2470a:	7020      	strb	r0, [r4, #0]
   2470c:	6061      	str	r1, [r4, #4]
   2470e:	a80a      	add	r0, sp, #40	@ 0x28
   24710:	7800      	ldrb	r0, [r0, #0]
   24712:	2802      	cmp	r0, #2
   24714:	d01b      	beq.n	2474e <_ZN20complex_dynamic_type3app17ha7b1df6c8b28b697E+0x9e>
   24716:	2803      	cmp	r0, #3
   24718:	d014      	beq.n	24744 <_ZN20complex_dynamic_type3app17ha7b1df6c8b28b697E+0x94>
   2471a:	4831      	ldr	r0, [pc, #196]	@ (247e0 <_ZN20complex_dynamic_type3app17ha7b1df6c8b28b697E+0x130>)
   2471c:	2102      	movs	r1, #2
   2471e:	2200      	movs	r2, #0
   24720:	4613      	mov	r3, r2
   24722:	df04      	svc	4
   24724:	e013      	b.n	2474e <_ZN20complex_dynamic_type3app17ha7b1df6c8b28b697E+0x9e>
   24726:	a80a      	add	r0, sp, #40	@ 0x28
   24728:	2103      	movs	r1, #3
   2472a:	7001      	strb	r1, [r0, #0]
   2472c:	482c      	ldr	r0, [pc, #176]	@ (247e0 <_ZN20complex_dynamic_type3app17ha7b1df6c8b28b697E+0x130>)
   2472e:	2105      	movs	r1, #5
   24730:	2602      	movs	r6, #2
   24732:	2300      	movs	r3, #0
   24734:	4632      	mov	r2, r6
   24736:	9301      	str	r3, [sp, #4]
   24738:	df02      	svc	2
   2473a:	287f      	cmp	r0, #127	@ 0x7f
   2473c:	d816      	bhi.n	2476c <_ZN20complex_dynamic_type3app17ha7b1df6c8b28b697E+0xbc>
   2473e:	2001      	movs	r0, #1
   24740:	7020      	strb	r0, [r4, #0]
   24742:	6061      	str	r1, [r4, #4]
   24744:	4826      	ldr	r0, [pc, #152]	@ (247e0 <_ZN20complex_dynamic_type3app17ha7b1df6c8b28b697E+0x130>)
   24746:	2102      	movs	r1, #2
   24748:	2200      	movs	r2, #0
   2474a:	4613      	mov	r3, r2
   2474c:	df03      	svc	3
   2474e:	a803      	add	r0, sp, #12
   24750:	7804      	ldrb	r4, [r0, #0]
   24752:	2c02      	cmp	r4, #2
   24754:	d008      	beq.n	24768 <_ZN20complex_dynamic_type3app17ha7b1df6c8b28b697E+0xb8>
   24756:	4822      	ldr	r0, [pc, #136]	@ (247e0 <_ZN20complex_dynamic_type3app17ha7b1df6c8b28b697E+0x130>)
   24758:	2105      	movs	r1, #5
   2475a:	2200      	movs	r2, #0
   2475c:	4613      	mov	r3, r2
   2475e:	2c03      	cmp	r4, #3
   24760:	d101      	bne.n	24766 <_ZN20complex_dynamic_type3app17ha7b1df6c8b28b697E+0xb6>
   24762:	df03      	svc	3
   24764:	e000      	b.n	24768 <_ZN20complex_dynamic_type3app17ha7b1df6c8b28b697E+0xb8>
   24766:	df04      	svc	4
   24768:	b011      	add	sp, #68	@ 0x44
   2476a:	bdf0      	pop	{r4, r5, r6, r7, pc}
   2476c:	a803      	add	r0, sp, #12
   2476e:	7800      	ldrb	r0, [r0, #0]
   24770:	2802      	cmp	r0, #2
   24772:	d01c      	beq.n	247ae <_ZN20complex_dynamic_type3app17ha7b1df6c8b28b697E+0xfe>
   24774:	2803      	cmp	r0, #3
   24776:	d105      	bne.n	24784 <_ZN20complex_dynamic_type3app17ha7b1df6c8b28b697E+0xd4>
   24778:	4819      	ldr	r0, [pc, #100]	@ (247e0 <_ZN20complex_dynamic_type3app17ha7b1df6c8b28b697E+0x130>)
   2477a:	2105      	movs	r1, #5
   2477c:	2200      	movs	r2, #0
   2477e:	4613      	mov	r3, r2
   24780:	df03      	svc	3
   24782:	e004      	b.n	2478e <_ZN20complex_dynamic_type3app17ha7b1df6c8b28b697E+0xde>
   24784:	4816      	ldr	r0, [pc, #88]	@ (247e0 <_ZN20complex_dynamic_type3app17ha7b1df6c8b28b697E+0x130>)
   24786:	2105      	movs	r1, #5
   24788:	2200      	movs	r2, #0
   2478a:	4613      	mov	r3, r2
   2478c:	df04      	svc	4
   2478e:	a803      	add	r0, sp, #12
   24790:	7006      	strb	r6, [r0, #0]
   24792:	a80a      	add	r0, sp, #40	@ 0x28
   24794:	7800      	ldrb	r0, [r0, #0]
   24796:	2803      	cmp	r0, #3
   24798:	d009      	beq.n	247ae <_ZN20complex_dynamic_type3app17ha7b1df6c8b28b697E+0xfe>
   2479a:	2802      	cmp	r0, #2
   2479c:	d10e      	bne.n	247bc <_ZN20complex_dynamic_type3app17ha7b1df6c8b28b697E+0x10c>
   2479e:	1c60      	adds	r0, r4, #1
   247a0:	221b      	movs	r2, #27
   247a2:	4629      	mov	r1, r5
   247a4:	f005 feea 	bl	2a57c <__aeabi_memcpy>
   247a8:	9801      	ldr	r0, [sp, #4]
   247aa:	7020      	strb	r0, [r4, #0]
   247ac:	e7dc      	b.n	24768 <_ZN20complex_dynamic_type3app17ha7b1df6c8b28b697E+0xb8>
   247ae:	462e      	mov	r6, r5
   247b0:	480b      	ldr	r0, [pc, #44]	@ (247e0 <_ZN20complex_dynamic_type3app17ha7b1df6c8b28b697E+0x130>)
   247b2:	2102      	movs	r1, #2
   247b4:	2200      	movs	r2, #0
   247b6:	4613      	mov	r3, r2
   247b8:	df03      	svc	3
   247ba:	e005      	b.n	247c8 <_ZN20complex_dynamic_type3app17ha7b1df6c8b28b697E+0x118>
   247bc:	462e      	mov	r6, r5
   247be:	4808      	ldr	r0, [pc, #32]	@ (247e0 <_ZN20complex_dynamic_type3app17ha7b1df6c8b28b697E+0x130>)
   247c0:	2102      	movs	r1, #2
   247c2:	2200      	movs	r2, #0
   247c4:	4613      	mov	r3, r2
   247c6:	df04      	svc	4
   247c8:	4625      	mov	r5, r4
   247ca:	a803      	add	r0, sp, #12
   247cc:	7804      	ldrb	r4, [r0, #0]
   247ce:	1c68      	adds	r0, r5, #1
   247d0:	221b      	movs	r2, #27
   247d2:	4631      	mov	r1, r6
   247d4:	f005 fed2 	bl	2a57c <__aeabi_memcpy>
   247d8:	9801      	ldr	r0, [sp, #4]
   247da:	7028      	strb	r0, [r5, #0]
   247dc:	e7b9      	b.n	24752 <_ZN20complex_dynamic_type3app17ha7b1df6c8b28b697E+0xa2>
   247de:	46c0      	nop			@ (mov r8, r8)
   247e0:	00001cce 	.word	0x00001cce

000247e4 <_ZN20complex_dynamic_type3app17hafe0736c0f3ccf86E>:
   247e4:	b5f0      	push	{r4, r5, r6, r7, lr}
   247e6:	af03      	add	r7, sp, #12
   247e8:	b09d      	sub	sp, #116	@ 0x74
   247ea:	9002      	str	r0, [sp, #8]
   247ec:	a803      	add	r0, sp, #12
   247ee:	2602      	movs	r6, #2
   247f0:	7006      	strb	r6, [r0, #0]
   247f2:	1c40      	adds	r0, r0, #1
   247f4:	9001      	str	r0, [sp, #4]
   247f6:	2534      	movs	r5, #52	@ 0x34
   247f8:	462a      	mov	r2, r5
   247fa:	f005 febf 	bl	2a57c <__aeabi_memcpy>
   247fe:	ac11      	add	r4, sp, #68	@ 0x44
   24800:	1c60      	adds	r0, r4, #1
   24802:	212e      	movs	r1, #46	@ 0x2e
   24804:	9000      	str	r0, [sp, #0]
   24806:	f005 fcf9 	bl	2a1fc <__aeabi_memclr>
   2480a:	7026      	strb	r6, [r4, #0]
   2480c:	4841      	ldr	r0, [pc, #260]	@ (24914 <_ZN20complex_dynamic_type3app17hafe0736c0f3ccf86E+0x130>)
   2480e:	4631      	mov	r1, r6
   24810:	9a01      	ldr	r2, [sp, #4]
   24812:	462b      	mov	r3, r5
   24814:	df04      	svc	4
   24816:	2802      	cmp	r0, #2
   24818:	d104      	bne.n	24824 <_ZN20complex_dynamic_type3app17hafe0736c0f3ccf86E+0x40>
   2481a:	2001      	movs	r0, #1
   2481c:	9a02      	ldr	r2, [sp, #8]
   2481e:	7010      	strb	r0, [r2, #0]
   24820:	6051      	str	r1, [r2, #4]
   24822:	e02e      	b.n	24882 <_ZN20complex_dynamic_type3app17hafe0736c0f3ccf86E+0x9e>
   24824:	9c02      	ldr	r4, [sp, #8]
   24826:	a803      	add	r0, sp, #12
   24828:	2104      	movs	r1, #4
   2482a:	7001      	strb	r1, [r0, #0]
   2482c:	4839      	ldr	r0, [pc, #228]	@ (24914 <_ZN20complex_dynamic_type3app17hafe0736c0f3ccf86E+0x130>)
   2482e:	2108      	movs	r1, #8
   24830:	232e      	movs	r3, #46	@ 0x2e
   24832:	9d00      	ldr	r5, [sp, #0]
   24834:	462a      	mov	r2, r5
   24836:	df03      	svc	3
   24838:	2802      	cmp	r0, #2
   2483a:	d10e      	bne.n	2485a <_ZN20complex_dynamic_type3app17hafe0736c0f3ccf86E+0x76>
   2483c:	2001      	movs	r0, #1
   2483e:	7020      	strb	r0, [r4, #0]
   24840:	6061      	str	r1, [r4, #4]
   24842:	a811      	add	r0, sp, #68	@ 0x44
   24844:	7800      	ldrb	r0, [r0, #0]
   24846:	2802      	cmp	r0, #2
   24848:	d01b      	beq.n	24882 <_ZN20complex_dynamic_type3app17hafe0736c0f3ccf86E+0x9e>
   2484a:	2803      	cmp	r0, #3
   2484c:	d014      	beq.n	24878 <_ZN20complex_dynamic_type3app17hafe0736c0f3ccf86E+0x94>
   2484e:	4831      	ldr	r0, [pc, #196]	@ (24914 <_ZN20complex_dynamic_type3app17hafe0736c0f3ccf86E+0x130>)
   24850:	2108      	movs	r1, #8
   24852:	2200      	movs	r2, #0
   24854:	4613      	mov	r3, r2
   24856:	df04      	svc	4
   24858:	e013      	b.n	24882 <_ZN20complex_dynamic_type3app17hafe0736c0f3ccf86E+0x9e>
   2485a:	a811      	add	r0, sp, #68	@ 0x44
   2485c:	2103      	movs	r1, #3
   2485e:	7001      	strb	r1, [r0, #0]
   24860:	482c      	ldr	r0, [pc, #176]	@ (24914 <_ZN20complex_dynamic_type3app17hafe0736c0f3ccf86E+0x130>)
   24862:	2602      	movs	r6, #2
   24864:	2208      	movs	r2, #8
   24866:	2300      	movs	r3, #0
   24868:	4631      	mov	r1, r6
   2486a:	9301      	str	r3, [sp, #4]
   2486c:	df02      	svc	2
   2486e:	287f      	cmp	r0, #127	@ 0x7f
   24870:	d816      	bhi.n	248a0 <_ZN20complex_dynamic_type3app17hafe0736c0f3ccf86E+0xbc>
   24872:	2001      	movs	r0, #1
   24874:	7020      	strb	r0, [r4, #0]
   24876:	6061      	str	r1, [r4, #4]
   24878:	4826      	ldr	r0, [pc, #152]	@ (24914 <_ZN20complex_dynamic_type3app17hafe0736c0f3ccf86E+0x130>)
   2487a:	2108      	movs	r1, #8
   2487c:	2200      	movs	r2, #0
   2487e:	4613      	mov	r3, r2
   24880:	df03      	svc	3
   24882:	a803      	add	r0, sp, #12
   24884:	7804      	ldrb	r4, [r0, #0]
   24886:	2c02      	cmp	r4, #2
   24888:	d008      	beq.n	2489c <_ZN20complex_dynamic_type3app17hafe0736c0f3ccf86E+0xb8>
   2488a:	4822      	ldr	r0, [pc, #136]	@ (24914 <_ZN20complex_dynamic_type3app17hafe0736c0f3ccf86E+0x130>)
   2488c:	2102      	movs	r1, #2
   2488e:	2200      	movs	r2, #0
   24890:	4613      	mov	r3, r2
   24892:	2c03      	cmp	r4, #3
   24894:	d101      	bne.n	2489a <_ZN20complex_dynamic_type3app17hafe0736c0f3ccf86E+0xb6>
   24896:	df03      	svc	3
   24898:	e000      	b.n	2489c <_ZN20complex_dynamic_type3app17hafe0736c0f3ccf86E+0xb8>
   2489a:	df04      	svc	4
   2489c:	b01d      	add	sp, #116	@ 0x74
   2489e:	bdf0      	pop	{r4, r5, r6, r7, pc}
   248a0:	a803      	add	r0, sp, #12
   248a2:	7800      	ldrb	r0, [r0, #0]
   248a4:	2802      	cmp	r0, #2
   248a6:	d01c      	beq.n	248e2 <_ZN20complex_dynamic_type3app17hafe0736c0f3ccf86E+0xfe>
   248a8:	2803      	cmp	r0, #3
   248aa:	d105      	bne.n	248b8 <_ZN20complex_dynamic_type3app17hafe0736c0f3ccf86E+0xd4>
   248ac:	4819      	ldr	r0, [pc, #100]	@ (24914 <_ZN20complex_dynamic_type3app17hafe0736c0f3ccf86E+0x130>)
   248ae:	2102      	movs	r1, #2
   248b0:	2200      	movs	r2, #0
   248b2:	4613      	mov	r3, r2
   248b4:	df03      	svc	3
   248b6:	e004      	b.n	248c2 <_ZN20complex_dynamic_type3app17hafe0736c0f3ccf86E+0xde>
   248b8:	4816      	ldr	r0, [pc, #88]	@ (24914 <_ZN20complex_dynamic_type3app17hafe0736c0f3ccf86E+0x130>)
   248ba:	2102      	movs	r1, #2
   248bc:	2200      	movs	r2, #0
   248be:	4613      	mov	r3, r2
   248c0:	df04      	svc	4
   248c2:	a803      	add	r0, sp, #12
   248c4:	7006      	strb	r6, [r0, #0]
   248c6:	a811      	add	r0, sp, #68	@ 0x44
   248c8:	7800      	ldrb	r0, [r0, #0]
   248ca:	2803      	cmp	r0, #3
   248cc:	d009      	beq.n	248e2 <_ZN20complex_dynamic_type3app17hafe0736c0f3ccf86E+0xfe>
   248ce:	2802      	cmp	r0, #2
   248d0:	d10e      	bne.n	248f0 <_ZN20complex_dynamic_type3app17hafe0736c0f3ccf86E+0x10c>
   248d2:	1c60      	adds	r0, r4, #1
   248d4:	222e      	movs	r2, #46	@ 0x2e
   248d6:	4629      	mov	r1, r5
   248d8:	f005 fe50 	bl	2a57c <__aeabi_memcpy>
   248dc:	9801      	ldr	r0, [sp, #4]
   248de:	7020      	strb	r0, [r4, #0]
   248e0:	e7dc      	b.n	2489c <_ZN20complex_dynamic_type3app17hafe0736c0f3ccf86E+0xb8>
   248e2:	462e      	mov	r6, r5
   248e4:	480b      	ldr	r0, [pc, #44]	@ (24914 <_ZN20complex_dynamic_type3app17hafe0736c0f3ccf86E+0x130>)
   248e6:	2108      	movs	r1, #8
   248e8:	2200      	movs	r2, #0
   248ea:	4613      	mov	r3, r2
   248ec:	df03      	svc	3
   248ee:	e005      	b.n	248fc <_ZN20complex_dynamic_type3app17hafe0736c0f3ccf86E+0x118>
   248f0:	462e      	mov	r6, r5
   248f2:	4808      	ldr	r0, [pc, #32]	@ (24914 <_ZN20complex_dynamic_type3app17hafe0736c0f3ccf86E+0x130>)
   248f4:	2108      	movs	r1, #8
   248f6:	2200      	movs	r2, #0
   248f8:	4613      	mov	r3, r2
   248fa:	df04      	svc	4
   248fc:	4625      	mov	r5, r4
   248fe:	a803      	add	r0, sp, #12
   24900:	7804      	ldrb	r4, [r0, #0]
   24902:	1c68      	adds	r0, r5, #1
   24904:	222e      	movs	r2, #46	@ 0x2e
   24906:	4631      	mov	r1, r6
   24908:	f005 fe38 	bl	2a57c <__aeabi_memcpy>
   2490c:	9801      	ldr	r0, [sp, #4]
   2490e:	7028      	strb	r0, [r5, #0]
   24910:	e7b9      	b.n	24886 <_ZN20complex_dynamic_type3app17hafe0736c0f3ccf86E+0xa2>
   24912:	46c0      	nop			@ (mov r8, r8)
   24914:	00000209 	.word	0x00000209

00024918 <_ZN20complex_dynamic_type3app17hb07344b62b4df852E>:
   24918:	b5f0      	push	{r4, r5, r6, r7, lr}
   2491a:	af03      	add	r7, sp, #12
   2491c:	b0a1      	sub	sp, #132	@ 0x84
   2491e:	9003      	str	r0, [sp, #12]
   24920:	a804      	add	r0, sp, #16
   24922:	2502      	movs	r5, #2
   24924:	7005      	strb	r5, [r0, #0]
   24926:	1c40      	adds	r0, r0, #1
   24928:	9002      	str	r0, [sp, #8]
   2492a:	2638      	movs	r6, #56	@ 0x38
   2492c:	4632      	mov	r2, r6
   2492e:	f005 fe25 	bl	2a57c <__aeabi_memcpy>
   24932:	ac13      	add	r4, sp, #76	@ 0x4c
   24934:	1c60      	adds	r0, r4, #1
   24936:	2134      	movs	r1, #52	@ 0x34
   24938:	9001      	str	r0, [sp, #4]
   2493a:	f005 fc5f 	bl	2a1fc <__aeabi_memclr>
   2493e:	9500      	str	r5, [sp, #0]
   24940:	7025      	strb	r5, [r4, #0]
   24942:	2097      	movs	r0, #151	@ 0x97
   24944:	0044      	lsls	r4, r0, #1
   24946:	2108      	movs	r1, #8
   24948:	4620      	mov	r0, r4
   2494a:	9a02      	ldr	r2, [sp, #8]
   2494c:	4633      	mov	r3, r6
   2494e:	df04      	svc	4
   24950:	2802      	cmp	r0, #2
   24952:	d104      	bne.n	2495e <_ZN20complex_dynamic_type3app17hb07344b62b4df852E+0x46>
   24954:	2001      	movs	r0, #1
   24956:	9a03      	ldr	r2, [sp, #12]
   24958:	7010      	strb	r0, [r2, #0]
   2495a:	6051      	str	r1, [r2, #4]
   2495c:	e02c      	b.n	249b8 <_ZN20complex_dynamic_type3app17hb07344b62b4df852E+0xa0>
   2495e:	9e03      	ldr	r6, [sp, #12]
   24960:	a804      	add	r0, sp, #16
   24962:	2104      	movs	r1, #4
   24964:	7001      	strb	r1, [r0, #0]
   24966:	2503      	movs	r5, #3
   24968:	2334      	movs	r3, #52	@ 0x34
   2496a:	4620      	mov	r0, r4
   2496c:	4629      	mov	r1, r5
   2496e:	9a01      	ldr	r2, [sp, #4]
   24970:	df03      	svc	3
   24972:	2802      	cmp	r0, #2
   24974:	d10e      	bne.n	24994 <_ZN20complex_dynamic_type3app17hb07344b62b4df852E+0x7c>
   24976:	2001      	movs	r0, #1
   24978:	7030      	strb	r0, [r6, #0]
   2497a:	6071      	str	r1, [r6, #4]
   2497c:	a813      	add	r0, sp, #76	@ 0x4c
   2497e:	7800      	ldrb	r0, [r0, #0]
   24980:	2802      	cmp	r0, #2
   24982:	d019      	beq.n	249b8 <_ZN20complex_dynamic_type3app17hb07344b62b4df852E+0xa0>
   24984:	2803      	cmp	r0, #3
   24986:	d012      	beq.n	249ae <_ZN20complex_dynamic_type3app17hb07344b62b4df852E+0x96>
   24988:	2103      	movs	r1, #3
   2498a:	2200      	movs	r2, #0
   2498c:	4620      	mov	r0, r4
   2498e:	4613      	mov	r3, r2
   24990:	df04      	svc	4
   24992:	e011      	b.n	249b8 <_ZN20complex_dynamic_type3app17hb07344b62b4df852E+0xa0>
   24994:	a813      	add	r0, sp, #76	@ 0x4c
   24996:	7005      	strb	r5, [r0, #0]
   24998:	2108      	movs	r1, #8
   2499a:	2300      	movs	r3, #0
   2499c:	4620      	mov	r0, r4
   2499e:	462a      	mov	r2, r5
   249a0:	9302      	str	r3, [sp, #8]
   249a2:	df02      	svc	2
   249a4:	287f      	cmp	r0, #127	@ 0x7f
   249a6:	d817      	bhi.n	249d8 <_ZN20complex_dynamic_type3app17hb07344b62b4df852E+0xc0>
   249a8:	2001      	movs	r0, #1
   249aa:	7030      	strb	r0, [r6, #0]
   249ac:	6071      	str	r1, [r6, #4]
   249ae:	2103      	movs	r1, #3
   249b0:	2200      	movs	r2, #0
   249b2:	4620      	mov	r0, r4
   249b4:	4613      	mov	r3, r2
   249b6:	df03      	svc	3
   249b8:	4625      	mov	r5, r4
   249ba:	a804      	add	r0, sp, #16
   249bc:	7804      	ldrb	r4, [r0, #0]
   249be:	2c02      	cmp	r4, #2
   249c0:	d008      	beq.n	249d4 <_ZN20complex_dynamic_type3app17hb07344b62b4df852E+0xbc>
   249c2:	2108      	movs	r1, #8
   249c4:	2200      	movs	r2, #0
   249c6:	4628      	mov	r0, r5
   249c8:	4613      	mov	r3, r2
   249ca:	2c03      	cmp	r4, #3
   249cc:	d101      	bne.n	249d2 <_ZN20complex_dynamic_type3app17hb07344b62b4df852E+0xba>
   249ce:	df03      	svc	3
   249d0:	e000      	b.n	249d4 <_ZN20complex_dynamic_type3app17hb07344b62b4df852E+0xbc>
   249d2:	df04      	svc	4
   249d4:	b021      	add	sp, #132	@ 0x84
   249d6:	bdf0      	pop	{r4, r5, r6, r7, pc}
   249d8:	a804      	add	r0, sp, #16
   249da:	7800      	ldrb	r0, [r0, #0]
   249dc:	2802      	cmp	r0, #2
   249de:	9d01      	ldr	r5, [sp, #4]
   249e0:	d01b      	beq.n	24a1a <_ZN20complex_dynamic_type3app17hb07344b62b4df852E+0x102>
   249e2:	2108      	movs	r1, #8
   249e4:	2200      	movs	r2, #0
   249e6:	2803      	cmp	r0, #3
   249e8:	d103      	bne.n	249f2 <_ZN20complex_dynamic_type3app17hb07344b62b4df852E+0xda>
   249ea:	4620      	mov	r0, r4
   249ec:	4613      	mov	r3, r2
   249ee:	df03      	svc	3
   249f0:	e002      	b.n	249f8 <_ZN20complex_dynamic_type3app17hb07344b62b4df852E+0xe0>
   249f2:	4620      	mov	r0, r4
   249f4:	4613      	mov	r3, r2
   249f6:	df04      	svc	4
   249f8:	a804      	add	r0, sp, #16
   249fa:	9900      	ldr	r1, [sp, #0]
   249fc:	7001      	strb	r1, [r0, #0]
   249fe:	a813      	add	r0, sp, #76	@ 0x4c
   24a00:	7800      	ldrb	r0, [r0, #0]
   24a02:	2803      	cmp	r0, #3
   24a04:	d009      	beq.n	24a1a <_ZN20complex_dynamic_type3app17hb07344b62b4df852E+0x102>
   24a06:	2802      	cmp	r0, #2
   24a08:	d10e      	bne.n	24a28 <_ZN20complex_dynamic_type3app17hb07344b62b4df852E+0x110>
   24a0a:	1c70      	adds	r0, r6, #1
   24a0c:	2234      	movs	r2, #52	@ 0x34
   24a0e:	4629      	mov	r1, r5
   24a10:	f005 fdb4 	bl	2a57c <__aeabi_memcpy>
   24a14:	9802      	ldr	r0, [sp, #8]
   24a16:	7030      	strb	r0, [r6, #0]
   24a18:	e7dc      	b.n	249d4 <_ZN20complex_dynamic_type3app17hb07344b62b4df852E+0xbc>
   24a1a:	2103      	movs	r1, #3
   24a1c:	2200      	movs	r2, #0
   24a1e:	4625      	mov	r5, r4
   24a20:	4620      	mov	r0, r4
   24a22:	4613      	mov	r3, r2
   24a24:	df03      	svc	3
   24a26:	e005      	b.n	24a34 <_ZN20complex_dynamic_type3app17hb07344b62b4df852E+0x11c>
   24a28:	2103      	movs	r1, #3
   24a2a:	2200      	movs	r2, #0
   24a2c:	4625      	mov	r5, r4
   24a2e:	4620      	mov	r0, r4
   24a30:	4613      	mov	r3, r2
   24a32:	df04      	svc	4
   24a34:	a804      	add	r0, sp, #16
   24a36:	7804      	ldrb	r4, [r0, #0]
   24a38:	1c70      	adds	r0, r6, #1
   24a3a:	2234      	movs	r2, #52	@ 0x34
   24a3c:	9901      	ldr	r1, [sp, #4]
   24a3e:	f005 fd9d 	bl	2a57c <__aeabi_memcpy>
   24a42:	9802      	ldr	r0, [sp, #8]
   24a44:	7030      	strb	r0, [r6, #0]
   24a46:	e7ba      	b.n	249be <_ZN20complex_dynamic_type3app17hb07344b62b4df852E+0xa6>

00024a48 <_ZN20complex_dynamic_type3app17hb54a5ba590a78d83E>:
   24a48:	b5f0      	push	{r4, r5, r6, r7, lr}
   24a4a:	af03      	add	r7, sp, #12
   24a4c:	b095      	sub	sp, #84	@ 0x54
   24a4e:	9003      	str	r0, [sp, #12]
   24a50:	a804      	add	r0, sp, #16
   24a52:	2402      	movs	r4, #2
   24a54:	7004      	strb	r4, [r0, #0]
   24a56:	1c46      	adds	r6, r0, #1
   24a58:	221e      	movs	r2, #30
   24a5a:	9202      	str	r2, [sp, #8]
   24a5c:	4630      	mov	r0, r6
   24a5e:	f005 fd8d 	bl	2a57c <__aeabi_memcpy>
   24a62:	ad0c      	add	r5, sp, #48	@ 0x30
   24a64:	1c68      	adds	r0, r5, #1
   24a66:	2121      	movs	r1, #33	@ 0x21
   24a68:	9001      	str	r0, [sp, #4]
   24a6a:	f005 fbc7 	bl	2a1fc <__aeabi_memclr>
   24a6e:	9400      	str	r4, [sp, #0]
   24a70:	702c      	strb	r4, [r5, #0]
   24a72:	483f      	ldr	r0, [pc, #252]	@ (24b70 <_ZN20complex_dynamic_type3app17hb54a5ba590a78d83E+0x128>)
   24a74:	2106      	movs	r1, #6
   24a76:	4632      	mov	r2, r6
   24a78:	9b02      	ldr	r3, [sp, #8]
   24a7a:	df04      	svc	4
   24a7c:	2802      	cmp	r0, #2
   24a7e:	d104      	bne.n	24a8a <_ZN20complex_dynamic_type3app17hb54a5ba590a78d83E+0x42>
   24a80:	2001      	movs	r0, #1
   24a82:	9a03      	ldr	r2, [sp, #12]
   24a84:	7010      	strb	r0, [r2, #0]
   24a86:	6051      	str	r1, [r2, #4]
   24a88:	e02d      	b.n	24ae6 <_ZN20complex_dynamic_type3app17hb54a5ba590a78d83E+0x9e>
   24a8a:	9d03      	ldr	r5, [sp, #12]
   24a8c:	a804      	add	r0, sp, #16
   24a8e:	2104      	movs	r1, #4
   24a90:	7001      	strb	r1, [r0, #0]
   24a92:	4837      	ldr	r0, [pc, #220]	@ (24b70 <_ZN20complex_dynamic_type3app17hb54a5ba590a78d83E+0x128>)
   24a94:	2109      	movs	r1, #9
   24a96:	2321      	movs	r3, #33	@ 0x21
   24a98:	9c01      	ldr	r4, [sp, #4]
   24a9a:	4622      	mov	r2, r4
   24a9c:	df03      	svc	3
   24a9e:	2802      	cmp	r0, #2
   24aa0:	d10e      	bne.n	24ac0 <_ZN20complex_dynamic_type3app17hb54a5ba590a78d83E+0x78>
   24aa2:	2001      	movs	r0, #1
   24aa4:	7028      	strb	r0, [r5, #0]
   24aa6:	6069      	str	r1, [r5, #4]
   24aa8:	a80c      	add	r0, sp, #48	@ 0x30
   24aaa:	7800      	ldrb	r0, [r0, #0]
   24aac:	2802      	cmp	r0, #2
   24aae:	d01a      	beq.n	24ae6 <_ZN20complex_dynamic_type3app17hb54a5ba590a78d83E+0x9e>
   24ab0:	2803      	cmp	r0, #3
   24ab2:	d013      	beq.n	24adc <_ZN20complex_dynamic_type3app17hb54a5ba590a78d83E+0x94>
   24ab4:	482e      	ldr	r0, [pc, #184]	@ (24b70 <_ZN20complex_dynamic_type3app17hb54a5ba590a78d83E+0x128>)
   24ab6:	2109      	movs	r1, #9
   24ab8:	2200      	movs	r2, #0
   24aba:	4613      	mov	r3, r2
   24abc:	df04      	svc	4
   24abe:	e012      	b.n	24ae6 <_ZN20complex_dynamic_type3app17hb54a5ba590a78d83E+0x9e>
   24ac0:	a80c      	add	r0, sp, #48	@ 0x30
   24ac2:	2103      	movs	r1, #3
   24ac4:	7001      	strb	r1, [r0, #0]
   24ac6:	482a      	ldr	r0, [pc, #168]	@ (24b70 <_ZN20complex_dynamic_type3app17hb54a5ba590a78d83E+0x128>)
   24ac8:	2106      	movs	r1, #6
   24aca:	2209      	movs	r2, #9
   24acc:	2600      	movs	r6, #0
   24ace:	4633      	mov	r3, r6
   24ad0:	df02      	svc	2
   24ad2:	287f      	cmp	r0, #127	@ 0x7f
   24ad4:	d816      	bhi.n	24b04 <_ZN20complex_dynamic_type3app17hb54a5ba590a78d83E+0xbc>
   24ad6:	2001      	movs	r0, #1
   24ad8:	7028      	strb	r0, [r5, #0]
   24ada:	6069      	str	r1, [r5, #4]
   24adc:	4824      	ldr	r0, [pc, #144]	@ (24b70 <_ZN20complex_dynamic_type3app17hb54a5ba590a78d83E+0x128>)
   24ade:	2109      	movs	r1, #9
   24ae0:	2200      	movs	r2, #0
   24ae2:	4613      	mov	r3, r2
   24ae4:	df03      	svc	3
   24ae6:	a804      	add	r0, sp, #16
   24ae8:	7804      	ldrb	r4, [r0, #0]
   24aea:	2c02      	cmp	r4, #2
   24aec:	d008      	beq.n	24b00 <_ZN20complex_dynamic_type3app17hb54a5ba590a78d83E+0xb8>
   24aee:	4820      	ldr	r0, [pc, #128]	@ (24b70 <_ZN20complex_dynamic_type3app17hb54a5ba590a78d83E+0x128>)
   24af0:	2106      	movs	r1, #6
   24af2:	2200      	movs	r2, #0
   24af4:	4613      	mov	r3, r2
   24af6:	2c03      	cmp	r4, #3
   24af8:	d101      	bne.n	24afe <_ZN20complex_dynamic_type3app17hb54a5ba590a78d83E+0xb6>
   24afa:	df03      	svc	3
   24afc:	e000      	b.n	24b00 <_ZN20complex_dynamic_type3app17hb54a5ba590a78d83E+0xb8>
   24afe:	df04      	svc	4
   24b00:	b015      	add	sp, #84	@ 0x54
   24b02:	bdf0      	pop	{r4, r5, r6, r7, pc}
   24b04:	a804      	add	r0, sp, #16
   24b06:	7800      	ldrb	r0, [r0, #0]
   24b08:	2802      	cmp	r0, #2
   24b0a:	d01c      	beq.n	24b46 <_ZN20complex_dynamic_type3app17hb54a5ba590a78d83E+0xfe>
   24b0c:	2803      	cmp	r0, #3
   24b0e:	d105      	bne.n	24b1c <_ZN20complex_dynamic_type3app17hb54a5ba590a78d83E+0xd4>
   24b10:	4817      	ldr	r0, [pc, #92]	@ (24b70 <_ZN20complex_dynamic_type3app17hb54a5ba590a78d83E+0x128>)
   24b12:	2106      	movs	r1, #6
   24b14:	2200      	movs	r2, #0
   24b16:	4613      	mov	r3, r2
   24b18:	df03      	svc	3
   24b1a:	e004      	b.n	24b26 <_ZN20complex_dynamic_type3app17hb54a5ba590a78d83E+0xde>
   24b1c:	4814      	ldr	r0, [pc, #80]	@ (24b70 <_ZN20complex_dynamic_type3app17hb54a5ba590a78d83E+0x128>)
   24b1e:	2106      	movs	r1, #6
   24b20:	2200      	movs	r2, #0
   24b22:	4613      	mov	r3, r2
   24b24:	df04      	svc	4
   24b26:	a804      	add	r0, sp, #16
   24b28:	9900      	ldr	r1, [sp, #0]
   24b2a:	7001      	strb	r1, [r0, #0]
   24b2c:	a80c      	add	r0, sp, #48	@ 0x30
   24b2e:	7800      	ldrb	r0, [r0, #0]
   24b30:	2803      	cmp	r0, #3
   24b32:	d008      	beq.n	24b46 <_ZN20complex_dynamic_type3app17hb54a5ba590a78d83E+0xfe>
   24b34:	2802      	cmp	r0, #2
   24b36:	d10c      	bne.n	24b52 <_ZN20complex_dynamic_type3app17hb54a5ba590a78d83E+0x10a>
   24b38:	1c68      	adds	r0, r5, #1
   24b3a:	2221      	movs	r2, #33	@ 0x21
   24b3c:	4621      	mov	r1, r4
   24b3e:	f005 fd1d 	bl	2a57c <__aeabi_memcpy>
   24b42:	702e      	strb	r6, [r5, #0]
   24b44:	e7dc      	b.n	24b00 <_ZN20complex_dynamic_type3app17hb54a5ba590a78d83E+0xb8>
   24b46:	480a      	ldr	r0, [pc, #40]	@ (24b70 <_ZN20complex_dynamic_type3app17hb54a5ba590a78d83E+0x128>)
   24b48:	2109      	movs	r1, #9
   24b4a:	2200      	movs	r2, #0
   24b4c:	4613      	mov	r3, r2
   24b4e:	df03      	svc	3
   24b50:	e004      	b.n	24b5c <_ZN20complex_dynamic_type3app17hb54a5ba590a78d83E+0x114>
   24b52:	4807      	ldr	r0, [pc, #28]	@ (24b70 <_ZN20complex_dynamic_type3app17hb54a5ba590a78d83E+0x128>)
   24b54:	2109      	movs	r1, #9
   24b56:	2200      	movs	r2, #0
   24b58:	4613      	mov	r3, r2
   24b5a:	df04      	svc	4
   24b5c:	a804      	add	r0, sp, #16
   24b5e:	7804      	ldrb	r4, [r0, #0]
   24b60:	1c68      	adds	r0, r5, #1
   24b62:	2221      	movs	r2, #33	@ 0x21
   24b64:	9901      	ldr	r1, [sp, #4]
   24b66:	f005 fd09 	bl	2a57c <__aeabi_memcpy>
   24b6a:	702e      	strb	r6, [r5, #0]
   24b6c:	e7bd      	b.n	24aea <_ZN20complex_dynamic_type3app17hb54a5ba590a78d83E+0xa2>
   24b6e:	46c0      	nop			@ (mov r8, r8)
   24b70:	000019b5 	.word	0x000019b5

00024b74 <_ZN20complex_dynamic_type3app17hbdb06ee5d7160584E>:
   24b74:	b5f0      	push	{r4, r5, r6, r7, lr}
   24b76:	af03      	add	r7, sp, #12
   24b78:	b097      	sub	sp, #92	@ 0x5c
   24b7a:	9002      	str	r0, [sp, #8]
   24b7c:	a803      	add	r0, sp, #12
   24b7e:	2602      	movs	r6, #2
   24b80:	7006      	strb	r6, [r0, #0]
   24b82:	1c40      	adds	r0, r0, #1
   24b84:	9001      	str	r0, [sp, #4]
   24b86:	2523      	movs	r5, #35	@ 0x23
   24b88:	462a      	mov	r2, r5
   24b8a:	f005 fcf7 	bl	2a57c <__aeabi_memcpy>
   24b8e:	ac0c      	add	r4, sp, #48	@ 0x30
   24b90:	1c60      	adds	r0, r4, #1
   24b92:	212b      	movs	r1, #43	@ 0x2b
   24b94:	9000      	str	r0, [sp, #0]
   24b96:	f005 fb31 	bl	2a1fc <__aeabi_memclr>
   24b9a:	7026      	strb	r6, [r4, #0]
   24b9c:	4841      	ldr	r0, [pc, #260]	@ (24ca4 <_ZN20complex_dynamic_type3app17hbdb06ee5d7160584E+0x130>)
   24b9e:	4631      	mov	r1, r6
   24ba0:	9a01      	ldr	r2, [sp, #4]
   24ba2:	462b      	mov	r3, r5
   24ba4:	df04      	svc	4
   24ba6:	2802      	cmp	r0, #2
   24ba8:	d104      	bne.n	24bb4 <_ZN20complex_dynamic_type3app17hbdb06ee5d7160584E+0x40>
   24baa:	2001      	movs	r0, #1
   24bac:	9a02      	ldr	r2, [sp, #8]
   24bae:	7010      	strb	r0, [r2, #0]
   24bb0:	6051      	str	r1, [r2, #4]
   24bb2:	e02e      	b.n	24c12 <_ZN20complex_dynamic_type3app17hbdb06ee5d7160584E+0x9e>
   24bb4:	9c02      	ldr	r4, [sp, #8]
   24bb6:	a803      	add	r0, sp, #12
   24bb8:	2104      	movs	r1, #4
   24bba:	7001      	strb	r1, [r0, #0]
   24bbc:	4839      	ldr	r0, [pc, #228]	@ (24ca4 <_ZN20complex_dynamic_type3app17hbdb06ee5d7160584E+0x130>)
   24bbe:	2100      	movs	r1, #0
   24bc0:	232b      	movs	r3, #43	@ 0x2b
   24bc2:	9d00      	ldr	r5, [sp, #0]
   24bc4:	462a      	mov	r2, r5
   24bc6:	df03      	svc	3
   24bc8:	2802      	cmp	r0, #2
   24bca:	d10e      	bne.n	24bea <_ZN20complex_dynamic_type3app17hbdb06ee5d7160584E+0x76>
   24bcc:	2001      	movs	r0, #1
   24bce:	7020      	strb	r0, [r4, #0]
   24bd0:	6061      	str	r1, [r4, #4]
   24bd2:	a80c      	add	r0, sp, #48	@ 0x30
   24bd4:	7800      	ldrb	r0, [r0, #0]
   24bd6:	2802      	cmp	r0, #2
   24bd8:	d01b      	beq.n	24c12 <_ZN20complex_dynamic_type3app17hbdb06ee5d7160584E+0x9e>
   24bda:	2803      	cmp	r0, #3
   24bdc:	d014      	beq.n	24c08 <_ZN20complex_dynamic_type3app17hbdb06ee5d7160584E+0x94>
   24bde:	4831      	ldr	r0, [pc, #196]	@ (24ca4 <_ZN20complex_dynamic_type3app17hbdb06ee5d7160584E+0x130>)
   24be0:	2100      	movs	r1, #0
   24be2:	460a      	mov	r2, r1
   24be4:	460b      	mov	r3, r1
   24be6:	df04      	svc	4
   24be8:	e013      	b.n	24c12 <_ZN20complex_dynamic_type3app17hbdb06ee5d7160584E+0x9e>
   24bea:	a80c      	add	r0, sp, #48	@ 0x30
   24bec:	2103      	movs	r1, #3
   24bee:	7001      	strb	r1, [r0, #0]
   24bf0:	482c      	ldr	r0, [pc, #176]	@ (24ca4 <_ZN20complex_dynamic_type3app17hbdb06ee5d7160584E+0x130>)
   24bf2:	2602      	movs	r6, #2
   24bf4:	2200      	movs	r2, #0
   24bf6:	4631      	mov	r1, r6
   24bf8:	9201      	str	r2, [sp, #4]
   24bfa:	4613      	mov	r3, r2
   24bfc:	df02      	svc	2
   24bfe:	287f      	cmp	r0, #127	@ 0x7f
   24c00:	d816      	bhi.n	24c30 <_ZN20complex_dynamic_type3app17hbdb06ee5d7160584E+0xbc>
   24c02:	2001      	movs	r0, #1
   24c04:	7020      	strb	r0, [r4, #0]
   24c06:	6061      	str	r1, [r4, #4]
   24c08:	4826      	ldr	r0, [pc, #152]	@ (24ca4 <_ZN20complex_dynamic_type3app17hbdb06ee5d7160584E+0x130>)
   24c0a:	2100      	movs	r1, #0
   24c0c:	460a      	mov	r2, r1
   24c0e:	460b      	mov	r3, r1
   24c10:	df03      	svc	3
   24c12:	a803      	add	r0, sp, #12
   24c14:	7804      	ldrb	r4, [r0, #0]
   24c16:	2c02      	cmp	r4, #2
   24c18:	d008      	beq.n	24c2c <_ZN20complex_dynamic_type3app17hbdb06ee5d7160584E+0xb8>
   24c1a:	4822      	ldr	r0, [pc, #136]	@ (24ca4 <_ZN20complex_dynamic_type3app17hbdb06ee5d7160584E+0x130>)
   24c1c:	2102      	movs	r1, #2
   24c1e:	2200      	movs	r2, #0
   24c20:	4613      	mov	r3, r2
   24c22:	2c03      	cmp	r4, #3
   24c24:	d101      	bne.n	24c2a <_ZN20complex_dynamic_type3app17hbdb06ee5d7160584E+0xb6>
   24c26:	df03      	svc	3
   24c28:	e000      	b.n	24c2c <_ZN20complex_dynamic_type3app17hbdb06ee5d7160584E+0xb8>
   24c2a:	df04      	svc	4
   24c2c:	b017      	add	sp, #92	@ 0x5c
   24c2e:	bdf0      	pop	{r4, r5, r6, r7, pc}
   24c30:	a803      	add	r0, sp, #12
   24c32:	7800      	ldrb	r0, [r0, #0]
   24c34:	2802      	cmp	r0, #2
   24c36:	d01c      	beq.n	24c72 <_ZN20complex_dynamic_type3app17hbdb06ee5d7160584E+0xfe>
   24c38:	2803      	cmp	r0, #3
   24c3a:	d105      	bne.n	24c48 <_ZN20complex_dynamic_type3app17hbdb06ee5d7160584E+0xd4>
   24c3c:	4819      	ldr	r0, [pc, #100]	@ (24ca4 <_ZN20complex_dynamic_type3app17hbdb06ee5d7160584E+0x130>)
   24c3e:	2102      	movs	r1, #2
   24c40:	2200      	movs	r2, #0
   24c42:	4613      	mov	r3, r2
   24c44:	df03      	svc	3
   24c46:	e004      	b.n	24c52 <_ZN20complex_dynamic_type3app17hbdb06ee5d7160584E+0xde>
   24c48:	4816      	ldr	r0, [pc, #88]	@ (24ca4 <_ZN20complex_dynamic_type3app17hbdb06ee5d7160584E+0x130>)
   24c4a:	2102      	movs	r1, #2
   24c4c:	2200      	movs	r2, #0
   24c4e:	4613      	mov	r3, r2
   24c50:	df04      	svc	4
   24c52:	a803      	add	r0, sp, #12
   24c54:	7006      	strb	r6, [r0, #0]
   24c56:	a80c      	add	r0, sp, #48	@ 0x30
   24c58:	7800      	ldrb	r0, [r0, #0]
   24c5a:	2803      	cmp	r0, #3
   24c5c:	d009      	beq.n	24c72 <_ZN20complex_dynamic_type3app17hbdb06ee5d7160584E+0xfe>
   24c5e:	2802      	cmp	r0, #2
   24c60:	d10e      	bne.n	24c80 <_ZN20complex_dynamic_type3app17hbdb06ee5d7160584E+0x10c>
   24c62:	1c60      	adds	r0, r4, #1
   24c64:	222b      	movs	r2, #43	@ 0x2b
   24c66:	4629      	mov	r1, r5
   24c68:	f005 fc88 	bl	2a57c <__aeabi_memcpy>
   24c6c:	9801      	ldr	r0, [sp, #4]
   24c6e:	7020      	strb	r0, [r4, #0]
   24c70:	e7dc      	b.n	24c2c <_ZN20complex_dynamic_type3app17hbdb06ee5d7160584E+0xb8>
   24c72:	462e      	mov	r6, r5
   24c74:	480b      	ldr	r0, [pc, #44]	@ (24ca4 <_ZN20complex_dynamic_type3app17hbdb06ee5d7160584E+0x130>)
   24c76:	2100      	movs	r1, #0
   24c78:	460a      	mov	r2, r1
   24c7a:	460b      	mov	r3, r1
   24c7c:	df03      	svc	3
   24c7e:	e005      	b.n	24c8c <_ZN20complex_dynamic_type3app17hbdb06ee5d7160584E+0x118>
   24c80:	462e      	mov	r6, r5
   24c82:	4808      	ldr	r0, [pc, #32]	@ (24ca4 <_ZN20complex_dynamic_type3app17hbdb06ee5d7160584E+0x130>)
   24c84:	2100      	movs	r1, #0
   24c86:	460a      	mov	r2, r1
   24c88:	460b      	mov	r3, r1
   24c8a:	df04      	svc	4
   24c8c:	4625      	mov	r5, r4
   24c8e:	a803      	add	r0, sp, #12
   24c90:	7804      	ldrb	r4, [r0, #0]
   24c92:	1c68      	adds	r0, r5, #1
   24c94:	222b      	movs	r2, #43	@ 0x2b
   24c96:	4631      	mov	r1, r6
   24c98:	f005 fc70 	bl	2a57c <__aeabi_memcpy>
   24c9c:	9801      	ldr	r0, [sp, #4]
   24c9e:	7028      	strb	r0, [r5, #0]
   24ca0:	e7b9      	b.n	24c16 <_ZN20complex_dynamic_type3app17hbdb06ee5d7160584E+0xa2>
   24ca2:	46c0      	nop			@ (mov r8, r8)
   24ca4:	00000d5d 	.word	0x00000d5d

00024ca8 <_ZN20complex_dynamic_type3app17hbed1b8741981af22E>:
   24ca8:	b5f0      	push	{r4, r5, r6, r7, lr}
   24caa:	af03      	add	r7, sp, #12
   24cac:	b0a3      	sub	sp, #140	@ 0x8c
   24cae:	9004      	str	r0, [sp, #16]
   24cb0:	a805      	add	r0, sp, #20
   24cb2:	2402      	movs	r4, #2
   24cb4:	7004      	strb	r4, [r0, #0]
   24cb6:	1c46      	adds	r6, r0, #1
   24cb8:	2240      	movs	r2, #64	@ 0x40
   24cba:	9203      	str	r2, [sp, #12]
   24cbc:	4630      	mov	r0, r6
   24cbe:	f005 fc5d 	bl	2a57c <__aeabi_memcpy>
   24cc2:	ad16      	add	r5, sp, #88	@ 0x58
   24cc4:	1c68      	adds	r0, r5, #1
   24cc6:	2131      	movs	r1, #49	@ 0x31
   24cc8:	9002      	str	r0, [sp, #8]
   24cca:	f005 fa97 	bl	2a1fc <__aeabi_memclr>
   24cce:	9401      	str	r4, [sp, #4]
   24cd0:	702c      	strb	r4, [r5, #0]
   24cd2:	483f      	ldr	r0, [pc, #252]	@ (24dd0 <_ZN20complex_dynamic_type3app17hbed1b8741981af22E+0x128>)
   24cd4:	2108      	movs	r1, #8
   24cd6:	4632      	mov	r2, r6
   24cd8:	9b03      	ldr	r3, [sp, #12]
   24cda:	df04      	svc	4
   24cdc:	2802      	cmp	r0, #2
   24cde:	d104      	bne.n	24cea <_ZN20complex_dynamic_type3app17hbed1b8741981af22E+0x42>
   24ce0:	2001      	movs	r0, #1
   24ce2:	9a04      	ldr	r2, [sp, #16]
   24ce4:	7010      	strb	r0, [r2, #0]
   24ce6:	6051      	str	r1, [r2, #4]
   24ce8:	e02d      	b.n	24d46 <_ZN20complex_dynamic_type3app17hbed1b8741981af22E+0x9e>
   24cea:	9d04      	ldr	r5, [sp, #16]
   24cec:	a805      	add	r0, sp, #20
   24cee:	2104      	movs	r1, #4
   24cf0:	7001      	strb	r1, [r0, #0]
   24cf2:	4837      	ldr	r0, [pc, #220]	@ (24dd0 <_ZN20complex_dynamic_type3app17hbed1b8741981af22E+0x128>)
   24cf4:	2105      	movs	r1, #5
   24cf6:	2331      	movs	r3, #49	@ 0x31
   24cf8:	9c02      	ldr	r4, [sp, #8]
   24cfa:	4622      	mov	r2, r4
   24cfc:	df03      	svc	3
   24cfe:	2802      	cmp	r0, #2
   24d00:	d10e      	bne.n	24d20 <_ZN20complex_dynamic_type3app17hbed1b8741981af22E+0x78>
   24d02:	2001      	movs	r0, #1
   24d04:	7028      	strb	r0, [r5, #0]
   24d06:	6069      	str	r1, [r5, #4]
   24d08:	a816      	add	r0, sp, #88	@ 0x58
   24d0a:	7800      	ldrb	r0, [r0, #0]
   24d0c:	2802      	cmp	r0, #2
   24d0e:	d01a      	beq.n	24d46 <_ZN20complex_dynamic_type3app17hbed1b8741981af22E+0x9e>
   24d10:	2803      	cmp	r0, #3
   24d12:	d013      	beq.n	24d3c <_ZN20complex_dynamic_type3app17hbed1b8741981af22E+0x94>
   24d14:	482e      	ldr	r0, [pc, #184]	@ (24dd0 <_ZN20complex_dynamic_type3app17hbed1b8741981af22E+0x128>)
   24d16:	2105      	movs	r1, #5
   24d18:	2200      	movs	r2, #0
   24d1a:	4613      	mov	r3, r2
   24d1c:	df04      	svc	4
   24d1e:	e012      	b.n	24d46 <_ZN20complex_dynamic_type3app17hbed1b8741981af22E+0x9e>
   24d20:	a816      	add	r0, sp, #88	@ 0x58
   24d22:	2103      	movs	r1, #3
   24d24:	7001      	strb	r1, [r0, #0]
   24d26:	482a      	ldr	r0, [pc, #168]	@ (24dd0 <_ZN20complex_dynamic_type3app17hbed1b8741981af22E+0x128>)
   24d28:	2108      	movs	r1, #8
   24d2a:	2205      	movs	r2, #5
   24d2c:	2600      	movs	r6, #0
   24d2e:	4633      	mov	r3, r6
   24d30:	df02      	svc	2
   24d32:	287f      	cmp	r0, #127	@ 0x7f
   24d34:	d816      	bhi.n	24d64 <_ZN20complex_dynamic_type3app17hbed1b8741981af22E+0xbc>
   24d36:	2001      	movs	r0, #1
   24d38:	7028      	strb	r0, [r5, #0]
   24d3a:	6069      	str	r1, [r5, #4]
   24d3c:	4824      	ldr	r0, [pc, #144]	@ (24dd0 <_ZN20complex_dynamic_type3app17hbed1b8741981af22E+0x128>)
   24d3e:	2105      	movs	r1, #5
   24d40:	2200      	movs	r2, #0
   24d42:	4613      	mov	r3, r2
   24d44:	df03      	svc	3
   24d46:	a805      	add	r0, sp, #20
   24d48:	7804      	ldrb	r4, [r0, #0]
   24d4a:	2c02      	cmp	r4, #2
   24d4c:	d008      	beq.n	24d60 <_ZN20complex_dynamic_type3app17hbed1b8741981af22E+0xb8>
   24d4e:	4820      	ldr	r0, [pc, #128]	@ (24dd0 <_ZN20complex_dynamic_type3app17hbed1b8741981af22E+0x128>)
   24d50:	2108      	movs	r1, #8
   24d52:	2200      	movs	r2, #0
   24d54:	4613      	mov	r3, r2
   24d56:	2c03      	cmp	r4, #3
   24d58:	d101      	bne.n	24d5e <_ZN20complex_dynamic_type3app17hbed1b8741981af22E+0xb6>
   24d5a:	df03      	svc	3
   24d5c:	e000      	b.n	24d60 <_ZN20complex_dynamic_type3app17hbed1b8741981af22E+0xb8>
   24d5e:	df04      	svc	4
   24d60:	b023      	add	sp, #140	@ 0x8c
   24d62:	bdf0      	pop	{r4, r5, r6, r7, pc}
   24d64:	a805      	add	r0, sp, #20
   24d66:	7800      	ldrb	r0, [r0, #0]
   24d68:	2802      	cmp	r0, #2
   24d6a:	d01c      	beq.n	24da6 <_ZN20complex_dynamic_type3app17hbed1b8741981af22E+0xfe>
   24d6c:	2803      	cmp	r0, #3
   24d6e:	d105      	bne.n	24d7c <_ZN20complex_dynamic_type3app17hbed1b8741981af22E+0xd4>
   24d70:	4817      	ldr	r0, [pc, #92]	@ (24dd0 <_ZN20complex_dynamic_type3app17hbed1b8741981af22E+0x128>)
   24d72:	2108      	movs	r1, #8
   24d74:	2200      	movs	r2, #0
   24d76:	4613      	mov	r3, r2
   24d78:	df03      	svc	3
   24d7a:	e004      	b.n	24d86 <_ZN20complex_dynamic_type3app17hbed1b8741981af22E+0xde>
   24d7c:	4814      	ldr	r0, [pc, #80]	@ (24dd0 <_ZN20complex_dynamic_type3app17hbed1b8741981af22E+0x128>)
   24d7e:	2108      	movs	r1, #8
   24d80:	2200      	movs	r2, #0
   24d82:	4613      	mov	r3, r2
   24d84:	df04      	svc	4
   24d86:	a805      	add	r0, sp, #20
   24d88:	9901      	ldr	r1, [sp, #4]
   24d8a:	7001      	strb	r1, [r0, #0]
   24d8c:	a816      	add	r0, sp, #88	@ 0x58
   24d8e:	7800      	ldrb	r0, [r0, #0]
   24d90:	2803      	cmp	r0, #3
   24d92:	d008      	beq.n	24da6 <_ZN20complex_dynamic_type3app17hbed1b8741981af22E+0xfe>
   24d94:	2802      	cmp	r0, #2
   24d96:	d10c      	bne.n	24db2 <_ZN20complex_dynamic_type3app17hbed1b8741981af22E+0x10a>
   24d98:	1c68      	adds	r0, r5, #1
   24d9a:	2231      	movs	r2, #49	@ 0x31
   24d9c:	4621      	mov	r1, r4
   24d9e:	f005 fbed 	bl	2a57c <__aeabi_memcpy>
   24da2:	702e      	strb	r6, [r5, #0]
   24da4:	e7dc      	b.n	24d60 <_ZN20complex_dynamic_type3app17hbed1b8741981af22E+0xb8>
   24da6:	480a      	ldr	r0, [pc, #40]	@ (24dd0 <_ZN20complex_dynamic_type3app17hbed1b8741981af22E+0x128>)
   24da8:	2105      	movs	r1, #5
   24daa:	2200      	movs	r2, #0
   24dac:	4613      	mov	r3, r2
   24dae:	df03      	svc	3
   24db0:	e004      	b.n	24dbc <_ZN20complex_dynamic_type3app17hbed1b8741981af22E+0x114>
   24db2:	4807      	ldr	r0, [pc, #28]	@ (24dd0 <_ZN20complex_dynamic_type3app17hbed1b8741981af22E+0x128>)
   24db4:	2105      	movs	r1, #5
   24db6:	2200      	movs	r2, #0
   24db8:	4613      	mov	r3, r2
   24dba:	df04      	svc	4
   24dbc:	a805      	add	r0, sp, #20
   24dbe:	7804      	ldrb	r4, [r0, #0]
   24dc0:	1c68      	adds	r0, r5, #1
   24dc2:	2231      	movs	r2, #49	@ 0x31
   24dc4:	9902      	ldr	r1, [sp, #8]
   24dc6:	f005 fbd9 	bl	2a57c <__aeabi_memcpy>
   24dca:	702e      	strb	r6, [r5, #0]
   24dcc:	e7bd      	b.n	24d4a <_ZN20complex_dynamic_type3app17hbed1b8741981af22E+0xa2>
   24dce:	46c0      	nop			@ (mov r8, r8)
   24dd0:	00000fce 	.word	0x00000fce

00024dd4 <_ZN20complex_dynamic_type3app17hc07d22258c8d3d5cE>:
   24dd4:	b5f0      	push	{r4, r5, r6, r7, lr}
   24dd6:	af03      	add	r7, sp, #12
   24dd8:	b09d      	sub	sp, #116	@ 0x74
   24dda:	9003      	str	r0, [sp, #12]
   24ddc:	a804      	add	r0, sp, #16
   24dde:	2402      	movs	r4, #2
   24de0:	7004      	strb	r4, [r0, #0]
   24de2:	1c46      	adds	r6, r0, #1
   24de4:	223b      	movs	r2, #59	@ 0x3b
   24de6:	9202      	str	r2, [sp, #8]
   24de8:	4630      	mov	r0, r6
   24dea:	f005 fbc7 	bl	2a57c <__aeabi_memcpy>
   24dee:	ad13      	add	r5, sp, #76	@ 0x4c
   24df0:	1c68      	adds	r0, r5, #1
   24df2:	2127      	movs	r1, #39	@ 0x27
   24df4:	9001      	str	r0, [sp, #4]
   24df6:	f005 fa01 	bl	2a1fc <__aeabi_memclr>
   24dfa:	9400      	str	r4, [sp, #0]
   24dfc:	702c      	strb	r4, [r5, #0]
   24dfe:	483e      	ldr	r0, [pc, #248]	@ (24ef8 <_ZN20complex_dynamic_type3app17hc07d22258c8d3d5cE+0x124>)
   24e00:	2105      	movs	r1, #5
   24e02:	4632      	mov	r2, r6
   24e04:	9b02      	ldr	r3, [sp, #8]
   24e06:	df04      	svc	4
   24e08:	2802      	cmp	r0, #2
   24e0a:	d104      	bne.n	24e16 <_ZN20complex_dynamic_type3app17hc07d22258c8d3d5cE+0x42>
   24e0c:	2001      	movs	r0, #1
   24e0e:	9a03      	ldr	r2, [sp, #12]
   24e10:	7010      	strb	r0, [r2, #0]
   24e12:	6051      	str	r1, [r2, #4]
   24e14:	e02c      	b.n	24e70 <_ZN20complex_dynamic_type3app17hc07d22258c8d3d5cE+0x9c>
   24e16:	9d03      	ldr	r5, [sp, #12]
   24e18:	a804      	add	r0, sp, #16
   24e1a:	2104      	movs	r1, #4
   24e1c:	7001      	strb	r1, [r0, #0]
   24e1e:	4836      	ldr	r0, [pc, #216]	@ (24ef8 <_ZN20complex_dynamic_type3app17hc07d22258c8d3d5cE+0x124>)
   24e20:	2403      	movs	r4, #3
   24e22:	2327      	movs	r3, #39	@ 0x27
   24e24:	4621      	mov	r1, r4
   24e26:	9a01      	ldr	r2, [sp, #4]
   24e28:	df03      	svc	3
   24e2a:	2802      	cmp	r0, #2
   24e2c:	d10e      	bne.n	24e4c <_ZN20complex_dynamic_type3app17hc07d22258c8d3d5cE+0x78>
   24e2e:	2001      	movs	r0, #1
   24e30:	7028      	strb	r0, [r5, #0]
   24e32:	6069      	str	r1, [r5, #4]
   24e34:	a813      	add	r0, sp, #76	@ 0x4c
   24e36:	7800      	ldrb	r0, [r0, #0]
   24e38:	2802      	cmp	r0, #2
   24e3a:	d019      	beq.n	24e70 <_ZN20complex_dynamic_type3app17hc07d22258c8d3d5cE+0x9c>
   24e3c:	2803      	cmp	r0, #3
   24e3e:	d012      	beq.n	24e66 <_ZN20complex_dynamic_type3app17hc07d22258c8d3d5cE+0x92>
   24e40:	482d      	ldr	r0, [pc, #180]	@ (24ef8 <_ZN20complex_dynamic_type3app17hc07d22258c8d3d5cE+0x124>)
   24e42:	2103      	movs	r1, #3
   24e44:	2200      	movs	r2, #0
   24e46:	4613      	mov	r3, r2
   24e48:	df04      	svc	4
   24e4a:	e011      	b.n	24e70 <_ZN20complex_dynamic_type3app17hc07d22258c8d3d5cE+0x9c>
   24e4c:	a813      	add	r0, sp, #76	@ 0x4c
   24e4e:	7004      	strb	r4, [r0, #0]
   24e50:	4829      	ldr	r0, [pc, #164]	@ (24ef8 <_ZN20complex_dynamic_type3app17hc07d22258c8d3d5cE+0x124>)
   24e52:	2105      	movs	r1, #5
   24e54:	2600      	movs	r6, #0
   24e56:	4622      	mov	r2, r4
   24e58:	4633      	mov	r3, r6
   24e5a:	df02      	svc	2
   24e5c:	287f      	cmp	r0, #127	@ 0x7f
   24e5e:	d816      	bhi.n	24e8e <_ZN20complex_dynamic_type3app17hc07d22258c8d3d5cE+0xba>
   24e60:	2001      	movs	r0, #1
   24e62:	7028      	strb	r0, [r5, #0]
   24e64:	6069      	str	r1, [r5, #4]
   24e66:	4824      	ldr	r0, [pc, #144]	@ (24ef8 <_ZN20complex_dynamic_type3app17hc07d22258c8d3d5cE+0x124>)
   24e68:	2103      	movs	r1, #3
   24e6a:	2200      	movs	r2, #0
   24e6c:	4613      	mov	r3, r2
   24e6e:	df03      	svc	3
   24e70:	a804      	add	r0, sp, #16
   24e72:	7804      	ldrb	r4, [r0, #0]
   24e74:	2c02      	cmp	r4, #2
   24e76:	d008      	beq.n	24e8a <_ZN20complex_dynamic_type3app17hc07d22258c8d3d5cE+0xb6>
   24e78:	481f      	ldr	r0, [pc, #124]	@ (24ef8 <_ZN20complex_dynamic_type3app17hc07d22258c8d3d5cE+0x124>)
   24e7a:	2105      	movs	r1, #5
   24e7c:	2200      	movs	r2, #0
   24e7e:	4613      	mov	r3, r2
   24e80:	2c03      	cmp	r4, #3
   24e82:	d101      	bne.n	24e88 <_ZN20complex_dynamic_type3app17hc07d22258c8d3d5cE+0xb4>
   24e84:	df03      	svc	3
   24e86:	e000      	b.n	24e8a <_ZN20complex_dynamic_type3app17hc07d22258c8d3d5cE+0xb6>
   24e88:	df04      	svc	4
   24e8a:	b01d      	add	sp, #116	@ 0x74
   24e8c:	bdf0      	pop	{r4, r5, r6, r7, pc}
   24e8e:	a804      	add	r0, sp, #16
   24e90:	7800      	ldrb	r0, [r0, #0]
   24e92:	2802      	cmp	r0, #2
   24e94:	d01c      	beq.n	24ed0 <_ZN20complex_dynamic_type3app17hc07d22258c8d3d5cE+0xfc>
   24e96:	2803      	cmp	r0, #3
   24e98:	d105      	bne.n	24ea6 <_ZN20complex_dynamic_type3app17hc07d22258c8d3d5cE+0xd2>
   24e9a:	4817      	ldr	r0, [pc, #92]	@ (24ef8 <_ZN20complex_dynamic_type3app17hc07d22258c8d3d5cE+0x124>)
   24e9c:	2105      	movs	r1, #5
   24e9e:	2200      	movs	r2, #0
   24ea0:	4613      	mov	r3, r2
   24ea2:	df03      	svc	3
   24ea4:	e004      	b.n	24eb0 <_ZN20complex_dynamic_type3app17hc07d22258c8d3d5cE+0xdc>
   24ea6:	4814      	ldr	r0, [pc, #80]	@ (24ef8 <_ZN20complex_dynamic_type3app17hc07d22258c8d3d5cE+0x124>)
   24ea8:	2105      	movs	r1, #5
   24eaa:	2200      	movs	r2, #0
   24eac:	4613      	mov	r3, r2
   24eae:	df04      	svc	4
   24eb0:	9900      	ldr	r1, [sp, #0]
   24eb2:	a804      	add	r0, sp, #16
   24eb4:	7001      	strb	r1, [r0, #0]
   24eb6:	a813      	add	r0, sp, #76	@ 0x4c
   24eb8:	7800      	ldrb	r0, [r0, #0]
   24eba:	2803      	cmp	r0, #3
   24ebc:	d008      	beq.n	24ed0 <_ZN20complex_dynamic_type3app17hc07d22258c8d3d5cE+0xfc>
   24ebe:	2802      	cmp	r0, #2
   24ec0:	d10c      	bne.n	24edc <_ZN20complex_dynamic_type3app17hc07d22258c8d3d5cE+0x108>
   24ec2:	1c68      	adds	r0, r5, #1
   24ec4:	2227      	movs	r2, #39	@ 0x27
   24ec6:	9901      	ldr	r1, [sp, #4]
   24ec8:	f005 fb58 	bl	2a57c <__aeabi_memcpy>
   24ecc:	702e      	strb	r6, [r5, #0]
   24ece:	e7dc      	b.n	24e8a <_ZN20complex_dynamic_type3app17hc07d22258c8d3d5cE+0xb6>
   24ed0:	4809      	ldr	r0, [pc, #36]	@ (24ef8 <_ZN20complex_dynamic_type3app17hc07d22258c8d3d5cE+0x124>)
   24ed2:	2103      	movs	r1, #3
   24ed4:	2200      	movs	r2, #0
   24ed6:	4613      	mov	r3, r2
   24ed8:	df03      	svc	3
   24eda:	e004      	b.n	24ee6 <_ZN20complex_dynamic_type3app17hc07d22258c8d3d5cE+0x112>
   24edc:	4806      	ldr	r0, [pc, #24]	@ (24ef8 <_ZN20complex_dynamic_type3app17hc07d22258c8d3d5cE+0x124>)
   24ede:	2103      	movs	r1, #3
   24ee0:	2200      	movs	r2, #0
   24ee2:	4613      	mov	r3, r2
   24ee4:	df04      	svc	4
   24ee6:	a804      	add	r0, sp, #16
   24ee8:	7804      	ldrb	r4, [r0, #0]
   24eea:	1c68      	adds	r0, r5, #1
   24eec:	2227      	movs	r2, #39	@ 0x27
   24eee:	9901      	ldr	r1, [sp, #4]
   24ef0:	f005 fb44 	bl	2a57c <__aeabi_memcpy>
   24ef4:	702e      	strb	r6, [r5, #0]
   24ef6:	e7bd      	b.n	24e74 <_ZN20complex_dynamic_type3app17hc07d22258c8d3d5cE+0xa0>
   24ef8:	00000bd3 	.word	0x00000bd3

00024efc <_ZN20complex_dynamic_type3app17hc3a74ab33074c723E>:
   24efc:	b5f0      	push	{r4, r5, r6, r7, lr}
   24efe:	af03      	add	r7, sp, #12
   24f00:	b099      	sub	sp, #100	@ 0x64
   24f02:	9004      	str	r0, [sp, #16]
   24f04:	a805      	add	r0, sp, #20
   24f06:	2402      	movs	r4, #2
   24f08:	7004      	strb	r4, [r0, #0]
   24f0a:	1c40      	adds	r0, r0, #1
   24f0c:	9003      	str	r0, [sp, #12]
   24f0e:	2521      	movs	r5, #33	@ 0x21
   24f10:	462a      	mov	r2, r5
   24f12:	f005 fb33 	bl	2a57c <__aeabi_memcpy>
   24f16:	ae0e      	add	r6, sp, #56	@ 0x38
   24f18:	1c70      	adds	r0, r6, #1
   24f1a:	212a      	movs	r1, #42	@ 0x2a
   24f1c:	9002      	str	r0, [sp, #8]
   24f1e:	f005 f96d 	bl	2a1fc <__aeabi_memclr>
   24f22:	9401      	str	r4, [sp, #4]
   24f24:	7034      	strb	r4, [r6, #0]
   24f26:	483f      	ldr	r0, [pc, #252]	@ (25024 <_ZN20complex_dynamic_type3app17hc3a74ab33074c723E+0x128>)
   24f28:	2601      	movs	r6, #1
   24f2a:	4631      	mov	r1, r6
   24f2c:	9a03      	ldr	r2, [sp, #12]
   24f2e:	462b      	mov	r3, r5
   24f30:	df04      	svc	4
   24f32:	2802      	cmp	r0, #2
   24f34:	d103      	bne.n	24f3e <_ZN20complex_dynamic_type3app17hc3a74ab33074c723E+0x42>
   24f36:	9804      	ldr	r0, [sp, #16]
   24f38:	7006      	strb	r6, [r0, #0]
   24f3a:	6041      	str	r1, [r0, #4]
   24f3c:	e02c      	b.n	24f98 <_ZN20complex_dynamic_type3app17hc3a74ab33074c723E+0x9c>
   24f3e:	a805      	add	r0, sp, #20
   24f40:	2104      	movs	r1, #4
   24f42:	7001      	strb	r1, [r0, #0]
   24f44:	4837      	ldr	r0, [pc, #220]	@ (25024 <_ZN20complex_dynamic_type3app17hc3a74ab33074c723E+0x128>)
   24f46:	2403      	movs	r4, #3
   24f48:	232a      	movs	r3, #42	@ 0x2a
   24f4a:	4621      	mov	r1, r4
   24f4c:	9a02      	ldr	r2, [sp, #8]
   24f4e:	df03      	svc	3
   24f50:	2802      	cmp	r0, #2
   24f52:	d10e      	bne.n	24f72 <_ZN20complex_dynamic_type3app17hc3a74ab33074c723E+0x76>
   24f54:	9804      	ldr	r0, [sp, #16]
   24f56:	7006      	strb	r6, [r0, #0]
   24f58:	6041      	str	r1, [r0, #4]
   24f5a:	a80e      	add	r0, sp, #56	@ 0x38
   24f5c:	7800      	ldrb	r0, [r0, #0]
   24f5e:	2802      	cmp	r0, #2
   24f60:	d01a      	beq.n	24f98 <_ZN20complex_dynamic_type3app17hc3a74ab33074c723E+0x9c>
   24f62:	2803      	cmp	r0, #3
   24f64:	d013      	beq.n	24f8e <_ZN20complex_dynamic_type3app17hc3a74ab33074c723E+0x92>
   24f66:	482f      	ldr	r0, [pc, #188]	@ (25024 <_ZN20complex_dynamic_type3app17hc3a74ab33074c723E+0x128>)
   24f68:	2103      	movs	r1, #3
   24f6a:	2200      	movs	r2, #0
   24f6c:	4613      	mov	r3, r2
   24f6e:	df04      	svc	4
   24f70:	e012      	b.n	24f98 <_ZN20complex_dynamic_type3app17hc3a74ab33074c723E+0x9c>
   24f72:	a80e      	add	r0, sp, #56	@ 0x38
   24f74:	7004      	strb	r4, [r0, #0]
   24f76:	482b      	ldr	r0, [pc, #172]	@ (25024 <_ZN20complex_dynamic_type3app17hc3a74ab33074c723E+0x128>)
   24f78:	2501      	movs	r5, #1
   24f7a:	2600      	movs	r6, #0
   24f7c:	4629      	mov	r1, r5
   24f7e:	4622      	mov	r2, r4
   24f80:	4633      	mov	r3, r6
   24f82:	df02      	svc	2
   24f84:	287f      	cmp	r0, #127	@ 0x7f
   24f86:	d816      	bhi.n	24fb6 <_ZN20complex_dynamic_type3app17hc3a74ab33074c723E+0xba>
   24f88:	9804      	ldr	r0, [sp, #16]
   24f8a:	7005      	strb	r5, [r0, #0]
   24f8c:	6041      	str	r1, [r0, #4]
   24f8e:	4825      	ldr	r0, [pc, #148]	@ (25024 <_ZN20complex_dynamic_type3app17hc3a74ab33074c723E+0x128>)
   24f90:	2103      	movs	r1, #3
   24f92:	2200      	movs	r2, #0
   24f94:	4613      	mov	r3, r2
   24f96:	df03      	svc	3
   24f98:	a805      	add	r0, sp, #20
   24f9a:	7804      	ldrb	r4, [r0, #0]
   24f9c:	2c02      	cmp	r4, #2
   24f9e:	d008      	beq.n	24fb2 <_ZN20complex_dynamic_type3app17hc3a74ab33074c723E+0xb6>
   24fa0:	4820      	ldr	r0, [pc, #128]	@ (25024 <_ZN20complex_dynamic_type3app17hc3a74ab33074c723E+0x128>)
   24fa2:	2101      	movs	r1, #1
   24fa4:	2200      	movs	r2, #0
   24fa6:	4613      	mov	r3, r2
   24fa8:	2c03      	cmp	r4, #3
   24faa:	d101      	bne.n	24fb0 <_ZN20complex_dynamic_type3app17hc3a74ab33074c723E+0xb4>
   24fac:	df03      	svc	3
   24fae:	e000      	b.n	24fb2 <_ZN20complex_dynamic_type3app17hc3a74ab33074c723E+0xb6>
   24fb0:	df04      	svc	4
   24fb2:	b019      	add	sp, #100	@ 0x64
   24fb4:	bdf0      	pop	{r4, r5, r6, r7, pc}
   24fb6:	a805      	add	r0, sp, #20
   24fb8:	7800      	ldrb	r0, [r0, #0]
   24fba:	2802      	cmp	r0, #2
   24fbc:	9d04      	ldr	r5, [sp, #16]
   24fbe:	d01c      	beq.n	24ffa <_ZN20complex_dynamic_type3app17hc3a74ab33074c723E+0xfe>
   24fc0:	2803      	cmp	r0, #3
   24fc2:	d105      	bne.n	24fd0 <_ZN20complex_dynamic_type3app17hc3a74ab33074c723E+0xd4>
   24fc4:	4817      	ldr	r0, [pc, #92]	@ (25024 <_ZN20complex_dynamic_type3app17hc3a74ab33074c723E+0x128>)
   24fc6:	2101      	movs	r1, #1
   24fc8:	2200      	movs	r2, #0
   24fca:	4613      	mov	r3, r2
   24fcc:	df03      	svc	3
   24fce:	e004      	b.n	24fda <_ZN20complex_dynamic_type3app17hc3a74ab33074c723E+0xde>
   24fd0:	4814      	ldr	r0, [pc, #80]	@ (25024 <_ZN20complex_dynamic_type3app17hc3a74ab33074c723E+0x128>)
   24fd2:	2101      	movs	r1, #1
   24fd4:	2200      	movs	r2, #0
   24fd6:	4613      	mov	r3, r2
   24fd8:	df04      	svc	4
   24fda:	9901      	ldr	r1, [sp, #4]
   24fdc:	a805      	add	r0, sp, #20
   24fde:	7001      	strb	r1, [r0, #0]
   24fe0:	a80e      	add	r0, sp, #56	@ 0x38
   24fe2:	7800      	ldrb	r0, [r0, #0]
   24fe4:	2803      	cmp	r0, #3
   24fe6:	d008      	beq.n	24ffa <_ZN20complex_dynamic_type3app17hc3a74ab33074c723E+0xfe>
   24fe8:	2802      	cmp	r0, #2
   24fea:	d10c      	bne.n	25006 <_ZN20complex_dynamic_type3app17hc3a74ab33074c723E+0x10a>
   24fec:	1c68      	adds	r0, r5, #1
   24fee:	222a      	movs	r2, #42	@ 0x2a
   24ff0:	9902      	ldr	r1, [sp, #8]
   24ff2:	f005 fac3 	bl	2a57c <__aeabi_memcpy>
   24ff6:	702e      	strb	r6, [r5, #0]
   24ff8:	e7db      	b.n	24fb2 <_ZN20complex_dynamic_type3app17hc3a74ab33074c723E+0xb6>
   24ffa:	480a      	ldr	r0, [pc, #40]	@ (25024 <_ZN20complex_dynamic_type3app17hc3a74ab33074c723E+0x128>)
   24ffc:	2103      	movs	r1, #3
   24ffe:	2200      	movs	r2, #0
   25000:	4613      	mov	r3, r2
   25002:	df03      	svc	3
   25004:	e004      	b.n	25010 <_ZN20complex_dynamic_type3app17hc3a74ab33074c723E+0x114>
   25006:	4807      	ldr	r0, [pc, #28]	@ (25024 <_ZN20complex_dynamic_type3app17hc3a74ab33074c723E+0x128>)
   25008:	2103      	movs	r1, #3
   2500a:	2200      	movs	r2, #0
   2500c:	4613      	mov	r3, r2
   2500e:	df04      	svc	4
   25010:	a805      	add	r0, sp, #20
   25012:	7804      	ldrb	r4, [r0, #0]
   25014:	1c68      	adds	r0, r5, #1
   25016:	222a      	movs	r2, #42	@ 0x2a
   25018:	9902      	ldr	r1, [sp, #8]
   2501a:	f005 faaf 	bl	2a57c <__aeabi_memcpy>
   2501e:	702e      	strb	r6, [r5, #0]
   25020:	e7bc      	b.n	24f9c <_ZN20complex_dynamic_type3app17hc3a74ab33074c723E+0xa0>
   25022:	46c0      	nop			@ (mov r8, r8)
   25024:	000015f3 	.word	0x000015f3

00025028 <_ZN20complex_dynamic_type3app17hc49dbc59ba969a3fE>:
   25028:	b5f0      	push	{r4, r5, r6, r7, lr}
   2502a:	af03      	add	r7, sp, #12
   2502c:	b09f      	sub	sp, #124	@ 0x7c
   2502e:	9003      	str	r0, [sp, #12]
   25030:	ae04      	add	r6, sp, #16
   25032:	2002      	movs	r0, #2
   25034:	9002      	str	r0, [sp, #8]
   25036:	7030      	strb	r0, [r6, #0]
   25038:	1c70      	adds	r0, r6, #1
   2503a:	2555      	movs	r5, #85	@ 0x55
   2503c:	462a      	mov	r2, r5
   2503e:	f005 fa9d 	bl	2a57c <__aeabi_memcpy>
   25042:	ac1a      	add	r4, sp, #104	@ 0x68
   25044:	1c60      	adds	r0, r4, #1
   25046:	2111      	movs	r1, #17
   25048:	9001      	str	r0, [sp, #4]
   2504a:	f005 f8d7 	bl	2a1fc <__aeabi_memclr>
   2504e:	9802      	ldr	r0, [sp, #8]
   25050:	7020      	strb	r0, [r4, #0]
   25052:	2204      	movs	r2, #4
   25054:	4630      	mov	r0, r6
   25056:	4629      	mov	r1, r5
   25058:	f7fb f89e 	bl	20198 <_ZN9allow_pin12dynamic_type23Buffer$LT$B$C$_$C$_$GT$5allow17h44e8705f88810bc2E>
   2505c:	07c0      	lsls	r0, r0, #31
   2505e:	d10f      	bne.n	25080 <_ZN20complex_dynamic_type3app17hc49dbc59ba969a3fE+0x58>
   25060:	a81a      	add	r0, sp, #104	@ 0x68
   25062:	2111      	movs	r1, #17
   25064:	2203      	movs	r2, #3
   25066:	f7fb f897 	bl	20198 <_ZN9allow_pin12dynamic_type23Buffer$LT$B$C$_$C$_$GT$5allow17h44e8705f88810bc2E>
   2506a:	07c0      	lsls	r0, r0, #31
   2506c:	d108      	bne.n	25080 <_ZN20complex_dynamic_type3app17hc49dbc59ba969a3fE+0x58>
   2506e:	4832      	ldr	r0, [pc, #200]	@ (25138 <_ZN20complex_dynamic_type3app17hc49dbc59ba969a3fE+0x110>)
   25070:	2602      	movs	r6, #2
   25072:	2500      	movs	r5, #0
   25074:	4631      	mov	r1, r6
   25076:	4632      	mov	r2, r6
   25078:	462b      	mov	r3, r5
   2507a:	df02      	svc	2
   2507c:	287f      	cmp	r0, #127	@ 0x7f
   2507e:	d823      	bhi.n	250c8 <_ZN20complex_dynamic_type3app17hc49dbc59ba969a3fE+0xa0>
   25080:	2001      	movs	r0, #1
   25082:	9a03      	ldr	r2, [sp, #12]
   25084:	7010      	strb	r0, [r2, #0]
   25086:	6051      	str	r1, [r2, #4]
   25088:	a81a      	add	r0, sp, #104	@ 0x68
   2508a:	7800      	ldrb	r0, [r0, #0]
   2508c:	2802      	cmp	r0, #2
   2508e:	d00c      	beq.n	250aa <_ZN20complex_dynamic_type3app17hc49dbc59ba969a3fE+0x82>
   25090:	2803      	cmp	r0, #3
   25092:	d105      	bne.n	250a0 <_ZN20complex_dynamic_type3app17hc49dbc59ba969a3fE+0x78>
   25094:	4828      	ldr	r0, [pc, #160]	@ (25138 <_ZN20complex_dynamic_type3app17hc49dbc59ba969a3fE+0x110>)
   25096:	2102      	movs	r1, #2
   25098:	2200      	movs	r2, #0
   2509a:	4613      	mov	r3, r2
   2509c:	df03      	svc	3
   2509e:	e004      	b.n	250aa <_ZN20complex_dynamic_type3app17hc49dbc59ba969a3fE+0x82>
   250a0:	4825      	ldr	r0, [pc, #148]	@ (25138 <_ZN20complex_dynamic_type3app17hc49dbc59ba969a3fE+0x110>)
   250a2:	2102      	movs	r1, #2
   250a4:	2200      	movs	r2, #0
   250a6:	4613      	mov	r3, r2
   250a8:	df04      	svc	4
   250aa:	a804      	add	r0, sp, #16
   250ac:	7805      	ldrb	r5, [r0, #0]
   250ae:	2d02      	cmp	r5, #2
   250b0:	d008      	beq.n	250c4 <_ZN20complex_dynamic_type3app17hc49dbc59ba969a3fE+0x9c>
   250b2:	4821      	ldr	r0, [pc, #132]	@ (25138 <_ZN20complex_dynamic_type3app17hc49dbc59ba969a3fE+0x110>)
   250b4:	2102      	movs	r1, #2
   250b6:	2200      	movs	r2, #0
   250b8:	4613      	mov	r3, r2
   250ba:	2d03      	cmp	r5, #3
   250bc:	d101      	bne.n	250c2 <_ZN20complex_dynamic_type3app17hc49dbc59ba969a3fE+0x9a>
   250be:	df03      	svc	3
   250c0:	e000      	b.n	250c4 <_ZN20complex_dynamic_type3app17hc49dbc59ba969a3fE+0x9c>
   250c2:	df04      	svc	4
   250c4:	b01f      	add	sp, #124	@ 0x7c
   250c6:	bdf0      	pop	{r4, r5, r6, r7, pc}
   250c8:	a804      	add	r0, sp, #16
   250ca:	7800      	ldrb	r0, [r0, #0]
   250cc:	2802      	cmp	r0, #2
   250ce:	d00c      	beq.n	250ea <_ZN20complex_dynamic_type3app17hc49dbc59ba969a3fE+0xc2>
   250d0:	2803      	cmp	r0, #3
   250d2:	d105      	bne.n	250e0 <_ZN20complex_dynamic_type3app17hc49dbc59ba969a3fE+0xb8>
   250d4:	4818      	ldr	r0, [pc, #96]	@ (25138 <_ZN20complex_dynamic_type3app17hc49dbc59ba969a3fE+0x110>)
   250d6:	2102      	movs	r1, #2
   250d8:	2200      	movs	r2, #0
   250da:	4613      	mov	r3, r2
   250dc:	df03      	svc	3
   250de:	e004      	b.n	250ea <_ZN20complex_dynamic_type3app17hc49dbc59ba969a3fE+0xc2>
   250e0:	4815      	ldr	r0, [pc, #84]	@ (25138 <_ZN20complex_dynamic_type3app17hc49dbc59ba969a3fE+0x110>)
   250e2:	2102      	movs	r1, #2
   250e4:	2200      	movs	r2, #0
   250e6:	4613      	mov	r3, r2
   250e8:	df04      	svc	4
   250ea:	a804      	add	r0, sp, #16
   250ec:	7006      	strb	r6, [r0, #0]
   250ee:	a81a      	add	r0, sp, #104	@ 0x68
   250f0:	7800      	ldrb	r0, [r0, #0]
   250f2:	2803      	cmp	r0, #3
   250f4:	d009      	beq.n	2510a <_ZN20complex_dynamic_type3app17hc49dbc59ba969a3fE+0xe2>
   250f6:	2802      	cmp	r0, #2
   250f8:	d10e      	bne.n	25118 <_ZN20complex_dynamic_type3app17hc49dbc59ba969a3fE+0xf0>
   250fa:	9c03      	ldr	r4, [sp, #12]
   250fc:	1c60      	adds	r0, r4, #1
   250fe:	2211      	movs	r2, #17
   25100:	9901      	ldr	r1, [sp, #4]
   25102:	f005 fa3b 	bl	2a57c <__aeabi_memcpy>
   25106:	7025      	strb	r5, [r4, #0]
   25108:	e7dc      	b.n	250c4 <_ZN20complex_dynamic_type3app17hc49dbc59ba969a3fE+0x9c>
   2510a:	462e      	mov	r6, r5
   2510c:	480a      	ldr	r0, [pc, #40]	@ (25138 <_ZN20complex_dynamic_type3app17hc49dbc59ba969a3fE+0x110>)
   2510e:	2102      	movs	r1, #2
   25110:	2200      	movs	r2, #0
   25112:	4613      	mov	r3, r2
   25114:	df03      	svc	3
   25116:	e005      	b.n	25124 <_ZN20complex_dynamic_type3app17hc49dbc59ba969a3fE+0xfc>
   25118:	462e      	mov	r6, r5
   2511a:	4807      	ldr	r0, [pc, #28]	@ (25138 <_ZN20complex_dynamic_type3app17hc49dbc59ba969a3fE+0x110>)
   2511c:	2102      	movs	r1, #2
   2511e:	2200      	movs	r2, #0
   25120:	4613      	mov	r3, r2
   25122:	df04      	svc	4
   25124:	a804      	add	r0, sp, #16
   25126:	7805      	ldrb	r5, [r0, #0]
   25128:	9c03      	ldr	r4, [sp, #12]
   2512a:	1c60      	adds	r0, r4, #1
   2512c:	2211      	movs	r2, #17
   2512e:	9901      	ldr	r1, [sp, #4]
   25130:	f005 fa24 	bl	2a57c <__aeabi_memcpy>
   25134:	7026      	strb	r6, [r4, #0]
   25136:	e7ba      	b.n	250ae <_ZN20complex_dynamic_type3app17hc49dbc59ba969a3fE+0x86>
   25138:	00000c89 	.word	0x00000c89

0002513c <_ZN20complex_dynamic_type3app17hc75caae27b36b35fE>:
   2513c:	b5f0      	push	{r4, r5, r6, r7, lr}
   2513e:	af03      	add	r7, sp, #12
   25140:	b0a5      	sub	sp, #148	@ 0x94
   25142:	9004      	str	r0, [sp, #16]
   25144:	a805      	add	r0, sp, #20
   25146:	2402      	movs	r4, #2
   25148:	7004      	strb	r4, [r0, #0]
   2514a:	1c46      	adds	r6, r0, #1
   2514c:	221c      	movs	r2, #28
   2514e:	9203      	str	r2, [sp, #12]
   25150:	4630      	mov	r0, r6
   25152:	f005 fa13 	bl	2a57c <__aeabi_memcpy>
   25156:	ad0d      	add	r5, sp, #52	@ 0x34
   25158:	1c68      	adds	r0, r5, #1
   2515a:	215d      	movs	r1, #93	@ 0x5d
   2515c:	9002      	str	r0, [sp, #8]
   2515e:	f005 f84d 	bl	2a1fc <__aeabi_memclr>
   25162:	9401      	str	r4, [sp, #4]
   25164:	702c      	strb	r4, [r5, #0]
   25166:	483f      	ldr	r0, [pc, #252]	@ (25264 <_ZN20complex_dynamic_type3app17hc75caae27b36b35fE+0x128>)
   25168:	2108      	movs	r1, #8
   2516a:	4632      	mov	r2, r6
   2516c:	9b03      	ldr	r3, [sp, #12]
   2516e:	df04      	svc	4
   25170:	2802      	cmp	r0, #2
   25172:	d104      	bne.n	2517e <_ZN20complex_dynamic_type3app17hc75caae27b36b35fE+0x42>
   25174:	2001      	movs	r0, #1
   25176:	9a04      	ldr	r2, [sp, #16]
   25178:	7010      	strb	r0, [r2, #0]
   2517a:	6051      	str	r1, [r2, #4]
   2517c:	e02d      	b.n	251da <_ZN20complex_dynamic_type3app17hc75caae27b36b35fE+0x9e>
   2517e:	9d04      	ldr	r5, [sp, #16]
   25180:	a805      	add	r0, sp, #20
   25182:	2104      	movs	r1, #4
   25184:	7001      	strb	r1, [r0, #0]
   25186:	4837      	ldr	r0, [pc, #220]	@ (25264 <_ZN20complex_dynamic_type3app17hc75caae27b36b35fE+0x128>)
   25188:	2105      	movs	r1, #5
   2518a:	235d      	movs	r3, #93	@ 0x5d
   2518c:	9c02      	ldr	r4, [sp, #8]
   2518e:	4622      	mov	r2, r4
   25190:	df03      	svc	3
   25192:	2802      	cmp	r0, #2
   25194:	d10e      	bne.n	251b4 <_ZN20complex_dynamic_type3app17hc75caae27b36b35fE+0x78>
   25196:	2001      	movs	r0, #1
   25198:	7028      	strb	r0, [r5, #0]
   2519a:	6069      	str	r1, [r5, #4]
   2519c:	a80d      	add	r0, sp, #52	@ 0x34
   2519e:	7800      	ldrb	r0, [r0, #0]
   251a0:	2802      	cmp	r0, #2
   251a2:	d01a      	beq.n	251da <_ZN20complex_dynamic_type3app17hc75caae27b36b35fE+0x9e>
   251a4:	2803      	cmp	r0, #3
   251a6:	d013      	beq.n	251d0 <_ZN20complex_dynamic_type3app17hc75caae27b36b35fE+0x94>
   251a8:	482e      	ldr	r0, [pc, #184]	@ (25264 <_ZN20complex_dynamic_type3app17hc75caae27b36b35fE+0x128>)
   251aa:	2105      	movs	r1, #5
   251ac:	2200      	movs	r2, #0
   251ae:	4613      	mov	r3, r2
   251b0:	df04      	svc	4
   251b2:	e012      	b.n	251da <_ZN20complex_dynamic_type3app17hc75caae27b36b35fE+0x9e>
   251b4:	a80d      	add	r0, sp, #52	@ 0x34
   251b6:	2103      	movs	r1, #3
   251b8:	7001      	strb	r1, [r0, #0]
   251ba:	482a      	ldr	r0, [pc, #168]	@ (25264 <_ZN20complex_dynamic_type3app17hc75caae27b36b35fE+0x128>)
   251bc:	2108      	movs	r1, #8
   251be:	2205      	movs	r2, #5
   251c0:	2600      	movs	r6, #0
   251c2:	4633      	mov	r3, r6
   251c4:	df02      	svc	2
   251c6:	287f      	cmp	r0, #127	@ 0x7f
   251c8:	d816      	bhi.n	251f8 <_ZN20complex_dynamic_type3app17hc75caae27b36b35fE+0xbc>
   251ca:	2001      	movs	r0, #1
   251cc:	7028      	strb	r0, [r5, #0]
   251ce:	6069      	str	r1, [r5, #4]
   251d0:	4824      	ldr	r0, [pc, #144]	@ (25264 <_ZN20complex_dynamic_type3app17hc75caae27b36b35fE+0x128>)
   251d2:	2105      	movs	r1, #5
   251d4:	2200      	movs	r2, #0
   251d6:	4613      	mov	r3, r2
   251d8:	df03      	svc	3
   251da:	a805      	add	r0, sp, #20
   251dc:	7804      	ldrb	r4, [r0, #0]
   251de:	2c02      	cmp	r4, #2
   251e0:	d008      	beq.n	251f4 <_ZN20complex_dynamic_type3app17hc75caae27b36b35fE+0xb8>
   251e2:	4820      	ldr	r0, [pc, #128]	@ (25264 <_ZN20complex_dynamic_type3app17hc75caae27b36b35fE+0x128>)
   251e4:	2108      	movs	r1, #8
   251e6:	2200      	movs	r2, #0
   251e8:	4613      	mov	r3, r2
   251ea:	2c03      	cmp	r4, #3
   251ec:	d101      	bne.n	251f2 <_ZN20complex_dynamic_type3app17hc75caae27b36b35fE+0xb6>
   251ee:	df03      	svc	3
   251f0:	e000      	b.n	251f4 <_ZN20complex_dynamic_type3app17hc75caae27b36b35fE+0xb8>
   251f2:	df04      	svc	4
   251f4:	b025      	add	sp, #148	@ 0x94
   251f6:	bdf0      	pop	{r4, r5, r6, r7, pc}
   251f8:	a805      	add	r0, sp, #20
   251fa:	7800      	ldrb	r0, [r0, #0]
   251fc:	2802      	cmp	r0, #2
   251fe:	d01c      	beq.n	2523a <_ZN20complex_dynamic_type3app17hc75caae27b36b35fE+0xfe>
   25200:	2803      	cmp	r0, #3
   25202:	d105      	bne.n	25210 <_ZN20complex_dynamic_type3app17hc75caae27b36b35fE+0xd4>
   25204:	4817      	ldr	r0, [pc, #92]	@ (25264 <_ZN20complex_dynamic_type3app17hc75caae27b36b35fE+0x128>)
   25206:	2108      	movs	r1, #8
   25208:	2200      	movs	r2, #0
   2520a:	4613      	mov	r3, r2
   2520c:	df03      	svc	3
   2520e:	e004      	b.n	2521a <_ZN20complex_dynamic_type3app17hc75caae27b36b35fE+0xde>
   25210:	4814      	ldr	r0, [pc, #80]	@ (25264 <_ZN20complex_dynamic_type3app17hc75caae27b36b35fE+0x128>)
   25212:	2108      	movs	r1, #8
   25214:	2200      	movs	r2, #0
   25216:	4613      	mov	r3, r2
   25218:	df04      	svc	4
   2521a:	a805      	add	r0, sp, #20
   2521c:	9901      	ldr	r1, [sp, #4]
   2521e:	7001      	strb	r1, [r0, #0]
   25220:	a80d      	add	r0, sp, #52	@ 0x34
   25222:	7800      	ldrb	r0, [r0, #0]
   25224:	2803      	cmp	r0, #3
   25226:	d008      	beq.n	2523a <_ZN20complex_dynamic_type3app17hc75caae27b36b35fE+0xfe>
   25228:	2802      	cmp	r0, #2
   2522a:	d10c      	bne.n	25246 <_ZN20complex_dynamic_type3app17hc75caae27b36b35fE+0x10a>
   2522c:	1c68      	adds	r0, r5, #1
   2522e:	225d      	movs	r2, #93	@ 0x5d
   25230:	4621      	mov	r1, r4
   25232:	f005 f9a3 	bl	2a57c <__aeabi_memcpy>
   25236:	702e      	strb	r6, [r5, #0]
   25238:	e7dc      	b.n	251f4 <_ZN20complex_dynamic_type3app17hc75caae27b36b35fE+0xb8>
   2523a:	480a      	ldr	r0, [pc, #40]	@ (25264 <_ZN20complex_dynamic_type3app17hc75caae27b36b35fE+0x128>)
   2523c:	2105      	movs	r1, #5
   2523e:	2200      	movs	r2, #0
   25240:	4613      	mov	r3, r2
   25242:	df03      	svc	3
   25244:	e004      	b.n	25250 <_ZN20complex_dynamic_type3app17hc75caae27b36b35fE+0x114>
   25246:	4807      	ldr	r0, [pc, #28]	@ (25264 <_ZN20complex_dynamic_type3app17hc75caae27b36b35fE+0x128>)
   25248:	2105      	movs	r1, #5
   2524a:	2200      	movs	r2, #0
   2524c:	4613      	mov	r3, r2
   2524e:	df04      	svc	4
   25250:	a805      	add	r0, sp, #20
   25252:	7804      	ldrb	r4, [r0, #0]
   25254:	1c68      	adds	r0, r5, #1
   25256:	225d      	movs	r2, #93	@ 0x5d
   25258:	9902      	ldr	r1, [sp, #8]
   2525a:	f005 f98f 	bl	2a57c <__aeabi_memcpy>
   2525e:	702e      	strb	r6, [r5, #0]
   25260:	e7bd      	b.n	251de <_ZN20complex_dynamic_type3app17hc75caae27b36b35fE+0xa2>
   25262:	46c0      	nop			@ (mov r8, r8)
   25264:	00000c3e 	.word	0x00000c3e

00025268 <_ZN20complex_dynamic_type3app17hc9289b14e3a7658fE>:
   25268:	b5f0      	push	{r4, r5, r6, r7, lr}
   2526a:	af03      	add	r7, sp, #12
   2526c:	b0a5      	sub	sp, #148	@ 0x94
   2526e:	9003      	str	r0, [sp, #12]
   25270:	a804      	add	r0, sp, #16
   25272:	2502      	movs	r5, #2
   25274:	7005      	strb	r5, [r0, #0]
   25276:	1c40      	adds	r0, r0, #1
   25278:	9002      	str	r0, [sp, #8]
   2527a:	2661      	movs	r6, #97	@ 0x61
   2527c:	4632      	mov	r2, r6
   2527e:	f005 f97d 	bl	2a57c <__aeabi_memcpy>
   25282:	ac1d      	add	r4, sp, #116	@ 0x74
   25284:	1c60      	adds	r0, r4, #1
   25286:	211e      	movs	r1, #30
   25288:	9001      	str	r0, [sp, #4]
   2528a:	f004 ffb7 	bl	2a1fc <__aeabi_memclr>
   2528e:	9500      	str	r5, [sp, #0]
   25290:	7025      	strb	r5, [r4, #0]
   25292:	2031      	movs	r0, #49	@ 0x31
   25294:	00c5      	lsls	r5, r0, #3
   25296:	2404      	movs	r4, #4
   25298:	4628      	mov	r0, r5
   2529a:	4621      	mov	r1, r4
   2529c:	9a02      	ldr	r2, [sp, #8]
   2529e:	4633      	mov	r3, r6
   252a0:	df04      	svc	4
   252a2:	2802      	cmp	r0, #2
   252a4:	d104      	bne.n	252b0 <_ZN20complex_dynamic_type3app17hc9289b14e3a7658fE+0x48>
   252a6:	2001      	movs	r0, #1
   252a8:	9a03      	ldr	r2, [sp, #12]
   252aa:	7010      	strb	r0, [r2, #0]
   252ac:	6051      	str	r1, [r2, #4]
   252ae:	e02c      	b.n	2530a <_ZN20complex_dynamic_type3app17hc9289b14e3a7658fE+0xa2>
   252b0:	9e03      	ldr	r6, [sp, #12]
   252b2:	a804      	add	r0, sp, #16
   252b4:	7004      	strb	r4, [r0, #0]
   252b6:	2106      	movs	r1, #6
   252b8:	231e      	movs	r3, #30
   252ba:	4628      	mov	r0, r5
   252bc:	9c01      	ldr	r4, [sp, #4]
   252be:	4622      	mov	r2, r4
   252c0:	df03      	svc	3
   252c2:	2802      	cmp	r0, #2
   252c4:	d10e      	bne.n	252e4 <_ZN20complex_dynamic_type3app17hc9289b14e3a7658fE+0x7c>
   252c6:	2001      	movs	r0, #1
   252c8:	7030      	strb	r0, [r6, #0]
   252ca:	6071      	str	r1, [r6, #4]
   252cc:	a81d      	add	r0, sp, #116	@ 0x74
   252ce:	7800      	ldrb	r0, [r0, #0]
   252d0:	2802      	cmp	r0, #2
   252d2:	d01a      	beq.n	2530a <_ZN20complex_dynamic_type3app17hc9289b14e3a7658fE+0xa2>
   252d4:	2803      	cmp	r0, #3
   252d6:	d013      	beq.n	25300 <_ZN20complex_dynamic_type3app17hc9289b14e3a7658fE+0x98>
   252d8:	2106      	movs	r1, #6
   252da:	2200      	movs	r2, #0
   252dc:	4628      	mov	r0, r5
   252de:	4613      	mov	r3, r2
   252e0:	df04      	svc	4
   252e2:	e012      	b.n	2530a <_ZN20complex_dynamic_type3app17hc9289b14e3a7658fE+0xa2>
   252e4:	a81d      	add	r0, sp, #116	@ 0x74
   252e6:	2103      	movs	r1, #3
   252e8:	7001      	strb	r1, [r0, #0]
   252ea:	2104      	movs	r1, #4
   252ec:	2206      	movs	r2, #6
   252ee:	2300      	movs	r3, #0
   252f0:	4628      	mov	r0, r5
   252f2:	9302      	str	r3, [sp, #8]
   252f4:	df02      	svc	2
   252f6:	287f      	cmp	r0, #127	@ 0x7f
   252f8:	d816      	bhi.n	25328 <_ZN20complex_dynamic_type3app17hc9289b14e3a7658fE+0xc0>
   252fa:	2001      	movs	r0, #1
   252fc:	7030      	strb	r0, [r6, #0]
   252fe:	6071      	str	r1, [r6, #4]
   25300:	2106      	movs	r1, #6
   25302:	2200      	movs	r2, #0
   25304:	4628      	mov	r0, r5
   25306:	4613      	mov	r3, r2
   25308:	df03      	svc	3
   2530a:	a804      	add	r0, sp, #16
   2530c:	7804      	ldrb	r4, [r0, #0]
   2530e:	2c02      	cmp	r4, #2
   25310:	d008      	beq.n	25324 <_ZN20complex_dynamic_type3app17hc9289b14e3a7658fE+0xbc>
   25312:	2104      	movs	r1, #4
   25314:	2200      	movs	r2, #0
   25316:	4628      	mov	r0, r5
   25318:	4613      	mov	r3, r2
   2531a:	2c03      	cmp	r4, #3
   2531c:	d101      	bne.n	25322 <_ZN20complex_dynamic_type3app17hc9289b14e3a7658fE+0xba>
   2531e:	df03      	svc	3
   25320:	e000      	b.n	25324 <_ZN20complex_dynamic_type3app17hc9289b14e3a7658fE+0xbc>
   25322:	df04      	svc	4
   25324:	b025      	add	sp, #148	@ 0x94
   25326:	bdf0      	pop	{r4, r5, r6, r7, pc}
   25328:	a804      	add	r0, sp, #16
   2532a:	7800      	ldrb	r0, [r0, #0]
   2532c:	2802      	cmp	r0, #2
   2532e:	d01b      	beq.n	25368 <_ZN20complex_dynamic_type3app17hc9289b14e3a7658fE+0x100>
   25330:	2104      	movs	r1, #4
   25332:	2200      	movs	r2, #0
   25334:	2803      	cmp	r0, #3
   25336:	d103      	bne.n	25340 <_ZN20complex_dynamic_type3app17hc9289b14e3a7658fE+0xd8>
   25338:	4628      	mov	r0, r5
   2533a:	4613      	mov	r3, r2
   2533c:	df03      	svc	3
   2533e:	e002      	b.n	25346 <_ZN20complex_dynamic_type3app17hc9289b14e3a7658fE+0xde>
   25340:	4628      	mov	r0, r5
   25342:	4613      	mov	r3, r2
   25344:	df04      	svc	4
   25346:	a804      	add	r0, sp, #16
   25348:	9900      	ldr	r1, [sp, #0]
   2534a:	7001      	strb	r1, [r0, #0]
   2534c:	a81d      	add	r0, sp, #116	@ 0x74
   2534e:	7800      	ldrb	r0, [r0, #0]
   25350:	2803      	cmp	r0, #3
   25352:	d009      	beq.n	25368 <_ZN20complex_dynamic_type3app17hc9289b14e3a7658fE+0x100>
   25354:	2802      	cmp	r0, #2
   25356:	d10d      	bne.n	25374 <_ZN20complex_dynamic_type3app17hc9289b14e3a7658fE+0x10c>
   25358:	1c70      	adds	r0, r6, #1
   2535a:	221e      	movs	r2, #30
   2535c:	4621      	mov	r1, r4
   2535e:	f005 f90d 	bl	2a57c <__aeabi_memcpy>
   25362:	9802      	ldr	r0, [sp, #8]
   25364:	7030      	strb	r0, [r6, #0]
   25366:	e7dd      	b.n	25324 <_ZN20complex_dynamic_type3app17hc9289b14e3a7658fE+0xbc>
   25368:	2106      	movs	r1, #6
   2536a:	2200      	movs	r2, #0
   2536c:	4628      	mov	r0, r5
   2536e:	4613      	mov	r3, r2
   25370:	df03      	svc	3
   25372:	e004      	b.n	2537e <_ZN20complex_dynamic_type3app17hc9289b14e3a7658fE+0x116>
   25374:	2106      	movs	r1, #6
   25376:	2200      	movs	r2, #0
   25378:	4628      	mov	r0, r5
   2537a:	4613      	mov	r3, r2
   2537c:	df04      	svc	4
   2537e:	a804      	add	r0, sp, #16
   25380:	7804      	ldrb	r4, [r0, #0]
   25382:	1c70      	adds	r0, r6, #1
   25384:	221e      	movs	r2, #30
   25386:	9901      	ldr	r1, [sp, #4]
   25388:	f005 f8f8 	bl	2a57c <__aeabi_memcpy>
   2538c:	9802      	ldr	r0, [sp, #8]
   2538e:	7030      	strb	r0, [r6, #0]
   25390:	e7bd      	b.n	2530e <_ZN20complex_dynamic_type3app17hc9289b14e3a7658fE+0xa6>
   25392:	d4d4      	bmi.n	2533e <_ZN20complex_dynamic_type3app17hc9289b14e3a7658fE+0xd6>

00025394 <_ZN20complex_dynamic_type3app17hc9b0db4c40f16a34E>:
   25394:	b5f0      	push	{r4, r5, r6, r7, lr}
   25396:	af03      	add	r7, sp, #12
   25398:	b095      	sub	sp, #84	@ 0x54
   2539a:	9004      	str	r0, [sp, #16]
   2539c:	a805      	add	r0, sp, #20
   2539e:	2402      	movs	r4, #2
   253a0:	7004      	strb	r4, [r0, #0]
   253a2:	1c46      	adds	r6, r0, #1
   253a4:	2227      	movs	r2, #39	@ 0x27
   253a6:	9203      	str	r2, [sp, #12]
   253a8:	4630      	mov	r0, r6
   253aa:	f005 f8e7 	bl	2a57c <__aeabi_memcpy>
   253ae:	ad0f      	add	r5, sp, #60	@ 0x3c
   253b0:	1c68      	adds	r0, r5, #1
   253b2:	2114      	movs	r1, #20
   253b4:	9002      	str	r0, [sp, #8]
   253b6:	f004 ff21 	bl	2a1fc <__aeabi_memclr>
   253ba:	9401      	str	r4, [sp, #4]
   253bc:	702c      	strb	r4, [r5, #0]
   253be:	483f      	ldr	r0, [pc, #252]	@ (254bc <_ZN20complex_dynamic_type3app17hc9b0db4c40f16a34E+0x128>)
   253c0:	2106      	movs	r1, #6
   253c2:	4632      	mov	r2, r6
   253c4:	9b03      	ldr	r3, [sp, #12]
   253c6:	df04      	svc	4
   253c8:	2802      	cmp	r0, #2
   253ca:	d104      	bne.n	253d6 <_ZN20complex_dynamic_type3app17hc9b0db4c40f16a34E+0x42>
   253cc:	2001      	movs	r0, #1
   253ce:	9a04      	ldr	r2, [sp, #16]
   253d0:	7010      	strb	r0, [r2, #0]
   253d2:	6051      	str	r1, [r2, #4]
   253d4:	e02d      	b.n	25432 <_ZN20complex_dynamic_type3app17hc9b0db4c40f16a34E+0x9e>
   253d6:	9d04      	ldr	r5, [sp, #16]
   253d8:	a805      	add	r0, sp, #20
   253da:	2104      	movs	r1, #4
   253dc:	7001      	strb	r1, [r0, #0]
   253de:	4837      	ldr	r0, [pc, #220]	@ (254bc <_ZN20complex_dynamic_type3app17hc9b0db4c40f16a34E+0x128>)
   253e0:	2105      	movs	r1, #5
   253e2:	2314      	movs	r3, #20
   253e4:	9c02      	ldr	r4, [sp, #8]
   253e6:	4622      	mov	r2, r4
   253e8:	df03      	svc	3
   253ea:	2802      	cmp	r0, #2
   253ec:	d10e      	bne.n	2540c <_ZN20complex_dynamic_type3app17hc9b0db4c40f16a34E+0x78>
   253ee:	2001      	movs	r0, #1
   253f0:	7028      	strb	r0, [r5, #0]
   253f2:	6069      	str	r1, [r5, #4]
   253f4:	a80f      	add	r0, sp, #60	@ 0x3c
   253f6:	7800      	ldrb	r0, [r0, #0]
   253f8:	2802      	cmp	r0, #2
   253fa:	d01a      	beq.n	25432 <_ZN20complex_dynamic_type3app17hc9b0db4c40f16a34E+0x9e>
   253fc:	2803      	cmp	r0, #3
   253fe:	d013      	beq.n	25428 <_ZN20complex_dynamic_type3app17hc9b0db4c40f16a34E+0x94>
   25400:	482e      	ldr	r0, [pc, #184]	@ (254bc <_ZN20complex_dynamic_type3app17hc9b0db4c40f16a34E+0x128>)
   25402:	2105      	movs	r1, #5
   25404:	2200      	movs	r2, #0
   25406:	4613      	mov	r3, r2
   25408:	df04      	svc	4
   2540a:	e012      	b.n	25432 <_ZN20complex_dynamic_type3app17hc9b0db4c40f16a34E+0x9e>
   2540c:	a80f      	add	r0, sp, #60	@ 0x3c
   2540e:	2103      	movs	r1, #3
   25410:	7001      	strb	r1, [r0, #0]
   25412:	482a      	ldr	r0, [pc, #168]	@ (254bc <_ZN20complex_dynamic_type3app17hc9b0db4c40f16a34E+0x128>)
   25414:	2106      	movs	r1, #6
   25416:	2205      	movs	r2, #5
   25418:	2600      	movs	r6, #0
   2541a:	4633      	mov	r3, r6
   2541c:	df02      	svc	2
   2541e:	287f      	cmp	r0, #127	@ 0x7f
   25420:	d816      	bhi.n	25450 <_ZN20complex_dynamic_type3app17hc9b0db4c40f16a34E+0xbc>
   25422:	2001      	movs	r0, #1
   25424:	7028      	strb	r0, [r5, #0]
   25426:	6069      	str	r1, [r5, #4]
   25428:	4824      	ldr	r0, [pc, #144]	@ (254bc <_ZN20complex_dynamic_type3app17hc9b0db4c40f16a34E+0x128>)
   2542a:	2105      	movs	r1, #5
   2542c:	2200      	movs	r2, #0
   2542e:	4613      	mov	r3, r2
   25430:	df03      	svc	3
   25432:	a805      	add	r0, sp, #20
   25434:	7804      	ldrb	r4, [r0, #0]
   25436:	2c02      	cmp	r4, #2
   25438:	d008      	beq.n	2544c <_ZN20complex_dynamic_type3app17hc9b0db4c40f16a34E+0xb8>
   2543a:	4820      	ldr	r0, [pc, #128]	@ (254bc <_ZN20complex_dynamic_type3app17hc9b0db4c40f16a34E+0x128>)
   2543c:	2106      	movs	r1, #6
   2543e:	2200      	movs	r2, #0
   25440:	4613      	mov	r3, r2
   25442:	2c03      	cmp	r4, #3
   25444:	d101      	bne.n	2544a <_ZN20complex_dynamic_type3app17hc9b0db4c40f16a34E+0xb6>
   25446:	df03      	svc	3
   25448:	e000      	b.n	2544c <_ZN20complex_dynamic_type3app17hc9b0db4c40f16a34E+0xb8>
   2544a:	df04      	svc	4
   2544c:	b015      	add	sp, #84	@ 0x54
   2544e:	bdf0      	pop	{r4, r5, r6, r7, pc}
   25450:	a805      	add	r0, sp, #20
   25452:	7800      	ldrb	r0, [r0, #0]
   25454:	2802      	cmp	r0, #2
   25456:	d01c      	beq.n	25492 <_ZN20complex_dynamic_type3app17hc9b0db4c40f16a34E+0xfe>
   25458:	2803      	cmp	r0, #3
   2545a:	d105      	bne.n	25468 <_ZN20complex_dynamic_type3app17hc9b0db4c40f16a34E+0xd4>
   2545c:	4817      	ldr	r0, [pc, #92]	@ (254bc <_ZN20complex_dynamic_type3app17hc9b0db4c40f16a34E+0x128>)
   2545e:	2106      	movs	r1, #6
   25460:	2200      	movs	r2, #0
   25462:	4613      	mov	r3, r2
   25464:	df03      	svc	3
   25466:	e004      	b.n	25472 <_ZN20complex_dynamic_type3app17hc9b0db4c40f16a34E+0xde>
   25468:	4814      	ldr	r0, [pc, #80]	@ (254bc <_ZN20complex_dynamic_type3app17hc9b0db4c40f16a34E+0x128>)
   2546a:	2106      	movs	r1, #6
   2546c:	2200      	movs	r2, #0
   2546e:	4613      	mov	r3, r2
   25470:	df04      	svc	4
   25472:	a805      	add	r0, sp, #20
   25474:	9901      	ldr	r1, [sp, #4]
   25476:	7001      	strb	r1, [r0, #0]
   25478:	a80f      	add	r0, sp, #60	@ 0x3c
   2547a:	7800      	ldrb	r0, [r0, #0]
   2547c:	2803      	cmp	r0, #3
   2547e:	d008      	beq.n	25492 <_ZN20complex_dynamic_type3app17hc9b0db4c40f16a34E+0xfe>
   25480:	2802      	cmp	r0, #2
   25482:	d10c      	bne.n	2549e <_ZN20complex_dynamic_type3app17hc9b0db4c40f16a34E+0x10a>
   25484:	1c68      	adds	r0, r5, #1
   25486:	2214      	movs	r2, #20
   25488:	4621      	mov	r1, r4
   2548a:	f005 f877 	bl	2a57c <__aeabi_memcpy>
   2548e:	702e      	strb	r6, [r5, #0]
   25490:	e7dc      	b.n	2544c <_ZN20complex_dynamic_type3app17hc9b0db4c40f16a34E+0xb8>
   25492:	480a      	ldr	r0, [pc, #40]	@ (254bc <_ZN20complex_dynamic_type3app17hc9b0db4c40f16a34E+0x128>)
   25494:	2105      	movs	r1, #5
   25496:	2200      	movs	r2, #0
   25498:	4613      	mov	r3, r2
   2549a:	df03      	svc	3
   2549c:	e004      	b.n	254a8 <_ZN20complex_dynamic_type3app17hc9b0db4c40f16a34E+0x114>
   2549e:	4807      	ldr	r0, [pc, #28]	@ (254bc <_ZN20complex_dynamic_type3app17hc9b0db4c40f16a34E+0x128>)
   254a0:	2105      	movs	r1, #5
   254a2:	2200      	movs	r2, #0
   254a4:	4613      	mov	r3, r2
   254a6:	df04      	svc	4
   254a8:	a805      	add	r0, sp, #20
   254aa:	7804      	ldrb	r4, [r0, #0]
   254ac:	1c68      	adds	r0, r5, #1
   254ae:	2214      	movs	r2, #20
   254b0:	9902      	ldr	r1, [sp, #8]
   254b2:	f005 f863 	bl	2a57c <__aeabi_memcpy>
   254b6:	702e      	strb	r6, [r5, #0]
   254b8:	e7bd      	b.n	25436 <_ZN20complex_dynamic_type3app17hc9b0db4c40f16a34E+0xa2>
   254ba:	46c0      	nop			@ (mov r8, r8)
   254bc:	000022c9 	.word	0x000022c9

000254c0 <_ZN20complex_dynamic_type3app17hcdf0d79c0667288eE>:
   254c0:	b5f0      	push	{r4, r5, r6, r7, lr}
   254c2:	af03      	add	r7, sp, #12
   254c4:	b097      	sub	sp, #92	@ 0x5c
   254c6:	9003      	str	r0, [sp, #12]
   254c8:	a804      	add	r0, sp, #16
   254ca:	2402      	movs	r4, #2
   254cc:	7004      	strb	r4, [r0, #0]
   254ce:	1c40      	adds	r0, r0, #1
   254d0:	9002      	str	r0, [sp, #8]
   254d2:	2510      	movs	r5, #16
   254d4:	462a      	mov	r2, r5
   254d6:	f005 f851 	bl	2a57c <__aeabi_memcpy>
   254da:	ae09      	add	r6, sp, #36	@ 0x24
   254dc:	1c70      	adds	r0, r6, #1
   254de:	2136      	movs	r1, #54	@ 0x36
   254e0:	9001      	str	r0, [sp, #4]
   254e2:	f004 fe8b 	bl	2a1fc <__aeabi_memclr>
   254e6:	9400      	str	r4, [sp, #0]
   254e8:	7034      	strb	r4, [r6, #0]
   254ea:	483e      	ldr	r0, [pc, #248]	@ (255e4 <_ZN20complex_dynamic_type3app17hcdf0d79c0667288eE+0x124>)
   254ec:	2601      	movs	r6, #1
   254ee:	4631      	mov	r1, r6
   254f0:	9a02      	ldr	r2, [sp, #8]
   254f2:	462b      	mov	r3, r5
   254f4:	df04      	svc	4
   254f6:	2802      	cmp	r0, #2
   254f8:	d103      	bne.n	25502 <_ZN20complex_dynamic_type3app17hcdf0d79c0667288eE+0x42>
   254fa:	9803      	ldr	r0, [sp, #12]
   254fc:	7006      	strb	r6, [r0, #0]
   254fe:	6041      	str	r1, [r0, #4]
   25500:	e02b      	b.n	2555a <_ZN20complex_dynamic_type3app17hcdf0d79c0667288eE+0x9a>
   25502:	9d03      	ldr	r5, [sp, #12]
   25504:	a804      	add	r0, sp, #16
   25506:	2104      	movs	r1, #4
   25508:	7001      	strb	r1, [r0, #0]
   2550a:	4836      	ldr	r0, [pc, #216]	@ (255e4 <_ZN20complex_dynamic_type3app17hcdf0d79c0667288eE+0x124>)
   2550c:	2107      	movs	r1, #7
   2550e:	2336      	movs	r3, #54	@ 0x36
   25510:	9a01      	ldr	r2, [sp, #4]
   25512:	df03      	svc	3
   25514:	2802      	cmp	r0, #2
   25516:	d10d      	bne.n	25534 <_ZN20complex_dynamic_type3app17hcdf0d79c0667288eE+0x74>
   25518:	702e      	strb	r6, [r5, #0]
   2551a:	6069      	str	r1, [r5, #4]
   2551c:	a809      	add	r0, sp, #36	@ 0x24
   2551e:	7800      	ldrb	r0, [r0, #0]
   25520:	2802      	cmp	r0, #2
   25522:	d01a      	beq.n	2555a <_ZN20complex_dynamic_type3app17hcdf0d79c0667288eE+0x9a>
   25524:	2803      	cmp	r0, #3
   25526:	d013      	beq.n	25550 <_ZN20complex_dynamic_type3app17hcdf0d79c0667288eE+0x90>
   25528:	482e      	ldr	r0, [pc, #184]	@ (255e4 <_ZN20complex_dynamic_type3app17hcdf0d79c0667288eE+0x124>)
   2552a:	2107      	movs	r1, #7
   2552c:	2200      	movs	r2, #0
   2552e:	4613      	mov	r3, r2
   25530:	df04      	svc	4
   25532:	e012      	b.n	2555a <_ZN20complex_dynamic_type3app17hcdf0d79c0667288eE+0x9a>
   25534:	a809      	add	r0, sp, #36	@ 0x24
   25536:	2103      	movs	r1, #3
   25538:	7001      	strb	r1, [r0, #0]
   2553a:	482a      	ldr	r0, [pc, #168]	@ (255e4 <_ZN20complex_dynamic_type3app17hcdf0d79c0667288eE+0x124>)
   2553c:	2401      	movs	r4, #1
   2553e:	2207      	movs	r2, #7
   25540:	2600      	movs	r6, #0
   25542:	4621      	mov	r1, r4
   25544:	4633      	mov	r3, r6
   25546:	df02      	svc	2
   25548:	287f      	cmp	r0, #127	@ 0x7f
   2554a:	d815      	bhi.n	25578 <_ZN20complex_dynamic_type3app17hcdf0d79c0667288eE+0xb8>
   2554c:	702c      	strb	r4, [r5, #0]
   2554e:	6069      	str	r1, [r5, #4]
   25550:	4824      	ldr	r0, [pc, #144]	@ (255e4 <_ZN20complex_dynamic_type3app17hcdf0d79c0667288eE+0x124>)
   25552:	2107      	movs	r1, #7
   25554:	2200      	movs	r2, #0
   25556:	4613      	mov	r3, r2
   25558:	df03      	svc	3
   2555a:	a804      	add	r0, sp, #16
   2555c:	7804      	ldrb	r4, [r0, #0]
   2555e:	2c02      	cmp	r4, #2
   25560:	d008      	beq.n	25574 <_ZN20complex_dynamic_type3app17hcdf0d79c0667288eE+0xb4>
   25562:	4820      	ldr	r0, [pc, #128]	@ (255e4 <_ZN20complex_dynamic_type3app17hcdf0d79c0667288eE+0x124>)
   25564:	2101      	movs	r1, #1
   25566:	2200      	movs	r2, #0
   25568:	4613      	mov	r3, r2
   2556a:	2c03      	cmp	r4, #3
   2556c:	d101      	bne.n	25572 <_ZN20complex_dynamic_type3app17hcdf0d79c0667288eE+0xb2>
   2556e:	df03      	svc	3
   25570:	e000      	b.n	25574 <_ZN20complex_dynamic_type3app17hcdf0d79c0667288eE+0xb4>
   25572:	df04      	svc	4
   25574:	b017      	add	sp, #92	@ 0x5c
   25576:	bdf0      	pop	{r4, r5, r6, r7, pc}
   25578:	a804      	add	r0, sp, #16
   2557a:	7800      	ldrb	r0, [r0, #0]
   2557c:	2802      	cmp	r0, #2
   2557e:	9c01      	ldr	r4, [sp, #4]
   25580:	d01c      	beq.n	255bc <_ZN20complex_dynamic_type3app17hcdf0d79c0667288eE+0xfc>
   25582:	2803      	cmp	r0, #3
   25584:	d105      	bne.n	25592 <_ZN20complex_dynamic_type3app17hcdf0d79c0667288eE+0xd2>
   25586:	4817      	ldr	r0, [pc, #92]	@ (255e4 <_ZN20complex_dynamic_type3app17hcdf0d79c0667288eE+0x124>)
   25588:	2101      	movs	r1, #1
   2558a:	2200      	movs	r2, #0
   2558c:	4613      	mov	r3, r2
   2558e:	df03      	svc	3
   25590:	e004      	b.n	2559c <_ZN20complex_dynamic_type3app17hcdf0d79c0667288eE+0xdc>
   25592:	4814      	ldr	r0, [pc, #80]	@ (255e4 <_ZN20complex_dynamic_type3app17hcdf0d79c0667288eE+0x124>)
   25594:	2101      	movs	r1, #1
   25596:	2200      	movs	r2, #0
   25598:	4613      	mov	r3, r2
   2559a:	df04      	svc	4
   2559c:	a804      	add	r0, sp, #16
   2559e:	9900      	ldr	r1, [sp, #0]
   255a0:	7001      	strb	r1, [r0, #0]
   255a2:	a809      	add	r0, sp, #36	@ 0x24
   255a4:	7800      	ldrb	r0, [r0, #0]
   255a6:	2803      	cmp	r0, #3
   255a8:	d008      	beq.n	255bc <_ZN20complex_dynamic_type3app17hcdf0d79c0667288eE+0xfc>
   255aa:	2802      	cmp	r0, #2
   255ac:	d10c      	bne.n	255c8 <_ZN20complex_dynamic_type3app17hcdf0d79c0667288eE+0x108>
   255ae:	1c68      	adds	r0, r5, #1
   255b0:	2236      	movs	r2, #54	@ 0x36
   255b2:	4621      	mov	r1, r4
   255b4:	f004 ffe2 	bl	2a57c <__aeabi_memcpy>
   255b8:	702e      	strb	r6, [r5, #0]
   255ba:	e7db      	b.n	25574 <_ZN20complex_dynamic_type3app17hcdf0d79c0667288eE+0xb4>
   255bc:	4809      	ldr	r0, [pc, #36]	@ (255e4 <_ZN20complex_dynamic_type3app17hcdf0d79c0667288eE+0x124>)
   255be:	2107      	movs	r1, #7
   255c0:	2200      	movs	r2, #0
   255c2:	4613      	mov	r3, r2
   255c4:	df03      	svc	3
   255c6:	e004      	b.n	255d2 <_ZN20complex_dynamic_type3app17hcdf0d79c0667288eE+0x112>
   255c8:	4806      	ldr	r0, [pc, #24]	@ (255e4 <_ZN20complex_dynamic_type3app17hcdf0d79c0667288eE+0x124>)
   255ca:	2107      	movs	r1, #7
   255cc:	2200      	movs	r2, #0
   255ce:	4613      	mov	r3, r2
   255d0:	df04      	svc	4
   255d2:	a804      	add	r0, sp, #16
   255d4:	7804      	ldrb	r4, [r0, #0]
   255d6:	1c68      	adds	r0, r5, #1
   255d8:	2236      	movs	r2, #54	@ 0x36
   255da:	9901      	ldr	r1, [sp, #4]
   255dc:	f004 ffce 	bl	2a57c <__aeabi_memcpy>
   255e0:	702e      	strb	r6, [r5, #0]
   255e2:	e7bc      	b.n	2555e <_ZN20complex_dynamic_type3app17hcdf0d79c0667288eE+0x9e>
   255e4:	00001989 	.word	0x00001989

000255e8 <_ZN20complex_dynamic_type3app17hd4a01f29db96f5ffE>:
   255e8:	b5f0      	push	{r4, r5, r6, r7, lr}
   255ea:	af03      	add	r7, sp, #12
   255ec:	b097      	sub	sp, #92	@ 0x5c
   255ee:	9004      	str	r0, [sp, #16]
   255f0:	a805      	add	r0, sp, #20
   255f2:	2402      	movs	r4, #2
   255f4:	7004      	strb	r4, [r0, #0]
   255f6:	1c46      	adds	r6, r0, #1
   255f8:	2229      	movs	r2, #41	@ 0x29
   255fa:	9203      	str	r2, [sp, #12]
   255fc:	4630      	mov	r0, r6
   255fe:	f004 ffbd 	bl	2a57c <__aeabi_memcpy>
   25602:	ad10      	add	r5, sp, #64	@ 0x40
   25604:	1c68      	adds	r0, r5, #1
   25606:	211a      	movs	r1, #26
   25608:	9002      	str	r0, [sp, #8]
   2560a:	f004 fdf7 	bl	2a1fc <__aeabi_memclr>
   2560e:	9401      	str	r4, [sp, #4]
   25610:	702c      	strb	r4, [r5, #0]
   25612:	483e      	ldr	r0, [pc, #248]	@ (2570c <_ZN20complex_dynamic_type3app17hd4a01f29db96f5ffE+0x124>)
   25614:	2105      	movs	r1, #5
   25616:	4632      	mov	r2, r6
   25618:	9b03      	ldr	r3, [sp, #12]
   2561a:	df04      	svc	4
   2561c:	2802      	cmp	r0, #2
   2561e:	d104      	bne.n	2562a <_ZN20complex_dynamic_type3app17hd4a01f29db96f5ffE+0x42>
   25620:	2001      	movs	r0, #1
   25622:	9a04      	ldr	r2, [sp, #16]
   25624:	7010      	strb	r0, [r2, #0]
   25626:	6051      	str	r1, [r2, #4]
   25628:	e02c      	b.n	25684 <_ZN20complex_dynamic_type3app17hd4a01f29db96f5ffE+0x9c>
   2562a:	9d04      	ldr	r5, [sp, #16]
   2562c:	a805      	add	r0, sp, #20
   2562e:	2104      	movs	r1, #4
   25630:	7001      	strb	r1, [r0, #0]
   25632:	4836      	ldr	r0, [pc, #216]	@ (2570c <_ZN20complex_dynamic_type3app17hd4a01f29db96f5ffE+0x124>)
   25634:	2403      	movs	r4, #3
   25636:	231a      	movs	r3, #26
   25638:	4621      	mov	r1, r4
   2563a:	9a02      	ldr	r2, [sp, #8]
   2563c:	df03      	svc	3
   2563e:	2802      	cmp	r0, #2
   25640:	d10e      	bne.n	25660 <_ZN20complex_dynamic_type3app17hd4a01f29db96f5ffE+0x78>
   25642:	2001      	movs	r0, #1
   25644:	7028      	strb	r0, [r5, #0]
   25646:	6069      	str	r1, [r5, #4]
   25648:	a810      	add	r0, sp, #64	@ 0x40
   2564a:	7800      	ldrb	r0, [r0, #0]
   2564c:	2802      	cmp	r0, #2
   2564e:	d019      	beq.n	25684 <_ZN20complex_dynamic_type3app17hd4a01f29db96f5ffE+0x9c>
   25650:	2803      	cmp	r0, #3
   25652:	d012      	beq.n	2567a <_ZN20complex_dynamic_type3app17hd4a01f29db96f5ffE+0x92>
   25654:	482d      	ldr	r0, [pc, #180]	@ (2570c <_ZN20complex_dynamic_type3app17hd4a01f29db96f5ffE+0x124>)
   25656:	2103      	movs	r1, #3
   25658:	2200      	movs	r2, #0
   2565a:	4613      	mov	r3, r2
   2565c:	df04      	svc	4
   2565e:	e011      	b.n	25684 <_ZN20complex_dynamic_type3app17hd4a01f29db96f5ffE+0x9c>
   25660:	a810      	add	r0, sp, #64	@ 0x40
   25662:	7004      	strb	r4, [r0, #0]
   25664:	4829      	ldr	r0, [pc, #164]	@ (2570c <_ZN20complex_dynamic_type3app17hd4a01f29db96f5ffE+0x124>)
   25666:	2105      	movs	r1, #5
   25668:	2600      	movs	r6, #0
   2566a:	4622      	mov	r2, r4
   2566c:	4633      	mov	r3, r6
   2566e:	df02      	svc	2
   25670:	287f      	cmp	r0, #127	@ 0x7f
   25672:	d816      	bhi.n	256a2 <_ZN20complex_dynamic_type3app17hd4a01f29db96f5ffE+0xba>
   25674:	2001      	movs	r0, #1
   25676:	7028      	strb	r0, [r5, #0]
   25678:	6069      	str	r1, [r5, #4]
   2567a:	4824      	ldr	r0, [pc, #144]	@ (2570c <_ZN20complex_dynamic_type3app17hd4a01f29db96f5ffE+0x124>)
   2567c:	2103      	movs	r1, #3
   2567e:	2200      	movs	r2, #0
   25680:	4613      	mov	r3, r2
   25682:	df03      	svc	3
   25684:	a805      	add	r0, sp, #20
   25686:	7804      	ldrb	r4, [r0, #0]
   25688:	2c02      	cmp	r4, #2
   2568a:	d008      	beq.n	2569e <_ZN20complex_dynamic_type3app17hd4a01f29db96f5ffE+0xb6>
   2568c:	481f      	ldr	r0, [pc, #124]	@ (2570c <_ZN20complex_dynamic_type3app17hd4a01f29db96f5ffE+0x124>)
   2568e:	2105      	movs	r1, #5
   25690:	2200      	movs	r2, #0
   25692:	4613      	mov	r3, r2
   25694:	2c03      	cmp	r4, #3
   25696:	d101      	bne.n	2569c <_ZN20complex_dynamic_type3app17hd4a01f29db96f5ffE+0xb4>
   25698:	df03      	svc	3
   2569a:	e000      	b.n	2569e <_ZN20complex_dynamic_type3app17hd4a01f29db96f5ffE+0xb6>
   2569c:	df04      	svc	4
   2569e:	b017      	add	sp, #92	@ 0x5c
   256a0:	bdf0      	pop	{r4, r5, r6, r7, pc}
   256a2:	a805      	add	r0, sp, #20
   256a4:	7800      	ldrb	r0, [r0, #0]
   256a6:	2802      	cmp	r0, #2
   256a8:	d01c      	beq.n	256e4 <_ZN20complex_dynamic_type3app17hd4a01f29db96f5ffE+0xfc>
   256aa:	2803      	cmp	r0, #3
   256ac:	d105      	bne.n	256ba <_ZN20complex_dynamic_type3app17hd4a01f29db96f5ffE+0xd2>
   256ae:	4817      	ldr	r0, [pc, #92]	@ (2570c <_ZN20complex_dynamic_type3app17hd4a01f29db96f5ffE+0x124>)
   256b0:	2105      	movs	r1, #5
   256b2:	2200      	movs	r2, #0
   256b4:	4613      	mov	r3, r2
   256b6:	df03      	svc	3
   256b8:	e004      	b.n	256c4 <_ZN20complex_dynamic_type3app17hd4a01f29db96f5ffE+0xdc>
   256ba:	4814      	ldr	r0, [pc, #80]	@ (2570c <_ZN20complex_dynamic_type3app17hd4a01f29db96f5ffE+0x124>)
   256bc:	2105      	movs	r1, #5
   256be:	2200      	movs	r2, #0
   256c0:	4613      	mov	r3, r2
   256c2:	df04      	svc	4
   256c4:	9901      	ldr	r1, [sp, #4]
   256c6:	a805      	add	r0, sp, #20
   256c8:	7001      	strb	r1, [r0, #0]
   256ca:	a810      	add	r0, sp, #64	@ 0x40
   256cc:	7800      	ldrb	r0, [r0, #0]
   256ce:	2803      	cmp	r0, #3
   256d0:	d008      	beq.n	256e4 <_ZN20complex_dynamic_type3app17hd4a01f29db96f5ffE+0xfc>
   256d2:	2802      	cmp	r0, #2
   256d4:	d10c      	bne.n	256f0 <_ZN20complex_dynamic_type3app17hd4a01f29db96f5ffE+0x108>
   256d6:	1c68      	adds	r0, r5, #1
   256d8:	221a      	movs	r2, #26
   256da:	9902      	ldr	r1, [sp, #8]
   256dc:	f004 ff4e 	bl	2a57c <__aeabi_memcpy>
   256e0:	702e      	strb	r6, [r5, #0]
   256e2:	e7dc      	b.n	2569e <_ZN20complex_dynamic_type3app17hd4a01f29db96f5ffE+0xb6>
   256e4:	4809      	ldr	r0, [pc, #36]	@ (2570c <_ZN20complex_dynamic_type3app17hd4a01f29db96f5ffE+0x124>)
   256e6:	2103      	movs	r1, #3
   256e8:	2200      	movs	r2, #0
   256ea:	4613      	mov	r3, r2
   256ec:	df03      	svc	3
   256ee:	e004      	b.n	256fa <_ZN20complex_dynamic_type3app17hd4a01f29db96f5ffE+0x112>
   256f0:	4806      	ldr	r0, [pc, #24]	@ (2570c <_ZN20complex_dynamic_type3app17hd4a01f29db96f5ffE+0x124>)
   256f2:	2103      	movs	r1, #3
   256f4:	2200      	movs	r2, #0
   256f6:	4613      	mov	r3, r2
   256f8:	df04      	svc	4
   256fa:	a805      	add	r0, sp, #20
   256fc:	7804      	ldrb	r4, [r0, #0]
   256fe:	1c68      	adds	r0, r5, #1
   25700:	221a      	movs	r2, #26
   25702:	9902      	ldr	r1, [sp, #8]
   25704:	f004 ff3a 	bl	2a57c <__aeabi_memcpy>
   25708:	702e      	strb	r6, [r5, #0]
   2570a:	e7bd      	b.n	25688 <_ZN20complex_dynamic_type3app17hd4a01f29db96f5ffE+0xa0>
   2570c:	00002048 	.word	0x00002048

00025710 <_ZN20complex_dynamic_type3app17hd50bfa1135d581cdE>:
   25710:	b5f0      	push	{r4, r5, r6, r7, lr}
   25712:	af03      	add	r7, sp, #12
   25714:	b0a7      	sub	sp, #156	@ 0x9c
   25716:	9004      	str	r0, [sp, #16]
   25718:	a805      	add	r0, sp, #20
   2571a:	2402      	movs	r4, #2
   2571c:	7004      	strb	r4, [r0, #0]
   2571e:	1c46      	adds	r6, r0, #1
   25720:	224f      	movs	r2, #79	@ 0x4f
   25722:	9203      	str	r2, [sp, #12]
   25724:	4630      	mov	r0, r6
   25726:	f004 ff29 	bl	2a57c <__aeabi_memcpy>
   2572a:	ad19      	add	r5, sp, #100	@ 0x64
   2572c:	1c68      	adds	r0, r5, #1
   2572e:	2135      	movs	r1, #53	@ 0x35
   25730:	9002      	str	r0, [sp, #8]
   25732:	f004 fd63 	bl	2a1fc <__aeabi_memclr>
   25736:	9401      	str	r4, [sp, #4]
   25738:	702c      	strb	r4, [r5, #0]
   2573a:	483e      	ldr	r0, [pc, #248]	@ (25834 <_ZN20complex_dynamic_type3app17hd50bfa1135d581cdE+0x124>)
   2573c:	2107      	movs	r1, #7
   2573e:	4632      	mov	r2, r6
   25740:	9b03      	ldr	r3, [sp, #12]
   25742:	df04      	svc	4
   25744:	2802      	cmp	r0, #2
   25746:	d104      	bne.n	25752 <_ZN20complex_dynamic_type3app17hd50bfa1135d581cdE+0x42>
   25748:	2001      	movs	r0, #1
   2574a:	9a04      	ldr	r2, [sp, #16]
   2574c:	7010      	strb	r0, [r2, #0]
   2574e:	6051      	str	r1, [r2, #4]
   25750:	e02c      	b.n	257ac <_ZN20complex_dynamic_type3app17hd50bfa1135d581cdE+0x9c>
   25752:	9d04      	ldr	r5, [sp, #16]
   25754:	a805      	add	r0, sp, #20
   25756:	2104      	movs	r1, #4
   25758:	7001      	strb	r1, [r0, #0]
   2575a:	4836      	ldr	r0, [pc, #216]	@ (25834 <_ZN20complex_dynamic_type3app17hd50bfa1135d581cdE+0x124>)
   2575c:	2401      	movs	r4, #1
   2575e:	2335      	movs	r3, #53	@ 0x35
   25760:	4621      	mov	r1, r4
   25762:	9a02      	ldr	r2, [sp, #8]
   25764:	df03      	svc	3
   25766:	2802      	cmp	r0, #2
   25768:	d10d      	bne.n	25786 <_ZN20complex_dynamic_type3app17hd50bfa1135d581cdE+0x76>
   2576a:	702c      	strb	r4, [r5, #0]
   2576c:	6069      	str	r1, [r5, #4]
   2576e:	a819      	add	r0, sp, #100	@ 0x64
   25770:	7800      	ldrb	r0, [r0, #0]
   25772:	2802      	cmp	r0, #2
   25774:	d01a      	beq.n	257ac <_ZN20complex_dynamic_type3app17hd50bfa1135d581cdE+0x9c>
   25776:	2803      	cmp	r0, #3
   25778:	d013      	beq.n	257a2 <_ZN20complex_dynamic_type3app17hd50bfa1135d581cdE+0x92>
   2577a:	482e      	ldr	r0, [pc, #184]	@ (25834 <_ZN20complex_dynamic_type3app17hd50bfa1135d581cdE+0x124>)
   2577c:	2101      	movs	r1, #1
   2577e:	2200      	movs	r2, #0
   25780:	4613      	mov	r3, r2
   25782:	df04      	svc	4
   25784:	e012      	b.n	257ac <_ZN20complex_dynamic_type3app17hd50bfa1135d581cdE+0x9c>
   25786:	a819      	add	r0, sp, #100	@ 0x64
   25788:	2103      	movs	r1, #3
   2578a:	7001      	strb	r1, [r0, #0]
   2578c:	4829      	ldr	r0, [pc, #164]	@ (25834 <_ZN20complex_dynamic_type3app17hd50bfa1135d581cdE+0x124>)
   2578e:	2107      	movs	r1, #7
   25790:	2401      	movs	r4, #1
   25792:	2600      	movs	r6, #0
   25794:	4622      	mov	r2, r4
   25796:	4633      	mov	r3, r6
   25798:	df02      	svc	2
   2579a:	287f      	cmp	r0, #127	@ 0x7f
   2579c:	d815      	bhi.n	257ca <_ZN20complex_dynamic_type3app17hd50bfa1135d581cdE+0xba>
   2579e:	702c      	strb	r4, [r5, #0]
   257a0:	6069      	str	r1, [r5, #4]
   257a2:	4824      	ldr	r0, [pc, #144]	@ (25834 <_ZN20complex_dynamic_type3app17hd50bfa1135d581cdE+0x124>)
   257a4:	2101      	movs	r1, #1
   257a6:	2200      	movs	r2, #0
   257a8:	4613      	mov	r3, r2
   257aa:	df03      	svc	3
   257ac:	a805      	add	r0, sp, #20
   257ae:	7804      	ldrb	r4, [r0, #0]
   257b0:	2c02      	cmp	r4, #2
   257b2:	d008      	beq.n	257c6 <_ZN20complex_dynamic_type3app17hd50bfa1135d581cdE+0xb6>
   257b4:	481f      	ldr	r0, [pc, #124]	@ (25834 <_ZN20complex_dynamic_type3app17hd50bfa1135d581cdE+0x124>)
   257b6:	2107      	movs	r1, #7
   257b8:	2200      	movs	r2, #0
   257ba:	4613      	mov	r3, r2
   257bc:	2c03      	cmp	r4, #3
   257be:	d101      	bne.n	257c4 <_ZN20complex_dynamic_type3app17hd50bfa1135d581cdE+0xb4>
   257c0:	df03      	svc	3
   257c2:	e000      	b.n	257c6 <_ZN20complex_dynamic_type3app17hd50bfa1135d581cdE+0xb6>
   257c4:	df04      	svc	4
   257c6:	b027      	add	sp, #156	@ 0x9c
   257c8:	bdf0      	pop	{r4, r5, r6, r7, pc}
   257ca:	a805      	add	r0, sp, #20
   257cc:	7800      	ldrb	r0, [r0, #0]
   257ce:	2802      	cmp	r0, #2
   257d0:	d01c      	beq.n	2580c <_ZN20complex_dynamic_type3app17hd50bfa1135d581cdE+0xfc>
   257d2:	2803      	cmp	r0, #3
   257d4:	d105      	bne.n	257e2 <_ZN20complex_dynamic_type3app17hd50bfa1135d581cdE+0xd2>
   257d6:	4817      	ldr	r0, [pc, #92]	@ (25834 <_ZN20complex_dynamic_type3app17hd50bfa1135d581cdE+0x124>)
   257d8:	2107      	movs	r1, #7
   257da:	2200      	movs	r2, #0
   257dc:	4613      	mov	r3, r2
   257de:	df03      	svc	3
   257e0:	e004      	b.n	257ec <_ZN20complex_dynamic_type3app17hd50bfa1135d581cdE+0xdc>
   257e2:	4814      	ldr	r0, [pc, #80]	@ (25834 <_ZN20complex_dynamic_type3app17hd50bfa1135d581cdE+0x124>)
   257e4:	2107      	movs	r1, #7
   257e6:	2200      	movs	r2, #0
   257e8:	4613      	mov	r3, r2
   257ea:	df04      	svc	4
   257ec:	9901      	ldr	r1, [sp, #4]
   257ee:	a805      	add	r0, sp, #20
   257f0:	7001      	strb	r1, [r0, #0]
   257f2:	a819      	add	r0, sp, #100	@ 0x64
   257f4:	7800      	ldrb	r0, [r0, #0]
   257f6:	2803      	cmp	r0, #3
   257f8:	d008      	beq.n	2580c <_ZN20complex_dynamic_type3app17hd50bfa1135d581cdE+0xfc>
   257fa:	2802      	cmp	r0, #2
   257fc:	d10c      	bne.n	25818 <_ZN20complex_dynamic_type3app17hd50bfa1135d581cdE+0x108>
   257fe:	1c68      	adds	r0, r5, #1
   25800:	2235      	movs	r2, #53	@ 0x35
   25802:	9902      	ldr	r1, [sp, #8]
   25804:	f004 feba 	bl	2a57c <__aeabi_memcpy>
   25808:	702e      	strb	r6, [r5, #0]
   2580a:	e7dc      	b.n	257c6 <_ZN20complex_dynamic_type3app17hd50bfa1135d581cdE+0xb6>
   2580c:	4809      	ldr	r0, [pc, #36]	@ (25834 <_ZN20complex_dynamic_type3app17hd50bfa1135d581cdE+0x124>)
   2580e:	2101      	movs	r1, #1
   25810:	2200      	movs	r2, #0
   25812:	4613      	mov	r3, r2
   25814:	df03      	svc	3
   25816:	e004      	b.n	25822 <_ZN20complex_dynamic_type3app17hd50bfa1135d581cdE+0x112>
   25818:	4806      	ldr	r0, [pc, #24]	@ (25834 <_ZN20complex_dynamic_type3app17hd50bfa1135d581cdE+0x124>)
   2581a:	2101      	movs	r1, #1
   2581c:	2200      	movs	r2, #0
   2581e:	4613      	mov	r3, r2
   25820:	df04      	svc	4
   25822:	a805      	add	r0, sp, #20
   25824:	7804      	ldrb	r4, [r0, #0]
   25826:	1c68      	adds	r0, r5, #1
   25828:	2235      	movs	r2, #53	@ 0x35
   2582a:	9902      	ldr	r1, [sp, #8]
   2582c:	f004 fea6 	bl	2a57c <__aeabi_memcpy>
   25830:	702e      	strb	r6, [r5, #0]
   25832:	e7bd      	b.n	257b0 <_ZN20complex_dynamic_type3app17hd50bfa1135d581cdE+0xa0>
   25834:	000016d7 	.word	0x000016d7

00025838 <_ZN20complex_dynamic_type3app17hd53cbe71dbfc80f3E>:
   25838:	b5f0      	push	{r4, r5, r6, r7, lr}
   2583a:	af03      	add	r7, sp, #12
   2583c:	b09b      	sub	sp, #108	@ 0x6c
   2583e:	9004      	str	r0, [sp, #16]
   25840:	a805      	add	r0, sp, #20
   25842:	2402      	movs	r4, #2
   25844:	7004      	strb	r4, [r0, #0]
   25846:	1c40      	adds	r0, r0, #1
   25848:	9003      	str	r0, [sp, #12]
   2584a:	252c      	movs	r5, #44	@ 0x2c
   2584c:	462a      	mov	r2, r5
   2584e:	f004 fe95 	bl	2a57c <__aeabi_memcpy>
   25852:	ae11      	add	r6, sp, #68	@ 0x44
   25854:	1c70      	adds	r0, r6, #1
   25856:	2125      	movs	r1, #37	@ 0x25
   25858:	9002      	str	r0, [sp, #8]
   2585a:	f004 fccf 	bl	2a1fc <__aeabi_memclr>
   2585e:	9401      	str	r4, [sp, #4]
   25860:	7034      	strb	r4, [r6, #0]
   25862:	4841      	ldr	r0, [pc, #260]	@ (25968 <_ZN20complex_dynamic_type3app17hd53cbe71dbfc80f3E+0x130>)
   25864:	2603      	movs	r6, #3
   25866:	4631      	mov	r1, r6
   25868:	9a03      	ldr	r2, [sp, #12]
   2586a:	462b      	mov	r3, r5
   2586c:	df04      	svc	4
   2586e:	2802      	cmp	r0, #2
   25870:	d104      	bne.n	2587c <_ZN20complex_dynamic_type3app17hd53cbe71dbfc80f3E+0x44>
   25872:	2001      	movs	r0, #1
   25874:	9a04      	ldr	r2, [sp, #16]
   25876:	7010      	strb	r0, [r2, #0]
   25878:	6051      	str	r1, [r2, #4]
   2587a:	e02c      	b.n	258d6 <_ZN20complex_dynamic_type3app17hd53cbe71dbfc80f3E+0x9e>
   2587c:	9d04      	ldr	r5, [sp, #16]
   2587e:	a805      	add	r0, sp, #20
   25880:	2104      	movs	r1, #4
   25882:	7001      	strb	r1, [r0, #0]
   25884:	4838      	ldr	r0, [pc, #224]	@ (25968 <_ZN20complex_dynamic_type3app17hd53cbe71dbfc80f3E+0x130>)
   25886:	2100      	movs	r1, #0
   25888:	2325      	movs	r3, #37	@ 0x25
   2588a:	9c02      	ldr	r4, [sp, #8]
   2588c:	4622      	mov	r2, r4
   2588e:	df03      	svc	3
   25890:	2802      	cmp	r0, #2
   25892:	d10e      	bne.n	258b2 <_ZN20complex_dynamic_type3app17hd53cbe71dbfc80f3E+0x7a>
   25894:	2001      	movs	r0, #1
   25896:	7028      	strb	r0, [r5, #0]
   25898:	6069      	str	r1, [r5, #4]
   2589a:	a811      	add	r0, sp, #68	@ 0x44
   2589c:	7800      	ldrb	r0, [r0, #0]
   2589e:	2802      	cmp	r0, #2
   258a0:	d019      	beq.n	258d6 <_ZN20complex_dynamic_type3app17hd53cbe71dbfc80f3E+0x9e>
   258a2:	2803      	cmp	r0, #3
   258a4:	d012      	beq.n	258cc <_ZN20complex_dynamic_type3app17hd53cbe71dbfc80f3E+0x94>
   258a6:	4830      	ldr	r0, [pc, #192]	@ (25968 <_ZN20complex_dynamic_type3app17hd53cbe71dbfc80f3E+0x130>)
   258a8:	2100      	movs	r1, #0
   258aa:	460a      	mov	r2, r1
   258ac:	460b      	mov	r3, r1
   258ae:	df04      	svc	4
   258b0:	e011      	b.n	258d6 <_ZN20complex_dynamic_type3app17hd53cbe71dbfc80f3E+0x9e>
   258b2:	a811      	add	r0, sp, #68	@ 0x44
   258b4:	7006      	strb	r6, [r0, #0]
   258b6:	482c      	ldr	r0, [pc, #176]	@ (25968 <_ZN20complex_dynamic_type3app17hd53cbe71dbfc80f3E+0x130>)
   258b8:	2200      	movs	r2, #0
   258ba:	4631      	mov	r1, r6
   258bc:	9203      	str	r2, [sp, #12]
   258be:	4613      	mov	r3, r2
   258c0:	df02      	svc	2
   258c2:	287f      	cmp	r0, #127	@ 0x7f
   258c4:	d816      	bhi.n	258f4 <_ZN20complex_dynamic_type3app17hd53cbe71dbfc80f3E+0xbc>
   258c6:	2001      	movs	r0, #1
   258c8:	7028      	strb	r0, [r5, #0]
   258ca:	6069      	str	r1, [r5, #4]
   258cc:	4826      	ldr	r0, [pc, #152]	@ (25968 <_ZN20complex_dynamic_type3app17hd53cbe71dbfc80f3E+0x130>)
   258ce:	2100      	movs	r1, #0
   258d0:	460a      	mov	r2, r1
   258d2:	460b      	mov	r3, r1
   258d4:	df03      	svc	3
   258d6:	a805      	add	r0, sp, #20
   258d8:	7804      	ldrb	r4, [r0, #0]
   258da:	2c02      	cmp	r4, #2
   258dc:	d008      	beq.n	258f0 <_ZN20complex_dynamic_type3app17hd53cbe71dbfc80f3E+0xb8>
   258de:	4822      	ldr	r0, [pc, #136]	@ (25968 <_ZN20complex_dynamic_type3app17hd53cbe71dbfc80f3E+0x130>)
   258e0:	2103      	movs	r1, #3
   258e2:	2200      	movs	r2, #0
   258e4:	4613      	mov	r3, r2
   258e6:	2c03      	cmp	r4, #3
   258e8:	d101      	bne.n	258ee <_ZN20complex_dynamic_type3app17hd53cbe71dbfc80f3E+0xb6>
   258ea:	df03      	svc	3
   258ec:	e000      	b.n	258f0 <_ZN20complex_dynamic_type3app17hd53cbe71dbfc80f3E+0xb8>
   258ee:	df04      	svc	4
   258f0:	b01b      	add	sp, #108	@ 0x6c
   258f2:	bdf0      	pop	{r4, r5, r6, r7, pc}
   258f4:	a805      	add	r0, sp, #20
   258f6:	7800      	ldrb	r0, [r0, #0]
   258f8:	2802      	cmp	r0, #2
   258fa:	d01d      	beq.n	25938 <_ZN20complex_dynamic_type3app17hd53cbe71dbfc80f3E+0x100>
   258fc:	2803      	cmp	r0, #3
   258fe:	d105      	bne.n	2590c <_ZN20complex_dynamic_type3app17hd53cbe71dbfc80f3E+0xd4>
   25900:	4819      	ldr	r0, [pc, #100]	@ (25968 <_ZN20complex_dynamic_type3app17hd53cbe71dbfc80f3E+0x130>)
   25902:	2103      	movs	r1, #3
   25904:	2200      	movs	r2, #0
   25906:	4613      	mov	r3, r2
   25908:	df03      	svc	3
   2590a:	e004      	b.n	25916 <_ZN20complex_dynamic_type3app17hd53cbe71dbfc80f3E+0xde>
   2590c:	4816      	ldr	r0, [pc, #88]	@ (25968 <_ZN20complex_dynamic_type3app17hd53cbe71dbfc80f3E+0x130>)
   2590e:	2103      	movs	r1, #3
   25910:	2200      	movs	r2, #0
   25912:	4613      	mov	r3, r2
   25914:	df04      	svc	4
   25916:	9901      	ldr	r1, [sp, #4]
   25918:	a805      	add	r0, sp, #20
   2591a:	7001      	strb	r1, [r0, #0]
   2591c:	a811      	add	r0, sp, #68	@ 0x44
   2591e:	7800      	ldrb	r0, [r0, #0]
   25920:	2803      	cmp	r0, #3
   25922:	d009      	beq.n	25938 <_ZN20complex_dynamic_type3app17hd53cbe71dbfc80f3E+0x100>
   25924:	2802      	cmp	r0, #2
   25926:	d10e      	bne.n	25946 <_ZN20complex_dynamic_type3app17hd53cbe71dbfc80f3E+0x10e>
   25928:	1c68      	adds	r0, r5, #1
   2592a:	2225      	movs	r2, #37	@ 0x25
   2592c:	4621      	mov	r1, r4
   2592e:	f004 fe25 	bl	2a57c <__aeabi_memcpy>
   25932:	9803      	ldr	r0, [sp, #12]
   25934:	7028      	strb	r0, [r5, #0]
   25936:	e7db      	b.n	258f0 <_ZN20complex_dynamic_type3app17hd53cbe71dbfc80f3E+0xb8>
   25938:	4626      	mov	r6, r4
   2593a:	480b      	ldr	r0, [pc, #44]	@ (25968 <_ZN20complex_dynamic_type3app17hd53cbe71dbfc80f3E+0x130>)
   2593c:	2100      	movs	r1, #0
   2593e:	460a      	mov	r2, r1
   25940:	460b      	mov	r3, r1
   25942:	df03      	svc	3
   25944:	e005      	b.n	25952 <_ZN20complex_dynamic_type3app17hd53cbe71dbfc80f3E+0x11a>
   25946:	4626      	mov	r6, r4
   25948:	4807      	ldr	r0, [pc, #28]	@ (25968 <_ZN20complex_dynamic_type3app17hd53cbe71dbfc80f3E+0x130>)
   2594a:	2100      	movs	r1, #0
   2594c:	460a      	mov	r2, r1
   2594e:	460b      	mov	r3, r1
   25950:	df04      	svc	4
   25952:	a805      	add	r0, sp, #20
   25954:	7804      	ldrb	r4, [r0, #0]
   25956:	1c68      	adds	r0, r5, #1
   25958:	2225      	movs	r2, #37	@ 0x25
   2595a:	4631      	mov	r1, r6
   2595c:	f004 fe0e 	bl	2a57c <__aeabi_memcpy>
   25960:	9803      	ldr	r0, [sp, #12]
   25962:	7028      	strb	r0, [r5, #0]
   25964:	e7b9      	b.n	258da <_ZN20complex_dynamic_type3app17hd53cbe71dbfc80f3E+0xa2>
   25966:	46c0      	nop			@ (mov r8, r8)
   25968:	0000077f 	.word	0x0000077f

0002596c <_ZN20complex_dynamic_type3app17hd8d7f8c947f9c5c1E>:
   2596c:	b5f0      	push	{r4, r5, r6, r7, lr}
   2596e:	af03      	add	r7, sp, #12
   25970:	b097      	sub	sp, #92	@ 0x5c
   25972:	9003      	str	r0, [sp, #12]
   25974:	a804      	add	r0, sp, #16
   25976:	2402      	movs	r4, #2
   25978:	7004      	strb	r4, [r0, #0]
   2597a:	1c46      	adds	r6, r0, #1
   2597c:	2223      	movs	r2, #35	@ 0x23
   2597e:	9202      	str	r2, [sp, #8]
   25980:	4630      	mov	r0, r6
   25982:	f004 fdfb 	bl	2a57c <__aeabi_memcpy>
   25986:	ad0d      	add	r5, sp, #52	@ 0x34
   25988:	1c68      	adds	r0, r5, #1
   2598a:	2124      	movs	r1, #36	@ 0x24
   2598c:	9001      	str	r0, [sp, #4]
   2598e:	f004 fc35 	bl	2a1fc <__aeabi_memclr>
   25992:	9400      	str	r4, [sp, #0]
   25994:	702c      	strb	r4, [r5, #0]
   25996:	483f      	ldr	r0, [pc, #252]	@ (25a94 <_ZN20complex_dynamic_type3app17hd8d7f8c947f9c5c1E+0x128>)
   25998:	2504      	movs	r5, #4
   2599a:	4629      	mov	r1, r5
   2599c:	4632      	mov	r2, r6
   2599e:	9b02      	ldr	r3, [sp, #8]
   259a0:	df04      	svc	4
   259a2:	2802      	cmp	r0, #2
   259a4:	d104      	bne.n	259b0 <_ZN20complex_dynamic_type3app17hd8d7f8c947f9c5c1E+0x44>
   259a6:	2001      	movs	r0, #1
   259a8:	9a03      	ldr	r2, [sp, #12]
   259aa:	7010      	strb	r0, [r2, #0]
   259ac:	6051      	str	r1, [r2, #4]
   259ae:	e02c      	b.n	25a0a <_ZN20complex_dynamic_type3app17hd8d7f8c947f9c5c1E+0x9e>
   259b0:	9c03      	ldr	r4, [sp, #12]
   259b2:	a804      	add	r0, sp, #16
   259b4:	7005      	strb	r5, [r0, #0]
   259b6:	4837      	ldr	r0, [pc, #220]	@ (25a94 <_ZN20complex_dynamic_type3app17hd8d7f8c947f9c5c1E+0x128>)
   259b8:	2108      	movs	r1, #8
   259ba:	2324      	movs	r3, #36	@ 0x24
   259bc:	9a01      	ldr	r2, [sp, #4]
   259be:	df03      	svc	3
   259c0:	2802      	cmp	r0, #2
   259c2:	d10e      	bne.n	259e2 <_ZN20complex_dynamic_type3app17hd8d7f8c947f9c5c1E+0x76>
   259c4:	2001      	movs	r0, #1
   259c6:	7020      	strb	r0, [r4, #0]
   259c8:	6061      	str	r1, [r4, #4]
   259ca:	a80d      	add	r0, sp, #52	@ 0x34
   259cc:	7800      	ldrb	r0, [r0, #0]
   259ce:	2802      	cmp	r0, #2
   259d0:	d01b      	beq.n	25a0a <_ZN20complex_dynamic_type3app17hd8d7f8c947f9c5c1E+0x9e>
   259d2:	2803      	cmp	r0, #3
   259d4:	d014      	beq.n	25a00 <_ZN20complex_dynamic_type3app17hd8d7f8c947f9c5c1E+0x94>
   259d6:	482f      	ldr	r0, [pc, #188]	@ (25a94 <_ZN20complex_dynamic_type3app17hd8d7f8c947f9c5c1E+0x128>)
   259d8:	2108      	movs	r1, #8
   259da:	2200      	movs	r2, #0
   259dc:	4613      	mov	r3, r2
   259de:	df04      	svc	4
   259e0:	e013      	b.n	25a0a <_ZN20complex_dynamic_type3app17hd8d7f8c947f9c5c1E+0x9e>
   259e2:	a80d      	add	r0, sp, #52	@ 0x34
   259e4:	2103      	movs	r1, #3
   259e6:	7001      	strb	r1, [r0, #0]
   259e8:	482a      	ldr	r0, [pc, #168]	@ (25a94 <_ZN20complex_dynamic_type3app17hd8d7f8c947f9c5c1E+0x128>)
   259ea:	2104      	movs	r1, #4
   259ec:	2208      	movs	r2, #8
   259ee:	2600      	movs	r6, #0
   259f0:	4633      	mov	r3, r6
   259f2:	df02      	svc	2
   259f4:	287f      	cmp	r0, #127	@ 0x7f
   259f6:	4625      	mov	r5, r4
   259f8:	d816      	bhi.n	25a28 <_ZN20complex_dynamic_type3app17hd8d7f8c947f9c5c1E+0xbc>
   259fa:	2001      	movs	r0, #1
   259fc:	7028      	strb	r0, [r5, #0]
   259fe:	6069      	str	r1, [r5, #4]
   25a00:	4824      	ldr	r0, [pc, #144]	@ (25a94 <_ZN20complex_dynamic_type3app17hd8d7f8c947f9c5c1E+0x128>)
   25a02:	2108      	movs	r1, #8
   25a04:	2200      	movs	r2, #0
   25a06:	4613      	mov	r3, r2
   25a08:	df03      	svc	3
   25a0a:	a804      	add	r0, sp, #16
   25a0c:	7804      	ldrb	r4, [r0, #0]
   25a0e:	2c02      	cmp	r4, #2
   25a10:	d008      	beq.n	25a24 <_ZN20complex_dynamic_type3app17hd8d7f8c947f9c5c1E+0xb8>
   25a12:	4820      	ldr	r0, [pc, #128]	@ (25a94 <_ZN20complex_dynamic_type3app17hd8d7f8c947f9c5c1E+0x128>)
   25a14:	2104      	movs	r1, #4
   25a16:	2200      	movs	r2, #0
   25a18:	4613      	mov	r3, r2
   25a1a:	2c03      	cmp	r4, #3
   25a1c:	d101      	bne.n	25a22 <_ZN20complex_dynamic_type3app17hd8d7f8c947f9c5c1E+0xb6>
   25a1e:	df03      	svc	3
   25a20:	e000      	b.n	25a24 <_ZN20complex_dynamic_type3app17hd8d7f8c947f9c5c1E+0xb8>
   25a22:	df04      	svc	4
   25a24:	b017      	add	sp, #92	@ 0x5c
   25a26:	bdf0      	pop	{r4, r5, r6, r7, pc}
   25a28:	a804      	add	r0, sp, #16
   25a2a:	7800      	ldrb	r0, [r0, #0]
   25a2c:	2802      	cmp	r0, #2
   25a2e:	d01c      	beq.n	25a6a <_ZN20complex_dynamic_type3app17hd8d7f8c947f9c5c1E+0xfe>
   25a30:	2803      	cmp	r0, #3
   25a32:	d105      	bne.n	25a40 <_ZN20complex_dynamic_type3app17hd8d7f8c947f9c5c1E+0xd4>
   25a34:	4817      	ldr	r0, [pc, #92]	@ (25a94 <_ZN20complex_dynamic_type3app17hd8d7f8c947f9c5c1E+0x128>)
   25a36:	2104      	movs	r1, #4
   25a38:	2200      	movs	r2, #0
   25a3a:	4613      	mov	r3, r2
   25a3c:	df03      	svc	3
   25a3e:	e004      	b.n	25a4a <_ZN20complex_dynamic_type3app17hd8d7f8c947f9c5c1E+0xde>
   25a40:	4814      	ldr	r0, [pc, #80]	@ (25a94 <_ZN20complex_dynamic_type3app17hd8d7f8c947f9c5c1E+0x128>)
   25a42:	2104      	movs	r1, #4
   25a44:	2200      	movs	r2, #0
   25a46:	4613      	mov	r3, r2
   25a48:	df04      	svc	4
   25a4a:	9900      	ldr	r1, [sp, #0]
   25a4c:	a804      	add	r0, sp, #16
   25a4e:	7001      	strb	r1, [r0, #0]
   25a50:	a80d      	add	r0, sp, #52	@ 0x34
   25a52:	7800      	ldrb	r0, [r0, #0]
   25a54:	2803      	cmp	r0, #3
   25a56:	d008      	beq.n	25a6a <_ZN20complex_dynamic_type3app17hd8d7f8c947f9c5c1E+0xfe>
   25a58:	2802      	cmp	r0, #2
   25a5a:	d10c      	bne.n	25a76 <_ZN20complex_dynamic_type3app17hd8d7f8c947f9c5c1E+0x10a>
   25a5c:	1c68      	adds	r0, r5, #1
   25a5e:	2224      	movs	r2, #36	@ 0x24
   25a60:	9901      	ldr	r1, [sp, #4]
   25a62:	f004 fd8b 	bl	2a57c <__aeabi_memcpy>
   25a66:	702e      	strb	r6, [r5, #0]
   25a68:	e7dc      	b.n	25a24 <_ZN20complex_dynamic_type3app17hd8d7f8c947f9c5c1E+0xb8>
   25a6a:	480a      	ldr	r0, [pc, #40]	@ (25a94 <_ZN20complex_dynamic_type3app17hd8d7f8c947f9c5c1E+0x128>)
   25a6c:	2108      	movs	r1, #8
   25a6e:	2200      	movs	r2, #0
   25a70:	4613      	mov	r3, r2
   25a72:	df03      	svc	3
   25a74:	e004      	b.n	25a80 <_ZN20complex_dynamic_type3app17hd8d7f8c947f9c5c1E+0x114>
   25a76:	4807      	ldr	r0, [pc, #28]	@ (25a94 <_ZN20complex_dynamic_type3app17hd8d7f8c947f9c5c1E+0x128>)
   25a78:	2108      	movs	r1, #8
   25a7a:	2200      	movs	r2, #0
   25a7c:	4613      	mov	r3, r2
   25a7e:	df04      	svc	4
   25a80:	a804      	add	r0, sp, #16
   25a82:	7804      	ldrb	r4, [r0, #0]
   25a84:	1c68      	adds	r0, r5, #1
   25a86:	2224      	movs	r2, #36	@ 0x24
   25a88:	9901      	ldr	r1, [sp, #4]
   25a8a:	f004 fd77 	bl	2a57c <__aeabi_memcpy>
   25a8e:	702e      	strb	r6, [r5, #0]
   25a90:	e7bd      	b.n	25a0e <_ZN20complex_dynamic_type3app17hd8d7f8c947f9c5c1E+0xa2>
   25a92:	46c0      	nop			@ (mov r8, r8)
   25a94:	00001bd6 	.word	0x00001bd6

00025a98 <_ZN20complex_dynamic_type3app17hd8fddc668cab2624E>:
   25a98:	b5f0      	push	{r4, r5, r6, r7, lr}
   25a9a:	af03      	add	r7, sp, #12
   25a9c:	b0a1      	sub	sp, #132	@ 0x84
   25a9e:	9002      	str	r0, [sp, #8]
   25aa0:	a803      	add	r0, sp, #12
   25aa2:	2602      	movs	r6, #2
   25aa4:	7006      	strb	r6, [r0, #0]
   25aa6:	1c40      	adds	r0, r0, #1
   25aa8:	9001      	str	r0, [sp, #4]
   25aaa:	2521      	movs	r5, #33	@ 0x21
   25aac:	462a      	mov	r2, r5
   25aae:	f004 fd65 	bl	2a57c <__aeabi_memcpy>
   25ab2:	ac0c      	add	r4, sp, #48	@ 0x30
   25ab4:	1c60      	adds	r0, r4, #1
   25ab6:	2153      	movs	r1, #83	@ 0x53
   25ab8:	9000      	str	r0, [sp, #0]
   25aba:	f004 fb9f 	bl	2a1fc <__aeabi_memclr>
   25abe:	7026      	strb	r6, [r4, #0]
   25ac0:	4841      	ldr	r0, [pc, #260]	@ (25bc8 <_ZN20complex_dynamic_type3app17hd8fddc668cab2624E+0x130>)
   25ac2:	4631      	mov	r1, r6
   25ac4:	9a01      	ldr	r2, [sp, #4]
   25ac6:	462b      	mov	r3, r5
   25ac8:	df04      	svc	4
   25aca:	2802      	cmp	r0, #2
   25acc:	d104      	bne.n	25ad8 <_ZN20complex_dynamic_type3app17hd8fddc668cab2624E+0x40>
   25ace:	2001      	movs	r0, #1
   25ad0:	9a02      	ldr	r2, [sp, #8]
   25ad2:	7010      	strb	r0, [r2, #0]
   25ad4:	6051      	str	r1, [r2, #4]
   25ad6:	e02e      	b.n	25b36 <_ZN20complex_dynamic_type3app17hd8fddc668cab2624E+0x9e>
   25ad8:	9c02      	ldr	r4, [sp, #8]
   25ada:	a803      	add	r0, sp, #12
   25adc:	2104      	movs	r1, #4
   25ade:	7001      	strb	r1, [r0, #0]
   25ae0:	4839      	ldr	r0, [pc, #228]	@ (25bc8 <_ZN20complex_dynamic_type3app17hd8fddc668cab2624E+0x130>)
   25ae2:	2108      	movs	r1, #8
   25ae4:	2353      	movs	r3, #83	@ 0x53
   25ae6:	9d00      	ldr	r5, [sp, #0]
   25ae8:	462a      	mov	r2, r5
   25aea:	df03      	svc	3
   25aec:	2802      	cmp	r0, #2
   25aee:	d10e      	bne.n	25b0e <_ZN20complex_dynamic_type3app17hd8fddc668cab2624E+0x76>
   25af0:	2001      	movs	r0, #1
   25af2:	7020      	strb	r0, [r4, #0]
   25af4:	6061      	str	r1, [r4, #4]
   25af6:	a80c      	add	r0, sp, #48	@ 0x30
   25af8:	7800      	ldrb	r0, [r0, #0]
   25afa:	2802      	cmp	r0, #2
   25afc:	d01b      	beq.n	25b36 <_ZN20complex_dynamic_type3app17hd8fddc668cab2624E+0x9e>
   25afe:	2803      	cmp	r0, #3
   25b00:	d014      	beq.n	25b2c <_ZN20complex_dynamic_type3app17hd8fddc668cab2624E+0x94>
   25b02:	4831      	ldr	r0, [pc, #196]	@ (25bc8 <_ZN20complex_dynamic_type3app17hd8fddc668cab2624E+0x130>)
   25b04:	2108      	movs	r1, #8
   25b06:	2200      	movs	r2, #0
   25b08:	4613      	mov	r3, r2
   25b0a:	df04      	svc	4
   25b0c:	e013      	b.n	25b36 <_ZN20complex_dynamic_type3app17hd8fddc668cab2624E+0x9e>
   25b0e:	a80c      	add	r0, sp, #48	@ 0x30
   25b10:	2103      	movs	r1, #3
   25b12:	7001      	strb	r1, [r0, #0]
   25b14:	482c      	ldr	r0, [pc, #176]	@ (25bc8 <_ZN20complex_dynamic_type3app17hd8fddc668cab2624E+0x130>)
   25b16:	2602      	movs	r6, #2
   25b18:	2208      	movs	r2, #8
   25b1a:	2300      	movs	r3, #0
   25b1c:	4631      	mov	r1, r6
   25b1e:	9301      	str	r3, [sp, #4]
   25b20:	df02      	svc	2
   25b22:	287f      	cmp	r0, #127	@ 0x7f
   25b24:	d816      	bhi.n	25b54 <_ZN20complex_dynamic_type3app17hd8fddc668cab2624E+0xbc>
   25b26:	2001      	movs	r0, #1
   25b28:	7020      	strb	r0, [r4, #0]
   25b2a:	6061      	str	r1, [r4, #4]
   25b2c:	4826      	ldr	r0, [pc, #152]	@ (25bc8 <_ZN20complex_dynamic_type3app17hd8fddc668cab2624E+0x130>)
   25b2e:	2108      	movs	r1, #8
   25b30:	2200      	movs	r2, #0
   25b32:	4613      	mov	r3, r2
   25b34:	df03      	svc	3
   25b36:	a803      	add	r0, sp, #12
   25b38:	7804      	ldrb	r4, [r0, #0]
   25b3a:	2c02      	cmp	r4, #2
   25b3c:	d008      	beq.n	25b50 <_ZN20complex_dynamic_type3app17hd8fddc668cab2624E+0xb8>
   25b3e:	4822      	ldr	r0, [pc, #136]	@ (25bc8 <_ZN20complex_dynamic_type3app17hd8fddc668cab2624E+0x130>)
   25b40:	2102      	movs	r1, #2
   25b42:	2200      	movs	r2, #0
   25b44:	4613      	mov	r3, r2
   25b46:	2c03      	cmp	r4, #3
   25b48:	d101      	bne.n	25b4e <_ZN20complex_dynamic_type3app17hd8fddc668cab2624E+0xb6>
   25b4a:	df03      	svc	3
   25b4c:	e000      	b.n	25b50 <_ZN20complex_dynamic_type3app17hd8fddc668cab2624E+0xb8>
   25b4e:	df04      	svc	4
   25b50:	b021      	add	sp, #132	@ 0x84
   25b52:	bdf0      	pop	{r4, r5, r6, r7, pc}
   25b54:	a803      	add	r0, sp, #12
   25b56:	7800      	ldrb	r0, [r0, #0]
   25b58:	2802      	cmp	r0, #2
   25b5a:	d01c      	beq.n	25b96 <_ZN20complex_dynamic_type3app17hd8fddc668cab2624E+0xfe>
   25b5c:	2803      	cmp	r0, #3
   25b5e:	d105      	bne.n	25b6c <_ZN20complex_dynamic_type3app17hd8fddc668cab2624E+0xd4>
   25b60:	4819      	ldr	r0, [pc, #100]	@ (25bc8 <_ZN20complex_dynamic_type3app17hd8fddc668cab2624E+0x130>)
   25b62:	2102      	movs	r1, #2
   25b64:	2200      	movs	r2, #0
   25b66:	4613      	mov	r3, r2
   25b68:	df03      	svc	3
   25b6a:	e004      	b.n	25b76 <_ZN20complex_dynamic_type3app17hd8fddc668cab2624E+0xde>
   25b6c:	4816      	ldr	r0, [pc, #88]	@ (25bc8 <_ZN20complex_dynamic_type3app17hd8fddc668cab2624E+0x130>)
   25b6e:	2102      	movs	r1, #2
   25b70:	2200      	movs	r2, #0
   25b72:	4613      	mov	r3, r2
   25b74:	df04      	svc	4
   25b76:	a803      	add	r0, sp, #12
   25b78:	7006      	strb	r6, [r0, #0]
   25b7a:	a80c      	add	r0, sp, #48	@ 0x30
   25b7c:	7800      	ldrb	r0, [r0, #0]
   25b7e:	2803      	cmp	r0, #3
   25b80:	d009      	beq.n	25b96 <_ZN20complex_dynamic_type3app17hd8fddc668cab2624E+0xfe>
   25b82:	2802      	cmp	r0, #2
   25b84:	d10e      	bne.n	25ba4 <_ZN20complex_dynamic_type3app17hd8fddc668cab2624E+0x10c>
   25b86:	1c60      	adds	r0, r4, #1
   25b88:	2253      	movs	r2, #83	@ 0x53
   25b8a:	4629      	mov	r1, r5
   25b8c:	f004 fcf6 	bl	2a57c <__aeabi_memcpy>
   25b90:	9801      	ldr	r0, [sp, #4]
   25b92:	7020      	strb	r0, [r4, #0]
   25b94:	e7dc      	b.n	25b50 <_ZN20complex_dynamic_type3app17hd8fddc668cab2624E+0xb8>
   25b96:	462e      	mov	r6, r5
   25b98:	480b      	ldr	r0, [pc, #44]	@ (25bc8 <_ZN20complex_dynamic_type3app17hd8fddc668cab2624E+0x130>)
   25b9a:	2108      	movs	r1, #8
   25b9c:	2200      	movs	r2, #0
   25b9e:	4613      	mov	r3, r2
   25ba0:	df03      	svc	3
   25ba2:	e005      	b.n	25bb0 <_ZN20complex_dynamic_type3app17hd8fddc668cab2624E+0x118>
   25ba4:	462e      	mov	r6, r5
   25ba6:	4808      	ldr	r0, [pc, #32]	@ (25bc8 <_ZN20complex_dynamic_type3app17hd8fddc668cab2624E+0x130>)
   25ba8:	2108      	movs	r1, #8
   25baa:	2200      	movs	r2, #0
   25bac:	4613      	mov	r3, r2
   25bae:	df04      	svc	4
   25bb0:	4625      	mov	r5, r4
   25bb2:	a803      	add	r0, sp, #12
   25bb4:	7804      	ldrb	r4, [r0, #0]
   25bb6:	1c68      	adds	r0, r5, #1
   25bb8:	2253      	movs	r2, #83	@ 0x53
   25bba:	4631      	mov	r1, r6
   25bbc:	f004 fcde 	bl	2a57c <__aeabi_memcpy>
   25bc0:	9801      	ldr	r0, [sp, #4]
   25bc2:	7028      	strb	r0, [r5, #0]
   25bc4:	e7b9      	b.n	25b3a <_ZN20complex_dynamic_type3app17hd8fddc668cab2624E+0xa2>
   25bc6:	46c0      	nop			@ (mov r8, r8)
   25bc8:	0000253e 	.word	0x0000253e

00025bcc <_ZN20complex_dynamic_type3app17hdaee2da42808b8b6E>:
   25bcc:	b5f0      	push	{r4, r5, r6, r7, lr}
   25bce:	af03      	add	r7, sp, #12
   25bd0:	b093      	sub	sp, #76	@ 0x4c
   25bd2:	9004      	str	r0, [sp, #16]
   25bd4:	a805      	add	r0, sp, #20
   25bd6:	2402      	movs	r4, #2
   25bd8:	7004      	strb	r4, [r0, #0]
   25bda:	1c46      	adds	r6, r0, #1
   25bdc:	220f      	movs	r2, #15
   25bde:	9203      	str	r2, [sp, #12]
   25be0:	4630      	mov	r0, r6
   25be2:	f004 fccb 	bl	2a57c <__aeabi_memcpy>
   25be6:	ad09      	add	r5, sp, #36	@ 0x24
   25be8:	1c68      	adds	r0, r5, #1
   25bea:	2125      	movs	r1, #37	@ 0x25
   25bec:	9002      	str	r0, [sp, #8]
   25bee:	f004 fb05 	bl	2a1fc <__aeabi_memclr>
   25bf2:	9401      	str	r4, [sp, #4]
   25bf4:	702c      	strb	r4, [r5, #0]
   25bf6:	20a2      	movs	r0, #162	@ 0xa2
   25bf8:	2108      	movs	r1, #8
   25bfa:	4632      	mov	r2, r6
   25bfc:	9b03      	ldr	r3, [sp, #12]
   25bfe:	df04      	svc	4
   25c00:	2802      	cmp	r0, #2
   25c02:	d104      	bne.n	25c0e <_ZN20complex_dynamic_type3app17hdaee2da42808b8b6E+0x42>
   25c04:	2001      	movs	r0, #1
   25c06:	9a04      	ldr	r2, [sp, #16]
   25c08:	7010      	strb	r0, [r2, #0]
   25c0a:	6051      	str	r1, [r2, #4]
   25c0c:	e02d      	b.n	25c6a <_ZN20complex_dynamic_type3app17hdaee2da42808b8b6E+0x9e>
   25c0e:	9d04      	ldr	r5, [sp, #16]
   25c10:	a805      	add	r0, sp, #20
   25c12:	2104      	movs	r1, #4
   25c14:	7001      	strb	r1, [r0, #0]
   25c16:	20a2      	movs	r0, #162	@ 0xa2
   25c18:	2100      	movs	r1, #0
   25c1a:	2325      	movs	r3, #37	@ 0x25
   25c1c:	9c02      	ldr	r4, [sp, #8]
   25c1e:	4622      	mov	r2, r4
   25c20:	df03      	svc	3
   25c22:	2802      	cmp	r0, #2
   25c24:	d10e      	bne.n	25c44 <_ZN20complex_dynamic_type3app17hdaee2da42808b8b6E+0x78>
   25c26:	2001      	movs	r0, #1
   25c28:	7028      	strb	r0, [r5, #0]
   25c2a:	6069      	str	r1, [r5, #4]
   25c2c:	a809      	add	r0, sp, #36	@ 0x24
   25c2e:	7800      	ldrb	r0, [r0, #0]
   25c30:	2802      	cmp	r0, #2
   25c32:	d01a      	beq.n	25c6a <_ZN20complex_dynamic_type3app17hdaee2da42808b8b6E+0x9e>
   25c34:	2803      	cmp	r0, #3
   25c36:	d013      	beq.n	25c60 <_ZN20complex_dynamic_type3app17hdaee2da42808b8b6E+0x94>
   25c38:	20a2      	movs	r0, #162	@ 0xa2
   25c3a:	2100      	movs	r1, #0
   25c3c:	460a      	mov	r2, r1
   25c3e:	460b      	mov	r3, r1
   25c40:	df04      	svc	4
   25c42:	e012      	b.n	25c6a <_ZN20complex_dynamic_type3app17hdaee2da42808b8b6E+0x9e>
   25c44:	a809      	add	r0, sp, #36	@ 0x24
   25c46:	2103      	movs	r1, #3
   25c48:	7001      	strb	r1, [r0, #0]
   25c4a:	20a2      	movs	r0, #162	@ 0xa2
   25c4c:	2108      	movs	r1, #8
   25c4e:	2600      	movs	r6, #0
   25c50:	4632      	mov	r2, r6
   25c52:	4633      	mov	r3, r6
   25c54:	df02      	svc	2
   25c56:	287f      	cmp	r0, #127	@ 0x7f
   25c58:	d816      	bhi.n	25c88 <_ZN20complex_dynamic_type3app17hdaee2da42808b8b6E+0xbc>
   25c5a:	2001      	movs	r0, #1
   25c5c:	7028      	strb	r0, [r5, #0]
   25c5e:	6069      	str	r1, [r5, #4]
   25c60:	20a2      	movs	r0, #162	@ 0xa2
   25c62:	2100      	movs	r1, #0
   25c64:	460a      	mov	r2, r1
   25c66:	460b      	mov	r3, r1
   25c68:	df03      	svc	3
   25c6a:	a805      	add	r0, sp, #20
   25c6c:	7804      	ldrb	r4, [r0, #0]
   25c6e:	2c02      	cmp	r4, #2
   25c70:	d008      	beq.n	25c84 <_ZN20complex_dynamic_type3app17hdaee2da42808b8b6E+0xb8>
   25c72:	20a2      	movs	r0, #162	@ 0xa2
   25c74:	2108      	movs	r1, #8
   25c76:	2200      	movs	r2, #0
   25c78:	4613      	mov	r3, r2
   25c7a:	2c03      	cmp	r4, #3
   25c7c:	d101      	bne.n	25c82 <_ZN20complex_dynamic_type3app17hdaee2da42808b8b6E+0xb6>
   25c7e:	df03      	svc	3
   25c80:	e000      	b.n	25c84 <_ZN20complex_dynamic_type3app17hdaee2da42808b8b6E+0xb8>
   25c82:	df04      	svc	4
   25c84:	b013      	add	sp, #76	@ 0x4c
   25c86:	bdf0      	pop	{r4, r5, r6, r7, pc}
   25c88:	a805      	add	r0, sp, #20
   25c8a:	7800      	ldrb	r0, [r0, #0]
   25c8c:	2802      	cmp	r0, #2
   25c8e:	d01c      	beq.n	25cca <_ZN20complex_dynamic_type3app17hdaee2da42808b8b6E+0xfe>
   25c90:	2803      	cmp	r0, #3
   25c92:	d105      	bne.n	25ca0 <_ZN20complex_dynamic_type3app17hdaee2da42808b8b6E+0xd4>
   25c94:	20a2      	movs	r0, #162	@ 0xa2
   25c96:	2108      	movs	r1, #8
   25c98:	2200      	movs	r2, #0
   25c9a:	4613      	mov	r3, r2
   25c9c:	df03      	svc	3
   25c9e:	e004      	b.n	25caa <_ZN20complex_dynamic_type3app17hdaee2da42808b8b6E+0xde>
   25ca0:	20a2      	movs	r0, #162	@ 0xa2
   25ca2:	2108      	movs	r1, #8
   25ca4:	2200      	movs	r2, #0
   25ca6:	4613      	mov	r3, r2
   25ca8:	df04      	svc	4
   25caa:	a805      	add	r0, sp, #20
   25cac:	9901      	ldr	r1, [sp, #4]
   25cae:	7001      	strb	r1, [r0, #0]
   25cb0:	a809      	add	r0, sp, #36	@ 0x24
   25cb2:	7800      	ldrb	r0, [r0, #0]
   25cb4:	2803      	cmp	r0, #3
   25cb6:	d008      	beq.n	25cca <_ZN20complex_dynamic_type3app17hdaee2da42808b8b6E+0xfe>
   25cb8:	2802      	cmp	r0, #2
   25cba:	d10c      	bne.n	25cd6 <_ZN20complex_dynamic_type3app17hdaee2da42808b8b6E+0x10a>
   25cbc:	1c68      	adds	r0, r5, #1
   25cbe:	2225      	movs	r2, #37	@ 0x25
   25cc0:	4621      	mov	r1, r4
   25cc2:	f004 fc5b 	bl	2a57c <__aeabi_memcpy>
   25cc6:	702e      	strb	r6, [r5, #0]
   25cc8:	e7dc      	b.n	25c84 <_ZN20complex_dynamic_type3app17hdaee2da42808b8b6E+0xb8>
   25cca:	20a2      	movs	r0, #162	@ 0xa2
   25ccc:	2100      	movs	r1, #0
   25cce:	460a      	mov	r2, r1
   25cd0:	460b      	mov	r3, r1
   25cd2:	df03      	svc	3
   25cd4:	e004      	b.n	25ce0 <_ZN20complex_dynamic_type3app17hdaee2da42808b8b6E+0x114>
   25cd6:	20a2      	movs	r0, #162	@ 0xa2
   25cd8:	2100      	movs	r1, #0
   25cda:	460a      	mov	r2, r1
   25cdc:	460b      	mov	r3, r1
   25cde:	df04      	svc	4
   25ce0:	a805      	add	r0, sp, #20
   25ce2:	7804      	ldrb	r4, [r0, #0]
   25ce4:	1c68      	adds	r0, r5, #1
   25ce6:	2225      	movs	r2, #37	@ 0x25
   25ce8:	9902      	ldr	r1, [sp, #8]
   25cea:	f004 fc47 	bl	2a57c <__aeabi_memcpy>
   25cee:	702e      	strb	r6, [r5, #0]
   25cf0:	e7bd      	b.n	25c6e <_ZN20complex_dynamic_type3app17hdaee2da42808b8b6E+0xa2>
   25cf2:	d4d4      	bmi.n	25c9e <_ZN20complex_dynamic_type3app17hdaee2da42808b8b6E+0xd2>

00025cf4 <_ZN20complex_dynamic_type3app17hdddbff550d636aacE>:
   25cf4:	b5f0      	push	{r4, r5, r6, r7, lr}
   25cf6:	af03      	add	r7, sp, #12
   25cf8:	b0a9      	sub	sp, #164	@ 0xa4
   25cfa:	9004      	str	r0, [sp, #16]
   25cfc:	a805      	add	r0, sp, #20
   25cfe:	2402      	movs	r4, #2
   25d00:	7004      	strb	r4, [r0, #0]
   25d02:	1c46      	adds	r6, r0, #1
   25d04:	224d      	movs	r2, #77	@ 0x4d
   25d06:	9203      	str	r2, [sp, #12]
   25d08:	4630      	mov	r0, r6
   25d0a:	f004 fc37 	bl	2a57c <__aeabi_memcpy>
   25d0e:	ad19      	add	r5, sp, #100	@ 0x64
   25d10:	1c68      	adds	r0, r5, #1
   25d12:	213c      	movs	r1, #60	@ 0x3c
   25d14:	9002      	str	r0, [sp, #8]
   25d16:	f004 fa71 	bl	2a1fc <__aeabi_memclr>
   25d1a:	9401      	str	r4, [sp, #4]
   25d1c:	702c      	strb	r4, [r5, #0]
   25d1e:	483f      	ldr	r0, [pc, #252]	@ (25e1c <_ZN20complex_dynamic_type3app17hdddbff550d636aacE+0x128>)
   25d20:	2504      	movs	r5, #4
   25d22:	4629      	mov	r1, r5
   25d24:	4632      	mov	r2, r6
   25d26:	9b03      	ldr	r3, [sp, #12]
   25d28:	df04      	svc	4
   25d2a:	2802      	cmp	r0, #2
   25d2c:	d104      	bne.n	25d38 <_ZN20complex_dynamic_type3app17hdddbff550d636aacE+0x44>
   25d2e:	2001      	movs	r0, #1
   25d30:	9a04      	ldr	r2, [sp, #16]
   25d32:	7010      	strb	r0, [r2, #0]
   25d34:	6051      	str	r1, [r2, #4]
   25d36:	e02c      	b.n	25d92 <_ZN20complex_dynamic_type3app17hdddbff550d636aacE+0x9e>
   25d38:	9c04      	ldr	r4, [sp, #16]
   25d3a:	a805      	add	r0, sp, #20
   25d3c:	7005      	strb	r5, [r0, #0]
   25d3e:	4837      	ldr	r0, [pc, #220]	@ (25e1c <_ZN20complex_dynamic_type3app17hdddbff550d636aacE+0x128>)
   25d40:	2109      	movs	r1, #9
   25d42:	233c      	movs	r3, #60	@ 0x3c
   25d44:	9a02      	ldr	r2, [sp, #8]
   25d46:	df03      	svc	3
   25d48:	2802      	cmp	r0, #2
   25d4a:	d10e      	bne.n	25d6a <_ZN20complex_dynamic_type3app17hdddbff550d636aacE+0x76>
   25d4c:	2001      	movs	r0, #1
   25d4e:	7020      	strb	r0, [r4, #0]
   25d50:	6061      	str	r1, [r4, #4]
   25d52:	a819      	add	r0, sp, #100	@ 0x64
   25d54:	7800      	ldrb	r0, [r0, #0]
   25d56:	2802      	cmp	r0, #2
   25d58:	d01b      	beq.n	25d92 <_ZN20complex_dynamic_type3app17hdddbff550d636aacE+0x9e>
   25d5a:	2803      	cmp	r0, #3
   25d5c:	d014      	beq.n	25d88 <_ZN20complex_dynamic_type3app17hdddbff550d636aacE+0x94>
   25d5e:	482f      	ldr	r0, [pc, #188]	@ (25e1c <_ZN20complex_dynamic_type3app17hdddbff550d636aacE+0x128>)
   25d60:	2109      	movs	r1, #9
   25d62:	2200      	movs	r2, #0
   25d64:	4613      	mov	r3, r2
   25d66:	df04      	svc	4
   25d68:	e013      	b.n	25d92 <_ZN20complex_dynamic_type3app17hdddbff550d636aacE+0x9e>
   25d6a:	a819      	add	r0, sp, #100	@ 0x64
   25d6c:	2103      	movs	r1, #3
   25d6e:	7001      	strb	r1, [r0, #0]
   25d70:	482a      	ldr	r0, [pc, #168]	@ (25e1c <_ZN20complex_dynamic_type3app17hdddbff550d636aacE+0x128>)
   25d72:	2104      	movs	r1, #4
   25d74:	2209      	movs	r2, #9
   25d76:	2600      	movs	r6, #0
   25d78:	4633      	mov	r3, r6
   25d7a:	df02      	svc	2
   25d7c:	287f      	cmp	r0, #127	@ 0x7f
   25d7e:	4625      	mov	r5, r4
   25d80:	d816      	bhi.n	25db0 <_ZN20complex_dynamic_type3app17hdddbff550d636aacE+0xbc>
   25d82:	2001      	movs	r0, #1
   25d84:	7028      	strb	r0, [r5, #0]
   25d86:	6069      	str	r1, [r5, #4]
   25d88:	4824      	ldr	r0, [pc, #144]	@ (25e1c <_ZN20complex_dynamic_type3app17hdddbff550d636aacE+0x128>)
   25d8a:	2109      	movs	r1, #9
   25d8c:	2200      	movs	r2, #0
   25d8e:	4613      	mov	r3, r2
   25d90:	df03      	svc	3
   25d92:	a805      	add	r0, sp, #20
   25d94:	7804      	ldrb	r4, [r0, #0]
   25d96:	2c02      	cmp	r4, #2
   25d98:	d008      	beq.n	25dac <_ZN20complex_dynamic_type3app17hdddbff550d636aacE+0xb8>
   25d9a:	4820      	ldr	r0, [pc, #128]	@ (25e1c <_ZN20complex_dynamic_type3app17hdddbff550d636aacE+0x128>)
   25d9c:	2104      	movs	r1, #4
   25d9e:	2200      	movs	r2, #0
   25da0:	4613      	mov	r3, r2
   25da2:	2c03      	cmp	r4, #3
   25da4:	d101      	bne.n	25daa <_ZN20complex_dynamic_type3app17hdddbff550d636aacE+0xb6>
   25da6:	df03      	svc	3
   25da8:	e000      	b.n	25dac <_ZN20complex_dynamic_type3app17hdddbff550d636aacE+0xb8>
   25daa:	df04      	svc	4
   25dac:	b029      	add	sp, #164	@ 0xa4
   25dae:	bdf0      	pop	{r4, r5, r6, r7, pc}
   25db0:	a805      	add	r0, sp, #20
   25db2:	7800      	ldrb	r0, [r0, #0]
   25db4:	2802      	cmp	r0, #2
   25db6:	d01c      	beq.n	25df2 <_ZN20complex_dynamic_type3app17hdddbff550d636aacE+0xfe>
   25db8:	2803      	cmp	r0, #3
   25dba:	d105      	bne.n	25dc8 <_ZN20complex_dynamic_type3app17hdddbff550d636aacE+0xd4>
   25dbc:	4817      	ldr	r0, [pc, #92]	@ (25e1c <_ZN20complex_dynamic_type3app17hdddbff550d636aacE+0x128>)
   25dbe:	2104      	movs	r1, #4
   25dc0:	2200      	movs	r2, #0
   25dc2:	4613      	mov	r3, r2
   25dc4:	df03      	svc	3
   25dc6:	e004      	b.n	25dd2 <_ZN20complex_dynamic_type3app17hdddbff550d636aacE+0xde>
   25dc8:	4814      	ldr	r0, [pc, #80]	@ (25e1c <_ZN20complex_dynamic_type3app17hdddbff550d636aacE+0x128>)
   25dca:	2104      	movs	r1, #4
   25dcc:	2200      	movs	r2, #0
   25dce:	4613      	mov	r3, r2
   25dd0:	df04      	svc	4
   25dd2:	9901      	ldr	r1, [sp, #4]
   25dd4:	a805      	add	r0, sp, #20
   25dd6:	7001      	strb	r1, [r0, #0]
   25dd8:	a819      	add	r0, sp, #100	@ 0x64
   25dda:	7800      	ldrb	r0, [r0, #0]
   25ddc:	2803      	cmp	r0, #3
   25dde:	d008      	beq.n	25df2 <_ZN20complex_dynamic_type3app17hdddbff550d636aacE+0xfe>
   25de0:	2802      	cmp	r0, #2
   25de2:	d10c      	bne.n	25dfe <_ZN20complex_dynamic_type3app17hdddbff550d636aacE+0x10a>
   25de4:	1c68      	adds	r0, r5, #1
   25de6:	223c      	movs	r2, #60	@ 0x3c
   25de8:	9902      	ldr	r1, [sp, #8]
   25dea:	f004 fbc7 	bl	2a57c <__aeabi_memcpy>
   25dee:	702e      	strb	r6, [r5, #0]
   25df0:	e7dc      	b.n	25dac <_ZN20complex_dynamic_type3app17hdddbff550d636aacE+0xb8>
   25df2:	480a      	ldr	r0, [pc, #40]	@ (25e1c <_ZN20complex_dynamic_type3app17hdddbff550d636aacE+0x128>)
   25df4:	2109      	movs	r1, #9
   25df6:	2200      	movs	r2, #0
   25df8:	4613      	mov	r3, r2
   25dfa:	df03      	svc	3
   25dfc:	e004      	b.n	25e08 <_ZN20complex_dynamic_type3app17hdddbff550d636aacE+0x114>
   25dfe:	4807      	ldr	r0, [pc, #28]	@ (25e1c <_ZN20complex_dynamic_type3app17hdddbff550d636aacE+0x128>)
   25e00:	2109      	movs	r1, #9
   25e02:	2200      	movs	r2, #0
   25e04:	4613      	mov	r3, r2
   25e06:	df04      	svc	4
   25e08:	a805      	add	r0, sp, #20
   25e0a:	7804      	ldrb	r4, [r0, #0]
   25e0c:	1c68      	adds	r0, r5, #1
   25e0e:	223c      	movs	r2, #60	@ 0x3c
   25e10:	9902      	ldr	r1, [sp, #8]
   25e12:	f004 fbb3 	bl	2a57c <__aeabi_memcpy>
   25e16:	702e      	strb	r6, [r5, #0]
   25e18:	e7bd      	b.n	25d96 <_ZN20complex_dynamic_type3app17hdddbff550d636aacE+0xa2>
   25e1a:	46c0      	nop			@ (mov r8, r8)
   25e1c:	000021ab 	.word	0x000021ab

00025e20 <_ZN20complex_dynamic_type3app17hdfee50177638a7caE>:
   25e20:	b5f0      	push	{r4, r5, r6, r7, lr}
   25e22:	af03      	add	r7, sp, #12
   25e24:	b09f      	sub	sp, #124	@ 0x7c
   25e26:	9002      	str	r0, [sp, #8]
   25e28:	a803      	add	r0, sp, #12
   25e2a:	2602      	movs	r6, #2
   25e2c:	7006      	strb	r6, [r0, #0]
   25e2e:	1c40      	adds	r0, r0, #1
   25e30:	9001      	str	r0, [sp, #4]
   25e32:	2550      	movs	r5, #80	@ 0x50
   25e34:	462a      	mov	r2, r5
   25e36:	f004 fba1 	bl	2a57c <__aeabi_memcpy>
   25e3a:	ac18      	add	r4, sp, #96	@ 0x60
   25e3c:	1c60      	adds	r0, r4, #1
   25e3e:	211b      	movs	r1, #27
   25e40:	9000      	str	r0, [sp, #0]
   25e42:	f004 f9db 	bl	2a1fc <__aeabi_memclr>
   25e46:	7026      	strb	r6, [r4, #0]
   25e48:	483f      	ldr	r0, [pc, #252]	@ (25f48 <_ZN20complex_dynamic_type3app17hdfee50177638a7caE+0x128>)
   25e4a:	2601      	movs	r6, #1
   25e4c:	4631      	mov	r1, r6
   25e4e:	9a01      	ldr	r2, [sp, #4]
   25e50:	462b      	mov	r3, r5
   25e52:	df04      	svc	4
   25e54:	2802      	cmp	r0, #2
   25e56:	d103      	bne.n	25e60 <_ZN20complex_dynamic_type3app17hdfee50177638a7caE+0x40>
   25e58:	9802      	ldr	r0, [sp, #8]
   25e5a:	7006      	strb	r6, [r0, #0]
   25e5c:	6041      	str	r1, [r0, #4]
   25e5e:	e02c      	b.n	25eba <_ZN20complex_dynamic_type3app17hdfee50177638a7caE+0x9a>
   25e60:	9d02      	ldr	r5, [sp, #8]
   25e62:	a803      	add	r0, sp, #12
   25e64:	2104      	movs	r1, #4
   25e66:	7001      	strb	r1, [r0, #0]
   25e68:	4837      	ldr	r0, [pc, #220]	@ (25f48 <_ZN20complex_dynamic_type3app17hdfee50177638a7caE+0x128>)
   25e6a:	2102      	movs	r1, #2
   25e6c:	231b      	movs	r3, #27
   25e6e:	9a00      	ldr	r2, [sp, #0]
   25e70:	df03      	svc	3
   25e72:	2802      	cmp	r0, #2
   25e74:	d10d      	bne.n	25e92 <_ZN20complex_dynamic_type3app17hdfee50177638a7caE+0x72>
   25e76:	702e      	strb	r6, [r5, #0]
   25e78:	6069      	str	r1, [r5, #4]
   25e7a:	a818      	add	r0, sp, #96	@ 0x60
   25e7c:	7800      	ldrb	r0, [r0, #0]
   25e7e:	2802      	cmp	r0, #2
   25e80:	d01b      	beq.n	25eba <_ZN20complex_dynamic_type3app17hdfee50177638a7caE+0x9a>
   25e82:	2803      	cmp	r0, #3
   25e84:	d014      	beq.n	25eb0 <_ZN20complex_dynamic_type3app17hdfee50177638a7caE+0x90>
   25e86:	4830      	ldr	r0, [pc, #192]	@ (25f48 <_ZN20complex_dynamic_type3app17hdfee50177638a7caE+0x128>)
   25e88:	2102      	movs	r1, #2
   25e8a:	2200      	movs	r2, #0
   25e8c:	4613      	mov	r3, r2
   25e8e:	df04      	svc	4
   25e90:	e013      	b.n	25eba <_ZN20complex_dynamic_type3app17hdfee50177638a7caE+0x9a>
   25e92:	a818      	add	r0, sp, #96	@ 0x60
   25e94:	2103      	movs	r1, #3
   25e96:	7001      	strb	r1, [r0, #0]
   25e98:	482b      	ldr	r0, [pc, #172]	@ (25f48 <_ZN20complex_dynamic_type3app17hdfee50177638a7caE+0x128>)
   25e9a:	2401      	movs	r4, #1
   25e9c:	2602      	movs	r6, #2
   25e9e:	2300      	movs	r3, #0
   25ea0:	4621      	mov	r1, r4
   25ea2:	4632      	mov	r2, r6
   25ea4:	9301      	str	r3, [sp, #4]
   25ea6:	df02      	svc	2
   25ea8:	287f      	cmp	r0, #127	@ 0x7f
   25eaa:	d815      	bhi.n	25ed8 <_ZN20complex_dynamic_type3app17hdfee50177638a7caE+0xb8>
   25eac:	702c      	strb	r4, [r5, #0]
   25eae:	6069      	str	r1, [r5, #4]
   25eb0:	4825      	ldr	r0, [pc, #148]	@ (25f48 <_ZN20complex_dynamic_type3app17hdfee50177638a7caE+0x128>)
   25eb2:	2102      	movs	r1, #2
   25eb4:	2200      	movs	r2, #0
   25eb6:	4613      	mov	r3, r2
   25eb8:	df03      	svc	3
   25eba:	a803      	add	r0, sp, #12
   25ebc:	7804      	ldrb	r4, [r0, #0]
   25ebe:	2c02      	cmp	r4, #2
   25ec0:	d008      	beq.n	25ed4 <_ZN20complex_dynamic_type3app17hdfee50177638a7caE+0xb4>
   25ec2:	4821      	ldr	r0, [pc, #132]	@ (25f48 <_ZN20complex_dynamic_type3app17hdfee50177638a7caE+0x128>)
   25ec4:	2101      	movs	r1, #1
   25ec6:	2200      	movs	r2, #0
   25ec8:	4613      	mov	r3, r2
   25eca:	2c03      	cmp	r4, #3
   25ecc:	d101      	bne.n	25ed2 <_ZN20complex_dynamic_type3app17hdfee50177638a7caE+0xb2>
   25ece:	df03      	svc	3
   25ed0:	e000      	b.n	25ed4 <_ZN20complex_dynamic_type3app17hdfee50177638a7caE+0xb4>
   25ed2:	df04      	svc	4
   25ed4:	b01f      	add	sp, #124	@ 0x7c
   25ed6:	bdf0      	pop	{r4, r5, r6, r7, pc}
   25ed8:	a803      	add	r0, sp, #12
   25eda:	7800      	ldrb	r0, [r0, #0]
   25edc:	2802      	cmp	r0, #2
   25ede:	9c00      	ldr	r4, [sp, #0]
   25ee0:	d01c      	beq.n	25f1c <_ZN20complex_dynamic_type3app17hdfee50177638a7caE+0xfc>
   25ee2:	2803      	cmp	r0, #3
   25ee4:	d105      	bne.n	25ef2 <_ZN20complex_dynamic_type3app17hdfee50177638a7caE+0xd2>
   25ee6:	4818      	ldr	r0, [pc, #96]	@ (25f48 <_ZN20complex_dynamic_type3app17hdfee50177638a7caE+0x128>)
   25ee8:	2101      	movs	r1, #1
   25eea:	2200      	movs	r2, #0
   25eec:	4613      	mov	r3, r2
   25eee:	df03      	svc	3
   25ef0:	e004      	b.n	25efc <_ZN20complex_dynamic_type3app17hdfee50177638a7caE+0xdc>
   25ef2:	4815      	ldr	r0, [pc, #84]	@ (25f48 <_ZN20complex_dynamic_type3app17hdfee50177638a7caE+0x128>)
   25ef4:	2101      	movs	r1, #1
   25ef6:	2200      	movs	r2, #0
   25ef8:	4613      	mov	r3, r2
   25efa:	df04      	svc	4
   25efc:	a803      	add	r0, sp, #12
   25efe:	7006      	strb	r6, [r0, #0]
   25f00:	a818      	add	r0, sp, #96	@ 0x60
   25f02:	7800      	ldrb	r0, [r0, #0]
   25f04:	2803      	cmp	r0, #3
   25f06:	d009      	beq.n	25f1c <_ZN20complex_dynamic_type3app17hdfee50177638a7caE+0xfc>
   25f08:	2802      	cmp	r0, #2
   25f0a:	d10d      	bne.n	25f28 <_ZN20complex_dynamic_type3app17hdfee50177638a7caE+0x108>
   25f0c:	1c68      	adds	r0, r5, #1
   25f0e:	221b      	movs	r2, #27
   25f10:	4621      	mov	r1, r4
   25f12:	f004 fb33 	bl	2a57c <__aeabi_memcpy>
   25f16:	9801      	ldr	r0, [sp, #4]
   25f18:	7028      	strb	r0, [r5, #0]
   25f1a:	e7db      	b.n	25ed4 <_ZN20complex_dynamic_type3app17hdfee50177638a7caE+0xb4>
   25f1c:	480a      	ldr	r0, [pc, #40]	@ (25f48 <_ZN20complex_dynamic_type3app17hdfee50177638a7caE+0x128>)
   25f1e:	2102      	movs	r1, #2
   25f20:	2200      	movs	r2, #0
   25f22:	4613      	mov	r3, r2
   25f24:	df03      	svc	3
   25f26:	e004      	b.n	25f32 <_ZN20complex_dynamic_type3app17hdfee50177638a7caE+0x112>
   25f28:	4807      	ldr	r0, [pc, #28]	@ (25f48 <_ZN20complex_dynamic_type3app17hdfee50177638a7caE+0x128>)
   25f2a:	2102      	movs	r1, #2
   25f2c:	2200      	movs	r2, #0
   25f2e:	4613      	mov	r3, r2
   25f30:	df04      	svc	4
   25f32:	a803      	add	r0, sp, #12
   25f34:	7804      	ldrb	r4, [r0, #0]
   25f36:	1c68      	adds	r0, r5, #1
   25f38:	221b      	movs	r2, #27
   25f3a:	9900      	ldr	r1, [sp, #0]
   25f3c:	f004 fb1e 	bl	2a57c <__aeabi_memcpy>
   25f40:	9801      	ldr	r0, [sp, #4]
   25f42:	7028      	strb	r0, [r5, #0]
   25f44:	e7bb      	b.n	25ebe <_ZN20complex_dynamic_type3app17hdfee50177638a7caE+0x9e>
   25f46:	46c0      	nop			@ (mov r8, r8)
   25f48:	000003d9 	.word	0x000003d9

00025f4c <_ZN20complex_dynamic_type3app17he192c546c536d1a1E>:
   25f4c:	b5f0      	push	{r4, r5, r6, r7, lr}
   25f4e:	af03      	add	r7, sp, #12
   25f50:	b0a3      	sub	sp, #140	@ 0x8c
   25f52:	9004      	str	r0, [sp, #16]
   25f54:	a805      	add	r0, sp, #20
   25f56:	2402      	movs	r4, #2
   25f58:	7004      	strb	r4, [r0, #0]
   25f5a:	1c46      	adds	r6, r0, #1
   25f5c:	2227      	movs	r2, #39	@ 0x27
   25f5e:	9203      	str	r2, [sp, #12]
   25f60:	4630      	mov	r0, r6
   25f62:	f004 fb0b 	bl	2a57c <__aeabi_memcpy>
   25f66:	ad0f      	add	r5, sp, #60	@ 0x3c
   25f68:	1c68      	adds	r0, r5, #1
   25f6a:	214f      	movs	r1, #79	@ 0x4f
   25f6c:	9002      	str	r0, [sp, #8]
   25f6e:	f004 f945 	bl	2a1fc <__aeabi_memclr>
   25f72:	9401      	str	r4, [sp, #4]
   25f74:	702c      	strb	r4, [r5, #0]
   25f76:	483f      	ldr	r0, [pc, #252]	@ (26074 <_ZN20complex_dynamic_type3app17he192c546c536d1a1E+0x128>)
   25f78:	2109      	movs	r1, #9
   25f7a:	4632      	mov	r2, r6
   25f7c:	9b03      	ldr	r3, [sp, #12]
   25f7e:	df04      	svc	4
   25f80:	2802      	cmp	r0, #2
   25f82:	d104      	bne.n	25f8e <_ZN20complex_dynamic_type3app17he192c546c536d1a1E+0x42>
   25f84:	2001      	movs	r0, #1
   25f86:	9a04      	ldr	r2, [sp, #16]
   25f88:	7010      	strb	r0, [r2, #0]
   25f8a:	6051      	str	r1, [r2, #4]
   25f8c:	e02d      	b.n	25fea <_ZN20complex_dynamic_type3app17he192c546c536d1a1E+0x9e>
   25f8e:	9d04      	ldr	r5, [sp, #16]
   25f90:	a805      	add	r0, sp, #20
   25f92:	2104      	movs	r1, #4
   25f94:	7001      	strb	r1, [r0, #0]
   25f96:	4837      	ldr	r0, [pc, #220]	@ (26074 <_ZN20complex_dynamic_type3app17he192c546c536d1a1E+0x128>)
   25f98:	2100      	movs	r1, #0
   25f9a:	234f      	movs	r3, #79	@ 0x4f
   25f9c:	9c02      	ldr	r4, [sp, #8]
   25f9e:	4622      	mov	r2, r4
   25fa0:	df03      	svc	3
   25fa2:	2802      	cmp	r0, #2
   25fa4:	d10e      	bne.n	25fc4 <_ZN20complex_dynamic_type3app17he192c546c536d1a1E+0x78>
   25fa6:	2001      	movs	r0, #1
   25fa8:	7028      	strb	r0, [r5, #0]
   25faa:	6069      	str	r1, [r5, #4]
   25fac:	a80f      	add	r0, sp, #60	@ 0x3c
   25fae:	7800      	ldrb	r0, [r0, #0]
   25fb0:	2802      	cmp	r0, #2
   25fb2:	d01a      	beq.n	25fea <_ZN20complex_dynamic_type3app17he192c546c536d1a1E+0x9e>
   25fb4:	2803      	cmp	r0, #3
   25fb6:	d013      	beq.n	25fe0 <_ZN20complex_dynamic_type3app17he192c546c536d1a1E+0x94>
   25fb8:	482e      	ldr	r0, [pc, #184]	@ (26074 <_ZN20complex_dynamic_type3app17he192c546c536d1a1E+0x128>)
   25fba:	2100      	movs	r1, #0
   25fbc:	460a      	mov	r2, r1
   25fbe:	460b      	mov	r3, r1
   25fc0:	df04      	svc	4
   25fc2:	e012      	b.n	25fea <_ZN20complex_dynamic_type3app17he192c546c536d1a1E+0x9e>
   25fc4:	a80f      	add	r0, sp, #60	@ 0x3c
   25fc6:	2103      	movs	r1, #3
   25fc8:	7001      	strb	r1, [r0, #0]
   25fca:	482a      	ldr	r0, [pc, #168]	@ (26074 <_ZN20complex_dynamic_type3app17he192c546c536d1a1E+0x128>)
   25fcc:	2109      	movs	r1, #9
   25fce:	2600      	movs	r6, #0
   25fd0:	4632      	mov	r2, r6
   25fd2:	4633      	mov	r3, r6
   25fd4:	df02      	svc	2
   25fd6:	287f      	cmp	r0, #127	@ 0x7f
   25fd8:	d816      	bhi.n	26008 <_ZN20complex_dynamic_type3app17he192c546c536d1a1E+0xbc>
   25fda:	2001      	movs	r0, #1
   25fdc:	7028      	strb	r0, [r5, #0]
   25fde:	6069      	str	r1, [r5, #4]
   25fe0:	4824      	ldr	r0, [pc, #144]	@ (26074 <_ZN20complex_dynamic_type3app17he192c546c536d1a1E+0x128>)
   25fe2:	2100      	movs	r1, #0
   25fe4:	460a      	mov	r2, r1
   25fe6:	460b      	mov	r3, r1
   25fe8:	df03      	svc	3
   25fea:	a805      	add	r0, sp, #20
   25fec:	7804      	ldrb	r4, [r0, #0]
   25fee:	2c02      	cmp	r4, #2
   25ff0:	d008      	beq.n	26004 <_ZN20complex_dynamic_type3app17he192c546c536d1a1E+0xb8>
   25ff2:	4820      	ldr	r0, [pc, #128]	@ (26074 <_ZN20complex_dynamic_type3app17he192c546c536d1a1E+0x128>)
   25ff4:	2109      	movs	r1, #9
   25ff6:	2200      	movs	r2, #0
   25ff8:	4613      	mov	r3, r2
   25ffa:	2c03      	cmp	r4, #3
   25ffc:	d101      	bne.n	26002 <_ZN20complex_dynamic_type3app17he192c546c536d1a1E+0xb6>
   25ffe:	df03      	svc	3
   26000:	e000      	b.n	26004 <_ZN20complex_dynamic_type3app17he192c546c536d1a1E+0xb8>
   26002:	df04      	svc	4
   26004:	b023      	add	sp, #140	@ 0x8c
   26006:	bdf0      	pop	{r4, r5, r6, r7, pc}
   26008:	a805      	add	r0, sp, #20
   2600a:	7800      	ldrb	r0, [r0, #0]
   2600c:	2802      	cmp	r0, #2
   2600e:	d01c      	beq.n	2604a <_ZN20complex_dynamic_type3app17he192c546c536d1a1E+0xfe>
   26010:	2803      	cmp	r0, #3
   26012:	d105      	bne.n	26020 <_ZN20complex_dynamic_type3app17he192c546c536d1a1E+0xd4>
   26014:	4817      	ldr	r0, [pc, #92]	@ (26074 <_ZN20complex_dynamic_type3app17he192c546c536d1a1E+0x128>)
   26016:	2109      	movs	r1, #9
   26018:	2200      	movs	r2, #0
   2601a:	4613      	mov	r3, r2
   2601c:	df03      	svc	3
   2601e:	e004      	b.n	2602a <_ZN20complex_dynamic_type3app17he192c546c536d1a1E+0xde>
   26020:	4814      	ldr	r0, [pc, #80]	@ (26074 <_ZN20complex_dynamic_type3app17he192c546c536d1a1E+0x128>)
   26022:	2109      	movs	r1, #9
   26024:	2200      	movs	r2, #0
   26026:	4613      	mov	r3, r2
   26028:	df04      	svc	4
   2602a:	a805      	add	r0, sp, #20
   2602c:	9901      	ldr	r1, [sp, #4]
   2602e:	7001      	strb	r1, [r0, #0]
   26030:	a80f      	add	r0, sp, #60	@ 0x3c
   26032:	7800      	ldrb	r0, [r0, #0]
   26034:	2803      	cmp	r0, #3
   26036:	d008      	beq.n	2604a <_ZN20complex_dynamic_type3app17he192c546c536d1a1E+0xfe>
   26038:	2802      	cmp	r0, #2
   2603a:	d10c      	bne.n	26056 <_ZN20complex_dynamic_type3app17he192c546c536d1a1E+0x10a>
   2603c:	1c68      	adds	r0, r5, #1
   2603e:	224f      	movs	r2, #79	@ 0x4f
   26040:	4621      	mov	r1, r4
   26042:	f004 fa9b 	bl	2a57c <__aeabi_memcpy>
   26046:	702e      	strb	r6, [r5, #0]
   26048:	e7dc      	b.n	26004 <_ZN20complex_dynamic_type3app17he192c546c536d1a1E+0xb8>
   2604a:	480a      	ldr	r0, [pc, #40]	@ (26074 <_ZN20complex_dynamic_type3app17he192c546c536d1a1E+0x128>)
   2604c:	2100      	movs	r1, #0
   2604e:	460a      	mov	r2, r1
   26050:	460b      	mov	r3, r1
   26052:	df03      	svc	3
   26054:	e004      	b.n	26060 <_ZN20complex_dynamic_type3app17he192c546c536d1a1E+0x114>
   26056:	4807      	ldr	r0, [pc, #28]	@ (26074 <_ZN20complex_dynamic_type3app17he192c546c536d1a1E+0x128>)
   26058:	2100      	movs	r1, #0
   2605a:	460a      	mov	r2, r1
   2605c:	460b      	mov	r3, r1
   2605e:	df04      	svc	4
   26060:	a805      	add	r0, sp, #20
   26062:	7804      	ldrb	r4, [r0, #0]
   26064:	1c68      	adds	r0, r5, #1
   26066:	224f      	movs	r2, #79	@ 0x4f
   26068:	9902      	ldr	r1, [sp, #8]
   2606a:	f004 fa87 	bl	2a57c <__aeabi_memcpy>
   2606e:	702e      	strb	r6, [r5, #0]
   26070:	e7bd      	b.n	25fee <_ZN20complex_dynamic_type3app17he192c546c536d1a1E+0xa2>
   26072:	46c0      	nop			@ (mov r8, r8)
   26074:	00000b4c 	.word	0x00000b4c

00026078 <_ZN20complex_dynamic_type3app17he23915607e59af37E>:
   26078:	b5f0      	push	{r4, r5, r6, r7, lr}
   2607a:	af03      	add	r7, sp, #12
   2607c:	b09b      	sub	sp, #108	@ 0x6c
   2607e:	9004      	str	r0, [sp, #16]
   26080:	a805      	add	r0, sp, #20
   26082:	2402      	movs	r4, #2
   26084:	7004      	strb	r4, [r0, #0]
   26086:	1c46      	adds	r6, r0, #1
   26088:	222c      	movs	r2, #44	@ 0x2c
   2608a:	9203      	str	r2, [sp, #12]
   2608c:	4630      	mov	r0, r6
   2608e:	f004 fa75 	bl	2a57c <__aeabi_memcpy>
   26092:	ad11      	add	r5, sp, #68	@ 0x44
   26094:	1c68      	adds	r0, r5, #1
   26096:	2127      	movs	r1, #39	@ 0x27
   26098:	9002      	str	r0, [sp, #8]
   2609a:	f004 f8af 	bl	2a1fc <__aeabi_memclr>
   2609e:	9401      	str	r4, [sp, #4]
   260a0:	702c      	strb	r4, [r5, #0]
   260a2:	483f      	ldr	r0, [pc, #252]	@ (261a0 <_ZN20complex_dynamic_type3app17he23915607e59af37E+0x128>)
   260a4:	2504      	movs	r5, #4
   260a6:	4629      	mov	r1, r5
   260a8:	4632      	mov	r2, r6
   260aa:	9b03      	ldr	r3, [sp, #12]
   260ac:	df04      	svc	4
   260ae:	2802      	cmp	r0, #2
   260b0:	d104      	bne.n	260bc <_ZN20complex_dynamic_type3app17he23915607e59af37E+0x44>
   260b2:	2001      	movs	r0, #1
   260b4:	9a04      	ldr	r2, [sp, #16]
   260b6:	7010      	strb	r0, [r2, #0]
   260b8:	6051      	str	r1, [r2, #4]
   260ba:	e02b      	b.n	26114 <_ZN20complex_dynamic_type3app17he23915607e59af37E+0x9c>
   260bc:	9e04      	ldr	r6, [sp, #16]
   260be:	a805      	add	r0, sp, #20
   260c0:	7005      	strb	r5, [r0, #0]
   260c2:	4837      	ldr	r0, [pc, #220]	@ (261a0 <_ZN20complex_dynamic_type3app17he23915607e59af37E+0x128>)
   260c4:	2403      	movs	r4, #3
   260c6:	2327      	movs	r3, #39	@ 0x27
   260c8:	4621      	mov	r1, r4
   260ca:	9a02      	ldr	r2, [sp, #8]
   260cc:	df03      	svc	3
   260ce:	2802      	cmp	r0, #2
   260d0:	d10e      	bne.n	260f0 <_ZN20complex_dynamic_type3app17he23915607e59af37E+0x78>
   260d2:	2001      	movs	r0, #1
   260d4:	7030      	strb	r0, [r6, #0]
   260d6:	6071      	str	r1, [r6, #4]
   260d8:	a811      	add	r0, sp, #68	@ 0x44
   260da:	7800      	ldrb	r0, [r0, #0]
   260dc:	2802      	cmp	r0, #2
   260de:	d019      	beq.n	26114 <_ZN20complex_dynamic_type3app17he23915607e59af37E+0x9c>
   260e0:	2803      	cmp	r0, #3
   260e2:	d012      	beq.n	2610a <_ZN20complex_dynamic_type3app17he23915607e59af37E+0x92>
   260e4:	482e      	ldr	r0, [pc, #184]	@ (261a0 <_ZN20complex_dynamic_type3app17he23915607e59af37E+0x128>)
   260e6:	2103      	movs	r1, #3
   260e8:	2200      	movs	r2, #0
   260ea:	4613      	mov	r3, r2
   260ec:	df04      	svc	4
   260ee:	e011      	b.n	26114 <_ZN20complex_dynamic_type3app17he23915607e59af37E+0x9c>
   260f0:	a811      	add	r0, sp, #68	@ 0x44
   260f2:	7004      	strb	r4, [r0, #0]
   260f4:	482a      	ldr	r0, [pc, #168]	@ (261a0 <_ZN20complex_dynamic_type3app17he23915607e59af37E+0x128>)
   260f6:	2104      	movs	r1, #4
   260f8:	2300      	movs	r3, #0
   260fa:	4622      	mov	r2, r4
   260fc:	9303      	str	r3, [sp, #12]
   260fe:	df02      	svc	2
   26100:	287f      	cmp	r0, #127	@ 0x7f
   26102:	d816      	bhi.n	26132 <_ZN20complex_dynamic_type3app17he23915607e59af37E+0xba>
   26104:	2001      	movs	r0, #1
   26106:	7030      	strb	r0, [r6, #0]
   26108:	6071      	str	r1, [r6, #4]
   2610a:	4825      	ldr	r0, [pc, #148]	@ (261a0 <_ZN20complex_dynamic_type3app17he23915607e59af37E+0x128>)
   2610c:	2103      	movs	r1, #3
   2610e:	2200      	movs	r2, #0
   26110:	4613      	mov	r3, r2
   26112:	df03      	svc	3
   26114:	a805      	add	r0, sp, #20
   26116:	7804      	ldrb	r4, [r0, #0]
   26118:	2c02      	cmp	r4, #2
   2611a:	d008      	beq.n	2612e <_ZN20complex_dynamic_type3app17he23915607e59af37E+0xb6>
   2611c:	4820      	ldr	r0, [pc, #128]	@ (261a0 <_ZN20complex_dynamic_type3app17he23915607e59af37E+0x128>)
   2611e:	2104      	movs	r1, #4
   26120:	2200      	movs	r2, #0
   26122:	4613      	mov	r3, r2
   26124:	2c03      	cmp	r4, #3
   26126:	d101      	bne.n	2612c <_ZN20complex_dynamic_type3app17he23915607e59af37E+0xb4>
   26128:	df03      	svc	3
   2612a:	e000      	b.n	2612e <_ZN20complex_dynamic_type3app17he23915607e59af37E+0xb6>
   2612c:	df04      	svc	4
   2612e:	b01b      	add	sp, #108	@ 0x6c
   26130:	bdf0      	pop	{r4, r5, r6, r7, pc}
   26132:	a805      	add	r0, sp, #20
   26134:	7800      	ldrb	r0, [r0, #0]
   26136:	2802      	cmp	r0, #2
   26138:	d01d      	beq.n	26176 <_ZN20complex_dynamic_type3app17he23915607e59af37E+0xfe>
   2613a:	2803      	cmp	r0, #3
   2613c:	d105      	bne.n	2614a <_ZN20complex_dynamic_type3app17he23915607e59af37E+0xd2>
   2613e:	4818      	ldr	r0, [pc, #96]	@ (261a0 <_ZN20complex_dynamic_type3app17he23915607e59af37E+0x128>)
   26140:	2104      	movs	r1, #4
   26142:	2200      	movs	r2, #0
   26144:	4613      	mov	r3, r2
   26146:	df03      	svc	3
   26148:	e004      	b.n	26154 <_ZN20complex_dynamic_type3app17he23915607e59af37E+0xdc>
   2614a:	4815      	ldr	r0, [pc, #84]	@ (261a0 <_ZN20complex_dynamic_type3app17he23915607e59af37E+0x128>)
   2614c:	2104      	movs	r1, #4
   2614e:	2200      	movs	r2, #0
   26150:	4613      	mov	r3, r2
   26152:	df04      	svc	4
   26154:	9901      	ldr	r1, [sp, #4]
   26156:	a805      	add	r0, sp, #20
   26158:	7001      	strb	r1, [r0, #0]
   2615a:	a811      	add	r0, sp, #68	@ 0x44
   2615c:	7800      	ldrb	r0, [r0, #0]
   2615e:	2803      	cmp	r0, #3
   26160:	d009      	beq.n	26176 <_ZN20complex_dynamic_type3app17he23915607e59af37E+0xfe>
   26162:	2802      	cmp	r0, #2
   26164:	d10d      	bne.n	26182 <_ZN20complex_dynamic_type3app17he23915607e59af37E+0x10a>
   26166:	1c70      	adds	r0, r6, #1
   26168:	2227      	movs	r2, #39	@ 0x27
   2616a:	9902      	ldr	r1, [sp, #8]
   2616c:	f004 fa06 	bl	2a57c <__aeabi_memcpy>
   26170:	9803      	ldr	r0, [sp, #12]
   26172:	7030      	strb	r0, [r6, #0]
   26174:	e7db      	b.n	2612e <_ZN20complex_dynamic_type3app17he23915607e59af37E+0xb6>
   26176:	480a      	ldr	r0, [pc, #40]	@ (261a0 <_ZN20complex_dynamic_type3app17he23915607e59af37E+0x128>)
   26178:	2103      	movs	r1, #3
   2617a:	2200      	movs	r2, #0
   2617c:	4613      	mov	r3, r2
   2617e:	df03      	svc	3
   26180:	e004      	b.n	2618c <_ZN20complex_dynamic_type3app17he23915607e59af37E+0x114>
   26182:	4807      	ldr	r0, [pc, #28]	@ (261a0 <_ZN20complex_dynamic_type3app17he23915607e59af37E+0x128>)
   26184:	2103      	movs	r1, #3
   26186:	2200      	movs	r2, #0
   26188:	4613      	mov	r3, r2
   2618a:	df04      	svc	4
   2618c:	a805      	add	r0, sp, #20
   2618e:	7804      	ldrb	r4, [r0, #0]
   26190:	1c70      	adds	r0, r6, #1
   26192:	2227      	movs	r2, #39	@ 0x27
   26194:	9902      	ldr	r1, [sp, #8]
   26196:	f004 f9f1 	bl	2a57c <__aeabi_memcpy>
   2619a:	9803      	ldr	r0, [sp, #12]
   2619c:	7030      	strb	r0, [r6, #0]
   2619e:	e7bb      	b.n	26118 <_ZN20complex_dynamic_type3app17he23915607e59af37E+0xa0>
   261a0:	000011b5 	.word	0x000011b5

000261a4 <_ZN20complex_dynamic_type3app17he40e7edb8c5e1f6dE>:
   261a4:	b5f0      	push	{r4, r5, r6, r7, lr}
   261a6:	af03      	add	r7, sp, #12
   261a8:	b0a3      	sub	sp, #140	@ 0x8c
   261aa:	9004      	str	r0, [sp, #16]
   261ac:	a805      	add	r0, sp, #20
   261ae:	2402      	movs	r4, #2
   261b0:	7004      	strb	r4, [r0, #0]
   261b2:	1c40      	adds	r0, r0, #1
   261b4:	9003      	str	r0, [sp, #12]
   261b6:	2548      	movs	r5, #72	@ 0x48
   261b8:	462a      	mov	r2, r5
   261ba:	f004 f9df 	bl	2a57c <__aeabi_memcpy>
   261be:	ae18      	add	r6, sp, #96	@ 0x60
   261c0:	1c70      	adds	r0, r6, #1
   261c2:	2129      	movs	r1, #41	@ 0x29
   261c4:	9002      	str	r0, [sp, #8]
   261c6:	f004 f819 	bl	2a1fc <__aeabi_memclr>
   261ca:	9401      	str	r4, [sp, #4]
   261cc:	7034      	strb	r4, [r6, #0]
   261ce:	4840      	ldr	r0, [pc, #256]	@ (262d0 <_ZN20complex_dynamic_type3app17he40e7edb8c5e1f6dE+0x12c>)
   261d0:	2603      	movs	r6, #3
   261d2:	4631      	mov	r1, r6
   261d4:	9a03      	ldr	r2, [sp, #12]
   261d6:	462b      	mov	r3, r5
   261d8:	df04      	svc	4
   261da:	2802      	cmp	r0, #2
   261dc:	d104      	bne.n	261e8 <_ZN20complex_dynamic_type3app17he40e7edb8c5e1f6dE+0x44>
   261de:	2001      	movs	r0, #1
   261e0:	9a04      	ldr	r2, [sp, #16]
   261e2:	7010      	strb	r0, [r2, #0]
   261e4:	6051      	str	r1, [r2, #4]
   261e6:	e02b      	b.n	26240 <_ZN20complex_dynamic_type3app17he40e7edb8c5e1f6dE+0x9c>
   261e8:	9d04      	ldr	r5, [sp, #16]
   261ea:	a805      	add	r0, sp, #20
   261ec:	2104      	movs	r1, #4
   261ee:	7001      	strb	r1, [r0, #0]
   261f0:	4837      	ldr	r0, [pc, #220]	@ (262d0 <_ZN20complex_dynamic_type3app17he40e7edb8c5e1f6dE+0x12c>)
   261f2:	2329      	movs	r3, #41	@ 0x29
   261f4:	9c02      	ldr	r4, [sp, #8]
   261f6:	4622      	mov	r2, r4
   261f8:	df03      	svc	3
   261fa:	2802      	cmp	r0, #2
   261fc:	d10e      	bne.n	2621c <_ZN20complex_dynamic_type3app17he40e7edb8c5e1f6dE+0x78>
   261fe:	2001      	movs	r0, #1
   26200:	7028      	strb	r0, [r5, #0]
   26202:	6069      	str	r1, [r5, #4]
   26204:	a818      	add	r0, sp, #96	@ 0x60
   26206:	7800      	ldrb	r0, [r0, #0]
   26208:	2802      	cmp	r0, #2
   2620a:	d019      	beq.n	26240 <_ZN20complex_dynamic_type3app17he40e7edb8c5e1f6dE+0x9c>
   2620c:	2803      	cmp	r0, #3
   2620e:	d012      	beq.n	26236 <_ZN20complex_dynamic_type3app17he40e7edb8c5e1f6dE+0x92>
   26210:	482f      	ldr	r0, [pc, #188]	@ (262d0 <_ZN20complex_dynamic_type3app17he40e7edb8c5e1f6dE+0x12c>)
   26212:	2104      	movs	r1, #4
   26214:	2200      	movs	r2, #0
   26216:	4613      	mov	r3, r2
   26218:	df04      	svc	4
   2621a:	e011      	b.n	26240 <_ZN20complex_dynamic_type3app17he40e7edb8c5e1f6dE+0x9c>
   2621c:	a818      	add	r0, sp, #96	@ 0x60
   2621e:	7006      	strb	r6, [r0, #0]
   26220:	482b      	ldr	r0, [pc, #172]	@ (262d0 <_ZN20complex_dynamic_type3app17he40e7edb8c5e1f6dE+0x12c>)
   26222:	2204      	movs	r2, #4
   26224:	2300      	movs	r3, #0
   26226:	4631      	mov	r1, r6
   26228:	9303      	str	r3, [sp, #12]
   2622a:	df02      	svc	2
   2622c:	287f      	cmp	r0, #127	@ 0x7f
   2622e:	d816      	bhi.n	2625e <_ZN20complex_dynamic_type3app17he40e7edb8c5e1f6dE+0xba>
   26230:	2001      	movs	r0, #1
   26232:	7028      	strb	r0, [r5, #0]
   26234:	6069      	str	r1, [r5, #4]
   26236:	4826      	ldr	r0, [pc, #152]	@ (262d0 <_ZN20complex_dynamic_type3app17he40e7edb8c5e1f6dE+0x12c>)
   26238:	2104      	movs	r1, #4
   2623a:	2200      	movs	r2, #0
   2623c:	4613      	mov	r3, r2
   2623e:	df03      	svc	3
   26240:	a805      	add	r0, sp, #20
   26242:	7804      	ldrb	r4, [r0, #0]
   26244:	2c02      	cmp	r4, #2
   26246:	d008      	beq.n	2625a <_ZN20complex_dynamic_type3app17he40e7edb8c5e1f6dE+0xb6>
   26248:	4821      	ldr	r0, [pc, #132]	@ (262d0 <_ZN20complex_dynamic_type3app17he40e7edb8c5e1f6dE+0x12c>)
   2624a:	2103      	movs	r1, #3
   2624c:	2200      	movs	r2, #0
   2624e:	4613      	mov	r3, r2
   26250:	2c03      	cmp	r4, #3
   26252:	d101      	bne.n	26258 <_ZN20complex_dynamic_type3app17he40e7edb8c5e1f6dE+0xb4>
   26254:	df03      	svc	3
   26256:	e000      	b.n	2625a <_ZN20complex_dynamic_type3app17he40e7edb8c5e1f6dE+0xb6>
   26258:	df04      	svc	4
   2625a:	b023      	add	sp, #140	@ 0x8c
   2625c:	bdf0      	pop	{r4, r5, r6, r7, pc}
   2625e:	a805      	add	r0, sp, #20
   26260:	7800      	ldrb	r0, [r0, #0]
   26262:	2802      	cmp	r0, #2
   26264:	d01d      	beq.n	262a2 <_ZN20complex_dynamic_type3app17he40e7edb8c5e1f6dE+0xfe>
   26266:	2803      	cmp	r0, #3
   26268:	d105      	bne.n	26276 <_ZN20complex_dynamic_type3app17he40e7edb8c5e1f6dE+0xd2>
   2626a:	4819      	ldr	r0, [pc, #100]	@ (262d0 <_ZN20complex_dynamic_type3app17he40e7edb8c5e1f6dE+0x12c>)
   2626c:	2103      	movs	r1, #3
   2626e:	2200      	movs	r2, #0
   26270:	4613      	mov	r3, r2
   26272:	df03      	svc	3
   26274:	e004      	b.n	26280 <_ZN20complex_dynamic_type3app17he40e7edb8c5e1f6dE+0xdc>
   26276:	4816      	ldr	r0, [pc, #88]	@ (262d0 <_ZN20complex_dynamic_type3app17he40e7edb8c5e1f6dE+0x12c>)
   26278:	2103      	movs	r1, #3
   2627a:	2200      	movs	r2, #0
   2627c:	4613      	mov	r3, r2
   2627e:	df04      	svc	4
   26280:	9901      	ldr	r1, [sp, #4]
   26282:	a805      	add	r0, sp, #20
   26284:	7001      	strb	r1, [r0, #0]
   26286:	a818      	add	r0, sp, #96	@ 0x60
   26288:	7800      	ldrb	r0, [r0, #0]
   2628a:	2803      	cmp	r0, #3
   2628c:	d009      	beq.n	262a2 <_ZN20complex_dynamic_type3app17he40e7edb8c5e1f6dE+0xfe>
   2628e:	2802      	cmp	r0, #2
   26290:	d10e      	bne.n	262b0 <_ZN20complex_dynamic_type3app17he40e7edb8c5e1f6dE+0x10c>
   26292:	1c68      	adds	r0, r5, #1
   26294:	2229      	movs	r2, #41	@ 0x29
   26296:	4621      	mov	r1, r4
   26298:	f004 f970 	bl	2a57c <__aeabi_memcpy>
   2629c:	9803      	ldr	r0, [sp, #12]
   2629e:	7028      	strb	r0, [r5, #0]
   262a0:	e7db      	b.n	2625a <_ZN20complex_dynamic_type3app17he40e7edb8c5e1f6dE+0xb6>
   262a2:	4626      	mov	r6, r4
   262a4:	480a      	ldr	r0, [pc, #40]	@ (262d0 <_ZN20complex_dynamic_type3app17he40e7edb8c5e1f6dE+0x12c>)
   262a6:	2104      	movs	r1, #4
   262a8:	2200      	movs	r2, #0
   262aa:	4613      	mov	r3, r2
   262ac:	df03      	svc	3
   262ae:	e005      	b.n	262bc <_ZN20complex_dynamic_type3app17he40e7edb8c5e1f6dE+0x118>
   262b0:	4626      	mov	r6, r4
   262b2:	4807      	ldr	r0, [pc, #28]	@ (262d0 <_ZN20complex_dynamic_type3app17he40e7edb8c5e1f6dE+0x12c>)
   262b4:	2104      	movs	r1, #4
   262b6:	2200      	movs	r2, #0
   262b8:	4613      	mov	r3, r2
   262ba:	df04      	svc	4
   262bc:	a805      	add	r0, sp, #20
   262be:	7804      	ldrb	r4, [r0, #0]
   262c0:	1c68      	adds	r0, r5, #1
   262c2:	2229      	movs	r2, #41	@ 0x29
   262c4:	4631      	mov	r1, r6
   262c6:	f004 f959 	bl	2a57c <__aeabi_memcpy>
   262ca:	9803      	ldr	r0, [sp, #12]
   262cc:	7028      	strb	r0, [r5, #0]
   262ce:	e7b9      	b.n	26244 <_ZN20complex_dynamic_type3app17he40e7edb8c5e1f6dE+0xa0>
   262d0:	000026a4 	.word	0x000026a4

000262d4 <_ZN20complex_dynamic_type3app17he9f96ec939030819E>:
   262d4:	b5f0      	push	{r4, r5, r6, r7, lr}
   262d6:	af03      	add	r7, sp, #12
   262d8:	b0a7      	sub	sp, #156	@ 0x9c
   262da:	9003      	str	r0, [sp, #12]
   262dc:	ae04      	add	r6, sp, #16
   262de:	2502      	movs	r5, #2
   262e0:	7035      	strb	r5, [r6, #0]
   262e2:	1c70      	adds	r0, r6, #1
   262e4:	2255      	movs	r2, #85	@ 0x55
   262e6:	9202      	str	r2, [sp, #8]
   262e8:	f004 f948 	bl	2a57c <__aeabi_memcpy>
   262ec:	ac1a      	add	r4, sp, #104	@ 0x68
   262ee:	1c60      	adds	r0, r4, #1
   262f0:	2132      	movs	r1, #50	@ 0x32
   262f2:	9001      	str	r0, [sp, #4]
   262f4:	f003 ff82 	bl	2a1fc <__aeabi_memclr>
   262f8:	7025      	strb	r5, [r4, #0]
   262fa:	2204      	movs	r2, #4
   262fc:	4630      	mov	r0, r6
   262fe:	9902      	ldr	r1, [sp, #8]
   26300:	f7f9 ffe0 	bl	202c4 <_ZN9allow_pin12dynamic_type23Buffer$LT$B$C$_$C$_$GT$5allow17hc3fc49490ee033a6E>
   26304:	07c0      	lsls	r0, r0, #31
   26306:	d10e      	bne.n	26326 <_ZN20complex_dynamic_type3app17he9f96ec939030819E+0x52>
   26308:	a81a      	add	r0, sp, #104	@ 0x68
   2630a:	2132      	movs	r1, #50	@ 0x32
   2630c:	2203      	movs	r2, #3
   2630e:	f7f9 ffd9 	bl	202c4 <_ZN9allow_pin12dynamic_type23Buffer$LT$B$C$_$C$_$GT$5allow17hc3fc49490ee033a6E>
   26312:	07c0      	lsls	r0, r0, #31
   26314:	d107      	bne.n	26326 <_ZN20complex_dynamic_type3app17he9f96ec939030819E+0x52>
   26316:	4831      	ldr	r0, [pc, #196]	@ (263dc <_ZN20complex_dynamic_type3app17he9f96ec939030819E+0x108>)
   26318:	2108      	movs	r1, #8
   2631a:	2600      	movs	r6, #0
   2631c:	460a      	mov	r2, r1
   2631e:	4633      	mov	r3, r6
   26320:	df02      	svc	2
   26322:	287f      	cmp	r0, #127	@ 0x7f
   26324:	d823      	bhi.n	2636e <_ZN20complex_dynamic_type3app17he9f96ec939030819E+0x9a>
   26326:	2001      	movs	r0, #1
   26328:	9a03      	ldr	r2, [sp, #12]
   2632a:	7010      	strb	r0, [r2, #0]
   2632c:	6051      	str	r1, [r2, #4]
   2632e:	a81a      	add	r0, sp, #104	@ 0x68
   26330:	7800      	ldrb	r0, [r0, #0]
   26332:	2802      	cmp	r0, #2
   26334:	d00c      	beq.n	26350 <_ZN20complex_dynamic_type3app17he9f96ec939030819E+0x7c>
   26336:	2803      	cmp	r0, #3
   26338:	d105      	bne.n	26346 <_ZN20complex_dynamic_type3app17he9f96ec939030819E+0x72>
   2633a:	4828      	ldr	r0, [pc, #160]	@ (263dc <_ZN20complex_dynamic_type3app17he9f96ec939030819E+0x108>)
   2633c:	2108      	movs	r1, #8
   2633e:	2200      	movs	r2, #0
   26340:	4613      	mov	r3, r2
   26342:	df03      	svc	3
   26344:	e004      	b.n	26350 <_ZN20complex_dynamic_type3app17he9f96ec939030819E+0x7c>
   26346:	4825      	ldr	r0, [pc, #148]	@ (263dc <_ZN20complex_dynamic_type3app17he9f96ec939030819E+0x108>)
   26348:	2108      	movs	r1, #8
   2634a:	2200      	movs	r2, #0
   2634c:	4613      	mov	r3, r2
   2634e:	df04      	svc	4
   26350:	a804      	add	r0, sp, #16
   26352:	7804      	ldrb	r4, [r0, #0]
   26354:	2c02      	cmp	r4, #2
   26356:	d008      	beq.n	2636a <_ZN20complex_dynamic_type3app17he9f96ec939030819E+0x96>
   26358:	4820      	ldr	r0, [pc, #128]	@ (263dc <_ZN20complex_dynamic_type3app17he9f96ec939030819E+0x108>)
   2635a:	2108      	movs	r1, #8
   2635c:	2200      	movs	r2, #0
   2635e:	4613      	mov	r3, r2
   26360:	2c03      	cmp	r4, #3
   26362:	d101      	bne.n	26368 <_ZN20complex_dynamic_type3app17he9f96ec939030819E+0x94>
   26364:	df03      	svc	3
   26366:	e000      	b.n	2636a <_ZN20complex_dynamic_type3app17he9f96ec939030819E+0x96>
   26368:	df04      	svc	4
   2636a:	b027      	add	sp, #156	@ 0x9c
   2636c:	bdf0      	pop	{r4, r5, r6, r7, pc}
   2636e:	a804      	add	r0, sp, #16
   26370:	7800      	ldrb	r0, [r0, #0]
   26372:	2802      	cmp	r0, #2
   26374:	d00c      	beq.n	26390 <_ZN20complex_dynamic_type3app17he9f96ec939030819E+0xbc>
   26376:	2803      	cmp	r0, #3
   26378:	d105      	bne.n	26386 <_ZN20complex_dynamic_type3app17he9f96ec939030819E+0xb2>
   2637a:	4818      	ldr	r0, [pc, #96]	@ (263dc <_ZN20complex_dynamic_type3app17he9f96ec939030819E+0x108>)
   2637c:	2108      	movs	r1, #8
   2637e:	2200      	movs	r2, #0
   26380:	4613      	mov	r3, r2
   26382:	df03      	svc	3
   26384:	e004      	b.n	26390 <_ZN20complex_dynamic_type3app17he9f96ec939030819E+0xbc>
   26386:	4815      	ldr	r0, [pc, #84]	@ (263dc <_ZN20complex_dynamic_type3app17he9f96ec939030819E+0x108>)
   26388:	2108      	movs	r1, #8
   2638a:	2200      	movs	r2, #0
   2638c:	4613      	mov	r3, r2
   2638e:	df04      	svc	4
   26390:	a804      	add	r0, sp, #16
   26392:	7005      	strb	r5, [r0, #0]
   26394:	a81a      	add	r0, sp, #104	@ 0x68
   26396:	7800      	ldrb	r0, [r0, #0]
   26398:	2803      	cmp	r0, #3
   2639a:	d009      	beq.n	263b0 <_ZN20complex_dynamic_type3app17he9f96ec939030819E+0xdc>
   2639c:	2802      	cmp	r0, #2
   2639e:	d10d      	bne.n	263bc <_ZN20complex_dynamic_type3app17he9f96ec939030819E+0xe8>
   263a0:	9c03      	ldr	r4, [sp, #12]
   263a2:	1c60      	adds	r0, r4, #1
   263a4:	2232      	movs	r2, #50	@ 0x32
   263a6:	9901      	ldr	r1, [sp, #4]
   263a8:	f004 f8e8 	bl	2a57c <__aeabi_memcpy>
   263ac:	7026      	strb	r6, [r4, #0]
   263ae:	e7dc      	b.n	2636a <_ZN20complex_dynamic_type3app17he9f96ec939030819E+0x96>
   263b0:	480a      	ldr	r0, [pc, #40]	@ (263dc <_ZN20complex_dynamic_type3app17he9f96ec939030819E+0x108>)
   263b2:	2108      	movs	r1, #8
   263b4:	2200      	movs	r2, #0
   263b6:	4613      	mov	r3, r2
   263b8:	df03      	svc	3
   263ba:	e004      	b.n	263c6 <_ZN20complex_dynamic_type3app17he9f96ec939030819E+0xf2>
   263bc:	4807      	ldr	r0, [pc, #28]	@ (263dc <_ZN20complex_dynamic_type3app17he9f96ec939030819E+0x108>)
   263be:	2108      	movs	r1, #8
   263c0:	2200      	movs	r2, #0
   263c2:	4613      	mov	r3, r2
   263c4:	df04      	svc	4
   263c6:	a804      	add	r0, sp, #16
   263c8:	7804      	ldrb	r4, [r0, #0]
   263ca:	9d03      	ldr	r5, [sp, #12]
   263cc:	1c68      	adds	r0, r5, #1
   263ce:	2232      	movs	r2, #50	@ 0x32
   263d0:	9901      	ldr	r1, [sp, #4]
   263d2:	f004 f8d3 	bl	2a57c <__aeabi_memcpy>
   263d6:	702e      	strb	r6, [r5, #0]
   263d8:	e7bc      	b.n	26354 <_ZN20complex_dynamic_type3app17he9f96ec939030819E+0x80>
   263da:	46c0      	nop			@ (mov r8, r8)
   263dc:	00002095 	.word	0x00002095

000263e0 <_ZN20complex_dynamic_type3app17heafd76246e3f79afE>:
   263e0:	b5f0      	push	{r4, r5, r6, r7, lr}
   263e2:	af03      	add	r7, sp, #12
   263e4:	b099      	sub	sp, #100	@ 0x64
   263e6:	9003      	str	r0, [sp, #12]
   263e8:	a804      	add	r0, sp, #16
   263ea:	2402      	movs	r4, #2
   263ec:	7004      	strb	r4, [r0, #0]
   263ee:	1c46      	adds	r6, r0, #1
   263f0:	2218      	movs	r2, #24
   263f2:	9202      	str	r2, [sp, #8]
   263f4:	4630      	mov	r0, r6
   263f6:	f004 f8c1 	bl	2a57c <__aeabi_memcpy>
   263fa:	ad0b      	add	r5, sp, #44	@ 0x2c
   263fc:	1c68      	adds	r0, r5, #1
   263fe:	2136      	movs	r1, #54	@ 0x36
   26400:	9001      	str	r0, [sp, #4]
   26402:	f003 fefb 	bl	2a1fc <__aeabi_memclr>
   26406:	9400      	str	r4, [sp, #0]
   26408:	702c      	strb	r4, [r5, #0]
   2640a:	20f3      	movs	r0, #243	@ 0xf3
   2640c:	2108      	movs	r1, #8
   2640e:	4632      	mov	r2, r6
   26410:	9b02      	ldr	r3, [sp, #8]
   26412:	df04      	svc	4
   26414:	2802      	cmp	r0, #2
   26416:	d104      	bne.n	26422 <_ZN20complex_dynamic_type3app17heafd76246e3f79afE+0x42>
   26418:	2001      	movs	r0, #1
   2641a:	9a03      	ldr	r2, [sp, #12]
   2641c:	7010      	strb	r0, [r2, #0]
   2641e:	6051      	str	r1, [r2, #4]
   26420:	e02c      	b.n	2647c <_ZN20complex_dynamic_type3app17heafd76246e3f79afE+0x9c>
   26422:	9d03      	ldr	r5, [sp, #12]
   26424:	a804      	add	r0, sp, #16
   26426:	2104      	movs	r1, #4
   26428:	7001      	strb	r1, [r0, #0]
   2642a:	20f3      	movs	r0, #243	@ 0xf3
   2642c:	2336      	movs	r3, #54	@ 0x36
   2642e:	9c01      	ldr	r4, [sp, #4]
   26430:	4622      	mov	r2, r4
   26432:	df03      	svc	3
   26434:	2802      	cmp	r0, #2
   26436:	d10e      	bne.n	26456 <_ZN20complex_dynamic_type3app17heafd76246e3f79afE+0x76>
   26438:	2001      	movs	r0, #1
   2643a:	7028      	strb	r0, [r5, #0]
   2643c:	6069      	str	r1, [r5, #4]
   2643e:	a80b      	add	r0, sp, #44	@ 0x2c
   26440:	7800      	ldrb	r0, [r0, #0]
   26442:	2802      	cmp	r0, #2
   26444:	d01a      	beq.n	2647c <_ZN20complex_dynamic_type3app17heafd76246e3f79afE+0x9c>
   26446:	2803      	cmp	r0, #3
   26448:	d013      	beq.n	26472 <_ZN20complex_dynamic_type3app17heafd76246e3f79afE+0x92>
   2644a:	20f3      	movs	r0, #243	@ 0xf3
   2644c:	2104      	movs	r1, #4
   2644e:	2200      	movs	r2, #0
   26450:	4613      	mov	r3, r2
   26452:	df04      	svc	4
   26454:	e012      	b.n	2647c <_ZN20complex_dynamic_type3app17heafd76246e3f79afE+0x9c>
   26456:	a80b      	add	r0, sp, #44	@ 0x2c
   26458:	2103      	movs	r1, #3
   2645a:	7001      	strb	r1, [r0, #0]
   2645c:	20f3      	movs	r0, #243	@ 0xf3
   2645e:	2108      	movs	r1, #8
   26460:	2204      	movs	r2, #4
   26462:	2600      	movs	r6, #0
   26464:	4633      	mov	r3, r6
   26466:	df02      	svc	2
   26468:	287f      	cmp	r0, #127	@ 0x7f
   2646a:	d816      	bhi.n	2649a <_ZN20complex_dynamic_type3app17heafd76246e3f79afE+0xba>
   2646c:	2001      	movs	r0, #1
   2646e:	7028      	strb	r0, [r5, #0]
   26470:	6069      	str	r1, [r5, #4]
   26472:	20f3      	movs	r0, #243	@ 0xf3
   26474:	2104      	movs	r1, #4
   26476:	2200      	movs	r2, #0
   26478:	4613      	mov	r3, r2
   2647a:	df03      	svc	3
   2647c:	a804      	add	r0, sp, #16
   2647e:	7804      	ldrb	r4, [r0, #0]
   26480:	2c02      	cmp	r4, #2
   26482:	d008      	beq.n	26496 <_ZN20complex_dynamic_type3app17heafd76246e3f79afE+0xb6>
   26484:	20f3      	movs	r0, #243	@ 0xf3
   26486:	2108      	movs	r1, #8
   26488:	2200      	movs	r2, #0
   2648a:	4613      	mov	r3, r2
   2648c:	2c03      	cmp	r4, #3
   2648e:	d101      	bne.n	26494 <_ZN20complex_dynamic_type3app17heafd76246e3f79afE+0xb4>
   26490:	df03      	svc	3
   26492:	e000      	b.n	26496 <_ZN20complex_dynamic_type3app17heafd76246e3f79afE+0xb6>
   26494:	df04      	svc	4
   26496:	b019      	add	sp, #100	@ 0x64
   26498:	bdf0      	pop	{r4, r5, r6, r7, pc}
   2649a:	a804      	add	r0, sp, #16
   2649c:	7800      	ldrb	r0, [r0, #0]
   2649e:	2802      	cmp	r0, #2
   264a0:	d01c      	beq.n	264dc <_ZN20complex_dynamic_type3app17heafd76246e3f79afE+0xfc>
   264a2:	2803      	cmp	r0, #3
   264a4:	d105      	bne.n	264b2 <_ZN20complex_dynamic_type3app17heafd76246e3f79afE+0xd2>
   264a6:	20f3      	movs	r0, #243	@ 0xf3
   264a8:	2108      	movs	r1, #8
   264aa:	2200      	movs	r2, #0
   264ac:	4613      	mov	r3, r2
   264ae:	df03      	svc	3
   264b0:	e004      	b.n	264bc <_ZN20complex_dynamic_type3app17heafd76246e3f79afE+0xdc>
   264b2:	20f3      	movs	r0, #243	@ 0xf3
   264b4:	2108      	movs	r1, #8
   264b6:	2200      	movs	r2, #0
   264b8:	4613      	mov	r3, r2
   264ba:	df04      	svc	4
   264bc:	a804      	add	r0, sp, #16
   264be:	9900      	ldr	r1, [sp, #0]
   264c0:	7001      	strb	r1, [r0, #0]
   264c2:	a80b      	add	r0, sp, #44	@ 0x2c
   264c4:	7800      	ldrb	r0, [r0, #0]
   264c6:	2803      	cmp	r0, #3
   264c8:	d008      	beq.n	264dc <_ZN20complex_dynamic_type3app17heafd76246e3f79afE+0xfc>
   264ca:	2802      	cmp	r0, #2
   264cc:	d10c      	bne.n	264e8 <_ZN20complex_dynamic_type3app17heafd76246e3f79afE+0x108>
   264ce:	1c68      	adds	r0, r5, #1
   264d0:	2236      	movs	r2, #54	@ 0x36
   264d2:	4621      	mov	r1, r4
   264d4:	f004 f852 	bl	2a57c <__aeabi_memcpy>
   264d8:	702e      	strb	r6, [r5, #0]
   264da:	e7dc      	b.n	26496 <_ZN20complex_dynamic_type3app17heafd76246e3f79afE+0xb6>
   264dc:	20f3      	movs	r0, #243	@ 0xf3
   264de:	2104      	movs	r1, #4
   264e0:	2200      	movs	r2, #0
   264e2:	4613      	mov	r3, r2
   264e4:	df03      	svc	3
   264e6:	e004      	b.n	264f2 <_ZN20complex_dynamic_type3app17heafd76246e3f79afE+0x112>
   264e8:	20f3      	movs	r0, #243	@ 0xf3
   264ea:	2104      	movs	r1, #4
   264ec:	2200      	movs	r2, #0
   264ee:	4613      	mov	r3, r2
   264f0:	df04      	svc	4
   264f2:	a804      	add	r0, sp, #16
   264f4:	7804      	ldrb	r4, [r0, #0]
   264f6:	1c68      	adds	r0, r5, #1
   264f8:	2236      	movs	r2, #54	@ 0x36
   264fa:	9901      	ldr	r1, [sp, #4]
   264fc:	f004 f83e 	bl	2a57c <__aeabi_memcpy>
   26500:	702e      	strb	r6, [r5, #0]
   26502:	e7bd      	b.n	26480 <_ZN20complex_dynamic_type3app17heafd76246e3f79afE+0xa0>

00026504 <_ZN20complex_dynamic_type3app17heba08feb3a019f60E>:
   26504:	b5f0      	push	{r4, r5, r6, r7, lr}
   26506:	af03      	add	r7, sp, #12
   26508:	b0af      	sub	sp, #188	@ 0xbc
   2650a:	9004      	str	r0, [sp, #16]
   2650c:	a805      	add	r0, sp, #20
   2650e:	2402      	movs	r4, #2
   26510:	7004      	strb	r4, [r0, #0]
   26512:	1c46      	adds	r6, r0, #1
   26514:	2259      	movs	r2, #89	@ 0x59
   26516:	9203      	str	r2, [sp, #12]
   26518:	4630      	mov	r0, r6
   2651a:	f004 f82f 	bl	2a57c <__aeabi_memcpy>
   2651e:	ad1c      	add	r5, sp, #112	@ 0x70
   26520:	1c68      	adds	r0, r5, #1
   26522:	214a      	movs	r1, #74	@ 0x4a
   26524:	9002      	str	r0, [sp, #8]
   26526:	f003 fe69 	bl	2a1fc <__aeabi_memclr>
   2652a:	9401      	str	r4, [sp, #4]
   2652c:	702c      	strb	r4, [r5, #0]
   2652e:	483e      	ldr	r0, [pc, #248]	@ (26628 <_ZN20complex_dynamic_type3app17heba08feb3a019f60E+0x124>)
   26530:	2100      	movs	r1, #0
   26532:	4632      	mov	r2, r6
   26534:	9b03      	ldr	r3, [sp, #12]
   26536:	df04      	svc	4
   26538:	2802      	cmp	r0, #2
   2653a:	d104      	bne.n	26546 <_ZN20complex_dynamic_type3app17heba08feb3a019f60E+0x42>
   2653c:	2001      	movs	r0, #1
   2653e:	9a04      	ldr	r2, [sp, #16]
   26540:	7010      	strb	r0, [r2, #0]
   26542:	6051      	str	r1, [r2, #4]
   26544:	e02c      	b.n	265a0 <_ZN20complex_dynamic_type3app17heba08feb3a019f60E+0x9c>
   26546:	9d04      	ldr	r5, [sp, #16]
   26548:	a805      	add	r0, sp, #20
   2654a:	2104      	movs	r1, #4
   2654c:	7001      	strb	r1, [r0, #0]
   2654e:	4836      	ldr	r0, [pc, #216]	@ (26628 <_ZN20complex_dynamic_type3app17heba08feb3a019f60E+0x124>)
   26550:	234a      	movs	r3, #74	@ 0x4a
   26552:	9c02      	ldr	r4, [sp, #8]
   26554:	4622      	mov	r2, r4
   26556:	df03      	svc	3
   26558:	2802      	cmp	r0, #2
   2655a:	d10e      	bne.n	2657a <_ZN20complex_dynamic_type3app17heba08feb3a019f60E+0x76>
   2655c:	2001      	movs	r0, #1
   2655e:	7028      	strb	r0, [r5, #0]
   26560:	6069      	str	r1, [r5, #4]
   26562:	a81c      	add	r0, sp, #112	@ 0x70
   26564:	7800      	ldrb	r0, [r0, #0]
   26566:	2802      	cmp	r0, #2
   26568:	d01a      	beq.n	265a0 <_ZN20complex_dynamic_type3app17heba08feb3a019f60E+0x9c>
   2656a:	2803      	cmp	r0, #3
   2656c:	d013      	beq.n	26596 <_ZN20complex_dynamic_type3app17heba08feb3a019f60E+0x92>
   2656e:	482e      	ldr	r0, [pc, #184]	@ (26628 <_ZN20complex_dynamic_type3app17heba08feb3a019f60E+0x124>)
   26570:	2104      	movs	r1, #4
   26572:	2200      	movs	r2, #0
   26574:	4613      	mov	r3, r2
   26576:	df04      	svc	4
   26578:	e012      	b.n	265a0 <_ZN20complex_dynamic_type3app17heba08feb3a019f60E+0x9c>
   2657a:	a81c      	add	r0, sp, #112	@ 0x70
   2657c:	2103      	movs	r1, #3
   2657e:	7001      	strb	r1, [r0, #0]
   26580:	4829      	ldr	r0, [pc, #164]	@ (26628 <_ZN20complex_dynamic_type3app17heba08feb3a019f60E+0x124>)
   26582:	2204      	movs	r2, #4
   26584:	2600      	movs	r6, #0
   26586:	4631      	mov	r1, r6
   26588:	4633      	mov	r3, r6
   2658a:	df02      	svc	2
   2658c:	287f      	cmp	r0, #127	@ 0x7f
   2658e:	d816      	bhi.n	265be <_ZN20complex_dynamic_type3app17heba08feb3a019f60E+0xba>
   26590:	2001      	movs	r0, #1
   26592:	7028      	strb	r0, [r5, #0]
   26594:	6069      	str	r1, [r5, #4]
   26596:	4824      	ldr	r0, [pc, #144]	@ (26628 <_ZN20complex_dynamic_type3app17heba08feb3a019f60E+0x124>)
   26598:	2104      	movs	r1, #4
   2659a:	2200      	movs	r2, #0
   2659c:	4613      	mov	r3, r2
   2659e:	df03      	svc	3
   265a0:	a805      	add	r0, sp, #20
   265a2:	7804      	ldrb	r4, [r0, #0]
   265a4:	2c02      	cmp	r4, #2
   265a6:	d008      	beq.n	265ba <_ZN20complex_dynamic_type3app17heba08feb3a019f60E+0xb6>
   265a8:	481f      	ldr	r0, [pc, #124]	@ (26628 <_ZN20complex_dynamic_type3app17heba08feb3a019f60E+0x124>)
   265aa:	2100      	movs	r1, #0
   265ac:	460a      	mov	r2, r1
   265ae:	460b      	mov	r3, r1
   265b0:	2c03      	cmp	r4, #3
   265b2:	d101      	bne.n	265b8 <_ZN20complex_dynamic_type3app17heba08feb3a019f60E+0xb4>
   265b4:	df03      	svc	3
   265b6:	e000      	b.n	265ba <_ZN20complex_dynamic_type3app17heba08feb3a019f60E+0xb6>
   265b8:	df04      	svc	4
   265ba:	b02f      	add	sp, #188	@ 0xbc
   265bc:	bdf0      	pop	{r4, r5, r6, r7, pc}
   265be:	a805      	add	r0, sp, #20
   265c0:	7800      	ldrb	r0, [r0, #0]
   265c2:	2802      	cmp	r0, #2
   265c4:	d01c      	beq.n	26600 <_ZN20complex_dynamic_type3app17heba08feb3a019f60E+0xfc>
   265c6:	2803      	cmp	r0, #3
   265c8:	d105      	bne.n	265d6 <_ZN20complex_dynamic_type3app17heba08feb3a019f60E+0xd2>
   265ca:	4817      	ldr	r0, [pc, #92]	@ (26628 <_ZN20complex_dynamic_type3app17heba08feb3a019f60E+0x124>)
   265cc:	2100      	movs	r1, #0
   265ce:	460a      	mov	r2, r1
   265d0:	460b      	mov	r3, r1
   265d2:	df03      	svc	3
   265d4:	e004      	b.n	265e0 <_ZN20complex_dynamic_type3app17heba08feb3a019f60E+0xdc>
   265d6:	4814      	ldr	r0, [pc, #80]	@ (26628 <_ZN20complex_dynamic_type3app17heba08feb3a019f60E+0x124>)
   265d8:	2100      	movs	r1, #0
   265da:	460a      	mov	r2, r1
   265dc:	460b      	mov	r3, r1
   265de:	df04      	svc	4
   265e0:	a805      	add	r0, sp, #20
   265e2:	9901      	ldr	r1, [sp, #4]
   265e4:	7001      	strb	r1, [r0, #0]
   265e6:	a81c      	add	r0, sp, #112	@ 0x70
   265e8:	7800      	ldrb	r0, [r0, #0]
   265ea:	2803      	cmp	r0, #3
   265ec:	d008      	beq.n	26600 <_ZN20complex_dynamic_type3app17heba08feb3a019f60E+0xfc>
   265ee:	2802      	cmp	r0, #2
   265f0:	d10c      	bne.n	2660c <_ZN20complex_dynamic_type3app17heba08feb3a019f60E+0x108>
   265f2:	1c68      	adds	r0, r5, #1
   265f4:	224a      	movs	r2, #74	@ 0x4a
   265f6:	4621      	mov	r1, r4
   265f8:	f003 ffc0 	bl	2a57c <__aeabi_memcpy>
   265fc:	702e      	strb	r6, [r5, #0]
   265fe:	e7dc      	b.n	265ba <_ZN20complex_dynamic_type3app17heba08feb3a019f60E+0xb6>
   26600:	4809      	ldr	r0, [pc, #36]	@ (26628 <_ZN20complex_dynamic_type3app17heba08feb3a019f60E+0x124>)
   26602:	2104      	movs	r1, #4
   26604:	2200      	movs	r2, #0
   26606:	4613      	mov	r3, r2
   26608:	df03      	svc	3
   2660a:	e004      	b.n	26616 <_ZN20complex_dynamic_type3app17heba08feb3a019f60E+0x112>
   2660c:	4806      	ldr	r0, [pc, #24]	@ (26628 <_ZN20complex_dynamic_type3app17heba08feb3a019f60E+0x124>)
   2660e:	2104      	movs	r1, #4
   26610:	2200      	movs	r2, #0
   26612:	4613      	mov	r3, r2
   26614:	df04      	svc	4
   26616:	a805      	add	r0, sp, #20
   26618:	7804      	ldrb	r4, [r0, #0]
   2661a:	1c68      	adds	r0, r5, #1
   2661c:	224a      	movs	r2, #74	@ 0x4a
   2661e:	9902      	ldr	r1, [sp, #8]
   26620:	f003 ffac 	bl	2a57c <__aeabi_memcpy>
   26624:	702e      	strb	r6, [r5, #0]
   26626:	e7bd      	b.n	265a4 <_ZN20complex_dynamic_type3app17heba08feb3a019f60E+0xa0>
   26628:	00001484 	.word	0x00001484

0002662c <_ZN20complex_dynamic_type3app17hebd299cacb0100f1E>:
   2662c:	b5f0      	push	{r4, r5, r6, r7, lr}
   2662e:	af03      	add	r7, sp, #12
   26630:	b0a3      	sub	sp, #140	@ 0x8c
   26632:	9003      	str	r0, [sp, #12]
   26634:	ae04      	add	r6, sp, #16
   26636:	2502      	movs	r5, #2
   26638:	7035      	strb	r5, [r6, #0]
   2663a:	1c70      	adds	r0, r6, #1
   2663c:	223c      	movs	r2, #60	@ 0x3c
   2663e:	9202      	str	r2, [sp, #8]
   26640:	f003 ff9c 	bl	2a57c <__aeabi_memcpy>
   26644:	ac14      	add	r4, sp, #80	@ 0x50
   26646:	1c60      	adds	r0, r4, #1
   26648:	2138      	movs	r1, #56	@ 0x38
   2664a:	9001      	str	r0, [sp, #4]
   2664c:	f003 fdd6 	bl	2a1fc <__aeabi_memclr>
   26650:	7025      	strb	r5, [r4, #0]
   26652:	2204      	movs	r2, #4
   26654:	4630      	mov	r0, r6
   26656:	9902      	ldr	r1, [sp, #8]
   26658:	f7f9 fe52 	bl	20300 <_ZN9allow_pin12dynamic_type23Buffer$LT$B$C$_$C$_$GT$5allow17hc408ae422deb27bbE>
   2665c:	07c0      	lsls	r0, r0, #31
   2665e:	d10e      	bne.n	2667e <_ZN20complex_dynamic_type3app17hebd299cacb0100f1E+0x52>
   26660:	a814      	add	r0, sp, #80	@ 0x50
   26662:	2138      	movs	r1, #56	@ 0x38
   26664:	2203      	movs	r2, #3
   26666:	f7f9 fe4b 	bl	20300 <_ZN9allow_pin12dynamic_type23Buffer$LT$B$C$_$C$_$GT$5allow17hc408ae422deb27bbE>
   2666a:	07c0      	lsls	r0, r0, #31
   2666c:	d107      	bne.n	2667e <_ZN20complex_dynamic_type3app17hebd299cacb0100f1E+0x52>
   2666e:	4831      	ldr	r0, [pc, #196]	@ (26734 <_ZN20complex_dynamic_type3app17hebd299cacb0100f1E+0x108>)
   26670:	2103      	movs	r1, #3
   26672:	2600      	movs	r6, #0
   26674:	460a      	mov	r2, r1
   26676:	4633      	mov	r3, r6
   26678:	df02      	svc	2
   2667a:	287f      	cmp	r0, #127	@ 0x7f
   2667c:	d823      	bhi.n	266c6 <_ZN20complex_dynamic_type3app17hebd299cacb0100f1E+0x9a>
   2667e:	2001      	movs	r0, #1
   26680:	9a03      	ldr	r2, [sp, #12]
   26682:	7010      	strb	r0, [r2, #0]
   26684:	6051      	str	r1, [r2, #4]
   26686:	a814      	add	r0, sp, #80	@ 0x50
   26688:	7800      	ldrb	r0, [r0, #0]
   2668a:	2802      	cmp	r0, #2
   2668c:	d00c      	beq.n	266a8 <_ZN20complex_dynamic_type3app17hebd299cacb0100f1E+0x7c>
   2668e:	2803      	cmp	r0, #3
   26690:	d105      	bne.n	2669e <_ZN20complex_dynamic_type3app17hebd299cacb0100f1E+0x72>
   26692:	4828      	ldr	r0, [pc, #160]	@ (26734 <_ZN20complex_dynamic_type3app17hebd299cacb0100f1E+0x108>)
   26694:	2103      	movs	r1, #3
   26696:	2200      	movs	r2, #0
   26698:	4613      	mov	r3, r2
   2669a:	df03      	svc	3
   2669c:	e004      	b.n	266a8 <_ZN20complex_dynamic_type3app17hebd299cacb0100f1E+0x7c>
   2669e:	4825      	ldr	r0, [pc, #148]	@ (26734 <_ZN20complex_dynamic_type3app17hebd299cacb0100f1E+0x108>)
   266a0:	2103      	movs	r1, #3
   266a2:	2200      	movs	r2, #0
   266a4:	4613      	mov	r3, r2
   266a6:	df04      	svc	4
   266a8:	a804      	add	r0, sp, #16
   266aa:	7804      	ldrb	r4, [r0, #0]
   266ac:	2c02      	cmp	r4, #2
   266ae:	d008      	beq.n	266c2 <_ZN20complex_dynamic_type3app17hebd299cacb0100f1E+0x96>
   266b0:	4820      	ldr	r0, [pc, #128]	@ (26734 <_ZN20complex_dynamic_type3app17hebd299cacb0100f1E+0x108>)
   266b2:	2103      	movs	r1, #3
   266b4:	2200      	movs	r2, #0
   266b6:	4613      	mov	r3, r2
   266b8:	2c03      	cmp	r4, #3
   266ba:	d101      	bne.n	266c0 <_ZN20complex_dynamic_type3app17hebd299cacb0100f1E+0x94>
   266bc:	df03      	svc	3
   266be:	e000      	b.n	266c2 <_ZN20complex_dynamic_type3app17hebd299cacb0100f1E+0x96>
   266c0:	df04      	svc	4
   266c2:	b023      	add	sp, #140	@ 0x8c
   266c4:	bdf0      	pop	{r4, r5, r6, r7, pc}
   266c6:	a804      	add	r0, sp, #16
   266c8:	7800      	ldrb	r0, [r0, #0]
   266ca:	2802      	cmp	r0, #2
   266cc:	d00c      	beq.n	266e8 <_ZN20complex_dynamic_type3app17hebd299cacb0100f1E+0xbc>
   266ce:	2803      	cmp	r0, #3
   266d0:	d105      	bne.n	266de <_ZN20complex_dynamic_type3app17hebd299cacb0100f1E+0xb2>
   266d2:	4818      	ldr	r0, [pc, #96]	@ (26734 <_ZN20complex_dynamic_type3app17hebd299cacb0100f1E+0x108>)
   266d4:	2103      	movs	r1, #3
   266d6:	2200      	movs	r2, #0
   266d8:	4613      	mov	r3, r2
   266da:	df03      	svc	3
   266dc:	e004      	b.n	266e8 <_ZN20complex_dynamic_type3app17hebd299cacb0100f1E+0xbc>
   266de:	4815      	ldr	r0, [pc, #84]	@ (26734 <_ZN20complex_dynamic_type3app17hebd299cacb0100f1E+0x108>)
   266e0:	2103      	movs	r1, #3
   266e2:	2200      	movs	r2, #0
   266e4:	4613      	mov	r3, r2
   266e6:	df04      	svc	4
   266e8:	a804      	add	r0, sp, #16
   266ea:	7005      	strb	r5, [r0, #0]
   266ec:	a814      	add	r0, sp, #80	@ 0x50
   266ee:	7800      	ldrb	r0, [r0, #0]
   266f0:	2803      	cmp	r0, #3
   266f2:	d009      	beq.n	26708 <_ZN20complex_dynamic_type3app17hebd299cacb0100f1E+0xdc>
   266f4:	2802      	cmp	r0, #2
   266f6:	d10d      	bne.n	26714 <_ZN20complex_dynamic_type3app17hebd299cacb0100f1E+0xe8>
   266f8:	9c03      	ldr	r4, [sp, #12]
   266fa:	1c60      	adds	r0, r4, #1
   266fc:	2238      	movs	r2, #56	@ 0x38
   266fe:	9901      	ldr	r1, [sp, #4]
   26700:	f003 ff3c 	bl	2a57c <__aeabi_memcpy>
   26704:	7026      	strb	r6, [r4, #0]
   26706:	e7dc      	b.n	266c2 <_ZN20complex_dynamic_type3app17hebd299cacb0100f1E+0x96>
   26708:	480a      	ldr	r0, [pc, #40]	@ (26734 <_ZN20complex_dynamic_type3app17hebd299cacb0100f1E+0x108>)
   2670a:	2103      	movs	r1, #3
   2670c:	2200      	movs	r2, #0
   2670e:	4613      	mov	r3, r2
   26710:	df03      	svc	3
   26712:	e004      	b.n	2671e <_ZN20complex_dynamic_type3app17hebd299cacb0100f1E+0xf2>
   26714:	4807      	ldr	r0, [pc, #28]	@ (26734 <_ZN20complex_dynamic_type3app17hebd299cacb0100f1E+0x108>)
   26716:	2103      	movs	r1, #3
   26718:	2200      	movs	r2, #0
   2671a:	4613      	mov	r3, r2
   2671c:	df04      	svc	4
   2671e:	a804      	add	r0, sp, #16
   26720:	7804      	ldrb	r4, [r0, #0]
   26722:	9d03      	ldr	r5, [sp, #12]
   26724:	1c68      	adds	r0, r5, #1
   26726:	2238      	movs	r2, #56	@ 0x38
   26728:	9901      	ldr	r1, [sp, #4]
   2672a:	f003 ff27 	bl	2a57c <__aeabi_memcpy>
   2672e:	702e      	strb	r6, [r5, #0]
   26730:	e7bc      	b.n	266ac <_ZN20complex_dynamic_type3app17hebd299cacb0100f1E+0x80>
   26732:	46c0      	nop			@ (mov r8, r8)
   26734:	00001d19 	.word	0x00001d19

00026738 <_ZN20complex_dynamic_type3app17hee77a4abd22b402cE>:
   26738:	b5f0      	push	{r4, r5, r6, r7, lr}
   2673a:	af03      	add	r7, sp, #12
   2673c:	b095      	sub	sp, #84	@ 0x54
   2673e:	9003      	str	r0, [sp, #12]
   26740:	a804      	add	r0, sp, #16
   26742:	2402      	movs	r4, #2
   26744:	7004      	strb	r4, [r0, #0]
   26746:	1c46      	adds	r6, r0, #1
   26748:	2214      	movs	r2, #20
   2674a:	9202      	str	r2, [sp, #8]
   2674c:	4630      	mov	r0, r6
   2674e:	f003 ff15 	bl	2a57c <__aeabi_memcpy>
   26752:	ad0a      	add	r5, sp, #40	@ 0x28
   26754:	1c68      	adds	r0, r5, #1
   26756:	212b      	movs	r1, #43	@ 0x2b
   26758:	9001      	str	r0, [sp, #4]
   2675a:	f003 fd4f 	bl	2a1fc <__aeabi_memclr>
   2675e:	9400      	str	r4, [sp, #0]
   26760:	702c      	strb	r4, [r5, #0]
   26762:	483e      	ldr	r0, [pc, #248]	@ (2685c <_ZN20complex_dynamic_type3app17hee77a4abd22b402cE+0x124>)
   26764:	2108      	movs	r1, #8
   26766:	4632      	mov	r2, r6
   26768:	9b02      	ldr	r3, [sp, #8]
   2676a:	df04      	svc	4
   2676c:	2802      	cmp	r0, #2
   2676e:	d104      	bne.n	2677a <_ZN20complex_dynamic_type3app17hee77a4abd22b402cE+0x42>
   26770:	2001      	movs	r0, #1
   26772:	9a03      	ldr	r2, [sp, #12]
   26774:	7010      	strb	r0, [r2, #0]
   26776:	6051      	str	r1, [r2, #4]
   26778:	e02c      	b.n	267d4 <_ZN20complex_dynamic_type3app17hee77a4abd22b402cE+0x9c>
   2677a:	9d03      	ldr	r5, [sp, #12]
   2677c:	a804      	add	r0, sp, #16
   2677e:	2104      	movs	r1, #4
   26780:	7001      	strb	r1, [r0, #0]
   26782:	4836      	ldr	r0, [pc, #216]	@ (2685c <_ZN20complex_dynamic_type3app17hee77a4abd22b402cE+0x124>)
   26784:	232b      	movs	r3, #43	@ 0x2b
   26786:	9c01      	ldr	r4, [sp, #4]
   26788:	4622      	mov	r2, r4
   2678a:	df03      	svc	3
   2678c:	2802      	cmp	r0, #2
   2678e:	d10e      	bne.n	267ae <_ZN20complex_dynamic_type3app17hee77a4abd22b402cE+0x76>
   26790:	2001      	movs	r0, #1
   26792:	7028      	strb	r0, [r5, #0]
   26794:	6069      	str	r1, [r5, #4]
   26796:	a80a      	add	r0, sp, #40	@ 0x28
   26798:	7800      	ldrb	r0, [r0, #0]
   2679a:	2802      	cmp	r0, #2
   2679c:	d01a      	beq.n	267d4 <_ZN20complex_dynamic_type3app17hee77a4abd22b402cE+0x9c>
   2679e:	2803      	cmp	r0, #3
   267a0:	d013      	beq.n	267ca <_ZN20complex_dynamic_type3app17hee77a4abd22b402cE+0x92>
   267a2:	482e      	ldr	r0, [pc, #184]	@ (2685c <_ZN20complex_dynamic_type3app17hee77a4abd22b402cE+0x124>)
   267a4:	2104      	movs	r1, #4
   267a6:	2200      	movs	r2, #0
   267a8:	4613      	mov	r3, r2
   267aa:	df04      	svc	4
   267ac:	e012      	b.n	267d4 <_ZN20complex_dynamic_type3app17hee77a4abd22b402cE+0x9c>
   267ae:	a80a      	add	r0, sp, #40	@ 0x28
   267b0:	2103      	movs	r1, #3
   267b2:	7001      	strb	r1, [r0, #0]
   267b4:	4829      	ldr	r0, [pc, #164]	@ (2685c <_ZN20complex_dynamic_type3app17hee77a4abd22b402cE+0x124>)
   267b6:	2108      	movs	r1, #8
   267b8:	2204      	movs	r2, #4
   267ba:	2600      	movs	r6, #0
   267bc:	4633      	mov	r3, r6
   267be:	df02      	svc	2
   267c0:	287f      	cmp	r0, #127	@ 0x7f
   267c2:	d816      	bhi.n	267f2 <_ZN20complex_dynamic_type3app17hee77a4abd22b402cE+0xba>
   267c4:	2001      	movs	r0, #1
   267c6:	7028      	strb	r0, [r5, #0]
   267c8:	6069      	str	r1, [r5, #4]
   267ca:	4824      	ldr	r0, [pc, #144]	@ (2685c <_ZN20complex_dynamic_type3app17hee77a4abd22b402cE+0x124>)
   267cc:	2104      	movs	r1, #4
   267ce:	2200      	movs	r2, #0
   267d0:	4613      	mov	r3, r2
   267d2:	df03      	svc	3
   267d4:	a804      	add	r0, sp, #16
   267d6:	7804      	ldrb	r4, [r0, #0]
   267d8:	2c02      	cmp	r4, #2
   267da:	d008      	beq.n	267ee <_ZN20complex_dynamic_type3app17hee77a4abd22b402cE+0xb6>
   267dc:	481f      	ldr	r0, [pc, #124]	@ (2685c <_ZN20complex_dynamic_type3app17hee77a4abd22b402cE+0x124>)
   267de:	2108      	movs	r1, #8
   267e0:	2200      	movs	r2, #0
   267e2:	4613      	mov	r3, r2
   267e4:	2c03      	cmp	r4, #3
   267e6:	d101      	bne.n	267ec <_ZN20complex_dynamic_type3app17hee77a4abd22b402cE+0xb4>
   267e8:	df03      	svc	3
   267ea:	e000      	b.n	267ee <_ZN20complex_dynamic_type3app17hee77a4abd22b402cE+0xb6>
   267ec:	df04      	svc	4
   267ee:	b015      	add	sp, #84	@ 0x54
   267f0:	bdf0      	pop	{r4, r5, r6, r7, pc}
   267f2:	a804      	add	r0, sp, #16
   267f4:	7800      	ldrb	r0, [r0, #0]
   267f6:	2802      	cmp	r0, #2
   267f8:	d01c      	beq.n	26834 <_ZN20complex_dynamic_type3app17hee77a4abd22b402cE+0xfc>
   267fa:	2803      	cmp	r0, #3
   267fc:	d105      	bne.n	2680a <_ZN20complex_dynamic_type3app17hee77a4abd22b402cE+0xd2>
   267fe:	4817      	ldr	r0, [pc, #92]	@ (2685c <_ZN20complex_dynamic_type3app17hee77a4abd22b402cE+0x124>)
   26800:	2108      	movs	r1, #8
   26802:	2200      	movs	r2, #0
   26804:	4613      	mov	r3, r2
   26806:	df03      	svc	3
   26808:	e004      	b.n	26814 <_ZN20complex_dynamic_type3app17hee77a4abd22b402cE+0xdc>
   2680a:	4814      	ldr	r0, [pc, #80]	@ (2685c <_ZN20complex_dynamic_type3app17hee77a4abd22b402cE+0x124>)
   2680c:	2108      	movs	r1, #8
   2680e:	2200      	movs	r2, #0
   26810:	4613      	mov	r3, r2
   26812:	df04      	svc	4
   26814:	a804      	add	r0, sp, #16
   26816:	9900      	ldr	r1, [sp, #0]
   26818:	7001      	strb	r1, [r0, #0]
   2681a:	a80a      	add	r0, sp, #40	@ 0x28
   2681c:	7800      	ldrb	r0, [r0, #0]
   2681e:	2803      	cmp	r0, #3
   26820:	d008      	beq.n	26834 <_ZN20complex_dynamic_type3app17hee77a4abd22b402cE+0xfc>
   26822:	2802      	cmp	r0, #2
   26824:	d10c      	bne.n	26840 <_ZN20complex_dynamic_type3app17hee77a4abd22b402cE+0x108>
   26826:	1c68      	adds	r0, r5, #1
   26828:	222b      	movs	r2, #43	@ 0x2b
   2682a:	4621      	mov	r1, r4
   2682c:	f003 fea6 	bl	2a57c <__aeabi_memcpy>
   26830:	702e      	strb	r6, [r5, #0]
   26832:	e7dc      	b.n	267ee <_ZN20complex_dynamic_type3app17hee77a4abd22b402cE+0xb6>
   26834:	4809      	ldr	r0, [pc, #36]	@ (2685c <_ZN20complex_dynamic_type3app17hee77a4abd22b402cE+0x124>)
   26836:	2104      	movs	r1, #4
   26838:	2200      	movs	r2, #0
   2683a:	4613      	mov	r3, r2
   2683c:	df03      	svc	3
   2683e:	e004      	b.n	2684a <_ZN20complex_dynamic_type3app17hee77a4abd22b402cE+0x112>
   26840:	4806      	ldr	r0, [pc, #24]	@ (2685c <_ZN20complex_dynamic_type3app17hee77a4abd22b402cE+0x124>)
   26842:	2104      	movs	r1, #4
   26844:	2200      	movs	r2, #0
   26846:	4613      	mov	r3, r2
   26848:	df04      	svc	4
   2684a:	a804      	add	r0, sp, #16
   2684c:	7804      	ldrb	r4, [r0, #0]
   2684e:	1c68      	adds	r0, r5, #1
   26850:	222b      	movs	r2, #43	@ 0x2b
   26852:	9901      	ldr	r1, [sp, #4]
   26854:	f003 fe92 	bl	2a57c <__aeabi_memcpy>
   26858:	702e      	strb	r6, [r5, #0]
   2685a:	e7bd      	b.n	267d8 <_ZN20complex_dynamic_type3app17hee77a4abd22b402cE+0xa0>
   2685c:	0000239f 	.word	0x0000239f

00026860 <_ZN20complex_dynamic_type3app17hf19fe9793293b0dcE>:
   26860:	b5f0      	push	{r4, r5, r6, r7, lr}
   26862:	af03      	add	r7, sp, #12
   26864:	b09d      	sub	sp, #116	@ 0x74
   26866:	9004      	str	r0, [sp, #16]
   26868:	a805      	add	r0, sp, #20
   2686a:	2502      	movs	r5, #2
   2686c:	7005      	strb	r5, [r0, #0]
   2686e:	1c40      	adds	r0, r0, #1
   26870:	9003      	str	r0, [sp, #12]
   26872:	261b      	movs	r6, #27
   26874:	4632      	mov	r2, r6
   26876:	f003 fe81 	bl	2a57c <__aeabi_memcpy>
   2687a:	ac0c      	add	r4, sp, #48	@ 0x30
   2687c:	1c60      	adds	r0, r4, #1
   2687e:	2141      	movs	r1, #65	@ 0x41
   26880:	9002      	str	r0, [sp, #8]
   26882:	f003 fcbb 	bl	2a1fc <__aeabi_memclr>
   26886:	9501      	str	r5, [sp, #4]
   26888:	7025      	strb	r5, [r4, #0]
   2688a:	2005      	movs	r0, #5
   2688c:	0184      	lsls	r4, r0, #6
   2688e:	2108      	movs	r1, #8
   26890:	4620      	mov	r0, r4
   26892:	9a03      	ldr	r2, [sp, #12]
   26894:	4633      	mov	r3, r6
   26896:	df04      	svc	4
   26898:	2802      	cmp	r0, #2
   2689a:	d104      	bne.n	268a6 <_ZN20complex_dynamic_type3app17hf19fe9793293b0dcE+0x46>
   2689c:	2001      	movs	r0, #1
   2689e:	9a04      	ldr	r2, [sp, #16]
   268a0:	7010      	strb	r0, [r2, #0]
   268a2:	6051      	str	r1, [r2, #4]
   268a4:	e02d      	b.n	26902 <_ZN20complex_dynamic_type3app17hf19fe9793293b0dcE+0xa2>
   268a6:	9e04      	ldr	r6, [sp, #16]
   268a8:	a805      	add	r0, sp, #20
   268aa:	2104      	movs	r1, #4
   268ac:	7001      	strb	r1, [r0, #0]
   268ae:	2109      	movs	r1, #9
   268b0:	2341      	movs	r3, #65	@ 0x41
   268b2:	4620      	mov	r0, r4
   268b4:	9d02      	ldr	r5, [sp, #8]
   268b6:	462a      	mov	r2, r5
   268b8:	df03      	svc	3
   268ba:	2802      	cmp	r0, #2
   268bc:	d10e      	bne.n	268dc <_ZN20complex_dynamic_type3app17hf19fe9793293b0dcE+0x7c>
   268be:	2001      	movs	r0, #1
   268c0:	7030      	strb	r0, [r6, #0]
   268c2:	6071      	str	r1, [r6, #4]
   268c4:	a80c      	add	r0, sp, #48	@ 0x30
   268c6:	7800      	ldrb	r0, [r0, #0]
   268c8:	2802      	cmp	r0, #2
   268ca:	d01a      	beq.n	26902 <_ZN20complex_dynamic_type3app17hf19fe9793293b0dcE+0xa2>
   268cc:	2803      	cmp	r0, #3
   268ce:	d013      	beq.n	268f8 <_ZN20complex_dynamic_type3app17hf19fe9793293b0dcE+0x98>
   268d0:	2109      	movs	r1, #9
   268d2:	2200      	movs	r2, #0
   268d4:	4620      	mov	r0, r4
   268d6:	4613      	mov	r3, r2
   268d8:	df04      	svc	4
   268da:	e012      	b.n	26902 <_ZN20complex_dynamic_type3app17hf19fe9793293b0dcE+0xa2>
   268dc:	a80c      	add	r0, sp, #48	@ 0x30
   268de:	2103      	movs	r1, #3
   268e0:	7001      	strb	r1, [r0, #0]
   268e2:	2108      	movs	r1, #8
   268e4:	2209      	movs	r2, #9
   268e6:	2300      	movs	r3, #0
   268e8:	4620      	mov	r0, r4
   268ea:	9303      	str	r3, [sp, #12]
   268ec:	df02      	svc	2
   268ee:	287f      	cmp	r0, #127	@ 0x7f
   268f0:	d817      	bhi.n	26922 <_ZN20complex_dynamic_type3app17hf19fe9793293b0dcE+0xc2>
   268f2:	2001      	movs	r0, #1
   268f4:	7030      	strb	r0, [r6, #0]
   268f6:	6071      	str	r1, [r6, #4]
   268f8:	2109      	movs	r1, #9
   268fa:	2200      	movs	r2, #0
   268fc:	4620      	mov	r0, r4
   268fe:	4613      	mov	r3, r2
   26900:	df03      	svc	3
   26902:	4625      	mov	r5, r4
   26904:	a805      	add	r0, sp, #20
   26906:	7804      	ldrb	r4, [r0, #0]
   26908:	2c02      	cmp	r4, #2
   2690a:	d008      	beq.n	2691e <_ZN20complex_dynamic_type3app17hf19fe9793293b0dcE+0xbe>
   2690c:	2108      	movs	r1, #8
   2690e:	2200      	movs	r2, #0
   26910:	4628      	mov	r0, r5
   26912:	4613      	mov	r3, r2
   26914:	2c03      	cmp	r4, #3
   26916:	d101      	bne.n	2691c <_ZN20complex_dynamic_type3app17hf19fe9793293b0dcE+0xbc>
   26918:	df03      	svc	3
   2691a:	e000      	b.n	2691e <_ZN20complex_dynamic_type3app17hf19fe9793293b0dcE+0xbe>
   2691c:	df04      	svc	4
   2691e:	b01d      	add	sp, #116	@ 0x74
   26920:	bdf0      	pop	{r4, r5, r6, r7, pc}
   26922:	a805      	add	r0, sp, #20
   26924:	7800      	ldrb	r0, [r0, #0]
   26926:	2802      	cmp	r0, #2
   26928:	d01b      	beq.n	26962 <_ZN20complex_dynamic_type3app17hf19fe9793293b0dcE+0x102>
   2692a:	2108      	movs	r1, #8
   2692c:	2200      	movs	r2, #0
   2692e:	2803      	cmp	r0, #3
   26930:	d103      	bne.n	2693a <_ZN20complex_dynamic_type3app17hf19fe9793293b0dcE+0xda>
   26932:	4620      	mov	r0, r4
   26934:	4613      	mov	r3, r2
   26936:	df03      	svc	3
   26938:	e002      	b.n	26940 <_ZN20complex_dynamic_type3app17hf19fe9793293b0dcE+0xe0>
   2693a:	4620      	mov	r0, r4
   2693c:	4613      	mov	r3, r2
   2693e:	df04      	svc	4
   26940:	a805      	add	r0, sp, #20
   26942:	9901      	ldr	r1, [sp, #4]
   26944:	7001      	strb	r1, [r0, #0]
   26946:	a80c      	add	r0, sp, #48	@ 0x30
   26948:	7800      	ldrb	r0, [r0, #0]
   2694a:	2803      	cmp	r0, #3
   2694c:	d009      	beq.n	26962 <_ZN20complex_dynamic_type3app17hf19fe9793293b0dcE+0x102>
   2694e:	2802      	cmp	r0, #2
   26950:	d10e      	bne.n	26970 <_ZN20complex_dynamic_type3app17hf19fe9793293b0dcE+0x110>
   26952:	1c70      	adds	r0, r6, #1
   26954:	2241      	movs	r2, #65	@ 0x41
   26956:	4629      	mov	r1, r5
   26958:	f003 fe10 	bl	2a57c <__aeabi_memcpy>
   2695c:	9803      	ldr	r0, [sp, #12]
   2695e:	7030      	strb	r0, [r6, #0]
   26960:	e7dd      	b.n	2691e <_ZN20complex_dynamic_type3app17hf19fe9793293b0dcE+0xbe>
   26962:	2109      	movs	r1, #9
   26964:	2200      	movs	r2, #0
   26966:	4625      	mov	r5, r4
   26968:	4620      	mov	r0, r4
   2696a:	4613      	mov	r3, r2
   2696c:	df03      	svc	3
   2696e:	e005      	b.n	2697c <_ZN20complex_dynamic_type3app17hf19fe9793293b0dcE+0x11c>
   26970:	2109      	movs	r1, #9
   26972:	2200      	movs	r2, #0
   26974:	4625      	mov	r5, r4
   26976:	4620      	mov	r0, r4
   26978:	4613      	mov	r3, r2
   2697a:	df04      	svc	4
   2697c:	a805      	add	r0, sp, #20
   2697e:	7804      	ldrb	r4, [r0, #0]
   26980:	1c70      	adds	r0, r6, #1
   26982:	2241      	movs	r2, #65	@ 0x41
   26984:	9902      	ldr	r1, [sp, #8]
   26986:	f003 fdf9 	bl	2a57c <__aeabi_memcpy>
   2698a:	9803      	ldr	r0, [sp, #12]
   2698c:	7030      	strb	r0, [r6, #0]
   2698e:	e7bb      	b.n	26908 <_ZN20complex_dynamic_type3app17hf19fe9793293b0dcE+0xa8>

00026990 <_ZN20complex_dynamic_type3app17hf54ce18665cffdc5E>:
   26990:	b5f0      	push	{r4, r5, r6, r7, lr}
   26992:	af03      	add	r7, sp, #12
   26994:	b0a5      	sub	sp, #148	@ 0x94
   26996:	9004      	str	r0, [sp, #16]
   26998:	a805      	add	r0, sp, #20
   2699a:	2402      	movs	r4, #2
   2699c:	7004      	strb	r4, [r0, #0]
   2699e:	1c46      	adds	r6, r0, #1
   269a0:	2231      	movs	r2, #49	@ 0x31
   269a2:	9203      	str	r2, [sp, #12]
   269a4:	4630      	mov	r0, r6
   269a6:	f003 fde9 	bl	2a57c <__aeabi_memcpy>
   269aa:	ad12      	add	r5, sp, #72	@ 0x48
   269ac:	1c68      	adds	r0, r5, #1
   269ae:	2148      	movs	r1, #72	@ 0x48
   269b0:	9002      	str	r0, [sp, #8]
   269b2:	f003 fc23 	bl	2a1fc <__aeabi_memclr>
   269b6:	9401      	str	r4, [sp, #4]
   269b8:	702c      	strb	r4, [r5, #0]
   269ba:	483f      	ldr	r0, [pc, #252]	@ (26ab8 <_ZN20complex_dynamic_type3app17hf54ce18665cffdc5E+0x128>)
   269bc:	2504      	movs	r5, #4
   269be:	4629      	mov	r1, r5
   269c0:	4632      	mov	r2, r6
   269c2:	9b03      	ldr	r3, [sp, #12]
   269c4:	df04      	svc	4
   269c6:	2802      	cmp	r0, #2
   269c8:	d104      	bne.n	269d4 <_ZN20complex_dynamic_type3app17hf54ce18665cffdc5E+0x44>
   269ca:	2001      	movs	r0, #1
   269cc:	9a04      	ldr	r2, [sp, #16]
   269ce:	7010      	strb	r0, [r2, #0]
   269d0:	6051      	str	r1, [r2, #4]
   269d2:	e02b      	b.n	26a2c <_ZN20complex_dynamic_type3app17hf54ce18665cffdc5E+0x9c>
   269d4:	9e04      	ldr	r6, [sp, #16]
   269d6:	a805      	add	r0, sp, #20
   269d8:	7005      	strb	r5, [r0, #0]
   269da:	4837      	ldr	r0, [pc, #220]	@ (26ab8 <_ZN20complex_dynamic_type3app17hf54ce18665cffdc5E+0x128>)
   269dc:	2403      	movs	r4, #3
   269de:	2348      	movs	r3, #72	@ 0x48
   269e0:	4621      	mov	r1, r4
   269e2:	9a02      	ldr	r2, [sp, #8]
   269e4:	df03      	svc	3
   269e6:	2802      	cmp	r0, #2
   269e8:	d10e      	bne.n	26a08 <_ZN20complex_dynamic_type3app17hf54ce18665cffdc5E+0x78>
   269ea:	2001      	movs	r0, #1
   269ec:	7030      	strb	r0, [r6, #0]
   269ee:	6071      	str	r1, [r6, #4]
   269f0:	a812      	add	r0, sp, #72	@ 0x48
   269f2:	7800      	ldrb	r0, [r0, #0]
   269f4:	2802      	cmp	r0, #2
   269f6:	d019      	beq.n	26a2c <_ZN20complex_dynamic_type3app17hf54ce18665cffdc5E+0x9c>
   269f8:	2803      	cmp	r0, #3
   269fa:	d012      	beq.n	26a22 <_ZN20complex_dynamic_type3app17hf54ce18665cffdc5E+0x92>
   269fc:	482e      	ldr	r0, [pc, #184]	@ (26ab8 <_ZN20complex_dynamic_type3app17hf54ce18665cffdc5E+0x128>)
   269fe:	2103      	movs	r1, #3
   26a00:	2200      	movs	r2, #0
   26a02:	4613      	mov	r3, r2
   26a04:	df04      	svc	4
   26a06:	e011      	b.n	26a2c <_ZN20complex_dynamic_type3app17hf54ce18665cffdc5E+0x9c>
   26a08:	a812      	add	r0, sp, #72	@ 0x48
   26a0a:	7004      	strb	r4, [r0, #0]
   26a0c:	482a      	ldr	r0, [pc, #168]	@ (26ab8 <_ZN20complex_dynamic_type3app17hf54ce18665cffdc5E+0x128>)
   26a0e:	2104      	movs	r1, #4
   26a10:	2300      	movs	r3, #0
   26a12:	4622      	mov	r2, r4
   26a14:	9303      	str	r3, [sp, #12]
   26a16:	df02      	svc	2
   26a18:	287f      	cmp	r0, #127	@ 0x7f
   26a1a:	d816      	bhi.n	26a4a <_ZN20complex_dynamic_type3app17hf54ce18665cffdc5E+0xba>
   26a1c:	2001      	movs	r0, #1
   26a1e:	7030      	strb	r0, [r6, #0]
   26a20:	6071      	str	r1, [r6, #4]
   26a22:	4825      	ldr	r0, [pc, #148]	@ (26ab8 <_ZN20complex_dynamic_type3app17hf54ce18665cffdc5E+0x128>)
   26a24:	2103      	movs	r1, #3
   26a26:	2200      	movs	r2, #0
   26a28:	4613      	mov	r3, r2
   26a2a:	df03      	svc	3
   26a2c:	a805      	add	r0, sp, #20
   26a2e:	7804      	ldrb	r4, [r0, #0]
   26a30:	2c02      	cmp	r4, #2
   26a32:	d008      	beq.n	26a46 <_ZN20complex_dynamic_type3app17hf54ce18665cffdc5E+0xb6>
   26a34:	4820      	ldr	r0, [pc, #128]	@ (26ab8 <_ZN20complex_dynamic_type3app17hf54ce18665cffdc5E+0x128>)
   26a36:	2104      	movs	r1, #4
   26a38:	2200      	movs	r2, #0
   26a3a:	4613      	mov	r3, r2
   26a3c:	2c03      	cmp	r4, #3
   26a3e:	d101      	bne.n	26a44 <_ZN20complex_dynamic_type3app17hf54ce18665cffdc5E+0xb4>
   26a40:	df03      	svc	3
   26a42:	e000      	b.n	26a46 <_ZN20complex_dynamic_type3app17hf54ce18665cffdc5E+0xb6>
   26a44:	df04      	svc	4
   26a46:	b025      	add	sp, #148	@ 0x94
   26a48:	bdf0      	pop	{r4, r5, r6, r7, pc}
   26a4a:	a805      	add	r0, sp, #20
   26a4c:	7800      	ldrb	r0, [r0, #0]
   26a4e:	2802      	cmp	r0, #2
   26a50:	d01d      	beq.n	26a8e <_ZN20complex_dynamic_type3app17hf54ce18665cffdc5E+0xfe>
   26a52:	2803      	cmp	r0, #3
   26a54:	d105      	bne.n	26a62 <_ZN20complex_dynamic_type3app17hf54ce18665cffdc5E+0xd2>
   26a56:	4818      	ldr	r0, [pc, #96]	@ (26ab8 <_ZN20complex_dynamic_type3app17hf54ce18665cffdc5E+0x128>)
   26a58:	2104      	movs	r1, #4
   26a5a:	2200      	movs	r2, #0
   26a5c:	4613      	mov	r3, r2
   26a5e:	df03      	svc	3
   26a60:	e004      	b.n	26a6c <_ZN20complex_dynamic_type3app17hf54ce18665cffdc5E+0xdc>
   26a62:	4815      	ldr	r0, [pc, #84]	@ (26ab8 <_ZN20complex_dynamic_type3app17hf54ce18665cffdc5E+0x128>)
   26a64:	2104      	movs	r1, #4
   26a66:	2200      	movs	r2, #0
   26a68:	4613      	mov	r3, r2
   26a6a:	df04      	svc	4
   26a6c:	9901      	ldr	r1, [sp, #4]
   26a6e:	a805      	add	r0, sp, #20
   26a70:	7001      	strb	r1, [r0, #0]
   26a72:	a812      	add	r0, sp, #72	@ 0x48
   26a74:	7800      	ldrb	r0, [r0, #0]
   26a76:	2803      	cmp	r0, #3
   26a78:	d009      	beq.n	26a8e <_ZN20complex_dynamic_type3app17hf54ce18665cffdc5E+0xfe>
   26a7a:	2802      	cmp	r0, #2
   26a7c:	d10d      	bne.n	26a9a <_ZN20complex_dynamic_type3app17hf54ce18665cffdc5E+0x10a>
   26a7e:	1c70      	adds	r0, r6, #1
   26a80:	2248      	movs	r2, #72	@ 0x48
   26a82:	9902      	ldr	r1, [sp, #8]
   26a84:	f003 fd7a 	bl	2a57c <__aeabi_memcpy>
   26a88:	9803      	ldr	r0, [sp, #12]
   26a8a:	7030      	strb	r0, [r6, #0]
   26a8c:	e7db      	b.n	26a46 <_ZN20complex_dynamic_type3app17hf54ce18665cffdc5E+0xb6>
   26a8e:	480a      	ldr	r0, [pc, #40]	@ (26ab8 <_ZN20complex_dynamic_type3app17hf54ce18665cffdc5E+0x128>)
   26a90:	2103      	movs	r1, #3
   26a92:	2200      	movs	r2, #0
   26a94:	4613      	mov	r3, r2
   26a96:	df03      	svc	3
   26a98:	e004      	b.n	26aa4 <_ZN20complex_dynamic_type3app17hf54ce18665cffdc5E+0x114>
   26a9a:	4807      	ldr	r0, [pc, #28]	@ (26ab8 <_ZN20complex_dynamic_type3app17hf54ce18665cffdc5E+0x128>)
   26a9c:	2103      	movs	r1, #3
   26a9e:	2200      	movs	r2, #0
   26aa0:	4613      	mov	r3, r2
   26aa2:	df04      	svc	4
   26aa4:	a805      	add	r0, sp, #20
   26aa6:	7804      	ldrb	r4, [r0, #0]
   26aa8:	1c70      	adds	r0, r6, #1
   26aaa:	2248      	movs	r2, #72	@ 0x48
   26aac:	9902      	ldr	r1, [sp, #8]
   26aae:	f003 fd65 	bl	2a57c <__aeabi_memcpy>
   26ab2:	9803      	ldr	r0, [sp, #12]
   26ab4:	7030      	strb	r0, [r6, #0]
   26ab6:	e7bb      	b.n	26a30 <_ZN20complex_dynamic_type3app17hf54ce18665cffdc5E+0xa0>
   26ab8:	0000180e 	.word	0x0000180e

00026abc <_ZN20complex_dynamic_type3app17hf74375dfaef2c4ebE>:
   26abc:	b5f0      	push	{r4, r5, r6, r7, lr}
   26abe:	af03      	add	r7, sp, #12
   26ac0:	b0a1      	sub	sp, #132	@ 0x84
   26ac2:	9004      	str	r0, [sp, #16]
   26ac4:	a805      	add	r0, sp, #20
   26ac6:	2402      	movs	r4, #2
   26ac8:	7004      	strb	r4, [r0, #0]
   26aca:	1c46      	adds	r6, r0, #1
   26acc:	2249      	movs	r2, #73	@ 0x49
   26ace:	9203      	str	r2, [sp, #12]
   26ad0:	4630      	mov	r0, r6
   26ad2:	f003 fd53 	bl	2a57c <__aeabi_memcpy>
   26ad6:	ad18      	add	r5, sp, #96	@ 0x60
   26ad8:	1c68      	adds	r0, r5, #1
   26ada:	2123      	movs	r1, #35	@ 0x23
   26adc:	9002      	str	r0, [sp, #8]
   26ade:	f003 fb8d 	bl	2a1fc <__aeabi_memclr>
   26ae2:	9401      	str	r4, [sp, #4]
   26ae4:	702c      	strb	r4, [r5, #0]
   26ae6:	483e      	ldr	r0, [pc, #248]	@ (26be0 <_ZN20complex_dynamic_type3app17hf74375dfaef2c4ebE+0x124>)
   26ae8:	2107      	movs	r1, #7
   26aea:	4632      	mov	r2, r6
   26aec:	9b03      	ldr	r3, [sp, #12]
   26aee:	df04      	svc	4
   26af0:	2802      	cmp	r0, #2
   26af2:	d104      	bne.n	26afe <_ZN20complex_dynamic_type3app17hf74375dfaef2c4ebE+0x42>
   26af4:	2001      	movs	r0, #1
   26af6:	9a04      	ldr	r2, [sp, #16]
   26af8:	7010      	strb	r0, [r2, #0]
   26afa:	6051      	str	r1, [r2, #4]
   26afc:	e02c      	b.n	26b58 <_ZN20complex_dynamic_type3app17hf74375dfaef2c4ebE+0x9c>
   26afe:	9d04      	ldr	r5, [sp, #16]
   26b00:	a805      	add	r0, sp, #20
   26b02:	2104      	movs	r1, #4
   26b04:	7001      	strb	r1, [r0, #0]
   26b06:	4836      	ldr	r0, [pc, #216]	@ (26be0 <_ZN20complex_dynamic_type3app17hf74375dfaef2c4ebE+0x124>)
   26b08:	2401      	movs	r4, #1
   26b0a:	2323      	movs	r3, #35	@ 0x23
   26b0c:	4621      	mov	r1, r4
   26b0e:	9a02      	ldr	r2, [sp, #8]
   26b10:	df03      	svc	3
   26b12:	2802      	cmp	r0, #2
   26b14:	d10d      	bne.n	26b32 <_ZN20complex_dynamic_type3app17hf74375dfaef2c4ebE+0x76>
   26b16:	702c      	strb	r4, [r5, #0]
   26b18:	6069      	str	r1, [r5, #4]
   26b1a:	a818      	add	r0, sp, #96	@ 0x60
   26b1c:	7800      	ldrb	r0, [r0, #0]
   26b1e:	2802      	cmp	r0, #2
   26b20:	d01a      	beq.n	26b58 <_ZN20complex_dynamic_type3app17hf74375dfaef2c4ebE+0x9c>
   26b22:	2803      	cmp	r0, #3
   26b24:	d013      	beq.n	26b4e <_ZN20complex_dynamic_type3app17hf74375dfaef2c4ebE+0x92>
   26b26:	482e      	ldr	r0, [pc, #184]	@ (26be0 <_ZN20complex_dynamic_type3app17hf74375dfaef2c4ebE+0x124>)
   26b28:	2101      	movs	r1, #1
   26b2a:	2200      	movs	r2, #0
   26b2c:	4613      	mov	r3, r2
   26b2e:	df04      	svc	4
   26b30:	e012      	b.n	26b58 <_ZN20complex_dynamic_type3app17hf74375dfaef2c4ebE+0x9c>
   26b32:	a818      	add	r0, sp, #96	@ 0x60
   26b34:	2103      	movs	r1, #3
   26b36:	7001      	strb	r1, [r0, #0]
   26b38:	4829      	ldr	r0, [pc, #164]	@ (26be0 <_ZN20complex_dynamic_type3app17hf74375dfaef2c4ebE+0x124>)
   26b3a:	2107      	movs	r1, #7
   26b3c:	2401      	movs	r4, #1
   26b3e:	2600      	movs	r6, #0
   26b40:	4622      	mov	r2, r4
   26b42:	4633      	mov	r3, r6
   26b44:	df02      	svc	2
   26b46:	287f      	cmp	r0, #127	@ 0x7f
   26b48:	d815      	bhi.n	26b76 <_ZN20complex_dynamic_type3app17hf74375dfaef2c4ebE+0xba>
   26b4a:	702c      	strb	r4, [r5, #0]
   26b4c:	6069      	str	r1, [r5, #4]
   26b4e:	4824      	ldr	r0, [pc, #144]	@ (26be0 <_ZN20complex_dynamic_type3app17hf74375dfaef2c4ebE+0x124>)
   26b50:	2101      	movs	r1, #1
   26b52:	2200      	movs	r2, #0
   26b54:	4613      	mov	r3, r2
   26b56:	df03      	svc	3
   26b58:	a805      	add	r0, sp, #20
   26b5a:	7804      	ldrb	r4, [r0, #0]
   26b5c:	2c02      	cmp	r4, #2
   26b5e:	d008      	beq.n	26b72 <_ZN20complex_dynamic_type3app17hf74375dfaef2c4ebE+0xb6>
   26b60:	481f      	ldr	r0, [pc, #124]	@ (26be0 <_ZN20complex_dynamic_type3app17hf74375dfaef2c4ebE+0x124>)
   26b62:	2107      	movs	r1, #7
   26b64:	2200      	movs	r2, #0
   26b66:	4613      	mov	r3, r2
   26b68:	2c03      	cmp	r4, #3
   26b6a:	d101      	bne.n	26b70 <_ZN20complex_dynamic_type3app17hf74375dfaef2c4ebE+0xb4>
   26b6c:	df03      	svc	3
   26b6e:	e000      	b.n	26b72 <_ZN20complex_dynamic_type3app17hf74375dfaef2c4ebE+0xb6>
   26b70:	df04      	svc	4
   26b72:	b021      	add	sp, #132	@ 0x84
   26b74:	bdf0      	pop	{r4, r5, r6, r7, pc}
   26b76:	a805      	add	r0, sp, #20
   26b78:	7800      	ldrb	r0, [r0, #0]
   26b7a:	2802      	cmp	r0, #2
   26b7c:	d01c      	beq.n	26bb8 <_ZN20complex_dynamic_type3app17hf74375dfaef2c4ebE+0xfc>
   26b7e:	2803      	cmp	r0, #3
   26b80:	d105      	bne.n	26b8e <_ZN20complex_dynamic_type3app17hf74375dfaef2c4ebE+0xd2>
   26b82:	4817      	ldr	r0, [pc, #92]	@ (26be0 <_ZN20complex_dynamic_type3app17hf74375dfaef2c4ebE+0x124>)
   26b84:	2107      	movs	r1, #7
   26b86:	2200      	movs	r2, #0
   26b88:	4613      	mov	r3, r2
   26b8a:	df03      	svc	3
   26b8c:	e004      	b.n	26b98 <_ZN20complex_dynamic_type3app17hf74375dfaef2c4ebE+0xdc>
   26b8e:	4814      	ldr	r0, [pc, #80]	@ (26be0 <_ZN20complex_dynamic_type3app17hf74375dfaef2c4ebE+0x124>)
   26b90:	2107      	movs	r1, #7
   26b92:	2200      	movs	r2, #0
   26b94:	4613      	mov	r3, r2
   26b96:	df04      	svc	4
   26b98:	9901      	ldr	r1, [sp, #4]
   26b9a:	a805      	add	r0, sp, #20
   26b9c:	7001      	strb	r1, [r0, #0]
   26b9e:	a818      	add	r0, sp, #96	@ 0x60
   26ba0:	7800      	ldrb	r0, [r0, #0]
   26ba2:	2803      	cmp	r0, #3
   26ba4:	d008      	beq.n	26bb8 <_ZN20complex_dynamic_type3app17hf74375dfaef2c4ebE+0xfc>
   26ba6:	2802      	cmp	r0, #2
   26ba8:	d10c      	bne.n	26bc4 <_ZN20complex_dynamic_type3app17hf74375dfaef2c4ebE+0x108>
   26baa:	1c68      	adds	r0, r5, #1
   26bac:	2223      	movs	r2, #35	@ 0x23
   26bae:	9902      	ldr	r1, [sp, #8]
   26bb0:	f003 fce4 	bl	2a57c <__aeabi_memcpy>
   26bb4:	702e      	strb	r6, [r5, #0]
   26bb6:	e7dc      	b.n	26b72 <_ZN20complex_dynamic_type3app17hf74375dfaef2c4ebE+0xb6>
   26bb8:	4809      	ldr	r0, [pc, #36]	@ (26be0 <_ZN20complex_dynamic_type3app17hf74375dfaef2c4ebE+0x124>)
   26bba:	2101      	movs	r1, #1
   26bbc:	2200      	movs	r2, #0
   26bbe:	4613      	mov	r3, r2
   26bc0:	df03      	svc	3
   26bc2:	e004      	b.n	26bce <_ZN20complex_dynamic_type3app17hf74375dfaef2c4ebE+0x112>
   26bc4:	4806      	ldr	r0, [pc, #24]	@ (26be0 <_ZN20complex_dynamic_type3app17hf74375dfaef2c4ebE+0x124>)
   26bc6:	2101      	movs	r1, #1
   26bc8:	2200      	movs	r2, #0
   26bca:	4613      	mov	r3, r2
   26bcc:	df04      	svc	4
   26bce:	a805      	add	r0, sp, #20
   26bd0:	7804      	ldrb	r4, [r0, #0]
   26bd2:	1c68      	adds	r0, r5, #1
   26bd4:	2223      	movs	r2, #35	@ 0x23
   26bd6:	9902      	ldr	r1, [sp, #8]
   26bd8:	f003 fcd0 	bl	2a57c <__aeabi_memcpy>
   26bdc:	702e      	strb	r6, [r5, #0]
   26bde:	e7bd      	b.n	26b5c <_ZN20complex_dynamic_type3app17hf74375dfaef2c4ebE+0xa0>
   26be0:	00001551 	.word	0x00001551

00026be4 <_ZN20complex_dynamic_type3app17hf752f6ad00fa65b6E>:
   26be4:	b5f0      	push	{r4, r5, r6, r7, lr}
   26be6:	af03      	add	r7, sp, #12
   26be8:	b09f      	sub	sp, #124	@ 0x7c
   26bea:	9002      	str	r0, [sp, #8]
   26bec:	a803      	add	r0, sp, #12
   26bee:	2502      	movs	r5, #2
   26bf0:	7005      	strb	r5, [r0, #0]
   26bf2:	1c46      	adds	r6, r0, #1
   26bf4:	2236      	movs	r2, #54	@ 0x36
   26bf6:	9201      	str	r2, [sp, #4]
   26bf8:	4630      	mov	r0, r6
   26bfa:	f003 fcbf 	bl	2a57c <__aeabi_memcpy>
   26bfe:	ac11      	add	r4, sp, #68	@ 0x44
   26c00:	1c60      	adds	r0, r4, #1
   26c02:	2134      	movs	r1, #52	@ 0x34
   26c04:	9000      	str	r0, [sp, #0]
   26c06:	f003 faf9 	bl	2a1fc <__aeabi_memclr>
   26c0a:	7025      	strb	r5, [r4, #0]
   26c0c:	4841      	ldr	r0, [pc, #260]	@ (26d14 <_ZN20complex_dynamic_type3app17hf752f6ad00fa65b6E+0x130>)
   26c0e:	2504      	movs	r5, #4
   26c10:	4629      	mov	r1, r5
   26c12:	4632      	mov	r2, r6
   26c14:	9b01      	ldr	r3, [sp, #4]
   26c16:	df04      	svc	4
   26c18:	2802      	cmp	r0, #2
   26c1a:	d104      	bne.n	26c26 <_ZN20complex_dynamic_type3app17hf752f6ad00fa65b6E+0x42>
   26c1c:	2001      	movs	r0, #1
   26c1e:	9a02      	ldr	r2, [sp, #8]
   26c20:	7010      	strb	r0, [r2, #0]
   26c22:	6051      	str	r1, [r2, #4]
   26c24:	e02d      	b.n	26c82 <_ZN20complex_dynamic_type3app17hf752f6ad00fa65b6E+0x9e>
   26c26:	9c02      	ldr	r4, [sp, #8]
   26c28:	a803      	add	r0, sp, #12
   26c2a:	7005      	strb	r5, [r0, #0]
   26c2c:	4839      	ldr	r0, [pc, #228]	@ (26d14 <_ZN20complex_dynamic_type3app17hf752f6ad00fa65b6E+0x130>)
   26c2e:	2102      	movs	r1, #2
   26c30:	2334      	movs	r3, #52	@ 0x34
   26c32:	9d00      	ldr	r5, [sp, #0]
   26c34:	462a      	mov	r2, r5
   26c36:	df03      	svc	3
   26c38:	2802      	cmp	r0, #2
   26c3a:	d10e      	bne.n	26c5a <_ZN20complex_dynamic_type3app17hf752f6ad00fa65b6E+0x76>
   26c3c:	2001      	movs	r0, #1
   26c3e:	7020      	strb	r0, [r4, #0]
   26c40:	6061      	str	r1, [r4, #4]
   26c42:	a811      	add	r0, sp, #68	@ 0x44
   26c44:	7800      	ldrb	r0, [r0, #0]
   26c46:	2802      	cmp	r0, #2
   26c48:	d01b      	beq.n	26c82 <_ZN20complex_dynamic_type3app17hf752f6ad00fa65b6E+0x9e>
   26c4a:	2803      	cmp	r0, #3
   26c4c:	d014      	beq.n	26c78 <_ZN20complex_dynamic_type3app17hf752f6ad00fa65b6E+0x94>
   26c4e:	4831      	ldr	r0, [pc, #196]	@ (26d14 <_ZN20complex_dynamic_type3app17hf752f6ad00fa65b6E+0x130>)
   26c50:	2102      	movs	r1, #2
   26c52:	2200      	movs	r2, #0
   26c54:	4613      	mov	r3, r2
   26c56:	df04      	svc	4
   26c58:	e013      	b.n	26c82 <_ZN20complex_dynamic_type3app17hf752f6ad00fa65b6E+0x9e>
   26c5a:	a811      	add	r0, sp, #68	@ 0x44
   26c5c:	2103      	movs	r1, #3
   26c5e:	7001      	strb	r1, [r0, #0]
   26c60:	482c      	ldr	r0, [pc, #176]	@ (26d14 <_ZN20complex_dynamic_type3app17hf752f6ad00fa65b6E+0x130>)
   26c62:	2104      	movs	r1, #4
   26c64:	2602      	movs	r6, #2
   26c66:	2300      	movs	r3, #0
   26c68:	4632      	mov	r2, r6
   26c6a:	9301      	str	r3, [sp, #4]
   26c6c:	df02      	svc	2
   26c6e:	287f      	cmp	r0, #127	@ 0x7f
   26c70:	d816      	bhi.n	26ca0 <_ZN20complex_dynamic_type3app17hf752f6ad00fa65b6E+0xbc>
   26c72:	2001      	movs	r0, #1
   26c74:	7020      	strb	r0, [r4, #0]
   26c76:	6061      	str	r1, [r4, #4]
   26c78:	4826      	ldr	r0, [pc, #152]	@ (26d14 <_ZN20complex_dynamic_type3app17hf752f6ad00fa65b6E+0x130>)
   26c7a:	2102      	movs	r1, #2
   26c7c:	2200      	movs	r2, #0
   26c7e:	4613      	mov	r3, r2
   26c80:	df03      	svc	3
   26c82:	a803      	add	r0, sp, #12
   26c84:	7804      	ldrb	r4, [r0, #0]
   26c86:	2c02      	cmp	r4, #2
   26c88:	d008      	beq.n	26c9c <_ZN20complex_dynamic_type3app17hf752f6ad00fa65b6E+0xb8>
   26c8a:	4822      	ldr	r0, [pc, #136]	@ (26d14 <_ZN20complex_dynamic_type3app17hf752f6ad00fa65b6E+0x130>)
   26c8c:	2104      	movs	r1, #4
   26c8e:	2200      	movs	r2, #0
   26c90:	4613      	mov	r3, r2
   26c92:	2c03      	cmp	r4, #3
   26c94:	d101      	bne.n	26c9a <_ZN20complex_dynamic_type3app17hf752f6ad00fa65b6E+0xb6>
   26c96:	df03      	svc	3
   26c98:	e000      	b.n	26c9c <_ZN20complex_dynamic_type3app17hf752f6ad00fa65b6E+0xb8>
   26c9a:	df04      	svc	4
   26c9c:	b01f      	add	sp, #124	@ 0x7c
   26c9e:	bdf0      	pop	{r4, r5, r6, r7, pc}
   26ca0:	a803      	add	r0, sp, #12
   26ca2:	7800      	ldrb	r0, [r0, #0]
   26ca4:	2802      	cmp	r0, #2
   26ca6:	d01c      	beq.n	26ce2 <_ZN20complex_dynamic_type3app17hf752f6ad00fa65b6E+0xfe>
   26ca8:	2803      	cmp	r0, #3
   26caa:	d105      	bne.n	26cb8 <_ZN20complex_dynamic_type3app17hf752f6ad00fa65b6E+0xd4>
   26cac:	4819      	ldr	r0, [pc, #100]	@ (26d14 <_ZN20complex_dynamic_type3app17hf752f6ad00fa65b6E+0x130>)
   26cae:	2104      	movs	r1, #4
   26cb0:	2200      	movs	r2, #0
   26cb2:	4613      	mov	r3, r2
   26cb4:	df03      	svc	3
   26cb6:	e004      	b.n	26cc2 <_ZN20complex_dynamic_type3app17hf752f6ad00fa65b6E+0xde>
   26cb8:	4816      	ldr	r0, [pc, #88]	@ (26d14 <_ZN20complex_dynamic_type3app17hf752f6ad00fa65b6E+0x130>)
   26cba:	2104      	movs	r1, #4
   26cbc:	2200      	movs	r2, #0
   26cbe:	4613      	mov	r3, r2
   26cc0:	df04      	svc	4
   26cc2:	a803      	add	r0, sp, #12
   26cc4:	7006      	strb	r6, [r0, #0]
   26cc6:	a811      	add	r0, sp, #68	@ 0x44
   26cc8:	7800      	ldrb	r0, [r0, #0]
   26cca:	2803      	cmp	r0, #3
   26ccc:	d009      	beq.n	26ce2 <_ZN20complex_dynamic_type3app17hf752f6ad00fa65b6E+0xfe>
   26cce:	2802      	cmp	r0, #2
   26cd0:	d10e      	bne.n	26cf0 <_ZN20complex_dynamic_type3app17hf752f6ad00fa65b6E+0x10c>
   26cd2:	1c60      	adds	r0, r4, #1
   26cd4:	2234      	movs	r2, #52	@ 0x34
   26cd6:	4629      	mov	r1, r5
   26cd8:	f003 fc50 	bl	2a57c <__aeabi_memcpy>
   26cdc:	9801      	ldr	r0, [sp, #4]
   26cde:	7020      	strb	r0, [r4, #0]
   26ce0:	e7dc      	b.n	26c9c <_ZN20complex_dynamic_type3app17hf752f6ad00fa65b6E+0xb8>
   26ce2:	462e      	mov	r6, r5
   26ce4:	480b      	ldr	r0, [pc, #44]	@ (26d14 <_ZN20complex_dynamic_type3app17hf752f6ad00fa65b6E+0x130>)
   26ce6:	2102      	movs	r1, #2
   26ce8:	2200      	movs	r2, #0
   26cea:	4613      	mov	r3, r2
   26cec:	df03      	svc	3
   26cee:	e005      	b.n	26cfc <_ZN20complex_dynamic_type3app17hf752f6ad00fa65b6E+0x118>
   26cf0:	462e      	mov	r6, r5
   26cf2:	4808      	ldr	r0, [pc, #32]	@ (26d14 <_ZN20complex_dynamic_type3app17hf752f6ad00fa65b6E+0x130>)
   26cf4:	2102      	movs	r1, #2
   26cf6:	2200      	movs	r2, #0
   26cf8:	4613      	mov	r3, r2
   26cfa:	df04      	svc	4
   26cfc:	4625      	mov	r5, r4
   26cfe:	a803      	add	r0, sp, #12
   26d00:	7804      	ldrb	r4, [r0, #0]
   26d02:	1c68      	adds	r0, r5, #1
   26d04:	2234      	movs	r2, #52	@ 0x34
   26d06:	4631      	mov	r1, r6
   26d08:	f003 fc38 	bl	2a57c <__aeabi_memcpy>
   26d0c:	9801      	ldr	r0, [sp, #4]
   26d0e:	7028      	strb	r0, [r5, #0]
   26d10:	e7b9      	b.n	26c86 <_ZN20complex_dynamic_type3app17hf752f6ad00fa65b6E+0xa2>
   26d12:	46c0      	nop			@ (mov r8, r8)
   26d14:	000023c6 	.word	0x000023c6

00026d18 <_ZN20complex_dynamic_type3app17hfb6e1797ab68b976E>:
   26d18:	b5f0      	push	{r4, r5, r6, r7, lr}
   26d1a:	af03      	add	r7, sp, #12
   26d1c:	b0a7      	sub	sp, #156	@ 0x9c
   26d1e:	9003      	str	r0, [sp, #12]
   26d20:	a804      	add	r0, sp, #16
   26d22:	2402      	movs	r4, #2
   26d24:	7004      	strb	r4, [r0, #0]
   26d26:	1c46      	adds	r6, r0, #1
   26d28:	224f      	movs	r2, #79	@ 0x4f
   26d2a:	9202      	str	r2, [sp, #8]
   26d2c:	4630      	mov	r0, r6
   26d2e:	f003 fc25 	bl	2a57c <__aeabi_memcpy>
   26d32:	ad18      	add	r5, sp, #96	@ 0x60
   26d34:	1c68      	adds	r0, r5, #1
   26d36:	213b      	movs	r1, #59	@ 0x3b
   26d38:	9001      	str	r0, [sp, #4]
   26d3a:	f003 fa5f 	bl	2a1fc <__aeabi_memclr>
   26d3e:	9400      	str	r4, [sp, #0]
   26d40:	702c      	strb	r4, [r5, #0]
   26d42:	483f      	ldr	r0, [pc, #252]	@ (26e40 <_ZN20complex_dynamic_type3app17hfb6e1797ab68b976E+0x128>)
   26d44:	2108      	movs	r1, #8
   26d46:	4632      	mov	r2, r6
   26d48:	9b02      	ldr	r3, [sp, #8]
   26d4a:	df04      	svc	4
   26d4c:	2802      	cmp	r0, #2
   26d4e:	d104      	bne.n	26d5a <_ZN20complex_dynamic_type3app17hfb6e1797ab68b976E+0x42>
   26d50:	2001      	movs	r0, #1
   26d52:	9a03      	ldr	r2, [sp, #12]
   26d54:	7010      	strb	r0, [r2, #0]
   26d56:	6051      	str	r1, [r2, #4]
   26d58:	e02d      	b.n	26db6 <_ZN20complex_dynamic_type3app17hfb6e1797ab68b976E+0x9e>
   26d5a:	9d03      	ldr	r5, [sp, #12]
   26d5c:	a804      	add	r0, sp, #16
   26d5e:	2104      	movs	r1, #4
   26d60:	7001      	strb	r1, [r0, #0]
   26d62:	4837      	ldr	r0, [pc, #220]	@ (26e40 <_ZN20complex_dynamic_type3app17hfb6e1797ab68b976E+0x128>)
   26d64:	2105      	movs	r1, #5
   26d66:	233b      	movs	r3, #59	@ 0x3b
   26d68:	9c01      	ldr	r4, [sp, #4]
   26d6a:	4622      	mov	r2, r4
   26d6c:	df03      	svc	3
   26d6e:	2802      	cmp	r0, #2
   26d70:	d10e      	bne.n	26d90 <_ZN20complex_dynamic_type3app17hfb6e1797ab68b976E+0x78>
   26d72:	2001      	movs	r0, #1
   26d74:	7028      	strb	r0, [r5, #0]
   26d76:	6069      	str	r1, [r5, #4]
   26d78:	a818      	add	r0, sp, #96	@ 0x60
   26d7a:	7800      	ldrb	r0, [r0, #0]
   26d7c:	2802      	cmp	r0, #2
   26d7e:	d01a      	beq.n	26db6 <_ZN20complex_dynamic_type3app17hfb6e1797ab68b976E+0x9e>
   26d80:	2803      	cmp	r0, #3
   26d82:	d013      	beq.n	26dac <_ZN20complex_dynamic_type3app17hfb6e1797ab68b976E+0x94>
   26d84:	482e      	ldr	r0, [pc, #184]	@ (26e40 <_ZN20complex_dynamic_type3app17hfb6e1797ab68b976E+0x128>)
   26d86:	2105      	movs	r1, #5
   26d88:	2200      	movs	r2, #0
   26d8a:	4613      	mov	r3, r2
   26d8c:	df04      	svc	4
   26d8e:	e012      	b.n	26db6 <_ZN20complex_dynamic_type3app17hfb6e1797ab68b976E+0x9e>
   26d90:	a818      	add	r0, sp, #96	@ 0x60
   26d92:	2103      	movs	r1, #3
   26d94:	7001      	strb	r1, [r0, #0]
   26d96:	482a      	ldr	r0, [pc, #168]	@ (26e40 <_ZN20complex_dynamic_type3app17hfb6e1797ab68b976E+0x128>)
   26d98:	2108      	movs	r1, #8
   26d9a:	2205      	movs	r2, #5
   26d9c:	2600      	movs	r6, #0
   26d9e:	4633      	mov	r3, r6
   26da0:	df02      	svc	2
   26da2:	287f      	cmp	r0, #127	@ 0x7f
   26da4:	d816      	bhi.n	26dd4 <_ZN20complex_dynamic_type3app17hfb6e1797ab68b976E+0xbc>
   26da6:	2001      	movs	r0, #1
   26da8:	7028      	strb	r0, [r5, #0]
   26daa:	6069      	str	r1, [r5, #4]
   26dac:	4824      	ldr	r0, [pc, #144]	@ (26e40 <_ZN20complex_dynamic_type3app17hfb6e1797ab68b976E+0x128>)
   26dae:	2105      	movs	r1, #5
   26db0:	2200      	movs	r2, #0
   26db2:	4613      	mov	r3, r2
   26db4:	df03      	svc	3
   26db6:	a804      	add	r0, sp, #16
   26db8:	7804      	ldrb	r4, [r0, #0]
   26dba:	2c02      	cmp	r4, #2
   26dbc:	d008      	beq.n	26dd0 <_ZN20complex_dynamic_type3app17hfb6e1797ab68b976E+0xb8>
   26dbe:	4820      	ldr	r0, [pc, #128]	@ (26e40 <_ZN20complex_dynamic_type3app17hfb6e1797ab68b976E+0x128>)
   26dc0:	2108      	movs	r1, #8
   26dc2:	2200      	movs	r2, #0
   26dc4:	4613      	mov	r3, r2
   26dc6:	2c03      	cmp	r4, #3
   26dc8:	d101      	bne.n	26dce <_ZN20complex_dynamic_type3app17hfb6e1797ab68b976E+0xb6>
   26dca:	df03      	svc	3
   26dcc:	e000      	b.n	26dd0 <_ZN20complex_dynamic_type3app17hfb6e1797ab68b976E+0xb8>
   26dce:	df04      	svc	4
   26dd0:	b027      	add	sp, #156	@ 0x9c
   26dd2:	bdf0      	pop	{r4, r5, r6, r7, pc}
   26dd4:	a804      	add	r0, sp, #16
   26dd6:	7800      	ldrb	r0, [r0, #0]
   26dd8:	2802      	cmp	r0, #2
   26dda:	d01c      	beq.n	26e16 <_ZN20complex_dynamic_type3app17hfb6e1797ab68b976E+0xfe>
   26ddc:	2803      	cmp	r0, #3
   26dde:	d105      	bne.n	26dec <_ZN20complex_dynamic_type3app17hfb6e1797ab68b976E+0xd4>
   26de0:	4817      	ldr	r0, [pc, #92]	@ (26e40 <_ZN20complex_dynamic_type3app17hfb6e1797ab68b976E+0x128>)
   26de2:	2108      	movs	r1, #8
   26de4:	2200      	movs	r2, #0
   26de6:	4613      	mov	r3, r2
   26de8:	df03      	svc	3
   26dea:	e004      	b.n	26df6 <_ZN20complex_dynamic_type3app17hfb6e1797ab68b976E+0xde>
   26dec:	4814      	ldr	r0, [pc, #80]	@ (26e40 <_ZN20complex_dynamic_type3app17hfb6e1797ab68b976E+0x128>)
   26dee:	2108      	movs	r1, #8
   26df0:	2200      	movs	r2, #0
   26df2:	4613      	mov	r3, r2
   26df4:	df04      	svc	4
   26df6:	a804      	add	r0, sp, #16
   26df8:	9900      	ldr	r1, [sp, #0]
   26dfa:	7001      	strb	r1, [r0, #0]
   26dfc:	a818      	add	r0, sp, #96	@ 0x60
   26dfe:	7800      	ldrb	r0, [r0, #0]
   26e00:	2803      	cmp	r0, #3
   26e02:	d008      	beq.n	26e16 <_ZN20complex_dynamic_type3app17hfb6e1797ab68b976E+0xfe>
   26e04:	2802      	cmp	r0, #2
   26e06:	d10c      	bne.n	26e22 <_ZN20complex_dynamic_type3app17hfb6e1797ab68b976E+0x10a>
   26e08:	1c68      	adds	r0, r5, #1
   26e0a:	223b      	movs	r2, #59	@ 0x3b
   26e0c:	4621      	mov	r1, r4
   26e0e:	f003 fbb5 	bl	2a57c <__aeabi_memcpy>
   26e12:	702e      	strb	r6, [r5, #0]
   26e14:	e7dc      	b.n	26dd0 <_ZN20complex_dynamic_type3app17hfb6e1797ab68b976E+0xb8>
   26e16:	480a      	ldr	r0, [pc, #40]	@ (26e40 <_ZN20complex_dynamic_type3app17hfb6e1797ab68b976E+0x128>)
   26e18:	2105      	movs	r1, #5
   26e1a:	2200      	movs	r2, #0
   26e1c:	4613      	mov	r3, r2
   26e1e:	df03      	svc	3
   26e20:	e004      	b.n	26e2c <_ZN20complex_dynamic_type3app17hfb6e1797ab68b976E+0x114>
   26e22:	4807      	ldr	r0, [pc, #28]	@ (26e40 <_ZN20complex_dynamic_type3app17hfb6e1797ab68b976E+0x128>)
   26e24:	2105      	movs	r1, #5
   26e26:	2200      	movs	r2, #0
   26e28:	4613      	mov	r3, r2
   26e2a:	df04      	svc	4
   26e2c:	a804      	add	r0, sp, #16
   26e2e:	7804      	ldrb	r4, [r0, #0]
   26e30:	1c68      	adds	r0, r5, #1
   26e32:	223b      	movs	r2, #59	@ 0x3b
   26e34:	9901      	ldr	r1, [sp, #4]
   26e36:	f003 fba1 	bl	2a57c <__aeabi_memcpy>
   26e3a:	702e      	strb	r6, [r5, #0]
   26e3c:	e7bd      	b.n	26dba <_ZN20complex_dynamic_type3app17hfb6e1797ab68b976E+0xa2>
   26e3e:	46c0      	nop			@ (mov r8, r8)
   26e40:	00000a06 	.word	0x00000a06

00026e44 <_ZN20complex_dynamic_type3app17hfc63c9cd53465324E>:
   26e44:	b5f0      	push	{r4, r5, r6, r7, lr}
   26e46:	af03      	add	r7, sp, #12
   26e48:	b09d      	sub	sp, #116	@ 0x74
   26e4a:	9003      	str	r0, [sp, #12]
   26e4c:	a804      	add	r0, sp, #16
   26e4e:	2402      	movs	r4, #2
   26e50:	7004      	strb	r4, [r0, #0]
   26e52:	1c46      	adds	r6, r0, #1
   26e54:	2251      	movs	r2, #81	@ 0x51
   26e56:	9202      	str	r2, [sp, #8]
   26e58:	4630      	mov	r0, r6
   26e5a:	f003 fb8f 	bl	2a57c <__aeabi_memcpy>
   26e5e:	ad19      	add	r5, sp, #100	@ 0x64
   26e60:	1c68      	adds	r0, r5, #1
   26e62:	210f      	movs	r1, #15
   26e64:	9001      	str	r0, [sp, #4]
   26e66:	f003 f9c9 	bl	2a1fc <__aeabi_memclr>
   26e6a:	9400      	str	r4, [sp, #0]
   26e6c:	702c      	strb	r4, [r5, #0]
   26e6e:	483e      	ldr	r0, [pc, #248]	@ (26f68 <_ZN20complex_dynamic_type3app17hfc63c9cd53465324E+0x124>)
   26e70:	2100      	movs	r1, #0
   26e72:	4632      	mov	r2, r6
   26e74:	9b02      	ldr	r3, [sp, #8]
   26e76:	df04      	svc	4
   26e78:	2802      	cmp	r0, #2
   26e7a:	d104      	bne.n	26e86 <_ZN20complex_dynamic_type3app17hfc63c9cd53465324E+0x42>
   26e7c:	2001      	movs	r0, #1
   26e7e:	9a03      	ldr	r2, [sp, #12]
   26e80:	7010      	strb	r0, [r2, #0]
   26e82:	6051      	str	r1, [r2, #4]
   26e84:	e02c      	b.n	26ee0 <_ZN20complex_dynamic_type3app17hfc63c9cd53465324E+0x9c>
   26e86:	9d03      	ldr	r5, [sp, #12]
   26e88:	a804      	add	r0, sp, #16
   26e8a:	2104      	movs	r1, #4
   26e8c:	7001      	strb	r1, [r0, #0]
   26e8e:	4836      	ldr	r0, [pc, #216]	@ (26f68 <_ZN20complex_dynamic_type3app17hfc63c9cd53465324E+0x124>)
   26e90:	2403      	movs	r4, #3
   26e92:	230f      	movs	r3, #15
   26e94:	4621      	mov	r1, r4
   26e96:	9a01      	ldr	r2, [sp, #4]
   26e98:	df03      	svc	3
   26e9a:	2802      	cmp	r0, #2
   26e9c:	d10e      	bne.n	26ebc <_ZN20complex_dynamic_type3app17hfc63c9cd53465324E+0x78>
   26e9e:	2001      	movs	r0, #1
   26ea0:	7028      	strb	r0, [r5, #0]
   26ea2:	6069      	str	r1, [r5, #4]
   26ea4:	a819      	add	r0, sp, #100	@ 0x64
   26ea6:	7800      	ldrb	r0, [r0, #0]
   26ea8:	2802      	cmp	r0, #2
   26eaa:	d019      	beq.n	26ee0 <_ZN20complex_dynamic_type3app17hfc63c9cd53465324E+0x9c>
   26eac:	2803      	cmp	r0, #3
   26eae:	d012      	beq.n	26ed6 <_ZN20complex_dynamic_type3app17hfc63c9cd53465324E+0x92>
   26eb0:	482d      	ldr	r0, [pc, #180]	@ (26f68 <_ZN20complex_dynamic_type3app17hfc63c9cd53465324E+0x124>)
   26eb2:	2103      	movs	r1, #3
   26eb4:	2200      	movs	r2, #0
   26eb6:	4613      	mov	r3, r2
   26eb8:	df04      	svc	4
   26eba:	e011      	b.n	26ee0 <_ZN20complex_dynamic_type3app17hfc63c9cd53465324E+0x9c>
   26ebc:	a819      	add	r0, sp, #100	@ 0x64
   26ebe:	7004      	strb	r4, [r0, #0]
   26ec0:	4829      	ldr	r0, [pc, #164]	@ (26f68 <_ZN20complex_dynamic_type3app17hfc63c9cd53465324E+0x124>)
   26ec2:	2600      	movs	r6, #0
   26ec4:	4631      	mov	r1, r6
   26ec6:	4622      	mov	r2, r4
   26ec8:	4633      	mov	r3, r6
   26eca:	df02      	svc	2
   26ecc:	287f      	cmp	r0, #127	@ 0x7f
   26ece:	d816      	bhi.n	26efe <_ZN20complex_dynamic_type3app17hfc63c9cd53465324E+0xba>
   26ed0:	2001      	movs	r0, #1
   26ed2:	7028      	strb	r0, [r5, #0]
   26ed4:	6069      	str	r1, [r5, #4]
   26ed6:	4824      	ldr	r0, [pc, #144]	@ (26f68 <_ZN20complex_dynamic_type3app17hfc63c9cd53465324E+0x124>)
   26ed8:	2103      	movs	r1, #3
   26eda:	2200      	movs	r2, #0
   26edc:	4613      	mov	r3, r2
   26ede:	df03      	svc	3
   26ee0:	a804      	add	r0, sp, #16
   26ee2:	7804      	ldrb	r4, [r0, #0]
   26ee4:	2c02      	cmp	r4, #2
   26ee6:	d008      	beq.n	26efa <_ZN20complex_dynamic_type3app17hfc63c9cd53465324E+0xb6>
   26ee8:	481f      	ldr	r0, [pc, #124]	@ (26f68 <_ZN20complex_dynamic_type3app17hfc63c9cd53465324E+0x124>)
   26eea:	2100      	movs	r1, #0
   26eec:	460a      	mov	r2, r1
   26eee:	460b      	mov	r3, r1
   26ef0:	2c03      	cmp	r4, #3
   26ef2:	d101      	bne.n	26ef8 <_ZN20complex_dynamic_type3app17hfc63c9cd53465324E+0xb4>
   26ef4:	df03      	svc	3
   26ef6:	e000      	b.n	26efa <_ZN20complex_dynamic_type3app17hfc63c9cd53465324E+0xb6>
   26ef8:	df04      	svc	4
   26efa:	b01d      	add	sp, #116	@ 0x74
   26efc:	bdf0      	pop	{r4, r5, r6, r7, pc}
   26efe:	a804      	add	r0, sp, #16
   26f00:	7800      	ldrb	r0, [r0, #0]
   26f02:	2802      	cmp	r0, #2
   26f04:	d01c      	beq.n	26f40 <_ZN20complex_dynamic_type3app17hfc63c9cd53465324E+0xfc>
   26f06:	2803      	cmp	r0, #3
   26f08:	d105      	bne.n	26f16 <_ZN20complex_dynamic_type3app17hfc63c9cd53465324E+0xd2>
   26f0a:	4817      	ldr	r0, [pc, #92]	@ (26f68 <_ZN20complex_dynamic_type3app17hfc63c9cd53465324E+0x124>)
   26f0c:	2100      	movs	r1, #0
   26f0e:	460a      	mov	r2, r1
   26f10:	460b      	mov	r3, r1
   26f12:	df03      	svc	3
   26f14:	e004      	b.n	26f20 <_ZN20complex_dynamic_type3app17hfc63c9cd53465324E+0xdc>
   26f16:	4814      	ldr	r0, [pc, #80]	@ (26f68 <_ZN20complex_dynamic_type3app17hfc63c9cd53465324E+0x124>)
   26f18:	2100      	movs	r1, #0
   26f1a:	460a      	mov	r2, r1
   26f1c:	460b      	mov	r3, r1
   26f1e:	df04      	svc	4
   26f20:	9900      	ldr	r1, [sp, #0]
   26f22:	a804      	add	r0, sp, #16
   26f24:	7001      	strb	r1, [r0, #0]
   26f26:	a819      	add	r0, sp, #100	@ 0x64
   26f28:	7800      	ldrb	r0, [r0, #0]
   26f2a:	2803      	cmp	r0, #3
   26f2c:	d008      	beq.n	26f40 <_ZN20complex_dynamic_type3app17hfc63c9cd53465324E+0xfc>
   26f2e:	2802      	cmp	r0, #2
   26f30:	d10c      	bne.n	26f4c <_ZN20complex_dynamic_type3app17hfc63c9cd53465324E+0x108>
   26f32:	1c68      	adds	r0, r5, #1
   26f34:	220f      	movs	r2, #15
   26f36:	9901      	ldr	r1, [sp, #4]
   26f38:	f003 fb20 	bl	2a57c <__aeabi_memcpy>
   26f3c:	702e      	strb	r6, [r5, #0]
   26f3e:	e7dc      	b.n	26efa <_ZN20complex_dynamic_type3app17hfc63c9cd53465324E+0xb6>
   26f40:	4809      	ldr	r0, [pc, #36]	@ (26f68 <_ZN20complex_dynamic_type3app17hfc63c9cd53465324E+0x124>)
   26f42:	2103      	movs	r1, #3
   26f44:	2200      	movs	r2, #0
   26f46:	4613      	mov	r3, r2
   26f48:	df03      	svc	3
   26f4a:	e004      	b.n	26f56 <_ZN20complex_dynamic_type3app17hfc63c9cd53465324E+0x112>
   26f4c:	4806      	ldr	r0, [pc, #24]	@ (26f68 <_ZN20complex_dynamic_type3app17hfc63c9cd53465324E+0x124>)
   26f4e:	2103      	movs	r1, #3
   26f50:	2200      	movs	r2, #0
   26f52:	4613      	mov	r3, r2
   26f54:	df04      	svc	4
   26f56:	a804      	add	r0, sp, #16
   26f58:	7804      	ldrb	r4, [r0, #0]
   26f5a:	1c68      	adds	r0, r5, #1
   26f5c:	220f      	movs	r2, #15
   26f5e:	9901      	ldr	r1, [sp, #4]
   26f60:	f003 fb0c 	bl	2a57c <__aeabi_memcpy>
   26f64:	702e      	strb	r6, [r5, #0]
   26f66:	e7bd      	b.n	26ee4 <_ZN20complex_dynamic_type3app17hfc63c9cd53465324E+0xa0>
   26f68:	000013bf 	.word	0x000013bf

00026f6c <_ZN20complex_dynamic_type3app17hfd3d03acbca146cfE>:
   26f6c:	b5f0      	push	{r4, r5, r6, r7, lr}
   26f6e:	af03      	add	r7, sp, #12
   26f70:	b08d      	sub	sp, #52	@ 0x34
   26f72:	9003      	str	r0, [sp, #12]
   26f74:	a804      	add	r0, sp, #16
   26f76:	2402      	movs	r4, #2
   26f78:	7004      	strb	r4, [r0, #0]
   26f7a:	1c40      	adds	r0, r0, #1
   26f7c:	9002      	str	r0, [sp, #8]
   26f7e:	250f      	movs	r5, #15
   26f80:	462a      	mov	r2, r5
   26f82:	f003 fafb 	bl	2a57c <__aeabi_memcpy>
   26f86:	ae08      	add	r6, sp, #32
   26f88:	1c70      	adds	r0, r6, #1
   26f8a:	2113      	movs	r1, #19
   26f8c:	9001      	str	r0, [sp, #4]
   26f8e:	f003 f935 	bl	2a1fc <__aeabi_memclr>
   26f92:	9400      	str	r4, [sp, #0]
   26f94:	7034      	strb	r4, [r6, #0]
   26f96:	4841      	ldr	r0, [pc, #260]	@ (2709c <_ZN20complex_dynamic_type3app17hfd3d03acbca146cfE+0x130>)
   26f98:	2603      	movs	r6, #3
   26f9a:	4631      	mov	r1, r6
   26f9c:	9a02      	ldr	r2, [sp, #8]
   26f9e:	462b      	mov	r3, r5
   26fa0:	df04      	svc	4
   26fa2:	2802      	cmp	r0, #2
   26fa4:	d104      	bne.n	26fb0 <_ZN20complex_dynamic_type3app17hfd3d03acbca146cfE+0x44>
   26fa6:	2001      	movs	r0, #1
   26fa8:	9a03      	ldr	r2, [sp, #12]
   26faa:	7010      	strb	r0, [r2, #0]
   26fac:	6051      	str	r1, [r2, #4]
   26fae:	e02c      	b.n	2700a <_ZN20complex_dynamic_type3app17hfd3d03acbca146cfE+0x9e>
   26fb0:	9d03      	ldr	r5, [sp, #12]
   26fb2:	a804      	add	r0, sp, #16
   26fb4:	2104      	movs	r1, #4
   26fb6:	7001      	strb	r1, [r0, #0]
   26fb8:	4838      	ldr	r0, [pc, #224]	@ (2709c <_ZN20complex_dynamic_type3app17hfd3d03acbca146cfE+0x130>)
   26fba:	2100      	movs	r1, #0
   26fbc:	2313      	movs	r3, #19
   26fbe:	9c01      	ldr	r4, [sp, #4]
   26fc0:	4622      	mov	r2, r4
   26fc2:	df03      	svc	3
   26fc4:	2802      	cmp	r0, #2
   26fc6:	d10e      	bne.n	26fe6 <_ZN20complex_dynamic_type3app17hfd3d03acbca146cfE+0x7a>
   26fc8:	2001      	movs	r0, #1
   26fca:	7028      	strb	r0, [r5, #0]
   26fcc:	6069      	str	r1, [r5, #4]
   26fce:	a808      	add	r0, sp, #32
   26fd0:	7800      	ldrb	r0, [r0, #0]
   26fd2:	2802      	cmp	r0, #2
   26fd4:	d019      	beq.n	2700a <_ZN20complex_dynamic_type3app17hfd3d03acbca146cfE+0x9e>
   26fd6:	2803      	cmp	r0, #3
   26fd8:	d012      	beq.n	27000 <_ZN20complex_dynamic_type3app17hfd3d03acbca146cfE+0x94>
   26fda:	4830      	ldr	r0, [pc, #192]	@ (2709c <_ZN20complex_dynamic_type3app17hfd3d03acbca146cfE+0x130>)
   26fdc:	2100      	movs	r1, #0
   26fde:	460a      	mov	r2, r1
   26fe0:	460b      	mov	r3, r1
   26fe2:	df04      	svc	4
   26fe4:	e011      	b.n	2700a <_ZN20complex_dynamic_type3app17hfd3d03acbca146cfE+0x9e>
   26fe6:	a808      	add	r0, sp, #32
   26fe8:	7006      	strb	r6, [r0, #0]
   26fea:	482c      	ldr	r0, [pc, #176]	@ (2709c <_ZN20complex_dynamic_type3app17hfd3d03acbca146cfE+0x130>)
   26fec:	2200      	movs	r2, #0
   26fee:	4631      	mov	r1, r6
   26ff0:	9202      	str	r2, [sp, #8]
   26ff2:	4613      	mov	r3, r2
   26ff4:	df02      	svc	2
   26ff6:	287f      	cmp	r0, #127	@ 0x7f
   26ff8:	d816      	bhi.n	27028 <_ZN20complex_dynamic_type3app17hfd3d03acbca146cfE+0xbc>
   26ffa:	2001      	movs	r0, #1
   26ffc:	7028      	strb	r0, [r5, #0]
   26ffe:	6069      	str	r1, [r5, #4]
   27000:	4826      	ldr	r0, [pc, #152]	@ (2709c <_ZN20complex_dynamic_type3app17hfd3d03acbca146cfE+0x130>)
   27002:	2100      	movs	r1, #0
   27004:	460a      	mov	r2, r1
   27006:	460b      	mov	r3, r1
   27008:	df03      	svc	3
   2700a:	a804      	add	r0, sp, #16
   2700c:	7804      	ldrb	r4, [r0, #0]
   2700e:	2c02      	cmp	r4, #2
   27010:	d008      	beq.n	27024 <_ZN20complex_dynamic_type3app17hfd3d03acbca146cfE+0xb8>
   27012:	4822      	ldr	r0, [pc, #136]	@ (2709c <_ZN20complex_dynamic_type3app17hfd3d03acbca146cfE+0x130>)
   27014:	2103      	movs	r1, #3
   27016:	2200      	movs	r2, #0
   27018:	4613      	mov	r3, r2
   2701a:	2c03      	cmp	r4, #3
   2701c:	d101      	bne.n	27022 <_ZN20complex_dynamic_type3app17hfd3d03acbca146cfE+0xb6>
   2701e:	df03      	svc	3
   27020:	e000      	b.n	27024 <_ZN20complex_dynamic_type3app17hfd3d03acbca146cfE+0xb8>
   27022:	df04      	svc	4
   27024:	b00d      	add	sp, #52	@ 0x34
   27026:	bdf0      	pop	{r4, r5, r6, r7, pc}
   27028:	a804      	add	r0, sp, #16
   2702a:	7800      	ldrb	r0, [r0, #0]
   2702c:	2802      	cmp	r0, #2
   2702e:	d01d      	beq.n	2706c <_ZN20complex_dynamic_type3app17hfd3d03acbca146cfE+0x100>
   27030:	2803      	cmp	r0, #3
   27032:	d105      	bne.n	27040 <_ZN20complex_dynamic_type3app17hfd3d03acbca146cfE+0xd4>
   27034:	4819      	ldr	r0, [pc, #100]	@ (2709c <_ZN20complex_dynamic_type3app17hfd3d03acbca146cfE+0x130>)
   27036:	2103      	movs	r1, #3
   27038:	2200      	movs	r2, #0
   2703a:	4613      	mov	r3, r2
   2703c:	df03      	svc	3
   2703e:	e004      	b.n	2704a <_ZN20complex_dynamic_type3app17hfd3d03acbca146cfE+0xde>
   27040:	4816      	ldr	r0, [pc, #88]	@ (2709c <_ZN20complex_dynamic_type3app17hfd3d03acbca146cfE+0x130>)
   27042:	2103      	movs	r1, #3
   27044:	2200      	movs	r2, #0
   27046:	4613      	mov	r3, r2
   27048:	df04      	svc	4
   2704a:	9900      	ldr	r1, [sp, #0]
   2704c:	a804      	add	r0, sp, #16
   2704e:	7001      	strb	r1, [r0, #0]
   27050:	a808      	add	r0, sp, #32
   27052:	7800      	ldrb	r0, [r0, #0]
   27054:	2803      	cmp	r0, #3
   27056:	d009      	beq.n	2706c <_ZN20complex_dynamic_type3app17hfd3d03acbca146cfE+0x100>
   27058:	2802      	cmp	r0, #2
   2705a:	d10e      	bne.n	2707a <_ZN20complex_dynamic_type3app17hfd3d03acbca146cfE+0x10e>
   2705c:	1c68      	adds	r0, r5, #1
   2705e:	2213      	movs	r2, #19
   27060:	4621      	mov	r1, r4
   27062:	f003 fa8b 	bl	2a57c <__aeabi_memcpy>
   27066:	9802      	ldr	r0, [sp, #8]
   27068:	7028      	strb	r0, [r5, #0]
   2706a:	e7db      	b.n	27024 <_ZN20complex_dynamic_type3app17hfd3d03acbca146cfE+0xb8>
   2706c:	4626      	mov	r6, r4
   2706e:	480b      	ldr	r0, [pc, #44]	@ (2709c <_ZN20complex_dynamic_type3app17hfd3d03acbca146cfE+0x130>)
   27070:	2100      	movs	r1, #0
   27072:	460a      	mov	r2, r1
   27074:	460b      	mov	r3, r1
   27076:	df03      	svc	3
   27078:	e005      	b.n	27086 <_ZN20complex_dynamic_type3app17hfd3d03acbca146cfE+0x11a>
   2707a:	4626      	mov	r6, r4
   2707c:	4807      	ldr	r0, [pc, #28]	@ (2709c <_ZN20complex_dynamic_type3app17hfd3d03acbca146cfE+0x130>)
   2707e:	2100      	movs	r1, #0
   27080:	460a      	mov	r2, r1
   27082:	460b      	mov	r3, r1
   27084:	df04      	svc	4
   27086:	a804      	add	r0, sp, #16
   27088:	7804      	ldrb	r4, [r0, #0]
   2708a:	1c68      	adds	r0, r5, #1
   2708c:	2213      	movs	r2, #19
   2708e:	4631      	mov	r1, r6
   27090:	f003 fa74 	bl	2a57c <__aeabi_memcpy>
   27094:	9802      	ldr	r0, [sp, #8]
   27096:	7028      	strb	r0, [r5, #0]
   27098:	e7b9      	b.n	2700e <_ZN20complex_dynamic_type3app17hfd3d03acbca146cfE+0xa2>
   2709a:	46c0      	nop			@ (mov r8, r8)
   2709c:	00001e4b 	.word	0x00001e4b

000270a0 <_start>:
   270a0:	b5f0      	push	{r4, r5, r6, r7, lr}
   270a2:	af03      	add	r7, sp, #12
   270a4:	4eca      	ldr	r6, [pc, #808]	@ (273d0 <_start+0x330>)
   270a6:	44b5      	add	sp, r6
   270a8:	48ca      	ldr	r0, [pc, #808]	@ (273d4 <_start+0x334>)
   270aa:	4468      	add	r0, sp
   270ac:	9009      	str	r0, [sp, #36]	@ 0x24
   270ae:	48ca      	ldr	r0, [pc, #808]	@ (273d8 <_start+0x338>)
   270b0:	4468      	add	r0, sp
   270b2:	9007      	str	r0, [sp, #28]
   270b4:	ac1f      	add	r4, sp, #124	@ 0x7c
   270b6:	1c60      	adds	r0, r4, #1
   270b8:	2128      	movs	r1, #40	@ 0x28
   270ba:	910b      	str	r1, [sp, #44]	@ 0x2c
   270bc:	f003 f89e 	bl	2a1fc <__aeabi_memclr>
   270c0:	2502      	movs	r5, #2
   270c2:	7025      	strb	r5, [r4, #0]
   270c4:	4ec5      	ldr	r6, [pc, #788]	@ (273dc <_start+0x33c>)
   270c6:	446e      	add	r6, sp
   270c8:	1c70      	adds	r0, r6, #1
   270ca:	2151      	movs	r1, #81	@ 0x51
   270cc:	9008      	str	r0, [sp, #32]
   270ce:	f003 f895 	bl	2a1fc <__aeabi_memclr>
   270d2:	950a      	str	r5, [sp, #40]	@ 0x28
   270d4:	7035      	strb	r5, [r6, #0]
   270d6:	2204      	movs	r2, #4
   270d8:	4620      	mov	r0, r4
   270da:	990b      	ldr	r1, [sp, #44]	@ 0x2c
   270dc:	920b      	str	r2, [sp, #44]	@ 0x2c
   270de:	f7f9 f8d3 	bl	20288 <_ZN9allow_pin12dynamic_type23Buffer$LT$B$C$_$C$_$GT$5allow17hb69eb7ecb6f626d4E>
   270e2:	460d      	mov	r5, r1
   270e4:	07c0      	lsls	r0, r0, #31
   270e6:	a94b      	add	r1, sp, #300	@ 0x12c
   270e8:	4cbd      	ldr	r4, [pc, #756]	@ (273e0 <_start+0x340>)
   270ea:	446c      	add	r4, sp
   270ec:	4ebd      	ldr	r6, [pc, #756]	@ (273e4 <_start+0x344>)
   270ee:	446e      	add	r6, sp
   270f0:	2800      	cmp	r0, #0
   270f2:	d110      	bne.n	27116 <_start+0x76>
   270f4:	9106      	str	r1, [sp, #24]
   270f6:	48b9      	ldr	r0, [pc, #740]	@ (273dc <_start+0x33c>)
   270f8:	4468      	add	r0, sp
   270fa:	2151      	movs	r1, #81	@ 0x51
   270fc:	2203      	movs	r2, #3
   270fe:	f7f9 f8c3 	bl	20288 <_ZN9allow_pin12dynamic_type23Buffer$LT$B$C$_$C$_$GT$5allow17hb69eb7ecb6f626d4E>
   27102:	07c0      	lsls	r0, r0, #31
   27104:	d106      	bne.n	27114 <_start+0x74>
   27106:	48b8      	ldr	r0, [pc, #736]	@ (273e8 <_start+0x348>)
   27108:	2109      	movs	r1, #9
   2710a:	2300      	movs	r3, #0
   2710c:	460a      	mov	r2, r1
   2710e:	df02      	svc	2
   27110:	287f      	cmp	r0, #127	@ 0x7f
   27112:	d82a      	bhi.n	2716a <_start+0xca>
   27114:	460d      	mov	r5, r1
   27116:	48b1      	ldr	r0, [pc, #708]	@ (273dc <_start+0x33c>)
   27118:	4468      	add	r0, sp
   2711a:	7800      	ldrb	r0, [r0, #0]
   2711c:	2802      	cmp	r0, #2
   2711e:	d00c      	beq.n	2713a <_start+0x9a>
   27120:	2803      	cmp	r0, #3
   27122:	d105      	bne.n	27130 <_start+0x90>
   27124:	48b0      	ldr	r0, [pc, #704]	@ (273e8 <_start+0x348>)
   27126:	2109      	movs	r1, #9
   27128:	2200      	movs	r2, #0
   2712a:	4613      	mov	r3, r2
   2712c:	df03      	svc	3
   2712e:	e004      	b.n	2713a <_start+0x9a>
   27130:	48ad      	ldr	r0, [pc, #692]	@ (273e8 <_start+0x348>)
   27132:	2109      	movs	r1, #9
   27134:	2200      	movs	r2, #0
   27136:	4613      	mov	r3, r2
   27138:	df04      	svc	4
   2713a:	a81f      	add	r0, sp, #124	@ 0x7c
   2713c:	7800      	ldrb	r0, [r0, #0]
   2713e:	2802      	cmp	r0, #2
   27140:	d00c      	beq.n	2715c <_start+0xbc>
   27142:	2803      	cmp	r0, #3
   27144:	d105      	bne.n	27152 <_start+0xb2>
   27146:	48a8      	ldr	r0, [pc, #672]	@ (273e8 <_start+0x348>)
   27148:	2109      	movs	r1, #9
   2714a:	2200      	movs	r2, #0
   2714c:	4613      	mov	r3, r2
   2714e:	df03      	svc	3
   27150:	e004      	b.n	2715c <_start+0xbc>
   27152:	48a5      	ldr	r0, [pc, #660]	@ (273e8 <_start+0x348>)
   27154:	2109      	movs	r1, #9
   27156:	2200      	movs	r2, #0
   27158:	4613      	mov	r3, r2
   2715a:	df04      	svc	4
   2715c:	2401      	movs	r4, #1
   2715e:	4620      	mov	r0, r4
   27160:	4629      	mov	r1, r5
   27162:	1ffe      	subs	r6, r7, #7
   27164:	3e05      	subs	r6, #5
   27166:	46b5      	mov	sp, r6
   27168:	bdf0      	pop	{r4, r5, r6, r7, pc}
   2716a:	a81f      	add	r0, sp, #124	@ 0x7c
   2716c:	7800      	ldrb	r0, [r0, #0]
   2716e:	2802      	cmp	r0, #2
   27170:	d00c      	beq.n	2718c <_start+0xec>
   27172:	2803      	cmp	r0, #3
   27174:	d105      	bne.n	27182 <_start+0xe2>
   27176:	489c      	ldr	r0, [pc, #624]	@ (273e8 <_start+0x348>)
   27178:	2109      	movs	r1, #9
   2717a:	2200      	movs	r2, #0
   2717c:	4613      	mov	r3, r2
   2717e:	df03      	svc	3
   27180:	e004      	b.n	2718c <_start+0xec>
   27182:	4899      	ldr	r0, [pc, #612]	@ (273e8 <_start+0x348>)
   27184:	2109      	movs	r1, #9
   27186:	2200      	movs	r2, #0
   27188:	4613      	mov	r3, r2
   2718a:	df04      	svc	4
   2718c:	a81f      	add	r0, sp, #124	@ 0x7c
   2718e:	990a      	ldr	r1, [sp, #40]	@ 0x28
   27190:	7001      	strb	r1, [r0, #0]
   27192:	4892      	ldr	r0, [pc, #584]	@ (273dc <_start+0x33c>)
   27194:	4468      	add	r0, sp
   27196:	7800      	ldrb	r0, [r0, #0]
   27198:	2803      	cmp	r0, #3
   2719a:	9603      	str	r6, [sp, #12]
   2719c:	9402      	str	r4, [sp, #8]
   2719e:	d015      	beq.n	271cc <_start+0x12c>
   271a0:	2802      	cmp	r0, #2
   271a2:	d119      	bne.n	271d8 <_start+0x138>
   271a4:	9a08      	ldr	r2, [sp, #32]
   271a6:	7890      	ldrb	r0, [r2, #2]
   271a8:	a92f      	add	r1, sp, #188	@ 0xbc
   271aa:	7088      	strb	r0, [r1, #2]
   271ac:	7810      	ldrb	r0, [r2, #0]
   271ae:	7852      	ldrb	r2, [r2, #1]
   271b0:	0212      	lsls	r2, r2, #8
   271b2:	1810      	adds	r0, r2, r0
   271b4:	8008      	strh	r0, [r1, #0]
   271b6:	9809      	ldr	r0, [sp, #36]	@ 0x24
   271b8:	6e00      	ldr	r0, [r0, #96]	@ 0x60
   271ba:	9008      	str	r0, [sp, #32]
   271bc:	4987      	ldr	r1, [pc, #540]	@ (273dc <_start+0x33c>)
   271be:	4469      	add	r1, sp
   271c0:	3108      	adds	r1, #8
   271c2:	a80c      	add	r0, sp, #48	@ 0x30
   271c4:	224a      	movs	r2, #74	@ 0x4a
   271c6:	f003 f879 	bl	2a2bc <__aeabi_memcpy4>
   271ca:	e02a      	b.n	27222 <_start+0x182>
   271cc:	4886      	ldr	r0, [pc, #536]	@ (273e8 <_start+0x348>)
   271ce:	2109      	movs	r1, #9
   271d0:	2200      	movs	r2, #0
   271d2:	4613      	mov	r3, r2
   271d4:	df03      	svc	3
   271d6:	e004      	b.n	271e2 <_start+0x142>
   271d8:	4883      	ldr	r0, [pc, #524]	@ (273e8 <_start+0x348>)
   271da:	2109      	movs	r1, #9
   271dc:	2200      	movs	r2, #0
   271de:	4613      	mov	r3, r2
   271e0:	df04      	svc	4
   271e2:	9a08      	ldr	r2, [sp, #32]
   271e4:	7890      	ldrb	r0, [r2, #2]
   271e6:	a92f      	add	r1, sp, #188	@ 0xbc
   271e8:	7088      	strb	r0, [r1, #2]
   271ea:	7810      	ldrb	r0, [r2, #0]
   271ec:	7852      	ldrb	r2, [r2, #1]
   271ee:	0212      	lsls	r2, r2, #8
   271f0:	1810      	adds	r0, r2, r0
   271f2:	8008      	strh	r0, [r1, #0]
   271f4:	a81f      	add	r0, sp, #124	@ 0x7c
   271f6:	7804      	ldrb	r4, [r0, #0]
   271f8:	9809      	ldr	r0, [sp, #36]	@ 0x24
   271fa:	6e05      	ldr	r5, [r0, #96]	@ 0x60
   271fc:	4977      	ldr	r1, [pc, #476]	@ (273dc <_start+0x33c>)
   271fe:	4469      	add	r1, sp
   27200:	3108      	adds	r1, #8
   27202:	a80c      	add	r0, sp, #48	@ 0x30
   27204:	224a      	movs	r2, #74	@ 0x4a
   27206:	f003 f859 	bl	2a2bc <__aeabi_memcpy4>
   2720a:	2c02      	cmp	r4, #2
   2720c:	9508      	str	r5, [sp, #32]
   2720e:	d008      	beq.n	27222 <_start+0x182>
   27210:	4875      	ldr	r0, [pc, #468]	@ (273e8 <_start+0x348>)
   27212:	2109      	movs	r1, #9
   27214:	2200      	movs	r2, #0
   27216:	4613      	mov	r3, r2
   27218:	2c03      	cmp	r4, #3
   2721a:	d101      	bne.n	27220 <_start+0x180>
   2721c:	df03      	svc	3
   2721e:	e000      	b.n	27222 <_start+0x182>
   27220:	df04      	svc	4
   27222:	4d6e      	ldr	r5, [pc, #440]	@ (273dc <_start+0x33c>)
   27224:	446d      	add	r5, sp
   27226:	1c68      	adds	r0, r5, #1
   27228:	9005      	str	r0, [sp, #20]
   2722a:	a92f      	add	r1, sp, #188	@ 0xbc
   2722c:	2203      	movs	r2, #3
   2722e:	9204      	str	r2, [sp, #16]
   27230:	f003 f9a4 	bl	2a57c <__aeabi_memcpy>
   27234:	4e67      	ldr	r6, [pc, #412]	@ (273d4 <_start+0x334>)
   27236:	446e      	add	r6, sp
   27238:	a90c      	add	r1, sp, #48	@ 0x30
   2723a:	244a      	movs	r4, #74	@ 0x4a
   2723c:	4630      	mov	r0, r6
   2723e:	4622      	mov	r2, r4
   27240:	f003 f83c 	bl	2a2bc <__aeabi_memcpy4>
   27244:	4628      	mov	r0, r5
   27246:	3008      	adds	r0, #8
   27248:	4631      	mov	r1, r6
   2724a:	4622      	mov	r2, r4
   2724c:	f003 f836 	bl	2a2bc <__aeabi_memcpy4>
   27250:	9e0a      	ldr	r6, [sp, #40]	@ 0x28
   27252:	702e      	strb	r6, [r5, #0]
   27254:	9809      	ldr	r0, [sp, #36]	@ 0x24
   27256:	9908      	ldr	r1, [sp, #32]
   27258:	6601      	str	r1, [r0, #96]	@ 0x60
   2725a:	4c5e      	ldr	r4, [pc, #376]	@ (273d4 <_start+0x334>)
   2725c:	446c      	add	r4, sp
   2725e:	1c65      	adds	r5, r4, #1
   27260:	2146      	movs	r1, #70	@ 0x46
   27262:	4628      	mov	r0, r5
   27264:	f002 ffca 	bl	2a1fc <__aeabi_memclr>
   27268:	7026      	strb	r6, [r4, #0]
   2726a:	4860      	ldr	r0, [pc, #384]	@ (273ec <_start+0x34c>)
   2726c:	2107      	movs	r1, #7
   2726e:	2351      	movs	r3, #81	@ 0x51
   27270:	9a05      	ldr	r2, [sp, #20]
   27272:	df04      	svc	4
   27274:	2802      	cmp	r0, #2
   27276:	d101      	bne.n	2727c <_start+0x1dc>
   27278:	460d      	mov	r5, r1
   2727a:	e029      	b.n	272d0 <_start+0x230>
   2727c:	4857      	ldr	r0, [pc, #348]	@ (273dc <_start+0x33c>)
   2727e:	4468      	add	r0, sp
   27280:	990b      	ldr	r1, [sp, #44]	@ 0x2c
   27282:	7001      	strb	r1, [r0, #0]
   27284:	4859      	ldr	r0, [pc, #356]	@ (273ec <_start+0x34c>)
   27286:	2100      	movs	r1, #0
   27288:	2346      	movs	r3, #70	@ 0x46
   2728a:	462a      	mov	r2, r5
   2728c:	df03      	svc	3
   2728e:	2802      	cmp	r0, #2
   27290:	d10d      	bne.n	272ae <_start+0x20e>
   27292:	4850      	ldr	r0, [pc, #320]	@ (273d4 <_start+0x334>)
   27294:	4468      	add	r0, sp
   27296:	7800      	ldrb	r0, [r0, #0]
   27298:	2802      	cmp	r0, #2
   2729a:	d0ed      	beq.n	27278 <_start+0x1d8>
   2729c:	2803      	cmp	r0, #3
   2729e:	460d      	mov	r5, r1
   272a0:	d011      	beq.n	272c6 <_start+0x226>
   272a2:	4852      	ldr	r0, [pc, #328]	@ (273ec <_start+0x34c>)
   272a4:	2100      	movs	r1, #0
   272a6:	460a      	mov	r2, r1
   272a8:	460b      	mov	r3, r1
   272aa:	df04      	svc	4
   272ac:	e010      	b.n	272d0 <_start+0x230>
   272ae:	4849      	ldr	r0, [pc, #292]	@ (273d4 <_start+0x334>)
   272b0:	4468      	add	r0, sp
   272b2:	9904      	ldr	r1, [sp, #16]
   272b4:	7001      	strb	r1, [r0, #0]
   272b6:	484d      	ldr	r0, [pc, #308]	@ (273ec <_start+0x34c>)
   272b8:	2107      	movs	r1, #7
   272ba:	2200      	movs	r2, #0
   272bc:	4613      	mov	r3, r2
   272be:	df02      	svc	2
   272c0:	287f      	cmp	r0, #127	@ 0x7f
   272c2:	d819      	bhi.n	272f8 <_start+0x258>
   272c4:	460d      	mov	r5, r1
   272c6:	4849      	ldr	r0, [pc, #292]	@ (273ec <_start+0x34c>)
   272c8:	2100      	movs	r1, #0
   272ca:	460a      	mov	r2, r1
   272cc:	460b      	mov	r3, r1
   272ce:	df03      	svc	3
   272d0:	4842      	ldr	r0, [pc, #264]	@ (273dc <_start+0x33c>)
   272d2:	4468      	add	r0, sp
   272d4:	7800      	ldrb	r0, [r0, #0]
   272d6:	2802      	cmp	r0, #2
   272d8:	d100      	bne.n	272dc <_start+0x23c>
   272da:	e73f      	b.n	2715c <_start+0xbc>
   272dc:	2803      	cmp	r0, #3
   272de:	d105      	bne.n	272ec <_start+0x24c>
   272e0:	4842      	ldr	r0, [pc, #264]	@ (273ec <_start+0x34c>)
   272e2:	2107      	movs	r1, #7
   272e4:	2200      	movs	r2, #0
   272e6:	4613      	mov	r3, r2
   272e8:	df03      	svc	3
   272ea:	e737      	b.n	2715c <_start+0xbc>
   272ec:	483f      	ldr	r0, [pc, #252]	@ (273ec <_start+0x34c>)
   272ee:	2107      	movs	r1, #7
   272f0:	2200      	movs	r2, #0
   272f2:	4613      	mov	r3, r2
   272f4:	df04      	svc	4
   272f6:	e731      	b.n	2715c <_start+0xbc>
   272f8:	4838      	ldr	r0, [pc, #224]	@ (273dc <_start+0x33c>)
   272fa:	4468      	add	r0, sp
   272fc:	7800      	ldrb	r0, [r0, #0]
   272fe:	2802      	cmp	r0, #2
   27300:	d033      	beq.n	2736a <_start+0x2ca>
   27302:	2803      	cmp	r0, #3
   27304:	d105      	bne.n	27312 <_start+0x272>
   27306:	4839      	ldr	r0, [pc, #228]	@ (273ec <_start+0x34c>)
   27308:	2107      	movs	r1, #7
   2730a:	2200      	movs	r2, #0
   2730c:	4613      	mov	r3, r2
   2730e:	df03      	svc	3
   27310:	e004      	b.n	2731c <_start+0x27c>
   27312:	4836      	ldr	r0, [pc, #216]	@ (273ec <_start+0x34c>)
   27314:	2107      	movs	r1, #7
   27316:	2200      	movs	r2, #0
   27318:	4613      	mov	r3, r2
   2731a:	df04      	svc	4
   2731c:	482f      	ldr	r0, [pc, #188]	@ (273dc <_start+0x33c>)
   2731e:	4468      	add	r0, sp
   27320:	990a      	ldr	r1, [sp, #40]	@ 0x28
   27322:	7001      	strb	r1, [r0, #0]
   27324:	482b      	ldr	r0, [pc, #172]	@ (273d4 <_start+0x334>)
   27326:	4468      	add	r0, sp
   27328:	7800      	ldrb	r0, [r0, #0]
   2732a:	2803      	cmp	r0, #3
   2732c:	d01d      	beq.n	2736a <_start+0x2ca>
   2732e:	2802      	cmp	r0, #2
   27330:	d121      	bne.n	27376 <_start+0x2d6>
   27332:	78a8      	ldrb	r0, [r5, #2]
   27334:	a92f      	add	r1, sp, #188	@ 0xbc
   27336:	7088      	strb	r0, [r1, #2]
   27338:	7828      	ldrb	r0, [r5, #0]
   2733a:	786a      	ldrb	r2, [r5, #1]
   2733c:	0212      	lsls	r2, r2, #8
   2733e:	1810      	adds	r0, r2, r0
   27340:	8008      	strh	r0, [r1, #0]
   27342:	4824      	ldr	r0, [pc, #144]	@ (273d4 <_start+0x334>)
   27344:	4468      	add	r0, sp
   27346:	3008      	adds	r0, #8
   27348:	9907      	ldr	r1, [sp, #28]
   2734a:	6809      	ldr	r1, [r1, #0]
   2734c:	9108      	str	r1, [sp, #32]
   2734e:	a91f      	add	r1, sp, #124	@ 0x7c
   27350:	c81c      	ldmia	r0!, {r2, r3, r4}
   27352:	c11c      	stmia	r1!, {r2, r3, r4}
   27354:	c83c      	ldmia	r0!, {r2, r3, r4, r5}
   27356:	c13c      	stmia	r1!, {r2, r3, r4, r5}
   27358:	c83c      	ldmia	r0!, {r2, r3, r4, r5}
   2735a:	c13c      	stmia	r1!, {r2, r3, r4, r5}
   2735c:	c83c      	ldmia	r0!, {r2, r3, r4, r5}
   2735e:	c13c      	stmia	r1!, {r2, r3, r4, r5}
   27360:	8802      	ldrh	r2, [r0, #0]
   27362:	800a      	strh	r2, [r1, #0]
   27364:	7880      	ldrb	r0, [r0, #2]
   27366:	7088      	strb	r0, [r1, #2]
   27368:	e047      	b.n	273fa <_start+0x35a>
   2736a:	4820      	ldr	r0, [pc, #128]	@ (273ec <_start+0x34c>)
   2736c:	2100      	movs	r1, #0
   2736e:	460a      	mov	r2, r1
   27370:	460b      	mov	r3, r1
   27372:	df03      	svc	3
   27374:	e004      	b.n	27380 <_start+0x2e0>
   27376:	481d      	ldr	r0, [pc, #116]	@ (273ec <_start+0x34c>)
   27378:	2100      	movs	r1, #0
   2737a:	460a      	mov	r2, r1
   2737c:	460b      	mov	r3, r1
   2737e:	df04      	svc	4
   27380:	78a8      	ldrb	r0, [r5, #2]
   27382:	a92f      	add	r1, sp, #188	@ 0xbc
   27384:	7088      	strb	r0, [r1, #2]
   27386:	7828      	ldrb	r0, [r5, #0]
   27388:	786a      	ldrb	r2, [r5, #1]
   2738a:	0212      	lsls	r2, r2, #8
   2738c:	1810      	adds	r0, r2, r0
   2738e:	8008      	strh	r0, [r1, #0]
   27390:	4812      	ldr	r0, [pc, #72]	@ (273dc <_start+0x33c>)
   27392:	4468      	add	r0, sp
   27394:	7800      	ldrb	r0, [r0, #0]
   27396:	490f      	ldr	r1, [pc, #60]	@ (273d4 <_start+0x334>)
   27398:	4469      	add	r1, sp
   2739a:	3108      	adds	r1, #8
   2739c:	9a07      	ldr	r2, [sp, #28]
   2739e:	6812      	ldr	r2, [r2, #0]
   273a0:	9208      	str	r2, [sp, #32]
   273a2:	aa1f      	add	r2, sp, #124	@ 0x7c
   273a4:	c938      	ldmia	r1!, {r3, r4, r5}
   273a6:	c238      	stmia	r2!, {r3, r4, r5}
   273a8:	c978      	ldmia	r1!, {r3, r4, r5, r6}
   273aa:	c278      	stmia	r2!, {r3, r4, r5, r6}
   273ac:	c978      	ldmia	r1!, {r3, r4, r5, r6}
   273ae:	c278      	stmia	r2!, {r3, r4, r5, r6}
   273b0:	c978      	ldmia	r1!, {r3, r4, r5, r6}
   273b2:	c278      	stmia	r2!, {r3, r4, r5, r6}
   273b4:	880b      	ldrh	r3, [r1, #0]
   273b6:	8013      	strh	r3, [r2, #0]
   273b8:	7889      	ldrb	r1, [r1, #2]
   273ba:	7091      	strb	r1, [r2, #2]
   273bc:	2802      	cmp	r0, #2
   273be:	d01c      	beq.n	273fa <_start+0x35a>
   273c0:	2803      	cmp	r0, #3
   273c2:	d115      	bne.n	273f0 <_start+0x350>
   273c4:	4809      	ldr	r0, [pc, #36]	@ (273ec <_start+0x34c>)
   273c6:	2107      	movs	r1, #7
   273c8:	2200      	movs	r2, #0
   273ca:	4613      	mov	r3, r2
   273cc:	df03      	svc	3
   273ce:	e014      	b.n	273fa <_start+0x35a>
   273d0:	ffffeadc 	.word	0xffffeadc
   273d4:	000013a8 	.word	0x000013a8
   273d8:	000013ac 	.word	0x000013ac
   273dc:	00001404 	.word	0x00001404
   273e0:	00000508 	.word	0x00000508
   273e4:	000007dc 	.word	0x000007dc
   273e8:	00002006 	.word	0x00002006
   273ec:	000020c4 	.word	0x000020c4
   273f0:	48d7      	ldr	r0, [pc, #860]	@ (27750 <_start+0x6b0>)
   273f2:	2107      	movs	r1, #7
   273f4:	2200      	movs	r2, #0
   273f6:	4613      	mov	r3, r2
   273f8:	df04      	svc	4
   273fa:	48d6      	ldr	r0, [pc, #856]	@ (27754 <_start+0x6b4>)
   273fc:	4468      	add	r0, sp
   273fe:	9001      	str	r0, [sp, #4]
   27400:	1c40      	adds	r0, r0, #1
   27402:	9005      	str	r0, [sp, #20]
   27404:	a92f      	add	r1, sp, #188	@ 0xbc
   27406:	2203      	movs	r2, #3
   27408:	9204      	str	r2, [sp, #16]
   2740a:	f003 f8b7 	bl	2a57c <__aeabi_memcpy>
   2740e:	a91f      	add	r1, sp, #124	@ 0x7c
   27410:	a80c      	add	r0, sp, #48	@ 0x30
   27412:	4602      	mov	r2, r0
   27414:	c958      	ldmia	r1!, {r3, r4, r6}
   27416:	c258      	stmia	r2!, {r3, r4, r6}
   27418:	c978      	ldmia	r1!, {r3, r4, r5, r6}
   2741a:	c278      	stmia	r2!, {r3, r4, r5, r6}
   2741c:	c978      	ldmia	r1!, {r3, r4, r5, r6}
   2741e:	c278      	stmia	r2!, {r3, r4, r5, r6}
   27420:	c978      	ldmia	r1!, {r3, r4, r5, r6}
   27422:	c278      	stmia	r2!, {r3, r4, r5, r6}
   27424:	880b      	ldrh	r3, [r1, #0]
   27426:	8013      	strh	r3, [r2, #0]
   27428:	7889      	ldrb	r1, [r1, #2]
   2742a:	7091      	strb	r1, [r2, #2]
   2742c:	9e01      	ldr	r6, [sp, #4]
   2742e:	4631      	mov	r1, r6
   27430:	3108      	adds	r1, #8
   27432:	c81c      	ldmia	r0!, {r2, r3, r4}
   27434:	c11c      	stmia	r1!, {r2, r3, r4}
   27436:	c83c      	ldmia	r0!, {r2, r3, r4, r5}
   27438:	c13c      	stmia	r1!, {r2, r3, r4, r5}
   2743a:	c83c      	ldmia	r0!, {r2, r3, r4, r5}
   2743c:	c13c      	stmia	r1!, {r2, r3, r4, r5}
   2743e:	c83c      	ldmia	r0!, {r2, r3, r4, r5}
   27440:	c13c      	stmia	r1!, {r2, r3, r4, r5}
   27442:	8802      	ldrh	r2, [r0, #0]
   27444:	800a      	strh	r2, [r1, #0]
   27446:	7880      	ldrb	r0, [r0, #2]
   27448:	7088      	strb	r0, [r1, #2]
   2744a:	9d0a      	ldr	r5, [sp, #40]	@ 0x28
   2744c:	7035      	strb	r5, [r6, #0]
   2744e:	9809      	ldr	r0, [sp, #36]	@ 0x24
   27450:	9908      	ldr	r1, [sp, #32]
   27452:	6601      	str	r1, [r0, #96]	@ 0x60
   27454:	4cc0      	ldr	r4, [pc, #768]	@ (27758 <_start+0x6b8>)
   27456:	446c      	add	r4, sp
   27458:	1c66      	adds	r6, r4, #1
   2745a:	2118      	movs	r1, #24
   2745c:	4630      	mov	r0, r6
   2745e:	f002 fecd 	bl	2a1fc <__aeabi_memclr>
   27462:	7025      	strb	r5, [r4, #0]
   27464:	48bd      	ldr	r0, [pc, #756]	@ (2775c <_start+0x6bc>)
   27466:	2346      	movs	r3, #70	@ 0x46
   27468:	9904      	ldr	r1, [sp, #16]
   2746a:	460c      	mov	r4, r1
   2746c:	9a05      	ldr	r2, [sp, #20]
   2746e:	df04      	svc	4
   27470:	2802      	cmp	r0, #2
   27472:	d101      	bne.n	27478 <_start+0x3d8>
   27474:	460d      	mov	r5, r1
   27476:	e029      	b.n	274cc <_start+0x42c>
   27478:	48b6      	ldr	r0, [pc, #728]	@ (27754 <_start+0x6b4>)
   2747a:	4468      	add	r0, sp
   2747c:	990b      	ldr	r1, [sp, #44]	@ 0x2c
   2747e:	7001      	strb	r1, [r0, #0]
   27480:	48b6      	ldr	r0, [pc, #728]	@ (2775c <_start+0x6bc>)
   27482:	2102      	movs	r1, #2
   27484:	2318      	movs	r3, #24
   27486:	4632      	mov	r2, r6
   27488:	df03      	svc	3
   2748a:	2802      	cmp	r0, #2
   2748c:	d10d      	bne.n	274aa <_start+0x40a>
   2748e:	460d      	mov	r5, r1
   27490:	48b1      	ldr	r0, [pc, #708]	@ (27758 <_start+0x6b8>)
   27492:	4468      	add	r0, sp
   27494:	7800      	ldrb	r0, [r0, #0]
   27496:	2802      	cmp	r0, #2
   27498:	d018      	beq.n	274cc <_start+0x42c>
   2749a:	2803      	cmp	r0, #3
   2749c:	d011      	beq.n	274c2 <_start+0x422>
   2749e:	48af      	ldr	r0, [pc, #700]	@ (2775c <_start+0x6bc>)
   274a0:	2102      	movs	r1, #2
   274a2:	2200      	movs	r2, #0
   274a4:	4613      	mov	r3, r2
   274a6:	df04      	svc	4
   274a8:	e010      	b.n	274cc <_start+0x42c>
   274aa:	48ab      	ldr	r0, [pc, #684]	@ (27758 <_start+0x6b8>)
   274ac:	4468      	add	r0, sp
   274ae:	4621      	mov	r1, r4
   274b0:	7004      	strb	r4, [r0, #0]
   274b2:	48aa      	ldr	r0, [pc, #680]	@ (2775c <_start+0x6bc>)
   274b4:	2402      	movs	r4, #2
   274b6:	2300      	movs	r3, #0
   274b8:	4622      	mov	r2, r4
   274ba:	df02      	svc	2
   274bc:	287f      	cmp	r0, #127	@ 0x7f
   274be:	d819      	bhi.n	274f4 <_start+0x454>
   274c0:	460d      	mov	r5, r1
   274c2:	48a6      	ldr	r0, [pc, #664]	@ (2775c <_start+0x6bc>)
   274c4:	2102      	movs	r1, #2
   274c6:	2200      	movs	r2, #0
   274c8:	4613      	mov	r3, r2
   274ca:	df03      	svc	3
   274cc:	48a1      	ldr	r0, [pc, #644]	@ (27754 <_start+0x6b4>)
   274ce:	4468      	add	r0, sp
   274d0:	7800      	ldrb	r0, [r0, #0]
   274d2:	2802      	cmp	r0, #2
   274d4:	d100      	bne.n	274d8 <_start+0x438>
   274d6:	e641      	b.n	2715c <_start+0xbc>
   274d8:	2803      	cmp	r0, #3
   274da:	d105      	bne.n	274e8 <_start+0x448>
   274dc:	489f      	ldr	r0, [pc, #636]	@ (2775c <_start+0x6bc>)
   274de:	2103      	movs	r1, #3
   274e0:	2200      	movs	r2, #0
   274e2:	4613      	mov	r3, r2
   274e4:	df03      	svc	3
   274e6:	e639      	b.n	2715c <_start+0xbc>
   274e8:	489c      	ldr	r0, [pc, #624]	@ (2775c <_start+0x6bc>)
   274ea:	2103      	movs	r1, #3
   274ec:	2200      	movs	r2, #0
   274ee:	4613      	mov	r3, r2
   274f0:	df04      	svc	4
   274f2:	e633      	b.n	2715c <_start+0xbc>
   274f4:	4897      	ldr	r0, [pc, #604]	@ (27754 <_start+0x6b4>)
   274f6:	4468      	add	r0, sp
   274f8:	7800      	ldrb	r0, [r0, #0]
   274fa:	2802      	cmp	r0, #2
   274fc:	940a      	str	r4, [sp, #40]	@ 0x28
   274fe:	d02a      	beq.n	27556 <_start+0x4b6>
   27500:	2803      	cmp	r0, #3
   27502:	d105      	bne.n	27510 <_start+0x470>
   27504:	4895      	ldr	r0, [pc, #596]	@ (2775c <_start+0x6bc>)
   27506:	2103      	movs	r1, #3
   27508:	2200      	movs	r2, #0
   2750a:	4613      	mov	r3, r2
   2750c:	df03      	svc	3
   2750e:	e004      	b.n	2751a <_start+0x47a>
   27510:	4892      	ldr	r0, [pc, #584]	@ (2775c <_start+0x6bc>)
   27512:	2103      	movs	r1, #3
   27514:	2200      	movs	r2, #0
   27516:	4613      	mov	r3, r2
   27518:	df04      	svc	4
   2751a:	488e      	ldr	r0, [pc, #568]	@ (27754 <_start+0x6b4>)
   2751c:	4468      	add	r0, sp
   2751e:	7004      	strb	r4, [r0, #0]
   27520:	488d      	ldr	r0, [pc, #564]	@ (27758 <_start+0x6b8>)
   27522:	4468      	add	r0, sp
   27524:	7800      	ldrb	r0, [r0, #0]
   27526:	2803      	cmp	r0, #3
   27528:	d015      	beq.n	27556 <_start+0x4b6>
   2752a:	2802      	cmp	r0, #2
   2752c:	d119      	bne.n	27562 <_start+0x4c2>
   2752e:	78b0      	ldrb	r0, [r6, #2]
   27530:	a934      	add	r1, sp, #208	@ 0xd0
   27532:	7088      	strb	r0, [r1, #2]
   27534:	7830      	ldrb	r0, [r6, #0]
   27536:	7872      	ldrb	r2, [r6, #1]
   27538:	0212      	lsls	r2, r2, #8
   2753a:	1810      	adds	r0, r2, r0
   2753c:	8008      	strh	r0, [r1, #0]
   2753e:	4886      	ldr	r0, [pc, #536]	@ (27758 <_start+0x6b8>)
   27540:	4468      	add	r0, sp
   27542:	3008      	adds	r0, #8
   27544:	9907      	ldr	r1, [sp, #28]
   27546:	6809      	ldr	r1, [r1, #0]
   27548:	9108      	str	r1, [sp, #32]
   2754a:	a92f      	add	r1, sp, #188	@ 0xbc
   2754c:	c83c      	ldmia	r0!, {r2, r3, r4, r5}
   2754e:	c13c      	stmia	r1!, {r2, r3, r4, r5}
   27550:	7800      	ldrb	r0, [r0, #0]
   27552:	7008      	strb	r0, [r1, #0]
   27554:	e02f      	b.n	275b6 <_start+0x516>
   27556:	4881      	ldr	r0, [pc, #516]	@ (2775c <_start+0x6bc>)
   27558:	2102      	movs	r1, #2
   2755a:	2200      	movs	r2, #0
   2755c:	4613      	mov	r3, r2
   2755e:	df03      	svc	3
   27560:	e004      	b.n	2756c <_start+0x4cc>
   27562:	487e      	ldr	r0, [pc, #504]	@ (2775c <_start+0x6bc>)
   27564:	2102      	movs	r1, #2
   27566:	2200      	movs	r2, #0
   27568:	4613      	mov	r3, r2
   2756a:	df04      	svc	4
   2756c:	78b0      	ldrb	r0, [r6, #2]
   2756e:	a934      	add	r1, sp, #208	@ 0xd0
   27570:	7088      	strb	r0, [r1, #2]
   27572:	7830      	ldrb	r0, [r6, #0]
   27574:	7872      	ldrb	r2, [r6, #1]
   27576:	0212      	lsls	r2, r2, #8
   27578:	1810      	adds	r0, r2, r0
   2757a:	8008      	strh	r0, [r1, #0]
   2757c:	4875      	ldr	r0, [pc, #468]	@ (27754 <_start+0x6b4>)
   2757e:	4468      	add	r0, sp
   27580:	7800      	ldrb	r0, [r0, #0]
   27582:	4975      	ldr	r1, [pc, #468]	@ (27758 <_start+0x6b8>)
   27584:	4469      	add	r1, sp
   27586:	3108      	adds	r1, #8
   27588:	9a07      	ldr	r2, [sp, #28]
   2758a:	6812      	ldr	r2, [r2, #0]
   2758c:	9208      	str	r2, [sp, #32]
   2758e:	aa2f      	add	r2, sp, #188	@ 0xbc
   27590:	c978      	ldmia	r1!, {r3, r4, r5, r6}
   27592:	c278      	stmia	r2!, {r3, r4, r5, r6}
   27594:	7809      	ldrb	r1, [r1, #0]
   27596:	7011      	strb	r1, [r2, #0]
   27598:	2802      	cmp	r0, #2
   2759a:	d00c      	beq.n	275b6 <_start+0x516>
   2759c:	2803      	cmp	r0, #3
   2759e:	d105      	bne.n	275ac <_start+0x50c>
   275a0:	486e      	ldr	r0, [pc, #440]	@ (2775c <_start+0x6bc>)
   275a2:	2103      	movs	r1, #3
   275a4:	2200      	movs	r2, #0
   275a6:	4613      	mov	r3, r2
   275a8:	df03      	svc	3
   275aa:	e004      	b.n	275b6 <_start+0x516>
   275ac:	486b      	ldr	r0, [pc, #428]	@ (2775c <_start+0x6bc>)
   275ae:	2103      	movs	r1, #3
   275b0:	2200      	movs	r2, #0
   275b2:	4613      	mov	r3, r2
   275b4:	df04      	svc	4
   275b6:	a81f      	add	r0, sp, #124	@ 0x7c
   275b8:	9004      	str	r0, [sp, #16]
   275ba:	1c40      	adds	r0, r0, #1
   275bc:	9005      	str	r0, [sp, #20]
   275be:	a934      	add	r1, sp, #208	@ 0xd0
   275c0:	2203      	movs	r2, #3
   275c2:	9201      	str	r2, [sp, #4]
   275c4:	f002 ffda 	bl	2a57c <__aeabi_memcpy>
   275c8:	a82f      	add	r0, sp, #188	@ 0xbc
   275ca:	a90c      	add	r1, sp, #48	@ 0x30
   275cc:	460a      	mov	r2, r1
   275ce:	c878      	ldmia	r0!, {r3, r4, r5, r6}
   275d0:	c278      	stmia	r2!, {r3, r4, r5, r6}
   275d2:	7800      	ldrb	r0, [r0, #0]
   275d4:	7010      	strb	r0, [r2, #0]
   275d6:	9e04      	ldr	r6, [sp, #16]
   275d8:	4630      	mov	r0, r6
   275da:	3008      	adds	r0, #8
   275dc:	c93c      	ldmia	r1!, {r2, r3, r4, r5}
   275de:	c03c      	stmia	r0!, {r2, r3, r4, r5}
   275e0:	7809      	ldrb	r1, [r1, #0]
   275e2:	7001      	strb	r1, [r0, #0]
   275e4:	9d0a      	ldr	r5, [sp, #40]	@ 0x28
   275e6:	7035      	strb	r5, [r6, #0]
   275e8:	9808      	ldr	r0, [sp, #32]
   275ea:	9020      	str	r0, [sp, #128]	@ 0x80
   275ec:	4c59      	ldr	r4, [pc, #356]	@ (27754 <_start+0x6b4>)
   275ee:	446c      	add	r4, sp
   275f0:	1c66      	adds	r6, r4, #1
   275f2:	2136      	movs	r1, #54	@ 0x36
   275f4:	4630      	mov	r0, r6
   275f6:	f002 fe01 	bl	2a1fc <__aeabi_memclr>
   275fa:	7025      	strb	r5, [r4, #0]
   275fc:	4858      	ldr	r0, [pc, #352]	@ (27760 <_start+0x6c0>)
   275fe:	2100      	movs	r1, #0
   27600:	2318      	movs	r3, #24
   27602:	9a05      	ldr	r2, [sp, #20]
   27604:	df04      	svc	4
   27606:	2802      	cmp	r0, #2
   27608:	d101      	bne.n	2760e <_start+0x56e>
   2760a:	460d      	mov	r5, r1
   2760c:	e028      	b.n	27660 <_start+0x5c0>
   2760e:	a81f      	add	r0, sp, #124	@ 0x7c
   27610:	990b      	ldr	r1, [sp, #44]	@ 0x2c
   27612:	7001      	strb	r1, [r0, #0]
   27614:	4852      	ldr	r0, [pc, #328]	@ (27760 <_start+0x6c0>)
   27616:	2107      	movs	r1, #7
   27618:	2336      	movs	r3, #54	@ 0x36
   2761a:	4632      	mov	r2, r6
   2761c:	df03      	svc	3
   2761e:	2802      	cmp	r0, #2
   27620:	d10d      	bne.n	2763e <_start+0x59e>
   27622:	460d      	mov	r5, r1
   27624:	484b      	ldr	r0, [pc, #300]	@ (27754 <_start+0x6b4>)
   27626:	4468      	add	r0, sp
   27628:	7800      	ldrb	r0, [r0, #0]
   2762a:	2802      	cmp	r0, #2
   2762c:	d018      	beq.n	27660 <_start+0x5c0>
   2762e:	2803      	cmp	r0, #3
   27630:	d011      	beq.n	27656 <_start+0x5b6>
   27632:	484b      	ldr	r0, [pc, #300]	@ (27760 <_start+0x6c0>)
   27634:	2107      	movs	r1, #7
   27636:	2200      	movs	r2, #0
   27638:	4613      	mov	r3, r2
   2763a:	df04      	svc	4
   2763c:	e010      	b.n	27660 <_start+0x5c0>
   2763e:	4845      	ldr	r0, [pc, #276]	@ (27754 <_start+0x6b4>)
   27640:	4468      	add	r0, sp
   27642:	9901      	ldr	r1, [sp, #4]
   27644:	7001      	strb	r1, [r0, #0]
   27646:	4846      	ldr	r0, [pc, #280]	@ (27760 <_start+0x6c0>)
   27648:	2207      	movs	r2, #7
   2764a:	2100      	movs	r1, #0
   2764c:	460b      	mov	r3, r1
   2764e:	df02      	svc	2
   27650:	287f      	cmp	r0, #127	@ 0x7f
   27652:	d818      	bhi.n	27686 <_start+0x5e6>
   27654:	460d      	mov	r5, r1
   27656:	4842      	ldr	r0, [pc, #264]	@ (27760 <_start+0x6c0>)
   27658:	2107      	movs	r1, #7
   2765a:	2200      	movs	r2, #0
   2765c:	4613      	mov	r3, r2
   2765e:	df03      	svc	3
   27660:	a81f      	add	r0, sp, #124	@ 0x7c
   27662:	7800      	ldrb	r0, [r0, #0]
   27664:	2802      	cmp	r0, #2
   27666:	d100      	bne.n	2766a <_start+0x5ca>
   27668:	e578      	b.n	2715c <_start+0xbc>
   2766a:	2803      	cmp	r0, #3
   2766c:	d105      	bne.n	2767a <_start+0x5da>
   2766e:	483c      	ldr	r0, [pc, #240]	@ (27760 <_start+0x6c0>)
   27670:	2100      	movs	r1, #0
   27672:	460a      	mov	r2, r1
   27674:	460b      	mov	r3, r1
   27676:	df03      	svc	3
   27678:	e570      	b.n	2715c <_start+0xbc>
   2767a:	4839      	ldr	r0, [pc, #228]	@ (27760 <_start+0x6c0>)
   2767c:	2100      	movs	r1, #0
   2767e:	460a      	mov	r2, r1
   27680:	460b      	mov	r3, r1
   27682:	df04      	svc	4
   27684:	e56a      	b.n	2715c <_start+0xbc>
   27686:	a81f      	add	r0, sp, #124	@ 0x7c
   27688:	7800      	ldrb	r0, [r0, #0]
   2768a:	2802      	cmp	r0, #2
   2768c:	d030      	beq.n	276f0 <_start+0x650>
   2768e:	2803      	cmp	r0, #3
   27690:	d105      	bne.n	2769e <_start+0x5fe>
   27692:	4833      	ldr	r0, [pc, #204]	@ (27760 <_start+0x6c0>)
   27694:	2100      	movs	r1, #0
   27696:	460a      	mov	r2, r1
   27698:	460b      	mov	r3, r1
   2769a:	df03      	svc	3
   2769c:	e004      	b.n	276a8 <_start+0x608>
   2769e:	4830      	ldr	r0, [pc, #192]	@ (27760 <_start+0x6c0>)
   276a0:	2100      	movs	r1, #0
   276a2:	460a      	mov	r2, r1
   276a4:	460b      	mov	r3, r1
   276a6:	df04      	svc	4
   276a8:	a81f      	add	r0, sp, #124	@ 0x7c
   276aa:	990a      	ldr	r1, [sp, #40]	@ 0x28
   276ac:	7001      	strb	r1, [r0, #0]
   276ae:	4829      	ldr	r0, [pc, #164]	@ (27754 <_start+0x6b4>)
   276b0:	4468      	add	r0, sp
   276b2:	7800      	ldrb	r0, [r0, #0]
   276b4:	2803      	cmp	r0, #3
   276b6:	d01b      	beq.n	276f0 <_start+0x650>
   276b8:	2802      	cmp	r0, #2
   276ba:	d11f      	bne.n	276fc <_start+0x65c>
   276bc:	78b0      	ldrb	r0, [r6, #2]
   276be:	a92f      	add	r1, sp, #188	@ 0xbc
   276c0:	7088      	strb	r0, [r1, #2]
   276c2:	7830      	ldrb	r0, [r6, #0]
   276c4:	7872      	ldrb	r2, [r6, #1]
   276c6:	0212      	lsls	r2, r2, #8
   276c8:	1810      	adds	r0, r2, r0
   276ca:	8008      	strh	r0, [r1, #0]
   276cc:	4821      	ldr	r0, [pc, #132]	@ (27754 <_start+0x6b4>)
   276ce:	4468      	add	r0, sp
   276d0:	3008      	adds	r0, #8
   276d2:	9909      	ldr	r1, [sp, #36]	@ 0x24
   276d4:	6e09      	ldr	r1, [r1, #96]	@ 0x60
   276d6:	9108      	str	r1, [sp, #32]
   276d8:	a90c      	add	r1, sp, #48	@ 0x30
   276da:	c81c      	ldmia	r0!, {r2, r3, r4}
   276dc:	c11c      	stmia	r1!, {r2, r3, r4}
   276de:	c83c      	ldmia	r0!, {r2, r3, r4, r5}
   276e0:	c13c      	stmia	r1!, {r2, r3, r4, r5}
   276e2:	c83c      	ldmia	r0!, {r2, r3, r4, r5}
   276e4:	c13c      	stmia	r1!, {r2, r3, r4, r5}
   276e6:	8802      	ldrh	r2, [r0, #0]
   276e8:	800a      	strh	r2, [r1, #0]
   276ea:	7880      	ldrb	r0, [r0, #2]
   276ec:	7088      	strb	r0, [r1, #2]
   276ee:	e03e      	b.n	2776e <_start+0x6ce>
   276f0:	481b      	ldr	r0, [pc, #108]	@ (27760 <_start+0x6c0>)
   276f2:	2107      	movs	r1, #7
   276f4:	2200      	movs	r2, #0
   276f6:	4613      	mov	r3, r2
   276f8:	df03      	svc	3
   276fa:	e004      	b.n	27706 <_start+0x666>
   276fc:	4818      	ldr	r0, [pc, #96]	@ (27760 <_start+0x6c0>)
   276fe:	2107      	movs	r1, #7
   27700:	2200      	movs	r2, #0
   27702:	4613      	mov	r3, r2
   27704:	df04      	svc	4
   27706:	78b0      	ldrb	r0, [r6, #2]
   27708:	a92f      	add	r1, sp, #188	@ 0xbc
   2770a:	7088      	strb	r0, [r1, #2]
   2770c:	7830      	ldrb	r0, [r6, #0]
   2770e:	7872      	ldrb	r2, [r6, #1]
   27710:	0212      	lsls	r2, r2, #8
   27712:	1810      	adds	r0, r2, r0
   27714:	8008      	strh	r0, [r1, #0]
   27716:	a81f      	add	r0, sp, #124	@ 0x7c
   27718:	7800      	ldrb	r0, [r0, #0]
   2771a:	490e      	ldr	r1, [pc, #56]	@ (27754 <_start+0x6b4>)
   2771c:	4469      	add	r1, sp
   2771e:	3108      	adds	r1, #8
   27720:	9a09      	ldr	r2, [sp, #36]	@ 0x24
   27722:	6e12      	ldr	r2, [r2, #96]	@ 0x60
   27724:	9208      	str	r2, [sp, #32]
   27726:	aa0c      	add	r2, sp, #48	@ 0x30
   27728:	c938      	ldmia	r1!, {r3, r4, r5}
   2772a:	c238      	stmia	r2!, {r3, r4, r5}
   2772c:	c978      	ldmia	r1!, {r3, r4, r5, r6}
   2772e:	c278      	stmia	r2!, {r3, r4, r5, r6}
   27730:	c978      	ldmia	r1!, {r3, r4, r5, r6}
   27732:	c278      	stmia	r2!, {r3, r4, r5, r6}
   27734:	880b      	ldrh	r3, [r1, #0]
   27736:	8013      	strh	r3, [r2, #0]
   27738:	7889      	ldrb	r1, [r1, #2]
   2773a:	7091      	strb	r1, [r2, #2]
   2773c:	2802      	cmp	r0, #2
   2773e:	d016      	beq.n	2776e <_start+0x6ce>
   27740:	2803      	cmp	r0, #3
   27742:	d10f      	bne.n	27764 <_start+0x6c4>
   27744:	4806      	ldr	r0, [pc, #24]	@ (27760 <_start+0x6c0>)
   27746:	2100      	movs	r1, #0
   27748:	460a      	mov	r2, r1
   2774a:	460b      	mov	r3, r1
   2774c:	df03      	svc	3
   2774e:	e00e      	b.n	2776e <_start+0x6ce>
   27750:	000020c4 	.word	0x000020c4
   27754:	00001404 	.word	0x00001404
   27758:	000013a8 	.word	0x000013a8
   2775c:	000023cf 	.word	0x000023cf
   27760:	0000021f 	.word	0x0000021f
   27764:	48d7      	ldr	r0, [pc, #860]	@ (27ac4 <_start+0xa24>)
   27766:	2100      	movs	r1, #0
   27768:	460a      	mov	r2, r1
   2776a:	460b      	mov	r3, r1
   2776c:	df04      	svc	4
   2776e:	48d6      	ldr	r0, [pc, #856]	@ (27ac8 <_start+0xa28>)
   27770:	4468      	add	r0, sp
   27772:	9004      	str	r0, [sp, #16]
   27774:	1c40      	adds	r0, r0, #1
   27776:	9005      	str	r0, [sp, #20]
   27778:	a92f      	add	r1, sp, #188	@ 0xbc
   2777a:	2203      	movs	r2, #3
   2777c:	9201      	str	r2, [sp, #4]
   2777e:	f002 fefd 	bl	2a57c <__aeabi_memcpy>
   27782:	a90c      	add	r1, sp, #48	@ 0x30
   27784:	48d1      	ldr	r0, [pc, #836]	@ (27acc <_start+0xa2c>)
   27786:	4468      	add	r0, sp
   27788:	4602      	mov	r2, r0
   2778a:	c958      	ldmia	r1!, {r3, r4, r6}
   2778c:	c258      	stmia	r2!, {r3, r4, r6}
   2778e:	c978      	ldmia	r1!, {r3, r4, r5, r6}
   27790:	c278      	stmia	r2!, {r3, r4, r5, r6}
   27792:	c978      	ldmia	r1!, {r3, r4, r5, r6}
   27794:	c278      	stmia	r2!, {r3, r4, r5, r6}
   27796:	880b      	ldrh	r3, [r1, #0]
   27798:	8013      	strh	r3, [r2, #0]
   2779a:	7889      	ldrb	r1, [r1, #2]
   2779c:	7091      	strb	r1, [r2, #2]
   2779e:	9e04      	ldr	r6, [sp, #16]
   277a0:	4631      	mov	r1, r6
   277a2:	3108      	adds	r1, #8
   277a4:	c81c      	ldmia	r0!, {r2, r3, r4}
   277a6:	c11c      	stmia	r1!, {r2, r3, r4}
   277a8:	c83c      	ldmia	r0!, {r2, r3, r4, r5}
   277aa:	c13c      	stmia	r1!, {r2, r3, r4, r5}
   277ac:	c83c      	ldmia	r0!, {r2, r3, r4, r5}
   277ae:	c13c      	stmia	r1!, {r2, r3, r4, r5}
   277b0:	8802      	ldrh	r2, [r0, #0]
   277b2:	800a      	strh	r2, [r1, #0]
   277b4:	7880      	ldrb	r0, [r0, #2]
   277b6:	7088      	strb	r0, [r1, #2]
   277b8:	9d0a      	ldr	r5, [sp, #40]	@ 0x28
   277ba:	7035      	strb	r5, [r6, #0]
   277bc:	9809      	ldr	r0, [sp, #36]	@ 0x24
   277be:	9908      	ldr	r1, [sp, #32]
   277c0:	6601      	str	r1, [r0, #96]	@ 0x60
   277c2:	4cc2      	ldr	r4, [pc, #776]	@ (27acc <_start+0xa2c>)
   277c4:	446c      	add	r4, sp
   277c6:	1c66      	adds	r6, r4, #1
   277c8:	2125      	movs	r1, #37	@ 0x25
   277ca:	4630      	mov	r0, r6
   277cc:	f002 fd16 	bl	2a1fc <__aeabi_memclr>
   277d0:	7025      	strb	r5, [r4, #0]
   277d2:	48bf      	ldr	r0, [pc, #764]	@ (27ad0 <_start+0xa30>)
   277d4:	2107      	movs	r1, #7
   277d6:	2336      	movs	r3, #54	@ 0x36
   277d8:	9a05      	ldr	r2, [sp, #20]
   277da:	df04      	svc	4
   277dc:	2802      	cmp	r0, #2
   277de:	d101      	bne.n	277e4 <_start+0x744>
   277e0:	460d      	mov	r5, r1
   277e2:	e029      	b.n	27838 <_start+0x798>
   277e4:	48b8      	ldr	r0, [pc, #736]	@ (27ac8 <_start+0xa28>)
   277e6:	4468      	add	r0, sp
   277e8:	990b      	ldr	r1, [sp, #44]	@ 0x2c
   277ea:	7001      	strb	r1, [r0, #0]
   277ec:	48b8      	ldr	r0, [pc, #736]	@ (27ad0 <_start+0xa30>)
   277ee:	2100      	movs	r1, #0
   277f0:	2325      	movs	r3, #37	@ 0x25
   277f2:	4632      	mov	r2, r6
   277f4:	df03      	svc	3
   277f6:	2802      	cmp	r0, #2
   277f8:	d10d      	bne.n	27816 <_start+0x776>
   277fa:	460d      	mov	r5, r1
   277fc:	48b3      	ldr	r0, [pc, #716]	@ (27acc <_start+0xa2c>)
   277fe:	4468      	add	r0, sp
   27800:	7800      	ldrb	r0, [r0, #0]
   27802:	2802      	cmp	r0, #2
   27804:	d018      	beq.n	27838 <_start+0x798>
   27806:	2803      	cmp	r0, #3
   27808:	d011      	beq.n	2782e <_start+0x78e>
   2780a:	48b1      	ldr	r0, [pc, #708]	@ (27ad0 <_start+0xa30>)
   2780c:	2100      	movs	r1, #0
   2780e:	460a      	mov	r2, r1
   27810:	460b      	mov	r3, r1
   27812:	df04      	svc	4
   27814:	e010      	b.n	27838 <_start+0x798>
   27816:	48ad      	ldr	r0, [pc, #692]	@ (27acc <_start+0xa2c>)
   27818:	4468      	add	r0, sp
   2781a:	9901      	ldr	r1, [sp, #4]
   2781c:	7001      	strb	r1, [r0, #0]
   2781e:	48ac      	ldr	r0, [pc, #688]	@ (27ad0 <_start+0xa30>)
   27820:	2107      	movs	r1, #7
   27822:	2200      	movs	r2, #0
   27824:	4613      	mov	r3, r2
   27826:	df02      	svc	2
   27828:	287f      	cmp	r0, #127	@ 0x7f
   2782a:	d819      	bhi.n	27860 <_start+0x7c0>
   2782c:	460d      	mov	r5, r1
   2782e:	48a8      	ldr	r0, [pc, #672]	@ (27ad0 <_start+0xa30>)
   27830:	2100      	movs	r1, #0
   27832:	460a      	mov	r2, r1
   27834:	460b      	mov	r3, r1
   27836:	df03      	svc	3
   27838:	48a3      	ldr	r0, [pc, #652]	@ (27ac8 <_start+0xa28>)
   2783a:	4468      	add	r0, sp
   2783c:	7800      	ldrb	r0, [r0, #0]
   2783e:	2802      	cmp	r0, #2
   27840:	d100      	bne.n	27844 <_start+0x7a4>
   27842:	e48b      	b.n	2715c <_start+0xbc>
   27844:	2803      	cmp	r0, #3
   27846:	d105      	bne.n	27854 <_start+0x7b4>
   27848:	48a1      	ldr	r0, [pc, #644]	@ (27ad0 <_start+0xa30>)
   2784a:	2107      	movs	r1, #7
   2784c:	2200      	movs	r2, #0
   2784e:	4613      	mov	r3, r2
   27850:	df03      	svc	3
   27852:	e483      	b.n	2715c <_start+0xbc>
   27854:	489e      	ldr	r0, [pc, #632]	@ (27ad0 <_start+0xa30>)
   27856:	2107      	movs	r1, #7
   27858:	2200      	movs	r2, #0
   2785a:	4613      	mov	r3, r2
   2785c:	df04      	svc	4
   2785e:	e47d      	b.n	2715c <_start+0xbc>
   27860:	4899      	ldr	r0, [pc, #612]	@ (27ac8 <_start+0xa28>)
   27862:	4468      	add	r0, sp
   27864:	7800      	ldrb	r0, [r0, #0]
   27866:	2802      	cmp	r0, #2
   27868:	d02d      	beq.n	278c6 <_start+0x826>
   2786a:	2803      	cmp	r0, #3
   2786c:	d105      	bne.n	2787a <_start+0x7da>
   2786e:	4898      	ldr	r0, [pc, #608]	@ (27ad0 <_start+0xa30>)
   27870:	2107      	movs	r1, #7
   27872:	2200      	movs	r2, #0
   27874:	4613      	mov	r3, r2
   27876:	df03      	svc	3
   27878:	e004      	b.n	27884 <_start+0x7e4>
   2787a:	4895      	ldr	r0, [pc, #596]	@ (27ad0 <_start+0xa30>)
   2787c:	2107      	movs	r1, #7
   2787e:	2200      	movs	r2, #0
   27880:	4613      	mov	r3, r2
   27882:	df04      	svc	4
   27884:	4890      	ldr	r0, [pc, #576]	@ (27ac8 <_start+0xa28>)
   27886:	4468      	add	r0, sp
   27888:	990a      	ldr	r1, [sp, #40]	@ 0x28
   2788a:	7001      	strb	r1, [r0, #0]
   2788c:	488f      	ldr	r0, [pc, #572]	@ (27acc <_start+0xa2c>)
   2788e:	4468      	add	r0, sp
   27890:	7800      	ldrb	r0, [r0, #0]
   27892:	2803      	cmp	r0, #3
   27894:	d017      	beq.n	278c6 <_start+0x826>
   27896:	2802      	cmp	r0, #2
   27898:	d11b      	bne.n	278d2 <_start+0x832>
   2789a:	78b0      	ldrb	r0, [r6, #2]
   2789c:	a92f      	add	r1, sp, #188	@ 0xbc
   2789e:	7088      	strb	r0, [r1, #2]
   278a0:	7830      	ldrb	r0, [r6, #0]
   278a2:	7872      	ldrb	r2, [r6, #1]
   278a4:	0212      	lsls	r2, r2, #8
   278a6:	1810      	adds	r0, r2, r0
   278a8:	8008      	strh	r0, [r1, #0]
   278aa:	4888      	ldr	r0, [pc, #544]	@ (27acc <_start+0xa2c>)
   278ac:	4468      	add	r0, sp
   278ae:	3008      	adds	r0, #8
   278b0:	9907      	ldr	r1, [sp, #28]
   278b2:	6809      	ldr	r1, [r1, #0]
   278b4:	9108      	str	r1, [sp, #32]
   278b6:	a91f      	add	r1, sp, #124	@ 0x7c
   278b8:	c81c      	ldmia	r0!, {r2, r3, r4}
   278ba:	c11c      	stmia	r1!, {r2, r3, r4}
   278bc:	c83c      	ldmia	r0!, {r2, r3, r4, r5}
   278be:	c13c      	stmia	r1!, {r2, r3, r4, r5}
   278c0:	8800      	ldrh	r0, [r0, #0]
   278c2:	8008      	strh	r0, [r1, #0]
   278c4:	e031      	b.n	2792a <_start+0x88a>
   278c6:	4882      	ldr	r0, [pc, #520]	@ (27ad0 <_start+0xa30>)
   278c8:	2100      	movs	r1, #0
   278ca:	460a      	mov	r2, r1
   278cc:	460b      	mov	r3, r1
   278ce:	df03      	svc	3
   278d0:	e004      	b.n	278dc <_start+0x83c>
   278d2:	487f      	ldr	r0, [pc, #508]	@ (27ad0 <_start+0xa30>)
   278d4:	2100      	movs	r1, #0
   278d6:	460a      	mov	r2, r1
   278d8:	460b      	mov	r3, r1
   278da:	df04      	svc	4
   278dc:	78b0      	ldrb	r0, [r6, #2]
   278de:	a92f      	add	r1, sp, #188	@ 0xbc
   278e0:	7088      	strb	r0, [r1, #2]
   278e2:	7830      	ldrb	r0, [r6, #0]
   278e4:	7872      	ldrb	r2, [r6, #1]
   278e6:	0212      	lsls	r2, r2, #8
   278e8:	1810      	adds	r0, r2, r0
   278ea:	8008      	strh	r0, [r1, #0]
   278ec:	4876      	ldr	r0, [pc, #472]	@ (27ac8 <_start+0xa28>)
   278ee:	4468      	add	r0, sp
   278f0:	7800      	ldrb	r0, [r0, #0]
   278f2:	4976      	ldr	r1, [pc, #472]	@ (27acc <_start+0xa2c>)
   278f4:	4469      	add	r1, sp
   278f6:	3108      	adds	r1, #8
   278f8:	9a07      	ldr	r2, [sp, #28]
   278fa:	6812      	ldr	r2, [r2, #0]
   278fc:	9208      	str	r2, [sp, #32]
   278fe:	aa1f      	add	r2, sp, #124	@ 0x7c
   27900:	c938      	ldmia	r1!, {r3, r4, r5}
   27902:	c238      	stmia	r2!, {r3, r4, r5}
   27904:	c978      	ldmia	r1!, {r3, r4, r5, r6}
   27906:	c278      	stmia	r2!, {r3, r4, r5, r6}
   27908:	8809      	ldrh	r1, [r1, #0]
   2790a:	8011      	strh	r1, [r2, #0]
   2790c:	2802      	cmp	r0, #2
   2790e:	d00c      	beq.n	2792a <_start+0x88a>
   27910:	2803      	cmp	r0, #3
   27912:	d105      	bne.n	27920 <_start+0x880>
   27914:	486e      	ldr	r0, [pc, #440]	@ (27ad0 <_start+0xa30>)
   27916:	2107      	movs	r1, #7
   27918:	2200      	movs	r2, #0
   2791a:	4613      	mov	r3, r2
   2791c:	df03      	svc	3
   2791e:	e004      	b.n	2792a <_start+0x88a>
   27920:	486b      	ldr	r0, [pc, #428]	@ (27ad0 <_start+0xa30>)
   27922:	2107      	movs	r1, #7
   27924:	2200      	movs	r2, #0
   27926:	4613      	mov	r3, r2
   27928:	df04      	svc	4
   2792a:	4867      	ldr	r0, [pc, #412]	@ (27ac8 <_start+0xa28>)
   2792c:	4468      	add	r0, sp
   2792e:	9004      	str	r0, [sp, #16]
   27930:	1c40      	adds	r0, r0, #1
   27932:	9005      	str	r0, [sp, #20]
   27934:	a92f      	add	r1, sp, #188	@ 0xbc
   27936:	2203      	movs	r2, #3
   27938:	9201      	str	r2, [sp, #4]
   2793a:	f002 fe1f 	bl	2a57c <__aeabi_memcpy>
   2793e:	a91f      	add	r1, sp, #124	@ 0x7c
   27940:	a80c      	add	r0, sp, #48	@ 0x30
   27942:	4602      	mov	r2, r0
   27944:	c958      	ldmia	r1!, {r3, r4, r6}
   27946:	c258      	stmia	r2!, {r3, r4, r6}
   27948:	c978      	ldmia	r1!, {r3, r4, r5, r6}
   2794a:	c278      	stmia	r2!, {r3, r4, r5, r6}
   2794c:	8809      	ldrh	r1, [r1, #0]
   2794e:	8011      	strh	r1, [r2, #0]
   27950:	9e04      	ldr	r6, [sp, #16]
   27952:	4631      	mov	r1, r6
   27954:	3108      	adds	r1, #8
   27956:	c81c      	ldmia	r0!, {r2, r3, r4}
   27958:	c11c      	stmia	r1!, {r2, r3, r4}
   2795a:	c83c      	ldmia	r0!, {r2, r3, r4, r5}
   2795c:	c13c      	stmia	r1!, {r2, r3, r4, r5}
   2795e:	8800      	ldrh	r0, [r0, #0]
   27960:	8008      	strh	r0, [r1, #0]
   27962:	9d0a      	ldr	r5, [sp, #40]	@ 0x28
   27964:	7035      	strb	r5, [r6, #0]
   27966:	9809      	ldr	r0, [sp, #36]	@ 0x24
   27968:	9908      	ldr	r1, [sp, #32]
   2796a:	6601      	str	r1, [r0, #96]	@ 0x60
   2796c:	4c57      	ldr	r4, [pc, #348]	@ (27acc <_start+0xa2c>)
   2796e:	446c      	add	r4, sp
   27970:	1c60      	adds	r0, r4, #1
   27972:	210e      	movs	r1, #14
   27974:	4606      	mov	r6, r0
   27976:	f002 fc41 	bl	2a1fc <__aeabi_memclr>
   2797a:	7025      	strb	r5, [r4, #0]
   2797c:	4855      	ldr	r0, [pc, #340]	@ (27ad4 <_start+0xa34>)
   2797e:	2325      	movs	r3, #37	@ 0x25
   27980:	4629      	mov	r1, r5
   27982:	9a05      	ldr	r2, [sp, #20]
   27984:	df04      	svc	4
   27986:	2802      	cmp	r0, #2
   27988:	d101      	bne.n	2798e <_start+0x8ee>
   2798a:	460d      	mov	r5, r1
   2798c:	e02b      	b.n	279e6 <_start+0x946>
   2798e:	484e      	ldr	r0, [pc, #312]	@ (27ac8 <_start+0xa28>)
   27990:	4468      	add	r0, sp
   27992:	990b      	ldr	r1, [sp, #44]	@ 0x2c
   27994:	7001      	strb	r1, [r0, #0]
   27996:	484f      	ldr	r0, [pc, #316]	@ (27ad4 <_start+0xa34>)
   27998:	2108      	movs	r1, #8
   2799a:	230e      	movs	r3, #14
   2799c:	4632      	mov	r2, r6
   2799e:	df03      	svc	3
   279a0:	2802      	cmp	r0, #2
   279a2:	d10d      	bne.n	279c0 <_start+0x920>
   279a4:	460d      	mov	r5, r1
   279a6:	4849      	ldr	r0, [pc, #292]	@ (27acc <_start+0xa2c>)
   279a8:	4468      	add	r0, sp
   279aa:	7800      	ldrb	r0, [r0, #0]
   279ac:	2802      	cmp	r0, #2
   279ae:	d01a      	beq.n	279e6 <_start+0x946>
   279b0:	2803      	cmp	r0, #3
   279b2:	d013      	beq.n	279dc <_start+0x93c>
   279b4:	4847      	ldr	r0, [pc, #284]	@ (27ad4 <_start+0xa34>)
   279b6:	2108      	movs	r1, #8
   279b8:	2200      	movs	r2, #0
   279ba:	4613      	mov	r3, r2
   279bc:	df04      	svc	4
   279be:	e012      	b.n	279e6 <_start+0x946>
   279c0:	4842      	ldr	r0, [pc, #264]	@ (27acc <_start+0xa2c>)
   279c2:	4468      	add	r0, sp
   279c4:	9901      	ldr	r1, [sp, #4]
   279c6:	7001      	strb	r1, [r0, #0]
   279c8:	4842      	ldr	r0, [pc, #264]	@ (27ad4 <_start+0xa34>)
   279ca:	2102      	movs	r1, #2
   279cc:	2208      	movs	r2, #8
   279ce:	2400      	movs	r4, #0
   279d0:	910b      	str	r1, [sp, #44]	@ 0x2c
   279d2:	4623      	mov	r3, r4
   279d4:	df02      	svc	2
   279d6:	287f      	cmp	r0, #127	@ 0x7f
   279d8:	d81c      	bhi.n	27a14 <_start+0x974>
   279da:	460d      	mov	r5, r1
   279dc:	483d      	ldr	r0, [pc, #244]	@ (27ad4 <_start+0xa34>)
   279de:	2108      	movs	r1, #8
   279e0:	2200      	movs	r2, #0
   279e2:	4613      	mov	r3, r2
   279e4:	df03      	svc	3
   279e6:	4838      	ldr	r0, [pc, #224]	@ (27ac8 <_start+0xa28>)
   279e8:	4468      	add	r0, sp
   279ea:	7800      	ldrb	r0, [r0, #0]
   279ec:	2802      	cmp	r0, #2
   279ee:	d101      	bne.n	279f4 <_start+0x954>
   279f0:	f7ff fbb4 	bl	2715c <_start+0xbc>
   279f4:	2803      	cmp	r0, #3
   279f6:	d106      	bne.n	27a06 <_start+0x966>
   279f8:	4836      	ldr	r0, [pc, #216]	@ (27ad4 <_start+0xa34>)
   279fa:	2102      	movs	r1, #2
   279fc:	2200      	movs	r2, #0
   279fe:	4613      	mov	r3, r2
   27a00:	df03      	svc	3
   27a02:	f7ff fbab 	bl	2715c <_start+0xbc>
   27a06:	4833      	ldr	r0, [pc, #204]	@ (27ad4 <_start+0xa34>)
   27a08:	2102      	movs	r1, #2
   27a0a:	2200      	movs	r2, #0
   27a0c:	4613      	mov	r3, r2
   27a0e:	df04      	svc	4
   27a10:	f7ff fba4 	bl	2715c <_start+0xbc>
   27a14:	482c      	ldr	r0, [pc, #176]	@ (27ac8 <_start+0xa28>)
   27a16:	4468      	add	r0, sp
   27a18:	7800      	ldrb	r0, [r0, #0]
   27a1a:	2802      	cmp	r0, #2
   27a1c:	d029      	beq.n	27a72 <_start+0x9d2>
   27a1e:	2803      	cmp	r0, #3
   27a20:	d105      	bne.n	27a2e <_start+0x98e>
   27a22:	482c      	ldr	r0, [pc, #176]	@ (27ad4 <_start+0xa34>)
   27a24:	2102      	movs	r1, #2
   27a26:	2200      	movs	r2, #0
   27a28:	4613      	mov	r3, r2
   27a2a:	df03      	svc	3
   27a2c:	e004      	b.n	27a38 <_start+0x998>
   27a2e:	4829      	ldr	r0, [pc, #164]	@ (27ad4 <_start+0xa34>)
   27a30:	2102      	movs	r1, #2
   27a32:	2200      	movs	r2, #0
   27a34:	4613      	mov	r3, r2
   27a36:	df04      	svc	4
   27a38:	4823      	ldr	r0, [pc, #140]	@ (27ac8 <_start+0xa28>)
   27a3a:	4468      	add	r0, sp
   27a3c:	990b      	ldr	r1, [sp, #44]	@ 0x2c
   27a3e:	7001      	strb	r1, [r0, #0]
   27a40:	4822      	ldr	r0, [pc, #136]	@ (27acc <_start+0xa2c>)
   27a42:	4468      	add	r0, sp
   27a44:	7800      	ldrb	r0, [r0, #0]
   27a46:	2803      	cmp	r0, #3
   27a48:	d013      	beq.n	27a72 <_start+0x9d2>
   27a4a:	2802      	cmp	r0, #2
   27a4c:	d117      	bne.n	27a7e <_start+0x9de>
   27a4e:	78b0      	ldrb	r0, [r6, #2]
   27a50:	a92f      	add	r1, sp, #188	@ 0xbc
   27a52:	7088      	strb	r0, [r1, #2]
   27a54:	7830      	ldrb	r0, [r6, #0]
   27a56:	7872      	ldrb	r2, [r6, #1]
   27a58:	0212      	lsls	r2, r2, #8
   27a5a:	1810      	adds	r0, r2, r0
   27a5c:	8008      	strh	r0, [r1, #0]
   27a5e:	9807      	ldr	r0, [sp, #28]
   27a60:	6806      	ldr	r6, [r0, #0]
   27a62:	491a      	ldr	r1, [pc, #104]	@ (27acc <_start+0xa2c>)
   27a64:	4469      	add	r1, sp
   27a66:	3108      	adds	r1, #8
   27a68:	a81f      	add	r0, sp, #124	@ 0x7c
   27a6a:	2207      	movs	r2, #7
   27a6c:	f002 fd86 	bl	2a57c <__aeabi_memcpy>
   27a70:	e033      	b.n	27ada <_start+0xa3a>
   27a72:	4818      	ldr	r0, [pc, #96]	@ (27ad4 <_start+0xa34>)
   27a74:	2108      	movs	r1, #8
   27a76:	2200      	movs	r2, #0
   27a78:	4613      	mov	r3, r2
   27a7a:	df03      	svc	3
   27a7c:	e004      	b.n	27a88 <_start+0x9e8>
   27a7e:	4815      	ldr	r0, [pc, #84]	@ (27ad4 <_start+0xa34>)
   27a80:	2108      	movs	r1, #8
   27a82:	2200      	movs	r2, #0
   27a84:	4613      	mov	r3, r2
   27a86:	df04      	svc	4
   27a88:	78b0      	ldrb	r0, [r6, #2]
   27a8a:	a92f      	add	r1, sp, #188	@ 0xbc
   27a8c:	7088      	strb	r0, [r1, #2]
   27a8e:	7830      	ldrb	r0, [r6, #0]
   27a90:	7872      	ldrb	r2, [r6, #1]
   27a92:	0212      	lsls	r2, r2, #8
   27a94:	1810      	adds	r0, r2, r0
   27a96:	8008      	strh	r0, [r1, #0]
   27a98:	480b      	ldr	r0, [pc, #44]	@ (27ac8 <_start+0xa28>)
   27a9a:	4468      	add	r0, sp
   27a9c:	7805      	ldrb	r5, [r0, #0]
   27a9e:	9807      	ldr	r0, [sp, #28]
   27aa0:	6806      	ldr	r6, [r0, #0]
   27aa2:	490a      	ldr	r1, [pc, #40]	@ (27acc <_start+0xa2c>)
   27aa4:	4469      	add	r1, sp
   27aa6:	3108      	adds	r1, #8
   27aa8:	a81f      	add	r0, sp, #124	@ 0x7c
   27aaa:	2207      	movs	r2, #7
   27aac:	f002 fd66 	bl	2a57c <__aeabi_memcpy>
   27ab0:	2d02      	cmp	r5, #2
   27ab2:	d012      	beq.n	27ada <_start+0xa3a>
   27ab4:	4807      	ldr	r0, [pc, #28]	@ (27ad4 <_start+0xa34>)
   27ab6:	2102      	movs	r1, #2
   27ab8:	2200      	movs	r2, #0
   27aba:	4613      	mov	r3, r2
   27abc:	2d03      	cmp	r5, #3
   27abe:	d10b      	bne.n	27ad8 <_start+0xa38>
   27ac0:	df03      	svc	3
   27ac2:	e00a      	b.n	27ada <_start+0xa3a>
   27ac4:	0000021f 	.word	0x0000021f
   27ac8:	00001404 	.word	0x00001404
   27acc:	000013a8 	.word	0x000013a8
   27ad0:	00001597 	.word	0x00001597
   27ad4:	00000667 	.word	0x00000667
   27ad8:	df04      	svc	4
   27ada:	ad35      	add	r5, sp, #212	@ 0xd4
   27adc:	982f      	ldr	r0, [sp, #188]	@ 0xbc
   27ade:	8028      	strh	r0, [r5, #0]
   27ae0:	a82f      	add	r0, sp, #188	@ 0xbc
   27ae2:	7880      	ldrb	r0, [r0, #2]
   27ae4:	70a8      	strb	r0, [r5, #2]
   27ae6:	a81f      	add	r0, sp, #124	@ 0x7c
   27ae8:	a90c      	add	r1, sp, #48	@ 0x30
   27aea:	460a      	mov	r2, r1
   27aec:	c808      	ldmia	r0!, {r3}
   27aee:	c208      	stmia	r2!, {r3}
   27af0:	8803      	ldrh	r3, [r0, #0]
   27af2:	8013      	strh	r3, [r2, #0]
   27af4:	7880      	ldrb	r0, [r0, #2]
   27af6:	7090      	strb	r0, [r2, #2]
   27af8:	0e30      	lsrs	r0, r6, #24
   27afa:	71a8      	strb	r0, [r5, #6]
   27afc:	0c30      	lsrs	r0, r6, #16
   27afe:	7168      	strb	r0, [r5, #5]
   27b00:	0a30      	lsrs	r0, r6, #8
   27b02:	7128      	strb	r0, [r5, #4]
   27b04:	70ee      	strb	r6, [r5, #3]
   27b06:	1de8      	adds	r0, r5, #7
   27b08:	2207      	movs	r2, #7
   27b0a:	f002 fd37 	bl	2a57c <__aeabi_memcpy>
   27b0e:	4e05      	ldr	r6, [pc, #20]	@ (27b24 <_start+0xa84>)
   27b10:	446e      	add	r6, sp
   27b12:	4630      	mov	r0, r6
   27b14:	4629      	mov	r1, r5
   27b16:	f7fb fa21 	bl	22f5c <_ZN20complex_dynamic_type3app17h82838d2dc1af1a1aE>
   27b1a:	7830      	ldrb	r0, [r6, #0]
   27b1c:	2801      	cmp	r0, #1
   27b1e:	d103      	bne.n	27b28 <_start+0xa88>
   27b20:	f002 fb4c 	bl	2a1bc <_start+0x311c>
   27b24:	00001404 	.word	0x00001404
   27b28:	4915      	ldr	r1, [pc, #84]	@ (27b80 <_start+0xae0>)
   27b2a:	4469      	add	r1, sp
   27b2c:	78c8      	ldrb	r0, [r1, #3]
   27b2e:	ad39      	add	r5, sp, #228	@ 0xe4
   27b30:	70a8      	strb	r0, [r5, #2]
   27b32:	7848      	ldrb	r0, [r1, #1]
   27b34:	788a      	ldrb	r2, [r1, #2]
   27b36:	0212      	lsls	r2, r2, #8
   27b38:	1810      	adds	r0, r2, r0
   27b3a:	8028      	strh	r0, [r5, #0]
   27b3c:	9809      	ldr	r0, [sp, #36]	@ 0x24
   27b3e:	6e06      	ldr	r6, [r0, #96]	@ 0x60
   27b40:	3108      	adds	r1, #8
   27b42:	4810      	ldr	r0, [pc, #64]	@ (27b84 <_start+0xae4>)
   27b44:	4468      	add	r0, sp
   27b46:	900b      	str	r0, [sp, #44]	@ 0x2c
   27b48:	2241      	movs	r2, #65	@ 0x41
   27b4a:	920a      	str	r2, [sp, #40]	@ 0x28
   27b4c:	f002 fbb6 	bl	2a2bc <__aeabi_memcpy4>
   27b50:	0e30      	lsrs	r0, r6, #24
   27b52:	71a8      	strb	r0, [r5, #6]
   27b54:	0c30      	lsrs	r0, r6, #16
   27b56:	7168      	strb	r0, [r5, #5]
   27b58:	0a30      	lsrs	r0, r6, #8
   27b5a:	7128      	strb	r0, [r5, #4]
   27b5c:	70ee      	strb	r6, [r5, #3]
   27b5e:	1de8      	adds	r0, r5, #7
   27b60:	990b      	ldr	r1, [sp, #44]	@ 0x2c
   27b62:	9a0a      	ldr	r2, [sp, #40]	@ 0x28
   27b64:	f002 fd0a 	bl	2a57c <__aeabi_memcpy>
   27b68:	4e05      	ldr	r6, [pc, #20]	@ (27b80 <_start+0xae0>)
   27b6a:	446e      	add	r6, sp
   27b6c:	4630      	mov	r0, r6
   27b6e:	4629      	mov	r1, r5
   27b70:	f7fc fac0 	bl	240f4 <_ZN20complex_dynamic_type3app17ha002006dd8f98a0fE>
   27b74:	7830      	ldrb	r0, [r6, #0]
   27b76:	2801      	cmp	r0, #1
   27b78:	d106      	bne.n	27b88 <_start+0xae8>
   27b7a:	f002 fb1f 	bl	2a1bc <_start+0x311c>
   27b7e:	46c0      	nop			@ (mov r8, r8)
   27b80:	00001404 	.word	0x00001404
   27b84:	000013a8 	.word	0x000013a8
   27b88:	9806      	ldr	r0, [sp, #24]
   27b8a:	1cc0      	adds	r0, r0, #3
   27b8c:	4a15      	ldr	r2, [pc, #84]	@ (27be4 <_start+0xb44>)
   27b8e:	446a      	add	r2, sp
   27b90:	78d3      	ldrb	r3, [r2, #3]
   27b92:	a94b      	add	r1, sp, #300	@ 0x12c
   27b94:	708b      	strb	r3, [r1, #2]
   27b96:	7853      	ldrb	r3, [r2, #1]
   27b98:	7892      	ldrb	r2, [r2, #2]
   27b9a:	0212      	lsls	r2, r2, #8
   27b9c:	18d2      	adds	r2, r2, r3
   27b9e:	800a      	strh	r2, [r1, #0]
   27ba0:	9d09      	ldr	r5, [sp, #36]	@ 0x24
   27ba2:	3560      	adds	r5, #96	@ 0x60
   27ba4:	cd2c      	ldmia	r5, {r2, r3, r5}
   27ba6:	0e2e      	lsrs	r6, r5, #24
   27ba8:	72c6      	strb	r6, [r0, #11]
   27baa:	0c2e      	lsrs	r6, r5, #16
   27bac:	7286      	strb	r6, [r0, #10]
   27bae:	0a2e      	lsrs	r6, r5, #8
   27bb0:	7246      	strb	r6, [r0, #9]
   27bb2:	7205      	strb	r5, [r0, #8]
   27bb4:	0e1d      	lsrs	r5, r3, #24
   27bb6:	71c5      	strb	r5, [r0, #7]
   27bb8:	0c1d      	lsrs	r5, r3, #16
   27bba:	7185      	strb	r5, [r0, #6]
   27bbc:	0a1d      	lsrs	r5, r3, #8
   27bbe:	7145      	strb	r5, [r0, #5]
   27bc0:	7103      	strb	r3, [r0, #4]
   27bc2:	0e13      	lsrs	r3, r2, #24
   27bc4:	70c3      	strb	r3, [r0, #3]
   27bc6:	0c13      	lsrs	r3, r2, #16
   27bc8:	7083      	strb	r3, [r0, #2]
   27bca:	0a13      	lsrs	r3, r2, #8
   27bcc:	7043      	strb	r3, [r0, #1]
   27bce:	7002      	strb	r2, [r0, #0]
   27bd0:	4d04      	ldr	r5, [pc, #16]	@ (27be4 <_start+0xb44>)
   27bd2:	446d      	add	r5, sp
   27bd4:	4628      	mov	r0, r5
   27bd6:	f7fd fff9 	bl	25bcc <_ZN20complex_dynamic_type3app17hdaee2da42808b8b6E>
   27bda:	7828      	ldrb	r0, [r5, #0]
   27bdc:	2801      	cmp	r0, #1
   27bde:	d103      	bne.n	27be8 <_start+0xb48>
   27be0:	f002 faec 	bl	2a1bc <_start+0x311c>
   27be4:	00001404 	.word	0x00001404
   27be8:	4818      	ldr	r0, [pc, #96]	@ (27c4c <_start+0xbac>)
   27bea:	4468      	add	r0, sp
   27bec:	78c1      	ldrb	r1, [r0, #3]
   27bee:	ab4f      	add	r3, sp, #316	@ 0x13c
   27bf0:	930a      	str	r3, [sp, #40]	@ 0x28
   27bf2:	7099      	strb	r1, [r3, #2]
   27bf4:	7841      	ldrb	r1, [r0, #1]
   27bf6:	7882      	ldrb	r2, [r0, #2]
   27bf8:	0212      	lsls	r2, r2, #8
   27bfa:	1851      	adds	r1, r2, r1
   27bfc:	8019      	strh	r1, [r3, #0]
   27bfe:	3008      	adds	r0, #8
   27c00:	9909      	ldr	r1, [sp, #36]	@ 0x24
   27c02:	6e09      	ldr	r1, [r1, #96]	@ 0x60
   27c04:	9108      	str	r1, [sp, #32]
   27c06:	4b12      	ldr	r3, [pc, #72]	@ (27c50 <_start+0xbb0>)
   27c08:	446b      	add	r3, sp
   27c0a:	930b      	str	r3, [sp, #44]	@ 0x2c
   27c0c:	c846      	ldmia	r0!, {r1, r2, r6}
   27c0e:	c346      	stmia	r3!, {r1, r2, r6}
   27c10:	c866      	ldmia	r0!, {r1, r2, r5, r6}
   27c12:	c366      	stmia	r3!, {r1, r2, r5, r6}
   27c14:	8800      	ldrh	r0, [r0, #0]
   27c16:	8018      	strh	r0, [r3, #0]
   27c18:	9908      	ldr	r1, [sp, #32]
   27c1a:	0e08      	lsrs	r0, r1, #24
   27c1c:	9d0a      	ldr	r5, [sp, #40]	@ 0x28
   27c1e:	71a8      	strb	r0, [r5, #6]
   27c20:	0c08      	lsrs	r0, r1, #16
   27c22:	7168      	strb	r0, [r5, #5]
   27c24:	0a08      	lsrs	r0, r1, #8
   27c26:	7128      	strb	r0, [r5, #4]
   27c28:	70e9      	strb	r1, [r5, #3]
   27c2a:	1de8      	adds	r0, r5, #7
   27c2c:	221e      	movs	r2, #30
   27c2e:	990b      	ldr	r1, [sp, #44]	@ 0x2c
   27c30:	f002 fca4 	bl	2a57c <__aeabi_memcpy>
   27c34:	4e05      	ldr	r6, [pc, #20]	@ (27c4c <_start+0xbac>)
   27c36:	446e      	add	r6, sp
   27c38:	4630      	mov	r0, r6
   27c3a:	4629      	mov	r1, r5
   27c3c:	f7f9 f946 	bl	20ecc <_ZN20complex_dynamic_type3app17h255dadcd05bc2f29E>
   27c40:	7830      	ldrb	r0, [r6, #0]
   27c42:	2801      	cmp	r0, #1
   27c44:	d106      	bne.n	27c54 <_start+0xbb4>
   27c46:	f002 fab9 	bl	2a1bc <_start+0x311c>
   27c4a:	46c0      	nop			@ (mov r8, r8)
   27c4c:	00001404 	.word	0x00001404
   27c50:	000013a8 	.word	0x000013a8
   27c54:	4819      	ldr	r0, [pc, #100]	@ (27cbc <_start+0xc1c>)
   27c56:	4468      	add	r0, sp
   27c58:	78c1      	ldrb	r1, [r0, #3]
   27c5a:	ab59      	add	r3, sp, #356	@ 0x164
   27c5c:	930a      	str	r3, [sp, #40]	@ 0x28
   27c5e:	7099      	strb	r1, [r3, #2]
   27c60:	7841      	ldrb	r1, [r0, #1]
   27c62:	7882      	ldrb	r2, [r0, #2]
   27c64:	0212      	lsls	r2, r2, #8
   27c66:	1851      	adds	r1, r2, r1
   27c68:	8019      	strh	r1, [r3, #0]
   27c6a:	3008      	adds	r0, #8
   27c6c:	9909      	ldr	r1, [sp, #36]	@ 0x24
   27c6e:	6e09      	ldr	r1, [r1, #96]	@ 0x60
   27c70:	9108      	str	r1, [sp, #32]
   27c72:	4b13      	ldr	r3, [pc, #76]	@ (27cc0 <_start+0xc20>)
   27c74:	446b      	add	r3, sp
   27c76:	930b      	str	r3, [sp, #44]	@ 0x2c
   27c78:	c866      	ldmia	r0!, {r1, r2, r5, r6}
   27c7a:	c366      	stmia	r3!, {r1, r2, r5, r6}
   27c7c:	c866      	ldmia	r0!, {r1, r2, r5, r6}
   27c7e:	c366      	stmia	r3!, {r1, r2, r5, r6}
   27c80:	8801      	ldrh	r1, [r0, #0]
   27c82:	8019      	strh	r1, [r3, #0]
   27c84:	7880      	ldrb	r0, [r0, #2]
   27c86:	7098      	strb	r0, [r3, #2]
   27c88:	9908      	ldr	r1, [sp, #32]
   27c8a:	0e08      	lsrs	r0, r1, #24
   27c8c:	9d0a      	ldr	r5, [sp, #40]	@ 0x28
   27c8e:	71a8      	strb	r0, [r5, #6]
   27c90:	0c08      	lsrs	r0, r1, #16
   27c92:	7168      	strb	r0, [r5, #5]
   27c94:	0a08      	lsrs	r0, r1, #8
   27c96:	7128      	strb	r0, [r5, #4]
   27c98:	70e9      	strb	r1, [r5, #3]
   27c9a:	1de8      	adds	r0, r5, #7
   27c9c:	2223      	movs	r2, #35	@ 0x23
   27c9e:	990b      	ldr	r1, [sp, #44]	@ 0x2c
   27ca0:	f002 fc6c 	bl	2a57c <__aeabi_memcpy>
   27ca4:	4e05      	ldr	r6, [pc, #20]	@ (27cbc <_start+0xc1c>)
   27ca6:	446e      	add	r6, sp
   27ca8:	4630      	mov	r0, r6
   27caa:	4629      	mov	r1, r5
   27cac:	f7fa fafc 	bl	222a8 <_ZN20complex_dynamic_type3app17h53559da16dc74da5E>
   27cb0:	7830      	ldrb	r0, [r6, #0]
   27cb2:	2801      	cmp	r0, #1
   27cb4:	d106      	bne.n	27cc4 <_start+0xc24>
   27cb6:	f002 fa81 	bl	2a1bc <_start+0x311c>
   27cba:	46c0      	nop			@ (mov r8, r8)
   27cbc:	00001404 	.word	0x00001404
   27cc0:	000013a8 	.word	0x000013a8
   27cc4:	4915      	ldr	r1, [pc, #84]	@ (27d1c <_start+0xc7c>)
   27cc6:	4469      	add	r1, sp
   27cc8:	78c8      	ldrb	r0, [r1, #3]
   27cca:	ad64      	add	r5, sp, #400	@ 0x190
   27ccc:	70a8      	strb	r0, [r5, #2]
   27cce:	7848      	ldrb	r0, [r1, #1]
   27cd0:	788a      	ldrb	r2, [r1, #2]
   27cd2:	0212      	lsls	r2, r2, #8
   27cd4:	1810      	adds	r0, r2, r0
   27cd6:	8028      	strh	r0, [r5, #0]
   27cd8:	9809      	ldr	r0, [sp, #36]	@ 0x24
   27cda:	6e06      	ldr	r6, [r0, #96]	@ 0x60
   27cdc:	3108      	adds	r1, #8
   27cde:	4810      	ldr	r0, [pc, #64]	@ (27d20 <_start+0xc80>)
   27ce0:	4468      	add	r0, sp
   27ce2:	900b      	str	r0, [sp, #44]	@ 0x2c
   27ce4:	225c      	movs	r2, #92	@ 0x5c
   27ce6:	920a      	str	r2, [sp, #40]	@ 0x28
   27ce8:	f002 fae8 	bl	2a2bc <__aeabi_memcpy4>
   27cec:	0e30      	lsrs	r0, r6, #24
   27cee:	71a8      	strb	r0, [r5, #6]
   27cf0:	0c30      	lsrs	r0, r6, #16
   27cf2:	7168      	strb	r0, [r5, #5]
   27cf4:	0a30      	lsrs	r0, r6, #8
   27cf6:	7128      	strb	r0, [r5, #4]
   27cf8:	70ee      	strb	r6, [r5, #3]
   27cfa:	1de8      	adds	r0, r5, #7
   27cfc:	990b      	ldr	r1, [sp, #44]	@ 0x2c
   27cfe:	9a0a      	ldr	r2, [sp, #40]	@ 0x28
   27d00:	f002 fc3c 	bl	2a57c <__aeabi_memcpy>
   27d04:	4e05      	ldr	r6, [pc, #20]	@ (27d1c <_start+0xc7c>)
   27d06:	446e      	add	r6, sp
   27d08:	4630      	mov	r0, r6
   27d0a:	4629      	mov	r1, r5
   27d0c:	f7fc f8c8 	bl	23ea0 <_ZN20complex_dynamic_type3app17h9d71dfca921e9722E>
   27d10:	7830      	ldrb	r0, [r6, #0]
   27d12:	2801      	cmp	r0, #1
   27d14:	d106      	bne.n	27d24 <_start+0xc84>
   27d16:	f002 fa51 	bl	2a1bc <_start+0x311c>
   27d1a:	46c0      	nop			@ (mov r8, r8)
   27d1c:	00001404 	.word	0x00001404
   27d20:	000013a8 	.word	0x000013a8
   27d24:	4817      	ldr	r0, [pc, #92]	@ (27d84 <_start+0xce4>)
   27d26:	4468      	add	r0, sp
   27d28:	78c1      	ldrb	r1, [r0, #3]
   27d2a:	ab7d      	add	r3, sp, #500	@ 0x1f4
   27d2c:	930a      	str	r3, [sp, #40]	@ 0x28
   27d2e:	7099      	strb	r1, [r3, #2]
   27d30:	7841      	ldrb	r1, [r0, #1]
   27d32:	7882      	ldrb	r2, [r0, #2]
   27d34:	0212      	lsls	r2, r2, #8
   27d36:	1851      	adds	r1, r2, r1
   27d38:	8019      	strh	r1, [r3, #0]
   27d3a:	3008      	adds	r0, #8
   27d3c:	9909      	ldr	r1, [sp, #36]	@ 0x24
   27d3e:	6e09      	ldr	r1, [r1, #96]	@ 0x60
   27d40:	9108      	str	r1, [sp, #32]
   27d42:	4b11      	ldr	r3, [pc, #68]	@ (27d88 <_start+0xce8>)
   27d44:	446b      	add	r3, sp
   27d46:	930b      	str	r3, [sp, #44]	@ 0x2c
   27d48:	c866      	ldmia	r0!, {r1, r2, r5, r6}
   27d4a:	c366      	stmia	r3!, {r1, r2, r5, r6}
   27d4c:	c866      	ldmia	r0!, {r1, r2, r5, r6}
   27d4e:	c366      	stmia	r3!, {r1, r2, r5, r6}
   27d50:	9908      	ldr	r1, [sp, #32]
   27d52:	0e08      	lsrs	r0, r1, #24
   27d54:	9d0a      	ldr	r5, [sp, #40]	@ 0x28
   27d56:	71a8      	strb	r0, [r5, #6]
   27d58:	0c08      	lsrs	r0, r1, #16
   27d5a:	7168      	strb	r0, [r5, #5]
   27d5c:	0a08      	lsrs	r0, r1, #8
   27d5e:	7128      	strb	r0, [r5, #4]
   27d60:	70e9      	strb	r1, [r5, #3]
   27d62:	1de8      	adds	r0, r5, #7
   27d64:	2220      	movs	r2, #32
   27d66:	990b      	ldr	r1, [sp, #44]	@ 0x2c
   27d68:	f002 fc08 	bl	2a57c <__aeabi_memcpy>
   27d6c:	4e05      	ldr	r6, [pc, #20]	@ (27d84 <_start+0xce4>)
   27d6e:	446e      	add	r6, sp
   27d70:	4630      	mov	r0, r6
   27d72:	4629      	mov	r1, r5
   27d74:	f7fa fe12 	bl	2299c <_ZN20complex_dynamic_type3app17h5f4edb844f64d175E>
   27d78:	7830      	ldrb	r0, [r6, #0]
   27d7a:	2801      	cmp	r0, #1
   27d7c:	d106      	bne.n	27d8c <_start+0xcec>
   27d7e:	f002 fa1d 	bl	2a1bc <_start+0x311c>
   27d82:	46c0      	nop			@ (mov r8, r8)
   27d84:	00001404 	.word	0x00001404
   27d88:	000013a8 	.word	0x000013a8
   27d8c:	4818      	ldr	r0, [pc, #96]	@ (27df0 <_start+0xd50>)
   27d8e:	4468      	add	r0, sp
   27d90:	78c1      	ldrb	r1, [r0, #3]
   27d92:	ad87      	add	r5, sp, #540	@ 0x21c
   27d94:	70a9      	strb	r1, [r5, #2]
   27d96:	7841      	ldrb	r1, [r0, #1]
   27d98:	7882      	ldrb	r2, [r0, #2]
   27d9a:	0212      	lsls	r2, r2, #8
   27d9c:	1851      	adds	r1, r2, r1
   27d9e:	8029      	strh	r1, [r5, #0]
   27da0:	3008      	adds	r0, #8
   27da2:	9909      	ldr	r1, [sp, #36]	@ 0x24
   27da4:	6e09      	ldr	r1, [r1, #96]	@ 0x60
   27da6:	910a      	str	r1, [sp, #40]	@ 0x28
   27da8:	4b12      	ldr	r3, [pc, #72]	@ (27df4 <_start+0xd54>)
   27daa:	446b      	add	r3, sp
   27dac:	930b      	str	r3, [sp, #44]	@ 0x2c
   27dae:	c844      	ldmia	r0!, {r2, r6}
   27db0:	c344      	stmia	r3!, {r2, r6}
   27db2:	c846      	ldmia	r0!, {r1, r2, r6}
   27db4:	c346      	stmia	r3!, {r1, r2, r6}
   27db6:	8801      	ldrh	r1, [r0, #0]
   27db8:	8019      	strh	r1, [r3, #0]
   27dba:	7880      	ldrb	r0, [r0, #2]
   27dbc:	7098      	strb	r0, [r3, #2]
   27dbe:	990a      	ldr	r1, [sp, #40]	@ 0x28
   27dc0:	0e08      	lsrs	r0, r1, #24
   27dc2:	71a8      	strb	r0, [r5, #6]
   27dc4:	0c08      	lsrs	r0, r1, #16
   27dc6:	7168      	strb	r0, [r5, #5]
   27dc8:	0a08      	lsrs	r0, r1, #8
   27dca:	7128      	strb	r0, [r5, #4]
   27dcc:	70e9      	strb	r1, [r5, #3]
   27dce:	1de8      	adds	r0, r5, #7
   27dd0:	2217      	movs	r2, #23
   27dd2:	990b      	ldr	r1, [sp, #44]	@ 0x2c
   27dd4:	f002 fbd2 	bl	2a57c <__aeabi_memcpy>
   27dd8:	4e05      	ldr	r6, [pc, #20]	@ (27df0 <_start+0xd50>)
   27dda:	446e      	add	r6, sp
   27ddc:	4630      	mov	r0, r6
   27dde:	4629      	mov	r1, r5
   27de0:	f7fa f808 	bl	21df4 <_ZN20complex_dynamic_type3app17h4a8007f520d0b27dE>
   27de4:	7830      	ldrb	r0, [r6, #0]
   27de6:	2801      	cmp	r0, #1
   27de8:	d106      	bne.n	27df8 <_start+0xd58>
   27dea:	f002 f9e7 	bl	2a1bc <_start+0x311c>
   27dee:	46c0      	nop			@ (mov r8, r8)
   27df0:	00001404 	.word	0x00001404
   27df4:	000013a8 	.word	0x000013a8
   27df8:	4818      	ldr	r0, [pc, #96]	@ (27e5c <_start+0xdbc>)
   27dfa:	4468      	add	r0, sp
   27dfc:	78c1      	ldrb	r1, [r0, #3]
   27dfe:	ad8f      	add	r5, sp, #572	@ 0x23c
   27e00:	70a9      	strb	r1, [r5, #2]
   27e02:	7841      	ldrb	r1, [r0, #1]
   27e04:	7882      	ldrb	r2, [r0, #2]
   27e06:	0212      	lsls	r2, r2, #8
   27e08:	1851      	adds	r1, r2, r1
   27e0a:	8029      	strh	r1, [r5, #0]
   27e0c:	3008      	adds	r0, #8
   27e0e:	9909      	ldr	r1, [sp, #36]	@ 0x24
   27e10:	6e09      	ldr	r1, [r1, #96]	@ 0x60
   27e12:	910a      	str	r1, [sp, #40]	@ 0x28
   27e14:	4b12      	ldr	r3, [pc, #72]	@ (27e60 <_start+0xdc0>)
   27e16:	446b      	add	r3, sp
   27e18:	930b      	str	r3, [sp, #44]	@ 0x2c
   27e1a:	c846      	ldmia	r0!, {r1, r2, r6}
   27e1c:	c346      	stmia	r3!, {r1, r2, r6}
   27e1e:	c846      	ldmia	r0!, {r1, r2, r6}
   27e20:	c346      	stmia	r3!, {r1, r2, r6}
   27e22:	c846      	ldmia	r0!, {r1, r2, r6}
   27e24:	c346      	stmia	r3!, {r1, r2, r6}
   27e26:	7800      	ldrb	r0, [r0, #0]
   27e28:	7018      	strb	r0, [r3, #0]
   27e2a:	990a      	ldr	r1, [sp, #40]	@ 0x28
   27e2c:	0e08      	lsrs	r0, r1, #24
   27e2e:	71a8      	strb	r0, [r5, #6]
   27e30:	0c08      	lsrs	r0, r1, #16
   27e32:	7168      	strb	r0, [r5, #5]
   27e34:	0a08      	lsrs	r0, r1, #8
   27e36:	7128      	strb	r0, [r5, #4]
   27e38:	70e9      	strb	r1, [r5, #3]
   27e3a:	1de8      	adds	r0, r5, #7
   27e3c:	2225      	movs	r2, #37	@ 0x25
   27e3e:	990b      	ldr	r1, [sp, #44]	@ 0x2c
   27e40:	f002 fb9c 	bl	2a57c <__aeabi_memcpy>
   27e44:	4e05      	ldr	r6, [pc, #20]	@ (27e5c <_start+0xdbc>)
   27e46:	446e      	add	r6, sp
   27e48:	4630      	mov	r0, r6
   27e4a:	4629      	mov	r1, r5
   27e4c:	f7fd fcf4 	bl	25838 <_ZN20complex_dynamic_type3app17hd53cbe71dbfc80f3E>
   27e50:	7830      	ldrb	r0, [r6, #0]
   27e52:	2801      	cmp	r0, #1
   27e54:	d106      	bne.n	27e64 <_start+0xdc4>
   27e56:	f002 f9b1 	bl	2a1bc <_start+0x311c>
   27e5a:	46c0      	nop			@ (mov r8, r8)
   27e5c:	00001404 	.word	0x00001404
   27e60:	000013a8 	.word	0x000013a8
   27e64:	4818      	ldr	r0, [pc, #96]	@ (27ec8 <_start+0xe28>)
   27e66:	4468      	add	r0, sp
   27e68:	78c1      	ldrb	r1, [r0, #3]
   27e6a:	ab9a      	add	r3, sp, #616	@ 0x268
   27e6c:	930a      	str	r3, [sp, #40]	@ 0x28
   27e6e:	7099      	strb	r1, [r3, #2]
   27e70:	7841      	ldrb	r1, [r0, #1]
   27e72:	7882      	ldrb	r2, [r0, #2]
   27e74:	0212      	lsls	r2, r2, #8
   27e76:	1851      	adds	r1, r2, r1
   27e78:	8019      	strh	r1, [r3, #0]
   27e7a:	3008      	adds	r0, #8
   27e7c:	9909      	ldr	r1, [sp, #36]	@ 0x24
   27e7e:	6e09      	ldr	r1, [r1, #96]	@ 0x60
   27e80:	9108      	str	r1, [sp, #32]
   27e82:	4b12      	ldr	r3, [pc, #72]	@ (27ecc <_start+0xe2c>)
   27e84:	446b      	add	r3, sp
   27e86:	930b      	str	r3, [sp, #44]	@ 0x2c
   27e88:	c846      	ldmia	r0!, {r1, r2, r6}
   27e8a:	c346      	stmia	r3!, {r1, r2, r6}
   27e8c:	c866      	ldmia	r0!, {r1, r2, r5, r6}
   27e8e:	c366      	stmia	r3!, {r1, r2, r5, r6}
   27e90:	8800      	ldrh	r0, [r0, #0]
   27e92:	8018      	strh	r0, [r3, #0]
   27e94:	9908      	ldr	r1, [sp, #32]
   27e96:	0e08      	lsrs	r0, r1, #24
   27e98:	9d0a      	ldr	r5, [sp, #40]	@ 0x28
   27e9a:	71a8      	strb	r0, [r5, #6]
   27e9c:	0c08      	lsrs	r0, r1, #16
   27e9e:	7168      	strb	r0, [r5, #5]
   27ea0:	0a08      	lsrs	r0, r1, #8
   27ea2:	7128      	strb	r0, [r5, #4]
   27ea4:	70e9      	strb	r1, [r5, #3]
   27ea6:	1de8      	adds	r0, r5, #7
   27ea8:	221e      	movs	r2, #30
   27eaa:	990b      	ldr	r1, [sp, #44]	@ 0x2c
   27eac:	f002 fb66 	bl	2a57c <__aeabi_memcpy>
   27eb0:	4e05      	ldr	r6, [pc, #20]	@ (27ec8 <_start+0xe28>)
   27eb2:	446e      	add	r6, sp
   27eb4:	4630      	mov	r0, r6
   27eb6:	4629      	mov	r1, r5
   27eb8:	f7f8 fa40 	bl	2033c <_ZN20complex_dynamic_type3app17h00db8c3e0db7e02aE>
   27ebc:	7830      	ldrb	r0, [r6, #0]
   27ebe:	2801      	cmp	r0, #1
   27ec0:	d106      	bne.n	27ed0 <_start+0xe30>
   27ec2:	f002 f97b 	bl	2a1bc <_start+0x311c>
   27ec6:	46c0      	nop			@ (mov r8, r8)
   27ec8:	00001404 	.word	0x00001404
   27ecc:	000013a8 	.word	0x000013a8
   27ed0:	4819      	ldr	r0, [pc, #100]	@ (27f38 <_start+0xe98>)
   27ed2:	4468      	add	r0, sp
   27ed4:	78c1      	ldrb	r1, [r0, #3]
   27ed6:	aba4      	add	r3, sp, #656	@ 0x290
   27ed8:	9307      	str	r3, [sp, #28]
   27eda:	7099      	strb	r1, [r3, #2]
   27edc:	7841      	ldrb	r1, [r0, #1]
   27ede:	7882      	ldrb	r2, [r0, #2]
   27ee0:	0212      	lsls	r2, r2, #8
   27ee2:	1851      	adds	r1, r2, r1
   27ee4:	8019      	strh	r1, [r3, #0]
   27ee6:	3008      	adds	r0, #8
   27ee8:	9909      	ldr	r1, [sp, #36]	@ 0x24
   27eea:	6e09      	ldr	r1, [r1, #96]	@ 0x60
   27eec:	9108      	str	r1, [sp, #32]
   27eee:	4913      	ldr	r1, [pc, #76]	@ (27f3c <_start+0xe9c>)
   27ef0:	4469      	add	r1, sp
   27ef2:	910a      	str	r1, [sp, #40]	@ 0x28
   27ef4:	910b      	str	r1, [sp, #44]	@ 0x2c
   27ef6:	9d0b      	ldr	r5, [sp, #44]	@ 0x2c
   27ef8:	c84e      	ldmia	r0!, {r1, r2, r3, r6}
   27efa:	c54e      	stmia	r5!, {r1, r2, r3, r6}
   27efc:	950b      	str	r5, [sp, #44]	@ 0x2c
   27efe:	7800      	ldrb	r0, [r0, #0]
   27f00:	990b      	ldr	r1, [sp, #44]	@ 0x2c
   27f02:	7008      	strb	r0, [r1, #0]
   27f04:	9908      	ldr	r1, [sp, #32]
   27f06:	0e08      	lsrs	r0, r1, #24
   27f08:	9d07      	ldr	r5, [sp, #28]
   27f0a:	71a8      	strb	r0, [r5, #6]
   27f0c:	0c08      	lsrs	r0, r1, #16
   27f0e:	7168      	strb	r0, [r5, #5]
   27f10:	0a08      	lsrs	r0, r1, #8
   27f12:	7128      	strb	r0, [r5, #4]
   27f14:	70e9      	strb	r1, [r5, #3]
   27f16:	1de8      	adds	r0, r5, #7
   27f18:	2211      	movs	r2, #17
   27f1a:	990a      	ldr	r1, [sp, #40]	@ 0x28
   27f1c:	f002 fb2e 	bl	2a57c <__aeabi_memcpy>
   27f20:	4e05      	ldr	r6, [pc, #20]	@ (27f38 <_start+0xe98>)
   27f22:	446e      	add	r6, sp
   27f24:	4630      	mov	r0, r6
   27f26:	4629      	mov	r1, r5
   27f28:	f7fe fa5a 	bl	263e0 <_ZN20complex_dynamic_type3app17heafd76246e3f79afE>
   27f2c:	7830      	ldrb	r0, [r6, #0]
   27f2e:	2801      	cmp	r0, #1
   27f30:	d106      	bne.n	27f40 <_start+0xea0>
   27f32:	f002 f943 	bl	2a1bc <_start+0x311c>
   27f36:	46c0      	nop			@ (mov r8, r8)
   27f38:	00001404 	.word	0x00001404
   27f3c:	000013a8 	.word	0x000013a8
   27f40:	481a      	ldr	r0, [pc, #104]	@ (27fac <_start+0xf0c>)
   27f42:	4468      	add	r0, sp
   27f44:	78c1      	ldrb	r1, [r0, #3]
   27f46:	abaa      	add	r3, sp, #680	@ 0x2a8
   27f48:	930a      	str	r3, [sp, #40]	@ 0x28
   27f4a:	7099      	strb	r1, [r3, #2]
   27f4c:	7841      	ldrb	r1, [r0, #1]
   27f4e:	7882      	ldrb	r2, [r0, #2]
   27f50:	0212      	lsls	r2, r2, #8
   27f52:	1851      	adds	r1, r2, r1
   27f54:	8019      	strh	r1, [r3, #0]
   27f56:	3008      	adds	r0, #8
   27f58:	9909      	ldr	r1, [sp, #36]	@ 0x24
   27f5a:	6e09      	ldr	r1, [r1, #96]	@ 0x60
   27f5c:	9108      	str	r1, [sp, #32]
   27f5e:	4b14      	ldr	r3, [pc, #80]	@ (27fb0 <_start+0xf10>)
   27f60:	446b      	add	r3, sp
   27f62:	930b      	str	r3, [sp, #44]	@ 0x2c
   27f64:	c846      	ldmia	r0!, {r1, r2, r6}
   27f66:	c346      	stmia	r3!, {r1, r2, r6}
   27f68:	c866      	ldmia	r0!, {r1, r2, r5, r6}
   27f6a:	c366      	stmia	r3!, {r1, r2, r5, r6}
   27f6c:	c866      	ldmia	r0!, {r1, r2, r5, r6}
   27f6e:	c366      	stmia	r3!, {r1, r2, r5, r6}
   27f70:	8801      	ldrh	r1, [r0, #0]
   27f72:	8019      	strh	r1, [r3, #0]
   27f74:	7880      	ldrb	r0, [r0, #2]
   27f76:	7098      	strb	r0, [r3, #2]
   27f78:	9908      	ldr	r1, [sp, #32]
   27f7a:	0e08      	lsrs	r0, r1, #24
   27f7c:	9d0a      	ldr	r5, [sp, #40]	@ 0x28
   27f7e:	71a8      	strb	r0, [r5, #6]
   27f80:	0c08      	lsrs	r0, r1, #16
   27f82:	7168      	strb	r0, [r5, #5]
   27f84:	0a08      	lsrs	r0, r1, #8
   27f86:	7128      	strb	r0, [r5, #4]
   27f88:	70e9      	strb	r1, [r5, #3]
   27f8a:	1de8      	adds	r0, r5, #7
   27f8c:	222f      	movs	r2, #47	@ 0x2f
   27f8e:	990b      	ldr	r1, [sp, #44]	@ 0x2c
   27f90:	f002 faf4 	bl	2a57c <__aeabi_memcpy>
   27f94:	4e05      	ldr	r6, [pc, #20]	@ (27fac <_start+0xf0c>)
   27f96:	446e      	add	r6, sp
   27f98:	4630      	mov	r0, r6
   27f9a:	4629      	mov	r1, r5
   27f9c:	f7fe fe22 	bl	26be4 <_ZN20complex_dynamic_type3app17hf752f6ad00fa65b6E>
   27fa0:	7830      	ldrb	r0, [r6, #0]
   27fa2:	2801      	cmp	r0, #1
   27fa4:	d106      	bne.n	27fb4 <_start+0xf14>
   27fa6:	f002 f909 	bl	2a1bc <_start+0x311c>
   27faa:	46c0      	nop			@ (mov r8, r8)
   27fac:	00001404 	.word	0x00001404
   27fb0:	000013a8 	.word	0x000013a8
   27fb4:	4819      	ldr	r0, [pc, #100]	@ (2801c <_start+0xf7c>)
   27fb6:	4468      	add	r0, sp
   27fb8:	78c1      	ldrb	r1, [r0, #3]
   27fba:	abb8      	add	r3, sp, #736	@ 0x2e0
   27fbc:	930a      	str	r3, [sp, #40]	@ 0x28
   27fbe:	7099      	strb	r1, [r3, #2]
   27fc0:	7841      	ldrb	r1, [r0, #1]
   27fc2:	7882      	ldrb	r2, [r0, #2]
   27fc4:	0212      	lsls	r2, r2, #8
   27fc6:	1851      	adds	r1, r2, r1
   27fc8:	8019      	strh	r1, [r3, #0]
   27fca:	3008      	adds	r0, #8
   27fcc:	9909      	ldr	r1, [sp, #36]	@ 0x24
   27fce:	6e09      	ldr	r1, [r1, #96]	@ 0x60
   27fd0:	9108      	str	r1, [sp, #32]
   27fd2:	4b13      	ldr	r3, [pc, #76]	@ (28020 <_start+0xf80>)
   27fd4:	446b      	add	r3, sp
   27fd6:	930b      	str	r3, [sp, #44]	@ 0x2c
   27fd8:	c846      	ldmia	r0!, {r1, r2, r6}
   27fda:	c346      	stmia	r3!, {r1, r2, r6}
   27fdc:	c866      	ldmia	r0!, {r1, r2, r5, r6}
   27fde:	c366      	stmia	r3!, {r1, r2, r5, r6}
   27fe0:	c866      	ldmia	r0!, {r1, r2, r5, r6}
   27fe2:	c366      	stmia	r3!, {r1, r2, r5, r6}
   27fe4:	7800      	ldrb	r0, [r0, #0]
   27fe6:	7018      	strb	r0, [r3, #0]
   27fe8:	9908      	ldr	r1, [sp, #32]
   27fea:	0e08      	lsrs	r0, r1, #24
   27fec:	9d0a      	ldr	r5, [sp, #40]	@ 0x28
   27fee:	71a8      	strb	r0, [r5, #6]
   27ff0:	0c08      	lsrs	r0, r1, #16
   27ff2:	7168      	strb	r0, [r5, #5]
   27ff4:	0a08      	lsrs	r0, r1, #8
   27ff6:	7128      	strb	r0, [r5, #4]
   27ff8:	70e9      	strb	r1, [r5, #3]
   27ffa:	1de8      	adds	r0, r5, #7
   27ffc:	222d      	movs	r2, #45	@ 0x2d
   27ffe:	990b      	ldr	r1, [sp, #44]	@ 0x2c
   28000:	f002 fabc 	bl	2a57c <__aeabi_memcpy>
   28004:	4e05      	ldr	r6, [pc, #20]	@ (2801c <_start+0xf7c>)
   28006:	446e      	add	r6, sp
   28008:	4630      	mov	r0, r6
   2800a:	4629      	mov	r1, r5
   2800c:	f7fc fbea 	bl	247e4 <_ZN20complex_dynamic_type3app17hafe0736c0f3ccf86E>
   28010:	7830      	ldrb	r0, [r6, #0]
   28012:	2801      	cmp	r0, #1
   28014:	d106      	bne.n	28024 <_start+0xf84>
   28016:	f002 f8d1 	bl	2a1bc <_start+0x311c>
   2801a:	46c0      	nop			@ (mov r8, r8)
   2801c:	00001404 	.word	0x00001404
   28020:	000013a8 	.word	0x000013a8
   28024:	4819      	ldr	r0, [pc, #100]	@ (2808c <_start+0xfec>)
   28026:	4468      	add	r0, sp
   28028:	78c1      	ldrb	r1, [r0, #3]
   2802a:	adc5      	add	r5, sp, #788	@ 0x314
   2802c:	70a9      	strb	r1, [r5, #2]
   2802e:	7841      	ldrb	r1, [r0, #1]
   28030:	7882      	ldrb	r2, [r0, #2]
   28032:	0212      	lsls	r2, r2, #8
   28034:	1851      	adds	r1, r2, r1
   28036:	8029      	strh	r1, [r5, #0]
   28038:	3008      	adds	r0, #8
   2803a:	9909      	ldr	r1, [sp, #36]	@ 0x24
   2803c:	6e09      	ldr	r1, [r1, #96]	@ 0x60
   2803e:	910a      	str	r1, [sp, #40]	@ 0x28
   28040:	4b13      	ldr	r3, [pc, #76]	@ (28090 <_start+0xff0>)
   28042:	446b      	add	r3, sp
   28044:	930b      	str	r3, [sp, #44]	@ 0x2c
   28046:	c846      	ldmia	r0!, {r1, r2, r6}
   28048:	c346      	stmia	r3!, {r1, r2, r6}
   2804a:	c846      	ldmia	r0!, {r1, r2, r6}
   2804c:	c346      	stmia	r3!, {r1, r2, r6}
   2804e:	c846      	ldmia	r0!, {r1, r2, r6}
   28050:	c346      	stmia	r3!, {r1, r2, r6}
   28052:	8801      	ldrh	r1, [r0, #0]
   28054:	8019      	strh	r1, [r3, #0]
   28056:	7880      	ldrb	r0, [r0, #2]
   28058:	7098      	strb	r0, [r3, #2]
   2805a:	990a      	ldr	r1, [sp, #40]	@ 0x28
   2805c:	0e08      	lsrs	r0, r1, #24
   2805e:	71a8      	strb	r0, [r5, #6]
   28060:	0c08      	lsrs	r0, r1, #16
   28062:	7168      	strb	r0, [r5, #5]
   28064:	0a08      	lsrs	r0, r1, #8
   28066:	7128      	strb	r0, [r5, #4]
   28068:	70e9      	strb	r1, [r5, #3]
   2806a:	1de8      	adds	r0, r5, #7
   2806c:	2227      	movs	r2, #39	@ 0x27
   2806e:	990b      	ldr	r1, [sp, #44]	@ 0x2c
   28070:	f002 fa84 	bl	2a57c <__aeabi_memcpy>
   28074:	4e05      	ldr	r6, [pc, #20]	@ (2808c <_start+0xfec>)
   28076:	446e      	add	r6, sp
   28078:	4630      	mov	r0, r6
   2807a:	4629      	mov	r1, r5
   2807c:	f7fc f966 	bl	2434c <_ZN20complex_dynamic_type3app17ha3f99b68b1837e9eE>
   28080:	7830      	ldrb	r0, [r6, #0]
   28082:	2801      	cmp	r0, #1
   28084:	d106      	bne.n	28094 <_start+0xff4>
   28086:	f002 f899 	bl	2a1bc <_start+0x311c>
   2808a:	46c0      	nop			@ (mov r8, r8)
   2808c:	00001404 	.word	0x00001404
   28090:	000013a8 	.word	0x000013a8
   28094:	4819      	ldr	r0, [pc, #100]	@ (280fc <_start+0x105c>)
   28096:	4468      	add	r0, sp
   28098:	78c1      	ldrb	r1, [r0, #3]
   2809a:	abd1      	add	r3, sp, #836	@ 0x344
   2809c:	930a      	str	r3, [sp, #40]	@ 0x28
   2809e:	7099      	strb	r1, [r3, #2]
   280a0:	7841      	ldrb	r1, [r0, #1]
   280a2:	7882      	ldrb	r2, [r0, #2]
   280a4:	0212      	lsls	r2, r2, #8
   280a6:	1851      	adds	r1, r2, r1
   280a8:	8019      	strh	r1, [r3, #0]
   280aa:	3008      	adds	r0, #8
   280ac:	9909      	ldr	r1, [sp, #36]	@ 0x24
   280ae:	6e09      	ldr	r1, [r1, #96]	@ 0x60
   280b0:	9108      	str	r1, [sp, #32]
   280b2:	4b13      	ldr	r3, [pc, #76]	@ (28100 <_start+0x1060>)
   280b4:	446b      	add	r3, sp
   280b6:	930b      	str	r3, [sp, #44]	@ 0x2c
   280b8:	c866      	ldmia	r0!, {r1, r2, r5, r6}
   280ba:	c366      	stmia	r3!, {r1, r2, r5, r6}
   280bc:	c866      	ldmia	r0!, {r1, r2, r5, r6}
   280be:	c366      	stmia	r3!, {r1, r2, r5, r6}
   280c0:	c866      	ldmia	r0!, {r1, r2, r5, r6}
   280c2:	c366      	stmia	r3!, {r1, r2, r5, r6}
   280c4:	7800      	ldrb	r0, [r0, #0]
   280c6:	7018      	strb	r0, [r3, #0]
   280c8:	9908      	ldr	r1, [sp, #32]
   280ca:	0e08      	lsrs	r0, r1, #24
   280cc:	9d0a      	ldr	r5, [sp, #40]	@ 0x28
   280ce:	71a8      	strb	r0, [r5, #6]
   280d0:	0c08      	lsrs	r0, r1, #16
   280d2:	7168      	strb	r0, [r5, #5]
   280d4:	0a08      	lsrs	r0, r1, #8
   280d6:	7128      	strb	r0, [r5, #4]
   280d8:	70e9      	strb	r1, [r5, #3]
   280da:	1de8      	adds	r0, r5, #7
   280dc:	2231      	movs	r2, #49	@ 0x31
   280de:	990b      	ldr	r1, [sp, #44]	@ 0x2c
   280e0:	f002 fa4c 	bl	2a57c <__aeabi_memcpy>
   280e4:	4e05      	ldr	r6, [pc, #20]	@ (280fc <_start+0x105c>)
   280e6:	446e      	add	r6, sp
   280e8:	4630      	mov	r0, r6
   280ea:	4629      	mov	r1, r5
   280ec:	f7fc fc14 	bl	24918 <_ZN20complex_dynamic_type3app17hb07344b62b4df852E>
   280f0:	7830      	ldrb	r0, [r6, #0]
   280f2:	2801      	cmp	r0, #1
   280f4:	d106      	bne.n	28104 <_start+0x1064>
   280f6:	f002 f861 	bl	2a1bc <_start+0x311c>
   280fa:	46c0      	nop			@ (mov r8, r8)
   280fc:	00001404 	.word	0x00001404
   28100:	000013a8 	.word	0x000013a8
   28104:	4819      	ldr	r0, [pc, #100]	@ (2816c <_start+0x10cc>)
   28106:	4468      	add	r0, sp
   28108:	78c1      	ldrb	r1, [r0, #3]
   2810a:	abdf      	add	r3, sp, #892	@ 0x37c
   2810c:	930a      	str	r3, [sp, #40]	@ 0x28
   2810e:	7099      	strb	r1, [r3, #2]
   28110:	7841      	ldrb	r1, [r0, #1]
   28112:	7882      	ldrb	r2, [r0, #2]
   28114:	0212      	lsls	r2, r2, #8
   28116:	1851      	adds	r1, r2, r1
   28118:	8019      	strh	r1, [r3, #0]
   2811a:	3008      	adds	r0, #8
   2811c:	9909      	ldr	r1, [sp, #36]	@ 0x24
   2811e:	6e09      	ldr	r1, [r1, #96]	@ 0x60
   28120:	9108      	str	r1, [sp, #32]
   28122:	4b13      	ldr	r3, [pc, #76]	@ (28170 <_start+0x10d0>)
   28124:	446b      	add	r3, sp
   28126:	930b      	str	r3, [sp, #44]	@ 0x2c
   28128:	c846      	ldmia	r0!, {r1, r2, r6}
   2812a:	c346      	stmia	r3!, {r1, r2, r6}
   2812c:	c866      	ldmia	r0!, {r1, r2, r5, r6}
   2812e:	c366      	stmia	r3!, {r1, r2, r5, r6}
   28130:	c866      	ldmia	r0!, {r1, r2, r5, r6}
   28132:	c366      	stmia	r3!, {r1, r2, r5, r6}
   28134:	7800      	ldrb	r0, [r0, #0]
   28136:	7018      	strb	r0, [r3, #0]
   28138:	9908      	ldr	r1, [sp, #32]
   2813a:	0e08      	lsrs	r0, r1, #24
   2813c:	9d0a      	ldr	r5, [sp, #40]	@ 0x28
   2813e:	71a8      	strb	r0, [r5, #6]
   28140:	0c08      	lsrs	r0, r1, #16
   28142:	7168      	strb	r0, [r5, #5]
   28144:	0a08      	lsrs	r0, r1, #8
   28146:	7128      	strb	r0, [r5, #4]
   28148:	70e9      	strb	r1, [r5, #3]
   2814a:	1de8      	adds	r0, r5, #7
   2814c:	222d      	movs	r2, #45	@ 0x2d
   2814e:	990b      	ldr	r1, [sp, #44]	@ 0x2c
   28150:	f002 fa14 	bl	2a57c <__aeabi_memcpy>
   28154:	4e05      	ldr	r6, [pc, #20]	@ (2816c <_start+0x10cc>)
   28156:	446e      	add	r6, sp
   28158:	4630      	mov	r0, r6
   2815a:	4629      	mov	r1, r5
   2815c:	f7f9 fdb4 	bl	21cc8 <_ZN20complex_dynamic_type3app17h47e927740b8b4245E>
   28160:	7830      	ldrb	r0, [r6, #0]
   28162:	2801      	cmp	r0, #1
   28164:	d106      	bne.n	28174 <_start+0x10d4>
   28166:	f002 f829 	bl	2a1bc <_start+0x311c>
   2816a:	46c0      	nop			@ (mov r8, r8)
   2816c:	00001404 	.word	0x00001404
   28170:	000013a8 	.word	0x000013a8
   28174:	4818      	ldr	r0, [pc, #96]	@ (281d8 <_start+0x1138>)
   28176:	4468      	add	r0, sp
   28178:	78c1      	ldrb	r1, [r0, #3]
   2817a:	abec      	add	r3, sp, #944	@ 0x3b0
   2817c:	930a      	str	r3, [sp, #40]	@ 0x28
   2817e:	7099      	strb	r1, [r3, #2]
   28180:	7841      	ldrb	r1, [r0, #1]
   28182:	7882      	ldrb	r2, [r0, #2]
   28184:	0212      	lsls	r2, r2, #8
   28186:	1851      	adds	r1, r2, r1
   28188:	8019      	strh	r1, [r3, #0]
   2818a:	3008      	adds	r0, #8
   2818c:	9909      	ldr	r1, [sp, #36]	@ 0x24
   2818e:	6e09      	ldr	r1, [r1, #96]	@ 0x60
   28190:	9108      	str	r1, [sp, #32]
   28192:	4b12      	ldr	r3, [pc, #72]	@ (281dc <_start+0x113c>)
   28194:	446b      	add	r3, sp
   28196:	930b      	str	r3, [sp, #44]	@ 0x2c
   28198:	c866      	ldmia	r0!, {r1, r2, r5, r6}
   2819a:	c366      	stmia	r3!, {r1, r2, r5, r6}
   2819c:	8801      	ldrh	r1, [r0, #0]
   2819e:	8019      	strh	r1, [r3, #0]
   281a0:	7880      	ldrb	r0, [r0, #2]
   281a2:	7098      	strb	r0, [r3, #2]
   281a4:	9908      	ldr	r1, [sp, #32]
   281a6:	0e08      	lsrs	r0, r1, #24
   281a8:	9d0a      	ldr	r5, [sp, #40]	@ 0x28
   281aa:	71a8      	strb	r0, [r5, #6]
   281ac:	0c08      	lsrs	r0, r1, #16
   281ae:	7168      	strb	r0, [r5, #5]
   281b0:	0a08      	lsrs	r0, r1, #8
   281b2:	7128      	strb	r0, [r5, #4]
   281b4:	70e9      	strb	r1, [r5, #3]
   281b6:	1de8      	adds	r0, r5, #7
   281b8:	2213      	movs	r2, #19
   281ba:	990b      	ldr	r1, [sp, #44]	@ 0x2c
   281bc:	f002 f9de 	bl	2a57c <__aeabi_memcpy>
   281c0:	4e05      	ldr	r6, [pc, #20]	@ (281d8 <_start+0x1138>)
   281c2:	446e      	add	r6, sp
   281c4:	4630      	mov	r0, r6
   281c6:	4629      	mov	r1, r5
   281c8:	f7fa f904 	bl	223d4 <_ZN20complex_dynamic_type3app17h55311fb61246ae50E>
   281cc:	7830      	ldrb	r0, [r6, #0]
   281ce:	2801      	cmp	r0, #1
   281d0:	d106      	bne.n	281e0 <_start+0x1140>
   281d2:	f001 fff3 	bl	2a1bc <_start+0x311c>
   281d6:	46c0      	nop			@ (mov r8, r8)
   281d8:	00001404 	.word	0x00001404
   281dc:	000013a8 	.word	0x000013a8
   281e0:	4915      	ldr	r1, [pc, #84]	@ (28238 <_start+0x1198>)
   281e2:	4469      	add	r1, sp
   281e4:	78c8      	ldrb	r0, [r1, #3]
   281e6:	adf3      	add	r5, sp, #972	@ 0x3cc
   281e8:	70a8      	strb	r0, [r5, #2]
   281ea:	7848      	ldrb	r0, [r1, #1]
   281ec:	788a      	ldrb	r2, [r1, #2]
   281ee:	0212      	lsls	r2, r2, #8
   281f0:	1810      	adds	r0, r2, r0
   281f2:	8028      	strh	r0, [r5, #0]
   281f4:	9809      	ldr	r0, [sp, #36]	@ 0x24
   281f6:	6e06      	ldr	r6, [r0, #96]	@ 0x60
   281f8:	3108      	adds	r1, #8
   281fa:	4810      	ldr	r0, [pc, #64]	@ (2823c <_start+0x119c>)
   281fc:	4468      	add	r0, sp
   281fe:	900b      	str	r0, [sp, #44]	@ 0x2c
   28200:	2249      	movs	r2, #73	@ 0x49
   28202:	920a      	str	r2, [sp, #40]	@ 0x28
   28204:	f002 f85a 	bl	2a2bc <__aeabi_memcpy4>
   28208:	0e30      	lsrs	r0, r6, #24
   2820a:	71a8      	strb	r0, [r5, #6]
   2820c:	0c30      	lsrs	r0, r6, #16
   2820e:	7168      	strb	r0, [r5, #5]
   28210:	0a30      	lsrs	r0, r6, #8
   28212:	7128      	strb	r0, [r5, #4]
   28214:	70ee      	strb	r6, [r5, #3]
   28216:	1de8      	adds	r0, r5, #7
   28218:	990b      	ldr	r1, [sp, #44]	@ 0x2c
   2821a:	9a0a      	ldr	r2, [sp, #40]	@ 0x28
   2821c:	f002 f9ae 	bl	2a57c <__aeabi_memcpy>
   28220:	4e05      	ldr	r6, [pc, #20]	@ (28238 <_start+0x1198>)
   28222:	446e      	add	r6, sp
   28224:	4630      	mov	r0, r6
   28226:	4629      	mov	r1, r5
   28228:	f7fa ff32 	bl	23090 <_ZN20complex_dynamic_type3app17h846cdb8a77e1a0a8E>
   2822c:	7830      	ldrb	r0, [r6, #0]
   2822e:	2801      	cmp	r0, #1
   28230:	d106      	bne.n	28240 <_start+0x11a0>
   28232:	f001 ffc3 	bl	2a1bc <_start+0x311c>
   28236:	46c0      	nop			@ (mov r8, r8)
   28238:	00001404 	.word	0x00001404
   2823c:	000013a8 	.word	0x000013a8
   28240:	481a      	ldr	r0, [pc, #104]	@ (282ac <_start+0x120c>)
   28242:	4468      	add	r0, sp
   28244:	78c1      	ldrb	r1, [r0, #3]
   28246:	abff      	add	r3, sp, #1020	@ 0x3fc
   28248:	3320      	adds	r3, #32
   2824a:	930a      	str	r3, [sp, #40]	@ 0x28
   2824c:	7099      	strb	r1, [r3, #2]
   2824e:	7841      	ldrb	r1, [r0, #1]
   28250:	7882      	ldrb	r2, [r0, #2]
   28252:	0212      	lsls	r2, r2, #8
   28254:	1851      	adds	r1, r2, r1
   28256:	8019      	strh	r1, [r3, #0]
   28258:	3008      	adds	r0, #8
   2825a:	9909      	ldr	r1, [sp, #36]	@ 0x24
   2825c:	6e09      	ldr	r1, [r1, #96]	@ 0x60
   2825e:	9108      	str	r1, [sp, #32]
   28260:	4b13      	ldr	r3, [pc, #76]	@ (282b0 <_start+0x1210>)
   28262:	446b      	add	r3, sp
   28264:	930b      	str	r3, [sp, #44]	@ 0x2c
   28266:	c846      	ldmia	r0!, {r1, r2, r6}
   28268:	c346      	stmia	r3!, {r1, r2, r6}
   2826a:	c846      	ldmia	r0!, {r1, r2, r6}
   2826c:	c346      	stmia	r3!, {r1, r2, r6}
   2826e:	c846      	ldmia	r0!, {r1, r2, r6}
   28270:	c346      	stmia	r3!, {r1, r2, r6}
   28272:	c866      	ldmia	r0!, {r1, r2, r5, r6}
   28274:	c366      	stmia	r3!, {r1, r2, r5, r6}
   28276:	7800      	ldrb	r0, [r0, #0]
   28278:	7018      	strb	r0, [r3, #0]
   2827a:	9908      	ldr	r1, [sp, #32]
   2827c:	0e08      	lsrs	r0, r1, #24
   2827e:	9d0a      	ldr	r5, [sp, #40]	@ 0x28
   28280:	71a8      	strb	r0, [r5, #6]
   28282:	0c08      	lsrs	r0, r1, #16
   28284:	7168      	strb	r0, [r5, #5]
   28286:	0a08      	lsrs	r0, r1, #8
   28288:	7128      	strb	r0, [r5, #4]
   2828a:	70e9      	strb	r1, [r5, #3]
   2828c:	1de8      	adds	r0, r5, #7
   2828e:	2235      	movs	r2, #53	@ 0x35
   28290:	990b      	ldr	r1, [sp, #44]	@ 0x2c
   28292:	f002 f973 	bl	2a57c <__aeabi_memcpy>
   28296:	4e05      	ldr	r6, [pc, #20]	@ (282ac <_start+0x120c>)
   28298:	446e      	add	r6, sp
   2829a:	4630      	mov	r0, r6
   2829c:	4629      	mov	r1, r5
   2829e:	f7fa fdc7 	bl	22e30 <_ZN20complex_dynamic_type3app17h7c016a70107dafbfE>
   282a2:	7830      	ldrb	r0, [r6, #0]
   282a4:	2801      	cmp	r0, #1
   282a6:	d105      	bne.n	282b4 <_start+0x1214>
   282a8:	f001 ff88 	bl	2a1bc <_start+0x311c>
   282ac:	00001404 	.word	0x00001404
   282b0:	000013a8 	.word	0x000013a8
   282b4:	481a      	ldr	r0, [pc, #104]	@ (28320 <_start+0x1280>)
   282b6:	4468      	add	r0, sp
   282b8:	78c1      	ldrb	r1, [r0, #3]
   282ba:	abff      	add	r3, sp, #1020	@ 0x3fc
   282bc:	335c      	adds	r3, #92	@ 0x5c
   282be:	930a      	str	r3, [sp, #40]	@ 0x28
   282c0:	7099      	strb	r1, [r3, #2]
   282c2:	7841      	ldrb	r1, [r0, #1]
   282c4:	7882      	ldrb	r2, [r0, #2]
   282c6:	0212      	lsls	r2, r2, #8
   282c8:	1851      	adds	r1, r2, r1
   282ca:	8019      	strh	r1, [r3, #0]
   282cc:	3008      	adds	r0, #8
   282ce:	9909      	ldr	r1, [sp, #36]	@ 0x24
   282d0:	6e09      	ldr	r1, [r1, #96]	@ 0x60
   282d2:	9108      	str	r1, [sp, #32]
   282d4:	4b13      	ldr	r3, [pc, #76]	@ (28324 <_start+0x1284>)
   282d6:	446b      	add	r3, sp
   282d8:	930b      	str	r3, [sp, #44]	@ 0x2c
   282da:	c846      	ldmia	r0!, {r1, r2, r6}
   282dc:	c346      	stmia	r3!, {r1, r2, r6}
   282de:	c846      	ldmia	r0!, {r1, r2, r6}
   282e0:	c346      	stmia	r3!, {r1, r2, r6}
   282e2:	c866      	ldmia	r0!, {r1, r2, r5, r6}
   282e4:	c366      	stmia	r3!, {r1, r2, r5, r6}
   282e6:	8801      	ldrh	r1, [r0, #0]
   282e8:	8019      	strh	r1, [r3, #0]
   282ea:	7880      	ldrb	r0, [r0, #2]
   282ec:	7098      	strb	r0, [r3, #2]
   282ee:	9908      	ldr	r1, [sp, #32]
   282f0:	0e08      	lsrs	r0, r1, #24
   282f2:	9d0a      	ldr	r5, [sp, #40]	@ 0x28
   282f4:	71a8      	strb	r0, [r5, #6]
   282f6:	0c08      	lsrs	r0, r1, #16
   282f8:	7168      	strb	r0, [r5, #5]
   282fa:	0a08      	lsrs	r0, r1, #8
   282fc:	7128      	strb	r0, [r5, #4]
   282fe:	70e9      	strb	r1, [r5, #3]
   28300:	1de8      	adds	r0, r5, #7
   28302:	222b      	movs	r2, #43	@ 0x2b
   28304:	990b      	ldr	r1, [sp, #44]	@ 0x2c
   28306:	f002 f939 	bl	2a57c <__aeabi_memcpy>
   2830a:	4e05      	ldr	r6, [pc, #20]	@ (28320 <_start+0x1280>)
   2830c:	446e      	add	r6, sp
   2830e:	4630      	mov	r0, r6
   28310:	4629      	mov	r1, r5
   28312:	f7fc f8a1 	bl	24458 <_ZN20complex_dynamic_type3app17ha4473be7e380ae01E>
   28316:	7830      	ldrb	r0, [r6, #0]
   28318:	2801      	cmp	r0, #1
   2831a:	d105      	bne.n	28328 <_start+0x1288>
   2831c:	f001 ff4e 	bl	2a1bc <_start+0x311c>
   28320:	00001404 	.word	0x00001404
   28324:	000013a8 	.word	0x000013a8
   28328:	481a      	ldr	r0, [pc, #104]	@ (28394 <_start+0x12f4>)
   2832a:	4468      	add	r0, sp
   2832c:	78c1      	ldrb	r1, [r0, #3]
   2832e:	abff      	add	r3, sp, #1020	@ 0x3fc
   28330:	3390      	adds	r3, #144	@ 0x90
   28332:	930a      	str	r3, [sp, #40]	@ 0x28
   28334:	7099      	strb	r1, [r3, #2]
   28336:	7841      	ldrb	r1, [r0, #1]
   28338:	7882      	ldrb	r2, [r0, #2]
   2833a:	0212      	lsls	r2, r2, #8
   2833c:	1851      	adds	r1, r2, r1
   2833e:	8019      	strh	r1, [r3, #0]
   28340:	3008      	adds	r0, #8
   28342:	9909      	ldr	r1, [sp, #36]	@ 0x24
   28344:	6e09      	ldr	r1, [r1, #96]	@ 0x60
   28346:	9108      	str	r1, [sp, #32]
   28348:	4b13      	ldr	r3, [pc, #76]	@ (28398 <_start+0x12f8>)
   2834a:	446b      	add	r3, sp
   2834c:	930b      	str	r3, [sp, #44]	@ 0x2c
   2834e:	c846      	ldmia	r0!, {r1, r2, r6}
   28350:	c346      	stmia	r3!, {r1, r2, r6}
   28352:	c846      	ldmia	r0!, {r1, r2, r6}
   28354:	c346      	stmia	r3!, {r1, r2, r6}
   28356:	c866      	ldmia	r0!, {r1, r2, r5, r6}
   28358:	c366      	stmia	r3!, {r1, r2, r5, r6}
   2835a:	8801      	ldrh	r1, [r0, #0]
   2835c:	8019      	strh	r1, [r3, #0]
   2835e:	7880      	ldrb	r0, [r0, #2]
   28360:	7098      	strb	r0, [r3, #2]
   28362:	9908      	ldr	r1, [sp, #32]
   28364:	0e08      	lsrs	r0, r1, #24
   28366:	9d0a      	ldr	r5, [sp, #40]	@ 0x28
   28368:	71a8      	strb	r0, [r5, #6]
   2836a:	0c08      	lsrs	r0, r1, #16
   2836c:	7168      	strb	r0, [r5, #5]
   2836e:	0a08      	lsrs	r0, r1, #8
   28370:	7128      	strb	r0, [r5, #4]
   28372:	70e9      	strb	r1, [r5, #3]
   28374:	1de8      	adds	r0, r5, #7
   28376:	222b      	movs	r2, #43	@ 0x2b
   28378:	990b      	ldr	r1, [sp, #44]	@ 0x2c
   2837a:	f002 f8ff 	bl	2a57c <__aeabi_memcpy>
   2837e:	4e05      	ldr	r6, [pc, #20]	@ (28394 <_start+0x12f4>)
   28380:	446e      	add	r6, sp
   28382:	4630      	mov	r0, r6
   28384:	4629      	mov	r1, r5
   28386:	f7f9 fa41 	bl	2180c <_ZN20complex_dynamic_type3app17h36c8622f5934bc13E>
   2838a:	7830      	ldrb	r0, [r6, #0]
   2838c:	2801      	cmp	r0, #1
   2838e:	d105      	bne.n	2839c <_start+0x12fc>
   28390:	f001 ff14 	bl	2a1bc <_start+0x311c>
   28394:	00001404 	.word	0x00001404
   28398:	000013a8 	.word	0x000013a8
   2839c:	4815      	ldr	r0, [pc, #84]	@ (283f4 <_start+0x1354>)
   2839e:	4468      	add	r0, sp
   283a0:	78c1      	ldrb	r1, [r0, #3]
   283a2:	adff      	add	r5, sp, #1020	@ 0x3fc
   283a4:	35c4      	adds	r5, #196	@ 0xc4
   283a6:	70a9      	strb	r1, [r5, #2]
   283a8:	7841      	ldrb	r1, [r0, #1]
   283aa:	7882      	ldrb	r2, [r0, #2]
   283ac:	0212      	lsls	r2, r2, #8
   283ae:	1851      	adds	r1, r2, r1
   283b0:	8029      	strh	r1, [r5, #0]
   283b2:	3008      	adds	r0, #8
   283b4:	9909      	ldr	r1, [sp, #36]	@ 0x24
   283b6:	6e09      	ldr	r1, [r1, #96]	@ 0x60
   283b8:	4b0f      	ldr	r3, [pc, #60]	@ (283f8 <_start+0x1358>)
   283ba:	446b      	add	r3, sp
   283bc:	930b      	str	r3, [sp, #44]	@ 0x2c
   283be:	c844      	ldmia	r0!, {r2, r6}
   283c0:	c344      	stmia	r3!, {r2, r6}
   283c2:	7800      	ldrb	r0, [r0, #0]
   283c4:	7018      	strb	r0, [r3, #0]
   283c6:	0e08      	lsrs	r0, r1, #24
   283c8:	71a8      	strb	r0, [r5, #6]
   283ca:	0c08      	lsrs	r0, r1, #16
   283cc:	7168      	strb	r0, [r5, #5]
   283ce:	0a08      	lsrs	r0, r1, #8
   283d0:	7128      	strb	r0, [r5, #4]
   283d2:	70e9      	strb	r1, [r5, #3]
   283d4:	1de8      	adds	r0, r5, #7
   283d6:	2209      	movs	r2, #9
   283d8:	990b      	ldr	r1, [sp, #44]	@ 0x2c
   283da:	f002 f8cf 	bl	2a57c <__aeabi_memcpy>
   283de:	4e05      	ldr	r6, [pc, #20]	@ (283f4 <_start+0x1354>)
   283e0:	446e      	add	r6, sp
   283e2:	4630      	mov	r0, r6
   283e4:	4629      	mov	r1, r5
   283e6:	f7fd f86b 	bl	254c0 <_ZN20complex_dynamic_type3app17hcdf0d79c0667288eE>
   283ea:	7830      	ldrb	r0, [r6, #0]
   283ec:	2801      	cmp	r0, #1
   283ee:	d105      	bne.n	283fc <_start+0x135c>
   283f0:	f001 fee4 	bl	2a1bc <_start+0x311c>
   283f4:	00001404 	.word	0x00001404
   283f8:	000013a8 	.word	0x000013a8
   283fc:	481a      	ldr	r0, [pc, #104]	@ (28468 <_start+0x13c8>)
   283fe:	4468      	add	r0, sp
   28400:	78c1      	ldrb	r1, [r0, #3]
   28402:	abff      	add	r3, sp, #1020	@ 0x3fc
   28404:	33d4      	adds	r3, #212	@ 0xd4
   28406:	930a      	str	r3, [sp, #40]	@ 0x28
   28408:	7099      	strb	r1, [r3, #2]
   2840a:	7841      	ldrb	r1, [r0, #1]
   2840c:	7882      	ldrb	r2, [r0, #2]
   2840e:	0212      	lsls	r2, r2, #8
   28410:	1851      	adds	r1, r2, r1
   28412:	8019      	strh	r1, [r3, #0]
   28414:	3008      	adds	r0, #8
   28416:	9909      	ldr	r1, [sp, #36]	@ 0x24
   28418:	6e09      	ldr	r1, [r1, #96]	@ 0x60
   2841a:	9108      	str	r1, [sp, #32]
   2841c:	4b13      	ldr	r3, [pc, #76]	@ (2846c <_start+0x13cc>)
   2841e:	446b      	add	r3, sp
   28420:	930b      	str	r3, [sp, #44]	@ 0x2c
   28422:	c846      	ldmia	r0!, {r1, r2, r6}
   28424:	c346      	stmia	r3!, {r1, r2, r6}
   28426:	c866      	ldmia	r0!, {r1, r2, r5, r6}
   28428:	c366      	stmia	r3!, {r1, r2, r5, r6}
   2842a:	c866      	ldmia	r0!, {r1, r2, r5, r6}
   2842c:	c366      	stmia	r3!, {r1, r2, r5, r6}
   2842e:	8801      	ldrh	r1, [r0, #0]
   28430:	8019      	strh	r1, [r3, #0]
   28432:	7880      	ldrb	r0, [r0, #2]
   28434:	7098      	strb	r0, [r3, #2]
   28436:	9908      	ldr	r1, [sp, #32]
   28438:	0e08      	lsrs	r0, r1, #24
   2843a:	9d0a      	ldr	r5, [sp, #40]	@ 0x28
   2843c:	71a8      	strb	r0, [r5, #6]
   2843e:	0c08      	lsrs	r0, r1, #16
   28440:	7168      	strb	r0, [r5, #5]
   28442:	0a08      	lsrs	r0, r1, #8
   28444:	7128      	strb	r0, [r5, #4]
   28446:	70e9      	strb	r1, [r5, #3]
   28448:	1de8      	adds	r0, r5, #7
   2844a:	222f      	movs	r2, #47	@ 0x2f
   2844c:	990b      	ldr	r1, [sp, #44]	@ 0x2c
   2844e:	f002 f895 	bl	2a57c <__aeabi_memcpy>
   28452:	4e05      	ldr	r6, [pc, #20]	@ (28468 <_start+0x13c8>)
   28454:	446e      	add	r6, sp
   28456:	4630      	mov	r0, r6
   28458:	4629      	mov	r1, r5
   2845a:	f7fc f895 	bl	24588 <_ZN20complex_dynamic_type3app17ha6e4c8ffb12abcfdE>
   2845e:	7830      	ldrb	r0, [r6, #0]
   28460:	2801      	cmp	r0, #1
   28462:	d105      	bne.n	28470 <_start+0x13d0>
   28464:	f001 feaa 	bl	2a1bc <_start+0x311c>
   28468:	00001404 	.word	0x00001404
   2846c:	000013a8 	.word	0x000013a8
   28470:	9802      	ldr	r0, [sp, #8]
   28472:	1cc0      	adds	r0, r0, #3
   28474:	4a16      	ldr	r2, [pc, #88]	@ (284d0 <_start+0x1430>)
   28476:	446a      	add	r2, sp
   28478:	78d3      	ldrb	r3, [r2, #3]
   2847a:	4916      	ldr	r1, [pc, #88]	@ (284d4 <_start+0x1434>)
   2847c:	4469      	add	r1, sp
   2847e:	708b      	strb	r3, [r1, #2]
   28480:	7853      	ldrb	r3, [r2, #1]
   28482:	7892      	ldrb	r2, [r2, #2]
   28484:	0212      	lsls	r2, r2, #8
   28486:	18d2      	adds	r2, r2, r3
   28488:	800a      	strh	r2, [r1, #0]
   2848a:	9d09      	ldr	r5, [sp, #36]	@ 0x24
   2848c:	3560      	adds	r5, #96	@ 0x60
   2848e:	cd2c      	ldmia	r5, {r2, r3, r5}
   28490:	0e2e      	lsrs	r6, r5, #24
   28492:	72c6      	strb	r6, [r0, #11]
   28494:	0c2e      	lsrs	r6, r5, #16
   28496:	7286      	strb	r6, [r0, #10]
   28498:	0a2e      	lsrs	r6, r5, #8
   2849a:	7246      	strb	r6, [r0, #9]
   2849c:	7205      	strb	r5, [r0, #8]
   2849e:	0e1d      	lsrs	r5, r3, #24
   284a0:	71c5      	strb	r5, [r0, #7]
   284a2:	0c1d      	lsrs	r5, r3, #16
   284a4:	7185      	strb	r5, [r0, #6]
   284a6:	0a1d      	lsrs	r5, r3, #8
   284a8:	7145      	strb	r5, [r0, #5]
   284aa:	7103      	strb	r3, [r0, #4]
   284ac:	0e13      	lsrs	r3, r2, #24
   284ae:	70c3      	strb	r3, [r0, #3]
   284b0:	0c13      	lsrs	r3, r2, #16
   284b2:	7083      	strb	r3, [r0, #2]
   284b4:	0a13      	lsrs	r3, r2, #8
   284b6:	7043      	strb	r3, [r0, #1]
   284b8:	7002      	strb	r2, [r0, #0]
   284ba:	4d05      	ldr	r5, [pc, #20]	@ (284d0 <_start+0x1430>)
   284bc:	446d      	add	r5, sp
   284be:	4628      	mov	r0, r5
   284c0:	f7fe fd54 	bl	26f6c <_ZN20complex_dynamic_type3app17hfd3d03acbca146cfE>
   284c4:	7828      	ldrb	r0, [r5, #0]
   284c6:	2801      	cmp	r0, #1
   284c8:	d106      	bne.n	284d8 <_start+0x1438>
   284ca:	f001 fe77 	bl	2a1bc <_start+0x311c>
   284ce:	46c0      	nop			@ (mov r8, r8)
   284d0:	00001404 	.word	0x00001404
   284d4:	00000508 	.word	0x00000508
   284d8:	4815      	ldr	r0, [pc, #84]	@ (28530 <_start+0x1490>)
   284da:	4468      	add	r0, sp
   284dc:	78c1      	ldrb	r1, [r0, #3]
   284de:	4d15      	ldr	r5, [pc, #84]	@ (28534 <_start+0x1494>)
   284e0:	446d      	add	r5, sp
   284e2:	70a9      	strb	r1, [r5, #2]
   284e4:	7841      	ldrb	r1, [r0, #1]
   284e6:	7882      	ldrb	r2, [r0, #2]
   284e8:	0212      	lsls	r2, r2, #8
   284ea:	1851      	adds	r1, r2, r1
   284ec:	8029      	strh	r1, [r5, #0]
   284ee:	3008      	adds	r0, #8
   284f0:	9909      	ldr	r1, [sp, #36]	@ 0x24
   284f2:	6e09      	ldr	r1, [r1, #96]	@ 0x60
   284f4:	910a      	str	r1, [sp, #40]	@ 0x28
   284f6:	4b10      	ldr	r3, [pc, #64]	@ (28538 <_start+0x1498>)
   284f8:	446b      	add	r3, sp
   284fa:	930b      	str	r3, [sp, #44]	@ 0x2c
   284fc:	c846      	ldmia	r0!, {r1, r2, r6}
   284fe:	c346      	stmia	r3!, {r1, r2, r6}
   28500:	990a      	ldr	r1, [sp, #40]	@ 0x28
   28502:	0e08      	lsrs	r0, r1, #24
   28504:	71a8      	strb	r0, [r5, #6]
   28506:	0c08      	lsrs	r0, r1, #16
   28508:	7168      	strb	r0, [r5, #5]
   2850a:	0a08      	lsrs	r0, r1, #8
   2850c:	7128      	strb	r0, [r5, #4]
   2850e:	70e9      	strb	r1, [r5, #3]
   28510:	1de8      	adds	r0, r5, #7
   28512:	220c      	movs	r2, #12
   28514:	990b      	ldr	r1, [sp, #44]	@ 0x2c
   28516:	f002 f831 	bl	2a57c <__aeabi_memcpy>
   2851a:	4e05      	ldr	r6, [pc, #20]	@ (28530 <_start+0x1490>)
   2851c:	446e      	add	r6, sp
   2851e:	4630      	mov	r0, r6
   28520:	4629      	mov	r1, r5
   28522:	f7f8 fe91 	bl	21248 <_ZN20complex_dynamic_type3app17h2af0944f04798376E>
   28526:	7830      	ldrb	r0, [r6, #0]
   28528:	2801      	cmp	r0, #1
   2852a:	d107      	bne.n	2853c <_start+0x149c>
   2852c:	f001 fe46 	bl	2a1bc <_start+0x311c>
   28530:	00001404 	.word	0x00001404
   28534:	00000518 	.word	0x00000518
   28538:	000013a8 	.word	0x000013a8
   2853c:	4915      	ldr	r1, [pc, #84]	@ (28594 <_start+0x14f4>)
   2853e:	4469      	add	r1, sp
   28540:	78c8      	ldrb	r0, [r1, #3]
   28542:	4d15      	ldr	r5, [pc, #84]	@ (28598 <_start+0x14f8>)
   28544:	446d      	add	r5, sp
   28546:	70a8      	strb	r0, [r5, #2]
   28548:	7848      	ldrb	r0, [r1, #1]
   2854a:	788a      	ldrb	r2, [r1, #2]
   2854c:	0212      	lsls	r2, r2, #8
   2854e:	1810      	adds	r0, r2, r0
   28550:	8028      	strh	r0, [r5, #0]
   28552:	9809      	ldr	r0, [sp, #36]	@ 0x24
   28554:	6e06      	ldr	r6, [r0, #96]	@ 0x60
   28556:	3108      	adds	r1, #8
   28558:	4810      	ldr	r0, [pc, #64]	@ (2859c <_start+0x14fc>)
   2855a:	4468      	add	r0, sp
   2855c:	900b      	str	r0, [sp, #44]	@ 0x2c
   2855e:	224e      	movs	r2, #78	@ 0x4e
   28560:	920a      	str	r2, [sp, #40]	@ 0x28
   28562:	f001 feab 	bl	2a2bc <__aeabi_memcpy4>
   28566:	0e30      	lsrs	r0, r6, #24
   28568:	71a8      	strb	r0, [r5, #6]
   2856a:	0c30      	lsrs	r0, r6, #16
   2856c:	7168      	strb	r0, [r5, #5]
   2856e:	0a30      	lsrs	r0, r6, #8
   28570:	7128      	strb	r0, [r5, #4]
   28572:	70ee      	strb	r6, [r5, #3]
   28574:	1de8      	adds	r0, r5, #7
   28576:	990b      	ldr	r1, [sp, #44]	@ 0x2c
   28578:	9a0a      	ldr	r2, [sp, #40]	@ 0x28
   2857a:	f001 ffff 	bl	2a57c <__aeabi_memcpy>
   2857e:	4e05      	ldr	r6, [pc, #20]	@ (28594 <_start+0x14f4>)
   28580:	446e      	add	r6, sp
   28582:	4630      	mov	r0, r6
   28584:	4629      	mov	r1, r5
   28586:	f7fd fea5 	bl	262d4 <_ZN20complex_dynamic_type3app17he9f96ec939030819E>
   2858a:	7830      	ldrb	r0, [r6, #0]
   2858c:	2801      	cmp	r0, #1
   2858e:	d107      	bne.n	285a0 <_start+0x1500>
   28590:	f001 fe14 	bl	2a1bc <_start+0x311c>
   28594:	00001404 	.word	0x00001404
   28598:	0000052c 	.word	0x0000052c
   2859c:	000013a8 	.word	0x000013a8
   285a0:	481a      	ldr	r0, [pc, #104]	@ (2860c <_start+0x156c>)
   285a2:	4468      	add	r0, sp
   285a4:	78c1      	ldrb	r1, [r0, #3]
   285a6:	4b1a      	ldr	r3, [pc, #104]	@ (28610 <_start+0x1570>)
   285a8:	446b      	add	r3, sp
   285aa:	930a      	str	r3, [sp, #40]	@ 0x28
   285ac:	7099      	strb	r1, [r3, #2]
   285ae:	7841      	ldrb	r1, [r0, #1]
   285b0:	7882      	ldrb	r2, [r0, #2]
   285b2:	0212      	lsls	r2, r2, #8
   285b4:	1851      	adds	r1, r2, r1
   285b6:	8019      	strh	r1, [r3, #0]
   285b8:	3008      	adds	r0, #8
   285ba:	9909      	ldr	r1, [sp, #36]	@ 0x24
   285bc:	6e09      	ldr	r1, [r1, #96]	@ 0x60
   285be:	9108      	str	r1, [sp, #32]
   285c0:	4b14      	ldr	r3, [pc, #80]	@ (28614 <_start+0x1574>)
   285c2:	446b      	add	r3, sp
   285c4:	930b      	str	r3, [sp, #44]	@ 0x2c
   285c6:	c846      	ldmia	r0!, {r1, r2, r6}
   285c8:	c346      	stmia	r3!, {r1, r2, r6}
   285ca:	c846      	ldmia	r0!, {r1, r2, r6}
   285cc:	c346      	stmia	r3!, {r1, r2, r6}
   285ce:	c866      	ldmia	r0!, {r1, r2, r5, r6}
   285d0:	c366      	stmia	r3!, {r1, r2, r5, r6}
   285d2:	8801      	ldrh	r1, [r0, #0]
   285d4:	8019      	strh	r1, [r3, #0]
   285d6:	7880      	ldrb	r0, [r0, #2]
   285d8:	7098      	strb	r0, [r3, #2]
   285da:	9908      	ldr	r1, [sp, #32]
   285dc:	0e08      	lsrs	r0, r1, #24
   285de:	9d0a      	ldr	r5, [sp, #40]	@ 0x28
   285e0:	71a8      	strb	r0, [r5, #6]
   285e2:	0c08      	lsrs	r0, r1, #16
   285e4:	7168      	strb	r0, [r5, #5]
   285e6:	0a08      	lsrs	r0, r1, #8
   285e8:	7128      	strb	r0, [r5, #4]
   285ea:	70e9      	strb	r1, [r5, #3]
   285ec:	1de8      	adds	r0, r5, #7
   285ee:	222b      	movs	r2, #43	@ 0x2b
   285f0:	990b      	ldr	r1, [sp, #44]	@ 0x2c
   285f2:	f001 ffc3 	bl	2a57c <__aeabi_memcpy>
   285f6:	4e05      	ldr	r6, [pc, #20]	@ (2860c <_start+0x156c>)
   285f8:	446e      	add	r6, sp
   285fa:	4630      	mov	r0, r6
   285fc:	4629      	mov	r1, r5
   285fe:	f7fa f937 	bl	22870 <_ZN20complex_dynamic_type3app17h5d7400dcbf723e06E>
   28602:	7830      	ldrb	r0, [r6, #0]
   28604:	2801      	cmp	r0, #1
   28606:	d107      	bne.n	28618 <_start+0x1578>
   28608:	f001 fdd8 	bl	2a1bc <_start+0x311c>
   2860c:	00001404 	.word	0x00001404
   28610:	00000584 	.word	0x00000584
   28614:	000013a8 	.word	0x000013a8
   28618:	481a      	ldr	r0, [pc, #104]	@ (28684 <_start+0x15e4>)
   2861a:	4468      	add	r0, sp
   2861c:	78c1      	ldrb	r1, [r0, #3]
   2861e:	4b1a      	ldr	r3, [pc, #104]	@ (28688 <_start+0x15e8>)
   28620:	446b      	add	r3, sp
   28622:	930a      	str	r3, [sp, #40]	@ 0x28
   28624:	7099      	strb	r1, [r3, #2]
   28626:	7841      	ldrb	r1, [r0, #1]
   28628:	7882      	ldrb	r2, [r0, #2]
   2862a:	0212      	lsls	r2, r2, #8
   2862c:	1851      	adds	r1, r2, r1
   2862e:	8019      	strh	r1, [r3, #0]
   28630:	3008      	adds	r0, #8
   28632:	9909      	ldr	r1, [sp, #36]	@ 0x24
   28634:	6e09      	ldr	r1, [r1, #96]	@ 0x60
   28636:	9108      	str	r1, [sp, #32]
   28638:	4b14      	ldr	r3, [pc, #80]	@ (2868c <_start+0x15ec>)
   2863a:	446b      	add	r3, sp
   2863c:	930b      	str	r3, [sp, #44]	@ 0x2c
   2863e:	c846      	ldmia	r0!, {r1, r2, r6}
   28640:	c346      	stmia	r3!, {r1, r2, r6}
   28642:	c866      	ldmia	r0!, {r1, r2, r5, r6}
   28644:	c366      	stmia	r3!, {r1, r2, r5, r6}
   28646:	c826      	ldmia	r0!, {r1, r2, r5}
   28648:	c326      	stmia	r3!, {r1, r2, r5}
   2864a:	c866      	ldmia	r0!, {r1, r2, r5, r6}
   2864c:	c366      	stmia	r3!, {r1, r2, r5, r6}
   2864e:	8800      	ldrh	r0, [r0, #0]
   28650:	8018      	strh	r0, [r3, #0]
   28652:	9908      	ldr	r1, [sp, #32]
   28654:	0e08      	lsrs	r0, r1, #24
   28656:	9d0a      	ldr	r5, [sp, #40]	@ 0x28
   28658:	71a8      	strb	r0, [r5, #6]
   2865a:	0c08      	lsrs	r0, r1, #16
   2865c:	7168      	strb	r0, [r5, #5]
   2865e:	0a08      	lsrs	r0, r1, #8
   28660:	7128      	strb	r0, [r5, #4]
   28662:	70e9      	strb	r1, [r5, #3]
   28664:	1de8      	adds	r0, r5, #7
   28666:	223a      	movs	r2, #58	@ 0x3a
   28668:	990b      	ldr	r1, [sp, #44]	@ 0x2c
   2866a:	f001 ff87 	bl	2a57c <__aeabi_memcpy>
   2866e:	4e05      	ldr	r6, [pc, #20]	@ (28684 <_start+0x15e4>)
   28670:	446e      	add	r6, sp
   28672:	4630      	mov	r0, r6
   28674:	4629      	mov	r1, r5
   28676:	f7fa fab1 	bl	22bdc <_ZN20complex_dynamic_type3app17h7243ba051c0542feE>
   2867a:	7830      	ldrb	r0, [r6, #0]
   2867c:	2801      	cmp	r0, #1
   2867e:	d107      	bne.n	28690 <_start+0x15f0>
   28680:	f001 fd9c 	bl	2a1bc <_start+0x311c>
   28684:	00001404 	.word	0x00001404
   28688:	000005b8 	.word	0x000005b8
   2868c:	000013a8 	.word	0x000013a8
   28690:	4818      	ldr	r0, [pc, #96]	@ (286f4 <_start+0x1654>)
   28692:	4468      	add	r0, sp
   28694:	78c1      	ldrb	r1, [r0, #3]
   28696:	4d18      	ldr	r5, [pc, #96]	@ (286f8 <_start+0x1658>)
   28698:	446d      	add	r5, sp
   2869a:	70a9      	strb	r1, [r5, #2]
   2869c:	7841      	ldrb	r1, [r0, #1]
   2869e:	7882      	ldrb	r2, [r0, #2]
   286a0:	0212      	lsls	r2, r2, #8
   286a2:	1851      	adds	r1, r2, r1
   286a4:	8029      	strh	r1, [r5, #0]
   286a6:	3008      	adds	r0, #8
   286a8:	9909      	ldr	r1, [sp, #36]	@ 0x24
   286aa:	6e09      	ldr	r1, [r1, #96]	@ 0x60
   286ac:	910a      	str	r1, [sp, #40]	@ 0x28
   286ae:	4b13      	ldr	r3, [pc, #76]	@ (286fc <_start+0x165c>)
   286b0:	446b      	add	r3, sp
   286b2:	930b      	str	r3, [sp, #44]	@ 0x2c
   286b4:	c846      	ldmia	r0!, {r1, r2, r6}
   286b6:	c346      	stmia	r3!, {r1, r2, r6}
   286b8:	c846      	ldmia	r0!, {r1, r2, r6}
   286ba:	c346      	stmia	r3!, {r1, r2, r6}
   286bc:	8801      	ldrh	r1, [r0, #0]
   286be:	8019      	strh	r1, [r3, #0]
   286c0:	7880      	ldrb	r0, [r0, #2]
   286c2:	7098      	strb	r0, [r3, #2]
   286c4:	990a      	ldr	r1, [sp, #40]	@ 0x28
   286c6:	0e08      	lsrs	r0, r1, #24
   286c8:	71a8      	strb	r0, [r5, #6]
   286ca:	0c08      	lsrs	r0, r1, #16
   286cc:	7168      	strb	r0, [r5, #5]
   286ce:	0a08      	lsrs	r0, r1, #8
   286d0:	7128      	strb	r0, [r5, #4]
   286d2:	70e9      	strb	r1, [r5, #3]
   286d4:	1de8      	adds	r0, r5, #7
   286d6:	221b      	movs	r2, #27
   286d8:	990b      	ldr	r1, [sp, #44]	@ 0x2c
   286da:	f001 ff4f 	bl	2a57c <__aeabi_memcpy>
   286de:	4e05      	ldr	r6, [pc, #20]	@ (286f4 <_start+0x1654>)
   286e0:	446e      	add	r6, sp
   286e2:	4630      	mov	r0, r6
   286e4:	4629      	mov	r1, r5
   286e6:	f7fa fe07 	bl	232f8 <_ZN20complex_dynamic_type3app17h89e395c62fcf17dcE>
   286ea:	7830      	ldrb	r0, [r6, #0]
   286ec:	2801      	cmp	r0, #1
   286ee:	d107      	bne.n	28700 <_start+0x1660>
   286f0:	f001 fd64 	bl	2a1bc <_start+0x311c>
   286f4:	00001404 	.word	0x00001404
   286f8:	000005fc 	.word	0x000005fc
   286fc:	000013a8 	.word	0x000013a8
   28700:	4915      	ldr	r1, [pc, #84]	@ (28758 <_start+0x16b8>)
   28702:	4469      	add	r1, sp
   28704:	78c8      	ldrb	r0, [r1, #3]
   28706:	4d15      	ldr	r5, [pc, #84]	@ (2875c <_start+0x16bc>)
   28708:	446d      	add	r5, sp
   2870a:	70a8      	strb	r0, [r5, #2]
   2870c:	7848      	ldrb	r0, [r1, #1]
   2870e:	788a      	ldrb	r2, [r1, #2]
   28710:	0212      	lsls	r2, r2, #8
   28712:	1810      	adds	r0, r2, r0
   28714:	8028      	strh	r0, [r5, #0]
   28716:	9809      	ldr	r0, [sp, #36]	@ 0x24
   28718:	6e06      	ldr	r6, [r0, #96]	@ 0x60
   2871a:	3108      	adds	r1, #8
   2871c:	4810      	ldr	r0, [pc, #64]	@ (28760 <_start+0x16c0>)
   2871e:	4468      	add	r0, sp
   28720:	900b      	str	r0, [sp, #44]	@ 0x2c
   28722:	224a      	movs	r2, #74	@ 0x4a
   28724:	920a      	str	r2, [sp, #40]	@ 0x28
   28726:	f001 fdc9 	bl	2a2bc <__aeabi_memcpy4>
   2872a:	0e30      	lsrs	r0, r6, #24
   2872c:	71a8      	strb	r0, [r5, #6]
   2872e:	0c30      	lsrs	r0, r6, #16
   28730:	7168      	strb	r0, [r5, #5]
   28732:	0a30      	lsrs	r0, r6, #8
   28734:	7128      	strb	r0, [r5, #4]
   28736:	70ee      	strb	r6, [r5, #3]
   28738:	1de8      	adds	r0, r5, #7
   2873a:	990b      	ldr	r1, [sp, #44]	@ 0x2c
   2873c:	9a0a      	ldr	r2, [sp, #40]	@ 0x28
   2873e:	f001 ff1d 	bl	2a57c <__aeabi_memcpy>
   28742:	4e05      	ldr	r6, [pc, #20]	@ (28758 <_start+0x16b8>)
   28744:	446e      	add	r6, sp
   28746:	4630      	mov	r0, r6
   28748:	4629      	mov	r1, r5
   2874a:	f7f9 f98f 	bl	21a6c <_ZN20complex_dynamic_type3app17h39c6dc660ac55295E>
   2874e:	7830      	ldrb	r0, [r6, #0]
   28750:	2801      	cmp	r0, #1
   28752:	d107      	bne.n	28764 <_start+0x16c4>
   28754:	f001 fd32 	bl	2a1bc <_start+0x311c>
   28758:	00001404 	.word	0x00001404
   2875c:	00000620 	.word	0x00000620
   28760:	000013a8 	.word	0x000013a8
   28764:	4915      	ldr	r1, [pc, #84]	@ (287bc <_start+0x171c>)
   28766:	4469      	add	r1, sp
   28768:	78c8      	ldrb	r0, [r1, #3]
   2876a:	4d15      	ldr	r5, [pc, #84]	@ (287c0 <_start+0x1720>)
   2876c:	446d      	add	r5, sp
   2876e:	70a8      	strb	r0, [r5, #2]
   28770:	7848      	ldrb	r0, [r1, #1]
   28772:	788a      	ldrb	r2, [r1, #2]
   28774:	0212      	lsls	r2, r2, #8
   28776:	1810      	adds	r0, r2, r0
   28778:	8028      	strh	r0, [r5, #0]
   2877a:	9809      	ldr	r0, [sp, #36]	@ 0x24
   2877c:	6e06      	ldr	r6, [r0, #96]	@ 0x60
   2877e:	3108      	adds	r1, #8
   28780:	4810      	ldr	r0, [pc, #64]	@ (287c4 <_start+0x1724>)
   28782:	4468      	add	r0, sp
   28784:	900b      	str	r0, [sp, #44]	@ 0x2c
   28786:	2248      	movs	r2, #72	@ 0x48
   28788:	920a      	str	r2, [sp, #40]	@ 0x28
   2878a:	f001 fd97 	bl	2a2bc <__aeabi_memcpy4>
   2878e:	0e30      	lsrs	r0, r6, #24
   28790:	71a8      	strb	r0, [r5, #6]
   28792:	0c30      	lsrs	r0, r6, #16
   28794:	7168      	strb	r0, [r5, #5]
   28796:	0a30      	lsrs	r0, r6, #8
   28798:	7128      	strb	r0, [r5, #4]
   2879a:	70ee      	strb	r6, [r5, #3]
   2879c:	1de8      	adds	r0, r5, #7
   2879e:	990b      	ldr	r1, [sp, #44]	@ 0x2c
   287a0:	9a0a      	ldr	r2, [sp, #40]	@ 0x28
   287a2:	f001 feeb 	bl	2a57c <__aeabi_memcpy>
   287a6:	4e05      	ldr	r6, [pc, #20]	@ (287bc <_start+0x171c>)
   287a8:	446e      	add	r6, sp
   287aa:	4630      	mov	r0, r6
   287ac:	4629      	mov	r1, r5
   287ae:	f7fe fab3 	bl	26d18 <_ZN20complex_dynamic_type3app17hfb6e1797ab68b976E>
   287b2:	7830      	ldrb	r0, [r6, #0]
   287b4:	2801      	cmp	r0, #1
   287b6:	d107      	bne.n	287c8 <_start+0x1728>
   287b8:	f001 fd00 	bl	2a1bc <_start+0x311c>
   287bc:	00001404 	.word	0x00001404
   287c0:	00000674 	.word	0x00000674
   287c4:	000013a8 	.word	0x000013a8
   287c8:	4819      	ldr	r0, [pc, #100]	@ (28830 <_start+0x1790>)
   287ca:	4468      	add	r0, sp
   287cc:	78c1      	ldrb	r1, [r0, #3]
   287ce:	4b19      	ldr	r3, [pc, #100]	@ (28834 <_start+0x1794>)
   287d0:	446b      	add	r3, sp
   287d2:	930a      	str	r3, [sp, #40]	@ 0x28
   287d4:	7099      	strb	r1, [r3, #2]
   287d6:	7841      	ldrb	r1, [r0, #1]
   287d8:	7882      	ldrb	r2, [r0, #2]
   287da:	0212      	lsls	r2, r2, #8
   287dc:	1851      	adds	r1, r2, r1
   287de:	8019      	strh	r1, [r3, #0]
   287e0:	3008      	adds	r0, #8
   287e2:	9909      	ldr	r1, [sp, #36]	@ 0x24
   287e4:	6e09      	ldr	r1, [r1, #96]	@ 0x60
   287e6:	9108      	str	r1, [sp, #32]
   287e8:	4b13      	ldr	r3, [pc, #76]	@ (28838 <_start+0x1798>)
   287ea:	446b      	add	r3, sp
   287ec:	930b      	str	r3, [sp, #44]	@ 0x2c
   287ee:	c846      	ldmia	r0!, {r1, r2, r6}
   287f0:	c346      	stmia	r3!, {r1, r2, r6}
   287f2:	c846      	ldmia	r0!, {r1, r2, r6}
   287f4:	c346      	stmia	r3!, {r1, r2, r6}
   287f6:	c846      	ldmia	r0!, {r1, r2, r6}
   287f8:	c346      	stmia	r3!, {r1, r2, r6}
   287fa:	c866      	ldmia	r0!, {r1, r2, r5, r6}
   287fc:	c366      	stmia	r3!, {r1, r2, r5, r6}
   287fe:	9908      	ldr	r1, [sp, #32]
   28800:	0e08      	lsrs	r0, r1, #24
   28802:	9d0a      	ldr	r5, [sp, #40]	@ 0x28
   28804:	71a8      	strb	r0, [r5, #6]
   28806:	0c08      	lsrs	r0, r1, #16
   28808:	7168      	strb	r0, [r5, #5]
   2880a:	0a08      	lsrs	r0, r1, #8
   2880c:	7128      	strb	r0, [r5, #4]
   2880e:	70e9      	strb	r1, [r5, #3]
   28810:	1de8      	adds	r0, r5, #7
   28812:	2234      	movs	r2, #52	@ 0x34
   28814:	990b      	ldr	r1, [sp, #44]	@ 0x2c
   28816:	f001 feb1 	bl	2a57c <__aeabi_memcpy>
   2881a:	4e05      	ldr	r6, [pc, #20]	@ (28830 <_start+0x1790>)
   2881c:	446e      	add	r6, sp
   2881e:	4630      	mov	r0, r6
   28820:	4629      	mov	r1, r5
   28822:	f7fc fad7 	bl	24dd4 <_ZN20complex_dynamic_type3app17hc07d22258c8d3d5cE>
   28826:	7830      	ldrb	r0, [r6, #0]
   28828:	2801      	cmp	r0, #1
   2882a:	d107      	bne.n	2883c <_start+0x179c>
   2882c:	f001 fcc6 	bl	2a1bc <_start+0x311c>
   28830:	00001404 	.word	0x00001404
   28834:	000006c4 	.word	0x000006c4
   28838:	000013a8 	.word	0x000013a8
   2883c:	4817      	ldr	r0, [pc, #92]	@ (2889c <_start+0x17fc>)
   2883e:	4468      	add	r0, sp
   28840:	78c1      	ldrb	r1, [r0, #3]
   28842:	4b17      	ldr	r3, [pc, #92]	@ (288a0 <_start+0x1800>)
   28844:	446b      	add	r3, sp
   28846:	930a      	str	r3, [sp, #40]	@ 0x28
   28848:	7099      	strb	r1, [r3, #2]
   2884a:	7841      	ldrb	r1, [r0, #1]
   2884c:	7882      	ldrb	r2, [r0, #2]
   2884e:	0212      	lsls	r2, r2, #8
   28850:	1851      	adds	r1, r2, r1
   28852:	8019      	strh	r1, [r3, #0]
   28854:	3008      	adds	r0, #8
   28856:	9909      	ldr	r1, [sp, #36]	@ 0x24
   28858:	6e09      	ldr	r1, [r1, #96]	@ 0x60
   2885a:	9108      	str	r1, [sp, #32]
   2885c:	4b11      	ldr	r3, [pc, #68]	@ (288a4 <_start+0x1804>)
   2885e:	446b      	add	r3, sp
   28860:	930b      	str	r3, [sp, #44]	@ 0x2c
   28862:	c866      	ldmia	r0!, {r1, r2, r5, r6}
   28864:	c366      	stmia	r3!, {r1, r2, r5, r6}
   28866:	c866      	ldmia	r0!, {r1, r2, r5, r6}
   28868:	c366      	stmia	r3!, {r1, r2, r5, r6}
   2886a:	9908      	ldr	r1, [sp, #32]
   2886c:	0e08      	lsrs	r0, r1, #24
   2886e:	9d0a      	ldr	r5, [sp, #40]	@ 0x28
   28870:	71a8      	strb	r0, [r5, #6]
   28872:	0c08      	lsrs	r0, r1, #16
   28874:	7168      	strb	r0, [r5, #5]
   28876:	0a08      	lsrs	r0, r1, #8
   28878:	7128      	strb	r0, [r5, #4]
   2887a:	70e9      	strb	r1, [r5, #3]
   2887c:	1de8      	adds	r0, r5, #7
   2887e:	2220      	movs	r2, #32
   28880:	990b      	ldr	r1, [sp, #44]	@ 0x2c
   28882:	f001 fe7b 	bl	2a57c <__aeabi_memcpy>
   28886:	4e05      	ldr	r6, [pc, #20]	@ (2889c <_start+0x17fc>)
   28888:	446e      	add	r6, sp
   2888a:	4630      	mov	r0, r6
   2888c:	4629      	mov	r1, r5
   2888e:	f7fc fd81 	bl	25394 <_ZN20complex_dynamic_type3app17hc9b0db4c40f16a34E>
   28892:	7830      	ldrb	r0, [r6, #0]
   28894:	2801      	cmp	r0, #1
   28896:	d107      	bne.n	288a8 <_start+0x1808>
   28898:	f001 fc90 	bl	2a1bc <_start+0x311c>
   2889c:	00001404 	.word	0x00001404
   288a0:	00000700 	.word	0x00000700
   288a4:	000013a8 	.word	0x000013a8
   288a8:	4816      	ldr	r0, [pc, #88]	@ (28904 <_start+0x1864>)
   288aa:	4468      	add	r0, sp
   288ac:	78c1      	ldrb	r1, [r0, #3]
   288ae:	4d16      	ldr	r5, [pc, #88]	@ (28908 <_start+0x1868>)
   288b0:	446d      	add	r5, sp
   288b2:	70a9      	strb	r1, [r5, #2]
   288b4:	7841      	ldrb	r1, [r0, #1]
   288b6:	7882      	ldrb	r2, [r0, #2]
   288b8:	0212      	lsls	r2, r2, #8
   288ba:	1851      	adds	r1, r2, r1
   288bc:	8029      	strh	r1, [r5, #0]
   288be:	3008      	adds	r0, #8
   288c0:	9909      	ldr	r1, [sp, #36]	@ 0x24
   288c2:	6e09      	ldr	r1, [r1, #96]	@ 0x60
   288c4:	910a      	str	r1, [sp, #40]	@ 0x28
   288c6:	4b11      	ldr	r3, [pc, #68]	@ (2890c <_start+0x186c>)
   288c8:	446b      	add	r3, sp
   288ca:	930b      	str	r3, [sp, #44]	@ 0x2c
   288cc:	c846      	ldmia	r0!, {r1, r2, r6}
   288ce:	c346      	stmia	r3!, {r1, r2, r6}
   288d0:	7800      	ldrb	r0, [r0, #0]
   288d2:	7018      	strb	r0, [r3, #0]
   288d4:	990a      	ldr	r1, [sp, #40]	@ 0x28
   288d6:	0e08      	lsrs	r0, r1, #24
   288d8:	71a8      	strb	r0, [r5, #6]
   288da:	0c08      	lsrs	r0, r1, #16
   288dc:	7168      	strb	r0, [r5, #5]
   288de:	0a08      	lsrs	r0, r1, #8
   288e0:	7128      	strb	r0, [r5, #4]
   288e2:	70e9      	strb	r1, [r5, #3]
   288e4:	1de8      	adds	r0, r5, #7
   288e6:	220d      	movs	r2, #13
   288e8:	990b      	ldr	r1, [sp, #44]	@ 0x2c
   288ea:	f001 fe47 	bl	2a57c <__aeabi_memcpy>
   288ee:	4e05      	ldr	r6, [pc, #20]	@ (28904 <_start+0x1864>)
   288f0:	446e      	add	r6, sp
   288f2:	4630      	mov	r0, r6
   288f4:	4629      	mov	r1, r5
   288f6:	f7fd ff1f 	bl	26738 <_ZN20complex_dynamic_type3app17hee77a4abd22b402cE>
   288fa:	7830      	ldrb	r0, [r6, #0]
   288fc:	2801      	cmp	r0, #1
   288fe:	d107      	bne.n	28910 <_start+0x1870>
   28900:	f001 fc5c 	bl	2a1bc <_start+0x311c>
   28904:	00001404 	.word	0x00001404
   28908:	00000728 	.word	0x00000728
   2890c:	000013a8 	.word	0x000013a8
   28910:	4817      	ldr	r0, [pc, #92]	@ (28970 <_start+0x18d0>)
   28912:	4468      	add	r0, sp
   28914:	78c1      	ldrb	r1, [r0, #3]
   28916:	4d17      	ldr	r5, [pc, #92]	@ (28974 <_start+0x18d4>)
   28918:	446d      	add	r5, sp
   2891a:	70a9      	strb	r1, [r5, #2]
   2891c:	7841      	ldrb	r1, [r0, #1]
   2891e:	7882      	ldrb	r2, [r0, #2]
   28920:	0212      	lsls	r2, r2, #8
   28922:	1851      	adds	r1, r2, r1
   28924:	8029      	strh	r1, [r5, #0]
   28926:	3008      	adds	r0, #8
   28928:	9909      	ldr	r1, [sp, #36]	@ 0x24
   2892a:	6e09      	ldr	r1, [r1, #96]	@ 0x60
   2892c:	910a      	str	r1, [sp, #40]	@ 0x28
   2892e:	4b12      	ldr	r3, [pc, #72]	@ (28978 <_start+0x18d8>)
   28930:	446b      	add	r3, sp
   28932:	930b      	str	r3, [sp, #44]	@ 0x2c
   28934:	c846      	ldmia	r0!, {r1, r2, r6}
   28936:	c346      	stmia	r3!, {r1, r2, r6}
   28938:	c846      	ldmia	r0!, {r1, r2, r6}
   2893a:	c346      	stmia	r3!, {r1, r2, r6}
   2893c:	c846      	ldmia	r0!, {r1, r2, r6}
   2893e:	c346      	stmia	r3!, {r1, r2, r6}
   28940:	990a      	ldr	r1, [sp, #40]	@ 0x28
   28942:	0e08      	lsrs	r0, r1, #24
   28944:	71a8      	strb	r0, [r5, #6]
   28946:	0c08      	lsrs	r0, r1, #16
   28948:	7168      	strb	r0, [r5, #5]
   2894a:	0a08      	lsrs	r0, r1, #8
   2894c:	7128      	strb	r0, [r5, #4]
   2894e:	70e9      	strb	r1, [r5, #3]
   28950:	1de8      	adds	r0, r5, #7
   28952:	2224      	movs	r2, #36	@ 0x24
   28954:	990b      	ldr	r1, [sp, #44]	@ 0x2c
   28956:	f001 fe11 	bl	2a57c <__aeabi_memcpy>
   2895a:	4e05      	ldr	r6, [pc, #20]	@ (28970 <_start+0x18d0>)
   2895c:	446e      	add	r6, sp
   2895e:	4630      	mov	r0, r6
   28960:	4629      	mov	r1, r5
   28962:	f7fb f8d9 	bl	23b18 <_ZN20complex_dynamic_type3app17h943b85a610ba91daE>
   28966:	7830      	ldrb	r0, [r6, #0]
   28968:	2801      	cmp	r0, #1
   2896a:	d107      	bne.n	2897c <_start+0x18dc>
   2896c:	f001 fc26 	bl	2a1bc <_start+0x311c>
   28970:	00001404 	.word	0x00001404
   28974:	0000073c 	.word	0x0000073c
   28978:	000013a8 	.word	0x000013a8
   2897c:	4818      	ldr	r0, [pc, #96]	@ (289e0 <_start+0x1940>)
   2897e:	4468      	add	r0, sp
   28980:	78c1      	ldrb	r1, [r0, #3]
   28982:	4d18      	ldr	r5, [pc, #96]	@ (289e4 <_start+0x1944>)
   28984:	446d      	add	r5, sp
   28986:	70a9      	strb	r1, [r5, #2]
   28988:	7841      	ldrb	r1, [r0, #1]
   2898a:	7882      	ldrb	r2, [r0, #2]
   2898c:	0212      	lsls	r2, r2, #8
   2898e:	1851      	adds	r1, r2, r1
   28990:	8029      	strh	r1, [r5, #0]
   28992:	3008      	adds	r0, #8
   28994:	9909      	ldr	r1, [sp, #36]	@ 0x24
   28996:	6e09      	ldr	r1, [r1, #96]	@ 0x60
   28998:	910a      	str	r1, [sp, #40]	@ 0x28
   2899a:	4b13      	ldr	r3, [pc, #76]	@ (289e8 <_start+0x1948>)
   2899c:	446b      	add	r3, sp
   2899e:	930b      	str	r3, [sp, #44]	@ 0x2c
   289a0:	c844      	ldmia	r0!, {r2, r6}
   289a2:	c344      	stmia	r3!, {r2, r6}
   289a4:	c846      	ldmia	r0!, {r1, r2, r6}
   289a6:	c346      	stmia	r3!, {r1, r2, r6}
   289a8:	8801      	ldrh	r1, [r0, #0]
   289aa:	8019      	strh	r1, [r3, #0]
   289ac:	7880      	ldrb	r0, [r0, #2]
   289ae:	7098      	strb	r0, [r3, #2]
   289b0:	990a      	ldr	r1, [sp, #40]	@ 0x28
   289b2:	0e08      	lsrs	r0, r1, #24
   289b4:	71a8      	strb	r0, [r5, #6]
   289b6:	0c08      	lsrs	r0, r1, #16
   289b8:	7168      	strb	r0, [r5, #5]
   289ba:	0a08      	lsrs	r0, r1, #8
   289bc:	7128      	strb	r0, [r5, #4]
   289be:	70e9      	strb	r1, [r5, #3]
   289c0:	1de8      	adds	r0, r5, #7
   289c2:	2217      	movs	r2, #23
   289c4:	990b      	ldr	r1, [sp, #44]	@ 0x2c
   289c6:	f001 fdd9 	bl	2a57c <__aeabi_memcpy>
   289ca:	4e05      	ldr	r6, [pc, #20]	@ (289e0 <_start+0x1940>)
   289cc:	446e      	add	r6, sp
   289ce:	4630      	mov	r0, r6
   289d0:	4629      	mov	r1, r5
   289d2:	f7f8 fd61 	bl	21498 <_ZN20complex_dynamic_type3app17h30136ecc9cfcff52E>
   289d6:	7830      	ldrb	r0, [r6, #0]
   289d8:	2801      	cmp	r0, #1
   289da:	d107      	bne.n	289ec <_start+0x194c>
   289dc:	f001 fbee 	bl	2a1bc <_start+0x311c>
   289e0:	00001404 	.word	0x00001404
   289e4:	00000768 	.word	0x00000768
   289e8:	000013a8 	.word	0x000013a8
   289ec:	4915      	ldr	r1, [pc, #84]	@ (28a44 <_start+0x19a4>)
   289ee:	4469      	add	r1, sp
   289f0:	78c8      	ldrb	r0, [r1, #3]
   289f2:	4d15      	ldr	r5, [pc, #84]	@ (28a48 <_start+0x19a8>)
   289f4:	446d      	add	r5, sp
   289f6:	70a8      	strb	r0, [r5, #2]
   289f8:	7848      	ldrb	r0, [r1, #1]
   289fa:	788a      	ldrb	r2, [r1, #2]
   289fc:	0212      	lsls	r2, r2, #8
   289fe:	1810      	adds	r0, r2, r0
   28a00:	8028      	strh	r0, [r5, #0]
   28a02:	9809      	ldr	r0, [sp, #36]	@ 0x24
   28a04:	6e06      	ldr	r6, [r0, #96]	@ 0x60
   28a06:	3108      	adds	r1, #8
   28a08:	4810      	ldr	r0, [pc, #64]	@ (28a4c <_start+0x19ac>)
   28a0a:	4468      	add	r0, sp
   28a0c:	900b      	str	r0, [sp, #44]	@ 0x2c
   28a0e:	224a      	movs	r2, #74	@ 0x4a
   28a10:	920a      	str	r2, [sp, #40]	@ 0x28
   28a12:	f001 fc53 	bl	2a2bc <__aeabi_memcpy4>
   28a16:	0e30      	lsrs	r0, r6, #24
   28a18:	71a8      	strb	r0, [r5, #6]
   28a1a:	0c30      	lsrs	r0, r6, #16
   28a1c:	7168      	strb	r0, [r5, #5]
   28a1e:	0a30      	lsrs	r0, r6, #8
   28a20:	7128      	strb	r0, [r5, #4]
   28a22:	70ee      	strb	r6, [r5, #3]
   28a24:	1de8      	adds	r0, r5, #7
   28a26:	990b      	ldr	r1, [sp, #44]	@ 0x2c
   28a28:	9a0a      	ldr	r2, [sp, #40]	@ 0x28
   28a2a:	f001 fda7 	bl	2a57c <__aeabi_memcpy>
   28a2e:	4e05      	ldr	r6, [pc, #20]	@ (28a44 <_start+0x19a4>)
   28a30:	446e      	add	r6, sp
   28a32:	4630      	mov	r0, r6
   28a34:	4629      	mov	r1, r5
   28a36:	f7fe fa05 	bl	26e44 <_ZN20complex_dynamic_type3app17hfc63c9cd53465324E>
   28a3a:	7830      	ldrb	r0, [r6, #0]
   28a3c:	2801      	cmp	r0, #1
   28a3e:	d107      	bne.n	28a50 <_start+0x19b0>
   28a40:	f001 fbbc 	bl	2a1bc <_start+0x311c>
   28a44:	00001404 	.word	0x00001404
   28a48:	00000788 	.word	0x00000788
   28a4c:	000013a8 	.word	0x000013a8
   28a50:	9803      	ldr	r0, [sp, #12]
   28a52:	1cc0      	adds	r0, r0, #3
   28a54:	4a16      	ldr	r2, [pc, #88]	@ (28ab0 <_start+0x1a10>)
   28a56:	446a      	add	r2, sp
   28a58:	78d3      	ldrb	r3, [r2, #3]
   28a5a:	4916      	ldr	r1, [pc, #88]	@ (28ab4 <_start+0x1a14>)
   28a5c:	4469      	add	r1, sp
   28a5e:	708b      	strb	r3, [r1, #2]
   28a60:	7853      	ldrb	r3, [r2, #1]
   28a62:	7892      	ldrb	r2, [r2, #2]
   28a64:	0212      	lsls	r2, r2, #8
   28a66:	18d2      	adds	r2, r2, r3
   28a68:	800a      	strh	r2, [r1, #0]
   28a6a:	9d09      	ldr	r5, [sp, #36]	@ 0x24
   28a6c:	3560      	adds	r5, #96	@ 0x60
   28a6e:	cd2c      	ldmia	r5, {r2, r3, r5}
   28a70:	0e2e      	lsrs	r6, r5, #24
   28a72:	72c6      	strb	r6, [r0, #11]
   28a74:	0c2e      	lsrs	r6, r5, #16
   28a76:	7286      	strb	r6, [r0, #10]
   28a78:	0a2e      	lsrs	r6, r5, #8
   28a7a:	7246      	strb	r6, [r0, #9]
   28a7c:	7205      	strb	r5, [r0, #8]
   28a7e:	0e1d      	lsrs	r5, r3, #24
   28a80:	71c5      	strb	r5, [r0, #7]
   28a82:	0c1d      	lsrs	r5, r3, #16
   28a84:	7185      	strb	r5, [r0, #6]
   28a86:	0a1d      	lsrs	r5, r3, #8
   28a88:	7145      	strb	r5, [r0, #5]
   28a8a:	7103      	strb	r3, [r0, #4]
   28a8c:	0e13      	lsrs	r3, r2, #24
   28a8e:	70c3      	strb	r3, [r0, #3]
   28a90:	0c13      	lsrs	r3, r2, #16
   28a92:	7083      	strb	r3, [r0, #2]
   28a94:	0a13      	lsrs	r3, r2, #8
   28a96:	7043      	strb	r3, [r0, #1]
   28a98:	7002      	strb	r2, [r0, #0]
   28a9a:	4d05      	ldr	r5, [pc, #20]	@ (28ab0 <_start+0x1a10>)
   28a9c:	446d      	add	r5, sp
   28a9e:	4628      	mov	r0, r5
   28aa0:	f7f8 fe1a 	bl	216d8 <_ZN20complex_dynamic_type3app17h3366cd25743259e8E>
   28aa4:	7828      	ldrb	r0, [r5, #0]
   28aa6:	2801      	cmp	r0, #1
   28aa8:	d106      	bne.n	28ab8 <_start+0x1a18>
   28aaa:	f001 fb87 	bl	2a1bc <_start+0x311c>
   28aae:	46c0      	nop			@ (mov r8, r8)
   28ab0:	00001404 	.word	0x00001404
   28ab4:	000007dc 	.word	0x000007dc
   28ab8:	481b      	ldr	r0, [pc, #108]	@ (28b28 <_start+0x1a88>)
   28aba:	4468      	add	r0, sp
   28abc:	78c1      	ldrb	r1, [r0, #3]
   28abe:	4b1b      	ldr	r3, [pc, #108]	@ (28b2c <_start+0x1a8c>)
   28ac0:	446b      	add	r3, sp
   28ac2:	930a      	str	r3, [sp, #40]	@ 0x28
   28ac4:	7099      	strb	r1, [r3, #2]
   28ac6:	7841      	ldrb	r1, [r0, #1]
   28ac8:	7882      	ldrb	r2, [r0, #2]
   28aca:	0212      	lsls	r2, r2, #8
   28acc:	1851      	adds	r1, r2, r1
   28ace:	8019      	strh	r1, [r3, #0]
   28ad0:	3008      	adds	r0, #8
   28ad2:	9909      	ldr	r1, [sp, #36]	@ 0x24
   28ad4:	6e09      	ldr	r1, [r1, #96]	@ 0x60
   28ad6:	9108      	str	r1, [sp, #32]
   28ad8:	4b15      	ldr	r3, [pc, #84]	@ (28b30 <_start+0x1a90>)
   28ada:	446b      	add	r3, sp
   28adc:	930b      	str	r3, [sp, #44]	@ 0x2c
   28ade:	c846      	ldmia	r0!, {r1, r2, r6}
   28ae0:	c346      	stmia	r3!, {r1, r2, r6}
   28ae2:	c866      	ldmia	r0!, {r1, r2, r5, r6}
   28ae4:	c366      	stmia	r3!, {r1, r2, r5, r6}
   28ae6:	c866      	ldmia	r0!, {r1, r2, r5, r6}
   28ae8:	c366      	stmia	r3!, {r1, r2, r5, r6}
   28aea:	c866      	ldmia	r0!, {r1, r2, r5, r6}
   28aec:	c366      	stmia	r3!, {r1, r2, r5, r6}
   28aee:	8801      	ldrh	r1, [r0, #0]
   28af0:	8019      	strh	r1, [r3, #0]
   28af2:	7880      	ldrb	r0, [r0, #2]
   28af4:	7098      	strb	r0, [r3, #2]
   28af6:	9908      	ldr	r1, [sp, #32]
   28af8:	0e08      	lsrs	r0, r1, #24
   28afa:	9d0a      	ldr	r5, [sp, #40]	@ 0x28
   28afc:	71a8      	strb	r0, [r5, #6]
   28afe:	0c08      	lsrs	r0, r1, #16
   28b00:	7168      	strb	r0, [r5, #5]
   28b02:	0a08      	lsrs	r0, r1, #8
   28b04:	7128      	strb	r0, [r5, #4]
   28b06:	70e9      	strb	r1, [r5, #3]
   28b08:	1de8      	adds	r0, r5, #7
   28b0a:	223f      	movs	r2, #63	@ 0x3f
   28b0c:	990b      	ldr	r1, [sp, #44]	@ 0x2c
   28b0e:	f001 fd35 	bl	2a57c <__aeabi_memcpy>
   28b12:	4e05      	ldr	r6, [pc, #20]	@ (28b28 <_start+0x1a88>)
   28b14:	446e      	add	r6, sp
   28b16:	4630      	mov	r0, r6
   28b18:	4629      	mov	r1, r5
   28b1a:	f7f9 fb31 	bl	22180 <_ZN20complex_dynamic_type3app17h4db3087656b3c33aE>
   28b1e:	7830      	ldrb	r0, [r6, #0]
   28b20:	2801      	cmp	r0, #1
   28b22:	d107      	bne.n	28b34 <_start+0x1a94>
   28b24:	f001 fb4a 	bl	2a1bc <_start+0x311c>
   28b28:	00001404 	.word	0x00001404
   28b2c:	000007ec 	.word	0x000007ec
   28b30:	000013a8 	.word	0x000013a8
   28b34:	4915      	ldr	r1, [pc, #84]	@ (28b8c <_start+0x1aec>)
   28b36:	4469      	add	r1, sp
   28b38:	78c8      	ldrb	r0, [r1, #3]
   28b3a:	4d15      	ldr	r5, [pc, #84]	@ (28b90 <_start+0x1af0>)
   28b3c:	446d      	add	r5, sp
   28b3e:	70a8      	strb	r0, [r5, #2]
   28b40:	7848      	ldrb	r0, [r1, #1]
   28b42:	788a      	ldrb	r2, [r1, #2]
   28b44:	0212      	lsls	r2, r2, #8
   28b46:	1810      	adds	r0, r2, r0
   28b48:	8028      	strh	r0, [r5, #0]
   28b4a:	9809      	ldr	r0, [sp, #36]	@ 0x24
   28b4c:	6e06      	ldr	r6, [r0, #96]	@ 0x60
   28b4e:	3108      	adds	r1, #8
   28b50:	4810      	ldr	r0, [pc, #64]	@ (28b94 <_start+0x1af4>)
   28b52:	4468      	add	r0, sp
   28b54:	900b      	str	r0, [sp, #44]	@ 0x2c
   28b56:	224f      	movs	r2, #79	@ 0x4f
   28b58:	920a      	str	r2, [sp, #40]	@ 0x28
   28b5a:	f001 fbaf 	bl	2a2bc <__aeabi_memcpy4>
   28b5e:	0e30      	lsrs	r0, r6, #24
   28b60:	71a8      	strb	r0, [r5, #6]
   28b62:	0c30      	lsrs	r0, r6, #16
   28b64:	7168      	strb	r0, [r5, #5]
   28b66:	0a30      	lsrs	r0, r6, #8
   28b68:	7128      	strb	r0, [r5, #4]
   28b6a:	70ee      	strb	r6, [r5, #3]
   28b6c:	1de8      	adds	r0, r5, #7
   28b6e:	990b      	ldr	r1, [sp, #44]	@ 0x2c
   28b70:	9a0a      	ldr	r2, [sp, #40]	@ 0x28
   28b72:	f001 fd03 	bl	2a57c <__aeabi_memcpy>
   28b76:	4e05      	ldr	r6, [pc, #20]	@ (28b8c <_start+0x1aec>)
   28b78:	446e      	add	r6, sp
   28b7a:	4630      	mov	r0, r6
   28b7c:	4629      	mov	r1, r5
   28b7e:	f7f7 fc75 	bl	2046c <_ZN20complex_dynamic_type3app17h05a2fa5c19b44b05E>
   28b82:	7830      	ldrb	r0, [r6, #0]
   28b84:	2801      	cmp	r0, #1
   28b86:	d107      	bne.n	28b98 <_start+0x1af8>
   28b88:	f001 fb18 	bl	2a1bc <_start+0x311c>
   28b8c:	00001404 	.word	0x00001404
   28b90:	00000834 	.word	0x00000834
   28b94:	000013a8 	.word	0x000013a8
   28b98:	4915      	ldr	r1, [pc, #84]	@ (28bf0 <_start+0x1b50>)
   28b9a:	4469      	add	r1, sp
   28b9c:	78c8      	ldrb	r0, [r1, #3]
   28b9e:	4d15      	ldr	r5, [pc, #84]	@ (28bf4 <_start+0x1b54>)
   28ba0:	446d      	add	r5, sp
   28ba2:	70a8      	strb	r0, [r5, #2]
   28ba4:	7848      	ldrb	r0, [r1, #1]
   28ba6:	788a      	ldrb	r2, [r1, #2]
   28ba8:	0212      	lsls	r2, r2, #8
   28baa:	1810      	adds	r0, r2, r0
   28bac:	8028      	strh	r0, [r5, #0]
   28bae:	9809      	ldr	r0, [sp, #36]	@ 0x24
   28bb0:	6e06      	ldr	r6, [r0, #96]	@ 0x60
   28bb2:	3108      	adds	r1, #8
   28bb4:	4810      	ldr	r0, [pc, #64]	@ (28bf8 <_start+0x1b58>)
   28bb6:	4468      	add	r0, sp
   28bb8:	900b      	str	r0, [sp, #44]	@ 0x2c
   28bba:	2242      	movs	r2, #66	@ 0x42
   28bbc:	920a      	str	r2, [sp, #40]	@ 0x28
   28bbe:	f001 fb7d 	bl	2a2bc <__aeabi_memcpy4>
   28bc2:	0e30      	lsrs	r0, r6, #24
   28bc4:	71a8      	strb	r0, [r5, #6]
   28bc6:	0c30      	lsrs	r0, r6, #16
   28bc8:	7168      	strb	r0, [r5, #5]
   28bca:	0a30      	lsrs	r0, r6, #8
   28bcc:	7128      	strb	r0, [r5, #4]
   28bce:	70ee      	strb	r6, [r5, #3]
   28bd0:	1de8      	adds	r0, r5, #7
   28bd2:	990b      	ldr	r1, [sp, #44]	@ 0x2c
   28bd4:	9a0a      	ldr	r2, [sp, #40]	@ 0x28
   28bd6:	f001 fcd1 	bl	2a57c <__aeabi_memcpy>
   28bda:	4e05      	ldr	r6, [pc, #20]	@ (28bf0 <_start+0x1b50>)
   28bdc:	446e      	add	r6, sp
   28bde:	4630      	mov	r0, r6
   28be0:	4629      	mov	r1, r5
   28be2:	f7fd ff6b 	bl	26abc <_ZN20complex_dynamic_type3app17hf74375dfaef2c4ebE>
   28be6:	7830      	ldrb	r0, [r6, #0]
   28be8:	2801      	cmp	r0, #1
   28bea:	d107      	bne.n	28bfc <_start+0x1b5c>
   28bec:	f001 fae6 	bl	2a1bc <_start+0x311c>
   28bf0:	00001404 	.word	0x00001404
   28bf4:	0000088c 	.word	0x0000088c
   28bf8:	000013a8 	.word	0x000013a8
   28bfc:	4817      	ldr	r0, [pc, #92]	@ (28c5c <_start+0x1bbc>)
   28bfe:	4468      	add	r0, sp
   28c00:	78c1      	ldrb	r1, [r0, #3]
   28c02:	4b17      	ldr	r3, [pc, #92]	@ (28c60 <_start+0x1bc0>)
   28c04:	446b      	add	r3, sp
   28c06:	930a      	str	r3, [sp, #40]	@ 0x28
   28c08:	7099      	strb	r1, [r3, #2]
   28c0a:	7841      	ldrb	r1, [r0, #1]
   28c0c:	7882      	ldrb	r2, [r0, #2]
   28c0e:	0212      	lsls	r2, r2, #8
   28c10:	1851      	adds	r1, r2, r1
   28c12:	8019      	strh	r1, [r3, #0]
   28c14:	3008      	adds	r0, #8
   28c16:	9909      	ldr	r1, [sp, #36]	@ 0x24
   28c18:	6e09      	ldr	r1, [r1, #96]	@ 0x60
   28c1a:	9108      	str	r1, [sp, #32]
   28c1c:	4b11      	ldr	r3, [pc, #68]	@ (28c64 <_start+0x1bc4>)
   28c1e:	446b      	add	r3, sp
   28c20:	930b      	str	r3, [sp, #44]	@ 0x2c
   28c22:	c846      	ldmia	r0!, {r1, r2, r6}
   28c24:	c346      	stmia	r3!, {r1, r2, r6}
   28c26:	c866      	ldmia	r0!, {r1, r2, r5, r6}
   28c28:	c366      	stmia	r3!, {r1, r2, r5, r6}
   28c2a:	9908      	ldr	r1, [sp, #32]
   28c2c:	0e08      	lsrs	r0, r1, #24
   28c2e:	9d0a      	ldr	r5, [sp, #40]	@ 0x28
   28c30:	71a8      	strb	r0, [r5, #6]
   28c32:	0c08      	lsrs	r0, r1, #16
   28c34:	7168      	strb	r0, [r5, #5]
   28c36:	0a08      	lsrs	r0, r1, #8
   28c38:	7128      	strb	r0, [r5, #4]
   28c3a:	70e9      	strb	r1, [r5, #3]
   28c3c:	1de8      	adds	r0, r5, #7
   28c3e:	221c      	movs	r2, #28
   28c40:	990b      	ldr	r1, [sp, #44]	@ 0x2c
   28c42:	f001 fc9b 	bl	2a57c <__aeabi_memcpy>
   28c46:	4e05      	ldr	r6, [pc, #20]	@ (28c5c <_start+0x1bbc>)
   28c48:	446e      	add	r6, sp
   28c4a:	4630      	mov	r0, r6
   28c4c:	4629      	mov	r1, r5
   28c4e:	f7fb ff91 	bl	24b74 <_ZN20complex_dynamic_type3app17hbdb06ee5d7160584E>
   28c52:	7830      	ldrb	r0, [r6, #0]
   28c54:	2801      	cmp	r0, #1
   28c56:	d107      	bne.n	28c68 <_start+0x1bc8>
   28c58:	f001 fab0 	bl	2a1bc <_start+0x311c>
   28c5c:	00001404 	.word	0x00001404
   28c60:	000008d8 	.word	0x000008d8
   28c64:	000013a8 	.word	0x000013a8
   28c68:	4817      	ldr	r0, [pc, #92]	@ (28cc8 <_start+0x1c28>)
   28c6a:	4468      	add	r0, sp
   28c6c:	78c1      	ldrb	r1, [r0, #3]
   28c6e:	4d17      	ldr	r5, [pc, #92]	@ (28ccc <_start+0x1c2c>)
   28c70:	446d      	add	r5, sp
   28c72:	70a9      	strb	r1, [r5, #2]
   28c74:	7841      	ldrb	r1, [r0, #1]
   28c76:	7882      	ldrb	r2, [r0, #2]
   28c78:	0212      	lsls	r2, r2, #8
   28c7a:	1851      	adds	r1, r2, r1
   28c7c:	8029      	strh	r1, [r5, #0]
   28c7e:	3008      	adds	r0, #8
   28c80:	9909      	ldr	r1, [sp, #36]	@ 0x24
   28c82:	6e09      	ldr	r1, [r1, #96]	@ 0x60
   28c84:	910a      	str	r1, [sp, #40]	@ 0x28
   28c86:	4b12      	ldr	r3, [pc, #72]	@ (28cd0 <_start+0x1c30>)
   28c88:	446b      	add	r3, sp
   28c8a:	930b      	str	r3, [sp, #44]	@ 0x2c
   28c8c:	c846      	ldmia	r0!, {r1, r2, r6}
   28c8e:	c346      	stmia	r3!, {r1, r2, r6}
   28c90:	c846      	ldmia	r0!, {r1, r2, r6}
   28c92:	c346      	stmia	r3!, {r1, r2, r6}
   28c94:	c846      	ldmia	r0!, {r1, r2, r6}
   28c96:	c346      	stmia	r3!, {r1, r2, r6}
   28c98:	990a      	ldr	r1, [sp, #40]	@ 0x28
   28c9a:	0e08      	lsrs	r0, r1, #24
   28c9c:	71a8      	strb	r0, [r5, #6]
   28c9e:	0c08      	lsrs	r0, r1, #16
   28ca0:	7168      	strb	r0, [r5, #5]
   28ca2:	0a08      	lsrs	r0, r1, #8
   28ca4:	7128      	strb	r0, [r5, #4]
   28ca6:	70e9      	strb	r1, [r5, #3]
   28ca8:	1de8      	adds	r0, r5, #7
   28caa:	2224      	movs	r2, #36	@ 0x24
   28cac:	990b      	ldr	r1, [sp, #44]	@ 0x2c
   28cae:	f001 fc65 	bl	2a57c <__aeabi_memcpy>
   28cb2:	4e05      	ldr	r6, [pc, #20]	@ (28cc8 <_start+0x1c28>)
   28cb4:	446e      	add	r6, sp
   28cb6:	4630      	mov	r0, r6
   28cb8:	4629      	mov	r1, r5
   28cba:	f7fa fd69 	bl	23790 <_ZN20complex_dynamic_type3app17h90c4a236db18be73E>
   28cbe:	7830      	ldrb	r0, [r6, #0]
   28cc0:	2801      	cmp	r0, #1
   28cc2:	d107      	bne.n	28cd4 <_start+0x1c34>
   28cc4:	f001 fa7a 	bl	2a1bc <_start+0x311c>
   28cc8:	00001404 	.word	0x00001404
   28ccc:	000008fc 	.word	0x000008fc
   28cd0:	000013a8 	.word	0x000013a8
   28cd4:	4914      	ldr	r1, [pc, #80]	@ (28d28 <_start+0x1c88>)
   28cd6:	4469      	add	r1, sp
   28cd8:	9b09      	ldr	r3, [sp, #36]	@ 0x24
   28cda:	6e98      	ldr	r0, [r3, #104]	@ 0x68
   28cdc:	8088      	strh	r0, [r1, #4]
   28cde:	4813      	ldr	r0, [pc, #76]	@ (28d2c <_start+0x1c8c>)
   28ce0:	4468      	add	r0, sp
   28ce2:	78c2      	ldrb	r2, [r0, #3]
   28ce4:	4d12      	ldr	r5, [pc, #72]	@ (28d30 <_start+0x1c90>)
   28ce6:	446d      	add	r5, sp
   28ce8:	70aa      	strb	r2, [r5, #2]
   28cea:	7842      	ldrb	r2, [r0, #1]
   28cec:	7880      	ldrb	r0, [r0, #2]
   28cee:	0200      	lsls	r0, r0, #8
   28cf0:	1880      	adds	r0, r0, r2
   28cf2:	8028      	strh	r0, [r5, #0]
   28cf4:	6e18      	ldr	r0, [r3, #96]	@ 0x60
   28cf6:	70e8      	strb	r0, [r5, #3]
   28cf8:	0e02      	lsrs	r2, r0, #24
   28cfa:	71aa      	strb	r2, [r5, #6]
   28cfc:	0c02      	lsrs	r2, r0, #16
   28cfe:	716a      	strb	r2, [r5, #5]
   28d00:	0a00      	lsrs	r0, r0, #8
   28d02:	7128      	strb	r0, [r5, #4]
   28d04:	6e58      	ldr	r0, [r3, #100]	@ 0x64
   28d06:	6018      	str	r0, [r3, #0]
   28d08:	1de8      	adds	r0, r5, #7
   28d0a:	2206      	movs	r2, #6
   28d0c:	f001 fc36 	bl	2a57c <__aeabi_memcpy>
   28d10:	4e06      	ldr	r6, [pc, #24]	@ (28d2c <_start+0x1c8c>)
   28d12:	446e      	add	r6, sp
   28d14:	4630      	mov	r0, r6
   28d16:	4629      	mov	r1, r5
   28d18:	f7f8 fc58 	bl	215cc <_ZN20complex_dynamic_type3app17h31f6a8a13ee804c7E>
   28d1c:	7830      	ldrb	r0, [r6, #0]
   28d1e:	2801      	cmp	r0, #1
   28d20:	d108      	bne.n	28d34 <_start+0x1c94>
   28d22:	f001 fa4b 	bl	2a1bc <_start+0x311c>
   28d26:	46c0      	nop			@ (mov r8, r8)
   28d28:	000013a8 	.word	0x000013a8
   28d2c:	00001404 	.word	0x00001404
   28d30:	00000928 	.word	0x00000928
   28d34:	4817      	ldr	r0, [pc, #92]	@ (28d94 <_start+0x1cf4>)
   28d36:	4468      	add	r0, sp
   28d38:	78c1      	ldrb	r1, [r0, #3]
   28d3a:	4d17      	ldr	r5, [pc, #92]	@ (28d98 <_start+0x1cf8>)
   28d3c:	446d      	add	r5, sp
   28d3e:	70a9      	strb	r1, [r5, #2]
   28d40:	7841      	ldrb	r1, [r0, #1]
   28d42:	7882      	ldrb	r2, [r0, #2]
   28d44:	0212      	lsls	r2, r2, #8
   28d46:	1851      	adds	r1, r2, r1
   28d48:	8029      	strh	r1, [r5, #0]
   28d4a:	3008      	adds	r0, #8
   28d4c:	9909      	ldr	r1, [sp, #36]	@ 0x24
   28d4e:	6e09      	ldr	r1, [r1, #96]	@ 0x60
   28d50:	910a      	str	r1, [sp, #40]	@ 0x28
   28d52:	4b12      	ldr	r3, [pc, #72]	@ (28d9c <_start+0x1cfc>)
   28d54:	446b      	add	r3, sp
   28d56:	930b      	str	r3, [sp, #44]	@ 0x2c
   28d58:	c846      	ldmia	r0!, {r1, r2, r6}
   28d5a:	c346      	stmia	r3!, {r1, r2, r6}
   28d5c:	c846      	ldmia	r0!, {r1, r2, r6}
   28d5e:	c346      	stmia	r3!, {r1, r2, r6}
   28d60:	8800      	ldrh	r0, [r0, #0]
   28d62:	8018      	strh	r0, [r3, #0]
   28d64:	990a      	ldr	r1, [sp, #40]	@ 0x28
   28d66:	0e08      	lsrs	r0, r1, #24
   28d68:	71a8      	strb	r0, [r5, #6]
   28d6a:	0c08      	lsrs	r0, r1, #16
   28d6c:	7168      	strb	r0, [r5, #5]
   28d6e:	0a08      	lsrs	r0, r1, #8
   28d70:	7128      	strb	r0, [r5, #4]
   28d72:	70e9      	strb	r1, [r5, #3]
   28d74:	1de8      	adds	r0, r5, #7
   28d76:	221a      	movs	r2, #26
   28d78:	990b      	ldr	r1, [sp, #44]	@ 0x2c
   28d7a:	f001 fbff 	bl	2a57c <__aeabi_memcpy>
   28d7e:	4e05      	ldr	r6, [pc, #20]	@ (28d94 <_start+0x1cf4>)
   28d80:	446e      	add	r6, sp
   28d82:	4630      	mov	r0, r6
   28d84:	4629      	mov	r1, r5
   28d86:	f7fc fe87 	bl	25a98 <_ZN20complex_dynamic_type3app17hd8fddc668cab2624E>
   28d8a:	7830      	ldrb	r0, [r6, #0]
   28d8c:	2801      	cmp	r0, #1
   28d8e:	d107      	bne.n	28da0 <_start+0x1d00>
   28d90:	f001 fa14 	bl	2a1bc <_start+0x311c>
   28d94:	00001404 	.word	0x00001404
   28d98:	00000938 	.word	0x00000938
   28d9c:	000013a8 	.word	0x000013a8
   28da0:	4915      	ldr	r1, [pc, #84]	@ (28df8 <_start+0x1d58>)
   28da2:	4469      	add	r1, sp
   28da4:	78c8      	ldrb	r0, [r1, #3]
   28da6:	4d15      	ldr	r5, [pc, #84]	@ (28dfc <_start+0x1d5c>)
   28da8:	446d      	add	r5, sp
   28daa:	70a8      	strb	r0, [r5, #2]
   28dac:	7848      	ldrb	r0, [r1, #1]
   28dae:	788a      	ldrb	r2, [r1, #2]
   28db0:	0212      	lsls	r2, r2, #8
   28db2:	1810      	adds	r0, r2, r0
   28db4:	8028      	strh	r0, [r5, #0]
   28db6:	9809      	ldr	r0, [sp, #36]	@ 0x24
   28db8:	6e06      	ldr	r6, [r0, #96]	@ 0x60
   28dba:	3108      	adds	r1, #8
   28dbc:	4810      	ldr	r0, [pc, #64]	@ (28e00 <_start+0x1d60>)
   28dbe:	4468      	add	r0, sp
   28dc0:	900b      	str	r0, [sp, #44]	@ 0x2c
   28dc2:	224c      	movs	r2, #76	@ 0x4c
   28dc4:	920a      	str	r2, [sp, #40]	@ 0x28
   28dc6:	f001 fa79 	bl	2a2bc <__aeabi_memcpy4>
   28dca:	0e30      	lsrs	r0, r6, #24
   28dcc:	71a8      	strb	r0, [r5, #6]
   28dce:	0c30      	lsrs	r0, r6, #16
   28dd0:	7168      	strb	r0, [r5, #5]
   28dd2:	0a30      	lsrs	r0, r6, #8
   28dd4:	7128      	strb	r0, [r5, #4]
   28dd6:	70ee      	strb	r6, [r5, #3]
   28dd8:	1de8      	adds	r0, r5, #7
   28dda:	990b      	ldr	r1, [sp, #44]	@ 0x2c
   28ddc:	9a0a      	ldr	r2, [sp, #40]	@ 0x28
   28dde:	f001 fbcd 	bl	2a57c <__aeabi_memcpy>
   28de2:	4e05      	ldr	r6, [pc, #20]	@ (28df8 <_start+0x1d58>)
   28de4:	446e      	add	r6, sp
   28de6:	4630      	mov	r0, r6
   28de8:	4629      	mov	r1, r5
   28dea:	f7f7 fd85 	bl	208f8 <_ZN20complex_dynamic_type3app17h1428cc478016f8d5E>
   28dee:	7830      	ldrb	r0, [r6, #0]
   28df0:	2801      	cmp	r0, #1
   28df2:	d107      	bne.n	28e04 <_start+0x1d64>
   28df4:	f001 f9e2 	bl	2a1bc <_start+0x311c>
   28df8:	00001404 	.word	0x00001404
   28dfc:	0000095c 	.word	0x0000095c
   28e00:	000013a8 	.word	0x000013a8
   28e04:	4915      	ldr	r1, [pc, #84]	@ (28e5c <_start+0x1dbc>)
   28e06:	4469      	add	r1, sp
   28e08:	78c8      	ldrb	r0, [r1, #3]
   28e0a:	4d15      	ldr	r5, [pc, #84]	@ (28e60 <_start+0x1dc0>)
   28e0c:	446d      	add	r5, sp
   28e0e:	70a8      	strb	r0, [r5, #2]
   28e10:	7848      	ldrb	r0, [r1, #1]
   28e12:	788a      	ldrb	r2, [r1, #2]
   28e14:	0212      	lsls	r2, r2, #8
   28e16:	1810      	adds	r0, r2, r0
   28e18:	8028      	strh	r0, [r5, #0]
   28e1a:	9809      	ldr	r0, [sp, #36]	@ 0x24
   28e1c:	6e06      	ldr	r6, [r0, #96]	@ 0x60
   28e1e:	3108      	adds	r1, #8
   28e20:	4810      	ldr	r0, [pc, #64]	@ (28e64 <_start+0x1dc4>)
   28e22:	4468      	add	r0, sp
   28e24:	900b      	str	r0, [sp, #44]	@ 0x2c
   28e26:	2246      	movs	r2, #70	@ 0x46
   28e28:	920a      	str	r2, [sp, #40]	@ 0x28
   28e2a:	f001 fa47 	bl	2a2bc <__aeabi_memcpy4>
   28e2e:	0e30      	lsrs	r0, r6, #24
   28e30:	71a8      	strb	r0, [r5, #6]
   28e32:	0c30      	lsrs	r0, r6, #16
   28e34:	7168      	strb	r0, [r5, #5]
   28e36:	0a30      	lsrs	r0, r6, #8
   28e38:	7128      	strb	r0, [r5, #4]
   28e3a:	70ee      	strb	r6, [r5, #3]
   28e3c:	1de8      	adds	r0, r5, #7
   28e3e:	990b      	ldr	r1, [sp, #44]	@ 0x2c
   28e40:	9a0a      	ldr	r2, [sp, #40]	@ 0x28
   28e42:	f001 fb9b 	bl	2a57c <__aeabi_memcpy>
   28e46:	4e05      	ldr	r6, [pc, #20]	@ (28e5c <_start+0x1dbc>)
   28e48:	446e      	add	r6, sp
   28e4a:	4630      	mov	r0, r6
   28e4c:	4629      	mov	r1, r5
   28e4e:	f7fc ff51 	bl	25cf4 <_ZN20complex_dynamic_type3app17hdddbff550d636aacE>
   28e52:	7830      	ldrb	r0, [r6, #0]
   28e54:	2801      	cmp	r0, #1
   28e56:	d107      	bne.n	28e68 <_start+0x1dc8>
   28e58:	f001 f9b0 	bl	2a1bc <_start+0x311c>
   28e5c:	00001404 	.word	0x00001404
   28e60:	000009b0 	.word	0x000009b0
   28e64:	000013a8 	.word	0x000013a8
   28e68:	481a      	ldr	r0, [pc, #104]	@ (28ed4 <_start+0x1e34>)
   28e6a:	4468      	add	r0, sp
   28e6c:	78c1      	ldrb	r1, [r0, #3]
   28e6e:	4b1a      	ldr	r3, [pc, #104]	@ (28ed8 <_start+0x1e38>)
   28e70:	446b      	add	r3, sp
   28e72:	930a      	str	r3, [sp, #40]	@ 0x28
   28e74:	7099      	strb	r1, [r3, #2]
   28e76:	7841      	ldrb	r1, [r0, #1]
   28e78:	7882      	ldrb	r2, [r0, #2]
   28e7a:	0212      	lsls	r2, r2, #8
   28e7c:	1851      	adds	r1, r2, r1
   28e7e:	8019      	strh	r1, [r3, #0]
   28e80:	3008      	adds	r0, #8
   28e82:	9909      	ldr	r1, [sp, #36]	@ 0x24
   28e84:	6e09      	ldr	r1, [r1, #96]	@ 0x60
   28e86:	9108      	str	r1, [sp, #32]
   28e88:	4b14      	ldr	r3, [pc, #80]	@ (28edc <_start+0x1e3c>)
   28e8a:	446b      	add	r3, sp
   28e8c:	930b      	str	r3, [sp, #44]	@ 0x2c
   28e8e:	c846      	ldmia	r0!, {r1, r2, r6}
   28e90:	c346      	stmia	r3!, {r1, r2, r6}
   28e92:	c846      	ldmia	r0!, {r1, r2, r6}
   28e94:	c346      	stmia	r3!, {r1, r2, r6}
   28e96:	c846      	ldmia	r0!, {r1, r2, r6}
   28e98:	c346      	stmia	r3!, {r1, r2, r6}
   28e9a:	c866      	ldmia	r0!, {r1, r2, r5, r6}
   28e9c:	c366      	stmia	r3!, {r1, r2, r5, r6}
   28e9e:	7800      	ldrb	r0, [r0, #0]
   28ea0:	7018      	strb	r0, [r3, #0]
   28ea2:	9908      	ldr	r1, [sp, #32]
   28ea4:	0e08      	lsrs	r0, r1, #24
   28ea6:	9d0a      	ldr	r5, [sp, #40]	@ 0x28
   28ea8:	71a8      	strb	r0, [r5, #6]
   28eaa:	0c08      	lsrs	r0, r1, #16
   28eac:	7168      	strb	r0, [r5, #5]
   28eae:	0a08      	lsrs	r0, r1, #8
   28eb0:	7128      	strb	r0, [r5, #4]
   28eb2:	70e9      	strb	r1, [r5, #3]
   28eb4:	1de8      	adds	r0, r5, #7
   28eb6:	2235      	movs	r2, #53	@ 0x35
   28eb8:	990b      	ldr	r1, [sp, #44]	@ 0x2c
   28eba:	f001 fb5f 	bl	2a57c <__aeabi_memcpy>
   28ebe:	4e05      	ldr	r6, [pc, #20]	@ (28ed4 <_start+0x1e34>)
   28ec0:	446e      	add	r6, sp
   28ec2:	4630      	mov	r0, r6
   28ec4:	4629      	mov	r1, r5
   28ec6:	f7fd fbb1 	bl	2662c <_ZN20complex_dynamic_type3app17hebd299cacb0100f1E>
   28eca:	7830      	ldrb	r0, [r6, #0]
   28ecc:	2801      	cmp	r0, #1
   28ece:	d107      	bne.n	28ee0 <_start+0x1e40>
   28ed0:	f001 f974 	bl	2a1bc <_start+0x311c>
   28ed4:	00001404 	.word	0x00001404
   28ed8:	00000a00 	.word	0x00000a00
   28edc:	000013a8 	.word	0x000013a8
   28ee0:	4819      	ldr	r0, [pc, #100]	@ (28f48 <_start+0x1ea8>)
   28ee2:	4468      	add	r0, sp
   28ee4:	78c1      	ldrb	r1, [r0, #3]
   28ee6:	4b19      	ldr	r3, [pc, #100]	@ (28f4c <_start+0x1eac>)
   28ee8:	446b      	add	r3, sp
   28eea:	930a      	str	r3, [sp, #40]	@ 0x28
   28eec:	7099      	strb	r1, [r3, #2]
   28eee:	7841      	ldrb	r1, [r0, #1]
   28ef0:	7882      	ldrb	r2, [r0, #2]
   28ef2:	0212      	lsls	r2, r2, #8
   28ef4:	1851      	adds	r1, r2, r1
   28ef6:	8019      	strh	r1, [r3, #0]
   28ef8:	3008      	adds	r0, #8
   28efa:	9909      	ldr	r1, [sp, #36]	@ 0x24
   28efc:	6e09      	ldr	r1, [r1, #96]	@ 0x60
   28efe:	9108      	str	r1, [sp, #32]
   28f00:	4b13      	ldr	r3, [pc, #76]	@ (28f50 <_start+0x1eb0>)
   28f02:	446b      	add	r3, sp
   28f04:	930b      	str	r3, [sp, #44]	@ 0x2c
   28f06:	c866      	ldmia	r0!, {r1, r2, r5, r6}
   28f08:	c366      	stmia	r3!, {r1, r2, r5, r6}
   28f0a:	c866      	ldmia	r0!, {r1, r2, r5, r6}
   28f0c:	c366      	stmia	r3!, {r1, r2, r5, r6}
   28f0e:	c866      	ldmia	r0!, {r1, r2, r5, r6}
   28f10:	c366      	stmia	r3!, {r1, r2, r5, r6}
   28f12:	7800      	ldrb	r0, [r0, #0]
   28f14:	7018      	strb	r0, [r3, #0]
   28f16:	9908      	ldr	r1, [sp, #32]
   28f18:	0e08      	lsrs	r0, r1, #24
   28f1a:	9d0a      	ldr	r5, [sp, #40]	@ 0x28
   28f1c:	71a8      	strb	r0, [r5, #6]
   28f1e:	0c08      	lsrs	r0, r1, #16
   28f20:	7168      	strb	r0, [r5, #5]
   28f22:	0a08      	lsrs	r0, r1, #8
   28f24:	7128      	strb	r0, [r5, #4]
   28f26:	70e9      	strb	r1, [r5, #3]
   28f28:	1de8      	adds	r0, r5, #7
   28f2a:	2231      	movs	r2, #49	@ 0x31
   28f2c:	990b      	ldr	r1, [sp, #44]	@ 0x2c
   28f2e:	f001 fb25 	bl	2a57c <__aeabi_memcpy>
   28f32:	4e05      	ldr	r6, [pc, #20]	@ (28f48 <_start+0x1ea8>)
   28f34:	446e      	add	r6, sp
   28f36:	4630      	mov	r0, r6
   28f38:	4629      	mov	r1, r5
   28f3a:	f7f9 fdb5 	bl	22aa8 <_ZN20complex_dynamic_type3app17h65d4f1ea1aa3d4c4E>
   28f3e:	7830      	ldrb	r0, [r6, #0]
   28f40:	2801      	cmp	r0, #1
   28f42:	d107      	bne.n	28f54 <_start+0x1eb4>
   28f44:	f001 f93a 	bl	2a1bc <_start+0x311c>
   28f48:	00001404 	.word	0x00001404
   28f4c:	00000a3c 	.word	0x00000a3c
   28f50:	000013a8 	.word	0x000013a8
   28f54:	4817      	ldr	r0, [pc, #92]	@ (28fb4 <_start+0x1f14>)
   28f56:	4468      	add	r0, sp
   28f58:	78c1      	ldrb	r1, [r0, #3]
   28f5a:	4b17      	ldr	r3, [pc, #92]	@ (28fb8 <_start+0x1f18>)
   28f5c:	446b      	add	r3, sp
   28f5e:	930a      	str	r3, [sp, #40]	@ 0x28
   28f60:	7099      	strb	r1, [r3, #2]
   28f62:	7841      	ldrb	r1, [r0, #1]
   28f64:	7882      	ldrb	r2, [r0, #2]
   28f66:	0212      	lsls	r2, r2, #8
   28f68:	1851      	adds	r1, r2, r1
   28f6a:	8019      	strh	r1, [r3, #0]
   28f6c:	3008      	adds	r0, #8
   28f6e:	9909      	ldr	r1, [sp, #36]	@ 0x24
   28f70:	6e09      	ldr	r1, [r1, #96]	@ 0x60
   28f72:	9108      	str	r1, [sp, #32]
   28f74:	4b11      	ldr	r3, [pc, #68]	@ (28fbc <_start+0x1f1c>)
   28f76:	446b      	add	r3, sp
   28f78:	930b      	str	r3, [sp, #44]	@ 0x2c
   28f7a:	c866      	ldmia	r0!, {r1, r2, r5, r6}
   28f7c:	c366      	stmia	r3!, {r1, r2, r5, r6}
   28f7e:	c866      	ldmia	r0!, {r1, r2, r5, r6}
   28f80:	c366      	stmia	r3!, {r1, r2, r5, r6}
   28f82:	9908      	ldr	r1, [sp, #32]
   28f84:	0e08      	lsrs	r0, r1, #24
   28f86:	9d0a      	ldr	r5, [sp, #40]	@ 0x28
   28f88:	71a8      	strb	r0, [r5, #6]
   28f8a:	0c08      	lsrs	r0, r1, #16
   28f8c:	7168      	strb	r0, [r5, #5]
   28f8e:	0a08      	lsrs	r0, r1, #8
   28f90:	7128      	strb	r0, [r5, #4]
   28f92:	70e9      	strb	r1, [r5, #3]
   28f94:	1de8      	adds	r0, r5, #7
   28f96:	2220      	movs	r2, #32
   28f98:	990b      	ldr	r1, [sp, #44]	@ 0x2c
   28f9a:	f001 faef 	bl	2a57c <__aeabi_memcpy>
   28f9e:	4e05      	ldr	r6, [pc, #20]	@ (28fb4 <_start+0x1f14>)
   28fa0:	446e      	add	r6, sp
   28fa2:	4630      	mov	r0, r6
   28fa4:	4629      	mov	r1, r5
   28fa6:	f7f7 fc13 	bl	207d0 <_ZN20complex_dynamic_type3app17h117323bbc0eaafd4E>
   28faa:	7830      	ldrb	r0, [r6, #0]
   28fac:	2801      	cmp	r0, #1
   28fae:	d107      	bne.n	28fc0 <_start+0x1f20>
   28fb0:	f001 f904 	bl	2a1bc <_start+0x311c>
   28fb4:	00001404 	.word	0x00001404
   28fb8:	00000a74 	.word	0x00000a74
   28fbc:	000013a8 	.word	0x000013a8
   28fc0:	4915      	ldr	r1, [pc, #84]	@ (29018 <_start+0x1f78>)
   28fc2:	4469      	add	r1, sp
   28fc4:	78c8      	ldrb	r0, [r1, #3]
   28fc6:	4d15      	ldr	r5, [pc, #84]	@ (2901c <_start+0x1f7c>)
   28fc8:	446d      	add	r5, sp
   28fca:	70a8      	strb	r0, [r5, #2]
   28fcc:	7848      	ldrb	r0, [r1, #1]
   28fce:	788a      	ldrb	r2, [r1, #2]
   28fd0:	0212      	lsls	r2, r2, #8
   28fd2:	1810      	adds	r0, r2, r0
   28fd4:	8028      	strh	r0, [r5, #0]
   28fd6:	9809      	ldr	r0, [sp, #36]	@ 0x24
   28fd8:	6e06      	ldr	r6, [r0, #96]	@ 0x60
   28fda:	3108      	adds	r1, #8
   28fdc:	4810      	ldr	r0, [pc, #64]	@ (29020 <_start+0x1f80>)
   28fde:	4468      	add	r0, sp
   28fe0:	900b      	str	r0, [sp, #44]	@ 0x2c
   28fe2:	224a      	movs	r2, #74	@ 0x4a
   28fe4:	920a      	str	r2, [sp, #40]	@ 0x28
   28fe6:	f001 f969 	bl	2a2bc <__aeabi_memcpy4>
   28fea:	0e30      	lsrs	r0, r6, #24
   28fec:	71a8      	strb	r0, [r5, #6]
   28fee:	0c30      	lsrs	r0, r6, #16
   28ff0:	7168      	strb	r0, [r5, #5]
   28ff2:	0a30      	lsrs	r0, r6, #8
   28ff4:	7128      	strb	r0, [r5, #4]
   28ff6:	70ee      	strb	r6, [r5, #3]
   28ff8:	1de8      	adds	r0, r5, #7
   28ffa:	990b      	ldr	r1, [sp, #44]	@ 0x2c
   28ffc:	9a0a      	ldr	r2, [sp, #40]	@ 0x28
   28ffe:	f001 fabd 	bl	2a57c <__aeabi_memcpy>
   29002:	4e05      	ldr	r6, [pc, #20]	@ (29018 <_start+0x1f78>)
   29004:	446e      	add	r6, sp
   29006:	4630      	mov	r0, r6
   29008:	4629      	mov	r1, r5
   2900a:	f7fa fb2b 	bl	23664 <_ZN20complex_dynamic_type3app17h8d0fb49d9dd587baE>
   2900e:	7830      	ldrb	r0, [r6, #0]
   29010:	2801      	cmp	r0, #1
   29012:	d107      	bne.n	29024 <_start+0x1f84>
   29014:	f001 f8d2 	bl	2a1bc <_start+0x311c>
   29018:	00001404 	.word	0x00001404
   2901c:	00000a9c 	.word	0x00000a9c
   29020:	000013a8 	.word	0x000013a8
   29024:	4915      	ldr	r1, [pc, #84]	@ (2907c <_start+0x1fdc>)
   29026:	4469      	add	r1, sp
   29028:	78c8      	ldrb	r0, [r1, #3]
   2902a:	4d15      	ldr	r5, [pc, #84]	@ (29080 <_start+0x1fe0>)
   2902c:	446d      	add	r5, sp
   2902e:	70a8      	strb	r0, [r5, #2]
   29030:	7848      	ldrb	r0, [r1, #1]
   29032:	788a      	ldrb	r2, [r1, #2]
   29034:	0212      	lsls	r2, r2, #8
   29036:	1810      	adds	r0, r2, r0
   29038:	8028      	strh	r0, [r5, #0]
   2903a:	9809      	ldr	r0, [sp, #36]	@ 0x24
   2903c:	6e06      	ldr	r6, [r0, #96]	@ 0x60
   2903e:	3108      	adds	r1, #8
   29040:	4810      	ldr	r0, [pc, #64]	@ (29084 <_start+0x1fe4>)
   29042:	4468      	add	r0, sp
   29044:	900b      	str	r0, [sp, #44]	@ 0x2c
   29046:	2248      	movs	r2, #72	@ 0x48
   29048:	920a      	str	r2, [sp, #40]	@ 0x28
   2904a:	f001 f937 	bl	2a2bc <__aeabi_memcpy4>
   2904e:	0e30      	lsrs	r0, r6, #24
   29050:	71a8      	strb	r0, [r5, #6]
   29052:	0c30      	lsrs	r0, r6, #16
   29054:	7168      	strb	r0, [r5, #5]
   29056:	0a30      	lsrs	r0, r6, #8
   29058:	7128      	strb	r0, [r5, #4]
   2905a:	70ee      	strb	r6, [r5, #3]
   2905c:	1de8      	adds	r0, r5, #7
   2905e:	990b      	ldr	r1, [sp, #44]	@ 0x2c
   29060:	9a0a      	ldr	r2, [sp, #40]	@ 0x28
   29062:	f001 fa8b 	bl	2a57c <__aeabi_memcpy>
   29066:	4e05      	ldr	r6, [pc, #20]	@ (2907c <_start+0x1fdc>)
   29068:	446e      	add	r6, sp
   2906a:	4630      	mov	r0, r6
   2906c:	4629      	mov	r1, r5
   2906e:	f7f7 fe01 	bl	20c74 <_ZN20complex_dynamic_type3app17h20e2f9f1fa975081E>
   29072:	7830      	ldrb	r0, [r6, #0]
   29074:	2801      	cmp	r0, #1
   29076:	d107      	bne.n	29088 <_start+0x1fe8>
   29078:	f001 f8a0 	bl	2a1bc <_start+0x311c>
   2907c:	00001404 	.word	0x00001404
   29080:	00000af0 	.word	0x00000af0
   29084:	000013a8 	.word	0x000013a8
   29088:	4915      	ldr	r1, [pc, #84]	@ (290e0 <_start+0x2040>)
   2908a:	4469      	add	r1, sp
   2908c:	78c8      	ldrb	r0, [r1, #3]
   2908e:	4d15      	ldr	r5, [pc, #84]	@ (290e4 <_start+0x2044>)
   29090:	446d      	add	r5, sp
   29092:	70a8      	strb	r0, [r5, #2]
   29094:	7848      	ldrb	r0, [r1, #1]
   29096:	788a      	ldrb	r2, [r1, #2]
   29098:	0212      	lsls	r2, r2, #8
   2909a:	1810      	adds	r0, r2, r0
   2909c:	8028      	strh	r0, [r5, #0]
   2909e:	9809      	ldr	r0, [sp, #36]	@ 0x24
   290a0:	6e06      	ldr	r6, [r0, #96]	@ 0x60
   290a2:	3108      	adds	r1, #8
   290a4:	4810      	ldr	r0, [pc, #64]	@ (290e8 <_start+0x2048>)
   290a6:	4468      	add	r0, sp
   290a8:	900b      	str	r0, [sp, #44]	@ 0x2c
   290aa:	225a      	movs	r2, #90	@ 0x5a
   290ac:	920a      	str	r2, [sp, #40]	@ 0x28
   290ae:	f001 f905 	bl	2a2bc <__aeabi_memcpy4>
   290b2:	0e30      	lsrs	r0, r6, #24
   290b4:	71a8      	strb	r0, [r5, #6]
   290b6:	0c30      	lsrs	r0, r6, #16
   290b8:	7168      	strb	r0, [r5, #5]
   290ba:	0a30      	lsrs	r0, r6, #8
   290bc:	7128      	strb	r0, [r5, #4]
   290be:	70ee      	strb	r6, [r5, #3]
   290c0:	1de8      	adds	r0, r5, #7
   290c2:	990b      	ldr	r1, [sp, #44]	@ 0x2c
   290c4:	9a0a      	ldr	r2, [sp, #40]	@ 0x28
   290c6:	f001 fa59 	bl	2a57c <__aeabi_memcpy>
   290ca:	4e05      	ldr	r6, [pc, #20]	@ (290e0 <_start+0x2040>)
   290cc:	446e      	add	r6, sp
   290ce:	4630      	mov	r0, r6
   290d0:	4629      	mov	r1, r5
   290d2:	f7fc f8c9 	bl	25268 <_ZN20complex_dynamic_type3app17hc9289b14e3a7658fE>
   290d6:	7830      	ldrb	r0, [r6, #0]
   290d8:	2801      	cmp	r0, #1
   290da:	d107      	bne.n	290ec <_start+0x204c>
   290dc:	f001 f86e 	bl	2a1bc <_start+0x311c>
   290e0:	00001404 	.word	0x00001404
   290e4:	00000b40 	.word	0x00000b40
   290e8:	000013a8 	.word	0x000013a8
   290ec:	4818      	ldr	r0, [pc, #96]	@ (29150 <_start+0x20b0>)
   290ee:	4468      	add	r0, sp
   290f0:	78c1      	ldrb	r1, [r0, #3]
   290f2:	4d18      	ldr	r5, [pc, #96]	@ (29154 <_start+0x20b4>)
   290f4:	446d      	add	r5, sp
   290f6:	70a9      	strb	r1, [r5, #2]
   290f8:	7841      	ldrb	r1, [r0, #1]
   290fa:	7882      	ldrb	r2, [r0, #2]
   290fc:	0212      	lsls	r2, r2, #8
   290fe:	1851      	adds	r1, r2, r1
   29100:	8029      	strh	r1, [r5, #0]
   29102:	3008      	adds	r0, #8
   29104:	9909      	ldr	r1, [sp, #36]	@ 0x24
   29106:	6e09      	ldr	r1, [r1, #96]	@ 0x60
   29108:	910a      	str	r1, [sp, #40]	@ 0x28
   2910a:	4b13      	ldr	r3, [pc, #76]	@ (29158 <_start+0x20b8>)
   2910c:	446b      	add	r3, sp
   2910e:	930b      	str	r3, [sp, #44]	@ 0x2c
   29110:	c844      	ldmia	r0!, {r2, r6}
   29112:	c344      	stmia	r3!, {r2, r6}
   29114:	c846      	ldmia	r0!, {r1, r2, r6}
   29116:	c346      	stmia	r3!, {r1, r2, r6}
   29118:	8801      	ldrh	r1, [r0, #0]
   2911a:	8019      	strh	r1, [r3, #0]
   2911c:	7880      	ldrb	r0, [r0, #2]
   2911e:	7098      	strb	r0, [r3, #2]
   29120:	990a      	ldr	r1, [sp, #40]	@ 0x28
   29122:	0e08      	lsrs	r0, r1, #24
   29124:	71a8      	strb	r0, [r5, #6]
   29126:	0c08      	lsrs	r0, r1, #16
   29128:	7168      	strb	r0, [r5, #5]
   2912a:	0a08      	lsrs	r0, r1, #8
   2912c:	7128      	strb	r0, [r5, #4]
   2912e:	70e9      	strb	r1, [r5, #3]
   29130:	1de8      	adds	r0, r5, #7
   29132:	2217      	movs	r2, #23
   29134:	990b      	ldr	r1, [sp, #44]	@ 0x2c
   29136:	f001 fa21 	bl	2a57c <__aeabi_memcpy>
   2913a:	4e05      	ldr	r6, [pc, #20]	@ (29150 <_start+0x20b0>)
   2913c:	446e      	add	r6, sp
   2913e:	4630      	mov	r0, r6
   29140:	4629      	mov	r1, r5
   29142:	f7fb fc81 	bl	24a48 <_ZN20complex_dynamic_type3app17hb54a5ba590a78d83E>
   29146:	7830      	ldrb	r0, [r6, #0]
   29148:	2801      	cmp	r0, #1
   2914a:	d107      	bne.n	2915c <_start+0x20bc>
   2914c:	f001 f836 	bl	2a1bc <_start+0x311c>
   29150:	00001404 	.word	0x00001404
   29154:	00000ba4 	.word	0x00000ba4
   29158:	000013a8 	.word	0x000013a8
   2915c:	4817      	ldr	r0, [pc, #92]	@ (291bc <_start+0x211c>)
   2915e:	4468      	add	r0, sp
   29160:	78c1      	ldrb	r1, [r0, #3]
   29162:	4d17      	ldr	r5, [pc, #92]	@ (291c0 <_start+0x2120>)
   29164:	446d      	add	r5, sp
   29166:	70a9      	strb	r1, [r5, #2]
   29168:	7841      	ldrb	r1, [r0, #1]
   2916a:	7882      	ldrb	r2, [r0, #2]
   2916c:	0212      	lsls	r2, r2, #8
   2916e:	1851      	adds	r1, r2, r1
   29170:	8029      	strh	r1, [r5, #0]
   29172:	3008      	adds	r0, #8
   29174:	9909      	ldr	r1, [sp, #36]	@ 0x24
   29176:	6e09      	ldr	r1, [r1, #96]	@ 0x60
   29178:	910a      	str	r1, [sp, #40]	@ 0x28
   2917a:	4b12      	ldr	r3, [pc, #72]	@ (291c4 <_start+0x2124>)
   2917c:	446b      	add	r3, sp
   2917e:	930b      	str	r3, [sp, #44]	@ 0x2c
   29180:	c846      	ldmia	r0!, {r1, r2, r6}
   29182:	c346      	stmia	r3!, {r1, r2, r6}
   29184:	c846      	ldmia	r0!, {r1, r2, r6}
   29186:	c346      	stmia	r3!, {r1, r2, r6}
   29188:	8800      	ldrh	r0, [r0, #0]
   2918a:	8018      	strh	r0, [r3, #0]
   2918c:	990a      	ldr	r1, [sp, #40]	@ 0x28
   2918e:	0e08      	lsrs	r0, r1, #24
   29190:	71a8      	strb	r0, [r5, #6]
   29192:	0c08      	lsrs	r0, r1, #16
   29194:	7168      	strb	r0, [r5, #5]
   29196:	0a08      	lsrs	r0, r1, #8
   29198:	7128      	strb	r0, [r5, #4]
   2919a:	70e9      	strb	r1, [r5, #3]
   2919c:	1de8      	adds	r0, r5, #7
   2919e:	221a      	movs	r2, #26
   291a0:	990b      	ldr	r1, [sp, #44]	@ 0x2c
   291a2:	f001 f9eb 	bl	2a57c <__aeabi_memcpy>
   291a6:	4e05      	ldr	r6, [pc, #20]	@ (291bc <_start+0x211c>)
   291a8:	446e      	add	r6, sp
   291aa:	4630      	mov	r0, r6
   291ac:	4629      	mov	r1, r5
   291ae:	f7fb fea5 	bl	24efc <_ZN20complex_dynamic_type3app17hc3a74ab33074c723E>
   291b2:	7830      	ldrb	r0, [r6, #0]
   291b4:	2801      	cmp	r0, #1
   291b6:	d107      	bne.n	291c8 <_start+0x2128>
   291b8:	f001 f800 	bl	2a1bc <_start+0x311c>
   291bc:	00001404 	.word	0x00001404
   291c0:	00000bc4 	.word	0x00000bc4
   291c4:	000013a8 	.word	0x000013a8
   291c8:	4819      	ldr	r0, [pc, #100]	@ (29230 <_start+0x2190>)
   291ca:	4468      	add	r0, sp
   291cc:	78c1      	ldrb	r1, [r0, #3]
   291ce:	4b19      	ldr	r3, [pc, #100]	@ (29234 <_start+0x2194>)
   291d0:	446b      	add	r3, sp
   291d2:	930a      	str	r3, [sp, #40]	@ 0x28
   291d4:	7099      	strb	r1, [r3, #2]
   291d6:	7841      	ldrb	r1, [r0, #1]
   291d8:	7882      	ldrb	r2, [r0, #2]
   291da:	0212      	lsls	r2, r2, #8
   291dc:	1851      	adds	r1, r2, r1
   291de:	8019      	strh	r1, [r3, #0]
   291e0:	3008      	adds	r0, #8
   291e2:	9909      	ldr	r1, [sp, #36]	@ 0x24
   291e4:	6e09      	ldr	r1, [r1, #96]	@ 0x60
   291e6:	9108      	str	r1, [sp, #32]
   291e8:	4b13      	ldr	r3, [pc, #76]	@ (29238 <_start+0x2198>)
   291ea:	446b      	add	r3, sp
   291ec:	930b      	str	r3, [sp, #44]	@ 0x2c
   291ee:	c866      	ldmia	r0!, {r1, r2, r5, r6}
   291f0:	c366      	stmia	r3!, {r1, r2, r5, r6}
   291f2:	c866      	ldmia	r0!, {r1, r2, r5, r6}
   291f4:	c366      	stmia	r3!, {r1, r2, r5, r6}
   291f6:	8801      	ldrh	r1, [r0, #0]
   291f8:	8019      	strh	r1, [r3, #0]
   291fa:	7880      	ldrb	r0, [r0, #2]
   291fc:	7098      	strb	r0, [r3, #2]
   291fe:	9908      	ldr	r1, [sp, #32]
   29200:	0e08      	lsrs	r0, r1, #24
   29202:	9d0a      	ldr	r5, [sp, #40]	@ 0x28
   29204:	71a8      	strb	r0, [r5, #6]
   29206:	0c08      	lsrs	r0, r1, #16
   29208:	7168      	strb	r0, [r5, #5]
   2920a:	0a08      	lsrs	r0, r1, #8
   2920c:	7128      	strb	r0, [r5, #4]
   2920e:	70e9      	strb	r1, [r5, #3]
   29210:	1de8      	adds	r0, r5, #7
   29212:	2223      	movs	r2, #35	@ 0x23
   29214:	990b      	ldr	r1, [sp, #44]	@ 0x2c
   29216:	f001 f9b1 	bl	2a57c <__aeabi_memcpy>
   2921a:	4e05      	ldr	r6, [pc, #20]	@ (29230 <_start+0x2190>)
   2921c:	446e      	add	r6, sp
   2921e:	4630      	mov	r0, r6
   29220:	4629      	mov	r1, r5
   29222:	f7f9 fd6f 	bl	22d04 <_ZN20complex_dynamic_type3app17h72d28e56f632e202E>
   29226:	7830      	ldrb	r0, [r6, #0]
   29228:	2801      	cmp	r0, #1
   2922a:	d107      	bne.n	2923c <_start+0x219c>
   2922c:	f000 ffc6 	bl	2a1bc <_start+0x311c>
   29230:	00001404 	.word	0x00001404
   29234:	00000be8 	.word	0x00000be8
   29238:	000013a8 	.word	0x000013a8
   2923c:	4915      	ldr	r1, [pc, #84]	@ (29294 <_start+0x21f4>)
   2923e:	4469      	add	r1, sp
   29240:	78c8      	ldrb	r0, [r1, #3]
   29242:	4d15      	ldr	r5, [pc, #84]	@ (29298 <_start+0x21f8>)
   29244:	446d      	add	r5, sp
   29246:	70a8      	strb	r0, [r5, #2]
   29248:	7848      	ldrb	r0, [r1, #1]
   2924a:	788a      	ldrb	r2, [r1, #2]
   2924c:	0212      	lsls	r2, r2, #8
   2924e:	1810      	adds	r0, r2, r0
   29250:	8028      	strh	r0, [r5, #0]
   29252:	9809      	ldr	r0, [sp, #36]	@ 0x24
   29254:	6e06      	ldr	r6, [r0, #96]	@ 0x60
   29256:	3108      	adds	r1, #8
   29258:	4810      	ldr	r0, [pc, #64]	@ (2929c <_start+0x21fc>)
   2925a:	4468      	add	r0, sp
   2925c:	900b      	str	r0, [sp, #44]	@ 0x2c
   2925e:	2252      	movs	r2, #82	@ 0x52
   29260:	920a      	str	r2, [sp, #40]	@ 0x28
   29262:	f001 f82b 	bl	2a2bc <__aeabi_memcpy4>
   29266:	0e30      	lsrs	r0, r6, #24
   29268:	71a8      	strb	r0, [r5, #6]
   2926a:	0c30      	lsrs	r0, r6, #16
   2926c:	7168      	strb	r0, [r5, #5]
   2926e:	0a30      	lsrs	r0, r6, #8
   29270:	7128      	strb	r0, [r5, #4]
   29272:	70ee      	strb	r6, [r5, #3]
   29274:	1de8      	adds	r0, r5, #7
   29276:	990b      	ldr	r1, [sp, #44]	@ 0x2c
   29278:	9a0a      	ldr	r2, [sp, #40]	@ 0x28
   2927a:	f001 f97f 	bl	2a57c <__aeabi_memcpy>
   2927e:	4e05      	ldr	r6, [pc, #20]	@ (29294 <_start+0x21f4>)
   29280:	446e      	add	r6, sp
   29282:	4630      	mov	r0, r6
   29284:	4629      	mov	r1, r5
   29286:	f7fd f93d 	bl	26504 <_ZN20complex_dynamic_type3app17heba08feb3a019f60E>
   2928a:	7830      	ldrb	r0, [r6, #0]
   2928c:	2801      	cmp	r0, #1
   2928e:	d107      	bne.n	292a0 <_start+0x2200>
   29290:	f000 ff94 	bl	2a1bc <_start+0x311c>
   29294:	00001404 	.word	0x00001404
   29298:	00000c14 	.word	0x00000c14
   2929c:	000013a8 	.word	0x000013a8
   292a0:	4915      	ldr	r1, [pc, #84]	@ (292f8 <_start+0x2258>)
   292a2:	4469      	add	r1, sp
   292a4:	78c8      	ldrb	r0, [r1, #3]
   292a6:	4d15      	ldr	r5, [pc, #84]	@ (292fc <_start+0x225c>)
   292a8:	446d      	add	r5, sp
   292aa:	70a8      	strb	r0, [r5, #2]
   292ac:	7848      	ldrb	r0, [r1, #1]
   292ae:	788a      	ldrb	r2, [r1, #2]
   292b0:	0212      	lsls	r2, r2, #8
   292b2:	1810      	adds	r0, r2, r0
   292b4:	8028      	strh	r0, [r5, #0]
   292b6:	9809      	ldr	r0, [sp, #36]	@ 0x24
   292b8:	6e06      	ldr	r6, [r0, #96]	@ 0x60
   292ba:	3108      	adds	r1, #8
   292bc:	4810      	ldr	r0, [pc, #64]	@ (29300 <_start+0x2260>)
   292be:	4468      	add	r0, sp
   292c0:	900b      	str	r0, [sp, #44]	@ 0x2c
   292c2:	2243      	movs	r2, #67	@ 0x43
   292c4:	920a      	str	r2, [sp, #40]	@ 0x28
   292c6:	f000 fff9 	bl	2a2bc <__aeabi_memcpy4>
   292ca:	0e30      	lsrs	r0, r6, #24
   292cc:	71a8      	strb	r0, [r5, #6]
   292ce:	0c30      	lsrs	r0, r6, #16
   292d0:	7168      	strb	r0, [r5, #5]
   292d2:	0a30      	lsrs	r0, r6, #8
   292d4:	7128      	strb	r0, [r5, #4]
   292d6:	70ee      	strb	r6, [r5, #3]
   292d8:	1de8      	adds	r0, r5, #7
   292da:	990b      	ldr	r1, [sp, #44]	@ 0x2c
   292dc:	9a0a      	ldr	r2, [sp, #40]	@ 0x28
   292de:	f001 f94d 	bl	2a57c <__aeabi_memcpy>
   292e2:	4e05      	ldr	r6, [pc, #20]	@ (292f8 <_start+0x2258>)
   292e4:	446e      	add	r6, sp
   292e6:	4630      	mov	r0, r6
   292e8:	4629      	mov	r1, r5
   292ea:	f7f9 f98d 	bl	22608 <_ZN20complex_dynamic_type3app17h5ba3ba04678c216dE>
   292ee:	7830      	ldrb	r0, [r6, #0]
   292f0:	2801      	cmp	r0, #1
   292f2:	d107      	bne.n	29304 <_start+0x2264>
   292f4:	f000 ff62 	bl	2a1bc <_start+0x311c>
   292f8:	00001404 	.word	0x00001404
   292fc:	00000c70 	.word	0x00000c70
   29300:	000013a8 	.word	0x000013a8
   29304:	4818      	ldr	r0, [pc, #96]	@ (29368 <_start+0x22c8>)
   29306:	4468      	add	r0, sp
   29308:	78c1      	ldrb	r1, [r0, #3]
   2930a:	4d18      	ldr	r5, [pc, #96]	@ (2936c <_start+0x22cc>)
   2930c:	446d      	add	r5, sp
   2930e:	70a9      	strb	r1, [r5, #2]
   29310:	7841      	ldrb	r1, [r0, #1]
   29312:	7882      	ldrb	r2, [r0, #2]
   29314:	0212      	lsls	r2, r2, #8
   29316:	1851      	adds	r1, r2, r1
   29318:	8029      	strh	r1, [r5, #0]
   2931a:	3008      	adds	r0, #8
   2931c:	9909      	ldr	r1, [sp, #36]	@ 0x24
   2931e:	6e09      	ldr	r1, [r1, #96]	@ 0x60
   29320:	910a      	str	r1, [sp, #40]	@ 0x28
   29322:	4b13      	ldr	r3, [pc, #76]	@ (29370 <_start+0x22d0>)
   29324:	446b      	add	r3, sp
   29326:	930b      	str	r3, [sp, #44]	@ 0x2c
   29328:	c846      	ldmia	r0!, {r1, r2, r6}
   2932a:	c346      	stmia	r3!, {r1, r2, r6}
   2932c:	c846      	ldmia	r0!, {r1, r2, r6}
   2932e:	c346      	stmia	r3!, {r1, r2, r6}
   29330:	c846      	ldmia	r0!, {r1, r2, r6}
   29332:	c346      	stmia	r3!, {r1, r2, r6}
   29334:	8800      	ldrh	r0, [r0, #0]
   29336:	8018      	strh	r0, [r3, #0]
   29338:	990a      	ldr	r1, [sp, #40]	@ 0x28
   2933a:	0e08      	lsrs	r0, r1, #24
   2933c:	71a8      	strb	r0, [r5, #6]
   2933e:	0c08      	lsrs	r0, r1, #16
   29340:	7168      	strb	r0, [r5, #5]
   29342:	0a08      	lsrs	r0, r1, #8
   29344:	7128      	strb	r0, [r5, #4]
   29346:	70e9      	strb	r1, [r5, #3]
   29348:	1de8      	adds	r0, r5, #7
   2934a:	2226      	movs	r2, #38	@ 0x26
   2934c:	990b      	ldr	r1, [sp, #44]	@ 0x2c
   2934e:	f001 f915 	bl	2a57c <__aeabi_memcpy>
   29352:	4e05      	ldr	r6, [pc, #20]	@ (29368 <_start+0x22c8>)
   29354:	446e      	add	r6, sp
   29356:	4630      	mov	r0, r6
   29358:	4629      	mov	r1, r5
   2935a:	f7f8 fde1 	bl	21f20 <_ZN20complex_dynamic_type3app17h4aed087ed72ac959E>
   2935e:	7830      	ldrb	r0, [r6, #0]
   29360:	2801      	cmp	r0, #1
   29362:	d107      	bne.n	29374 <_start+0x22d4>
   29364:	f000 ff2a 	bl	2a1bc <_start+0x311c>
   29368:	00001404 	.word	0x00001404
   2936c:	00000cbc 	.word	0x00000cbc
   29370:	000013a8 	.word	0x000013a8
   29374:	4915      	ldr	r1, [pc, #84]	@ (293cc <_start+0x232c>)
   29376:	4469      	add	r1, sp
   29378:	78c8      	ldrb	r0, [r1, #3]
   2937a:	4d15      	ldr	r5, [pc, #84]	@ (293d0 <_start+0x2330>)
   2937c:	446d      	add	r5, sp
   2937e:	70a8      	strb	r0, [r5, #2]
   29380:	7848      	ldrb	r0, [r1, #1]
   29382:	788a      	ldrb	r2, [r1, #2]
   29384:	0212      	lsls	r2, r2, #8
   29386:	1810      	adds	r0, r2, r0
   29388:	8028      	strh	r0, [r5, #0]
   2938a:	9809      	ldr	r0, [sp, #36]	@ 0x24
   2938c:	6e06      	ldr	r6, [r0, #96]	@ 0x60
   2938e:	3108      	adds	r1, #8
   29390:	4810      	ldr	r0, [pc, #64]	@ (293d4 <_start+0x2334>)
   29392:	4468      	add	r0, sp
   29394:	900b      	str	r0, [sp, #44]	@ 0x2c
   29396:	224c      	movs	r2, #76	@ 0x4c
   29398:	920a      	str	r2, [sp, #40]	@ 0x28
   2939a:	f000 ff8f 	bl	2a2bc <__aeabi_memcpy4>
   2939e:	0e30      	lsrs	r0, r6, #24
   293a0:	71a8      	strb	r0, [r5, #6]
   293a2:	0c30      	lsrs	r0, r6, #16
   293a4:	7168      	strb	r0, [r5, #5]
   293a6:	0a30      	lsrs	r0, r6, #8
   293a8:	7128      	strb	r0, [r5, #4]
   293aa:	70ee      	strb	r6, [r5, #3]
   293ac:	1de8      	adds	r0, r5, #7
   293ae:	990b      	ldr	r1, [sp, #44]	@ 0x2c
   293b0:	9a0a      	ldr	r2, [sp, #40]	@ 0x28
   293b2:	f001 f8e3 	bl	2a57c <__aeabi_memcpy>
   293b6:	4e05      	ldr	r6, [pc, #20]	@ (293cc <_start+0x232c>)
   293b8:	446e      	add	r6, sp
   293ba:	4630      	mov	r0, r6
   293bc:	4629      	mov	r1, r5
   293be:	f7fa ff2f 	bl	24220 <_ZN20complex_dynamic_type3app17ha3d783b7efd639dbE>
   293c2:	7830      	ldrb	r0, [r6, #0]
   293c4:	2801      	cmp	r0, #1
   293c6:	d107      	bne.n	293d8 <_start+0x2338>
   293c8:	f000 fef8 	bl	2a1bc <_start+0x311c>
   293cc:	00001404 	.word	0x00001404
   293d0:	00000cec 	.word	0x00000cec
   293d4:	000013a8 	.word	0x000013a8
   293d8:	481a      	ldr	r0, [pc, #104]	@ (29444 <_start+0x23a4>)
   293da:	4468      	add	r0, sp
   293dc:	78c1      	ldrb	r1, [r0, #3]
   293de:	4b1a      	ldr	r3, [pc, #104]	@ (29448 <_start+0x23a8>)
   293e0:	446b      	add	r3, sp
   293e2:	930a      	str	r3, [sp, #40]	@ 0x28
   293e4:	7099      	strb	r1, [r3, #2]
   293e6:	7841      	ldrb	r1, [r0, #1]
   293e8:	7882      	ldrb	r2, [r0, #2]
   293ea:	0212      	lsls	r2, r2, #8
   293ec:	1851      	adds	r1, r2, r1
   293ee:	8019      	strh	r1, [r3, #0]
   293f0:	3008      	adds	r0, #8
   293f2:	9909      	ldr	r1, [sp, #36]	@ 0x24
   293f4:	6e09      	ldr	r1, [r1, #96]	@ 0x60
   293f6:	9108      	str	r1, [sp, #32]
   293f8:	4b14      	ldr	r3, [pc, #80]	@ (2944c <_start+0x23ac>)
   293fa:	446b      	add	r3, sp
   293fc:	930b      	str	r3, [sp, #44]	@ 0x2c
   293fe:	c866      	ldmia	r0!, {r1, r2, r5, r6}
   29400:	c366      	stmia	r3!, {r1, r2, r5, r6}
   29402:	c866      	ldmia	r0!, {r1, r2, r5, r6}
   29404:	c366      	stmia	r3!, {r1, r2, r5, r6}
   29406:	c866      	ldmia	r0!, {r1, r2, r5, r6}
   29408:	c366      	stmia	r3!, {r1, r2, r5, r6}
   2940a:	8801      	ldrh	r1, [r0, #0]
   2940c:	8019      	strh	r1, [r3, #0]
   2940e:	7880      	ldrb	r0, [r0, #2]
   29410:	7098      	strb	r0, [r3, #2]
   29412:	9908      	ldr	r1, [sp, #32]
   29414:	0e08      	lsrs	r0, r1, #24
   29416:	9d0a      	ldr	r5, [sp, #40]	@ 0x28
   29418:	71a8      	strb	r0, [r5, #6]
   2941a:	0c08      	lsrs	r0, r1, #16
   2941c:	7168      	strb	r0, [r5, #5]
   2941e:	0a08      	lsrs	r0, r1, #8
   29420:	7128      	strb	r0, [r5, #4]
   29422:	70e9      	strb	r1, [r5, #3]
   29424:	1de8      	adds	r0, r5, #7
   29426:	2233      	movs	r2, #51	@ 0x33
   29428:	990b      	ldr	r1, [sp, #44]	@ 0x2c
   2942a:	f001 f8a7 	bl	2a57c <__aeabi_memcpy>
   2942e:	4e05      	ldr	r6, [pc, #20]	@ (29444 <_start+0x23a4>)
   29430:	446e      	add	r6, sp
   29432:	4630      	mov	r0, r6
   29434:	4629      	mov	r1, r5
   29436:	f7f7 f89f 	bl	20578 <_ZN20complex_dynamic_type3app17h09d49f23ab6a81e3E>
   2943a:	7830      	ldrb	r0, [r6, #0]
   2943c:	2801      	cmp	r0, #1
   2943e:	d107      	bne.n	29450 <_start+0x23b0>
   29440:	f000 febc 	bl	2a1bc <_start+0x311c>
   29444:	00001404 	.word	0x00001404
   29448:	00000d40 	.word	0x00000d40
   2944c:	000013a8 	.word	0x000013a8
   29450:	4915      	ldr	r1, [pc, #84]	@ (294a8 <_start+0x2408>)
   29452:	4469      	add	r1, sp
   29454:	78c8      	ldrb	r0, [r1, #3]
   29456:	4d15      	ldr	r5, [pc, #84]	@ (294ac <_start+0x240c>)
   29458:	446d      	add	r5, sp
   2945a:	70a8      	strb	r0, [r5, #2]
   2945c:	7848      	ldrb	r0, [r1, #1]
   2945e:	788a      	ldrb	r2, [r1, #2]
   29460:	0212      	lsls	r2, r2, #8
   29462:	1810      	adds	r0, r2, r0
   29464:	8028      	strh	r0, [r5, #0]
   29466:	9809      	ldr	r0, [sp, #36]	@ 0x24
   29468:	6e06      	ldr	r6, [r0, #96]	@ 0x60
   2946a:	3108      	adds	r1, #8
   2946c:	4810      	ldr	r0, [pc, #64]	@ (294b0 <_start+0x2410>)
   2946e:	4468      	add	r0, sp
   29470:	900b      	str	r0, [sp, #44]	@ 0x2c
   29472:	2256      	movs	r2, #86	@ 0x56
   29474:	920a      	str	r2, [sp, #40]	@ 0x28
   29476:	f000 ff21 	bl	2a2bc <__aeabi_memcpy4>
   2947a:	0e30      	lsrs	r0, r6, #24
   2947c:	71a8      	strb	r0, [r5, #6]
   2947e:	0c30      	lsrs	r0, r6, #16
   29480:	7168      	strb	r0, [r5, #5]
   29482:	0a30      	lsrs	r0, r6, #8
   29484:	7128      	strb	r0, [r5, #4]
   29486:	70ee      	strb	r6, [r5, #3]
   29488:	1de8      	adds	r0, r5, #7
   2948a:	990b      	ldr	r1, [sp, #44]	@ 0x2c
   2948c:	9a0a      	ldr	r2, [sp, #40]	@ 0x28
   2948e:	f001 f875 	bl	2a57c <__aeabi_memcpy>
   29492:	4e05      	ldr	r6, [pc, #20]	@ (294a8 <_start+0x2408>)
   29494:	446e      	add	r6, sp
   29496:	4630      	mov	r0, r6
   29498:	4629      	mov	r1, r5
   2949a:	f7f7 fe41 	bl	21120 <_ZN20complex_dynamic_type3app17h2999883e6c16a12cE>
   2949e:	7830      	ldrb	r0, [r6, #0]
   294a0:	2801      	cmp	r0, #1
   294a2:	d107      	bne.n	294b4 <_start+0x2414>
   294a4:	f000 fe8a 	bl	2a1bc <_start+0x311c>
   294a8:	00001404 	.word	0x00001404
   294ac:	00000d7c 	.word	0x00000d7c
   294b0:	000013a8 	.word	0x000013a8
   294b4:	481a      	ldr	r0, [pc, #104]	@ (29520 <_start+0x2480>)
   294b6:	4468      	add	r0, sp
   294b8:	78c1      	ldrb	r1, [r0, #3]
   294ba:	4b1a      	ldr	r3, [pc, #104]	@ (29524 <_start+0x2484>)
   294bc:	446b      	add	r3, sp
   294be:	930a      	str	r3, [sp, #40]	@ 0x28
   294c0:	7099      	strb	r1, [r3, #2]
   294c2:	7841      	ldrb	r1, [r0, #1]
   294c4:	7882      	ldrb	r2, [r0, #2]
   294c6:	0212      	lsls	r2, r2, #8
   294c8:	1851      	adds	r1, r2, r1
   294ca:	8019      	strh	r1, [r3, #0]
   294cc:	3008      	adds	r0, #8
   294ce:	9909      	ldr	r1, [sp, #36]	@ 0x24
   294d0:	6e09      	ldr	r1, [r1, #96]	@ 0x60
   294d2:	9108      	str	r1, [sp, #32]
   294d4:	4b14      	ldr	r3, [pc, #80]	@ (29528 <_start+0x2488>)
   294d6:	446b      	add	r3, sp
   294d8:	930b      	str	r3, [sp, #44]	@ 0x2c
   294da:	c846      	ldmia	r0!, {r1, r2, r6}
   294dc:	c346      	stmia	r3!, {r1, r2, r6}
   294de:	c866      	ldmia	r0!, {r1, r2, r5, r6}
   294e0:	c366      	stmia	r3!, {r1, r2, r5, r6}
   294e2:	c826      	ldmia	r0!, {r1, r2, r5}
   294e4:	c326      	stmia	r3!, {r1, r2, r5}
   294e6:	c866      	ldmia	r0!, {r1, r2, r5, r6}
   294e8:	c366      	stmia	r3!, {r1, r2, r5, r6}
   294ea:	7800      	ldrb	r0, [r0, #0]
   294ec:	7018      	strb	r0, [r3, #0]
   294ee:	9908      	ldr	r1, [sp, #32]
   294f0:	0e08      	lsrs	r0, r1, #24
   294f2:	9d0a      	ldr	r5, [sp, #40]	@ 0x28
   294f4:	71a8      	strb	r0, [r5, #6]
   294f6:	0c08      	lsrs	r0, r1, #16
   294f8:	7168      	strb	r0, [r5, #5]
   294fa:	0a08      	lsrs	r0, r1, #8
   294fc:	7128      	strb	r0, [r5, #4]
   294fe:	70e9      	strb	r1, [r5, #3]
   29500:	1de8      	adds	r0, r5, #7
   29502:	2239      	movs	r2, #57	@ 0x39
   29504:	990b      	ldr	r1, [sp, #44]	@ 0x2c
   29506:	f001 f839 	bl	2a57c <__aeabi_memcpy>
   2950a:	4e05      	ldr	r6, [pc, #20]	@ (29520 <_start+0x2480>)
   2950c:	446e      	add	r6, sp
   2950e:	4630      	mov	r0, r6
   29510:	4629      	mov	r1, r5
   29512:	f7fb fbc9 	bl	24ca8 <_ZN20complex_dynamic_type3app17hbed1b8741981af22E>
   29516:	7830      	ldrb	r0, [r6, #0]
   29518:	2801      	cmp	r0, #1
   2951a:	d107      	bne.n	2952c <_start+0x248c>
   2951c:	f000 fe4e 	bl	2a1bc <_start+0x311c>
   29520:	00001404 	.word	0x00001404
   29524:	00000ddc 	.word	0x00000ddc
   29528:	000013a8 	.word	0x000013a8
   2952c:	4819      	ldr	r0, [pc, #100]	@ (29594 <_start+0x24f4>)
   2952e:	4468      	add	r0, sp
   29530:	78c1      	ldrb	r1, [r0, #3]
   29532:	4b19      	ldr	r3, [pc, #100]	@ (29598 <_start+0x24f8>)
   29534:	446b      	add	r3, sp
   29536:	930a      	str	r3, [sp, #40]	@ 0x28
   29538:	7099      	strb	r1, [r3, #2]
   2953a:	7841      	ldrb	r1, [r0, #1]
   2953c:	7882      	ldrb	r2, [r0, #2]
   2953e:	0212      	lsls	r2, r2, #8
   29540:	1851      	adds	r1, r2, r1
   29542:	8019      	strh	r1, [r3, #0]
   29544:	3008      	adds	r0, #8
   29546:	9909      	ldr	r1, [sp, #36]	@ 0x24
   29548:	6e09      	ldr	r1, [r1, #96]	@ 0x60
   2954a:	9108      	str	r1, [sp, #32]
   2954c:	4b13      	ldr	r3, [pc, #76]	@ (2959c <_start+0x24fc>)
   2954e:	446b      	add	r3, sp
   29550:	930b      	str	r3, [sp, #44]	@ 0x2c
   29552:	c846      	ldmia	r0!, {r1, r2, r6}
   29554:	c346      	stmia	r3!, {r1, r2, r6}
   29556:	c846      	ldmia	r0!, {r1, r2, r6}
   29558:	c346      	stmia	r3!, {r1, r2, r6}
   2955a:	c866      	ldmia	r0!, {r1, r2, r5, r6}
   2955c:	c366      	stmia	r3!, {r1, r2, r5, r6}
   2955e:	8800      	ldrh	r0, [r0, #0]
   29560:	8018      	strh	r0, [r3, #0]
   29562:	9908      	ldr	r1, [sp, #32]
   29564:	0e08      	lsrs	r0, r1, #24
   29566:	9d0a      	ldr	r5, [sp, #40]	@ 0x28
   29568:	71a8      	strb	r0, [r5, #6]
   2956a:	0c08      	lsrs	r0, r1, #16
   2956c:	7168      	strb	r0, [r5, #5]
   2956e:	0a08      	lsrs	r0, r1, #8
   29570:	7128      	strb	r0, [r5, #4]
   29572:	70e9      	strb	r1, [r5, #3]
   29574:	1de8      	adds	r0, r5, #7
   29576:	222a      	movs	r2, #42	@ 0x2a
   29578:	990b      	ldr	r1, [sp, #44]	@ 0x2c
   2957a:	f000 ffff 	bl	2a57c <__aeabi_memcpy>
   2957e:	4e05      	ldr	r6, [pc, #20]	@ (29594 <_start+0x24f4>)
   29580:	446e      	add	r6, sp
   29582:	4630      	mov	r0, r6
   29584:	4629      	mov	r1, r5
   29586:	f7fd fa03 	bl	26990 <_ZN20complex_dynamic_type3app17hf54ce18665cffdc5E>
   2958a:	7830      	ldrb	r0, [r6, #0]
   2958c:	2801      	cmp	r0, #1
   2958e:	d107      	bne.n	295a0 <_start+0x2500>
   29590:	f000 fe14 	bl	2a1bc <_start+0x311c>
   29594:	00001404 	.word	0x00001404
   29598:	00000e1c 	.word	0x00000e1c
   2959c:	000013a8 	.word	0x000013a8
   295a0:	4915      	ldr	r1, [pc, #84]	@ (295f8 <_start+0x2558>)
   295a2:	4469      	add	r1, sp
   295a4:	78c8      	ldrb	r0, [r1, #3]
   295a6:	4d15      	ldr	r5, [pc, #84]	@ (295fc <_start+0x255c>)
   295a8:	446d      	add	r5, sp
   295aa:	70a8      	strb	r0, [r5, #2]
   295ac:	7848      	ldrb	r0, [r1, #1]
   295ae:	788a      	ldrb	r2, [r1, #2]
   295b0:	0212      	lsls	r2, r2, #8
   295b2:	1810      	adds	r0, r2, r0
   295b4:	8028      	strh	r0, [r5, #0]
   295b6:	9809      	ldr	r0, [sp, #36]	@ 0x24
   295b8:	6e06      	ldr	r6, [r0, #96]	@ 0x60
   295ba:	3108      	adds	r1, #8
   295bc:	4810      	ldr	r0, [pc, #64]	@ (29600 <_start+0x2560>)
   295be:	4468      	add	r0, sp
   295c0:	900b      	str	r0, [sp, #44]	@ 0x2c
   295c2:	2241      	movs	r2, #65	@ 0x41
   295c4:	920a      	str	r2, [sp, #40]	@ 0x28
   295c6:	f000 fe79 	bl	2a2bc <__aeabi_memcpy4>
   295ca:	0e30      	lsrs	r0, r6, #24
   295cc:	71a8      	strb	r0, [r5, #6]
   295ce:	0c30      	lsrs	r0, r6, #16
   295d0:	7168      	strb	r0, [r5, #5]
   295d2:	0a30      	lsrs	r0, r6, #8
   295d4:	7128      	strb	r0, [r5, #4]
   295d6:	70ee      	strb	r6, [r5, #3]
   295d8:	1de8      	adds	r0, r5, #7
   295da:	990b      	ldr	r1, [sp, #44]	@ 0x2c
   295dc:	9a0a      	ldr	r2, [sp, #40]	@ 0x28
   295de:	f000 ffcd 	bl	2a57c <__aeabi_memcpy>
   295e2:	4e05      	ldr	r6, [pc, #20]	@ (295f8 <_start+0x2558>)
   295e4:	446e      	add	r6, sp
   295e6:	4630      	mov	r0, r6
   295e8:	4629      	mov	r1, r5
   295ea:	f7fc fddb 	bl	261a4 <_ZN20complex_dynamic_type3app17he40e7edb8c5e1f6dE>
   295ee:	7830      	ldrb	r0, [r6, #0]
   295f0:	2801      	cmp	r0, #1
   295f2:	d107      	bne.n	29604 <_start+0x2564>
   295f4:	f000 fde2 	bl	2a1bc <_start+0x311c>
   295f8:	00001404 	.word	0x00001404
   295fc:	00000e50 	.word	0x00000e50
   29600:	000013a8 	.word	0x000013a8
   29604:	4818      	ldr	r0, [pc, #96]	@ (29668 <_start+0x25c8>)
   29606:	4468      	add	r0, sp
   29608:	78c1      	ldrb	r1, [r0, #3]
   2960a:	4b18      	ldr	r3, [pc, #96]	@ (2966c <_start+0x25cc>)
   2960c:	446b      	add	r3, sp
   2960e:	930a      	str	r3, [sp, #40]	@ 0x28
   29610:	7099      	strb	r1, [r3, #2]
   29612:	7841      	ldrb	r1, [r0, #1]
   29614:	7882      	ldrb	r2, [r0, #2]
   29616:	0212      	lsls	r2, r2, #8
   29618:	1851      	adds	r1, r2, r1
   2961a:	8019      	strh	r1, [r3, #0]
   2961c:	3008      	adds	r0, #8
   2961e:	9909      	ldr	r1, [sp, #36]	@ 0x24
   29620:	6e09      	ldr	r1, [r1, #96]	@ 0x60
   29622:	9108      	str	r1, [sp, #32]
   29624:	4b12      	ldr	r3, [pc, #72]	@ (29670 <_start+0x25d0>)
   29626:	446b      	add	r3, sp
   29628:	930b      	str	r3, [sp, #44]	@ 0x2c
   2962a:	c866      	ldmia	r0!, {r1, r2, r5, r6}
   2962c:	c366      	stmia	r3!, {r1, r2, r5, r6}
   2962e:	c866      	ldmia	r0!, {r1, r2, r5, r6}
   29630:	c366      	stmia	r3!, {r1, r2, r5, r6}
   29632:	8800      	ldrh	r0, [r0, #0]
   29634:	8018      	strh	r0, [r3, #0]
   29636:	9908      	ldr	r1, [sp, #32]
   29638:	0e08      	lsrs	r0, r1, #24
   2963a:	9d0a      	ldr	r5, [sp, #40]	@ 0x28
   2963c:	71a8      	strb	r0, [r5, #6]
   2963e:	0c08      	lsrs	r0, r1, #16
   29640:	7168      	strb	r0, [r5, #5]
   29642:	0a08      	lsrs	r0, r1, #8
   29644:	7128      	strb	r0, [r5, #4]
   29646:	70e9      	strb	r1, [r5, #3]
   29648:	1de8      	adds	r0, r5, #7
   2964a:	2222      	movs	r2, #34	@ 0x22
   2964c:	990b      	ldr	r1, [sp, #44]	@ 0x2c
   2964e:	f000 ff95 	bl	2a57c <__aeabi_memcpy>
   29652:	4e05      	ldr	r6, [pc, #20]	@ (29668 <_start+0x25c8>)
   29654:	446e      	add	r6, sp
   29656:	4630      	mov	r0, r6
   29658:	4629      	mov	r1, r5
   2965a:	f7fb ffc5 	bl	255e8 <_ZN20complex_dynamic_type3app17hd4a01f29db96f5ffE>
   2965e:	7830      	ldrb	r0, [r6, #0]
   29660:	2801      	cmp	r0, #1
   29662:	d107      	bne.n	29674 <_start+0x25d4>
   29664:	f000 fdaa 	bl	2a1bc <_start+0x311c>
   29668:	00001404 	.word	0x00001404
   2966c:	00000e98 	.word	0x00000e98
   29670:	000013a8 	.word	0x000013a8
   29674:	4818      	ldr	r0, [pc, #96]	@ (296d8 <_start+0x2638>)
   29676:	4468      	add	r0, sp
   29678:	78c1      	ldrb	r1, [r0, #3]
   2967a:	4b18      	ldr	r3, [pc, #96]	@ (296dc <_start+0x263c>)
   2967c:	446b      	add	r3, sp
   2967e:	930a      	str	r3, [sp, #40]	@ 0x28
   29680:	7099      	strb	r1, [r3, #2]
   29682:	7841      	ldrb	r1, [r0, #1]
   29684:	7882      	ldrb	r2, [r0, #2]
   29686:	0212      	lsls	r2, r2, #8
   29688:	1851      	adds	r1, r2, r1
   2968a:	8019      	strh	r1, [r3, #0]
   2968c:	3008      	adds	r0, #8
   2968e:	9909      	ldr	r1, [sp, #36]	@ 0x24
   29690:	6e09      	ldr	r1, [r1, #96]	@ 0x60
   29692:	9108      	str	r1, [sp, #32]
   29694:	4b12      	ldr	r3, [pc, #72]	@ (296e0 <_start+0x2640>)
   29696:	446b      	add	r3, sp
   29698:	930b      	str	r3, [sp, #44]	@ 0x2c
   2969a:	c866      	ldmia	r0!, {r1, r2, r5, r6}
   2969c:	c366      	stmia	r3!, {r1, r2, r5, r6}
   2969e:	8801      	ldrh	r1, [r0, #0]
   296a0:	8019      	strh	r1, [r3, #0]
   296a2:	7880      	ldrb	r0, [r0, #2]
   296a4:	7098      	strb	r0, [r3, #2]
   296a6:	9908      	ldr	r1, [sp, #32]
   296a8:	0e08      	lsrs	r0, r1, #24
   296aa:	9d0a      	ldr	r5, [sp, #40]	@ 0x28
   296ac:	71a8      	strb	r0, [r5, #6]
   296ae:	0c08      	lsrs	r0, r1, #16
   296b0:	7168      	strb	r0, [r5, #5]
   296b2:	0a08      	lsrs	r0, r1, #8
   296b4:	7128      	strb	r0, [r5, #4]
   296b6:	70e9      	strb	r1, [r5, #3]
   296b8:	1de8      	adds	r0, r5, #7
   296ba:	2213      	movs	r2, #19
   296bc:	990b      	ldr	r1, [sp, #44]	@ 0x2c
   296be:	f000 ff5d 	bl	2a57c <__aeabi_memcpy>
   296c2:	4e05      	ldr	r6, [pc, #20]	@ (296d8 <_start+0x2638>)
   296c4:	446e      	add	r6, sp
   296c6:	4630      	mov	r0, r6
   296c8:	4629      	mov	r1, r5
   296ca:	f7fa fff1 	bl	246b0 <_ZN20complex_dynamic_type3app17ha7b1df6c8b28b697E>
   296ce:	7830      	ldrb	r0, [r6, #0]
   296d0:	2801      	cmp	r0, #1
   296d2:	d107      	bne.n	296e4 <_start+0x2644>
   296d4:	f000 fd72 	bl	2a1bc <_start+0x311c>
   296d8:	00001404 	.word	0x00001404
   296dc:	00000ec4 	.word	0x00000ec4
   296e0:	000013a8 	.word	0x000013a8
   296e4:	4816      	ldr	r0, [pc, #88]	@ (29740 <_start+0x26a0>)
   296e6:	4468      	add	r0, sp
   296e8:	78c1      	ldrb	r1, [r0, #3]
   296ea:	4d16      	ldr	r5, [pc, #88]	@ (29744 <_start+0x26a4>)
   296ec:	446d      	add	r5, sp
   296ee:	70a9      	strb	r1, [r5, #2]
   296f0:	7841      	ldrb	r1, [r0, #1]
   296f2:	7882      	ldrb	r2, [r0, #2]
   296f4:	0212      	lsls	r2, r2, #8
   296f6:	1851      	adds	r1, r2, r1
   296f8:	8029      	strh	r1, [r5, #0]
   296fa:	3008      	adds	r0, #8
   296fc:	9909      	ldr	r1, [sp, #36]	@ 0x24
   296fe:	6e09      	ldr	r1, [r1, #96]	@ 0x60
   29700:	910a      	str	r1, [sp, #40]	@ 0x28
   29702:	4b11      	ldr	r3, [pc, #68]	@ (29748 <_start+0x26a8>)
   29704:	446b      	add	r3, sp
   29706:	930b      	str	r3, [sp, #44]	@ 0x2c
   29708:	c844      	ldmia	r0!, {r2, r6}
   2970a:	c344      	stmia	r3!, {r2, r6}
   2970c:	c846      	ldmia	r0!, {r1, r2, r6}
   2970e:	c346      	stmia	r3!, {r1, r2, r6}
   29710:	990a      	ldr	r1, [sp, #40]	@ 0x28
   29712:	0e08      	lsrs	r0, r1, #24
   29714:	71a8      	strb	r0, [r5, #6]
   29716:	0c08      	lsrs	r0, r1, #16
   29718:	7168      	strb	r0, [r5, #5]
   2971a:	0a08      	lsrs	r0, r1, #8
   2971c:	7128      	strb	r0, [r5, #4]
   2971e:	70e9      	strb	r1, [r5, #3]
   29720:	1de8      	adds	r0, r5, #7
   29722:	2214      	movs	r2, #20
   29724:	990b      	ldr	r1, [sp, #44]	@ 0x2c
   29726:	f000 ff29 	bl	2a57c <__aeabi_memcpy>
   2972a:	4e05      	ldr	r6, [pc, #20]	@ (29740 <_start+0x26a0>)
   2972c:	446e      	add	r6, sp
   2972e:	4630      	mov	r0, r6
   29730:	4629      	mov	r1, r5
   29732:	f7fd f895 	bl	26860 <_ZN20complex_dynamic_type3app17hf19fe9793293b0dcE>
   29736:	7830      	ldrb	r0, [r6, #0]
   29738:	2801      	cmp	r0, #1
   2973a:	d107      	bne.n	2974c <_start+0x26ac>
   2973c:	f000 fd3e 	bl	2a1bc <_start+0x311c>
   29740:	00001404 	.word	0x00001404
   29744:	00000ee0 	.word	0x00000ee0
   29748:	000013a8 	.word	0x000013a8
   2974c:	481a      	ldr	r0, [pc, #104]	@ (297b8 <_start+0x2718>)
   2974e:	4468      	add	r0, sp
   29750:	78c1      	ldrb	r1, [r0, #3]
   29752:	4b1a      	ldr	r3, [pc, #104]	@ (297bc <_start+0x271c>)
   29754:	446b      	add	r3, sp
   29756:	930a      	str	r3, [sp, #40]	@ 0x28
   29758:	7099      	strb	r1, [r3, #2]
   2975a:	7841      	ldrb	r1, [r0, #1]
   2975c:	7882      	ldrb	r2, [r0, #2]
   2975e:	0212      	lsls	r2, r2, #8
   29760:	1851      	adds	r1, r2, r1
   29762:	8019      	strh	r1, [r3, #0]
   29764:	3008      	adds	r0, #8
   29766:	9909      	ldr	r1, [sp, #36]	@ 0x24
   29768:	6e09      	ldr	r1, [r1, #96]	@ 0x60
   2976a:	9108      	str	r1, [sp, #32]
   2976c:	4b14      	ldr	r3, [pc, #80]	@ (297c0 <_start+0x2720>)
   2976e:	446b      	add	r3, sp
   29770:	930b      	str	r3, [sp, #44]	@ 0x2c
   29772:	c846      	ldmia	r0!, {r1, r2, r6}
   29774:	c346      	stmia	r3!, {r1, r2, r6}
   29776:	c866      	ldmia	r0!, {r1, r2, r5, r6}
   29778:	c366      	stmia	r3!, {r1, r2, r5, r6}
   2977a:	c826      	ldmia	r0!, {r1, r2, r5}
   2977c:	c326      	stmia	r3!, {r1, r2, r5}
   2977e:	c866      	ldmia	r0!, {r1, r2, r5, r6}
   29780:	c366      	stmia	r3!, {r1, r2, r5, r6}
   29782:	8800      	ldrh	r0, [r0, #0]
   29784:	8018      	strh	r0, [r3, #0]
   29786:	9908      	ldr	r1, [sp, #32]
   29788:	0e08      	lsrs	r0, r1, #24
   2978a:	9d0a      	ldr	r5, [sp, #40]	@ 0x28
   2978c:	71a8      	strb	r0, [r5, #6]
   2978e:	0c08      	lsrs	r0, r1, #16
   29790:	7168      	strb	r0, [r5, #5]
   29792:	0a08      	lsrs	r0, r1, #8
   29794:	7128      	strb	r0, [r5, #4]
   29796:	70e9      	strb	r1, [r5, #3]
   29798:	1de8      	adds	r0, r5, #7
   2979a:	223a      	movs	r2, #58	@ 0x3a
   2979c:	990b      	ldr	r1, [sp, #44]	@ 0x2c
   2979e:	f000 feed 	bl	2a57c <__aeabi_memcpy>
   297a2:	4e05      	ldr	r6, [pc, #20]	@ (297b8 <_start+0x2718>)
   297a4:	446e      	add	r6, sp
   297a6:	4630      	mov	r0, r6
   297a8:	4629      	mov	r1, r5
   297aa:	f7f7 fafb 	bl	20da4 <_ZN20complex_dynamic_type3app17h2466a01600a572b2E>
   297ae:	7830      	ldrb	r0, [r6, #0]
   297b0:	2801      	cmp	r0, #1
   297b2:	d107      	bne.n	297c4 <_start+0x2724>
   297b4:	f000 fd02 	bl	2a1bc <_start+0x311c>
   297b8:	00001404 	.word	0x00001404
   297bc:	00000efc 	.word	0x00000efc
   297c0:	000013a8 	.word	0x000013a8
   297c4:	4819      	ldr	r0, [pc, #100]	@ (2982c <_start+0x278c>)
   297c6:	4468      	add	r0, sp
   297c8:	78c1      	ldrb	r1, [r0, #3]
   297ca:	4b19      	ldr	r3, [pc, #100]	@ (29830 <_start+0x2790>)
   297cc:	446b      	add	r3, sp
   297ce:	9307      	str	r3, [sp, #28]
   297d0:	7099      	strb	r1, [r3, #2]
   297d2:	7841      	ldrb	r1, [r0, #1]
   297d4:	7882      	ldrb	r2, [r0, #2]
   297d6:	0212      	lsls	r2, r2, #8
   297d8:	1851      	adds	r1, r2, r1
   297da:	8019      	strh	r1, [r3, #0]
   297dc:	3008      	adds	r0, #8
   297de:	9909      	ldr	r1, [sp, #36]	@ 0x24
   297e0:	6e09      	ldr	r1, [r1, #96]	@ 0x60
   297e2:	9108      	str	r1, [sp, #32]
   297e4:	4913      	ldr	r1, [pc, #76]	@ (29834 <_start+0x2794>)
   297e6:	4469      	add	r1, sp
   297e8:	910a      	str	r1, [sp, #40]	@ 0x28
   297ea:	910b      	str	r1, [sp, #44]	@ 0x2c
   297ec:	9d0b      	ldr	r5, [sp, #44]	@ 0x2c
   297ee:	c84e      	ldmia	r0!, {r1, r2, r3, r6}
   297f0:	c54e      	stmia	r5!, {r1, r2, r3, r6}
   297f2:	950b      	str	r5, [sp, #44]	@ 0x2c
   297f4:	7800      	ldrb	r0, [r0, #0]
   297f6:	990b      	ldr	r1, [sp, #44]	@ 0x2c
   297f8:	7008      	strb	r0, [r1, #0]
   297fa:	9908      	ldr	r1, [sp, #32]
   297fc:	0e08      	lsrs	r0, r1, #24
   297fe:	9d07      	ldr	r5, [sp, #28]
   29800:	71a8      	strb	r0, [r5, #6]
   29802:	0c08      	lsrs	r0, r1, #16
   29804:	7168      	strb	r0, [r5, #5]
   29806:	0a08      	lsrs	r0, r1, #8
   29808:	7128      	strb	r0, [r5, #4]
   2980a:	70e9      	strb	r1, [r5, #3]
   2980c:	1de8      	adds	r0, r5, #7
   2980e:	2211      	movs	r2, #17
   29810:	990a      	ldr	r1, [sp, #40]	@ 0x28
   29812:	f000 feb3 	bl	2a57c <__aeabi_memcpy>
   29816:	4e05      	ldr	r6, [pc, #20]	@ (2982c <_start+0x278c>)
   29818:	446e      	add	r6, sp
   2981a:	4630      	mov	r0, r6
   2981c:	4629      	mov	r1, r5
   2981e:	f7f7 f993 	bl	20b48 <_ZN20complex_dynamic_type3app17h1df639a9782c9083E>
   29822:	7830      	ldrb	r0, [r6, #0]
   29824:	2801      	cmp	r0, #1
   29826:	d107      	bne.n	29838 <_start+0x2798>
   29828:	f000 fcc8 	bl	2a1bc <_start+0x311c>
   2982c:	00001404 	.word	0x00001404
   29830:	00000f40 	.word	0x00000f40
   29834:	000013a8 	.word	0x000013a8
   29838:	4818      	ldr	r0, [pc, #96]	@ (2989c <_start+0x27fc>)
   2983a:	4468      	add	r0, sp
   2983c:	78c1      	ldrb	r1, [r0, #3]
   2983e:	4d18      	ldr	r5, [pc, #96]	@ (298a0 <_start+0x2800>)
   29840:	446d      	add	r5, sp
   29842:	70a9      	strb	r1, [r5, #2]
   29844:	7841      	ldrb	r1, [r0, #1]
   29846:	7882      	ldrb	r2, [r0, #2]
   29848:	0212      	lsls	r2, r2, #8
   2984a:	1851      	adds	r1, r2, r1
   2984c:	8029      	strh	r1, [r5, #0]
   2984e:	3008      	adds	r0, #8
   29850:	9909      	ldr	r1, [sp, #36]	@ 0x24
   29852:	6e09      	ldr	r1, [r1, #96]	@ 0x60
   29854:	910a      	str	r1, [sp, #40]	@ 0x28
   29856:	4b13      	ldr	r3, [pc, #76]	@ (298a4 <_start+0x2804>)
   29858:	446b      	add	r3, sp
   2985a:	930b      	str	r3, [sp, #44]	@ 0x2c
   2985c:	c844      	ldmia	r0!, {r2, r6}
   2985e:	c344      	stmia	r3!, {r2, r6}
   29860:	c846      	ldmia	r0!, {r1, r2, r6}
   29862:	c346      	stmia	r3!, {r1, r2, r6}
   29864:	8801      	ldrh	r1, [r0, #0]
   29866:	8019      	strh	r1, [r3, #0]
   29868:	7880      	ldrb	r0, [r0, #2]
   2986a:	7098      	strb	r0, [r3, #2]
   2986c:	990a      	ldr	r1, [sp, #40]	@ 0x28
   2986e:	0e08      	lsrs	r0, r1, #24
   29870:	71a8      	strb	r0, [r5, #6]
   29872:	0c08      	lsrs	r0, r1, #16
   29874:	7168      	strb	r0, [r5, #5]
   29876:	0a08      	lsrs	r0, r1, #8
   29878:	7128      	strb	r0, [r5, #4]
   2987a:	70e9      	strb	r1, [r5, #3]
   2987c:	1de8      	adds	r0, r5, #7
   2987e:	2217      	movs	r2, #23
   29880:	990b      	ldr	r1, [sp, #44]	@ 0x2c
   29882:	f000 fe7b 	bl	2a57c <__aeabi_memcpy>
   29886:	4e05      	ldr	r6, [pc, #20]	@ (2989c <_start+0x27fc>)
   29888:	446e      	add	r6, sp
   2988a:	4630      	mov	r0, r6
   2988c:	4629      	mov	r1, r5
   2988e:	f7f8 f853 	bl	21938 <_ZN20complex_dynamic_type3app17h39259bc4b61b07ddE>
   29892:	7830      	ldrb	r0, [r6, #0]
   29894:	2801      	cmp	r0, #1
   29896:	d107      	bne.n	298a8 <_start+0x2808>
   29898:	f000 fc90 	bl	2a1bc <_start+0x311c>
   2989c:	00001404 	.word	0x00001404
   298a0:	00000f58 	.word	0x00000f58
   298a4:	000013a8 	.word	0x000013a8
   298a8:	481a      	ldr	r0, [pc, #104]	@ (29914 <_start+0x2874>)
   298aa:	4468      	add	r0, sp
   298ac:	78c1      	ldrb	r1, [r0, #3]
   298ae:	4b1a      	ldr	r3, [pc, #104]	@ (29918 <_start+0x2878>)
   298b0:	446b      	add	r3, sp
   298b2:	930a      	str	r3, [sp, #40]	@ 0x28
   298b4:	7099      	strb	r1, [r3, #2]
   298b6:	7841      	ldrb	r1, [r0, #1]
   298b8:	7882      	ldrb	r2, [r0, #2]
   298ba:	0212      	lsls	r2, r2, #8
   298bc:	1851      	adds	r1, r2, r1
   298be:	8019      	strh	r1, [r3, #0]
   298c0:	3008      	adds	r0, #8
   298c2:	9909      	ldr	r1, [sp, #36]	@ 0x24
   298c4:	6e09      	ldr	r1, [r1, #96]	@ 0x60
   298c6:	9108      	str	r1, [sp, #32]
   298c8:	4b14      	ldr	r3, [pc, #80]	@ (2991c <_start+0x287c>)
   298ca:	446b      	add	r3, sp
   298cc:	930b      	str	r3, [sp, #44]	@ 0x2c
   298ce:	c846      	ldmia	r0!, {r1, r2, r6}
   298d0:	c346      	stmia	r3!, {r1, r2, r6}
   298d2:	c846      	ldmia	r0!, {r1, r2, r6}
   298d4:	c346      	stmia	r3!, {r1, r2, r6}
   298d6:	c846      	ldmia	r0!, {r1, r2, r6}
   298d8:	c346      	stmia	r3!, {r1, r2, r6}
   298da:	c866      	ldmia	r0!, {r1, r2, r5, r6}
   298dc:	c366      	stmia	r3!, {r1, r2, r5, r6}
   298de:	7800      	ldrb	r0, [r0, #0]
   298e0:	7018      	strb	r0, [r3, #0]
   298e2:	9908      	ldr	r1, [sp, #32]
   298e4:	0e08      	lsrs	r0, r1, #24
   298e6:	9d0a      	ldr	r5, [sp, #40]	@ 0x28
   298e8:	71a8      	strb	r0, [r5, #6]
   298ea:	0c08      	lsrs	r0, r1, #16
   298ec:	7168      	strb	r0, [r5, #5]
   298ee:	0a08      	lsrs	r0, r1, #8
   298f0:	7128      	strb	r0, [r5, #4]
   298f2:	70e9      	strb	r1, [r5, #3]
   298f4:	1de8      	adds	r0, r5, #7
   298f6:	2235      	movs	r2, #53	@ 0x35
   298f8:	990b      	ldr	r1, [sp, #44]	@ 0x2c
   298fa:	f000 fe3f 	bl	2a57c <__aeabi_memcpy>
   298fe:	4e05      	ldr	r6, [pc, #20]	@ (29914 <_start+0x2874>)
   29900:	446e      	add	r6, sp
   29902:	4630      	mov	r0, r6
   29904:	4629      	mov	r1, r5
   29906:	f7f6 fecd 	bl	206a4 <_ZN20complex_dynamic_type3app17h10a1577959aa6e03E>
   2990a:	7830      	ldrb	r0, [r6, #0]
   2990c:	2801      	cmp	r0, #1
   2990e:	d107      	bne.n	29920 <_start+0x2880>
   29910:	f000 fc54 	bl	2a1bc <_start+0x311c>
   29914:	00001404 	.word	0x00001404
   29918:	00000f78 	.word	0x00000f78
   2991c:	000013a8 	.word	0x000013a8
   29920:	4818      	ldr	r0, [pc, #96]	@ (29984 <_start+0x28e4>)
   29922:	4468      	add	r0, sp
   29924:	78c1      	ldrb	r1, [r0, #3]
   29926:	4d18      	ldr	r5, [pc, #96]	@ (29988 <_start+0x28e8>)
   29928:	446d      	add	r5, sp
   2992a:	70a9      	strb	r1, [r5, #2]
   2992c:	7841      	ldrb	r1, [r0, #1]
   2992e:	7882      	ldrb	r2, [r0, #2]
   29930:	0212      	lsls	r2, r2, #8
   29932:	1851      	adds	r1, r2, r1
   29934:	8029      	strh	r1, [r5, #0]
   29936:	3008      	adds	r0, #8
   29938:	9909      	ldr	r1, [sp, #36]	@ 0x24
   2993a:	6e09      	ldr	r1, [r1, #96]	@ 0x60
   2993c:	910a      	str	r1, [sp, #40]	@ 0x28
   2993e:	4b13      	ldr	r3, [pc, #76]	@ (2998c <_start+0x28ec>)
   29940:	446b      	add	r3, sp
   29942:	930b      	str	r3, [sp, #44]	@ 0x2c
   29944:	c846      	ldmia	r0!, {r1, r2, r6}
   29946:	c346      	stmia	r3!, {r1, r2, r6}
   29948:	c846      	ldmia	r0!, {r1, r2, r6}
   2994a:	c346      	stmia	r3!, {r1, r2, r6}
   2994c:	c846      	ldmia	r0!, {r1, r2, r6}
   2994e:	c346      	stmia	r3!, {r1, r2, r6}
   29950:	7800      	ldrb	r0, [r0, #0]
   29952:	7018      	strb	r0, [r3, #0]
   29954:	990a      	ldr	r1, [sp, #40]	@ 0x28
   29956:	0e08      	lsrs	r0, r1, #24
   29958:	71a8      	strb	r0, [r5, #6]
   2995a:	0c08      	lsrs	r0, r1, #16
   2995c:	7168      	strb	r0, [r5, #5]
   2995e:	0a08      	lsrs	r0, r1, #8
   29960:	7128      	strb	r0, [r5, #4]
   29962:	70e9      	strb	r1, [r5, #3]
   29964:	1de8      	adds	r0, r5, #7
   29966:	2225      	movs	r2, #37	@ 0x25
   29968:	990b      	ldr	r1, [sp, #44]	@ 0x2c
   2996a:	f000 fe07 	bl	2a57c <__aeabi_memcpy>
   2996e:	4e05      	ldr	r6, [pc, #20]	@ (29984 <_start+0x28e4>)
   29970:	446e      	add	r6, sp
   29972:	4630      	mov	r0, r6
   29974:	4629      	mov	r1, r5
   29976:	f7fc fb7f 	bl	26078 <_ZN20complex_dynamic_type3app17he23915607e59af37E>
   2997a:	7830      	ldrb	r0, [r6, #0]
   2997c:	2801      	cmp	r0, #1
   2997e:	d107      	bne.n	29990 <_start+0x28f0>
   29980:	f000 fc1c 	bl	2a1bc <_start+0x311c>
   29984:	00001404 	.word	0x00001404
   29988:	00000fb4 	.word	0x00000fb4
   2998c:	000013a8 	.word	0x000013a8
   29990:	4817      	ldr	r0, [pc, #92]	@ (299f0 <_start+0x2950>)
   29992:	4468      	add	r0, sp
   29994:	78c1      	ldrb	r1, [r0, #3]
   29996:	4b17      	ldr	r3, [pc, #92]	@ (299f4 <_start+0x2954>)
   29998:	446b      	add	r3, sp
   2999a:	930a      	str	r3, [sp, #40]	@ 0x28
   2999c:	7099      	strb	r1, [r3, #2]
   2999e:	7841      	ldrb	r1, [r0, #1]
   299a0:	7882      	ldrb	r2, [r0, #2]
   299a2:	0212      	lsls	r2, r2, #8
   299a4:	1851      	adds	r1, r2, r1
   299a6:	8019      	strh	r1, [r3, #0]
   299a8:	3008      	adds	r0, #8
   299aa:	9909      	ldr	r1, [sp, #36]	@ 0x24
   299ac:	6e09      	ldr	r1, [r1, #96]	@ 0x60
   299ae:	9108      	str	r1, [sp, #32]
   299b0:	4b11      	ldr	r3, [pc, #68]	@ (299f8 <_start+0x2958>)
   299b2:	446b      	add	r3, sp
   299b4:	930b      	str	r3, [sp, #44]	@ 0x2c
   299b6:	c866      	ldmia	r0!, {r1, r2, r5, r6}
   299b8:	c366      	stmia	r3!, {r1, r2, r5, r6}
   299ba:	c866      	ldmia	r0!, {r1, r2, r5, r6}
   299bc:	c366      	stmia	r3!, {r1, r2, r5, r6}
   299be:	9908      	ldr	r1, [sp, #32]
   299c0:	0e08      	lsrs	r0, r1, #24
   299c2:	9d0a      	ldr	r5, [sp, #40]	@ 0x28
   299c4:	71a8      	strb	r0, [r5, #6]
   299c6:	0c08      	lsrs	r0, r1, #16
   299c8:	7168      	strb	r0, [r5, #5]
   299ca:	0a08      	lsrs	r0, r1, #8
   299cc:	7128      	strb	r0, [r5, #4]
   299ce:	70e9      	strb	r1, [r5, #3]
   299d0:	1de8      	adds	r0, r5, #7
   299d2:	2220      	movs	r2, #32
   299d4:	990b      	ldr	r1, [sp, #44]	@ 0x2c
   299d6:	f000 fdd1 	bl	2a57c <__aeabi_memcpy>
   299da:	4e05      	ldr	r6, [pc, #20]	@ (299f0 <_start+0x2950>)
   299dc:	446e      	add	r6, sp
   299de:	4630      	mov	r0, r6
   299e0:	4629      	mov	r1, r5
   299e2:	f7fc fab3 	bl	25f4c <_ZN20complex_dynamic_type3app17he192c546c536d1a1E>
   299e6:	7830      	ldrb	r0, [r6, #0]
   299e8:	2801      	cmp	r0, #1
   299ea:	d107      	bne.n	299fc <_start+0x295c>
   299ec:	e3e6      	b.n	2a1bc <_start+0x311c>
   299ee:	46c0      	nop			@ (mov r8, r8)
   299f0:	00001404 	.word	0x00001404
   299f4:	00000fe0 	.word	0x00000fe0
   299f8:	000013a8 	.word	0x000013a8
   299fc:	4915      	ldr	r1, [pc, #84]	@ (29a54 <_start+0x29b4>)
   299fe:	4469      	add	r1, sp
   29a00:	78c8      	ldrb	r0, [r1, #3]
   29a02:	4d15      	ldr	r5, [pc, #84]	@ (29a58 <_start+0x29b8>)
   29a04:	446d      	add	r5, sp
   29a06:	70a8      	strb	r0, [r5, #2]
   29a08:	7848      	ldrb	r0, [r1, #1]
   29a0a:	788a      	ldrb	r2, [r1, #2]
   29a0c:	0212      	lsls	r2, r2, #8
   29a0e:	1810      	adds	r0, r2, r0
   29a10:	8028      	strh	r0, [r5, #0]
   29a12:	9809      	ldr	r0, [sp, #36]	@ 0x24
   29a14:	6e06      	ldr	r6, [r0, #96]	@ 0x60
   29a16:	3108      	adds	r1, #8
   29a18:	4810      	ldr	r0, [pc, #64]	@ (29a5c <_start+0x29bc>)
   29a1a:	4468      	add	r0, sp
   29a1c:	900b      	str	r0, [sp, #44]	@ 0x2c
   29a1e:	2248      	movs	r2, #72	@ 0x48
   29a20:	920a      	str	r2, [sp, #40]	@ 0x28
   29a22:	f000 fc4b 	bl	2a2bc <__aeabi_memcpy4>
   29a26:	0e30      	lsrs	r0, r6, #24
   29a28:	71a8      	strb	r0, [r5, #6]
   29a2a:	0c30      	lsrs	r0, r6, #16
   29a2c:	7168      	strb	r0, [r5, #5]
   29a2e:	0a30      	lsrs	r0, r6, #8
   29a30:	7128      	strb	r0, [r5, #4]
   29a32:	70ee      	strb	r6, [r5, #3]
   29a34:	1de8      	adds	r0, r5, #7
   29a36:	990b      	ldr	r1, [sp, #44]	@ 0x2c
   29a38:	9a0a      	ldr	r2, [sp, #40]	@ 0x28
   29a3a:	f000 fd9f 	bl	2a57c <__aeabi_memcpy>
   29a3e:	4e05      	ldr	r6, [pc, #20]	@ (29a54 <_start+0x29b4>)
   29a40:	446e      	add	r6, sp
   29a42:	4630      	mov	r0, r6
   29a44:	4629      	mov	r1, r5
   29a46:	f7fb fe63 	bl	25710 <_ZN20complex_dynamic_type3app17hd50bfa1135d581cdE>
   29a4a:	7830      	ldrb	r0, [r6, #0]
   29a4c:	2801      	cmp	r0, #1
   29a4e:	d107      	bne.n	29a60 <_start+0x29c0>
   29a50:	e3b4      	b.n	2a1bc <_start+0x311c>
   29a52:	46c0      	nop			@ (mov r8, r8)
   29a54:	00001404 	.word	0x00001404
   29a58:	00001008 	.word	0x00001008
   29a5c:	000013a8 	.word	0x000013a8
   29a60:	4819      	ldr	r0, [pc, #100]	@ (29ac8 <_start+0x2a28>)
   29a62:	4468      	add	r0, sp
   29a64:	78c1      	ldrb	r1, [r0, #3]
   29a66:	4b19      	ldr	r3, [pc, #100]	@ (29acc <_start+0x2a2c>)
   29a68:	446b      	add	r3, sp
   29a6a:	930a      	str	r3, [sp, #40]	@ 0x28
   29a6c:	7099      	strb	r1, [r3, #2]
   29a6e:	7841      	ldrb	r1, [r0, #1]
   29a70:	7882      	ldrb	r2, [r0, #2]
   29a72:	0212      	lsls	r2, r2, #8
   29a74:	1851      	adds	r1, r2, r1
   29a76:	8019      	strh	r1, [r3, #0]
   29a78:	3008      	adds	r0, #8
   29a7a:	9909      	ldr	r1, [sp, #36]	@ 0x24
   29a7c:	6e09      	ldr	r1, [r1, #96]	@ 0x60
   29a7e:	9108      	str	r1, [sp, #32]
   29a80:	4b13      	ldr	r3, [pc, #76]	@ (29ad0 <_start+0x2a30>)
   29a82:	446b      	add	r3, sp
   29a84:	930b      	str	r3, [sp, #44]	@ 0x2c
   29a86:	c846      	ldmia	r0!, {r1, r2, r6}
   29a88:	c346      	stmia	r3!, {r1, r2, r6}
   29a8a:	c866      	ldmia	r0!, {r1, r2, r5, r6}
   29a8c:	c366      	stmia	r3!, {r1, r2, r5, r6}
   29a8e:	c866      	ldmia	r0!, {r1, r2, r5, r6}
   29a90:	c366      	stmia	r3!, {r1, r2, r5, r6}
   29a92:	8800      	ldrh	r0, [r0, #0]
   29a94:	8018      	strh	r0, [r3, #0]
   29a96:	9908      	ldr	r1, [sp, #32]
   29a98:	0e08      	lsrs	r0, r1, #24
   29a9a:	9d0a      	ldr	r5, [sp, #40]	@ 0x28
   29a9c:	71a8      	strb	r0, [r5, #6]
   29a9e:	0c08      	lsrs	r0, r1, #16
   29aa0:	7168      	strb	r0, [r5, #5]
   29aa2:	0a08      	lsrs	r0, r1, #8
   29aa4:	7128      	strb	r0, [r5, #4]
   29aa6:	70e9      	strb	r1, [r5, #3]
   29aa8:	1de8      	adds	r0, r5, #7
   29aaa:	222e      	movs	r2, #46	@ 0x2e
   29aac:	990b      	ldr	r1, [sp, #44]	@ 0x2c
   29aae:	f000 fd65 	bl	2a57c <__aeabi_memcpy>
   29ab2:	4e05      	ldr	r6, [pc, #20]	@ (29ac8 <_start+0x2a28>)
   29ab4:	446e      	add	r6, sp
   29ab6:	4630      	mov	r0, r6
   29ab8:	4629      	mov	r1, r5
   29aba:	f7f6 ffb1 	bl	20a20 <_ZN20complex_dynamic_type3app17h161e97fd151d1cb1E>
   29abe:	7830      	ldrb	r0, [r6, #0]
   29ac0:	2801      	cmp	r0, #1
   29ac2:	d107      	bne.n	29ad4 <_start+0x2a34>
   29ac4:	e37a      	b.n	2a1bc <_start+0x311c>
   29ac6:	46c0      	nop			@ (mov r8, r8)
   29ac8:	00001404 	.word	0x00001404
   29acc:	00001058 	.word	0x00001058
   29ad0:	000013a8 	.word	0x000013a8
   29ad4:	4819      	ldr	r0, [pc, #100]	@ (29b3c <_start+0x2a9c>)
   29ad6:	4468      	add	r0, sp
   29ad8:	78c1      	ldrb	r1, [r0, #3]
   29ada:	4b19      	ldr	r3, [pc, #100]	@ (29b40 <_start+0x2aa0>)
   29adc:	446b      	add	r3, sp
   29ade:	930a      	str	r3, [sp, #40]	@ 0x28
   29ae0:	7099      	strb	r1, [r3, #2]
   29ae2:	7841      	ldrb	r1, [r0, #1]
   29ae4:	7882      	ldrb	r2, [r0, #2]
   29ae6:	0212      	lsls	r2, r2, #8
   29ae8:	1851      	adds	r1, r2, r1
   29aea:	8019      	strh	r1, [r3, #0]
   29aec:	3008      	adds	r0, #8
   29aee:	9909      	ldr	r1, [sp, #36]	@ 0x24
   29af0:	6e09      	ldr	r1, [r1, #96]	@ 0x60
   29af2:	9108      	str	r1, [sp, #32]
   29af4:	4b13      	ldr	r3, [pc, #76]	@ (29b44 <_start+0x2aa4>)
   29af6:	446b      	add	r3, sp
   29af8:	930b      	str	r3, [sp, #44]	@ 0x2c
   29afa:	c846      	ldmia	r0!, {r1, r2, r6}
   29afc:	c346      	stmia	r3!, {r1, r2, r6}
   29afe:	c866      	ldmia	r0!, {r1, r2, r5, r6}
   29b00:	c366      	stmia	r3!, {r1, r2, r5, r6}
   29b02:	c826      	ldmia	r0!, {r1, r2, r5}
   29b04:	c326      	stmia	r3!, {r1, r2, r5}
   29b06:	c866      	ldmia	r0!, {r1, r2, r5, r6}
   29b08:	c366      	stmia	r3!, {r1, r2, r5, r6}
   29b0a:	9908      	ldr	r1, [sp, #32]
   29b0c:	0e08      	lsrs	r0, r1, #24
   29b0e:	9d0a      	ldr	r5, [sp, #40]	@ 0x28
   29b10:	71a8      	strb	r0, [r5, #6]
   29b12:	0c08      	lsrs	r0, r1, #16
   29b14:	7168      	strb	r0, [r5, #5]
   29b16:	0a08      	lsrs	r0, r1, #8
   29b18:	7128      	strb	r0, [r5, #4]
   29b1a:	70e9      	strb	r1, [r5, #3]
   29b1c:	1de8      	adds	r0, r5, #7
   29b1e:	2238      	movs	r2, #56	@ 0x38
   29b20:	990b      	ldr	r1, [sp, #44]	@ 0x2c
   29b22:	f000 fd2b 	bl	2a57c <__aeabi_memcpy>
   29b26:	4e05      	ldr	r6, [pc, #20]	@ (29b3c <_start+0x2a9c>)
   29b28:	446e      	add	r6, sp
   29b2a:	4630      	mov	r0, r6
   29b2c:	4629      	mov	r1, r5
   29b2e:	f7f8 f835 	bl	21b9c <_ZN20complex_dynamic_type3app17h465a7feff40d24c9E>
   29b32:	7830      	ldrb	r0, [r6, #0]
   29b34:	2801      	cmp	r0, #1
   29b36:	d107      	bne.n	29b48 <_start+0x2aa8>
   29b38:	e340      	b.n	2a1bc <_start+0x311c>
   29b3a:	46c0      	nop			@ (mov r8, r8)
   29b3c:	00001404 	.word	0x00001404
   29b40:	00001090 	.word	0x00001090
   29b44:	000013a8 	.word	0x000013a8
   29b48:	4815      	ldr	r0, [pc, #84]	@ (29ba0 <_start+0x2b00>)
   29b4a:	4468      	add	r0, sp
   29b4c:	78c1      	ldrb	r1, [r0, #3]
   29b4e:	4d15      	ldr	r5, [pc, #84]	@ (29ba4 <_start+0x2b04>)
   29b50:	446d      	add	r5, sp
   29b52:	70a9      	strb	r1, [r5, #2]
   29b54:	7841      	ldrb	r1, [r0, #1]
   29b56:	7882      	ldrb	r2, [r0, #2]
   29b58:	0212      	lsls	r2, r2, #8
   29b5a:	1851      	adds	r1, r2, r1
   29b5c:	8029      	strh	r1, [r5, #0]
   29b5e:	3008      	adds	r0, #8
   29b60:	9909      	ldr	r1, [sp, #36]	@ 0x24
   29b62:	6e09      	ldr	r1, [r1, #96]	@ 0x60
   29b64:	4b10      	ldr	r3, [pc, #64]	@ (29ba8 <_start+0x2b08>)
   29b66:	446b      	add	r3, sp
   29b68:	930b      	str	r3, [sp, #44]	@ 0x2c
   29b6a:	c844      	ldmia	r0!, {r2, r6}
   29b6c:	c344      	stmia	r3!, {r2, r6}
   29b6e:	8800      	ldrh	r0, [r0, #0]
   29b70:	8018      	strh	r0, [r3, #0]
   29b72:	0e08      	lsrs	r0, r1, #24
   29b74:	71a8      	strb	r0, [r5, #6]
   29b76:	0c08      	lsrs	r0, r1, #16
   29b78:	7168      	strb	r0, [r5, #5]
   29b7a:	0a08      	lsrs	r0, r1, #8
   29b7c:	7128      	strb	r0, [r5, #4]
   29b7e:	70e9      	strb	r1, [r5, #3]
   29b80:	1de8      	adds	r0, r5, #7
   29b82:	220a      	movs	r2, #10
   29b84:	990b      	ldr	r1, [sp, #44]	@ 0x2c
   29b86:	f000 fcf9 	bl	2a57c <__aeabi_memcpy>
   29b8a:	4e05      	ldr	r6, [pc, #20]	@ (29ba0 <_start+0x2b00>)
   29b8c:	446e      	add	r6, sp
   29b8e:	4630      	mov	r0, r6
   29b90:	4629      	mov	r1, r5
   29b92:	f7fa f857 	bl	23c44 <_ZN20complex_dynamic_type3app17h9990110f811bdee4E>
   29b96:	7830      	ldrb	r0, [r6, #0]
   29b98:	2801      	cmp	r0, #1
   29b9a:	d107      	bne.n	29bac <_start+0x2b0c>
   29b9c:	e30e      	b.n	2a1bc <_start+0x311c>
   29b9e:	46c0      	nop			@ (mov r8, r8)
   29ba0:	00001404 	.word	0x00001404
   29ba4:	000010d0 	.word	0x000010d0
   29ba8:	000013a8 	.word	0x000013a8
   29bac:	4819      	ldr	r0, [pc, #100]	@ (29c14 <_start+0x2b74>)
   29bae:	4468      	add	r0, sp
   29bb0:	78c1      	ldrb	r1, [r0, #3]
   29bb2:	4b19      	ldr	r3, [pc, #100]	@ (29c18 <_start+0x2b78>)
   29bb4:	446b      	add	r3, sp
   29bb6:	930a      	str	r3, [sp, #40]	@ 0x28
   29bb8:	7099      	strb	r1, [r3, #2]
   29bba:	7841      	ldrb	r1, [r0, #1]
   29bbc:	7882      	ldrb	r2, [r0, #2]
   29bbe:	0212      	lsls	r2, r2, #8
   29bc0:	1851      	adds	r1, r2, r1
   29bc2:	8019      	strh	r1, [r3, #0]
   29bc4:	3008      	adds	r0, #8
   29bc6:	9909      	ldr	r1, [sp, #36]	@ 0x24
   29bc8:	6e09      	ldr	r1, [r1, #96]	@ 0x60
   29bca:	9108      	str	r1, [sp, #32]
   29bcc:	4b13      	ldr	r3, [pc, #76]	@ (29c1c <_start+0x2b7c>)
   29bce:	446b      	add	r3, sp
   29bd0:	930b      	str	r3, [sp, #44]	@ 0x2c
   29bd2:	c846      	ldmia	r0!, {r1, r2, r6}
   29bd4:	c346      	stmia	r3!, {r1, r2, r6}
   29bd6:	c866      	ldmia	r0!, {r1, r2, r5, r6}
   29bd8:	c366      	stmia	r3!, {r1, r2, r5, r6}
   29bda:	c826      	ldmia	r0!, {r1, r2, r5}
   29bdc:	c326      	stmia	r3!, {r1, r2, r5}
   29bde:	c866      	ldmia	r0!, {r1, r2, r5, r6}
   29be0:	c366      	stmia	r3!, {r1, r2, r5, r6}
   29be2:	9908      	ldr	r1, [sp, #32]
   29be4:	0e08      	lsrs	r0, r1, #24
   29be6:	9d0a      	ldr	r5, [sp, #40]	@ 0x28
   29be8:	71a8      	strb	r0, [r5, #6]
   29bea:	0c08      	lsrs	r0, r1, #16
   29bec:	7168      	strb	r0, [r5, #5]
   29bee:	0a08      	lsrs	r0, r1, #8
   29bf0:	7128      	strb	r0, [r5, #4]
   29bf2:	70e9      	strb	r1, [r5, #3]
   29bf4:	1de8      	adds	r0, r5, #7
   29bf6:	2238      	movs	r2, #56	@ 0x38
   29bf8:	990b      	ldr	r1, [sp, #44]	@ 0x2c
   29bfa:	f000 fcbf 	bl	2a57c <__aeabi_memcpy>
   29bfe:	4e05      	ldr	r6, [pc, #20]	@ (29c14 <_start+0x2b74>)
   29c00:	446e      	add	r6, sp
   29c02:	4630      	mov	r0, r6
   29c04:	4629      	mov	r1, r5
   29c06:	f7fa f8b5 	bl	23d74 <_ZN20complex_dynamic_type3app17h9b03f42ae037d5deE>
   29c0a:	7830      	ldrb	r0, [r6, #0]
   29c0c:	2801      	cmp	r0, #1
   29c0e:	d107      	bne.n	29c20 <_start+0x2b80>
   29c10:	e2d4      	b.n	2a1bc <_start+0x311c>
   29c12:	46c0      	nop			@ (mov r8, r8)
   29c14:	00001404 	.word	0x00001404
   29c18:	000010e4 	.word	0x000010e4
   29c1c:	000013a8 	.word	0x000013a8
   29c20:	4817      	ldr	r0, [pc, #92]	@ (29c80 <_start+0x2be0>)
   29c22:	4468      	add	r0, sp
   29c24:	78c1      	ldrb	r1, [r0, #3]
   29c26:	4d17      	ldr	r5, [pc, #92]	@ (29c84 <_start+0x2be4>)
   29c28:	446d      	add	r5, sp
   29c2a:	70a9      	strb	r1, [r5, #2]
   29c2c:	7841      	ldrb	r1, [r0, #1]
   29c2e:	7882      	ldrb	r2, [r0, #2]
   29c30:	0212      	lsls	r2, r2, #8
   29c32:	1851      	adds	r1, r2, r1
   29c34:	8029      	strh	r1, [r5, #0]
   29c36:	3008      	adds	r0, #8
   29c38:	9909      	ldr	r1, [sp, #36]	@ 0x24
   29c3a:	6e09      	ldr	r1, [r1, #96]	@ 0x60
   29c3c:	910a      	str	r1, [sp, #40]	@ 0x28
   29c3e:	4b12      	ldr	r3, [pc, #72]	@ (29c88 <_start+0x2be8>)
   29c40:	446b      	add	r3, sp
   29c42:	930b      	str	r3, [sp, #44]	@ 0x2c
   29c44:	c844      	ldmia	r0!, {r2, r6}
   29c46:	c344      	stmia	r3!, {r2, r6}
   29c48:	c846      	ldmia	r0!, {r1, r2, r6}
   29c4a:	c346      	stmia	r3!, {r1, r2, r6}
   29c4c:	7800      	ldrb	r0, [r0, #0]
   29c4e:	7018      	strb	r0, [r3, #0]
   29c50:	990a      	ldr	r1, [sp, #40]	@ 0x28
   29c52:	0e08      	lsrs	r0, r1, #24
   29c54:	71a8      	strb	r0, [r5, #6]
   29c56:	0c08      	lsrs	r0, r1, #16
   29c58:	7168      	strb	r0, [r5, #5]
   29c5a:	0a08      	lsrs	r0, r1, #8
   29c5c:	7128      	strb	r0, [r5, #4]
   29c5e:	70e9      	strb	r1, [r5, #3]
   29c60:	1de8      	adds	r0, r5, #7
   29c62:	2215      	movs	r2, #21
   29c64:	990b      	ldr	r1, [sp, #44]	@ 0x2c
   29c66:	f000 fc89 	bl	2a57c <__aeabi_memcpy>
   29c6a:	4e05      	ldr	r6, [pc, #20]	@ (29c80 <_start+0x2be0>)
   29c6c:	446e      	add	r6, sp
   29c6e:	4630      	mov	r0, r6
   29c70:	4629      	mov	r1, r5
   29c72:	f7fb fa63 	bl	2513c <_ZN20complex_dynamic_type3app17hc75caae27b36b35fE>
   29c76:	7830      	ldrb	r0, [r6, #0]
   29c78:	2801      	cmp	r0, #1
   29c7a:	d107      	bne.n	29c8c <_start+0x2bec>
   29c7c:	e29e      	b.n	2a1bc <_start+0x311c>
   29c7e:	46c0      	nop			@ (mov r8, r8)
   29c80:	00001404 	.word	0x00001404
   29c84:	00001124 	.word	0x00001124
   29c88:	000013a8 	.word	0x000013a8
   29c8c:	4915      	ldr	r1, [pc, #84]	@ (29ce4 <_start+0x2c44>)
   29c8e:	4469      	add	r1, sp
   29c90:	78c8      	ldrb	r0, [r1, #3]
   29c92:	4d15      	ldr	r5, [pc, #84]	@ (29ce8 <_start+0x2c48>)
   29c94:	446d      	add	r5, sp
   29c96:	70a8      	strb	r0, [r5, #2]
   29c98:	7848      	ldrb	r0, [r1, #1]
   29c9a:	788a      	ldrb	r2, [r1, #2]
   29c9c:	0212      	lsls	r2, r2, #8
   29c9e:	1810      	adds	r0, r2, r0
   29ca0:	8028      	strh	r0, [r5, #0]
   29ca2:	9809      	ldr	r0, [sp, #36]	@ 0x24
   29ca4:	6e06      	ldr	r6, [r0, #96]	@ 0x60
   29ca6:	3108      	adds	r1, #8
   29ca8:	4810      	ldr	r0, [pc, #64]	@ (29cec <_start+0x2c4c>)
   29caa:	4468      	add	r0, sp
   29cac:	900b      	str	r0, [sp, #44]	@ 0x2c
   29cae:	2256      	movs	r2, #86	@ 0x56
   29cb0:	920a      	str	r2, [sp, #40]	@ 0x28
   29cb2:	f000 fb03 	bl	2a2bc <__aeabi_memcpy4>
   29cb6:	0e30      	lsrs	r0, r6, #24
   29cb8:	71a8      	strb	r0, [r5, #6]
   29cba:	0c30      	lsrs	r0, r6, #16
   29cbc:	7168      	strb	r0, [r5, #5]
   29cbe:	0a30      	lsrs	r0, r6, #8
   29cc0:	7128      	strb	r0, [r5, #4]
   29cc2:	70ee      	strb	r6, [r5, #3]
   29cc4:	1de8      	adds	r0, r5, #7
   29cc6:	990b      	ldr	r1, [sp, #44]	@ 0x2c
   29cc8:	9a0a      	ldr	r2, [sp, #40]	@ 0x28
   29cca:	f000 fc57 	bl	2a57c <__aeabi_memcpy>
   29cce:	4e05      	ldr	r6, [pc, #20]	@ (29ce4 <_start+0x2c44>)
   29cd0:	446e      	add	r6, sp
   29cd2:	4630      	mov	r0, r6
   29cd4:	4629      	mov	r1, r5
   29cd6:	f7f8 fd31 	bl	2273c <_ZN20complex_dynamic_type3app17h5c3cf3f55452a669E>
   29cda:	7830      	ldrb	r0, [r6, #0]
   29cdc:	2801      	cmp	r0, #1
   29cde:	d107      	bne.n	29cf0 <_start+0x2c50>
   29ce0:	e26c      	b.n	2a1bc <_start+0x311c>
   29ce2:	46c0      	nop			@ (mov r8, r8)
   29ce4:	00001404 	.word	0x00001404
   29ce8:	00001140 	.word	0x00001140
   29cec:	000013a8 	.word	0x000013a8
   29cf0:	4816      	ldr	r0, [pc, #88]	@ (29d4c <_start+0x2cac>)
   29cf2:	4468      	add	r0, sp
   29cf4:	78c1      	ldrb	r1, [r0, #3]
   29cf6:	4d16      	ldr	r5, [pc, #88]	@ (29d50 <_start+0x2cb0>)
   29cf8:	446d      	add	r5, sp
   29cfa:	70a9      	strb	r1, [r5, #2]
   29cfc:	7841      	ldrb	r1, [r0, #1]
   29cfe:	7882      	ldrb	r2, [r0, #2]
   29d00:	0212      	lsls	r2, r2, #8
   29d02:	1851      	adds	r1, r2, r1
   29d04:	8029      	strh	r1, [r5, #0]
   29d06:	3008      	adds	r0, #8
   29d08:	9909      	ldr	r1, [sp, #36]	@ 0x24
   29d0a:	6e09      	ldr	r1, [r1, #96]	@ 0x60
   29d0c:	4b11      	ldr	r3, [pc, #68]	@ (29d54 <_start+0x2cb4>)
   29d0e:	446b      	add	r3, sp
   29d10:	930b      	str	r3, [sp, #44]	@ 0x2c
   29d12:	c844      	ldmia	r0!, {r2, r6}
   29d14:	c344      	stmia	r3!, {r2, r6}
   29d16:	8802      	ldrh	r2, [r0, #0]
   29d18:	801a      	strh	r2, [r3, #0]
   29d1a:	7880      	ldrb	r0, [r0, #2]
   29d1c:	7098      	strb	r0, [r3, #2]
   29d1e:	0e08      	lsrs	r0, r1, #24
   29d20:	71a8      	strb	r0, [r5, #6]
   29d22:	0c08      	lsrs	r0, r1, #16
   29d24:	7168      	strb	r0, [r5, #5]
   29d26:	0a08      	lsrs	r0, r1, #8
   29d28:	7128      	strb	r0, [r5, #4]
   29d2a:	70e9      	strb	r1, [r5, #3]
   29d2c:	1de8      	adds	r0, r5, #7
   29d2e:	220b      	movs	r2, #11
   29d30:	990b      	ldr	r1, [sp, #44]	@ 0x2c
   29d32:	f000 fc23 	bl	2a57c <__aeabi_memcpy>
   29d36:	4e05      	ldr	r6, [pc, #20]	@ (29d4c <_start+0x2cac>)
   29d38:	446e      	add	r6, sp
   29d3a:	4630      	mov	r0, r6
   29d3c:	4629      	mov	r1, r5
   29d3e:	f7f9 fbf7 	bl	23530 <_ZN20complex_dynamic_type3app17h8c0f94b20fe150fbE>
   29d42:	7830      	ldrb	r0, [r6, #0]
   29d44:	2801      	cmp	r0, #1
   29d46:	d107      	bne.n	29d58 <_start+0x2cb8>
   29d48:	e238      	b.n	2a1bc <_start+0x311c>
   29d4a:	46c0      	nop			@ (mov r8, r8)
   29d4c:	00001404 	.word	0x00001404
   29d50:	000011a0 	.word	0x000011a0
   29d54:	000013a8 	.word	0x000013a8
   29d58:	481a      	ldr	r0, [pc, #104]	@ (29dc4 <_start+0x2d24>)
   29d5a:	4468      	add	r0, sp
   29d5c:	78c1      	ldrb	r1, [r0, #3]
   29d5e:	4b1a      	ldr	r3, [pc, #104]	@ (29dc8 <_start+0x2d28>)
   29d60:	446b      	add	r3, sp
   29d62:	930a      	str	r3, [sp, #40]	@ 0x28
   29d64:	7099      	strb	r1, [r3, #2]
   29d66:	7841      	ldrb	r1, [r0, #1]
   29d68:	7882      	ldrb	r2, [r0, #2]
   29d6a:	0212      	lsls	r2, r2, #8
   29d6c:	1851      	adds	r1, r2, r1
   29d6e:	8019      	strh	r1, [r3, #0]
   29d70:	3008      	adds	r0, #8
   29d72:	9909      	ldr	r1, [sp, #36]	@ 0x24
   29d74:	6e09      	ldr	r1, [r1, #96]	@ 0x60
   29d76:	9108      	str	r1, [sp, #32]
   29d78:	4b14      	ldr	r3, [pc, #80]	@ (29dcc <_start+0x2d2c>)
   29d7a:	446b      	add	r3, sp
   29d7c:	930b      	str	r3, [sp, #44]	@ 0x2c
   29d7e:	c846      	ldmia	r0!, {r1, r2, r6}
   29d80:	c346      	stmia	r3!, {r1, r2, r6}
   29d82:	c866      	ldmia	r0!, {r1, r2, r5, r6}
   29d84:	c366      	stmia	r3!, {r1, r2, r5, r6}
   29d86:	c866      	ldmia	r0!, {r1, r2, r5, r6}
   29d88:	c366      	stmia	r3!, {r1, r2, r5, r6}
   29d8a:	c866      	ldmia	r0!, {r1, r2, r5, r6}
   29d8c:	c366      	stmia	r3!, {r1, r2, r5, r6}
   29d8e:	7800      	ldrb	r0, [r0, #0]
   29d90:	7018      	strb	r0, [r3, #0]
   29d92:	9908      	ldr	r1, [sp, #32]
   29d94:	0e08      	lsrs	r0, r1, #24
   29d96:	9d0a      	ldr	r5, [sp, #40]	@ 0x28
   29d98:	71a8      	strb	r0, [r5, #6]
   29d9a:	0c08      	lsrs	r0, r1, #16
   29d9c:	7168      	strb	r0, [r5, #5]
   29d9e:	0a08      	lsrs	r0, r1, #8
   29da0:	7128      	strb	r0, [r5, #4]
   29da2:	70e9      	strb	r1, [r5, #3]
   29da4:	1de8      	adds	r0, r5, #7
   29da6:	223d      	movs	r2, #61	@ 0x3d
   29da8:	990b      	ldr	r1, [sp, #44]	@ 0x2c
   29daa:	f000 fbe7 	bl	2a57c <__aeabi_memcpy>
   29dae:	4e05      	ldr	r6, [pc, #20]	@ (29dc4 <_start+0x2d24>)
   29db0:	446e      	add	r6, sp
   29db2:	4630      	mov	r0, r6
   29db4:	4629      	mov	r1, r5
   29db6:	f7f9 fe1b 	bl	239f0 <_ZN20complex_dynamic_type3app17h922207d988857a97E>
   29dba:	7830      	ldrb	r0, [r6, #0]
   29dbc:	2801      	cmp	r0, #1
   29dbe:	d107      	bne.n	29dd0 <_start+0x2d30>
   29dc0:	e1fc      	b.n	2a1bc <_start+0x311c>
   29dc2:	46c0      	nop			@ (mov r8, r8)
   29dc4:	00001404 	.word	0x00001404
   29dc8:	000011b4 	.word	0x000011b4
   29dcc:	000013a8 	.word	0x000013a8
   29dd0:	48fd      	ldr	r0, [pc, #1012]	@ (2a1c8 <_start+0x3128>)
   29dd2:	4468      	add	r0, sp
   29dd4:	78c1      	ldrb	r1, [r0, #3]
   29dd6:	4bfe      	ldr	r3, [pc, #1016]	@ (2a1d0 <_start+0x3130>)
   29dd8:	446b      	add	r3, sp
   29dda:	930a      	str	r3, [sp, #40]	@ 0x28
   29ddc:	7099      	strb	r1, [r3, #2]
   29dde:	7841      	ldrb	r1, [r0, #1]
   29de0:	7882      	ldrb	r2, [r0, #2]
   29de2:	0212      	lsls	r2, r2, #8
   29de4:	1851      	adds	r1, r2, r1
   29de6:	8019      	strh	r1, [r3, #0]
   29de8:	3008      	adds	r0, #8
   29dea:	9909      	ldr	r1, [sp, #36]	@ 0x24
   29dec:	6e09      	ldr	r1, [r1, #96]	@ 0x60
   29dee:	9108      	str	r1, [sp, #32]
   29df0:	4bf6      	ldr	r3, [pc, #984]	@ (2a1cc <_start+0x312c>)
   29df2:	446b      	add	r3, sp
   29df4:	930b      	str	r3, [sp, #44]	@ 0x2c
   29df6:	c846      	ldmia	r0!, {r1, r2, r6}
   29df8:	c346      	stmia	r3!, {r1, r2, r6}
   29dfa:	c866      	ldmia	r0!, {r1, r2, r5, r6}
   29dfc:	c366      	stmia	r3!, {r1, r2, r5, r6}
   29dfe:	9908      	ldr	r1, [sp, #32]
   29e00:	0e08      	lsrs	r0, r1, #24
   29e02:	9d0a      	ldr	r5, [sp, #40]	@ 0x28
   29e04:	71a8      	strb	r0, [r5, #6]
   29e06:	0c08      	lsrs	r0, r1, #16
   29e08:	7168      	strb	r0, [r5, #5]
   29e0a:	0a08      	lsrs	r0, r1, #8
   29e0c:	7128      	strb	r0, [r5, #4]
   29e0e:	70e9      	strb	r1, [r5, #3]
   29e10:	1de8      	adds	r0, r5, #7
   29e12:	221c      	movs	r2, #28
   29e14:	990b      	ldr	r1, [sp, #44]	@ 0x2c
   29e16:	f000 fbb1 	bl	2a57c <__aeabi_memcpy>
   29e1a:	4eeb      	ldr	r6, [pc, #940]	@ (2a1c8 <_start+0x3128>)
   29e1c:	446e      	add	r6, sp
   29e1e:	4630      	mov	r0, r6
   29e20:	4629      	mov	r1, r5
   29e22:	f7fb fda3 	bl	2596c <_ZN20complex_dynamic_type3app17hd8d7f8c947f9c5c1E>
   29e26:	7830      	ldrb	r0, [r6, #0]
   29e28:	2801      	cmp	r0, #1
   29e2a:	d100      	bne.n	29e2e <_start+0x2d8e>
   29e2c:	e1c6      	b.n	2a1bc <_start+0x311c>
   29e2e:	48e6      	ldr	r0, [pc, #920]	@ (2a1c8 <_start+0x3128>)
   29e30:	4468      	add	r0, sp
   29e32:	78c1      	ldrb	r1, [r0, #3]
   29e34:	4be7      	ldr	r3, [pc, #924]	@ (2a1d4 <_start+0x3134>)
   29e36:	446b      	add	r3, sp
   29e38:	930a      	str	r3, [sp, #40]	@ 0x28
   29e3a:	7099      	strb	r1, [r3, #2]
   29e3c:	7841      	ldrb	r1, [r0, #1]
   29e3e:	7882      	ldrb	r2, [r0, #2]
   29e40:	0212      	lsls	r2, r2, #8
   29e42:	1851      	adds	r1, r2, r1
   29e44:	8019      	strh	r1, [r3, #0]
   29e46:	3008      	adds	r0, #8
   29e48:	9909      	ldr	r1, [sp, #36]	@ 0x24
   29e4a:	6e09      	ldr	r1, [r1, #96]	@ 0x60
   29e4c:	9108      	str	r1, [sp, #32]
   29e4e:	4bdf      	ldr	r3, [pc, #892]	@ (2a1cc <_start+0x312c>)
   29e50:	446b      	add	r3, sp
   29e52:	930b      	str	r3, [sp, #44]	@ 0x2c
   29e54:	c846      	ldmia	r0!, {r1, r2, r6}
   29e56:	c346      	stmia	r3!, {r1, r2, r6}
   29e58:	c866      	ldmia	r0!, {r1, r2, r5, r6}
   29e5a:	c366      	stmia	r3!, {r1, r2, r5, r6}
   29e5c:	7800      	ldrb	r0, [r0, #0]
   29e5e:	7018      	strb	r0, [r3, #0]
   29e60:	9908      	ldr	r1, [sp, #32]
   29e62:	0e08      	lsrs	r0, r1, #24
   29e64:	9d0a      	ldr	r5, [sp, #40]	@ 0x28
   29e66:	71a8      	strb	r0, [r5, #6]
   29e68:	0c08      	lsrs	r0, r1, #16
   29e6a:	7168      	strb	r0, [r5, #5]
   29e6c:	0a08      	lsrs	r0, r1, #8
   29e6e:	7128      	strb	r0, [r5, #4]
   29e70:	70e9      	strb	r1, [r5, #3]
   29e72:	1de8      	adds	r0, r5, #7
   29e74:	221d      	movs	r2, #29
   29e76:	990b      	ldr	r1, [sp, #44]	@ 0x2c
   29e78:	f000 fb80 	bl	2a57c <__aeabi_memcpy>
   29e7c:	4ed2      	ldr	r6, [pc, #840]	@ (2a1c8 <_start+0x3128>)
   29e7e:	446e      	add	r6, sp
   29e80:	4630      	mov	r0, r6
   29e82:	4629      	mov	r1, r5
   29e84:	f7f8 f8e6 	bl	22054 <_ZN20complex_dynamic_type3app17h4c4e52a9af1b8fe4E>
   29e88:	7830      	ldrb	r0, [r6, #0]
   29e8a:	2801      	cmp	r0, #1
   29e8c:	d100      	bne.n	29e90 <_start+0x2df0>
   29e8e:	e195      	b.n	2a1bc <_start+0x311c>
   29e90:	48cd      	ldr	r0, [pc, #820]	@ (2a1c8 <_start+0x3128>)
   29e92:	4468      	add	r0, sp
   29e94:	78c1      	ldrb	r1, [r0, #3]
   29e96:	4bd0      	ldr	r3, [pc, #832]	@ (2a1d8 <_start+0x3138>)
   29e98:	446b      	add	r3, sp
   29e9a:	930a      	str	r3, [sp, #40]	@ 0x28
   29e9c:	7099      	strb	r1, [r3, #2]
   29e9e:	7841      	ldrb	r1, [r0, #1]
   29ea0:	7882      	ldrb	r2, [r0, #2]
   29ea2:	0212      	lsls	r2, r2, #8
   29ea4:	1851      	adds	r1, r2, r1
   29ea6:	8019      	strh	r1, [r3, #0]
   29ea8:	3008      	adds	r0, #8
   29eaa:	9909      	ldr	r1, [sp, #36]	@ 0x24
   29eac:	6e09      	ldr	r1, [r1, #96]	@ 0x60
   29eae:	9108      	str	r1, [sp, #32]
   29eb0:	4bc6      	ldr	r3, [pc, #792]	@ (2a1cc <_start+0x312c>)
   29eb2:	446b      	add	r3, sp
   29eb4:	930b      	str	r3, [sp, #44]	@ 0x2c
   29eb6:	c846      	ldmia	r0!, {r1, r2, r6}
   29eb8:	c346      	stmia	r3!, {r1, r2, r6}
   29eba:	c846      	ldmia	r0!, {r1, r2, r6}
   29ebc:	c346      	stmia	r3!, {r1, r2, r6}
   29ebe:	c866      	ldmia	r0!, {r1, r2, r5, r6}
   29ec0:	c366      	stmia	r3!, {r1, r2, r5, r6}
   29ec2:	9908      	ldr	r1, [sp, #32]
   29ec4:	0e08      	lsrs	r0, r1, #24
   29ec6:	9d0a      	ldr	r5, [sp, #40]	@ 0x28
   29ec8:	71a8      	strb	r0, [r5, #6]
   29eca:	0c08      	lsrs	r0, r1, #16
   29ecc:	7168      	strb	r0, [r5, #5]
   29ece:	0a08      	lsrs	r0, r1, #8
   29ed0:	7128      	strb	r0, [r5, #4]
   29ed2:	70e9      	strb	r1, [r5, #3]
   29ed4:	1de8      	adds	r0, r5, #7
   29ed6:	2228      	movs	r2, #40	@ 0x28
   29ed8:	990b      	ldr	r1, [sp, #44]	@ 0x2c
   29eda:	f000 fb4f 	bl	2a57c <__aeabi_memcpy>
   29ede:	4eba      	ldr	r6, [pc, #744]	@ (2a1c8 <_start+0x3128>)
   29ee0:	446e      	add	r6, sp
   29ee2:	4630      	mov	r0, r6
   29ee4:	4629      	mov	r1, r5
   29ee6:	f7f9 f96d 	bl	231c4 <_ZN20complex_dynamic_type3app17h84c79c79eac5efe6E>
   29eea:	7830      	ldrb	r0, [r6, #0]
   29eec:	2801      	cmp	r0, #1
   29eee:	d100      	bne.n	29ef2 <_start+0x2e52>
   29ef0:	e164      	b.n	2a1bc <_start+0x311c>
   29ef2:	49b5      	ldr	r1, [pc, #724]	@ (2a1c8 <_start+0x3128>)
   29ef4:	4469      	add	r1, sp
   29ef6:	78c8      	ldrb	r0, [r1, #3]
   29ef8:	4db8      	ldr	r5, [pc, #736]	@ (2a1dc <_start+0x313c>)
   29efa:	446d      	add	r5, sp
   29efc:	70a8      	strb	r0, [r5, #2]
   29efe:	7848      	ldrb	r0, [r1, #1]
   29f00:	788a      	ldrb	r2, [r1, #2]
   29f02:	0212      	lsls	r2, r2, #8
   29f04:	1810      	adds	r0, r2, r0
   29f06:	8028      	strh	r0, [r5, #0]
   29f08:	9809      	ldr	r0, [sp, #36]	@ 0x24
   29f0a:	6e06      	ldr	r6, [r0, #96]	@ 0x60
   29f0c:	3108      	adds	r1, #8
   29f0e:	48af      	ldr	r0, [pc, #700]	@ (2a1cc <_start+0x312c>)
   29f10:	4468      	add	r0, sp
   29f12:	900b      	str	r0, [sp, #44]	@ 0x2c
   29f14:	2257      	movs	r2, #87	@ 0x57
   29f16:	920a      	str	r2, [sp, #40]	@ 0x28
   29f18:	f000 f9d0 	bl	2a2bc <__aeabi_memcpy4>
   29f1c:	0e30      	lsrs	r0, r6, #24
   29f1e:	71a8      	strb	r0, [r5, #6]
   29f20:	0c30      	lsrs	r0, r6, #16
   29f22:	7168      	strb	r0, [r5, #5]
   29f24:	0a30      	lsrs	r0, r6, #8
   29f26:	7128      	strb	r0, [r5, #4]
   29f28:	70ee      	strb	r6, [r5, #3]
   29f2a:	1de8      	adds	r0, r5, #7
   29f2c:	990b      	ldr	r1, [sp, #44]	@ 0x2c
   29f2e:	9a0a      	ldr	r2, [sp, #40]	@ 0x28
   29f30:	f000 fb24 	bl	2a57c <__aeabi_memcpy>
   29f34:	4ea4      	ldr	r6, [pc, #656]	@ (2a1c8 <_start+0x3128>)
   29f36:	446e      	add	r6, sp
   29f38:	4630      	mov	r0, r6
   29f3a:	4629      	mov	r1, r5
   29f3c:	f7fa f846 	bl	23fcc <_ZN20complex_dynamic_type3app17h9e15cc2e31a9f57bE>
   29f40:	7830      	ldrb	r0, [r6, #0]
   29f42:	2801      	cmp	r0, #1
   29f44:	d100      	bne.n	29f48 <_start+0x2ea8>
   29f46:	e139      	b.n	2a1bc <_start+0x311c>
   29f48:	499f      	ldr	r1, [pc, #636]	@ (2a1c8 <_start+0x3128>)
   29f4a:	4469      	add	r1, sp
   29f4c:	78c8      	ldrb	r0, [r1, #3]
   29f4e:	4da4      	ldr	r5, [pc, #656]	@ (2a1e0 <_start+0x3140>)
   29f50:	446d      	add	r5, sp
   29f52:	70a8      	strb	r0, [r5, #2]
   29f54:	7848      	ldrb	r0, [r1, #1]
   29f56:	788a      	ldrb	r2, [r1, #2]
   29f58:	0212      	lsls	r2, r2, #8
   29f5a:	1810      	adds	r0, r2, r0
   29f5c:	8028      	strh	r0, [r5, #0]
   29f5e:	9809      	ldr	r0, [sp, #36]	@ 0x24
   29f60:	6e06      	ldr	r6, [r0, #96]	@ 0x60
   29f62:	3108      	adds	r1, #8
   29f64:	4899      	ldr	r0, [pc, #612]	@ (2a1cc <_start+0x312c>)
   29f66:	4468      	add	r0, sp
   29f68:	900b      	str	r0, [sp, #44]	@ 0x2c
   29f6a:	224e      	movs	r2, #78	@ 0x4e
   29f6c:	920a      	str	r2, [sp, #40]	@ 0x28
   29f6e:	f000 f9a5 	bl	2a2bc <__aeabi_memcpy4>
   29f72:	0e30      	lsrs	r0, r6, #24
   29f74:	71a8      	strb	r0, [r5, #6]
   29f76:	0c30      	lsrs	r0, r6, #16
   29f78:	7168      	strb	r0, [r5, #5]
   29f7a:	0a30      	lsrs	r0, r6, #8
   29f7c:	7128      	strb	r0, [r5, #4]
   29f7e:	70ee      	strb	r6, [r5, #3]
   29f80:	1de8      	adds	r0, r5, #7
   29f82:	990b      	ldr	r1, [sp, #44]	@ 0x2c
   29f84:	9a0a      	ldr	r2, [sp, #40]	@ 0x28
   29f86:	f000 faf9 	bl	2a57c <__aeabi_memcpy>
   29f8a:	4e8f      	ldr	r6, [pc, #572]	@ (2a1c8 <_start+0x3128>)
   29f8c:	446e      	add	r6, sp
   29f8e:	4630      	mov	r0, r6
   29f90:	4629      	mov	r1, r5
   29f92:	f7fb f849 	bl	25028 <_ZN20complex_dynamic_type3app17hc49dbc59ba969a3fE>
   29f96:	7830      	ldrb	r0, [r6, #0]
   29f98:	2801      	cmp	r0, #1
   29f9a:	d100      	bne.n	29f9e <_start+0x2efe>
   29f9c:	e10e      	b.n	2a1bc <_start+0x311c>
   29f9e:	488a      	ldr	r0, [pc, #552]	@ (2a1c8 <_start+0x3128>)
   29fa0:	4468      	add	r0, sp
   29fa2:	78c1      	ldrb	r1, [r0, #3]
   29fa4:	4d8f      	ldr	r5, [pc, #572]	@ (2a1e4 <_start+0x3144>)
   29fa6:	446d      	add	r5, sp
   29fa8:	70a9      	strb	r1, [r5, #2]
   29faa:	7841      	ldrb	r1, [r0, #1]
   29fac:	7882      	ldrb	r2, [r0, #2]
   29fae:	0212      	lsls	r2, r2, #8
   29fb0:	1851      	adds	r1, r2, r1
   29fb2:	8029      	strh	r1, [r5, #0]
   29fb4:	3008      	adds	r0, #8
   29fb6:	9909      	ldr	r1, [sp, #36]	@ 0x24
   29fb8:	6e09      	ldr	r1, [r1, #96]	@ 0x60
   29fba:	4b84      	ldr	r3, [pc, #528]	@ (2a1cc <_start+0x312c>)
   29fbc:	446b      	add	r3, sp
   29fbe:	930b      	str	r3, [sp, #44]	@ 0x2c
   29fc0:	c844      	ldmia	r0!, {r2, r6}
   29fc2:	c344      	stmia	r3!, {r2, r6}
   29fc4:	8800      	ldrh	r0, [r0, #0]
   29fc6:	8018      	strh	r0, [r3, #0]
   29fc8:	0e08      	lsrs	r0, r1, #24
   29fca:	71a8      	strb	r0, [r5, #6]
   29fcc:	0c08      	lsrs	r0, r1, #16
   29fce:	7168      	strb	r0, [r5, #5]
   29fd0:	0a08      	lsrs	r0, r1, #8
   29fd2:	7128      	strb	r0, [r5, #4]
   29fd4:	70e9      	strb	r1, [r5, #3]
   29fd6:	1de8      	adds	r0, r5, #7
   29fd8:	220a      	movs	r2, #10
   29fda:	990b      	ldr	r1, [sp, #44]	@ 0x2c
   29fdc:	f000 face 	bl	2a57c <__aeabi_memcpy>
   29fe0:	4e79      	ldr	r6, [pc, #484]	@ (2a1c8 <_start+0x3128>)
   29fe2:	446e      	add	r6, sp
   29fe4:	4630      	mov	r0, r6
   29fe6:	4629      	mov	r1, r5
   29fe8:	f7f9 fa0c 	bl	23404 <_ZN20complex_dynamic_type3app17h8a68867ca7d49226E>
   29fec:	7830      	ldrb	r0, [r6, #0]
   29fee:	2801      	cmp	r0, #1
   29ff0:	d100      	bne.n	29ff4 <_start+0x2f54>
   29ff2:	e0e3      	b.n	2a1bc <_start+0x311c>
   29ff4:	4974      	ldr	r1, [pc, #464]	@ (2a1c8 <_start+0x3128>)
   29ff6:	4469      	add	r1, sp
   29ff8:	78c8      	ldrb	r0, [r1, #3]
   29ffa:	4d7b      	ldr	r5, [pc, #492]	@ (2a1e8 <_start+0x3148>)
   29ffc:	446d      	add	r5, sp
   29ffe:	70a8      	strb	r0, [r5, #2]
   2a000:	7848      	ldrb	r0, [r1, #1]
   2a002:	788a      	ldrb	r2, [r1, #2]
   2a004:	0212      	lsls	r2, r2, #8
   2a006:	1810      	adds	r0, r2, r0
   2a008:	8028      	strh	r0, [r5, #0]
   2a00a:	9809      	ldr	r0, [sp, #36]	@ 0x24
   2a00c:	6e06      	ldr	r6, [r0, #96]	@ 0x60
   2a00e:	3108      	adds	r1, #8
   2a010:	486e      	ldr	r0, [pc, #440]	@ (2a1cc <_start+0x312c>)
   2a012:	4468      	add	r0, sp
   2a014:	900b      	str	r0, [sp, #44]	@ 0x2c
   2a016:	2249      	movs	r2, #73	@ 0x49
   2a018:	920a      	str	r2, [sp, #40]	@ 0x28
   2a01a:	f000 f94f 	bl	2a2bc <__aeabi_memcpy4>
   2a01e:	0e30      	lsrs	r0, r6, #24
   2a020:	71a8      	strb	r0, [r5, #6]
   2a022:	0c30      	lsrs	r0, r6, #16
   2a024:	7168      	strb	r0, [r5, #5]
   2a026:	0a30      	lsrs	r0, r6, #8
   2a028:	7128      	strb	r0, [r5, #4]
   2a02a:	70ee      	strb	r6, [r5, #3]
   2a02c:	1de8      	adds	r0, r5, #7
   2a02e:	990b      	ldr	r1, [sp, #44]	@ 0x2c
   2a030:	9a0a      	ldr	r2, [sp, #40]	@ 0x28
   2a032:	f000 faa3 	bl	2a57c <__aeabi_memcpy>
   2a036:	4e64      	ldr	r6, [pc, #400]	@ (2a1c8 <_start+0x3128>)
   2a038:	446e      	add	r6, sp
   2a03a:	4630      	mov	r0, r6
   2a03c:	4629      	mov	r1, r5
   2a03e:	f7fb feef 	bl	25e20 <_ZN20complex_dynamic_type3app17hdfee50177638a7caE>
   2a042:	7830      	ldrb	r0, [r6, #0]
   2a044:	2801      	cmp	r0, #1
   2a046:	d100      	bne.n	2a04a <_start+0x2faa>
   2a048:	e0b8      	b.n	2a1bc <_start+0x311c>
   2a04a:	485f      	ldr	r0, [pc, #380]	@ (2a1c8 <_start+0x3128>)
   2a04c:	4468      	add	r0, sp
   2a04e:	78c1      	ldrb	r1, [r0, #3]
   2a050:	4d66      	ldr	r5, [pc, #408]	@ (2a1ec <_start+0x314c>)
   2a052:	446d      	add	r5, sp
   2a054:	70a9      	strb	r1, [r5, #2]
   2a056:	7841      	ldrb	r1, [r0, #1]
   2a058:	7882      	ldrb	r2, [r0, #2]
   2a05a:	0212      	lsls	r2, r2, #8
   2a05c:	1851      	adds	r1, r2, r1
   2a05e:	8029      	strh	r1, [r5, #0]
   2a060:	3008      	adds	r0, #8
   2a062:	9909      	ldr	r1, [sp, #36]	@ 0x24
   2a064:	6e09      	ldr	r1, [r1, #96]	@ 0x60
   2a066:	910a      	str	r1, [sp, #40]	@ 0x28
   2a068:	4b58      	ldr	r3, [pc, #352]	@ (2a1cc <_start+0x312c>)
   2a06a:	446b      	add	r3, sp
   2a06c:	930b      	str	r3, [sp, #44]	@ 0x2c
   2a06e:	c844      	ldmia	r0!, {r2, r6}
   2a070:	c344      	stmia	r3!, {r2, r6}
   2a072:	c846      	ldmia	r0!, {r1, r2, r6}
   2a074:	c346      	stmia	r3!, {r1, r2, r6}
   2a076:	990a      	ldr	r1, [sp, #40]	@ 0x28
   2a078:	0e08      	lsrs	r0, r1, #24
   2a07a:	71a8      	strb	r0, [r5, #6]
   2a07c:	0c08      	lsrs	r0, r1, #16
   2a07e:	7168      	strb	r0, [r5, #5]
   2a080:	0a08      	lsrs	r0, r1, #8
   2a082:	7128      	strb	r0, [r5, #4]
   2a084:	70e9      	strb	r1, [r5, #3]
   2a086:	1de8      	adds	r0, r5, #7
   2a088:	2214      	movs	r2, #20
   2a08a:	990b      	ldr	r1, [sp, #44]	@ 0x2c
   2a08c:	f000 fa76 	bl	2a57c <__aeabi_memcpy>
   2a090:	4e4d      	ldr	r6, [pc, #308]	@ (2a1c8 <_start+0x3128>)
   2a092:	446e      	add	r6, sp
   2a094:	4630      	mov	r0, r6
   2a096:	4629      	mov	r1, r5
   2a098:	f7f8 fa30 	bl	224fc <_ZN20complex_dynamic_type3app17h59f8bc91d92f73e0E>
   2a09c:	7830      	ldrb	r0, [r6, #0]
   2a09e:	2801      	cmp	r0, #1
   2a0a0:	d100      	bne.n	2a0a4 <_start+0x3004>
   2a0a2:	e08b      	b.n	2a1bc <_start+0x311c>
   2a0a4:	4948      	ldr	r1, [pc, #288]	@ (2a1c8 <_start+0x3128>)
   2a0a6:	4469      	add	r1, sp
   2a0a8:	78c8      	ldrb	r0, [r1, #3]
   2a0aa:	4d51      	ldr	r5, [pc, #324]	@ (2a1f0 <_start+0x3150>)
   2a0ac:	446d      	add	r5, sp
   2a0ae:	70a8      	strb	r0, [r5, #2]
   2a0b0:	7848      	ldrb	r0, [r1, #1]
   2a0b2:	788a      	ldrb	r2, [r1, #2]
   2a0b4:	0212      	lsls	r2, r2, #8
   2a0b6:	1810      	adds	r0, r2, r0
   2a0b8:	8028      	strh	r0, [r5, #0]
   2a0ba:	9809      	ldr	r0, [sp, #36]	@ 0x24
   2a0bc:	6e06      	ldr	r6, [r0, #96]	@ 0x60
   2a0be:	3108      	adds	r1, #8
   2a0c0:	4842      	ldr	r0, [pc, #264]	@ (2a1cc <_start+0x312c>)
   2a0c2:	4468      	add	r0, sp
   2a0c4:	900b      	str	r0, [sp, #44]	@ 0x2c
   2a0c6:	225c      	movs	r2, #92	@ 0x5c
   2a0c8:	920a      	str	r2, [sp, #40]	@ 0x28
   2a0ca:	f000 f8f7 	bl	2a2bc <__aeabi_memcpy4>
   2a0ce:	0e30      	lsrs	r0, r6, #24
   2a0d0:	71a8      	strb	r0, [r5, #6]
   2a0d2:	0c30      	lsrs	r0, r6, #16
   2a0d4:	7168      	strb	r0, [r5, #5]
   2a0d6:	0a30      	lsrs	r0, r6, #8
   2a0d8:	7128      	strb	r0, [r5, #4]
   2a0da:	70ee      	strb	r6, [r5, #3]
   2a0dc:	1de8      	adds	r0, r5, #7
   2a0de:	990b      	ldr	r1, [sp, #44]	@ 0x2c
   2a0e0:	9a0a      	ldr	r2, [sp, #40]	@ 0x28
   2a0e2:	f000 fa4b 	bl	2a57c <__aeabi_memcpy>
   2a0e6:	4e38      	ldr	r6, [pc, #224]	@ (2a1c8 <_start+0x3128>)
   2a0e8:	446e      	add	r6, sp
   2a0ea:	4630      	mov	r0, r6
   2a0ec:	4629      	mov	r1, r5
   2a0ee:	f7f7 f941 	bl	21374 <_ZN20complex_dynamic_type3app17h2b277d75c4cf29cbE>
   2a0f2:	7830      	ldrb	r0, [r6, #0]
   2a0f4:	2801      	cmp	r0, #1
   2a0f6:	d061      	beq.n	2a1bc <_start+0x311c>
   2a0f8:	4833      	ldr	r0, [pc, #204]	@ (2a1c8 <_start+0x3128>)
   2a0fa:	4468      	add	r0, sp
   2a0fc:	78c1      	ldrb	r1, [r0, #3]
   2a0fe:	4d3d      	ldr	r5, [pc, #244]	@ (2a1f4 <_start+0x3154>)
   2a100:	446d      	add	r5, sp
   2a102:	70a9      	strb	r1, [r5, #2]
   2a104:	7841      	ldrb	r1, [r0, #1]
   2a106:	7882      	ldrb	r2, [r0, #2]
   2a108:	0212      	lsls	r2, r2, #8
   2a10a:	1851      	adds	r1, r2, r1
   2a10c:	8029      	strh	r1, [r5, #0]
   2a10e:	3008      	adds	r0, #8
   2a110:	9909      	ldr	r1, [sp, #36]	@ 0x24
   2a112:	6e09      	ldr	r1, [r1, #96]	@ 0x60
   2a114:	910a      	str	r1, [sp, #40]	@ 0x28
   2a116:	4b2d      	ldr	r3, [pc, #180]	@ (2a1cc <_start+0x312c>)
   2a118:	446b      	add	r3, sp
   2a11a:	930b      	str	r3, [sp, #44]	@ 0x2c
   2a11c:	c846      	ldmia	r0!, {r1, r2, r6}
   2a11e:	c346      	stmia	r3!, {r1, r2, r6}
   2a120:	c846      	ldmia	r0!, {r1, r2, r6}
   2a122:	c346      	stmia	r3!, {r1, r2, r6}
   2a124:	c846      	ldmia	r0!, {r1, r2, r6}
   2a126:	c346      	stmia	r3!, {r1, r2, r6}
   2a128:	7800      	ldrb	r0, [r0, #0]
   2a12a:	7018      	strb	r0, [r3, #0]
   2a12c:	990a      	ldr	r1, [sp, #40]	@ 0x28
   2a12e:	0e08      	lsrs	r0, r1, #24
   2a130:	71a8      	strb	r0, [r5, #6]
   2a132:	0c08      	lsrs	r0, r1, #16
   2a134:	7168      	strb	r0, [r5, #5]
   2a136:	0a08      	lsrs	r0, r1, #8
   2a138:	7128      	strb	r0, [r5, #4]
   2a13a:	70e9      	strb	r1, [r5, #3]
   2a13c:	1de8      	adds	r0, r5, #7
   2a13e:	2225      	movs	r2, #37	@ 0x25
   2a140:	990b      	ldr	r1, [sp, #44]	@ 0x2c
   2a142:	f000 fa1b 	bl	2a57c <__aeabi_memcpy>
   2a146:	4e20      	ldr	r6, [pc, #128]	@ (2a1c8 <_start+0x3128>)
   2a148:	446e      	add	r6, sp
   2a14a:	4630      	mov	r0, r6
   2a14c:	4629      	mov	r1, r5
   2a14e:	f7f9 fbb5 	bl	238bc <_ZN20complex_dynamic_type3app17h919f9f785e57699cE>
   2a152:	7830      	ldrb	r0, [r6, #0]
   2a154:	2801      	cmp	r0, #1
   2a156:	d031      	beq.n	2a1bc <_start+0x311c>
   2a158:	481b      	ldr	r0, [pc, #108]	@ (2a1c8 <_start+0x3128>)
   2a15a:	4468      	add	r0, sp
   2a15c:	78c1      	ldrb	r1, [r0, #3]
   2a15e:	4b26      	ldr	r3, [pc, #152]	@ (2a1f8 <_start+0x3158>)
   2a160:	446b      	add	r3, sp
   2a162:	930a      	str	r3, [sp, #40]	@ 0x28
   2a164:	7099      	strb	r1, [r3, #2]
   2a166:	7841      	ldrb	r1, [r0, #1]
   2a168:	7882      	ldrb	r2, [r0, #2]
   2a16a:	0212      	lsls	r2, r2, #8
   2a16c:	1851      	adds	r1, r2, r1
   2a16e:	8019      	strh	r1, [r3, #0]
   2a170:	3008      	adds	r0, #8
   2a172:	9909      	ldr	r1, [sp, #36]	@ 0x24
   2a174:	6e09      	ldr	r1, [r1, #96]	@ 0x60
   2a176:	9108      	str	r1, [sp, #32]
   2a178:	4b14      	ldr	r3, [pc, #80]	@ (2a1cc <_start+0x312c>)
   2a17a:	446b      	add	r3, sp
   2a17c:	930b      	str	r3, [sp, #44]	@ 0x2c
   2a17e:	c866      	ldmia	r0!, {r1, r2, r5, r6}
   2a180:	c366      	stmia	r3!, {r1, r2, r5, r6}
   2a182:	c866      	ldmia	r0!, {r1, r2, r5, r6}
   2a184:	c366      	stmia	r3!, {r1, r2, r5, r6}
   2a186:	8801      	ldrh	r1, [r0, #0]
   2a188:	8019      	strh	r1, [r3, #0]
   2a18a:	7880      	ldrb	r0, [r0, #2]
   2a18c:	7098      	strb	r0, [r3, #2]
   2a18e:	9908      	ldr	r1, [sp, #32]
   2a190:	0e08      	lsrs	r0, r1, #24
   2a192:	9d0a      	ldr	r5, [sp, #40]	@ 0x28
   2a194:	71a8      	strb	r0, [r5, #6]
   2a196:	0c08      	lsrs	r0, r1, #16
   2a198:	7168      	strb	r0, [r5, #5]
   2a19a:	0a08      	lsrs	r0, r1, #8
   2a19c:	7128      	strb	r0, [r5, #4]
   2a19e:	70e9      	strb	r1, [r5, #3]
   2a1a0:	1de8      	adds	r0, r5, #7
   2a1a2:	2223      	movs	r2, #35	@ 0x23
   2a1a4:	990b      	ldr	r1, [sp, #44]	@ 0x2c
   2a1a6:	f000 f9e9 	bl	2a57c <__aeabi_memcpy>
   2a1aa:	4e07      	ldr	r6, [pc, #28]	@ (2a1c8 <_start+0x3128>)
   2a1ac:	446e      	add	r6, sp
   2a1ae:	4630      	mov	r0, r6
   2a1b0:	4629      	mov	r1, r5
   2a1b2:	f7f6 ff1f 	bl	20ff4 <_ZN20complex_dynamic_type3app17h274e3a8dcfe6e346E>
   2a1b6:	7830      	ldrb	r0, [r6, #0]
   2a1b8:	2801      	cmp	r0, #1
   2a1ba:	d103      	bne.n	2a1c4 <_start+0x3124>
   2a1bc:	9809      	ldr	r0, [sp, #36]	@ 0x24
   2a1be:	6e05      	ldr	r5, [r0, #96]	@ 0x60
   2a1c0:	f7fc ffcc 	bl	2715c <_start+0xbc>
   2a1c4:	f7fc ffcb 	bl	2715e <_start+0xbe>
   2a1c8:	00001404 	.word	0x00001404
   2a1cc:	000013a8 	.word	0x000013a8
   2a1d0:	000011f8 	.word	0x000011f8
   2a1d4:	0000121c 	.word	0x0000121c
   2a1d8:	00001240 	.word	0x00001240
   2a1dc:	00001270 	.word	0x00001270
   2a1e0:	000012d0 	.word	0x000012d0
   2a1e4:	00001328 	.word	0x00001328
   2a1e8:	0000133c 	.word	0x0000133c
   2a1ec:	0000138c 	.word	0x0000138c
   2a1f0:	00001468 	.word	0x00001468
   2a1f4:	000014cc 	.word	0x000014cc
   2a1f8:	000014f8 	.word	0x000014f8

0002a1fc <__aeabi_memclr>:
   2a1fc:	b5f0      	push	{r4, r5, r6, r7, lr}
   2a1fe:	af03      	add	r7, sp, #12
   2a200:	2910      	cmp	r1, #16
   2a202:	d332      	bcc.n	2a26a <__aeabi_memclr+0x6e>
   2a204:	4244      	negs	r4, r0
   2a206:	2203      	movs	r2, #3
   2a208:	4014      	ands	r4, r2
   2a20a:	1903      	adds	r3, r0, r4
   2a20c:	4298      	cmp	r0, r3
   2a20e:	d218      	bcs.n	2a242 <__aeabi_memclr+0x46>
   2a210:	1e65      	subs	r5, r4, #1
   2a212:	2c00      	cmp	r4, #0
   2a214:	d00b      	beq.n	2a22e <__aeabi_memclr+0x32>
   2a216:	2600      	movs	r6, #0
   2a218:	7006      	strb	r6, [r0, #0]
   2a21a:	2c01      	cmp	r4, #1
   2a21c:	d103      	bne.n	2a226 <__aeabi_memclr+0x2a>
   2a21e:	1c40      	adds	r0, r0, #1
   2a220:	2d03      	cmp	r5, #3
   2a222:	d206      	bcs.n	2a232 <__aeabi_memclr+0x36>
   2a224:	e00d      	b.n	2a242 <__aeabi_memclr+0x46>
   2a226:	7046      	strb	r6, [r0, #1]
   2a228:	2c02      	cmp	r4, #2
   2a22a:	d142      	bne.n	2a2b2 <__aeabi_memclr+0xb6>
   2a22c:	1c80      	adds	r0, r0, #2
   2a22e:	2d03      	cmp	r5, #3
   2a230:	d307      	bcc.n	2a242 <__aeabi_memclr+0x46>
   2a232:	2500      	movs	r5, #0
   2a234:	70c5      	strb	r5, [r0, #3]
   2a236:	7085      	strb	r5, [r0, #2]
   2a238:	7045      	strb	r5, [r0, #1]
   2a23a:	7005      	strb	r5, [r0, #0]
   2a23c:	1d00      	adds	r0, r0, #4
   2a23e:	4298      	cmp	r0, r3
   2a240:	d1f7      	bne.n	2a232 <__aeabi_memclr+0x36>
   2a242:	1b09      	subs	r1, r1, r4
   2a244:	4608      	mov	r0, r1
   2a246:	4390      	bics	r0, r2
   2a248:	1818      	adds	r0, r3, r0
   2a24a:	4283      	cmp	r3, r0
   2a24c:	d20c      	bcs.n	2a268 <__aeabi_memclr+0x6c>
   2a24e:	2400      	movs	r4, #0
   2a250:	c310      	stmia	r3!, {r4}
   2a252:	4283      	cmp	r3, r0
   2a254:	d208      	bcs.n	2a268 <__aeabi_memclr+0x6c>
   2a256:	c310      	stmia	r3!, {r4}
   2a258:	4283      	cmp	r3, r0
   2a25a:	d205      	bcs.n	2a268 <__aeabi_memclr+0x6c>
   2a25c:	c310      	stmia	r3!, {r4}
   2a25e:	4283      	cmp	r3, r0
   2a260:	d202      	bcs.n	2a268 <__aeabi_memclr+0x6c>
   2a262:	c310      	stmia	r3!, {r4}
   2a264:	4283      	cmp	r3, r0
   2a266:	d3f2      	bcc.n	2a24e <__aeabi_memclr+0x52>
   2a268:	4011      	ands	r1, r2
   2a26a:	1842      	adds	r2, r0, r1
   2a26c:	4290      	cmp	r0, r2
   2a26e:	d21a      	bcs.n	2a2a6 <__aeabi_memclr+0xaa>
   2a270:	2303      	movs	r3, #3
   2a272:	400b      	ands	r3, r1
   2a274:	1e49      	subs	r1, r1, #1
   2a276:	2b00      	cmp	r3, #0
   2a278:	d00b      	beq.n	2a292 <__aeabi_memclr+0x96>
   2a27a:	2400      	movs	r4, #0
   2a27c:	7004      	strb	r4, [r0, #0]
   2a27e:	2b01      	cmp	r3, #1
   2a280:	d103      	bne.n	2a28a <__aeabi_memclr+0x8e>
   2a282:	1c40      	adds	r0, r0, #1
   2a284:	2903      	cmp	r1, #3
   2a286:	d206      	bcs.n	2a296 <__aeabi_memclr+0x9a>
   2a288:	e00d      	b.n	2a2a6 <__aeabi_memclr+0xaa>
   2a28a:	7044      	strb	r4, [r0, #1]
   2a28c:	2b02      	cmp	r3, #2
   2a28e:	d10b      	bne.n	2a2a8 <__aeabi_memclr+0xac>
   2a290:	1c80      	adds	r0, r0, #2
   2a292:	2903      	cmp	r1, #3
   2a294:	d307      	bcc.n	2a2a6 <__aeabi_memclr+0xaa>
   2a296:	2100      	movs	r1, #0
   2a298:	70c1      	strb	r1, [r0, #3]
   2a29a:	7081      	strb	r1, [r0, #2]
   2a29c:	7041      	strb	r1, [r0, #1]
   2a29e:	7001      	strb	r1, [r0, #0]
   2a2a0:	1d00      	adds	r0, r0, #4
   2a2a2:	4290      	cmp	r0, r2
   2a2a4:	d1f7      	bne.n	2a296 <__aeabi_memclr+0x9a>
   2a2a6:	bdf0      	pop	{r4, r5, r6, r7, pc}
   2a2a8:	7084      	strb	r4, [r0, #2]
   2a2aa:	1cc0      	adds	r0, r0, #3
   2a2ac:	2903      	cmp	r1, #3
   2a2ae:	d2f2      	bcs.n	2a296 <__aeabi_memclr+0x9a>
   2a2b0:	e7f9      	b.n	2a2a6 <__aeabi_memclr+0xaa>
   2a2b2:	7086      	strb	r6, [r0, #2]
   2a2b4:	1cc0      	adds	r0, r0, #3
   2a2b6:	2d03      	cmp	r5, #3
   2a2b8:	d2bb      	bcs.n	2a232 <__aeabi_memclr+0x36>
   2a2ba:	e7c2      	b.n	2a242 <__aeabi_memclr+0x46>

0002a2bc <__aeabi_memcpy4>:
   2a2bc:	b5f0      	push	{r4, r5, r6, r7, lr}
   2a2be:	af03      	add	r7, sp, #12
   2a2c0:	b081      	sub	sp, #4
   2a2c2:	2a04      	cmp	r2, #4
   2a2c4:	d32d      	bcc.n	2a322 <__aeabi_memcpy4+0x66>
   2a2c6:	1f13      	subs	r3, r2, #4
   2a2c8:	250c      	movs	r5, #12
   2a2ca:	401d      	ands	r5, r3
   2a2cc:	2d0c      	cmp	r5, #12
   2a2ce:	d019      	beq.n	2a304 <__aeabi_memcpy4+0x48>
   2a2d0:	9200      	str	r2, [sp, #0]
   2a2d2:	460e      	mov	r6, r1
   2a2d4:	c904      	ldmia	r1!, {r2}
   2a2d6:	4604      	mov	r4, r0
   2a2d8:	c004      	stmia	r0!, {r2}
   2a2da:	071a      	lsls	r2, r3, #28
   2a2dc:	0f92      	lsrs	r2, r2, #30
   2a2de:	461a      	mov	r2, r3
   2a2e0:	d010      	beq.n	2a304 <__aeabi_memcpy4+0x48>
   2a2e2:	4631      	mov	r1, r6
   2a2e4:	6872      	ldr	r2, [r6, #4]
   2a2e6:	6062      	str	r2, [r4, #4]
   2a2e8:	2d04      	cmp	r5, #4
   2a2ea:	d104      	bne.n	2a2f6 <__aeabi_memcpy4+0x3a>
   2a2ec:	9a00      	ldr	r2, [sp, #0]
   2a2ee:	3a08      	subs	r2, #8
   2a2f0:	3108      	adds	r1, #8
   2a2f2:	3408      	adds	r4, #8
   2a2f4:	e005      	b.n	2a302 <__aeabi_memcpy4+0x46>
   2a2f6:	688a      	ldr	r2, [r1, #8]
   2a2f8:	60a2      	str	r2, [r4, #8]
   2a2fa:	9a00      	ldr	r2, [sp, #0]
   2a2fc:	3a0c      	subs	r2, #12
   2a2fe:	310c      	adds	r1, #12
   2a300:	340c      	adds	r4, #12
   2a302:	4620      	mov	r0, r4
   2a304:	2b0c      	cmp	r3, #12
   2a306:	d30c      	bcc.n	2a322 <__aeabi_memcpy4+0x66>
   2a308:	680b      	ldr	r3, [r1, #0]
   2a30a:	6003      	str	r3, [r0, #0]
   2a30c:	684b      	ldr	r3, [r1, #4]
   2a30e:	6043      	str	r3, [r0, #4]
   2a310:	688b      	ldr	r3, [r1, #8]
   2a312:	6083      	str	r3, [r0, #8]
   2a314:	68cb      	ldr	r3, [r1, #12]
   2a316:	60c3      	str	r3, [r0, #12]
   2a318:	3110      	adds	r1, #16
   2a31a:	3010      	adds	r0, #16
   2a31c:	3a10      	subs	r2, #16
   2a31e:	2a03      	cmp	r2, #3
   2a320:	d8f2      	bhi.n	2a308 <__aeabi_memcpy4+0x4c>
   2a322:	f000 f802 	bl	2a32a <_ZN17compiler_builtins3mem6memcpy17h1f9dbb1c3fd18e2fE>
   2a326:	b001      	add	sp, #4
   2a328:	bdf0      	pop	{r4, r5, r6, r7, pc}

0002a32a <_ZN17compiler_builtins3mem6memcpy17h1f9dbb1c3fd18e2fE>:
   2a32a:	b5f0      	push	{r4, r5, r6, r7, lr}
   2a32c:	af03      	add	r7, sp, #12
   2a32e:	b08f      	sub	sp, #60	@ 0x3c
   2a330:	2a10      	cmp	r2, #16
   2a332:	d315      	bcc.n	2a360 <_ZN17compiler_builtins3mem6memcpy17h1f9dbb1c3fd18e2fE+0x36>
   2a334:	920b      	str	r2, [sp, #44]	@ 0x2c
   2a336:	4242      	negs	r2, r0
   2a338:	2303      	movs	r3, #3
   2a33a:	9308      	str	r3, [sp, #32]
   2a33c:	401a      	ands	r2, r3
   2a33e:	1885      	adds	r5, r0, r2
   2a340:	900a      	str	r0, [sp, #40]	@ 0x28
   2a342:	42a8      	cmp	r0, r5
   2a344:	d22a      	bcs.n	2a39c <_ZN17compiler_builtins3mem6memcpy17h1f9dbb1c3fd18e2fE+0x72>
   2a346:	1e54      	subs	r4, r2, #1
   2a348:	2a00      	cmp	r2, #0
   2a34a:	980a      	ldr	r0, [sp, #40]	@ 0x28
   2a34c:	4606      	mov	r6, r0
   2a34e:	460b      	mov	r3, r1
   2a350:	d016      	beq.n	2a380 <_ZN17compiler_builtins3mem6memcpy17h1f9dbb1c3fd18e2fE+0x56>
   2a352:	780b      	ldrb	r3, [r1, #0]
   2a354:	7003      	strb	r3, [r0, #0]
   2a356:	2a01      	cmp	r2, #1
   2a358:	d107      	bne.n	2a36a <_ZN17compiler_builtins3mem6memcpy17h1f9dbb1c3fd18e2fE+0x40>
   2a35a:	1c4b      	adds	r3, r1, #1
   2a35c:	1c46      	adds	r6, r0, #1
   2a35e:	e00f      	b.n	2a380 <_ZN17compiler_builtins3mem6memcpy17h1f9dbb1c3fd18e2fE+0x56>
   2a360:	4603      	mov	r3, r0
   2a362:	189c      	adds	r4, r3, r2
   2a364:	42a3      	cmp	r3, r4
   2a366:	d341      	bcc.n	2a3ec <_ZN17compiler_builtins3mem6memcpy17h1f9dbb1c3fd18e2fE+0xc2>
   2a368:	e062      	b.n	2a430 <_ZN17compiler_builtins3mem6memcpy17h1f9dbb1c3fd18e2fE+0x106>
   2a36a:	784b      	ldrb	r3, [r1, #1]
   2a36c:	7043      	strb	r3, [r0, #1]
   2a36e:	2a02      	cmp	r2, #2
   2a370:	d102      	bne.n	2a378 <_ZN17compiler_builtins3mem6memcpy17h1f9dbb1c3fd18e2fE+0x4e>
   2a372:	1c8b      	adds	r3, r1, #2
   2a374:	1c86      	adds	r6, r0, #2
   2a376:	e003      	b.n	2a380 <_ZN17compiler_builtins3mem6memcpy17h1f9dbb1c3fd18e2fE+0x56>
   2a378:	788b      	ldrb	r3, [r1, #2]
   2a37a:	7083      	strb	r3, [r0, #2]
   2a37c:	1ccb      	adds	r3, r1, #3
   2a37e:	1cc6      	adds	r6, r0, #3
   2a380:	2c03      	cmp	r4, #3
   2a382:	d30b      	bcc.n	2a39c <_ZN17compiler_builtins3mem6memcpy17h1f9dbb1c3fd18e2fE+0x72>
   2a384:	781c      	ldrb	r4, [r3, #0]
   2a386:	7034      	strb	r4, [r6, #0]
   2a388:	785c      	ldrb	r4, [r3, #1]
   2a38a:	7074      	strb	r4, [r6, #1]
   2a38c:	789c      	ldrb	r4, [r3, #2]
   2a38e:	70b4      	strb	r4, [r6, #2]
   2a390:	78dc      	ldrb	r4, [r3, #3]
   2a392:	70f4      	strb	r4, [r6, #3]
   2a394:	1d1b      	adds	r3, r3, #4
   2a396:	1d36      	adds	r6, r6, #4
   2a398:	42ae      	cmp	r6, r5
   2a39a:	d1f3      	bne.n	2a384 <_ZN17compiler_builtins3mem6memcpy17h1f9dbb1c3fd18e2fE+0x5a>
   2a39c:	980b      	ldr	r0, [sp, #44]	@ 0x2c
   2a39e:	1a80      	subs	r0, r0, r2
   2a3a0:	900b      	str	r0, [sp, #44]	@ 0x2c
   2a3a2:	9c08      	ldr	r4, [sp, #32]
   2a3a4:	43a0      	bics	r0, r4
   2a3a6:	182b      	adds	r3, r5, r0
   2a3a8:	188e      	adds	r6, r1, r2
   2a3aa:	9609      	str	r6, [sp, #36]	@ 0x24
   2a3ac:	4026      	ands	r6, r4
   2a3ae:	9007      	str	r0, [sp, #28]
   2a3b0:	d147      	bne.n	2a442 <_ZN17compiler_builtins3mem6memcpy17h1f9dbb1c3fd18e2fE+0x118>
   2a3b2:	429d      	cmp	r5, r3
   2a3b4:	9a0b      	ldr	r2, [sp, #44]	@ 0x2c
   2a3b6:	9e09      	ldr	r6, [sp, #36]	@ 0x24
   2a3b8:	d211      	bcs.n	2a3de <_ZN17compiler_builtins3mem6memcpy17h1f9dbb1c3fd18e2fE+0xb4>
   2a3ba:	4631      	mov	r1, r6
   2a3bc:	6808      	ldr	r0, [r1, #0]
   2a3be:	c501      	stmia	r5!, {r0}
   2a3c0:	429d      	cmp	r5, r3
   2a3c2:	d20c      	bcs.n	2a3de <_ZN17compiler_builtins3mem6memcpy17h1f9dbb1c3fd18e2fE+0xb4>
   2a3c4:	6848      	ldr	r0, [r1, #4]
   2a3c6:	c501      	stmia	r5!, {r0}
   2a3c8:	429d      	cmp	r5, r3
   2a3ca:	d208      	bcs.n	2a3de <_ZN17compiler_builtins3mem6memcpy17h1f9dbb1c3fd18e2fE+0xb4>
   2a3cc:	6888      	ldr	r0, [r1, #8]
   2a3ce:	c501      	stmia	r5!, {r0}
   2a3d0:	429d      	cmp	r5, r3
   2a3d2:	d204      	bcs.n	2a3de <_ZN17compiler_builtins3mem6memcpy17h1f9dbb1c3fd18e2fE+0xb4>
   2a3d4:	68c8      	ldr	r0, [r1, #12]
   2a3d6:	c501      	stmia	r5!, {r0}
   2a3d8:	3110      	adds	r1, #16
   2a3da:	429d      	cmp	r5, r3
   2a3dc:	d3ee      	bcc.n	2a3bc <_ZN17compiler_builtins3mem6memcpy17h1f9dbb1c3fd18e2fE+0x92>
   2a3de:	4022      	ands	r2, r4
   2a3e0:	9807      	ldr	r0, [sp, #28]
   2a3e2:	1831      	adds	r1, r6, r0
   2a3e4:	980a      	ldr	r0, [sp, #40]	@ 0x28
   2a3e6:	189c      	adds	r4, r3, r2
   2a3e8:	42a3      	cmp	r3, r4
   2a3ea:	d221      	bcs.n	2a430 <_ZN17compiler_builtins3mem6memcpy17h1f9dbb1c3fd18e2fE+0x106>
   2a3ec:	2503      	movs	r5, #3
   2a3ee:	4015      	ands	r5, r2
   2a3f0:	1e52      	subs	r2, r2, #1
   2a3f2:	2d00      	cmp	r5, #0
   2a3f4:	d00e      	beq.n	2a414 <_ZN17compiler_builtins3mem6memcpy17h1f9dbb1c3fd18e2fE+0xea>
   2a3f6:	780e      	ldrb	r6, [r1, #0]
   2a3f8:	701e      	strb	r6, [r3, #0]
   2a3fa:	2d01      	cmp	r5, #1
   2a3fc:	d104      	bne.n	2a408 <_ZN17compiler_builtins3mem6memcpy17h1f9dbb1c3fd18e2fE+0xde>
   2a3fe:	1c49      	adds	r1, r1, #1
   2a400:	1c5b      	adds	r3, r3, #1
   2a402:	2a03      	cmp	r2, #3
   2a404:	d208      	bcs.n	2a418 <_ZN17compiler_builtins3mem6memcpy17h1f9dbb1c3fd18e2fE+0xee>
   2a406:	e013      	b.n	2a430 <_ZN17compiler_builtins3mem6memcpy17h1f9dbb1c3fd18e2fE+0x106>
   2a408:	784e      	ldrb	r6, [r1, #1]
   2a40a:	705e      	strb	r6, [r3, #1]
   2a40c:	2d02      	cmp	r5, #2
   2a40e:	d111      	bne.n	2a434 <_ZN17compiler_builtins3mem6memcpy17h1f9dbb1c3fd18e2fE+0x10a>
   2a410:	1c89      	adds	r1, r1, #2
   2a412:	1c9b      	adds	r3, r3, #2
   2a414:	2a03      	cmp	r2, #3
   2a416:	d30b      	bcc.n	2a430 <_ZN17compiler_builtins3mem6memcpy17h1f9dbb1c3fd18e2fE+0x106>
   2a418:	780a      	ldrb	r2, [r1, #0]
   2a41a:	701a      	strb	r2, [r3, #0]
   2a41c:	784a      	ldrb	r2, [r1, #1]
   2a41e:	705a      	strb	r2, [r3, #1]
   2a420:	788a      	ldrb	r2, [r1, #2]
   2a422:	709a      	strb	r2, [r3, #2]
   2a424:	78ca      	ldrb	r2, [r1, #3]
   2a426:	70da      	strb	r2, [r3, #3]
   2a428:	1d09      	adds	r1, r1, #4
   2a42a:	1d1b      	adds	r3, r3, #4
   2a42c:	42a3      	cmp	r3, r4
   2a42e:	d1f3      	bne.n	2a418 <_ZN17compiler_builtins3mem6memcpy17h1f9dbb1c3fd18e2fE+0xee>
   2a430:	b00f      	add	sp, #60	@ 0x3c
   2a432:	bdf0      	pop	{r4, r5, r6, r7, pc}
   2a434:	788d      	ldrb	r5, [r1, #2]
   2a436:	709d      	strb	r5, [r3, #2]
   2a438:	1cc9      	adds	r1, r1, #3
   2a43a:	1cdb      	adds	r3, r3, #3
   2a43c:	2a03      	cmp	r2, #3
   2a43e:	d2eb      	bcs.n	2a418 <_ZN17compiler_builtins3mem6memcpy17h1f9dbb1c3fd18e2fE+0xee>
   2a440:	e7f6      	b.n	2a430 <_ZN17compiler_builtins3mem6memcpy17h1f9dbb1c3fd18e2fE+0x106>
   2a442:	2400      	movs	r4, #0
   2a444:	9406      	str	r4, [sp, #24]
   2a446:	940e      	str	r4, [sp, #56]	@ 0x38
   2a448:	ac0e      	add	r4, sp, #56	@ 0x38
   2a44a:	19a4      	adds	r4, r4, r6
   2a44c:	9405      	str	r4, [sp, #20]
   2a44e:	2404      	movs	r4, #4
   2a450:	1ba4      	subs	r4, r4, r6
   2a452:	9404      	str	r4, [sp, #16]
   2a454:	07e4      	lsls	r4, r4, #31
   2a456:	9600      	str	r6, [sp, #0]
   2a458:	d006      	beq.n	2a468 <_ZN17compiler_builtins3mem6memcpy17h1f9dbb1c3fd18e2fE+0x13e>
   2a45a:	9c09      	ldr	r4, [sp, #36]	@ 0x24
   2a45c:	7824      	ldrb	r4, [r4, #0]
   2a45e:	9e05      	ldr	r6, [sp, #20]
   2a460:	7034      	strb	r4, [r6, #0]
   2a462:	9e00      	ldr	r6, [sp, #0]
   2a464:	2401      	movs	r4, #1
   2a466:	9406      	str	r4, [sp, #24]
   2a468:	9c04      	ldr	r4, [sp, #16]
   2a46a:	07a4      	lsls	r4, r4, #30
   2a46c:	d508      	bpl.n	2a480 <_ZN17compiler_builtins3mem6memcpy17h1f9dbb1c3fd18e2fE+0x156>
   2a46e:	9c09      	ldr	r4, [sp, #36]	@ 0x24
   2a470:	9204      	str	r2, [sp, #16]
   2a472:	9a06      	ldr	r2, [sp, #24]
   2a474:	5aa4      	ldrh	r4, [r4, r2]
   2a476:	9e05      	ldr	r6, [sp, #20]
   2a478:	9a06      	ldr	r2, [sp, #24]
   2a47a:	52b4      	strh	r4, [r6, r2]
   2a47c:	9a04      	ldr	r2, [sp, #16]
   2a47e:	9e00      	ldr	r6, [sp, #0]
   2a480:	00f4      	lsls	r4, r6, #3
   2a482:	9403      	str	r4, [sp, #12]
   2a484:	9c0e      	ldr	r4, [sp, #56]	@ 0x38
   2a486:	9406      	str	r4, [sp, #24]
   2a488:	1d2c      	adds	r4, r5, #4
   2a48a:	429c      	cmp	r4, r3
   2a48c:	d236      	bcs.n	2a4fc <_ZN17compiler_builtins3mem6memcpy17h1f9dbb1c3fd18e2fE+0x1d2>
   2a48e:	4274      	negs	r4, r6
   2a490:	1909      	adds	r1, r1, r4
   2a492:	9105      	str	r1, [sp, #20]
   2a494:	9d03      	ldr	r5, [sp, #12]
   2a496:	4269      	negs	r1, r5
   2a498:	2418      	movs	r4, #24
   2a49a:	400c      	ands	r4, r1
   2a49c:	9402      	str	r4, [sp, #8]
   2a49e:	990a      	ldr	r1, [sp, #40]	@ 0x28
   2a4a0:	9104      	str	r1, [sp, #16]
   2a4a2:	4629      	mov	r1, r5
   2a4a4:	9c06      	ldr	r4, [sp, #24]
   2a4a6:	40cc      	lsrs	r4, r1
   2a4a8:	9406      	str	r4, [sp, #24]
   2a4aa:	9905      	ldr	r1, [sp, #20]
   2a4ac:	1889      	adds	r1, r1, r2
   2a4ae:	9101      	str	r1, [sp, #4]
   2a4b0:	6849      	ldr	r1, [r1, #4]
   2a4b2:	460c      	mov	r4, r1
   2a4b4:	9d02      	ldr	r5, [sp, #8]
   2a4b6:	40ac      	lsls	r4, r5
   2a4b8:	9d06      	ldr	r5, [sp, #24]
   2a4ba:	432c      	orrs	r4, r5
   2a4bc:	9d04      	ldr	r5, [sp, #16]
   2a4be:	50ac      	str	r4, [r5, r2]
   2a4c0:	18ad      	adds	r5, r5, r2
   2a4c2:	462c      	mov	r4, r5
   2a4c4:	3408      	adds	r4, #8
   2a4c6:	429c      	cmp	r4, r3
   2a4c8:	d21c      	bcs.n	2a504 <_ZN17compiler_builtins3mem6memcpy17h1f9dbb1c3fd18e2fE+0x1da>
   2a4ca:	9c03      	ldr	r4, [sp, #12]
   2a4cc:	40e1      	lsrs	r1, r4
   2a4ce:	9c01      	ldr	r4, [sp, #4]
   2a4d0:	68a4      	ldr	r4, [r4, #8]
   2a4d2:	9406      	str	r4, [sp, #24]
   2a4d4:	9501      	str	r5, [sp, #4]
   2a4d6:	9d02      	ldr	r5, [sp, #8]
   2a4d8:	40ac      	lsls	r4, r5
   2a4da:	430c      	orrs	r4, r1
   2a4dc:	9901      	ldr	r1, [sp, #4]
   2a4de:	604c      	str	r4, [r1, #4]
   2a4e0:	9904      	ldr	r1, [sp, #16]
   2a4e2:	3108      	adds	r1, #8
   2a4e4:	9104      	str	r1, [sp, #16]
   2a4e6:	188d      	adds	r5, r1, r2
   2a4e8:	1d29      	adds	r1, r5, #4
   2a4ea:	9c05      	ldr	r4, [sp, #20]
   2a4ec:	3408      	adds	r4, #8
   2a4ee:	9405      	str	r4, [sp, #20]
   2a4f0:	4299      	cmp	r1, r3
   2a4f2:	9903      	ldr	r1, [sp, #12]
   2a4f4:	d3d6      	bcc.n	2a4a4 <_ZN17compiler_builtins3mem6memcpy17h1f9dbb1c3fd18e2fE+0x17a>
   2a4f6:	9805      	ldr	r0, [sp, #20]
   2a4f8:	1880      	adds	r0, r0, r2
   2a4fa:	e001      	b.n	2a500 <_ZN17compiler_builtins3mem6memcpy17h1f9dbb1c3fd18e2fE+0x1d6>
   2a4fc:	9809      	ldr	r0, [sp, #36]	@ 0x24
   2a4fe:	1b80      	subs	r0, r0, r6
   2a500:	9005      	str	r0, [sp, #20]
   2a502:	e004      	b.n	2a50e <_ZN17compiler_builtins3mem6memcpy17h1f9dbb1c3fd18e2fE+0x1e4>
   2a504:	9801      	ldr	r0, [sp, #4]
   2a506:	1d00      	adds	r0, r0, #4
   2a508:	9005      	str	r0, [sp, #20]
   2a50a:	1d2d      	adds	r5, r5, #4
   2a50c:	9106      	str	r1, [sp, #24]
   2a50e:	a80d      	add	r0, sp, #52	@ 0x34
   2a510:	2100      	movs	r1, #0
   2a512:	9004      	str	r0, [sp, #16]
   2a514:	7001      	strb	r1, [r0, #0]
   2a516:	a80c      	add	r0, sp, #48	@ 0x30
   2a518:	7001      	strb	r1, [r0, #0]
   2a51a:	2e01      	cmp	r6, #1
   2a51c:	460e      	mov	r6, r1
   2a51e:	460c      	mov	r4, r1
   2a520:	9102      	str	r1, [sp, #8]
   2a522:	9a0b      	ldr	r2, [sp, #44]	@ 0x2c
   2a524:	d009      	beq.n	2a53a <_ZN17compiler_builtins3mem6memcpy17h1f9dbb1c3fd18e2fE+0x210>
   2a526:	9c05      	ldr	r4, [sp, #20]
   2a528:	7960      	ldrb	r0, [r4, #5]
   2a52a:	7926      	ldrb	r6, [r4, #4]
   2a52c:	ac0d      	add	r4, sp, #52	@ 0x34
   2a52e:	7026      	strb	r6, [r4, #0]
   2a530:	0204      	lsls	r4, r0, #8
   2a532:	2002      	movs	r0, #2
   2a534:	9002      	str	r0, [sp, #8]
   2a536:	a80c      	add	r0, sp, #48	@ 0x30
   2a538:	9004      	str	r0, [sp, #16]
   2a53a:	9809      	ldr	r0, [sp, #36]	@ 0x24
   2a53c:	07c0      	lsls	r0, r0, #31
   2a53e:	d00a      	beq.n	2a556 <_ZN17compiler_builtins3mem6memcpy17h1f9dbb1c3fd18e2fE+0x22c>
   2a540:	9805      	ldr	r0, [sp, #20]
   2a542:	1d00      	adds	r0, r0, #4
   2a544:	9902      	ldr	r1, [sp, #8]
   2a546:	5c40      	ldrb	r0, [r0, r1]
   2a548:	9904      	ldr	r1, [sp, #16]
   2a54a:	7008      	strb	r0, [r1, #0]
   2a54c:	a80d      	add	r0, sp, #52	@ 0x34
   2a54e:	7806      	ldrb	r6, [r0, #0]
   2a550:	a80c      	add	r0, sp, #48	@ 0x30
   2a552:	7800      	ldrb	r0, [r0, #0]
   2a554:	0401      	lsls	r1, r0, #16
   2a556:	9605      	str	r6, [sp, #20]
   2a558:	9803      	ldr	r0, [sp, #12]
   2a55a:	4240      	negs	r0, r0
   2a55c:	9004      	str	r0, [sp, #16]
   2a55e:	2618      	movs	r6, #24
   2a560:	9804      	ldr	r0, [sp, #16]
   2a562:	4006      	ands	r6, r0
   2a564:	430c      	orrs	r4, r1
   2a566:	9905      	ldr	r1, [sp, #20]
   2a568:	430c      	orrs	r4, r1
   2a56a:	40b4      	lsls	r4, r6
   2a56c:	9906      	ldr	r1, [sp, #24]
   2a56e:	9803      	ldr	r0, [sp, #12]
   2a570:	40c1      	lsrs	r1, r0
   2a572:	4321      	orrs	r1, r4
   2a574:	6029      	str	r1, [r5, #0]
   2a576:	9c08      	ldr	r4, [sp, #32]
   2a578:	9e09      	ldr	r6, [sp, #36]	@ 0x24
   2a57a:	e730      	b.n	2a3de <_ZN17compiler_builtins3mem6memcpy17h1f9dbb1c3fd18e2fE+0xb4>

0002a57c <__aeabi_memcpy>:
   2a57c:	b580      	push	{r7, lr}
   2a57e:	af00      	add	r7, sp, #0
   2a580:	f7ff fed3 	bl	2a32a <_ZN17compiler_builtins3mem6memcpy17h1f9dbb1c3fd18e2fE>
   2a584:	bd80      	pop	{r7, pc}
