
target/thumbv6m-none-eabi/opt-s/examples/complex_no_dynamic:     file format elf32-littlearm

Sections:
Idx Name          Size      VMA       LMA       File off  Algn
  0 .ARM.exidx    00000010  000100d4  000100d4  000000d4  2**2
                  CONTENTS, ALLOC, LOAD, READONLY, DATA
  1 .text         00006de4  000200e4  000200e4  000000e4  2**2
                  CONTENTS, ALLOC, LOAD, READONLY, CODE
  2 .comment      00000099  00000000  00000000  00006ec8  2**0
                  CONTENTS, READONLY
  3 .ARM.attributes 00000032  00000000  00000000  00006f61  2**0
                  CONTENTS, READONLY

Disassembly of section .text:

000200e4 <_ZN18complex_no_dynamic3app17h0068f9a61f681730E>:
   200e4:	b5f0      	push	{r4, r5, r6, r7, lr}
   200e6:	af03      	add	r7, sp, #12
   200e8:	b091      	sub	sp, #68	@ 0x44
   200ea:	4604      	mov	r4, r0
   200ec:	ad01      	add	r5, sp, #4
   200ee:	2614      	movs	r6, #20
   200f0:	4628      	mov	r0, r5
   200f2:	4632      	mov	r2, r6
   200f4:	f006 fee3 	bl	26ebe <__aeabi_memcpy>
   200f8:	a806      	add	r0, sp, #24
   200fa:	212b      	movs	r1, #43	@ 0x2b
   200fc:	f006 fd32 	bl	26b64 <__aeabi_memclr4>
   20100:	4821      	ldr	r0, [pc, #132]	@ (20188 <_ZN18complex_no_dynamic3app17h0068f9a61f681730E+0xa4>)
   20102:	2108      	movs	r1, #8
   20104:	462a      	mov	r2, r5
   20106:	4633      	mov	r3, r6
   20108:	df04      	svc	4
   2010a:	2802      	cmp	r0, #2
   2010c:	d00e      	beq.n	2012c <_ZN18complex_no_dynamic3app17h0068f9a61f681730E+0x48>
   2010e:	481e      	ldr	r0, [pc, #120]	@ (20188 <_ZN18complex_no_dynamic3app17h0068f9a61f681730E+0xa4>)
   20110:	2104      	movs	r1, #4
   20112:	aa06      	add	r2, sp, #24
   20114:	232b      	movs	r3, #43	@ 0x2b
   20116:	df03      	svc	3
   20118:	2802      	cmp	r0, #2
   2011a:	d007      	beq.n	2012c <_ZN18complex_no_dynamic3app17h0068f9a61f681730E+0x48>
   2011c:	481a      	ldr	r0, [pc, #104]	@ (20188 <_ZN18complex_no_dynamic3app17h0068f9a61f681730E+0xa4>)
   2011e:	2108      	movs	r1, #8
   20120:	2204      	movs	r2, #4
   20122:	2500      	movs	r5, #0
   20124:	462b      	mov	r3, r5
   20126:	df02      	svc	2
   20128:	287f      	cmp	r0, #127	@ 0x7f
   2012a:	d810      	bhi.n	2014e <_ZN18complex_no_dynamic3app17h0068f9a61f681730E+0x6a>
   2012c:	2001      	movs	r0, #1
   2012e:	7020      	strb	r0, [r4, #0]
   20130:	6061      	str	r1, [r4, #4]
   20132:	4c15      	ldr	r4, [pc, #84]	@ (20188 <_ZN18complex_no_dynamic3app17h0068f9a61f681730E+0xa4>)
   20134:	2104      	movs	r1, #4
   20136:	2500      	movs	r5, #0
   20138:	4620      	mov	r0, r4
   2013a:	462a      	mov	r2, r5
   2013c:	462b      	mov	r3, r5
   2013e:	df03      	svc	3
   20140:	2108      	movs	r1, #8
   20142:	4620      	mov	r0, r4
   20144:	462a      	mov	r2, r5
   20146:	462b      	mov	r3, r5
   20148:	df04      	svc	4
   2014a:	b011      	add	sp, #68	@ 0x44
   2014c:	bdf0      	pop	{r4, r5, r6, r7, pc}
   2014e:	480e      	ldr	r0, [pc, #56]	@ (20188 <_ZN18complex_no_dynamic3app17h0068f9a61f681730E+0xa4>)
   20150:	2604      	movs	r6, #4
   20152:	4631      	mov	r1, r6
   20154:	462a      	mov	r2, r5
   20156:	462b      	mov	r3, r5
   20158:	df03      	svc	3
   2015a:	480b      	ldr	r0, [pc, #44]	@ (20188 <_ZN18complex_no_dynamic3app17h0068f9a61f681730E+0xa4>)
   2015c:	4631      	mov	r1, r6
   2015e:	462a      	mov	r2, r5
   20160:	462b      	mov	r3, r5
   20162:	df03      	svc	3
   20164:	1c60      	adds	r0, r4, #1
   20166:	a906      	add	r1, sp, #24
   20168:	222b      	movs	r2, #43	@ 0x2b
   2016a:	f006 fea8 	bl	26ebe <__aeabi_memcpy>
   2016e:	7025      	strb	r5, [r4, #0]
   20170:	4c05      	ldr	r4, [pc, #20]	@ (20188 <_ZN18complex_no_dynamic3app17h0068f9a61f681730E+0xa4>)
   20172:	4620      	mov	r0, r4
   20174:	4631      	mov	r1, r6
   20176:	462a      	mov	r2, r5
   20178:	462b      	mov	r3, r5
   2017a:	df03      	svc	3
   2017c:	2108      	movs	r1, #8
   2017e:	4620      	mov	r0, r4
   20180:	462a      	mov	r2, r5
   20182:	462b      	mov	r3, r5
   20184:	df04      	svc	4
   20186:	e7e0      	b.n	2014a <_ZN18complex_no_dynamic3app17h0068f9a61f681730E+0x66>
   20188:	0000239f 	.word	0x0000239f

0002018c <_ZN18complex_no_dynamic3app17h012bdc3a9a27f297E>:
   2018c:	b5f0      	push	{r4, r5, r6, r7, lr}
   2018e:	af03      	add	r7, sp, #12
   20190:	b093      	sub	sp, #76	@ 0x4c
   20192:	4604      	mov	r4, r0
   20194:	466d      	mov	r5, sp
   20196:	262b      	movs	r6, #43	@ 0x2b
   20198:	4628      	mov	r0, r5
   2019a:	4632      	mov	r2, r6
   2019c:	f006 fe8f 	bl	26ebe <__aeabi_memcpy>
   201a0:	a80b      	add	r0, sp, #44	@ 0x2c
   201a2:	211e      	movs	r1, #30
   201a4:	f006 fcde 	bl	26b64 <__aeabi_memclr4>
   201a8:	4821      	ldr	r0, [pc, #132]	@ (20230 <_ZN18complex_no_dynamic3app17h012bdc3a9a27f297E+0xa4>)
   201aa:	2107      	movs	r1, #7
   201ac:	462a      	mov	r2, r5
   201ae:	4633      	mov	r3, r6
   201b0:	df04      	svc	4
   201b2:	2802      	cmp	r0, #2
   201b4:	d00e      	beq.n	201d4 <_ZN18complex_no_dynamic3app17h012bdc3a9a27f297E+0x48>
   201b6:	481e      	ldr	r0, [pc, #120]	@ (20230 <_ZN18complex_no_dynamic3app17h012bdc3a9a27f297E+0xa4>)
   201b8:	2108      	movs	r1, #8
   201ba:	aa0b      	add	r2, sp, #44	@ 0x2c
   201bc:	231e      	movs	r3, #30
   201be:	df03      	svc	3
   201c0:	2802      	cmp	r0, #2
   201c2:	d007      	beq.n	201d4 <_ZN18complex_no_dynamic3app17h012bdc3a9a27f297E+0x48>
   201c4:	481a      	ldr	r0, [pc, #104]	@ (20230 <_ZN18complex_no_dynamic3app17h012bdc3a9a27f297E+0xa4>)
   201c6:	2107      	movs	r1, #7
   201c8:	2208      	movs	r2, #8
   201ca:	2500      	movs	r5, #0
   201cc:	462b      	mov	r3, r5
   201ce:	df02      	svc	2
   201d0:	287f      	cmp	r0, #127	@ 0x7f
   201d2:	d810      	bhi.n	201f6 <_ZN18complex_no_dynamic3app17h012bdc3a9a27f297E+0x6a>
   201d4:	2001      	movs	r0, #1
   201d6:	7020      	strb	r0, [r4, #0]
   201d8:	6061      	str	r1, [r4, #4]
   201da:	4c15      	ldr	r4, [pc, #84]	@ (20230 <_ZN18complex_no_dynamic3app17h012bdc3a9a27f297E+0xa4>)
   201dc:	2108      	movs	r1, #8
   201de:	2500      	movs	r5, #0
   201e0:	4620      	mov	r0, r4
   201e2:	462a      	mov	r2, r5
   201e4:	462b      	mov	r3, r5
   201e6:	df03      	svc	3
   201e8:	2107      	movs	r1, #7
   201ea:	4620      	mov	r0, r4
   201ec:	462a      	mov	r2, r5
   201ee:	462b      	mov	r3, r5
   201f0:	df04      	svc	4
   201f2:	b013      	add	sp, #76	@ 0x4c
   201f4:	bdf0      	pop	{r4, r5, r6, r7, pc}
   201f6:	480e      	ldr	r0, [pc, #56]	@ (20230 <_ZN18complex_no_dynamic3app17h012bdc3a9a27f297E+0xa4>)
   201f8:	2608      	movs	r6, #8
   201fa:	4631      	mov	r1, r6
   201fc:	462a      	mov	r2, r5
   201fe:	462b      	mov	r3, r5
   20200:	df03      	svc	3
   20202:	480b      	ldr	r0, [pc, #44]	@ (20230 <_ZN18complex_no_dynamic3app17h012bdc3a9a27f297E+0xa4>)
   20204:	4631      	mov	r1, r6
   20206:	462a      	mov	r2, r5
   20208:	462b      	mov	r3, r5
   2020a:	df03      	svc	3
   2020c:	1c60      	adds	r0, r4, #1
   2020e:	a90b      	add	r1, sp, #44	@ 0x2c
   20210:	221e      	movs	r2, #30
   20212:	f006 fe54 	bl	26ebe <__aeabi_memcpy>
   20216:	7025      	strb	r5, [r4, #0]
   20218:	4c05      	ldr	r4, [pc, #20]	@ (20230 <_ZN18complex_no_dynamic3app17h012bdc3a9a27f297E+0xa4>)
   2021a:	4620      	mov	r0, r4
   2021c:	4631      	mov	r1, r6
   2021e:	462a      	mov	r2, r5
   20220:	462b      	mov	r3, r5
   20222:	df03      	svc	3
   20224:	2107      	movs	r1, #7
   20226:	4620      	mov	r0, r4
   20228:	462a      	mov	r2, r5
   2022a:	462b      	mov	r3, r5
   2022c:	df04      	svc	4
   2022e:	e7e0      	b.n	201f2 <_ZN18complex_no_dynamic3app17h012bdc3a9a27f297E+0x66>
   20230:	000007e3 	.word	0x000007e3

00020234 <_ZN18complex_no_dynamic3app17h046dfbc33fc398d5E>:
   20234:	b5f0      	push	{r4, r5, r6, r7, lr}
   20236:	af03      	add	r7, sp, #12
   20238:	b0a1      	sub	sp, #132	@ 0x84
   2023a:	4604      	mov	r4, r0
   2023c:	466d      	mov	r5, sp
   2023e:	262d      	movs	r6, #45	@ 0x2d
   20240:	4628      	mov	r0, r5
   20242:	4632      	mov	r2, r6
   20244:	f006 fe3b 	bl	26ebe <__aeabi_memcpy>
   20248:	a80c      	add	r0, sp, #48	@ 0x30
   2024a:	2153      	movs	r1, #83	@ 0x53
   2024c:	f006 fc8a 	bl	26b64 <__aeabi_memclr4>
   20250:	4821      	ldr	r0, [pc, #132]	@ (202d8 <_ZN18complex_no_dynamic3app17h046dfbc33fc398d5E+0xa4>)
   20252:	2102      	movs	r1, #2
   20254:	462a      	mov	r2, r5
   20256:	4633      	mov	r3, r6
   20258:	df04      	svc	4
   2025a:	2802      	cmp	r0, #2
   2025c:	d00e      	beq.n	2027c <_ZN18complex_no_dynamic3app17h046dfbc33fc398d5E+0x48>
   2025e:	481e      	ldr	r0, [pc, #120]	@ (202d8 <_ZN18complex_no_dynamic3app17h046dfbc33fc398d5E+0xa4>)
   20260:	2107      	movs	r1, #7
   20262:	aa0c      	add	r2, sp, #48	@ 0x30
   20264:	2353      	movs	r3, #83	@ 0x53
   20266:	df03      	svc	3
   20268:	2802      	cmp	r0, #2
   2026a:	d007      	beq.n	2027c <_ZN18complex_no_dynamic3app17h046dfbc33fc398d5E+0x48>
   2026c:	481a      	ldr	r0, [pc, #104]	@ (202d8 <_ZN18complex_no_dynamic3app17h046dfbc33fc398d5E+0xa4>)
   2026e:	2102      	movs	r1, #2
   20270:	2207      	movs	r2, #7
   20272:	2500      	movs	r5, #0
   20274:	462b      	mov	r3, r5
   20276:	df02      	svc	2
   20278:	287f      	cmp	r0, #127	@ 0x7f
   2027a:	d810      	bhi.n	2029e <_ZN18complex_no_dynamic3app17h046dfbc33fc398d5E+0x6a>
   2027c:	2001      	movs	r0, #1
   2027e:	7020      	strb	r0, [r4, #0]
   20280:	6061      	str	r1, [r4, #4]
   20282:	4c15      	ldr	r4, [pc, #84]	@ (202d8 <_ZN18complex_no_dynamic3app17h046dfbc33fc398d5E+0xa4>)
   20284:	2107      	movs	r1, #7
   20286:	2500      	movs	r5, #0
   20288:	4620      	mov	r0, r4
   2028a:	462a      	mov	r2, r5
   2028c:	462b      	mov	r3, r5
   2028e:	df03      	svc	3
   20290:	2102      	movs	r1, #2
   20292:	4620      	mov	r0, r4
   20294:	462a      	mov	r2, r5
   20296:	462b      	mov	r3, r5
   20298:	df04      	svc	4
   2029a:	b021      	add	sp, #132	@ 0x84
   2029c:	bdf0      	pop	{r4, r5, r6, r7, pc}
   2029e:	480e      	ldr	r0, [pc, #56]	@ (202d8 <_ZN18complex_no_dynamic3app17h046dfbc33fc398d5E+0xa4>)
   202a0:	2607      	movs	r6, #7
   202a2:	4631      	mov	r1, r6
   202a4:	462a      	mov	r2, r5
   202a6:	462b      	mov	r3, r5
   202a8:	df03      	svc	3
   202aa:	480b      	ldr	r0, [pc, #44]	@ (202d8 <_ZN18complex_no_dynamic3app17h046dfbc33fc398d5E+0xa4>)
   202ac:	4631      	mov	r1, r6
   202ae:	462a      	mov	r2, r5
   202b0:	462b      	mov	r3, r5
   202b2:	df03      	svc	3
   202b4:	1c60      	adds	r0, r4, #1
   202b6:	a90c      	add	r1, sp, #48	@ 0x30
   202b8:	2253      	movs	r2, #83	@ 0x53
   202ba:	f006 fe00 	bl	26ebe <__aeabi_memcpy>
   202be:	7025      	strb	r5, [r4, #0]
   202c0:	4c05      	ldr	r4, [pc, #20]	@ (202d8 <_ZN18complex_no_dynamic3app17h046dfbc33fc398d5E+0xa4>)
   202c2:	4620      	mov	r0, r4
   202c4:	4631      	mov	r1, r6
   202c6:	462a      	mov	r2, r5
   202c8:	462b      	mov	r3, r5
   202ca:	df03      	svc	3
   202cc:	2102      	movs	r1, #2
   202ce:	4620      	mov	r0, r4
   202d0:	462a      	mov	r2, r5
   202d2:	462b      	mov	r3, r5
   202d4:	df04      	svc	4
   202d6:	e7e0      	b.n	2029a <_ZN18complex_no_dynamic3app17h046dfbc33fc398d5E+0x66>
   202d8:	00000ec3 	.word	0x00000ec3

000202dc <_ZN18complex_no_dynamic3app17h0aab77c2117b2104E>:
   202dc:	b5f0      	push	{r4, r5, r6, r7, lr}
   202de:	af03      	add	r7, sp, #12
   202e0:	b093      	sub	sp, #76	@ 0x4c
   202e2:	9002      	str	r0, [sp, #8]
   202e4:	ae03      	add	r6, sp, #12
   202e6:	2425      	movs	r4, #37	@ 0x25
   202e8:	4630      	mov	r0, r6
   202ea:	4622      	mov	r2, r4
   202ec:	f006 fde7 	bl	26ebe <__aeabi_memcpy>
   202f0:	a80d      	add	r0, sp, #52	@ 0x34
   202f2:	2118      	movs	r1, #24
   202f4:	f006 fc36 	bl	26b64 <__aeabi_memclr4>
   202f8:	20a7      	movs	r0, #167	@ 0xa7
   202fa:	0105      	lsls	r5, r0, #4
   202fc:	2109      	movs	r1, #9
   202fe:	4628      	mov	r0, r5
   20300:	4632      	mov	r2, r6
   20302:	4623      	mov	r3, r4
   20304:	df04      	svc	4
   20306:	2802      	cmp	r0, #2
   20308:	d00e      	beq.n	20328 <_ZN18complex_no_dynamic3app17h0aab77c2117b2104E+0x4c>
   2030a:	2108      	movs	r1, #8
   2030c:	aa0d      	add	r2, sp, #52	@ 0x34
   2030e:	2318      	movs	r3, #24
   20310:	4628      	mov	r0, r5
   20312:	df03      	svc	3
   20314:	2802      	cmp	r0, #2
   20316:	d007      	beq.n	20328 <_ZN18complex_no_dynamic3app17h0aab77c2117b2104E+0x4c>
   20318:	2109      	movs	r1, #9
   2031a:	2208      	movs	r2, #8
   2031c:	2600      	movs	r6, #0
   2031e:	4628      	mov	r0, r5
   20320:	4633      	mov	r3, r6
   20322:	df02      	svc	2
   20324:	287f      	cmp	r0, #127	@ 0x7f
   20326:	d810      	bhi.n	2034a <_ZN18complex_no_dynamic3app17h0aab77c2117b2104E+0x6e>
   20328:	2001      	movs	r0, #1
   2032a:	9a02      	ldr	r2, [sp, #8]
   2032c:	7010      	strb	r0, [r2, #0]
   2032e:	6051      	str	r1, [r2, #4]
   20330:	2108      	movs	r1, #8
   20332:	2400      	movs	r4, #0
   20334:	4628      	mov	r0, r5
   20336:	4622      	mov	r2, r4
   20338:	4623      	mov	r3, r4
   2033a:	df03      	svc	3
   2033c:	2109      	movs	r1, #9
   2033e:	4628      	mov	r0, r5
   20340:	4622      	mov	r2, r4
   20342:	4623      	mov	r3, r4
   20344:	df04      	svc	4
   20346:	b013      	add	sp, #76	@ 0x4c
   20348:	bdf0      	pop	{r4, r5, r6, r7, pc}
   2034a:	2408      	movs	r4, #8
   2034c:	9401      	str	r4, [sp, #4]
   2034e:	4628      	mov	r0, r5
   20350:	4621      	mov	r1, r4
   20352:	4632      	mov	r2, r6
   20354:	4633      	mov	r3, r6
   20356:	df03      	svc	3
   20358:	4628      	mov	r0, r5
   2035a:	4621      	mov	r1, r4
   2035c:	4632      	mov	r2, r6
   2035e:	4633      	mov	r3, r6
   20360:	df03      	svc	3
   20362:	9c02      	ldr	r4, [sp, #8]
   20364:	1c60      	adds	r0, r4, #1
   20366:	a90d      	add	r1, sp, #52	@ 0x34
   20368:	2218      	movs	r2, #24
   2036a:	f006 fda8 	bl	26ebe <__aeabi_memcpy>
   2036e:	7026      	strb	r6, [r4, #0]
   20370:	4628      	mov	r0, r5
   20372:	9901      	ldr	r1, [sp, #4]
   20374:	4632      	mov	r2, r6
   20376:	4633      	mov	r3, r6
   20378:	df03      	svc	3
   2037a:	2109      	movs	r1, #9
   2037c:	4628      	mov	r0, r5
   2037e:	4632      	mov	r2, r6
   20380:	4633      	mov	r3, r6
   20382:	df04      	svc	4
   20384:	e7df      	b.n	20346 <_ZN18complex_no_dynamic3app17h0aab77c2117b2104E+0x6a>
   20386:	d4d4      	bmi.n	20332 <_ZN18complex_no_dynamic3app17h0aab77c2117b2104E+0x56>

00020388 <_ZN18complex_no_dynamic3app17h0c4114d264b988dbE>:
   20388:	b5f0      	push	{r4, r5, r6, r7, lr}
   2038a:	af03      	add	r7, sp, #12
   2038c:	b095      	sub	sp, #84	@ 0x54
   2038e:	4604      	mov	r4, r0
   20390:	ad01      	add	r5, sp, #4
   20392:	2634      	movs	r6, #52	@ 0x34
   20394:	4628      	mov	r0, r5
   20396:	4632      	mov	r2, r6
   20398:	f006 fd91 	bl	26ebe <__aeabi_memcpy>
   2039c:	a80e      	add	r0, sp, #56	@ 0x38
   2039e:	211a      	movs	r1, #26
   203a0:	f006 fbe0 	bl	26b64 <__aeabi_memclr4>
   203a4:	4821      	ldr	r0, [pc, #132]	@ (2042c <_ZN18complex_no_dynamic3app17h0c4114d264b988dbE+0xa4>)
   203a6:	2100      	movs	r1, #0
   203a8:	462a      	mov	r2, r5
   203aa:	4633      	mov	r3, r6
   203ac:	df04      	svc	4
   203ae:	2802      	cmp	r0, #2
   203b0:	d00e      	beq.n	203d0 <_ZN18complex_no_dynamic3app17h0c4114d264b988dbE+0x48>
   203b2:	481e      	ldr	r0, [pc, #120]	@ (2042c <_ZN18complex_no_dynamic3app17h0c4114d264b988dbE+0xa4>)
   203b4:	2105      	movs	r1, #5
   203b6:	aa0e      	add	r2, sp, #56	@ 0x38
   203b8:	231a      	movs	r3, #26
   203ba:	df03      	svc	3
   203bc:	2802      	cmp	r0, #2
   203be:	d007      	beq.n	203d0 <_ZN18complex_no_dynamic3app17h0c4114d264b988dbE+0x48>
   203c0:	481a      	ldr	r0, [pc, #104]	@ (2042c <_ZN18complex_no_dynamic3app17h0c4114d264b988dbE+0xa4>)
   203c2:	2205      	movs	r2, #5
   203c4:	2500      	movs	r5, #0
   203c6:	4629      	mov	r1, r5
   203c8:	462b      	mov	r3, r5
   203ca:	df02      	svc	2
   203cc:	287f      	cmp	r0, #127	@ 0x7f
   203ce:	d810      	bhi.n	203f2 <_ZN18complex_no_dynamic3app17h0c4114d264b988dbE+0x6a>
   203d0:	2001      	movs	r0, #1
   203d2:	7020      	strb	r0, [r4, #0]
   203d4:	6061      	str	r1, [r4, #4]
   203d6:	4c15      	ldr	r4, [pc, #84]	@ (2042c <_ZN18complex_no_dynamic3app17h0c4114d264b988dbE+0xa4>)
   203d8:	2105      	movs	r1, #5
   203da:	2500      	movs	r5, #0
   203dc:	4620      	mov	r0, r4
   203de:	462a      	mov	r2, r5
   203e0:	462b      	mov	r3, r5
   203e2:	df03      	svc	3
   203e4:	4620      	mov	r0, r4
   203e6:	4629      	mov	r1, r5
   203e8:	462a      	mov	r2, r5
   203ea:	462b      	mov	r3, r5
   203ec:	df04      	svc	4
   203ee:	b015      	add	sp, #84	@ 0x54
   203f0:	bdf0      	pop	{r4, r5, r6, r7, pc}
   203f2:	480e      	ldr	r0, [pc, #56]	@ (2042c <_ZN18complex_no_dynamic3app17h0c4114d264b988dbE+0xa4>)
   203f4:	2605      	movs	r6, #5
   203f6:	4631      	mov	r1, r6
   203f8:	462a      	mov	r2, r5
   203fa:	462b      	mov	r3, r5
   203fc:	df03      	svc	3
   203fe:	480b      	ldr	r0, [pc, #44]	@ (2042c <_ZN18complex_no_dynamic3app17h0c4114d264b988dbE+0xa4>)
   20400:	4631      	mov	r1, r6
   20402:	462a      	mov	r2, r5
   20404:	462b      	mov	r3, r5
   20406:	df03      	svc	3
   20408:	1c60      	adds	r0, r4, #1
   2040a:	a90e      	add	r1, sp, #56	@ 0x38
   2040c:	221a      	movs	r2, #26
   2040e:	f006 fd56 	bl	26ebe <__aeabi_memcpy>
   20412:	7025      	strb	r5, [r4, #0]
   20414:	4c05      	ldr	r4, [pc, #20]	@ (2042c <_ZN18complex_no_dynamic3app17h0c4114d264b988dbE+0xa4>)
   20416:	4620      	mov	r0, r4
   20418:	4631      	mov	r1, r6
   2041a:	462a      	mov	r2, r5
   2041c:	462b      	mov	r3, r5
   2041e:	df03      	svc	3
   20420:	4620      	mov	r0, r4
   20422:	4629      	mov	r1, r5
   20424:	462a      	mov	r2, r5
   20426:	462b      	mov	r3, r5
   20428:	df04      	svc	4
   2042a:	e7e0      	b.n	203ee <_ZN18complex_no_dynamic3app17h0c4114d264b988dbE+0x66>
   2042c:	000012cc 	.word	0x000012cc

00020430 <_ZN18complex_no_dynamic3app17h0f78df06d1d7ae1aE>:
   20430:	b5f0      	push	{r4, r5, r6, r7, lr}
   20432:	af03      	add	r7, sp, #12
   20434:	b09d      	sub	sp, #116	@ 0x74
   20436:	4604      	mov	r4, r0
   20438:	466d      	mov	r5, sp
   2043a:	2640      	movs	r6, #64	@ 0x40
   2043c:	4628      	mov	r0, r5
   2043e:	4632      	mov	r2, r6
   20440:	f006 fd3d 	bl	26ebe <__aeabi_memcpy>
   20444:	a810      	add	r0, sp, #64	@ 0x40
   20446:	2131      	movs	r1, #49	@ 0x31
   20448:	f006 fb8c 	bl	26b64 <__aeabi_memclr4>
   2044c:	4821      	ldr	r0, [pc, #132]	@ (204d4 <_ZN18complex_no_dynamic3app17h0f78df06d1d7ae1aE+0xa4>)
   2044e:	2108      	movs	r1, #8
   20450:	462a      	mov	r2, r5
   20452:	4633      	mov	r3, r6
   20454:	df04      	svc	4
   20456:	2802      	cmp	r0, #2
   20458:	d00e      	beq.n	20478 <_ZN18complex_no_dynamic3app17h0f78df06d1d7ae1aE+0x48>
   2045a:	481e      	ldr	r0, [pc, #120]	@ (204d4 <_ZN18complex_no_dynamic3app17h0f78df06d1d7ae1aE+0xa4>)
   2045c:	2105      	movs	r1, #5
   2045e:	aa10      	add	r2, sp, #64	@ 0x40
   20460:	2331      	movs	r3, #49	@ 0x31
   20462:	df03      	svc	3
   20464:	2802      	cmp	r0, #2
   20466:	d007      	beq.n	20478 <_ZN18complex_no_dynamic3app17h0f78df06d1d7ae1aE+0x48>
   20468:	481a      	ldr	r0, [pc, #104]	@ (204d4 <_ZN18complex_no_dynamic3app17h0f78df06d1d7ae1aE+0xa4>)
   2046a:	2108      	movs	r1, #8
   2046c:	2205      	movs	r2, #5
   2046e:	2500      	movs	r5, #0
   20470:	462b      	mov	r3, r5
   20472:	df02      	svc	2
   20474:	287f      	cmp	r0, #127	@ 0x7f
   20476:	d810      	bhi.n	2049a <_ZN18complex_no_dynamic3app17h0f78df06d1d7ae1aE+0x6a>
   20478:	2001      	movs	r0, #1
   2047a:	7020      	strb	r0, [r4, #0]
   2047c:	6061      	str	r1, [r4, #4]
   2047e:	4c15      	ldr	r4, [pc, #84]	@ (204d4 <_ZN18complex_no_dynamic3app17h0f78df06d1d7ae1aE+0xa4>)
   20480:	2105      	movs	r1, #5
   20482:	2500      	movs	r5, #0
   20484:	4620      	mov	r0, r4
   20486:	462a      	mov	r2, r5
   20488:	462b      	mov	r3, r5
   2048a:	df03      	svc	3
   2048c:	2108      	movs	r1, #8
   2048e:	4620      	mov	r0, r4
   20490:	462a      	mov	r2, r5
   20492:	462b      	mov	r3, r5
   20494:	df04      	svc	4
   20496:	b01d      	add	sp, #116	@ 0x74
   20498:	bdf0      	pop	{r4, r5, r6, r7, pc}
   2049a:	480e      	ldr	r0, [pc, #56]	@ (204d4 <_ZN18complex_no_dynamic3app17h0f78df06d1d7ae1aE+0xa4>)
   2049c:	2605      	movs	r6, #5
   2049e:	4631      	mov	r1, r6
   204a0:	462a      	mov	r2, r5
   204a2:	462b      	mov	r3, r5
   204a4:	df03      	svc	3
   204a6:	480b      	ldr	r0, [pc, #44]	@ (204d4 <_ZN18complex_no_dynamic3app17h0f78df06d1d7ae1aE+0xa4>)
   204a8:	4631      	mov	r1, r6
   204aa:	462a      	mov	r2, r5
   204ac:	462b      	mov	r3, r5
   204ae:	df03      	svc	3
   204b0:	1c60      	adds	r0, r4, #1
   204b2:	a910      	add	r1, sp, #64	@ 0x40
   204b4:	2231      	movs	r2, #49	@ 0x31
   204b6:	f006 fd02 	bl	26ebe <__aeabi_memcpy>
   204ba:	7025      	strb	r5, [r4, #0]
   204bc:	4c05      	ldr	r4, [pc, #20]	@ (204d4 <_ZN18complex_no_dynamic3app17h0f78df06d1d7ae1aE+0xa4>)
   204be:	4620      	mov	r0, r4
   204c0:	4631      	mov	r1, r6
   204c2:	462a      	mov	r2, r5
   204c4:	462b      	mov	r3, r5
   204c6:	df03      	svc	3
   204c8:	2108      	movs	r1, #8
   204ca:	4620      	mov	r0, r4
   204cc:	462a      	mov	r2, r5
   204ce:	462b      	mov	r3, r5
   204d0:	df04      	svc	4
   204d2:	e7e0      	b.n	20496 <_ZN18complex_no_dynamic3app17h0f78df06d1d7ae1aE+0x66>
   204d4:	00000fce 	.word	0x00000fce

000204d8 <_ZN18complex_no_dynamic3app17h1578766302082916E>:
   204d8:	b5f0      	push	{r4, r5, r6, r7, lr}
   204da:	af03      	add	r7, sp, #12
   204dc:	b08f      	sub	sp, #60	@ 0x3c
   204de:	4604      	mov	r4, r0
   204e0:	ad01      	add	r5, sp, #4
   204e2:	261a      	movs	r6, #26
   204e4:	4628      	mov	r0, r5
   204e6:	4632      	mov	r2, r6
   204e8:	f006 fce9 	bl	26ebe <__aeabi_memcpy>
   204ec:	a808      	add	r0, sp, #32
   204ee:	211b      	movs	r1, #27
   204f0:	f006 fb38 	bl	26b64 <__aeabi_memclr4>
   204f4:	4821      	ldr	r0, [pc, #132]	@ (2057c <_ZN18complex_no_dynamic3app17h1578766302082916E+0xa4>)
   204f6:	2105      	movs	r1, #5
   204f8:	462a      	mov	r2, r5
   204fa:	4633      	mov	r3, r6
   204fc:	df04      	svc	4
   204fe:	2802      	cmp	r0, #2
   20500:	d00e      	beq.n	20520 <_ZN18complex_no_dynamic3app17h1578766302082916E+0x48>
   20502:	481e      	ldr	r0, [pc, #120]	@ (2057c <_ZN18complex_no_dynamic3app17h1578766302082916E+0xa4>)
   20504:	2102      	movs	r1, #2
   20506:	aa08      	add	r2, sp, #32
   20508:	231b      	movs	r3, #27
   2050a:	df03      	svc	3
   2050c:	2802      	cmp	r0, #2
   2050e:	d007      	beq.n	20520 <_ZN18complex_no_dynamic3app17h1578766302082916E+0x48>
   20510:	481a      	ldr	r0, [pc, #104]	@ (2057c <_ZN18complex_no_dynamic3app17h1578766302082916E+0xa4>)
   20512:	2105      	movs	r1, #5
   20514:	2202      	movs	r2, #2
   20516:	2500      	movs	r5, #0
   20518:	462b      	mov	r3, r5
   2051a:	df02      	svc	2
   2051c:	287f      	cmp	r0, #127	@ 0x7f
   2051e:	d810      	bhi.n	20542 <_ZN18complex_no_dynamic3app17h1578766302082916E+0x6a>
   20520:	2001      	movs	r0, #1
   20522:	7020      	strb	r0, [r4, #0]
   20524:	6061      	str	r1, [r4, #4]
   20526:	4c15      	ldr	r4, [pc, #84]	@ (2057c <_ZN18complex_no_dynamic3app17h1578766302082916E+0xa4>)
   20528:	2102      	movs	r1, #2
   2052a:	2500      	movs	r5, #0
   2052c:	4620      	mov	r0, r4
   2052e:	462a      	mov	r2, r5
   20530:	462b      	mov	r3, r5
   20532:	df03      	svc	3
   20534:	2105      	movs	r1, #5
   20536:	4620      	mov	r0, r4
   20538:	462a      	mov	r2, r5
   2053a:	462b      	mov	r3, r5
   2053c:	df04      	svc	4
   2053e:	b00f      	add	sp, #60	@ 0x3c
   20540:	bdf0      	pop	{r4, r5, r6, r7, pc}
   20542:	480e      	ldr	r0, [pc, #56]	@ (2057c <_ZN18complex_no_dynamic3app17h1578766302082916E+0xa4>)
   20544:	2602      	movs	r6, #2
   20546:	4631      	mov	r1, r6
   20548:	462a      	mov	r2, r5
   2054a:	462b      	mov	r3, r5
   2054c:	df03      	svc	3
   2054e:	480b      	ldr	r0, [pc, #44]	@ (2057c <_ZN18complex_no_dynamic3app17h1578766302082916E+0xa4>)
   20550:	4631      	mov	r1, r6
   20552:	462a      	mov	r2, r5
   20554:	462b      	mov	r3, r5
   20556:	df03      	svc	3
   20558:	1c60      	adds	r0, r4, #1
   2055a:	a908      	add	r1, sp, #32
   2055c:	221b      	movs	r2, #27
   2055e:	f006 fcae 	bl	26ebe <__aeabi_memcpy>
   20562:	7025      	strb	r5, [r4, #0]
   20564:	4c05      	ldr	r4, [pc, #20]	@ (2057c <_ZN18complex_no_dynamic3app17h1578766302082916E+0xa4>)
   20566:	4620      	mov	r0, r4
   20568:	4631      	mov	r1, r6
   2056a:	462a      	mov	r2, r5
   2056c:	462b      	mov	r3, r5
   2056e:	df03      	svc	3
   20570:	2105      	movs	r1, #5
   20572:	4620      	mov	r0, r4
   20574:	462a      	mov	r2, r5
   20576:	462b      	mov	r3, r5
   20578:	df04      	svc	4
   2057a:	e7e0      	b.n	2053e <_ZN18complex_no_dynamic3app17h1578766302082916E+0x66>
   2057c:	00001cce 	.word	0x00001cce

00020580 <_ZN18complex_no_dynamic3app17h17e40f414368a06bE>:
   20580:	b5f0      	push	{r4, r5, r6, r7, lr}
   20582:	af03      	add	r7, sp, #12
   20584:	b0a3      	sub	sp, #140	@ 0x8c
   20586:	4604      	mov	r4, r0
   20588:	466d      	mov	r5, sp
   2058a:	2650      	movs	r6, #80	@ 0x50
   2058c:	4628      	mov	r0, r5
   2058e:	4632      	mov	r2, r6
   20590:	f006 fc95 	bl	26ebe <__aeabi_memcpy>
   20594:	a814      	add	r0, sp, #80	@ 0x50
   20596:	213c      	movs	r1, #60	@ 0x3c
   20598:	f006 fae4 	bl	26b64 <__aeabi_memclr4>
   2059c:	4821      	ldr	r0, [pc, #132]	@ (20624 <_ZN18complex_no_dynamic3app17h17e40f414368a06bE+0xa4>)
   2059e:	2103      	movs	r1, #3
   205a0:	462a      	mov	r2, r5
   205a2:	4633      	mov	r3, r6
   205a4:	df04      	svc	4
   205a6:	2802      	cmp	r0, #2
   205a8:	d00e      	beq.n	205c8 <_ZN18complex_no_dynamic3app17h17e40f414368a06bE+0x48>
   205aa:	481e      	ldr	r0, [pc, #120]	@ (20624 <_ZN18complex_no_dynamic3app17h17e40f414368a06bE+0xa4>)
   205ac:	2109      	movs	r1, #9
   205ae:	aa14      	add	r2, sp, #80	@ 0x50
   205b0:	233c      	movs	r3, #60	@ 0x3c
   205b2:	df03      	svc	3
   205b4:	2802      	cmp	r0, #2
   205b6:	d007      	beq.n	205c8 <_ZN18complex_no_dynamic3app17h17e40f414368a06bE+0x48>
   205b8:	481a      	ldr	r0, [pc, #104]	@ (20624 <_ZN18complex_no_dynamic3app17h17e40f414368a06bE+0xa4>)
   205ba:	2103      	movs	r1, #3
   205bc:	2209      	movs	r2, #9
   205be:	2500      	movs	r5, #0
   205c0:	462b      	mov	r3, r5
   205c2:	df02      	svc	2
   205c4:	287f      	cmp	r0, #127	@ 0x7f
   205c6:	d810      	bhi.n	205ea <_ZN18complex_no_dynamic3app17h17e40f414368a06bE+0x6a>
   205c8:	2001      	movs	r0, #1
   205ca:	7020      	strb	r0, [r4, #0]
   205cc:	6061      	str	r1, [r4, #4]
   205ce:	4c15      	ldr	r4, [pc, #84]	@ (20624 <_ZN18complex_no_dynamic3app17h17e40f414368a06bE+0xa4>)
   205d0:	2109      	movs	r1, #9
   205d2:	2500      	movs	r5, #0
   205d4:	4620      	mov	r0, r4
   205d6:	462a      	mov	r2, r5
   205d8:	462b      	mov	r3, r5
   205da:	df03      	svc	3
   205dc:	2103      	movs	r1, #3
   205de:	4620      	mov	r0, r4
   205e0:	462a      	mov	r2, r5
   205e2:	462b      	mov	r3, r5
   205e4:	df04      	svc	4
   205e6:	b023      	add	sp, #140	@ 0x8c
   205e8:	bdf0      	pop	{r4, r5, r6, r7, pc}
   205ea:	480e      	ldr	r0, [pc, #56]	@ (20624 <_ZN18complex_no_dynamic3app17h17e40f414368a06bE+0xa4>)
   205ec:	2609      	movs	r6, #9
   205ee:	4631      	mov	r1, r6
   205f0:	462a      	mov	r2, r5
   205f2:	462b      	mov	r3, r5
   205f4:	df03      	svc	3
   205f6:	480b      	ldr	r0, [pc, #44]	@ (20624 <_ZN18complex_no_dynamic3app17h17e40f414368a06bE+0xa4>)
   205f8:	4631      	mov	r1, r6
   205fa:	462a      	mov	r2, r5
   205fc:	462b      	mov	r3, r5
   205fe:	df03      	svc	3
   20600:	1c60      	adds	r0, r4, #1
   20602:	a914      	add	r1, sp, #80	@ 0x50
   20604:	223c      	movs	r2, #60	@ 0x3c
   20606:	f006 fc5a 	bl	26ebe <__aeabi_memcpy>
   2060a:	7025      	strb	r5, [r4, #0]
   2060c:	4c05      	ldr	r4, [pc, #20]	@ (20624 <_ZN18complex_no_dynamic3app17h17e40f414368a06bE+0xa4>)
   2060e:	4620      	mov	r0, r4
   20610:	4631      	mov	r1, r6
   20612:	462a      	mov	r2, r5
   20614:	462b      	mov	r3, r5
   20616:	df03      	svc	3
   20618:	2103      	movs	r1, #3
   2061a:	4620      	mov	r0, r4
   2061c:	462a      	mov	r2, r5
   2061e:	462b      	mov	r3, r5
   20620:	df04      	svc	4
   20622:	e7e0      	b.n	205e6 <_ZN18complex_no_dynamic3app17h17e40f414368a06bE+0x66>
   20624:	00000d7a 	.word	0x00000d7a

00020628 <_ZN18complex_no_dynamic3app17h1c2fca19c26246feE>:
   20628:	b5f0      	push	{r4, r5, r6, r7, lr}
   2062a:	af03      	add	r7, sp, #12
   2062c:	b09f      	sub	sp, #124	@ 0x7c
   2062e:	4604      	mov	r4, r0
   20630:	466d      	mov	r5, sp
   20632:	261c      	movs	r6, #28
   20634:	4628      	mov	r0, r5
   20636:	4632      	mov	r2, r6
   20638:	f006 fc41 	bl	26ebe <__aeabi_memcpy>
   2063c:	a807      	add	r0, sp, #28
   2063e:	215d      	movs	r1, #93	@ 0x5d
   20640:	f006 fa90 	bl	26b64 <__aeabi_memclr4>
   20644:	4821      	ldr	r0, [pc, #132]	@ (206cc <_ZN18complex_no_dynamic3app17h1c2fca19c26246feE+0xa4>)
   20646:	2108      	movs	r1, #8
   20648:	462a      	mov	r2, r5
   2064a:	4633      	mov	r3, r6
   2064c:	df04      	svc	4
   2064e:	2802      	cmp	r0, #2
   20650:	d00e      	beq.n	20670 <_ZN18complex_no_dynamic3app17h1c2fca19c26246feE+0x48>
   20652:	481e      	ldr	r0, [pc, #120]	@ (206cc <_ZN18complex_no_dynamic3app17h1c2fca19c26246feE+0xa4>)
   20654:	2105      	movs	r1, #5
   20656:	aa07      	add	r2, sp, #28
   20658:	235d      	movs	r3, #93	@ 0x5d
   2065a:	df03      	svc	3
   2065c:	2802      	cmp	r0, #2
   2065e:	d007      	beq.n	20670 <_ZN18complex_no_dynamic3app17h1c2fca19c26246feE+0x48>
   20660:	481a      	ldr	r0, [pc, #104]	@ (206cc <_ZN18complex_no_dynamic3app17h1c2fca19c26246feE+0xa4>)
   20662:	2108      	movs	r1, #8
   20664:	2205      	movs	r2, #5
   20666:	2500      	movs	r5, #0
   20668:	462b      	mov	r3, r5
   2066a:	df02      	svc	2
   2066c:	287f      	cmp	r0, #127	@ 0x7f
   2066e:	d810      	bhi.n	20692 <_ZN18complex_no_dynamic3app17h1c2fca19c26246feE+0x6a>
   20670:	2001      	movs	r0, #1
   20672:	7020      	strb	r0, [r4, #0]
   20674:	6061      	str	r1, [r4, #4]
   20676:	4c15      	ldr	r4, [pc, #84]	@ (206cc <_ZN18complex_no_dynamic3app17h1c2fca19c26246feE+0xa4>)
   20678:	2105      	movs	r1, #5
   2067a:	2500      	movs	r5, #0
   2067c:	4620      	mov	r0, r4
   2067e:	462a      	mov	r2, r5
   20680:	462b      	mov	r3, r5
   20682:	df03      	svc	3
   20684:	2108      	movs	r1, #8
   20686:	4620      	mov	r0, r4
   20688:	462a      	mov	r2, r5
   2068a:	462b      	mov	r3, r5
   2068c:	df04      	svc	4
   2068e:	b01f      	add	sp, #124	@ 0x7c
   20690:	bdf0      	pop	{r4, r5, r6, r7, pc}
   20692:	480e      	ldr	r0, [pc, #56]	@ (206cc <_ZN18complex_no_dynamic3app17h1c2fca19c26246feE+0xa4>)
   20694:	2605      	movs	r6, #5
   20696:	4631      	mov	r1, r6
   20698:	462a      	mov	r2, r5
   2069a:	462b      	mov	r3, r5
   2069c:	df03      	svc	3
   2069e:	480b      	ldr	r0, [pc, #44]	@ (206cc <_ZN18complex_no_dynamic3app17h1c2fca19c26246feE+0xa4>)
   206a0:	4631      	mov	r1, r6
   206a2:	462a      	mov	r2, r5
   206a4:	462b      	mov	r3, r5
   206a6:	df03      	svc	3
   206a8:	1c60      	adds	r0, r4, #1
   206aa:	a907      	add	r1, sp, #28
   206ac:	225d      	movs	r2, #93	@ 0x5d
   206ae:	f006 fc06 	bl	26ebe <__aeabi_memcpy>
   206b2:	7025      	strb	r5, [r4, #0]
   206b4:	4c05      	ldr	r4, [pc, #20]	@ (206cc <_ZN18complex_no_dynamic3app17h1c2fca19c26246feE+0xa4>)
   206b6:	4620      	mov	r0, r4
   206b8:	4631      	mov	r1, r6
   206ba:	462a      	mov	r2, r5
   206bc:	462b      	mov	r3, r5
   206be:	df03      	svc	3
   206c0:	2108      	movs	r1, #8
   206c2:	4620      	mov	r0, r4
   206c4:	462a      	mov	r2, r5
   206c6:	462b      	mov	r3, r5
   206c8:	df04      	svc	4
   206ca:	e7e0      	b.n	2068e <_ZN18complex_no_dynamic3app17h1c2fca19c26246feE+0x66>
   206cc:	00000c3e 	.word	0x00000c3e

000206d0 <_ZN18complex_no_dynamic3app17h1c422c7c70010f20E>:
   206d0:	b5f0      	push	{r4, r5, r6, r7, lr}
   206d2:	af03      	add	r7, sp, #12
   206d4:	b091      	sub	sp, #68	@ 0x44
   206d6:	4604      	mov	r4, r0
   206d8:	466d      	mov	r5, sp
   206da:	2632      	movs	r6, #50	@ 0x32
   206dc:	4628      	mov	r0, r5
   206de:	4632      	mov	r2, r6
   206e0:	f006 fbed 	bl	26ebe <__aeabi_memcpy>
   206e4:	2000      	movs	r0, #0
   206e6:	9010      	str	r0, [sp, #64]	@ 0x40
   206e8:	900f      	str	r0, [sp, #60]	@ 0x3c
   206ea:	900e      	str	r0, [sp, #56]	@ 0x38
   206ec:	900d      	str	r0, [sp, #52]	@ 0x34
   206ee:	4822      	ldr	r0, [pc, #136]	@ (20778 <_ZN18complex_no_dynamic3app17h1c422c7c70010f20E+0xa8>)
   206f0:	2104      	movs	r1, #4
   206f2:	462a      	mov	r2, r5
   206f4:	4633      	mov	r3, r6
   206f6:	df04      	svc	4
   206f8:	2802      	cmp	r0, #2
   206fa:	d00e      	beq.n	2071a <_ZN18complex_no_dynamic3app17h1c422c7c70010f20E+0x4a>
   206fc:	481e      	ldr	r0, [pc, #120]	@ (20778 <_ZN18complex_no_dynamic3app17h1c422c7c70010f20E+0xa8>)
   206fe:	2109      	movs	r1, #9
   20700:	aa0d      	add	r2, sp, #52	@ 0x34
   20702:	2310      	movs	r3, #16
   20704:	df03      	svc	3
   20706:	2802      	cmp	r0, #2
   20708:	d007      	beq.n	2071a <_ZN18complex_no_dynamic3app17h1c422c7c70010f20E+0x4a>
   2070a:	481b      	ldr	r0, [pc, #108]	@ (20778 <_ZN18complex_no_dynamic3app17h1c422c7c70010f20E+0xa8>)
   2070c:	2104      	movs	r1, #4
   2070e:	2209      	movs	r2, #9
   20710:	2500      	movs	r5, #0
   20712:	462b      	mov	r3, r5
   20714:	df02      	svc	2
   20716:	287f      	cmp	r0, #127	@ 0x7f
   20718:	d810      	bhi.n	2073c <_ZN18complex_no_dynamic3app17h1c422c7c70010f20E+0x6c>
   2071a:	2001      	movs	r0, #1
   2071c:	7020      	strb	r0, [r4, #0]
   2071e:	6061      	str	r1, [r4, #4]
   20720:	4c15      	ldr	r4, [pc, #84]	@ (20778 <_ZN18complex_no_dynamic3app17h1c422c7c70010f20E+0xa8>)
   20722:	2109      	movs	r1, #9
   20724:	2500      	movs	r5, #0
   20726:	4620      	mov	r0, r4
   20728:	462a      	mov	r2, r5
   2072a:	462b      	mov	r3, r5
   2072c:	df03      	svc	3
   2072e:	2104      	movs	r1, #4
   20730:	4620      	mov	r0, r4
   20732:	462a      	mov	r2, r5
   20734:	462b      	mov	r3, r5
   20736:	df04      	svc	4
   20738:	b011      	add	sp, #68	@ 0x44
   2073a:	bdf0      	pop	{r4, r5, r6, r7, pc}
   2073c:	480e      	ldr	r0, [pc, #56]	@ (20778 <_ZN18complex_no_dynamic3app17h1c422c7c70010f20E+0xa8>)
   2073e:	2609      	movs	r6, #9
   20740:	4631      	mov	r1, r6
   20742:	462a      	mov	r2, r5
   20744:	462b      	mov	r3, r5
   20746:	df03      	svc	3
   20748:	480b      	ldr	r0, [pc, #44]	@ (20778 <_ZN18complex_no_dynamic3app17h1c422c7c70010f20E+0xa8>)
   2074a:	4631      	mov	r1, r6
   2074c:	462a      	mov	r2, r5
   2074e:	462b      	mov	r3, r5
   20750:	df03      	svc	3
   20752:	1c60      	adds	r0, r4, #1
   20754:	a90d      	add	r1, sp, #52	@ 0x34
   20756:	2210      	movs	r2, #16
   20758:	f006 fbb1 	bl	26ebe <__aeabi_memcpy>
   2075c:	7025      	strb	r5, [r4, #0]
   2075e:	4c06      	ldr	r4, [pc, #24]	@ (20778 <_ZN18complex_no_dynamic3app17h1c422c7c70010f20E+0xa8>)
   20760:	4620      	mov	r0, r4
   20762:	4631      	mov	r1, r6
   20764:	462a      	mov	r2, r5
   20766:	462b      	mov	r3, r5
   20768:	df03      	svc	3
   2076a:	2104      	movs	r1, #4
   2076c:	4620      	mov	r0, r4
   2076e:	462a      	mov	r2, r5
   20770:	462b      	mov	r3, r5
   20772:	df04      	svc	4
   20774:	e7e0      	b.n	20738 <_ZN18complex_no_dynamic3app17h1c422c7c70010f20E+0x68>
   20776:	46c0      	nop			@ (mov r8, r8)
   20778:	000019d6 	.word	0x000019d6

0002077c <_ZN18complex_no_dynamic3app17h1cd40791320d936fE>:
   2077c:	b5f0      	push	{r4, r5, r6, r7, lr}
   2077e:	af03      	add	r7, sp, #12
   20780:	b093      	sub	sp, #76	@ 0x4c
   20782:	4604      	mov	r4, r0
   20784:	ad01      	add	r5, sp, #4
   20786:	2629      	movs	r6, #41	@ 0x29
   20788:	4628      	mov	r0, r5
   2078a:	4632      	mov	r2, r6
   2078c:	f006 fb97 	bl	26ebe <__aeabi_memcpy>
   20790:	a80c      	add	r0, sp, #48	@ 0x30
   20792:	211a      	movs	r1, #26
   20794:	f006 f9e6 	bl	26b64 <__aeabi_memclr4>
   20798:	4821      	ldr	r0, [pc, #132]	@ (20820 <_ZN18complex_no_dynamic3app17h1cd40791320d936fE+0xa4>)
   2079a:	2105      	movs	r1, #5
   2079c:	462a      	mov	r2, r5
   2079e:	4633      	mov	r3, r6
   207a0:	df04      	svc	4
   207a2:	2802      	cmp	r0, #2
   207a4:	d00e      	beq.n	207c4 <_ZN18complex_no_dynamic3app17h1cd40791320d936fE+0x48>
   207a6:	481e      	ldr	r0, [pc, #120]	@ (20820 <_ZN18complex_no_dynamic3app17h1cd40791320d936fE+0xa4>)
   207a8:	2103      	movs	r1, #3
   207aa:	aa0c      	add	r2, sp, #48	@ 0x30
   207ac:	231a      	movs	r3, #26
   207ae:	df03      	svc	3
   207b0:	2802      	cmp	r0, #2
   207b2:	d007      	beq.n	207c4 <_ZN18complex_no_dynamic3app17h1cd40791320d936fE+0x48>
   207b4:	481a      	ldr	r0, [pc, #104]	@ (20820 <_ZN18complex_no_dynamic3app17h1cd40791320d936fE+0xa4>)
   207b6:	2105      	movs	r1, #5
   207b8:	2203      	movs	r2, #3
   207ba:	2500      	movs	r5, #0
   207bc:	462b      	mov	r3, r5
   207be:	df02      	svc	2
   207c0:	287f      	cmp	r0, #127	@ 0x7f
   207c2:	d810      	bhi.n	207e6 <_ZN18complex_no_dynamic3app17h1cd40791320d936fE+0x6a>
   207c4:	2001      	movs	r0, #1
   207c6:	7020      	strb	r0, [r4, #0]
   207c8:	6061      	str	r1, [r4, #4]
   207ca:	4c15      	ldr	r4, [pc, #84]	@ (20820 <_ZN18complex_no_dynamic3app17h1cd40791320d936fE+0xa4>)
   207cc:	2103      	movs	r1, #3
   207ce:	2500      	movs	r5, #0
   207d0:	4620      	mov	r0, r4
   207d2:	462a      	mov	r2, r5
   207d4:	462b      	mov	r3, r5
   207d6:	df03      	svc	3
   207d8:	2105      	movs	r1, #5
   207da:	4620      	mov	r0, r4
   207dc:	462a      	mov	r2, r5
   207de:	462b      	mov	r3, r5
   207e0:	df04      	svc	4
   207e2:	b013      	add	sp, #76	@ 0x4c
   207e4:	bdf0      	pop	{r4, r5, r6, r7, pc}
   207e6:	480e      	ldr	r0, [pc, #56]	@ (20820 <_ZN18complex_no_dynamic3app17h1cd40791320d936fE+0xa4>)
   207e8:	2603      	movs	r6, #3
   207ea:	4631      	mov	r1, r6
   207ec:	462a      	mov	r2, r5
   207ee:	462b      	mov	r3, r5
   207f0:	df03      	svc	3
   207f2:	480b      	ldr	r0, [pc, #44]	@ (20820 <_ZN18complex_no_dynamic3app17h1cd40791320d936fE+0xa4>)
   207f4:	4631      	mov	r1, r6
   207f6:	462a      	mov	r2, r5
   207f8:	462b      	mov	r3, r5
   207fa:	df03      	svc	3
   207fc:	1c60      	adds	r0, r4, #1
   207fe:	a90c      	add	r1, sp, #48	@ 0x30
   20800:	221a      	movs	r2, #26
   20802:	f006 fb5c 	bl	26ebe <__aeabi_memcpy>
   20806:	7025      	strb	r5, [r4, #0]
   20808:	4c05      	ldr	r4, [pc, #20]	@ (20820 <_ZN18complex_no_dynamic3app17h1cd40791320d936fE+0xa4>)
   2080a:	4620      	mov	r0, r4
   2080c:	4631      	mov	r1, r6
   2080e:	462a      	mov	r2, r5
   20810:	462b      	mov	r3, r5
   20812:	df03      	svc	3
   20814:	2105      	movs	r1, #5
   20816:	4620      	mov	r0, r4
   20818:	462a      	mov	r2, r5
   2081a:	462b      	mov	r3, r5
   2081c:	df04      	svc	4
   2081e:	e7e0      	b.n	207e2 <_ZN18complex_no_dynamic3app17h1cd40791320d936fE+0x66>
   20820:	00002048 	.word	0x00002048

00020824 <_ZN18complex_no_dynamic3app17h1d9cf14374af116fE>:
   20824:	b5f0      	push	{r4, r5, r6, r7, lr}
   20826:	af03      	add	r7, sp, #12
   20828:	b0a3      	sub	sp, #140	@ 0x8c
   2082a:	4604      	mov	r4, r0
   2082c:	466d      	mov	r5, sp
   2082e:	264d      	movs	r6, #77	@ 0x4d
   20830:	4628      	mov	r0, r5
   20832:	4632      	mov	r2, r6
   20834:	f006 fb43 	bl	26ebe <__aeabi_memcpy>
   20838:	a814      	add	r0, sp, #80	@ 0x50
   2083a:	213c      	movs	r1, #60	@ 0x3c
   2083c:	f006 f992 	bl	26b64 <__aeabi_memclr4>
   20840:	4821      	ldr	r0, [pc, #132]	@ (208c8 <_ZN18complex_no_dynamic3app17h1d9cf14374af116fE+0xa4>)
   20842:	2104      	movs	r1, #4
   20844:	462a      	mov	r2, r5
   20846:	4633      	mov	r3, r6
   20848:	df04      	svc	4
   2084a:	2802      	cmp	r0, #2
   2084c:	d00e      	beq.n	2086c <_ZN18complex_no_dynamic3app17h1d9cf14374af116fE+0x48>
   2084e:	481e      	ldr	r0, [pc, #120]	@ (208c8 <_ZN18complex_no_dynamic3app17h1d9cf14374af116fE+0xa4>)
   20850:	2109      	movs	r1, #9
   20852:	aa14      	add	r2, sp, #80	@ 0x50
   20854:	233c      	movs	r3, #60	@ 0x3c
   20856:	df03      	svc	3
   20858:	2802      	cmp	r0, #2
   2085a:	d007      	beq.n	2086c <_ZN18complex_no_dynamic3app17h1d9cf14374af116fE+0x48>
   2085c:	481a      	ldr	r0, [pc, #104]	@ (208c8 <_ZN18complex_no_dynamic3app17h1d9cf14374af116fE+0xa4>)
   2085e:	2104      	movs	r1, #4
   20860:	2209      	movs	r2, #9
   20862:	2500      	movs	r5, #0
   20864:	462b      	mov	r3, r5
   20866:	df02      	svc	2
   20868:	287f      	cmp	r0, #127	@ 0x7f
   2086a:	d810      	bhi.n	2088e <_ZN18complex_no_dynamic3app17h1d9cf14374af116fE+0x6a>
   2086c:	2001      	movs	r0, #1
   2086e:	7020      	strb	r0, [r4, #0]
   20870:	6061      	str	r1, [r4, #4]
   20872:	4c15      	ldr	r4, [pc, #84]	@ (208c8 <_ZN18complex_no_dynamic3app17h1d9cf14374af116fE+0xa4>)
   20874:	2109      	movs	r1, #9
   20876:	2500      	movs	r5, #0
   20878:	4620      	mov	r0, r4
   2087a:	462a      	mov	r2, r5
   2087c:	462b      	mov	r3, r5
   2087e:	df03      	svc	3
   20880:	2104      	movs	r1, #4
   20882:	4620      	mov	r0, r4
   20884:	462a      	mov	r2, r5
   20886:	462b      	mov	r3, r5
   20888:	df04      	svc	4
   2088a:	b023      	add	sp, #140	@ 0x8c
   2088c:	bdf0      	pop	{r4, r5, r6, r7, pc}
   2088e:	480e      	ldr	r0, [pc, #56]	@ (208c8 <_ZN18complex_no_dynamic3app17h1d9cf14374af116fE+0xa4>)
   20890:	2609      	movs	r6, #9
   20892:	4631      	mov	r1, r6
   20894:	462a      	mov	r2, r5
   20896:	462b      	mov	r3, r5
   20898:	df03      	svc	3
   2089a:	480b      	ldr	r0, [pc, #44]	@ (208c8 <_ZN18complex_no_dynamic3app17h1d9cf14374af116fE+0xa4>)
   2089c:	4631      	mov	r1, r6
   2089e:	462a      	mov	r2, r5
   208a0:	462b      	mov	r3, r5
   208a2:	df03      	svc	3
   208a4:	1c60      	adds	r0, r4, #1
   208a6:	a914      	add	r1, sp, #80	@ 0x50
   208a8:	223c      	movs	r2, #60	@ 0x3c
   208aa:	f006 fb08 	bl	26ebe <__aeabi_memcpy>
   208ae:	7025      	strb	r5, [r4, #0]
   208b0:	4c05      	ldr	r4, [pc, #20]	@ (208c8 <_ZN18complex_no_dynamic3app17h1d9cf14374af116fE+0xa4>)
   208b2:	4620      	mov	r0, r4
   208b4:	4631      	mov	r1, r6
   208b6:	462a      	mov	r2, r5
   208b8:	462b      	mov	r3, r5
   208ba:	df03      	svc	3
   208bc:	2104      	movs	r1, #4
   208be:	4620      	mov	r0, r4
   208c0:	462a      	mov	r2, r5
   208c2:	462b      	mov	r3, r5
   208c4:	df04      	svc	4
   208c6:	e7e0      	b.n	2088a <_ZN18complex_no_dynamic3app17h1d9cf14374af116fE+0x66>
   208c8:	000021ab 	.word	0x000021ab

000208cc <_ZN18complex_no_dynamic3app17h1ea5cb6cd0487121E>:
   208cc:	b5f0      	push	{r4, r5, r6, r7, lr}
   208ce:	af03      	add	r7, sp, #12
   208d0:	b097      	sub	sp, #92	@ 0x5c
   208d2:	4604      	mov	r4, r0
   208d4:	ad01      	add	r5, sp, #4
   208d6:	262c      	movs	r6, #44	@ 0x2c
   208d8:	4628      	mov	r0, r5
   208da:	4632      	mov	r2, r6
   208dc:	f006 faef 	bl	26ebe <__aeabi_memcpy>
   208e0:	a80c      	add	r0, sp, #48	@ 0x30
   208e2:	212a      	movs	r1, #42	@ 0x2a
   208e4:	f006 f93e 	bl	26b64 <__aeabi_memclr4>
   208e8:	4821      	ldr	r0, [pc, #132]	@ (20970 <_ZN18complex_no_dynamic3app17h1ea5cb6cd0487121E+0xa4>)
   208ea:	2103      	movs	r1, #3
   208ec:	462a      	mov	r2, r5
   208ee:	4633      	mov	r3, r6
   208f0:	df04      	svc	4
   208f2:	2802      	cmp	r0, #2
   208f4:	d00e      	beq.n	20914 <_ZN18complex_no_dynamic3app17h1ea5cb6cd0487121E+0x48>
   208f6:	481e      	ldr	r0, [pc, #120]	@ (20970 <_ZN18complex_no_dynamic3app17h1ea5cb6cd0487121E+0xa4>)
   208f8:	2100      	movs	r1, #0
   208fa:	aa0c      	add	r2, sp, #48	@ 0x30
   208fc:	232a      	movs	r3, #42	@ 0x2a
   208fe:	df03      	svc	3
   20900:	2802      	cmp	r0, #2
   20902:	d007      	beq.n	20914 <_ZN18complex_no_dynamic3app17h1ea5cb6cd0487121E+0x48>
   20904:	481a      	ldr	r0, [pc, #104]	@ (20970 <_ZN18complex_no_dynamic3app17h1ea5cb6cd0487121E+0xa4>)
   20906:	2103      	movs	r1, #3
   20908:	2500      	movs	r5, #0
   2090a:	462a      	mov	r2, r5
   2090c:	462b      	mov	r3, r5
   2090e:	df02      	svc	2
   20910:	287f      	cmp	r0, #127	@ 0x7f
   20912:	d810      	bhi.n	20936 <_ZN18complex_no_dynamic3app17h1ea5cb6cd0487121E+0x6a>
   20914:	2001      	movs	r0, #1
   20916:	7020      	strb	r0, [r4, #0]
   20918:	6061      	str	r1, [r4, #4]
   2091a:	4c15      	ldr	r4, [pc, #84]	@ (20970 <_ZN18complex_no_dynamic3app17h1ea5cb6cd0487121E+0xa4>)
   2091c:	2500      	movs	r5, #0
   2091e:	4620      	mov	r0, r4
   20920:	4629      	mov	r1, r5
   20922:	462a      	mov	r2, r5
   20924:	462b      	mov	r3, r5
   20926:	df03      	svc	3
   20928:	2103      	movs	r1, #3
   2092a:	4620      	mov	r0, r4
   2092c:	462a      	mov	r2, r5
   2092e:	462b      	mov	r3, r5
   20930:	df04      	svc	4
   20932:	b017      	add	sp, #92	@ 0x5c
   20934:	bdf0      	pop	{r4, r5, r6, r7, pc}
   20936:	4e0e      	ldr	r6, [pc, #56]	@ (20970 <_ZN18complex_no_dynamic3app17h1ea5cb6cd0487121E+0xa4>)
   20938:	4630      	mov	r0, r6
   2093a:	4629      	mov	r1, r5
   2093c:	462a      	mov	r2, r5
   2093e:	462b      	mov	r3, r5
   20940:	df03      	svc	3
   20942:	4630      	mov	r0, r6
   20944:	4629      	mov	r1, r5
   20946:	462a      	mov	r2, r5
   20948:	462b      	mov	r3, r5
   2094a:	df03      	svc	3
   2094c:	1c60      	adds	r0, r4, #1
   2094e:	a90c      	add	r1, sp, #48	@ 0x30
   20950:	222a      	movs	r2, #42	@ 0x2a
   20952:	f006 fab4 	bl	26ebe <__aeabi_memcpy>
   20956:	7025      	strb	r5, [r4, #0]
   20958:	4630      	mov	r0, r6
   2095a:	4629      	mov	r1, r5
   2095c:	462a      	mov	r2, r5
   2095e:	462b      	mov	r3, r5
   20960:	df03      	svc	3
   20962:	2103      	movs	r1, #3
   20964:	4630      	mov	r0, r6
   20966:	462a      	mov	r2, r5
   20968:	462b      	mov	r3, r5
   2096a:	df04      	svc	4
   2096c:	e7e1      	b.n	20932 <_ZN18complex_no_dynamic3app17h1ea5cb6cd0487121E+0x66>
   2096e:	46c0      	nop			@ (mov r8, r8)
   20970:	000024f0 	.word	0x000024f0

00020974 <_ZN18complex_no_dynamic3app17h21d319115fef0353E>:
   20974:	b5f0      	push	{r4, r5, r6, r7, lr}
   20976:	af03      	add	r7, sp, #12
   20978:	b095      	sub	sp, #84	@ 0x54
   2097a:	4604      	mov	r4, r0
   2097c:	466d      	mov	r5, sp
   2097e:	2625      	movs	r6, #37	@ 0x25
   20980:	4628      	mov	r0, r5
   20982:	4632      	mov	r2, r6
   20984:	f006 fa9b 	bl	26ebe <__aeabi_memcpy>
   20988:	a80a      	add	r0, sp, #40	@ 0x28
   2098a:	212a      	movs	r1, #42	@ 0x2a
   2098c:	f006 f8ea 	bl	26b64 <__aeabi_memclr4>
   20990:	4821      	ldr	r0, [pc, #132]	@ (20a18 <_ZN18complex_no_dynamic3app17h21d319115fef0353E+0xa4>)
   20992:	2100      	movs	r1, #0
   20994:	462a      	mov	r2, r5
   20996:	4633      	mov	r3, r6
   20998:	df04      	svc	4
   2099a:	2802      	cmp	r0, #2
   2099c:	d00e      	beq.n	209bc <_ZN18complex_no_dynamic3app17h21d319115fef0353E+0x48>
   2099e:	481e      	ldr	r0, [pc, #120]	@ (20a18 <_ZN18complex_no_dynamic3app17h21d319115fef0353E+0xa4>)
   209a0:	2103      	movs	r1, #3
   209a2:	aa0a      	add	r2, sp, #40	@ 0x28
   209a4:	232a      	movs	r3, #42	@ 0x2a
   209a6:	df03      	svc	3
   209a8:	2802      	cmp	r0, #2
   209aa:	d007      	beq.n	209bc <_ZN18complex_no_dynamic3app17h21d319115fef0353E+0x48>
   209ac:	481a      	ldr	r0, [pc, #104]	@ (20a18 <_ZN18complex_no_dynamic3app17h21d319115fef0353E+0xa4>)
   209ae:	2203      	movs	r2, #3
   209b0:	2500      	movs	r5, #0
   209b2:	4629      	mov	r1, r5
   209b4:	462b      	mov	r3, r5
   209b6:	df02      	svc	2
   209b8:	287f      	cmp	r0, #127	@ 0x7f
   209ba:	d810      	bhi.n	209de <_ZN18complex_no_dynamic3app17h21d319115fef0353E+0x6a>
   209bc:	2001      	movs	r0, #1
   209be:	7020      	strb	r0, [r4, #0]
   209c0:	6061      	str	r1, [r4, #4]
   209c2:	4c15      	ldr	r4, [pc, #84]	@ (20a18 <_ZN18complex_no_dynamic3app17h21d319115fef0353E+0xa4>)
   209c4:	2103      	movs	r1, #3
   209c6:	2500      	movs	r5, #0
   209c8:	4620      	mov	r0, r4
   209ca:	462a      	mov	r2, r5
   209cc:	462b      	mov	r3, r5
   209ce:	df03      	svc	3
   209d0:	4620      	mov	r0, r4
   209d2:	4629      	mov	r1, r5
   209d4:	462a      	mov	r2, r5
   209d6:	462b      	mov	r3, r5
   209d8:	df04      	svc	4
   209da:	b015      	add	sp, #84	@ 0x54
   209dc:	bdf0      	pop	{r4, r5, r6, r7, pc}
   209de:	480e      	ldr	r0, [pc, #56]	@ (20a18 <_ZN18complex_no_dynamic3app17h21d319115fef0353E+0xa4>)
   209e0:	2603      	movs	r6, #3
   209e2:	4631      	mov	r1, r6
   209e4:	462a      	mov	r2, r5
   209e6:	462b      	mov	r3, r5
   209e8:	df03      	svc	3
   209ea:	480b      	ldr	r0, [pc, #44]	@ (20a18 <_ZN18complex_no_dynamic3app17h21d319115fef0353E+0xa4>)
   209ec:	4631      	mov	r1, r6
   209ee:	462a      	mov	r2, r5
   209f0:	462b      	mov	r3, r5
   209f2:	df03      	svc	3
   209f4:	1c60      	adds	r0, r4, #1
   209f6:	a90a      	add	r1, sp, #40	@ 0x28
   209f8:	222a      	movs	r2, #42	@ 0x2a
   209fa:	f006 fa60 	bl	26ebe <__aeabi_memcpy>
   209fe:	7025      	strb	r5, [r4, #0]
   20a00:	4c05      	ldr	r4, [pc, #20]	@ (20a18 <_ZN18complex_no_dynamic3app17h21d319115fef0353E+0xa4>)
   20a02:	4620      	mov	r0, r4
   20a04:	4631      	mov	r1, r6
   20a06:	462a      	mov	r2, r5
   20a08:	462b      	mov	r3, r5
   20a0a:	df03      	svc	3
   20a0c:	4620      	mov	r0, r4
   20a0e:	4629      	mov	r1, r5
   20a10:	462a      	mov	r2, r5
   20a12:	462b      	mov	r3, r5
   20a14:	df04      	svc	4
   20a16:	e7e0      	b.n	209da <_ZN18complex_no_dynamic3app17h21d319115fef0353E+0x66>
   20a18:	0000093c 	.word	0x0000093c

00020a1c <_ZN18complex_no_dynamic3app17h238f14a893eb200eE>:
   20a1c:	b5f0      	push	{r4, r5, r6, r7, lr}
   20a1e:	af03      	add	r7, sp, #12
   20a20:	b09d      	sub	sp, #116	@ 0x74
   20a22:	4604      	mov	r4, r0
   20a24:	ad01      	add	r5, sp, #4
   20a26:	263c      	movs	r6, #60	@ 0x3c
   20a28:	4628      	mov	r0, r5
   20a2a:	4632      	mov	r2, r6
   20a2c:	f006 fa47 	bl	26ebe <__aeabi_memcpy>
   20a30:	a810      	add	r0, sp, #64	@ 0x40
   20a32:	2132      	movs	r1, #50	@ 0x32
   20a34:	f006 f896 	bl	26b64 <__aeabi_memclr4>
   20a38:	4821      	ldr	r0, [pc, #132]	@ (20ac0 <_ZN18complex_no_dynamic3app17h238f14a893eb200eE+0xa4>)
   20a3a:	2106      	movs	r1, #6
   20a3c:	462a      	mov	r2, r5
   20a3e:	4633      	mov	r3, r6
   20a40:	df04      	svc	4
   20a42:	2802      	cmp	r0, #2
   20a44:	d00e      	beq.n	20a64 <_ZN18complex_no_dynamic3app17h238f14a893eb200eE+0x48>
   20a46:	481e      	ldr	r0, [pc, #120]	@ (20ac0 <_ZN18complex_no_dynamic3app17h238f14a893eb200eE+0xa4>)
   20a48:	2108      	movs	r1, #8
   20a4a:	aa10      	add	r2, sp, #64	@ 0x40
   20a4c:	2332      	movs	r3, #50	@ 0x32
   20a4e:	df03      	svc	3
   20a50:	2802      	cmp	r0, #2
   20a52:	d007      	beq.n	20a64 <_ZN18complex_no_dynamic3app17h238f14a893eb200eE+0x48>
   20a54:	481a      	ldr	r0, [pc, #104]	@ (20ac0 <_ZN18complex_no_dynamic3app17h238f14a893eb200eE+0xa4>)
   20a56:	2106      	movs	r1, #6
   20a58:	2208      	movs	r2, #8
   20a5a:	2500      	movs	r5, #0
   20a5c:	462b      	mov	r3, r5
   20a5e:	df02      	svc	2
   20a60:	287f      	cmp	r0, #127	@ 0x7f
   20a62:	d810      	bhi.n	20a86 <_ZN18complex_no_dynamic3app17h238f14a893eb200eE+0x6a>
   20a64:	2001      	movs	r0, #1
   20a66:	7020      	strb	r0, [r4, #0]
   20a68:	6061      	str	r1, [r4, #4]
   20a6a:	4c15      	ldr	r4, [pc, #84]	@ (20ac0 <_ZN18complex_no_dynamic3app17h238f14a893eb200eE+0xa4>)
   20a6c:	2108      	movs	r1, #8
   20a6e:	2500      	movs	r5, #0
   20a70:	4620      	mov	r0, r4
   20a72:	462a      	mov	r2, r5
   20a74:	462b      	mov	r3, r5
   20a76:	df03      	svc	3
   20a78:	2106      	movs	r1, #6
   20a7a:	4620      	mov	r0, r4
   20a7c:	462a      	mov	r2, r5
   20a7e:	462b      	mov	r3, r5
   20a80:	df04      	svc	4
   20a82:	b01d      	add	sp, #116	@ 0x74
   20a84:	bdf0      	pop	{r4, r5, r6, r7, pc}
   20a86:	480e      	ldr	r0, [pc, #56]	@ (20ac0 <_ZN18complex_no_dynamic3app17h238f14a893eb200eE+0xa4>)
   20a88:	2608      	movs	r6, #8
   20a8a:	4631      	mov	r1, r6
   20a8c:	462a      	mov	r2, r5
   20a8e:	462b      	mov	r3, r5
   20a90:	df03      	svc	3
   20a92:	480b      	ldr	r0, [pc, #44]	@ (20ac0 <_ZN18complex_no_dynamic3app17h238f14a893eb200eE+0xa4>)
   20a94:	4631      	mov	r1, r6
   20a96:	462a      	mov	r2, r5
   20a98:	462b      	mov	r3, r5
   20a9a:	df03      	svc	3
   20a9c:	1c60      	adds	r0, r4, #1
   20a9e:	a910      	add	r1, sp, #64	@ 0x40
   20aa0:	2232      	movs	r2, #50	@ 0x32
   20aa2:	f006 fa0c 	bl	26ebe <__aeabi_memcpy>
   20aa6:	7025      	strb	r5, [r4, #0]
   20aa8:	4c05      	ldr	r4, [pc, #20]	@ (20ac0 <_ZN18complex_no_dynamic3app17h238f14a893eb200eE+0xa4>)
   20aaa:	4620      	mov	r0, r4
   20aac:	4631      	mov	r1, r6
   20aae:	462a      	mov	r2, r5
   20ab0:	462b      	mov	r3, r5
   20ab2:	df03      	svc	3
   20ab4:	2106      	movs	r1, #6
   20ab6:	4620      	mov	r0, r4
   20ab8:	462a      	mov	r2, r5
   20aba:	462b      	mov	r3, r5
   20abc:	df04      	svc	4
   20abe:	e7e0      	b.n	20a82 <_ZN18complex_no_dynamic3app17h238f14a893eb200eE+0x66>
   20ac0:	00001b1e 	.word	0x00001b1e

00020ac4 <_ZN18complex_no_dynamic3app17h23a25a5e8ed57e51E>:
   20ac4:	b5f0      	push	{r4, r5, r6, r7, lr}
   20ac6:	af03      	add	r7, sp, #12
   20ac8:	b097      	sub	sp, #92	@ 0x5c
   20aca:	4604      	mov	r4, r0
   20acc:	ad01      	add	r5, sp, #4
   20ace:	2612      	movs	r6, #18
   20ad0:	4628      	mov	r0, r5
   20ad2:	4632      	mov	r2, r6
   20ad4:	f006 f9f3 	bl	26ebe <__aeabi_memcpy>
   20ad8:	a806      	add	r0, sp, #24
   20ada:	2144      	movs	r1, #68	@ 0x44
   20adc:	f006 f842 	bl	26b64 <__aeabi_memclr4>
   20ae0:	4821      	ldr	r0, [pc, #132]	@ (20b68 <_ZN18complex_no_dynamic3app17h23a25a5e8ed57e51E+0xa4>)
   20ae2:	2102      	movs	r1, #2
   20ae4:	462a      	mov	r2, r5
   20ae6:	4633      	mov	r3, r6
   20ae8:	df04      	svc	4
   20aea:	2802      	cmp	r0, #2
   20aec:	d00e      	beq.n	20b0c <_ZN18complex_no_dynamic3app17h23a25a5e8ed57e51E+0x48>
   20aee:	481e      	ldr	r0, [pc, #120]	@ (20b68 <_ZN18complex_no_dynamic3app17h23a25a5e8ed57e51E+0xa4>)
   20af0:	2109      	movs	r1, #9
   20af2:	aa06      	add	r2, sp, #24
   20af4:	2344      	movs	r3, #68	@ 0x44
   20af6:	df03      	svc	3
   20af8:	2802      	cmp	r0, #2
   20afa:	d007      	beq.n	20b0c <_ZN18complex_no_dynamic3app17h23a25a5e8ed57e51E+0x48>
   20afc:	481a      	ldr	r0, [pc, #104]	@ (20b68 <_ZN18complex_no_dynamic3app17h23a25a5e8ed57e51E+0xa4>)
   20afe:	2102      	movs	r1, #2
   20b00:	2209      	movs	r2, #9
   20b02:	2500      	movs	r5, #0
   20b04:	462b      	mov	r3, r5
   20b06:	df02      	svc	2
   20b08:	287f      	cmp	r0, #127	@ 0x7f
   20b0a:	d810      	bhi.n	20b2e <_ZN18complex_no_dynamic3app17h23a25a5e8ed57e51E+0x6a>
   20b0c:	2001      	movs	r0, #1
   20b0e:	7020      	strb	r0, [r4, #0]
   20b10:	6061      	str	r1, [r4, #4]
   20b12:	4c15      	ldr	r4, [pc, #84]	@ (20b68 <_ZN18complex_no_dynamic3app17h23a25a5e8ed57e51E+0xa4>)
   20b14:	2109      	movs	r1, #9
   20b16:	2500      	movs	r5, #0
   20b18:	4620      	mov	r0, r4
   20b1a:	462a      	mov	r2, r5
   20b1c:	462b      	mov	r3, r5
   20b1e:	df03      	svc	3
   20b20:	2102      	movs	r1, #2
   20b22:	4620      	mov	r0, r4
   20b24:	462a      	mov	r2, r5
   20b26:	462b      	mov	r3, r5
   20b28:	df04      	svc	4
   20b2a:	b017      	add	sp, #92	@ 0x5c
   20b2c:	bdf0      	pop	{r4, r5, r6, r7, pc}
   20b2e:	480e      	ldr	r0, [pc, #56]	@ (20b68 <_ZN18complex_no_dynamic3app17h23a25a5e8ed57e51E+0xa4>)
   20b30:	2609      	movs	r6, #9
   20b32:	4631      	mov	r1, r6
   20b34:	462a      	mov	r2, r5
   20b36:	462b      	mov	r3, r5
   20b38:	df03      	svc	3
   20b3a:	480b      	ldr	r0, [pc, #44]	@ (20b68 <_ZN18complex_no_dynamic3app17h23a25a5e8ed57e51E+0xa4>)
   20b3c:	4631      	mov	r1, r6
   20b3e:	462a      	mov	r2, r5
   20b40:	462b      	mov	r3, r5
   20b42:	df03      	svc	3
   20b44:	1c60      	adds	r0, r4, #1
   20b46:	a906      	add	r1, sp, #24
   20b48:	2244      	movs	r2, #68	@ 0x44
   20b4a:	f006 f9b8 	bl	26ebe <__aeabi_memcpy>
   20b4e:	7025      	strb	r5, [r4, #0]
   20b50:	4c05      	ldr	r4, [pc, #20]	@ (20b68 <_ZN18complex_no_dynamic3app17h23a25a5e8ed57e51E+0xa4>)
   20b52:	4620      	mov	r0, r4
   20b54:	4631      	mov	r1, r6
   20b56:	462a      	mov	r2, r5
   20b58:	462b      	mov	r3, r5
   20b5a:	df03      	svc	3
   20b5c:	2102      	movs	r1, #2
   20b5e:	4620      	mov	r0, r4
   20b60:	462a      	mov	r2, r5
   20b62:	462b      	mov	r3, r5
   20b64:	df04      	svc	4
   20b66:	e7e0      	b.n	20b2a <_ZN18complex_no_dynamic3app17h23a25a5e8ed57e51E+0x66>
   20b68:	00002432 	.word	0x00002432

00020b6c <_ZN18complex_no_dynamic3app17h25cb4ebc698a706fE>:
   20b6c:	b5f0      	push	{r4, r5, r6, r7, lr}
   20b6e:	af03      	add	r7, sp, #12
   20b70:	b095      	sub	sp, #84	@ 0x54
   20b72:	4604      	mov	r4, r0
   20b74:	466d      	mov	r5, sp
   20b76:	262c      	movs	r6, #44	@ 0x2c
   20b78:	4628      	mov	r0, r5
   20b7a:	4632      	mov	r2, r6
   20b7c:	f006 f99f 	bl	26ebe <__aeabi_memcpy>
   20b80:	a80b      	add	r0, sp, #44	@ 0x2c
   20b82:	2127      	movs	r1, #39	@ 0x27
   20b84:	f005 ffee 	bl	26b64 <__aeabi_memclr4>
   20b88:	4821      	ldr	r0, [pc, #132]	@ (20c10 <_ZN18complex_no_dynamic3app17h25cb4ebc698a706fE+0xa4>)
   20b8a:	2104      	movs	r1, #4
   20b8c:	462a      	mov	r2, r5
   20b8e:	4633      	mov	r3, r6
   20b90:	df04      	svc	4
   20b92:	2802      	cmp	r0, #2
   20b94:	d00e      	beq.n	20bb4 <_ZN18complex_no_dynamic3app17h25cb4ebc698a706fE+0x48>
   20b96:	481e      	ldr	r0, [pc, #120]	@ (20c10 <_ZN18complex_no_dynamic3app17h25cb4ebc698a706fE+0xa4>)
   20b98:	2103      	movs	r1, #3
   20b9a:	aa0b      	add	r2, sp, #44	@ 0x2c
   20b9c:	2327      	movs	r3, #39	@ 0x27
   20b9e:	df03      	svc	3
   20ba0:	2802      	cmp	r0, #2
   20ba2:	d007      	beq.n	20bb4 <_ZN18complex_no_dynamic3app17h25cb4ebc698a706fE+0x48>
   20ba4:	481a      	ldr	r0, [pc, #104]	@ (20c10 <_ZN18complex_no_dynamic3app17h25cb4ebc698a706fE+0xa4>)
   20ba6:	2104      	movs	r1, #4
   20ba8:	2203      	movs	r2, #3
   20baa:	2500      	movs	r5, #0
   20bac:	462b      	mov	r3, r5
   20bae:	df02      	svc	2
   20bb0:	287f      	cmp	r0, #127	@ 0x7f
   20bb2:	d810      	bhi.n	20bd6 <_ZN18complex_no_dynamic3app17h25cb4ebc698a706fE+0x6a>
   20bb4:	2001      	movs	r0, #1
   20bb6:	7020      	strb	r0, [r4, #0]
   20bb8:	6061      	str	r1, [r4, #4]
   20bba:	4c15      	ldr	r4, [pc, #84]	@ (20c10 <_ZN18complex_no_dynamic3app17h25cb4ebc698a706fE+0xa4>)
   20bbc:	2103      	movs	r1, #3
   20bbe:	2500      	movs	r5, #0
   20bc0:	4620      	mov	r0, r4
   20bc2:	462a      	mov	r2, r5
   20bc4:	462b      	mov	r3, r5
   20bc6:	df03      	svc	3
   20bc8:	2104      	movs	r1, #4
   20bca:	4620      	mov	r0, r4
   20bcc:	462a      	mov	r2, r5
   20bce:	462b      	mov	r3, r5
   20bd0:	df04      	svc	4
   20bd2:	b015      	add	sp, #84	@ 0x54
   20bd4:	bdf0      	pop	{r4, r5, r6, r7, pc}
   20bd6:	480e      	ldr	r0, [pc, #56]	@ (20c10 <_ZN18complex_no_dynamic3app17h25cb4ebc698a706fE+0xa4>)
   20bd8:	2603      	movs	r6, #3
   20bda:	4631      	mov	r1, r6
   20bdc:	462a      	mov	r2, r5
   20bde:	462b      	mov	r3, r5
   20be0:	df03      	svc	3
   20be2:	480b      	ldr	r0, [pc, #44]	@ (20c10 <_ZN18complex_no_dynamic3app17h25cb4ebc698a706fE+0xa4>)
   20be4:	4631      	mov	r1, r6
   20be6:	462a      	mov	r2, r5
   20be8:	462b      	mov	r3, r5
   20bea:	df03      	svc	3
   20bec:	1c60      	adds	r0, r4, #1
   20bee:	a90b      	add	r1, sp, #44	@ 0x2c
   20bf0:	2227      	movs	r2, #39	@ 0x27
   20bf2:	f006 f964 	bl	26ebe <__aeabi_memcpy>
   20bf6:	7025      	strb	r5, [r4, #0]
   20bf8:	4c05      	ldr	r4, [pc, #20]	@ (20c10 <_ZN18complex_no_dynamic3app17h25cb4ebc698a706fE+0xa4>)
   20bfa:	4620      	mov	r0, r4
   20bfc:	4631      	mov	r1, r6
   20bfe:	462a      	mov	r2, r5
   20c00:	462b      	mov	r3, r5
   20c02:	df03      	svc	3
   20c04:	2104      	movs	r1, #4
   20c06:	4620      	mov	r0, r4
   20c08:	462a      	mov	r2, r5
   20c0a:	462b      	mov	r3, r5
   20c0c:	df04      	svc	4
   20c0e:	e7e0      	b.n	20bd2 <_ZN18complex_no_dynamic3app17h25cb4ebc698a706fE+0x66>
   20c10:	000011b5 	.word	0x000011b5

00020c14 <_ZN18complex_no_dynamic3app17h27cc09598636f0e8E>:
   20c14:	b5f0      	push	{r4, r5, r6, r7, lr}
   20c16:	af03      	add	r7, sp, #12
   20c18:	b0a9      	sub	sp, #164	@ 0xa4
   20c1a:	4604      	mov	r4, r0
   20c1c:	ad01      	add	r5, sp, #4
   20c1e:	265d      	movs	r6, #93	@ 0x5d
   20c20:	4628      	mov	r0, r5
   20c22:	4632      	mov	r2, r6
   20c24:	f006 f94b 	bl	26ebe <__aeabi_memcpy>
   20c28:	a819      	add	r0, sp, #100	@ 0x64
   20c2a:	2140      	movs	r1, #64	@ 0x40
   20c2c:	f005 ff9a 	bl	26b64 <__aeabi_memclr4>
   20c30:	4821      	ldr	r0, [pc, #132]	@ (20cb8 <_ZN18complex_no_dynamic3app17h27cc09598636f0e8E+0xa4>)
   20c32:	2108      	movs	r1, #8
   20c34:	462a      	mov	r2, r5
   20c36:	4633      	mov	r3, r6
   20c38:	df04      	svc	4
   20c3a:	2802      	cmp	r0, #2
   20c3c:	d00e      	beq.n	20c5c <_ZN18complex_no_dynamic3app17h27cc09598636f0e8E+0x48>
   20c3e:	481e      	ldr	r0, [pc, #120]	@ (20cb8 <_ZN18complex_no_dynamic3app17h27cc09598636f0e8E+0xa4>)
   20c40:	2104      	movs	r1, #4
   20c42:	aa19      	add	r2, sp, #100	@ 0x64
   20c44:	2340      	movs	r3, #64	@ 0x40
   20c46:	df03      	svc	3
   20c48:	2802      	cmp	r0, #2
   20c4a:	d007      	beq.n	20c5c <_ZN18complex_no_dynamic3app17h27cc09598636f0e8E+0x48>
   20c4c:	481a      	ldr	r0, [pc, #104]	@ (20cb8 <_ZN18complex_no_dynamic3app17h27cc09598636f0e8E+0xa4>)
   20c4e:	2108      	movs	r1, #8
   20c50:	2204      	movs	r2, #4
   20c52:	2500      	movs	r5, #0
   20c54:	462b      	mov	r3, r5
   20c56:	df02      	svc	2
   20c58:	287f      	cmp	r0, #127	@ 0x7f
   20c5a:	d810      	bhi.n	20c7e <_ZN18complex_no_dynamic3app17h27cc09598636f0e8E+0x6a>
   20c5c:	2001      	movs	r0, #1
   20c5e:	7020      	strb	r0, [r4, #0]
   20c60:	6061      	str	r1, [r4, #4]
   20c62:	4c15      	ldr	r4, [pc, #84]	@ (20cb8 <_ZN18complex_no_dynamic3app17h27cc09598636f0e8E+0xa4>)
   20c64:	2104      	movs	r1, #4
   20c66:	2500      	movs	r5, #0
   20c68:	4620      	mov	r0, r4
   20c6a:	462a      	mov	r2, r5
   20c6c:	462b      	mov	r3, r5
   20c6e:	df03      	svc	3
   20c70:	2108      	movs	r1, #8
   20c72:	4620      	mov	r0, r4
   20c74:	462a      	mov	r2, r5
   20c76:	462b      	mov	r3, r5
   20c78:	df04      	svc	4
   20c7a:	b029      	add	sp, #164	@ 0xa4
   20c7c:	bdf0      	pop	{r4, r5, r6, r7, pc}
   20c7e:	480e      	ldr	r0, [pc, #56]	@ (20cb8 <_ZN18complex_no_dynamic3app17h27cc09598636f0e8E+0xa4>)
   20c80:	2604      	movs	r6, #4
   20c82:	4631      	mov	r1, r6
   20c84:	462a      	mov	r2, r5
   20c86:	462b      	mov	r3, r5
   20c88:	df03      	svc	3
   20c8a:	480b      	ldr	r0, [pc, #44]	@ (20cb8 <_ZN18complex_no_dynamic3app17h27cc09598636f0e8E+0xa4>)
   20c8c:	4631      	mov	r1, r6
   20c8e:	462a      	mov	r2, r5
   20c90:	462b      	mov	r3, r5
   20c92:	df03      	svc	3
   20c94:	1c60      	adds	r0, r4, #1
   20c96:	a919      	add	r1, sp, #100	@ 0x64
   20c98:	2240      	movs	r2, #64	@ 0x40
   20c9a:	f006 f910 	bl	26ebe <__aeabi_memcpy>
   20c9e:	7025      	strb	r5, [r4, #0]
   20ca0:	4c05      	ldr	r4, [pc, #20]	@ (20cb8 <_ZN18complex_no_dynamic3app17h27cc09598636f0e8E+0xa4>)
   20ca2:	4620      	mov	r0, r4
   20ca4:	4631      	mov	r1, r6
   20ca6:	462a      	mov	r2, r5
   20ca8:	462b      	mov	r3, r5
   20caa:	df03      	svc	3
   20cac:	2108      	movs	r1, #8
   20cae:	4620      	mov	r0, r4
   20cb0:	462a      	mov	r2, r5
   20cb2:	462b      	mov	r3, r5
   20cb4:	df04      	svc	4
   20cb6:	e7e0      	b.n	20c7a <_ZN18complex_no_dynamic3app17h27cc09598636f0e8E+0x66>
   20cb8:	00001028 	.word	0x00001028

00020cbc <_ZN18complex_no_dynamic3app17h28b4981ae781bb05E>:
   20cbc:	b5f0      	push	{r4, r5, r6, r7, lr}
   20cbe:	af03      	add	r7, sp, #12
   20cc0:	b09b      	sub	sp, #108	@ 0x6c
   20cc2:	4604      	mov	r4, r0
   20cc4:	466d      	mov	r5, sp
   20cc6:	261a      	movs	r6, #26
   20cc8:	4628      	mov	r0, r5
   20cca:	4632      	mov	r2, r6
   20ccc:	f006 f8f7 	bl	26ebe <__aeabi_memcpy>
   20cd0:	a807      	add	r0, sp, #28
   20cd2:	2150      	movs	r1, #80	@ 0x50
   20cd4:	f005 ff46 	bl	26b64 <__aeabi_memclr4>
   20cd8:	4821      	ldr	r0, [pc, #132]	@ (20d60 <_ZN18complex_no_dynamic3app17h28b4981ae781bb05E+0xa4>)
   20cda:	2107      	movs	r1, #7
   20cdc:	462a      	mov	r2, r5
   20cde:	4633      	mov	r3, r6
   20ce0:	df04      	svc	4
   20ce2:	2802      	cmp	r0, #2
   20ce4:	d00e      	beq.n	20d04 <_ZN18complex_no_dynamic3app17h28b4981ae781bb05E+0x48>
   20ce6:	481e      	ldr	r0, [pc, #120]	@ (20d60 <_ZN18complex_no_dynamic3app17h28b4981ae781bb05E+0xa4>)
   20ce8:	2104      	movs	r1, #4
   20cea:	aa07      	add	r2, sp, #28
   20cec:	2350      	movs	r3, #80	@ 0x50
   20cee:	df03      	svc	3
   20cf0:	2802      	cmp	r0, #2
   20cf2:	d007      	beq.n	20d04 <_ZN18complex_no_dynamic3app17h28b4981ae781bb05E+0x48>
   20cf4:	481a      	ldr	r0, [pc, #104]	@ (20d60 <_ZN18complex_no_dynamic3app17h28b4981ae781bb05E+0xa4>)
   20cf6:	2107      	movs	r1, #7
   20cf8:	2204      	movs	r2, #4
   20cfa:	2500      	movs	r5, #0
   20cfc:	462b      	mov	r3, r5
   20cfe:	df02      	svc	2
   20d00:	287f      	cmp	r0, #127	@ 0x7f
   20d02:	d810      	bhi.n	20d26 <_ZN18complex_no_dynamic3app17h28b4981ae781bb05E+0x6a>
   20d04:	2001      	movs	r0, #1
   20d06:	7020      	strb	r0, [r4, #0]
   20d08:	6061      	str	r1, [r4, #4]
   20d0a:	4c15      	ldr	r4, [pc, #84]	@ (20d60 <_ZN18complex_no_dynamic3app17h28b4981ae781bb05E+0xa4>)
   20d0c:	2104      	movs	r1, #4
   20d0e:	2500      	movs	r5, #0
   20d10:	4620      	mov	r0, r4
   20d12:	462a      	mov	r2, r5
   20d14:	462b      	mov	r3, r5
   20d16:	df03      	svc	3
   20d18:	2107      	movs	r1, #7
   20d1a:	4620      	mov	r0, r4
   20d1c:	462a      	mov	r2, r5
   20d1e:	462b      	mov	r3, r5
   20d20:	df04      	svc	4
   20d22:	b01b      	add	sp, #108	@ 0x6c
   20d24:	bdf0      	pop	{r4, r5, r6, r7, pc}
   20d26:	480e      	ldr	r0, [pc, #56]	@ (20d60 <_ZN18complex_no_dynamic3app17h28b4981ae781bb05E+0xa4>)
   20d28:	2604      	movs	r6, #4
   20d2a:	4631      	mov	r1, r6
   20d2c:	462a      	mov	r2, r5
   20d2e:	462b      	mov	r3, r5
   20d30:	df03      	svc	3
   20d32:	480b      	ldr	r0, [pc, #44]	@ (20d60 <_ZN18complex_no_dynamic3app17h28b4981ae781bb05E+0xa4>)
   20d34:	4631      	mov	r1, r6
   20d36:	462a      	mov	r2, r5
   20d38:	462b      	mov	r3, r5
   20d3a:	df03      	svc	3
   20d3c:	1c60      	adds	r0, r4, #1
   20d3e:	a907      	add	r1, sp, #28
   20d40:	2250      	movs	r2, #80	@ 0x50
   20d42:	f006 f8bc 	bl	26ebe <__aeabi_memcpy>
   20d46:	7025      	strb	r5, [r4, #0]
   20d48:	4c05      	ldr	r4, [pc, #20]	@ (20d60 <_ZN18complex_no_dynamic3app17h28b4981ae781bb05E+0xa4>)
   20d4a:	4620      	mov	r0, r4
   20d4c:	4631      	mov	r1, r6
   20d4e:	462a      	mov	r2, r5
   20d50:	462b      	mov	r3, r5
   20d52:	df03      	svc	3
   20d54:	2107      	movs	r1, #7
   20d56:	4620      	mov	r0, r4
   20d58:	462a      	mov	r2, r5
   20d5a:	462b      	mov	r3, r5
   20d5c:	df04      	svc	4
   20d5e:	e7e0      	b.n	20d22 <_ZN18complex_no_dynamic3app17h28b4981ae781bb05E+0x66>
   20d60:	00000aee 	.word	0x00000aee

00020d64 <_ZN18complex_no_dynamic3app17h2a0d42b7be75e862E>:
   20d64:	b5f0      	push	{r4, r5, r6, r7, lr}
   20d66:	af03      	add	r7, sp, #12
   20d68:	b097      	sub	sp, #92	@ 0x5c
   20d6a:	9001      	str	r0, [sp, #4]
   20d6c:	ae02      	add	r6, sp, #8
   20d6e:	2411      	movs	r4, #17
   20d70:	4630      	mov	r0, r6
   20d72:	4622      	mov	r2, r4
   20d74:	f006 f8a3 	bl	26ebe <__aeabi_memcpy>
   20d78:	a807      	add	r0, sp, #28
   20d7a:	213f      	movs	r1, #63	@ 0x3f
   20d7c:	f005 fef2 	bl	26b64 <__aeabi_memclr4>
   20d80:	20cb      	movs	r0, #203	@ 0xcb
   20d82:	0105      	lsls	r5, r0, #4
   20d84:	2107      	movs	r1, #7
   20d86:	4628      	mov	r0, r5
   20d88:	4632      	mov	r2, r6
   20d8a:	4623      	mov	r3, r4
   20d8c:	df04      	svc	4
   20d8e:	2802      	cmp	r0, #2
   20d90:	d00e      	beq.n	20db0 <_ZN18complex_no_dynamic3app17h2a0d42b7be75e862E+0x4c>
   20d92:	2104      	movs	r1, #4
   20d94:	aa07      	add	r2, sp, #28
   20d96:	233f      	movs	r3, #63	@ 0x3f
   20d98:	4628      	mov	r0, r5
   20d9a:	df03      	svc	3
   20d9c:	2802      	cmp	r0, #2
   20d9e:	d007      	beq.n	20db0 <_ZN18complex_no_dynamic3app17h2a0d42b7be75e862E+0x4c>
   20da0:	2107      	movs	r1, #7
   20da2:	2204      	movs	r2, #4
   20da4:	2600      	movs	r6, #0
   20da6:	4628      	mov	r0, r5
   20da8:	4633      	mov	r3, r6
   20daa:	df02      	svc	2
   20dac:	287f      	cmp	r0, #127	@ 0x7f
   20dae:	d810      	bhi.n	20dd2 <_ZN18complex_no_dynamic3app17h2a0d42b7be75e862E+0x6e>
   20db0:	2001      	movs	r0, #1
   20db2:	9a01      	ldr	r2, [sp, #4]
   20db4:	7010      	strb	r0, [r2, #0]
   20db6:	6051      	str	r1, [r2, #4]
   20db8:	2104      	movs	r1, #4
   20dba:	2400      	movs	r4, #0
   20dbc:	4628      	mov	r0, r5
   20dbe:	4622      	mov	r2, r4
   20dc0:	4623      	mov	r3, r4
   20dc2:	df03      	svc	3
   20dc4:	2107      	movs	r1, #7
   20dc6:	4628      	mov	r0, r5
   20dc8:	4622      	mov	r2, r4
   20dca:	4623      	mov	r3, r4
   20dcc:	df04      	svc	4
   20dce:	b017      	add	sp, #92	@ 0x5c
   20dd0:	bdf0      	pop	{r4, r5, r6, r7, pc}
   20dd2:	2404      	movs	r4, #4
   20dd4:	9400      	str	r4, [sp, #0]
   20dd6:	4628      	mov	r0, r5
   20dd8:	4621      	mov	r1, r4
   20dda:	4632      	mov	r2, r6
   20ddc:	4633      	mov	r3, r6
   20dde:	df03      	svc	3
   20de0:	4628      	mov	r0, r5
   20de2:	4621      	mov	r1, r4
   20de4:	4632      	mov	r2, r6
   20de6:	4633      	mov	r3, r6
   20de8:	df03      	svc	3
   20dea:	9c01      	ldr	r4, [sp, #4]
   20dec:	1c60      	adds	r0, r4, #1
   20dee:	a907      	add	r1, sp, #28
   20df0:	223f      	movs	r2, #63	@ 0x3f
   20df2:	f006 f864 	bl	26ebe <__aeabi_memcpy>
   20df6:	7026      	strb	r6, [r4, #0]
   20df8:	4628      	mov	r0, r5
   20dfa:	9900      	ldr	r1, [sp, #0]
   20dfc:	4632      	mov	r2, r6
   20dfe:	4633      	mov	r3, r6
   20e00:	df03      	svc	3
   20e02:	2107      	movs	r1, #7
   20e04:	4628      	mov	r0, r5
   20e06:	4632      	mov	r2, r6
   20e08:	4633      	mov	r3, r6
   20e0a:	df04      	svc	4
   20e0c:	e7df      	b.n	20dce <_ZN18complex_no_dynamic3app17h2a0d42b7be75e862E+0x6a>
   20e0e:	d4d4      	bmi.n	20dba <_ZN18complex_no_dynamic3app17h2a0d42b7be75e862E+0x56>

00020e10 <_ZN18complex_no_dynamic3app17h2b2f27df6c44a9d8E>:
   20e10:	b5f0      	push	{r4, r5, r6, r7, lr}
   20e12:	af03      	add	r7, sp, #12
   20e14:	b093      	sub	sp, #76	@ 0x4c
   20e16:	4604      	mov	r4, r0
   20e18:	ad01      	add	r5, sp, #4
   20e1a:	2627      	movs	r6, #39	@ 0x27
   20e1c:	4628      	mov	r0, r5
   20e1e:	4632      	mov	r2, r6
   20e20:	f006 f84d 	bl	26ebe <__aeabi_memcpy>
   20e24:	a80b      	add	r0, sp, #44	@ 0x2c
   20e26:	211e      	movs	r1, #30
   20e28:	f005 fe9c 	bl	26b64 <__aeabi_memclr4>
   20e2c:	4822      	ldr	r0, [pc, #136]	@ (20eb8 <_ZN18complex_no_dynamic3app17h2b2f27df6c44a9d8E+0xa8>)
   20e2e:	2103      	movs	r1, #3
   20e30:	462a      	mov	r2, r5
   20e32:	4633      	mov	r3, r6
   20e34:	df04      	svc	4
   20e36:	2802      	cmp	r0, #2
   20e38:	d00e      	beq.n	20e58 <_ZN18complex_no_dynamic3app17h2b2f27df6c44a9d8E+0x48>
   20e3a:	481f      	ldr	r0, [pc, #124]	@ (20eb8 <_ZN18complex_no_dynamic3app17h2b2f27df6c44a9d8E+0xa8>)
   20e3c:	2103      	movs	r1, #3
   20e3e:	aa0b      	add	r2, sp, #44	@ 0x2c
   20e40:	231e      	movs	r3, #30
   20e42:	df03      	svc	3
   20e44:	2802      	cmp	r0, #2
   20e46:	d007      	beq.n	20e58 <_ZN18complex_no_dynamic3app17h2b2f27df6c44a9d8E+0x48>
   20e48:	481b      	ldr	r0, [pc, #108]	@ (20eb8 <_ZN18complex_no_dynamic3app17h2b2f27df6c44a9d8E+0xa8>)
   20e4a:	2103      	movs	r1, #3
   20e4c:	2500      	movs	r5, #0
   20e4e:	460a      	mov	r2, r1
   20e50:	462b      	mov	r3, r5
   20e52:	df02      	svc	2
   20e54:	287f      	cmp	r0, #127	@ 0x7f
   20e56:	d811      	bhi.n	20e7c <_ZN18complex_no_dynamic3app17h2b2f27df6c44a9d8E+0x6c>
   20e58:	2001      	movs	r0, #1
   20e5a:	7020      	strb	r0, [r4, #0]
   20e5c:	6061      	str	r1, [r4, #4]
   20e5e:	4c16      	ldr	r4, [pc, #88]	@ (20eb8 <_ZN18complex_no_dynamic3app17h2b2f27df6c44a9d8E+0xa8>)
   20e60:	2503      	movs	r5, #3
   20e62:	2600      	movs	r6, #0
   20e64:	4620      	mov	r0, r4
   20e66:	4629      	mov	r1, r5
   20e68:	4632      	mov	r2, r6
   20e6a:	4633      	mov	r3, r6
   20e6c:	df03      	svc	3
   20e6e:	4620      	mov	r0, r4
   20e70:	4629      	mov	r1, r5
   20e72:	4632      	mov	r2, r6
   20e74:	4633      	mov	r3, r6
   20e76:	df04      	svc	4
   20e78:	b013      	add	sp, #76	@ 0x4c
   20e7a:	bdf0      	pop	{r4, r5, r6, r7, pc}
   20e7c:	480e      	ldr	r0, [pc, #56]	@ (20eb8 <_ZN18complex_no_dynamic3app17h2b2f27df6c44a9d8E+0xa8>)
   20e7e:	2603      	movs	r6, #3
   20e80:	4631      	mov	r1, r6
   20e82:	462a      	mov	r2, r5
   20e84:	462b      	mov	r3, r5
   20e86:	df03      	svc	3
   20e88:	480b      	ldr	r0, [pc, #44]	@ (20eb8 <_ZN18complex_no_dynamic3app17h2b2f27df6c44a9d8E+0xa8>)
   20e8a:	4631      	mov	r1, r6
   20e8c:	462a      	mov	r2, r5
   20e8e:	462b      	mov	r3, r5
   20e90:	df03      	svc	3
   20e92:	1c60      	adds	r0, r4, #1
   20e94:	a90b      	add	r1, sp, #44	@ 0x2c
   20e96:	221e      	movs	r2, #30
   20e98:	f006 f811 	bl	26ebe <__aeabi_memcpy>
   20e9c:	7025      	strb	r5, [r4, #0]
   20e9e:	4c06      	ldr	r4, [pc, #24]	@ (20eb8 <_ZN18complex_no_dynamic3app17h2b2f27df6c44a9d8E+0xa8>)
   20ea0:	4620      	mov	r0, r4
   20ea2:	4631      	mov	r1, r6
   20ea4:	462a      	mov	r2, r5
   20ea6:	462b      	mov	r3, r5
   20ea8:	df03      	svc	3
   20eaa:	4620      	mov	r0, r4
   20eac:	4631      	mov	r1, r6
   20eae:	462a      	mov	r2, r5
   20eb0:	462b      	mov	r3, r5
   20eb2:	df04      	svc	4
   20eb4:	e7e0      	b.n	20e78 <_ZN18complex_no_dynamic3app17h2b2f27df6c44a9d8E+0x68>
   20eb6:	46c0      	nop			@ (mov r8, r8)
   20eb8:	000010e2 	.word	0x000010e2

00020ebc <_ZN18complex_no_dynamic3app17h3680baa4c6cf7cc4E>:
   20ebc:	b5f0      	push	{r4, r5, r6, r7, lr}
   20ebe:	af03      	add	r7, sp, #12
   20ec0:	b095      	sub	sp, #84	@ 0x54
   20ec2:	4604      	mov	r4, r0
   20ec4:	466d      	mov	r5, sp
   20ec6:	263f      	movs	r6, #63	@ 0x3f
   20ec8:	4628      	mov	r0, r5
   20eca:	4632      	mov	r2, r6
   20ecc:	f005 fff7 	bl	26ebe <__aeabi_memcpy>
   20ed0:	a810      	add	r0, sp, #64	@ 0x40
   20ed2:	2111      	movs	r1, #17
   20ed4:	f005 fe46 	bl	26b64 <__aeabi_memclr4>
   20ed8:	4821      	ldr	r0, [pc, #132]	@ (20f60 <_ZN18complex_no_dynamic3app17h3680baa4c6cf7cc4E+0xa4>)
   20eda:	2104      	movs	r1, #4
   20edc:	462a      	mov	r2, r5
   20ede:	4633      	mov	r3, r6
   20ee0:	df04      	svc	4
   20ee2:	2802      	cmp	r0, #2
   20ee4:	d00e      	beq.n	20f04 <_ZN18complex_no_dynamic3app17h3680baa4c6cf7cc4E+0x48>
   20ee6:	481e      	ldr	r0, [pc, #120]	@ (20f60 <_ZN18complex_no_dynamic3app17h3680baa4c6cf7cc4E+0xa4>)
   20ee8:	2103      	movs	r1, #3
   20eea:	aa10      	add	r2, sp, #64	@ 0x40
   20eec:	2311      	movs	r3, #17
   20eee:	df03      	svc	3
   20ef0:	2802      	cmp	r0, #2
   20ef2:	d007      	beq.n	20f04 <_ZN18complex_no_dynamic3app17h3680baa4c6cf7cc4E+0x48>
   20ef4:	481a      	ldr	r0, [pc, #104]	@ (20f60 <_ZN18complex_no_dynamic3app17h3680baa4c6cf7cc4E+0xa4>)
   20ef6:	2104      	movs	r1, #4
   20ef8:	2203      	movs	r2, #3
   20efa:	2500      	movs	r5, #0
   20efc:	462b      	mov	r3, r5
   20efe:	df02      	svc	2
   20f00:	287f      	cmp	r0, #127	@ 0x7f
   20f02:	d810      	bhi.n	20f26 <_ZN18complex_no_dynamic3app17h3680baa4c6cf7cc4E+0x6a>
   20f04:	2001      	movs	r0, #1
   20f06:	7020      	strb	r0, [r4, #0]
   20f08:	6061      	str	r1, [r4, #4]
   20f0a:	4c15      	ldr	r4, [pc, #84]	@ (20f60 <_ZN18complex_no_dynamic3app17h3680baa4c6cf7cc4E+0xa4>)
   20f0c:	2103      	movs	r1, #3
   20f0e:	2500      	movs	r5, #0
   20f10:	4620      	mov	r0, r4
   20f12:	462a      	mov	r2, r5
   20f14:	462b      	mov	r3, r5
   20f16:	df03      	svc	3
   20f18:	2104      	movs	r1, #4
   20f1a:	4620      	mov	r0, r4
   20f1c:	462a      	mov	r2, r5
   20f1e:	462b      	mov	r3, r5
   20f20:	df04      	svc	4
   20f22:	b015      	add	sp, #84	@ 0x54
   20f24:	bdf0      	pop	{r4, r5, r6, r7, pc}
   20f26:	480e      	ldr	r0, [pc, #56]	@ (20f60 <_ZN18complex_no_dynamic3app17h3680baa4c6cf7cc4E+0xa4>)
   20f28:	2603      	movs	r6, #3
   20f2a:	4631      	mov	r1, r6
   20f2c:	462a      	mov	r2, r5
   20f2e:	462b      	mov	r3, r5
   20f30:	df03      	svc	3
   20f32:	480b      	ldr	r0, [pc, #44]	@ (20f60 <_ZN18complex_no_dynamic3app17h3680baa4c6cf7cc4E+0xa4>)
   20f34:	4631      	mov	r1, r6
   20f36:	462a      	mov	r2, r5
   20f38:	462b      	mov	r3, r5
   20f3a:	df03      	svc	3
   20f3c:	1c60      	adds	r0, r4, #1
   20f3e:	a910      	add	r1, sp, #64	@ 0x40
   20f40:	2211      	movs	r2, #17
   20f42:	f005 ffbc 	bl	26ebe <__aeabi_memcpy>
   20f46:	7025      	strb	r5, [r4, #0]
   20f48:	4c05      	ldr	r4, [pc, #20]	@ (20f60 <_ZN18complex_no_dynamic3app17h3680baa4c6cf7cc4E+0xa4>)
   20f4a:	4620      	mov	r0, r4
   20f4c:	4631      	mov	r1, r6
   20f4e:	462a      	mov	r2, r5
   20f50:	462b      	mov	r3, r5
   20f52:	df03      	svc	3
   20f54:	2104      	movs	r1, #4
   20f56:	4620      	mov	r0, r4
   20f58:	462a      	mov	r2, r5
   20f5a:	462b      	mov	r3, r5
   20f5c:	df04      	svc	4
   20f5e:	e7e0      	b.n	20f22 <_ZN18complex_no_dynamic3app17h3680baa4c6cf7cc4E+0x66>
   20f60:	000014d7 	.word	0x000014d7

00020f64 <_ZN18complex_no_dynamic3app17h37d75e8db13ad9e5E>:
   20f64:	b5f0      	push	{r4, r5, r6, r7, lr}
   20f66:	af03      	add	r7, sp, #12
   20f68:	b097      	sub	sp, #92	@ 0x5c
   20f6a:	4604      	mov	r4, r0
   20f6c:	466d      	mov	r5, sp
   20f6e:	261e      	movs	r6, #30
   20f70:	4628      	mov	r0, r5
   20f72:	4632      	mov	r2, r6
   20f74:	f005 ffa3 	bl	26ebe <__aeabi_memcpy>
   20f78:	a808      	add	r0, sp, #32
   20f7a:	213c      	movs	r1, #60	@ 0x3c
   20f7c:	f005 fdf2 	bl	26b64 <__aeabi_memclr4>
   20f80:	4821      	ldr	r0, [pc, #132]	@ (21008 <_ZN18complex_no_dynamic3app17h37d75e8db13ad9e5E+0xa4>)
   20f82:	2102      	movs	r1, #2
   20f84:	462a      	mov	r2, r5
   20f86:	4633      	mov	r3, r6
   20f88:	df04      	svc	4
   20f8a:	2802      	cmp	r0, #2
   20f8c:	d00e      	beq.n	20fac <_ZN18complex_no_dynamic3app17h37d75e8db13ad9e5E+0x48>
   20f8e:	481e      	ldr	r0, [pc, #120]	@ (21008 <_ZN18complex_no_dynamic3app17h37d75e8db13ad9e5E+0xa4>)
   20f90:	2103      	movs	r1, #3
   20f92:	aa08      	add	r2, sp, #32
   20f94:	233c      	movs	r3, #60	@ 0x3c
   20f96:	df03      	svc	3
   20f98:	2802      	cmp	r0, #2
   20f9a:	d007      	beq.n	20fac <_ZN18complex_no_dynamic3app17h37d75e8db13ad9e5E+0x48>
   20f9c:	481a      	ldr	r0, [pc, #104]	@ (21008 <_ZN18complex_no_dynamic3app17h37d75e8db13ad9e5E+0xa4>)
   20f9e:	2102      	movs	r1, #2
   20fa0:	2203      	movs	r2, #3
   20fa2:	2500      	movs	r5, #0
   20fa4:	462b      	mov	r3, r5
   20fa6:	df02      	svc	2
   20fa8:	287f      	cmp	r0, #127	@ 0x7f
   20faa:	d810      	bhi.n	20fce <_ZN18complex_no_dynamic3app17h37d75e8db13ad9e5E+0x6a>
   20fac:	2001      	movs	r0, #1
   20fae:	7020      	strb	r0, [r4, #0]
   20fb0:	6061      	str	r1, [r4, #4]
   20fb2:	4c15      	ldr	r4, [pc, #84]	@ (21008 <_ZN18complex_no_dynamic3app17h37d75e8db13ad9e5E+0xa4>)
   20fb4:	2103      	movs	r1, #3
   20fb6:	2500      	movs	r5, #0
   20fb8:	4620      	mov	r0, r4
   20fba:	462a      	mov	r2, r5
   20fbc:	462b      	mov	r3, r5
   20fbe:	df03      	svc	3
   20fc0:	2102      	movs	r1, #2
   20fc2:	4620      	mov	r0, r4
   20fc4:	462a      	mov	r2, r5
   20fc6:	462b      	mov	r3, r5
   20fc8:	df04      	svc	4
   20fca:	b017      	add	sp, #92	@ 0x5c
   20fcc:	bdf0      	pop	{r4, r5, r6, r7, pc}
   20fce:	480e      	ldr	r0, [pc, #56]	@ (21008 <_ZN18complex_no_dynamic3app17h37d75e8db13ad9e5E+0xa4>)
   20fd0:	2603      	movs	r6, #3
   20fd2:	4631      	mov	r1, r6
   20fd4:	462a      	mov	r2, r5
   20fd6:	462b      	mov	r3, r5
   20fd8:	df03      	svc	3
   20fda:	480b      	ldr	r0, [pc, #44]	@ (21008 <_ZN18complex_no_dynamic3app17h37d75e8db13ad9e5E+0xa4>)
   20fdc:	4631      	mov	r1, r6
   20fde:	462a      	mov	r2, r5
   20fe0:	462b      	mov	r3, r5
   20fe2:	df03      	svc	3
   20fe4:	1c60      	adds	r0, r4, #1
   20fe6:	a908      	add	r1, sp, #32
   20fe8:	223c      	movs	r2, #60	@ 0x3c
   20fea:	f005 ff68 	bl	26ebe <__aeabi_memcpy>
   20fee:	7025      	strb	r5, [r4, #0]
   20ff0:	4c05      	ldr	r4, [pc, #20]	@ (21008 <_ZN18complex_no_dynamic3app17h37d75e8db13ad9e5E+0xa4>)
   20ff2:	4620      	mov	r0, r4
   20ff4:	4631      	mov	r1, r6
   20ff6:	462a      	mov	r2, r5
   20ff8:	462b      	mov	r3, r5
   20ffa:	df03      	svc	3
   20ffc:	2102      	movs	r1, #2
   20ffe:	4620      	mov	r0, r4
   21000:	462a      	mov	r2, r5
   21002:	462b      	mov	r3, r5
   21004:	df04      	svc	4
   21006:	e7e0      	b.n	20fca <_ZN18complex_no_dynamic3app17h37d75e8db13ad9e5E+0x66>
   21008:	00000b3c 	.word	0x00000b3c

0002100c <_ZN18complex_no_dynamic3app17h381a43028e199004E>:
   2100c:	b5f0      	push	{r4, r5, r6, r7, lr}
   2100e:	af03      	add	r7, sp, #12
   21010:	b0a5      	sub	sp, #148	@ 0x94
   21012:	4604      	mov	r4, r0
   21014:	ad01      	add	r5, sp, #4
   21016:	262a      	movs	r6, #42	@ 0x2a
   21018:	4628      	mov	r0, r5
   2101a:	4632      	mov	r2, r6
   2101c:	f005 ff4f 	bl	26ebe <__aeabi_memcpy>
   21020:	a80c      	add	r0, sp, #48	@ 0x30
   21022:	2163      	movs	r1, #99	@ 0x63
   21024:	f005 fd9e 	bl	26b64 <__aeabi_memclr4>
   21028:	4821      	ldr	r0, [pc, #132]	@ (210b0 <_ZN18complex_no_dynamic3app17h381a43028e199004E+0xa4>)
   2102a:	2104      	movs	r1, #4
   2102c:	462a      	mov	r2, r5
   2102e:	4633      	mov	r3, r6
   21030:	df04      	svc	4
   21032:	2802      	cmp	r0, #2
   21034:	d00e      	beq.n	21054 <_ZN18complex_no_dynamic3app17h381a43028e199004E+0x48>
   21036:	481e      	ldr	r0, [pc, #120]	@ (210b0 <_ZN18complex_no_dynamic3app17h381a43028e199004E+0xa4>)
   21038:	2100      	movs	r1, #0
   2103a:	aa0c      	add	r2, sp, #48	@ 0x30
   2103c:	2363      	movs	r3, #99	@ 0x63
   2103e:	df03      	svc	3
   21040:	2802      	cmp	r0, #2
   21042:	d007      	beq.n	21054 <_ZN18complex_no_dynamic3app17h381a43028e199004E+0x48>
   21044:	481a      	ldr	r0, [pc, #104]	@ (210b0 <_ZN18complex_no_dynamic3app17h381a43028e199004E+0xa4>)
   21046:	2104      	movs	r1, #4
   21048:	2500      	movs	r5, #0
   2104a:	462a      	mov	r2, r5
   2104c:	462b      	mov	r3, r5
   2104e:	df02      	svc	2
   21050:	287f      	cmp	r0, #127	@ 0x7f
   21052:	d810      	bhi.n	21076 <_ZN18complex_no_dynamic3app17h381a43028e199004E+0x6a>
   21054:	2001      	movs	r0, #1
   21056:	7020      	strb	r0, [r4, #0]
   21058:	6061      	str	r1, [r4, #4]
   2105a:	4c15      	ldr	r4, [pc, #84]	@ (210b0 <_ZN18complex_no_dynamic3app17h381a43028e199004E+0xa4>)
   2105c:	2500      	movs	r5, #0
   2105e:	4620      	mov	r0, r4
   21060:	4629      	mov	r1, r5
   21062:	462a      	mov	r2, r5
   21064:	462b      	mov	r3, r5
   21066:	df03      	svc	3
   21068:	2104      	movs	r1, #4
   2106a:	4620      	mov	r0, r4
   2106c:	462a      	mov	r2, r5
   2106e:	462b      	mov	r3, r5
   21070:	df04      	svc	4
   21072:	b025      	add	sp, #148	@ 0x94
   21074:	bdf0      	pop	{r4, r5, r6, r7, pc}
   21076:	4e0e      	ldr	r6, [pc, #56]	@ (210b0 <_ZN18complex_no_dynamic3app17h381a43028e199004E+0xa4>)
   21078:	4630      	mov	r0, r6
   2107a:	4629      	mov	r1, r5
   2107c:	462a      	mov	r2, r5
   2107e:	462b      	mov	r3, r5
   21080:	df03      	svc	3
   21082:	4630      	mov	r0, r6
   21084:	4629      	mov	r1, r5
   21086:	462a      	mov	r2, r5
   21088:	462b      	mov	r3, r5
   2108a:	df03      	svc	3
   2108c:	1c60      	adds	r0, r4, #1
   2108e:	a90c      	add	r1, sp, #48	@ 0x30
   21090:	2263      	movs	r2, #99	@ 0x63
   21092:	f005 ff14 	bl	26ebe <__aeabi_memcpy>
   21096:	7025      	strb	r5, [r4, #0]
   21098:	4630      	mov	r0, r6
   2109a:	4629      	mov	r1, r5
   2109c:	462a      	mov	r2, r5
   2109e:	462b      	mov	r3, r5
   210a0:	df03      	svc	3
   210a2:	2104      	movs	r1, #4
   210a4:	4630      	mov	r0, r6
   210a6:	462a      	mov	r2, r5
   210a8:	462b      	mov	r3, r5
   210aa:	df04      	svc	4
   210ac:	e7e1      	b.n	21072 <_ZN18complex_no_dynamic3app17h381a43028e199004E+0x66>
   210ae:	46c0      	nop			@ (mov r8, r8)
   210b0:	00001c7c 	.word	0x00001c7c

000210b4 <_ZN18complex_no_dynamic3app17h389a286d50352c34E>:
   210b4:	b5f0      	push	{r4, r5, r6, r7, lr}
   210b6:	af03      	add	r7, sp, #12
   210b8:	b0a3      	sub	sp, #140	@ 0x8c
   210ba:	4604      	mov	r4, r0
   210bc:	ad01      	add	r5, sp, #4
   210be:	264f      	movs	r6, #79	@ 0x4f
   210c0:	4628      	mov	r0, r5
   210c2:	4632      	mov	r2, r6
   210c4:	f005 fefb 	bl	26ebe <__aeabi_memcpy>
   210c8:	a815      	add	r0, sp, #84	@ 0x54
   210ca:	2135      	movs	r1, #53	@ 0x35
   210cc:	f005 fd4a 	bl	26b64 <__aeabi_memclr4>
   210d0:	4821      	ldr	r0, [pc, #132]	@ (21158 <_ZN18complex_no_dynamic3app17h389a286d50352c34E+0xa4>)
   210d2:	2107      	movs	r1, #7
   210d4:	462a      	mov	r2, r5
   210d6:	4633      	mov	r3, r6
   210d8:	df04      	svc	4
   210da:	2802      	cmp	r0, #2
   210dc:	d00e      	beq.n	210fc <_ZN18complex_no_dynamic3app17h389a286d50352c34E+0x48>
   210de:	481e      	ldr	r0, [pc, #120]	@ (21158 <_ZN18complex_no_dynamic3app17h389a286d50352c34E+0xa4>)
   210e0:	2101      	movs	r1, #1
   210e2:	aa15      	add	r2, sp, #84	@ 0x54
   210e4:	2335      	movs	r3, #53	@ 0x35
   210e6:	df03      	svc	3
   210e8:	2802      	cmp	r0, #2
   210ea:	d007      	beq.n	210fc <_ZN18complex_no_dynamic3app17h389a286d50352c34E+0x48>
   210ec:	481a      	ldr	r0, [pc, #104]	@ (21158 <_ZN18complex_no_dynamic3app17h389a286d50352c34E+0xa4>)
   210ee:	2107      	movs	r1, #7
   210f0:	2201      	movs	r2, #1
   210f2:	2500      	movs	r5, #0
   210f4:	462b      	mov	r3, r5
   210f6:	df02      	svc	2
   210f8:	287f      	cmp	r0, #127	@ 0x7f
   210fa:	d810      	bhi.n	2111e <_ZN18complex_no_dynamic3app17h389a286d50352c34E+0x6a>
   210fc:	2201      	movs	r2, #1
   210fe:	7022      	strb	r2, [r4, #0]
   21100:	6061      	str	r1, [r4, #4]
   21102:	4c15      	ldr	r4, [pc, #84]	@ (21158 <_ZN18complex_no_dynamic3app17h389a286d50352c34E+0xa4>)
   21104:	2500      	movs	r5, #0
   21106:	4620      	mov	r0, r4
   21108:	4611      	mov	r1, r2
   2110a:	462a      	mov	r2, r5
   2110c:	462b      	mov	r3, r5
   2110e:	df03      	svc	3
   21110:	2107      	movs	r1, #7
   21112:	4620      	mov	r0, r4
   21114:	462a      	mov	r2, r5
   21116:	462b      	mov	r3, r5
   21118:	df04      	svc	4
   2111a:	b023      	add	sp, #140	@ 0x8c
   2111c:	bdf0      	pop	{r4, r5, r6, r7, pc}
   2111e:	480e      	ldr	r0, [pc, #56]	@ (21158 <_ZN18complex_no_dynamic3app17h389a286d50352c34E+0xa4>)
   21120:	2601      	movs	r6, #1
   21122:	4631      	mov	r1, r6
   21124:	462a      	mov	r2, r5
   21126:	462b      	mov	r3, r5
   21128:	df03      	svc	3
   2112a:	480b      	ldr	r0, [pc, #44]	@ (21158 <_ZN18complex_no_dynamic3app17h389a286d50352c34E+0xa4>)
   2112c:	4631      	mov	r1, r6
   2112e:	462a      	mov	r2, r5
   21130:	462b      	mov	r3, r5
   21132:	df03      	svc	3
   21134:	1c60      	adds	r0, r4, #1
   21136:	a915      	add	r1, sp, #84	@ 0x54
   21138:	2235      	movs	r2, #53	@ 0x35
   2113a:	f005 fec0 	bl	26ebe <__aeabi_memcpy>
   2113e:	7025      	strb	r5, [r4, #0]
   21140:	4c05      	ldr	r4, [pc, #20]	@ (21158 <_ZN18complex_no_dynamic3app17h389a286d50352c34E+0xa4>)
   21142:	4620      	mov	r0, r4
   21144:	4631      	mov	r1, r6
   21146:	462a      	mov	r2, r5
   21148:	462b      	mov	r3, r5
   2114a:	df03      	svc	3
   2114c:	2107      	movs	r1, #7
   2114e:	4620      	mov	r0, r4
   21150:	462a      	mov	r2, r5
   21152:	462b      	mov	r3, r5
   21154:	df04      	svc	4
   21156:	e7e0      	b.n	2111a <_ZN18complex_no_dynamic3app17h389a286d50352c34E+0x66>
   21158:	000016d7 	.word	0x000016d7

0002115c <_ZN18complex_no_dynamic3app17h3b717e1c980e4639E>:
   2115c:	b5f0      	push	{r4, r5, r6, r7, lr}
   2115e:	af03      	add	r7, sp, #12
   21160:	b095      	sub	sp, #84	@ 0x54
   21162:	4604      	mov	r4, r0
   21164:	466d      	mov	r5, sp
   21166:	262c      	movs	r6, #44	@ 0x2c
   21168:	4628      	mov	r0, r5
   2116a:	4632      	mov	r2, r6
   2116c:	f005 fea7 	bl	26ebe <__aeabi_memcpy>
   21170:	a80b      	add	r0, sp, #44	@ 0x2c
   21172:	2125      	movs	r1, #37	@ 0x25
   21174:	f005 fcf6 	bl	26b64 <__aeabi_memclr4>
   21178:	4821      	ldr	r0, [pc, #132]	@ (21200 <_ZN18complex_no_dynamic3app17h3b717e1c980e4639E+0xa4>)
   2117a:	2103      	movs	r1, #3
   2117c:	462a      	mov	r2, r5
   2117e:	4633      	mov	r3, r6
   21180:	df04      	svc	4
   21182:	2802      	cmp	r0, #2
   21184:	d00e      	beq.n	211a4 <_ZN18complex_no_dynamic3app17h3b717e1c980e4639E+0x48>
   21186:	481e      	ldr	r0, [pc, #120]	@ (21200 <_ZN18complex_no_dynamic3app17h3b717e1c980e4639E+0xa4>)
   21188:	2100      	movs	r1, #0
   2118a:	aa0b      	add	r2, sp, #44	@ 0x2c
   2118c:	2325      	movs	r3, #37	@ 0x25
   2118e:	df03      	svc	3
   21190:	2802      	cmp	r0, #2
   21192:	d007      	beq.n	211a4 <_ZN18complex_no_dynamic3app17h3b717e1c980e4639E+0x48>
   21194:	481a      	ldr	r0, [pc, #104]	@ (21200 <_ZN18complex_no_dynamic3app17h3b717e1c980e4639E+0xa4>)
   21196:	2103      	movs	r1, #3
   21198:	2500      	movs	r5, #0
   2119a:	462a      	mov	r2, r5
   2119c:	462b      	mov	r3, r5
   2119e:	df02      	svc	2
   211a0:	287f      	cmp	r0, #127	@ 0x7f
   211a2:	d810      	bhi.n	211c6 <_ZN18complex_no_dynamic3app17h3b717e1c980e4639E+0x6a>
   211a4:	2001      	movs	r0, #1
   211a6:	7020      	strb	r0, [r4, #0]
   211a8:	6061      	str	r1, [r4, #4]
   211aa:	4c15      	ldr	r4, [pc, #84]	@ (21200 <_ZN18complex_no_dynamic3app17h3b717e1c980e4639E+0xa4>)
   211ac:	2500      	movs	r5, #0
   211ae:	4620      	mov	r0, r4
   211b0:	4629      	mov	r1, r5
   211b2:	462a      	mov	r2, r5
   211b4:	462b      	mov	r3, r5
   211b6:	df03      	svc	3
   211b8:	2103      	movs	r1, #3
   211ba:	4620      	mov	r0, r4
   211bc:	462a      	mov	r2, r5
   211be:	462b      	mov	r3, r5
   211c0:	df04      	svc	4
   211c2:	b015      	add	sp, #84	@ 0x54
   211c4:	bdf0      	pop	{r4, r5, r6, r7, pc}
   211c6:	4e0e      	ldr	r6, [pc, #56]	@ (21200 <_ZN18complex_no_dynamic3app17h3b717e1c980e4639E+0xa4>)
   211c8:	4630      	mov	r0, r6
   211ca:	4629      	mov	r1, r5
   211cc:	462a      	mov	r2, r5
   211ce:	462b      	mov	r3, r5
   211d0:	df03      	svc	3
   211d2:	4630      	mov	r0, r6
   211d4:	4629      	mov	r1, r5
   211d6:	462a      	mov	r2, r5
   211d8:	462b      	mov	r3, r5
   211da:	df03      	svc	3
   211dc:	1c60      	adds	r0, r4, #1
   211de:	a90b      	add	r1, sp, #44	@ 0x2c
   211e0:	2225      	movs	r2, #37	@ 0x25
   211e2:	f005 fe6c 	bl	26ebe <__aeabi_memcpy>
   211e6:	7025      	strb	r5, [r4, #0]
   211e8:	4630      	mov	r0, r6
   211ea:	4629      	mov	r1, r5
   211ec:	462a      	mov	r2, r5
   211ee:	462b      	mov	r3, r5
   211f0:	df03      	svc	3
   211f2:	2103      	movs	r1, #3
   211f4:	4630      	mov	r0, r6
   211f6:	462a      	mov	r2, r5
   211f8:	462b      	mov	r3, r5
   211fa:	df04      	svc	4
   211fc:	e7e1      	b.n	211c2 <_ZN18complex_no_dynamic3app17h3b717e1c980e4639E+0x66>
   211fe:	46c0      	nop			@ (mov r8, r8)
   21200:	0000077f 	.word	0x0000077f

00021204 <_ZN18complex_no_dynamic3app17h416534f1a6e310e5E>:
   21204:	b5f0      	push	{r4, r5, r6, r7, lr}
   21206:	af03      	add	r7, sp, #12
   21208:	b0a7      	sub	sp, #156	@ 0x9c
   2120a:	4604      	mov	r4, r0
   2120c:	466d      	mov	r5, sp
   2120e:	263a      	movs	r6, #58	@ 0x3a
   21210:	4628      	mov	r0, r5
   21212:	4632      	mov	r2, r6
   21214:	f005 fe53 	bl	26ebe <__aeabi_memcpy>
   21218:	a80f      	add	r0, sp, #60	@ 0x3c
   2121a:	215d      	movs	r1, #93	@ 0x5d
   2121c:	f005 fca2 	bl	26b64 <__aeabi_memclr4>
   21220:	4821      	ldr	r0, [pc, #132]	@ (212a8 <_ZN18complex_no_dynamic3app17h416534f1a6e310e5E+0xa4>)
   21222:	2100      	movs	r1, #0
   21224:	462a      	mov	r2, r5
   21226:	4633      	mov	r3, r6
   21228:	df04      	svc	4
   2122a:	2802      	cmp	r0, #2
   2122c:	d00e      	beq.n	2124c <_ZN18complex_no_dynamic3app17h416534f1a6e310e5E+0x48>
   2122e:	481e      	ldr	r0, [pc, #120]	@ (212a8 <_ZN18complex_no_dynamic3app17h416534f1a6e310e5E+0xa4>)
   21230:	2105      	movs	r1, #5
   21232:	aa0f      	add	r2, sp, #60	@ 0x3c
   21234:	235d      	movs	r3, #93	@ 0x5d
   21236:	df03      	svc	3
   21238:	2802      	cmp	r0, #2
   2123a:	d007      	beq.n	2124c <_ZN18complex_no_dynamic3app17h416534f1a6e310e5E+0x48>
   2123c:	481a      	ldr	r0, [pc, #104]	@ (212a8 <_ZN18complex_no_dynamic3app17h416534f1a6e310e5E+0xa4>)
   2123e:	2205      	movs	r2, #5
   21240:	2500      	movs	r5, #0
   21242:	4629      	mov	r1, r5
   21244:	462b      	mov	r3, r5
   21246:	df02      	svc	2
   21248:	287f      	cmp	r0, #127	@ 0x7f
   2124a:	d810      	bhi.n	2126e <_ZN18complex_no_dynamic3app17h416534f1a6e310e5E+0x6a>
   2124c:	2001      	movs	r0, #1
   2124e:	7020      	strb	r0, [r4, #0]
   21250:	6061      	str	r1, [r4, #4]
   21252:	4c15      	ldr	r4, [pc, #84]	@ (212a8 <_ZN18complex_no_dynamic3app17h416534f1a6e310e5E+0xa4>)
   21254:	2105      	movs	r1, #5
   21256:	2500      	movs	r5, #0
   21258:	4620      	mov	r0, r4
   2125a:	462a      	mov	r2, r5
   2125c:	462b      	mov	r3, r5
   2125e:	df03      	svc	3
   21260:	4620      	mov	r0, r4
   21262:	4629      	mov	r1, r5
   21264:	462a      	mov	r2, r5
   21266:	462b      	mov	r3, r5
   21268:	df04      	svc	4
   2126a:	b027      	add	sp, #156	@ 0x9c
   2126c:	bdf0      	pop	{r4, r5, r6, r7, pc}
   2126e:	480e      	ldr	r0, [pc, #56]	@ (212a8 <_ZN18complex_no_dynamic3app17h416534f1a6e310e5E+0xa4>)
   21270:	2605      	movs	r6, #5
   21272:	4631      	mov	r1, r6
   21274:	462a      	mov	r2, r5
   21276:	462b      	mov	r3, r5
   21278:	df03      	svc	3
   2127a:	480b      	ldr	r0, [pc, #44]	@ (212a8 <_ZN18complex_no_dynamic3app17h416534f1a6e310e5E+0xa4>)
   2127c:	4631      	mov	r1, r6
   2127e:	462a      	mov	r2, r5
   21280:	462b      	mov	r3, r5
   21282:	df03      	svc	3
   21284:	1c60      	adds	r0, r4, #1
   21286:	a90f      	add	r1, sp, #60	@ 0x3c
   21288:	225d      	movs	r2, #93	@ 0x5d
   2128a:	f005 fe18 	bl	26ebe <__aeabi_memcpy>
   2128e:	7025      	strb	r5, [r4, #0]
   21290:	4c05      	ldr	r4, [pc, #20]	@ (212a8 <_ZN18complex_no_dynamic3app17h416534f1a6e310e5E+0xa4>)
   21292:	4620      	mov	r0, r4
   21294:	4631      	mov	r1, r6
   21296:	462a      	mov	r2, r5
   21298:	462b      	mov	r3, r5
   2129a:	df03      	svc	3
   2129c:	4620      	mov	r0, r4
   2129e:	4629      	mov	r1, r5
   212a0:	462a      	mov	r2, r5
   212a2:	462b      	mov	r3, r5
   212a4:	df04      	svc	4
   212a6:	e7e0      	b.n	2126a <_ZN18complex_no_dynamic3app17h416534f1a6e310e5E+0x66>
   212a8:	000014a4 	.word	0x000014a4

000212ac <_ZN18complex_no_dynamic3app17h4732c704800a1c50E>:
   212ac:	b5f0      	push	{r4, r5, r6, r7, lr}
   212ae:	af03      	add	r7, sp, #12
   212b0:	b09b      	sub	sp, #108	@ 0x6c
   212b2:	4604      	mov	r4, r0
   212b4:	ad01      	add	r5, sp, #4
   212b6:	262e      	movs	r6, #46	@ 0x2e
   212b8:	4628      	mov	r0, r5
   212ba:	4632      	mov	r2, r6
   212bc:	f005 fdff 	bl	26ebe <__aeabi_memcpy>
   212c0:	a80d      	add	r0, sp, #52	@ 0x34
   212c2:	2138      	movs	r1, #56	@ 0x38
   212c4:	f005 fc4e 	bl	26b64 <__aeabi_memclr4>
   212c8:	4822      	ldr	r0, [pc, #136]	@ (21354 <_ZN18complex_no_dynamic3app17h4732c704800a1c50E+0xa8>)
   212ca:	2109      	movs	r1, #9
   212cc:	462a      	mov	r2, r5
   212ce:	4633      	mov	r3, r6
   212d0:	df04      	svc	4
   212d2:	2802      	cmp	r0, #2
   212d4:	d00e      	beq.n	212f4 <_ZN18complex_no_dynamic3app17h4732c704800a1c50E+0x48>
   212d6:	481f      	ldr	r0, [pc, #124]	@ (21354 <_ZN18complex_no_dynamic3app17h4732c704800a1c50E+0xa8>)
   212d8:	2109      	movs	r1, #9
   212da:	aa0d      	add	r2, sp, #52	@ 0x34
   212dc:	2338      	movs	r3, #56	@ 0x38
   212de:	df03      	svc	3
   212e0:	2802      	cmp	r0, #2
   212e2:	d007      	beq.n	212f4 <_ZN18complex_no_dynamic3app17h4732c704800a1c50E+0x48>
   212e4:	481b      	ldr	r0, [pc, #108]	@ (21354 <_ZN18complex_no_dynamic3app17h4732c704800a1c50E+0xa8>)
   212e6:	2109      	movs	r1, #9
   212e8:	2500      	movs	r5, #0
   212ea:	460a      	mov	r2, r1
   212ec:	462b      	mov	r3, r5
   212ee:	df02      	svc	2
   212f0:	287f      	cmp	r0, #127	@ 0x7f
   212f2:	d811      	bhi.n	21318 <_ZN18complex_no_dynamic3app17h4732c704800a1c50E+0x6c>
   212f4:	2001      	movs	r0, #1
   212f6:	7020      	strb	r0, [r4, #0]
   212f8:	6061      	str	r1, [r4, #4]
   212fa:	4c16      	ldr	r4, [pc, #88]	@ (21354 <_ZN18complex_no_dynamic3app17h4732c704800a1c50E+0xa8>)
   212fc:	2509      	movs	r5, #9
   212fe:	2600      	movs	r6, #0
   21300:	4620      	mov	r0, r4
   21302:	4629      	mov	r1, r5
   21304:	4632      	mov	r2, r6
   21306:	4633      	mov	r3, r6
   21308:	df03      	svc	3
   2130a:	4620      	mov	r0, r4
   2130c:	4629      	mov	r1, r5
   2130e:	4632      	mov	r2, r6
   21310:	4633      	mov	r3, r6
   21312:	df04      	svc	4
   21314:	b01b      	add	sp, #108	@ 0x6c
   21316:	bdf0      	pop	{r4, r5, r6, r7, pc}
   21318:	480e      	ldr	r0, [pc, #56]	@ (21354 <_ZN18complex_no_dynamic3app17h4732c704800a1c50E+0xa8>)
   2131a:	2609      	movs	r6, #9
   2131c:	4631      	mov	r1, r6
   2131e:	462a      	mov	r2, r5
   21320:	462b      	mov	r3, r5
   21322:	df03      	svc	3
   21324:	480b      	ldr	r0, [pc, #44]	@ (21354 <_ZN18complex_no_dynamic3app17h4732c704800a1c50E+0xa8>)
   21326:	4631      	mov	r1, r6
   21328:	462a      	mov	r2, r5
   2132a:	462b      	mov	r3, r5
   2132c:	df03      	svc	3
   2132e:	1c60      	adds	r0, r4, #1
   21330:	a90d      	add	r1, sp, #52	@ 0x34
   21332:	2238      	movs	r2, #56	@ 0x38
   21334:	f005 fdc3 	bl	26ebe <__aeabi_memcpy>
   21338:	7025      	strb	r5, [r4, #0]
   2133a:	4c06      	ldr	r4, [pc, #24]	@ (21354 <_ZN18complex_no_dynamic3app17h4732c704800a1c50E+0xa8>)
   2133c:	4620      	mov	r0, r4
   2133e:	4631      	mov	r1, r6
   21340:	462a      	mov	r2, r5
   21342:	462b      	mov	r3, r5
   21344:	df03      	svc	3
   21346:	4620      	mov	r0, r4
   21348:	4631      	mov	r1, r6
   2134a:	462a      	mov	r2, r5
   2134c:	462b      	mov	r3, r5
   2134e:	df04      	svc	4
   21350:	e7e0      	b.n	21314 <_ZN18complex_no_dynamic3app17h4732c704800a1c50E+0x68>
   21352:	46c0      	nop			@ (mov r8, r8)
   21354:	00000a9d 	.word	0x00000a9d

00021358 <_ZN18complex_no_dynamic3app17h47c7930c07138baaE>:
   21358:	b5f0      	push	{r4, r5, r6, r7, lr}
   2135a:	af03      	add	r7, sp, #12
   2135c:	b0a5      	sub	sp, #148	@ 0x94
   2135e:	4604      	mov	r4, r0
   21360:	ad01      	add	r5, sp, #4
   21362:	262f      	movs	r6, #47	@ 0x2f
   21364:	4628      	mov	r0, r5
   21366:	4632      	mov	r2, r6
   21368:	f005 fda9 	bl	26ebe <__aeabi_memcpy>
   2136c:	a80d      	add	r0, sp, #52	@ 0x34
   2136e:	215e      	movs	r1, #94	@ 0x5e
   21370:	f005 fbf8 	bl	26b64 <__aeabi_memclr4>
   21374:	4821      	ldr	r0, [pc, #132]	@ (213fc <_ZN18complex_no_dynamic3app17h47c7930c07138baaE+0xa4>)
   21376:	2105      	movs	r1, #5
   21378:	462a      	mov	r2, r5
   2137a:	4633      	mov	r3, r6
   2137c:	df04      	svc	4
   2137e:	2802      	cmp	r0, #2
   21380:	d00e      	beq.n	213a0 <_ZN18complex_no_dynamic3app17h47c7930c07138baaE+0x48>
   21382:	481e      	ldr	r0, [pc, #120]	@ (213fc <_ZN18complex_no_dynamic3app17h47c7930c07138baaE+0xa4>)
   21384:	2102      	movs	r1, #2
   21386:	aa0d      	add	r2, sp, #52	@ 0x34
   21388:	235e      	movs	r3, #94	@ 0x5e
   2138a:	df03      	svc	3
   2138c:	2802      	cmp	r0, #2
   2138e:	d007      	beq.n	213a0 <_ZN18complex_no_dynamic3app17h47c7930c07138baaE+0x48>
   21390:	481a      	ldr	r0, [pc, #104]	@ (213fc <_ZN18complex_no_dynamic3app17h47c7930c07138baaE+0xa4>)
   21392:	2105      	movs	r1, #5
   21394:	2202      	movs	r2, #2
   21396:	2500      	movs	r5, #0
   21398:	462b      	mov	r3, r5
   2139a:	df02      	svc	2
   2139c:	287f      	cmp	r0, #127	@ 0x7f
   2139e:	d810      	bhi.n	213c2 <_ZN18complex_no_dynamic3app17h47c7930c07138baaE+0x6a>
   213a0:	2001      	movs	r0, #1
   213a2:	7020      	strb	r0, [r4, #0]
   213a4:	6061      	str	r1, [r4, #4]
   213a6:	4c15      	ldr	r4, [pc, #84]	@ (213fc <_ZN18complex_no_dynamic3app17h47c7930c07138baaE+0xa4>)
   213a8:	2102      	movs	r1, #2
   213aa:	2500      	movs	r5, #0
   213ac:	4620      	mov	r0, r4
   213ae:	462a      	mov	r2, r5
   213b0:	462b      	mov	r3, r5
   213b2:	df03      	svc	3
   213b4:	2105      	movs	r1, #5
   213b6:	4620      	mov	r0, r4
   213b8:	462a      	mov	r2, r5
   213ba:	462b      	mov	r3, r5
   213bc:	df04      	svc	4
   213be:	b025      	add	sp, #148	@ 0x94
   213c0:	bdf0      	pop	{r4, r5, r6, r7, pc}
   213c2:	480e      	ldr	r0, [pc, #56]	@ (213fc <_ZN18complex_no_dynamic3app17h47c7930c07138baaE+0xa4>)
   213c4:	2602      	movs	r6, #2
   213c6:	4631      	mov	r1, r6
   213c8:	462a      	mov	r2, r5
   213ca:	462b      	mov	r3, r5
   213cc:	df03      	svc	3
   213ce:	480b      	ldr	r0, [pc, #44]	@ (213fc <_ZN18complex_no_dynamic3app17h47c7930c07138baaE+0xa4>)
   213d0:	4631      	mov	r1, r6
   213d2:	462a      	mov	r2, r5
   213d4:	462b      	mov	r3, r5
   213d6:	df03      	svc	3
   213d8:	1c60      	adds	r0, r4, #1
   213da:	a90d      	add	r1, sp, #52	@ 0x34
   213dc:	225e      	movs	r2, #94	@ 0x5e
   213de:	f005 fd6e 	bl	26ebe <__aeabi_memcpy>
   213e2:	7025      	strb	r5, [r4, #0]
   213e4:	4c05      	ldr	r4, [pc, #20]	@ (213fc <_ZN18complex_no_dynamic3app17h47c7930c07138baaE+0xa4>)
   213e6:	4620      	mov	r0, r4
   213e8:	4631      	mov	r1, r6
   213ea:	462a      	mov	r2, r5
   213ec:	462b      	mov	r3, r5
   213ee:	df03      	svc	3
   213f0:	2105      	movs	r1, #5
   213f2:	4620      	mov	r0, r4
   213f4:	462a      	mov	r2, r5
   213f6:	462b      	mov	r3, r5
   213f8:	df04      	svc	4
   213fa:	e7e0      	b.n	213be <_ZN18complex_no_dynamic3app17h47c7930c07138baaE+0x66>
   213fc:	0000022b 	.word	0x0000022b

00021400 <_ZN18complex_no_dynamic3app17h48d707bb0faa7232E>:
   21400:	b5f0      	push	{r4, r5, r6, r7, lr}
   21402:	af03      	add	r7, sp, #12
   21404:	b089      	sub	sp, #36	@ 0x24
   21406:	4604      	mov	r4, r0
   21408:	466d      	mov	r5, sp
   2140a:	260f      	movs	r6, #15
   2140c:	4628      	mov	r0, r5
   2140e:	4632      	mov	r2, r6
   21410:	f005 fd55 	bl	26ebe <__aeabi_memcpy>
   21414:	a804      	add	r0, sp, #16
   21416:	2113      	movs	r1, #19
   21418:	f005 fba4 	bl	26b64 <__aeabi_memclr4>
   2141c:	4821      	ldr	r0, [pc, #132]	@ (214a4 <_ZN18complex_no_dynamic3app17h48d707bb0faa7232E+0xa4>)
   2141e:	2103      	movs	r1, #3
   21420:	462a      	mov	r2, r5
   21422:	4633      	mov	r3, r6
   21424:	df04      	svc	4
   21426:	2802      	cmp	r0, #2
   21428:	d00e      	beq.n	21448 <_ZN18complex_no_dynamic3app17h48d707bb0faa7232E+0x48>
   2142a:	481e      	ldr	r0, [pc, #120]	@ (214a4 <_ZN18complex_no_dynamic3app17h48d707bb0faa7232E+0xa4>)
   2142c:	2100      	movs	r1, #0
   2142e:	aa04      	add	r2, sp, #16
   21430:	2313      	movs	r3, #19
   21432:	df03      	svc	3
   21434:	2802      	cmp	r0, #2
   21436:	d007      	beq.n	21448 <_ZN18complex_no_dynamic3app17h48d707bb0faa7232E+0x48>
   21438:	481a      	ldr	r0, [pc, #104]	@ (214a4 <_ZN18complex_no_dynamic3app17h48d707bb0faa7232E+0xa4>)
   2143a:	2103      	movs	r1, #3
   2143c:	2500      	movs	r5, #0
   2143e:	462a      	mov	r2, r5
   21440:	462b      	mov	r3, r5
   21442:	df02      	svc	2
   21444:	287f      	cmp	r0, #127	@ 0x7f
   21446:	d810      	bhi.n	2146a <_ZN18complex_no_dynamic3app17h48d707bb0faa7232E+0x6a>
   21448:	2001      	movs	r0, #1
   2144a:	7020      	strb	r0, [r4, #0]
   2144c:	6061      	str	r1, [r4, #4]
   2144e:	4c15      	ldr	r4, [pc, #84]	@ (214a4 <_ZN18complex_no_dynamic3app17h48d707bb0faa7232E+0xa4>)
   21450:	2500      	movs	r5, #0
   21452:	4620      	mov	r0, r4
   21454:	4629      	mov	r1, r5
   21456:	462a      	mov	r2, r5
   21458:	462b      	mov	r3, r5
   2145a:	df03      	svc	3
   2145c:	2103      	movs	r1, #3
   2145e:	4620      	mov	r0, r4
   21460:	462a      	mov	r2, r5
   21462:	462b      	mov	r3, r5
   21464:	df04      	svc	4
   21466:	b009      	add	sp, #36	@ 0x24
   21468:	bdf0      	pop	{r4, r5, r6, r7, pc}
   2146a:	4e0e      	ldr	r6, [pc, #56]	@ (214a4 <_ZN18complex_no_dynamic3app17h48d707bb0faa7232E+0xa4>)
   2146c:	4630      	mov	r0, r6
   2146e:	4629      	mov	r1, r5
   21470:	462a      	mov	r2, r5
   21472:	462b      	mov	r3, r5
   21474:	df03      	svc	3
   21476:	4630      	mov	r0, r6
   21478:	4629      	mov	r1, r5
   2147a:	462a      	mov	r2, r5
   2147c:	462b      	mov	r3, r5
   2147e:	df03      	svc	3
   21480:	1c60      	adds	r0, r4, #1
   21482:	a904      	add	r1, sp, #16
   21484:	2213      	movs	r2, #19
   21486:	f005 fd1a 	bl	26ebe <__aeabi_memcpy>
   2148a:	7025      	strb	r5, [r4, #0]
   2148c:	4630      	mov	r0, r6
   2148e:	4629      	mov	r1, r5
   21490:	462a      	mov	r2, r5
   21492:	462b      	mov	r3, r5
   21494:	df03      	svc	3
   21496:	2103      	movs	r1, #3
   21498:	4630      	mov	r0, r6
   2149a:	462a      	mov	r2, r5
   2149c:	462b      	mov	r3, r5
   2149e:	df04      	svc	4
   214a0:	e7e1      	b.n	21466 <_ZN18complex_no_dynamic3app17h48d707bb0faa7232E+0x66>
   214a2:	46c0      	nop			@ (mov r8, r8)
   214a4:	00001e4b 	.word	0x00001e4b

000214a8 <_ZN18complex_no_dynamic3app17h4b1ce727dd69f8c2E>:
   214a8:	b5f0      	push	{r4, r5, r6, r7, lr}
   214aa:	af03      	add	r7, sp, #12
   214ac:	b095      	sub	sp, #84	@ 0x54
   214ae:	9000      	str	r0, [sp, #0]
   214b0:	ae01      	add	r6, sp, #4
   214b2:	2421      	movs	r4, #33	@ 0x21
   214b4:	4630      	mov	r0, r6
   214b6:	4622      	mov	r2, r4
   214b8:	f005 fd01 	bl	26ebe <__aeabi_memcpy>
   214bc:	a80a      	add	r0, sp, #40	@ 0x28
   214be:	212a      	movs	r1, #42	@ 0x2a
   214c0:	f005 fb50 	bl	26b64 <__aeabi_memclr4>
   214c4:	4823      	ldr	r0, [pc, #140]	@ (21554 <_ZN18complex_no_dynamic3app17h4b1ce727dd69f8c2E+0xac>)
   214c6:	2501      	movs	r5, #1
   214c8:	4629      	mov	r1, r5
   214ca:	4632      	mov	r2, r6
   214cc:	4623      	mov	r3, r4
   214ce:	df04      	svc	4
   214d0:	2802      	cmp	r0, #2
   214d2:	d00e      	beq.n	214f2 <_ZN18complex_no_dynamic3app17h4b1ce727dd69f8c2E+0x4a>
   214d4:	481f      	ldr	r0, [pc, #124]	@ (21554 <_ZN18complex_no_dynamic3app17h4b1ce727dd69f8c2E+0xac>)
   214d6:	2103      	movs	r1, #3
   214d8:	aa0a      	add	r2, sp, #40	@ 0x28
   214da:	232a      	movs	r3, #42	@ 0x2a
   214dc:	df03      	svc	3
   214de:	2802      	cmp	r0, #2
   214e0:	d007      	beq.n	214f2 <_ZN18complex_no_dynamic3app17h4b1ce727dd69f8c2E+0x4a>
   214e2:	481c      	ldr	r0, [pc, #112]	@ (21554 <_ZN18complex_no_dynamic3app17h4b1ce727dd69f8c2E+0xac>)
   214e4:	2101      	movs	r1, #1
   214e6:	2203      	movs	r2, #3
   214e8:	2600      	movs	r6, #0
   214ea:	4633      	mov	r3, r6
   214ec:	df02      	svc	2
   214ee:	287f      	cmp	r0, #127	@ 0x7f
   214f0:	d810      	bhi.n	21514 <_ZN18complex_no_dynamic3app17h4b1ce727dd69f8c2E+0x6c>
   214f2:	9800      	ldr	r0, [sp, #0]
   214f4:	7005      	strb	r5, [r0, #0]
   214f6:	6041      	str	r1, [r0, #4]
   214f8:	4c16      	ldr	r4, [pc, #88]	@ (21554 <_ZN18complex_no_dynamic3app17h4b1ce727dd69f8c2E+0xac>)
   214fa:	2103      	movs	r1, #3
   214fc:	2600      	movs	r6, #0
   214fe:	4620      	mov	r0, r4
   21500:	4632      	mov	r2, r6
   21502:	4633      	mov	r3, r6
   21504:	df03      	svc	3
   21506:	4620      	mov	r0, r4
   21508:	4629      	mov	r1, r5
   2150a:	4632      	mov	r2, r6
   2150c:	4633      	mov	r3, r6
   2150e:	df04      	svc	4
   21510:	b015      	add	sp, #84	@ 0x54
   21512:	bdf0      	pop	{r4, r5, r6, r7, pc}
   21514:	4c0f      	ldr	r4, [pc, #60]	@ (21554 <_ZN18complex_no_dynamic3app17h4b1ce727dd69f8c2E+0xac>)
   21516:	2503      	movs	r5, #3
   21518:	4620      	mov	r0, r4
   2151a:	4629      	mov	r1, r5
   2151c:	4632      	mov	r2, r6
   2151e:	4633      	mov	r3, r6
   21520:	df03      	svc	3
   21522:	4620      	mov	r0, r4
   21524:	4629      	mov	r1, r5
   21526:	4632      	mov	r2, r6
   21528:	4633      	mov	r3, r6
   2152a:	df03      	svc	3
   2152c:	9c00      	ldr	r4, [sp, #0]
   2152e:	1c60      	adds	r0, r4, #1
   21530:	a90a      	add	r1, sp, #40	@ 0x28
   21532:	222a      	movs	r2, #42	@ 0x2a
   21534:	f005 fcc3 	bl	26ebe <__aeabi_memcpy>
   21538:	7026      	strb	r6, [r4, #0]
   2153a:	4c06      	ldr	r4, [pc, #24]	@ (21554 <_ZN18complex_no_dynamic3app17h4b1ce727dd69f8c2E+0xac>)
   2153c:	4620      	mov	r0, r4
   2153e:	4629      	mov	r1, r5
   21540:	4632      	mov	r2, r6
   21542:	4633      	mov	r3, r6
   21544:	df03      	svc	3
   21546:	2101      	movs	r1, #1
   21548:	4620      	mov	r0, r4
   2154a:	4632      	mov	r2, r6
   2154c:	4633      	mov	r3, r6
   2154e:	df04      	svc	4
   21550:	e7de      	b.n	21510 <_ZN18complex_no_dynamic3app17h4b1ce727dd69f8c2E+0x68>
   21552:	46c0      	nop			@ (mov r8, r8)
   21554:	000015f3 	.word	0x000015f3

00021558 <_ZN18complex_no_dynamic3app17h4bb1658525f9893cE>:
   21558:	b5f0      	push	{r4, r5, r6, r7, lr}
   2155a:	af03      	add	r7, sp, #12
   2155c:	b095      	sub	sp, #84	@ 0x54
   2155e:	4604      	mov	r4, r0
   21560:	ad01      	add	r5, sp, #4
   21562:	2618      	movs	r6, #24
   21564:	4628      	mov	r0, r5
   21566:	4632      	mov	r2, r6
   21568:	f005 fca9 	bl	26ebe <__aeabi_memcpy>
   2156c:	a807      	add	r0, sp, #28
   2156e:	2136      	movs	r1, #54	@ 0x36
   21570:	f005 faf8 	bl	26b64 <__aeabi_memclr4>
   21574:	20f3      	movs	r0, #243	@ 0xf3
   21576:	2108      	movs	r1, #8
   21578:	462a      	mov	r2, r5
   2157a:	4633      	mov	r3, r6
   2157c:	df04      	svc	4
   2157e:	2802      	cmp	r0, #2
   21580:	d00e      	beq.n	215a0 <_ZN18complex_no_dynamic3app17h4bb1658525f9893cE+0x48>
   21582:	20f3      	movs	r0, #243	@ 0xf3
   21584:	2104      	movs	r1, #4
   21586:	aa07      	add	r2, sp, #28
   21588:	2336      	movs	r3, #54	@ 0x36
   2158a:	df03      	svc	3
   2158c:	2802      	cmp	r0, #2
   2158e:	d007      	beq.n	215a0 <_ZN18complex_no_dynamic3app17h4bb1658525f9893cE+0x48>
   21590:	20f3      	movs	r0, #243	@ 0xf3
   21592:	2108      	movs	r1, #8
   21594:	2204      	movs	r2, #4
   21596:	2500      	movs	r5, #0
   21598:	462b      	mov	r3, r5
   2159a:	df02      	svc	2
   2159c:	287f      	cmp	r0, #127	@ 0x7f
   2159e:	d810      	bhi.n	215c2 <_ZN18complex_no_dynamic3app17h4bb1658525f9893cE+0x6a>
   215a0:	2001      	movs	r0, #1
   215a2:	7020      	strb	r0, [r4, #0]
   215a4:	6061      	str	r1, [r4, #4]
   215a6:	24f3      	movs	r4, #243	@ 0xf3
   215a8:	2104      	movs	r1, #4
   215aa:	2500      	movs	r5, #0
   215ac:	4620      	mov	r0, r4
   215ae:	462a      	mov	r2, r5
   215b0:	462b      	mov	r3, r5
   215b2:	df03      	svc	3
   215b4:	2108      	movs	r1, #8
   215b6:	4620      	mov	r0, r4
   215b8:	462a      	mov	r2, r5
   215ba:	462b      	mov	r3, r5
   215bc:	df04      	svc	4
   215be:	b015      	add	sp, #84	@ 0x54
   215c0:	bdf0      	pop	{r4, r5, r6, r7, pc}
   215c2:	20f3      	movs	r0, #243	@ 0xf3
   215c4:	9000      	str	r0, [sp, #0]
   215c6:	2604      	movs	r6, #4
   215c8:	4631      	mov	r1, r6
   215ca:	462a      	mov	r2, r5
   215cc:	462b      	mov	r3, r5
   215ce:	df03      	svc	3
   215d0:	9800      	ldr	r0, [sp, #0]
   215d2:	4631      	mov	r1, r6
   215d4:	462a      	mov	r2, r5
   215d6:	462b      	mov	r3, r5
   215d8:	df03      	svc	3
   215da:	1c60      	adds	r0, r4, #1
   215dc:	a907      	add	r1, sp, #28
   215de:	2236      	movs	r2, #54	@ 0x36
   215e0:	f005 fc6d 	bl	26ebe <__aeabi_memcpy>
   215e4:	7025      	strb	r5, [r4, #0]
   215e6:	9c00      	ldr	r4, [sp, #0]
   215e8:	4620      	mov	r0, r4
   215ea:	4631      	mov	r1, r6
   215ec:	462a      	mov	r2, r5
   215ee:	462b      	mov	r3, r5
   215f0:	df03      	svc	3
   215f2:	2108      	movs	r1, #8
   215f4:	4620      	mov	r0, r4
   215f6:	462a      	mov	r2, r5
   215f8:	462b      	mov	r3, r5
   215fa:	df04      	svc	4
   215fc:	e7df      	b.n	215be <_ZN18complex_no_dynamic3app17h4bb1658525f9893cE+0x66>
   215fe:	d4d4      	bmi.n	215aa <_ZN18complex_no_dynamic3app17h4bb1658525f9893cE+0x52>

00021600 <_ZN18complex_no_dynamic3app17h4f97b56c2c107d8eE>:
   21600:	b5f0      	push	{r4, r5, r6, r7, lr}
   21602:	af03      	add	r7, sp, #12
   21604:	b09b      	sub	sp, #108	@ 0x6c
   21606:	4604      	mov	r4, r0
   21608:	466d      	mov	r5, sp
   2160a:	2636      	movs	r6, #54	@ 0x36
   2160c:	4628      	mov	r0, r5
   2160e:	4632      	mov	r2, r6
   21610:	f005 fc55 	bl	26ebe <__aeabi_memcpy>
   21614:	a80e      	add	r0, sp, #56	@ 0x38
   21616:	2134      	movs	r1, #52	@ 0x34
   21618:	f005 faa4 	bl	26b64 <__aeabi_memclr4>
   2161c:	4821      	ldr	r0, [pc, #132]	@ (216a4 <_ZN18complex_no_dynamic3app17h4f97b56c2c107d8eE+0xa4>)
   2161e:	2104      	movs	r1, #4
   21620:	462a      	mov	r2, r5
   21622:	4633      	mov	r3, r6
   21624:	df04      	svc	4
   21626:	2802      	cmp	r0, #2
   21628:	d00e      	beq.n	21648 <_ZN18complex_no_dynamic3app17h4f97b56c2c107d8eE+0x48>
   2162a:	481e      	ldr	r0, [pc, #120]	@ (216a4 <_ZN18complex_no_dynamic3app17h4f97b56c2c107d8eE+0xa4>)
   2162c:	2102      	movs	r1, #2
   2162e:	aa0e      	add	r2, sp, #56	@ 0x38
   21630:	2334      	movs	r3, #52	@ 0x34
   21632:	df03      	svc	3
   21634:	2802      	cmp	r0, #2
   21636:	d007      	beq.n	21648 <_ZN18complex_no_dynamic3app17h4f97b56c2c107d8eE+0x48>
   21638:	481a      	ldr	r0, [pc, #104]	@ (216a4 <_ZN18complex_no_dynamic3app17h4f97b56c2c107d8eE+0xa4>)
   2163a:	2104      	movs	r1, #4
   2163c:	2202      	movs	r2, #2
   2163e:	2500      	movs	r5, #0
   21640:	462b      	mov	r3, r5
   21642:	df02      	svc	2
   21644:	287f      	cmp	r0, #127	@ 0x7f
   21646:	d810      	bhi.n	2166a <_ZN18complex_no_dynamic3app17h4f97b56c2c107d8eE+0x6a>
   21648:	2001      	movs	r0, #1
   2164a:	7020      	strb	r0, [r4, #0]
   2164c:	6061      	str	r1, [r4, #4]
   2164e:	4c15      	ldr	r4, [pc, #84]	@ (216a4 <_ZN18complex_no_dynamic3app17h4f97b56c2c107d8eE+0xa4>)
   21650:	2102      	movs	r1, #2
   21652:	2500      	movs	r5, #0
   21654:	4620      	mov	r0, r4
   21656:	462a      	mov	r2, r5
   21658:	462b      	mov	r3, r5
   2165a:	df03      	svc	3
   2165c:	2104      	movs	r1, #4
   2165e:	4620      	mov	r0, r4
   21660:	462a      	mov	r2, r5
   21662:	462b      	mov	r3, r5
   21664:	df04      	svc	4
   21666:	b01b      	add	sp, #108	@ 0x6c
   21668:	bdf0      	pop	{r4, r5, r6, r7, pc}
   2166a:	480e      	ldr	r0, [pc, #56]	@ (216a4 <_ZN18complex_no_dynamic3app17h4f97b56c2c107d8eE+0xa4>)
   2166c:	2602      	movs	r6, #2
   2166e:	4631      	mov	r1, r6
   21670:	462a      	mov	r2, r5
   21672:	462b      	mov	r3, r5
   21674:	df03      	svc	3
   21676:	480b      	ldr	r0, [pc, #44]	@ (216a4 <_ZN18complex_no_dynamic3app17h4f97b56c2c107d8eE+0xa4>)
   21678:	4631      	mov	r1, r6
   2167a:	462a      	mov	r2, r5
   2167c:	462b      	mov	r3, r5
   2167e:	df03      	svc	3
   21680:	1c60      	adds	r0, r4, #1
   21682:	a90e      	add	r1, sp, #56	@ 0x38
   21684:	2234      	movs	r2, #52	@ 0x34
   21686:	f005 fc1a 	bl	26ebe <__aeabi_memcpy>
   2168a:	7025      	strb	r5, [r4, #0]
   2168c:	4c05      	ldr	r4, [pc, #20]	@ (216a4 <_ZN18complex_no_dynamic3app17h4f97b56c2c107d8eE+0xa4>)
   2168e:	4620      	mov	r0, r4
   21690:	4631      	mov	r1, r6
   21692:	462a      	mov	r2, r5
   21694:	462b      	mov	r3, r5
   21696:	df03      	svc	3
   21698:	2104      	movs	r1, #4
   2169a:	4620      	mov	r0, r4
   2169c:	462a      	mov	r2, r5
   2169e:	462b      	mov	r3, r5
   216a0:	df04      	svc	4
   216a2:	e7e0      	b.n	21666 <_ZN18complex_no_dynamic3app17h4f97b56c2c107d8eE+0x66>
   216a4:	000023c6 	.word	0x000023c6

000216a8 <_ZN18complex_no_dynamic3app17h5389dde9c64df9e4E>:
   216a8:	b5f0      	push	{r4, r5, r6, r7, lr}
   216aa:	af03      	add	r7, sp, #12
   216ac:	b09d      	sub	sp, #116	@ 0x74
   216ae:	4604      	mov	r4, r0
   216b0:	466d      	mov	r5, sp
   216b2:	2648      	movs	r6, #72	@ 0x48
   216b4:	4628      	mov	r0, r5
   216b6:	4632      	mov	r2, r6
   216b8:	f005 fc01 	bl	26ebe <__aeabi_memcpy>
   216bc:	a812      	add	r0, sp, #72	@ 0x48
   216be:	2129      	movs	r1, #41	@ 0x29
   216c0:	f005 fa50 	bl	26b64 <__aeabi_memclr4>
   216c4:	4821      	ldr	r0, [pc, #132]	@ (2174c <_ZN18complex_no_dynamic3app17h5389dde9c64df9e4E+0xa4>)
   216c6:	2103      	movs	r1, #3
   216c8:	462a      	mov	r2, r5
   216ca:	4633      	mov	r3, r6
   216cc:	df04      	svc	4
   216ce:	2802      	cmp	r0, #2
   216d0:	d00e      	beq.n	216f0 <_ZN18complex_no_dynamic3app17h5389dde9c64df9e4E+0x48>
   216d2:	481e      	ldr	r0, [pc, #120]	@ (2174c <_ZN18complex_no_dynamic3app17h5389dde9c64df9e4E+0xa4>)
   216d4:	2104      	movs	r1, #4
   216d6:	aa12      	add	r2, sp, #72	@ 0x48
   216d8:	2329      	movs	r3, #41	@ 0x29
   216da:	df03      	svc	3
   216dc:	2802      	cmp	r0, #2
   216de:	d007      	beq.n	216f0 <_ZN18complex_no_dynamic3app17h5389dde9c64df9e4E+0x48>
   216e0:	481a      	ldr	r0, [pc, #104]	@ (2174c <_ZN18complex_no_dynamic3app17h5389dde9c64df9e4E+0xa4>)
   216e2:	2103      	movs	r1, #3
   216e4:	2204      	movs	r2, #4
   216e6:	2500      	movs	r5, #0
   216e8:	462b      	mov	r3, r5
   216ea:	df02      	svc	2
   216ec:	287f      	cmp	r0, #127	@ 0x7f
   216ee:	d810      	bhi.n	21712 <_ZN18complex_no_dynamic3app17h5389dde9c64df9e4E+0x6a>
   216f0:	2001      	movs	r0, #1
   216f2:	7020      	strb	r0, [r4, #0]
   216f4:	6061      	str	r1, [r4, #4]
   216f6:	4c15      	ldr	r4, [pc, #84]	@ (2174c <_ZN18complex_no_dynamic3app17h5389dde9c64df9e4E+0xa4>)
   216f8:	2104      	movs	r1, #4
   216fa:	2500      	movs	r5, #0
   216fc:	4620      	mov	r0, r4
   216fe:	462a      	mov	r2, r5
   21700:	462b      	mov	r3, r5
   21702:	df03      	svc	3
   21704:	2103      	movs	r1, #3
   21706:	4620      	mov	r0, r4
   21708:	462a      	mov	r2, r5
   2170a:	462b      	mov	r3, r5
   2170c:	df04      	svc	4
   2170e:	b01d      	add	sp, #116	@ 0x74
   21710:	bdf0      	pop	{r4, r5, r6, r7, pc}
   21712:	480e      	ldr	r0, [pc, #56]	@ (2174c <_ZN18complex_no_dynamic3app17h5389dde9c64df9e4E+0xa4>)
   21714:	2604      	movs	r6, #4
   21716:	4631      	mov	r1, r6
   21718:	462a      	mov	r2, r5
   2171a:	462b      	mov	r3, r5
   2171c:	df03      	svc	3
   2171e:	480b      	ldr	r0, [pc, #44]	@ (2174c <_ZN18complex_no_dynamic3app17h5389dde9c64df9e4E+0xa4>)
   21720:	4631      	mov	r1, r6
   21722:	462a      	mov	r2, r5
   21724:	462b      	mov	r3, r5
   21726:	df03      	svc	3
   21728:	1c60      	adds	r0, r4, #1
   2172a:	a912      	add	r1, sp, #72	@ 0x48
   2172c:	2229      	movs	r2, #41	@ 0x29
   2172e:	f005 fbc6 	bl	26ebe <__aeabi_memcpy>
   21732:	7025      	strb	r5, [r4, #0]
   21734:	4c05      	ldr	r4, [pc, #20]	@ (2174c <_ZN18complex_no_dynamic3app17h5389dde9c64df9e4E+0xa4>)
   21736:	4620      	mov	r0, r4
   21738:	4631      	mov	r1, r6
   2173a:	462a      	mov	r2, r5
   2173c:	462b      	mov	r3, r5
   2173e:	df03      	svc	3
   21740:	2103      	movs	r1, #3
   21742:	4620      	mov	r0, r4
   21744:	462a      	mov	r2, r5
   21746:	462b      	mov	r3, r5
   21748:	df04      	svc	4
   2174a:	e7e0      	b.n	2170e <_ZN18complex_no_dynamic3app17h5389dde9c64df9e4E+0x66>
   2174c:	000026a4 	.word	0x000026a4

00021750 <_ZN18complex_no_dynamic3app17h569489522fc58361E>:
   21750:	b5f0      	push	{r4, r5, r6, r7, lr}
   21752:	af03      	add	r7, sp, #12
   21754:	b091      	sub	sp, #68	@ 0x44
   21756:	4604      	mov	r4, r0
   21758:	466d      	mov	r5, sp
   2175a:	261e      	movs	r6, #30
   2175c:	4628      	mov	r0, r5
   2175e:	4632      	mov	r2, r6
   21760:	f005 fbad 	bl	26ebe <__aeabi_memcpy>
   21764:	a808      	add	r0, sp, #32
   21766:	2121      	movs	r1, #33	@ 0x21
   21768:	f005 f9fc 	bl	26b64 <__aeabi_memclr4>
   2176c:	4821      	ldr	r0, [pc, #132]	@ (217f4 <_ZN18complex_no_dynamic3app17h569489522fc58361E+0xa4>)
   2176e:	2106      	movs	r1, #6
   21770:	462a      	mov	r2, r5
   21772:	4633      	mov	r3, r6
   21774:	df04      	svc	4
   21776:	2802      	cmp	r0, #2
   21778:	d00e      	beq.n	21798 <_ZN18complex_no_dynamic3app17h569489522fc58361E+0x48>
   2177a:	481e      	ldr	r0, [pc, #120]	@ (217f4 <_ZN18complex_no_dynamic3app17h569489522fc58361E+0xa4>)
   2177c:	2109      	movs	r1, #9
   2177e:	aa08      	add	r2, sp, #32
   21780:	2321      	movs	r3, #33	@ 0x21
   21782:	df03      	svc	3
   21784:	2802      	cmp	r0, #2
   21786:	d007      	beq.n	21798 <_ZN18complex_no_dynamic3app17h569489522fc58361E+0x48>
   21788:	481a      	ldr	r0, [pc, #104]	@ (217f4 <_ZN18complex_no_dynamic3app17h569489522fc58361E+0xa4>)
   2178a:	2106      	movs	r1, #6
   2178c:	2209      	movs	r2, #9
   2178e:	2500      	movs	r5, #0
   21790:	462b      	mov	r3, r5
   21792:	df02      	svc	2
   21794:	287f      	cmp	r0, #127	@ 0x7f
   21796:	d810      	bhi.n	217ba <_ZN18complex_no_dynamic3app17h569489522fc58361E+0x6a>
   21798:	2001      	movs	r0, #1
   2179a:	7020      	strb	r0, [r4, #0]
   2179c:	6061      	str	r1, [r4, #4]
   2179e:	4c15      	ldr	r4, [pc, #84]	@ (217f4 <_ZN18complex_no_dynamic3app17h569489522fc58361E+0xa4>)
   217a0:	2109      	movs	r1, #9
   217a2:	2500      	movs	r5, #0
   217a4:	4620      	mov	r0, r4
   217a6:	462a      	mov	r2, r5
   217a8:	462b      	mov	r3, r5
   217aa:	df03      	svc	3
   217ac:	2106      	movs	r1, #6
   217ae:	4620      	mov	r0, r4
   217b0:	462a      	mov	r2, r5
   217b2:	462b      	mov	r3, r5
   217b4:	df04      	svc	4
   217b6:	b011      	add	sp, #68	@ 0x44
   217b8:	bdf0      	pop	{r4, r5, r6, r7, pc}
   217ba:	480e      	ldr	r0, [pc, #56]	@ (217f4 <_ZN18complex_no_dynamic3app17h569489522fc58361E+0xa4>)
   217bc:	2609      	movs	r6, #9
   217be:	4631      	mov	r1, r6
   217c0:	462a      	mov	r2, r5
   217c2:	462b      	mov	r3, r5
   217c4:	df03      	svc	3
   217c6:	480b      	ldr	r0, [pc, #44]	@ (217f4 <_ZN18complex_no_dynamic3app17h569489522fc58361E+0xa4>)
   217c8:	4631      	mov	r1, r6
   217ca:	462a      	mov	r2, r5
   217cc:	462b      	mov	r3, r5
   217ce:	df03      	svc	3
   217d0:	1c60      	adds	r0, r4, #1
   217d2:	a908      	add	r1, sp, #32
   217d4:	2221      	movs	r2, #33	@ 0x21
   217d6:	f005 fb72 	bl	26ebe <__aeabi_memcpy>
   217da:	7025      	strb	r5, [r4, #0]
   217dc:	4c05      	ldr	r4, [pc, #20]	@ (217f4 <_ZN18complex_no_dynamic3app17h569489522fc58361E+0xa4>)
   217de:	4620      	mov	r0, r4
   217e0:	4631      	mov	r1, r6
   217e2:	462a      	mov	r2, r5
   217e4:	462b      	mov	r3, r5
   217e6:	df03      	svc	3
   217e8:	2106      	movs	r1, #6
   217ea:	4620      	mov	r0, r4
   217ec:	462a      	mov	r2, r5
   217ee:	462b      	mov	r3, r5
   217f0:	df04      	svc	4
   217f2:	e7e0      	b.n	217b6 <_ZN18complex_no_dynamic3app17h569489522fc58361E+0x66>
   217f4:	000019b5 	.word	0x000019b5

000217f8 <_ZN18complex_no_dynamic3app17h56b1e20fb9ee6486E>:
   217f8:	b5f0      	push	{r4, r5, r6, r7, lr}
   217fa:	af03      	add	r7, sp, #12
   217fc:	b095      	sub	sp, #84	@ 0x54
   217fe:	4604      	mov	r4, r0
   21800:	466d      	mov	r5, sp
   21802:	262a      	movs	r6, #42	@ 0x2a
   21804:	4628      	mov	r0, r5
   21806:	4632      	mov	r2, r6
   21808:	f005 fb59 	bl	26ebe <__aeabi_memcpy>
   2180c:	a80b      	add	r0, sp, #44	@ 0x2c
   2180e:	2128      	movs	r1, #40	@ 0x28
   21810:	f005 f9a8 	bl	26b64 <__aeabi_memclr4>
   21814:	4821      	ldr	r0, [pc, #132]	@ (2189c <_ZN18complex_no_dynamic3app17h56b1e20fb9ee6486E+0xa4>)
   21816:	2104      	movs	r1, #4
   21818:	462a      	mov	r2, r5
   2181a:	4633      	mov	r3, r6
   2181c:	df04      	svc	4
   2181e:	2802      	cmp	r0, #2
   21820:	d00e      	beq.n	21840 <_ZN18complex_no_dynamic3app17h56b1e20fb9ee6486E+0x48>
   21822:	481e      	ldr	r0, [pc, #120]	@ (2189c <_ZN18complex_no_dynamic3app17h56b1e20fb9ee6486E+0xa4>)
   21824:	2108      	movs	r1, #8
   21826:	aa0b      	add	r2, sp, #44	@ 0x2c
   21828:	2328      	movs	r3, #40	@ 0x28
   2182a:	df03      	svc	3
   2182c:	2802      	cmp	r0, #2
   2182e:	d007      	beq.n	21840 <_ZN18complex_no_dynamic3app17h56b1e20fb9ee6486E+0x48>
   21830:	481a      	ldr	r0, [pc, #104]	@ (2189c <_ZN18complex_no_dynamic3app17h56b1e20fb9ee6486E+0xa4>)
   21832:	2104      	movs	r1, #4
   21834:	2208      	movs	r2, #8
   21836:	2500      	movs	r5, #0
   21838:	462b      	mov	r3, r5
   2183a:	df02      	svc	2
   2183c:	287f      	cmp	r0, #127	@ 0x7f
   2183e:	d810      	bhi.n	21862 <_ZN18complex_no_dynamic3app17h56b1e20fb9ee6486E+0x6a>
   21840:	2001      	movs	r0, #1
   21842:	7020      	strb	r0, [r4, #0]
   21844:	6061      	str	r1, [r4, #4]
   21846:	4c15      	ldr	r4, [pc, #84]	@ (2189c <_ZN18complex_no_dynamic3app17h56b1e20fb9ee6486E+0xa4>)
   21848:	2108      	movs	r1, #8
   2184a:	2500      	movs	r5, #0
   2184c:	4620      	mov	r0, r4
   2184e:	462a      	mov	r2, r5
   21850:	462b      	mov	r3, r5
   21852:	df03      	svc	3
   21854:	2104      	movs	r1, #4
   21856:	4620      	mov	r0, r4
   21858:	462a      	mov	r2, r5
   2185a:	462b      	mov	r3, r5
   2185c:	df04      	svc	4
   2185e:	b015      	add	sp, #84	@ 0x54
   21860:	bdf0      	pop	{r4, r5, r6, r7, pc}
   21862:	480e      	ldr	r0, [pc, #56]	@ (2189c <_ZN18complex_no_dynamic3app17h56b1e20fb9ee6486E+0xa4>)
   21864:	2608      	movs	r6, #8
   21866:	4631      	mov	r1, r6
   21868:	462a      	mov	r2, r5
   2186a:	462b      	mov	r3, r5
   2186c:	df03      	svc	3
   2186e:	480b      	ldr	r0, [pc, #44]	@ (2189c <_ZN18complex_no_dynamic3app17h56b1e20fb9ee6486E+0xa4>)
   21870:	4631      	mov	r1, r6
   21872:	462a      	mov	r2, r5
   21874:	462b      	mov	r3, r5
   21876:	df03      	svc	3
   21878:	1c60      	adds	r0, r4, #1
   2187a:	a90b      	add	r1, sp, #44	@ 0x2c
   2187c:	2228      	movs	r2, #40	@ 0x28
   2187e:	f005 fb1e 	bl	26ebe <__aeabi_memcpy>
   21882:	7025      	strb	r5, [r4, #0]
   21884:	4c05      	ldr	r4, [pc, #20]	@ (2189c <_ZN18complex_no_dynamic3app17h56b1e20fb9ee6486E+0xa4>)
   21886:	4620      	mov	r0, r4
   21888:	4631      	mov	r1, r6
   2188a:	462a      	mov	r2, r5
   2188c:	462b      	mov	r3, r5
   2188e:	df03      	svc	3
   21890:	2104      	movs	r1, #4
   21892:	4620      	mov	r0, r4
   21894:	462a      	mov	r2, r5
   21896:	462b      	mov	r3, r5
   21898:	df04      	svc	4
   2189a:	e7e0      	b.n	2185e <_ZN18complex_no_dynamic3app17h56b1e20fb9ee6486E+0x66>
   2189c:	00001efa 	.word	0x00001efa

000218a0 <_ZN18complex_no_dynamic3app17h5c3ba6ff92bad1c8E>:
   218a0:	b5f0      	push	{r4, r5, r6, r7, lr}
   218a2:	af03      	add	r7, sp, #12
   218a4:	b0a3      	sub	sp, #140	@ 0x8c
   218a6:	9001      	str	r0, [sp, #4]
   218a8:	ae02      	add	r6, sp, #8
   218aa:	2461      	movs	r4, #97	@ 0x61
   218ac:	4630      	mov	r0, r6
   218ae:	4622      	mov	r2, r4
   218b0:	f005 fb05 	bl	26ebe <__aeabi_memcpy>
   218b4:	a81b      	add	r0, sp, #108	@ 0x6c
   218b6:	211e      	movs	r1, #30
   218b8:	f005 f954 	bl	26b64 <__aeabi_memclr4>
   218bc:	2031      	movs	r0, #49	@ 0x31
   218be:	00c5      	lsls	r5, r0, #3
   218c0:	2104      	movs	r1, #4
   218c2:	4628      	mov	r0, r5
   218c4:	4632      	mov	r2, r6
   218c6:	4623      	mov	r3, r4
   218c8:	df04      	svc	4
   218ca:	2802      	cmp	r0, #2
   218cc:	d00e      	beq.n	218ec <_ZN18complex_no_dynamic3app17h5c3ba6ff92bad1c8E+0x4c>
   218ce:	2106      	movs	r1, #6
   218d0:	aa1b      	add	r2, sp, #108	@ 0x6c
   218d2:	231e      	movs	r3, #30
   218d4:	4628      	mov	r0, r5
   218d6:	df03      	svc	3
   218d8:	2802      	cmp	r0, #2
   218da:	d007      	beq.n	218ec <_ZN18complex_no_dynamic3app17h5c3ba6ff92bad1c8E+0x4c>
   218dc:	2104      	movs	r1, #4
   218de:	2206      	movs	r2, #6
   218e0:	2600      	movs	r6, #0
   218e2:	4628      	mov	r0, r5
   218e4:	4633      	mov	r3, r6
   218e6:	df02      	svc	2
   218e8:	287f      	cmp	r0, #127	@ 0x7f
   218ea:	d810      	bhi.n	2190e <_ZN18complex_no_dynamic3app17h5c3ba6ff92bad1c8E+0x6e>
   218ec:	2001      	movs	r0, #1
   218ee:	9a01      	ldr	r2, [sp, #4]
   218f0:	7010      	strb	r0, [r2, #0]
   218f2:	6051      	str	r1, [r2, #4]
   218f4:	2106      	movs	r1, #6
   218f6:	2400      	movs	r4, #0
   218f8:	4628      	mov	r0, r5
   218fa:	4622      	mov	r2, r4
   218fc:	4623      	mov	r3, r4
   218fe:	df03      	svc	3
   21900:	2104      	movs	r1, #4
   21902:	4628      	mov	r0, r5
   21904:	4622      	mov	r2, r4
   21906:	4623      	mov	r3, r4
   21908:	df04      	svc	4
   2190a:	b023      	add	sp, #140	@ 0x8c
   2190c:	bdf0      	pop	{r4, r5, r6, r7, pc}
   2190e:	2406      	movs	r4, #6
   21910:	9400      	str	r4, [sp, #0]
   21912:	4628      	mov	r0, r5
   21914:	4621      	mov	r1, r4
   21916:	4632      	mov	r2, r6
   21918:	4633      	mov	r3, r6
   2191a:	df03      	svc	3
   2191c:	4628      	mov	r0, r5
   2191e:	4621      	mov	r1, r4
   21920:	4632      	mov	r2, r6
   21922:	4633      	mov	r3, r6
   21924:	df03      	svc	3
   21926:	9c01      	ldr	r4, [sp, #4]
   21928:	1c60      	adds	r0, r4, #1
   2192a:	a91b      	add	r1, sp, #108	@ 0x6c
   2192c:	221e      	movs	r2, #30
   2192e:	f005 fac6 	bl	26ebe <__aeabi_memcpy>
   21932:	7026      	strb	r6, [r4, #0]
   21934:	4628      	mov	r0, r5
   21936:	9900      	ldr	r1, [sp, #0]
   21938:	4632      	mov	r2, r6
   2193a:	4633      	mov	r3, r6
   2193c:	df03      	svc	3
   2193e:	2104      	movs	r1, #4
   21940:	4628      	mov	r0, r5
   21942:	4632      	mov	r2, r6
   21944:	4633      	mov	r3, r6
   21946:	df04      	svc	4
   21948:	e7df      	b.n	2190a <_ZN18complex_no_dynamic3app17h5c3ba6ff92bad1c8E+0x6a>
   2194a:	d4d4      	bmi.n	218f6 <_ZN18complex_no_dynamic3app17h5c3ba6ff92bad1c8E+0x56>

0002194c <_ZN18complex_no_dynamic3app17h684de08290679f3dE>:
   2194c:	b5f0      	push	{r4, r5, r6, r7, lr}
   2194e:	af03      	add	r7, sp, #12
   21950:	b09b      	sub	sp, #108	@ 0x6c
   21952:	4604      	mov	r4, r0
   21954:	466d      	mov	r5, sp
   21956:	2655      	movs	r6, #85	@ 0x55
   21958:	4628      	mov	r0, r5
   2195a:	4632      	mov	r2, r6
   2195c:	f005 faaf 	bl	26ebe <__aeabi_memcpy>
   21960:	a816      	add	r0, sp, #88	@ 0x58
   21962:	2111      	movs	r1, #17
   21964:	f005 f8fe 	bl	26b64 <__aeabi_memclr4>
   21968:	4822      	ldr	r0, [pc, #136]	@ (219f4 <_ZN18complex_no_dynamic3app17h684de08290679f3dE+0xa8>)
   2196a:	2102      	movs	r1, #2
   2196c:	462a      	mov	r2, r5
   2196e:	4633      	mov	r3, r6
   21970:	df04      	svc	4
   21972:	2802      	cmp	r0, #2
   21974:	d00e      	beq.n	21994 <_ZN18complex_no_dynamic3app17h684de08290679f3dE+0x48>
   21976:	481f      	ldr	r0, [pc, #124]	@ (219f4 <_ZN18complex_no_dynamic3app17h684de08290679f3dE+0xa8>)
   21978:	2102      	movs	r1, #2
   2197a:	aa16      	add	r2, sp, #88	@ 0x58
   2197c:	2311      	movs	r3, #17
   2197e:	df03      	svc	3
   21980:	2802      	cmp	r0, #2
   21982:	d007      	beq.n	21994 <_ZN18complex_no_dynamic3app17h684de08290679f3dE+0x48>
   21984:	481b      	ldr	r0, [pc, #108]	@ (219f4 <_ZN18complex_no_dynamic3app17h684de08290679f3dE+0xa8>)
   21986:	2102      	movs	r1, #2
   21988:	2500      	movs	r5, #0
   2198a:	460a      	mov	r2, r1
   2198c:	462b      	mov	r3, r5
   2198e:	df02      	svc	2
   21990:	287f      	cmp	r0, #127	@ 0x7f
   21992:	d811      	bhi.n	219b8 <_ZN18complex_no_dynamic3app17h684de08290679f3dE+0x6c>
   21994:	2001      	movs	r0, #1
   21996:	7020      	strb	r0, [r4, #0]
   21998:	6061      	str	r1, [r4, #4]
   2199a:	4c16      	ldr	r4, [pc, #88]	@ (219f4 <_ZN18complex_no_dynamic3app17h684de08290679f3dE+0xa8>)
   2199c:	2502      	movs	r5, #2
   2199e:	2600      	movs	r6, #0
   219a0:	4620      	mov	r0, r4
   219a2:	4629      	mov	r1, r5
   219a4:	4632      	mov	r2, r6
   219a6:	4633      	mov	r3, r6
   219a8:	df03      	svc	3
   219aa:	4620      	mov	r0, r4
   219ac:	4629      	mov	r1, r5
   219ae:	4632      	mov	r2, r6
   219b0:	4633      	mov	r3, r6
   219b2:	df04      	svc	4
   219b4:	b01b      	add	sp, #108	@ 0x6c
   219b6:	bdf0      	pop	{r4, r5, r6, r7, pc}
   219b8:	480e      	ldr	r0, [pc, #56]	@ (219f4 <_ZN18complex_no_dynamic3app17h684de08290679f3dE+0xa8>)
   219ba:	2602      	movs	r6, #2
   219bc:	4631      	mov	r1, r6
   219be:	462a      	mov	r2, r5
   219c0:	462b      	mov	r3, r5
   219c2:	df03      	svc	3
   219c4:	480b      	ldr	r0, [pc, #44]	@ (219f4 <_ZN18complex_no_dynamic3app17h684de08290679f3dE+0xa8>)
   219c6:	4631      	mov	r1, r6
   219c8:	462a      	mov	r2, r5
   219ca:	462b      	mov	r3, r5
   219cc:	df03      	svc	3
   219ce:	1c60      	adds	r0, r4, #1
   219d0:	a916      	add	r1, sp, #88	@ 0x58
   219d2:	2211      	movs	r2, #17
   219d4:	f005 fa73 	bl	26ebe <__aeabi_memcpy>
   219d8:	7025      	strb	r5, [r4, #0]
   219da:	4c06      	ldr	r4, [pc, #24]	@ (219f4 <_ZN18complex_no_dynamic3app17h684de08290679f3dE+0xa8>)
   219dc:	4620      	mov	r0, r4
   219de:	4631      	mov	r1, r6
   219e0:	462a      	mov	r2, r5
   219e2:	462b      	mov	r3, r5
   219e4:	df03      	svc	3
   219e6:	4620      	mov	r0, r4
   219e8:	4631      	mov	r1, r6
   219ea:	462a      	mov	r2, r5
   219ec:	462b      	mov	r3, r5
   219ee:	df04      	svc	4
   219f0:	e7e0      	b.n	219b4 <_ZN18complex_no_dynamic3app17h684de08290679f3dE+0x68>
   219f2:	46c0      	nop			@ (mov r8, r8)
   219f4:	00000c89 	.word	0x00000c89

000219f8 <_ZN18complex_no_dynamic3app17h68ac22e45b0eba3eE>:
   219f8:	b5f0      	push	{r4, r5, r6, r7, lr}
   219fa:	af03      	add	r7, sp, #12
   219fc:	b09d      	sub	sp, #116	@ 0x74
   219fe:	9001      	str	r0, [sp, #4]
   21a00:	ae02      	add	r6, sp, #8
   21a02:	2450      	movs	r4, #80	@ 0x50
   21a04:	4630      	mov	r0, r6
   21a06:	4622      	mov	r2, r4
   21a08:	f005 fa59 	bl	26ebe <__aeabi_memcpy>
   21a0c:	a816      	add	r0, sp, #88	@ 0x58
   21a0e:	211b      	movs	r1, #27
   21a10:	f005 f8a8 	bl	26b64 <__aeabi_memclr4>
   21a14:	4823      	ldr	r0, [pc, #140]	@ (21aa4 <_ZN18complex_no_dynamic3app17h68ac22e45b0eba3eE+0xac>)
   21a16:	2501      	movs	r5, #1
   21a18:	4629      	mov	r1, r5
   21a1a:	4632      	mov	r2, r6
   21a1c:	4623      	mov	r3, r4
   21a1e:	df04      	svc	4
   21a20:	2802      	cmp	r0, #2
   21a22:	d00e      	beq.n	21a42 <_ZN18complex_no_dynamic3app17h68ac22e45b0eba3eE+0x4a>
   21a24:	481f      	ldr	r0, [pc, #124]	@ (21aa4 <_ZN18complex_no_dynamic3app17h68ac22e45b0eba3eE+0xac>)
   21a26:	2102      	movs	r1, #2
   21a28:	aa16      	add	r2, sp, #88	@ 0x58
   21a2a:	231b      	movs	r3, #27
   21a2c:	df03      	svc	3
   21a2e:	2802      	cmp	r0, #2
   21a30:	d007      	beq.n	21a42 <_ZN18complex_no_dynamic3app17h68ac22e45b0eba3eE+0x4a>
   21a32:	481c      	ldr	r0, [pc, #112]	@ (21aa4 <_ZN18complex_no_dynamic3app17h68ac22e45b0eba3eE+0xac>)
   21a34:	2101      	movs	r1, #1
   21a36:	2202      	movs	r2, #2
   21a38:	2600      	movs	r6, #0
   21a3a:	4633      	mov	r3, r6
   21a3c:	df02      	svc	2
   21a3e:	287f      	cmp	r0, #127	@ 0x7f
   21a40:	d810      	bhi.n	21a64 <_ZN18complex_no_dynamic3app17h68ac22e45b0eba3eE+0x6c>
   21a42:	9801      	ldr	r0, [sp, #4]
   21a44:	7005      	strb	r5, [r0, #0]
   21a46:	6041      	str	r1, [r0, #4]
   21a48:	4c16      	ldr	r4, [pc, #88]	@ (21aa4 <_ZN18complex_no_dynamic3app17h68ac22e45b0eba3eE+0xac>)
   21a4a:	2102      	movs	r1, #2
   21a4c:	2600      	movs	r6, #0
   21a4e:	4620      	mov	r0, r4
   21a50:	4632      	mov	r2, r6
   21a52:	4633      	mov	r3, r6
   21a54:	df03      	svc	3
   21a56:	4620      	mov	r0, r4
   21a58:	4629      	mov	r1, r5
   21a5a:	4632      	mov	r2, r6
   21a5c:	4633      	mov	r3, r6
   21a5e:	df04      	svc	4
   21a60:	b01d      	add	sp, #116	@ 0x74
   21a62:	bdf0      	pop	{r4, r5, r6, r7, pc}
   21a64:	4c0f      	ldr	r4, [pc, #60]	@ (21aa4 <_ZN18complex_no_dynamic3app17h68ac22e45b0eba3eE+0xac>)
   21a66:	2502      	movs	r5, #2
   21a68:	4620      	mov	r0, r4
   21a6a:	4629      	mov	r1, r5
   21a6c:	4632      	mov	r2, r6
   21a6e:	4633      	mov	r3, r6
   21a70:	df03      	svc	3
   21a72:	4620      	mov	r0, r4
   21a74:	4629      	mov	r1, r5
   21a76:	4632      	mov	r2, r6
   21a78:	4633      	mov	r3, r6
   21a7a:	df03      	svc	3
   21a7c:	9c01      	ldr	r4, [sp, #4]
   21a7e:	1c60      	adds	r0, r4, #1
   21a80:	a916      	add	r1, sp, #88	@ 0x58
   21a82:	221b      	movs	r2, #27
   21a84:	f005 fa1b 	bl	26ebe <__aeabi_memcpy>
   21a88:	7026      	strb	r6, [r4, #0]
   21a8a:	4c06      	ldr	r4, [pc, #24]	@ (21aa4 <_ZN18complex_no_dynamic3app17h68ac22e45b0eba3eE+0xac>)
   21a8c:	4620      	mov	r0, r4
   21a8e:	4629      	mov	r1, r5
   21a90:	4632      	mov	r2, r6
   21a92:	4633      	mov	r3, r6
   21a94:	df03      	svc	3
   21a96:	2101      	movs	r1, #1
   21a98:	4620      	mov	r0, r4
   21a9a:	4632      	mov	r2, r6
   21a9c:	4633      	mov	r3, r6
   21a9e:	df04      	svc	4
   21aa0:	e7de      	b.n	21a60 <_ZN18complex_no_dynamic3app17h68ac22e45b0eba3eE+0x68>
   21aa2:	46c0      	nop			@ (mov r8, r8)
   21aa4:	000003d9 	.word	0x000003d9

00021aa8 <_ZN18complex_no_dynamic3app17h69a39c634c269f97E>:
   21aa8:	b5f0      	push	{r4, r5, r6, r7, lr}
   21aaa:	af03      	add	r7, sp, #12
   21aac:	b09f      	sub	sp, #124	@ 0x7c
   21aae:	4604      	mov	r4, r0
   21ab0:	ad01      	add	r5, sp, #4
   21ab2:	2635      	movs	r6, #53	@ 0x35
   21ab4:	4628      	mov	r0, r5
   21ab6:	4632      	mov	r2, r6
   21ab8:	f005 fa01 	bl	26ebe <__aeabi_memcpy>
   21abc:	a80f      	add	r0, sp, #60	@ 0x3c
   21abe:	213f      	movs	r1, #63	@ 0x3f
   21ac0:	f005 f850 	bl	26b64 <__aeabi_memclr4>
   21ac4:	4821      	ldr	r0, [pc, #132]	@ (21b4c <_ZN18complex_no_dynamic3app17h69a39c634c269f97E+0xa4>)
   21ac6:	2100      	movs	r1, #0
   21ac8:	462a      	mov	r2, r5
   21aca:	4633      	mov	r3, r6
   21acc:	df04      	svc	4
   21ace:	2802      	cmp	r0, #2
   21ad0:	d00e      	beq.n	21af0 <_ZN18complex_no_dynamic3app17h69a39c634c269f97E+0x48>
   21ad2:	481e      	ldr	r0, [pc, #120]	@ (21b4c <_ZN18complex_no_dynamic3app17h69a39c634c269f97E+0xa4>)
   21ad4:	2103      	movs	r1, #3
   21ad6:	aa0f      	add	r2, sp, #60	@ 0x3c
   21ad8:	233f      	movs	r3, #63	@ 0x3f
   21ada:	df03      	svc	3
   21adc:	2802      	cmp	r0, #2
   21ade:	d007      	beq.n	21af0 <_ZN18complex_no_dynamic3app17h69a39c634c269f97E+0x48>
   21ae0:	481a      	ldr	r0, [pc, #104]	@ (21b4c <_ZN18complex_no_dynamic3app17h69a39c634c269f97E+0xa4>)
   21ae2:	2203      	movs	r2, #3
   21ae4:	2500      	movs	r5, #0
   21ae6:	4629      	mov	r1, r5
   21ae8:	462b      	mov	r3, r5
   21aea:	df02      	svc	2
   21aec:	287f      	cmp	r0, #127	@ 0x7f
   21aee:	d810      	bhi.n	21b12 <_ZN18complex_no_dynamic3app17h69a39c634c269f97E+0x6a>
   21af0:	2001      	movs	r0, #1
   21af2:	7020      	strb	r0, [r4, #0]
   21af4:	6061      	str	r1, [r4, #4]
   21af6:	4c15      	ldr	r4, [pc, #84]	@ (21b4c <_ZN18complex_no_dynamic3app17h69a39c634c269f97E+0xa4>)
   21af8:	2103      	movs	r1, #3
   21afa:	2500      	movs	r5, #0
   21afc:	4620      	mov	r0, r4
   21afe:	462a      	mov	r2, r5
   21b00:	462b      	mov	r3, r5
   21b02:	df03      	svc	3
   21b04:	4620      	mov	r0, r4
   21b06:	4629      	mov	r1, r5
   21b08:	462a      	mov	r2, r5
   21b0a:	462b      	mov	r3, r5
   21b0c:	df04      	svc	4
   21b0e:	b01f      	add	sp, #124	@ 0x7c
   21b10:	bdf0      	pop	{r4, r5, r6, r7, pc}
   21b12:	480e      	ldr	r0, [pc, #56]	@ (21b4c <_ZN18complex_no_dynamic3app17h69a39c634c269f97E+0xa4>)
   21b14:	2603      	movs	r6, #3
   21b16:	4631      	mov	r1, r6
   21b18:	462a      	mov	r2, r5
   21b1a:	462b      	mov	r3, r5
   21b1c:	df03      	svc	3
   21b1e:	480b      	ldr	r0, [pc, #44]	@ (21b4c <_ZN18complex_no_dynamic3app17h69a39c634c269f97E+0xa4>)
   21b20:	4631      	mov	r1, r6
   21b22:	462a      	mov	r2, r5
   21b24:	462b      	mov	r3, r5
   21b26:	df03      	svc	3
   21b28:	1c60      	adds	r0, r4, #1
   21b2a:	a90f      	add	r1, sp, #60	@ 0x3c
   21b2c:	223f      	movs	r2, #63	@ 0x3f
   21b2e:	f005 f9c6 	bl	26ebe <__aeabi_memcpy>
   21b32:	7025      	strb	r5, [r4, #0]
   21b34:	4c05      	ldr	r4, [pc, #20]	@ (21b4c <_ZN18complex_no_dynamic3app17h69a39c634c269f97E+0xa4>)
   21b36:	4620      	mov	r0, r4
   21b38:	4631      	mov	r1, r6
   21b3a:	462a      	mov	r2, r5
   21b3c:	462b      	mov	r3, r5
   21b3e:	df03      	svc	3
   21b40:	4620      	mov	r0, r4
   21b42:	4629      	mov	r1, r5
   21b44:	462a      	mov	r2, r5
   21b46:	462b      	mov	r3, r5
   21b48:	df04      	svc	4
   21b4a:	e7e0      	b.n	21b0e <_ZN18complex_no_dynamic3app17h69a39c634c269f97E+0x66>
   21b4c:	00000e57 	.word	0x00000e57

00021b50 <_ZN18complex_no_dynamic3app17h6ba34881a260b0ebE>:
   21b50:	b5f0      	push	{r4, r5, r6, r7, lr}
   21b52:	af03      	add	r7, sp, #12
   21b54:	b097      	sub	sp, #92	@ 0x5c
   21b56:	4604      	mov	r4, r0
   21b58:	ad01      	add	r5, sp, #4
   21b5a:	260f      	movs	r6, #15
   21b5c:	4628      	mov	r0, r5
   21b5e:	4632      	mov	r2, r6
   21b60:	f005 f9ad 	bl	26ebe <__aeabi_memcpy>
   21b64:	a805      	add	r0, sp, #20
   21b66:	2146      	movs	r1, #70	@ 0x46
   21b68:	f004 fffc 	bl	26b64 <__aeabi_memclr4>
   21b6c:	4821      	ldr	r0, [pc, #132]	@ (21bf4 <_ZN18complex_no_dynamic3app17h6ba34881a260b0ebE+0xa4>)
   21b6e:	2109      	movs	r1, #9
   21b70:	462a      	mov	r2, r5
   21b72:	4633      	mov	r3, r6
   21b74:	df04      	svc	4
   21b76:	2802      	cmp	r0, #2
   21b78:	d00e      	beq.n	21b98 <_ZN18complex_no_dynamic3app17h6ba34881a260b0ebE+0x48>
   21b7a:	481e      	ldr	r0, [pc, #120]	@ (21bf4 <_ZN18complex_no_dynamic3app17h6ba34881a260b0ebE+0xa4>)
   21b7c:	2102      	movs	r1, #2
   21b7e:	aa05      	add	r2, sp, #20
   21b80:	2346      	movs	r3, #70	@ 0x46
   21b82:	df03      	svc	3
   21b84:	2802      	cmp	r0, #2
   21b86:	d007      	beq.n	21b98 <_ZN18complex_no_dynamic3app17h6ba34881a260b0ebE+0x48>
   21b88:	481a      	ldr	r0, [pc, #104]	@ (21bf4 <_ZN18complex_no_dynamic3app17h6ba34881a260b0ebE+0xa4>)
   21b8a:	2109      	movs	r1, #9
   21b8c:	2202      	movs	r2, #2
   21b8e:	2500      	movs	r5, #0
   21b90:	462b      	mov	r3, r5
   21b92:	df02      	svc	2
   21b94:	287f      	cmp	r0, #127	@ 0x7f
   21b96:	d810      	bhi.n	21bba <_ZN18complex_no_dynamic3app17h6ba34881a260b0ebE+0x6a>
   21b98:	2001      	movs	r0, #1
   21b9a:	7020      	strb	r0, [r4, #0]
   21b9c:	6061      	str	r1, [r4, #4]
   21b9e:	4c15      	ldr	r4, [pc, #84]	@ (21bf4 <_ZN18complex_no_dynamic3app17h6ba34881a260b0ebE+0xa4>)
   21ba0:	2102      	movs	r1, #2
   21ba2:	2500      	movs	r5, #0
   21ba4:	4620      	mov	r0, r4
   21ba6:	462a      	mov	r2, r5
   21ba8:	462b      	mov	r3, r5
   21baa:	df03      	svc	3
   21bac:	2109      	movs	r1, #9
   21bae:	4620      	mov	r0, r4
   21bb0:	462a      	mov	r2, r5
   21bb2:	462b      	mov	r3, r5
   21bb4:	df04      	svc	4
   21bb6:	b017      	add	sp, #92	@ 0x5c
   21bb8:	bdf0      	pop	{r4, r5, r6, r7, pc}
   21bba:	480e      	ldr	r0, [pc, #56]	@ (21bf4 <_ZN18complex_no_dynamic3app17h6ba34881a260b0ebE+0xa4>)
   21bbc:	2602      	movs	r6, #2
   21bbe:	4631      	mov	r1, r6
   21bc0:	462a      	mov	r2, r5
   21bc2:	462b      	mov	r3, r5
   21bc4:	df03      	svc	3
   21bc6:	480b      	ldr	r0, [pc, #44]	@ (21bf4 <_ZN18complex_no_dynamic3app17h6ba34881a260b0ebE+0xa4>)
   21bc8:	4631      	mov	r1, r6
   21bca:	462a      	mov	r2, r5
   21bcc:	462b      	mov	r3, r5
   21bce:	df03      	svc	3
   21bd0:	1c60      	adds	r0, r4, #1
   21bd2:	a905      	add	r1, sp, #20
   21bd4:	2246      	movs	r2, #70	@ 0x46
   21bd6:	f005 f972 	bl	26ebe <__aeabi_memcpy>
   21bda:	7025      	strb	r5, [r4, #0]
   21bdc:	4c05      	ldr	r4, [pc, #20]	@ (21bf4 <_ZN18complex_no_dynamic3app17h6ba34881a260b0ebE+0xa4>)
   21bde:	4620      	mov	r0, r4
   21be0:	4631      	mov	r1, r6
   21be2:	462a      	mov	r2, r5
   21be4:	462b      	mov	r3, r5
   21be6:	df03      	svc	3
   21be8:	2109      	movs	r1, #9
   21bea:	4620      	mov	r0, r4
   21bec:	462a      	mov	r2, r5
   21bee:	462b      	mov	r3, r5
   21bf0:	df04      	svc	4
   21bf2:	e7e0      	b.n	21bb6 <_ZN18complex_no_dynamic3app17h6ba34881a260b0ebE+0x66>
   21bf4:	00001d7e 	.word	0x00001d7e

00021bf8 <_ZN18complex_no_dynamic3app17h6c2323dac7d2a43fE>:
   21bf8:	b5f0      	push	{r4, r5, r6, r7, lr}
   21bfa:	af03      	add	r7, sp, #12
   21bfc:	b0a9      	sub	sp, #164	@ 0xa4
   21bfe:	4604      	mov	r4, r0
   21c00:	466d      	mov	r5, sp
   21c02:	2651      	movs	r6, #81	@ 0x51
   21c04:	4628      	mov	r0, r5
   21c06:	4632      	mov	r2, r6
   21c08:	f005 f959 	bl	26ebe <__aeabi_memcpy>
   21c0c:	a815      	add	r0, sp, #84	@ 0x54
   21c0e:	214f      	movs	r1, #79	@ 0x4f
   21c10:	f004 ffa8 	bl	26b64 <__aeabi_memclr4>
   21c14:	4821      	ldr	r0, [pc, #132]	@ (21c9c <_ZN18complex_no_dynamic3app17h6c2323dac7d2a43fE+0xa4>)
   21c16:	2104      	movs	r1, #4
   21c18:	462a      	mov	r2, r5
   21c1a:	4633      	mov	r3, r6
   21c1c:	df04      	svc	4
   21c1e:	2802      	cmp	r0, #2
   21c20:	d00e      	beq.n	21c40 <_ZN18complex_no_dynamic3app17h6c2323dac7d2a43fE+0x48>
   21c22:	481e      	ldr	r0, [pc, #120]	@ (21c9c <_ZN18complex_no_dynamic3app17h6c2323dac7d2a43fE+0xa4>)
   21c24:	2109      	movs	r1, #9
   21c26:	aa15      	add	r2, sp, #84	@ 0x54
   21c28:	234f      	movs	r3, #79	@ 0x4f
   21c2a:	df03      	svc	3
   21c2c:	2802      	cmp	r0, #2
   21c2e:	d007      	beq.n	21c40 <_ZN18complex_no_dynamic3app17h6c2323dac7d2a43fE+0x48>
   21c30:	481a      	ldr	r0, [pc, #104]	@ (21c9c <_ZN18complex_no_dynamic3app17h6c2323dac7d2a43fE+0xa4>)
   21c32:	2104      	movs	r1, #4
   21c34:	2209      	movs	r2, #9
   21c36:	2500      	movs	r5, #0
   21c38:	462b      	mov	r3, r5
   21c3a:	df02      	svc	2
   21c3c:	287f      	cmp	r0, #127	@ 0x7f
   21c3e:	d810      	bhi.n	21c62 <_ZN18complex_no_dynamic3app17h6c2323dac7d2a43fE+0x6a>
   21c40:	2001      	movs	r0, #1
   21c42:	7020      	strb	r0, [r4, #0]
   21c44:	6061      	str	r1, [r4, #4]
   21c46:	4c15      	ldr	r4, [pc, #84]	@ (21c9c <_ZN18complex_no_dynamic3app17h6c2323dac7d2a43fE+0xa4>)
   21c48:	2109      	movs	r1, #9
   21c4a:	2500      	movs	r5, #0
   21c4c:	4620      	mov	r0, r4
   21c4e:	462a      	mov	r2, r5
   21c50:	462b      	mov	r3, r5
   21c52:	df03      	svc	3
   21c54:	2104      	movs	r1, #4
   21c56:	4620      	mov	r0, r4
   21c58:	462a      	mov	r2, r5
   21c5a:	462b      	mov	r3, r5
   21c5c:	df04      	svc	4
   21c5e:	b029      	add	sp, #164	@ 0xa4
   21c60:	bdf0      	pop	{r4, r5, r6, r7, pc}
   21c62:	480e      	ldr	r0, [pc, #56]	@ (21c9c <_ZN18complex_no_dynamic3app17h6c2323dac7d2a43fE+0xa4>)
   21c64:	2609      	movs	r6, #9
   21c66:	4631      	mov	r1, r6
   21c68:	462a      	mov	r2, r5
   21c6a:	462b      	mov	r3, r5
   21c6c:	df03      	svc	3
   21c6e:	480b      	ldr	r0, [pc, #44]	@ (21c9c <_ZN18complex_no_dynamic3app17h6c2323dac7d2a43fE+0xa4>)
   21c70:	4631      	mov	r1, r6
   21c72:	462a      	mov	r2, r5
   21c74:	462b      	mov	r3, r5
   21c76:	df03      	svc	3
   21c78:	1c60      	adds	r0, r4, #1
   21c7a:	a915      	add	r1, sp, #84	@ 0x54
   21c7c:	224f      	movs	r2, #79	@ 0x4f
   21c7e:	f005 f91e 	bl	26ebe <__aeabi_memcpy>
   21c82:	7025      	strb	r5, [r4, #0]
   21c84:	4c05      	ldr	r4, [pc, #20]	@ (21c9c <_ZN18complex_no_dynamic3app17h6c2323dac7d2a43fE+0xa4>)
   21c86:	4620      	mov	r0, r4
   21c88:	4631      	mov	r1, r6
   21c8a:	462a      	mov	r2, r5
   21c8c:	462b      	mov	r3, r5
   21c8e:	df03      	svc	3
   21c90:	2104      	movs	r1, #4
   21c92:	4620      	mov	r0, r4
   21c94:	462a      	mov	r2, r5
   21c96:	462b      	mov	r3, r5
   21c98:	df04      	svc	4
   21c9a:	e7e0      	b.n	21c5e <_ZN18complex_no_dynamic3app17h6c2323dac7d2a43fE+0x66>
   21c9c:	000020ee 	.word	0x000020ee

00021ca0 <_ZN18complex_no_dynamic3app17h6e5acf2ea7cb99b7E>:
   21ca0:	b5f0      	push	{r4, r5, r6, r7, lr}
   21ca2:	af03      	add	r7, sp, #12
   21ca4:	b0a3      	sub	sp, #140	@ 0x8c
   21ca6:	4604      	mov	r4, r0
   21ca8:	466d      	mov	r5, sp
   21caa:	2655      	movs	r6, #85	@ 0x55
   21cac:	4628      	mov	r0, r5
   21cae:	4632      	mov	r2, r6
   21cb0:	f005 f905 	bl	26ebe <__aeabi_memcpy>
   21cb4:	a816      	add	r0, sp, #88	@ 0x58
   21cb6:	2132      	movs	r1, #50	@ 0x32
   21cb8:	f004 ff54 	bl	26b64 <__aeabi_memclr4>
   21cbc:	4822      	ldr	r0, [pc, #136]	@ (21d48 <_ZN18complex_no_dynamic3app17h6e5acf2ea7cb99b7E+0xa8>)
   21cbe:	2108      	movs	r1, #8
   21cc0:	462a      	mov	r2, r5
   21cc2:	4633      	mov	r3, r6
   21cc4:	df04      	svc	4
   21cc6:	2802      	cmp	r0, #2
   21cc8:	d00e      	beq.n	21ce8 <_ZN18complex_no_dynamic3app17h6e5acf2ea7cb99b7E+0x48>
   21cca:	481f      	ldr	r0, [pc, #124]	@ (21d48 <_ZN18complex_no_dynamic3app17h6e5acf2ea7cb99b7E+0xa8>)
   21ccc:	2108      	movs	r1, #8
   21cce:	aa16      	add	r2, sp, #88	@ 0x58
   21cd0:	2332      	movs	r3, #50	@ 0x32
   21cd2:	df03      	svc	3
   21cd4:	2802      	cmp	r0, #2
   21cd6:	d007      	beq.n	21ce8 <_ZN18complex_no_dynamic3app17h6e5acf2ea7cb99b7E+0x48>
   21cd8:	481b      	ldr	r0, [pc, #108]	@ (21d48 <_ZN18complex_no_dynamic3app17h6e5acf2ea7cb99b7E+0xa8>)
   21cda:	2108      	movs	r1, #8
   21cdc:	2500      	movs	r5, #0
   21cde:	460a      	mov	r2, r1
   21ce0:	462b      	mov	r3, r5
   21ce2:	df02      	svc	2
   21ce4:	287f      	cmp	r0, #127	@ 0x7f
   21ce6:	d811      	bhi.n	21d0c <_ZN18complex_no_dynamic3app17h6e5acf2ea7cb99b7E+0x6c>
   21ce8:	2001      	movs	r0, #1
   21cea:	7020      	strb	r0, [r4, #0]
   21cec:	6061      	str	r1, [r4, #4]
   21cee:	4c16      	ldr	r4, [pc, #88]	@ (21d48 <_ZN18complex_no_dynamic3app17h6e5acf2ea7cb99b7E+0xa8>)
   21cf0:	2508      	movs	r5, #8
   21cf2:	2600      	movs	r6, #0
   21cf4:	4620      	mov	r0, r4
   21cf6:	4629      	mov	r1, r5
   21cf8:	4632      	mov	r2, r6
   21cfa:	4633      	mov	r3, r6
   21cfc:	df03      	svc	3
   21cfe:	4620      	mov	r0, r4
   21d00:	4629      	mov	r1, r5
   21d02:	4632      	mov	r2, r6
   21d04:	4633      	mov	r3, r6
   21d06:	df04      	svc	4
   21d08:	b023      	add	sp, #140	@ 0x8c
   21d0a:	bdf0      	pop	{r4, r5, r6, r7, pc}
   21d0c:	480e      	ldr	r0, [pc, #56]	@ (21d48 <_ZN18complex_no_dynamic3app17h6e5acf2ea7cb99b7E+0xa8>)
   21d0e:	2608      	movs	r6, #8
   21d10:	4631      	mov	r1, r6
   21d12:	462a      	mov	r2, r5
   21d14:	462b      	mov	r3, r5
   21d16:	df03      	svc	3
   21d18:	480b      	ldr	r0, [pc, #44]	@ (21d48 <_ZN18complex_no_dynamic3app17h6e5acf2ea7cb99b7E+0xa8>)
   21d1a:	4631      	mov	r1, r6
   21d1c:	462a      	mov	r2, r5
   21d1e:	462b      	mov	r3, r5
   21d20:	df03      	svc	3
   21d22:	1c60      	adds	r0, r4, #1
   21d24:	a916      	add	r1, sp, #88	@ 0x58
   21d26:	2232      	movs	r2, #50	@ 0x32
   21d28:	f005 f8c9 	bl	26ebe <__aeabi_memcpy>
   21d2c:	7025      	strb	r5, [r4, #0]
   21d2e:	4c06      	ldr	r4, [pc, #24]	@ (21d48 <_ZN18complex_no_dynamic3app17h6e5acf2ea7cb99b7E+0xa8>)
   21d30:	4620      	mov	r0, r4
   21d32:	4631      	mov	r1, r6
   21d34:	462a      	mov	r2, r5
   21d36:	462b      	mov	r3, r5
   21d38:	df03      	svc	3
   21d3a:	4620      	mov	r0, r4
   21d3c:	4631      	mov	r1, r6
   21d3e:	462a      	mov	r2, r5
   21d40:	462b      	mov	r3, r5
   21d42:	df04      	svc	4
   21d44:	e7e0      	b.n	21d08 <_ZN18complex_no_dynamic3app17h6e5acf2ea7cb99b7E+0x68>
   21d46:	46c0      	nop			@ (mov r8, r8)
   21d48:	00002095 	.word	0x00002095

00021d4c <_ZN18complex_no_dynamic3app17h6e6d5419d153c697E>:
   21d4c:	b5f0      	push	{r4, r5, r6, r7, lr}
   21d4e:	af03      	add	r7, sp, #12
   21d50:	b09d      	sub	sp, #116	@ 0x74
   21d52:	4604      	mov	r4, r0
   21d54:	466d      	mov	r5, sp
   21d56:	265d      	movs	r6, #93	@ 0x5d
   21d58:	4628      	mov	r0, r5
   21d5a:	4632      	mov	r2, r6
   21d5c:	f005 f8af 	bl	26ebe <__aeabi_memcpy>
   21d60:	a818      	add	r0, sp, #96	@ 0x60
   21d62:	2112      	movs	r1, #18
   21d64:	f004 fefe 	bl	26b64 <__aeabi_memclr4>
   21d68:	4821      	ldr	r0, [pc, #132]	@ (21df0 <_ZN18complex_no_dynamic3app17h6e6d5419d153c697E+0xa4>)
   21d6a:	2100      	movs	r1, #0
   21d6c:	462a      	mov	r2, r5
   21d6e:	4633      	mov	r3, r6
   21d70:	df04      	svc	4
   21d72:	2802      	cmp	r0, #2
   21d74:	d00e      	beq.n	21d94 <_ZN18complex_no_dynamic3app17h6e6d5419d153c697E+0x48>
   21d76:	481e      	ldr	r0, [pc, #120]	@ (21df0 <_ZN18complex_no_dynamic3app17h6e6d5419d153c697E+0xa4>)
   21d78:	2102      	movs	r1, #2
   21d7a:	aa18      	add	r2, sp, #96	@ 0x60
   21d7c:	2312      	movs	r3, #18
   21d7e:	df03      	svc	3
   21d80:	2802      	cmp	r0, #2
   21d82:	d007      	beq.n	21d94 <_ZN18complex_no_dynamic3app17h6e6d5419d153c697E+0x48>
   21d84:	481a      	ldr	r0, [pc, #104]	@ (21df0 <_ZN18complex_no_dynamic3app17h6e6d5419d153c697E+0xa4>)
   21d86:	2202      	movs	r2, #2
   21d88:	2500      	movs	r5, #0
   21d8a:	4629      	mov	r1, r5
   21d8c:	462b      	mov	r3, r5
   21d8e:	df02      	svc	2
   21d90:	287f      	cmp	r0, #127	@ 0x7f
   21d92:	d810      	bhi.n	21db6 <_ZN18complex_no_dynamic3app17h6e6d5419d153c697E+0x6a>
   21d94:	2001      	movs	r0, #1
   21d96:	7020      	strb	r0, [r4, #0]
   21d98:	6061      	str	r1, [r4, #4]
   21d9a:	4c15      	ldr	r4, [pc, #84]	@ (21df0 <_ZN18complex_no_dynamic3app17h6e6d5419d153c697E+0xa4>)
   21d9c:	2102      	movs	r1, #2
   21d9e:	2500      	movs	r5, #0
   21da0:	4620      	mov	r0, r4
   21da2:	462a      	mov	r2, r5
   21da4:	462b      	mov	r3, r5
   21da6:	df03      	svc	3
   21da8:	4620      	mov	r0, r4
   21daa:	4629      	mov	r1, r5
   21dac:	462a      	mov	r2, r5
   21dae:	462b      	mov	r3, r5
   21db0:	df04      	svc	4
   21db2:	b01d      	add	sp, #116	@ 0x74
   21db4:	bdf0      	pop	{r4, r5, r6, r7, pc}
   21db6:	480e      	ldr	r0, [pc, #56]	@ (21df0 <_ZN18complex_no_dynamic3app17h6e6d5419d153c697E+0xa4>)
   21db8:	2602      	movs	r6, #2
   21dba:	4631      	mov	r1, r6
   21dbc:	462a      	mov	r2, r5
   21dbe:	462b      	mov	r3, r5
   21dc0:	df03      	svc	3
   21dc2:	480b      	ldr	r0, [pc, #44]	@ (21df0 <_ZN18complex_no_dynamic3app17h6e6d5419d153c697E+0xa4>)
   21dc4:	4631      	mov	r1, r6
   21dc6:	462a      	mov	r2, r5
   21dc8:	462b      	mov	r3, r5
   21dca:	df03      	svc	3
   21dcc:	1c60      	adds	r0, r4, #1
   21dce:	a918      	add	r1, sp, #96	@ 0x60
   21dd0:	2212      	movs	r2, #18
   21dd2:	f005 f874 	bl	26ebe <__aeabi_memcpy>
   21dd6:	7025      	strb	r5, [r4, #0]
   21dd8:	4c05      	ldr	r4, [pc, #20]	@ (21df0 <_ZN18complex_no_dynamic3app17h6e6d5419d153c697E+0xa4>)
   21dda:	4620      	mov	r0, r4
   21ddc:	4631      	mov	r1, r6
   21dde:	462a      	mov	r2, r5
   21de0:	462b      	mov	r3, r5
   21de2:	df03      	svc	3
   21de4:	4620      	mov	r0, r4
   21de6:	4629      	mov	r1, r5
   21de8:	462a      	mov	r2, r5
   21dea:	462b      	mov	r3, r5
   21dec:	df04      	svc	4
   21dee:	e7e0      	b.n	21db2 <_ZN18complex_no_dynamic3app17h6e6d5419d153c697E+0x66>
   21df0:	000015f1 	.word	0x000015f1

00021df4 <_ZN18complex_no_dynamic3app17h71a1283dea09ade7E>:
   21df4:	b5f0      	push	{r4, r5, r6, r7, lr}
   21df6:	af03      	add	r7, sp, #12
   21df8:	b09f      	sub	sp, #124	@ 0x7c
   21dfa:	4604      	mov	r4, r0
   21dfc:	ad01      	add	r5, sp, #4
   21dfe:	2621      	movs	r6, #33	@ 0x21
   21e00:	4628      	mov	r0, r5
   21e02:	4632      	mov	r2, r6
   21e04:	f005 f85b 	bl	26ebe <__aeabi_memcpy>
   21e08:	a80a      	add	r0, sp, #40	@ 0x28
   21e0a:	2153      	movs	r1, #83	@ 0x53
   21e0c:	f004 feaa 	bl	26b64 <__aeabi_memclr4>
   21e10:	4821      	ldr	r0, [pc, #132]	@ (21e98 <_ZN18complex_no_dynamic3app17h71a1283dea09ade7E+0xa4>)
   21e12:	2102      	movs	r1, #2
   21e14:	462a      	mov	r2, r5
   21e16:	4633      	mov	r3, r6
   21e18:	df04      	svc	4
   21e1a:	2802      	cmp	r0, #2
   21e1c:	d00e      	beq.n	21e3c <_ZN18complex_no_dynamic3app17h71a1283dea09ade7E+0x48>
   21e1e:	481e      	ldr	r0, [pc, #120]	@ (21e98 <_ZN18complex_no_dynamic3app17h71a1283dea09ade7E+0xa4>)
   21e20:	2108      	movs	r1, #8
   21e22:	aa0a      	add	r2, sp, #40	@ 0x28
   21e24:	2353      	movs	r3, #83	@ 0x53
   21e26:	df03      	svc	3
   21e28:	2802      	cmp	r0, #2
   21e2a:	d007      	beq.n	21e3c <_ZN18complex_no_dynamic3app17h71a1283dea09ade7E+0x48>
   21e2c:	481a      	ldr	r0, [pc, #104]	@ (21e98 <_ZN18complex_no_dynamic3app17h71a1283dea09ade7E+0xa4>)
   21e2e:	2102      	movs	r1, #2
   21e30:	2208      	movs	r2, #8
   21e32:	2500      	movs	r5, #0
   21e34:	462b      	mov	r3, r5
   21e36:	df02      	svc	2
   21e38:	287f      	cmp	r0, #127	@ 0x7f
   21e3a:	d810      	bhi.n	21e5e <_ZN18complex_no_dynamic3app17h71a1283dea09ade7E+0x6a>
   21e3c:	2001      	movs	r0, #1
   21e3e:	7020      	strb	r0, [r4, #0]
   21e40:	6061      	str	r1, [r4, #4]
   21e42:	4c15      	ldr	r4, [pc, #84]	@ (21e98 <_ZN18complex_no_dynamic3app17h71a1283dea09ade7E+0xa4>)
   21e44:	2108      	movs	r1, #8
   21e46:	2500      	movs	r5, #0
   21e48:	4620      	mov	r0, r4
   21e4a:	462a      	mov	r2, r5
   21e4c:	462b      	mov	r3, r5
   21e4e:	df03      	svc	3
   21e50:	2102      	movs	r1, #2
   21e52:	4620      	mov	r0, r4
   21e54:	462a      	mov	r2, r5
   21e56:	462b      	mov	r3, r5
   21e58:	df04      	svc	4
   21e5a:	b01f      	add	sp, #124	@ 0x7c
   21e5c:	bdf0      	pop	{r4, r5, r6, r7, pc}
   21e5e:	480e      	ldr	r0, [pc, #56]	@ (21e98 <_ZN18complex_no_dynamic3app17h71a1283dea09ade7E+0xa4>)
   21e60:	2608      	movs	r6, #8
   21e62:	4631      	mov	r1, r6
   21e64:	462a      	mov	r2, r5
   21e66:	462b      	mov	r3, r5
   21e68:	df03      	svc	3
   21e6a:	480b      	ldr	r0, [pc, #44]	@ (21e98 <_ZN18complex_no_dynamic3app17h71a1283dea09ade7E+0xa4>)
   21e6c:	4631      	mov	r1, r6
   21e6e:	462a      	mov	r2, r5
   21e70:	462b      	mov	r3, r5
   21e72:	df03      	svc	3
   21e74:	1c60      	adds	r0, r4, #1
   21e76:	a90a      	add	r1, sp, #40	@ 0x28
   21e78:	2253      	movs	r2, #83	@ 0x53
   21e7a:	f005 f820 	bl	26ebe <__aeabi_memcpy>
   21e7e:	7025      	strb	r5, [r4, #0]
   21e80:	4c05      	ldr	r4, [pc, #20]	@ (21e98 <_ZN18complex_no_dynamic3app17h71a1283dea09ade7E+0xa4>)
   21e82:	4620      	mov	r0, r4
   21e84:	4631      	mov	r1, r6
   21e86:	462a      	mov	r2, r5
   21e88:	462b      	mov	r3, r5
   21e8a:	df03      	svc	3
   21e8c:	2102      	movs	r1, #2
   21e8e:	4620      	mov	r0, r4
   21e90:	462a      	mov	r2, r5
   21e92:	462b      	mov	r3, r5
   21e94:	df04      	svc	4
   21e96:	e7e0      	b.n	21e5a <_ZN18complex_no_dynamic3app17h71a1283dea09ade7E+0x66>
   21e98:	0000253e 	.word	0x0000253e

00021e9c <_ZN18complex_no_dynamic3app17h7206dfa6b5274dc5E>:
   21e9c:	b5f0      	push	{r4, r5, r6, r7, lr}
   21e9e:	af03      	add	r7, sp, #12
   21ea0:	b0af      	sub	sp, #188	@ 0xbc
   21ea2:	9001      	str	r0, [sp, #4]
   21ea4:	ae02      	add	r6, sp, #8
   21ea6:	244f      	movs	r4, #79	@ 0x4f
   21ea8:	4630      	mov	r0, r6
   21eaa:	4622      	mov	r2, r4
   21eac:	f005 f807 	bl	26ebe <__aeabi_memcpy>
   21eb0:	a816      	add	r0, sp, #88	@ 0x58
   21eb2:	2161      	movs	r1, #97	@ 0x61
   21eb4:	f004 fe56 	bl	26b64 <__aeabi_memclr4>
   21eb8:	20db      	movs	r0, #219	@ 0xdb
   21eba:	0045      	lsls	r5, r0, #1
   21ebc:	2102      	movs	r1, #2
   21ebe:	4628      	mov	r0, r5
   21ec0:	4632      	mov	r2, r6
   21ec2:	4623      	mov	r3, r4
   21ec4:	df04      	svc	4
   21ec6:	2802      	cmp	r0, #2
   21ec8:	d00e      	beq.n	21ee8 <_ZN18complex_no_dynamic3app17h7206dfa6b5274dc5E+0x4c>
   21eca:	2108      	movs	r1, #8
   21ecc:	aa16      	add	r2, sp, #88	@ 0x58
   21ece:	2361      	movs	r3, #97	@ 0x61
   21ed0:	4628      	mov	r0, r5
   21ed2:	df03      	svc	3
   21ed4:	2802      	cmp	r0, #2
   21ed6:	d007      	beq.n	21ee8 <_ZN18complex_no_dynamic3app17h7206dfa6b5274dc5E+0x4c>
   21ed8:	2102      	movs	r1, #2
   21eda:	2208      	movs	r2, #8
   21edc:	2600      	movs	r6, #0
   21ede:	4628      	mov	r0, r5
   21ee0:	4633      	mov	r3, r6
   21ee2:	df02      	svc	2
   21ee4:	287f      	cmp	r0, #127	@ 0x7f
   21ee6:	d810      	bhi.n	21f0a <_ZN18complex_no_dynamic3app17h7206dfa6b5274dc5E+0x6e>
   21ee8:	2001      	movs	r0, #1
   21eea:	9a01      	ldr	r2, [sp, #4]
   21eec:	7010      	strb	r0, [r2, #0]
   21eee:	6051      	str	r1, [r2, #4]
   21ef0:	2108      	movs	r1, #8
   21ef2:	2400      	movs	r4, #0
   21ef4:	4628      	mov	r0, r5
   21ef6:	4622      	mov	r2, r4
   21ef8:	4623      	mov	r3, r4
   21efa:	df03      	svc	3
   21efc:	2102      	movs	r1, #2
   21efe:	4628      	mov	r0, r5
   21f00:	4622      	mov	r2, r4
   21f02:	4623      	mov	r3, r4
   21f04:	df04      	svc	4
   21f06:	b02f      	add	sp, #188	@ 0xbc
   21f08:	bdf0      	pop	{r4, r5, r6, r7, pc}
   21f0a:	2408      	movs	r4, #8
   21f0c:	9400      	str	r4, [sp, #0]
   21f0e:	4628      	mov	r0, r5
   21f10:	4621      	mov	r1, r4
   21f12:	4632      	mov	r2, r6
   21f14:	4633      	mov	r3, r6
   21f16:	df03      	svc	3
   21f18:	4628      	mov	r0, r5
   21f1a:	4621      	mov	r1, r4
   21f1c:	4632      	mov	r2, r6
   21f1e:	4633      	mov	r3, r6
   21f20:	df03      	svc	3
   21f22:	9c01      	ldr	r4, [sp, #4]
   21f24:	1c60      	adds	r0, r4, #1
   21f26:	a916      	add	r1, sp, #88	@ 0x58
   21f28:	2261      	movs	r2, #97	@ 0x61
   21f2a:	f004 ffc8 	bl	26ebe <__aeabi_memcpy>
   21f2e:	7026      	strb	r6, [r4, #0]
   21f30:	4628      	mov	r0, r5
   21f32:	9900      	ldr	r1, [sp, #0]
   21f34:	4632      	mov	r2, r6
   21f36:	4633      	mov	r3, r6
   21f38:	df03      	svc	3
   21f3a:	2102      	movs	r1, #2
   21f3c:	4628      	mov	r0, r5
   21f3e:	4632      	mov	r2, r6
   21f40:	4633      	mov	r3, r6
   21f42:	df04      	svc	4
   21f44:	e7df      	b.n	21f06 <_ZN18complex_no_dynamic3app17h7206dfa6b5274dc5E+0x6a>
   21f46:	d4d4      	bmi.n	21ef2 <_ZN18complex_no_dynamic3app17h7206dfa6b5274dc5E+0x56>

00021f48 <_ZN18complex_no_dynamic3app17h72f8852c0d6d3640E>:
   21f48:	b5f0      	push	{r4, r5, r6, r7, lr}
   21f4a:	af03      	add	r7, sp, #12
   21f4c:	b0a1      	sub	sp, #132	@ 0x84
   21f4e:	4604      	mov	r4, r0
   21f50:	ad01      	add	r5, sp, #4
   21f52:	261b      	movs	r6, #27
   21f54:	4628      	mov	r0, r5
   21f56:	4632      	mov	r2, r6
   21f58:	f004 ffb1 	bl	26ebe <__aeabi_memcpy>
   21f5c:	a808      	add	r0, sp, #32
   21f5e:	2163      	movs	r1, #99	@ 0x63
   21f60:	f004 fe00 	bl	26b64 <__aeabi_memclr4>
   21f64:	4822      	ldr	r0, [pc, #136]	@ (21ff0 <_ZN18complex_no_dynamic3app17h72f8852c0d6d3640E+0xa8>)
   21f66:	2103      	movs	r1, #3
   21f68:	462a      	mov	r2, r5
   21f6a:	4633      	mov	r3, r6
   21f6c:	df04      	svc	4
   21f6e:	2802      	cmp	r0, #2
   21f70:	d00e      	beq.n	21f90 <_ZN18complex_no_dynamic3app17h72f8852c0d6d3640E+0x48>
   21f72:	481f      	ldr	r0, [pc, #124]	@ (21ff0 <_ZN18complex_no_dynamic3app17h72f8852c0d6d3640E+0xa8>)
   21f74:	2103      	movs	r1, #3
   21f76:	aa08      	add	r2, sp, #32
   21f78:	2363      	movs	r3, #99	@ 0x63
   21f7a:	df03      	svc	3
   21f7c:	2802      	cmp	r0, #2
   21f7e:	d007      	beq.n	21f90 <_ZN18complex_no_dynamic3app17h72f8852c0d6d3640E+0x48>
   21f80:	481b      	ldr	r0, [pc, #108]	@ (21ff0 <_ZN18complex_no_dynamic3app17h72f8852c0d6d3640E+0xa8>)
   21f82:	2103      	movs	r1, #3
   21f84:	2500      	movs	r5, #0
   21f86:	460a      	mov	r2, r1
   21f88:	462b      	mov	r3, r5
   21f8a:	df02      	svc	2
   21f8c:	287f      	cmp	r0, #127	@ 0x7f
   21f8e:	d811      	bhi.n	21fb4 <_ZN18complex_no_dynamic3app17h72f8852c0d6d3640E+0x6c>
   21f90:	2001      	movs	r0, #1
   21f92:	7020      	strb	r0, [r4, #0]
   21f94:	6061      	str	r1, [r4, #4]
   21f96:	4c16      	ldr	r4, [pc, #88]	@ (21ff0 <_ZN18complex_no_dynamic3app17h72f8852c0d6d3640E+0xa8>)
   21f98:	2503      	movs	r5, #3
   21f9a:	2600      	movs	r6, #0
   21f9c:	4620      	mov	r0, r4
   21f9e:	4629      	mov	r1, r5
   21fa0:	4632      	mov	r2, r6
   21fa2:	4633      	mov	r3, r6
   21fa4:	df03      	svc	3
   21fa6:	4620      	mov	r0, r4
   21fa8:	4629      	mov	r1, r5
   21faa:	4632      	mov	r2, r6
   21fac:	4633      	mov	r3, r6
   21fae:	df04      	svc	4
   21fb0:	b021      	add	sp, #132	@ 0x84
   21fb2:	bdf0      	pop	{r4, r5, r6, r7, pc}
   21fb4:	480e      	ldr	r0, [pc, #56]	@ (21ff0 <_ZN18complex_no_dynamic3app17h72f8852c0d6d3640E+0xa8>)
   21fb6:	2603      	movs	r6, #3
   21fb8:	4631      	mov	r1, r6
   21fba:	462a      	mov	r2, r5
   21fbc:	462b      	mov	r3, r5
   21fbe:	df03      	svc	3
   21fc0:	480b      	ldr	r0, [pc, #44]	@ (21ff0 <_ZN18complex_no_dynamic3app17h72f8852c0d6d3640E+0xa8>)
   21fc2:	4631      	mov	r1, r6
   21fc4:	462a      	mov	r2, r5
   21fc6:	462b      	mov	r3, r5
   21fc8:	df03      	svc	3
   21fca:	1c60      	adds	r0, r4, #1
   21fcc:	a908      	add	r1, sp, #32
   21fce:	2263      	movs	r2, #99	@ 0x63
   21fd0:	f004 ff75 	bl	26ebe <__aeabi_memcpy>
   21fd4:	7025      	strb	r5, [r4, #0]
   21fd6:	4c06      	ldr	r4, [pc, #24]	@ (21ff0 <_ZN18complex_no_dynamic3app17h72f8852c0d6d3640E+0xa8>)
   21fd8:	4620      	mov	r0, r4
   21fda:	4631      	mov	r1, r6
   21fdc:	462a      	mov	r2, r5
   21fde:	462b      	mov	r3, r5
   21fe0:	df03      	svc	3
   21fe2:	4620      	mov	r0, r4
   21fe4:	4631      	mov	r1, r6
   21fe6:	462a      	mov	r2, r5
   21fe8:	462b      	mov	r3, r5
   21fea:	df04      	svc	4
   21fec:	e7e0      	b.n	21fb0 <_ZN18complex_no_dynamic3app17h72f8852c0d6d3640E+0x68>
   21fee:	46c0      	nop			@ (mov r8, r8)
   21ff0:	00002548 	.word	0x00002548

00021ff4 <_ZN18complex_no_dynamic3app17h7638f42fa73cd164E>:
   21ff4:	b5f0      	push	{r4, r5, r6, r7, lr}
   21ff6:	af03      	add	r7, sp, #12
   21ff8:	b09f      	sub	sp, #124	@ 0x7c
   21ffa:	4604      	mov	r4, r0
   21ffc:	466d      	mov	r5, sp
   21ffe:	2631      	movs	r6, #49	@ 0x31
   22000:	4628      	mov	r0, r5
   22002:	4632      	mov	r2, r6
   22004:	f004 ff5b 	bl	26ebe <__aeabi_memcpy>
   22008:	a80d      	add	r0, sp, #52	@ 0x34
   2200a:	2148      	movs	r1, #72	@ 0x48
   2200c:	f004 fdaa 	bl	26b64 <__aeabi_memclr4>
   22010:	4821      	ldr	r0, [pc, #132]	@ (22098 <_ZN18complex_no_dynamic3app17h7638f42fa73cd164E+0xa4>)
   22012:	2104      	movs	r1, #4
   22014:	462a      	mov	r2, r5
   22016:	4633      	mov	r3, r6
   22018:	df04      	svc	4
   2201a:	2802      	cmp	r0, #2
   2201c:	d00e      	beq.n	2203c <_ZN18complex_no_dynamic3app17h7638f42fa73cd164E+0x48>
   2201e:	481e      	ldr	r0, [pc, #120]	@ (22098 <_ZN18complex_no_dynamic3app17h7638f42fa73cd164E+0xa4>)
   22020:	2103      	movs	r1, #3
   22022:	aa0d      	add	r2, sp, #52	@ 0x34
   22024:	2348      	movs	r3, #72	@ 0x48
   22026:	df03      	svc	3
   22028:	2802      	cmp	r0, #2
   2202a:	d007      	beq.n	2203c <_ZN18complex_no_dynamic3app17h7638f42fa73cd164E+0x48>
   2202c:	481a      	ldr	r0, [pc, #104]	@ (22098 <_ZN18complex_no_dynamic3app17h7638f42fa73cd164E+0xa4>)
   2202e:	2104      	movs	r1, #4
   22030:	2203      	movs	r2, #3
   22032:	2500      	movs	r5, #0
   22034:	462b      	mov	r3, r5
   22036:	df02      	svc	2
   22038:	287f      	cmp	r0, #127	@ 0x7f
   2203a:	d810      	bhi.n	2205e <_ZN18complex_no_dynamic3app17h7638f42fa73cd164E+0x6a>
   2203c:	2001      	movs	r0, #1
   2203e:	7020      	strb	r0, [r4, #0]
   22040:	6061      	str	r1, [r4, #4]
   22042:	4c15      	ldr	r4, [pc, #84]	@ (22098 <_ZN18complex_no_dynamic3app17h7638f42fa73cd164E+0xa4>)
   22044:	2103      	movs	r1, #3
   22046:	2500      	movs	r5, #0
   22048:	4620      	mov	r0, r4
   2204a:	462a      	mov	r2, r5
   2204c:	462b      	mov	r3, r5
   2204e:	df03      	svc	3
   22050:	2104      	movs	r1, #4
   22052:	4620      	mov	r0, r4
   22054:	462a      	mov	r2, r5
   22056:	462b      	mov	r3, r5
   22058:	df04      	svc	4
   2205a:	b01f      	add	sp, #124	@ 0x7c
   2205c:	bdf0      	pop	{r4, r5, r6, r7, pc}
   2205e:	480e      	ldr	r0, [pc, #56]	@ (22098 <_ZN18complex_no_dynamic3app17h7638f42fa73cd164E+0xa4>)
   22060:	2603      	movs	r6, #3
   22062:	4631      	mov	r1, r6
   22064:	462a      	mov	r2, r5
   22066:	462b      	mov	r3, r5
   22068:	df03      	svc	3
   2206a:	480b      	ldr	r0, [pc, #44]	@ (22098 <_ZN18complex_no_dynamic3app17h7638f42fa73cd164E+0xa4>)
   2206c:	4631      	mov	r1, r6
   2206e:	462a      	mov	r2, r5
   22070:	462b      	mov	r3, r5
   22072:	df03      	svc	3
   22074:	1c60      	adds	r0, r4, #1
   22076:	a90d      	add	r1, sp, #52	@ 0x34
   22078:	2248      	movs	r2, #72	@ 0x48
   2207a:	f004 ff20 	bl	26ebe <__aeabi_memcpy>
   2207e:	7025      	strb	r5, [r4, #0]
   22080:	4c05      	ldr	r4, [pc, #20]	@ (22098 <_ZN18complex_no_dynamic3app17h7638f42fa73cd164E+0xa4>)
   22082:	4620      	mov	r0, r4
   22084:	4631      	mov	r1, r6
   22086:	462a      	mov	r2, r5
   22088:	462b      	mov	r3, r5
   2208a:	df03      	svc	3
   2208c:	2104      	movs	r1, #4
   2208e:	4620      	mov	r0, r4
   22090:	462a      	mov	r2, r5
   22092:	462b      	mov	r3, r5
   22094:	df04      	svc	4
   22096:	e7e0      	b.n	2205a <_ZN18complex_no_dynamic3app17h7638f42fa73cd164E+0x66>
   22098:	0000180e 	.word	0x0000180e

0002209c <_ZN18complex_no_dynamic3app17h7842d248845782fcE>:
   2209c:	b5f0      	push	{r4, r5, r6, r7, lr}
   2209e:	af03      	add	r7, sp, #12
   220a0:	b09d      	sub	sp, #116	@ 0x74
   220a2:	9001      	str	r0, [sp, #4]
   220a4:	ae02      	add	r6, sp, #8
   220a6:	2438      	movs	r4, #56	@ 0x38
   220a8:	4630      	mov	r0, r6
   220aa:	4622      	mov	r2, r4
   220ac:	f004 ff07 	bl	26ebe <__aeabi_memcpy>
   220b0:	a810      	add	r0, sp, #64	@ 0x40
   220b2:	2134      	movs	r1, #52	@ 0x34
   220b4:	f004 fd56 	bl	26b64 <__aeabi_memclr4>
   220b8:	2097      	movs	r0, #151	@ 0x97
   220ba:	0045      	lsls	r5, r0, #1
   220bc:	2108      	movs	r1, #8
   220be:	4628      	mov	r0, r5
   220c0:	4632      	mov	r2, r6
   220c2:	4623      	mov	r3, r4
   220c4:	df04      	svc	4
   220c6:	2802      	cmp	r0, #2
   220c8:	d00e      	beq.n	220e8 <_ZN18complex_no_dynamic3app17h7842d248845782fcE+0x4c>
   220ca:	2103      	movs	r1, #3
   220cc:	aa10      	add	r2, sp, #64	@ 0x40
   220ce:	2334      	movs	r3, #52	@ 0x34
   220d0:	4628      	mov	r0, r5
   220d2:	df03      	svc	3
   220d4:	2802      	cmp	r0, #2
   220d6:	d007      	beq.n	220e8 <_ZN18complex_no_dynamic3app17h7842d248845782fcE+0x4c>
   220d8:	2108      	movs	r1, #8
   220da:	2203      	movs	r2, #3
   220dc:	2600      	movs	r6, #0
   220de:	4628      	mov	r0, r5
   220e0:	4633      	mov	r3, r6
   220e2:	df02      	svc	2
   220e4:	287f      	cmp	r0, #127	@ 0x7f
   220e6:	d810      	bhi.n	2210a <_ZN18complex_no_dynamic3app17h7842d248845782fcE+0x6e>
   220e8:	2001      	movs	r0, #1
   220ea:	9a01      	ldr	r2, [sp, #4]
   220ec:	7010      	strb	r0, [r2, #0]
   220ee:	6051      	str	r1, [r2, #4]
   220f0:	2103      	movs	r1, #3
   220f2:	2400      	movs	r4, #0
   220f4:	4628      	mov	r0, r5
   220f6:	4622      	mov	r2, r4
   220f8:	4623      	mov	r3, r4
   220fa:	df03      	svc	3
   220fc:	2108      	movs	r1, #8
   220fe:	4628      	mov	r0, r5
   22100:	4622      	mov	r2, r4
   22102:	4623      	mov	r3, r4
   22104:	df04      	svc	4
   22106:	b01d      	add	sp, #116	@ 0x74
   22108:	bdf0      	pop	{r4, r5, r6, r7, pc}
   2210a:	2403      	movs	r4, #3
   2210c:	9400      	str	r4, [sp, #0]
   2210e:	4628      	mov	r0, r5
   22110:	4621      	mov	r1, r4
   22112:	4632      	mov	r2, r6
   22114:	4633      	mov	r3, r6
   22116:	df03      	svc	3
   22118:	4628      	mov	r0, r5
   2211a:	4621      	mov	r1, r4
   2211c:	4632      	mov	r2, r6
   2211e:	4633      	mov	r3, r6
   22120:	df03      	svc	3
   22122:	9c01      	ldr	r4, [sp, #4]
   22124:	1c60      	adds	r0, r4, #1
   22126:	a910      	add	r1, sp, #64	@ 0x40
   22128:	2234      	movs	r2, #52	@ 0x34
   2212a:	f004 fec8 	bl	26ebe <__aeabi_memcpy>
   2212e:	7026      	strb	r6, [r4, #0]
   22130:	4628      	mov	r0, r5
   22132:	9900      	ldr	r1, [sp, #0]
   22134:	4632      	mov	r2, r6
   22136:	4633      	mov	r3, r6
   22138:	df03      	svc	3
   2213a:	2108      	movs	r1, #8
   2213c:	4628      	mov	r0, r5
   2213e:	4632      	mov	r2, r6
   22140:	4633      	mov	r3, r6
   22142:	df04      	svc	4
   22144:	e7df      	b.n	22106 <_ZN18complex_no_dynamic3app17h7842d248845782fcE+0x6a>
   22146:	d4d4      	bmi.n	220f2 <_ZN18complex_no_dynamic3app17h7842d248845782fcE+0x56>

00022148 <_ZN18complex_no_dynamic3app17h78d1395ecded0ec2E>:
   22148:	b5f0      	push	{r4, r5, r6, r7, lr}
   2214a:	af03      	add	r7, sp, #12
   2214c:	b09b      	sub	sp, #108	@ 0x6c
   2214e:	4604      	mov	r4, r0
   22150:	ad01      	add	r5, sp, #4
   22152:	2644      	movs	r6, #68	@ 0x44
   22154:	4628      	mov	r0, r5
   22156:	4632      	mov	r2, r6
   22158:	f004 feb1 	bl	26ebe <__aeabi_memcpy>
   2215c:	a812      	add	r0, sp, #72	@ 0x48
   2215e:	2123      	movs	r1, #35	@ 0x23
   22160:	f004 fd00 	bl	26b64 <__aeabi_memclr4>
   22164:	4821      	ldr	r0, [pc, #132]	@ (221ec <_ZN18complex_no_dynamic3app17h78d1395ecded0ec2E+0xa4>)
   22166:	2106      	movs	r1, #6
   22168:	462a      	mov	r2, r5
   2216a:	4633      	mov	r3, r6
   2216c:	df04      	svc	4
   2216e:	2802      	cmp	r0, #2
   22170:	d00e      	beq.n	22190 <_ZN18complex_no_dynamic3app17h78d1395ecded0ec2E+0x48>
   22172:	481e      	ldr	r0, [pc, #120]	@ (221ec <_ZN18complex_no_dynamic3app17h78d1395ecded0ec2E+0xa4>)
   22174:	2103      	movs	r1, #3
   22176:	aa12      	add	r2, sp, #72	@ 0x48
   22178:	2323      	movs	r3, #35	@ 0x23
   2217a:	df03      	svc	3
   2217c:	2802      	cmp	r0, #2
   2217e:	d007      	beq.n	22190 <_ZN18complex_no_dynamic3app17h78d1395ecded0ec2E+0x48>
   22180:	481a      	ldr	r0, [pc, #104]	@ (221ec <_ZN18complex_no_dynamic3app17h78d1395ecded0ec2E+0xa4>)
   22182:	2106      	movs	r1, #6
   22184:	2203      	movs	r2, #3
   22186:	2500      	movs	r5, #0
   22188:	462b      	mov	r3, r5
   2218a:	df02      	svc	2
   2218c:	287f      	cmp	r0, #127	@ 0x7f
   2218e:	d810      	bhi.n	221b2 <_ZN18complex_no_dynamic3app17h78d1395ecded0ec2E+0x6a>
   22190:	2001      	movs	r0, #1
   22192:	7020      	strb	r0, [r4, #0]
   22194:	6061      	str	r1, [r4, #4]
   22196:	4c15      	ldr	r4, [pc, #84]	@ (221ec <_ZN18complex_no_dynamic3app17h78d1395ecded0ec2E+0xa4>)
   22198:	2103      	movs	r1, #3
   2219a:	2500      	movs	r5, #0
   2219c:	4620      	mov	r0, r4
   2219e:	462a      	mov	r2, r5
   221a0:	462b      	mov	r3, r5
   221a2:	df03      	svc	3
   221a4:	2106      	movs	r1, #6
   221a6:	4620      	mov	r0, r4
   221a8:	462a      	mov	r2, r5
   221aa:	462b      	mov	r3, r5
   221ac:	df04      	svc	4
   221ae:	b01b      	add	sp, #108	@ 0x6c
   221b0:	bdf0      	pop	{r4, r5, r6, r7, pc}
   221b2:	480e      	ldr	r0, [pc, #56]	@ (221ec <_ZN18complex_no_dynamic3app17h78d1395ecded0ec2E+0xa4>)
   221b4:	2603      	movs	r6, #3
   221b6:	4631      	mov	r1, r6
   221b8:	462a      	mov	r2, r5
   221ba:	462b      	mov	r3, r5
   221bc:	df03      	svc	3
   221be:	480b      	ldr	r0, [pc, #44]	@ (221ec <_ZN18complex_no_dynamic3app17h78d1395ecded0ec2E+0xa4>)
   221c0:	4631      	mov	r1, r6
   221c2:	462a      	mov	r2, r5
   221c4:	462b      	mov	r3, r5
   221c6:	df03      	svc	3
   221c8:	1c60      	adds	r0, r4, #1
   221ca:	a912      	add	r1, sp, #72	@ 0x48
   221cc:	2223      	movs	r2, #35	@ 0x23
   221ce:	f004 fe76 	bl	26ebe <__aeabi_memcpy>
   221d2:	7025      	strb	r5, [r4, #0]
   221d4:	4c05      	ldr	r4, [pc, #20]	@ (221ec <_ZN18complex_no_dynamic3app17h78d1395ecded0ec2E+0xa4>)
   221d6:	4620      	mov	r0, r4
   221d8:	4631      	mov	r1, r6
   221da:	462a      	mov	r2, r5
   221dc:	462b      	mov	r3, r5
   221de:	df03      	svc	3
   221e0:	2106      	movs	r1, #6
   221e2:	4620      	mov	r0, r4
   221e4:	462a      	mov	r2, r5
   221e6:	462b      	mov	r3, r5
   221e8:	df04      	svc	4
   221ea:	e7e0      	b.n	221ae <_ZN18complex_no_dynamic3app17h78d1395ecded0ec2E+0x66>
   221ec:	000009bf 	.word	0x000009bf

000221f0 <_ZN18complex_no_dynamic3app17h7c492bda298c5cb0E>:
   221f0:	b5f0      	push	{r4, r5, r6, r7, lr}
   221f2:	af03      	add	r7, sp, #12
   221f4:	b09b      	sub	sp, #108	@ 0x6c
   221f6:	9000      	str	r0, [sp, #0]
   221f8:	ae01      	add	r6, sp, #4
   221fa:	2441      	movs	r4, #65	@ 0x41
   221fc:	4630      	mov	r0, r6
   221fe:	4622      	mov	r2, r4
   22200:	f004 fe5d 	bl	26ebe <__aeabi_memcpy>
   22204:	a812      	add	r0, sp, #72	@ 0x48
   22206:	2122      	movs	r1, #34	@ 0x22
   22208:	f004 fcac 	bl	26b64 <__aeabi_memclr4>
   2220c:	4822      	ldr	r0, [pc, #136]	@ (22298 <_ZN18complex_no_dynamic3app17h7c492bda298c5cb0E+0xa8>)
   2220e:	2501      	movs	r5, #1
   22210:	4629      	mov	r1, r5
   22212:	4632      	mov	r2, r6
   22214:	4623      	mov	r3, r4
   22216:	df04      	svc	4
   22218:	2802      	cmp	r0, #2
   2221a:	d00e      	beq.n	2223a <_ZN18complex_no_dynamic3app17h7c492bda298c5cb0E+0x4a>
   2221c:	481e      	ldr	r0, [pc, #120]	@ (22298 <_ZN18complex_no_dynamic3app17h7c492bda298c5cb0E+0xa8>)
   2221e:	2100      	movs	r1, #0
   22220:	aa12      	add	r2, sp, #72	@ 0x48
   22222:	2322      	movs	r3, #34	@ 0x22
   22224:	df03      	svc	3
   22226:	2802      	cmp	r0, #2
   22228:	d007      	beq.n	2223a <_ZN18complex_no_dynamic3app17h7c492bda298c5cb0E+0x4a>
   2222a:	481b      	ldr	r0, [pc, #108]	@ (22298 <_ZN18complex_no_dynamic3app17h7c492bda298c5cb0E+0xa8>)
   2222c:	2101      	movs	r1, #1
   2222e:	2600      	movs	r6, #0
   22230:	4632      	mov	r2, r6
   22232:	4633      	mov	r3, r6
   22234:	df02      	svc	2
   22236:	287f      	cmp	r0, #127	@ 0x7f
   22238:	d810      	bhi.n	2225c <_ZN18complex_no_dynamic3app17h7c492bda298c5cb0E+0x6c>
   2223a:	9800      	ldr	r0, [sp, #0]
   2223c:	7005      	strb	r5, [r0, #0]
   2223e:	6041      	str	r1, [r0, #4]
   22240:	4c15      	ldr	r4, [pc, #84]	@ (22298 <_ZN18complex_no_dynamic3app17h7c492bda298c5cb0E+0xa8>)
   22242:	2600      	movs	r6, #0
   22244:	4620      	mov	r0, r4
   22246:	4631      	mov	r1, r6
   22248:	4632      	mov	r2, r6
   2224a:	4633      	mov	r3, r6
   2224c:	df03      	svc	3
   2224e:	4620      	mov	r0, r4
   22250:	4629      	mov	r1, r5
   22252:	4632      	mov	r2, r6
   22254:	4633      	mov	r3, r6
   22256:	df04      	svc	4
   22258:	b01b      	add	sp, #108	@ 0x6c
   2225a:	bdf0      	pop	{r4, r5, r6, r7, pc}
   2225c:	4d0e      	ldr	r5, [pc, #56]	@ (22298 <_ZN18complex_no_dynamic3app17h7c492bda298c5cb0E+0xa8>)
   2225e:	4628      	mov	r0, r5
   22260:	4631      	mov	r1, r6
   22262:	4632      	mov	r2, r6
   22264:	4633      	mov	r3, r6
   22266:	df03      	svc	3
   22268:	4628      	mov	r0, r5
   2226a:	4631      	mov	r1, r6
   2226c:	4632      	mov	r2, r6
   2226e:	4633      	mov	r3, r6
   22270:	df03      	svc	3
   22272:	9c00      	ldr	r4, [sp, #0]
   22274:	1c60      	adds	r0, r4, #1
   22276:	a912      	add	r1, sp, #72	@ 0x48
   22278:	2222      	movs	r2, #34	@ 0x22
   2227a:	f004 fe20 	bl	26ebe <__aeabi_memcpy>
   2227e:	7026      	strb	r6, [r4, #0]
   22280:	4628      	mov	r0, r5
   22282:	4631      	mov	r1, r6
   22284:	4632      	mov	r2, r6
   22286:	4633      	mov	r3, r6
   22288:	df03      	svc	3
   2228a:	2101      	movs	r1, #1
   2228c:	4628      	mov	r0, r5
   2228e:	4632      	mov	r2, r6
   22290:	4633      	mov	r3, r6
   22292:	df04      	svc	4
   22294:	e7e0      	b.n	22258 <_ZN18complex_no_dynamic3app17h7c492bda298c5cb0E+0x68>
   22296:	46c0      	nop			@ (mov r8, r8)
   22298:	0000247c 	.word	0x0000247c

0002229c <_ZN18complex_no_dynamic3app17h7dab7e080c11d87dE>:
   2229c:	b5f0      	push	{r4, r5, r6, r7, lr}
   2229e:	af03      	add	r7, sp, #12
   222a0:	b097      	sub	sp, #92	@ 0x5c
   222a2:	4604      	mov	r4, r0
   222a4:	466d      	mov	r5, sp
   222a6:	263f      	movs	r6, #63	@ 0x3f
   222a8:	4628      	mov	r0, r5
   222aa:	4632      	mov	r2, r6
   222ac:	f004 fe07 	bl	26ebe <__aeabi_memcpy>
   222b0:	a810      	add	r0, sp, #64	@ 0x40
   222b2:	211c      	movs	r1, #28
   222b4:	f004 fc56 	bl	26b64 <__aeabi_memclr4>
   222b8:	4821      	ldr	r0, [pc, #132]	@ (22340 <_ZN18complex_no_dynamic3app17h7dab7e080c11d87dE+0xa4>)
   222ba:	2105      	movs	r1, #5
   222bc:	462a      	mov	r2, r5
   222be:	4633      	mov	r3, r6
   222c0:	df04      	svc	4
   222c2:	2802      	cmp	r0, #2
   222c4:	d00e      	beq.n	222e4 <_ZN18complex_no_dynamic3app17h7dab7e080c11d87dE+0x48>
   222c6:	481e      	ldr	r0, [pc, #120]	@ (22340 <_ZN18complex_no_dynamic3app17h7dab7e080c11d87dE+0xa4>)
   222c8:	2109      	movs	r1, #9
   222ca:	aa10      	add	r2, sp, #64	@ 0x40
   222cc:	231c      	movs	r3, #28
   222ce:	df03      	svc	3
   222d0:	2802      	cmp	r0, #2
   222d2:	d007      	beq.n	222e4 <_ZN18complex_no_dynamic3app17h7dab7e080c11d87dE+0x48>
   222d4:	481a      	ldr	r0, [pc, #104]	@ (22340 <_ZN18complex_no_dynamic3app17h7dab7e080c11d87dE+0xa4>)
   222d6:	2105      	movs	r1, #5
   222d8:	2209      	movs	r2, #9
   222da:	2500      	movs	r5, #0
   222dc:	462b      	mov	r3, r5
   222de:	df02      	svc	2
   222e0:	287f      	cmp	r0, #127	@ 0x7f
   222e2:	d810      	bhi.n	22306 <_ZN18complex_no_dynamic3app17h7dab7e080c11d87dE+0x6a>
   222e4:	2001      	movs	r0, #1
   222e6:	7020      	strb	r0, [r4, #0]
   222e8:	6061      	str	r1, [r4, #4]
   222ea:	4c15      	ldr	r4, [pc, #84]	@ (22340 <_ZN18complex_no_dynamic3app17h7dab7e080c11d87dE+0xa4>)
   222ec:	2109      	movs	r1, #9
   222ee:	2500      	movs	r5, #0
   222f0:	4620      	mov	r0, r4
   222f2:	462a      	mov	r2, r5
   222f4:	462b      	mov	r3, r5
   222f6:	df03      	svc	3
   222f8:	2105      	movs	r1, #5
   222fa:	4620      	mov	r0, r4
   222fc:	462a      	mov	r2, r5
   222fe:	462b      	mov	r3, r5
   22300:	df04      	svc	4
   22302:	b017      	add	sp, #92	@ 0x5c
   22304:	bdf0      	pop	{r4, r5, r6, r7, pc}
   22306:	480e      	ldr	r0, [pc, #56]	@ (22340 <_ZN18complex_no_dynamic3app17h7dab7e080c11d87dE+0xa4>)
   22308:	2609      	movs	r6, #9
   2230a:	4631      	mov	r1, r6
   2230c:	462a      	mov	r2, r5
   2230e:	462b      	mov	r3, r5
   22310:	df03      	svc	3
   22312:	480b      	ldr	r0, [pc, #44]	@ (22340 <_ZN18complex_no_dynamic3app17h7dab7e080c11d87dE+0xa4>)
   22314:	4631      	mov	r1, r6
   22316:	462a      	mov	r2, r5
   22318:	462b      	mov	r3, r5
   2231a:	df03      	svc	3
   2231c:	1c60      	adds	r0, r4, #1
   2231e:	a910      	add	r1, sp, #64	@ 0x40
   22320:	221c      	movs	r2, #28
   22322:	f004 fdcc 	bl	26ebe <__aeabi_memcpy>
   22326:	7025      	strb	r5, [r4, #0]
   22328:	4c05      	ldr	r4, [pc, #20]	@ (22340 <_ZN18complex_no_dynamic3app17h7dab7e080c11d87dE+0xa4>)
   2232a:	4620      	mov	r0, r4
   2232c:	4631      	mov	r1, r6
   2232e:	462a      	mov	r2, r5
   22330:	462b      	mov	r3, r5
   22332:	df03      	svc	3
   22334:	2105      	movs	r1, #5
   22336:	4620      	mov	r0, r4
   22338:	462a      	mov	r2, r5
   2233a:	462b      	mov	r3, r5
   2233c:	df04      	svc	4
   2233e:	e7e0      	b.n	22302 <_ZN18complex_no_dynamic3app17h7dab7e080c11d87dE+0x66>
   22340:	00001694 	.word	0x00001694

00022344 <_ZN18complex_no_dynamic3app17h7eef7af0f0758a32E>:
   22344:	b5f0      	push	{r4, r5, r6, r7, lr}
   22346:	af03      	add	r7, sp, #12
   22348:	b0a9      	sub	sp, #164	@ 0xa4
   2234a:	4604      	mov	r4, r0
   2234c:	ad01      	add	r5, sp, #4
   2234e:	2646      	movs	r6, #70	@ 0x46
   22350:	4628      	mov	r0, r5
   22352:	4632      	mov	r2, r6
   22354:	f004 fdb3 	bl	26ebe <__aeabi_memcpy>
   22358:	a813      	add	r0, sp, #76	@ 0x4c
   2235a:	2156      	movs	r1, #86	@ 0x56
   2235c:	f004 fc02 	bl	26b64 <__aeabi_memclr4>
   22360:	4821      	ldr	r0, [pc, #132]	@ (223e8 <_ZN18complex_no_dynamic3app17h7eef7af0f0758a32E+0xa4>)
   22362:	2107      	movs	r1, #7
   22364:	462a      	mov	r2, r5
   22366:	4633      	mov	r3, r6
   22368:	df04      	svc	4
   2236a:	2802      	cmp	r0, #2
   2236c:	d00e      	beq.n	2238c <_ZN18complex_no_dynamic3app17h7eef7af0f0758a32E+0x48>
   2236e:	481e      	ldr	r0, [pc, #120]	@ (223e8 <_ZN18complex_no_dynamic3app17h7eef7af0f0758a32E+0xa4>)
   22370:	2103      	movs	r1, #3
   22372:	aa13      	add	r2, sp, #76	@ 0x4c
   22374:	2356      	movs	r3, #86	@ 0x56
   22376:	df03      	svc	3
   22378:	2802      	cmp	r0, #2
   2237a:	d007      	beq.n	2238c <_ZN18complex_no_dynamic3app17h7eef7af0f0758a32E+0x48>
   2237c:	481a      	ldr	r0, [pc, #104]	@ (223e8 <_ZN18complex_no_dynamic3app17h7eef7af0f0758a32E+0xa4>)
   2237e:	2107      	movs	r1, #7
   22380:	2203      	movs	r2, #3
   22382:	2500      	movs	r5, #0
   22384:	462b      	mov	r3, r5
   22386:	df02      	svc	2
   22388:	287f      	cmp	r0, #127	@ 0x7f
   2238a:	d810      	bhi.n	223ae <_ZN18complex_no_dynamic3app17h7eef7af0f0758a32E+0x6a>
   2238c:	2001      	movs	r0, #1
   2238e:	7020      	strb	r0, [r4, #0]
   22390:	6061      	str	r1, [r4, #4]
   22392:	4c15      	ldr	r4, [pc, #84]	@ (223e8 <_ZN18complex_no_dynamic3app17h7eef7af0f0758a32E+0xa4>)
   22394:	2103      	movs	r1, #3
   22396:	2500      	movs	r5, #0
   22398:	4620      	mov	r0, r4
   2239a:	462a      	mov	r2, r5
   2239c:	462b      	mov	r3, r5
   2239e:	df03      	svc	3
   223a0:	2107      	movs	r1, #7
   223a2:	4620      	mov	r0, r4
   223a4:	462a      	mov	r2, r5
   223a6:	462b      	mov	r3, r5
   223a8:	df04      	svc	4
   223aa:	b029      	add	sp, #164	@ 0xa4
   223ac:	bdf0      	pop	{r4, r5, r6, r7, pc}
   223ae:	480e      	ldr	r0, [pc, #56]	@ (223e8 <_ZN18complex_no_dynamic3app17h7eef7af0f0758a32E+0xa4>)
   223b0:	2603      	movs	r6, #3
   223b2:	4631      	mov	r1, r6
   223b4:	462a      	mov	r2, r5
   223b6:	462b      	mov	r3, r5
   223b8:	df03      	svc	3
   223ba:	480b      	ldr	r0, [pc, #44]	@ (223e8 <_ZN18complex_no_dynamic3app17h7eef7af0f0758a32E+0xa4>)
   223bc:	4631      	mov	r1, r6
   223be:	462a      	mov	r2, r5
   223c0:	462b      	mov	r3, r5
   223c2:	df03      	svc	3
   223c4:	1c60      	adds	r0, r4, #1
   223c6:	a913      	add	r1, sp, #76	@ 0x4c
   223c8:	2256      	movs	r2, #86	@ 0x56
   223ca:	f004 fd78 	bl	26ebe <__aeabi_memcpy>
   223ce:	7025      	strb	r5, [r4, #0]
   223d0:	4c05      	ldr	r4, [pc, #20]	@ (223e8 <_ZN18complex_no_dynamic3app17h7eef7af0f0758a32E+0xa4>)
   223d2:	4620      	mov	r0, r4
   223d4:	4631      	mov	r1, r6
   223d6:	462a      	mov	r2, r5
   223d8:	462b      	mov	r3, r5
   223da:	df03      	svc	3
   223dc:	2107      	movs	r1, #7
   223de:	4620      	mov	r0, r4
   223e0:	462a      	mov	r2, r5
   223e2:	462b      	mov	r3, r5
   223e4:	df04      	svc	4
   223e6:	e7e0      	b.n	223aa <_ZN18complex_no_dynamic3app17h7eef7af0f0758a32E+0x66>
   223e8:	00001e50 	.word	0x00001e50

000223ec <_ZN18complex_no_dynamic3app17h824832598c1a5ed0E>:
   223ec:	b5f0      	push	{r4, r5, r6, r7, lr}
   223ee:	af03      	add	r7, sp, #12
   223f0:	b09d      	sub	sp, #116	@ 0x74
   223f2:	4604      	mov	r4, r0
   223f4:	466d      	mov	r5, sp
   223f6:	261e      	movs	r6, #30
   223f8:	4628      	mov	r0, r5
   223fa:	4632      	mov	r2, r6
   223fc:	f004 fd5f 	bl	26ebe <__aeabi_memcpy>
   22400:	a808      	add	r0, sp, #32
   22402:	2151      	movs	r1, #81	@ 0x51
   22404:	f004 fbae 	bl	26b64 <__aeabi_memclr4>
   22408:	4821      	ldr	r0, [pc, #132]	@ (22490 <_ZN18complex_no_dynamic3app17h824832598c1a5ed0E+0xa4>)
   2240a:	2102      	movs	r1, #2
   2240c:	462a      	mov	r2, r5
   2240e:	4633      	mov	r3, r6
   22410:	df04      	svc	4
   22412:	2802      	cmp	r0, #2
   22414:	d00e      	beq.n	22434 <_ZN18complex_no_dynamic3app17h824832598c1a5ed0E+0x48>
   22416:	481e      	ldr	r0, [pc, #120]	@ (22490 <_ZN18complex_no_dynamic3app17h824832598c1a5ed0E+0xa4>)
   22418:	2100      	movs	r1, #0
   2241a:	aa08      	add	r2, sp, #32
   2241c:	2351      	movs	r3, #81	@ 0x51
   2241e:	df03      	svc	3
   22420:	2802      	cmp	r0, #2
   22422:	d007      	beq.n	22434 <_ZN18complex_no_dynamic3app17h824832598c1a5ed0E+0x48>
   22424:	481a      	ldr	r0, [pc, #104]	@ (22490 <_ZN18complex_no_dynamic3app17h824832598c1a5ed0E+0xa4>)
   22426:	2102      	movs	r1, #2
   22428:	2500      	movs	r5, #0
   2242a:	462a      	mov	r2, r5
   2242c:	462b      	mov	r3, r5
   2242e:	df02      	svc	2
   22430:	287f      	cmp	r0, #127	@ 0x7f
   22432:	d810      	bhi.n	22456 <_ZN18complex_no_dynamic3app17h824832598c1a5ed0E+0x6a>
   22434:	2001      	movs	r0, #1
   22436:	7020      	strb	r0, [r4, #0]
   22438:	6061      	str	r1, [r4, #4]
   2243a:	4c15      	ldr	r4, [pc, #84]	@ (22490 <_ZN18complex_no_dynamic3app17h824832598c1a5ed0E+0xa4>)
   2243c:	2500      	movs	r5, #0
   2243e:	4620      	mov	r0, r4
   22440:	4629      	mov	r1, r5
   22442:	462a      	mov	r2, r5
   22444:	462b      	mov	r3, r5
   22446:	df03      	svc	3
   22448:	2102      	movs	r1, #2
   2244a:	4620      	mov	r0, r4
   2244c:	462a      	mov	r2, r5
   2244e:	462b      	mov	r3, r5
   22450:	df04      	svc	4
   22452:	b01d      	add	sp, #116	@ 0x74
   22454:	bdf0      	pop	{r4, r5, r6, r7, pc}
   22456:	4e0e      	ldr	r6, [pc, #56]	@ (22490 <_ZN18complex_no_dynamic3app17h824832598c1a5ed0E+0xa4>)
   22458:	4630      	mov	r0, r6
   2245a:	4629      	mov	r1, r5
   2245c:	462a      	mov	r2, r5
   2245e:	462b      	mov	r3, r5
   22460:	df03      	svc	3
   22462:	4630      	mov	r0, r6
   22464:	4629      	mov	r1, r5
   22466:	462a      	mov	r2, r5
   22468:	462b      	mov	r3, r5
   2246a:	df03      	svc	3
   2246c:	1c60      	adds	r0, r4, #1
   2246e:	a908      	add	r1, sp, #32
   22470:	2251      	movs	r2, #81	@ 0x51
   22472:	f004 fd24 	bl	26ebe <__aeabi_memcpy>
   22476:	7025      	strb	r5, [r4, #0]
   22478:	4630      	mov	r0, r6
   2247a:	4629      	mov	r1, r5
   2247c:	462a      	mov	r2, r5
   2247e:	462b      	mov	r3, r5
   22480:	df03      	svc	3
   22482:	2102      	movs	r1, #2
   22484:	4630      	mov	r0, r6
   22486:	462a      	mov	r2, r5
   22488:	462b      	mov	r3, r5
   2248a:	df04      	svc	4
   2248c:	e7e1      	b.n	22452 <_ZN18complex_no_dynamic3app17h824832598c1a5ed0E+0x66>
   2248e:	46c0      	nop			@ (mov r8, r8)
   22490:	0000196b 	.word	0x0000196b

00022494 <_ZN18complex_no_dynamic3app17h841f98e09e57c3b0E>:
   22494:	b5f0      	push	{r4, r5, r6, r7, lr}
   22496:	af03      	add	r7, sp, #12
   22498:	b0a9      	sub	sp, #164	@ 0xa4
   2249a:	4604      	mov	r4, r0
   2249c:	466d      	mov	r5, sp
   2249e:	2656      	movs	r6, #86	@ 0x56
   224a0:	4628      	mov	r0, r5
   224a2:	4632      	mov	r2, r6
   224a4:	f004 fd0b 	bl	26ebe <__aeabi_memcpy>
   224a8:	a816      	add	r0, sp, #88	@ 0x58
   224aa:	2149      	movs	r1, #73	@ 0x49
   224ac:	f004 fb5a 	bl	26b64 <__aeabi_memclr4>
   224b0:	4822      	ldr	r0, [pc, #136]	@ (2253c <_ZN18complex_no_dynamic3app17h841f98e09e57c3b0E+0xa8>)
   224b2:	2106      	movs	r1, #6
   224b4:	462a      	mov	r2, r5
   224b6:	4633      	mov	r3, r6
   224b8:	df04      	svc	4
   224ba:	2802      	cmp	r0, #2
   224bc:	d00e      	beq.n	224dc <_ZN18complex_no_dynamic3app17h841f98e09e57c3b0E+0x48>
   224be:	481f      	ldr	r0, [pc, #124]	@ (2253c <_ZN18complex_no_dynamic3app17h841f98e09e57c3b0E+0xa8>)
   224c0:	2106      	movs	r1, #6
   224c2:	aa16      	add	r2, sp, #88	@ 0x58
   224c4:	2349      	movs	r3, #73	@ 0x49
   224c6:	df03      	svc	3
   224c8:	2802      	cmp	r0, #2
   224ca:	d007      	beq.n	224dc <_ZN18complex_no_dynamic3app17h841f98e09e57c3b0E+0x48>
   224cc:	481b      	ldr	r0, [pc, #108]	@ (2253c <_ZN18complex_no_dynamic3app17h841f98e09e57c3b0E+0xa8>)
   224ce:	2106      	movs	r1, #6
   224d0:	2500      	movs	r5, #0
   224d2:	460a      	mov	r2, r1
   224d4:	462b      	mov	r3, r5
   224d6:	df02      	svc	2
   224d8:	287f      	cmp	r0, #127	@ 0x7f
   224da:	d811      	bhi.n	22500 <_ZN18complex_no_dynamic3app17h841f98e09e57c3b0E+0x6c>
   224dc:	2001      	movs	r0, #1
   224de:	7020      	strb	r0, [r4, #0]
   224e0:	6061      	str	r1, [r4, #4]
   224e2:	4c16      	ldr	r4, [pc, #88]	@ (2253c <_ZN18complex_no_dynamic3app17h841f98e09e57c3b0E+0xa8>)
   224e4:	2506      	movs	r5, #6
   224e6:	2600      	movs	r6, #0
   224e8:	4620      	mov	r0, r4
   224ea:	4629      	mov	r1, r5
   224ec:	4632      	mov	r2, r6
   224ee:	4633      	mov	r3, r6
   224f0:	df03      	svc	3
   224f2:	4620      	mov	r0, r4
   224f4:	4629      	mov	r1, r5
   224f6:	4632      	mov	r2, r6
   224f8:	4633      	mov	r3, r6
   224fa:	df04      	svc	4
   224fc:	b029      	add	sp, #164	@ 0xa4
   224fe:	bdf0      	pop	{r4, r5, r6, r7, pc}
   22500:	480e      	ldr	r0, [pc, #56]	@ (2253c <_ZN18complex_no_dynamic3app17h841f98e09e57c3b0E+0xa8>)
   22502:	2606      	movs	r6, #6
   22504:	4631      	mov	r1, r6
   22506:	462a      	mov	r2, r5
   22508:	462b      	mov	r3, r5
   2250a:	df03      	svc	3
   2250c:	480b      	ldr	r0, [pc, #44]	@ (2253c <_ZN18complex_no_dynamic3app17h841f98e09e57c3b0E+0xa8>)
   2250e:	4631      	mov	r1, r6
   22510:	462a      	mov	r2, r5
   22512:	462b      	mov	r3, r5
   22514:	df03      	svc	3
   22516:	1c60      	adds	r0, r4, #1
   22518:	a916      	add	r1, sp, #88	@ 0x58
   2251a:	2249      	movs	r2, #73	@ 0x49
   2251c:	f004 fccf 	bl	26ebe <__aeabi_memcpy>
   22520:	7025      	strb	r5, [r4, #0]
   22522:	4c06      	ldr	r4, [pc, #24]	@ (2253c <_ZN18complex_no_dynamic3app17h841f98e09e57c3b0E+0xa8>)
   22524:	4620      	mov	r0, r4
   22526:	4631      	mov	r1, r6
   22528:	462a      	mov	r2, r5
   2252a:	462b      	mov	r3, r5
   2252c:	df03      	svc	3
   2252e:	4620      	mov	r0, r4
   22530:	4631      	mov	r1, r6
   22532:	462a      	mov	r2, r5
   22534:	462b      	mov	r3, r5
   22536:	df04      	svc	4
   22538:	e7e0      	b.n	224fc <_ZN18complex_no_dynamic3app17h841f98e09e57c3b0E+0x68>
   2253a:	46c0      	nop			@ (mov r8, r8)
   2253c:	00001c6b 	.word	0x00001c6b

00022540 <_ZN18complex_no_dynamic3app17h842d3bde6548817dE>:
   22540:	b5f0      	push	{r4, r5, r6, r7, lr}
   22542:	af03      	add	r7, sp, #12
   22544:	b099      	sub	sp, #100	@ 0x64
   22546:	4604      	mov	r4, r0
   22548:	466d      	mov	r5, sp
   2254a:	2611      	movs	r6, #17
   2254c:	4628      	mov	r0, r5
   2254e:	4632      	mov	r2, r6
   22550:	f004 fcb5 	bl	26ebe <__aeabi_memcpy>
   22554:	a805      	add	r0, sp, #20
   22556:	2150      	movs	r1, #80	@ 0x50
   22558:	f004 fb04 	bl	26b64 <__aeabi_memclr4>
   2255c:	4821      	ldr	r0, [pc, #132]	@ (225e4 <_ZN18complex_no_dynamic3app17h842d3bde6548817dE+0xa4>)
   2255e:	2106      	movs	r1, #6
   22560:	462a      	mov	r2, r5
   22562:	4633      	mov	r3, r6
   22564:	df04      	svc	4
   22566:	2802      	cmp	r0, #2
   22568:	d00e      	beq.n	22588 <_ZN18complex_no_dynamic3app17h842d3bde6548817dE+0x48>
   2256a:	481e      	ldr	r0, [pc, #120]	@ (225e4 <_ZN18complex_no_dynamic3app17h842d3bde6548817dE+0xa4>)
   2256c:	2105      	movs	r1, #5
   2256e:	aa05      	add	r2, sp, #20
   22570:	2350      	movs	r3, #80	@ 0x50
   22572:	df03      	svc	3
   22574:	2802      	cmp	r0, #2
   22576:	d007      	beq.n	22588 <_ZN18complex_no_dynamic3app17h842d3bde6548817dE+0x48>
   22578:	481a      	ldr	r0, [pc, #104]	@ (225e4 <_ZN18complex_no_dynamic3app17h842d3bde6548817dE+0xa4>)
   2257a:	2106      	movs	r1, #6
   2257c:	2205      	movs	r2, #5
   2257e:	2500      	movs	r5, #0
   22580:	462b      	mov	r3, r5
   22582:	df02      	svc	2
   22584:	287f      	cmp	r0, #127	@ 0x7f
   22586:	d810      	bhi.n	225aa <_ZN18complex_no_dynamic3app17h842d3bde6548817dE+0x6a>
   22588:	2001      	movs	r0, #1
   2258a:	7020      	strb	r0, [r4, #0]
   2258c:	6061      	str	r1, [r4, #4]
   2258e:	4c15      	ldr	r4, [pc, #84]	@ (225e4 <_ZN18complex_no_dynamic3app17h842d3bde6548817dE+0xa4>)
   22590:	2105      	movs	r1, #5
   22592:	2500      	movs	r5, #0
   22594:	4620      	mov	r0, r4
   22596:	462a      	mov	r2, r5
   22598:	462b      	mov	r3, r5
   2259a:	df03      	svc	3
   2259c:	2106      	movs	r1, #6
   2259e:	4620      	mov	r0, r4
   225a0:	462a      	mov	r2, r5
   225a2:	462b      	mov	r3, r5
   225a4:	df04      	svc	4
   225a6:	b019      	add	sp, #100	@ 0x64
   225a8:	bdf0      	pop	{r4, r5, r6, r7, pc}
   225aa:	480e      	ldr	r0, [pc, #56]	@ (225e4 <_ZN18complex_no_dynamic3app17h842d3bde6548817dE+0xa4>)
   225ac:	2605      	movs	r6, #5
   225ae:	4631      	mov	r1, r6
   225b0:	462a      	mov	r2, r5
   225b2:	462b      	mov	r3, r5
   225b4:	df03      	svc	3
   225b6:	480b      	ldr	r0, [pc, #44]	@ (225e4 <_ZN18complex_no_dynamic3app17h842d3bde6548817dE+0xa4>)
   225b8:	4631      	mov	r1, r6
   225ba:	462a      	mov	r2, r5
   225bc:	462b      	mov	r3, r5
   225be:	df03      	svc	3
   225c0:	1c60      	adds	r0, r4, #1
   225c2:	a905      	add	r1, sp, #20
   225c4:	2250      	movs	r2, #80	@ 0x50
   225c6:	f004 fc7a 	bl	26ebe <__aeabi_memcpy>
   225ca:	7025      	strb	r5, [r4, #0]
   225cc:	4c05      	ldr	r4, [pc, #20]	@ (225e4 <_ZN18complex_no_dynamic3app17h842d3bde6548817dE+0xa4>)
   225ce:	4620      	mov	r0, r4
   225d0:	4631      	mov	r1, r6
   225d2:	462a      	mov	r2, r5
   225d4:	462b      	mov	r3, r5
   225d6:	df03      	svc	3
   225d8:	2106      	movs	r1, #6
   225da:	4620      	mov	r0, r4
   225dc:	462a      	mov	r2, r5
   225de:	462b      	mov	r3, r5
   225e0:	df04      	svc	4
   225e2:	e7e0      	b.n	225a6 <_ZN18complex_no_dynamic3app17h842d3bde6548817dE+0x66>
   225e4:	00001aa9 	.word	0x00001aa9

000225e8 <_ZN18complex_no_dynamic3app17h8d5e4248870b5f5dE>:
   225e8:	b5f0      	push	{r4, r5, r6, r7, lr}
   225ea:	af03      	add	r7, sp, #12
   225ec:	b08f      	sub	sp, #60	@ 0x3c
   225ee:	4604      	mov	r4, r0
   225f0:	ad01      	add	r5, sp, #4
   225f2:	260f      	movs	r6, #15
   225f4:	4628      	mov	r0, r5
   225f6:	4632      	mov	r2, r6
   225f8:	f004 fc61 	bl	26ebe <__aeabi_memcpy>
   225fc:	a805      	add	r0, sp, #20
   225fe:	2125      	movs	r1, #37	@ 0x25
   22600:	f004 fab0 	bl	26b64 <__aeabi_memclr4>
   22604:	20a2      	movs	r0, #162	@ 0xa2
   22606:	2108      	movs	r1, #8
   22608:	462a      	mov	r2, r5
   2260a:	4633      	mov	r3, r6
   2260c:	df04      	svc	4
   2260e:	2802      	cmp	r0, #2
   22610:	d00e      	beq.n	22630 <_ZN18complex_no_dynamic3app17h8d5e4248870b5f5dE+0x48>
   22612:	20a2      	movs	r0, #162	@ 0xa2
   22614:	2100      	movs	r1, #0
   22616:	aa05      	add	r2, sp, #20
   22618:	2325      	movs	r3, #37	@ 0x25
   2261a:	df03      	svc	3
   2261c:	2802      	cmp	r0, #2
   2261e:	d007      	beq.n	22630 <_ZN18complex_no_dynamic3app17h8d5e4248870b5f5dE+0x48>
   22620:	20a2      	movs	r0, #162	@ 0xa2
   22622:	2108      	movs	r1, #8
   22624:	2500      	movs	r5, #0
   22626:	462a      	mov	r2, r5
   22628:	462b      	mov	r3, r5
   2262a:	df02      	svc	2
   2262c:	287f      	cmp	r0, #127	@ 0x7f
   2262e:	d810      	bhi.n	22652 <_ZN18complex_no_dynamic3app17h8d5e4248870b5f5dE+0x6a>
   22630:	2001      	movs	r0, #1
   22632:	7020      	strb	r0, [r4, #0]
   22634:	6061      	str	r1, [r4, #4]
   22636:	24a2      	movs	r4, #162	@ 0xa2
   22638:	2500      	movs	r5, #0
   2263a:	4620      	mov	r0, r4
   2263c:	4629      	mov	r1, r5
   2263e:	462a      	mov	r2, r5
   22640:	462b      	mov	r3, r5
   22642:	df03      	svc	3
   22644:	2108      	movs	r1, #8
   22646:	4620      	mov	r0, r4
   22648:	462a      	mov	r2, r5
   2264a:	462b      	mov	r3, r5
   2264c:	df04      	svc	4
   2264e:	b00f      	add	sp, #60	@ 0x3c
   22650:	bdf0      	pop	{r4, r5, r6, r7, pc}
   22652:	26a2      	movs	r6, #162	@ 0xa2
   22654:	4630      	mov	r0, r6
   22656:	4629      	mov	r1, r5
   22658:	462a      	mov	r2, r5
   2265a:	462b      	mov	r3, r5
   2265c:	df03      	svc	3
   2265e:	4630      	mov	r0, r6
   22660:	4629      	mov	r1, r5
   22662:	462a      	mov	r2, r5
   22664:	462b      	mov	r3, r5
   22666:	df03      	svc	3
   22668:	1c60      	adds	r0, r4, #1
   2266a:	a905      	add	r1, sp, #20
   2266c:	2225      	movs	r2, #37	@ 0x25
   2266e:	f004 fc26 	bl	26ebe <__aeabi_memcpy>
   22672:	7025      	strb	r5, [r4, #0]
   22674:	4630      	mov	r0, r6
   22676:	4629      	mov	r1, r5
   22678:	462a      	mov	r2, r5
   2267a:	462b      	mov	r3, r5
   2267c:	df03      	svc	3
   2267e:	2108      	movs	r1, #8
   22680:	4630      	mov	r0, r6
   22682:	462a      	mov	r2, r5
   22684:	462b      	mov	r3, r5
   22686:	df04      	svc	4
   22688:	e7e1      	b.n	2264e <_ZN18complex_no_dynamic3app17h8d5e4248870b5f5dE+0x66>
   2268a:	d4d4      	bmi.n	22636 <_ZN18complex_no_dynamic3app17h8d5e4248870b5f5dE+0x4e>

0002268c <_ZN18complex_no_dynamic3app17h8d91601e7cd3e79eE>:
   2268c:	b5f0      	push	{r4, r5, r6, r7, lr}
   2268e:	af03      	add	r7, sp, #12
   22690:	b08f      	sub	sp, #60	@ 0x3c
   22692:	4604      	mov	r4, r0
   22694:	466d      	mov	r5, sp
   22696:	2627      	movs	r6, #39	@ 0x27
   22698:	4628      	mov	r0, r5
   2269a:	4632      	mov	r2, r6
   2269c:	f004 fc0f 	bl	26ebe <__aeabi_memcpy>
   226a0:	a80a      	add	r0, sp, #40	@ 0x28
   226a2:	2114      	movs	r1, #20
   226a4:	f004 fa5e 	bl	26b64 <__aeabi_memclr4>
   226a8:	4821      	ldr	r0, [pc, #132]	@ (22730 <_ZN18complex_no_dynamic3app17h8d91601e7cd3e79eE+0xa4>)
   226aa:	2106      	movs	r1, #6
   226ac:	462a      	mov	r2, r5
   226ae:	4633      	mov	r3, r6
   226b0:	df04      	svc	4
   226b2:	2802      	cmp	r0, #2
   226b4:	d00e      	beq.n	226d4 <_ZN18complex_no_dynamic3app17h8d91601e7cd3e79eE+0x48>
   226b6:	481e      	ldr	r0, [pc, #120]	@ (22730 <_ZN18complex_no_dynamic3app17h8d91601e7cd3e79eE+0xa4>)
   226b8:	2105      	movs	r1, #5
   226ba:	aa0a      	add	r2, sp, #40	@ 0x28
   226bc:	2314      	movs	r3, #20
   226be:	df03      	svc	3
   226c0:	2802      	cmp	r0, #2
   226c2:	d007      	beq.n	226d4 <_ZN18complex_no_dynamic3app17h8d91601e7cd3e79eE+0x48>
   226c4:	481a      	ldr	r0, [pc, #104]	@ (22730 <_ZN18complex_no_dynamic3app17h8d91601e7cd3e79eE+0xa4>)
   226c6:	2106      	movs	r1, #6
   226c8:	2205      	movs	r2, #5
   226ca:	2500      	movs	r5, #0
   226cc:	462b      	mov	r3, r5
   226ce:	df02      	svc	2
   226d0:	287f      	cmp	r0, #127	@ 0x7f
   226d2:	d810      	bhi.n	226f6 <_ZN18complex_no_dynamic3app17h8d91601e7cd3e79eE+0x6a>
   226d4:	2001      	movs	r0, #1
   226d6:	7020      	strb	r0, [r4, #0]
   226d8:	6061      	str	r1, [r4, #4]
   226da:	4c15      	ldr	r4, [pc, #84]	@ (22730 <_ZN18complex_no_dynamic3app17h8d91601e7cd3e79eE+0xa4>)
   226dc:	2105      	movs	r1, #5
   226de:	2500      	movs	r5, #0
   226e0:	4620      	mov	r0, r4
   226e2:	462a      	mov	r2, r5
   226e4:	462b      	mov	r3, r5
   226e6:	df03      	svc	3
   226e8:	2106      	movs	r1, #6
   226ea:	4620      	mov	r0, r4
   226ec:	462a      	mov	r2, r5
   226ee:	462b      	mov	r3, r5
   226f0:	df04      	svc	4
   226f2:	b00f      	add	sp, #60	@ 0x3c
   226f4:	bdf0      	pop	{r4, r5, r6, r7, pc}
   226f6:	480e      	ldr	r0, [pc, #56]	@ (22730 <_ZN18complex_no_dynamic3app17h8d91601e7cd3e79eE+0xa4>)
   226f8:	2605      	movs	r6, #5
   226fa:	4631      	mov	r1, r6
   226fc:	462a      	mov	r2, r5
   226fe:	462b      	mov	r3, r5
   22700:	df03      	svc	3
   22702:	480b      	ldr	r0, [pc, #44]	@ (22730 <_ZN18complex_no_dynamic3app17h8d91601e7cd3e79eE+0xa4>)
   22704:	4631      	mov	r1, r6
   22706:	462a      	mov	r2, r5
   22708:	462b      	mov	r3, r5
   2270a:	df03      	svc	3
   2270c:	1c60      	adds	r0, r4, #1
   2270e:	a90a      	add	r1, sp, #40	@ 0x28
   22710:	2214      	movs	r2, #20
   22712:	f004 fbd4 	bl	26ebe <__aeabi_memcpy>
   22716:	7025      	strb	r5, [r4, #0]
   22718:	4c05      	ldr	r4, [pc, #20]	@ (22730 <_ZN18complex_no_dynamic3app17h8d91601e7cd3e79eE+0xa4>)
   2271a:	4620      	mov	r0, r4
   2271c:	4631      	mov	r1, r6
   2271e:	462a      	mov	r2, r5
   22720:	462b      	mov	r3, r5
   22722:	df03      	svc	3
   22724:	2106      	movs	r1, #6
   22726:	4620      	mov	r0, r4
   22728:	462a      	mov	r2, r5
   2272a:	462b      	mov	r3, r5
   2272c:	df04      	svc	4
   2272e:	e7e0      	b.n	226f2 <_ZN18complex_no_dynamic3app17h8d91601e7cd3e79eE+0x66>
   22730:	000022c9 	.word	0x000022c9

00022734 <_ZN18complex_no_dynamic3app17h981d7ac0b9234880E>:
   22734:	b5f0      	push	{r4, r5, r6, r7, lr}
   22736:	af03      	add	r7, sp, #12
   22738:	b097      	sub	sp, #92	@ 0x5c
   2273a:	4604      	mov	r4, r0
   2273c:	ad01      	add	r5, sp, #4
   2273e:	260e      	movs	r6, #14
   22740:	4628      	mov	r0, r5
   22742:	4632      	mov	r2, r6
   22744:	f004 fbbb 	bl	26ebe <__aeabi_memcpy>
   22748:	a805      	add	r0, sp, #20
   2274a:	2148      	movs	r1, #72	@ 0x48
   2274c:	f004 fa0a 	bl	26b64 <__aeabi_memclr4>
   22750:	4821      	ldr	r0, [pc, #132]	@ (227d8 <_ZN18complex_no_dynamic3app17h981d7ac0b9234880E+0xa4>)
   22752:	2103      	movs	r1, #3
   22754:	462a      	mov	r2, r5
   22756:	4633      	mov	r3, r6
   22758:	df04      	svc	4
   2275a:	2802      	cmp	r0, #2
   2275c:	d00e      	beq.n	2277c <_ZN18complex_no_dynamic3app17h981d7ac0b9234880E+0x48>
   2275e:	481e      	ldr	r0, [pc, #120]	@ (227d8 <_ZN18complex_no_dynamic3app17h981d7ac0b9234880E+0xa4>)
   22760:	2108      	movs	r1, #8
   22762:	aa05      	add	r2, sp, #20
   22764:	2348      	movs	r3, #72	@ 0x48
   22766:	df03      	svc	3
   22768:	2802      	cmp	r0, #2
   2276a:	d007      	beq.n	2277c <_ZN18complex_no_dynamic3app17h981d7ac0b9234880E+0x48>
   2276c:	481a      	ldr	r0, [pc, #104]	@ (227d8 <_ZN18complex_no_dynamic3app17h981d7ac0b9234880E+0xa4>)
   2276e:	2103      	movs	r1, #3
   22770:	2208      	movs	r2, #8
   22772:	2500      	movs	r5, #0
   22774:	462b      	mov	r3, r5
   22776:	df02      	svc	2
   22778:	287f      	cmp	r0, #127	@ 0x7f
   2277a:	d810      	bhi.n	2279e <_ZN18complex_no_dynamic3app17h981d7ac0b9234880E+0x6a>
   2277c:	2001      	movs	r0, #1
   2277e:	7020      	strb	r0, [r4, #0]
   22780:	6061      	str	r1, [r4, #4]
   22782:	4c15      	ldr	r4, [pc, #84]	@ (227d8 <_ZN18complex_no_dynamic3app17h981d7ac0b9234880E+0xa4>)
   22784:	2108      	movs	r1, #8
   22786:	2500      	movs	r5, #0
   22788:	4620      	mov	r0, r4
   2278a:	462a      	mov	r2, r5
   2278c:	462b      	mov	r3, r5
   2278e:	df03      	svc	3
   22790:	2103      	movs	r1, #3
   22792:	4620      	mov	r0, r4
   22794:	462a      	mov	r2, r5
   22796:	462b      	mov	r3, r5
   22798:	df04      	svc	4
   2279a:	b017      	add	sp, #92	@ 0x5c
   2279c:	bdf0      	pop	{r4, r5, r6, r7, pc}
   2279e:	480e      	ldr	r0, [pc, #56]	@ (227d8 <_ZN18complex_no_dynamic3app17h981d7ac0b9234880E+0xa4>)
   227a0:	2608      	movs	r6, #8
   227a2:	4631      	mov	r1, r6
   227a4:	462a      	mov	r2, r5
   227a6:	462b      	mov	r3, r5
   227a8:	df03      	svc	3
   227aa:	480b      	ldr	r0, [pc, #44]	@ (227d8 <_ZN18complex_no_dynamic3app17h981d7ac0b9234880E+0xa4>)
   227ac:	4631      	mov	r1, r6
   227ae:	462a      	mov	r2, r5
   227b0:	462b      	mov	r3, r5
   227b2:	df03      	svc	3
   227b4:	1c60      	adds	r0, r4, #1
   227b6:	a905      	add	r1, sp, #20
   227b8:	2248      	movs	r2, #72	@ 0x48
   227ba:	f004 fb80 	bl	26ebe <__aeabi_memcpy>
   227be:	7025      	strb	r5, [r4, #0]
   227c0:	4c05      	ldr	r4, [pc, #20]	@ (227d8 <_ZN18complex_no_dynamic3app17h981d7ac0b9234880E+0xa4>)
   227c2:	4620      	mov	r0, r4
   227c4:	4631      	mov	r1, r6
   227c6:	462a      	mov	r2, r5
   227c8:	462b      	mov	r3, r5
   227ca:	df03      	svc	3
   227cc:	2103      	movs	r1, #3
   227ce:	4620      	mov	r0, r4
   227d0:	462a      	mov	r2, r5
   227d2:	462b      	mov	r3, r5
   227d4:	df04      	svc	4
   227d6:	e7e0      	b.n	2279a <_ZN18complex_no_dynamic3app17h981d7ac0b9234880E+0x66>
   227d8:	000012d1 	.word	0x000012d1

000227dc <_ZN18complex_no_dynamic3app17h9b802e4d3ac35b5aE>:
   227dc:	b5f0      	push	{r4, r5, r6, r7, lr}
   227de:	af03      	add	r7, sp, #12
   227e0:	b09b      	sub	sp, #108	@ 0x6c
   227e2:	4604      	mov	r4, r0
   227e4:	ad01      	add	r5, sp, #4
   227e6:	263c      	movs	r6, #60	@ 0x3c
   227e8:	4628      	mov	r0, r5
   227ea:	4632      	mov	r2, r6
   227ec:	f004 fb67 	bl	26ebe <__aeabi_memcpy>
   227f0:	a810      	add	r0, sp, #64	@ 0x40
   227f2:	212c      	movs	r1, #44	@ 0x2c
   227f4:	f004 f9b6 	bl	26b64 <__aeabi_memclr4>
   227f8:	4821      	ldr	r0, [pc, #132]	@ (22880 <_ZN18complex_no_dynamic3app17h9b802e4d3ac35b5aE+0xa4>)
   227fa:	2105      	movs	r1, #5
   227fc:	462a      	mov	r2, r5
   227fe:	4633      	mov	r3, r6
   22800:	df04      	svc	4
   22802:	2802      	cmp	r0, #2
   22804:	d00e      	beq.n	22824 <_ZN18complex_no_dynamic3app17h9b802e4d3ac35b5aE+0x48>
   22806:	481e      	ldr	r0, [pc, #120]	@ (22880 <_ZN18complex_no_dynamic3app17h9b802e4d3ac35b5aE+0xa4>)
   22808:	2107      	movs	r1, #7
   2280a:	aa10      	add	r2, sp, #64	@ 0x40
   2280c:	232c      	movs	r3, #44	@ 0x2c
   2280e:	df03      	svc	3
   22810:	2802      	cmp	r0, #2
   22812:	d007      	beq.n	22824 <_ZN18complex_no_dynamic3app17h9b802e4d3ac35b5aE+0x48>
   22814:	481a      	ldr	r0, [pc, #104]	@ (22880 <_ZN18complex_no_dynamic3app17h9b802e4d3ac35b5aE+0xa4>)
   22816:	2105      	movs	r1, #5
   22818:	2207      	movs	r2, #7
   2281a:	2500      	movs	r5, #0
   2281c:	462b      	mov	r3, r5
   2281e:	df02      	svc	2
   22820:	287f      	cmp	r0, #127	@ 0x7f
   22822:	d810      	bhi.n	22846 <_ZN18complex_no_dynamic3app17h9b802e4d3ac35b5aE+0x6a>
   22824:	2001      	movs	r0, #1
   22826:	7020      	strb	r0, [r4, #0]
   22828:	6061      	str	r1, [r4, #4]
   2282a:	4c15      	ldr	r4, [pc, #84]	@ (22880 <_ZN18complex_no_dynamic3app17h9b802e4d3ac35b5aE+0xa4>)
   2282c:	2107      	movs	r1, #7
   2282e:	2500      	movs	r5, #0
   22830:	4620      	mov	r0, r4
   22832:	462a      	mov	r2, r5
   22834:	462b      	mov	r3, r5
   22836:	df03      	svc	3
   22838:	2105      	movs	r1, #5
   2283a:	4620      	mov	r0, r4
   2283c:	462a      	mov	r2, r5
   2283e:	462b      	mov	r3, r5
   22840:	df04      	svc	4
   22842:	b01b      	add	sp, #108	@ 0x6c
   22844:	bdf0      	pop	{r4, r5, r6, r7, pc}
   22846:	480e      	ldr	r0, [pc, #56]	@ (22880 <_ZN18complex_no_dynamic3app17h9b802e4d3ac35b5aE+0xa4>)
   22848:	2607      	movs	r6, #7
   2284a:	4631      	mov	r1, r6
   2284c:	462a      	mov	r2, r5
   2284e:	462b      	mov	r3, r5
   22850:	df03      	svc	3
   22852:	480b      	ldr	r0, [pc, #44]	@ (22880 <_ZN18complex_no_dynamic3app17h9b802e4d3ac35b5aE+0xa4>)
   22854:	4631      	mov	r1, r6
   22856:	462a      	mov	r2, r5
   22858:	462b      	mov	r3, r5
   2285a:	df03      	svc	3
   2285c:	1c60      	adds	r0, r4, #1
   2285e:	a910      	add	r1, sp, #64	@ 0x40
   22860:	222c      	movs	r2, #44	@ 0x2c
   22862:	f004 fb2c 	bl	26ebe <__aeabi_memcpy>
   22866:	7025      	strb	r5, [r4, #0]
   22868:	4c05      	ldr	r4, [pc, #20]	@ (22880 <_ZN18complex_no_dynamic3app17h9b802e4d3ac35b5aE+0xa4>)
   2286a:	4620      	mov	r0, r4
   2286c:	4631      	mov	r1, r6
   2286e:	462a      	mov	r2, r5
   22870:	462b      	mov	r3, r5
   22872:	df03      	svc	3
   22874:	2105      	movs	r1, #5
   22876:	4620      	mov	r0, r4
   22878:	462a      	mov	r2, r5
   2287a:	462b      	mov	r3, r5
   2287c:	df04      	svc	4
   2287e:	e7e0      	b.n	22842 <_ZN18complex_no_dynamic3app17h9b802e4d3ac35b5aE+0x66>
   22880:	00001eac 	.word	0x00001eac

00022884 <_ZN18complex_no_dynamic3app17ha0862d7df5111015E>:
   22884:	b5f0      	push	{r4, r5, r6, r7, lr}
   22886:	af03      	add	r7, sp, #12
   22888:	b099      	sub	sp, #100	@ 0x64
   2288a:	4604      	mov	r4, r0
   2288c:	466d      	mov	r5, sp
   2288e:	2634      	movs	r6, #52	@ 0x34
   22890:	4628      	mov	r0, r5
   22892:	4632      	mov	r2, r6
   22894:	f004 fb13 	bl	26ebe <__aeabi_memcpy>
   22898:	a80d      	add	r0, sp, #52	@ 0x34
   2289a:	212e      	movs	r1, #46	@ 0x2e
   2289c:	f004 f962 	bl	26b64 <__aeabi_memclr4>
   228a0:	4821      	ldr	r0, [pc, #132]	@ (22928 <_ZN18complex_no_dynamic3app17ha0862d7df5111015E+0xa4>)
   228a2:	2102      	movs	r1, #2
   228a4:	462a      	mov	r2, r5
   228a6:	4633      	mov	r3, r6
   228a8:	df04      	svc	4
   228aa:	2802      	cmp	r0, #2
   228ac:	d00e      	beq.n	228cc <_ZN18complex_no_dynamic3app17ha0862d7df5111015E+0x48>
   228ae:	481e      	ldr	r0, [pc, #120]	@ (22928 <_ZN18complex_no_dynamic3app17ha0862d7df5111015E+0xa4>)
   228b0:	2108      	movs	r1, #8
   228b2:	aa0d      	add	r2, sp, #52	@ 0x34
   228b4:	232e      	movs	r3, #46	@ 0x2e
   228b6:	df03      	svc	3
   228b8:	2802      	cmp	r0, #2
   228ba:	d007      	beq.n	228cc <_ZN18complex_no_dynamic3app17ha0862d7df5111015E+0x48>
   228bc:	481a      	ldr	r0, [pc, #104]	@ (22928 <_ZN18complex_no_dynamic3app17ha0862d7df5111015E+0xa4>)
   228be:	2102      	movs	r1, #2
   228c0:	2208      	movs	r2, #8
   228c2:	2500      	movs	r5, #0
   228c4:	462b      	mov	r3, r5
   228c6:	df02      	svc	2
   228c8:	287f      	cmp	r0, #127	@ 0x7f
   228ca:	d810      	bhi.n	228ee <_ZN18complex_no_dynamic3app17ha0862d7df5111015E+0x6a>
   228cc:	2001      	movs	r0, #1
   228ce:	7020      	strb	r0, [r4, #0]
   228d0:	6061      	str	r1, [r4, #4]
   228d2:	4c15      	ldr	r4, [pc, #84]	@ (22928 <_ZN18complex_no_dynamic3app17ha0862d7df5111015E+0xa4>)
   228d4:	2108      	movs	r1, #8
   228d6:	2500      	movs	r5, #0
   228d8:	4620      	mov	r0, r4
   228da:	462a      	mov	r2, r5
   228dc:	462b      	mov	r3, r5
   228de:	df03      	svc	3
   228e0:	2102      	movs	r1, #2
   228e2:	4620      	mov	r0, r4
   228e4:	462a      	mov	r2, r5
   228e6:	462b      	mov	r3, r5
   228e8:	df04      	svc	4
   228ea:	b019      	add	sp, #100	@ 0x64
   228ec:	bdf0      	pop	{r4, r5, r6, r7, pc}
   228ee:	480e      	ldr	r0, [pc, #56]	@ (22928 <_ZN18complex_no_dynamic3app17ha0862d7df5111015E+0xa4>)
   228f0:	2608      	movs	r6, #8
   228f2:	4631      	mov	r1, r6
   228f4:	462a      	mov	r2, r5
   228f6:	462b      	mov	r3, r5
   228f8:	df03      	svc	3
   228fa:	480b      	ldr	r0, [pc, #44]	@ (22928 <_ZN18complex_no_dynamic3app17ha0862d7df5111015E+0xa4>)
   228fc:	4631      	mov	r1, r6
   228fe:	462a      	mov	r2, r5
   22900:	462b      	mov	r3, r5
   22902:	df03      	svc	3
   22904:	1c60      	adds	r0, r4, #1
   22906:	a90d      	add	r1, sp, #52	@ 0x34
   22908:	222e      	movs	r2, #46	@ 0x2e
   2290a:	f004 fad8 	bl	26ebe <__aeabi_memcpy>
   2290e:	7025      	strb	r5, [r4, #0]
   22910:	4c05      	ldr	r4, [pc, #20]	@ (22928 <_ZN18complex_no_dynamic3app17ha0862d7df5111015E+0xa4>)
   22912:	4620      	mov	r0, r4
   22914:	4631      	mov	r1, r6
   22916:	462a      	mov	r2, r5
   22918:	462b      	mov	r3, r5
   2291a:	df03      	svc	3
   2291c:	2102      	movs	r1, #2
   2291e:	4620      	mov	r0, r4
   22920:	462a      	mov	r2, r5
   22922:	462b      	mov	r3, r5
   22924:	df04      	svc	4
   22926:	e7e0      	b.n	228ea <_ZN18complex_no_dynamic3app17ha0862d7df5111015E+0x66>
   22928:	00000209 	.word	0x00000209

0002292c <_ZN18complex_no_dynamic3app17ha9b94bdb18313ec0E>:
   2292c:	b5f0      	push	{r4, r5, r6, r7, lr}
   2292e:	af03      	add	r7, sp, #12
   22930:	b099      	sub	sp, #100	@ 0x64
   22932:	4604      	mov	r4, r0
   22934:	ad01      	add	r5, sp, #4
   22936:	2638      	movs	r6, #56	@ 0x38
   22938:	4628      	mov	r0, r5
   2293a:	4632      	mov	r2, r6
   2293c:	f004 fabf 	bl	26ebe <__aeabi_memcpy>
   22940:	a80f      	add	r0, sp, #60	@ 0x3c
   22942:	2127      	movs	r1, #39	@ 0x27
   22944:	f004 f90e 	bl	26b64 <__aeabi_memclr4>
   22948:	4821      	ldr	r0, [pc, #132]	@ (229d0 <_ZN18complex_no_dynamic3app17ha9b94bdb18313ec0E+0xa4>)
   2294a:	2102      	movs	r1, #2
   2294c:	462a      	mov	r2, r5
   2294e:	4633      	mov	r3, r6
   22950:	df04      	svc	4
   22952:	2802      	cmp	r0, #2
   22954:	d00e      	beq.n	22974 <_ZN18complex_no_dynamic3app17ha9b94bdb18313ec0E+0x48>
   22956:	481e      	ldr	r0, [pc, #120]	@ (229d0 <_ZN18complex_no_dynamic3app17ha9b94bdb18313ec0E+0xa4>)
   22958:	2108      	movs	r1, #8
   2295a:	aa0f      	add	r2, sp, #60	@ 0x3c
   2295c:	2327      	movs	r3, #39	@ 0x27
   2295e:	df03      	svc	3
   22960:	2802      	cmp	r0, #2
   22962:	d007      	beq.n	22974 <_ZN18complex_no_dynamic3app17ha9b94bdb18313ec0E+0x48>
   22964:	481a      	ldr	r0, [pc, #104]	@ (229d0 <_ZN18complex_no_dynamic3app17ha9b94bdb18313ec0E+0xa4>)
   22966:	2102      	movs	r1, #2
   22968:	2208      	movs	r2, #8
   2296a:	2500      	movs	r5, #0
   2296c:	462b      	mov	r3, r5
   2296e:	df02      	svc	2
   22970:	287f      	cmp	r0, #127	@ 0x7f
   22972:	d810      	bhi.n	22996 <_ZN18complex_no_dynamic3app17ha9b94bdb18313ec0E+0x6a>
   22974:	2001      	movs	r0, #1
   22976:	7020      	strb	r0, [r4, #0]
   22978:	6061      	str	r1, [r4, #4]
   2297a:	4c15      	ldr	r4, [pc, #84]	@ (229d0 <_ZN18complex_no_dynamic3app17ha9b94bdb18313ec0E+0xa4>)
   2297c:	2108      	movs	r1, #8
   2297e:	2500      	movs	r5, #0
   22980:	4620      	mov	r0, r4
   22982:	462a      	mov	r2, r5
   22984:	462b      	mov	r3, r5
   22986:	df03      	svc	3
   22988:	2102      	movs	r1, #2
   2298a:	4620      	mov	r0, r4
   2298c:	462a      	mov	r2, r5
   2298e:	462b      	mov	r3, r5
   22990:	df04      	svc	4
   22992:	b019      	add	sp, #100	@ 0x64
   22994:	bdf0      	pop	{r4, r5, r6, r7, pc}
   22996:	480e      	ldr	r0, [pc, #56]	@ (229d0 <_ZN18complex_no_dynamic3app17ha9b94bdb18313ec0E+0xa4>)
   22998:	2608      	movs	r6, #8
   2299a:	4631      	mov	r1, r6
   2299c:	462a      	mov	r2, r5
   2299e:	462b      	mov	r3, r5
   229a0:	df03      	svc	3
   229a2:	480b      	ldr	r0, [pc, #44]	@ (229d0 <_ZN18complex_no_dynamic3app17ha9b94bdb18313ec0E+0xa4>)
   229a4:	4631      	mov	r1, r6
   229a6:	462a      	mov	r2, r5
   229a8:	462b      	mov	r3, r5
   229aa:	df03      	svc	3
   229ac:	1c60      	adds	r0, r4, #1
   229ae:	a90f      	add	r1, sp, #60	@ 0x3c
   229b0:	2227      	movs	r2, #39	@ 0x27
   229b2:	f004 fa84 	bl	26ebe <__aeabi_memcpy>
   229b6:	7025      	strb	r5, [r4, #0]
   229b8:	4c05      	ldr	r4, [pc, #20]	@ (229d0 <_ZN18complex_no_dynamic3app17ha9b94bdb18313ec0E+0xa4>)
   229ba:	4620      	mov	r0, r4
   229bc:	4631      	mov	r1, r6
   229be:	462a      	mov	r2, r5
   229c0:	462b      	mov	r3, r5
   229c2:	df03      	svc	3
   229c4:	2102      	movs	r1, #2
   229c6:	4620      	mov	r0, r4
   229c8:	462a      	mov	r2, r5
   229ca:	462b      	mov	r3, r5
   229cc:	df04      	svc	4
   229ce:	e7e0      	b.n	22992 <_ZN18complex_no_dynamic3app17ha9b94bdb18313ec0E+0x66>
   229d0:	00000e2b 	.word	0x00000e2b

000229d4 <_ZN18complex_no_dynamic3app17haaefbdf9b0dc7369E>:
   229d4:	b5f0      	push	{r4, r5, r6, r7, lr}
   229d6:	af03      	add	r7, sp, #12
   229d8:	b097      	sub	sp, #92	@ 0x5c
   229da:	4604      	mov	r4, r0
   229dc:	ad01      	add	r5, sp, #4
   229de:	2648      	movs	r6, #72	@ 0x48
   229e0:	4628      	mov	r0, r5
   229e2:	4632      	mov	r2, r6
   229e4:	f004 fa6b 	bl	26ebe <__aeabi_memcpy>
   229e8:	a813      	add	r0, sp, #76	@ 0x4c
   229ea:	210f      	movs	r1, #15
   229ec:	f004 f8ba 	bl	26b64 <__aeabi_memclr4>
   229f0:	4821      	ldr	r0, [pc, #132]	@ (22a78 <_ZN18complex_no_dynamic3app17haaefbdf9b0dc7369E+0xa4>)
   229f2:	2108      	movs	r1, #8
   229f4:	462a      	mov	r2, r5
   229f6:	4633      	mov	r3, r6
   229f8:	df04      	svc	4
   229fa:	2802      	cmp	r0, #2
   229fc:	d00e      	beq.n	22a1c <_ZN18complex_no_dynamic3app17haaefbdf9b0dc7369E+0x48>
   229fe:	481e      	ldr	r0, [pc, #120]	@ (22a78 <_ZN18complex_no_dynamic3app17haaefbdf9b0dc7369E+0xa4>)
   22a00:	2109      	movs	r1, #9
   22a02:	aa13      	add	r2, sp, #76	@ 0x4c
   22a04:	230f      	movs	r3, #15
   22a06:	df03      	svc	3
   22a08:	2802      	cmp	r0, #2
   22a0a:	d007      	beq.n	22a1c <_ZN18complex_no_dynamic3app17haaefbdf9b0dc7369E+0x48>
   22a0c:	481a      	ldr	r0, [pc, #104]	@ (22a78 <_ZN18complex_no_dynamic3app17haaefbdf9b0dc7369E+0xa4>)
   22a0e:	2108      	movs	r1, #8
   22a10:	2209      	movs	r2, #9
   22a12:	2500      	movs	r5, #0
   22a14:	462b      	mov	r3, r5
   22a16:	df02      	svc	2
   22a18:	287f      	cmp	r0, #127	@ 0x7f
   22a1a:	d810      	bhi.n	22a3e <_ZN18complex_no_dynamic3app17haaefbdf9b0dc7369E+0x6a>
   22a1c:	2001      	movs	r0, #1
   22a1e:	7020      	strb	r0, [r4, #0]
   22a20:	6061      	str	r1, [r4, #4]
   22a22:	4c15      	ldr	r4, [pc, #84]	@ (22a78 <_ZN18complex_no_dynamic3app17haaefbdf9b0dc7369E+0xa4>)
   22a24:	2109      	movs	r1, #9
   22a26:	2500      	movs	r5, #0
   22a28:	4620      	mov	r0, r4
   22a2a:	462a      	mov	r2, r5
   22a2c:	462b      	mov	r3, r5
   22a2e:	df03      	svc	3
   22a30:	2108      	movs	r1, #8
   22a32:	4620      	mov	r0, r4
   22a34:	462a      	mov	r2, r5
   22a36:	462b      	mov	r3, r5
   22a38:	df04      	svc	4
   22a3a:	b017      	add	sp, #92	@ 0x5c
   22a3c:	bdf0      	pop	{r4, r5, r6, r7, pc}
   22a3e:	480e      	ldr	r0, [pc, #56]	@ (22a78 <_ZN18complex_no_dynamic3app17haaefbdf9b0dc7369E+0xa4>)
   22a40:	2609      	movs	r6, #9
   22a42:	4631      	mov	r1, r6
   22a44:	462a      	mov	r2, r5
   22a46:	462b      	mov	r3, r5
   22a48:	df03      	svc	3
   22a4a:	480b      	ldr	r0, [pc, #44]	@ (22a78 <_ZN18complex_no_dynamic3app17haaefbdf9b0dc7369E+0xa4>)
   22a4c:	4631      	mov	r1, r6
   22a4e:	462a      	mov	r2, r5
   22a50:	462b      	mov	r3, r5
   22a52:	df03      	svc	3
   22a54:	1c60      	adds	r0, r4, #1
   22a56:	a913      	add	r1, sp, #76	@ 0x4c
   22a58:	220f      	movs	r2, #15
   22a5a:	f004 fa30 	bl	26ebe <__aeabi_memcpy>
   22a5e:	7025      	strb	r5, [r4, #0]
   22a60:	4c05      	ldr	r4, [pc, #20]	@ (22a78 <_ZN18complex_no_dynamic3app17haaefbdf9b0dc7369E+0xa4>)
   22a62:	4620      	mov	r0, r4
   22a64:	4631      	mov	r1, r6
   22a66:	462a      	mov	r2, r5
   22a68:	462b      	mov	r3, r5
   22a6a:	df03      	svc	3
   22a6c:	2108      	movs	r1, #8
   22a6e:	4620      	mov	r0, r4
   22a70:	462a      	mov	r2, r5
   22a72:	462b      	mov	r3, r5
   22a74:	df04      	svc	4
   22a76:	e7e0      	b.n	22a3a <_ZN18complex_no_dynamic3app17haaefbdf9b0dc7369E+0x66>
   22a78:	0000111d 	.word	0x0000111d

00022a7c <_ZN18complex_no_dynamic3app17hab69453d5deb5443E>:
   22a7c:	b5f0      	push	{r4, r5, r6, r7, lr}
   22a7e:	af03      	add	r7, sp, #12
   22a80:	b099      	sub	sp, #100	@ 0x64
   22a82:	4604      	mov	r4, r0
   22a84:	466d      	mov	r5, sp
   22a86:	2651      	movs	r6, #81	@ 0x51
   22a88:	4628      	mov	r0, r5
   22a8a:	4632      	mov	r2, r6
   22a8c:	f004 fa17 	bl	26ebe <__aeabi_memcpy>
   22a90:	a815      	add	r0, sp, #84	@ 0x54
   22a92:	210f      	movs	r1, #15
   22a94:	f004 f866 	bl	26b64 <__aeabi_memclr4>
   22a98:	4821      	ldr	r0, [pc, #132]	@ (22b20 <_ZN18complex_no_dynamic3app17hab69453d5deb5443E+0xa4>)
   22a9a:	2100      	movs	r1, #0
   22a9c:	462a      	mov	r2, r5
   22a9e:	4633      	mov	r3, r6
   22aa0:	df04      	svc	4
   22aa2:	2802      	cmp	r0, #2
   22aa4:	d00e      	beq.n	22ac4 <_ZN18complex_no_dynamic3app17hab69453d5deb5443E+0x48>
   22aa6:	481e      	ldr	r0, [pc, #120]	@ (22b20 <_ZN18complex_no_dynamic3app17hab69453d5deb5443E+0xa4>)
   22aa8:	2103      	movs	r1, #3
   22aaa:	aa15      	add	r2, sp, #84	@ 0x54
   22aac:	230f      	movs	r3, #15
   22aae:	df03      	svc	3
   22ab0:	2802      	cmp	r0, #2
   22ab2:	d007      	beq.n	22ac4 <_ZN18complex_no_dynamic3app17hab69453d5deb5443E+0x48>
   22ab4:	481a      	ldr	r0, [pc, #104]	@ (22b20 <_ZN18complex_no_dynamic3app17hab69453d5deb5443E+0xa4>)
   22ab6:	2203      	movs	r2, #3
   22ab8:	2500      	movs	r5, #0
   22aba:	4629      	mov	r1, r5
   22abc:	462b      	mov	r3, r5
   22abe:	df02      	svc	2
   22ac0:	287f      	cmp	r0, #127	@ 0x7f
   22ac2:	d810      	bhi.n	22ae6 <_ZN18complex_no_dynamic3app17hab69453d5deb5443E+0x6a>
   22ac4:	2001      	movs	r0, #1
   22ac6:	7020      	strb	r0, [r4, #0]
   22ac8:	6061      	str	r1, [r4, #4]
   22aca:	4c15      	ldr	r4, [pc, #84]	@ (22b20 <_ZN18complex_no_dynamic3app17hab69453d5deb5443E+0xa4>)
   22acc:	2103      	movs	r1, #3
   22ace:	2500      	movs	r5, #0
   22ad0:	4620      	mov	r0, r4
   22ad2:	462a      	mov	r2, r5
   22ad4:	462b      	mov	r3, r5
   22ad6:	df03      	svc	3
   22ad8:	4620      	mov	r0, r4
   22ada:	4629      	mov	r1, r5
   22adc:	462a      	mov	r2, r5
   22ade:	462b      	mov	r3, r5
   22ae0:	df04      	svc	4
   22ae2:	b019      	add	sp, #100	@ 0x64
   22ae4:	bdf0      	pop	{r4, r5, r6, r7, pc}
   22ae6:	480e      	ldr	r0, [pc, #56]	@ (22b20 <_ZN18complex_no_dynamic3app17hab69453d5deb5443E+0xa4>)
   22ae8:	2603      	movs	r6, #3
   22aea:	4631      	mov	r1, r6
   22aec:	462a      	mov	r2, r5
   22aee:	462b      	mov	r3, r5
   22af0:	df03      	svc	3
   22af2:	480b      	ldr	r0, [pc, #44]	@ (22b20 <_ZN18complex_no_dynamic3app17hab69453d5deb5443E+0xa4>)
   22af4:	4631      	mov	r1, r6
   22af6:	462a      	mov	r2, r5
   22af8:	462b      	mov	r3, r5
   22afa:	df03      	svc	3
   22afc:	1c60      	adds	r0, r4, #1
   22afe:	a915      	add	r1, sp, #84	@ 0x54
   22b00:	220f      	movs	r2, #15
   22b02:	f004 f9dc 	bl	26ebe <__aeabi_memcpy>
   22b06:	7025      	strb	r5, [r4, #0]
   22b08:	4c05      	ldr	r4, [pc, #20]	@ (22b20 <_ZN18complex_no_dynamic3app17hab69453d5deb5443E+0xa4>)
   22b0a:	4620      	mov	r0, r4
   22b0c:	4631      	mov	r1, r6
   22b0e:	462a      	mov	r2, r5
   22b10:	462b      	mov	r3, r5
   22b12:	df03      	svc	3
   22b14:	4620      	mov	r0, r4
   22b16:	4629      	mov	r1, r5
   22b18:	462a      	mov	r2, r5
   22b1a:	462b      	mov	r3, r5
   22b1c:	df04      	svc	4
   22b1e:	e7e0      	b.n	22ae2 <_ZN18complex_no_dynamic3app17hab69453d5deb5443E+0x66>
   22b20:	000013bf 	.word	0x000013bf

00022b24 <_ZN18complex_no_dynamic3app17hab76cdfafb20166fE>:
   22b24:	b5f0      	push	{r4, r5, r6, r7, lr}
   22b26:	af03      	add	r7, sp, #12
   22b28:	b093      	sub	sp, #76	@ 0x4c
   22b2a:	4604      	mov	r4, r0
   22b2c:	ad01      	add	r5, sp, #4
   22b2e:	2636      	movs	r6, #54	@ 0x36
   22b30:	4628      	mov	r0, r5
   22b32:	4632      	mov	r2, r6
   22b34:	f004 f9c3 	bl	26ebe <__aeabi_memcpy>
   22b38:	a80f      	add	r0, sp, #60	@ 0x3c
   22b3a:	210f      	movs	r1, #15
   22b3c:	f004 f812 	bl	26b64 <__aeabi_memclr4>
   22b40:	4821      	ldr	r0, [pc, #132]	@ (22bc8 <_ZN18complex_no_dynamic3app17hab76cdfafb20166fE+0xa4>)
   22b42:	2105      	movs	r1, #5
   22b44:	462a      	mov	r2, r5
   22b46:	4633      	mov	r3, r6
   22b48:	df04      	svc	4
   22b4a:	2802      	cmp	r0, #2
   22b4c:	d00e      	beq.n	22b6c <_ZN18complex_no_dynamic3app17hab76cdfafb20166fE+0x48>
   22b4e:	481e      	ldr	r0, [pc, #120]	@ (22bc8 <_ZN18complex_no_dynamic3app17hab76cdfafb20166fE+0xa4>)
   22b50:	2103      	movs	r1, #3
   22b52:	aa0f      	add	r2, sp, #60	@ 0x3c
   22b54:	230f      	movs	r3, #15
   22b56:	df03      	svc	3
   22b58:	2802      	cmp	r0, #2
   22b5a:	d007      	beq.n	22b6c <_ZN18complex_no_dynamic3app17hab76cdfafb20166fE+0x48>
   22b5c:	481a      	ldr	r0, [pc, #104]	@ (22bc8 <_ZN18complex_no_dynamic3app17hab76cdfafb20166fE+0xa4>)
   22b5e:	2105      	movs	r1, #5
   22b60:	2203      	movs	r2, #3
   22b62:	2500      	movs	r5, #0
   22b64:	462b      	mov	r3, r5
   22b66:	df02      	svc	2
   22b68:	287f      	cmp	r0, #127	@ 0x7f
   22b6a:	d810      	bhi.n	22b8e <_ZN18complex_no_dynamic3app17hab76cdfafb20166fE+0x6a>
   22b6c:	2001      	movs	r0, #1
   22b6e:	7020      	strb	r0, [r4, #0]
   22b70:	6061      	str	r1, [r4, #4]
   22b72:	4c15      	ldr	r4, [pc, #84]	@ (22bc8 <_ZN18complex_no_dynamic3app17hab76cdfafb20166fE+0xa4>)
   22b74:	2103      	movs	r1, #3
   22b76:	2500      	movs	r5, #0
   22b78:	4620      	mov	r0, r4
   22b7a:	462a      	mov	r2, r5
   22b7c:	462b      	mov	r3, r5
   22b7e:	df03      	svc	3
   22b80:	2105      	movs	r1, #5
   22b82:	4620      	mov	r0, r4
   22b84:	462a      	mov	r2, r5
   22b86:	462b      	mov	r3, r5
   22b88:	df04      	svc	4
   22b8a:	b013      	add	sp, #76	@ 0x4c
   22b8c:	bdf0      	pop	{r4, r5, r6, r7, pc}
   22b8e:	480e      	ldr	r0, [pc, #56]	@ (22bc8 <_ZN18complex_no_dynamic3app17hab76cdfafb20166fE+0xa4>)
   22b90:	2603      	movs	r6, #3
   22b92:	4631      	mov	r1, r6
   22b94:	462a      	mov	r2, r5
   22b96:	462b      	mov	r3, r5
   22b98:	df03      	svc	3
   22b9a:	480b      	ldr	r0, [pc, #44]	@ (22bc8 <_ZN18complex_no_dynamic3app17hab76cdfafb20166fE+0xa4>)
   22b9c:	4631      	mov	r1, r6
   22b9e:	462a      	mov	r2, r5
   22ba0:	462b      	mov	r3, r5
   22ba2:	df03      	svc	3
   22ba4:	1c60      	adds	r0, r4, #1
   22ba6:	a90f      	add	r1, sp, #60	@ 0x3c
   22ba8:	220f      	movs	r2, #15
   22baa:	f004 f988 	bl	26ebe <__aeabi_memcpy>
   22bae:	7025      	strb	r5, [r4, #0]
   22bb0:	4c05      	ldr	r4, [pc, #20]	@ (22bc8 <_ZN18complex_no_dynamic3app17hab76cdfafb20166fE+0xa4>)
   22bb2:	4620      	mov	r0, r4
   22bb4:	4631      	mov	r1, r6
   22bb6:	462a      	mov	r2, r5
   22bb8:	462b      	mov	r3, r5
   22bba:	df03      	svc	3
   22bbc:	2105      	movs	r1, #5
   22bbe:	4620      	mov	r0, r4
   22bc0:	462a      	mov	r2, r5
   22bc2:	462b      	mov	r3, r5
   22bc4:	df04      	svc	4
   22bc6:	e7e0      	b.n	22b8a <_ZN18complex_no_dynamic3app17hab76cdfafb20166fE+0x66>
   22bc8:	00000653 	.word	0x00000653

00022bcc <_ZN18complex_no_dynamic3app17hafbc7cde43414704E>:
   22bcc:	b5f0      	push	{r4, r5, r6, r7, lr}
   22bce:	af03      	add	r7, sp, #12
   22bd0:	b0af      	sub	sp, #188	@ 0xbc
   22bd2:	4604      	mov	r4, r0
   22bd4:	ad01      	add	r5, sp, #4
   22bd6:	265e      	movs	r6, #94	@ 0x5e
   22bd8:	4628      	mov	r0, r5
   22bda:	4632      	mov	r2, r6
   22bdc:	f004 f96f 	bl	26ebe <__aeabi_memcpy>
   22be0:	a819      	add	r0, sp, #100	@ 0x64
   22be2:	2155      	movs	r1, #85	@ 0x55
   22be4:	f003 ffbe 	bl	26b64 <__aeabi_memclr4>
   22be8:	4821      	ldr	r0, [pc, #132]	@ (22c70 <_ZN18complex_no_dynamic3app17hafbc7cde43414704E+0xa4>)
   22bea:	2107      	movs	r1, #7
   22bec:	462a      	mov	r2, r5
   22bee:	4633      	mov	r3, r6
   22bf0:	df04      	svc	4
   22bf2:	2802      	cmp	r0, #2
   22bf4:	d00e      	beq.n	22c14 <_ZN18complex_no_dynamic3app17hafbc7cde43414704E+0x48>
   22bf6:	481e      	ldr	r0, [pc, #120]	@ (22c70 <_ZN18complex_no_dynamic3app17hafbc7cde43414704E+0xa4>)
   22bf8:	2103      	movs	r1, #3
   22bfa:	aa19      	add	r2, sp, #100	@ 0x64
   22bfc:	2355      	movs	r3, #85	@ 0x55
   22bfe:	df03      	svc	3
   22c00:	2802      	cmp	r0, #2
   22c02:	d007      	beq.n	22c14 <_ZN18complex_no_dynamic3app17hafbc7cde43414704E+0x48>
   22c04:	481a      	ldr	r0, [pc, #104]	@ (22c70 <_ZN18complex_no_dynamic3app17hafbc7cde43414704E+0xa4>)
   22c06:	2107      	movs	r1, #7
   22c08:	2203      	movs	r2, #3
   22c0a:	2500      	movs	r5, #0
   22c0c:	462b      	mov	r3, r5
   22c0e:	df02      	svc	2
   22c10:	287f      	cmp	r0, #127	@ 0x7f
   22c12:	d810      	bhi.n	22c36 <_ZN18complex_no_dynamic3app17hafbc7cde43414704E+0x6a>
   22c14:	2001      	movs	r0, #1
   22c16:	7020      	strb	r0, [r4, #0]
   22c18:	6061      	str	r1, [r4, #4]
   22c1a:	4c15      	ldr	r4, [pc, #84]	@ (22c70 <_ZN18complex_no_dynamic3app17hafbc7cde43414704E+0xa4>)
   22c1c:	2103      	movs	r1, #3
   22c1e:	2500      	movs	r5, #0
   22c20:	4620      	mov	r0, r4
   22c22:	462a      	mov	r2, r5
   22c24:	462b      	mov	r3, r5
   22c26:	df03      	svc	3
   22c28:	2107      	movs	r1, #7
   22c2a:	4620      	mov	r0, r4
   22c2c:	462a      	mov	r2, r5
   22c2e:	462b      	mov	r3, r5
   22c30:	df04      	svc	4
   22c32:	b02f      	add	sp, #188	@ 0xbc
   22c34:	bdf0      	pop	{r4, r5, r6, r7, pc}
   22c36:	480e      	ldr	r0, [pc, #56]	@ (22c70 <_ZN18complex_no_dynamic3app17hafbc7cde43414704E+0xa4>)
   22c38:	2603      	movs	r6, #3
   22c3a:	4631      	mov	r1, r6
   22c3c:	462a      	mov	r2, r5
   22c3e:	462b      	mov	r3, r5
   22c40:	df03      	svc	3
   22c42:	480b      	ldr	r0, [pc, #44]	@ (22c70 <_ZN18complex_no_dynamic3app17hafbc7cde43414704E+0xa4>)
   22c44:	4631      	mov	r1, r6
   22c46:	462a      	mov	r2, r5
   22c48:	462b      	mov	r3, r5
   22c4a:	df03      	svc	3
   22c4c:	1c60      	adds	r0, r4, #1
   22c4e:	a919      	add	r1, sp, #100	@ 0x64
   22c50:	2255      	movs	r2, #85	@ 0x55
   22c52:	f004 f934 	bl	26ebe <__aeabi_memcpy>
   22c56:	7025      	strb	r5, [r4, #0]
   22c58:	4c05      	ldr	r4, [pc, #20]	@ (22c70 <_ZN18complex_no_dynamic3app17hafbc7cde43414704E+0xa4>)
   22c5a:	4620      	mov	r0, r4
   22c5c:	4631      	mov	r1, r6
   22c5e:	462a      	mov	r2, r5
   22c60:	462b      	mov	r3, r5
   22c62:	df03      	svc	3
   22c64:	2107      	movs	r1, #7
   22c66:	4620      	mov	r0, r4
   22c68:	462a      	mov	r2, r5
   22c6a:	462b      	mov	r3, r5
   22c6c:	df04      	svc	4
   22c6e:	e7e0      	b.n	22c32 <_ZN18complex_no_dynamic3app17hafbc7cde43414704E+0x66>
   22c70:	0000178a 	.word	0x0000178a

00022c74 <_ZN18complex_no_dynamic3app17hb2c783f7a3627157E>:
   22c74:	b5f0      	push	{r4, r5, r6, r7, lr}
   22c76:	af03      	add	r7, sp, #12
   22c78:	b09b      	sub	sp, #108	@ 0x6c
   22c7a:	9002      	str	r0, [sp, #8]
   22c7c:	ae03      	add	r6, sp, #12
   22c7e:	241b      	movs	r4, #27
   22c80:	4630      	mov	r0, r6
   22c82:	4622      	mov	r2, r4
   22c84:	f004 f91b 	bl	26ebe <__aeabi_memcpy>
   22c88:	a80a      	add	r0, sp, #40	@ 0x28
   22c8a:	2141      	movs	r1, #65	@ 0x41
   22c8c:	f003 ff6a 	bl	26b64 <__aeabi_memclr4>
   22c90:	2005      	movs	r0, #5
   22c92:	0185      	lsls	r5, r0, #6
   22c94:	2108      	movs	r1, #8
   22c96:	4628      	mov	r0, r5
   22c98:	4632      	mov	r2, r6
   22c9a:	4623      	mov	r3, r4
   22c9c:	df04      	svc	4
   22c9e:	2802      	cmp	r0, #2
   22ca0:	d00e      	beq.n	22cc0 <_ZN18complex_no_dynamic3app17hb2c783f7a3627157E+0x4c>
   22ca2:	2109      	movs	r1, #9
   22ca4:	aa0a      	add	r2, sp, #40	@ 0x28
   22ca6:	2341      	movs	r3, #65	@ 0x41
   22ca8:	4628      	mov	r0, r5
   22caa:	df03      	svc	3
   22cac:	2802      	cmp	r0, #2
   22cae:	d007      	beq.n	22cc0 <_ZN18complex_no_dynamic3app17hb2c783f7a3627157E+0x4c>
   22cb0:	2108      	movs	r1, #8
   22cb2:	2209      	movs	r2, #9
   22cb4:	2600      	movs	r6, #0
   22cb6:	4628      	mov	r0, r5
   22cb8:	4633      	mov	r3, r6
   22cba:	df02      	svc	2
   22cbc:	287f      	cmp	r0, #127	@ 0x7f
   22cbe:	d810      	bhi.n	22ce2 <_ZN18complex_no_dynamic3app17hb2c783f7a3627157E+0x6e>
   22cc0:	2001      	movs	r0, #1
   22cc2:	9a02      	ldr	r2, [sp, #8]
   22cc4:	7010      	strb	r0, [r2, #0]
   22cc6:	6051      	str	r1, [r2, #4]
   22cc8:	2109      	movs	r1, #9
   22cca:	2400      	movs	r4, #0
   22ccc:	4628      	mov	r0, r5
   22cce:	4622      	mov	r2, r4
   22cd0:	4623      	mov	r3, r4
   22cd2:	df03      	svc	3
   22cd4:	2108      	movs	r1, #8
   22cd6:	4628      	mov	r0, r5
   22cd8:	4622      	mov	r2, r4
   22cda:	4623      	mov	r3, r4
   22cdc:	df04      	svc	4
   22cde:	b01b      	add	sp, #108	@ 0x6c
   22ce0:	bdf0      	pop	{r4, r5, r6, r7, pc}
   22ce2:	2409      	movs	r4, #9
   22ce4:	9401      	str	r4, [sp, #4]
   22ce6:	4628      	mov	r0, r5
   22ce8:	4621      	mov	r1, r4
   22cea:	4632      	mov	r2, r6
   22cec:	4633      	mov	r3, r6
   22cee:	df03      	svc	3
   22cf0:	4628      	mov	r0, r5
   22cf2:	4621      	mov	r1, r4
   22cf4:	4632      	mov	r2, r6
   22cf6:	4633      	mov	r3, r6
   22cf8:	df03      	svc	3
   22cfa:	9c02      	ldr	r4, [sp, #8]
   22cfc:	1c60      	adds	r0, r4, #1
   22cfe:	a90a      	add	r1, sp, #40	@ 0x28
   22d00:	2241      	movs	r2, #65	@ 0x41
   22d02:	f004 f8dc 	bl	26ebe <__aeabi_memcpy>
   22d06:	7026      	strb	r6, [r4, #0]
   22d08:	4628      	mov	r0, r5
   22d0a:	9901      	ldr	r1, [sp, #4]
   22d0c:	4632      	mov	r2, r6
   22d0e:	4633      	mov	r3, r6
   22d10:	df03      	svc	3
   22d12:	2108      	movs	r1, #8
   22d14:	4628      	mov	r0, r5
   22d16:	4632      	mov	r2, r6
   22d18:	4633      	mov	r3, r6
   22d1a:	df04      	svc	4
   22d1c:	e7df      	b.n	22cde <_ZN18complex_no_dynamic3app17hb2c783f7a3627157E+0x6a>
   22d1e:	d4d4      	bmi.n	22cca <_ZN18complex_no_dynamic3app17hb2c783f7a3627157E+0x56>

00022d20 <_ZN18complex_no_dynamic3app17hb59289494773e1a4E>:
   22d20:	b5f0      	push	{r4, r5, r6, r7, lr}
   22d22:	af03      	add	r7, sp, #12
   22d24:	b08f      	sub	sp, #60	@ 0x3c
   22d26:	4604      	mov	r4, r0
   22d28:	ad01      	add	r5, sp, #4
   22d2a:	2618      	movs	r6, #24
   22d2c:	4628      	mov	r0, r5
   22d2e:	4632      	mov	r2, r6
   22d30:	f004 f8c5 	bl	26ebe <__aeabi_memcpy>
   22d34:	a807      	add	r0, sp, #28
   22d36:	211e      	movs	r1, #30
   22d38:	f003 ff14 	bl	26b64 <__aeabi_memclr4>
   22d3c:	4821      	ldr	r0, [pc, #132]	@ (22dc4 <_ZN18complex_no_dynamic3app17hb59289494773e1a4E+0xa4>)
   22d3e:	2109      	movs	r1, #9
   22d40:	462a      	mov	r2, r5
   22d42:	4633      	mov	r3, r6
   22d44:	df04      	svc	4
   22d46:	2802      	cmp	r0, #2
   22d48:	d00e      	beq.n	22d68 <_ZN18complex_no_dynamic3app17hb59289494773e1a4E+0x48>
   22d4a:	481e      	ldr	r0, [pc, #120]	@ (22dc4 <_ZN18complex_no_dynamic3app17hb59289494773e1a4E+0xa4>)
   22d4c:	2105      	movs	r1, #5
   22d4e:	aa07      	add	r2, sp, #28
   22d50:	231e      	movs	r3, #30
   22d52:	df03      	svc	3
   22d54:	2802      	cmp	r0, #2
   22d56:	d007      	beq.n	22d68 <_ZN18complex_no_dynamic3app17hb59289494773e1a4E+0x48>
   22d58:	481a      	ldr	r0, [pc, #104]	@ (22dc4 <_ZN18complex_no_dynamic3app17hb59289494773e1a4E+0xa4>)
   22d5a:	2109      	movs	r1, #9
   22d5c:	2205      	movs	r2, #5
   22d5e:	2500      	movs	r5, #0
   22d60:	462b      	mov	r3, r5
   22d62:	df02      	svc	2
   22d64:	287f      	cmp	r0, #127	@ 0x7f
   22d66:	d810      	bhi.n	22d8a <_ZN18complex_no_dynamic3app17hb59289494773e1a4E+0x6a>
   22d68:	2001      	movs	r0, #1
   22d6a:	7020      	strb	r0, [r4, #0]
   22d6c:	6061      	str	r1, [r4, #4]
   22d6e:	4c15      	ldr	r4, [pc, #84]	@ (22dc4 <_ZN18complex_no_dynamic3app17hb59289494773e1a4E+0xa4>)
   22d70:	2105      	movs	r1, #5
   22d72:	2500      	movs	r5, #0
   22d74:	4620      	mov	r0, r4
   22d76:	462a      	mov	r2, r5
   22d78:	462b      	mov	r3, r5
   22d7a:	df03      	svc	3
   22d7c:	2109      	movs	r1, #9
   22d7e:	4620      	mov	r0, r4
   22d80:	462a      	mov	r2, r5
   22d82:	462b      	mov	r3, r5
   22d84:	df04      	svc	4
   22d86:	b00f      	add	sp, #60	@ 0x3c
   22d88:	bdf0      	pop	{r4, r5, r6, r7, pc}
   22d8a:	480e      	ldr	r0, [pc, #56]	@ (22dc4 <_ZN18complex_no_dynamic3app17hb59289494773e1a4E+0xa4>)
   22d8c:	2605      	movs	r6, #5
   22d8e:	4631      	mov	r1, r6
   22d90:	462a      	mov	r2, r5
   22d92:	462b      	mov	r3, r5
   22d94:	df03      	svc	3
   22d96:	480b      	ldr	r0, [pc, #44]	@ (22dc4 <_ZN18complex_no_dynamic3app17hb59289494773e1a4E+0xa4>)
   22d98:	4631      	mov	r1, r6
   22d9a:	462a      	mov	r2, r5
   22d9c:	462b      	mov	r3, r5
   22d9e:	df03      	svc	3
   22da0:	1c60      	adds	r0, r4, #1
   22da2:	a907      	add	r1, sp, #28
   22da4:	221e      	movs	r2, #30
   22da6:	f004 f88a 	bl	26ebe <__aeabi_memcpy>
   22daa:	7025      	strb	r5, [r4, #0]
   22dac:	4c05      	ldr	r4, [pc, #20]	@ (22dc4 <_ZN18complex_no_dynamic3app17hb59289494773e1a4E+0xa4>)
   22dae:	4620      	mov	r0, r4
   22db0:	4631      	mov	r1, r6
   22db2:	462a      	mov	r2, r5
   22db4:	462b      	mov	r3, r5
   22db6:	df03      	svc	3
   22db8:	2109      	movs	r1, #9
   22dba:	4620      	mov	r0, r4
   22dbc:	462a      	mov	r2, r5
   22dbe:	462b      	mov	r3, r5
   22dc0:	df04      	svc	4
   22dc2:	e7e0      	b.n	22d86 <_ZN18complex_no_dynamic3app17hb59289494773e1a4E+0x66>
   22dc4:	00000cbb 	.word	0x00000cbb

00022dc8 <_ZN18complex_no_dynamic3app17hb87a0b023c4ae745E>:
   22dc8:	b5f0      	push	{r4, r5, r6, r7, lr}
   22dca:	af03      	add	r7, sp, #12
   22dcc:	b09b      	sub	sp, #108	@ 0x6c
   22dce:	4604      	mov	r4, r0
   22dd0:	466d      	mov	r5, sp
   22dd2:	2613      	movs	r6, #19
   22dd4:	4628      	mov	r0, r5
   22dd6:	4632      	mov	r2, r6
   22dd8:	f004 f871 	bl	26ebe <__aeabi_memcpy>
   22ddc:	a805      	add	r0, sp, #20
   22dde:	2155      	movs	r1, #85	@ 0x55
   22de0:	f003 fec0 	bl	26b64 <__aeabi_memclr4>
   22de4:	4821      	ldr	r0, [pc, #132]	@ (22e6c <_ZN18complex_no_dynamic3app17hb87a0b023c4ae745E+0xa4>)
   22de6:	2109      	movs	r1, #9
   22de8:	462a      	mov	r2, r5
   22dea:	4633      	mov	r3, r6
   22dec:	df04      	svc	4
   22dee:	2802      	cmp	r0, #2
   22df0:	d00e      	beq.n	22e10 <_ZN18complex_no_dynamic3app17hb87a0b023c4ae745E+0x48>
   22df2:	481e      	ldr	r0, [pc, #120]	@ (22e6c <_ZN18complex_no_dynamic3app17hb87a0b023c4ae745E+0xa4>)
   22df4:	2107      	movs	r1, #7
   22df6:	aa05      	add	r2, sp, #20
   22df8:	2355      	movs	r3, #85	@ 0x55
   22dfa:	df03      	svc	3
   22dfc:	2802      	cmp	r0, #2
   22dfe:	d007      	beq.n	22e10 <_ZN18complex_no_dynamic3app17hb87a0b023c4ae745E+0x48>
   22e00:	481a      	ldr	r0, [pc, #104]	@ (22e6c <_ZN18complex_no_dynamic3app17hb87a0b023c4ae745E+0xa4>)
   22e02:	2109      	movs	r1, #9
   22e04:	2207      	movs	r2, #7
   22e06:	2500      	movs	r5, #0
   22e08:	462b      	mov	r3, r5
   22e0a:	df02      	svc	2
   22e0c:	287f      	cmp	r0, #127	@ 0x7f
   22e0e:	d810      	bhi.n	22e32 <_ZN18complex_no_dynamic3app17hb87a0b023c4ae745E+0x6a>
   22e10:	2001      	movs	r0, #1
   22e12:	7020      	strb	r0, [r4, #0]
   22e14:	6061      	str	r1, [r4, #4]
   22e16:	4c15      	ldr	r4, [pc, #84]	@ (22e6c <_ZN18complex_no_dynamic3app17hb87a0b023c4ae745E+0xa4>)
   22e18:	2107      	movs	r1, #7
   22e1a:	2500      	movs	r5, #0
   22e1c:	4620      	mov	r0, r4
   22e1e:	462a      	mov	r2, r5
   22e20:	462b      	mov	r3, r5
   22e22:	df03      	svc	3
   22e24:	2109      	movs	r1, #9
   22e26:	4620      	mov	r0, r4
   22e28:	462a      	mov	r2, r5
   22e2a:	462b      	mov	r3, r5
   22e2c:	df04      	svc	4
   22e2e:	b01b      	add	sp, #108	@ 0x6c
   22e30:	bdf0      	pop	{r4, r5, r6, r7, pc}
   22e32:	480e      	ldr	r0, [pc, #56]	@ (22e6c <_ZN18complex_no_dynamic3app17hb87a0b023c4ae745E+0xa4>)
   22e34:	2607      	movs	r6, #7
   22e36:	4631      	mov	r1, r6
   22e38:	462a      	mov	r2, r5
   22e3a:	462b      	mov	r3, r5
   22e3c:	df03      	svc	3
   22e3e:	480b      	ldr	r0, [pc, #44]	@ (22e6c <_ZN18complex_no_dynamic3app17hb87a0b023c4ae745E+0xa4>)
   22e40:	4631      	mov	r1, r6
   22e42:	462a      	mov	r2, r5
   22e44:	462b      	mov	r3, r5
   22e46:	df03      	svc	3
   22e48:	1c60      	adds	r0, r4, #1
   22e4a:	a905      	add	r1, sp, #20
   22e4c:	2255      	movs	r2, #85	@ 0x55
   22e4e:	f004 f836 	bl	26ebe <__aeabi_memcpy>
   22e52:	7025      	strb	r5, [r4, #0]
   22e54:	4c05      	ldr	r4, [pc, #20]	@ (22e6c <_ZN18complex_no_dynamic3app17hb87a0b023c4ae745E+0xa4>)
   22e56:	4620      	mov	r0, r4
   22e58:	4631      	mov	r1, r6
   22e5a:	462a      	mov	r2, r5
   22e5c:	462b      	mov	r3, r5
   22e5e:	df03      	svc	3
   22e60:	2109      	movs	r1, #9
   22e62:	4620      	mov	r0, r4
   22e64:	462a      	mov	r2, r5
   22e66:	462b      	mov	r3, r5
   22e68:	df04      	svc	4
   22e6a:	e7e0      	b.n	22e2e <_ZN18complex_no_dynamic3app17hb87a0b023c4ae745E+0x66>
   22e6c:	0000032e 	.word	0x0000032e

00022e70 <_ZN18complex_no_dynamic3app17hb893b499cfe5b2d2E>:
   22e70:	b5f0      	push	{r4, r5, r6, r7, lr}
   22e72:	af03      	add	r7, sp, #12
   22e74:	b0a5      	sub	sp, #148	@ 0x94
   22e76:	4604      	mov	r4, r0
   22e78:	ad01      	add	r5, sp, #4
   22e7a:	2653      	movs	r6, #83	@ 0x53
   22e7c:	4628      	mov	r0, r5
   22e7e:	4632      	mov	r2, r6
   22e80:	f004 f81d 	bl	26ebe <__aeabi_memcpy>
   22e84:	a816      	add	r0, sp, #88	@ 0x58
   22e86:	213a      	movs	r1, #58	@ 0x3a
   22e88:	f003 fe6c 	bl	26b64 <__aeabi_memclr4>
   22e8c:	4821      	ldr	r0, [pc, #132]	@ (22f14 <_ZN18complex_no_dynamic3app17hb893b499cfe5b2d2E+0xa4>)
   22e8e:	2106      	movs	r1, #6
   22e90:	462a      	mov	r2, r5
   22e92:	4633      	mov	r3, r6
   22e94:	df04      	svc	4
   22e96:	2802      	cmp	r0, #2
   22e98:	d00e      	beq.n	22eb8 <_ZN18complex_no_dynamic3app17hb893b499cfe5b2d2E+0x48>
   22e9a:	481e      	ldr	r0, [pc, #120]	@ (22f14 <_ZN18complex_no_dynamic3app17hb893b499cfe5b2d2E+0xa4>)
   22e9c:	2107      	movs	r1, #7
   22e9e:	aa16      	add	r2, sp, #88	@ 0x58
   22ea0:	233a      	movs	r3, #58	@ 0x3a
   22ea2:	df03      	svc	3
   22ea4:	2802      	cmp	r0, #2
   22ea6:	d007      	beq.n	22eb8 <_ZN18complex_no_dynamic3app17hb893b499cfe5b2d2E+0x48>
   22ea8:	481a      	ldr	r0, [pc, #104]	@ (22f14 <_ZN18complex_no_dynamic3app17hb893b499cfe5b2d2E+0xa4>)
   22eaa:	2106      	movs	r1, #6
   22eac:	2207      	movs	r2, #7
   22eae:	2500      	movs	r5, #0
   22eb0:	462b      	mov	r3, r5
   22eb2:	df02      	svc	2
   22eb4:	287f      	cmp	r0, #127	@ 0x7f
   22eb6:	d810      	bhi.n	22eda <_ZN18complex_no_dynamic3app17hb893b499cfe5b2d2E+0x6a>
   22eb8:	2001      	movs	r0, #1
   22eba:	7020      	strb	r0, [r4, #0]
   22ebc:	6061      	str	r1, [r4, #4]
   22ebe:	4c15      	ldr	r4, [pc, #84]	@ (22f14 <_ZN18complex_no_dynamic3app17hb893b499cfe5b2d2E+0xa4>)
   22ec0:	2107      	movs	r1, #7
   22ec2:	2500      	movs	r5, #0
   22ec4:	4620      	mov	r0, r4
   22ec6:	462a      	mov	r2, r5
   22ec8:	462b      	mov	r3, r5
   22eca:	df03      	svc	3
   22ecc:	2106      	movs	r1, #6
   22ece:	4620      	mov	r0, r4
   22ed0:	462a      	mov	r2, r5
   22ed2:	462b      	mov	r3, r5
   22ed4:	df04      	svc	4
   22ed6:	b025      	add	sp, #148	@ 0x94
   22ed8:	bdf0      	pop	{r4, r5, r6, r7, pc}
   22eda:	480e      	ldr	r0, [pc, #56]	@ (22f14 <_ZN18complex_no_dynamic3app17hb893b499cfe5b2d2E+0xa4>)
   22edc:	2607      	movs	r6, #7
   22ede:	4631      	mov	r1, r6
   22ee0:	462a      	mov	r2, r5
   22ee2:	462b      	mov	r3, r5
   22ee4:	df03      	svc	3
   22ee6:	480b      	ldr	r0, [pc, #44]	@ (22f14 <_ZN18complex_no_dynamic3app17hb893b499cfe5b2d2E+0xa4>)
   22ee8:	4631      	mov	r1, r6
   22eea:	462a      	mov	r2, r5
   22eec:	462b      	mov	r3, r5
   22eee:	df03      	svc	3
   22ef0:	1c60      	adds	r0, r4, #1
   22ef2:	a916      	add	r1, sp, #88	@ 0x58
   22ef4:	223a      	movs	r2, #58	@ 0x3a
   22ef6:	f003 ffe2 	bl	26ebe <__aeabi_memcpy>
   22efa:	7025      	strb	r5, [r4, #0]
   22efc:	4c05      	ldr	r4, [pc, #20]	@ (22f14 <_ZN18complex_no_dynamic3app17hb893b499cfe5b2d2E+0xa4>)
   22efe:	4620      	mov	r0, r4
   22f00:	4631      	mov	r1, r6
   22f02:	462a      	mov	r2, r5
   22f04:	462b      	mov	r3, r5
   22f06:	df03      	svc	3
   22f08:	2106      	movs	r1, #6
   22f0a:	4620      	mov	r0, r4
   22f0c:	462a      	mov	r2, r5
   22f0e:	462b      	mov	r3, r5
   22f10:	df04      	svc	4
   22f12:	e7e0      	b.n	22ed6 <_ZN18complex_no_dynamic3app17hb893b499cfe5b2d2E+0x66>
   22f14:	00002645 	.word	0x00002645

00022f18 <_ZN18complex_no_dynamic3app17hb95bf521fab9b45cE>:
   22f18:	b5f0      	push	{r4, r5, r6, r7, lr}
   22f1a:	af03      	add	r7, sp, #12
   22f1c:	b0a3      	sub	sp, #140	@ 0x8c
   22f1e:	4604      	mov	r4, r0
   22f20:	466d      	mov	r5, sp
   22f22:	264f      	movs	r6, #79	@ 0x4f
   22f24:	4628      	mov	r0, r5
   22f26:	4632      	mov	r2, r6
   22f28:	f003 ffc9 	bl	26ebe <__aeabi_memcpy>
   22f2c:	a814      	add	r0, sp, #80	@ 0x50
   22f2e:	213b      	movs	r1, #59	@ 0x3b
   22f30:	f003 fe18 	bl	26b64 <__aeabi_memclr4>
   22f34:	4821      	ldr	r0, [pc, #132]	@ (22fbc <_ZN18complex_no_dynamic3app17hb95bf521fab9b45cE+0xa4>)
   22f36:	2108      	movs	r1, #8
   22f38:	462a      	mov	r2, r5
   22f3a:	4633      	mov	r3, r6
   22f3c:	df04      	svc	4
   22f3e:	2802      	cmp	r0, #2
   22f40:	d00e      	beq.n	22f60 <_ZN18complex_no_dynamic3app17hb95bf521fab9b45cE+0x48>
   22f42:	481e      	ldr	r0, [pc, #120]	@ (22fbc <_ZN18complex_no_dynamic3app17hb95bf521fab9b45cE+0xa4>)
   22f44:	2105      	movs	r1, #5
   22f46:	aa14      	add	r2, sp, #80	@ 0x50
   22f48:	233b      	movs	r3, #59	@ 0x3b
   22f4a:	df03      	svc	3
   22f4c:	2802      	cmp	r0, #2
   22f4e:	d007      	beq.n	22f60 <_ZN18complex_no_dynamic3app17hb95bf521fab9b45cE+0x48>
   22f50:	481a      	ldr	r0, [pc, #104]	@ (22fbc <_ZN18complex_no_dynamic3app17hb95bf521fab9b45cE+0xa4>)
   22f52:	2108      	movs	r1, #8
   22f54:	2205      	movs	r2, #5
   22f56:	2500      	movs	r5, #0
   22f58:	462b      	mov	r3, r5
   22f5a:	df02      	svc	2
   22f5c:	287f      	cmp	r0, #127	@ 0x7f
   22f5e:	d810      	bhi.n	22f82 <_ZN18complex_no_dynamic3app17hb95bf521fab9b45cE+0x6a>
   22f60:	2001      	movs	r0, #1
   22f62:	7020      	strb	r0, [r4, #0]
   22f64:	6061      	str	r1, [r4, #4]
   22f66:	4c15      	ldr	r4, [pc, #84]	@ (22fbc <_ZN18complex_no_dynamic3app17hb95bf521fab9b45cE+0xa4>)
   22f68:	2105      	movs	r1, #5
   22f6a:	2500      	movs	r5, #0
   22f6c:	4620      	mov	r0, r4
   22f6e:	462a      	mov	r2, r5
   22f70:	462b      	mov	r3, r5
   22f72:	df03      	svc	3
   22f74:	2108      	movs	r1, #8
   22f76:	4620      	mov	r0, r4
   22f78:	462a      	mov	r2, r5
   22f7a:	462b      	mov	r3, r5
   22f7c:	df04      	svc	4
   22f7e:	b023      	add	sp, #140	@ 0x8c
   22f80:	bdf0      	pop	{r4, r5, r6, r7, pc}
   22f82:	480e      	ldr	r0, [pc, #56]	@ (22fbc <_ZN18complex_no_dynamic3app17hb95bf521fab9b45cE+0xa4>)
   22f84:	2605      	movs	r6, #5
   22f86:	4631      	mov	r1, r6
   22f88:	462a      	mov	r2, r5
   22f8a:	462b      	mov	r3, r5
   22f8c:	df03      	svc	3
   22f8e:	480b      	ldr	r0, [pc, #44]	@ (22fbc <_ZN18complex_no_dynamic3app17hb95bf521fab9b45cE+0xa4>)
   22f90:	4631      	mov	r1, r6
   22f92:	462a      	mov	r2, r5
   22f94:	462b      	mov	r3, r5
   22f96:	df03      	svc	3
   22f98:	1c60      	adds	r0, r4, #1
   22f9a:	a914      	add	r1, sp, #80	@ 0x50
   22f9c:	223b      	movs	r2, #59	@ 0x3b
   22f9e:	f003 ff8e 	bl	26ebe <__aeabi_memcpy>
   22fa2:	7025      	strb	r5, [r4, #0]
   22fa4:	4c05      	ldr	r4, [pc, #20]	@ (22fbc <_ZN18complex_no_dynamic3app17hb95bf521fab9b45cE+0xa4>)
   22fa6:	4620      	mov	r0, r4
   22fa8:	4631      	mov	r1, r6
   22faa:	462a      	mov	r2, r5
   22fac:	462b      	mov	r3, r5
   22fae:	df03      	svc	3
   22fb0:	2108      	movs	r1, #8
   22fb2:	4620      	mov	r0, r4
   22fb4:	462a      	mov	r2, r5
   22fb6:	462b      	mov	r3, r5
   22fb8:	df04      	svc	4
   22fba:	e7e0      	b.n	22f7e <_ZN18complex_no_dynamic3app17hb95bf521fab9b45cE+0x66>
   22fbc:	00000a06 	.word	0x00000a06

00022fc0 <_ZN18complex_no_dynamic3app17hc2307b06b5a36202E>:
   22fc0:	b5f0      	push	{r4, r5, r6, r7, lr}
   22fc2:	af03      	add	r7, sp, #12
   22fc4:	b0a3      	sub	sp, #140	@ 0x8c
   22fc6:	4604      	mov	r4, r0
   22fc8:	466d      	mov	r5, sp
   22fca:	2663      	movs	r6, #99	@ 0x63
   22fcc:	4628      	mov	r0, r5
   22fce:	4632      	mov	r2, r6
   22fd0:	f003 ff75 	bl	26ebe <__aeabi_memcpy>
   22fd4:	a819      	add	r0, sp, #100	@ 0x64
   22fd6:	2127      	movs	r1, #39	@ 0x27
   22fd8:	f003 fdc4 	bl	26b64 <__aeabi_memclr4>
   22fdc:	4821      	ldr	r0, [pc, #132]	@ (23064 <_ZN18complex_no_dynamic3app17hc2307b06b5a36202E+0xa4>)
   22fde:	2107      	movs	r1, #7
   22fe0:	462a      	mov	r2, r5
   22fe2:	4633      	mov	r3, r6
   22fe4:	df04      	svc	4
   22fe6:	2802      	cmp	r0, #2
   22fe8:	d00e      	beq.n	23008 <_ZN18complex_no_dynamic3app17hc2307b06b5a36202E+0x48>
   22fea:	481e      	ldr	r0, [pc, #120]	@ (23064 <_ZN18complex_no_dynamic3app17hc2307b06b5a36202E+0xa4>)
   22fec:	2100      	movs	r1, #0
   22fee:	aa19      	add	r2, sp, #100	@ 0x64
   22ff0:	2327      	movs	r3, #39	@ 0x27
   22ff2:	df03      	svc	3
   22ff4:	2802      	cmp	r0, #2
   22ff6:	d007      	beq.n	23008 <_ZN18complex_no_dynamic3app17hc2307b06b5a36202E+0x48>
   22ff8:	481a      	ldr	r0, [pc, #104]	@ (23064 <_ZN18complex_no_dynamic3app17hc2307b06b5a36202E+0xa4>)
   22ffa:	2107      	movs	r1, #7
   22ffc:	2500      	movs	r5, #0
   22ffe:	462a      	mov	r2, r5
   23000:	462b      	mov	r3, r5
   23002:	df02      	svc	2
   23004:	287f      	cmp	r0, #127	@ 0x7f
   23006:	d810      	bhi.n	2302a <_ZN18complex_no_dynamic3app17hc2307b06b5a36202E+0x6a>
   23008:	2001      	movs	r0, #1
   2300a:	7020      	strb	r0, [r4, #0]
   2300c:	6061      	str	r1, [r4, #4]
   2300e:	4c15      	ldr	r4, [pc, #84]	@ (23064 <_ZN18complex_no_dynamic3app17hc2307b06b5a36202E+0xa4>)
   23010:	2500      	movs	r5, #0
   23012:	4620      	mov	r0, r4
   23014:	4629      	mov	r1, r5
   23016:	462a      	mov	r2, r5
   23018:	462b      	mov	r3, r5
   2301a:	df03      	svc	3
   2301c:	2107      	movs	r1, #7
   2301e:	4620      	mov	r0, r4
   23020:	462a      	mov	r2, r5
   23022:	462b      	mov	r3, r5
   23024:	df04      	svc	4
   23026:	b023      	add	sp, #140	@ 0x8c
   23028:	bdf0      	pop	{r4, r5, r6, r7, pc}
   2302a:	4e0e      	ldr	r6, [pc, #56]	@ (23064 <_ZN18complex_no_dynamic3app17hc2307b06b5a36202E+0xa4>)
   2302c:	4630      	mov	r0, r6
   2302e:	4629      	mov	r1, r5
   23030:	462a      	mov	r2, r5
   23032:	462b      	mov	r3, r5
   23034:	df03      	svc	3
   23036:	4630      	mov	r0, r6
   23038:	4629      	mov	r1, r5
   2303a:	462a      	mov	r2, r5
   2303c:	462b      	mov	r3, r5
   2303e:	df03      	svc	3
   23040:	1c60      	adds	r0, r4, #1
   23042:	a919      	add	r1, sp, #100	@ 0x64
   23044:	2227      	movs	r2, #39	@ 0x27
   23046:	f003 ff3a 	bl	26ebe <__aeabi_memcpy>
   2304a:	7025      	strb	r5, [r4, #0]
   2304c:	4630      	mov	r0, r6
   2304e:	4629      	mov	r1, r5
   23050:	462a      	mov	r2, r5
   23052:	462b      	mov	r3, r5
   23054:	df03      	svc	3
   23056:	2107      	movs	r1, #7
   23058:	4630      	mov	r0, r6
   2305a:	462a      	mov	r2, r5
   2305c:	462b      	mov	r3, r5
   2305e:	df04      	svc	4
   23060:	e7e1      	b.n	23026 <_ZN18complex_no_dynamic3app17hc2307b06b5a36202E+0x66>
   23062:	46c0      	nop			@ (mov r8, r8)
   23064:	00001e54 	.word	0x00001e54

00023068 <_ZN18complex_no_dynamic3app17hc2fd7651b5849b68E>:
   23068:	b5f0      	push	{r4, r5, r6, r7, lr}
   2306a:	af03      	add	r7, sp, #12
   2306c:	b09f      	sub	sp, #124	@ 0x7c
   2306e:	4604      	mov	r4, r0
   23070:	ad01      	add	r5, sp, #4
   23072:	2632      	movs	r6, #50	@ 0x32
   23074:	4628      	mov	r0, r5
   23076:	4632      	mov	r2, r6
   23078:	f003 ff21 	bl	26ebe <__aeabi_memcpy>
   2307c:	a80e      	add	r0, sp, #56	@ 0x38
   2307e:	2141      	movs	r1, #65	@ 0x41
   23080:	f003 fd70 	bl	26b64 <__aeabi_memclr4>
   23084:	4821      	ldr	r0, [pc, #132]	@ (2310c <_ZN18complex_no_dynamic3app17hc2fd7651b5849b68E+0xa4>)
   23086:	2107      	movs	r1, #7
   23088:	462a      	mov	r2, r5
   2308a:	4633      	mov	r3, r6
   2308c:	df04      	svc	4
   2308e:	2802      	cmp	r0, #2
   23090:	d00e      	beq.n	230b0 <_ZN18complex_no_dynamic3app17hc2fd7651b5849b68E+0x48>
   23092:	481e      	ldr	r0, [pc, #120]	@ (2310c <_ZN18complex_no_dynamic3app17hc2fd7651b5849b68E+0xa4>)
   23094:	2105      	movs	r1, #5
   23096:	aa0e      	add	r2, sp, #56	@ 0x38
   23098:	2341      	movs	r3, #65	@ 0x41
   2309a:	df03      	svc	3
   2309c:	2802      	cmp	r0, #2
   2309e:	d007      	beq.n	230b0 <_ZN18complex_no_dynamic3app17hc2fd7651b5849b68E+0x48>
   230a0:	481a      	ldr	r0, [pc, #104]	@ (2310c <_ZN18complex_no_dynamic3app17hc2fd7651b5849b68E+0xa4>)
   230a2:	2107      	movs	r1, #7
   230a4:	2205      	movs	r2, #5
   230a6:	2500      	movs	r5, #0
   230a8:	462b      	mov	r3, r5
   230aa:	df02      	svc	2
   230ac:	287f      	cmp	r0, #127	@ 0x7f
   230ae:	d810      	bhi.n	230d2 <_ZN18complex_no_dynamic3app17hc2fd7651b5849b68E+0x6a>
   230b0:	2001      	movs	r0, #1
   230b2:	7020      	strb	r0, [r4, #0]
   230b4:	6061      	str	r1, [r4, #4]
   230b6:	4c15      	ldr	r4, [pc, #84]	@ (2310c <_ZN18complex_no_dynamic3app17hc2fd7651b5849b68E+0xa4>)
   230b8:	2105      	movs	r1, #5
   230ba:	2500      	movs	r5, #0
   230bc:	4620      	mov	r0, r4
   230be:	462a      	mov	r2, r5
   230c0:	462b      	mov	r3, r5
   230c2:	df03      	svc	3
   230c4:	2107      	movs	r1, #7
   230c6:	4620      	mov	r0, r4
   230c8:	462a      	mov	r2, r5
   230ca:	462b      	mov	r3, r5
   230cc:	df04      	svc	4
   230ce:	b01f      	add	sp, #124	@ 0x7c
   230d0:	bdf0      	pop	{r4, r5, r6, r7, pc}
   230d2:	480e      	ldr	r0, [pc, #56]	@ (2310c <_ZN18complex_no_dynamic3app17hc2fd7651b5849b68E+0xa4>)
   230d4:	2605      	movs	r6, #5
   230d6:	4631      	mov	r1, r6
   230d8:	462a      	mov	r2, r5
   230da:	462b      	mov	r3, r5
   230dc:	df03      	svc	3
   230de:	480b      	ldr	r0, [pc, #44]	@ (2310c <_ZN18complex_no_dynamic3app17hc2fd7651b5849b68E+0xa4>)
   230e0:	4631      	mov	r1, r6
   230e2:	462a      	mov	r2, r5
   230e4:	462b      	mov	r3, r5
   230e6:	df03      	svc	3
   230e8:	1c60      	adds	r0, r4, #1
   230ea:	a90e      	add	r1, sp, #56	@ 0x38
   230ec:	2241      	movs	r2, #65	@ 0x41
   230ee:	f003 fee6 	bl	26ebe <__aeabi_memcpy>
   230f2:	7025      	strb	r5, [r4, #0]
   230f4:	4c05      	ldr	r4, [pc, #20]	@ (2310c <_ZN18complex_no_dynamic3app17hc2fd7651b5849b68E+0xa4>)
   230f6:	4620      	mov	r0, r4
   230f8:	4631      	mov	r1, r6
   230fa:	462a      	mov	r2, r5
   230fc:	462b      	mov	r3, r5
   230fe:	df03      	svc	3
   23100:	2107      	movs	r1, #7
   23102:	4620      	mov	r0, r4
   23104:	462a      	mov	r2, r5
   23106:	462b      	mov	r3, r5
   23108:	df04      	svc	4
   2310a:	e7e0      	b.n	230ce <_ZN18complex_no_dynamic3app17hc2fd7651b5849b68E+0x66>
   2310c:	0000091d 	.word	0x0000091d

00023110 <_ZN18complex_no_dynamic3app17hc527dff596039336E>:
   23110:	b5f0      	push	{r4, r5, r6, r7, lr}
   23112:	af03      	add	r7, sp, #12
   23114:	b09f      	sub	sp, #124	@ 0x7c
   23116:	4604      	mov	r4, r0
   23118:	466d      	mov	r5, sp
   2311a:	2627      	movs	r6, #39	@ 0x27
   2311c:	4628      	mov	r0, r5
   2311e:	4632      	mov	r2, r6
   23120:	f003 fecd 	bl	26ebe <__aeabi_memcpy>
   23124:	a80a      	add	r0, sp, #40	@ 0x28
   23126:	2151      	movs	r1, #81	@ 0x51
   23128:	f003 fd1c 	bl	26b64 <__aeabi_memclr4>
   2312c:	4821      	ldr	r0, [pc, #132]	@ (231b4 <_ZN18complex_no_dynamic3app17hc527dff596039336E+0xa4>)
   2312e:	2100      	movs	r1, #0
   23130:	462a      	mov	r2, r5
   23132:	4633      	mov	r3, r6
   23134:	df04      	svc	4
   23136:	2802      	cmp	r0, #2
   23138:	d00e      	beq.n	23158 <_ZN18complex_no_dynamic3app17hc527dff596039336E+0x48>
   2313a:	481e      	ldr	r0, [pc, #120]	@ (231b4 <_ZN18complex_no_dynamic3app17hc527dff596039336E+0xa4>)
   2313c:	2104      	movs	r1, #4
   2313e:	aa0a      	add	r2, sp, #40	@ 0x28
   23140:	2351      	movs	r3, #81	@ 0x51
   23142:	df03      	svc	3
   23144:	2802      	cmp	r0, #2
   23146:	d007      	beq.n	23158 <_ZN18complex_no_dynamic3app17hc527dff596039336E+0x48>
   23148:	481a      	ldr	r0, [pc, #104]	@ (231b4 <_ZN18complex_no_dynamic3app17hc527dff596039336E+0xa4>)
   2314a:	2204      	movs	r2, #4
   2314c:	2500      	movs	r5, #0
   2314e:	4629      	mov	r1, r5
   23150:	462b      	mov	r3, r5
   23152:	df02      	svc	2
   23154:	287f      	cmp	r0, #127	@ 0x7f
   23156:	d810      	bhi.n	2317a <_ZN18complex_no_dynamic3app17hc527dff596039336E+0x6a>
   23158:	2001      	movs	r0, #1
   2315a:	7020      	strb	r0, [r4, #0]
   2315c:	6061      	str	r1, [r4, #4]
   2315e:	4c15      	ldr	r4, [pc, #84]	@ (231b4 <_ZN18complex_no_dynamic3app17hc527dff596039336E+0xa4>)
   23160:	2104      	movs	r1, #4
   23162:	2500      	movs	r5, #0
   23164:	4620      	mov	r0, r4
   23166:	462a      	mov	r2, r5
   23168:	462b      	mov	r3, r5
   2316a:	df03      	svc	3
   2316c:	4620      	mov	r0, r4
   2316e:	4629      	mov	r1, r5
   23170:	462a      	mov	r2, r5
   23172:	462b      	mov	r3, r5
   23174:	df04      	svc	4
   23176:	b01f      	add	sp, #124	@ 0x7c
   23178:	bdf0      	pop	{r4, r5, r6, r7, pc}
   2317a:	480e      	ldr	r0, [pc, #56]	@ (231b4 <_ZN18complex_no_dynamic3app17hc527dff596039336E+0xa4>)
   2317c:	2604      	movs	r6, #4
   2317e:	4631      	mov	r1, r6
   23180:	462a      	mov	r2, r5
   23182:	462b      	mov	r3, r5
   23184:	df03      	svc	3
   23186:	480b      	ldr	r0, [pc, #44]	@ (231b4 <_ZN18complex_no_dynamic3app17hc527dff596039336E+0xa4>)
   23188:	4631      	mov	r1, r6
   2318a:	462a      	mov	r2, r5
   2318c:	462b      	mov	r3, r5
   2318e:	df03      	svc	3
   23190:	1c60      	adds	r0, r4, #1
   23192:	a90a      	add	r1, sp, #40	@ 0x28
   23194:	2251      	movs	r2, #81	@ 0x51
   23196:	f003 fe92 	bl	26ebe <__aeabi_memcpy>
   2319a:	7025      	strb	r5, [r4, #0]
   2319c:	4c05      	ldr	r4, [pc, #20]	@ (231b4 <_ZN18complex_no_dynamic3app17hc527dff596039336E+0xa4>)
   2319e:	4620      	mov	r0, r4
   231a0:	4631      	mov	r1, r6
   231a2:	462a      	mov	r2, r5
   231a4:	462b      	mov	r3, r5
   231a6:	df03      	svc	3
   231a8:	4620      	mov	r0, r4
   231aa:	4629      	mov	r1, r5
   231ac:	462a      	mov	r2, r5
   231ae:	462b      	mov	r3, r5
   231b0:	df04      	svc	4
   231b2:	e7e0      	b.n	23176 <_ZN18complex_no_dynamic3app17hc527dff596039336E+0x66>
   231b4:	00000a36 	.word	0x00000a36

000231b8 <_ZN18complex_no_dynamic3app17hc6df19e35a783edaE>:
   231b8:	b5f0      	push	{r4, r5, r6, r7, lr}
   231ba:	af03      	add	r7, sp, #12
   231bc:	b099      	sub	sp, #100	@ 0x64
   231be:	4604      	mov	r4, r0
   231c0:	466d      	mov	r5, sp
   231c2:	263b      	movs	r6, #59	@ 0x3b
   231c4:	4628      	mov	r0, r5
   231c6:	4632      	mov	r2, r6
   231c8:	f003 fe79 	bl	26ebe <__aeabi_memcpy>
   231cc:	a80f      	add	r0, sp, #60	@ 0x3c
   231ce:	2127      	movs	r1, #39	@ 0x27
   231d0:	f003 fcc8 	bl	26b64 <__aeabi_memclr4>
   231d4:	4821      	ldr	r0, [pc, #132]	@ (2325c <_ZN18complex_no_dynamic3app17hc6df19e35a783edaE+0xa4>)
   231d6:	2105      	movs	r1, #5
   231d8:	462a      	mov	r2, r5
   231da:	4633      	mov	r3, r6
   231dc:	df04      	svc	4
   231de:	2802      	cmp	r0, #2
   231e0:	d00e      	beq.n	23200 <_ZN18complex_no_dynamic3app17hc6df19e35a783edaE+0x48>
   231e2:	481e      	ldr	r0, [pc, #120]	@ (2325c <_ZN18complex_no_dynamic3app17hc6df19e35a783edaE+0xa4>)
   231e4:	2103      	movs	r1, #3
   231e6:	aa0f      	add	r2, sp, #60	@ 0x3c
   231e8:	2327      	movs	r3, #39	@ 0x27
   231ea:	df03      	svc	3
   231ec:	2802      	cmp	r0, #2
   231ee:	d007      	beq.n	23200 <_ZN18complex_no_dynamic3app17hc6df19e35a783edaE+0x48>
   231f0:	481a      	ldr	r0, [pc, #104]	@ (2325c <_ZN18complex_no_dynamic3app17hc6df19e35a783edaE+0xa4>)
   231f2:	2105      	movs	r1, #5
   231f4:	2203      	movs	r2, #3
   231f6:	2500      	movs	r5, #0
   231f8:	462b      	mov	r3, r5
   231fa:	df02      	svc	2
   231fc:	287f      	cmp	r0, #127	@ 0x7f
   231fe:	d810      	bhi.n	23222 <_ZN18complex_no_dynamic3app17hc6df19e35a783edaE+0x6a>
   23200:	2001      	movs	r0, #1
   23202:	7020      	strb	r0, [r4, #0]
   23204:	6061      	str	r1, [r4, #4]
   23206:	4c15      	ldr	r4, [pc, #84]	@ (2325c <_ZN18complex_no_dynamic3app17hc6df19e35a783edaE+0xa4>)
   23208:	2103      	movs	r1, #3
   2320a:	2500      	movs	r5, #0
   2320c:	4620      	mov	r0, r4
   2320e:	462a      	mov	r2, r5
   23210:	462b      	mov	r3, r5
   23212:	df03      	svc	3
   23214:	2105      	movs	r1, #5
   23216:	4620      	mov	r0, r4
   23218:	462a      	mov	r2, r5
   2321a:	462b      	mov	r3, r5
   2321c:	df04      	svc	4
   2321e:	b019      	add	sp, #100	@ 0x64
   23220:	bdf0      	pop	{r4, r5, r6, r7, pc}
   23222:	480e      	ldr	r0, [pc, #56]	@ (2325c <_ZN18complex_no_dynamic3app17hc6df19e35a783edaE+0xa4>)
   23224:	2603      	movs	r6, #3
   23226:	4631      	mov	r1, r6
   23228:	462a      	mov	r2, r5
   2322a:	462b      	mov	r3, r5
   2322c:	df03      	svc	3
   2322e:	480b      	ldr	r0, [pc, #44]	@ (2325c <_ZN18complex_no_dynamic3app17hc6df19e35a783edaE+0xa4>)
   23230:	4631      	mov	r1, r6
   23232:	462a      	mov	r2, r5
   23234:	462b      	mov	r3, r5
   23236:	df03      	svc	3
   23238:	1c60      	adds	r0, r4, #1
   2323a:	a90f      	add	r1, sp, #60	@ 0x3c
   2323c:	2227      	movs	r2, #39	@ 0x27
   2323e:	f003 fe3e 	bl	26ebe <__aeabi_memcpy>
   23242:	7025      	strb	r5, [r4, #0]
   23244:	4c05      	ldr	r4, [pc, #20]	@ (2325c <_ZN18complex_no_dynamic3app17hc6df19e35a783edaE+0xa4>)
   23246:	4620      	mov	r0, r4
   23248:	4631      	mov	r1, r6
   2324a:	462a      	mov	r2, r5
   2324c:	462b      	mov	r3, r5
   2324e:	df03      	svc	3
   23250:	2105      	movs	r1, #5
   23252:	4620      	mov	r0, r4
   23254:	462a      	mov	r2, r5
   23256:	462b      	mov	r3, r5
   23258:	df04      	svc	4
   2325a:	e7e0      	b.n	2321e <_ZN18complex_no_dynamic3app17hc6df19e35a783edaE+0x66>
   2325c:	00000bd3 	.word	0x00000bd3

00023260 <_ZN18complex_no_dynamic3app17hc7b1da1bc8ba0e7dE>:
   23260:	b5f0      	push	{r4, r5, r6, r7, lr}
   23262:	af03      	add	r7, sp, #12
   23264:	b09f      	sub	sp, #124	@ 0x7c
   23266:	4604      	mov	r4, r0
   23268:	ad01      	add	r5, sp, #4
   2326a:	2622      	movs	r6, #34	@ 0x22
   2326c:	4628      	mov	r0, r5
   2326e:	4632      	mov	r2, r6
   23270:	f003 fe25 	bl	26ebe <__aeabi_memcpy>
   23274:	a80a      	add	r0, sp, #40	@ 0x28
   23276:	2151      	movs	r1, #81	@ 0x51
   23278:	f003 fc74 	bl	26b64 <__aeabi_memclr4>
   2327c:	4822      	ldr	r0, [pc, #136]	@ (23308 <_ZN18complex_no_dynamic3app17hc7b1da1bc8ba0e7dE+0xa8>)
   2327e:	2109      	movs	r1, #9
   23280:	462a      	mov	r2, r5
   23282:	4633      	mov	r3, r6
   23284:	df04      	svc	4
   23286:	2802      	cmp	r0, #2
   23288:	d00e      	beq.n	232a8 <_ZN18complex_no_dynamic3app17hc7b1da1bc8ba0e7dE+0x48>
   2328a:	481f      	ldr	r0, [pc, #124]	@ (23308 <_ZN18complex_no_dynamic3app17hc7b1da1bc8ba0e7dE+0xa8>)
   2328c:	2109      	movs	r1, #9
   2328e:	aa0a      	add	r2, sp, #40	@ 0x28
   23290:	2351      	movs	r3, #81	@ 0x51
   23292:	df03      	svc	3
   23294:	2802      	cmp	r0, #2
   23296:	d007      	beq.n	232a8 <_ZN18complex_no_dynamic3app17hc7b1da1bc8ba0e7dE+0x48>
   23298:	481b      	ldr	r0, [pc, #108]	@ (23308 <_ZN18complex_no_dynamic3app17hc7b1da1bc8ba0e7dE+0xa8>)
   2329a:	2109      	movs	r1, #9
   2329c:	2500      	movs	r5, #0
   2329e:	460a      	mov	r2, r1
   232a0:	462b      	mov	r3, r5
   232a2:	df02      	svc	2
   232a4:	287f      	cmp	r0, #127	@ 0x7f
   232a6:	d811      	bhi.n	232cc <_ZN18complex_no_dynamic3app17hc7b1da1bc8ba0e7dE+0x6c>
   232a8:	2001      	movs	r0, #1
   232aa:	7020      	strb	r0, [r4, #0]
   232ac:	6061      	str	r1, [r4, #4]
   232ae:	4c16      	ldr	r4, [pc, #88]	@ (23308 <_ZN18complex_no_dynamic3app17hc7b1da1bc8ba0e7dE+0xa8>)
   232b0:	2509      	movs	r5, #9
   232b2:	2600      	movs	r6, #0
   232b4:	4620      	mov	r0, r4
   232b6:	4629      	mov	r1, r5
   232b8:	4632      	mov	r2, r6
   232ba:	4633      	mov	r3, r6
   232bc:	df03      	svc	3
   232be:	4620      	mov	r0, r4
   232c0:	4629      	mov	r1, r5
   232c2:	4632      	mov	r2, r6
   232c4:	4633      	mov	r3, r6
   232c6:	df04      	svc	4
   232c8:	b01f      	add	sp, #124	@ 0x7c
   232ca:	bdf0      	pop	{r4, r5, r6, r7, pc}
   232cc:	480e      	ldr	r0, [pc, #56]	@ (23308 <_ZN18complex_no_dynamic3app17hc7b1da1bc8ba0e7dE+0xa8>)
   232ce:	2609      	movs	r6, #9
   232d0:	4631      	mov	r1, r6
   232d2:	462a      	mov	r2, r5
   232d4:	462b      	mov	r3, r5
   232d6:	df03      	svc	3
   232d8:	480b      	ldr	r0, [pc, #44]	@ (23308 <_ZN18complex_no_dynamic3app17hc7b1da1bc8ba0e7dE+0xa8>)
   232da:	4631      	mov	r1, r6
   232dc:	462a      	mov	r2, r5
   232de:	462b      	mov	r3, r5
   232e0:	df03      	svc	3
   232e2:	1c60      	adds	r0, r4, #1
   232e4:	a90a      	add	r1, sp, #40	@ 0x28
   232e6:	2251      	movs	r2, #81	@ 0x51
   232e8:	f003 fde9 	bl	26ebe <__aeabi_memcpy>
   232ec:	7025      	strb	r5, [r4, #0]
   232ee:	4c06      	ldr	r4, [pc, #24]	@ (23308 <_ZN18complex_no_dynamic3app17hc7b1da1bc8ba0e7dE+0xa8>)
   232f0:	4620      	mov	r0, r4
   232f2:	4631      	mov	r1, r6
   232f4:	462a      	mov	r2, r5
   232f6:	462b      	mov	r3, r5
   232f8:	df03      	svc	3
   232fa:	4620      	mov	r0, r4
   232fc:	4631      	mov	r1, r6
   232fe:	462a      	mov	r2, r5
   23300:	462b      	mov	r3, r5
   23302:	df04      	svc	4
   23304:	e7e0      	b.n	232c8 <_ZN18complex_no_dynamic3app17hc7b1da1bc8ba0e7dE+0x68>
   23306:	46c0      	nop			@ (mov r8, r8)
   23308:	0000055e 	.word	0x0000055e

0002330c <_ZN18complex_no_dynamic3app17hc7fd27edbcf6f0b1E>:
   2330c:	b5f0      	push	{r4, r5, r6, r7, lr}
   2330e:	af03      	add	r7, sp, #12
   23310:	b0a5      	sub	sp, #148	@ 0x94
   23312:	4604      	mov	r4, r0
   23314:	ad01      	add	r5, sp, #4
   23316:	2663      	movs	r6, #99	@ 0x63
   23318:	4628      	mov	r0, r5
   2331a:	4632      	mov	r2, r6
   2331c:	f003 fdcf 	bl	26ebe <__aeabi_memcpy>
   23320:	a81a      	add	r0, sp, #104	@ 0x68
   23322:	212c      	movs	r1, #44	@ 0x2c
   23324:	f003 fc1e 	bl	26b64 <__aeabi_memclr4>
   23328:	2018      	movs	r0, #24
   2332a:	2105      	movs	r1, #5
   2332c:	462a      	mov	r2, r5
   2332e:	4633      	mov	r3, r6
   23330:	df04      	svc	4
   23332:	2802      	cmp	r0, #2
   23334:	d00e      	beq.n	23354 <_ZN18complex_no_dynamic3app17hc7fd27edbcf6f0b1E+0x48>
   23336:	2018      	movs	r0, #24
   23338:	2103      	movs	r1, #3
   2333a:	aa1a      	add	r2, sp, #104	@ 0x68
   2333c:	232c      	movs	r3, #44	@ 0x2c
   2333e:	df03      	svc	3
   23340:	2802      	cmp	r0, #2
   23342:	d007      	beq.n	23354 <_ZN18complex_no_dynamic3app17hc7fd27edbcf6f0b1E+0x48>
   23344:	2018      	movs	r0, #24
   23346:	2105      	movs	r1, #5
   23348:	2203      	movs	r2, #3
   2334a:	2500      	movs	r5, #0
   2334c:	462b      	mov	r3, r5
   2334e:	df02      	svc	2
   23350:	287f      	cmp	r0, #127	@ 0x7f
   23352:	d810      	bhi.n	23376 <_ZN18complex_no_dynamic3app17hc7fd27edbcf6f0b1E+0x6a>
   23354:	2001      	movs	r0, #1
   23356:	7020      	strb	r0, [r4, #0]
   23358:	6061      	str	r1, [r4, #4]
   2335a:	2418      	movs	r4, #24
   2335c:	2103      	movs	r1, #3
   2335e:	2500      	movs	r5, #0
   23360:	4620      	mov	r0, r4
   23362:	462a      	mov	r2, r5
   23364:	462b      	mov	r3, r5
   23366:	df03      	svc	3
   23368:	2105      	movs	r1, #5
   2336a:	4620      	mov	r0, r4
   2336c:	462a      	mov	r2, r5
   2336e:	462b      	mov	r3, r5
   23370:	df04      	svc	4
   23372:	b025      	add	sp, #148	@ 0x94
   23374:	bdf0      	pop	{r4, r5, r6, r7, pc}
   23376:	2018      	movs	r0, #24
   23378:	9000      	str	r0, [sp, #0]
   2337a:	2603      	movs	r6, #3
   2337c:	4631      	mov	r1, r6
   2337e:	462a      	mov	r2, r5
   23380:	462b      	mov	r3, r5
   23382:	df03      	svc	3
   23384:	9800      	ldr	r0, [sp, #0]
   23386:	4631      	mov	r1, r6
   23388:	462a      	mov	r2, r5
   2338a:	462b      	mov	r3, r5
   2338c:	df03      	svc	3
   2338e:	1c60      	adds	r0, r4, #1
   23390:	a91a      	add	r1, sp, #104	@ 0x68
   23392:	222c      	movs	r2, #44	@ 0x2c
   23394:	f003 fd93 	bl	26ebe <__aeabi_memcpy>
   23398:	7025      	strb	r5, [r4, #0]
   2339a:	9c00      	ldr	r4, [sp, #0]
   2339c:	4620      	mov	r0, r4
   2339e:	4631      	mov	r1, r6
   233a0:	462a      	mov	r2, r5
   233a2:	462b      	mov	r3, r5
   233a4:	df03      	svc	3
   233a6:	2105      	movs	r1, #5
   233a8:	4620      	mov	r0, r4
   233aa:	462a      	mov	r2, r5
   233ac:	462b      	mov	r3, r5
   233ae:	df04      	svc	4
   233b0:	e7df      	b.n	23372 <_ZN18complex_no_dynamic3app17hc7fd27edbcf6f0b1E+0x66>
   233b2:	d4d4      	bmi.n	2335e <_ZN18complex_no_dynamic3app17hc7fd27edbcf6f0b1E+0x52>

000233b4 <_ZN18complex_no_dynamic3app17hc917e79fbea9b424E>:
   233b4:	b5f0      	push	{r4, r5, r6, r7, lr}
   233b6:	af03      	add	r7, sp, #12
   233b8:	b093      	sub	sp, #76	@ 0x4c
   233ba:	4604      	mov	r4, r0
   233bc:	466d      	mov	r5, sp
   233be:	261e      	movs	r6, #30
   233c0:	4628      	mov	r0, r5
   233c2:	4632      	mov	r2, r6
   233c4:	f003 fd7b 	bl	26ebe <__aeabi_memcpy>
   233c8:	a808      	add	r0, sp, #32
   233ca:	212c      	movs	r1, #44	@ 0x2c
   233cc:	f003 fbca 	bl	26b64 <__aeabi_memclr4>
   233d0:	4821      	ldr	r0, [pc, #132]	@ (23458 <_ZN18complex_no_dynamic3app17hc917e79fbea9b424E+0xa4>)
   233d2:	2107      	movs	r1, #7
   233d4:	462a      	mov	r2, r5
   233d6:	4633      	mov	r3, r6
   233d8:	df04      	svc	4
   233da:	2802      	cmp	r0, #2
   233dc:	d00e      	beq.n	233fc <_ZN18complex_no_dynamic3app17hc917e79fbea9b424E+0x48>
   233de:	481e      	ldr	r0, [pc, #120]	@ (23458 <_ZN18complex_no_dynamic3app17hc917e79fbea9b424E+0xa4>)
   233e0:	2100      	movs	r1, #0
   233e2:	aa08      	add	r2, sp, #32
   233e4:	232c      	movs	r3, #44	@ 0x2c
   233e6:	df03      	svc	3
   233e8:	2802      	cmp	r0, #2
   233ea:	d007      	beq.n	233fc <_ZN18complex_no_dynamic3app17hc917e79fbea9b424E+0x48>
   233ec:	481a      	ldr	r0, [pc, #104]	@ (23458 <_ZN18complex_no_dynamic3app17hc917e79fbea9b424E+0xa4>)
   233ee:	2107      	movs	r1, #7
   233f0:	2500      	movs	r5, #0
   233f2:	462a      	mov	r2, r5
   233f4:	462b      	mov	r3, r5
   233f6:	df02      	svc	2
   233f8:	287f      	cmp	r0, #127	@ 0x7f
   233fa:	d810      	bhi.n	2341e <_ZN18complex_no_dynamic3app17hc917e79fbea9b424E+0x6a>
   233fc:	2001      	movs	r0, #1
   233fe:	7020      	strb	r0, [r4, #0]
   23400:	6061      	str	r1, [r4, #4]
   23402:	4c15      	ldr	r4, [pc, #84]	@ (23458 <_ZN18complex_no_dynamic3app17hc917e79fbea9b424E+0xa4>)
   23404:	2500      	movs	r5, #0
   23406:	4620      	mov	r0, r4
   23408:	4629      	mov	r1, r5
   2340a:	462a      	mov	r2, r5
   2340c:	462b      	mov	r3, r5
   2340e:	df03      	svc	3
   23410:	2107      	movs	r1, #7
   23412:	4620      	mov	r0, r4
   23414:	462a      	mov	r2, r5
   23416:	462b      	mov	r3, r5
   23418:	df04      	svc	4
   2341a:	b013      	add	sp, #76	@ 0x4c
   2341c:	bdf0      	pop	{r4, r5, r6, r7, pc}
   2341e:	4e0e      	ldr	r6, [pc, #56]	@ (23458 <_ZN18complex_no_dynamic3app17hc917e79fbea9b424E+0xa4>)
   23420:	4630      	mov	r0, r6
   23422:	4629      	mov	r1, r5
   23424:	462a      	mov	r2, r5
   23426:	462b      	mov	r3, r5
   23428:	df03      	svc	3
   2342a:	4630      	mov	r0, r6
   2342c:	4629      	mov	r1, r5
   2342e:	462a      	mov	r2, r5
   23430:	462b      	mov	r3, r5
   23432:	df03      	svc	3
   23434:	1c60      	adds	r0, r4, #1
   23436:	a908      	add	r1, sp, #32
   23438:	222c      	movs	r2, #44	@ 0x2c
   2343a:	f003 fd40 	bl	26ebe <__aeabi_memcpy>
   2343e:	7025      	strb	r5, [r4, #0]
   23440:	4630      	mov	r0, r6
   23442:	4629      	mov	r1, r5
   23444:	462a      	mov	r2, r5
   23446:	462b      	mov	r3, r5
   23448:	df03      	svc	3
   2344a:	2107      	movs	r1, #7
   2344c:	4630      	mov	r0, r6
   2344e:	462a      	mov	r2, r5
   23450:	462b      	mov	r3, r5
   23452:	df04      	svc	4
   23454:	e7e1      	b.n	2341a <_ZN18complex_no_dynamic3app17hc917e79fbea9b424E+0x66>
   23456:	46c0      	nop			@ (mov r8, r8)
   23458:	000003fb 	.word	0x000003fb

0002345c <_ZN18complex_no_dynamic3app17hc9adf2cb3bbea06eE>:
   2345c:	b5f0      	push	{r4, r5, r6, r7, lr}
   2345e:	af03      	add	r7, sp, #12
   23460:	b0a9      	sub	sp, #164	@ 0xa4
   23462:	4604      	mov	r4, r0
   23464:	466d      	mov	r5, sp
   23466:	2653      	movs	r6, #83	@ 0x53
   23468:	4628      	mov	r0, r5
   2346a:	4632      	mov	r2, r6
   2346c:	f003 fd27 	bl	26ebe <__aeabi_memcpy>
   23470:	a815      	add	r0, sp, #84	@ 0x54
   23472:	214d      	movs	r1, #77	@ 0x4d
   23474:	f003 fb76 	bl	26b64 <__aeabi_memclr4>
   23478:	4821      	ldr	r0, [pc, #132]	@ (23500 <_ZN18complex_no_dynamic3app17hc9adf2cb3bbea06eE+0xa4>)
   2347a:	2109      	movs	r1, #9
   2347c:	462a      	mov	r2, r5
   2347e:	4633      	mov	r3, r6
   23480:	df04      	svc	4
   23482:	2802      	cmp	r0, #2
   23484:	d00e      	beq.n	234a4 <_ZN18complex_no_dynamic3app17hc9adf2cb3bbea06eE+0x48>
   23486:	481e      	ldr	r0, [pc, #120]	@ (23500 <_ZN18complex_no_dynamic3app17hc9adf2cb3bbea06eE+0xa4>)
   23488:	2104      	movs	r1, #4
   2348a:	aa15      	add	r2, sp, #84	@ 0x54
   2348c:	234d      	movs	r3, #77	@ 0x4d
   2348e:	df03      	svc	3
   23490:	2802      	cmp	r0, #2
   23492:	d007      	beq.n	234a4 <_ZN18complex_no_dynamic3app17hc9adf2cb3bbea06eE+0x48>
   23494:	481a      	ldr	r0, [pc, #104]	@ (23500 <_ZN18complex_no_dynamic3app17hc9adf2cb3bbea06eE+0xa4>)
   23496:	2109      	movs	r1, #9
   23498:	2204      	movs	r2, #4
   2349a:	2500      	movs	r5, #0
   2349c:	462b      	mov	r3, r5
   2349e:	df02      	svc	2
   234a0:	287f      	cmp	r0, #127	@ 0x7f
   234a2:	d810      	bhi.n	234c6 <_ZN18complex_no_dynamic3app17hc9adf2cb3bbea06eE+0x6a>
   234a4:	2001      	movs	r0, #1
   234a6:	7020      	strb	r0, [r4, #0]
   234a8:	6061      	str	r1, [r4, #4]
   234aa:	4c15      	ldr	r4, [pc, #84]	@ (23500 <_ZN18complex_no_dynamic3app17hc9adf2cb3bbea06eE+0xa4>)
   234ac:	2104      	movs	r1, #4
   234ae:	2500      	movs	r5, #0
   234b0:	4620      	mov	r0, r4
   234b2:	462a      	mov	r2, r5
   234b4:	462b      	mov	r3, r5
   234b6:	df03      	svc	3
   234b8:	2109      	movs	r1, #9
   234ba:	4620      	mov	r0, r4
   234bc:	462a      	mov	r2, r5
   234be:	462b      	mov	r3, r5
   234c0:	df04      	svc	4
   234c2:	b029      	add	sp, #164	@ 0xa4
   234c4:	bdf0      	pop	{r4, r5, r6, r7, pc}
   234c6:	480e      	ldr	r0, [pc, #56]	@ (23500 <_ZN18complex_no_dynamic3app17hc9adf2cb3bbea06eE+0xa4>)
   234c8:	2604      	movs	r6, #4
   234ca:	4631      	mov	r1, r6
   234cc:	462a      	mov	r2, r5
   234ce:	462b      	mov	r3, r5
   234d0:	df03      	svc	3
   234d2:	480b      	ldr	r0, [pc, #44]	@ (23500 <_ZN18complex_no_dynamic3app17hc9adf2cb3bbea06eE+0xa4>)
   234d4:	4631      	mov	r1, r6
   234d6:	462a      	mov	r2, r5
   234d8:	462b      	mov	r3, r5
   234da:	df03      	svc	3
   234dc:	1c60      	adds	r0, r4, #1
   234de:	a915      	add	r1, sp, #84	@ 0x54
   234e0:	224d      	movs	r2, #77	@ 0x4d
   234e2:	f003 fcec 	bl	26ebe <__aeabi_memcpy>
   234e6:	7025      	strb	r5, [r4, #0]
   234e8:	4c05      	ldr	r4, [pc, #20]	@ (23500 <_ZN18complex_no_dynamic3app17hc9adf2cb3bbea06eE+0xa4>)
   234ea:	4620      	mov	r0, r4
   234ec:	4631      	mov	r1, r6
   234ee:	462a      	mov	r2, r5
   234f0:	462b      	mov	r3, r5
   234f2:	df03      	svc	3
   234f4:	2109      	movs	r1, #9
   234f6:	4620      	mov	r0, r4
   234f8:	462a      	mov	r2, r5
   234fa:	462b      	mov	r3, r5
   234fc:	df04      	svc	4
   234fe:	e7e0      	b.n	234c2 <_ZN18complex_no_dynamic3app17hc9adf2cb3bbea06eE+0x66>
   23500:	000016ba 	.word	0x000016ba

00023504 <_ZN18complex_no_dynamic3app17hcf99730175c6e803E>:
   23504:	b5f0      	push	{r4, r5, r6, r7, lr}
   23506:	af03      	add	r7, sp, #12
   23508:	b08d      	sub	sp, #52	@ 0x34
   2350a:	4604      	mov	r4, r0
   2350c:	466d      	mov	r5, sp
   2350e:	260d      	movs	r6, #13
   23510:	4628      	mov	r0, r5
   23512:	4632      	mov	r2, r6
   23514:	f003 fcd3 	bl	26ebe <__aeabi_memcpy>
   23518:	a804      	add	r0, sp, #16
   2351a:	2121      	movs	r1, #33	@ 0x21
   2351c:	f003 fb22 	bl	26b64 <__aeabi_memclr4>
   23520:	4821      	ldr	r0, [pc, #132]	@ (235a8 <_ZN18complex_no_dynamic3app17hcf99730175c6e803E+0xa4>)
   23522:	2100      	movs	r1, #0
   23524:	462a      	mov	r2, r5
   23526:	4633      	mov	r3, r6
   23528:	df04      	svc	4
   2352a:	2802      	cmp	r0, #2
   2352c:	d00e      	beq.n	2354c <_ZN18complex_no_dynamic3app17hcf99730175c6e803E+0x48>
   2352e:	481e      	ldr	r0, [pc, #120]	@ (235a8 <_ZN18complex_no_dynamic3app17hcf99730175c6e803E+0xa4>)
   23530:	2100      	movs	r1, #0
   23532:	aa04      	add	r2, sp, #16
   23534:	2321      	movs	r3, #33	@ 0x21
   23536:	df03      	svc	3
   23538:	2802      	cmp	r0, #2
   2353a:	d007      	beq.n	2354c <_ZN18complex_no_dynamic3app17hcf99730175c6e803E+0x48>
   2353c:	481a      	ldr	r0, [pc, #104]	@ (235a8 <_ZN18complex_no_dynamic3app17hcf99730175c6e803E+0xa4>)
   2353e:	2500      	movs	r5, #0
   23540:	4629      	mov	r1, r5
   23542:	462a      	mov	r2, r5
   23544:	462b      	mov	r3, r5
   23546:	df02      	svc	2
   23548:	287f      	cmp	r0, #127	@ 0x7f
   2354a:	d810      	bhi.n	2356e <_ZN18complex_no_dynamic3app17hcf99730175c6e803E+0x6a>
   2354c:	2001      	movs	r0, #1
   2354e:	7020      	strb	r0, [r4, #0]
   23550:	6061      	str	r1, [r4, #4]
   23552:	4c15      	ldr	r4, [pc, #84]	@ (235a8 <_ZN18complex_no_dynamic3app17hcf99730175c6e803E+0xa4>)
   23554:	2500      	movs	r5, #0
   23556:	4620      	mov	r0, r4
   23558:	4629      	mov	r1, r5
   2355a:	462a      	mov	r2, r5
   2355c:	462b      	mov	r3, r5
   2355e:	df03      	svc	3
   23560:	4620      	mov	r0, r4
   23562:	4629      	mov	r1, r5
   23564:	462a      	mov	r2, r5
   23566:	462b      	mov	r3, r5
   23568:	df04      	svc	4
   2356a:	b00d      	add	sp, #52	@ 0x34
   2356c:	bdf0      	pop	{r4, r5, r6, r7, pc}
   2356e:	4e0e      	ldr	r6, [pc, #56]	@ (235a8 <_ZN18complex_no_dynamic3app17hcf99730175c6e803E+0xa4>)
   23570:	4630      	mov	r0, r6
   23572:	4629      	mov	r1, r5
   23574:	462a      	mov	r2, r5
   23576:	462b      	mov	r3, r5
   23578:	df03      	svc	3
   2357a:	4630      	mov	r0, r6
   2357c:	4629      	mov	r1, r5
   2357e:	462a      	mov	r2, r5
   23580:	462b      	mov	r3, r5
   23582:	df03      	svc	3
   23584:	1c60      	adds	r0, r4, #1
   23586:	a904      	add	r1, sp, #16
   23588:	2221      	movs	r2, #33	@ 0x21
   2358a:	f003 fc98 	bl	26ebe <__aeabi_memcpy>
   2358e:	7025      	strb	r5, [r4, #0]
   23590:	4630      	mov	r0, r6
   23592:	4629      	mov	r1, r5
   23594:	462a      	mov	r2, r5
   23596:	462b      	mov	r3, r5
   23598:	df03      	svc	3
   2359a:	4630      	mov	r0, r6
   2359c:	4629      	mov	r1, r5
   2359e:	462a      	mov	r2, r5
   235a0:	462b      	mov	r3, r5
   235a2:	df04      	svc	4
   235a4:	e7e1      	b.n	2356a <_ZN18complex_no_dynamic3app17hcf99730175c6e803E+0x66>
   235a6:	46c0      	nop			@ (mov r8, r8)
   235a8:	000016b0 	.word	0x000016b0

000235ac <_ZN18complex_no_dynamic3app17hd0228783e31a8c10E>:
   235ac:	b5f0      	push	{r4, r5, r6, r7, lr}
   235ae:	af03      	add	r7, sp, #12
   235b0:	b09f      	sub	sp, #124	@ 0x7c
   235b2:	4604      	mov	r4, r0
   235b4:	466d      	mov	r5, sp
   235b6:	264a      	movs	r6, #74	@ 0x4a
   235b8:	4628      	mov	r0, r5
   235ba:	4632      	mov	r2, r6
   235bc:	f003 fc7f 	bl	26ebe <__aeabi_memcpy>
   235c0:	a813      	add	r0, sp, #76	@ 0x4c
   235c2:	212d      	movs	r1, #45	@ 0x2d
   235c4:	f003 face 	bl	26b64 <__aeabi_memclr4>
   235c8:	4821      	ldr	r0, [pc, #132]	@ (23650 <_ZN18complex_no_dynamic3app17hd0228783e31a8c10E+0xa4>)
   235ca:	2102      	movs	r1, #2
   235cc:	462a      	mov	r2, r5
   235ce:	4633      	mov	r3, r6
   235d0:	df04      	svc	4
   235d2:	2802      	cmp	r0, #2
   235d4:	d00e      	beq.n	235f4 <_ZN18complex_no_dynamic3app17hd0228783e31a8c10E+0x48>
   235d6:	481e      	ldr	r0, [pc, #120]	@ (23650 <_ZN18complex_no_dynamic3app17hd0228783e31a8c10E+0xa4>)
   235d8:	2103      	movs	r1, #3
   235da:	aa13      	add	r2, sp, #76	@ 0x4c
   235dc:	232d      	movs	r3, #45	@ 0x2d
   235de:	df03      	svc	3
   235e0:	2802      	cmp	r0, #2
   235e2:	d007      	beq.n	235f4 <_ZN18complex_no_dynamic3app17hd0228783e31a8c10E+0x48>
   235e4:	481a      	ldr	r0, [pc, #104]	@ (23650 <_ZN18complex_no_dynamic3app17hd0228783e31a8c10E+0xa4>)
   235e6:	2102      	movs	r1, #2
   235e8:	2203      	movs	r2, #3
   235ea:	2500      	movs	r5, #0
   235ec:	462b      	mov	r3, r5
   235ee:	df02      	svc	2
   235f0:	287f      	cmp	r0, #127	@ 0x7f
   235f2:	d810      	bhi.n	23616 <_ZN18complex_no_dynamic3app17hd0228783e31a8c10E+0x6a>
   235f4:	2001      	movs	r0, #1
   235f6:	7020      	strb	r0, [r4, #0]
   235f8:	6061      	str	r1, [r4, #4]
   235fa:	4c15      	ldr	r4, [pc, #84]	@ (23650 <_ZN18complex_no_dynamic3app17hd0228783e31a8c10E+0xa4>)
   235fc:	2103      	movs	r1, #3
   235fe:	2500      	movs	r5, #0
   23600:	4620      	mov	r0, r4
   23602:	462a      	mov	r2, r5
   23604:	462b      	mov	r3, r5
   23606:	df03      	svc	3
   23608:	2102      	movs	r1, #2
   2360a:	4620      	mov	r0, r4
   2360c:	462a      	mov	r2, r5
   2360e:	462b      	mov	r3, r5
   23610:	df04      	svc	4
   23612:	b01f      	add	sp, #124	@ 0x7c
   23614:	bdf0      	pop	{r4, r5, r6, r7, pc}
   23616:	480e      	ldr	r0, [pc, #56]	@ (23650 <_ZN18complex_no_dynamic3app17hd0228783e31a8c10E+0xa4>)
   23618:	2603      	movs	r6, #3
   2361a:	4631      	mov	r1, r6
   2361c:	462a      	mov	r2, r5
   2361e:	462b      	mov	r3, r5
   23620:	df03      	svc	3
   23622:	480b      	ldr	r0, [pc, #44]	@ (23650 <_ZN18complex_no_dynamic3app17hd0228783e31a8c10E+0xa4>)
   23624:	4631      	mov	r1, r6
   23626:	462a      	mov	r2, r5
   23628:	462b      	mov	r3, r5
   2362a:	df03      	svc	3
   2362c:	1c60      	adds	r0, r4, #1
   2362e:	a913      	add	r1, sp, #76	@ 0x4c
   23630:	222d      	movs	r2, #45	@ 0x2d
   23632:	f003 fc44 	bl	26ebe <__aeabi_memcpy>
   23636:	7025      	strb	r5, [r4, #0]
   23638:	4c05      	ldr	r4, [pc, #20]	@ (23650 <_ZN18complex_no_dynamic3app17hd0228783e31a8c10E+0xa4>)
   2363a:	4620      	mov	r0, r4
   2363c:	4631      	mov	r1, r6
   2363e:	462a      	mov	r2, r5
   23640:	462b      	mov	r3, r5
   23642:	df03      	svc	3
   23644:	2102      	movs	r1, #2
   23646:	4620      	mov	r0, r4
   23648:	462a      	mov	r2, r5
   2364a:	462b      	mov	r3, r5
   2364c:	df04      	svc	4
   2364e:	e7e0      	b.n	23612 <_ZN18complex_no_dynamic3app17hd0228783e31a8c10E+0x66>
   23650:	00000e3d 	.word	0x00000e3d

00023654 <_ZN18complex_no_dynamic3app17hd545a4e177662dfdE>:
   23654:	b5f0      	push	{r4, r5, r6, r7, lr}
   23656:	af03      	add	r7, sp, #12
   23658:	b093      	sub	sp, #76	@ 0x4c
   2365a:	4604      	mov	r4, r0
   2365c:	ad01      	add	r5, sp, #4
   2365e:	2623      	movs	r6, #35	@ 0x23
   23660:	4628      	mov	r0, r5
   23662:	4632      	mov	r2, r6
   23664:	f003 fc2b 	bl	26ebe <__aeabi_memcpy>
   23668:	a80a      	add	r0, sp, #40	@ 0x28
   2366a:	2124      	movs	r1, #36	@ 0x24
   2366c:	f003 fa7a 	bl	26b64 <__aeabi_memclr4>
   23670:	4821      	ldr	r0, [pc, #132]	@ (236f8 <_ZN18complex_no_dynamic3app17hd545a4e177662dfdE+0xa4>)
   23672:	2104      	movs	r1, #4
   23674:	462a      	mov	r2, r5
   23676:	4633      	mov	r3, r6
   23678:	df04      	svc	4
   2367a:	2802      	cmp	r0, #2
   2367c:	d00e      	beq.n	2369c <_ZN18complex_no_dynamic3app17hd545a4e177662dfdE+0x48>
   2367e:	481e      	ldr	r0, [pc, #120]	@ (236f8 <_ZN18complex_no_dynamic3app17hd545a4e177662dfdE+0xa4>)
   23680:	2108      	movs	r1, #8
   23682:	aa0a      	add	r2, sp, #40	@ 0x28
   23684:	2324      	movs	r3, #36	@ 0x24
   23686:	df03      	svc	3
   23688:	2802      	cmp	r0, #2
   2368a:	d007      	beq.n	2369c <_ZN18complex_no_dynamic3app17hd545a4e177662dfdE+0x48>
   2368c:	481a      	ldr	r0, [pc, #104]	@ (236f8 <_ZN18complex_no_dynamic3app17hd545a4e177662dfdE+0xa4>)
   2368e:	2104      	movs	r1, #4
   23690:	2208      	movs	r2, #8
   23692:	2500      	movs	r5, #0
   23694:	462b      	mov	r3, r5
   23696:	df02      	svc	2
   23698:	287f      	cmp	r0, #127	@ 0x7f
   2369a:	d810      	bhi.n	236be <_ZN18complex_no_dynamic3app17hd545a4e177662dfdE+0x6a>
   2369c:	2001      	movs	r0, #1
   2369e:	7020      	strb	r0, [r4, #0]
   236a0:	6061      	str	r1, [r4, #4]
   236a2:	4c15      	ldr	r4, [pc, #84]	@ (236f8 <_ZN18complex_no_dynamic3app17hd545a4e177662dfdE+0xa4>)
   236a4:	2108      	movs	r1, #8
   236a6:	2500      	movs	r5, #0
   236a8:	4620      	mov	r0, r4
   236aa:	462a      	mov	r2, r5
   236ac:	462b      	mov	r3, r5
   236ae:	df03      	svc	3
   236b0:	2104      	movs	r1, #4
   236b2:	4620      	mov	r0, r4
   236b4:	462a      	mov	r2, r5
   236b6:	462b      	mov	r3, r5
   236b8:	df04      	svc	4
   236ba:	b013      	add	sp, #76	@ 0x4c
   236bc:	bdf0      	pop	{r4, r5, r6, r7, pc}
   236be:	480e      	ldr	r0, [pc, #56]	@ (236f8 <_ZN18complex_no_dynamic3app17hd545a4e177662dfdE+0xa4>)
   236c0:	2608      	movs	r6, #8
   236c2:	4631      	mov	r1, r6
   236c4:	462a      	mov	r2, r5
   236c6:	462b      	mov	r3, r5
   236c8:	df03      	svc	3
   236ca:	480b      	ldr	r0, [pc, #44]	@ (236f8 <_ZN18complex_no_dynamic3app17hd545a4e177662dfdE+0xa4>)
   236cc:	4631      	mov	r1, r6
   236ce:	462a      	mov	r2, r5
   236d0:	462b      	mov	r3, r5
   236d2:	df03      	svc	3
   236d4:	1c60      	adds	r0, r4, #1
   236d6:	a90a      	add	r1, sp, #40	@ 0x28
   236d8:	2224      	movs	r2, #36	@ 0x24
   236da:	f003 fbf0 	bl	26ebe <__aeabi_memcpy>
   236de:	7025      	strb	r5, [r4, #0]
   236e0:	4c05      	ldr	r4, [pc, #20]	@ (236f8 <_ZN18complex_no_dynamic3app17hd545a4e177662dfdE+0xa4>)
   236e2:	4620      	mov	r0, r4
   236e4:	4631      	mov	r1, r6
   236e6:	462a      	mov	r2, r5
   236e8:	462b      	mov	r3, r5
   236ea:	df03      	svc	3
   236ec:	2104      	movs	r1, #4
   236ee:	4620      	mov	r0, r4
   236f0:	462a      	mov	r2, r5
   236f2:	462b      	mov	r3, r5
   236f4:	df04      	svc	4
   236f6:	e7e0      	b.n	236ba <_ZN18complex_no_dynamic3app17hd545a4e177662dfdE+0x66>
   236f8:	00001bd6 	.word	0x00001bd6

000236fc <_ZN18complex_no_dynamic3app17hd8686f6f557fd196E>:
   236fc:	b5f0      	push	{r4, r5, r6, r7, lr}
   236fe:	af03      	add	r7, sp, #12
   23700:	b0a9      	sub	sp, #164	@ 0xa4
   23702:	4604      	mov	r4, r0
   23704:	466d      	mov	r5, sp
   23706:	2651      	movs	r6, #81	@ 0x51
   23708:	4628      	mov	r0, r5
   2370a:	4632      	mov	r2, r6
   2370c:	f003 fbd7 	bl	26ebe <__aeabi_memcpy>
   23710:	a815      	add	r0, sp, #84	@ 0x54
   23712:	214f      	movs	r1, #79	@ 0x4f
   23714:	f003 fa26 	bl	26b64 <__aeabi_memclr4>
   23718:	4821      	ldr	r0, [pc, #132]	@ (237a0 <_ZN18complex_no_dynamic3app17hd8686f6f557fd196E+0xa4>)
   2371a:	2102      	movs	r1, #2
   2371c:	462a      	mov	r2, r5
   2371e:	4633      	mov	r3, r6
   23720:	df04      	svc	4
   23722:	2802      	cmp	r0, #2
   23724:	d00e      	beq.n	23744 <_ZN18complex_no_dynamic3app17hd8686f6f557fd196E+0x48>
   23726:	481e      	ldr	r0, [pc, #120]	@ (237a0 <_ZN18complex_no_dynamic3app17hd8686f6f557fd196E+0xa4>)
   23728:	2104      	movs	r1, #4
   2372a:	aa15      	add	r2, sp, #84	@ 0x54
   2372c:	234f      	movs	r3, #79	@ 0x4f
   2372e:	df03      	svc	3
   23730:	2802      	cmp	r0, #2
   23732:	d007      	beq.n	23744 <_ZN18complex_no_dynamic3app17hd8686f6f557fd196E+0x48>
   23734:	481a      	ldr	r0, [pc, #104]	@ (237a0 <_ZN18complex_no_dynamic3app17hd8686f6f557fd196E+0xa4>)
   23736:	2102      	movs	r1, #2
   23738:	2204      	movs	r2, #4
   2373a:	2500      	movs	r5, #0
   2373c:	462b      	mov	r3, r5
   2373e:	df02      	svc	2
   23740:	287f      	cmp	r0, #127	@ 0x7f
   23742:	d810      	bhi.n	23766 <_ZN18complex_no_dynamic3app17hd8686f6f557fd196E+0x6a>
   23744:	2001      	movs	r0, #1
   23746:	7020      	strb	r0, [r4, #0]
   23748:	6061      	str	r1, [r4, #4]
   2374a:	4c15      	ldr	r4, [pc, #84]	@ (237a0 <_ZN18complex_no_dynamic3app17hd8686f6f557fd196E+0xa4>)
   2374c:	2104      	movs	r1, #4
   2374e:	2500      	movs	r5, #0
   23750:	4620      	mov	r0, r4
   23752:	462a      	mov	r2, r5
   23754:	462b      	mov	r3, r5
   23756:	df03      	svc	3
   23758:	2102      	movs	r1, #2
   2375a:	4620      	mov	r0, r4
   2375c:	462a      	mov	r2, r5
   2375e:	462b      	mov	r3, r5
   23760:	df04      	svc	4
   23762:	b029      	add	sp, #164	@ 0xa4
   23764:	bdf0      	pop	{r4, r5, r6, r7, pc}
   23766:	480e      	ldr	r0, [pc, #56]	@ (237a0 <_ZN18complex_no_dynamic3app17hd8686f6f557fd196E+0xa4>)
   23768:	2604      	movs	r6, #4
   2376a:	4631      	mov	r1, r6
   2376c:	462a      	mov	r2, r5
   2376e:	462b      	mov	r3, r5
   23770:	df03      	svc	3
   23772:	480b      	ldr	r0, [pc, #44]	@ (237a0 <_ZN18complex_no_dynamic3app17hd8686f6f557fd196E+0xa4>)
   23774:	4631      	mov	r1, r6
   23776:	462a      	mov	r2, r5
   23778:	462b      	mov	r3, r5
   2377a:	df03      	svc	3
   2377c:	1c60      	adds	r0, r4, #1
   2377e:	a915      	add	r1, sp, #84	@ 0x54
   23780:	224f      	movs	r2, #79	@ 0x4f
   23782:	f003 fb9c 	bl	26ebe <__aeabi_memcpy>
   23786:	7025      	strb	r5, [r4, #0]
   23788:	4c05      	ldr	r4, [pc, #20]	@ (237a0 <_ZN18complex_no_dynamic3app17hd8686f6f557fd196E+0xa4>)
   2378a:	4620      	mov	r0, r4
   2378c:	4631      	mov	r1, r6
   2378e:	462a      	mov	r2, r5
   23790:	462b      	mov	r3, r5
   23792:	df03      	svc	3
   23794:	2102      	movs	r1, #2
   23796:	4620      	mov	r0, r4
   23798:	462a      	mov	r2, r5
   2379a:	462b      	mov	r3, r5
   2379c:	df04      	svc	4
   2379e:	e7e0      	b.n	23762 <_ZN18complex_no_dynamic3app17hd8686f6f557fd196E+0x66>
   237a0:	00000e16 	.word	0x00000e16

000237a4 <_ZN18complex_no_dynamic3app17hd868cef8d250a7b8E>:
   237a4:	b5f0      	push	{r4, r5, r6, r7, lr}
   237a6:	af03      	add	r7, sp, #12
   237a8:	b095      	sub	sp, #84	@ 0x54
   237aa:	4604      	mov	r4, r0
   237ac:	ad01      	add	r5, sp, #4
   237ae:	2623      	movs	r6, #35	@ 0x23
   237b0:	4628      	mov	r0, r5
   237b2:	4632      	mov	r2, r6
   237b4:	f003 fb83 	bl	26ebe <__aeabi_memcpy>
   237b8:	a80a      	add	r0, sp, #40	@ 0x28
   237ba:	212b      	movs	r1, #43	@ 0x2b
   237bc:	f003 f9d2 	bl	26b64 <__aeabi_memclr4>
   237c0:	4821      	ldr	r0, [pc, #132]	@ (23848 <_ZN18complex_no_dynamic3app17hd868cef8d250a7b8E+0xa4>)
   237c2:	2102      	movs	r1, #2
   237c4:	462a      	mov	r2, r5
   237c6:	4633      	mov	r3, r6
   237c8:	df04      	svc	4
   237ca:	2802      	cmp	r0, #2
   237cc:	d00e      	beq.n	237ec <_ZN18complex_no_dynamic3app17hd868cef8d250a7b8E+0x48>
   237ce:	481e      	ldr	r0, [pc, #120]	@ (23848 <_ZN18complex_no_dynamic3app17hd868cef8d250a7b8E+0xa4>)
   237d0:	2100      	movs	r1, #0
   237d2:	aa0a      	add	r2, sp, #40	@ 0x28
   237d4:	232b      	movs	r3, #43	@ 0x2b
   237d6:	df03      	svc	3
   237d8:	2802      	cmp	r0, #2
   237da:	d007      	beq.n	237ec <_ZN18complex_no_dynamic3app17hd868cef8d250a7b8E+0x48>
   237dc:	481a      	ldr	r0, [pc, #104]	@ (23848 <_ZN18complex_no_dynamic3app17hd868cef8d250a7b8E+0xa4>)
   237de:	2102      	movs	r1, #2
   237e0:	2500      	movs	r5, #0
   237e2:	462a      	mov	r2, r5
   237e4:	462b      	mov	r3, r5
   237e6:	df02      	svc	2
   237e8:	287f      	cmp	r0, #127	@ 0x7f
   237ea:	d810      	bhi.n	2380e <_ZN18complex_no_dynamic3app17hd868cef8d250a7b8E+0x6a>
   237ec:	2001      	movs	r0, #1
   237ee:	7020      	strb	r0, [r4, #0]
   237f0:	6061      	str	r1, [r4, #4]
   237f2:	4c15      	ldr	r4, [pc, #84]	@ (23848 <_ZN18complex_no_dynamic3app17hd868cef8d250a7b8E+0xa4>)
   237f4:	2500      	movs	r5, #0
   237f6:	4620      	mov	r0, r4
   237f8:	4629      	mov	r1, r5
   237fa:	462a      	mov	r2, r5
   237fc:	462b      	mov	r3, r5
   237fe:	df03      	svc	3
   23800:	2102      	movs	r1, #2
   23802:	4620      	mov	r0, r4
   23804:	462a      	mov	r2, r5
   23806:	462b      	mov	r3, r5
   23808:	df04      	svc	4
   2380a:	b015      	add	sp, #84	@ 0x54
   2380c:	bdf0      	pop	{r4, r5, r6, r7, pc}
   2380e:	4e0e      	ldr	r6, [pc, #56]	@ (23848 <_ZN18complex_no_dynamic3app17hd868cef8d250a7b8E+0xa4>)
   23810:	4630      	mov	r0, r6
   23812:	4629      	mov	r1, r5
   23814:	462a      	mov	r2, r5
   23816:	462b      	mov	r3, r5
   23818:	df03      	svc	3
   2381a:	4630      	mov	r0, r6
   2381c:	4629      	mov	r1, r5
   2381e:	462a      	mov	r2, r5
   23820:	462b      	mov	r3, r5
   23822:	df03      	svc	3
   23824:	1c60      	adds	r0, r4, #1
   23826:	a90a      	add	r1, sp, #40	@ 0x28
   23828:	222b      	movs	r2, #43	@ 0x2b
   2382a:	f003 fb48 	bl	26ebe <__aeabi_memcpy>
   2382e:	7025      	strb	r5, [r4, #0]
   23830:	4630      	mov	r0, r6
   23832:	4629      	mov	r1, r5
   23834:	462a      	mov	r2, r5
   23836:	462b      	mov	r3, r5
   23838:	df03      	svc	3
   2383a:	2102      	movs	r1, #2
   2383c:	4630      	mov	r0, r6
   2383e:	462a      	mov	r2, r5
   23840:	462b      	mov	r3, r5
   23842:	df04      	svc	4
   23844:	e7e1      	b.n	2380a <_ZN18complex_no_dynamic3app17hd868cef8d250a7b8E+0x66>
   23846:	46c0      	nop			@ (mov r8, r8)
   23848:	00000d5d 	.word	0x00000d5d

0002384c <_ZN18complex_no_dynamic3app17hdcace00aa05fdd30E>:
   2384c:	b5f0      	push	{r4, r5, r6, r7, lr}
   2384e:	af03      	add	r7, sp, #12
   23850:	b09b      	sub	sp, #108	@ 0x6c
   23852:	4604      	mov	r4, r0
   23854:	ad01      	add	r5, sp, #4
   23856:	2632      	movs	r6, #50	@ 0x32
   23858:	4628      	mov	r0, r5
   2385a:	4632      	mov	r2, r6
   2385c:	f003 fb2f 	bl	26ebe <__aeabi_memcpy>
   23860:	a80e      	add	r0, sp, #56	@ 0x38
   23862:	4631      	mov	r1, r6
   23864:	f003 f97e 	bl	26b64 <__aeabi_memclr4>
   23868:	4821      	ldr	r0, [pc, #132]	@ (238f0 <_ZN18complex_no_dynamic3app17hdcace00aa05fdd30E+0xa4>)
   2386a:	2103      	movs	r1, #3
   2386c:	462a      	mov	r2, r5
   2386e:	4633      	mov	r3, r6
   23870:	df04      	svc	4
   23872:	2802      	cmp	r0, #2
   23874:	d00e      	beq.n	23894 <_ZN18complex_no_dynamic3app17hdcace00aa05fdd30E+0x48>
   23876:	481e      	ldr	r0, [pc, #120]	@ (238f0 <_ZN18complex_no_dynamic3app17hdcace00aa05fdd30E+0xa4>)
   23878:	2101      	movs	r1, #1
   2387a:	aa0e      	add	r2, sp, #56	@ 0x38
   2387c:	2332      	movs	r3, #50	@ 0x32
   2387e:	df03      	svc	3
   23880:	2802      	cmp	r0, #2
   23882:	d007      	beq.n	23894 <_ZN18complex_no_dynamic3app17hdcace00aa05fdd30E+0x48>
   23884:	481a      	ldr	r0, [pc, #104]	@ (238f0 <_ZN18complex_no_dynamic3app17hdcace00aa05fdd30E+0xa4>)
   23886:	2103      	movs	r1, #3
   23888:	2201      	movs	r2, #1
   2388a:	2500      	movs	r5, #0
   2388c:	462b      	mov	r3, r5
   2388e:	df02      	svc	2
   23890:	287f      	cmp	r0, #127	@ 0x7f
   23892:	d810      	bhi.n	238b6 <_ZN18complex_no_dynamic3app17hdcace00aa05fdd30E+0x6a>
   23894:	2201      	movs	r2, #1
   23896:	7022      	strb	r2, [r4, #0]
   23898:	6061      	str	r1, [r4, #4]
   2389a:	4c15      	ldr	r4, [pc, #84]	@ (238f0 <_ZN18complex_no_dynamic3app17hdcace00aa05fdd30E+0xa4>)
   2389c:	2500      	movs	r5, #0
   2389e:	4620      	mov	r0, r4
   238a0:	4611      	mov	r1, r2
   238a2:	462a      	mov	r2, r5
   238a4:	462b      	mov	r3, r5
   238a6:	df03      	svc	3
   238a8:	2103      	movs	r1, #3
   238aa:	4620      	mov	r0, r4
   238ac:	462a      	mov	r2, r5
   238ae:	462b      	mov	r3, r5
   238b0:	df04      	svc	4
   238b2:	b01b      	add	sp, #108	@ 0x6c
   238b4:	bdf0      	pop	{r4, r5, r6, r7, pc}
   238b6:	480e      	ldr	r0, [pc, #56]	@ (238f0 <_ZN18complex_no_dynamic3app17hdcace00aa05fdd30E+0xa4>)
   238b8:	2601      	movs	r6, #1
   238ba:	4631      	mov	r1, r6
   238bc:	462a      	mov	r2, r5
   238be:	462b      	mov	r3, r5
   238c0:	df03      	svc	3
   238c2:	480b      	ldr	r0, [pc, #44]	@ (238f0 <_ZN18complex_no_dynamic3app17hdcace00aa05fdd30E+0xa4>)
   238c4:	4631      	mov	r1, r6
   238c6:	462a      	mov	r2, r5
   238c8:	462b      	mov	r3, r5
   238ca:	df03      	svc	3
   238cc:	1c60      	adds	r0, r4, #1
   238ce:	a90e      	add	r1, sp, #56	@ 0x38
   238d0:	2232      	movs	r2, #50	@ 0x32
   238d2:	f003 faf4 	bl	26ebe <__aeabi_memcpy>
   238d6:	7025      	strb	r5, [r4, #0]
   238d8:	4c05      	ldr	r4, [pc, #20]	@ (238f0 <_ZN18complex_no_dynamic3app17hdcace00aa05fdd30E+0xa4>)
   238da:	4620      	mov	r0, r4
   238dc:	4631      	mov	r1, r6
   238de:	462a      	mov	r2, r5
   238e0:	462b      	mov	r3, r5
   238e2:	df03      	svc	3
   238e4:	2103      	movs	r1, #3
   238e6:	4620      	mov	r0, r4
   238e8:	462a      	mov	r2, r5
   238ea:	462b      	mov	r3, r5
   238ec:	df04      	svc	4
   238ee:	e7e0      	b.n	238b2 <_ZN18complex_no_dynamic3app17hdcace00aa05fdd30E+0x66>
   238f0:	00001f07 	.word	0x00001f07

000238f4 <_ZN18complex_no_dynamic3app17hdf6d64e1105487afE>:
   238f4:	b5f0      	push	{r4, r5, r6, r7, lr}
   238f6:	af03      	add	r7, sp, #12
   238f8:	b09d      	sub	sp, #116	@ 0x74
   238fa:	4604      	mov	r4, r0
   238fc:	ad01      	add	r5, sp, #4
   238fe:	2649      	movs	r6, #73	@ 0x49
   23900:	4628      	mov	r0, r5
   23902:	4632      	mov	r2, r6
   23904:	f003 fadb 	bl	26ebe <__aeabi_memcpy>
   23908:	a814      	add	r0, sp, #80	@ 0x50
   2390a:	2123      	movs	r1, #35	@ 0x23
   2390c:	f003 f92a 	bl	26b64 <__aeabi_memclr4>
   23910:	4821      	ldr	r0, [pc, #132]	@ (23998 <_ZN18complex_no_dynamic3app17hdf6d64e1105487afE+0xa4>)
   23912:	2107      	movs	r1, #7
   23914:	462a      	mov	r2, r5
   23916:	4633      	mov	r3, r6
   23918:	df04      	svc	4
   2391a:	2802      	cmp	r0, #2
   2391c:	d00e      	beq.n	2393c <_ZN18complex_no_dynamic3app17hdf6d64e1105487afE+0x48>
   2391e:	481e      	ldr	r0, [pc, #120]	@ (23998 <_ZN18complex_no_dynamic3app17hdf6d64e1105487afE+0xa4>)
   23920:	2101      	movs	r1, #1
   23922:	aa14      	add	r2, sp, #80	@ 0x50
   23924:	2323      	movs	r3, #35	@ 0x23
   23926:	df03      	svc	3
   23928:	2802      	cmp	r0, #2
   2392a:	d007      	beq.n	2393c <_ZN18complex_no_dynamic3app17hdf6d64e1105487afE+0x48>
   2392c:	481a      	ldr	r0, [pc, #104]	@ (23998 <_ZN18complex_no_dynamic3app17hdf6d64e1105487afE+0xa4>)
   2392e:	2107      	movs	r1, #7
   23930:	2201      	movs	r2, #1
   23932:	2500      	movs	r5, #0
   23934:	462b      	mov	r3, r5
   23936:	df02      	svc	2
   23938:	287f      	cmp	r0, #127	@ 0x7f
   2393a:	d810      	bhi.n	2395e <_ZN18complex_no_dynamic3app17hdf6d64e1105487afE+0x6a>
   2393c:	2201      	movs	r2, #1
   2393e:	7022      	strb	r2, [r4, #0]
   23940:	6061      	str	r1, [r4, #4]
   23942:	4c15      	ldr	r4, [pc, #84]	@ (23998 <_ZN18complex_no_dynamic3app17hdf6d64e1105487afE+0xa4>)
   23944:	2500      	movs	r5, #0
   23946:	4620      	mov	r0, r4
   23948:	4611      	mov	r1, r2
   2394a:	462a      	mov	r2, r5
   2394c:	462b      	mov	r3, r5
   2394e:	df03      	svc	3
   23950:	2107      	movs	r1, #7
   23952:	4620      	mov	r0, r4
   23954:	462a      	mov	r2, r5
   23956:	462b      	mov	r3, r5
   23958:	df04      	svc	4
   2395a:	b01d      	add	sp, #116	@ 0x74
   2395c:	bdf0      	pop	{r4, r5, r6, r7, pc}
   2395e:	480e      	ldr	r0, [pc, #56]	@ (23998 <_ZN18complex_no_dynamic3app17hdf6d64e1105487afE+0xa4>)
   23960:	2601      	movs	r6, #1
   23962:	4631      	mov	r1, r6
   23964:	462a      	mov	r2, r5
   23966:	462b      	mov	r3, r5
   23968:	df03      	svc	3
   2396a:	480b      	ldr	r0, [pc, #44]	@ (23998 <_ZN18complex_no_dynamic3app17hdf6d64e1105487afE+0xa4>)
   2396c:	4631      	mov	r1, r6
   2396e:	462a      	mov	r2, r5
   23970:	462b      	mov	r3, r5
   23972:	df03      	svc	3
   23974:	1c60      	adds	r0, r4, #1
   23976:	a914      	add	r1, sp, #80	@ 0x50
   23978:	2223      	movs	r2, #35	@ 0x23
   2397a:	f003 faa0 	bl	26ebe <__aeabi_memcpy>
   2397e:	7025      	strb	r5, [r4, #0]
   23980:	4c05      	ldr	r4, [pc, #20]	@ (23998 <_ZN18complex_no_dynamic3app17hdf6d64e1105487afE+0xa4>)
   23982:	4620      	mov	r0, r4
   23984:	4631      	mov	r1, r6
   23986:	462a      	mov	r2, r5
   23988:	462b      	mov	r3, r5
   2398a:	df03      	svc	3
   2398c:	2107      	movs	r1, #7
   2398e:	4620      	mov	r0, r4
   23990:	462a      	mov	r2, r5
   23992:	462b      	mov	r3, r5
   23994:	df04      	svc	4
   23996:	e7e0      	b.n	2395a <_ZN18complex_no_dynamic3app17hdf6d64e1105487afE+0x66>
   23998:	00001551 	.word	0x00001551

0002399c <_ZN18complex_no_dynamic3app17he641e211a8c7845cE>:
   2399c:	b5f0      	push	{r4, r5, r6, r7, lr}
   2399e:	af03      	add	r7, sp, #12
   239a0:	b09d      	sub	sp, #116	@ 0x74
   239a2:	4604      	mov	r4, r0
   239a4:	466d      	mov	r5, sp
   239a6:	263c      	movs	r6, #60	@ 0x3c
   239a8:	4628      	mov	r0, r5
   239aa:	4632      	mov	r2, r6
   239ac:	f003 fa87 	bl	26ebe <__aeabi_memcpy>
   239b0:	a80f      	add	r0, sp, #60	@ 0x3c
   239b2:	2138      	movs	r1, #56	@ 0x38
   239b4:	f003 f8d6 	bl	26b64 <__aeabi_memclr4>
   239b8:	4822      	ldr	r0, [pc, #136]	@ (23a44 <_ZN18complex_no_dynamic3app17he641e211a8c7845cE+0xa8>)
   239ba:	2103      	movs	r1, #3
   239bc:	462a      	mov	r2, r5
   239be:	4633      	mov	r3, r6
   239c0:	df04      	svc	4
   239c2:	2802      	cmp	r0, #2
   239c4:	d00e      	beq.n	239e4 <_ZN18complex_no_dynamic3app17he641e211a8c7845cE+0x48>
   239c6:	481f      	ldr	r0, [pc, #124]	@ (23a44 <_ZN18complex_no_dynamic3app17he641e211a8c7845cE+0xa8>)
   239c8:	2103      	movs	r1, #3
   239ca:	aa0f      	add	r2, sp, #60	@ 0x3c
   239cc:	2338      	movs	r3, #56	@ 0x38
   239ce:	df03      	svc	3
   239d0:	2802      	cmp	r0, #2
   239d2:	d007      	beq.n	239e4 <_ZN18complex_no_dynamic3app17he641e211a8c7845cE+0x48>
   239d4:	481b      	ldr	r0, [pc, #108]	@ (23a44 <_ZN18complex_no_dynamic3app17he641e211a8c7845cE+0xa8>)
   239d6:	2103      	movs	r1, #3
   239d8:	2500      	movs	r5, #0
   239da:	460a      	mov	r2, r1
   239dc:	462b      	mov	r3, r5
   239de:	df02      	svc	2
   239e0:	287f      	cmp	r0, #127	@ 0x7f
   239e2:	d811      	bhi.n	23a08 <_ZN18complex_no_dynamic3app17he641e211a8c7845cE+0x6c>
   239e4:	2001      	movs	r0, #1
   239e6:	7020      	strb	r0, [r4, #0]
   239e8:	6061      	str	r1, [r4, #4]
   239ea:	4c16      	ldr	r4, [pc, #88]	@ (23a44 <_ZN18complex_no_dynamic3app17he641e211a8c7845cE+0xa8>)
   239ec:	2503      	movs	r5, #3
   239ee:	2600      	movs	r6, #0
   239f0:	4620      	mov	r0, r4
   239f2:	4629      	mov	r1, r5
   239f4:	4632      	mov	r2, r6
   239f6:	4633      	mov	r3, r6
   239f8:	df03      	svc	3
   239fa:	4620      	mov	r0, r4
   239fc:	4629      	mov	r1, r5
   239fe:	4632      	mov	r2, r6
   23a00:	4633      	mov	r3, r6
   23a02:	df04      	svc	4
   23a04:	b01d      	add	sp, #116	@ 0x74
   23a06:	bdf0      	pop	{r4, r5, r6, r7, pc}
   23a08:	480e      	ldr	r0, [pc, #56]	@ (23a44 <_ZN18complex_no_dynamic3app17he641e211a8c7845cE+0xa8>)
   23a0a:	2603      	movs	r6, #3
   23a0c:	4631      	mov	r1, r6
   23a0e:	462a      	mov	r2, r5
   23a10:	462b      	mov	r3, r5
   23a12:	df03      	svc	3
   23a14:	480b      	ldr	r0, [pc, #44]	@ (23a44 <_ZN18complex_no_dynamic3app17he641e211a8c7845cE+0xa8>)
   23a16:	4631      	mov	r1, r6
   23a18:	462a      	mov	r2, r5
   23a1a:	462b      	mov	r3, r5
   23a1c:	df03      	svc	3
   23a1e:	1c60      	adds	r0, r4, #1
   23a20:	a90f      	add	r1, sp, #60	@ 0x3c
   23a22:	2238      	movs	r2, #56	@ 0x38
   23a24:	f003 fa4b 	bl	26ebe <__aeabi_memcpy>
   23a28:	7025      	strb	r5, [r4, #0]
   23a2a:	4c06      	ldr	r4, [pc, #24]	@ (23a44 <_ZN18complex_no_dynamic3app17he641e211a8c7845cE+0xa8>)
   23a2c:	4620      	mov	r0, r4
   23a2e:	4631      	mov	r1, r6
   23a30:	462a      	mov	r2, r5
   23a32:	462b      	mov	r3, r5
   23a34:	df03      	svc	3
   23a36:	4620      	mov	r0, r4
   23a38:	4631      	mov	r1, r6
   23a3a:	462a      	mov	r2, r5
   23a3c:	462b      	mov	r3, r5
   23a3e:	df04      	svc	4
   23a40:	e7e0      	b.n	23a04 <_ZN18complex_no_dynamic3app17he641e211a8c7845cE+0x68>
   23a42:	46c0      	nop			@ (mov r8, r8)
   23a44:	00001d19 	.word	0x00001d19

00023a48 <_ZN18complex_no_dynamic3app17he85f099ce42c2921E>:
   23a48:	b5f0      	push	{r4, r5, r6, r7, lr}
   23a4a:	af03      	add	r7, sp, #12
   23a4c:	b093      	sub	sp, #76	@ 0x4c
   23a4e:	9000      	str	r0, [sp, #0]
   23a50:	ae01      	add	r6, sp, #4
   23a52:	2410      	movs	r4, #16
   23a54:	4630      	mov	r0, r6
   23a56:	4622      	mov	r2, r4
   23a58:	f003 fa31 	bl	26ebe <__aeabi_memcpy>
   23a5c:	a805      	add	r0, sp, #20
   23a5e:	2136      	movs	r1, #54	@ 0x36
   23a60:	f003 f880 	bl	26b64 <__aeabi_memclr4>
   23a64:	4823      	ldr	r0, [pc, #140]	@ (23af4 <_ZN18complex_no_dynamic3app17he85f099ce42c2921E+0xac>)
   23a66:	2501      	movs	r5, #1
   23a68:	4629      	mov	r1, r5
   23a6a:	4632      	mov	r2, r6
   23a6c:	4623      	mov	r3, r4
   23a6e:	df04      	svc	4
   23a70:	2802      	cmp	r0, #2
   23a72:	d00e      	beq.n	23a92 <_ZN18complex_no_dynamic3app17he85f099ce42c2921E+0x4a>
   23a74:	481f      	ldr	r0, [pc, #124]	@ (23af4 <_ZN18complex_no_dynamic3app17he85f099ce42c2921E+0xac>)
   23a76:	2107      	movs	r1, #7
   23a78:	aa05      	add	r2, sp, #20
   23a7a:	2336      	movs	r3, #54	@ 0x36
   23a7c:	df03      	svc	3
   23a7e:	2802      	cmp	r0, #2
   23a80:	d007      	beq.n	23a92 <_ZN18complex_no_dynamic3app17he85f099ce42c2921E+0x4a>
   23a82:	481c      	ldr	r0, [pc, #112]	@ (23af4 <_ZN18complex_no_dynamic3app17he85f099ce42c2921E+0xac>)
   23a84:	2101      	movs	r1, #1
   23a86:	2207      	movs	r2, #7
   23a88:	2600      	movs	r6, #0
   23a8a:	4633      	mov	r3, r6
   23a8c:	df02      	svc	2
   23a8e:	287f      	cmp	r0, #127	@ 0x7f
   23a90:	d810      	bhi.n	23ab4 <_ZN18complex_no_dynamic3app17he85f099ce42c2921E+0x6c>
   23a92:	9800      	ldr	r0, [sp, #0]
   23a94:	7005      	strb	r5, [r0, #0]
   23a96:	6041      	str	r1, [r0, #4]
   23a98:	4c16      	ldr	r4, [pc, #88]	@ (23af4 <_ZN18complex_no_dynamic3app17he85f099ce42c2921E+0xac>)
   23a9a:	2107      	movs	r1, #7
   23a9c:	2600      	movs	r6, #0
   23a9e:	4620      	mov	r0, r4
   23aa0:	4632      	mov	r2, r6
   23aa2:	4633      	mov	r3, r6
   23aa4:	df03      	svc	3
   23aa6:	4620      	mov	r0, r4
   23aa8:	4629      	mov	r1, r5
   23aaa:	4632      	mov	r2, r6
   23aac:	4633      	mov	r3, r6
   23aae:	df04      	svc	4
   23ab0:	b013      	add	sp, #76	@ 0x4c
   23ab2:	bdf0      	pop	{r4, r5, r6, r7, pc}
   23ab4:	4c0f      	ldr	r4, [pc, #60]	@ (23af4 <_ZN18complex_no_dynamic3app17he85f099ce42c2921E+0xac>)
   23ab6:	2507      	movs	r5, #7
   23ab8:	4620      	mov	r0, r4
   23aba:	4629      	mov	r1, r5
   23abc:	4632      	mov	r2, r6
   23abe:	4633      	mov	r3, r6
   23ac0:	df03      	svc	3
   23ac2:	4620      	mov	r0, r4
   23ac4:	4629      	mov	r1, r5
   23ac6:	4632      	mov	r2, r6
   23ac8:	4633      	mov	r3, r6
   23aca:	df03      	svc	3
   23acc:	9c00      	ldr	r4, [sp, #0]
   23ace:	1c60      	adds	r0, r4, #1
   23ad0:	a905      	add	r1, sp, #20
   23ad2:	2236      	movs	r2, #54	@ 0x36
   23ad4:	f003 f9f3 	bl	26ebe <__aeabi_memcpy>
   23ad8:	7026      	strb	r6, [r4, #0]
   23ada:	4c06      	ldr	r4, [pc, #24]	@ (23af4 <_ZN18complex_no_dynamic3app17he85f099ce42c2921E+0xac>)
   23adc:	4620      	mov	r0, r4
   23ade:	4629      	mov	r1, r5
   23ae0:	4632      	mov	r2, r6
   23ae2:	4633      	mov	r3, r6
   23ae4:	df03      	svc	3
   23ae6:	2101      	movs	r1, #1
   23ae8:	4620      	mov	r0, r4
   23aea:	4632      	mov	r2, r6
   23aec:	4633      	mov	r3, r6
   23aee:	df04      	svc	4
   23af0:	e7de      	b.n	23ab0 <_ZN18complex_no_dynamic3app17he85f099ce42c2921E+0x68>
   23af2:	46c0      	nop			@ (mov r8, r8)
   23af4:	00001989 	.word	0x00001989

00023af8 <_ZN18complex_no_dynamic3app17hea1d416fc613f615E>:
   23af8:	b5f0      	push	{r4, r5, r6, r7, lr}
   23afa:	af03      	add	r7, sp, #12
   23afc:	b095      	sub	sp, #84	@ 0x54
   23afe:	4604      	mov	r4, r0
   23b00:	466d      	mov	r5, sp
   23b02:	2624      	movs	r6, #36	@ 0x24
   23b04:	4628      	mov	r0, r5
   23b06:	4632      	mov	r2, r6
   23b08:	f003 f9d9 	bl	26ebe <__aeabi_memcpy>
   23b0c:	a809      	add	r0, sp, #36	@ 0x24
   23b0e:	212f      	movs	r1, #47	@ 0x2f
   23b10:	f003 f828 	bl	26b64 <__aeabi_memclr4>
   23b14:	4821      	ldr	r0, [pc, #132]	@ (23b9c <_ZN18complex_no_dynamic3app17hea1d416fc613f615E+0xa4>)
   23b16:	2106      	movs	r1, #6
   23b18:	462a      	mov	r2, r5
   23b1a:	4633      	mov	r3, r6
   23b1c:	df04      	svc	4
   23b1e:	2802      	cmp	r0, #2
   23b20:	d00e      	beq.n	23b40 <_ZN18complex_no_dynamic3app17hea1d416fc613f615E+0x48>
   23b22:	481e      	ldr	r0, [pc, #120]	@ (23b9c <_ZN18complex_no_dynamic3app17hea1d416fc613f615E+0xa4>)
   23b24:	2109      	movs	r1, #9
   23b26:	aa09      	add	r2, sp, #36	@ 0x24
   23b28:	232f      	movs	r3, #47	@ 0x2f
   23b2a:	df03      	svc	3
   23b2c:	2802      	cmp	r0, #2
   23b2e:	d007      	beq.n	23b40 <_ZN18complex_no_dynamic3app17hea1d416fc613f615E+0x48>
   23b30:	481a      	ldr	r0, [pc, #104]	@ (23b9c <_ZN18complex_no_dynamic3app17hea1d416fc613f615E+0xa4>)
   23b32:	2106      	movs	r1, #6
   23b34:	2209      	movs	r2, #9
   23b36:	2500      	movs	r5, #0
   23b38:	462b      	mov	r3, r5
   23b3a:	df02      	svc	2
   23b3c:	287f      	cmp	r0, #127	@ 0x7f
   23b3e:	d810      	bhi.n	23b62 <_ZN18complex_no_dynamic3app17hea1d416fc613f615E+0x6a>
   23b40:	2001      	movs	r0, #1
   23b42:	7020      	strb	r0, [r4, #0]
   23b44:	6061      	str	r1, [r4, #4]
   23b46:	4c15      	ldr	r4, [pc, #84]	@ (23b9c <_ZN18complex_no_dynamic3app17hea1d416fc613f615E+0xa4>)
   23b48:	2109      	movs	r1, #9
   23b4a:	2500      	movs	r5, #0
   23b4c:	4620      	mov	r0, r4
   23b4e:	462a      	mov	r2, r5
   23b50:	462b      	mov	r3, r5
   23b52:	df03      	svc	3
   23b54:	2106      	movs	r1, #6
   23b56:	4620      	mov	r0, r4
   23b58:	462a      	mov	r2, r5
   23b5a:	462b      	mov	r3, r5
   23b5c:	df04      	svc	4
   23b5e:	b015      	add	sp, #84	@ 0x54
   23b60:	bdf0      	pop	{r4, r5, r6, r7, pc}
   23b62:	480e      	ldr	r0, [pc, #56]	@ (23b9c <_ZN18complex_no_dynamic3app17hea1d416fc613f615E+0xa4>)
   23b64:	2609      	movs	r6, #9
   23b66:	4631      	mov	r1, r6
   23b68:	462a      	mov	r2, r5
   23b6a:	462b      	mov	r3, r5
   23b6c:	df03      	svc	3
   23b6e:	480b      	ldr	r0, [pc, #44]	@ (23b9c <_ZN18complex_no_dynamic3app17hea1d416fc613f615E+0xa4>)
   23b70:	4631      	mov	r1, r6
   23b72:	462a      	mov	r2, r5
   23b74:	462b      	mov	r3, r5
   23b76:	df03      	svc	3
   23b78:	1c60      	adds	r0, r4, #1
   23b7a:	a909      	add	r1, sp, #36	@ 0x24
   23b7c:	222f      	movs	r2, #47	@ 0x2f
   23b7e:	f003 f99e 	bl	26ebe <__aeabi_memcpy>
   23b82:	7025      	strb	r5, [r4, #0]
   23b84:	4c05      	ldr	r4, [pc, #20]	@ (23b9c <_ZN18complex_no_dynamic3app17hea1d416fc613f615E+0xa4>)
   23b86:	4620      	mov	r0, r4
   23b88:	4631      	mov	r1, r6
   23b8a:	462a      	mov	r2, r5
   23b8c:	462b      	mov	r3, r5
   23b8e:	df03      	svc	3
   23b90:	2106      	movs	r1, #6
   23b92:	4620      	mov	r0, r4
   23b94:	462a      	mov	r2, r5
   23b96:	462b      	mov	r3, r5
   23b98:	df04      	svc	4
   23b9a:	e7e0      	b.n	23b5e <_ZN18complex_no_dynamic3app17hea1d416fc613f615E+0x66>
   23b9c:	00001273 	.word	0x00001273

00023ba0 <_ZN18complex_no_dynamic3app17hf1d55373caa127d8E>:
   23ba0:	b5f0      	push	{r4, r5, r6, r7, lr}
   23ba2:	af03      	add	r7, sp, #12
   23ba4:	b0ab      	sub	sp, #172	@ 0xac
   23ba6:	4604      	mov	r4, r0
   23ba8:	ad01      	add	r5, sp, #4
   23baa:	2659      	movs	r6, #89	@ 0x59
   23bac:	4628      	mov	r0, r5
   23bae:	4632      	mov	r2, r6
   23bb0:	f003 f985 	bl	26ebe <__aeabi_memcpy>
   23bb4:	a818      	add	r0, sp, #96	@ 0x60
   23bb6:	214a      	movs	r1, #74	@ 0x4a
   23bb8:	f002 ffd4 	bl	26b64 <__aeabi_memclr4>
   23bbc:	4821      	ldr	r0, [pc, #132]	@ (23c44 <_ZN18complex_no_dynamic3app17hf1d55373caa127d8E+0xa4>)
   23bbe:	2100      	movs	r1, #0
   23bc0:	462a      	mov	r2, r5
   23bc2:	4633      	mov	r3, r6
   23bc4:	df04      	svc	4
   23bc6:	2802      	cmp	r0, #2
   23bc8:	d00e      	beq.n	23be8 <_ZN18complex_no_dynamic3app17hf1d55373caa127d8E+0x48>
   23bca:	481e      	ldr	r0, [pc, #120]	@ (23c44 <_ZN18complex_no_dynamic3app17hf1d55373caa127d8E+0xa4>)
   23bcc:	2104      	movs	r1, #4
   23bce:	aa18      	add	r2, sp, #96	@ 0x60
   23bd0:	234a      	movs	r3, #74	@ 0x4a
   23bd2:	df03      	svc	3
   23bd4:	2802      	cmp	r0, #2
   23bd6:	d007      	beq.n	23be8 <_ZN18complex_no_dynamic3app17hf1d55373caa127d8E+0x48>
   23bd8:	481a      	ldr	r0, [pc, #104]	@ (23c44 <_ZN18complex_no_dynamic3app17hf1d55373caa127d8E+0xa4>)
   23bda:	2204      	movs	r2, #4
   23bdc:	2500      	movs	r5, #0
   23bde:	4629      	mov	r1, r5
   23be0:	462b      	mov	r3, r5
   23be2:	df02      	svc	2
   23be4:	287f      	cmp	r0, #127	@ 0x7f
   23be6:	d810      	bhi.n	23c0a <_ZN18complex_no_dynamic3app17hf1d55373caa127d8E+0x6a>
   23be8:	2001      	movs	r0, #1
   23bea:	7020      	strb	r0, [r4, #0]
   23bec:	6061      	str	r1, [r4, #4]
   23bee:	4c15      	ldr	r4, [pc, #84]	@ (23c44 <_ZN18complex_no_dynamic3app17hf1d55373caa127d8E+0xa4>)
   23bf0:	2104      	movs	r1, #4
   23bf2:	2500      	movs	r5, #0
   23bf4:	4620      	mov	r0, r4
   23bf6:	462a      	mov	r2, r5
   23bf8:	462b      	mov	r3, r5
   23bfa:	df03      	svc	3
   23bfc:	4620      	mov	r0, r4
   23bfe:	4629      	mov	r1, r5
   23c00:	462a      	mov	r2, r5
   23c02:	462b      	mov	r3, r5
   23c04:	df04      	svc	4
   23c06:	b02b      	add	sp, #172	@ 0xac
   23c08:	bdf0      	pop	{r4, r5, r6, r7, pc}
   23c0a:	480e      	ldr	r0, [pc, #56]	@ (23c44 <_ZN18complex_no_dynamic3app17hf1d55373caa127d8E+0xa4>)
   23c0c:	2604      	movs	r6, #4
   23c0e:	4631      	mov	r1, r6
   23c10:	462a      	mov	r2, r5
   23c12:	462b      	mov	r3, r5
   23c14:	df03      	svc	3
   23c16:	480b      	ldr	r0, [pc, #44]	@ (23c44 <_ZN18complex_no_dynamic3app17hf1d55373caa127d8E+0xa4>)
   23c18:	4631      	mov	r1, r6
   23c1a:	462a      	mov	r2, r5
   23c1c:	462b      	mov	r3, r5
   23c1e:	df03      	svc	3
   23c20:	1c60      	adds	r0, r4, #1
   23c22:	a918      	add	r1, sp, #96	@ 0x60
   23c24:	224a      	movs	r2, #74	@ 0x4a
   23c26:	f003 f94a 	bl	26ebe <__aeabi_memcpy>
   23c2a:	7025      	strb	r5, [r4, #0]
   23c2c:	4c05      	ldr	r4, [pc, #20]	@ (23c44 <_ZN18complex_no_dynamic3app17hf1d55373caa127d8E+0xa4>)
   23c2e:	4620      	mov	r0, r4
   23c30:	4631      	mov	r1, r6
   23c32:	462a      	mov	r2, r5
   23c34:	462b      	mov	r3, r5
   23c36:	df03      	svc	3
   23c38:	4620      	mov	r0, r4
   23c3a:	4629      	mov	r1, r5
   23c3c:	462a      	mov	r2, r5
   23c3e:	462b      	mov	r3, r5
   23c40:	df04      	svc	4
   23c42:	e7e0      	b.n	23c06 <_ZN18complex_no_dynamic3app17hf1d55373caa127d8E+0x66>
   23c44:	00001484 	.word	0x00001484

00023c48 <_ZN18complex_no_dynamic3app17hfaff246afb0c8928E>:
   23c48:	b5f0      	push	{r4, r5, r6, r7, lr}
   23c4a:	af03      	add	r7, sp, #12
   23c4c:	b099      	sub	sp, #100	@ 0x64
   23c4e:	9001      	str	r0, [sp, #4]
   23c50:	ae02      	add	r6, sp, #8
   23c52:	2441      	movs	r4, #65	@ 0x41
   23c54:	4630      	mov	r0, r6
   23c56:	4622      	mov	r2, r4
   23c58:	f003 f931 	bl	26ebe <__aeabi_memcpy>
   23c5c:	a813      	add	r0, sp, #76	@ 0x4c
   23c5e:	2118      	movs	r1, #24
   23c60:	f002 ff80 	bl	26b64 <__aeabi_memclr4>
   23c64:	4823      	ldr	r0, [pc, #140]	@ (23cf4 <_ZN18complex_no_dynamic3app17hfaff246afb0c8928E+0xac>)
   23c66:	2501      	movs	r5, #1
   23c68:	4629      	mov	r1, r5
   23c6a:	4632      	mov	r2, r6
   23c6c:	4623      	mov	r3, r4
   23c6e:	df04      	svc	4
   23c70:	2802      	cmp	r0, #2
   23c72:	d00e      	beq.n	23c92 <_ZN18complex_no_dynamic3app17hfaff246afb0c8928E+0x4a>
   23c74:	481f      	ldr	r0, [pc, #124]	@ (23cf4 <_ZN18complex_no_dynamic3app17hfaff246afb0c8928E+0xac>)
   23c76:	2109      	movs	r1, #9
   23c78:	aa13      	add	r2, sp, #76	@ 0x4c
   23c7a:	2318      	movs	r3, #24
   23c7c:	df03      	svc	3
   23c7e:	2802      	cmp	r0, #2
   23c80:	d007      	beq.n	23c92 <_ZN18complex_no_dynamic3app17hfaff246afb0c8928E+0x4a>
   23c82:	481c      	ldr	r0, [pc, #112]	@ (23cf4 <_ZN18complex_no_dynamic3app17hfaff246afb0c8928E+0xac>)
   23c84:	2101      	movs	r1, #1
   23c86:	2209      	movs	r2, #9
   23c88:	2600      	movs	r6, #0
   23c8a:	4633      	mov	r3, r6
   23c8c:	df02      	svc	2
   23c8e:	287f      	cmp	r0, #127	@ 0x7f
   23c90:	d810      	bhi.n	23cb4 <_ZN18complex_no_dynamic3app17hfaff246afb0c8928E+0x6c>
   23c92:	9801      	ldr	r0, [sp, #4]
   23c94:	7005      	strb	r5, [r0, #0]
   23c96:	6041      	str	r1, [r0, #4]
   23c98:	4c16      	ldr	r4, [pc, #88]	@ (23cf4 <_ZN18complex_no_dynamic3app17hfaff246afb0c8928E+0xac>)
   23c9a:	2109      	movs	r1, #9
   23c9c:	2600      	movs	r6, #0
   23c9e:	4620      	mov	r0, r4
   23ca0:	4632      	mov	r2, r6
   23ca2:	4633      	mov	r3, r6
   23ca4:	df03      	svc	3
   23ca6:	4620      	mov	r0, r4
   23ca8:	4629      	mov	r1, r5
   23caa:	4632      	mov	r2, r6
   23cac:	4633      	mov	r3, r6
   23cae:	df04      	svc	4
   23cb0:	b019      	add	sp, #100	@ 0x64
   23cb2:	bdf0      	pop	{r4, r5, r6, r7, pc}
   23cb4:	4c0f      	ldr	r4, [pc, #60]	@ (23cf4 <_ZN18complex_no_dynamic3app17hfaff246afb0c8928E+0xac>)
   23cb6:	2509      	movs	r5, #9
   23cb8:	4620      	mov	r0, r4
   23cba:	4629      	mov	r1, r5
   23cbc:	4632      	mov	r2, r6
   23cbe:	4633      	mov	r3, r6
   23cc0:	df03      	svc	3
   23cc2:	4620      	mov	r0, r4
   23cc4:	4629      	mov	r1, r5
   23cc6:	4632      	mov	r2, r6
   23cc8:	4633      	mov	r3, r6
   23cca:	df03      	svc	3
   23ccc:	9c01      	ldr	r4, [sp, #4]
   23cce:	1c60      	adds	r0, r4, #1
   23cd0:	a913      	add	r1, sp, #76	@ 0x4c
   23cd2:	2218      	movs	r2, #24
   23cd4:	f003 f8f3 	bl	26ebe <__aeabi_memcpy>
   23cd8:	7026      	strb	r6, [r4, #0]
   23cda:	4c06      	ldr	r4, [pc, #24]	@ (23cf4 <_ZN18complex_no_dynamic3app17hfaff246afb0c8928E+0xac>)
   23cdc:	4620      	mov	r0, r4
   23cde:	4629      	mov	r1, r5
   23ce0:	4632      	mov	r2, r6
   23ce2:	4633      	mov	r3, r6
   23ce4:	df03      	svc	3
   23ce6:	2101      	movs	r1, #1
   23ce8:	4620      	mov	r0, r4
   23cea:	4632      	mov	r2, r6
   23cec:	4633      	mov	r3, r6
   23cee:	df04      	svc	4
   23cf0:	e7de      	b.n	23cb0 <_ZN18complex_no_dynamic3app17hfaff246afb0c8928E+0x68>
   23cf2:	46c0      	nop			@ (mov r8, r8)
   23cf4:	00002156 	.word	0x00002156

00023cf8 <_ZN18complex_no_dynamic3app17hfc274ef127c8e641E>:
   23cf8:	b5f0      	push	{r4, r5, r6, r7, lr}
   23cfa:	af03      	add	r7, sp, #12
   23cfc:	b09f      	sub	sp, #124	@ 0x7c
   23cfe:	4604      	mov	r4, r0
   23d00:	ad01      	add	r5, sp, #4
   23d02:	2627      	movs	r6, #39	@ 0x27
   23d04:	4628      	mov	r0, r5
   23d06:	4632      	mov	r2, r6
   23d08:	f003 f8d9 	bl	26ebe <__aeabi_memcpy>
   23d0c:	a80b      	add	r0, sp, #44	@ 0x2c
   23d0e:	214f      	movs	r1, #79	@ 0x4f
   23d10:	f002 ff28 	bl	26b64 <__aeabi_memclr4>
   23d14:	4821      	ldr	r0, [pc, #132]	@ (23d9c <_ZN18complex_no_dynamic3app17hfc274ef127c8e641E+0xa4>)
   23d16:	2109      	movs	r1, #9
   23d18:	462a      	mov	r2, r5
   23d1a:	4633      	mov	r3, r6
   23d1c:	df04      	svc	4
   23d1e:	2802      	cmp	r0, #2
   23d20:	d00e      	beq.n	23d40 <_ZN18complex_no_dynamic3app17hfc274ef127c8e641E+0x48>
   23d22:	481e      	ldr	r0, [pc, #120]	@ (23d9c <_ZN18complex_no_dynamic3app17hfc274ef127c8e641E+0xa4>)
   23d24:	2100      	movs	r1, #0
   23d26:	aa0b      	add	r2, sp, #44	@ 0x2c
   23d28:	234f      	movs	r3, #79	@ 0x4f
   23d2a:	df03      	svc	3
   23d2c:	2802      	cmp	r0, #2
   23d2e:	d007      	beq.n	23d40 <_ZN18complex_no_dynamic3app17hfc274ef127c8e641E+0x48>
   23d30:	481a      	ldr	r0, [pc, #104]	@ (23d9c <_ZN18complex_no_dynamic3app17hfc274ef127c8e641E+0xa4>)
   23d32:	2109      	movs	r1, #9
   23d34:	2500      	movs	r5, #0
   23d36:	462a      	mov	r2, r5
   23d38:	462b      	mov	r3, r5
   23d3a:	df02      	svc	2
   23d3c:	287f      	cmp	r0, #127	@ 0x7f
   23d3e:	d810      	bhi.n	23d62 <_ZN18complex_no_dynamic3app17hfc274ef127c8e641E+0x6a>
   23d40:	2001      	movs	r0, #1
   23d42:	7020      	strb	r0, [r4, #0]
   23d44:	6061      	str	r1, [r4, #4]
   23d46:	4c15      	ldr	r4, [pc, #84]	@ (23d9c <_ZN18complex_no_dynamic3app17hfc274ef127c8e641E+0xa4>)
   23d48:	2500      	movs	r5, #0
   23d4a:	4620      	mov	r0, r4
   23d4c:	4629      	mov	r1, r5
   23d4e:	462a      	mov	r2, r5
   23d50:	462b      	mov	r3, r5
   23d52:	df03      	svc	3
   23d54:	2109      	movs	r1, #9
   23d56:	4620      	mov	r0, r4
   23d58:	462a      	mov	r2, r5
   23d5a:	462b      	mov	r3, r5
   23d5c:	df04      	svc	4
   23d5e:	b01f      	add	sp, #124	@ 0x7c
   23d60:	bdf0      	pop	{r4, r5, r6, r7, pc}
   23d62:	4e0e      	ldr	r6, [pc, #56]	@ (23d9c <_ZN18complex_no_dynamic3app17hfc274ef127c8e641E+0xa4>)
   23d64:	4630      	mov	r0, r6
   23d66:	4629      	mov	r1, r5
   23d68:	462a      	mov	r2, r5
   23d6a:	462b      	mov	r3, r5
   23d6c:	df03      	svc	3
   23d6e:	4630      	mov	r0, r6
   23d70:	4629      	mov	r1, r5
   23d72:	462a      	mov	r2, r5
   23d74:	462b      	mov	r3, r5
   23d76:	df03      	svc	3
   23d78:	1c60      	adds	r0, r4, #1
   23d7a:	a90b      	add	r1, sp, #44	@ 0x2c
   23d7c:	224f      	movs	r2, #79	@ 0x4f
   23d7e:	f003 f89e 	bl	26ebe <__aeabi_memcpy>
   23d82:	7025      	strb	r5, [r4, #0]
   23d84:	4630      	mov	r0, r6
   23d86:	4629      	mov	r1, r5
   23d88:	462a      	mov	r2, r5
   23d8a:	462b      	mov	r3, r5
   23d8c:	df03      	svc	3
   23d8e:	2109      	movs	r1, #9
   23d90:	4630      	mov	r0, r6
   23d92:	462a      	mov	r2, r5
   23d94:	462b      	mov	r3, r5
   23d96:	df04      	svc	4
   23d98:	e7e1      	b.n	23d5e <_ZN18complex_no_dynamic3app17hfc274ef127c8e641E+0x66>
   23d9a:	46c0      	nop			@ (mov r8, r8)
   23d9c:	00000b4c 	.word	0x00000b4c

00023da0 <_ZN18complex_no_dynamic3app17hff767db9f8b982f7E>:
   23da0:	b5f0      	push	{r4, r5, r6, r7, lr}
   23da2:	af03      	add	r7, sp, #12
   23da4:	b08f      	sub	sp, #60	@ 0x3c
   23da6:	4604      	mov	r4, r0
   23da8:	466d      	mov	r5, sp
   23daa:	262b      	movs	r6, #43	@ 0x2b
   23dac:	4628      	mov	r0, r5
   23dae:	4632      	mov	r2, r6
   23db0:	f003 f885 	bl	26ebe <__aeabi_memcpy>
   23db4:	a80b      	add	r0, sp, #44	@ 0x2c
   23db6:	2100      	movs	r1, #0
   23db8:	7301      	strb	r1, [r0, #12]
   23dba:	910d      	str	r1, [sp, #52]	@ 0x34
   23dbc:	910c      	str	r1, [sp, #48]	@ 0x30
   23dbe:	910b      	str	r1, [sp, #44]	@ 0x2c
   23dc0:	4821      	ldr	r0, [pc, #132]	@ (23e48 <_ZN18complex_no_dynamic3app17hff767db9f8b982f7E+0xa8>)
   23dc2:	2106      	movs	r1, #6
   23dc4:	462a      	mov	r2, r5
   23dc6:	4633      	mov	r3, r6
   23dc8:	df04      	svc	4
   23dca:	2802      	cmp	r0, #2
   23dcc:	d00e      	beq.n	23dec <_ZN18complex_no_dynamic3app17hff767db9f8b982f7E+0x4c>
   23dce:	481e      	ldr	r0, [pc, #120]	@ (23e48 <_ZN18complex_no_dynamic3app17hff767db9f8b982f7E+0xa8>)
   23dd0:	2100      	movs	r1, #0
   23dd2:	aa0b      	add	r2, sp, #44	@ 0x2c
   23dd4:	230d      	movs	r3, #13
   23dd6:	df03      	svc	3
   23dd8:	2802      	cmp	r0, #2
   23dda:	d007      	beq.n	23dec <_ZN18complex_no_dynamic3app17hff767db9f8b982f7E+0x4c>
   23ddc:	481a      	ldr	r0, [pc, #104]	@ (23e48 <_ZN18complex_no_dynamic3app17hff767db9f8b982f7E+0xa8>)
   23dde:	2106      	movs	r1, #6
   23de0:	2500      	movs	r5, #0
   23de2:	462a      	mov	r2, r5
   23de4:	462b      	mov	r3, r5
   23de6:	df02      	svc	2
   23de8:	287f      	cmp	r0, #127	@ 0x7f
   23dea:	d810      	bhi.n	23e0e <_ZN18complex_no_dynamic3app17hff767db9f8b982f7E+0x6e>
   23dec:	2001      	movs	r0, #1
   23dee:	7020      	strb	r0, [r4, #0]
   23df0:	6061      	str	r1, [r4, #4]
   23df2:	4c15      	ldr	r4, [pc, #84]	@ (23e48 <_ZN18complex_no_dynamic3app17hff767db9f8b982f7E+0xa8>)
   23df4:	2500      	movs	r5, #0
   23df6:	4620      	mov	r0, r4
   23df8:	4629      	mov	r1, r5
   23dfa:	462a      	mov	r2, r5
   23dfc:	462b      	mov	r3, r5
   23dfe:	df03      	svc	3
   23e00:	2106      	movs	r1, #6
   23e02:	4620      	mov	r0, r4
   23e04:	462a      	mov	r2, r5
   23e06:	462b      	mov	r3, r5
   23e08:	df04      	svc	4
   23e0a:	b00f      	add	sp, #60	@ 0x3c
   23e0c:	bdf0      	pop	{r4, r5, r6, r7, pc}
   23e0e:	4e0e      	ldr	r6, [pc, #56]	@ (23e48 <_ZN18complex_no_dynamic3app17hff767db9f8b982f7E+0xa8>)
   23e10:	4630      	mov	r0, r6
   23e12:	4629      	mov	r1, r5
   23e14:	462a      	mov	r2, r5
   23e16:	462b      	mov	r3, r5
   23e18:	df03      	svc	3
   23e1a:	4630      	mov	r0, r6
   23e1c:	4629      	mov	r1, r5
   23e1e:	462a      	mov	r2, r5
   23e20:	462b      	mov	r3, r5
   23e22:	df03      	svc	3
   23e24:	1c60      	adds	r0, r4, #1
   23e26:	a90b      	add	r1, sp, #44	@ 0x2c
   23e28:	220d      	movs	r2, #13
   23e2a:	f003 f848 	bl	26ebe <__aeabi_memcpy>
   23e2e:	7025      	strb	r5, [r4, #0]
   23e30:	4630      	mov	r0, r6
   23e32:	4629      	mov	r1, r5
   23e34:	462a      	mov	r2, r5
   23e36:	462b      	mov	r3, r5
   23e38:	df03      	svc	3
   23e3a:	2106      	movs	r1, #6
   23e3c:	4630      	mov	r0, r6
   23e3e:	462a      	mov	r2, r5
   23e40:	462b      	mov	r3, r5
   23e42:	df04      	svc	4
   23e44:	e7e1      	b.n	23e0a <_ZN18complex_no_dynamic3app17hff767db9f8b982f7E+0x6a>
   23e46:	46c0      	nop			@ (mov r8, r8)
   23e48:	00001465 	.word	0x00001465

00023e4c <_ZN18complex_no_dynamic3app17hfff9334723df8368E>:
   23e4c:	b5f0      	push	{r4, r5, r6, r7, lr}
   23e4e:	af03      	add	r7, sp, #12
   23e50:	b0a3      	sub	sp, #140	@ 0x8c
   23e52:	9000      	str	r0, [sp, #0]
   23e54:	ae01      	add	r6, sp, #4
   23e56:	242a      	movs	r4, #42	@ 0x2a
   23e58:	4630      	mov	r0, r6
   23e5a:	4622      	mov	r2, r4
   23e5c:	f003 f82f 	bl	26ebe <__aeabi_memcpy>
   23e60:	a80c      	add	r0, sp, #48	@ 0x30
   23e62:	2159      	movs	r1, #89	@ 0x59
   23e64:	f002 fe7e 	bl	26b64 <__aeabi_memclr4>
   23e68:	4823      	ldr	r0, [pc, #140]	@ (23ef8 <_ZN18complex_no_dynamic3app17hfff9334723df8368E+0xac>)
   23e6a:	2501      	movs	r5, #1
   23e6c:	4629      	mov	r1, r5
   23e6e:	4632      	mov	r2, r6
   23e70:	4623      	mov	r3, r4
   23e72:	df04      	svc	4
   23e74:	2802      	cmp	r0, #2
   23e76:	d00e      	beq.n	23e96 <_ZN18complex_no_dynamic3app17hfff9334723df8368E+0x4a>
   23e78:	481f      	ldr	r0, [pc, #124]	@ (23ef8 <_ZN18complex_no_dynamic3app17hfff9334723df8368E+0xac>)
   23e7a:	2103      	movs	r1, #3
   23e7c:	aa0c      	add	r2, sp, #48	@ 0x30
   23e7e:	2359      	movs	r3, #89	@ 0x59
   23e80:	df03      	svc	3
   23e82:	2802      	cmp	r0, #2
   23e84:	d007      	beq.n	23e96 <_ZN18complex_no_dynamic3app17hfff9334723df8368E+0x4a>
   23e86:	481c      	ldr	r0, [pc, #112]	@ (23ef8 <_ZN18complex_no_dynamic3app17hfff9334723df8368E+0xac>)
   23e88:	2101      	movs	r1, #1
   23e8a:	2203      	movs	r2, #3
   23e8c:	2600      	movs	r6, #0
   23e8e:	4633      	mov	r3, r6
   23e90:	df02      	svc	2
   23e92:	287f      	cmp	r0, #127	@ 0x7f
   23e94:	d810      	bhi.n	23eb8 <_ZN18complex_no_dynamic3app17hfff9334723df8368E+0x6c>
   23e96:	9800      	ldr	r0, [sp, #0]
   23e98:	7005      	strb	r5, [r0, #0]
   23e9a:	6041      	str	r1, [r0, #4]
   23e9c:	4c16      	ldr	r4, [pc, #88]	@ (23ef8 <_ZN18complex_no_dynamic3app17hfff9334723df8368E+0xac>)
   23e9e:	2103      	movs	r1, #3
   23ea0:	2600      	movs	r6, #0
   23ea2:	4620      	mov	r0, r4
   23ea4:	4632      	mov	r2, r6
   23ea6:	4633      	mov	r3, r6
   23ea8:	df03      	svc	3
   23eaa:	4620      	mov	r0, r4
   23eac:	4629      	mov	r1, r5
   23eae:	4632      	mov	r2, r6
   23eb0:	4633      	mov	r3, r6
   23eb2:	df04      	svc	4
   23eb4:	b023      	add	sp, #140	@ 0x8c
   23eb6:	bdf0      	pop	{r4, r5, r6, r7, pc}
   23eb8:	4c0f      	ldr	r4, [pc, #60]	@ (23ef8 <_ZN18complex_no_dynamic3app17hfff9334723df8368E+0xac>)
   23eba:	2503      	movs	r5, #3
   23ebc:	4620      	mov	r0, r4
   23ebe:	4629      	mov	r1, r5
   23ec0:	4632      	mov	r2, r6
   23ec2:	4633      	mov	r3, r6
   23ec4:	df03      	svc	3
   23ec6:	4620      	mov	r0, r4
   23ec8:	4629      	mov	r1, r5
   23eca:	4632      	mov	r2, r6
   23ecc:	4633      	mov	r3, r6
   23ece:	df03      	svc	3
   23ed0:	9c00      	ldr	r4, [sp, #0]
   23ed2:	1c60      	adds	r0, r4, #1
   23ed4:	a90c      	add	r1, sp, #48	@ 0x30
   23ed6:	2259      	movs	r2, #89	@ 0x59
   23ed8:	f002 fff1 	bl	26ebe <__aeabi_memcpy>
   23edc:	7026      	strb	r6, [r4, #0]
   23ede:	4c06      	ldr	r4, [pc, #24]	@ (23ef8 <_ZN18complex_no_dynamic3app17hfff9334723df8368E+0xac>)
   23ee0:	4620      	mov	r0, r4
   23ee2:	4629      	mov	r1, r5
   23ee4:	4632      	mov	r2, r6
   23ee6:	4633      	mov	r3, r6
   23ee8:	df03      	svc	3
   23eea:	2101      	movs	r1, #1
   23eec:	4620      	mov	r0, r4
   23eee:	4632      	mov	r2, r6
   23ef0:	4633      	mov	r3, r6
   23ef2:	df04      	svc	4
   23ef4:	e7de      	b.n	23eb4 <_ZN18complex_no_dynamic3app17hfff9334723df8368E+0x68>
   23ef6:	46c0      	nop			@ (mov r8, r8)
   23ef8:	00000ed2 	.word	0x00000ed2

00023efc <_start>:
   23efc:	b5f0      	push	{r4, r5, r6, r7, lr}
   23efe:	af03      	add	r7, sp, #12
   23f00:	4ec2      	ldr	r6, [pc, #776]	@ (2420c <_start+0x310>)
   23f02:	44b5      	add	sp, r6
   23f04:	4ec2      	ldr	r6, [pc, #776]	@ (24210 <_start+0x314>)
   23f06:	446e      	add	r6, sp
   23f08:	ac0e      	add	r4, sp, #56	@ 0x38
   23f0a:	2528      	movs	r5, #40	@ 0x28
   23f0c:	4620      	mov	r0, r4
   23f0e:	4629      	mov	r1, r5
   23f10:	f002 fe28 	bl	26b64 <__aeabi_memclr4>
   23f14:	48bf      	ldr	r0, [pc, #764]	@ (24214 <_start+0x318>)
   23f16:	4468      	add	r0, sp
   23f18:	2151      	movs	r1, #81	@ 0x51
   23f1a:	f002 fe23 	bl	26b64 <__aeabi_memclr4>
   23f1e:	48be      	ldr	r0, [pc, #760]	@ (24218 <_start+0x31c>)
   23f20:	2109      	movs	r1, #9
   23f22:	4622      	mov	r2, r4
   23f24:	462b      	mov	r3, r5
   23f26:	df04      	svc	4
   23f28:	aa3d      	add	r2, sp, #244	@ 0xf4
   23f2a:	adff      	add	r5, sp, #1020	@ 0x3fc
   23f2c:	35d4      	adds	r5, #212	@ 0xd4
   23f2e:	4cbb      	ldr	r4, [pc, #748]	@ (2421c <_start+0x320>)
   23f30:	446c      	add	r4, sp
   23f32:	2802      	cmp	r0, #2
   23f34:	d00f      	beq.n	23f56 <_start+0x5a>
   23f36:	920b      	str	r2, [sp, #44]	@ 0x2c
   23f38:	48b7      	ldr	r0, [pc, #732]	@ (24218 <_start+0x31c>)
   23f3a:	2109      	movs	r1, #9
   23f3c:	4ab5      	ldr	r2, [pc, #724]	@ (24214 <_start+0x318>)
   23f3e:	446a      	add	r2, sp
   23f40:	2351      	movs	r3, #81	@ 0x51
   23f42:	df03      	svc	3
   23f44:	2802      	cmp	r0, #2
   23f46:	d006      	beq.n	23f56 <_start+0x5a>
   23f48:	48b3      	ldr	r0, [pc, #716]	@ (24218 <_start+0x31c>)
   23f4a:	2109      	movs	r1, #9
   23f4c:	2300      	movs	r3, #0
   23f4e:	460a      	mov	r2, r1
   23f50:	df02      	svc	2
   23f52:	287f      	cmp	r0, #127	@ 0x7f
   23f54:	d814      	bhi.n	23f80 <_start+0x84>
   23f56:	910c      	str	r1, [sp, #48]	@ 0x30
   23f58:	4caf      	ldr	r4, [pc, #700]	@ (24218 <_start+0x31c>)
   23f5a:	2609      	movs	r6, #9
   23f5c:	2500      	movs	r5, #0
   23f5e:	4620      	mov	r0, r4
   23f60:	4631      	mov	r1, r6
   23f62:	462a      	mov	r2, r5
   23f64:	462b      	mov	r3, r5
   23f66:	df03      	svc	3
   23f68:	4620      	mov	r0, r4
   23f6a:	4631      	mov	r1, r6
   23f6c:	462a      	mov	r2, r5
   23f6e:	462b      	mov	r3, r5
   23f70:	df04      	svc	4
   23f72:	2401      	movs	r4, #1
   23f74:	4620      	mov	r0, r4
   23f76:	990c      	ldr	r1, [sp, #48]	@ 0x30
   23f78:	1ffe      	subs	r6, r7, #7
   23f7a:	3e05      	subs	r6, #5
   23f7c:	46b5      	mov	sp, r6
   23f7e:	bdf0      	pop	{r4, r5, r6, r7, pc}
   23f80:	9503      	str	r5, [sp, #12]
   23f82:	9404      	str	r4, [sp, #16]
   23f84:	48a4      	ldr	r0, [pc, #656]	@ (24218 <_start+0x31c>)
   23f86:	4635      	mov	r5, r6
   23f88:	2609      	movs	r6, #9
   23f8a:	2400      	movs	r4, #0
   23f8c:	4631      	mov	r1, r6
   23f8e:	4622      	mov	r2, r4
   23f90:	4623      	mov	r3, r4
   23f92:	df03      	svc	3
   23f94:	48a0      	ldr	r0, [pc, #640]	@ (24218 <_start+0x31c>)
   23f96:	4631      	mov	r1, r6
   23f98:	4622      	mov	r2, r4
   23f9a:	4623      	mov	r3, r4
   23f9c:	df03      	svc	3
   23f9e:	aa0d      	add	r2, sp, #52	@ 0x34
   23fa0:	920c      	str	r2, [sp, #48]	@ 0x30
   23fa2:	9505      	str	r5, [sp, #20]
   23fa4:	6de8      	ldr	r0, [r5, #92]	@ 0x5c
   23fa6:	8010      	strh	r0, [r2, #0]
   23fa8:	489a      	ldr	r0, [pc, #616]	@ (24214 <_start+0x318>)
   23faa:	4468      	add	r0, sp
   23fac:	7881      	ldrb	r1, [r0, #2]
   23fae:	7091      	strb	r1, [r2, #2]
   23fb0:	78c1      	ldrb	r1, [r0, #3]
   23fb2:	910a      	str	r1, [sp, #40]	@ 0x28
   23fb4:	7901      	ldrb	r1, [r0, #4]
   23fb6:	9109      	str	r1, [sp, #36]	@ 0x24
   23fb8:	7941      	ldrb	r1, [r0, #5]
   23fba:	9108      	str	r1, [sp, #32]
   23fbc:	7981      	ldrb	r1, [r0, #6]
   23fbe:	9107      	str	r1, [sp, #28]
   23fc0:	1dc1      	adds	r1, r0, #7
   23fc2:	4d93      	ldr	r5, [pc, #588]	@ (24210 <_start+0x314>)
   23fc4:	446d      	add	r5, sp
   23fc6:	224a      	movs	r2, #74	@ 0x4a
   23fc8:	9206      	str	r2, [sp, #24]
   23fca:	4628      	mov	r0, r5
   23fcc:	f002 ff77 	bl	26ebe <__aeabi_memcpy>
   23fd0:	4891      	ldr	r0, [pc, #580]	@ (24218 <_start+0x31c>)
   23fd2:	4631      	mov	r1, r6
   23fd4:	4622      	mov	r2, r4
   23fd6:	4623      	mov	r3, r4
   23fd8:	df03      	svc	3
   23fda:	488f      	ldr	r0, [pc, #572]	@ (24218 <_start+0x31c>)
   23fdc:	4631      	mov	r1, r6
   23fde:	4622      	mov	r2, r4
   23fe0:	4623      	mov	r3, r4
   23fe2:	df04      	svc	4
   23fe4:	4c8b      	ldr	r4, [pc, #556]	@ (24214 <_start+0x318>)
   23fe6:	446c      	add	r4, sp
   23fe8:	1de0      	adds	r0, r4, #7
   23fea:	4629      	mov	r1, r5
   23fec:	9a06      	ldr	r2, [sp, #24]
   23fee:	f002 ff66 	bl	26ebe <__aeabi_memcpy>
   23ff2:	9807      	ldr	r0, [sp, #28]
   23ff4:	71a0      	strb	r0, [r4, #6]
   23ff6:	9808      	ldr	r0, [sp, #32]
   23ff8:	7160      	strb	r0, [r4, #5]
   23ffa:	9809      	ldr	r0, [sp, #36]	@ 0x24
   23ffc:	7120      	strb	r0, [r4, #4]
   23ffe:	980a      	ldr	r0, [sp, #40]	@ 0x28
   24000:	70e0      	strb	r0, [r4, #3]
   24002:	980d      	ldr	r0, [sp, #52]	@ 0x34
   24004:	8020      	strh	r0, [r4, #0]
   24006:	980c      	ldr	r0, [sp, #48]	@ 0x30
   24008:	7880      	ldrb	r0, [r0, #2]
   2400a:	70a0      	strb	r0, [r4, #2]
   2400c:	4880      	ldr	r0, [pc, #512]	@ (24210 <_start+0x314>)
   2400e:	4468      	add	r0, sp
   24010:	2146      	movs	r1, #70	@ 0x46
   24012:	f002 fda7 	bl	26b64 <__aeabi_memclr4>
   24016:	4882      	ldr	r0, [pc, #520]	@ (24220 <_start+0x324>)
   24018:	2107      	movs	r1, #7
   2401a:	2351      	movs	r3, #81	@ 0x51
   2401c:	4622      	mov	r2, r4
   2401e:	df04      	svc	4
   24020:	2802      	cmp	r0, #2
   24022:	d00e      	beq.n	24042 <_start+0x146>
   24024:	487e      	ldr	r0, [pc, #504]	@ (24220 <_start+0x324>)
   24026:	2100      	movs	r1, #0
   24028:	4a79      	ldr	r2, [pc, #484]	@ (24210 <_start+0x314>)
   2402a:	446a      	add	r2, sp
   2402c:	2346      	movs	r3, #70	@ 0x46
   2402e:	df03      	svc	3
   24030:	2802      	cmp	r0, #2
   24032:	d006      	beq.n	24042 <_start+0x146>
   24034:	487a      	ldr	r0, [pc, #488]	@ (24220 <_start+0x324>)
   24036:	2107      	movs	r1, #7
   24038:	2200      	movs	r2, #0
   2403a:	4613      	mov	r3, r2
   2403c:	df02      	svc	2
   2403e:	287f      	cmp	r0, #127	@ 0x7f
   24040:	d80d      	bhi.n	2405e <_start+0x162>
   24042:	910c      	str	r1, [sp, #48]	@ 0x30
   24044:	4c76      	ldr	r4, [pc, #472]	@ (24220 <_start+0x324>)
   24046:	2500      	movs	r5, #0
   24048:	4620      	mov	r0, r4
   2404a:	4629      	mov	r1, r5
   2404c:	462a      	mov	r2, r5
   2404e:	462b      	mov	r3, r5
   24050:	df03      	svc	3
   24052:	2107      	movs	r1, #7
   24054:	4620      	mov	r0, r4
   24056:	462a      	mov	r2, r5
   24058:	462b      	mov	r3, r5
   2405a:	df04      	svc	4
   2405c:	e789      	b.n	23f72 <_start+0x76>
   2405e:	4d70      	ldr	r5, [pc, #448]	@ (24220 <_start+0x324>)
   24060:	2400      	movs	r4, #0
   24062:	4628      	mov	r0, r5
   24064:	4621      	mov	r1, r4
   24066:	4622      	mov	r2, r4
   24068:	4623      	mov	r3, r4
   2406a:	df03      	svc	3
   2406c:	4628      	mov	r0, r5
   2406e:	4621      	mov	r1, r4
   24070:	4622      	mov	r2, r4
   24072:	4623      	mov	r3, r4
   24074:	df03      	svc	3
   24076:	aa1e      	add	r2, sp, #120	@ 0x78
   24078:	920c      	str	r2, [sp, #48]	@ 0x30
   2407a:	9805      	ldr	r0, [sp, #20]
   2407c:	6800      	ldr	r0, [r0, #0]
   2407e:	8010      	strh	r0, [r2, #0]
   24080:	4863      	ldr	r0, [pc, #396]	@ (24210 <_start+0x314>)
   24082:	4468      	add	r0, sp
   24084:	7881      	ldrb	r1, [r0, #2]
   24086:	7091      	strb	r1, [r2, #2]
   24088:	78c1      	ldrb	r1, [r0, #3]
   2408a:	910a      	str	r1, [sp, #40]	@ 0x28
   2408c:	7901      	ldrb	r1, [r0, #4]
   2408e:	9109      	str	r1, [sp, #36]	@ 0x24
   24090:	7941      	ldrb	r1, [r0, #5]
   24092:	9108      	str	r1, [sp, #32]
   24094:	7981      	ldrb	r1, [r0, #6]
   24096:	9107      	str	r1, [sp, #28]
   24098:	1dc1      	adds	r1, r0, #7
   2409a:	ae0e      	add	r6, sp, #56	@ 0x38
   2409c:	253f      	movs	r5, #63	@ 0x3f
   2409e:	4630      	mov	r0, r6
   240a0:	462a      	mov	r2, r5
   240a2:	f002 ff0c 	bl	26ebe <__aeabi_memcpy>
   240a6:	485e      	ldr	r0, [pc, #376]	@ (24220 <_start+0x324>)
   240a8:	4621      	mov	r1, r4
   240aa:	4622      	mov	r2, r4
   240ac:	4623      	mov	r3, r4
   240ae:	df03      	svc	3
   240b0:	2107      	movs	r1, #7
   240b2:	485b      	ldr	r0, [pc, #364]	@ (24220 <_start+0x324>)
   240b4:	4622      	mov	r2, r4
   240b6:	4623      	mov	r3, r4
   240b8:	df04      	svc	4
   240ba:	4c56      	ldr	r4, [pc, #344]	@ (24214 <_start+0x318>)
   240bc:	446c      	add	r4, sp
   240be:	1de0      	adds	r0, r4, #7
   240c0:	4631      	mov	r1, r6
   240c2:	462a      	mov	r2, r5
   240c4:	f002 fefb 	bl	26ebe <__aeabi_memcpy>
   240c8:	9807      	ldr	r0, [sp, #28]
   240ca:	71a0      	strb	r0, [r4, #6]
   240cc:	9808      	ldr	r0, [sp, #32]
   240ce:	7160      	strb	r0, [r4, #5]
   240d0:	9809      	ldr	r0, [sp, #36]	@ 0x24
   240d2:	7120      	strb	r0, [r4, #4]
   240d4:	980a      	ldr	r0, [sp, #40]	@ 0x28
   240d6:	70e0      	strb	r0, [r4, #3]
   240d8:	981e      	ldr	r0, [sp, #120]	@ 0x78
   240da:	8020      	strh	r0, [r4, #0]
   240dc:	980c      	ldr	r0, [sp, #48]	@ 0x30
   240de:	7880      	ldrb	r0, [r0, #2]
   240e0:	70a0      	strb	r0, [r4, #2]
   240e2:	484b      	ldr	r0, [pc, #300]	@ (24210 <_start+0x314>)
   240e4:	4468      	add	r0, sp
   240e6:	2118      	movs	r1, #24
   240e8:	f002 fd3c 	bl	26b64 <__aeabi_memclr4>
   240ec:	484d      	ldr	r0, [pc, #308]	@ (24224 <_start+0x328>)
   240ee:	2103      	movs	r1, #3
   240f0:	2346      	movs	r3, #70	@ 0x46
   240f2:	4622      	mov	r2, r4
   240f4:	df04      	svc	4
   240f6:	2802      	cmp	r0, #2
   240f8:	d00e      	beq.n	24118 <_start+0x21c>
   240fa:	484a      	ldr	r0, [pc, #296]	@ (24224 <_start+0x328>)
   240fc:	2102      	movs	r1, #2
   240fe:	4a44      	ldr	r2, [pc, #272]	@ (24210 <_start+0x314>)
   24100:	446a      	add	r2, sp
   24102:	2318      	movs	r3, #24
   24104:	df03      	svc	3
   24106:	2802      	cmp	r0, #2
   24108:	d006      	beq.n	24118 <_start+0x21c>
   2410a:	4846      	ldr	r0, [pc, #280]	@ (24224 <_start+0x328>)
   2410c:	2103      	movs	r1, #3
   2410e:	2202      	movs	r2, #2
   24110:	2300      	movs	r3, #0
   24112:	df02      	svc	2
   24114:	287f      	cmp	r0, #127	@ 0x7f
   24116:	d80d      	bhi.n	24134 <_start+0x238>
   24118:	910c      	str	r1, [sp, #48]	@ 0x30
   2411a:	4c42      	ldr	r4, [pc, #264]	@ (24224 <_start+0x328>)
   2411c:	2102      	movs	r1, #2
   2411e:	2500      	movs	r5, #0
   24120:	4620      	mov	r0, r4
   24122:	462a      	mov	r2, r5
   24124:	462b      	mov	r3, r5
   24126:	df03      	svc	3
   24128:	2103      	movs	r1, #3
   2412a:	4620      	mov	r0, r4
   2412c:	462a      	mov	r2, r5
   2412e:	462b      	mov	r3, r5
   24130:	df04      	svc	4
   24132:	e71e      	b.n	23f72 <_start+0x76>
   24134:	4d3b      	ldr	r5, [pc, #236]	@ (24224 <_start+0x328>)
   24136:	2602      	movs	r6, #2
   24138:	2400      	movs	r4, #0
   2413a:	4628      	mov	r0, r5
   2413c:	4631      	mov	r1, r6
   2413e:	4622      	mov	r2, r4
   24140:	4623      	mov	r3, r4
   24142:	df03      	svc	3
   24144:	4628      	mov	r0, r5
   24146:	4631      	mov	r1, r6
   24148:	4622      	mov	r2, r4
   2414a:	4623      	mov	r3, r4
   2414c:	df03      	svc	3
   2414e:	aa24      	add	r2, sp, #144	@ 0x90
   24150:	920c      	str	r2, [sp, #48]	@ 0x30
   24152:	9805      	ldr	r0, [sp, #20]
   24154:	6800      	ldr	r0, [r0, #0]
   24156:	8010      	strh	r0, [r2, #0]
   24158:	482d      	ldr	r0, [pc, #180]	@ (24210 <_start+0x314>)
   2415a:	4468      	add	r0, sp
   2415c:	7881      	ldrb	r1, [r0, #2]
   2415e:	7091      	strb	r1, [r2, #2]
   24160:	78c1      	ldrb	r1, [r0, #3]
   24162:	910a      	str	r1, [sp, #40]	@ 0x28
   24164:	7901      	ldrb	r1, [r0, #4]
   24166:	9109      	str	r1, [sp, #36]	@ 0x24
   24168:	7941      	ldrb	r1, [r0, #5]
   2416a:	9108      	str	r1, [sp, #32]
   2416c:	7981      	ldrb	r1, [r0, #6]
   2416e:	9107      	str	r1, [sp, #28]
   24170:	1dc1      	adds	r1, r0, #7
   24172:	a81f      	add	r0, sp, #124	@ 0x7c
   24174:	9006      	str	r0, [sp, #24]
   24176:	2211      	movs	r2, #17
   24178:	9202      	str	r2, [sp, #8]
   2417a:	f002 fea0 	bl	26ebe <__aeabi_memcpy>
   2417e:	4628      	mov	r0, r5
   24180:	4631      	mov	r1, r6
   24182:	4622      	mov	r2, r4
   24184:	4623      	mov	r3, r4
   24186:	df03      	svc	3
   24188:	2103      	movs	r1, #3
   2418a:	4628      	mov	r0, r5
   2418c:	4622      	mov	r2, r4
   2418e:	4623      	mov	r3, r4
   24190:	df04      	svc	4
   24192:	ad0e      	add	r5, sp, #56	@ 0x38
   24194:	1de8      	adds	r0, r5, #7
   24196:	9906      	ldr	r1, [sp, #24]
   24198:	9a02      	ldr	r2, [sp, #8]
   2419a:	f002 fe90 	bl	26ebe <__aeabi_memcpy>
   2419e:	9807      	ldr	r0, [sp, #28]
   241a0:	71a8      	strb	r0, [r5, #6]
   241a2:	9808      	ldr	r0, [sp, #32]
   241a4:	7168      	strb	r0, [r5, #5]
   241a6:	9809      	ldr	r0, [sp, #36]	@ 0x24
   241a8:	7128      	strb	r0, [r5, #4]
   241aa:	980a      	ldr	r0, [sp, #40]	@ 0x28
   241ac:	70e8      	strb	r0, [r5, #3]
   241ae:	9824      	ldr	r0, [sp, #144]	@ 0x90
   241b0:	8028      	strh	r0, [r5, #0]
   241b2:	980c      	ldr	r0, [sp, #48]	@ 0x30
   241b4:	7880      	ldrb	r0, [r0, #2]
   241b6:	70a8      	strb	r0, [r5, #2]
   241b8:	4816      	ldr	r0, [pc, #88]	@ (24214 <_start+0x318>)
   241ba:	4468      	add	r0, sp
   241bc:	2136      	movs	r1, #54	@ 0x36
   241be:	f002 fcd1 	bl	26b64 <__aeabi_memclr4>
   241c2:	4819      	ldr	r0, [pc, #100]	@ (24228 <_start+0x32c>)
   241c4:	2318      	movs	r3, #24
   241c6:	4621      	mov	r1, r4
   241c8:	462a      	mov	r2, r5
   241ca:	df04      	svc	4
   241cc:	2802      	cmp	r0, #2
   241ce:	d00e      	beq.n	241ee <_start+0x2f2>
   241d0:	4815      	ldr	r0, [pc, #84]	@ (24228 <_start+0x32c>)
   241d2:	2107      	movs	r1, #7
   241d4:	4a0f      	ldr	r2, [pc, #60]	@ (24214 <_start+0x318>)
   241d6:	446a      	add	r2, sp
   241d8:	2336      	movs	r3, #54	@ 0x36
   241da:	df03      	svc	3
   241dc:	2802      	cmp	r0, #2
   241de:	d006      	beq.n	241ee <_start+0x2f2>
   241e0:	4811      	ldr	r0, [pc, #68]	@ (24228 <_start+0x32c>)
   241e2:	2207      	movs	r2, #7
   241e4:	2100      	movs	r1, #0
   241e6:	460b      	mov	r3, r1
   241e8:	df02      	svc	2
   241ea:	287f      	cmp	r0, #127	@ 0x7f
   241ec:	d81e      	bhi.n	2422c <_start+0x330>
   241ee:	910c      	str	r1, [sp, #48]	@ 0x30
   241f0:	4c0d      	ldr	r4, [pc, #52]	@ (24228 <_start+0x32c>)
   241f2:	2107      	movs	r1, #7
   241f4:	2500      	movs	r5, #0
   241f6:	4620      	mov	r0, r4
   241f8:	462a      	mov	r2, r5
   241fa:	462b      	mov	r3, r5
   241fc:	df03      	svc	3
   241fe:	4620      	mov	r0, r4
   24200:	4629      	mov	r1, r5
   24202:	462a      	mov	r2, r5
   24204:	462b      	mov	r3, r5
   24206:	df04      	svc	4
   24208:	e6b3      	b.n	23f72 <_start+0x76>
   2420a:	46c0      	nop			@ (mov r8, r8)
   2420c:	ffffeb14 	.word	0xffffeb14
   24210:	00001370 	.word	0x00001370
   24214:	000013cc 	.word	0x000013cc
   24218:	00002006 	.word	0x00002006
   2421c:	000007a4 	.word	0x000007a4
   24220:	000020c4 	.word	0x000020c4
   24224:	000023cf 	.word	0x000023cf
   24228:	0000021f 	.word	0x0000021f
   2422c:	4e6e      	ldr	r6, [pc, #440]	@ (243e8 <_start+0x4ec>)
   2422e:	2407      	movs	r4, #7
   24230:	940c      	str	r4, [sp, #48]	@ 0x30
   24232:	2500      	movs	r5, #0
   24234:	4630      	mov	r0, r6
   24236:	4621      	mov	r1, r4
   24238:	462a      	mov	r2, r5
   2423a:	462b      	mov	r3, r5
   2423c:	df03      	svc	3
   2423e:	4630      	mov	r0, r6
   24240:	4621      	mov	r1, r4
   24242:	462a      	mov	r2, r5
   24244:	462b      	mov	r3, r5
   24246:	df03      	svc	3
   24248:	aa25      	add	r2, sp, #148	@ 0x94
   2424a:	920a      	str	r2, [sp, #40]	@ 0x28
   2424c:	9805      	ldr	r0, [sp, #20]
   2424e:	6dc0      	ldr	r0, [r0, #92]	@ 0x5c
   24250:	8010      	strh	r0, [r2, #0]
   24252:	4866      	ldr	r0, [pc, #408]	@ (243ec <_start+0x4f0>)
   24254:	4468      	add	r0, sp
   24256:	7881      	ldrb	r1, [r0, #2]
   24258:	7091      	strb	r1, [r2, #2]
   2425a:	78c1      	ldrb	r1, [r0, #3]
   2425c:	9109      	str	r1, [sp, #36]	@ 0x24
   2425e:	7901      	ldrb	r1, [r0, #4]
   24260:	9108      	str	r1, [sp, #32]
   24262:	7941      	ldrb	r1, [r0, #5]
   24264:	9107      	str	r1, [sp, #28]
   24266:	7981      	ldrb	r1, [r0, #6]
   24268:	9106      	str	r1, [sp, #24]
   2426a:	1dc1      	adds	r1, r0, #7
   2426c:	4e60      	ldr	r6, [pc, #384]	@ (243f0 <_start+0x4f4>)
   2426e:	446e      	add	r6, sp
   24270:	242f      	movs	r4, #47	@ 0x2f
   24272:	4630      	mov	r0, r6
   24274:	4622      	mov	r2, r4
   24276:	f002 fe22 	bl	26ebe <__aeabi_memcpy>
   2427a:	485b      	ldr	r0, [pc, #364]	@ (243e8 <_start+0x4ec>)
   2427c:	990c      	ldr	r1, [sp, #48]	@ 0x30
   2427e:	462a      	mov	r2, r5
   24280:	462b      	mov	r3, r5
   24282:	df03      	svc	3
   24284:	4858      	ldr	r0, [pc, #352]	@ (243e8 <_start+0x4ec>)
   24286:	4629      	mov	r1, r5
   24288:	462a      	mov	r2, r5
   2428a:	462b      	mov	r3, r5
   2428c:	df04      	svc	4
   2428e:	4d57      	ldr	r5, [pc, #348]	@ (243ec <_start+0x4f0>)
   24290:	446d      	add	r5, sp
   24292:	1de8      	adds	r0, r5, #7
   24294:	4631      	mov	r1, r6
   24296:	4622      	mov	r2, r4
   24298:	f002 fe11 	bl	26ebe <__aeabi_memcpy>
   2429c:	9806      	ldr	r0, [sp, #24]
   2429e:	71a8      	strb	r0, [r5, #6]
   242a0:	9807      	ldr	r0, [sp, #28]
   242a2:	7168      	strb	r0, [r5, #5]
   242a4:	9808      	ldr	r0, [sp, #32]
   242a6:	7128      	strb	r0, [r5, #4]
   242a8:	9809      	ldr	r0, [sp, #36]	@ 0x24
   242aa:	70e8      	strb	r0, [r5, #3]
   242ac:	9825      	ldr	r0, [sp, #148]	@ 0x94
   242ae:	8028      	strh	r0, [r5, #0]
   242b0:	980a      	ldr	r0, [sp, #40]	@ 0x28
   242b2:	7880      	ldrb	r0, [r0, #2]
   242b4:	70a8      	strb	r0, [r5, #2]
   242b6:	484e      	ldr	r0, [pc, #312]	@ (243f0 <_start+0x4f4>)
   242b8:	4468      	add	r0, sp
   242ba:	2125      	movs	r1, #37	@ 0x25
   242bc:	f002 fc52 	bl	26b64 <__aeabi_memclr4>
   242c0:	484c      	ldr	r0, [pc, #304]	@ (243f4 <_start+0x4f8>)
   242c2:	2336      	movs	r3, #54	@ 0x36
   242c4:	990c      	ldr	r1, [sp, #48]	@ 0x30
   242c6:	462a      	mov	r2, r5
   242c8:	df04      	svc	4
   242ca:	2802      	cmp	r0, #2
   242cc:	d007      	beq.n	242de <_start+0x3e2>
   242ce:	4849      	ldr	r0, [pc, #292]	@ (243f4 <_start+0x4f8>)
   242d0:	2100      	movs	r1, #0
   242d2:	4a47      	ldr	r2, [pc, #284]	@ (243f0 <_start+0x4f4>)
   242d4:	446a      	add	r2, sp
   242d6:	2325      	movs	r3, #37	@ 0x25
   242d8:	df03      	svc	3
   242da:	2802      	cmp	r0, #2
   242dc:	d10d      	bne.n	242fa <_start+0x3fe>
   242de:	910c      	str	r1, [sp, #48]	@ 0x30
   242e0:	4c44      	ldr	r4, [pc, #272]	@ (243f4 <_start+0x4f8>)
   242e2:	2500      	movs	r5, #0
   242e4:	4620      	mov	r0, r4
   242e6:	4629      	mov	r1, r5
   242e8:	462a      	mov	r2, r5
   242ea:	462b      	mov	r3, r5
   242ec:	df03      	svc	3
   242ee:	2107      	movs	r1, #7
   242f0:	4620      	mov	r0, r4
   242f2:	462a      	mov	r2, r5
   242f4:	462b      	mov	r3, r5
   242f6:	df04      	svc	4
   242f8:	e63b      	b.n	23f72 <_start+0x76>
   242fa:	483e      	ldr	r0, [pc, #248]	@ (243f4 <_start+0x4f8>)
   242fc:	2107      	movs	r1, #7
   242fe:	2400      	movs	r4, #0
   24300:	4622      	mov	r2, r4
   24302:	4623      	mov	r3, r4
   24304:	df02      	svc	2
   24306:	910c      	str	r1, [sp, #48]	@ 0x30
   24308:	287f      	cmp	r0, #127	@ 0x7f
   2430a:	d9e9      	bls.n	242e0 <_start+0x3e4>
   2430c:	4d39      	ldr	r5, [pc, #228]	@ (243f4 <_start+0x4f8>)
   2430e:	4628      	mov	r0, r5
   24310:	4621      	mov	r1, r4
   24312:	4622      	mov	r2, r4
   24314:	4623      	mov	r3, r4
   24316:	df03      	svc	3
   24318:	4628      	mov	r0, r5
   2431a:	4621      	mov	r1, r4
   2431c:	4622      	mov	r2, r4
   2431e:	4623      	mov	r3, r4
   24320:	df03      	svc	3
   24322:	aa26      	add	r2, sp, #152	@ 0x98
   24324:	920c      	str	r2, [sp, #48]	@ 0x30
   24326:	9e05      	ldr	r6, [sp, #20]
   24328:	6830      	ldr	r0, [r6, #0]
   2432a:	8010      	strh	r0, [r2, #0]
   2432c:	4830      	ldr	r0, [pc, #192]	@ (243f0 <_start+0x4f4>)
   2432e:	4468      	add	r0, sp
   24330:	7881      	ldrb	r1, [r0, #2]
   24332:	7091      	strb	r1, [r2, #2]
   24334:	78c1      	ldrb	r1, [r0, #3]
   24336:	910a      	str	r1, [sp, #40]	@ 0x28
   24338:	7901      	ldrb	r1, [r0, #4]
   2433a:	9109      	str	r1, [sp, #36]	@ 0x24
   2433c:	7941      	ldrb	r1, [r0, #5]
   2433e:	9108      	str	r1, [sp, #32]
   24340:	7981      	ldrb	r1, [r0, #6]
   24342:	9107      	str	r1, [sp, #28]
   24344:	1dc1      	adds	r1, r0, #7
   24346:	a80e      	add	r0, sp, #56	@ 0x38
   24348:	9006      	str	r0, [sp, #24]
   2434a:	221e      	movs	r2, #30
   2434c:	9202      	str	r2, [sp, #8]
   2434e:	f002 fdb6 	bl	26ebe <__aeabi_memcpy>
   24352:	4628      	mov	r0, r5
   24354:	4621      	mov	r1, r4
   24356:	4622      	mov	r2, r4
   24358:	4623      	mov	r3, r4
   2435a:	df03      	svc	3
   2435c:	2107      	movs	r1, #7
   2435e:	4628      	mov	r0, r5
   24360:	4622      	mov	r2, r4
   24362:	4623      	mov	r3, r4
   24364:	df04      	svc	4
   24366:	4d21      	ldr	r5, [pc, #132]	@ (243ec <_start+0x4f0>)
   24368:	446d      	add	r5, sp
   2436a:	1de8      	adds	r0, r5, #7
   2436c:	9906      	ldr	r1, [sp, #24]
   2436e:	9a02      	ldr	r2, [sp, #8]
   24370:	f002 fda5 	bl	26ebe <__aeabi_memcpy>
   24374:	9807      	ldr	r0, [sp, #28]
   24376:	71a8      	strb	r0, [r5, #6]
   24378:	9808      	ldr	r0, [sp, #32]
   2437a:	7168      	strb	r0, [r5, #5]
   2437c:	9809      	ldr	r0, [sp, #36]	@ 0x24
   2437e:	7128      	strb	r0, [r5, #4]
   24380:	980a      	ldr	r0, [sp, #40]	@ 0x28
   24382:	70e8      	strb	r0, [r5, #3]
   24384:	9826      	ldr	r0, [sp, #152]	@ 0x98
   24386:	8028      	strh	r0, [r5, #0]
   24388:	980c      	ldr	r0, [sp, #48]	@ 0x30
   2438a:	7880      	ldrb	r0, [r0, #2]
   2438c:	70a8      	strb	r0, [r5, #2]
   2438e:	4818      	ldr	r0, [pc, #96]	@ (243f0 <_start+0x4f4>)
   24390:	4468      	add	r0, sp
   24392:	8184      	strh	r4, [r0, #12]
   24394:	6034      	str	r4, [r6, #0]
   24396:	6074      	str	r4, [r6, #4]
   24398:	60b4      	str	r4, [r6, #8]
   2439a:	4817      	ldr	r0, [pc, #92]	@ (243f8 <_start+0x4fc>)
   2439c:	2102      	movs	r1, #2
   2439e:	2325      	movs	r3, #37	@ 0x25
   243a0:	462a      	mov	r2, r5
   243a2:	df04      	svc	4
   243a4:	910c      	str	r1, [sp, #48]	@ 0x30
   243a6:	2802      	cmp	r0, #2
   243a8:	d010      	beq.n	243cc <_start+0x4d0>
   243aa:	4813      	ldr	r0, [pc, #76]	@ (243f8 <_start+0x4fc>)
   243ac:	2108      	movs	r1, #8
   243ae:	4a10      	ldr	r2, [pc, #64]	@ (243f0 <_start+0x4f4>)
   243b0:	446a      	add	r2, sp
   243b2:	230e      	movs	r3, #14
   243b4:	df03      	svc	3
   243b6:	910c      	str	r1, [sp, #48]	@ 0x30
   243b8:	2802      	cmp	r0, #2
   243ba:	d007      	beq.n	243cc <_start+0x4d0>
   243bc:	480e      	ldr	r0, [pc, #56]	@ (243f8 <_start+0x4fc>)
   243be:	2102      	movs	r1, #2
   243c0:	2208      	movs	r2, #8
   243c2:	2300      	movs	r3, #0
   243c4:	df02      	svc	2
   243c6:	910c      	str	r1, [sp, #48]	@ 0x30
   243c8:	287f      	cmp	r0, #127	@ 0x7f
   243ca:	d817      	bhi.n	243fc <_start+0x500>
   243cc:	4c0a      	ldr	r4, [pc, #40]	@ (243f8 <_start+0x4fc>)
   243ce:	2108      	movs	r1, #8
   243d0:	2500      	movs	r5, #0
   243d2:	4620      	mov	r0, r4
   243d4:	462a      	mov	r2, r5
   243d6:	462b      	mov	r3, r5
   243d8:	df03      	svc	3
   243da:	2102      	movs	r1, #2
   243dc:	4620      	mov	r0, r4
   243de:	462a      	mov	r2, r5
   243e0:	462b      	mov	r3, r5
   243e2:	df04      	svc	4
   243e4:	e5c5      	b.n	23f72 <_start+0x76>
   243e6:	46c0      	nop			@ (mov r8, r8)
   243e8:	0000021f 	.word	0x0000021f
   243ec:	000013cc 	.word	0x000013cc
   243f0:	00001370 	.word	0x00001370
   243f4:	00001597 	.word	0x00001597
   243f8:	00000667 	.word	0x00000667
   243fc:	4d22      	ldr	r5, [pc, #136]	@ (24488 <_start+0x58c>)
   243fe:	2608      	movs	r6, #8
   24400:	2400      	movs	r4, #0
   24402:	4628      	mov	r0, r5
   24404:	4631      	mov	r1, r6
   24406:	4622      	mov	r2, r4
   24408:	4623      	mov	r3, r4
   2440a:	df03      	svc	3
   2440c:	4628      	mov	r0, r5
   2440e:	4631      	mov	r1, r6
   24410:	4622      	mov	r2, r4
   24412:	4623      	mov	r3, r4
   24414:	df03      	svc	3
   24416:	ad27      	add	r5, sp, #156	@ 0x9c
   24418:	9805      	ldr	r0, [sp, #20]
   2441a:	6800      	ldr	r0, [r0, #0]
   2441c:	8028      	strh	r0, [r5, #0]
   2441e:	481b      	ldr	r0, [pc, #108]	@ (2448c <_start+0x590>)
   24420:	4468      	add	r0, sp
   24422:	7881      	ldrb	r1, [r0, #2]
   24424:	70a9      	strb	r1, [r5, #2]
   24426:	78c1      	ldrb	r1, [r0, #3]
   24428:	910c      	str	r1, [sp, #48]	@ 0x30
   2442a:	7901      	ldrb	r1, [r0, #4]
   2442c:	910a      	str	r1, [sp, #40]	@ 0x28
   2442e:	7941      	ldrb	r1, [r0, #5]
   24430:	9109      	str	r1, [sp, #36]	@ 0x24
   24432:	7981      	ldrb	r1, [r0, #6]
   24434:	9106      	str	r1, [sp, #24]
   24436:	1dc1      	adds	r1, r0, #7
   24438:	a80e      	add	r0, sp, #56	@ 0x38
   2443a:	9008      	str	r0, [sp, #32]
   2443c:	2207      	movs	r2, #7
   2443e:	9207      	str	r2, [sp, #28]
   24440:	f002 fd3d 	bl	26ebe <__aeabi_memcpy>
   24444:	4810      	ldr	r0, [pc, #64]	@ (24488 <_start+0x58c>)
   24446:	4631      	mov	r1, r6
   24448:	4622      	mov	r2, r4
   2444a:	4623      	mov	r3, r4
   2444c:	df03      	svc	3
   2444e:	2102      	movs	r1, #2
   24450:	480d      	ldr	r0, [pc, #52]	@ (24488 <_start+0x58c>)
   24452:	4622      	mov	r2, r4
   24454:	4623      	mov	r3, r4
   24456:	df04      	svc	4
   24458:	9806      	ldr	r0, [sp, #24]
   2445a:	71a8      	strb	r0, [r5, #6]
   2445c:	9809      	ldr	r0, [sp, #36]	@ 0x24
   2445e:	7168      	strb	r0, [r5, #5]
   24460:	980a      	ldr	r0, [sp, #40]	@ 0x28
   24462:	7128      	strb	r0, [r5, #4]
   24464:	980c      	ldr	r0, [sp, #48]	@ 0x30
   24466:	70e8      	strb	r0, [r5, #3]
   24468:	1de8      	adds	r0, r5, #7
   2446a:	9908      	ldr	r1, [sp, #32]
   2446c:	9a07      	ldr	r2, [sp, #28]
   2446e:	f002 fd26 	bl	26ebe <__aeabi_memcpy>
   24472:	4e07      	ldr	r6, [pc, #28]	@ (24490 <_start+0x594>)
   24474:	446e      	add	r6, sp
   24476:	4630      	mov	r0, r6
   24478:	4629      	mov	r1, r5
   2447a:	f7fe f95b 	bl	22734 <_ZN18complex_no_dynamic3app17h981d7ac0b9234880E>
   2447e:	7830      	ldrb	r0, [r6, #0]
   24480:	2801      	cmp	r0, #1
   24482:	d107      	bne.n	24494 <_start+0x598>
   24484:	f002 fb4a 	bl	26b1c <_start+0x2c20>
   24488:	00000667 	.word	0x00000667
   2448c:	00001370 	.word	0x00001370
   24490:	000013cc 	.word	0x000013cc
   24494:	4915      	ldr	r1, [pc, #84]	@ (244ec <_start+0x5f0>)
   24496:	4469      	add	r1, sp
   24498:	78c8      	ldrb	r0, [r1, #3]
   2449a:	ad2b      	add	r5, sp, #172	@ 0xac
   2449c:	70a8      	strb	r0, [r5, #2]
   2449e:	7848      	ldrb	r0, [r1, #1]
   244a0:	788a      	ldrb	r2, [r1, #2]
   244a2:	0212      	lsls	r2, r2, #8
   244a4:	1810      	adds	r0, r2, r0
   244a6:	8028      	strh	r0, [r5, #0]
   244a8:	9805      	ldr	r0, [sp, #20]
   244aa:	6e06      	ldr	r6, [r0, #96]	@ 0x60
   244ac:	3108      	adds	r1, #8
   244ae:	4810      	ldr	r0, [pc, #64]	@ (244f0 <_start+0x5f4>)
   244b0:	4468      	add	r0, sp
   244b2:	900c      	str	r0, [sp, #48]	@ 0x30
   244b4:	2241      	movs	r2, #65	@ 0x41
   244b6:	920a      	str	r2, [sp, #40]	@ 0x28
   244b8:	f002 fba1 	bl	26bfe <__aeabi_memcpy4>
   244bc:	0e30      	lsrs	r0, r6, #24
   244be:	71a8      	strb	r0, [r5, #6]
   244c0:	0c30      	lsrs	r0, r6, #16
   244c2:	7168      	strb	r0, [r5, #5]
   244c4:	0a30      	lsrs	r0, r6, #8
   244c6:	7128      	strb	r0, [r5, #4]
   244c8:	70ee      	strb	r6, [r5, #3]
   244ca:	1de8      	adds	r0, r5, #7
   244cc:	990c      	ldr	r1, [sp, #48]	@ 0x30
   244ce:	9a0a      	ldr	r2, [sp, #40]	@ 0x28
   244d0:	f002 fcf5 	bl	26ebe <__aeabi_memcpy>
   244d4:	4e05      	ldr	r6, [pc, #20]	@ (244ec <_start+0x5f0>)
   244d6:	446e      	add	r6, sp
   244d8:	4630      	mov	r0, r6
   244da:	4629      	mov	r1, r5
   244dc:	f7fe fa7a 	bl	229d4 <_ZN18complex_no_dynamic3app17haaefbdf9b0dc7369E>
   244e0:	7830      	ldrb	r0, [r6, #0]
   244e2:	2801      	cmp	r0, #1
   244e4:	d106      	bne.n	244f4 <_start+0x5f8>
   244e6:	f002 fb19 	bl	26b1c <_start+0x2c20>
   244ea:	46c0      	nop			@ (mov r8, r8)
   244ec:	000013cc 	.word	0x000013cc
   244f0:	00001370 	.word	0x00001370
   244f4:	980b      	ldr	r0, [sp, #44]	@ 0x2c
   244f6:	1cc0      	adds	r0, r0, #3
   244f8:	4a15      	ldr	r2, [pc, #84]	@ (24550 <_start+0x654>)
   244fa:	446a      	add	r2, sp
   244fc:	78d3      	ldrb	r3, [r2, #3]
   244fe:	a93d      	add	r1, sp, #244	@ 0xf4
   24500:	708b      	strb	r3, [r1, #2]
   24502:	7853      	ldrb	r3, [r2, #1]
   24504:	7892      	ldrb	r2, [r2, #2]
   24506:	0212      	lsls	r2, r2, #8
   24508:	18d2      	adds	r2, r2, r3
   2450a:	800a      	strh	r2, [r1, #0]
   2450c:	9d05      	ldr	r5, [sp, #20]
   2450e:	3560      	adds	r5, #96	@ 0x60
   24510:	cd2c      	ldmia	r5, {r2, r3, r5}
   24512:	0e2e      	lsrs	r6, r5, #24
   24514:	72c6      	strb	r6, [r0, #11]
   24516:	0c2e      	lsrs	r6, r5, #16
   24518:	7286      	strb	r6, [r0, #10]
   2451a:	0a2e      	lsrs	r6, r5, #8
   2451c:	7246      	strb	r6, [r0, #9]
   2451e:	7205      	strb	r5, [r0, #8]
   24520:	0e1d      	lsrs	r5, r3, #24
   24522:	71c5      	strb	r5, [r0, #7]
   24524:	0c1d      	lsrs	r5, r3, #16
   24526:	7185      	strb	r5, [r0, #6]
   24528:	0a1d      	lsrs	r5, r3, #8
   2452a:	7145      	strb	r5, [r0, #5]
   2452c:	7103      	strb	r3, [r0, #4]
   2452e:	0e13      	lsrs	r3, r2, #24
   24530:	70c3      	strb	r3, [r0, #3]
   24532:	0c13      	lsrs	r3, r2, #16
   24534:	7083      	strb	r3, [r0, #2]
   24536:	0a13      	lsrs	r3, r2, #8
   24538:	7043      	strb	r3, [r0, #1]
   2453a:	7002      	strb	r2, [r0, #0]
   2453c:	4d04      	ldr	r5, [pc, #16]	@ (24550 <_start+0x654>)
   2453e:	446d      	add	r5, sp
   24540:	4628      	mov	r0, r5
   24542:	f7fe f851 	bl	225e8 <_ZN18complex_no_dynamic3app17h8d5e4248870b5f5dE>
   24546:	7828      	ldrb	r0, [r5, #0]
   24548:	2801      	cmp	r0, #1
   2454a:	d103      	bne.n	24554 <_start+0x658>
   2454c:	f002 fae6 	bl	26b1c <_start+0x2c20>
   24550:	000013cc 	.word	0x000013cc
   24554:	4818      	ldr	r0, [pc, #96]	@ (245b8 <_start+0x6bc>)
   24556:	4468      	add	r0, sp
   24558:	78c1      	ldrb	r1, [r0, #3]
   2455a:	ab41      	add	r3, sp, #260	@ 0x104
   2455c:	930b      	str	r3, [sp, #44]	@ 0x2c
   2455e:	7099      	strb	r1, [r3, #2]
   24560:	7841      	ldrb	r1, [r0, #1]
   24562:	7882      	ldrb	r2, [r0, #2]
   24564:	0212      	lsls	r2, r2, #8
   24566:	1851      	adds	r1, r2, r1
   24568:	8019      	strh	r1, [r3, #0]
   2456a:	3008      	adds	r0, #8
   2456c:	9905      	ldr	r1, [sp, #20]
   2456e:	6e09      	ldr	r1, [r1, #96]	@ 0x60
   24570:	910a      	str	r1, [sp, #40]	@ 0x28
   24572:	4b12      	ldr	r3, [pc, #72]	@ (245bc <_start+0x6c0>)
   24574:	446b      	add	r3, sp
   24576:	930c      	str	r3, [sp, #48]	@ 0x30
   24578:	c846      	ldmia	r0!, {r1, r2, r6}
   2457a:	c346      	stmia	r3!, {r1, r2, r6}
   2457c:	c866      	ldmia	r0!, {r1, r2, r5, r6}
   2457e:	c366      	stmia	r3!, {r1, r2, r5, r6}
   24580:	8800      	ldrh	r0, [r0, #0]
   24582:	8018      	strh	r0, [r3, #0]
   24584:	990a      	ldr	r1, [sp, #40]	@ 0x28
   24586:	0e08      	lsrs	r0, r1, #24
   24588:	9d0b      	ldr	r5, [sp, #44]	@ 0x2c
   2458a:	71a8      	strb	r0, [r5, #6]
   2458c:	0c08      	lsrs	r0, r1, #16
   2458e:	7168      	strb	r0, [r5, #5]
   24590:	0a08      	lsrs	r0, r1, #8
   24592:	7128      	strb	r0, [r5, #4]
   24594:	70e9      	strb	r1, [r5, #3]
   24596:	1de8      	adds	r0, r5, #7
   24598:	221e      	movs	r2, #30
   2459a:	990c      	ldr	r1, [sp, #48]	@ 0x30
   2459c:	f002 fc8f 	bl	26ebe <__aeabi_memcpy>
   245a0:	4e05      	ldr	r6, [pc, #20]	@ (245b8 <_start+0x6bc>)
   245a2:	446e      	add	r6, sp
   245a4:	4630      	mov	r0, r6
   245a6:	4629      	mov	r1, r5
   245a8:	f7fc f9e4 	bl	20974 <_ZN18complex_no_dynamic3app17h21d319115fef0353E>
   245ac:	7830      	ldrb	r0, [r6, #0]
   245ae:	2801      	cmp	r0, #1
   245b0:	d106      	bne.n	245c0 <_start+0x6c4>
   245b2:	f002 fab3 	bl	26b1c <_start+0x2c20>
   245b6:	46c0      	nop			@ (mov r8, r8)
   245b8:	000013cc 	.word	0x000013cc
   245bc:	00001370 	.word	0x00001370
   245c0:	4819      	ldr	r0, [pc, #100]	@ (24628 <_start+0x72c>)
   245c2:	4468      	add	r0, sp
   245c4:	78c1      	ldrb	r1, [r0, #3]
   245c6:	ab4b      	add	r3, sp, #300	@ 0x12c
   245c8:	930b      	str	r3, [sp, #44]	@ 0x2c
   245ca:	7099      	strb	r1, [r3, #2]
   245cc:	7841      	ldrb	r1, [r0, #1]
   245ce:	7882      	ldrb	r2, [r0, #2]
   245d0:	0212      	lsls	r2, r2, #8
   245d2:	1851      	adds	r1, r2, r1
   245d4:	8019      	strh	r1, [r3, #0]
   245d6:	3008      	adds	r0, #8
   245d8:	9905      	ldr	r1, [sp, #20]
   245da:	6e09      	ldr	r1, [r1, #96]	@ 0x60
   245dc:	910a      	str	r1, [sp, #40]	@ 0x28
   245de:	4b13      	ldr	r3, [pc, #76]	@ (2462c <_start+0x730>)
   245e0:	446b      	add	r3, sp
   245e2:	930c      	str	r3, [sp, #48]	@ 0x30
   245e4:	c866      	ldmia	r0!, {r1, r2, r5, r6}
   245e6:	c366      	stmia	r3!, {r1, r2, r5, r6}
   245e8:	c866      	ldmia	r0!, {r1, r2, r5, r6}
   245ea:	c366      	stmia	r3!, {r1, r2, r5, r6}
   245ec:	8801      	ldrh	r1, [r0, #0]
   245ee:	8019      	strh	r1, [r3, #0]
   245f0:	7880      	ldrb	r0, [r0, #2]
   245f2:	7098      	strb	r0, [r3, #2]
   245f4:	990a      	ldr	r1, [sp, #40]	@ 0x28
   245f6:	0e08      	lsrs	r0, r1, #24
   245f8:	9d0b      	ldr	r5, [sp, #44]	@ 0x2c
   245fa:	71a8      	strb	r0, [r5, #6]
   245fc:	0c08      	lsrs	r0, r1, #16
   245fe:	7168      	strb	r0, [r5, #5]
   24600:	0a08      	lsrs	r0, r1, #8
   24602:	7128      	strb	r0, [r5, #4]
   24604:	70e9      	strb	r1, [r5, #3]
   24606:	1de8      	adds	r0, r5, #7
   24608:	2223      	movs	r2, #35	@ 0x23
   2460a:	990c      	ldr	r1, [sp, #48]	@ 0x30
   2460c:	f002 fc57 	bl	26ebe <__aeabi_memcpy>
   24610:	4e05      	ldr	r6, [pc, #20]	@ (24628 <_start+0x72c>)
   24612:	446e      	add	r6, sp
   24614:	4630      	mov	r0, r6
   24616:	4629      	mov	r1, r5
   24618:	f7fc fcf8 	bl	2100c <_ZN18complex_no_dynamic3app17h381a43028e199004E>
   2461c:	7830      	ldrb	r0, [r6, #0]
   2461e:	2801      	cmp	r0, #1
   24620:	d106      	bne.n	24630 <_start+0x734>
   24622:	f002 fa7b 	bl	26b1c <_start+0x2c20>
   24626:	46c0      	nop			@ (mov r8, r8)
   24628:	000013cc 	.word	0x000013cc
   2462c:	00001370 	.word	0x00001370
   24630:	4915      	ldr	r1, [pc, #84]	@ (24688 <_start+0x78c>)
   24632:	4469      	add	r1, sp
   24634:	78c8      	ldrb	r0, [r1, #3]
   24636:	ad56      	add	r5, sp, #344	@ 0x158
   24638:	70a8      	strb	r0, [r5, #2]
   2463a:	7848      	ldrb	r0, [r1, #1]
   2463c:	788a      	ldrb	r2, [r1, #2]
   2463e:	0212      	lsls	r2, r2, #8
   24640:	1810      	adds	r0, r2, r0
   24642:	8028      	strh	r0, [r5, #0]
   24644:	9805      	ldr	r0, [sp, #20]
   24646:	6e06      	ldr	r6, [r0, #96]	@ 0x60
   24648:	3108      	adds	r1, #8
   2464a:	4810      	ldr	r0, [pc, #64]	@ (2468c <_start+0x790>)
   2464c:	4468      	add	r0, sp
   2464e:	900c      	str	r0, [sp, #48]	@ 0x30
   24650:	225c      	movs	r2, #92	@ 0x5c
   24652:	920b      	str	r2, [sp, #44]	@ 0x2c
   24654:	f002 fad3 	bl	26bfe <__aeabi_memcpy4>
   24658:	0e30      	lsrs	r0, r6, #24
   2465a:	71a8      	strb	r0, [r5, #6]
   2465c:	0c30      	lsrs	r0, r6, #16
   2465e:	7168      	strb	r0, [r5, #5]
   24660:	0a30      	lsrs	r0, r6, #8
   24662:	7128      	strb	r0, [r5, #4]
   24664:	70ee      	strb	r6, [r5, #3]
   24666:	1de8      	adds	r0, r5, #7
   24668:	990c      	ldr	r1, [sp, #48]	@ 0x30
   2466a:	9a0b      	ldr	r2, [sp, #44]	@ 0x2c
   2466c:	f002 fc27 	bl	26ebe <__aeabi_memcpy>
   24670:	4e05      	ldr	r6, [pc, #20]	@ (24688 <_start+0x78c>)
   24672:	446e      	add	r6, sp
   24674:	4630      	mov	r0, r6
   24676:	4629      	mov	r1, r5
   24678:	f7fe fca2 	bl	22fc0 <_ZN18complex_no_dynamic3app17hc2307b06b5a36202E>
   2467c:	7830      	ldrb	r0, [r6, #0]
   2467e:	2801      	cmp	r0, #1
   24680:	d106      	bne.n	24690 <_start+0x794>
   24682:	f002 fa4b 	bl	26b1c <_start+0x2c20>
   24686:	46c0      	nop			@ (mov r8, r8)
   24688:	000013cc 	.word	0x000013cc
   2468c:	00001370 	.word	0x00001370
   24690:	4817      	ldr	r0, [pc, #92]	@ (246f0 <_start+0x7f4>)
   24692:	4468      	add	r0, sp
   24694:	78c1      	ldrb	r1, [r0, #3]
   24696:	ab6f      	add	r3, sp, #444	@ 0x1bc
   24698:	930b      	str	r3, [sp, #44]	@ 0x2c
   2469a:	7099      	strb	r1, [r3, #2]
   2469c:	7841      	ldrb	r1, [r0, #1]
   2469e:	7882      	ldrb	r2, [r0, #2]
   246a0:	0212      	lsls	r2, r2, #8
   246a2:	1851      	adds	r1, r2, r1
   246a4:	8019      	strh	r1, [r3, #0]
   246a6:	3008      	adds	r0, #8
   246a8:	9905      	ldr	r1, [sp, #20]
   246aa:	6e09      	ldr	r1, [r1, #96]	@ 0x60
   246ac:	910a      	str	r1, [sp, #40]	@ 0x28
   246ae:	4b11      	ldr	r3, [pc, #68]	@ (246f4 <_start+0x7f8>)
   246b0:	446b      	add	r3, sp
   246b2:	930c      	str	r3, [sp, #48]	@ 0x30
   246b4:	c866      	ldmia	r0!, {r1, r2, r5, r6}
   246b6:	c366      	stmia	r3!, {r1, r2, r5, r6}
   246b8:	c866      	ldmia	r0!, {r1, r2, r5, r6}
   246ba:	c366      	stmia	r3!, {r1, r2, r5, r6}
   246bc:	990a      	ldr	r1, [sp, #40]	@ 0x28
   246be:	0e08      	lsrs	r0, r1, #24
   246c0:	9d0b      	ldr	r5, [sp, #44]	@ 0x2c
   246c2:	71a8      	strb	r0, [r5, #6]
   246c4:	0c08      	lsrs	r0, r1, #16
   246c6:	7168      	strb	r0, [r5, #5]
   246c8:	0a08      	lsrs	r0, r1, #8
   246ca:	7128      	strb	r0, [r5, #4]
   246cc:	70e9      	strb	r1, [r5, #3]
   246ce:	1de8      	adds	r0, r5, #7
   246d0:	2220      	movs	r2, #32
   246d2:	990c      	ldr	r1, [sp, #48]	@ 0x30
   246d4:	f002 fbf3 	bl	26ebe <__aeabi_memcpy>
   246d8:	4e05      	ldr	r6, [pc, #20]	@ (246f0 <_start+0x7f4>)
   246da:	446e      	add	r6, sp
   246dc:	4630      	mov	r0, r6
   246de:	4629      	mov	r1, r5
   246e0:	f7fc fb96 	bl	20e10 <_ZN18complex_no_dynamic3app17h2b2f27df6c44a9d8E>
   246e4:	7830      	ldrb	r0, [r6, #0]
   246e6:	2801      	cmp	r0, #1
   246e8:	d106      	bne.n	246f8 <_start+0x7fc>
   246ea:	f002 fa17 	bl	26b1c <_start+0x2c20>
   246ee:	46c0      	nop			@ (mov r8, r8)
   246f0:	000013cc 	.word	0x000013cc
   246f4:	00001370 	.word	0x00001370
   246f8:	4818      	ldr	r0, [pc, #96]	@ (2475c <_start+0x860>)
   246fa:	4468      	add	r0, sp
   246fc:	78c1      	ldrb	r1, [r0, #3]
   246fe:	ad79      	add	r5, sp, #484	@ 0x1e4
   24700:	70a9      	strb	r1, [r5, #2]
   24702:	7841      	ldrb	r1, [r0, #1]
   24704:	7882      	ldrb	r2, [r0, #2]
   24706:	0212      	lsls	r2, r2, #8
   24708:	1851      	adds	r1, r2, r1
   2470a:	8029      	strh	r1, [r5, #0]
   2470c:	3008      	adds	r0, #8
   2470e:	9905      	ldr	r1, [sp, #20]
   24710:	6e09      	ldr	r1, [r1, #96]	@ 0x60
   24712:	910b      	str	r1, [sp, #44]	@ 0x2c
   24714:	4b12      	ldr	r3, [pc, #72]	@ (24760 <_start+0x864>)
   24716:	446b      	add	r3, sp
   24718:	930c      	str	r3, [sp, #48]	@ 0x30
   2471a:	c844      	ldmia	r0!, {r2, r6}
   2471c:	c344      	stmia	r3!, {r2, r6}
   2471e:	c846      	ldmia	r0!, {r1, r2, r6}
   24720:	c346      	stmia	r3!, {r1, r2, r6}
   24722:	8801      	ldrh	r1, [r0, #0]
   24724:	8019      	strh	r1, [r3, #0]
   24726:	7880      	ldrb	r0, [r0, #2]
   24728:	7098      	strb	r0, [r3, #2]
   2472a:	990b      	ldr	r1, [sp, #44]	@ 0x2c
   2472c:	0e08      	lsrs	r0, r1, #24
   2472e:	71a8      	strb	r0, [r5, #6]
   24730:	0c08      	lsrs	r0, r1, #16
   24732:	7168      	strb	r0, [r5, #5]
   24734:	0a08      	lsrs	r0, r1, #8
   24736:	7128      	strb	r0, [r5, #4]
   24738:	70e9      	strb	r1, [r5, #3]
   2473a:	1de8      	adds	r0, r5, #7
   2473c:	2217      	movs	r2, #23
   2473e:	990c      	ldr	r1, [sp, #48]	@ 0x30
   24740:	f002 fbbd 	bl	26ebe <__aeabi_memcpy>
   24744:	4e05      	ldr	r6, [pc, #20]	@ (2475c <_start+0x860>)
   24746:	446e      	add	r6, sp
   24748:	4630      	mov	r0, r6
   2474a:	4629      	mov	r1, r5
   2474c:	f7fe fe32 	bl	233b4 <_ZN18complex_no_dynamic3app17hc917e79fbea9b424E>
   24750:	7830      	ldrb	r0, [r6, #0]
   24752:	2801      	cmp	r0, #1
   24754:	d106      	bne.n	24764 <_start+0x868>
   24756:	f002 f9e1 	bl	26b1c <_start+0x2c20>
   2475a:	46c0      	nop			@ (mov r8, r8)
   2475c:	000013cc 	.word	0x000013cc
   24760:	00001370 	.word	0x00001370
   24764:	4818      	ldr	r0, [pc, #96]	@ (247c8 <_start+0x8cc>)
   24766:	4468      	add	r0, sp
   24768:	78c1      	ldrb	r1, [r0, #3]
   2476a:	ad81      	add	r5, sp, #516	@ 0x204
   2476c:	70a9      	strb	r1, [r5, #2]
   2476e:	7841      	ldrb	r1, [r0, #1]
   24770:	7882      	ldrb	r2, [r0, #2]
   24772:	0212      	lsls	r2, r2, #8
   24774:	1851      	adds	r1, r2, r1
   24776:	8029      	strh	r1, [r5, #0]
   24778:	3008      	adds	r0, #8
   2477a:	9905      	ldr	r1, [sp, #20]
   2477c:	6e09      	ldr	r1, [r1, #96]	@ 0x60
   2477e:	910b      	str	r1, [sp, #44]	@ 0x2c
   24780:	4b12      	ldr	r3, [pc, #72]	@ (247cc <_start+0x8d0>)
   24782:	446b      	add	r3, sp
   24784:	930c      	str	r3, [sp, #48]	@ 0x30
   24786:	c846      	ldmia	r0!, {r1, r2, r6}
   24788:	c346      	stmia	r3!, {r1, r2, r6}
   2478a:	c846      	ldmia	r0!, {r1, r2, r6}
   2478c:	c346      	stmia	r3!, {r1, r2, r6}
   2478e:	c846      	ldmia	r0!, {r1, r2, r6}
   24790:	c346      	stmia	r3!, {r1, r2, r6}
   24792:	7800      	ldrb	r0, [r0, #0]
   24794:	7018      	strb	r0, [r3, #0]
   24796:	990b      	ldr	r1, [sp, #44]	@ 0x2c
   24798:	0e08      	lsrs	r0, r1, #24
   2479a:	71a8      	strb	r0, [r5, #6]
   2479c:	0c08      	lsrs	r0, r1, #16
   2479e:	7168      	strb	r0, [r5, #5]
   247a0:	0a08      	lsrs	r0, r1, #8
   247a2:	7128      	strb	r0, [r5, #4]
   247a4:	70e9      	strb	r1, [r5, #3]
   247a6:	1de8      	adds	r0, r5, #7
   247a8:	2225      	movs	r2, #37	@ 0x25
   247aa:	990c      	ldr	r1, [sp, #48]	@ 0x30
   247ac:	f002 fb87 	bl	26ebe <__aeabi_memcpy>
   247b0:	4e05      	ldr	r6, [pc, #20]	@ (247c8 <_start+0x8cc>)
   247b2:	446e      	add	r6, sp
   247b4:	4630      	mov	r0, r6
   247b6:	4629      	mov	r1, r5
   247b8:	f7fc fcd0 	bl	2115c <_ZN18complex_no_dynamic3app17h3b717e1c980e4639E>
   247bc:	7830      	ldrb	r0, [r6, #0]
   247be:	2801      	cmp	r0, #1
   247c0:	d106      	bne.n	247d0 <_start+0x8d4>
   247c2:	f002 f9ab 	bl	26b1c <_start+0x2c20>
   247c6:	46c0      	nop			@ (mov r8, r8)
   247c8:	000013cc 	.word	0x000013cc
   247cc:	00001370 	.word	0x00001370
   247d0:	4818      	ldr	r0, [pc, #96]	@ (24834 <_start+0x938>)
   247d2:	4468      	add	r0, sp
   247d4:	78c1      	ldrb	r1, [r0, #3]
   247d6:	ab8c      	add	r3, sp, #560	@ 0x230
   247d8:	930b      	str	r3, [sp, #44]	@ 0x2c
   247da:	7099      	strb	r1, [r3, #2]
   247dc:	7841      	ldrb	r1, [r0, #1]
   247de:	7882      	ldrb	r2, [r0, #2]
   247e0:	0212      	lsls	r2, r2, #8
   247e2:	1851      	adds	r1, r2, r1
   247e4:	8019      	strh	r1, [r3, #0]
   247e6:	3008      	adds	r0, #8
   247e8:	9905      	ldr	r1, [sp, #20]
   247ea:	6e09      	ldr	r1, [r1, #96]	@ 0x60
   247ec:	910a      	str	r1, [sp, #40]	@ 0x28
   247ee:	4b12      	ldr	r3, [pc, #72]	@ (24838 <_start+0x93c>)
   247f0:	446b      	add	r3, sp
   247f2:	930c      	str	r3, [sp, #48]	@ 0x30
   247f4:	c846      	ldmia	r0!, {r1, r2, r6}
   247f6:	c346      	stmia	r3!, {r1, r2, r6}
   247f8:	c866      	ldmia	r0!, {r1, r2, r5, r6}
   247fa:	c366      	stmia	r3!, {r1, r2, r5, r6}
   247fc:	8800      	ldrh	r0, [r0, #0]
   247fe:	8018      	strh	r0, [r3, #0]
   24800:	990a      	ldr	r1, [sp, #40]	@ 0x28
   24802:	0e08      	lsrs	r0, r1, #24
   24804:	9d0b      	ldr	r5, [sp, #44]	@ 0x2c
   24806:	71a8      	strb	r0, [r5, #6]
   24808:	0c08      	lsrs	r0, r1, #16
   2480a:	7168      	strb	r0, [r5, #5]
   2480c:	0a08      	lsrs	r0, r1, #8
   2480e:	7128      	strb	r0, [r5, #4]
   24810:	70e9      	strb	r1, [r5, #3]
   24812:	1de8      	adds	r0, r5, #7
   24814:	221e      	movs	r2, #30
   24816:	990c      	ldr	r1, [sp, #48]	@ 0x30
   24818:	f002 fb51 	bl	26ebe <__aeabi_memcpy>
   2481c:	4e05      	ldr	r6, [pc, #20]	@ (24834 <_start+0x938>)
   2481e:	446e      	add	r6, sp
   24820:	4630      	mov	r0, r6
   24822:	4629      	mov	r1, r5
   24824:	f7fb fd5a 	bl	202dc <_ZN18complex_no_dynamic3app17h0aab77c2117b2104E>
   24828:	7830      	ldrb	r0, [r6, #0]
   2482a:	2801      	cmp	r0, #1
   2482c:	d106      	bne.n	2483c <_start+0x940>
   2482e:	f002 f975 	bl	26b1c <_start+0x2c20>
   24832:	46c0      	nop			@ (mov r8, r8)
   24834:	000013cc 	.word	0x000013cc
   24838:	00001370 	.word	0x00001370
   2483c:	4819      	ldr	r0, [pc, #100]	@ (248a4 <_start+0x9a8>)
   2483e:	4468      	add	r0, sp
   24840:	78c1      	ldrb	r1, [r0, #3]
   24842:	ab96      	add	r3, sp, #600	@ 0x258
   24844:	9309      	str	r3, [sp, #36]	@ 0x24
   24846:	7099      	strb	r1, [r3, #2]
   24848:	7841      	ldrb	r1, [r0, #1]
   2484a:	7882      	ldrb	r2, [r0, #2]
   2484c:	0212      	lsls	r2, r2, #8
   2484e:	1851      	adds	r1, r2, r1
   24850:	8019      	strh	r1, [r3, #0]
   24852:	3008      	adds	r0, #8
   24854:	9905      	ldr	r1, [sp, #20]
   24856:	6e09      	ldr	r1, [r1, #96]	@ 0x60
   24858:	910a      	str	r1, [sp, #40]	@ 0x28
   2485a:	4913      	ldr	r1, [pc, #76]	@ (248a8 <_start+0x9ac>)
   2485c:	4469      	add	r1, sp
   2485e:	910b      	str	r1, [sp, #44]	@ 0x2c
   24860:	910c      	str	r1, [sp, #48]	@ 0x30
   24862:	9d0c      	ldr	r5, [sp, #48]	@ 0x30
   24864:	c84e      	ldmia	r0!, {r1, r2, r3, r6}
   24866:	c54e      	stmia	r5!, {r1, r2, r3, r6}
   24868:	950c      	str	r5, [sp, #48]	@ 0x30
   2486a:	7800      	ldrb	r0, [r0, #0]
   2486c:	990c      	ldr	r1, [sp, #48]	@ 0x30
   2486e:	7008      	strb	r0, [r1, #0]
   24870:	990a      	ldr	r1, [sp, #40]	@ 0x28
   24872:	0e08      	lsrs	r0, r1, #24
   24874:	9d09      	ldr	r5, [sp, #36]	@ 0x24
   24876:	71a8      	strb	r0, [r5, #6]
   24878:	0c08      	lsrs	r0, r1, #16
   2487a:	7168      	strb	r0, [r5, #5]
   2487c:	0a08      	lsrs	r0, r1, #8
   2487e:	7128      	strb	r0, [r5, #4]
   24880:	70e9      	strb	r1, [r5, #3]
   24882:	1de8      	adds	r0, r5, #7
   24884:	2211      	movs	r2, #17
   24886:	990b      	ldr	r1, [sp, #44]	@ 0x2c
   24888:	f002 fb19 	bl	26ebe <__aeabi_memcpy>
   2488c:	4e05      	ldr	r6, [pc, #20]	@ (248a4 <_start+0x9a8>)
   2488e:	446e      	add	r6, sp
   24890:	4630      	mov	r0, r6
   24892:	4629      	mov	r1, r5
   24894:	f7fc fe60 	bl	21558 <_ZN18complex_no_dynamic3app17h4bb1658525f9893cE>
   24898:	7830      	ldrb	r0, [r6, #0]
   2489a:	2801      	cmp	r0, #1
   2489c:	d106      	bne.n	248ac <_start+0x9b0>
   2489e:	f002 f93d 	bl	26b1c <_start+0x2c20>
   248a2:	46c0      	nop			@ (mov r8, r8)
   248a4:	000013cc 	.word	0x000013cc
   248a8:	00001370 	.word	0x00001370
   248ac:	481a      	ldr	r0, [pc, #104]	@ (24918 <_start+0xa1c>)
   248ae:	4468      	add	r0, sp
   248b0:	78c1      	ldrb	r1, [r0, #3]
   248b2:	ab9c      	add	r3, sp, #624	@ 0x270
   248b4:	930b      	str	r3, [sp, #44]	@ 0x2c
   248b6:	7099      	strb	r1, [r3, #2]
   248b8:	7841      	ldrb	r1, [r0, #1]
   248ba:	7882      	ldrb	r2, [r0, #2]
   248bc:	0212      	lsls	r2, r2, #8
   248be:	1851      	adds	r1, r2, r1
   248c0:	8019      	strh	r1, [r3, #0]
   248c2:	3008      	adds	r0, #8
   248c4:	9905      	ldr	r1, [sp, #20]
   248c6:	6e09      	ldr	r1, [r1, #96]	@ 0x60
   248c8:	910a      	str	r1, [sp, #40]	@ 0x28
   248ca:	4b14      	ldr	r3, [pc, #80]	@ (2491c <_start+0xa20>)
   248cc:	446b      	add	r3, sp
   248ce:	930c      	str	r3, [sp, #48]	@ 0x30
   248d0:	c846      	ldmia	r0!, {r1, r2, r6}
   248d2:	c346      	stmia	r3!, {r1, r2, r6}
   248d4:	c866      	ldmia	r0!, {r1, r2, r5, r6}
   248d6:	c366      	stmia	r3!, {r1, r2, r5, r6}
   248d8:	c866      	ldmia	r0!, {r1, r2, r5, r6}
   248da:	c366      	stmia	r3!, {r1, r2, r5, r6}
   248dc:	8801      	ldrh	r1, [r0, #0]
   248de:	8019      	strh	r1, [r3, #0]
   248e0:	7880      	ldrb	r0, [r0, #2]
   248e2:	7098      	strb	r0, [r3, #2]
   248e4:	990a      	ldr	r1, [sp, #40]	@ 0x28
   248e6:	0e08      	lsrs	r0, r1, #24
   248e8:	9d0b      	ldr	r5, [sp, #44]	@ 0x2c
   248ea:	71a8      	strb	r0, [r5, #6]
   248ec:	0c08      	lsrs	r0, r1, #16
   248ee:	7168      	strb	r0, [r5, #5]
   248f0:	0a08      	lsrs	r0, r1, #8
   248f2:	7128      	strb	r0, [r5, #4]
   248f4:	70e9      	strb	r1, [r5, #3]
   248f6:	1de8      	adds	r0, r5, #7
   248f8:	222f      	movs	r2, #47	@ 0x2f
   248fa:	990c      	ldr	r1, [sp, #48]	@ 0x30
   248fc:	f002 fadf 	bl	26ebe <__aeabi_memcpy>
   24900:	4e05      	ldr	r6, [pc, #20]	@ (24918 <_start+0xa1c>)
   24902:	446e      	add	r6, sp
   24904:	4630      	mov	r0, r6
   24906:	4629      	mov	r1, r5
   24908:	f7fc fe7a 	bl	21600 <_ZN18complex_no_dynamic3app17h4f97b56c2c107d8eE>
   2490c:	7830      	ldrb	r0, [r6, #0]
   2490e:	2801      	cmp	r0, #1
   24910:	d106      	bne.n	24920 <_start+0xa24>
   24912:	f002 f903 	bl	26b1c <_start+0x2c20>
   24916:	46c0      	nop			@ (mov r8, r8)
   24918:	000013cc 	.word	0x000013cc
   2491c:	00001370 	.word	0x00001370
   24920:	4819      	ldr	r0, [pc, #100]	@ (24988 <_start+0xa8c>)
   24922:	4468      	add	r0, sp
   24924:	78c1      	ldrb	r1, [r0, #3]
   24926:	abaa      	add	r3, sp, #680	@ 0x2a8
   24928:	930b      	str	r3, [sp, #44]	@ 0x2c
   2492a:	7099      	strb	r1, [r3, #2]
   2492c:	7841      	ldrb	r1, [r0, #1]
   2492e:	7882      	ldrb	r2, [r0, #2]
   24930:	0212      	lsls	r2, r2, #8
   24932:	1851      	adds	r1, r2, r1
   24934:	8019      	strh	r1, [r3, #0]
   24936:	3008      	adds	r0, #8
   24938:	9905      	ldr	r1, [sp, #20]
   2493a:	6e09      	ldr	r1, [r1, #96]	@ 0x60
   2493c:	910a      	str	r1, [sp, #40]	@ 0x28
   2493e:	4b13      	ldr	r3, [pc, #76]	@ (2498c <_start+0xa90>)
   24940:	446b      	add	r3, sp
   24942:	930c      	str	r3, [sp, #48]	@ 0x30
   24944:	c846      	ldmia	r0!, {r1, r2, r6}
   24946:	c346      	stmia	r3!, {r1, r2, r6}
   24948:	c866      	ldmia	r0!, {r1, r2, r5, r6}
   2494a:	c366      	stmia	r3!, {r1, r2, r5, r6}
   2494c:	c866      	ldmia	r0!, {r1, r2, r5, r6}
   2494e:	c366      	stmia	r3!, {r1, r2, r5, r6}
   24950:	7800      	ldrb	r0, [r0, #0]
   24952:	7018      	strb	r0, [r3, #0]
   24954:	990a      	ldr	r1, [sp, #40]	@ 0x28
   24956:	0e08      	lsrs	r0, r1, #24
   24958:	9d0b      	ldr	r5, [sp, #44]	@ 0x2c
   2495a:	71a8      	strb	r0, [r5, #6]
   2495c:	0c08      	lsrs	r0, r1, #16
   2495e:	7168      	strb	r0, [r5, #5]
   24960:	0a08      	lsrs	r0, r1, #8
   24962:	7128      	strb	r0, [r5, #4]
   24964:	70e9      	strb	r1, [r5, #3]
   24966:	1de8      	adds	r0, r5, #7
   24968:	222d      	movs	r2, #45	@ 0x2d
   2496a:	990c      	ldr	r1, [sp, #48]	@ 0x30
   2496c:	f002 faa7 	bl	26ebe <__aeabi_memcpy>
   24970:	4e05      	ldr	r6, [pc, #20]	@ (24988 <_start+0xa8c>)
   24972:	446e      	add	r6, sp
   24974:	4630      	mov	r0, r6
   24976:	4629      	mov	r1, r5
   24978:	f7fd ff84 	bl	22884 <_ZN18complex_no_dynamic3app17ha0862d7df5111015E>
   2497c:	7830      	ldrb	r0, [r6, #0]
   2497e:	2801      	cmp	r0, #1
   24980:	d106      	bne.n	24990 <_start+0xa94>
   24982:	f002 f8cb 	bl	26b1c <_start+0x2c20>
   24986:	46c0      	nop			@ (mov r8, r8)
   24988:	000013cc 	.word	0x000013cc
   2498c:	00001370 	.word	0x00001370
   24990:	4819      	ldr	r0, [pc, #100]	@ (249f8 <_start+0xafc>)
   24992:	4468      	add	r0, sp
   24994:	78c1      	ldrb	r1, [r0, #3]
   24996:	adb7      	add	r5, sp, #732	@ 0x2dc
   24998:	70a9      	strb	r1, [r5, #2]
   2499a:	7841      	ldrb	r1, [r0, #1]
   2499c:	7882      	ldrb	r2, [r0, #2]
   2499e:	0212      	lsls	r2, r2, #8
   249a0:	1851      	adds	r1, r2, r1
   249a2:	8029      	strh	r1, [r5, #0]
   249a4:	3008      	adds	r0, #8
   249a6:	9905      	ldr	r1, [sp, #20]
   249a8:	6e09      	ldr	r1, [r1, #96]	@ 0x60
   249aa:	910b      	str	r1, [sp, #44]	@ 0x2c
   249ac:	4b13      	ldr	r3, [pc, #76]	@ (249fc <_start+0xb00>)
   249ae:	446b      	add	r3, sp
   249b0:	930c      	str	r3, [sp, #48]	@ 0x30
   249b2:	c846      	ldmia	r0!, {r1, r2, r6}
   249b4:	c346      	stmia	r3!, {r1, r2, r6}
   249b6:	c846      	ldmia	r0!, {r1, r2, r6}
   249b8:	c346      	stmia	r3!, {r1, r2, r6}
   249ba:	c846      	ldmia	r0!, {r1, r2, r6}
   249bc:	c346      	stmia	r3!, {r1, r2, r6}
   249be:	8801      	ldrh	r1, [r0, #0]
   249c0:	8019      	strh	r1, [r3, #0]
   249c2:	7880      	ldrb	r0, [r0, #2]
   249c4:	7098      	strb	r0, [r3, #2]
   249c6:	990b      	ldr	r1, [sp, #44]	@ 0x2c
   249c8:	0e08      	lsrs	r0, r1, #24
   249ca:	71a8      	strb	r0, [r5, #6]
   249cc:	0c08      	lsrs	r0, r1, #16
   249ce:	7168      	strb	r0, [r5, #5]
   249d0:	0a08      	lsrs	r0, r1, #8
   249d2:	7128      	strb	r0, [r5, #4]
   249d4:	70e9      	strb	r1, [r5, #3]
   249d6:	1de8      	adds	r0, r5, #7
   249d8:	2227      	movs	r2, #39	@ 0x27
   249da:	990c      	ldr	r1, [sp, #48]	@ 0x30
   249dc:	f002 fa6f 	bl	26ebe <__aeabi_memcpy>
   249e0:	4e05      	ldr	r6, [pc, #20]	@ (249f8 <_start+0xafc>)
   249e2:	446e      	add	r6, sp
   249e4:	4630      	mov	r0, r6
   249e6:	4629      	mov	r1, r5
   249e8:	f7fc fc60 	bl	212ac <_ZN18complex_no_dynamic3app17h4732c704800a1c50E>
   249ec:	7830      	ldrb	r0, [r6, #0]
   249ee:	2801      	cmp	r0, #1
   249f0:	d106      	bne.n	24a00 <_start+0xb04>
   249f2:	f002 f893 	bl	26b1c <_start+0x2c20>
   249f6:	46c0      	nop			@ (mov r8, r8)
   249f8:	000013cc 	.word	0x000013cc
   249fc:	00001370 	.word	0x00001370
   24a00:	4819      	ldr	r0, [pc, #100]	@ (24a68 <_start+0xb6c>)
   24a02:	4468      	add	r0, sp
   24a04:	78c1      	ldrb	r1, [r0, #3]
   24a06:	abc3      	add	r3, sp, #780	@ 0x30c
   24a08:	930b      	str	r3, [sp, #44]	@ 0x2c
   24a0a:	7099      	strb	r1, [r3, #2]
   24a0c:	7841      	ldrb	r1, [r0, #1]
   24a0e:	7882      	ldrb	r2, [r0, #2]
   24a10:	0212      	lsls	r2, r2, #8
   24a12:	1851      	adds	r1, r2, r1
   24a14:	8019      	strh	r1, [r3, #0]
   24a16:	3008      	adds	r0, #8
   24a18:	9905      	ldr	r1, [sp, #20]
   24a1a:	6e09      	ldr	r1, [r1, #96]	@ 0x60
   24a1c:	910a      	str	r1, [sp, #40]	@ 0x28
   24a1e:	4b13      	ldr	r3, [pc, #76]	@ (24a6c <_start+0xb70>)
   24a20:	446b      	add	r3, sp
   24a22:	930c      	str	r3, [sp, #48]	@ 0x30
   24a24:	c866      	ldmia	r0!, {r1, r2, r5, r6}
   24a26:	c366      	stmia	r3!, {r1, r2, r5, r6}
   24a28:	c866      	ldmia	r0!, {r1, r2, r5, r6}
   24a2a:	c366      	stmia	r3!, {r1, r2, r5, r6}
   24a2c:	c866      	ldmia	r0!, {r1, r2, r5, r6}
   24a2e:	c366      	stmia	r3!, {r1, r2, r5, r6}
   24a30:	7800      	ldrb	r0, [r0, #0]
   24a32:	7018      	strb	r0, [r3, #0]
   24a34:	990a      	ldr	r1, [sp, #40]	@ 0x28
   24a36:	0e08      	lsrs	r0, r1, #24
   24a38:	9d0b      	ldr	r5, [sp, #44]	@ 0x2c
   24a3a:	71a8      	strb	r0, [r5, #6]
   24a3c:	0c08      	lsrs	r0, r1, #16
   24a3e:	7168      	strb	r0, [r5, #5]
   24a40:	0a08      	lsrs	r0, r1, #8
   24a42:	7128      	strb	r0, [r5, #4]
   24a44:	70e9      	strb	r1, [r5, #3]
   24a46:	1de8      	adds	r0, r5, #7
   24a48:	2231      	movs	r2, #49	@ 0x31
   24a4a:	990c      	ldr	r1, [sp, #48]	@ 0x30
   24a4c:	f002 fa37 	bl	26ebe <__aeabi_memcpy>
   24a50:	4e05      	ldr	r6, [pc, #20]	@ (24a68 <_start+0xb6c>)
   24a52:	446e      	add	r6, sp
   24a54:	4630      	mov	r0, r6
   24a56:	4629      	mov	r1, r5
   24a58:	f7fd fb20 	bl	2209c <_ZN18complex_no_dynamic3app17h7842d248845782fcE>
   24a5c:	7830      	ldrb	r0, [r6, #0]
   24a5e:	2801      	cmp	r0, #1
   24a60:	d106      	bne.n	24a70 <_start+0xb74>
   24a62:	f002 f85b 	bl	26b1c <_start+0x2c20>
   24a66:	46c0      	nop			@ (mov r8, r8)
   24a68:	000013cc 	.word	0x000013cc
   24a6c:	00001370 	.word	0x00001370
   24a70:	4819      	ldr	r0, [pc, #100]	@ (24ad8 <_start+0xbdc>)
   24a72:	4468      	add	r0, sp
   24a74:	78c1      	ldrb	r1, [r0, #3]
   24a76:	abd1      	add	r3, sp, #836	@ 0x344
   24a78:	930b      	str	r3, [sp, #44]	@ 0x2c
   24a7a:	7099      	strb	r1, [r3, #2]
   24a7c:	7841      	ldrb	r1, [r0, #1]
   24a7e:	7882      	ldrb	r2, [r0, #2]
   24a80:	0212      	lsls	r2, r2, #8
   24a82:	1851      	adds	r1, r2, r1
   24a84:	8019      	strh	r1, [r3, #0]
   24a86:	3008      	adds	r0, #8
   24a88:	9905      	ldr	r1, [sp, #20]
   24a8a:	6e09      	ldr	r1, [r1, #96]	@ 0x60
   24a8c:	910a      	str	r1, [sp, #40]	@ 0x28
   24a8e:	4b13      	ldr	r3, [pc, #76]	@ (24adc <_start+0xbe0>)
   24a90:	446b      	add	r3, sp
   24a92:	930c      	str	r3, [sp, #48]	@ 0x30
   24a94:	c846      	ldmia	r0!, {r1, r2, r6}
   24a96:	c346      	stmia	r3!, {r1, r2, r6}
   24a98:	c866      	ldmia	r0!, {r1, r2, r5, r6}
   24a9a:	c366      	stmia	r3!, {r1, r2, r5, r6}
   24a9c:	c866      	ldmia	r0!, {r1, r2, r5, r6}
   24a9e:	c366      	stmia	r3!, {r1, r2, r5, r6}
   24aa0:	7800      	ldrb	r0, [r0, #0]
   24aa2:	7018      	strb	r0, [r3, #0]
   24aa4:	990a      	ldr	r1, [sp, #40]	@ 0x28
   24aa6:	0e08      	lsrs	r0, r1, #24
   24aa8:	9d0b      	ldr	r5, [sp, #44]	@ 0x2c
   24aaa:	71a8      	strb	r0, [r5, #6]
   24aac:	0c08      	lsrs	r0, r1, #16
   24aae:	7168      	strb	r0, [r5, #5]
   24ab0:	0a08      	lsrs	r0, r1, #8
   24ab2:	7128      	strb	r0, [r5, #4]
   24ab4:	70e9      	strb	r1, [r5, #3]
   24ab6:	1de8      	adds	r0, r5, #7
   24ab8:	222d      	movs	r2, #45	@ 0x2d
   24aba:	990c      	ldr	r1, [sp, #48]	@ 0x30
   24abc:	f002 f9ff 	bl	26ebe <__aeabi_memcpy>
   24ac0:	4e05      	ldr	r6, [pc, #20]	@ (24ad8 <_start+0xbdc>)
   24ac2:	446e      	add	r6, sp
   24ac4:	4630      	mov	r0, r6
   24ac6:	4629      	mov	r1, r5
   24ac8:	f7fb fc5e 	bl	20388 <_ZN18complex_no_dynamic3app17h0c4114d264b988dbE>
   24acc:	7830      	ldrb	r0, [r6, #0]
   24ace:	2801      	cmp	r0, #1
   24ad0:	d106      	bne.n	24ae0 <_start+0xbe4>
   24ad2:	f002 f823 	bl	26b1c <_start+0x2c20>
   24ad6:	46c0      	nop			@ (mov r8, r8)
   24ad8:	000013cc 	.word	0x000013cc
   24adc:	00001370 	.word	0x00001370
   24ae0:	4818      	ldr	r0, [pc, #96]	@ (24b44 <_start+0xc48>)
   24ae2:	4468      	add	r0, sp
   24ae4:	78c1      	ldrb	r1, [r0, #3]
   24ae6:	abde      	add	r3, sp, #888	@ 0x378
   24ae8:	930b      	str	r3, [sp, #44]	@ 0x2c
   24aea:	7099      	strb	r1, [r3, #2]
   24aec:	7841      	ldrb	r1, [r0, #1]
   24aee:	7882      	ldrb	r2, [r0, #2]
   24af0:	0212      	lsls	r2, r2, #8
   24af2:	1851      	adds	r1, r2, r1
   24af4:	8019      	strh	r1, [r3, #0]
   24af6:	3008      	adds	r0, #8
   24af8:	9905      	ldr	r1, [sp, #20]
   24afa:	6e09      	ldr	r1, [r1, #96]	@ 0x60
   24afc:	910a      	str	r1, [sp, #40]	@ 0x28
   24afe:	4b12      	ldr	r3, [pc, #72]	@ (24b48 <_start+0xc4c>)
   24b00:	446b      	add	r3, sp
   24b02:	930c      	str	r3, [sp, #48]	@ 0x30
   24b04:	c866      	ldmia	r0!, {r1, r2, r5, r6}
   24b06:	c366      	stmia	r3!, {r1, r2, r5, r6}
   24b08:	8801      	ldrh	r1, [r0, #0]
   24b0a:	8019      	strh	r1, [r3, #0]
   24b0c:	7880      	ldrb	r0, [r0, #2]
   24b0e:	7098      	strb	r0, [r3, #2]
   24b10:	990a      	ldr	r1, [sp, #40]	@ 0x28
   24b12:	0e08      	lsrs	r0, r1, #24
   24b14:	9d0b      	ldr	r5, [sp, #44]	@ 0x2c
   24b16:	71a8      	strb	r0, [r5, #6]
   24b18:	0c08      	lsrs	r0, r1, #16
   24b1a:	7168      	strb	r0, [r5, #5]
   24b1c:	0a08      	lsrs	r0, r1, #8
   24b1e:	7128      	strb	r0, [r5, #4]
   24b20:	70e9      	strb	r1, [r5, #3]
   24b22:	1de8      	adds	r0, r5, #7
   24b24:	2213      	movs	r2, #19
   24b26:	990c      	ldr	r1, [sp, #48]	@ 0x30
   24b28:	f002 f9c9 	bl	26ebe <__aeabi_memcpy>
   24b2c:	4e05      	ldr	r6, [pc, #20]	@ (24b44 <_start+0xc48>)
   24b2e:	446e      	add	r6, sp
   24b30:	4630      	mov	r0, r6
   24b32:	4629      	mov	r1, r5
   24b34:	f7fc f8c2 	bl	20cbc <_ZN18complex_no_dynamic3app17h28b4981ae781bb05E>
   24b38:	7830      	ldrb	r0, [r6, #0]
   24b3a:	2801      	cmp	r0, #1
   24b3c:	d106      	bne.n	24b4c <_start+0xc50>
   24b3e:	f001 ffed 	bl	26b1c <_start+0x2c20>
   24b42:	46c0      	nop			@ (mov r8, r8)
   24b44:	000013cc 	.word	0x000013cc
   24b48:	00001370 	.word	0x00001370
   24b4c:	4915      	ldr	r1, [pc, #84]	@ (24ba4 <_start+0xca8>)
   24b4e:	4469      	add	r1, sp
   24b50:	78c8      	ldrb	r0, [r1, #3]
   24b52:	ade5      	add	r5, sp, #916	@ 0x394
   24b54:	70a8      	strb	r0, [r5, #2]
   24b56:	7848      	ldrb	r0, [r1, #1]
   24b58:	788a      	ldrb	r2, [r1, #2]
   24b5a:	0212      	lsls	r2, r2, #8
   24b5c:	1810      	adds	r0, r2, r0
   24b5e:	8028      	strh	r0, [r5, #0]
   24b60:	9805      	ldr	r0, [sp, #20]
   24b62:	6e06      	ldr	r6, [r0, #96]	@ 0x60
   24b64:	3108      	adds	r1, #8
   24b66:	4810      	ldr	r0, [pc, #64]	@ (24ba8 <_start+0xcac>)
   24b68:	4468      	add	r0, sp
   24b6a:	900c      	str	r0, [sp, #48]	@ 0x30
   24b6c:	2249      	movs	r2, #73	@ 0x49
   24b6e:	920b      	str	r2, [sp, #44]	@ 0x2c
   24b70:	f002 f845 	bl	26bfe <__aeabi_memcpy4>
   24b74:	0e30      	lsrs	r0, r6, #24
   24b76:	71a8      	strb	r0, [r5, #6]
   24b78:	0c30      	lsrs	r0, r6, #16
   24b7a:	7168      	strb	r0, [r5, #5]
   24b7c:	0a30      	lsrs	r0, r6, #8
   24b7e:	7128      	strb	r0, [r5, #4]
   24b80:	70ee      	strb	r6, [r5, #3]
   24b82:	1de8      	adds	r0, r5, #7
   24b84:	990c      	ldr	r1, [sp, #48]	@ 0x30
   24b86:	9a0b      	ldr	r2, [sp, #44]	@ 0x2c
   24b88:	f002 f999 	bl	26ebe <__aeabi_memcpy>
   24b8c:	4e05      	ldr	r6, [pc, #20]	@ (24ba4 <_start+0xca8>)
   24b8e:	446e      	add	r6, sp
   24b90:	4630      	mov	r0, r6
   24b92:	4629      	mov	r1, r5
   24b94:	f7fb fcf4 	bl	20580 <_ZN18complex_no_dynamic3app17h17e40f414368a06bE>
   24b98:	7830      	ldrb	r0, [r6, #0]
   24b9a:	2801      	cmp	r0, #1
   24b9c:	d106      	bne.n	24bac <_start+0xcb0>
   24b9e:	f001 ffbd 	bl	26b1c <_start+0x2c20>
   24ba2:	46c0      	nop			@ (mov r8, r8)
   24ba4:	000013cc 	.word	0x000013cc
   24ba8:	00001370 	.word	0x00001370
   24bac:	481a      	ldr	r0, [pc, #104]	@ (24c18 <_start+0xd1c>)
   24bae:	4468      	add	r0, sp
   24bb0:	78c1      	ldrb	r1, [r0, #3]
   24bb2:	abf9      	add	r3, sp, #996	@ 0x3e4
   24bb4:	930b      	str	r3, [sp, #44]	@ 0x2c
   24bb6:	7099      	strb	r1, [r3, #2]
   24bb8:	7841      	ldrb	r1, [r0, #1]
   24bba:	7882      	ldrb	r2, [r0, #2]
   24bbc:	0212      	lsls	r2, r2, #8
   24bbe:	1851      	adds	r1, r2, r1
   24bc0:	8019      	strh	r1, [r3, #0]
   24bc2:	3008      	adds	r0, #8
   24bc4:	9905      	ldr	r1, [sp, #20]
   24bc6:	6e09      	ldr	r1, [r1, #96]	@ 0x60
   24bc8:	910a      	str	r1, [sp, #40]	@ 0x28
   24bca:	4b14      	ldr	r3, [pc, #80]	@ (24c1c <_start+0xd20>)
   24bcc:	446b      	add	r3, sp
   24bce:	930c      	str	r3, [sp, #48]	@ 0x30
   24bd0:	c846      	ldmia	r0!, {r1, r2, r6}
   24bd2:	c346      	stmia	r3!, {r1, r2, r6}
   24bd4:	c846      	ldmia	r0!, {r1, r2, r6}
   24bd6:	c346      	stmia	r3!, {r1, r2, r6}
   24bd8:	c846      	ldmia	r0!, {r1, r2, r6}
   24bda:	c346      	stmia	r3!, {r1, r2, r6}
   24bdc:	c866      	ldmia	r0!, {r1, r2, r5, r6}
   24bde:	c366      	stmia	r3!, {r1, r2, r5, r6}
   24be0:	7800      	ldrb	r0, [r0, #0]
   24be2:	7018      	strb	r0, [r3, #0]
   24be4:	990a      	ldr	r1, [sp, #40]	@ 0x28
   24be6:	0e08      	lsrs	r0, r1, #24
   24be8:	9d0b      	ldr	r5, [sp, #44]	@ 0x2c
   24bea:	71a8      	strb	r0, [r5, #6]
   24bec:	0c08      	lsrs	r0, r1, #16
   24bee:	7168      	strb	r0, [r5, #5]
   24bf0:	0a08      	lsrs	r0, r1, #8
   24bf2:	7128      	strb	r0, [r5, #4]
   24bf4:	70e9      	strb	r1, [r5, #3]
   24bf6:	1de8      	adds	r0, r5, #7
   24bf8:	2235      	movs	r2, #53	@ 0x35
   24bfa:	990c      	ldr	r1, [sp, #48]	@ 0x30
   24bfc:	f002 f95f 	bl	26ebe <__aeabi_memcpy>
   24c00:	4e05      	ldr	r6, [pc, #20]	@ (24c18 <_start+0xd1c>)
   24c02:	446e      	add	r6, sp
   24c04:	4630      	mov	r0, r6
   24c06:	4629      	mov	r1, r5
   24c08:	f7fb ff08 	bl	20a1c <_ZN18complex_no_dynamic3app17h238f14a893eb200eE>
   24c0c:	7830      	ldrb	r0, [r6, #0]
   24c0e:	2801      	cmp	r0, #1
   24c10:	d106      	bne.n	24c20 <_start+0xd24>
   24c12:	f001 ff83 	bl	26b1c <_start+0x2c20>
   24c16:	46c0      	nop			@ (mov r8, r8)
   24c18:	000013cc 	.word	0x000013cc
   24c1c:	00001370 	.word	0x00001370
   24c20:	481a      	ldr	r0, [pc, #104]	@ (24c8c <_start+0xd90>)
   24c22:	4468      	add	r0, sp
   24c24:	78c1      	ldrb	r1, [r0, #3]
   24c26:	abff      	add	r3, sp, #1020	@ 0x3fc
   24c28:	3324      	adds	r3, #36	@ 0x24
   24c2a:	930b      	str	r3, [sp, #44]	@ 0x2c
   24c2c:	7099      	strb	r1, [r3, #2]
   24c2e:	7841      	ldrb	r1, [r0, #1]
   24c30:	7882      	ldrb	r2, [r0, #2]
   24c32:	0212      	lsls	r2, r2, #8
   24c34:	1851      	adds	r1, r2, r1
   24c36:	8019      	strh	r1, [r3, #0]
   24c38:	3008      	adds	r0, #8
   24c3a:	9905      	ldr	r1, [sp, #20]
   24c3c:	6e09      	ldr	r1, [r1, #96]	@ 0x60
   24c3e:	910a      	str	r1, [sp, #40]	@ 0x28
   24c40:	4b13      	ldr	r3, [pc, #76]	@ (24c90 <_start+0xd94>)
   24c42:	446b      	add	r3, sp
   24c44:	930c      	str	r3, [sp, #48]	@ 0x30
   24c46:	c846      	ldmia	r0!, {r1, r2, r6}
   24c48:	c346      	stmia	r3!, {r1, r2, r6}
   24c4a:	c846      	ldmia	r0!, {r1, r2, r6}
   24c4c:	c346      	stmia	r3!, {r1, r2, r6}
   24c4e:	c866      	ldmia	r0!, {r1, r2, r5, r6}
   24c50:	c366      	stmia	r3!, {r1, r2, r5, r6}
   24c52:	8801      	ldrh	r1, [r0, #0]
   24c54:	8019      	strh	r1, [r3, #0]
   24c56:	7880      	ldrb	r0, [r0, #2]
   24c58:	7098      	strb	r0, [r3, #2]
   24c5a:	990a      	ldr	r1, [sp, #40]	@ 0x28
   24c5c:	0e08      	lsrs	r0, r1, #24
   24c5e:	9d0b      	ldr	r5, [sp, #44]	@ 0x2c
   24c60:	71a8      	strb	r0, [r5, #6]
   24c62:	0c08      	lsrs	r0, r1, #16
   24c64:	7168      	strb	r0, [r5, #5]
   24c66:	0a08      	lsrs	r0, r1, #8
   24c68:	7128      	strb	r0, [r5, #4]
   24c6a:	70e9      	strb	r1, [r5, #3]
   24c6c:	1de8      	adds	r0, r5, #7
   24c6e:	222b      	movs	r2, #43	@ 0x2b
   24c70:	990c      	ldr	r1, [sp, #48]	@ 0x30
   24c72:	f002 f924 	bl	26ebe <__aeabi_memcpy>
   24c76:	4e05      	ldr	r6, [pc, #20]	@ (24c8c <_start+0xd90>)
   24c78:	446e      	add	r6, sp
   24c7a:	4630      	mov	r0, r6
   24c7c:	4629      	mov	r1, r5
   24c7e:	f7fe fde5 	bl	2384c <_ZN18complex_no_dynamic3app17hdcace00aa05fdd30E>
   24c82:	7830      	ldrb	r0, [r6, #0]
   24c84:	2801      	cmp	r0, #1
   24c86:	d105      	bne.n	24c94 <_start+0xd98>
   24c88:	f001 ff48 	bl	26b1c <_start+0x2c20>
   24c8c:	000013cc 	.word	0x000013cc
   24c90:	00001370 	.word	0x00001370
   24c94:	481a      	ldr	r0, [pc, #104]	@ (24d00 <_start+0xe04>)
   24c96:	4468      	add	r0, sp
   24c98:	78c1      	ldrb	r1, [r0, #3]
   24c9a:	abff      	add	r3, sp, #1020	@ 0x3fc
   24c9c:	3358      	adds	r3, #88	@ 0x58
   24c9e:	930b      	str	r3, [sp, #44]	@ 0x2c
   24ca0:	7099      	strb	r1, [r3, #2]
   24ca2:	7841      	ldrb	r1, [r0, #1]
   24ca4:	7882      	ldrb	r2, [r0, #2]
   24ca6:	0212      	lsls	r2, r2, #8
   24ca8:	1851      	adds	r1, r2, r1
   24caa:	8019      	strh	r1, [r3, #0]
   24cac:	3008      	adds	r0, #8
   24cae:	9905      	ldr	r1, [sp, #20]
   24cb0:	6e09      	ldr	r1, [r1, #96]	@ 0x60
   24cb2:	910a      	str	r1, [sp, #40]	@ 0x28
   24cb4:	4b13      	ldr	r3, [pc, #76]	@ (24d04 <_start+0xe08>)
   24cb6:	446b      	add	r3, sp
   24cb8:	930c      	str	r3, [sp, #48]	@ 0x30
   24cba:	c846      	ldmia	r0!, {r1, r2, r6}
   24cbc:	c346      	stmia	r3!, {r1, r2, r6}
   24cbe:	c846      	ldmia	r0!, {r1, r2, r6}
   24cc0:	c346      	stmia	r3!, {r1, r2, r6}
   24cc2:	c866      	ldmia	r0!, {r1, r2, r5, r6}
   24cc4:	c366      	stmia	r3!, {r1, r2, r5, r6}
   24cc6:	8801      	ldrh	r1, [r0, #0]
   24cc8:	8019      	strh	r1, [r3, #0]
   24cca:	7880      	ldrb	r0, [r0, #2]
   24ccc:	7098      	strb	r0, [r3, #2]
   24cce:	990a      	ldr	r1, [sp, #40]	@ 0x28
   24cd0:	0e08      	lsrs	r0, r1, #24
   24cd2:	9d0b      	ldr	r5, [sp, #44]	@ 0x2c
   24cd4:	71a8      	strb	r0, [r5, #6]
   24cd6:	0c08      	lsrs	r0, r1, #16
   24cd8:	7168      	strb	r0, [r5, #5]
   24cda:	0a08      	lsrs	r0, r1, #8
   24cdc:	7128      	strb	r0, [r5, #4]
   24cde:	70e9      	strb	r1, [r5, #3]
   24ce0:	1de8      	adds	r0, r5, #7
   24ce2:	222b      	movs	r2, #43	@ 0x2b
   24ce4:	990c      	ldr	r1, [sp, #48]	@ 0x30
   24ce6:	f002 f8ea 	bl	26ebe <__aeabi_memcpy>
   24cea:	4e05      	ldr	r6, [pc, #20]	@ (24d00 <_start+0xe04>)
   24cec:	446e      	add	r6, sp
   24cee:	4630      	mov	r0, r6
   24cf0:	4629      	mov	r1, r5
   24cf2:	f7fb fced 	bl	206d0 <_ZN18complex_no_dynamic3app17h1c422c7c70010f20E>
   24cf6:	7830      	ldrb	r0, [r6, #0]
   24cf8:	2801      	cmp	r0, #1
   24cfa:	d105      	bne.n	24d08 <_start+0xe0c>
   24cfc:	f001 ff0e 	bl	26b1c <_start+0x2c20>
   24d00:	000013cc 	.word	0x000013cc
   24d04:	00001370 	.word	0x00001370
   24d08:	4815      	ldr	r0, [pc, #84]	@ (24d60 <_start+0xe64>)
   24d0a:	4468      	add	r0, sp
   24d0c:	78c1      	ldrb	r1, [r0, #3]
   24d0e:	adff      	add	r5, sp, #1020	@ 0x3fc
   24d10:	358c      	adds	r5, #140	@ 0x8c
   24d12:	70a9      	strb	r1, [r5, #2]
   24d14:	7841      	ldrb	r1, [r0, #1]
   24d16:	7882      	ldrb	r2, [r0, #2]
   24d18:	0212      	lsls	r2, r2, #8
   24d1a:	1851      	adds	r1, r2, r1
   24d1c:	8029      	strh	r1, [r5, #0]
   24d1e:	3008      	adds	r0, #8
   24d20:	9905      	ldr	r1, [sp, #20]
   24d22:	6e09      	ldr	r1, [r1, #96]	@ 0x60
   24d24:	4b0f      	ldr	r3, [pc, #60]	@ (24d64 <_start+0xe68>)
   24d26:	446b      	add	r3, sp
   24d28:	930c      	str	r3, [sp, #48]	@ 0x30
   24d2a:	c844      	ldmia	r0!, {r2, r6}
   24d2c:	c344      	stmia	r3!, {r2, r6}
   24d2e:	7800      	ldrb	r0, [r0, #0]
   24d30:	7018      	strb	r0, [r3, #0]
   24d32:	0e08      	lsrs	r0, r1, #24
   24d34:	71a8      	strb	r0, [r5, #6]
   24d36:	0c08      	lsrs	r0, r1, #16
   24d38:	7168      	strb	r0, [r5, #5]
   24d3a:	0a08      	lsrs	r0, r1, #8
   24d3c:	7128      	strb	r0, [r5, #4]
   24d3e:	70e9      	strb	r1, [r5, #3]
   24d40:	1de8      	adds	r0, r5, #7
   24d42:	2209      	movs	r2, #9
   24d44:	990c      	ldr	r1, [sp, #48]	@ 0x30
   24d46:	f002 f8ba 	bl	26ebe <__aeabi_memcpy>
   24d4a:	4e05      	ldr	r6, [pc, #20]	@ (24d60 <_start+0xe64>)
   24d4c:	446e      	add	r6, sp
   24d4e:	4630      	mov	r0, r6
   24d50:	4629      	mov	r1, r5
   24d52:	f7fe fe79 	bl	23a48 <_ZN18complex_no_dynamic3app17he85f099ce42c2921E>
   24d56:	7830      	ldrb	r0, [r6, #0]
   24d58:	2801      	cmp	r0, #1
   24d5a:	d105      	bne.n	24d68 <_start+0xe6c>
   24d5c:	f001 fede 	bl	26b1c <_start+0x2c20>
   24d60:	000013cc 	.word	0x000013cc
   24d64:	00001370 	.word	0x00001370
   24d68:	481a      	ldr	r0, [pc, #104]	@ (24dd4 <_start+0xed8>)
   24d6a:	4468      	add	r0, sp
   24d6c:	78c1      	ldrb	r1, [r0, #3]
   24d6e:	abff      	add	r3, sp, #1020	@ 0x3fc
   24d70:	339c      	adds	r3, #156	@ 0x9c
   24d72:	930b      	str	r3, [sp, #44]	@ 0x2c
   24d74:	7099      	strb	r1, [r3, #2]
   24d76:	7841      	ldrb	r1, [r0, #1]
   24d78:	7882      	ldrb	r2, [r0, #2]
   24d7a:	0212      	lsls	r2, r2, #8
   24d7c:	1851      	adds	r1, r2, r1
   24d7e:	8019      	strh	r1, [r3, #0]
   24d80:	3008      	adds	r0, #8
   24d82:	9905      	ldr	r1, [sp, #20]
   24d84:	6e09      	ldr	r1, [r1, #96]	@ 0x60
   24d86:	910a      	str	r1, [sp, #40]	@ 0x28
   24d88:	4b13      	ldr	r3, [pc, #76]	@ (24dd8 <_start+0xedc>)
   24d8a:	446b      	add	r3, sp
   24d8c:	930c      	str	r3, [sp, #48]	@ 0x30
   24d8e:	c846      	ldmia	r0!, {r1, r2, r6}
   24d90:	c346      	stmia	r3!, {r1, r2, r6}
   24d92:	c866      	ldmia	r0!, {r1, r2, r5, r6}
   24d94:	c366      	stmia	r3!, {r1, r2, r5, r6}
   24d96:	c866      	ldmia	r0!, {r1, r2, r5, r6}
   24d98:	c366      	stmia	r3!, {r1, r2, r5, r6}
   24d9a:	8801      	ldrh	r1, [r0, #0]
   24d9c:	8019      	strh	r1, [r3, #0]
   24d9e:	7880      	ldrb	r0, [r0, #2]
   24da0:	7098      	strb	r0, [r3, #2]
   24da2:	990a      	ldr	r1, [sp, #40]	@ 0x28
   24da4:	0e08      	lsrs	r0, r1, #24
   24da6:	9d0b      	ldr	r5, [sp, #44]	@ 0x2c
   24da8:	71a8      	strb	r0, [r5, #6]
   24daa:	0c08      	lsrs	r0, r1, #16
   24dac:	7168      	strb	r0, [r5, #5]
   24dae:	0a08      	lsrs	r0, r1, #8
   24db0:	7128      	strb	r0, [r5, #4]
   24db2:	70e9      	strb	r1, [r5, #3]
   24db4:	1de8      	adds	r0, r5, #7
   24db6:	222f      	movs	r2, #47	@ 0x2f
   24db8:	990c      	ldr	r1, [sp, #48]	@ 0x30
   24dba:	f002 f880 	bl	26ebe <__aeabi_memcpy>
   24dbe:	4e05      	ldr	r6, [pc, #20]	@ (24dd4 <_start+0xed8>)
   24dc0:	446e      	add	r6, sp
   24dc2:	4630      	mov	r0, r6
   24dc4:	4629      	mov	r1, r5
   24dc6:	f7fd fead 	bl	22b24 <_ZN18complex_no_dynamic3app17hab76cdfafb20166fE>
   24dca:	7830      	ldrb	r0, [r6, #0]
   24dcc:	2801      	cmp	r0, #1
   24dce:	d105      	bne.n	24ddc <_start+0xee0>
   24dd0:	f001 fea4 	bl	26b1c <_start+0x2c20>
   24dd4:	000013cc 	.word	0x000013cc
   24dd8:	00001370 	.word	0x00001370
   24ddc:	9803      	ldr	r0, [sp, #12]
   24dde:	1cc0      	adds	r0, r0, #3
   24de0:	4a16      	ldr	r2, [pc, #88]	@ (24e3c <_start+0xf40>)
   24de2:	446a      	add	r2, sp
   24de4:	78d3      	ldrb	r3, [r2, #3]
   24de6:	a9ff      	add	r1, sp, #1020	@ 0x3fc
   24de8:	31d4      	adds	r1, #212	@ 0xd4
   24dea:	708b      	strb	r3, [r1, #2]
   24dec:	7853      	ldrb	r3, [r2, #1]
   24dee:	7892      	ldrb	r2, [r2, #2]
   24df0:	0212      	lsls	r2, r2, #8
   24df2:	18d2      	adds	r2, r2, r3
   24df4:	800a      	strh	r2, [r1, #0]
   24df6:	9d05      	ldr	r5, [sp, #20]
   24df8:	3560      	adds	r5, #96	@ 0x60
   24dfa:	cd2c      	ldmia	r5, {r2, r3, r5}
   24dfc:	0e2e      	lsrs	r6, r5, #24
   24dfe:	72c6      	strb	r6, [r0, #11]
   24e00:	0c2e      	lsrs	r6, r5, #16
   24e02:	7286      	strb	r6, [r0, #10]
   24e04:	0a2e      	lsrs	r6, r5, #8
   24e06:	7246      	strb	r6, [r0, #9]
   24e08:	7205      	strb	r5, [r0, #8]
   24e0a:	0e1d      	lsrs	r5, r3, #24
   24e0c:	71c5      	strb	r5, [r0, #7]
   24e0e:	0c1d      	lsrs	r5, r3, #16
   24e10:	7185      	strb	r5, [r0, #6]
   24e12:	0a1d      	lsrs	r5, r3, #8
   24e14:	7145      	strb	r5, [r0, #5]
   24e16:	7103      	strb	r3, [r0, #4]
   24e18:	0e13      	lsrs	r3, r2, #24
   24e1a:	70c3      	strb	r3, [r0, #3]
   24e1c:	0c13      	lsrs	r3, r2, #16
   24e1e:	7083      	strb	r3, [r0, #2]
   24e20:	0a13      	lsrs	r3, r2, #8
   24e22:	7043      	strb	r3, [r0, #1]
   24e24:	7002      	strb	r2, [r0, #0]
   24e26:	4d05      	ldr	r5, [pc, #20]	@ (24e3c <_start+0xf40>)
   24e28:	446d      	add	r5, sp
   24e2a:	4628      	mov	r0, r5
   24e2c:	f7fc fae8 	bl	21400 <_ZN18complex_no_dynamic3app17h48d707bb0faa7232E>
   24e30:	7828      	ldrb	r0, [r5, #0]
   24e32:	2801      	cmp	r0, #1
   24e34:	d104      	bne.n	24e40 <_start+0xf44>
   24e36:	f001 fe71 	bl	26b1c <_start+0x2c20>
   24e3a:	46c0      	nop			@ (mov r8, r8)
   24e3c:	000013cc 	.word	0x000013cc
   24e40:	4815      	ldr	r0, [pc, #84]	@ (24e98 <_start+0xf9c>)
   24e42:	4468      	add	r0, sp
   24e44:	78c1      	ldrb	r1, [r0, #3]
   24e46:	adff      	add	r5, sp, #1020	@ 0x3fc
   24e48:	35e4      	adds	r5, #228	@ 0xe4
   24e4a:	70a9      	strb	r1, [r5, #2]
   24e4c:	7841      	ldrb	r1, [r0, #1]
   24e4e:	7882      	ldrb	r2, [r0, #2]
   24e50:	0212      	lsls	r2, r2, #8
   24e52:	1851      	adds	r1, r2, r1
   24e54:	8029      	strh	r1, [r5, #0]
   24e56:	3008      	adds	r0, #8
   24e58:	9905      	ldr	r1, [sp, #20]
   24e5a:	6e09      	ldr	r1, [r1, #96]	@ 0x60
   24e5c:	910b      	str	r1, [sp, #44]	@ 0x2c
   24e5e:	4b0f      	ldr	r3, [pc, #60]	@ (24e9c <_start+0xfa0>)
   24e60:	446b      	add	r3, sp
   24e62:	930c      	str	r3, [sp, #48]	@ 0x30
   24e64:	c846      	ldmia	r0!, {r1, r2, r6}
   24e66:	c346      	stmia	r3!, {r1, r2, r6}
   24e68:	990b      	ldr	r1, [sp, #44]	@ 0x2c
   24e6a:	0e08      	lsrs	r0, r1, #24
   24e6c:	71a8      	strb	r0, [r5, #6]
   24e6e:	0c08      	lsrs	r0, r1, #16
   24e70:	7168      	strb	r0, [r5, #5]
   24e72:	0a08      	lsrs	r0, r1, #8
   24e74:	7128      	strb	r0, [r5, #4]
   24e76:	70e9      	strb	r1, [r5, #3]
   24e78:	1de8      	adds	r0, r5, #7
   24e7a:	220c      	movs	r2, #12
   24e7c:	990c      	ldr	r1, [sp, #48]	@ 0x30
   24e7e:	f002 f81e 	bl	26ebe <__aeabi_memcpy>
   24e82:	4e05      	ldr	r6, [pc, #20]	@ (24e98 <_start+0xf9c>)
   24e84:	446e      	add	r6, sp
   24e86:	4630      	mov	r0, r6
   24e88:	4629      	mov	r1, r5
   24e8a:	f7fd ff9d 	bl	22dc8 <_ZN18complex_no_dynamic3app17hb87a0b023c4ae745E>
   24e8e:	7830      	ldrb	r0, [r6, #0]
   24e90:	2801      	cmp	r0, #1
   24e92:	d105      	bne.n	24ea0 <_start+0xfa4>
   24e94:	f001 fe42 	bl	26b1c <_start+0x2c20>
   24e98:	000013cc 	.word	0x000013cc
   24e9c:	00001370 	.word	0x00001370
   24ea0:	4915      	ldr	r1, [pc, #84]	@ (24ef8 <_start+0xffc>)
   24ea2:	4469      	add	r1, sp
   24ea4:	78c8      	ldrb	r0, [r1, #3]
   24ea6:	adff      	add	r5, sp, #1020	@ 0x3fc
   24ea8:	35f8      	adds	r5, #248	@ 0xf8
   24eaa:	70a8      	strb	r0, [r5, #2]
   24eac:	7848      	ldrb	r0, [r1, #1]
   24eae:	788a      	ldrb	r2, [r1, #2]
   24eb0:	0212      	lsls	r2, r2, #8
   24eb2:	1810      	adds	r0, r2, r0
   24eb4:	8028      	strh	r0, [r5, #0]
   24eb6:	9805      	ldr	r0, [sp, #20]
   24eb8:	6e06      	ldr	r6, [r0, #96]	@ 0x60
   24eba:	3108      	adds	r1, #8
   24ebc:	480f      	ldr	r0, [pc, #60]	@ (24efc <_start+0x1000>)
   24ebe:	4468      	add	r0, sp
   24ec0:	900c      	str	r0, [sp, #48]	@ 0x30
   24ec2:	224e      	movs	r2, #78	@ 0x4e
   24ec4:	920b      	str	r2, [sp, #44]	@ 0x2c
   24ec6:	f001 fe9a 	bl	26bfe <__aeabi_memcpy4>
   24eca:	0e30      	lsrs	r0, r6, #24
   24ecc:	71a8      	strb	r0, [r5, #6]
   24ece:	0c30      	lsrs	r0, r6, #16
   24ed0:	7168      	strb	r0, [r5, #5]
   24ed2:	0a30      	lsrs	r0, r6, #8
   24ed4:	7128      	strb	r0, [r5, #4]
   24ed6:	70ee      	strb	r6, [r5, #3]
   24ed8:	1de8      	adds	r0, r5, #7
   24eda:	990c      	ldr	r1, [sp, #48]	@ 0x30
   24edc:	9a0b      	ldr	r2, [sp, #44]	@ 0x2c
   24ede:	f001 ffee 	bl	26ebe <__aeabi_memcpy>
   24ee2:	4e05      	ldr	r6, [pc, #20]	@ (24ef8 <_start+0xffc>)
   24ee4:	446e      	add	r6, sp
   24ee6:	4630      	mov	r0, r6
   24ee8:	4629      	mov	r1, r5
   24eea:	f7fc fed9 	bl	21ca0 <_ZN18complex_no_dynamic3app17h6e5acf2ea7cb99b7E>
   24eee:	7830      	ldrb	r0, [r6, #0]
   24ef0:	2801      	cmp	r0, #1
   24ef2:	d105      	bne.n	24f00 <_start+0x1004>
   24ef4:	f001 fe12 	bl	26b1c <_start+0x2c20>
   24ef8:	000013cc 	.word	0x000013cc
   24efc:	00001370 	.word	0x00001370
   24f00:	481a      	ldr	r0, [pc, #104]	@ (24f6c <_start+0x1070>)
   24f02:	4468      	add	r0, sp
   24f04:	78c1      	ldrb	r1, [r0, #3]
   24f06:	4b1a      	ldr	r3, [pc, #104]	@ (24f70 <_start+0x1074>)
   24f08:	446b      	add	r3, sp
   24f0a:	930b      	str	r3, [sp, #44]	@ 0x2c
   24f0c:	7099      	strb	r1, [r3, #2]
   24f0e:	7841      	ldrb	r1, [r0, #1]
   24f10:	7882      	ldrb	r2, [r0, #2]
   24f12:	0212      	lsls	r2, r2, #8
   24f14:	1851      	adds	r1, r2, r1
   24f16:	8019      	strh	r1, [r3, #0]
   24f18:	3008      	adds	r0, #8
   24f1a:	9905      	ldr	r1, [sp, #20]
   24f1c:	6e09      	ldr	r1, [r1, #96]	@ 0x60
   24f1e:	910a      	str	r1, [sp, #40]	@ 0x28
   24f20:	4b14      	ldr	r3, [pc, #80]	@ (24f74 <_start+0x1078>)
   24f22:	446b      	add	r3, sp
   24f24:	930c      	str	r3, [sp, #48]	@ 0x30
   24f26:	c846      	ldmia	r0!, {r1, r2, r6}
   24f28:	c346      	stmia	r3!, {r1, r2, r6}
   24f2a:	c846      	ldmia	r0!, {r1, r2, r6}
   24f2c:	c346      	stmia	r3!, {r1, r2, r6}
   24f2e:	c866      	ldmia	r0!, {r1, r2, r5, r6}
   24f30:	c366      	stmia	r3!, {r1, r2, r5, r6}
   24f32:	8801      	ldrh	r1, [r0, #0]
   24f34:	8019      	strh	r1, [r3, #0]
   24f36:	7880      	ldrb	r0, [r0, #2]
   24f38:	7098      	strb	r0, [r3, #2]
   24f3a:	990a      	ldr	r1, [sp, #40]	@ 0x28
   24f3c:	0e08      	lsrs	r0, r1, #24
   24f3e:	9d0b      	ldr	r5, [sp, #44]	@ 0x2c
   24f40:	71a8      	strb	r0, [r5, #6]
   24f42:	0c08      	lsrs	r0, r1, #16
   24f44:	7168      	strb	r0, [r5, #5]
   24f46:	0a08      	lsrs	r0, r1, #8
   24f48:	7128      	strb	r0, [r5, #4]
   24f4a:	70e9      	strb	r1, [r5, #3]
   24f4c:	1de8      	adds	r0, r5, #7
   24f4e:	222b      	movs	r2, #43	@ 0x2b
   24f50:	990c      	ldr	r1, [sp, #48]	@ 0x30
   24f52:	f001 ffb4 	bl	26ebe <__aeabi_memcpy>
   24f56:	4e05      	ldr	r6, [pc, #20]	@ (24f6c <_start+0x1070>)
   24f58:	446e      	add	r6, sp
   24f5a:	4630      	mov	r0, r6
   24f5c:	4629      	mov	r1, r5
   24f5e:	f7fe f883 	bl	23068 <_ZN18complex_no_dynamic3app17hc2fd7651b5849b68E>
   24f62:	7830      	ldrb	r0, [r6, #0]
   24f64:	2801      	cmp	r0, #1
   24f66:	d107      	bne.n	24f78 <_start+0x107c>
   24f68:	f001 fdd8 	bl	26b1c <_start+0x2c20>
   24f6c:	000013cc 	.word	0x000013cc
   24f70:	0000054c 	.word	0x0000054c
   24f74:	00001370 	.word	0x00001370
   24f78:	481a      	ldr	r0, [pc, #104]	@ (24fe4 <_start+0x10e8>)
   24f7a:	4468      	add	r0, sp
   24f7c:	78c1      	ldrb	r1, [r0, #3]
   24f7e:	4b1a      	ldr	r3, [pc, #104]	@ (24fe8 <_start+0x10ec>)
   24f80:	446b      	add	r3, sp
   24f82:	930b      	str	r3, [sp, #44]	@ 0x2c
   24f84:	7099      	strb	r1, [r3, #2]
   24f86:	7841      	ldrb	r1, [r0, #1]
   24f88:	7882      	ldrb	r2, [r0, #2]
   24f8a:	0212      	lsls	r2, r2, #8
   24f8c:	1851      	adds	r1, r2, r1
   24f8e:	8019      	strh	r1, [r3, #0]
   24f90:	3008      	adds	r0, #8
   24f92:	9905      	ldr	r1, [sp, #20]
   24f94:	6e09      	ldr	r1, [r1, #96]	@ 0x60
   24f96:	910a      	str	r1, [sp, #40]	@ 0x28
   24f98:	4b14      	ldr	r3, [pc, #80]	@ (24fec <_start+0x10f0>)
   24f9a:	446b      	add	r3, sp
   24f9c:	930c      	str	r3, [sp, #48]	@ 0x30
   24f9e:	c846      	ldmia	r0!, {r1, r2, r6}
   24fa0:	c346      	stmia	r3!, {r1, r2, r6}
   24fa2:	c866      	ldmia	r0!, {r1, r2, r5, r6}
   24fa4:	c366      	stmia	r3!, {r1, r2, r5, r6}
   24fa6:	c826      	ldmia	r0!, {r1, r2, r5}
   24fa8:	c326      	stmia	r3!, {r1, r2, r5}
   24faa:	c866      	ldmia	r0!, {r1, r2, r5, r6}
   24fac:	c366      	stmia	r3!, {r1, r2, r5, r6}
   24fae:	8800      	ldrh	r0, [r0, #0]
   24fb0:	8018      	strh	r0, [r3, #0]
   24fb2:	990a      	ldr	r1, [sp, #40]	@ 0x28
   24fb4:	0e08      	lsrs	r0, r1, #24
   24fb6:	9d0b      	ldr	r5, [sp, #44]	@ 0x2c
   24fb8:	71a8      	strb	r0, [r5, #6]
   24fba:	0c08      	lsrs	r0, r1, #16
   24fbc:	7168      	strb	r0, [r5, #5]
   24fbe:	0a08      	lsrs	r0, r1, #8
   24fc0:	7128      	strb	r0, [r5, #4]
   24fc2:	70e9      	strb	r1, [r5, #3]
   24fc4:	1de8      	adds	r0, r5, #7
   24fc6:	223a      	movs	r2, #58	@ 0x3a
   24fc8:	990c      	ldr	r1, [sp, #48]	@ 0x30
   24fca:	f001 ff78 	bl	26ebe <__aeabi_memcpy>
   24fce:	4e05      	ldr	r6, [pc, #20]	@ (24fe4 <_start+0x10e8>)
   24fd0:	446e      	add	r6, sp
   24fd2:	4630      	mov	r0, r6
   24fd4:	4629      	mov	r1, r5
   24fd6:	f7fd f90b 	bl	221f0 <_ZN18complex_no_dynamic3app17h7c492bda298c5cb0E>
   24fda:	7830      	ldrb	r0, [r6, #0]
   24fdc:	2801      	cmp	r0, #1
   24fde:	d107      	bne.n	24ff0 <_start+0x10f4>
   24fe0:	f001 fd9c 	bl	26b1c <_start+0x2c20>
   24fe4:	000013cc 	.word	0x000013cc
   24fe8:	00000580 	.word	0x00000580
   24fec:	00001370 	.word	0x00001370
   24ff0:	4818      	ldr	r0, [pc, #96]	@ (25054 <_start+0x1158>)
   24ff2:	4468      	add	r0, sp
   24ff4:	78c1      	ldrb	r1, [r0, #3]
   24ff6:	4d18      	ldr	r5, [pc, #96]	@ (25058 <_start+0x115c>)
   24ff8:	446d      	add	r5, sp
   24ffa:	70a9      	strb	r1, [r5, #2]
   24ffc:	7841      	ldrb	r1, [r0, #1]
   24ffe:	7882      	ldrb	r2, [r0, #2]
   25000:	0212      	lsls	r2, r2, #8
   25002:	1851      	adds	r1, r2, r1
   25004:	8029      	strh	r1, [r5, #0]
   25006:	3008      	adds	r0, #8
   25008:	9905      	ldr	r1, [sp, #20]
   2500a:	6e09      	ldr	r1, [r1, #96]	@ 0x60
   2500c:	910b      	str	r1, [sp, #44]	@ 0x2c
   2500e:	4b13      	ldr	r3, [pc, #76]	@ (2505c <_start+0x1160>)
   25010:	446b      	add	r3, sp
   25012:	930c      	str	r3, [sp, #48]	@ 0x30
   25014:	c846      	ldmia	r0!, {r1, r2, r6}
   25016:	c346      	stmia	r3!, {r1, r2, r6}
   25018:	c846      	ldmia	r0!, {r1, r2, r6}
   2501a:	c346      	stmia	r3!, {r1, r2, r6}
   2501c:	8801      	ldrh	r1, [r0, #0]
   2501e:	8019      	strh	r1, [r3, #0]
   25020:	7880      	ldrb	r0, [r0, #2]
   25022:	7098      	strb	r0, [r3, #2]
   25024:	990b      	ldr	r1, [sp, #44]	@ 0x2c
   25026:	0e08      	lsrs	r0, r1, #24
   25028:	71a8      	strb	r0, [r5, #6]
   2502a:	0c08      	lsrs	r0, r1, #16
   2502c:	7168      	strb	r0, [r5, #5]
   2502e:	0a08      	lsrs	r0, r1, #8
   25030:	7128      	strb	r0, [r5, #4]
   25032:	70e9      	strb	r1, [r5, #3]
   25034:	1de8      	adds	r0, r5, #7
   25036:	221b      	movs	r2, #27
   25038:	990c      	ldr	r1, [sp, #48]	@ 0x30
   2503a:	f001 ff40 	bl	26ebe <__aeabi_memcpy>
   2503e:	4e05      	ldr	r6, [pc, #20]	@ (25054 <_start+0x1158>)
   25040:	446e      	add	r6, sp
   25042:	4630      	mov	r0, r6
   25044:	4629      	mov	r1, r5
   25046:	f7fe f90b 	bl	23260 <_ZN18complex_no_dynamic3app17hc7b1da1bc8ba0e7dE>
   2504a:	7830      	ldrb	r0, [r6, #0]
   2504c:	2801      	cmp	r0, #1
   2504e:	d107      	bne.n	25060 <_start+0x1164>
   25050:	f001 fd64 	bl	26b1c <_start+0x2c20>
   25054:	000013cc 	.word	0x000013cc
   25058:	000005c4 	.word	0x000005c4
   2505c:	00001370 	.word	0x00001370
   25060:	4915      	ldr	r1, [pc, #84]	@ (250b8 <_start+0x11bc>)
   25062:	4469      	add	r1, sp
   25064:	78c8      	ldrb	r0, [r1, #3]
   25066:	4d15      	ldr	r5, [pc, #84]	@ (250bc <_start+0x11c0>)
   25068:	446d      	add	r5, sp
   2506a:	70a8      	strb	r0, [r5, #2]
   2506c:	7848      	ldrb	r0, [r1, #1]
   2506e:	788a      	ldrb	r2, [r1, #2]
   25070:	0212      	lsls	r2, r2, #8
   25072:	1810      	adds	r0, r2, r0
   25074:	8028      	strh	r0, [r5, #0]
   25076:	9805      	ldr	r0, [sp, #20]
   25078:	6e06      	ldr	r6, [r0, #96]	@ 0x60
   2507a:	3108      	adds	r1, #8
   2507c:	4810      	ldr	r0, [pc, #64]	@ (250c0 <_start+0x11c4>)
   2507e:	4468      	add	r0, sp
   25080:	900c      	str	r0, [sp, #48]	@ 0x30
   25082:	224a      	movs	r2, #74	@ 0x4a
   25084:	920b      	str	r2, [sp, #44]	@ 0x2c
   25086:	f001 fdba 	bl	26bfe <__aeabi_memcpy4>
   2508a:	0e30      	lsrs	r0, r6, #24
   2508c:	71a8      	strb	r0, [r5, #6]
   2508e:	0c30      	lsrs	r0, r6, #16
   25090:	7168      	strb	r0, [r5, #5]
   25092:	0a30      	lsrs	r0, r6, #8
   25094:	7128      	strb	r0, [r5, #4]
   25096:	70ee      	strb	r6, [r5, #3]
   25098:	1de8      	adds	r0, r5, #7
   2509a:	990c      	ldr	r1, [sp, #48]	@ 0x30
   2509c:	9a0b      	ldr	r2, [sp, #44]	@ 0x2c
   2509e:	f001 ff0e 	bl	26ebe <__aeabi_memcpy>
   250a2:	4e05      	ldr	r6, [pc, #20]	@ (250b8 <_start+0x11bc>)
   250a4:	446e      	add	r6, sp
   250a6:	4630      	mov	r0, r6
   250a8:	4629      	mov	r1, r5
   250aa:	f7fe fb27 	bl	236fc <_ZN18complex_no_dynamic3app17hd8686f6f557fd196E>
   250ae:	7830      	ldrb	r0, [r6, #0]
   250b0:	2801      	cmp	r0, #1
   250b2:	d107      	bne.n	250c4 <_start+0x11c8>
   250b4:	f001 fd32 	bl	26b1c <_start+0x2c20>
   250b8:	000013cc 	.word	0x000013cc
   250bc:	000005e8 	.word	0x000005e8
   250c0:	00001370 	.word	0x00001370
   250c4:	4915      	ldr	r1, [pc, #84]	@ (2511c <_start+0x1220>)
   250c6:	4469      	add	r1, sp
   250c8:	78c8      	ldrb	r0, [r1, #3]
   250ca:	4d15      	ldr	r5, [pc, #84]	@ (25120 <_start+0x1224>)
   250cc:	446d      	add	r5, sp
   250ce:	70a8      	strb	r0, [r5, #2]
   250d0:	7848      	ldrb	r0, [r1, #1]
   250d2:	788a      	ldrb	r2, [r1, #2]
   250d4:	0212      	lsls	r2, r2, #8
   250d6:	1810      	adds	r0, r2, r0
   250d8:	8028      	strh	r0, [r5, #0]
   250da:	9805      	ldr	r0, [sp, #20]
   250dc:	6e06      	ldr	r6, [r0, #96]	@ 0x60
   250de:	3108      	adds	r1, #8
   250e0:	4810      	ldr	r0, [pc, #64]	@ (25124 <_start+0x1228>)
   250e2:	4468      	add	r0, sp
   250e4:	900c      	str	r0, [sp, #48]	@ 0x30
   250e6:	2248      	movs	r2, #72	@ 0x48
   250e8:	920b      	str	r2, [sp, #44]	@ 0x2c
   250ea:	f001 fd88 	bl	26bfe <__aeabi_memcpy4>
   250ee:	0e30      	lsrs	r0, r6, #24
   250f0:	71a8      	strb	r0, [r5, #6]
   250f2:	0c30      	lsrs	r0, r6, #16
   250f4:	7168      	strb	r0, [r5, #5]
   250f6:	0a30      	lsrs	r0, r6, #8
   250f8:	7128      	strb	r0, [r5, #4]
   250fa:	70ee      	strb	r6, [r5, #3]
   250fc:	1de8      	adds	r0, r5, #7
   250fe:	990c      	ldr	r1, [sp, #48]	@ 0x30
   25100:	9a0b      	ldr	r2, [sp, #44]	@ 0x2c
   25102:	f001 fedc 	bl	26ebe <__aeabi_memcpy>
   25106:	4e05      	ldr	r6, [pc, #20]	@ (2511c <_start+0x1220>)
   25108:	446e      	add	r6, sp
   2510a:	4630      	mov	r0, r6
   2510c:	4629      	mov	r1, r5
   2510e:	f7fd ff03 	bl	22f18 <_ZN18complex_no_dynamic3app17hb95bf521fab9b45cE>
   25112:	7830      	ldrb	r0, [r6, #0]
   25114:	2801      	cmp	r0, #1
   25116:	d107      	bne.n	25128 <_start+0x122c>
   25118:	f001 fd00 	bl	26b1c <_start+0x2c20>
   2511c:	000013cc 	.word	0x000013cc
   25120:	0000063c 	.word	0x0000063c
   25124:	00001370 	.word	0x00001370
   25128:	4819      	ldr	r0, [pc, #100]	@ (25190 <_start+0x1294>)
   2512a:	4468      	add	r0, sp
   2512c:	78c1      	ldrb	r1, [r0, #3]
   2512e:	4b19      	ldr	r3, [pc, #100]	@ (25194 <_start+0x1298>)
   25130:	446b      	add	r3, sp
   25132:	930b      	str	r3, [sp, #44]	@ 0x2c
   25134:	7099      	strb	r1, [r3, #2]
   25136:	7841      	ldrb	r1, [r0, #1]
   25138:	7882      	ldrb	r2, [r0, #2]
   2513a:	0212      	lsls	r2, r2, #8
   2513c:	1851      	adds	r1, r2, r1
   2513e:	8019      	strh	r1, [r3, #0]
   25140:	3008      	adds	r0, #8
   25142:	9905      	ldr	r1, [sp, #20]
   25144:	6e09      	ldr	r1, [r1, #96]	@ 0x60
   25146:	910a      	str	r1, [sp, #40]	@ 0x28
   25148:	4b13      	ldr	r3, [pc, #76]	@ (25198 <_start+0x129c>)
   2514a:	446b      	add	r3, sp
   2514c:	930c      	str	r3, [sp, #48]	@ 0x30
   2514e:	c846      	ldmia	r0!, {r1, r2, r6}
   25150:	c346      	stmia	r3!, {r1, r2, r6}
   25152:	c846      	ldmia	r0!, {r1, r2, r6}
   25154:	c346      	stmia	r3!, {r1, r2, r6}
   25156:	c846      	ldmia	r0!, {r1, r2, r6}
   25158:	c346      	stmia	r3!, {r1, r2, r6}
   2515a:	c866      	ldmia	r0!, {r1, r2, r5, r6}
   2515c:	c366      	stmia	r3!, {r1, r2, r5, r6}
   2515e:	990a      	ldr	r1, [sp, #40]	@ 0x28
   25160:	0e08      	lsrs	r0, r1, #24
   25162:	9d0b      	ldr	r5, [sp, #44]	@ 0x2c
   25164:	71a8      	strb	r0, [r5, #6]
   25166:	0c08      	lsrs	r0, r1, #16
   25168:	7168      	strb	r0, [r5, #5]
   2516a:	0a08      	lsrs	r0, r1, #8
   2516c:	7128      	strb	r0, [r5, #4]
   2516e:	70e9      	strb	r1, [r5, #3]
   25170:	1de8      	adds	r0, r5, #7
   25172:	2234      	movs	r2, #52	@ 0x34
   25174:	990c      	ldr	r1, [sp, #48]	@ 0x30
   25176:	f001 fea2 	bl	26ebe <__aeabi_memcpy>
   2517a:	4e05      	ldr	r6, [pc, #20]	@ (25190 <_start+0x1294>)
   2517c:	446e      	add	r6, sp
   2517e:	4630      	mov	r0, r6
   25180:	4629      	mov	r1, r5
   25182:	f7fe f819 	bl	231b8 <_ZN18complex_no_dynamic3app17hc6df19e35a783edaE>
   25186:	7830      	ldrb	r0, [r6, #0]
   25188:	2801      	cmp	r0, #1
   2518a:	d107      	bne.n	2519c <_start+0x12a0>
   2518c:	f001 fcc6 	bl	26b1c <_start+0x2c20>
   25190:	000013cc 	.word	0x000013cc
   25194:	0000068c 	.word	0x0000068c
   25198:	00001370 	.word	0x00001370
   2519c:	4817      	ldr	r0, [pc, #92]	@ (251fc <_start+0x1300>)
   2519e:	4468      	add	r0, sp
   251a0:	78c1      	ldrb	r1, [r0, #3]
   251a2:	4b17      	ldr	r3, [pc, #92]	@ (25200 <_start+0x1304>)
   251a4:	446b      	add	r3, sp
   251a6:	930b      	str	r3, [sp, #44]	@ 0x2c
   251a8:	7099      	strb	r1, [r3, #2]
   251aa:	7841      	ldrb	r1, [r0, #1]
   251ac:	7882      	ldrb	r2, [r0, #2]
   251ae:	0212      	lsls	r2, r2, #8
   251b0:	1851      	adds	r1, r2, r1
   251b2:	8019      	strh	r1, [r3, #0]
   251b4:	3008      	adds	r0, #8
   251b6:	9905      	ldr	r1, [sp, #20]
   251b8:	6e09      	ldr	r1, [r1, #96]	@ 0x60
   251ba:	910a      	str	r1, [sp, #40]	@ 0x28
   251bc:	4b11      	ldr	r3, [pc, #68]	@ (25204 <_start+0x1308>)
   251be:	446b      	add	r3, sp
   251c0:	930c      	str	r3, [sp, #48]	@ 0x30
   251c2:	c866      	ldmia	r0!, {r1, r2, r5, r6}
   251c4:	c366      	stmia	r3!, {r1, r2, r5, r6}
   251c6:	c866      	ldmia	r0!, {r1, r2, r5, r6}
   251c8:	c366      	stmia	r3!, {r1, r2, r5, r6}
   251ca:	990a      	ldr	r1, [sp, #40]	@ 0x28
   251cc:	0e08      	lsrs	r0, r1, #24
   251ce:	9d0b      	ldr	r5, [sp, #44]	@ 0x2c
   251d0:	71a8      	strb	r0, [r5, #6]
   251d2:	0c08      	lsrs	r0, r1, #16
   251d4:	7168      	strb	r0, [r5, #5]
   251d6:	0a08      	lsrs	r0, r1, #8
   251d8:	7128      	strb	r0, [r5, #4]
   251da:	70e9      	strb	r1, [r5, #3]
   251dc:	1de8      	adds	r0, r5, #7
   251de:	2220      	movs	r2, #32
   251e0:	990c      	ldr	r1, [sp, #48]	@ 0x30
   251e2:	f001 fe6c 	bl	26ebe <__aeabi_memcpy>
   251e6:	4e05      	ldr	r6, [pc, #20]	@ (251fc <_start+0x1300>)
   251e8:	446e      	add	r6, sp
   251ea:	4630      	mov	r0, r6
   251ec:	4629      	mov	r1, r5
   251ee:	f7fd fa4d 	bl	2268c <_ZN18complex_no_dynamic3app17h8d91601e7cd3e79eE>
   251f2:	7830      	ldrb	r0, [r6, #0]
   251f4:	2801      	cmp	r0, #1
   251f6:	d107      	bne.n	25208 <_start+0x130c>
   251f8:	f001 fc90 	bl	26b1c <_start+0x2c20>
   251fc:	000013cc 	.word	0x000013cc
   25200:	000006c8 	.word	0x000006c8
   25204:	00001370 	.word	0x00001370
   25208:	4816      	ldr	r0, [pc, #88]	@ (25264 <_start+0x1368>)
   2520a:	4468      	add	r0, sp
   2520c:	78c1      	ldrb	r1, [r0, #3]
   2520e:	4d16      	ldr	r5, [pc, #88]	@ (25268 <_start+0x136c>)
   25210:	446d      	add	r5, sp
   25212:	70a9      	strb	r1, [r5, #2]
   25214:	7841      	ldrb	r1, [r0, #1]
   25216:	7882      	ldrb	r2, [r0, #2]
   25218:	0212      	lsls	r2, r2, #8
   2521a:	1851      	adds	r1, r2, r1
   2521c:	8029      	strh	r1, [r5, #0]
   2521e:	3008      	adds	r0, #8
   25220:	9905      	ldr	r1, [sp, #20]
   25222:	6e09      	ldr	r1, [r1, #96]	@ 0x60
   25224:	910b      	str	r1, [sp, #44]	@ 0x2c
   25226:	4b11      	ldr	r3, [pc, #68]	@ (2526c <_start+0x1370>)
   25228:	446b      	add	r3, sp
   2522a:	930c      	str	r3, [sp, #48]	@ 0x30
   2522c:	c846      	ldmia	r0!, {r1, r2, r6}
   2522e:	c346      	stmia	r3!, {r1, r2, r6}
   25230:	7800      	ldrb	r0, [r0, #0]
   25232:	7018      	strb	r0, [r3, #0]
   25234:	990b      	ldr	r1, [sp, #44]	@ 0x2c
   25236:	0e08      	lsrs	r0, r1, #24
   25238:	71a8      	strb	r0, [r5, #6]
   2523a:	0c08      	lsrs	r0, r1, #16
   2523c:	7168      	strb	r0, [r5, #5]
   2523e:	0a08      	lsrs	r0, r1, #8
   25240:	7128      	strb	r0, [r5, #4]
   25242:	70e9      	strb	r1, [r5, #3]
   25244:	1de8      	adds	r0, r5, #7
   25246:	220d      	movs	r2, #13
   25248:	990c      	ldr	r1, [sp, #48]	@ 0x30
   2524a:	f001 fe38 	bl	26ebe <__aeabi_memcpy>
   2524e:	4e05      	ldr	r6, [pc, #20]	@ (25264 <_start+0x1368>)
   25250:	446e      	add	r6, sp
   25252:	4630      	mov	r0, r6
   25254:	4629      	mov	r1, r5
   25256:	f7fa ff45 	bl	200e4 <_ZN18complex_no_dynamic3app17h0068f9a61f681730E>
   2525a:	7830      	ldrb	r0, [r6, #0]
   2525c:	2801      	cmp	r0, #1
   2525e:	d107      	bne.n	25270 <_start+0x1374>
   25260:	f001 fc5c 	bl	26b1c <_start+0x2c20>
   25264:	000013cc 	.word	0x000013cc
   25268:	000006f0 	.word	0x000006f0
   2526c:	00001370 	.word	0x00001370
   25270:	4817      	ldr	r0, [pc, #92]	@ (252d0 <_start+0x13d4>)
   25272:	4468      	add	r0, sp
   25274:	78c1      	ldrb	r1, [r0, #3]
   25276:	4d17      	ldr	r5, [pc, #92]	@ (252d4 <_start+0x13d8>)
   25278:	446d      	add	r5, sp
   2527a:	70a9      	strb	r1, [r5, #2]
   2527c:	7841      	ldrb	r1, [r0, #1]
   2527e:	7882      	ldrb	r2, [r0, #2]
   25280:	0212      	lsls	r2, r2, #8
   25282:	1851      	adds	r1, r2, r1
   25284:	8029      	strh	r1, [r5, #0]
   25286:	3008      	adds	r0, #8
   25288:	9905      	ldr	r1, [sp, #20]
   2528a:	6e09      	ldr	r1, [r1, #96]	@ 0x60
   2528c:	910b      	str	r1, [sp, #44]	@ 0x2c
   2528e:	4b12      	ldr	r3, [pc, #72]	@ (252d8 <_start+0x13dc>)
   25290:	446b      	add	r3, sp
   25292:	930c      	str	r3, [sp, #48]	@ 0x30
   25294:	c846      	ldmia	r0!, {r1, r2, r6}
   25296:	c346      	stmia	r3!, {r1, r2, r6}
   25298:	c846      	ldmia	r0!, {r1, r2, r6}
   2529a:	c346      	stmia	r3!, {r1, r2, r6}
   2529c:	c846      	ldmia	r0!, {r1, r2, r6}
   2529e:	c346      	stmia	r3!, {r1, r2, r6}
   252a0:	990b      	ldr	r1, [sp, #44]	@ 0x2c
   252a2:	0e08      	lsrs	r0, r1, #24
   252a4:	71a8      	strb	r0, [r5, #6]
   252a6:	0c08      	lsrs	r0, r1, #16
   252a8:	7168      	strb	r0, [r5, #5]
   252aa:	0a08      	lsrs	r0, r1, #8
   252ac:	7128      	strb	r0, [r5, #4]
   252ae:	70e9      	strb	r1, [r5, #3]
   252b0:	1de8      	adds	r0, r5, #7
   252b2:	2224      	movs	r2, #36	@ 0x24
   252b4:	990c      	ldr	r1, [sp, #48]	@ 0x30
   252b6:	f001 fe02 	bl	26ebe <__aeabi_memcpy>
   252ba:	4e05      	ldr	r6, [pc, #20]	@ (252d0 <_start+0x13d4>)
   252bc:	446e      	add	r6, sp
   252be:	4630      	mov	r0, r6
   252c0:	4629      	mov	r1, r5
   252c2:	f7fa ff63 	bl	2018c <_ZN18complex_no_dynamic3app17h012bdc3a9a27f297E>
   252c6:	7830      	ldrb	r0, [r6, #0]
   252c8:	2801      	cmp	r0, #1
   252ca:	d107      	bne.n	252dc <_start+0x13e0>
   252cc:	f001 fc26 	bl	26b1c <_start+0x2c20>
   252d0:	000013cc 	.word	0x000013cc
   252d4:	00000704 	.word	0x00000704
   252d8:	00001370 	.word	0x00001370
   252dc:	4818      	ldr	r0, [pc, #96]	@ (25340 <_start+0x1444>)
   252de:	4468      	add	r0, sp
   252e0:	78c1      	ldrb	r1, [r0, #3]
   252e2:	4d18      	ldr	r5, [pc, #96]	@ (25344 <_start+0x1448>)
   252e4:	446d      	add	r5, sp
   252e6:	70a9      	strb	r1, [r5, #2]
   252e8:	7841      	ldrb	r1, [r0, #1]
   252ea:	7882      	ldrb	r2, [r0, #2]
   252ec:	0212      	lsls	r2, r2, #8
   252ee:	1851      	adds	r1, r2, r1
   252f0:	8029      	strh	r1, [r5, #0]
   252f2:	3008      	adds	r0, #8
   252f4:	9905      	ldr	r1, [sp, #20]
   252f6:	6e09      	ldr	r1, [r1, #96]	@ 0x60
   252f8:	910b      	str	r1, [sp, #44]	@ 0x2c
   252fa:	4b13      	ldr	r3, [pc, #76]	@ (25348 <_start+0x144c>)
   252fc:	446b      	add	r3, sp
   252fe:	930c      	str	r3, [sp, #48]	@ 0x30
   25300:	c844      	ldmia	r0!, {r2, r6}
   25302:	c344      	stmia	r3!, {r2, r6}
   25304:	c846      	ldmia	r0!, {r1, r2, r6}
   25306:	c346      	stmia	r3!, {r1, r2, r6}
   25308:	8801      	ldrh	r1, [r0, #0]
   2530a:	8019      	strh	r1, [r3, #0]
   2530c:	7880      	ldrb	r0, [r0, #2]
   2530e:	7098      	strb	r0, [r3, #2]
   25310:	990b      	ldr	r1, [sp, #44]	@ 0x2c
   25312:	0e08      	lsrs	r0, r1, #24
   25314:	71a8      	strb	r0, [r5, #6]
   25316:	0c08      	lsrs	r0, r1, #16
   25318:	7168      	strb	r0, [r5, #5]
   2531a:	0a08      	lsrs	r0, r1, #8
   2531c:	7128      	strb	r0, [r5, #4]
   2531e:	70e9      	strb	r1, [r5, #3]
   25320:	1de8      	adds	r0, r5, #7
   25322:	2217      	movs	r2, #23
   25324:	990c      	ldr	r1, [sp, #48]	@ 0x30
   25326:	f001 fdca 	bl	26ebe <__aeabi_memcpy>
   2532a:	4e05      	ldr	r6, [pc, #20]	@ (25340 <_start+0x1444>)
   2532c:	446e      	add	r6, sp
   2532e:	4630      	mov	r0, r6
   25330:	4629      	mov	r1, r5
   25332:	f7fd f85b 	bl	223ec <_ZN18complex_no_dynamic3app17h824832598c1a5ed0E>
   25336:	7830      	ldrb	r0, [r6, #0]
   25338:	2801      	cmp	r0, #1
   2533a:	d107      	bne.n	2534c <_start+0x1450>
   2533c:	f001 fbee 	bl	26b1c <_start+0x2c20>
   25340:	000013cc 	.word	0x000013cc
   25344:	00000730 	.word	0x00000730
   25348:	00001370 	.word	0x00001370
   2534c:	4915      	ldr	r1, [pc, #84]	@ (253a4 <_start+0x14a8>)
   2534e:	4469      	add	r1, sp
   25350:	78c8      	ldrb	r0, [r1, #3]
   25352:	4d15      	ldr	r5, [pc, #84]	@ (253a8 <_start+0x14ac>)
   25354:	446d      	add	r5, sp
   25356:	70a8      	strb	r0, [r5, #2]
   25358:	7848      	ldrb	r0, [r1, #1]
   2535a:	788a      	ldrb	r2, [r1, #2]
   2535c:	0212      	lsls	r2, r2, #8
   2535e:	1810      	adds	r0, r2, r0
   25360:	8028      	strh	r0, [r5, #0]
   25362:	9805      	ldr	r0, [sp, #20]
   25364:	6e06      	ldr	r6, [r0, #96]	@ 0x60
   25366:	3108      	adds	r1, #8
   25368:	4810      	ldr	r0, [pc, #64]	@ (253ac <_start+0x14b0>)
   2536a:	4468      	add	r0, sp
   2536c:	900c      	str	r0, [sp, #48]	@ 0x30
   2536e:	224a      	movs	r2, #74	@ 0x4a
   25370:	920b      	str	r2, [sp, #44]	@ 0x2c
   25372:	f001 fc44 	bl	26bfe <__aeabi_memcpy4>
   25376:	0e30      	lsrs	r0, r6, #24
   25378:	71a8      	strb	r0, [r5, #6]
   2537a:	0c30      	lsrs	r0, r6, #16
   2537c:	7168      	strb	r0, [r5, #5]
   2537e:	0a30      	lsrs	r0, r6, #8
   25380:	7128      	strb	r0, [r5, #4]
   25382:	70ee      	strb	r6, [r5, #3]
   25384:	1de8      	adds	r0, r5, #7
   25386:	990c      	ldr	r1, [sp, #48]	@ 0x30
   25388:	9a0b      	ldr	r2, [sp, #44]	@ 0x2c
   2538a:	f001 fd98 	bl	26ebe <__aeabi_memcpy>
   2538e:	4e05      	ldr	r6, [pc, #20]	@ (253a4 <_start+0x14a8>)
   25390:	446e      	add	r6, sp
   25392:	4630      	mov	r0, r6
   25394:	4629      	mov	r1, r5
   25396:	f7fd fb71 	bl	22a7c <_ZN18complex_no_dynamic3app17hab69453d5deb5443E>
   2539a:	7830      	ldrb	r0, [r6, #0]
   2539c:	2801      	cmp	r0, #1
   2539e:	d107      	bne.n	253b0 <_start+0x14b4>
   253a0:	f001 fbbc 	bl	26b1c <_start+0x2c20>
   253a4:	000013cc 	.word	0x000013cc
   253a8:	00000750 	.word	0x00000750
   253ac:	00001370 	.word	0x00001370
   253b0:	9804      	ldr	r0, [sp, #16]
   253b2:	1cc0      	adds	r0, r0, #3
   253b4:	4a16      	ldr	r2, [pc, #88]	@ (25410 <_start+0x1514>)
   253b6:	446a      	add	r2, sp
   253b8:	78d3      	ldrb	r3, [r2, #3]
   253ba:	4916      	ldr	r1, [pc, #88]	@ (25414 <_start+0x1518>)
   253bc:	4469      	add	r1, sp
   253be:	708b      	strb	r3, [r1, #2]
   253c0:	7853      	ldrb	r3, [r2, #1]
   253c2:	7892      	ldrb	r2, [r2, #2]
   253c4:	0212      	lsls	r2, r2, #8
   253c6:	18d2      	adds	r2, r2, r3
   253c8:	800a      	strh	r2, [r1, #0]
   253ca:	9d05      	ldr	r5, [sp, #20]
   253cc:	3560      	adds	r5, #96	@ 0x60
   253ce:	cd2c      	ldmia	r5, {r2, r3, r5}
   253d0:	0e2e      	lsrs	r6, r5, #24
   253d2:	72c6      	strb	r6, [r0, #11]
   253d4:	0c2e      	lsrs	r6, r5, #16
   253d6:	7286      	strb	r6, [r0, #10]
   253d8:	0a2e      	lsrs	r6, r5, #8
   253da:	7246      	strb	r6, [r0, #9]
   253dc:	7205      	strb	r5, [r0, #8]
   253de:	0e1d      	lsrs	r5, r3, #24
   253e0:	71c5      	strb	r5, [r0, #7]
   253e2:	0c1d      	lsrs	r5, r3, #16
   253e4:	7185      	strb	r5, [r0, #6]
   253e6:	0a1d      	lsrs	r5, r3, #8
   253e8:	7145      	strb	r5, [r0, #5]
   253ea:	7103      	strb	r3, [r0, #4]
   253ec:	0e13      	lsrs	r3, r2, #24
   253ee:	70c3      	strb	r3, [r0, #3]
   253f0:	0c13      	lsrs	r3, r2, #16
   253f2:	7083      	strb	r3, [r0, #2]
   253f4:	0a13      	lsrs	r3, r2, #8
   253f6:	7043      	strb	r3, [r0, #1]
   253f8:	7002      	strb	r2, [r0, #0]
   253fa:	4d05      	ldr	r5, [pc, #20]	@ (25410 <_start+0x1514>)
   253fc:	446d      	add	r5, sp
   253fe:	4628      	mov	r0, r5
   25400:	f7fc fba6 	bl	21b50 <_ZN18complex_no_dynamic3app17h6ba34881a260b0ebE>
   25404:	7828      	ldrb	r0, [r5, #0]
   25406:	2801      	cmp	r0, #1
   25408:	d106      	bne.n	25418 <_start+0x151c>
   2540a:	f001 fb87 	bl	26b1c <_start+0x2c20>
   2540e:	46c0      	nop			@ (mov r8, r8)
   25410:	000013cc 	.word	0x000013cc
   25414:	000007a4 	.word	0x000007a4
   25418:	481b      	ldr	r0, [pc, #108]	@ (25488 <_start+0x158c>)
   2541a:	4468      	add	r0, sp
   2541c:	78c1      	ldrb	r1, [r0, #3]
   2541e:	4b1b      	ldr	r3, [pc, #108]	@ (2548c <_start+0x1590>)
   25420:	446b      	add	r3, sp
   25422:	930b      	str	r3, [sp, #44]	@ 0x2c
   25424:	7099      	strb	r1, [r3, #2]
   25426:	7841      	ldrb	r1, [r0, #1]
   25428:	7882      	ldrb	r2, [r0, #2]
   2542a:	0212      	lsls	r2, r2, #8
   2542c:	1851      	adds	r1, r2, r1
   2542e:	8019      	strh	r1, [r3, #0]
   25430:	3008      	adds	r0, #8
   25432:	9905      	ldr	r1, [sp, #20]
   25434:	6e09      	ldr	r1, [r1, #96]	@ 0x60
   25436:	910a      	str	r1, [sp, #40]	@ 0x28
   25438:	4b15      	ldr	r3, [pc, #84]	@ (25490 <_start+0x1594>)
   2543a:	446b      	add	r3, sp
   2543c:	930c      	str	r3, [sp, #48]	@ 0x30
   2543e:	c846      	ldmia	r0!, {r1, r2, r6}
   25440:	c346      	stmia	r3!, {r1, r2, r6}
   25442:	c866      	ldmia	r0!, {r1, r2, r5, r6}
   25444:	c366      	stmia	r3!, {r1, r2, r5, r6}
   25446:	c866      	ldmia	r0!, {r1, r2, r5, r6}
   25448:	c366      	stmia	r3!, {r1, r2, r5, r6}
   2544a:	c866      	ldmia	r0!, {r1, r2, r5, r6}
   2544c:	c366      	stmia	r3!, {r1, r2, r5, r6}
   2544e:	8801      	ldrh	r1, [r0, #0]
   25450:	8019      	strh	r1, [r3, #0]
   25452:	7880      	ldrb	r0, [r0, #2]
   25454:	7098      	strb	r0, [r3, #2]
   25456:	990a      	ldr	r1, [sp, #40]	@ 0x28
   25458:	0e08      	lsrs	r0, r1, #24
   2545a:	9d0b      	ldr	r5, [sp, #44]	@ 0x2c
   2545c:	71a8      	strb	r0, [r5, #6]
   2545e:	0c08      	lsrs	r0, r1, #16
   25460:	7168      	strb	r0, [r5, #5]
   25462:	0a08      	lsrs	r0, r1, #8
   25464:	7128      	strb	r0, [r5, #4]
   25466:	70e9      	strb	r1, [r5, #3]
   25468:	1de8      	adds	r0, r5, #7
   2546a:	223f      	movs	r2, #63	@ 0x3f
   2546c:	990c      	ldr	r1, [sp, #48]	@ 0x30
   2546e:	f001 fd26 	bl	26ebe <__aeabi_memcpy>
   25472:	4e05      	ldr	r6, [pc, #20]	@ (25488 <_start+0x158c>)
   25474:	446e      	add	r6, sp
   25476:	4630      	mov	r0, r6
   25478:	4629      	mov	r1, r5
   2547a:	f7fc ff63 	bl	22344 <_ZN18complex_no_dynamic3app17h7eef7af0f0758a32E>
   2547e:	7830      	ldrb	r0, [r6, #0]
   25480:	2801      	cmp	r0, #1
   25482:	d107      	bne.n	25494 <_start+0x1598>
   25484:	f001 fb4a 	bl	26b1c <_start+0x2c20>
   25488:	000013cc 	.word	0x000013cc
   2548c:	000007b4 	.word	0x000007b4
   25490:	00001370 	.word	0x00001370
   25494:	4915      	ldr	r1, [pc, #84]	@ (254ec <_start+0x15f0>)
   25496:	4469      	add	r1, sp
   25498:	78c8      	ldrb	r0, [r1, #3]
   2549a:	4d15      	ldr	r5, [pc, #84]	@ (254f0 <_start+0x15f4>)
   2549c:	446d      	add	r5, sp
   2549e:	70a8      	strb	r0, [r5, #2]
   254a0:	7848      	ldrb	r0, [r1, #1]
   254a2:	788a      	ldrb	r2, [r1, #2]
   254a4:	0212      	lsls	r2, r2, #8
   254a6:	1810      	adds	r0, r2, r0
   254a8:	8028      	strh	r0, [r5, #0]
   254aa:	9805      	ldr	r0, [sp, #20]
   254ac:	6e06      	ldr	r6, [r0, #96]	@ 0x60
   254ae:	3108      	adds	r1, #8
   254b0:	4810      	ldr	r0, [pc, #64]	@ (254f4 <_start+0x15f8>)
   254b2:	4468      	add	r0, sp
   254b4:	900c      	str	r0, [sp, #48]	@ 0x30
   254b6:	224f      	movs	r2, #79	@ 0x4f
   254b8:	920b      	str	r2, [sp, #44]	@ 0x2c
   254ba:	f001 fba0 	bl	26bfe <__aeabi_memcpy4>
   254be:	0e30      	lsrs	r0, r6, #24
   254c0:	71a8      	strb	r0, [r5, #6]
   254c2:	0c30      	lsrs	r0, r6, #16
   254c4:	7168      	strb	r0, [r5, #5]
   254c6:	0a30      	lsrs	r0, r6, #8
   254c8:	7128      	strb	r0, [r5, #4]
   254ca:	70ee      	strb	r6, [r5, #3]
   254cc:	1de8      	adds	r0, r5, #7
   254ce:	990c      	ldr	r1, [sp, #48]	@ 0x30
   254d0:	9a0b      	ldr	r2, [sp, #44]	@ 0x2c
   254d2:	f001 fcf4 	bl	26ebe <__aeabi_memcpy>
   254d6:	4e05      	ldr	r6, [pc, #20]	@ (254ec <_start+0x15f0>)
   254d8:	446e      	add	r6, sp
   254da:	4630      	mov	r0, r6
   254dc:	4629      	mov	r1, r5
   254de:	f7fc ffd9 	bl	22494 <_ZN18complex_no_dynamic3app17h841f98e09e57c3b0E>
   254e2:	7830      	ldrb	r0, [r6, #0]
   254e4:	2801      	cmp	r0, #1
   254e6:	d107      	bne.n	254f8 <_start+0x15fc>
   254e8:	f001 fb18 	bl	26b1c <_start+0x2c20>
   254ec:	000013cc 	.word	0x000013cc
   254f0:	000007fc 	.word	0x000007fc
   254f4:	00001370 	.word	0x00001370
   254f8:	4915      	ldr	r1, [pc, #84]	@ (25550 <_start+0x1654>)
   254fa:	4469      	add	r1, sp
   254fc:	78c8      	ldrb	r0, [r1, #3]
   254fe:	4d15      	ldr	r5, [pc, #84]	@ (25554 <_start+0x1658>)
   25500:	446d      	add	r5, sp
   25502:	70a8      	strb	r0, [r5, #2]
   25504:	7848      	ldrb	r0, [r1, #1]
   25506:	788a      	ldrb	r2, [r1, #2]
   25508:	0212      	lsls	r2, r2, #8
   2550a:	1810      	adds	r0, r2, r0
   2550c:	8028      	strh	r0, [r5, #0]
   2550e:	9805      	ldr	r0, [sp, #20]
   25510:	6e06      	ldr	r6, [r0, #96]	@ 0x60
   25512:	3108      	adds	r1, #8
   25514:	4810      	ldr	r0, [pc, #64]	@ (25558 <_start+0x165c>)
   25516:	4468      	add	r0, sp
   25518:	900c      	str	r0, [sp, #48]	@ 0x30
   2551a:	2242      	movs	r2, #66	@ 0x42
   2551c:	920b      	str	r2, [sp, #44]	@ 0x2c
   2551e:	f001 fb6e 	bl	26bfe <__aeabi_memcpy4>
   25522:	0e30      	lsrs	r0, r6, #24
   25524:	71a8      	strb	r0, [r5, #6]
   25526:	0c30      	lsrs	r0, r6, #16
   25528:	7168      	strb	r0, [r5, #5]
   2552a:	0a30      	lsrs	r0, r6, #8
   2552c:	7128      	strb	r0, [r5, #4]
   2552e:	70ee      	strb	r6, [r5, #3]
   25530:	1de8      	adds	r0, r5, #7
   25532:	990c      	ldr	r1, [sp, #48]	@ 0x30
   25534:	9a0b      	ldr	r2, [sp, #44]	@ 0x2c
   25536:	f001 fcc2 	bl	26ebe <__aeabi_memcpy>
   2553a:	4e05      	ldr	r6, [pc, #20]	@ (25550 <_start+0x1654>)
   2553c:	446e      	add	r6, sp
   2553e:	4630      	mov	r0, r6
   25540:	4629      	mov	r1, r5
   25542:	f7fe f9d7 	bl	238f4 <_ZN18complex_no_dynamic3app17hdf6d64e1105487afE>
   25546:	7830      	ldrb	r0, [r6, #0]
   25548:	2801      	cmp	r0, #1
   2554a:	d107      	bne.n	2555c <_start+0x1660>
   2554c:	f001 fae6 	bl	26b1c <_start+0x2c20>
   25550:	000013cc 	.word	0x000013cc
   25554:	00000854 	.word	0x00000854
   25558:	00001370 	.word	0x00001370
   2555c:	4817      	ldr	r0, [pc, #92]	@ (255bc <_start+0x16c0>)
   2555e:	4468      	add	r0, sp
   25560:	78c1      	ldrb	r1, [r0, #3]
   25562:	4b17      	ldr	r3, [pc, #92]	@ (255c0 <_start+0x16c4>)
   25564:	446b      	add	r3, sp
   25566:	930b      	str	r3, [sp, #44]	@ 0x2c
   25568:	7099      	strb	r1, [r3, #2]
   2556a:	7841      	ldrb	r1, [r0, #1]
   2556c:	7882      	ldrb	r2, [r0, #2]
   2556e:	0212      	lsls	r2, r2, #8
   25570:	1851      	adds	r1, r2, r1
   25572:	8019      	strh	r1, [r3, #0]
   25574:	3008      	adds	r0, #8
   25576:	9905      	ldr	r1, [sp, #20]
   25578:	6e09      	ldr	r1, [r1, #96]	@ 0x60
   2557a:	910a      	str	r1, [sp, #40]	@ 0x28
   2557c:	4b11      	ldr	r3, [pc, #68]	@ (255c4 <_start+0x16c8>)
   2557e:	446b      	add	r3, sp
   25580:	930c      	str	r3, [sp, #48]	@ 0x30
   25582:	c846      	ldmia	r0!, {r1, r2, r6}
   25584:	c346      	stmia	r3!, {r1, r2, r6}
   25586:	c866      	ldmia	r0!, {r1, r2, r5, r6}
   25588:	c366      	stmia	r3!, {r1, r2, r5, r6}
   2558a:	990a      	ldr	r1, [sp, #40]	@ 0x28
   2558c:	0e08      	lsrs	r0, r1, #24
   2558e:	9d0b      	ldr	r5, [sp, #44]	@ 0x2c
   25590:	71a8      	strb	r0, [r5, #6]
   25592:	0c08      	lsrs	r0, r1, #16
   25594:	7168      	strb	r0, [r5, #5]
   25596:	0a08      	lsrs	r0, r1, #8
   25598:	7128      	strb	r0, [r5, #4]
   2559a:	70e9      	strb	r1, [r5, #3]
   2559c:	1de8      	adds	r0, r5, #7
   2559e:	221c      	movs	r2, #28
   255a0:	990c      	ldr	r1, [sp, #48]	@ 0x30
   255a2:	f001 fc8c 	bl	26ebe <__aeabi_memcpy>
   255a6:	4e05      	ldr	r6, [pc, #20]	@ (255bc <_start+0x16c0>)
   255a8:	446e      	add	r6, sp
   255aa:	4630      	mov	r0, r6
   255ac:	4629      	mov	r1, r5
   255ae:	f7fe f8f9 	bl	237a4 <_ZN18complex_no_dynamic3app17hd868cef8d250a7b8E>
   255b2:	7830      	ldrb	r0, [r6, #0]
   255b4:	2801      	cmp	r0, #1
   255b6:	d107      	bne.n	255c8 <_start+0x16cc>
   255b8:	f001 fab0 	bl	26b1c <_start+0x2c20>
   255bc:	000013cc 	.word	0x000013cc
   255c0:	000008a0 	.word	0x000008a0
   255c4:	00001370 	.word	0x00001370
   255c8:	4817      	ldr	r0, [pc, #92]	@ (25628 <_start+0x172c>)
   255ca:	4468      	add	r0, sp
   255cc:	78c1      	ldrb	r1, [r0, #3]
   255ce:	4d17      	ldr	r5, [pc, #92]	@ (2562c <_start+0x1730>)
   255d0:	446d      	add	r5, sp
   255d2:	70a9      	strb	r1, [r5, #2]
   255d4:	7841      	ldrb	r1, [r0, #1]
   255d6:	7882      	ldrb	r2, [r0, #2]
   255d8:	0212      	lsls	r2, r2, #8
   255da:	1851      	adds	r1, r2, r1
   255dc:	8029      	strh	r1, [r5, #0]
   255de:	3008      	adds	r0, #8
   255e0:	9905      	ldr	r1, [sp, #20]
   255e2:	6e09      	ldr	r1, [r1, #96]	@ 0x60
   255e4:	910b      	str	r1, [sp, #44]	@ 0x2c
   255e6:	4b12      	ldr	r3, [pc, #72]	@ (25630 <_start+0x1734>)
   255e8:	446b      	add	r3, sp
   255ea:	930c      	str	r3, [sp, #48]	@ 0x30
   255ec:	c846      	ldmia	r0!, {r1, r2, r6}
   255ee:	c346      	stmia	r3!, {r1, r2, r6}
   255f0:	c846      	ldmia	r0!, {r1, r2, r6}
   255f2:	c346      	stmia	r3!, {r1, r2, r6}
   255f4:	c846      	ldmia	r0!, {r1, r2, r6}
   255f6:	c346      	stmia	r3!, {r1, r2, r6}
   255f8:	990b      	ldr	r1, [sp, #44]	@ 0x2c
   255fa:	0e08      	lsrs	r0, r1, #24
   255fc:	71a8      	strb	r0, [r5, #6]
   255fe:	0c08      	lsrs	r0, r1, #16
   25600:	7168      	strb	r0, [r5, #5]
   25602:	0a08      	lsrs	r0, r1, #8
   25604:	7128      	strb	r0, [r5, #4]
   25606:	70e9      	strb	r1, [r5, #3]
   25608:	1de8      	adds	r0, r5, #7
   2560a:	2224      	movs	r2, #36	@ 0x24
   2560c:	990c      	ldr	r1, [sp, #48]	@ 0x30
   2560e:	f001 fc56 	bl	26ebe <__aeabi_memcpy>
   25612:	4e05      	ldr	r6, [pc, #20]	@ (25628 <_start+0x172c>)
   25614:	446e      	add	r6, sp
   25616:	4630      	mov	r0, r6
   25618:	4629      	mov	r1, r5
   2561a:	f7fe fbc1 	bl	23da0 <_ZN18complex_no_dynamic3app17hff767db9f8b982f7E>
   2561e:	7830      	ldrb	r0, [r6, #0]
   25620:	2801      	cmp	r0, #1
   25622:	d107      	bne.n	25634 <_start+0x1738>
   25624:	f001 fa7a 	bl	26b1c <_start+0x2c20>
   25628:	000013cc 	.word	0x000013cc
   2562c:	000008c4 	.word	0x000008c4
   25630:	00001370 	.word	0x00001370
   25634:	4914      	ldr	r1, [pc, #80]	@ (25688 <_start+0x178c>)
   25636:	4469      	add	r1, sp
   25638:	9b05      	ldr	r3, [sp, #20]
   2563a:	6e98      	ldr	r0, [r3, #104]	@ 0x68
   2563c:	8088      	strh	r0, [r1, #4]
   2563e:	4813      	ldr	r0, [pc, #76]	@ (2568c <_start+0x1790>)
   25640:	4468      	add	r0, sp
   25642:	78c2      	ldrb	r2, [r0, #3]
   25644:	4d12      	ldr	r5, [pc, #72]	@ (25690 <_start+0x1794>)
   25646:	446d      	add	r5, sp
   25648:	70aa      	strb	r2, [r5, #2]
   2564a:	7842      	ldrb	r2, [r0, #1]
   2564c:	7880      	ldrb	r0, [r0, #2]
   2564e:	0200      	lsls	r0, r0, #8
   25650:	1880      	adds	r0, r0, r2
   25652:	8028      	strh	r0, [r5, #0]
   25654:	6e18      	ldr	r0, [r3, #96]	@ 0x60
   25656:	70e8      	strb	r0, [r5, #3]
   25658:	0e02      	lsrs	r2, r0, #24
   2565a:	71aa      	strb	r2, [r5, #6]
   2565c:	0c02      	lsrs	r2, r0, #16
   2565e:	716a      	strb	r2, [r5, #5]
   25660:	0a00      	lsrs	r0, r0, #8
   25662:	7128      	strb	r0, [r5, #4]
   25664:	6e58      	ldr	r0, [r3, #100]	@ 0x64
   25666:	6018      	str	r0, [r3, #0]
   25668:	1de8      	adds	r0, r5, #7
   2566a:	2206      	movs	r2, #6
   2566c:	f001 fc27 	bl	26ebe <__aeabi_memcpy>
   25670:	4e06      	ldr	r6, [pc, #24]	@ (2568c <_start+0x1790>)
   25672:	446e      	add	r6, sp
   25674:	4630      	mov	r0, r6
   25676:	4629      	mov	r1, r5
   25678:	f7fd ff44 	bl	23504 <_ZN18complex_no_dynamic3app17hcf99730175c6e803E>
   2567c:	7830      	ldrb	r0, [r6, #0]
   2567e:	2801      	cmp	r0, #1
   25680:	d108      	bne.n	25694 <_start+0x1798>
   25682:	f001 fa4b 	bl	26b1c <_start+0x2c20>
   25686:	46c0      	nop			@ (mov r8, r8)
   25688:	00001370 	.word	0x00001370
   2568c:	000013cc 	.word	0x000013cc
   25690:	000008f0 	.word	0x000008f0
   25694:	4817      	ldr	r0, [pc, #92]	@ (256f4 <_start+0x17f8>)
   25696:	4468      	add	r0, sp
   25698:	78c1      	ldrb	r1, [r0, #3]
   2569a:	4d17      	ldr	r5, [pc, #92]	@ (256f8 <_start+0x17fc>)
   2569c:	446d      	add	r5, sp
   2569e:	70a9      	strb	r1, [r5, #2]
   256a0:	7841      	ldrb	r1, [r0, #1]
   256a2:	7882      	ldrb	r2, [r0, #2]
   256a4:	0212      	lsls	r2, r2, #8
   256a6:	1851      	adds	r1, r2, r1
   256a8:	8029      	strh	r1, [r5, #0]
   256aa:	3008      	adds	r0, #8
   256ac:	9905      	ldr	r1, [sp, #20]
   256ae:	6e09      	ldr	r1, [r1, #96]	@ 0x60
   256b0:	910b      	str	r1, [sp, #44]	@ 0x2c
   256b2:	4b12      	ldr	r3, [pc, #72]	@ (256fc <_start+0x1800>)
   256b4:	446b      	add	r3, sp
   256b6:	930c      	str	r3, [sp, #48]	@ 0x30
   256b8:	c846      	ldmia	r0!, {r1, r2, r6}
   256ba:	c346      	stmia	r3!, {r1, r2, r6}
   256bc:	c846      	ldmia	r0!, {r1, r2, r6}
   256be:	c346      	stmia	r3!, {r1, r2, r6}
   256c0:	8800      	ldrh	r0, [r0, #0]
   256c2:	8018      	strh	r0, [r3, #0]
   256c4:	990b      	ldr	r1, [sp, #44]	@ 0x2c
   256c6:	0e08      	lsrs	r0, r1, #24
   256c8:	71a8      	strb	r0, [r5, #6]
   256ca:	0c08      	lsrs	r0, r1, #16
   256cc:	7168      	strb	r0, [r5, #5]
   256ce:	0a08      	lsrs	r0, r1, #8
   256d0:	7128      	strb	r0, [r5, #4]
   256d2:	70e9      	strb	r1, [r5, #3]
   256d4:	1de8      	adds	r0, r5, #7
   256d6:	221a      	movs	r2, #26
   256d8:	990c      	ldr	r1, [sp, #48]	@ 0x30
   256da:	f001 fbf0 	bl	26ebe <__aeabi_memcpy>
   256de:	4e05      	ldr	r6, [pc, #20]	@ (256f4 <_start+0x17f8>)
   256e0:	446e      	add	r6, sp
   256e2:	4630      	mov	r0, r6
   256e4:	4629      	mov	r1, r5
   256e6:	f7fc fb85 	bl	21df4 <_ZN18complex_no_dynamic3app17h71a1283dea09ade7E>
   256ea:	7830      	ldrb	r0, [r6, #0]
   256ec:	2801      	cmp	r0, #1
   256ee:	d107      	bne.n	25700 <_start+0x1804>
   256f0:	f001 fa14 	bl	26b1c <_start+0x2c20>
   256f4:	000013cc 	.word	0x000013cc
   256f8:	00000900 	.word	0x00000900
   256fc:	00001370 	.word	0x00001370
   25700:	4915      	ldr	r1, [pc, #84]	@ (25758 <_start+0x185c>)
   25702:	4469      	add	r1, sp
   25704:	78c8      	ldrb	r0, [r1, #3]
   25706:	4d15      	ldr	r5, [pc, #84]	@ (2575c <_start+0x1860>)
   25708:	446d      	add	r5, sp
   2570a:	70a8      	strb	r0, [r5, #2]
   2570c:	7848      	ldrb	r0, [r1, #1]
   2570e:	788a      	ldrb	r2, [r1, #2]
   25710:	0212      	lsls	r2, r2, #8
   25712:	1810      	adds	r0, r2, r0
   25714:	8028      	strh	r0, [r5, #0]
   25716:	9805      	ldr	r0, [sp, #20]
   25718:	6e06      	ldr	r6, [r0, #96]	@ 0x60
   2571a:	3108      	adds	r1, #8
   2571c:	4810      	ldr	r0, [pc, #64]	@ (25760 <_start+0x1864>)
   2571e:	4468      	add	r0, sp
   25720:	900c      	str	r0, [sp, #48]	@ 0x30
   25722:	224c      	movs	r2, #76	@ 0x4c
   25724:	920b      	str	r2, [sp, #44]	@ 0x2c
   25726:	f001 fa6a 	bl	26bfe <__aeabi_memcpy4>
   2572a:	0e30      	lsrs	r0, r6, #24
   2572c:	71a8      	strb	r0, [r5, #6]
   2572e:	0c30      	lsrs	r0, r6, #16
   25730:	7168      	strb	r0, [r5, #5]
   25732:	0a30      	lsrs	r0, r6, #8
   25734:	7128      	strb	r0, [r5, #4]
   25736:	70ee      	strb	r6, [r5, #3]
   25738:	1de8      	adds	r0, r5, #7
   2573a:	990c      	ldr	r1, [sp, #48]	@ 0x30
   2573c:	9a0b      	ldr	r2, [sp, #44]	@ 0x2c
   2573e:	f001 fbbe 	bl	26ebe <__aeabi_memcpy>
   25742:	4e05      	ldr	r6, [pc, #20]	@ (25758 <_start+0x185c>)
   25744:	446e      	add	r6, sp
   25746:	4630      	mov	r0, r6
   25748:	4629      	mov	r1, r5
   2574a:	f7fd fe87 	bl	2345c <_ZN18complex_no_dynamic3app17hc9adf2cb3bbea06eE>
   2574e:	7830      	ldrb	r0, [r6, #0]
   25750:	2801      	cmp	r0, #1
   25752:	d107      	bne.n	25764 <_start+0x1868>
   25754:	f001 f9e2 	bl	26b1c <_start+0x2c20>
   25758:	000013cc 	.word	0x000013cc
   2575c:	00000924 	.word	0x00000924
   25760:	00001370 	.word	0x00001370
   25764:	4915      	ldr	r1, [pc, #84]	@ (257bc <_start+0x18c0>)
   25766:	4469      	add	r1, sp
   25768:	78c8      	ldrb	r0, [r1, #3]
   2576a:	4d15      	ldr	r5, [pc, #84]	@ (257c0 <_start+0x18c4>)
   2576c:	446d      	add	r5, sp
   2576e:	70a8      	strb	r0, [r5, #2]
   25770:	7848      	ldrb	r0, [r1, #1]
   25772:	788a      	ldrb	r2, [r1, #2]
   25774:	0212      	lsls	r2, r2, #8
   25776:	1810      	adds	r0, r2, r0
   25778:	8028      	strh	r0, [r5, #0]
   2577a:	9805      	ldr	r0, [sp, #20]
   2577c:	6e06      	ldr	r6, [r0, #96]	@ 0x60
   2577e:	3108      	adds	r1, #8
   25780:	4810      	ldr	r0, [pc, #64]	@ (257c4 <_start+0x18c8>)
   25782:	4468      	add	r0, sp
   25784:	900c      	str	r0, [sp, #48]	@ 0x30
   25786:	2246      	movs	r2, #70	@ 0x46
   25788:	920b      	str	r2, [sp, #44]	@ 0x2c
   2578a:	f001 fa38 	bl	26bfe <__aeabi_memcpy4>
   2578e:	0e30      	lsrs	r0, r6, #24
   25790:	71a8      	strb	r0, [r5, #6]
   25792:	0c30      	lsrs	r0, r6, #16
   25794:	7168      	strb	r0, [r5, #5]
   25796:	0a30      	lsrs	r0, r6, #8
   25798:	7128      	strb	r0, [r5, #4]
   2579a:	70ee      	strb	r6, [r5, #3]
   2579c:	1de8      	adds	r0, r5, #7
   2579e:	990c      	ldr	r1, [sp, #48]	@ 0x30
   257a0:	9a0b      	ldr	r2, [sp, #44]	@ 0x2c
   257a2:	f001 fb8c 	bl	26ebe <__aeabi_memcpy>
   257a6:	4e05      	ldr	r6, [pc, #20]	@ (257bc <_start+0x18c0>)
   257a8:	446e      	add	r6, sp
   257aa:	4630      	mov	r0, r6
   257ac:	4629      	mov	r1, r5
   257ae:	f7fb f839 	bl	20824 <_ZN18complex_no_dynamic3app17h1d9cf14374af116fE>
   257b2:	7830      	ldrb	r0, [r6, #0]
   257b4:	2801      	cmp	r0, #1
   257b6:	d107      	bne.n	257c8 <_start+0x18cc>
   257b8:	f001 f9b0 	bl	26b1c <_start+0x2c20>
   257bc:	000013cc 	.word	0x000013cc
   257c0:	00000978 	.word	0x00000978
   257c4:	00001370 	.word	0x00001370
   257c8:	481a      	ldr	r0, [pc, #104]	@ (25834 <_start+0x1938>)
   257ca:	4468      	add	r0, sp
   257cc:	78c1      	ldrb	r1, [r0, #3]
   257ce:	4b1a      	ldr	r3, [pc, #104]	@ (25838 <_start+0x193c>)
   257d0:	446b      	add	r3, sp
   257d2:	930b      	str	r3, [sp, #44]	@ 0x2c
   257d4:	7099      	strb	r1, [r3, #2]
   257d6:	7841      	ldrb	r1, [r0, #1]
   257d8:	7882      	ldrb	r2, [r0, #2]
   257da:	0212      	lsls	r2, r2, #8
   257dc:	1851      	adds	r1, r2, r1
   257de:	8019      	strh	r1, [r3, #0]
   257e0:	3008      	adds	r0, #8
   257e2:	9905      	ldr	r1, [sp, #20]
   257e4:	6e09      	ldr	r1, [r1, #96]	@ 0x60
   257e6:	910a      	str	r1, [sp, #40]	@ 0x28
   257e8:	4b14      	ldr	r3, [pc, #80]	@ (2583c <_start+0x1940>)
   257ea:	446b      	add	r3, sp
   257ec:	930c      	str	r3, [sp, #48]	@ 0x30
   257ee:	c846      	ldmia	r0!, {r1, r2, r6}
   257f0:	c346      	stmia	r3!, {r1, r2, r6}
   257f2:	c846      	ldmia	r0!, {r1, r2, r6}
   257f4:	c346      	stmia	r3!, {r1, r2, r6}
   257f6:	c846      	ldmia	r0!, {r1, r2, r6}
   257f8:	c346      	stmia	r3!, {r1, r2, r6}
   257fa:	c866      	ldmia	r0!, {r1, r2, r5, r6}
   257fc:	c366      	stmia	r3!, {r1, r2, r5, r6}
   257fe:	7800      	ldrb	r0, [r0, #0]
   25800:	7018      	strb	r0, [r3, #0]
   25802:	990a      	ldr	r1, [sp, #40]	@ 0x28
   25804:	0e08      	lsrs	r0, r1, #24
   25806:	9d0b      	ldr	r5, [sp, #44]	@ 0x2c
   25808:	71a8      	strb	r0, [r5, #6]
   2580a:	0c08      	lsrs	r0, r1, #16
   2580c:	7168      	strb	r0, [r5, #5]
   2580e:	0a08      	lsrs	r0, r1, #8
   25810:	7128      	strb	r0, [r5, #4]
   25812:	70e9      	strb	r1, [r5, #3]
   25814:	1de8      	adds	r0, r5, #7
   25816:	2235      	movs	r2, #53	@ 0x35
   25818:	990c      	ldr	r1, [sp, #48]	@ 0x30
   2581a:	f001 fb50 	bl	26ebe <__aeabi_memcpy>
   2581e:	4e05      	ldr	r6, [pc, #20]	@ (25834 <_start+0x1938>)
   25820:	446e      	add	r6, sp
   25822:	4630      	mov	r0, r6
   25824:	4629      	mov	r1, r5
   25826:	f7fe f8b9 	bl	2399c <_ZN18complex_no_dynamic3app17he641e211a8c7845cE>
   2582a:	7830      	ldrb	r0, [r6, #0]
   2582c:	2801      	cmp	r0, #1
   2582e:	d107      	bne.n	25840 <_start+0x1944>
   25830:	f001 f974 	bl	26b1c <_start+0x2c20>
   25834:	000013cc 	.word	0x000013cc
   25838:	000009c8 	.word	0x000009c8
   2583c:	00001370 	.word	0x00001370
   25840:	4819      	ldr	r0, [pc, #100]	@ (258a8 <_start+0x19ac>)
   25842:	4468      	add	r0, sp
   25844:	78c1      	ldrb	r1, [r0, #3]
   25846:	4b19      	ldr	r3, [pc, #100]	@ (258ac <_start+0x19b0>)
   25848:	446b      	add	r3, sp
   2584a:	930b      	str	r3, [sp, #44]	@ 0x2c
   2584c:	7099      	strb	r1, [r3, #2]
   2584e:	7841      	ldrb	r1, [r0, #1]
   25850:	7882      	ldrb	r2, [r0, #2]
   25852:	0212      	lsls	r2, r2, #8
   25854:	1851      	adds	r1, r2, r1
   25856:	8019      	strh	r1, [r3, #0]
   25858:	3008      	adds	r0, #8
   2585a:	9905      	ldr	r1, [sp, #20]
   2585c:	6e09      	ldr	r1, [r1, #96]	@ 0x60
   2585e:	910a      	str	r1, [sp, #40]	@ 0x28
   25860:	4b13      	ldr	r3, [pc, #76]	@ (258b0 <_start+0x19b4>)
   25862:	446b      	add	r3, sp
   25864:	930c      	str	r3, [sp, #48]	@ 0x30
   25866:	c866      	ldmia	r0!, {r1, r2, r5, r6}
   25868:	c366      	stmia	r3!, {r1, r2, r5, r6}
   2586a:	c866      	ldmia	r0!, {r1, r2, r5, r6}
   2586c:	c366      	stmia	r3!, {r1, r2, r5, r6}
   2586e:	c866      	ldmia	r0!, {r1, r2, r5, r6}
   25870:	c366      	stmia	r3!, {r1, r2, r5, r6}
   25872:	7800      	ldrb	r0, [r0, #0]
   25874:	7018      	strb	r0, [r3, #0]
   25876:	990a      	ldr	r1, [sp, #40]	@ 0x28
   25878:	0e08      	lsrs	r0, r1, #24
   2587a:	9d0b      	ldr	r5, [sp, #44]	@ 0x2c
   2587c:	71a8      	strb	r0, [r5, #6]
   2587e:	0c08      	lsrs	r0, r1, #16
   25880:	7168      	strb	r0, [r5, #5]
   25882:	0a08      	lsrs	r0, r1, #8
   25884:	7128      	strb	r0, [r5, #4]
   25886:	70e9      	strb	r1, [r5, #3]
   25888:	1de8      	adds	r0, r5, #7
   2588a:	2231      	movs	r2, #49	@ 0x31
   2588c:	990c      	ldr	r1, [sp, #48]	@ 0x30
   2588e:	f001 fb16 	bl	26ebe <__aeabi_memcpy>
   25892:	4e05      	ldr	r6, [pc, #20]	@ (258a8 <_start+0x19ac>)
   25894:	446e      	add	r6, sp
   25896:	4630      	mov	r0, r6
   25898:	4629      	mov	r1, r5
   2589a:	f7fd f847 	bl	2292c <_ZN18complex_no_dynamic3app17ha9b94bdb18313ec0E>
   2589e:	7830      	ldrb	r0, [r6, #0]
   258a0:	2801      	cmp	r0, #1
   258a2:	d107      	bne.n	258b4 <_start+0x19b8>
   258a4:	f001 f93a 	bl	26b1c <_start+0x2c20>
   258a8:	000013cc 	.word	0x000013cc
   258ac:	00000a04 	.word	0x00000a04
   258b0:	00001370 	.word	0x00001370
   258b4:	4817      	ldr	r0, [pc, #92]	@ (25914 <_start+0x1a18>)
   258b6:	4468      	add	r0, sp
   258b8:	78c1      	ldrb	r1, [r0, #3]
   258ba:	4b17      	ldr	r3, [pc, #92]	@ (25918 <_start+0x1a1c>)
   258bc:	446b      	add	r3, sp
   258be:	930b      	str	r3, [sp, #44]	@ 0x2c
   258c0:	7099      	strb	r1, [r3, #2]
   258c2:	7841      	ldrb	r1, [r0, #1]
   258c4:	7882      	ldrb	r2, [r0, #2]
   258c6:	0212      	lsls	r2, r2, #8
   258c8:	1851      	adds	r1, r2, r1
   258ca:	8019      	strh	r1, [r3, #0]
   258cc:	3008      	adds	r0, #8
   258ce:	9905      	ldr	r1, [sp, #20]
   258d0:	6e09      	ldr	r1, [r1, #96]	@ 0x60
   258d2:	910a      	str	r1, [sp, #40]	@ 0x28
   258d4:	4b11      	ldr	r3, [pc, #68]	@ (2591c <_start+0x1a20>)
   258d6:	446b      	add	r3, sp
   258d8:	930c      	str	r3, [sp, #48]	@ 0x30
   258da:	c866      	ldmia	r0!, {r1, r2, r5, r6}
   258dc:	c366      	stmia	r3!, {r1, r2, r5, r6}
   258de:	c866      	ldmia	r0!, {r1, r2, r5, r6}
   258e0:	c366      	stmia	r3!, {r1, r2, r5, r6}
   258e2:	990a      	ldr	r1, [sp, #40]	@ 0x28
   258e4:	0e08      	lsrs	r0, r1, #24
   258e6:	9d0b      	ldr	r5, [sp, #44]	@ 0x2c
   258e8:	71a8      	strb	r0, [r5, #6]
   258ea:	0c08      	lsrs	r0, r1, #16
   258ec:	7168      	strb	r0, [r5, #5]
   258ee:	0a08      	lsrs	r0, r1, #8
   258f0:	7128      	strb	r0, [r5, #4]
   258f2:	70e9      	strb	r1, [r5, #3]
   258f4:	1de8      	adds	r0, r5, #7
   258f6:	2220      	movs	r2, #32
   258f8:	990c      	ldr	r1, [sp, #48]	@ 0x30
   258fa:	f001 fae0 	bl	26ebe <__aeabi_memcpy>
   258fe:	4e05      	ldr	r6, [pc, #20]	@ (25914 <_start+0x1a18>)
   25900:	446e      	add	r6, sp
   25902:	4630      	mov	r0, r6
   25904:	4629      	mov	r1, r5
   25906:	f7fd fc03 	bl	23110 <_ZN18complex_no_dynamic3app17hc527dff596039336E>
   2590a:	7830      	ldrb	r0, [r6, #0]
   2590c:	2801      	cmp	r0, #1
   2590e:	d107      	bne.n	25920 <_start+0x1a24>
   25910:	f001 f904 	bl	26b1c <_start+0x2c20>
   25914:	000013cc 	.word	0x000013cc
   25918:	00000a3c 	.word	0x00000a3c
   2591c:	00001370 	.word	0x00001370
   25920:	4915      	ldr	r1, [pc, #84]	@ (25978 <_start+0x1a7c>)
   25922:	4469      	add	r1, sp
   25924:	78c8      	ldrb	r0, [r1, #3]
   25926:	4d15      	ldr	r5, [pc, #84]	@ (2597c <_start+0x1a80>)
   25928:	446d      	add	r5, sp
   2592a:	70a8      	strb	r0, [r5, #2]
   2592c:	7848      	ldrb	r0, [r1, #1]
   2592e:	788a      	ldrb	r2, [r1, #2]
   25930:	0212      	lsls	r2, r2, #8
   25932:	1810      	adds	r0, r2, r0
   25934:	8028      	strh	r0, [r5, #0]
   25936:	9805      	ldr	r0, [sp, #20]
   25938:	6e06      	ldr	r6, [r0, #96]	@ 0x60
   2593a:	3108      	adds	r1, #8
   2593c:	4810      	ldr	r0, [pc, #64]	@ (25980 <_start+0x1a84>)
   2593e:	4468      	add	r0, sp
   25940:	900c      	str	r0, [sp, #48]	@ 0x30
   25942:	224a      	movs	r2, #74	@ 0x4a
   25944:	920b      	str	r2, [sp, #44]	@ 0x2c
   25946:	f001 f95a 	bl	26bfe <__aeabi_memcpy4>
   2594a:	0e30      	lsrs	r0, r6, #24
   2594c:	71a8      	strb	r0, [r5, #6]
   2594e:	0c30      	lsrs	r0, r6, #16
   25950:	7168      	strb	r0, [r5, #5]
   25952:	0a30      	lsrs	r0, r6, #8
   25954:	7128      	strb	r0, [r5, #4]
   25956:	70ee      	strb	r6, [r5, #3]
   25958:	1de8      	adds	r0, r5, #7
   2595a:	990c      	ldr	r1, [sp, #48]	@ 0x30
   2595c:	9a0b      	ldr	r2, [sp, #44]	@ 0x2c
   2595e:	f001 faae 	bl	26ebe <__aeabi_memcpy>
   25962:	4e05      	ldr	r6, [pc, #20]	@ (25978 <_start+0x1a7c>)
   25964:	446e      	add	r6, sp
   25966:	4630      	mov	r0, r6
   25968:	4629      	mov	r1, r5
   2596a:	f7fc f945 	bl	21bf8 <_ZN18complex_no_dynamic3app17h6c2323dac7d2a43fE>
   2596e:	7830      	ldrb	r0, [r6, #0]
   25970:	2801      	cmp	r0, #1
   25972:	d107      	bne.n	25984 <_start+0x1a88>
   25974:	f001 f8d2 	bl	26b1c <_start+0x2c20>
   25978:	000013cc 	.word	0x000013cc
   2597c:	00000a64 	.word	0x00000a64
   25980:	00001370 	.word	0x00001370
   25984:	4915      	ldr	r1, [pc, #84]	@ (259dc <_start+0x1ae0>)
   25986:	4469      	add	r1, sp
   25988:	78c8      	ldrb	r0, [r1, #3]
   2598a:	4d15      	ldr	r5, [pc, #84]	@ (259e0 <_start+0x1ae4>)
   2598c:	446d      	add	r5, sp
   2598e:	70a8      	strb	r0, [r5, #2]
   25990:	7848      	ldrb	r0, [r1, #1]
   25992:	788a      	ldrb	r2, [r1, #2]
   25994:	0212      	lsls	r2, r2, #8
   25996:	1810      	adds	r0, r2, r0
   25998:	8028      	strh	r0, [r5, #0]
   2599a:	9805      	ldr	r0, [sp, #20]
   2599c:	6e06      	ldr	r6, [r0, #96]	@ 0x60
   2599e:	3108      	adds	r1, #8
   259a0:	4810      	ldr	r0, [pc, #64]	@ (259e4 <_start+0x1ae8>)
   259a2:	4468      	add	r0, sp
   259a4:	900c      	str	r0, [sp, #48]	@ 0x30
   259a6:	2248      	movs	r2, #72	@ 0x48
   259a8:	920b      	str	r2, [sp, #44]	@ 0x2c
   259aa:	f001 f928 	bl	26bfe <__aeabi_memcpy4>
   259ae:	0e30      	lsrs	r0, r6, #24
   259b0:	71a8      	strb	r0, [r5, #6]
   259b2:	0c30      	lsrs	r0, r6, #16
   259b4:	7168      	strb	r0, [r5, #5]
   259b6:	0a30      	lsrs	r0, r6, #8
   259b8:	7128      	strb	r0, [r5, #4]
   259ba:	70ee      	strb	r6, [r5, #3]
   259bc:	1de8      	adds	r0, r5, #7
   259be:	990c      	ldr	r1, [sp, #48]	@ 0x30
   259c0:	9a0b      	ldr	r2, [sp, #44]	@ 0x2c
   259c2:	f001 fa7c 	bl	26ebe <__aeabi_memcpy>
   259c6:	4e05      	ldr	r6, [pc, #20]	@ (259dc <_start+0x1ae0>)
   259c8:	446e      	add	r6, sp
   259ca:	4630      	mov	r0, r6
   259cc:	4629      	mov	r1, r5
   259ce:	f7fc fa65 	bl	21e9c <_ZN18complex_no_dynamic3app17h7206dfa6b5274dc5E>
   259d2:	7830      	ldrb	r0, [r6, #0]
   259d4:	2801      	cmp	r0, #1
   259d6:	d107      	bne.n	259e8 <_start+0x1aec>
   259d8:	f001 f8a0 	bl	26b1c <_start+0x2c20>
   259dc:	000013cc 	.word	0x000013cc
   259e0:	00000ab8 	.word	0x00000ab8
   259e4:	00001370 	.word	0x00001370
   259e8:	4915      	ldr	r1, [pc, #84]	@ (25a40 <_start+0x1b44>)
   259ea:	4469      	add	r1, sp
   259ec:	78c8      	ldrb	r0, [r1, #3]
   259ee:	4d15      	ldr	r5, [pc, #84]	@ (25a44 <_start+0x1b48>)
   259f0:	446d      	add	r5, sp
   259f2:	70a8      	strb	r0, [r5, #2]
   259f4:	7848      	ldrb	r0, [r1, #1]
   259f6:	788a      	ldrb	r2, [r1, #2]
   259f8:	0212      	lsls	r2, r2, #8
   259fa:	1810      	adds	r0, r2, r0
   259fc:	8028      	strh	r0, [r5, #0]
   259fe:	9805      	ldr	r0, [sp, #20]
   25a00:	6e06      	ldr	r6, [r0, #96]	@ 0x60
   25a02:	3108      	adds	r1, #8
   25a04:	4810      	ldr	r0, [pc, #64]	@ (25a48 <_start+0x1b4c>)
   25a06:	4468      	add	r0, sp
   25a08:	900c      	str	r0, [sp, #48]	@ 0x30
   25a0a:	225a      	movs	r2, #90	@ 0x5a
   25a0c:	920b      	str	r2, [sp, #44]	@ 0x2c
   25a0e:	f001 f8f6 	bl	26bfe <__aeabi_memcpy4>
   25a12:	0e30      	lsrs	r0, r6, #24
   25a14:	71a8      	strb	r0, [r5, #6]
   25a16:	0c30      	lsrs	r0, r6, #16
   25a18:	7168      	strb	r0, [r5, #5]
   25a1a:	0a30      	lsrs	r0, r6, #8
   25a1c:	7128      	strb	r0, [r5, #4]
   25a1e:	70ee      	strb	r6, [r5, #3]
   25a20:	1de8      	adds	r0, r5, #7
   25a22:	990c      	ldr	r1, [sp, #48]	@ 0x30
   25a24:	9a0b      	ldr	r2, [sp, #44]	@ 0x2c
   25a26:	f001 fa4a 	bl	26ebe <__aeabi_memcpy>
   25a2a:	4e05      	ldr	r6, [pc, #20]	@ (25a40 <_start+0x1b44>)
   25a2c:	446e      	add	r6, sp
   25a2e:	4630      	mov	r0, r6
   25a30:	4629      	mov	r1, r5
   25a32:	f7fb ff35 	bl	218a0 <_ZN18complex_no_dynamic3app17h5c3ba6ff92bad1c8E>
   25a36:	7830      	ldrb	r0, [r6, #0]
   25a38:	2801      	cmp	r0, #1
   25a3a:	d107      	bne.n	25a4c <_start+0x1b50>
   25a3c:	f001 f86e 	bl	26b1c <_start+0x2c20>
   25a40:	000013cc 	.word	0x000013cc
   25a44:	00000b08 	.word	0x00000b08
   25a48:	00001370 	.word	0x00001370
   25a4c:	4818      	ldr	r0, [pc, #96]	@ (25ab0 <_start+0x1bb4>)
   25a4e:	4468      	add	r0, sp
   25a50:	78c1      	ldrb	r1, [r0, #3]
   25a52:	4d18      	ldr	r5, [pc, #96]	@ (25ab4 <_start+0x1bb8>)
   25a54:	446d      	add	r5, sp
   25a56:	70a9      	strb	r1, [r5, #2]
   25a58:	7841      	ldrb	r1, [r0, #1]
   25a5a:	7882      	ldrb	r2, [r0, #2]
   25a5c:	0212      	lsls	r2, r2, #8
   25a5e:	1851      	adds	r1, r2, r1
   25a60:	8029      	strh	r1, [r5, #0]
   25a62:	3008      	adds	r0, #8
   25a64:	9905      	ldr	r1, [sp, #20]
   25a66:	6e09      	ldr	r1, [r1, #96]	@ 0x60
   25a68:	910b      	str	r1, [sp, #44]	@ 0x2c
   25a6a:	4b13      	ldr	r3, [pc, #76]	@ (25ab8 <_start+0x1bbc>)
   25a6c:	446b      	add	r3, sp
   25a6e:	930c      	str	r3, [sp, #48]	@ 0x30
   25a70:	c844      	ldmia	r0!, {r2, r6}
   25a72:	c344      	stmia	r3!, {r2, r6}
   25a74:	c846      	ldmia	r0!, {r1, r2, r6}
   25a76:	c346      	stmia	r3!, {r1, r2, r6}
   25a78:	8801      	ldrh	r1, [r0, #0]
   25a7a:	8019      	strh	r1, [r3, #0]
   25a7c:	7880      	ldrb	r0, [r0, #2]
   25a7e:	7098      	strb	r0, [r3, #2]
   25a80:	990b      	ldr	r1, [sp, #44]	@ 0x2c
   25a82:	0e08      	lsrs	r0, r1, #24
   25a84:	71a8      	strb	r0, [r5, #6]
   25a86:	0c08      	lsrs	r0, r1, #16
   25a88:	7168      	strb	r0, [r5, #5]
   25a8a:	0a08      	lsrs	r0, r1, #8
   25a8c:	7128      	strb	r0, [r5, #4]
   25a8e:	70e9      	strb	r1, [r5, #3]
   25a90:	1de8      	adds	r0, r5, #7
   25a92:	2217      	movs	r2, #23
   25a94:	990c      	ldr	r1, [sp, #48]	@ 0x30
   25a96:	f001 fa12 	bl	26ebe <__aeabi_memcpy>
   25a9a:	4e05      	ldr	r6, [pc, #20]	@ (25ab0 <_start+0x1bb4>)
   25a9c:	446e      	add	r6, sp
   25a9e:	4630      	mov	r0, r6
   25aa0:	4629      	mov	r1, r5
   25aa2:	f7fb fe55 	bl	21750 <_ZN18complex_no_dynamic3app17h569489522fc58361E>
   25aa6:	7830      	ldrb	r0, [r6, #0]
   25aa8:	2801      	cmp	r0, #1
   25aaa:	d107      	bne.n	25abc <_start+0x1bc0>
   25aac:	f001 f836 	bl	26b1c <_start+0x2c20>
   25ab0:	000013cc 	.word	0x000013cc
   25ab4:	00000b6c 	.word	0x00000b6c
   25ab8:	00001370 	.word	0x00001370
   25abc:	4817      	ldr	r0, [pc, #92]	@ (25b1c <_start+0x1c20>)
   25abe:	4468      	add	r0, sp
   25ac0:	78c1      	ldrb	r1, [r0, #3]
   25ac2:	4d17      	ldr	r5, [pc, #92]	@ (25b20 <_start+0x1c24>)
   25ac4:	446d      	add	r5, sp
   25ac6:	70a9      	strb	r1, [r5, #2]
   25ac8:	7841      	ldrb	r1, [r0, #1]
   25aca:	7882      	ldrb	r2, [r0, #2]
   25acc:	0212      	lsls	r2, r2, #8
   25ace:	1851      	adds	r1, r2, r1
   25ad0:	8029      	strh	r1, [r5, #0]
   25ad2:	3008      	adds	r0, #8
   25ad4:	9905      	ldr	r1, [sp, #20]
   25ad6:	6e09      	ldr	r1, [r1, #96]	@ 0x60
   25ad8:	910b      	str	r1, [sp, #44]	@ 0x2c
   25ada:	4b12      	ldr	r3, [pc, #72]	@ (25b24 <_start+0x1c28>)
   25adc:	446b      	add	r3, sp
   25ade:	930c      	str	r3, [sp, #48]	@ 0x30
   25ae0:	c846      	ldmia	r0!, {r1, r2, r6}
   25ae2:	c346      	stmia	r3!, {r1, r2, r6}
   25ae4:	c846      	ldmia	r0!, {r1, r2, r6}
   25ae6:	c346      	stmia	r3!, {r1, r2, r6}
   25ae8:	8800      	ldrh	r0, [r0, #0]
   25aea:	8018      	strh	r0, [r3, #0]
   25aec:	990b      	ldr	r1, [sp, #44]	@ 0x2c
   25aee:	0e08      	lsrs	r0, r1, #24
   25af0:	71a8      	strb	r0, [r5, #6]
   25af2:	0c08      	lsrs	r0, r1, #16
   25af4:	7168      	strb	r0, [r5, #5]
   25af6:	0a08      	lsrs	r0, r1, #8
   25af8:	7128      	strb	r0, [r5, #4]
   25afa:	70e9      	strb	r1, [r5, #3]
   25afc:	1de8      	adds	r0, r5, #7
   25afe:	221a      	movs	r2, #26
   25b00:	990c      	ldr	r1, [sp, #48]	@ 0x30
   25b02:	f001 f9dc 	bl	26ebe <__aeabi_memcpy>
   25b06:	4e05      	ldr	r6, [pc, #20]	@ (25b1c <_start+0x1c20>)
   25b08:	446e      	add	r6, sp
   25b0a:	4630      	mov	r0, r6
   25b0c:	4629      	mov	r1, r5
   25b0e:	f7fb fccb 	bl	214a8 <_ZN18complex_no_dynamic3app17h4b1ce727dd69f8c2E>
   25b12:	7830      	ldrb	r0, [r6, #0]
   25b14:	2801      	cmp	r0, #1
   25b16:	d107      	bne.n	25b28 <_start+0x1c2c>
   25b18:	f001 f800 	bl	26b1c <_start+0x2c20>
   25b1c:	000013cc 	.word	0x000013cc
   25b20:	00000b8c 	.word	0x00000b8c
   25b24:	00001370 	.word	0x00001370
   25b28:	4819      	ldr	r0, [pc, #100]	@ (25b90 <_start+0x1c94>)
   25b2a:	4468      	add	r0, sp
   25b2c:	78c1      	ldrb	r1, [r0, #3]
   25b2e:	4b19      	ldr	r3, [pc, #100]	@ (25b94 <_start+0x1c98>)
   25b30:	446b      	add	r3, sp
   25b32:	930b      	str	r3, [sp, #44]	@ 0x2c
   25b34:	7099      	strb	r1, [r3, #2]
   25b36:	7841      	ldrb	r1, [r0, #1]
   25b38:	7882      	ldrb	r2, [r0, #2]
   25b3a:	0212      	lsls	r2, r2, #8
   25b3c:	1851      	adds	r1, r2, r1
   25b3e:	8019      	strh	r1, [r3, #0]
   25b40:	3008      	adds	r0, #8
   25b42:	9905      	ldr	r1, [sp, #20]
   25b44:	6e09      	ldr	r1, [r1, #96]	@ 0x60
   25b46:	910a      	str	r1, [sp, #40]	@ 0x28
   25b48:	4b13      	ldr	r3, [pc, #76]	@ (25b98 <_start+0x1c9c>)
   25b4a:	446b      	add	r3, sp
   25b4c:	930c      	str	r3, [sp, #48]	@ 0x30
   25b4e:	c866      	ldmia	r0!, {r1, r2, r5, r6}
   25b50:	c366      	stmia	r3!, {r1, r2, r5, r6}
   25b52:	c866      	ldmia	r0!, {r1, r2, r5, r6}
   25b54:	c366      	stmia	r3!, {r1, r2, r5, r6}
   25b56:	8801      	ldrh	r1, [r0, #0]
   25b58:	8019      	strh	r1, [r3, #0]
   25b5a:	7880      	ldrb	r0, [r0, #2]
   25b5c:	7098      	strb	r0, [r3, #2]
   25b5e:	990a      	ldr	r1, [sp, #40]	@ 0x28
   25b60:	0e08      	lsrs	r0, r1, #24
   25b62:	9d0b      	ldr	r5, [sp, #44]	@ 0x2c
   25b64:	71a8      	strb	r0, [r5, #6]
   25b66:	0c08      	lsrs	r0, r1, #16
   25b68:	7168      	strb	r0, [r5, #5]
   25b6a:	0a08      	lsrs	r0, r1, #8
   25b6c:	7128      	strb	r0, [r5, #4]
   25b6e:	70e9      	strb	r1, [r5, #3]
   25b70:	1de8      	adds	r0, r5, #7
   25b72:	2223      	movs	r2, #35	@ 0x23
   25b74:	990c      	ldr	r1, [sp, #48]	@ 0x30
   25b76:	f001 f9a2 	bl	26ebe <__aeabi_memcpy>
   25b7a:	4e05      	ldr	r6, [pc, #20]	@ (25b90 <_start+0x1c94>)
   25b7c:	446e      	add	r6, sp
   25b7e:	4630      	mov	r0, r6
   25b80:	4629      	mov	r1, r5
   25b82:	f7fe f963 	bl	23e4c <_ZN18complex_no_dynamic3app17hfff9334723df8368E>
   25b86:	7830      	ldrb	r0, [r6, #0]
   25b88:	2801      	cmp	r0, #1
   25b8a:	d107      	bne.n	25b9c <_start+0x1ca0>
   25b8c:	f000 ffc6 	bl	26b1c <_start+0x2c20>
   25b90:	000013cc 	.word	0x000013cc
   25b94:	00000bb0 	.word	0x00000bb0
   25b98:	00001370 	.word	0x00001370
   25b9c:	4915      	ldr	r1, [pc, #84]	@ (25bf4 <_start+0x1cf8>)
   25b9e:	4469      	add	r1, sp
   25ba0:	78c8      	ldrb	r0, [r1, #3]
   25ba2:	4d15      	ldr	r5, [pc, #84]	@ (25bf8 <_start+0x1cfc>)
   25ba4:	446d      	add	r5, sp
   25ba6:	70a8      	strb	r0, [r5, #2]
   25ba8:	7848      	ldrb	r0, [r1, #1]
   25baa:	788a      	ldrb	r2, [r1, #2]
   25bac:	0212      	lsls	r2, r2, #8
   25bae:	1810      	adds	r0, r2, r0
   25bb0:	8028      	strh	r0, [r5, #0]
   25bb2:	9805      	ldr	r0, [sp, #20]
   25bb4:	6e06      	ldr	r6, [r0, #96]	@ 0x60
   25bb6:	3108      	adds	r1, #8
   25bb8:	4810      	ldr	r0, [pc, #64]	@ (25bfc <_start+0x1d00>)
   25bba:	4468      	add	r0, sp
   25bbc:	900c      	str	r0, [sp, #48]	@ 0x30
   25bbe:	2252      	movs	r2, #82	@ 0x52
   25bc0:	920b      	str	r2, [sp, #44]	@ 0x2c
   25bc2:	f001 f81c 	bl	26bfe <__aeabi_memcpy4>
   25bc6:	0e30      	lsrs	r0, r6, #24
   25bc8:	71a8      	strb	r0, [r5, #6]
   25bca:	0c30      	lsrs	r0, r6, #16
   25bcc:	7168      	strb	r0, [r5, #5]
   25bce:	0a30      	lsrs	r0, r6, #8
   25bd0:	7128      	strb	r0, [r5, #4]
   25bd2:	70ee      	strb	r6, [r5, #3]
   25bd4:	1de8      	adds	r0, r5, #7
   25bd6:	990c      	ldr	r1, [sp, #48]	@ 0x30
   25bd8:	9a0b      	ldr	r2, [sp, #44]	@ 0x2c
   25bda:	f001 f970 	bl	26ebe <__aeabi_memcpy>
   25bde:	4e05      	ldr	r6, [pc, #20]	@ (25bf4 <_start+0x1cf8>)
   25be0:	446e      	add	r6, sp
   25be2:	4630      	mov	r0, r6
   25be4:	4629      	mov	r1, r5
   25be6:	f7fd ffdb 	bl	23ba0 <_ZN18complex_no_dynamic3app17hf1d55373caa127d8E>
   25bea:	7830      	ldrb	r0, [r6, #0]
   25bec:	2801      	cmp	r0, #1
   25bee:	d107      	bne.n	25c00 <_start+0x1d04>
   25bf0:	f000 ff94 	bl	26b1c <_start+0x2c20>
   25bf4:	000013cc 	.word	0x000013cc
   25bf8:	00000bdc 	.word	0x00000bdc
   25bfc:	00001370 	.word	0x00001370
   25c00:	4915      	ldr	r1, [pc, #84]	@ (25c58 <_start+0x1d5c>)
   25c02:	4469      	add	r1, sp
   25c04:	78c8      	ldrb	r0, [r1, #3]
   25c06:	4d15      	ldr	r5, [pc, #84]	@ (25c5c <_start+0x1d60>)
   25c08:	446d      	add	r5, sp
   25c0a:	70a8      	strb	r0, [r5, #2]
   25c0c:	7848      	ldrb	r0, [r1, #1]
   25c0e:	788a      	ldrb	r2, [r1, #2]
   25c10:	0212      	lsls	r2, r2, #8
   25c12:	1810      	adds	r0, r2, r0
   25c14:	8028      	strh	r0, [r5, #0]
   25c16:	9805      	ldr	r0, [sp, #20]
   25c18:	6e06      	ldr	r6, [r0, #96]	@ 0x60
   25c1a:	3108      	adds	r1, #8
   25c1c:	4810      	ldr	r0, [pc, #64]	@ (25c60 <_start+0x1d64>)
   25c1e:	4468      	add	r0, sp
   25c20:	900c      	str	r0, [sp, #48]	@ 0x30
   25c22:	2243      	movs	r2, #67	@ 0x43
   25c24:	920b      	str	r2, [sp, #44]	@ 0x2c
   25c26:	f000 ffea 	bl	26bfe <__aeabi_memcpy4>
   25c2a:	0e30      	lsrs	r0, r6, #24
   25c2c:	71a8      	strb	r0, [r5, #6]
   25c2e:	0c30      	lsrs	r0, r6, #16
   25c30:	7168      	strb	r0, [r5, #5]
   25c32:	0a30      	lsrs	r0, r6, #8
   25c34:	7128      	strb	r0, [r5, #4]
   25c36:	70ee      	strb	r6, [r5, #3]
   25c38:	1de8      	adds	r0, r5, #7
   25c3a:	990c      	ldr	r1, [sp, #48]	@ 0x30
   25c3c:	9a0b      	ldr	r2, [sp, #44]	@ 0x2c
   25c3e:	f001 f93e 	bl	26ebe <__aeabi_memcpy>
   25c42:	4e05      	ldr	r6, [pc, #20]	@ (25c58 <_start+0x1d5c>)
   25c44:	446e      	add	r6, sp
   25c46:	4630      	mov	r0, r6
   25c48:	4629      	mov	r1, r5
   25c4a:	f7fd fcaf 	bl	235ac <_ZN18complex_no_dynamic3app17hd0228783e31a8c10E>
   25c4e:	7830      	ldrb	r0, [r6, #0]
   25c50:	2801      	cmp	r0, #1
   25c52:	d107      	bne.n	25c64 <_start+0x1d68>
   25c54:	f000 ff62 	bl	26b1c <_start+0x2c20>
   25c58:	000013cc 	.word	0x000013cc
   25c5c:	00000c38 	.word	0x00000c38
   25c60:	00001370 	.word	0x00001370
   25c64:	4818      	ldr	r0, [pc, #96]	@ (25cc8 <_start+0x1dcc>)
   25c66:	4468      	add	r0, sp
   25c68:	78c1      	ldrb	r1, [r0, #3]
   25c6a:	4d18      	ldr	r5, [pc, #96]	@ (25ccc <_start+0x1dd0>)
   25c6c:	446d      	add	r5, sp
   25c6e:	70a9      	strb	r1, [r5, #2]
   25c70:	7841      	ldrb	r1, [r0, #1]
   25c72:	7882      	ldrb	r2, [r0, #2]
   25c74:	0212      	lsls	r2, r2, #8
   25c76:	1851      	adds	r1, r2, r1
   25c78:	8029      	strh	r1, [r5, #0]
   25c7a:	3008      	adds	r0, #8
   25c7c:	9905      	ldr	r1, [sp, #20]
   25c7e:	6e09      	ldr	r1, [r1, #96]	@ 0x60
   25c80:	910b      	str	r1, [sp, #44]	@ 0x2c
   25c82:	4b13      	ldr	r3, [pc, #76]	@ (25cd0 <_start+0x1dd4>)
   25c84:	446b      	add	r3, sp
   25c86:	930c      	str	r3, [sp, #48]	@ 0x30
   25c88:	c846      	ldmia	r0!, {r1, r2, r6}
   25c8a:	c346      	stmia	r3!, {r1, r2, r6}
   25c8c:	c846      	ldmia	r0!, {r1, r2, r6}
   25c8e:	c346      	stmia	r3!, {r1, r2, r6}
   25c90:	c846      	ldmia	r0!, {r1, r2, r6}
   25c92:	c346      	stmia	r3!, {r1, r2, r6}
   25c94:	8800      	ldrh	r0, [r0, #0]
   25c96:	8018      	strh	r0, [r3, #0]
   25c98:	990b      	ldr	r1, [sp, #44]	@ 0x2c
   25c9a:	0e08      	lsrs	r0, r1, #24
   25c9c:	71a8      	strb	r0, [r5, #6]
   25c9e:	0c08      	lsrs	r0, r1, #16
   25ca0:	7168      	strb	r0, [r5, #5]
   25ca2:	0a08      	lsrs	r0, r1, #8
   25ca4:	7128      	strb	r0, [r5, #4]
   25ca6:	70e9      	strb	r1, [r5, #3]
   25ca8:	1de8      	adds	r0, r5, #7
   25caa:	2226      	movs	r2, #38	@ 0x26
   25cac:	990c      	ldr	r1, [sp, #48]	@ 0x30
   25cae:	f001 f906 	bl	26ebe <__aeabi_memcpy>
   25cb2:	4e05      	ldr	r6, [pc, #20]	@ (25cc8 <_start+0x1dcc>)
   25cb4:	446e      	add	r6, sp
   25cb6:	4630      	mov	r0, r6
   25cb8:	4629      	mov	r1, r5
   25cba:	f7fa fabb 	bl	20234 <_ZN18complex_no_dynamic3app17h046dfbc33fc398d5E>
   25cbe:	7830      	ldrb	r0, [r6, #0]
   25cc0:	2801      	cmp	r0, #1
   25cc2:	d107      	bne.n	25cd4 <_start+0x1dd8>
   25cc4:	f000 ff2a 	bl	26b1c <_start+0x2c20>
   25cc8:	000013cc 	.word	0x000013cc
   25ccc:	00000c84 	.word	0x00000c84
   25cd0:	00001370 	.word	0x00001370
   25cd4:	4915      	ldr	r1, [pc, #84]	@ (25d2c <_start+0x1e30>)
   25cd6:	4469      	add	r1, sp
   25cd8:	78c8      	ldrb	r0, [r1, #3]
   25cda:	4d15      	ldr	r5, [pc, #84]	@ (25d30 <_start+0x1e34>)
   25cdc:	446d      	add	r5, sp
   25cde:	70a8      	strb	r0, [r5, #2]
   25ce0:	7848      	ldrb	r0, [r1, #1]
   25ce2:	788a      	ldrb	r2, [r1, #2]
   25ce4:	0212      	lsls	r2, r2, #8
   25ce6:	1810      	adds	r0, r2, r0
   25ce8:	8028      	strh	r0, [r5, #0]
   25cea:	9805      	ldr	r0, [sp, #20]
   25cec:	6e06      	ldr	r6, [r0, #96]	@ 0x60
   25cee:	3108      	adds	r1, #8
   25cf0:	4810      	ldr	r0, [pc, #64]	@ (25d34 <_start+0x1e38>)
   25cf2:	4468      	add	r0, sp
   25cf4:	900c      	str	r0, [sp, #48]	@ 0x30
   25cf6:	224c      	movs	r2, #76	@ 0x4c
   25cf8:	920b      	str	r2, [sp, #44]	@ 0x2c
   25cfa:	f000 ff80 	bl	26bfe <__aeabi_memcpy4>
   25cfe:	0e30      	lsrs	r0, r6, #24
   25d00:	71a8      	strb	r0, [r5, #6]
   25d02:	0c30      	lsrs	r0, r6, #16
   25d04:	7168      	strb	r0, [r5, #5]
   25d06:	0a30      	lsrs	r0, r6, #8
   25d08:	7128      	strb	r0, [r5, #4]
   25d0a:	70ee      	strb	r6, [r5, #3]
   25d0c:	1de8      	adds	r0, r5, #7
   25d0e:	990c      	ldr	r1, [sp, #48]	@ 0x30
   25d10:	9a0b      	ldr	r2, [sp, #44]	@ 0x2c
   25d12:	f001 f8d4 	bl	26ebe <__aeabi_memcpy>
   25d16:	4e05      	ldr	r6, [pc, #20]	@ (25d2c <_start+0x1e30>)
   25d18:	446e      	add	r6, sp
   25d1a:	4630      	mov	r0, r6
   25d1c:	4629      	mov	r1, r5
   25d1e:	f7fd f8a7 	bl	22e70 <_ZN18complex_no_dynamic3app17hb893b499cfe5b2d2E>
   25d22:	7830      	ldrb	r0, [r6, #0]
   25d24:	2801      	cmp	r0, #1
   25d26:	d107      	bne.n	25d38 <_start+0x1e3c>
   25d28:	f000 fef8 	bl	26b1c <_start+0x2c20>
   25d2c:	000013cc 	.word	0x000013cc
   25d30:	00000cb4 	.word	0x00000cb4
   25d34:	00001370 	.word	0x00001370
   25d38:	481a      	ldr	r0, [pc, #104]	@ (25da4 <_start+0x1ea8>)
   25d3a:	4468      	add	r0, sp
   25d3c:	78c1      	ldrb	r1, [r0, #3]
   25d3e:	4b1a      	ldr	r3, [pc, #104]	@ (25da8 <_start+0x1eac>)
   25d40:	446b      	add	r3, sp
   25d42:	930b      	str	r3, [sp, #44]	@ 0x2c
   25d44:	7099      	strb	r1, [r3, #2]
   25d46:	7841      	ldrb	r1, [r0, #1]
   25d48:	7882      	ldrb	r2, [r0, #2]
   25d4a:	0212      	lsls	r2, r2, #8
   25d4c:	1851      	adds	r1, r2, r1
   25d4e:	8019      	strh	r1, [r3, #0]
   25d50:	3008      	adds	r0, #8
   25d52:	9905      	ldr	r1, [sp, #20]
   25d54:	6e09      	ldr	r1, [r1, #96]	@ 0x60
   25d56:	910a      	str	r1, [sp, #40]	@ 0x28
   25d58:	4b14      	ldr	r3, [pc, #80]	@ (25dac <_start+0x1eb0>)
   25d5a:	446b      	add	r3, sp
   25d5c:	930c      	str	r3, [sp, #48]	@ 0x30
   25d5e:	c866      	ldmia	r0!, {r1, r2, r5, r6}
   25d60:	c366      	stmia	r3!, {r1, r2, r5, r6}
   25d62:	c866      	ldmia	r0!, {r1, r2, r5, r6}
   25d64:	c366      	stmia	r3!, {r1, r2, r5, r6}
   25d66:	c866      	ldmia	r0!, {r1, r2, r5, r6}
   25d68:	c366      	stmia	r3!, {r1, r2, r5, r6}
   25d6a:	8801      	ldrh	r1, [r0, #0]
   25d6c:	8019      	strh	r1, [r3, #0]
   25d6e:	7880      	ldrb	r0, [r0, #2]
   25d70:	7098      	strb	r0, [r3, #2]
   25d72:	990a      	ldr	r1, [sp, #40]	@ 0x28
   25d74:	0e08      	lsrs	r0, r1, #24
   25d76:	9d0b      	ldr	r5, [sp, #44]	@ 0x2c
   25d78:	71a8      	strb	r0, [r5, #6]
   25d7a:	0c08      	lsrs	r0, r1, #16
   25d7c:	7168      	strb	r0, [r5, #5]
   25d7e:	0a08      	lsrs	r0, r1, #8
   25d80:	7128      	strb	r0, [r5, #4]
   25d82:	70e9      	strb	r1, [r5, #3]
   25d84:	1de8      	adds	r0, r5, #7
   25d86:	2233      	movs	r2, #51	@ 0x33
   25d88:	990c      	ldr	r1, [sp, #48]	@ 0x30
   25d8a:	f001 f898 	bl	26ebe <__aeabi_memcpy>
   25d8e:	4e05      	ldr	r6, [pc, #20]	@ (25da4 <_start+0x1ea8>)
   25d90:	446e      	add	r6, sp
   25d92:	4630      	mov	r0, r6
   25d94:	4629      	mov	r1, r5
   25d96:	f7fb fa35 	bl	21204 <_ZN18complex_no_dynamic3app17h416534f1a6e310e5E>
   25d9a:	7830      	ldrb	r0, [r6, #0]
   25d9c:	2801      	cmp	r0, #1
   25d9e:	d107      	bne.n	25db0 <_start+0x1eb4>
   25da0:	f000 febc 	bl	26b1c <_start+0x2c20>
   25da4:	000013cc 	.word	0x000013cc
   25da8:	00000d08 	.word	0x00000d08
   25dac:	00001370 	.word	0x00001370
   25db0:	4915      	ldr	r1, [pc, #84]	@ (25e08 <_start+0x1f0c>)
   25db2:	4469      	add	r1, sp
   25db4:	78c8      	ldrb	r0, [r1, #3]
   25db6:	4d15      	ldr	r5, [pc, #84]	@ (25e0c <_start+0x1f10>)
   25db8:	446d      	add	r5, sp
   25dba:	70a8      	strb	r0, [r5, #2]
   25dbc:	7848      	ldrb	r0, [r1, #1]
   25dbe:	788a      	ldrb	r2, [r1, #2]
   25dc0:	0212      	lsls	r2, r2, #8
   25dc2:	1810      	adds	r0, r2, r0
   25dc4:	8028      	strh	r0, [r5, #0]
   25dc6:	9805      	ldr	r0, [sp, #20]
   25dc8:	6e06      	ldr	r6, [r0, #96]	@ 0x60
   25dca:	3108      	adds	r1, #8
   25dcc:	4810      	ldr	r0, [pc, #64]	@ (25e10 <_start+0x1f14>)
   25dce:	4468      	add	r0, sp
   25dd0:	900c      	str	r0, [sp, #48]	@ 0x30
   25dd2:	2256      	movs	r2, #86	@ 0x56
   25dd4:	920b      	str	r2, [sp, #44]	@ 0x2c
   25dd6:	f000 ff12 	bl	26bfe <__aeabi_memcpy4>
   25dda:	0e30      	lsrs	r0, r6, #24
   25ddc:	71a8      	strb	r0, [r5, #6]
   25dde:	0c30      	lsrs	r0, r6, #16
   25de0:	7168      	strb	r0, [r5, #5]
   25de2:	0a30      	lsrs	r0, r6, #8
   25de4:	7128      	strb	r0, [r5, #4]
   25de6:	70ee      	strb	r6, [r5, #3]
   25de8:	1de8      	adds	r0, r5, #7
   25dea:	990c      	ldr	r1, [sp, #48]	@ 0x30
   25dec:	9a0b      	ldr	r2, [sp, #44]	@ 0x2c
   25dee:	f001 f866 	bl	26ebe <__aeabi_memcpy>
   25df2:	4e05      	ldr	r6, [pc, #20]	@ (25e08 <_start+0x1f0c>)
   25df4:	446e      	add	r6, sp
   25df6:	4630      	mov	r0, r6
   25df8:	4629      	mov	r1, r5
   25dfa:	f7fa ff0b 	bl	20c14 <_ZN18complex_no_dynamic3app17h27cc09598636f0e8E>
   25dfe:	7830      	ldrb	r0, [r6, #0]
   25e00:	2801      	cmp	r0, #1
   25e02:	d107      	bne.n	25e14 <_start+0x1f18>
   25e04:	f000 fe8a 	bl	26b1c <_start+0x2c20>
   25e08:	000013cc 	.word	0x000013cc
   25e0c:	00000d44 	.word	0x00000d44
   25e10:	00001370 	.word	0x00001370
   25e14:	481a      	ldr	r0, [pc, #104]	@ (25e80 <_start+0x1f84>)
   25e16:	4468      	add	r0, sp
   25e18:	78c1      	ldrb	r1, [r0, #3]
   25e1a:	4b1a      	ldr	r3, [pc, #104]	@ (25e84 <_start+0x1f88>)
   25e1c:	446b      	add	r3, sp
   25e1e:	930b      	str	r3, [sp, #44]	@ 0x2c
   25e20:	7099      	strb	r1, [r3, #2]
   25e22:	7841      	ldrb	r1, [r0, #1]
   25e24:	7882      	ldrb	r2, [r0, #2]
   25e26:	0212      	lsls	r2, r2, #8
   25e28:	1851      	adds	r1, r2, r1
   25e2a:	8019      	strh	r1, [r3, #0]
   25e2c:	3008      	adds	r0, #8
   25e2e:	9905      	ldr	r1, [sp, #20]
   25e30:	6e09      	ldr	r1, [r1, #96]	@ 0x60
   25e32:	910a      	str	r1, [sp, #40]	@ 0x28
   25e34:	4b14      	ldr	r3, [pc, #80]	@ (25e88 <_start+0x1f8c>)
   25e36:	446b      	add	r3, sp
   25e38:	930c      	str	r3, [sp, #48]	@ 0x30
   25e3a:	c846      	ldmia	r0!, {r1, r2, r6}
   25e3c:	c346      	stmia	r3!, {r1, r2, r6}
   25e3e:	c866      	ldmia	r0!, {r1, r2, r5, r6}
   25e40:	c366      	stmia	r3!, {r1, r2, r5, r6}
   25e42:	c826      	ldmia	r0!, {r1, r2, r5}
   25e44:	c326      	stmia	r3!, {r1, r2, r5}
   25e46:	c866      	ldmia	r0!, {r1, r2, r5, r6}
   25e48:	c366      	stmia	r3!, {r1, r2, r5, r6}
   25e4a:	7800      	ldrb	r0, [r0, #0]
   25e4c:	7018      	strb	r0, [r3, #0]
   25e4e:	990a      	ldr	r1, [sp, #40]	@ 0x28
   25e50:	0e08      	lsrs	r0, r1, #24
   25e52:	9d0b      	ldr	r5, [sp, #44]	@ 0x2c
   25e54:	71a8      	strb	r0, [r5, #6]
   25e56:	0c08      	lsrs	r0, r1, #16
   25e58:	7168      	strb	r0, [r5, #5]
   25e5a:	0a08      	lsrs	r0, r1, #8
   25e5c:	7128      	strb	r0, [r5, #4]
   25e5e:	70e9      	strb	r1, [r5, #3]
   25e60:	1de8      	adds	r0, r5, #7
   25e62:	2239      	movs	r2, #57	@ 0x39
   25e64:	990c      	ldr	r1, [sp, #48]	@ 0x30
   25e66:	f001 f82a 	bl	26ebe <__aeabi_memcpy>
   25e6a:	4e05      	ldr	r6, [pc, #20]	@ (25e80 <_start+0x1f84>)
   25e6c:	446e      	add	r6, sp
   25e6e:	4630      	mov	r0, r6
   25e70:	4629      	mov	r1, r5
   25e72:	f7fa fadd 	bl	20430 <_ZN18complex_no_dynamic3app17h0f78df06d1d7ae1aE>
   25e76:	7830      	ldrb	r0, [r6, #0]
   25e78:	2801      	cmp	r0, #1
   25e7a:	d107      	bne.n	25e8c <_start+0x1f90>
   25e7c:	f000 fe4e 	bl	26b1c <_start+0x2c20>
   25e80:	000013cc 	.word	0x000013cc
   25e84:	00000da4 	.word	0x00000da4
   25e88:	00001370 	.word	0x00001370
   25e8c:	4819      	ldr	r0, [pc, #100]	@ (25ef4 <_start+0x1ff8>)
   25e8e:	4468      	add	r0, sp
   25e90:	78c1      	ldrb	r1, [r0, #3]
   25e92:	4b19      	ldr	r3, [pc, #100]	@ (25ef8 <_start+0x1ffc>)
   25e94:	446b      	add	r3, sp
   25e96:	930b      	str	r3, [sp, #44]	@ 0x2c
   25e98:	7099      	strb	r1, [r3, #2]
   25e9a:	7841      	ldrb	r1, [r0, #1]
   25e9c:	7882      	ldrb	r2, [r0, #2]
   25e9e:	0212      	lsls	r2, r2, #8
   25ea0:	1851      	adds	r1, r2, r1
   25ea2:	8019      	strh	r1, [r3, #0]
   25ea4:	3008      	adds	r0, #8
   25ea6:	9905      	ldr	r1, [sp, #20]
   25ea8:	6e09      	ldr	r1, [r1, #96]	@ 0x60
   25eaa:	910a      	str	r1, [sp, #40]	@ 0x28
   25eac:	4b13      	ldr	r3, [pc, #76]	@ (25efc <_start+0x2000>)
   25eae:	446b      	add	r3, sp
   25eb0:	930c      	str	r3, [sp, #48]	@ 0x30
   25eb2:	c846      	ldmia	r0!, {r1, r2, r6}
   25eb4:	c346      	stmia	r3!, {r1, r2, r6}
   25eb6:	c846      	ldmia	r0!, {r1, r2, r6}
   25eb8:	c346      	stmia	r3!, {r1, r2, r6}
   25eba:	c866      	ldmia	r0!, {r1, r2, r5, r6}
   25ebc:	c366      	stmia	r3!, {r1, r2, r5, r6}
   25ebe:	8800      	ldrh	r0, [r0, #0]
   25ec0:	8018      	strh	r0, [r3, #0]
   25ec2:	990a      	ldr	r1, [sp, #40]	@ 0x28
   25ec4:	0e08      	lsrs	r0, r1, #24
   25ec6:	9d0b      	ldr	r5, [sp, #44]	@ 0x2c
   25ec8:	71a8      	strb	r0, [r5, #6]
   25eca:	0c08      	lsrs	r0, r1, #16
   25ecc:	7168      	strb	r0, [r5, #5]
   25ece:	0a08      	lsrs	r0, r1, #8
   25ed0:	7128      	strb	r0, [r5, #4]
   25ed2:	70e9      	strb	r1, [r5, #3]
   25ed4:	1de8      	adds	r0, r5, #7
   25ed6:	222a      	movs	r2, #42	@ 0x2a
   25ed8:	990c      	ldr	r1, [sp, #48]	@ 0x30
   25eda:	f000 fff0 	bl	26ebe <__aeabi_memcpy>
   25ede:	4e05      	ldr	r6, [pc, #20]	@ (25ef4 <_start+0x1ff8>)
   25ee0:	446e      	add	r6, sp
   25ee2:	4630      	mov	r0, r6
   25ee4:	4629      	mov	r1, r5
   25ee6:	f7fc f885 	bl	21ff4 <_ZN18complex_no_dynamic3app17h7638f42fa73cd164E>
   25eea:	7830      	ldrb	r0, [r6, #0]
   25eec:	2801      	cmp	r0, #1
   25eee:	d107      	bne.n	25f00 <_start+0x2004>
   25ef0:	f000 fe14 	bl	26b1c <_start+0x2c20>
   25ef4:	000013cc 	.word	0x000013cc
   25ef8:	00000de4 	.word	0x00000de4
   25efc:	00001370 	.word	0x00001370
   25f00:	4915      	ldr	r1, [pc, #84]	@ (25f58 <_start+0x205c>)
   25f02:	4469      	add	r1, sp
   25f04:	78c8      	ldrb	r0, [r1, #3]
   25f06:	4d15      	ldr	r5, [pc, #84]	@ (25f5c <_start+0x2060>)
   25f08:	446d      	add	r5, sp
   25f0a:	70a8      	strb	r0, [r5, #2]
   25f0c:	7848      	ldrb	r0, [r1, #1]
   25f0e:	788a      	ldrb	r2, [r1, #2]
   25f10:	0212      	lsls	r2, r2, #8
   25f12:	1810      	adds	r0, r2, r0
   25f14:	8028      	strh	r0, [r5, #0]
   25f16:	9805      	ldr	r0, [sp, #20]
   25f18:	6e06      	ldr	r6, [r0, #96]	@ 0x60
   25f1a:	3108      	adds	r1, #8
   25f1c:	4810      	ldr	r0, [pc, #64]	@ (25f60 <_start+0x2064>)
   25f1e:	4468      	add	r0, sp
   25f20:	900c      	str	r0, [sp, #48]	@ 0x30
   25f22:	2241      	movs	r2, #65	@ 0x41
   25f24:	920b      	str	r2, [sp, #44]	@ 0x2c
   25f26:	f000 fe6a 	bl	26bfe <__aeabi_memcpy4>
   25f2a:	0e30      	lsrs	r0, r6, #24
   25f2c:	71a8      	strb	r0, [r5, #6]
   25f2e:	0c30      	lsrs	r0, r6, #16
   25f30:	7168      	strb	r0, [r5, #5]
   25f32:	0a30      	lsrs	r0, r6, #8
   25f34:	7128      	strb	r0, [r5, #4]
   25f36:	70ee      	strb	r6, [r5, #3]
   25f38:	1de8      	adds	r0, r5, #7
   25f3a:	990c      	ldr	r1, [sp, #48]	@ 0x30
   25f3c:	9a0b      	ldr	r2, [sp, #44]	@ 0x2c
   25f3e:	f000 ffbe 	bl	26ebe <__aeabi_memcpy>
   25f42:	4e05      	ldr	r6, [pc, #20]	@ (25f58 <_start+0x205c>)
   25f44:	446e      	add	r6, sp
   25f46:	4630      	mov	r0, r6
   25f48:	4629      	mov	r1, r5
   25f4a:	f7fb fbad 	bl	216a8 <_ZN18complex_no_dynamic3app17h5389dde9c64df9e4E>
   25f4e:	7830      	ldrb	r0, [r6, #0]
   25f50:	2801      	cmp	r0, #1
   25f52:	d107      	bne.n	25f64 <_start+0x2068>
   25f54:	f000 fde2 	bl	26b1c <_start+0x2c20>
   25f58:	000013cc 	.word	0x000013cc
   25f5c:	00000e18 	.word	0x00000e18
   25f60:	00001370 	.word	0x00001370
   25f64:	4818      	ldr	r0, [pc, #96]	@ (25fc8 <_start+0x20cc>)
   25f66:	4468      	add	r0, sp
   25f68:	78c1      	ldrb	r1, [r0, #3]
   25f6a:	4b18      	ldr	r3, [pc, #96]	@ (25fcc <_start+0x20d0>)
   25f6c:	446b      	add	r3, sp
   25f6e:	930b      	str	r3, [sp, #44]	@ 0x2c
   25f70:	7099      	strb	r1, [r3, #2]
   25f72:	7841      	ldrb	r1, [r0, #1]
   25f74:	7882      	ldrb	r2, [r0, #2]
   25f76:	0212      	lsls	r2, r2, #8
   25f78:	1851      	adds	r1, r2, r1
   25f7a:	8019      	strh	r1, [r3, #0]
   25f7c:	3008      	adds	r0, #8
   25f7e:	9905      	ldr	r1, [sp, #20]
   25f80:	6e09      	ldr	r1, [r1, #96]	@ 0x60
   25f82:	910a      	str	r1, [sp, #40]	@ 0x28
   25f84:	4b12      	ldr	r3, [pc, #72]	@ (25fd0 <_start+0x20d4>)
   25f86:	446b      	add	r3, sp
   25f88:	930c      	str	r3, [sp, #48]	@ 0x30
   25f8a:	c866      	ldmia	r0!, {r1, r2, r5, r6}
   25f8c:	c366      	stmia	r3!, {r1, r2, r5, r6}
   25f8e:	c866      	ldmia	r0!, {r1, r2, r5, r6}
   25f90:	c366      	stmia	r3!, {r1, r2, r5, r6}
   25f92:	8800      	ldrh	r0, [r0, #0]
   25f94:	8018      	strh	r0, [r3, #0]
   25f96:	990a      	ldr	r1, [sp, #40]	@ 0x28
   25f98:	0e08      	lsrs	r0, r1, #24
   25f9a:	9d0b      	ldr	r5, [sp, #44]	@ 0x2c
   25f9c:	71a8      	strb	r0, [r5, #6]
   25f9e:	0c08      	lsrs	r0, r1, #16
   25fa0:	7168      	strb	r0, [r5, #5]
   25fa2:	0a08      	lsrs	r0, r1, #8
   25fa4:	7128      	strb	r0, [r5, #4]
   25fa6:	70e9      	strb	r1, [r5, #3]
   25fa8:	1de8      	adds	r0, r5, #7
   25faa:	2222      	movs	r2, #34	@ 0x22
   25fac:	990c      	ldr	r1, [sp, #48]	@ 0x30
   25fae:	f000 ff86 	bl	26ebe <__aeabi_memcpy>
   25fb2:	4e05      	ldr	r6, [pc, #20]	@ (25fc8 <_start+0x20cc>)
   25fb4:	446e      	add	r6, sp
   25fb6:	4630      	mov	r0, r6
   25fb8:	4629      	mov	r1, r5
   25fba:	f7fa fbdf 	bl	2077c <_ZN18complex_no_dynamic3app17h1cd40791320d936fE>
   25fbe:	7830      	ldrb	r0, [r6, #0]
   25fc0:	2801      	cmp	r0, #1
   25fc2:	d107      	bne.n	25fd4 <_start+0x20d8>
   25fc4:	f000 fdaa 	bl	26b1c <_start+0x2c20>
   25fc8:	000013cc 	.word	0x000013cc
   25fcc:	00000e60 	.word	0x00000e60
   25fd0:	00001370 	.word	0x00001370
   25fd4:	4818      	ldr	r0, [pc, #96]	@ (26038 <_start+0x213c>)
   25fd6:	4468      	add	r0, sp
   25fd8:	78c1      	ldrb	r1, [r0, #3]
   25fda:	4b18      	ldr	r3, [pc, #96]	@ (2603c <_start+0x2140>)
   25fdc:	446b      	add	r3, sp
   25fde:	930b      	str	r3, [sp, #44]	@ 0x2c
   25fe0:	7099      	strb	r1, [r3, #2]
   25fe2:	7841      	ldrb	r1, [r0, #1]
   25fe4:	7882      	ldrb	r2, [r0, #2]
   25fe6:	0212      	lsls	r2, r2, #8
   25fe8:	1851      	adds	r1, r2, r1
   25fea:	8019      	strh	r1, [r3, #0]
   25fec:	3008      	adds	r0, #8
   25fee:	9905      	ldr	r1, [sp, #20]
   25ff0:	6e09      	ldr	r1, [r1, #96]	@ 0x60
   25ff2:	910a      	str	r1, [sp, #40]	@ 0x28
   25ff4:	4b12      	ldr	r3, [pc, #72]	@ (26040 <_start+0x2144>)
   25ff6:	446b      	add	r3, sp
   25ff8:	930c      	str	r3, [sp, #48]	@ 0x30
   25ffa:	c866      	ldmia	r0!, {r1, r2, r5, r6}
   25ffc:	c366      	stmia	r3!, {r1, r2, r5, r6}
   25ffe:	8801      	ldrh	r1, [r0, #0]
   26000:	8019      	strh	r1, [r3, #0]
   26002:	7880      	ldrb	r0, [r0, #2]
   26004:	7098      	strb	r0, [r3, #2]
   26006:	990a      	ldr	r1, [sp, #40]	@ 0x28
   26008:	0e08      	lsrs	r0, r1, #24
   2600a:	9d0b      	ldr	r5, [sp, #44]	@ 0x2c
   2600c:	71a8      	strb	r0, [r5, #6]
   2600e:	0c08      	lsrs	r0, r1, #16
   26010:	7168      	strb	r0, [r5, #5]
   26012:	0a08      	lsrs	r0, r1, #8
   26014:	7128      	strb	r0, [r5, #4]
   26016:	70e9      	strb	r1, [r5, #3]
   26018:	1de8      	adds	r0, r5, #7
   2601a:	2213      	movs	r2, #19
   2601c:	990c      	ldr	r1, [sp, #48]	@ 0x30
   2601e:	f000 ff4e 	bl	26ebe <__aeabi_memcpy>
   26022:	4e05      	ldr	r6, [pc, #20]	@ (26038 <_start+0x213c>)
   26024:	446e      	add	r6, sp
   26026:	4630      	mov	r0, r6
   26028:	4629      	mov	r1, r5
   2602a:	f7fa fa55 	bl	204d8 <_ZN18complex_no_dynamic3app17h1578766302082916E>
   2602e:	7830      	ldrb	r0, [r6, #0]
   26030:	2801      	cmp	r0, #1
   26032:	d107      	bne.n	26044 <_start+0x2148>
   26034:	f000 fd72 	bl	26b1c <_start+0x2c20>
   26038:	000013cc 	.word	0x000013cc
   2603c:	00000e8c 	.word	0x00000e8c
   26040:	00001370 	.word	0x00001370
   26044:	4816      	ldr	r0, [pc, #88]	@ (260a0 <_start+0x21a4>)
   26046:	4468      	add	r0, sp
   26048:	78c1      	ldrb	r1, [r0, #3]
   2604a:	4d16      	ldr	r5, [pc, #88]	@ (260a4 <_start+0x21a8>)
   2604c:	446d      	add	r5, sp
   2604e:	70a9      	strb	r1, [r5, #2]
   26050:	7841      	ldrb	r1, [r0, #1]
   26052:	7882      	ldrb	r2, [r0, #2]
   26054:	0212      	lsls	r2, r2, #8
   26056:	1851      	adds	r1, r2, r1
   26058:	8029      	strh	r1, [r5, #0]
   2605a:	3008      	adds	r0, #8
   2605c:	9905      	ldr	r1, [sp, #20]
   2605e:	6e09      	ldr	r1, [r1, #96]	@ 0x60
   26060:	910b      	str	r1, [sp, #44]	@ 0x2c
   26062:	4b11      	ldr	r3, [pc, #68]	@ (260a8 <_start+0x21ac>)
   26064:	446b      	add	r3, sp
   26066:	930c      	str	r3, [sp, #48]	@ 0x30
   26068:	c844      	ldmia	r0!, {r2, r6}
   2606a:	c344      	stmia	r3!, {r2, r6}
   2606c:	c846      	ldmia	r0!, {r1, r2, r6}
   2606e:	c346      	stmia	r3!, {r1, r2, r6}
   26070:	990b      	ldr	r1, [sp, #44]	@ 0x2c
   26072:	0e08      	lsrs	r0, r1, #24
   26074:	71a8      	strb	r0, [r5, #6]
   26076:	0c08      	lsrs	r0, r1, #16
   26078:	7168      	strb	r0, [r5, #5]
   2607a:	0a08      	lsrs	r0, r1, #8
   2607c:	7128      	strb	r0, [r5, #4]
   2607e:	70e9      	strb	r1, [r5, #3]
   26080:	1de8      	adds	r0, r5, #7
   26082:	2214      	movs	r2, #20
   26084:	990c      	ldr	r1, [sp, #48]	@ 0x30
   26086:	f000 ff1a 	bl	26ebe <__aeabi_memcpy>
   2608a:	4e05      	ldr	r6, [pc, #20]	@ (260a0 <_start+0x21a4>)
   2608c:	446e      	add	r6, sp
   2608e:	4630      	mov	r0, r6
   26090:	4629      	mov	r1, r5
   26092:	f7fc fdef 	bl	22c74 <_ZN18complex_no_dynamic3app17hb2c783f7a3627157E>
   26096:	7830      	ldrb	r0, [r6, #0]
   26098:	2801      	cmp	r0, #1
   2609a:	d107      	bne.n	260ac <_start+0x21b0>
   2609c:	f000 fd3e 	bl	26b1c <_start+0x2c20>
   260a0:	000013cc 	.word	0x000013cc
   260a4:	00000ea8 	.word	0x00000ea8
   260a8:	00001370 	.word	0x00001370
   260ac:	481a      	ldr	r0, [pc, #104]	@ (26118 <_start+0x221c>)
   260ae:	4468      	add	r0, sp
   260b0:	78c1      	ldrb	r1, [r0, #3]
   260b2:	4b1a      	ldr	r3, [pc, #104]	@ (2611c <_start+0x2220>)
   260b4:	446b      	add	r3, sp
   260b6:	930b      	str	r3, [sp, #44]	@ 0x2c
   260b8:	7099      	strb	r1, [r3, #2]
   260ba:	7841      	ldrb	r1, [r0, #1]
   260bc:	7882      	ldrb	r2, [r0, #2]
   260be:	0212      	lsls	r2, r2, #8
   260c0:	1851      	adds	r1, r2, r1
   260c2:	8019      	strh	r1, [r3, #0]
   260c4:	3008      	adds	r0, #8
   260c6:	9905      	ldr	r1, [sp, #20]
   260c8:	6e09      	ldr	r1, [r1, #96]	@ 0x60
   260ca:	910a      	str	r1, [sp, #40]	@ 0x28
   260cc:	4b14      	ldr	r3, [pc, #80]	@ (26120 <_start+0x2224>)
   260ce:	446b      	add	r3, sp
   260d0:	930c      	str	r3, [sp, #48]	@ 0x30
   260d2:	c846      	ldmia	r0!, {r1, r2, r6}
   260d4:	c346      	stmia	r3!, {r1, r2, r6}
   260d6:	c866      	ldmia	r0!, {r1, r2, r5, r6}
   260d8:	c366      	stmia	r3!, {r1, r2, r5, r6}
   260da:	c826      	ldmia	r0!, {r1, r2, r5}
   260dc:	c326      	stmia	r3!, {r1, r2, r5}
   260de:	c866      	ldmia	r0!, {r1, r2, r5, r6}
   260e0:	c366      	stmia	r3!, {r1, r2, r5, r6}
   260e2:	8800      	ldrh	r0, [r0, #0]
   260e4:	8018      	strh	r0, [r3, #0]
   260e6:	990a      	ldr	r1, [sp, #40]	@ 0x28
   260e8:	0e08      	lsrs	r0, r1, #24
   260ea:	9d0b      	ldr	r5, [sp, #44]	@ 0x2c
   260ec:	71a8      	strb	r0, [r5, #6]
   260ee:	0c08      	lsrs	r0, r1, #16
   260f0:	7168      	strb	r0, [r5, #5]
   260f2:	0a08      	lsrs	r0, r1, #8
   260f4:	7128      	strb	r0, [r5, #4]
   260f6:	70e9      	strb	r1, [r5, #3]
   260f8:	1de8      	adds	r0, r5, #7
   260fa:	223a      	movs	r2, #58	@ 0x3a
   260fc:	990c      	ldr	r1, [sp, #48]	@ 0x30
   260fe:	f000 fede 	bl	26ebe <__aeabi_memcpy>
   26102:	4e05      	ldr	r6, [pc, #20]	@ (26118 <_start+0x221c>)
   26104:	446e      	add	r6, sp
   26106:	4630      	mov	r0, r6
   26108:	4629      	mov	r1, r5
   2610a:	f7fd fd9d 	bl	23c48 <_ZN18complex_no_dynamic3app17hfaff246afb0c8928E>
   2610e:	7830      	ldrb	r0, [r6, #0]
   26110:	2801      	cmp	r0, #1
   26112:	d107      	bne.n	26124 <_start+0x2228>
   26114:	f000 fd02 	bl	26b1c <_start+0x2c20>
   26118:	000013cc 	.word	0x000013cc
   2611c:	00000ec4 	.word	0x00000ec4
   26120:	00001370 	.word	0x00001370
   26124:	4819      	ldr	r0, [pc, #100]	@ (2618c <_start+0x2290>)
   26126:	4468      	add	r0, sp
   26128:	78c1      	ldrb	r1, [r0, #3]
   2612a:	4b19      	ldr	r3, [pc, #100]	@ (26190 <_start+0x2294>)
   2612c:	446b      	add	r3, sp
   2612e:	9309      	str	r3, [sp, #36]	@ 0x24
   26130:	7099      	strb	r1, [r3, #2]
   26132:	7841      	ldrb	r1, [r0, #1]
   26134:	7882      	ldrb	r2, [r0, #2]
   26136:	0212      	lsls	r2, r2, #8
   26138:	1851      	adds	r1, r2, r1
   2613a:	8019      	strh	r1, [r3, #0]
   2613c:	3008      	adds	r0, #8
   2613e:	9905      	ldr	r1, [sp, #20]
   26140:	6e09      	ldr	r1, [r1, #96]	@ 0x60
   26142:	910a      	str	r1, [sp, #40]	@ 0x28
   26144:	4913      	ldr	r1, [pc, #76]	@ (26194 <_start+0x2298>)
   26146:	4469      	add	r1, sp
   26148:	910b      	str	r1, [sp, #44]	@ 0x2c
   2614a:	910c      	str	r1, [sp, #48]	@ 0x30
   2614c:	9d0c      	ldr	r5, [sp, #48]	@ 0x30
   2614e:	c84e      	ldmia	r0!, {r1, r2, r3, r6}
   26150:	c54e      	stmia	r5!, {r1, r2, r3, r6}
   26152:	950c      	str	r5, [sp, #48]	@ 0x30
   26154:	7800      	ldrb	r0, [r0, #0]
   26156:	990c      	ldr	r1, [sp, #48]	@ 0x30
   26158:	7008      	strb	r0, [r1, #0]
   2615a:	990a      	ldr	r1, [sp, #40]	@ 0x28
   2615c:	0e08      	lsrs	r0, r1, #24
   2615e:	9d09      	ldr	r5, [sp, #36]	@ 0x24
   26160:	71a8      	strb	r0, [r5, #6]
   26162:	0c08      	lsrs	r0, r1, #16
   26164:	7168      	strb	r0, [r5, #5]
   26166:	0a08      	lsrs	r0, r1, #8
   26168:	7128      	strb	r0, [r5, #4]
   2616a:	70e9      	strb	r1, [r5, #3]
   2616c:	1de8      	adds	r0, r5, #7
   2616e:	2211      	movs	r2, #17
   26170:	990b      	ldr	r1, [sp, #44]	@ 0x2c
   26172:	f000 fea4 	bl	26ebe <__aeabi_memcpy>
   26176:	4e05      	ldr	r6, [pc, #20]	@ (2618c <_start+0x2290>)
   26178:	446e      	add	r6, sp
   2617a:	4630      	mov	r0, r6
   2617c:	4629      	mov	r1, r5
   2617e:	f7fc fdcf 	bl	22d20 <_ZN18complex_no_dynamic3app17hb59289494773e1a4E>
   26182:	7830      	ldrb	r0, [r6, #0]
   26184:	2801      	cmp	r0, #1
   26186:	d107      	bne.n	26198 <_start+0x229c>
   26188:	f000 fcc8 	bl	26b1c <_start+0x2c20>
   2618c:	000013cc 	.word	0x000013cc
   26190:	00000f08 	.word	0x00000f08
   26194:	00001370 	.word	0x00001370
   26198:	4818      	ldr	r0, [pc, #96]	@ (261fc <_start+0x2300>)
   2619a:	4468      	add	r0, sp
   2619c:	78c1      	ldrb	r1, [r0, #3]
   2619e:	4d18      	ldr	r5, [pc, #96]	@ (26200 <_start+0x2304>)
   261a0:	446d      	add	r5, sp
   261a2:	70a9      	strb	r1, [r5, #2]
   261a4:	7841      	ldrb	r1, [r0, #1]
   261a6:	7882      	ldrb	r2, [r0, #2]
   261a8:	0212      	lsls	r2, r2, #8
   261aa:	1851      	adds	r1, r2, r1
   261ac:	8029      	strh	r1, [r5, #0]
   261ae:	3008      	adds	r0, #8
   261b0:	9905      	ldr	r1, [sp, #20]
   261b2:	6e09      	ldr	r1, [r1, #96]	@ 0x60
   261b4:	910b      	str	r1, [sp, #44]	@ 0x2c
   261b6:	4b13      	ldr	r3, [pc, #76]	@ (26204 <_start+0x2308>)
   261b8:	446b      	add	r3, sp
   261ba:	930c      	str	r3, [sp, #48]	@ 0x30
   261bc:	c844      	ldmia	r0!, {r2, r6}
   261be:	c344      	stmia	r3!, {r2, r6}
   261c0:	c846      	ldmia	r0!, {r1, r2, r6}
   261c2:	c346      	stmia	r3!, {r1, r2, r6}
   261c4:	8801      	ldrh	r1, [r0, #0]
   261c6:	8019      	strh	r1, [r3, #0]
   261c8:	7880      	ldrb	r0, [r0, #2]
   261ca:	7098      	strb	r0, [r3, #2]
   261cc:	990b      	ldr	r1, [sp, #44]	@ 0x2c
   261ce:	0e08      	lsrs	r0, r1, #24
   261d0:	71a8      	strb	r0, [r5, #6]
   261d2:	0c08      	lsrs	r0, r1, #16
   261d4:	7168      	strb	r0, [r5, #5]
   261d6:	0a08      	lsrs	r0, r1, #8
   261d8:	7128      	strb	r0, [r5, #4]
   261da:	70e9      	strb	r1, [r5, #3]
   261dc:	1de8      	adds	r0, r5, #7
   261de:	2217      	movs	r2, #23
   261e0:	990c      	ldr	r1, [sp, #48]	@ 0x30
   261e2:	f000 fe6c 	bl	26ebe <__aeabi_memcpy>
   261e6:	4e05      	ldr	r6, [pc, #20]	@ (261fc <_start+0x2300>)
   261e8:	446e      	add	r6, sp
   261ea:	4630      	mov	r0, r6
   261ec:	4629      	mov	r1, r5
   261ee:	f7fa feb9 	bl	20f64 <_ZN18complex_no_dynamic3app17h37d75e8db13ad9e5E>
   261f2:	7830      	ldrb	r0, [r6, #0]
   261f4:	2801      	cmp	r0, #1
   261f6:	d107      	bne.n	26208 <_start+0x230c>
   261f8:	f000 fc90 	bl	26b1c <_start+0x2c20>
   261fc:	000013cc 	.word	0x000013cc
   26200:	00000f20 	.word	0x00000f20
   26204:	00001370 	.word	0x00001370
   26208:	481a      	ldr	r0, [pc, #104]	@ (26274 <_start+0x2378>)
   2620a:	4468      	add	r0, sp
   2620c:	78c1      	ldrb	r1, [r0, #3]
   2620e:	4b1a      	ldr	r3, [pc, #104]	@ (26278 <_start+0x237c>)
   26210:	446b      	add	r3, sp
   26212:	930b      	str	r3, [sp, #44]	@ 0x2c
   26214:	7099      	strb	r1, [r3, #2]
   26216:	7841      	ldrb	r1, [r0, #1]
   26218:	7882      	ldrb	r2, [r0, #2]
   2621a:	0212      	lsls	r2, r2, #8
   2621c:	1851      	adds	r1, r2, r1
   2621e:	8019      	strh	r1, [r3, #0]
   26220:	3008      	adds	r0, #8
   26222:	9905      	ldr	r1, [sp, #20]
   26224:	6e09      	ldr	r1, [r1, #96]	@ 0x60
   26226:	910a      	str	r1, [sp, #40]	@ 0x28
   26228:	4b14      	ldr	r3, [pc, #80]	@ (2627c <_start+0x2380>)
   2622a:	446b      	add	r3, sp
   2622c:	930c      	str	r3, [sp, #48]	@ 0x30
   2622e:	c846      	ldmia	r0!, {r1, r2, r6}
   26230:	c346      	stmia	r3!, {r1, r2, r6}
   26232:	c846      	ldmia	r0!, {r1, r2, r6}
   26234:	c346      	stmia	r3!, {r1, r2, r6}
   26236:	c846      	ldmia	r0!, {r1, r2, r6}
   26238:	c346      	stmia	r3!, {r1, r2, r6}
   2623a:	c866      	ldmia	r0!, {r1, r2, r5, r6}
   2623c:	c366      	stmia	r3!, {r1, r2, r5, r6}
   2623e:	7800      	ldrb	r0, [r0, #0]
   26240:	7018      	strb	r0, [r3, #0]
   26242:	990a      	ldr	r1, [sp, #40]	@ 0x28
   26244:	0e08      	lsrs	r0, r1, #24
   26246:	9d0b      	ldr	r5, [sp, #44]	@ 0x2c
   26248:	71a8      	strb	r0, [r5, #6]
   2624a:	0c08      	lsrs	r0, r1, #16
   2624c:	7168      	strb	r0, [r5, #5]
   2624e:	0a08      	lsrs	r0, r1, #8
   26250:	7128      	strb	r0, [r5, #4]
   26252:	70e9      	strb	r1, [r5, #3]
   26254:	1de8      	adds	r0, r5, #7
   26256:	2235      	movs	r2, #53	@ 0x35
   26258:	990c      	ldr	r1, [sp, #48]	@ 0x30
   2625a:	f000 fe30 	bl	26ebe <__aeabi_memcpy>
   2625e:	4e05      	ldr	r6, [pc, #20]	@ (26274 <_start+0x2378>)
   26260:	446e      	add	r6, sp
   26262:	4630      	mov	r0, r6
   26264:	4629      	mov	r1, r5
   26266:	f7fc fab9 	bl	227dc <_ZN18complex_no_dynamic3app17h9b802e4d3ac35b5aE>
   2626a:	7830      	ldrb	r0, [r6, #0]
   2626c:	2801      	cmp	r0, #1
   2626e:	d107      	bne.n	26280 <_start+0x2384>
   26270:	f000 fc54 	bl	26b1c <_start+0x2c20>
   26274:	000013cc 	.word	0x000013cc
   26278:	00000f40 	.word	0x00000f40
   2627c:	00001370 	.word	0x00001370
   26280:	4818      	ldr	r0, [pc, #96]	@ (262e4 <_start+0x23e8>)
   26282:	4468      	add	r0, sp
   26284:	78c1      	ldrb	r1, [r0, #3]
   26286:	4d18      	ldr	r5, [pc, #96]	@ (262e8 <_start+0x23ec>)
   26288:	446d      	add	r5, sp
   2628a:	70a9      	strb	r1, [r5, #2]
   2628c:	7841      	ldrb	r1, [r0, #1]
   2628e:	7882      	ldrb	r2, [r0, #2]
   26290:	0212      	lsls	r2, r2, #8
   26292:	1851      	adds	r1, r2, r1
   26294:	8029      	strh	r1, [r5, #0]
   26296:	3008      	adds	r0, #8
   26298:	9905      	ldr	r1, [sp, #20]
   2629a:	6e09      	ldr	r1, [r1, #96]	@ 0x60
   2629c:	910b      	str	r1, [sp, #44]	@ 0x2c
   2629e:	4b13      	ldr	r3, [pc, #76]	@ (262ec <_start+0x23f0>)
   262a0:	446b      	add	r3, sp
   262a2:	930c      	str	r3, [sp, #48]	@ 0x30
   262a4:	c846      	ldmia	r0!, {r1, r2, r6}
   262a6:	c346      	stmia	r3!, {r1, r2, r6}
   262a8:	c846      	ldmia	r0!, {r1, r2, r6}
   262aa:	c346      	stmia	r3!, {r1, r2, r6}
   262ac:	c846      	ldmia	r0!, {r1, r2, r6}
   262ae:	c346      	stmia	r3!, {r1, r2, r6}
   262b0:	7800      	ldrb	r0, [r0, #0]
   262b2:	7018      	strb	r0, [r3, #0]
   262b4:	990b      	ldr	r1, [sp, #44]	@ 0x2c
   262b6:	0e08      	lsrs	r0, r1, #24
   262b8:	71a8      	strb	r0, [r5, #6]
   262ba:	0c08      	lsrs	r0, r1, #16
   262bc:	7168      	strb	r0, [r5, #5]
   262be:	0a08      	lsrs	r0, r1, #8
   262c0:	7128      	strb	r0, [r5, #4]
   262c2:	70e9      	strb	r1, [r5, #3]
   262c4:	1de8      	adds	r0, r5, #7
   262c6:	2225      	movs	r2, #37	@ 0x25
   262c8:	990c      	ldr	r1, [sp, #48]	@ 0x30
   262ca:	f000 fdf8 	bl	26ebe <__aeabi_memcpy>
   262ce:	4e05      	ldr	r6, [pc, #20]	@ (262e4 <_start+0x23e8>)
   262d0:	446e      	add	r6, sp
   262d2:	4630      	mov	r0, r6
   262d4:	4629      	mov	r1, r5
   262d6:	f7fa fc49 	bl	20b6c <_ZN18complex_no_dynamic3app17h25cb4ebc698a706fE>
   262da:	7830      	ldrb	r0, [r6, #0]
   262dc:	2801      	cmp	r0, #1
   262de:	d107      	bne.n	262f0 <_start+0x23f4>
   262e0:	f000 fc1c 	bl	26b1c <_start+0x2c20>
   262e4:	000013cc 	.word	0x000013cc
   262e8:	00000f7c 	.word	0x00000f7c
   262ec:	00001370 	.word	0x00001370
   262f0:	4817      	ldr	r0, [pc, #92]	@ (26350 <_start+0x2454>)
   262f2:	4468      	add	r0, sp
   262f4:	78c1      	ldrb	r1, [r0, #3]
   262f6:	4b17      	ldr	r3, [pc, #92]	@ (26354 <_start+0x2458>)
   262f8:	446b      	add	r3, sp
   262fa:	930b      	str	r3, [sp, #44]	@ 0x2c
   262fc:	7099      	strb	r1, [r3, #2]
   262fe:	7841      	ldrb	r1, [r0, #1]
   26300:	7882      	ldrb	r2, [r0, #2]
   26302:	0212      	lsls	r2, r2, #8
   26304:	1851      	adds	r1, r2, r1
   26306:	8019      	strh	r1, [r3, #0]
   26308:	3008      	adds	r0, #8
   2630a:	9905      	ldr	r1, [sp, #20]
   2630c:	6e09      	ldr	r1, [r1, #96]	@ 0x60
   2630e:	910a      	str	r1, [sp, #40]	@ 0x28
   26310:	4b11      	ldr	r3, [pc, #68]	@ (26358 <_start+0x245c>)
   26312:	446b      	add	r3, sp
   26314:	930c      	str	r3, [sp, #48]	@ 0x30
   26316:	c866      	ldmia	r0!, {r1, r2, r5, r6}
   26318:	c366      	stmia	r3!, {r1, r2, r5, r6}
   2631a:	c866      	ldmia	r0!, {r1, r2, r5, r6}
   2631c:	c366      	stmia	r3!, {r1, r2, r5, r6}
   2631e:	990a      	ldr	r1, [sp, #40]	@ 0x28
   26320:	0e08      	lsrs	r0, r1, #24
   26322:	9d0b      	ldr	r5, [sp, #44]	@ 0x2c
   26324:	71a8      	strb	r0, [r5, #6]
   26326:	0c08      	lsrs	r0, r1, #16
   26328:	7168      	strb	r0, [r5, #5]
   2632a:	0a08      	lsrs	r0, r1, #8
   2632c:	7128      	strb	r0, [r5, #4]
   2632e:	70e9      	strb	r1, [r5, #3]
   26330:	1de8      	adds	r0, r5, #7
   26332:	2220      	movs	r2, #32
   26334:	990c      	ldr	r1, [sp, #48]	@ 0x30
   26336:	f000 fdc2 	bl	26ebe <__aeabi_memcpy>
   2633a:	4e05      	ldr	r6, [pc, #20]	@ (26350 <_start+0x2454>)
   2633c:	446e      	add	r6, sp
   2633e:	4630      	mov	r0, r6
   26340:	4629      	mov	r1, r5
   26342:	f7fd fcd9 	bl	23cf8 <_ZN18complex_no_dynamic3app17hfc274ef127c8e641E>
   26346:	7830      	ldrb	r0, [r6, #0]
   26348:	2801      	cmp	r0, #1
   2634a:	d107      	bne.n	2635c <_start+0x2460>
   2634c:	e3e6      	b.n	26b1c <_start+0x2c20>
   2634e:	46c0      	nop			@ (mov r8, r8)
   26350:	000013cc 	.word	0x000013cc
   26354:	00000fa8 	.word	0x00000fa8
   26358:	00001370 	.word	0x00001370
   2635c:	4915      	ldr	r1, [pc, #84]	@ (263b4 <_start+0x24b8>)
   2635e:	4469      	add	r1, sp
   26360:	78c8      	ldrb	r0, [r1, #3]
   26362:	4d15      	ldr	r5, [pc, #84]	@ (263b8 <_start+0x24bc>)
   26364:	446d      	add	r5, sp
   26366:	70a8      	strb	r0, [r5, #2]
   26368:	7848      	ldrb	r0, [r1, #1]
   2636a:	788a      	ldrb	r2, [r1, #2]
   2636c:	0212      	lsls	r2, r2, #8
   2636e:	1810      	adds	r0, r2, r0
   26370:	8028      	strh	r0, [r5, #0]
   26372:	9805      	ldr	r0, [sp, #20]
   26374:	6e06      	ldr	r6, [r0, #96]	@ 0x60
   26376:	3108      	adds	r1, #8
   26378:	4810      	ldr	r0, [pc, #64]	@ (263bc <_start+0x24c0>)
   2637a:	4468      	add	r0, sp
   2637c:	900c      	str	r0, [sp, #48]	@ 0x30
   2637e:	2248      	movs	r2, #72	@ 0x48
   26380:	920b      	str	r2, [sp, #44]	@ 0x2c
   26382:	f000 fc3c 	bl	26bfe <__aeabi_memcpy4>
   26386:	0e30      	lsrs	r0, r6, #24
   26388:	71a8      	strb	r0, [r5, #6]
   2638a:	0c30      	lsrs	r0, r6, #16
   2638c:	7168      	strb	r0, [r5, #5]
   2638e:	0a30      	lsrs	r0, r6, #8
   26390:	7128      	strb	r0, [r5, #4]
   26392:	70ee      	strb	r6, [r5, #3]
   26394:	1de8      	adds	r0, r5, #7
   26396:	990c      	ldr	r1, [sp, #48]	@ 0x30
   26398:	9a0b      	ldr	r2, [sp, #44]	@ 0x2c
   2639a:	f000 fd90 	bl	26ebe <__aeabi_memcpy>
   2639e:	4e05      	ldr	r6, [pc, #20]	@ (263b4 <_start+0x24b8>)
   263a0:	446e      	add	r6, sp
   263a2:	4630      	mov	r0, r6
   263a4:	4629      	mov	r1, r5
   263a6:	f7fa fe85 	bl	210b4 <_ZN18complex_no_dynamic3app17h389a286d50352c34E>
   263aa:	7830      	ldrb	r0, [r6, #0]
   263ac:	2801      	cmp	r0, #1
   263ae:	d107      	bne.n	263c0 <_start+0x24c4>
   263b0:	e3b4      	b.n	26b1c <_start+0x2c20>
   263b2:	46c0      	nop			@ (mov r8, r8)
   263b4:	000013cc 	.word	0x000013cc
   263b8:	00000fd0 	.word	0x00000fd0
   263bc:	00001370 	.word	0x00001370
   263c0:	4819      	ldr	r0, [pc, #100]	@ (26428 <_start+0x252c>)
   263c2:	4468      	add	r0, sp
   263c4:	78c1      	ldrb	r1, [r0, #3]
   263c6:	4b19      	ldr	r3, [pc, #100]	@ (2642c <_start+0x2530>)
   263c8:	446b      	add	r3, sp
   263ca:	930b      	str	r3, [sp, #44]	@ 0x2c
   263cc:	7099      	strb	r1, [r3, #2]
   263ce:	7841      	ldrb	r1, [r0, #1]
   263d0:	7882      	ldrb	r2, [r0, #2]
   263d2:	0212      	lsls	r2, r2, #8
   263d4:	1851      	adds	r1, r2, r1
   263d6:	8019      	strh	r1, [r3, #0]
   263d8:	3008      	adds	r0, #8
   263da:	9905      	ldr	r1, [sp, #20]
   263dc:	6e09      	ldr	r1, [r1, #96]	@ 0x60
   263de:	910a      	str	r1, [sp, #40]	@ 0x28
   263e0:	4b13      	ldr	r3, [pc, #76]	@ (26430 <_start+0x2534>)
   263e2:	446b      	add	r3, sp
   263e4:	930c      	str	r3, [sp, #48]	@ 0x30
   263e6:	c846      	ldmia	r0!, {r1, r2, r6}
   263e8:	c346      	stmia	r3!, {r1, r2, r6}
   263ea:	c866      	ldmia	r0!, {r1, r2, r5, r6}
   263ec:	c366      	stmia	r3!, {r1, r2, r5, r6}
   263ee:	c866      	ldmia	r0!, {r1, r2, r5, r6}
   263f0:	c366      	stmia	r3!, {r1, r2, r5, r6}
   263f2:	8800      	ldrh	r0, [r0, #0]
   263f4:	8018      	strh	r0, [r3, #0]
   263f6:	990a      	ldr	r1, [sp, #40]	@ 0x28
   263f8:	0e08      	lsrs	r0, r1, #24
   263fa:	9d0b      	ldr	r5, [sp, #44]	@ 0x2c
   263fc:	71a8      	strb	r0, [r5, #6]
   263fe:	0c08      	lsrs	r0, r1, #16
   26400:	7168      	strb	r0, [r5, #5]
   26402:	0a08      	lsrs	r0, r1, #8
   26404:	7128      	strb	r0, [r5, #4]
   26406:	70e9      	strb	r1, [r5, #3]
   26408:	1de8      	adds	r0, r5, #7
   2640a:	222e      	movs	r2, #46	@ 0x2e
   2640c:	990c      	ldr	r1, [sp, #48]	@ 0x30
   2640e:	f000 fd56 	bl	26ebe <__aeabi_memcpy>
   26412:	4e05      	ldr	r6, [pc, #20]	@ (26428 <_start+0x252c>)
   26414:	446e      	add	r6, sp
   26416:	4630      	mov	r0, r6
   26418:	4629      	mov	r1, r5
   2641a:	f7fb fb45 	bl	21aa8 <_ZN18complex_no_dynamic3app17h69a39c634c269f97E>
   2641e:	7830      	ldrb	r0, [r6, #0]
   26420:	2801      	cmp	r0, #1
   26422:	d107      	bne.n	26434 <_start+0x2538>
   26424:	e37a      	b.n	26b1c <_start+0x2c20>
   26426:	46c0      	nop			@ (mov r8, r8)
   26428:	000013cc 	.word	0x000013cc
   2642c:	00001020 	.word	0x00001020
   26430:	00001370 	.word	0x00001370
   26434:	4819      	ldr	r0, [pc, #100]	@ (2649c <_start+0x25a0>)
   26436:	4468      	add	r0, sp
   26438:	78c1      	ldrb	r1, [r0, #3]
   2643a:	4b19      	ldr	r3, [pc, #100]	@ (264a0 <_start+0x25a4>)
   2643c:	446b      	add	r3, sp
   2643e:	930b      	str	r3, [sp, #44]	@ 0x2c
   26440:	7099      	strb	r1, [r3, #2]
   26442:	7841      	ldrb	r1, [r0, #1]
   26444:	7882      	ldrb	r2, [r0, #2]
   26446:	0212      	lsls	r2, r2, #8
   26448:	1851      	adds	r1, r2, r1
   2644a:	8019      	strh	r1, [r3, #0]
   2644c:	3008      	adds	r0, #8
   2644e:	9905      	ldr	r1, [sp, #20]
   26450:	6e09      	ldr	r1, [r1, #96]	@ 0x60
   26452:	910a      	str	r1, [sp, #40]	@ 0x28
   26454:	4b13      	ldr	r3, [pc, #76]	@ (264a4 <_start+0x25a8>)
   26456:	446b      	add	r3, sp
   26458:	930c      	str	r3, [sp, #48]	@ 0x30
   2645a:	c846      	ldmia	r0!, {r1, r2, r6}
   2645c:	c346      	stmia	r3!, {r1, r2, r6}
   2645e:	c866      	ldmia	r0!, {r1, r2, r5, r6}
   26460:	c366      	stmia	r3!, {r1, r2, r5, r6}
   26462:	c826      	ldmia	r0!, {r1, r2, r5}
   26464:	c326      	stmia	r3!, {r1, r2, r5}
   26466:	c866      	ldmia	r0!, {r1, r2, r5, r6}
   26468:	c366      	stmia	r3!, {r1, r2, r5, r6}
   2646a:	990a      	ldr	r1, [sp, #40]	@ 0x28
   2646c:	0e08      	lsrs	r0, r1, #24
   2646e:	9d0b      	ldr	r5, [sp, #44]	@ 0x2c
   26470:	71a8      	strb	r0, [r5, #6]
   26472:	0c08      	lsrs	r0, r1, #16
   26474:	7168      	strb	r0, [r5, #5]
   26476:	0a08      	lsrs	r0, r1, #8
   26478:	7128      	strb	r0, [r5, #4]
   2647a:	70e9      	strb	r1, [r5, #3]
   2647c:	1de8      	adds	r0, r5, #7
   2647e:	2238      	movs	r2, #56	@ 0x38
   26480:	990c      	ldr	r1, [sp, #48]	@ 0x30
   26482:	f000 fd1c 	bl	26ebe <__aeabi_memcpy>
   26486:	4e05      	ldr	r6, [pc, #20]	@ (2649c <_start+0x25a0>)
   26488:	446e      	add	r6, sp
   2648a:	4630      	mov	r0, r6
   2648c:	4629      	mov	r1, r5
   2648e:	f7fa fd15 	bl	20ebc <_ZN18complex_no_dynamic3app17h3680baa4c6cf7cc4E>
   26492:	7830      	ldrb	r0, [r6, #0]
   26494:	2801      	cmp	r0, #1
   26496:	d107      	bne.n	264a8 <_start+0x25ac>
   26498:	e340      	b.n	26b1c <_start+0x2c20>
   2649a:	46c0      	nop			@ (mov r8, r8)
   2649c:	000013cc 	.word	0x000013cc
   264a0:	00001058 	.word	0x00001058
   264a4:	00001370 	.word	0x00001370
   264a8:	4815      	ldr	r0, [pc, #84]	@ (26500 <_start+0x2604>)
   264aa:	4468      	add	r0, sp
   264ac:	78c1      	ldrb	r1, [r0, #3]
   264ae:	4d15      	ldr	r5, [pc, #84]	@ (26504 <_start+0x2608>)
   264b0:	446d      	add	r5, sp
   264b2:	70a9      	strb	r1, [r5, #2]
   264b4:	7841      	ldrb	r1, [r0, #1]
   264b6:	7882      	ldrb	r2, [r0, #2]
   264b8:	0212      	lsls	r2, r2, #8
   264ba:	1851      	adds	r1, r2, r1
   264bc:	8029      	strh	r1, [r5, #0]
   264be:	3008      	adds	r0, #8
   264c0:	9905      	ldr	r1, [sp, #20]
   264c2:	6e09      	ldr	r1, [r1, #96]	@ 0x60
   264c4:	4b10      	ldr	r3, [pc, #64]	@ (26508 <_start+0x260c>)
   264c6:	446b      	add	r3, sp
   264c8:	930c      	str	r3, [sp, #48]	@ 0x30
   264ca:	c844      	ldmia	r0!, {r2, r6}
   264cc:	c344      	stmia	r3!, {r2, r6}
   264ce:	8800      	ldrh	r0, [r0, #0]
   264d0:	8018      	strh	r0, [r3, #0]
   264d2:	0e08      	lsrs	r0, r1, #24
   264d4:	71a8      	strb	r0, [r5, #6]
   264d6:	0c08      	lsrs	r0, r1, #16
   264d8:	7168      	strb	r0, [r5, #5]
   264da:	0a08      	lsrs	r0, r1, #8
   264dc:	7128      	strb	r0, [r5, #4]
   264de:	70e9      	strb	r1, [r5, #3]
   264e0:	1de8      	adds	r0, r5, #7
   264e2:	220a      	movs	r2, #10
   264e4:	990c      	ldr	r1, [sp, #48]	@ 0x30
   264e6:	f000 fcea 	bl	26ebe <__aeabi_memcpy>
   264ea:	4e05      	ldr	r6, [pc, #20]	@ (26500 <_start+0x2604>)
   264ec:	446e      	add	r6, sp
   264ee:	4630      	mov	r0, r6
   264f0:	4629      	mov	r1, r5
   264f2:	f7fa fc37 	bl	20d64 <_ZN18complex_no_dynamic3app17h2a0d42b7be75e862E>
   264f6:	7830      	ldrb	r0, [r6, #0]
   264f8:	2801      	cmp	r0, #1
   264fa:	d107      	bne.n	2650c <_start+0x2610>
   264fc:	e30e      	b.n	26b1c <_start+0x2c20>
   264fe:	46c0      	nop			@ (mov r8, r8)
   26500:	000013cc 	.word	0x000013cc
   26504:	00001098 	.word	0x00001098
   26508:	00001370 	.word	0x00001370
   2650c:	4819      	ldr	r0, [pc, #100]	@ (26574 <_start+0x2678>)
   2650e:	4468      	add	r0, sp
   26510:	78c1      	ldrb	r1, [r0, #3]
   26512:	4b19      	ldr	r3, [pc, #100]	@ (26578 <_start+0x267c>)
   26514:	446b      	add	r3, sp
   26516:	930b      	str	r3, [sp, #44]	@ 0x2c
   26518:	7099      	strb	r1, [r3, #2]
   2651a:	7841      	ldrb	r1, [r0, #1]
   2651c:	7882      	ldrb	r2, [r0, #2]
   2651e:	0212      	lsls	r2, r2, #8
   26520:	1851      	adds	r1, r2, r1
   26522:	8019      	strh	r1, [r3, #0]
   26524:	3008      	adds	r0, #8
   26526:	9905      	ldr	r1, [sp, #20]
   26528:	6e09      	ldr	r1, [r1, #96]	@ 0x60
   2652a:	910a      	str	r1, [sp, #40]	@ 0x28
   2652c:	4b13      	ldr	r3, [pc, #76]	@ (2657c <_start+0x2680>)
   2652e:	446b      	add	r3, sp
   26530:	930c      	str	r3, [sp, #48]	@ 0x30
   26532:	c846      	ldmia	r0!, {r1, r2, r6}
   26534:	c346      	stmia	r3!, {r1, r2, r6}
   26536:	c866      	ldmia	r0!, {r1, r2, r5, r6}
   26538:	c366      	stmia	r3!, {r1, r2, r5, r6}
   2653a:	c826      	ldmia	r0!, {r1, r2, r5}
   2653c:	c326      	stmia	r3!, {r1, r2, r5}
   2653e:	c866      	ldmia	r0!, {r1, r2, r5, r6}
   26540:	c366      	stmia	r3!, {r1, r2, r5, r6}
   26542:	990a      	ldr	r1, [sp, #40]	@ 0x28
   26544:	0e08      	lsrs	r0, r1, #24
   26546:	9d0b      	ldr	r5, [sp, #44]	@ 0x2c
   26548:	71a8      	strb	r0, [r5, #6]
   2654a:	0c08      	lsrs	r0, r1, #16
   2654c:	7168      	strb	r0, [r5, #5]
   2654e:	0a08      	lsrs	r0, r1, #8
   26550:	7128      	strb	r0, [r5, #4]
   26552:	70e9      	strb	r1, [r5, #3]
   26554:	1de8      	adds	r0, r5, #7
   26556:	2238      	movs	r2, #56	@ 0x38
   26558:	990c      	ldr	r1, [sp, #48]	@ 0x30
   2655a:	f000 fcb0 	bl	26ebe <__aeabi_memcpy>
   2655e:	4e05      	ldr	r6, [pc, #20]	@ (26574 <_start+0x2678>)
   26560:	446e      	add	r6, sp
   26562:	4630      	mov	r0, r6
   26564:	4629      	mov	r1, r5
   26566:	f7fb fe99 	bl	2229c <_ZN18complex_no_dynamic3app17h7dab7e080c11d87dE>
   2656a:	7830      	ldrb	r0, [r6, #0]
   2656c:	2801      	cmp	r0, #1
   2656e:	d107      	bne.n	26580 <_start+0x2684>
   26570:	e2d4      	b.n	26b1c <_start+0x2c20>
   26572:	46c0      	nop			@ (mov r8, r8)
   26574:	000013cc 	.word	0x000013cc
   26578:	000010ac 	.word	0x000010ac
   2657c:	00001370 	.word	0x00001370
   26580:	4817      	ldr	r0, [pc, #92]	@ (265e0 <_start+0x26e4>)
   26582:	4468      	add	r0, sp
   26584:	78c1      	ldrb	r1, [r0, #3]
   26586:	4d17      	ldr	r5, [pc, #92]	@ (265e4 <_start+0x26e8>)
   26588:	446d      	add	r5, sp
   2658a:	70a9      	strb	r1, [r5, #2]
   2658c:	7841      	ldrb	r1, [r0, #1]
   2658e:	7882      	ldrb	r2, [r0, #2]
   26590:	0212      	lsls	r2, r2, #8
   26592:	1851      	adds	r1, r2, r1
   26594:	8029      	strh	r1, [r5, #0]
   26596:	3008      	adds	r0, #8
   26598:	9905      	ldr	r1, [sp, #20]
   2659a:	6e09      	ldr	r1, [r1, #96]	@ 0x60
   2659c:	910b      	str	r1, [sp, #44]	@ 0x2c
   2659e:	4b12      	ldr	r3, [pc, #72]	@ (265e8 <_start+0x26ec>)
   265a0:	446b      	add	r3, sp
   265a2:	930c      	str	r3, [sp, #48]	@ 0x30
   265a4:	c844      	ldmia	r0!, {r2, r6}
   265a6:	c344      	stmia	r3!, {r2, r6}
   265a8:	c846      	ldmia	r0!, {r1, r2, r6}
   265aa:	c346      	stmia	r3!, {r1, r2, r6}
   265ac:	7800      	ldrb	r0, [r0, #0]
   265ae:	7018      	strb	r0, [r3, #0]
   265b0:	990b      	ldr	r1, [sp, #44]	@ 0x2c
   265b2:	0e08      	lsrs	r0, r1, #24
   265b4:	71a8      	strb	r0, [r5, #6]
   265b6:	0c08      	lsrs	r0, r1, #16
   265b8:	7168      	strb	r0, [r5, #5]
   265ba:	0a08      	lsrs	r0, r1, #8
   265bc:	7128      	strb	r0, [r5, #4]
   265be:	70e9      	strb	r1, [r5, #3]
   265c0:	1de8      	adds	r0, r5, #7
   265c2:	2215      	movs	r2, #21
   265c4:	990c      	ldr	r1, [sp, #48]	@ 0x30
   265c6:	f000 fc7a 	bl	26ebe <__aeabi_memcpy>
   265ca:	4e05      	ldr	r6, [pc, #20]	@ (265e0 <_start+0x26e4>)
   265cc:	446e      	add	r6, sp
   265ce:	4630      	mov	r0, r6
   265d0:	4629      	mov	r1, r5
   265d2:	f7fa f829 	bl	20628 <_ZN18complex_no_dynamic3app17h1c2fca19c26246feE>
   265d6:	7830      	ldrb	r0, [r6, #0]
   265d8:	2801      	cmp	r0, #1
   265da:	d107      	bne.n	265ec <_start+0x26f0>
   265dc:	e29e      	b.n	26b1c <_start+0x2c20>
   265de:	46c0      	nop			@ (mov r8, r8)
   265e0:	000013cc 	.word	0x000013cc
   265e4:	000010ec 	.word	0x000010ec
   265e8:	00001370 	.word	0x00001370
   265ec:	4915      	ldr	r1, [pc, #84]	@ (26644 <_start+0x2748>)
   265ee:	4469      	add	r1, sp
   265f0:	78c8      	ldrb	r0, [r1, #3]
   265f2:	4d15      	ldr	r5, [pc, #84]	@ (26648 <_start+0x274c>)
   265f4:	446d      	add	r5, sp
   265f6:	70a8      	strb	r0, [r5, #2]
   265f8:	7848      	ldrb	r0, [r1, #1]
   265fa:	788a      	ldrb	r2, [r1, #2]
   265fc:	0212      	lsls	r2, r2, #8
   265fe:	1810      	adds	r0, r2, r0
   26600:	8028      	strh	r0, [r5, #0]
   26602:	9805      	ldr	r0, [sp, #20]
   26604:	6e06      	ldr	r6, [r0, #96]	@ 0x60
   26606:	3108      	adds	r1, #8
   26608:	4810      	ldr	r0, [pc, #64]	@ (2664c <_start+0x2750>)
   2660a:	4468      	add	r0, sp
   2660c:	900c      	str	r0, [sp, #48]	@ 0x30
   2660e:	2256      	movs	r2, #86	@ 0x56
   26610:	920b      	str	r2, [sp, #44]	@ 0x2c
   26612:	f000 faf4 	bl	26bfe <__aeabi_memcpy4>
   26616:	0e30      	lsrs	r0, r6, #24
   26618:	71a8      	strb	r0, [r5, #6]
   2661a:	0c30      	lsrs	r0, r6, #16
   2661c:	7168      	strb	r0, [r5, #5]
   2661e:	0a30      	lsrs	r0, r6, #8
   26620:	7128      	strb	r0, [r5, #4]
   26622:	70ee      	strb	r6, [r5, #3]
   26624:	1de8      	adds	r0, r5, #7
   26626:	990c      	ldr	r1, [sp, #48]	@ 0x30
   26628:	9a0b      	ldr	r2, [sp, #44]	@ 0x2c
   2662a:	f000 fc48 	bl	26ebe <__aeabi_memcpy>
   2662e:	4e05      	ldr	r6, [pc, #20]	@ (26644 <_start+0x2748>)
   26630:	446e      	add	r6, sp
   26632:	4630      	mov	r0, r6
   26634:	4629      	mov	r1, r5
   26636:	f7fb fb89 	bl	21d4c <_ZN18complex_no_dynamic3app17h6e6d5419d153c697E>
   2663a:	7830      	ldrb	r0, [r6, #0]
   2663c:	2801      	cmp	r0, #1
   2663e:	d107      	bne.n	26650 <_start+0x2754>
   26640:	e26c      	b.n	26b1c <_start+0x2c20>
   26642:	46c0      	nop			@ (mov r8, r8)
   26644:	000013cc 	.word	0x000013cc
   26648:	00001108 	.word	0x00001108
   2664c:	00001370 	.word	0x00001370
   26650:	4816      	ldr	r0, [pc, #88]	@ (266ac <_start+0x27b0>)
   26652:	4468      	add	r0, sp
   26654:	78c1      	ldrb	r1, [r0, #3]
   26656:	4d16      	ldr	r5, [pc, #88]	@ (266b0 <_start+0x27b4>)
   26658:	446d      	add	r5, sp
   2665a:	70a9      	strb	r1, [r5, #2]
   2665c:	7841      	ldrb	r1, [r0, #1]
   2665e:	7882      	ldrb	r2, [r0, #2]
   26660:	0212      	lsls	r2, r2, #8
   26662:	1851      	adds	r1, r2, r1
   26664:	8029      	strh	r1, [r5, #0]
   26666:	3008      	adds	r0, #8
   26668:	9905      	ldr	r1, [sp, #20]
   2666a:	6e09      	ldr	r1, [r1, #96]	@ 0x60
   2666c:	4b11      	ldr	r3, [pc, #68]	@ (266b4 <_start+0x27b8>)
   2666e:	446b      	add	r3, sp
   26670:	930c      	str	r3, [sp, #48]	@ 0x30
   26672:	c844      	ldmia	r0!, {r2, r6}
   26674:	c344      	stmia	r3!, {r2, r6}
   26676:	8802      	ldrh	r2, [r0, #0]
   26678:	801a      	strh	r2, [r3, #0]
   2667a:	7880      	ldrb	r0, [r0, #2]
   2667c:	7098      	strb	r0, [r3, #2]
   2667e:	0e08      	lsrs	r0, r1, #24
   26680:	71a8      	strb	r0, [r5, #6]
   26682:	0c08      	lsrs	r0, r1, #16
   26684:	7168      	strb	r0, [r5, #5]
   26686:	0a08      	lsrs	r0, r1, #8
   26688:	7128      	strb	r0, [r5, #4]
   2668a:	70e9      	strb	r1, [r5, #3]
   2668c:	1de8      	adds	r0, r5, #7
   2668e:	220b      	movs	r2, #11
   26690:	990c      	ldr	r1, [sp, #48]	@ 0x30
   26692:	f000 fc14 	bl	26ebe <__aeabi_memcpy>
   26696:	4e05      	ldr	r6, [pc, #20]	@ (266ac <_start+0x27b0>)
   26698:	446e      	add	r6, sp
   2669a:	4630      	mov	r0, r6
   2669c:	4629      	mov	r1, r5
   2669e:	f7fa fa11 	bl	20ac4 <_ZN18complex_no_dynamic3app17h23a25a5e8ed57e51E>
   266a2:	7830      	ldrb	r0, [r6, #0]
   266a4:	2801      	cmp	r0, #1
   266a6:	d107      	bne.n	266b8 <_start+0x27bc>
   266a8:	e238      	b.n	26b1c <_start+0x2c20>
   266aa:	46c0      	nop			@ (mov r8, r8)
   266ac:	000013cc 	.word	0x000013cc
   266b0:	00001168 	.word	0x00001168
   266b4:	00001370 	.word	0x00001370
   266b8:	481a      	ldr	r0, [pc, #104]	@ (26724 <_start+0x2828>)
   266ba:	4468      	add	r0, sp
   266bc:	78c1      	ldrb	r1, [r0, #3]
   266be:	4b1a      	ldr	r3, [pc, #104]	@ (26728 <_start+0x282c>)
   266c0:	446b      	add	r3, sp
   266c2:	930b      	str	r3, [sp, #44]	@ 0x2c
   266c4:	7099      	strb	r1, [r3, #2]
   266c6:	7841      	ldrb	r1, [r0, #1]
   266c8:	7882      	ldrb	r2, [r0, #2]
   266ca:	0212      	lsls	r2, r2, #8
   266cc:	1851      	adds	r1, r2, r1
   266ce:	8019      	strh	r1, [r3, #0]
   266d0:	3008      	adds	r0, #8
   266d2:	9905      	ldr	r1, [sp, #20]
   266d4:	6e09      	ldr	r1, [r1, #96]	@ 0x60
   266d6:	910a      	str	r1, [sp, #40]	@ 0x28
   266d8:	4b14      	ldr	r3, [pc, #80]	@ (2672c <_start+0x2830>)
   266da:	446b      	add	r3, sp
   266dc:	930c      	str	r3, [sp, #48]	@ 0x30
   266de:	c846      	ldmia	r0!, {r1, r2, r6}
   266e0:	c346      	stmia	r3!, {r1, r2, r6}
   266e2:	c866      	ldmia	r0!, {r1, r2, r5, r6}
   266e4:	c366      	stmia	r3!, {r1, r2, r5, r6}
   266e6:	c866      	ldmia	r0!, {r1, r2, r5, r6}
   266e8:	c366      	stmia	r3!, {r1, r2, r5, r6}
   266ea:	c866      	ldmia	r0!, {r1, r2, r5, r6}
   266ec:	c366      	stmia	r3!, {r1, r2, r5, r6}
   266ee:	7800      	ldrb	r0, [r0, #0]
   266f0:	7018      	strb	r0, [r3, #0]
   266f2:	990a      	ldr	r1, [sp, #40]	@ 0x28
   266f4:	0e08      	lsrs	r0, r1, #24
   266f6:	9d0b      	ldr	r5, [sp, #44]	@ 0x2c
   266f8:	71a8      	strb	r0, [r5, #6]
   266fa:	0c08      	lsrs	r0, r1, #16
   266fc:	7168      	strb	r0, [r5, #5]
   266fe:	0a08      	lsrs	r0, r1, #8
   26700:	7128      	strb	r0, [r5, #4]
   26702:	70e9      	strb	r1, [r5, #3]
   26704:	1de8      	adds	r0, r5, #7
   26706:	223d      	movs	r2, #61	@ 0x3d
   26708:	990c      	ldr	r1, [sp, #48]	@ 0x30
   2670a:	f000 fbd8 	bl	26ebe <__aeabi_memcpy>
   2670e:	4e05      	ldr	r6, [pc, #20]	@ (26724 <_start+0x2828>)
   26710:	446e      	add	r6, sp
   26712:	4630      	mov	r0, r6
   26714:	4629      	mov	r1, r5
   26716:	f7fb fd17 	bl	22148 <_ZN18complex_no_dynamic3app17h78d1395ecded0ec2E>
   2671a:	7830      	ldrb	r0, [r6, #0]
   2671c:	2801      	cmp	r0, #1
   2671e:	d107      	bne.n	26730 <_start+0x2834>
   26720:	e1fc      	b.n	26b1c <_start+0x2c20>
   26722:	46c0      	nop			@ (mov r8, r8)
   26724:	000013cc 	.word	0x000013cc
   26728:	0000117c 	.word	0x0000117c
   2672c:	00001370 	.word	0x00001370
   26730:	48fd      	ldr	r0, [pc, #1012]	@ (26b28 <_start+0x2c2c>)
   26732:	4468      	add	r0, sp
   26734:	78c1      	ldrb	r1, [r0, #3]
   26736:	4bfe      	ldr	r3, [pc, #1016]	@ (26b30 <_start+0x2c34>)
   26738:	446b      	add	r3, sp
   2673a:	930b      	str	r3, [sp, #44]	@ 0x2c
   2673c:	7099      	strb	r1, [r3, #2]
   2673e:	7841      	ldrb	r1, [r0, #1]
   26740:	7882      	ldrb	r2, [r0, #2]
   26742:	0212      	lsls	r2, r2, #8
   26744:	1851      	adds	r1, r2, r1
   26746:	8019      	strh	r1, [r3, #0]
   26748:	3008      	adds	r0, #8
   2674a:	9905      	ldr	r1, [sp, #20]
   2674c:	6e09      	ldr	r1, [r1, #96]	@ 0x60
   2674e:	910a      	str	r1, [sp, #40]	@ 0x28
   26750:	4bf9      	ldr	r3, [pc, #996]	@ (26b38 <_start+0x2c3c>)
   26752:	446b      	add	r3, sp
   26754:	930c      	str	r3, [sp, #48]	@ 0x30
   26756:	c846      	ldmia	r0!, {r1, r2, r6}
   26758:	c346      	stmia	r3!, {r1, r2, r6}
   2675a:	c866      	ldmia	r0!, {r1, r2, r5, r6}
   2675c:	c366      	stmia	r3!, {r1, r2, r5, r6}
   2675e:	990a      	ldr	r1, [sp, #40]	@ 0x28
   26760:	0e08      	lsrs	r0, r1, #24
   26762:	9d0b      	ldr	r5, [sp, #44]	@ 0x2c
   26764:	71a8      	strb	r0, [r5, #6]
   26766:	0c08      	lsrs	r0, r1, #16
   26768:	7168      	strb	r0, [r5, #5]
   2676a:	0a08      	lsrs	r0, r1, #8
   2676c:	7128      	strb	r0, [r5, #4]
   2676e:	70e9      	strb	r1, [r5, #3]
   26770:	1de8      	adds	r0, r5, #7
   26772:	221c      	movs	r2, #28
   26774:	990c      	ldr	r1, [sp, #48]	@ 0x30
   26776:	f000 fba2 	bl	26ebe <__aeabi_memcpy>
   2677a:	4eee      	ldr	r6, [pc, #952]	@ (26b34 <_start+0x2c38>)
   2677c:	446e      	add	r6, sp
   2677e:	4630      	mov	r0, r6
   26780:	4629      	mov	r1, r5
   26782:	f7fc ff67 	bl	23654 <_ZN18complex_no_dynamic3app17hd545a4e177662dfdE>
   26786:	7830      	ldrb	r0, [r6, #0]
   26788:	2801      	cmp	r0, #1
   2678a:	d100      	bne.n	2678e <_start+0x2892>
   2678c:	e1c6      	b.n	26b1c <_start+0x2c20>
   2678e:	48e9      	ldr	r0, [pc, #932]	@ (26b34 <_start+0x2c38>)
   26790:	4468      	add	r0, sp
   26792:	78c1      	ldrb	r1, [r0, #3]
   26794:	4be9      	ldr	r3, [pc, #932]	@ (26b3c <_start+0x2c40>)
   26796:	446b      	add	r3, sp
   26798:	930b      	str	r3, [sp, #44]	@ 0x2c
   2679a:	7099      	strb	r1, [r3, #2]
   2679c:	7841      	ldrb	r1, [r0, #1]
   2679e:	7882      	ldrb	r2, [r0, #2]
   267a0:	0212      	lsls	r2, r2, #8
   267a2:	1851      	adds	r1, r2, r1
   267a4:	8019      	strh	r1, [r3, #0]
   267a6:	3008      	adds	r0, #8
   267a8:	9905      	ldr	r1, [sp, #20]
   267aa:	6e09      	ldr	r1, [r1, #96]	@ 0x60
   267ac:	910a      	str	r1, [sp, #40]	@ 0x28
   267ae:	4be2      	ldr	r3, [pc, #904]	@ (26b38 <_start+0x2c3c>)
   267b0:	446b      	add	r3, sp
   267b2:	930c      	str	r3, [sp, #48]	@ 0x30
   267b4:	c846      	ldmia	r0!, {r1, r2, r6}
   267b6:	c346      	stmia	r3!, {r1, r2, r6}
   267b8:	c866      	ldmia	r0!, {r1, r2, r5, r6}
   267ba:	c366      	stmia	r3!, {r1, r2, r5, r6}
   267bc:	7800      	ldrb	r0, [r0, #0]
   267be:	7018      	strb	r0, [r3, #0]
   267c0:	990a      	ldr	r1, [sp, #40]	@ 0x28
   267c2:	0e08      	lsrs	r0, r1, #24
   267c4:	9d0b      	ldr	r5, [sp, #44]	@ 0x2c
   267c6:	71a8      	strb	r0, [r5, #6]
   267c8:	0c08      	lsrs	r0, r1, #16
   267ca:	7168      	strb	r0, [r5, #5]
   267cc:	0a08      	lsrs	r0, r1, #8
   267ce:	7128      	strb	r0, [r5, #4]
   267d0:	70e9      	strb	r1, [r5, #3]
   267d2:	1de8      	adds	r0, r5, #7
   267d4:	221d      	movs	r2, #29
   267d6:	990c      	ldr	r1, [sp, #48]	@ 0x30
   267d8:	f000 fb71 	bl	26ebe <__aeabi_memcpy>
   267dc:	4ed5      	ldr	r6, [pc, #852]	@ (26b34 <_start+0x2c38>)
   267de:	446e      	add	r6, sp
   267e0:	4630      	mov	r0, r6
   267e2:	4629      	mov	r1, r5
   267e4:	f7fd f988 	bl	23af8 <_ZN18complex_no_dynamic3app17hea1d416fc613f615E>
   267e8:	7830      	ldrb	r0, [r6, #0]
   267ea:	2801      	cmp	r0, #1
   267ec:	d100      	bne.n	267f0 <_start+0x28f4>
   267ee:	e195      	b.n	26b1c <_start+0x2c20>
   267f0:	48d0      	ldr	r0, [pc, #832]	@ (26b34 <_start+0x2c38>)
   267f2:	4468      	add	r0, sp
   267f4:	78c1      	ldrb	r1, [r0, #3]
   267f6:	4bd2      	ldr	r3, [pc, #840]	@ (26b40 <_start+0x2c44>)
   267f8:	446b      	add	r3, sp
   267fa:	930b      	str	r3, [sp, #44]	@ 0x2c
   267fc:	7099      	strb	r1, [r3, #2]
   267fe:	7841      	ldrb	r1, [r0, #1]
   26800:	7882      	ldrb	r2, [r0, #2]
   26802:	0212      	lsls	r2, r2, #8
   26804:	1851      	adds	r1, r2, r1
   26806:	8019      	strh	r1, [r3, #0]
   26808:	3008      	adds	r0, #8
   2680a:	9905      	ldr	r1, [sp, #20]
   2680c:	6e09      	ldr	r1, [r1, #96]	@ 0x60
   2680e:	910a      	str	r1, [sp, #40]	@ 0x28
   26810:	4bc9      	ldr	r3, [pc, #804]	@ (26b38 <_start+0x2c3c>)
   26812:	446b      	add	r3, sp
   26814:	930c      	str	r3, [sp, #48]	@ 0x30
   26816:	c846      	ldmia	r0!, {r1, r2, r6}
   26818:	c346      	stmia	r3!, {r1, r2, r6}
   2681a:	c846      	ldmia	r0!, {r1, r2, r6}
   2681c:	c346      	stmia	r3!, {r1, r2, r6}
   2681e:	c866      	ldmia	r0!, {r1, r2, r5, r6}
   26820:	c366      	stmia	r3!, {r1, r2, r5, r6}
   26822:	990a      	ldr	r1, [sp, #40]	@ 0x28
   26824:	0e08      	lsrs	r0, r1, #24
   26826:	9d0b      	ldr	r5, [sp, #44]	@ 0x2c
   26828:	71a8      	strb	r0, [r5, #6]
   2682a:	0c08      	lsrs	r0, r1, #16
   2682c:	7168      	strb	r0, [r5, #5]
   2682e:	0a08      	lsrs	r0, r1, #8
   26830:	7128      	strb	r0, [r5, #4]
   26832:	70e9      	strb	r1, [r5, #3]
   26834:	1de8      	adds	r0, r5, #7
   26836:	2228      	movs	r2, #40	@ 0x28
   26838:	990c      	ldr	r1, [sp, #48]	@ 0x30
   2683a:	f000 fb40 	bl	26ebe <__aeabi_memcpy>
   2683e:	4ebd      	ldr	r6, [pc, #756]	@ (26b34 <_start+0x2c38>)
   26840:	446e      	add	r6, sp
   26842:	4630      	mov	r0, r6
   26844:	4629      	mov	r1, r5
   26846:	f7fa fd87 	bl	21358 <_ZN18complex_no_dynamic3app17h47c7930c07138baaE>
   2684a:	7830      	ldrb	r0, [r6, #0]
   2684c:	2801      	cmp	r0, #1
   2684e:	d100      	bne.n	26852 <_start+0x2956>
   26850:	e164      	b.n	26b1c <_start+0x2c20>
   26852:	49b8      	ldr	r1, [pc, #736]	@ (26b34 <_start+0x2c38>)
   26854:	4469      	add	r1, sp
   26856:	78c8      	ldrb	r0, [r1, #3]
   26858:	4dba      	ldr	r5, [pc, #744]	@ (26b44 <_start+0x2c48>)
   2685a:	446d      	add	r5, sp
   2685c:	70a8      	strb	r0, [r5, #2]
   2685e:	7848      	ldrb	r0, [r1, #1]
   26860:	788a      	ldrb	r2, [r1, #2]
   26862:	0212      	lsls	r2, r2, #8
   26864:	1810      	adds	r0, r2, r0
   26866:	8028      	strh	r0, [r5, #0]
   26868:	9805      	ldr	r0, [sp, #20]
   2686a:	6e06      	ldr	r6, [r0, #96]	@ 0x60
   2686c:	3108      	adds	r1, #8
   2686e:	48b2      	ldr	r0, [pc, #712]	@ (26b38 <_start+0x2c3c>)
   26870:	4468      	add	r0, sp
   26872:	900c      	str	r0, [sp, #48]	@ 0x30
   26874:	2257      	movs	r2, #87	@ 0x57
   26876:	920b      	str	r2, [sp, #44]	@ 0x2c
   26878:	f000 f9c1 	bl	26bfe <__aeabi_memcpy4>
   2687c:	0e30      	lsrs	r0, r6, #24
   2687e:	71a8      	strb	r0, [r5, #6]
   26880:	0c30      	lsrs	r0, r6, #16
   26882:	7168      	strb	r0, [r5, #5]
   26884:	0a30      	lsrs	r0, r6, #8
   26886:	7128      	strb	r0, [r5, #4]
   26888:	70ee      	strb	r6, [r5, #3]
   2688a:	1de8      	adds	r0, r5, #7
   2688c:	990c      	ldr	r1, [sp, #48]	@ 0x30
   2688e:	9a0b      	ldr	r2, [sp, #44]	@ 0x2c
   26890:	f000 fb15 	bl	26ebe <__aeabi_memcpy>
   26894:	4ea7      	ldr	r6, [pc, #668]	@ (26b34 <_start+0x2c38>)
   26896:	446e      	add	r6, sp
   26898:	4630      	mov	r0, r6
   2689a:	4629      	mov	r1, r5
   2689c:	f7fc f996 	bl	22bcc <_ZN18complex_no_dynamic3app17hafbc7cde43414704E>
   268a0:	7830      	ldrb	r0, [r6, #0]
   268a2:	2801      	cmp	r0, #1
   268a4:	d100      	bne.n	268a8 <_start+0x29ac>
   268a6:	e139      	b.n	26b1c <_start+0x2c20>
   268a8:	49a2      	ldr	r1, [pc, #648]	@ (26b34 <_start+0x2c38>)
   268aa:	4469      	add	r1, sp
   268ac:	78c8      	ldrb	r0, [r1, #3]
   268ae:	4da6      	ldr	r5, [pc, #664]	@ (26b48 <_start+0x2c4c>)
   268b0:	446d      	add	r5, sp
   268b2:	70a8      	strb	r0, [r5, #2]
   268b4:	7848      	ldrb	r0, [r1, #1]
   268b6:	788a      	ldrb	r2, [r1, #2]
   268b8:	0212      	lsls	r2, r2, #8
   268ba:	1810      	adds	r0, r2, r0
   268bc:	8028      	strh	r0, [r5, #0]
   268be:	9805      	ldr	r0, [sp, #20]
   268c0:	6e06      	ldr	r6, [r0, #96]	@ 0x60
   268c2:	3108      	adds	r1, #8
   268c4:	489c      	ldr	r0, [pc, #624]	@ (26b38 <_start+0x2c3c>)
   268c6:	4468      	add	r0, sp
   268c8:	900c      	str	r0, [sp, #48]	@ 0x30
   268ca:	224e      	movs	r2, #78	@ 0x4e
   268cc:	920b      	str	r2, [sp, #44]	@ 0x2c
   268ce:	f000 f996 	bl	26bfe <__aeabi_memcpy4>
   268d2:	0e30      	lsrs	r0, r6, #24
   268d4:	71a8      	strb	r0, [r5, #6]
   268d6:	0c30      	lsrs	r0, r6, #16
   268d8:	7168      	strb	r0, [r5, #5]
   268da:	0a30      	lsrs	r0, r6, #8
   268dc:	7128      	strb	r0, [r5, #4]
   268de:	70ee      	strb	r6, [r5, #3]
   268e0:	1de8      	adds	r0, r5, #7
   268e2:	990c      	ldr	r1, [sp, #48]	@ 0x30
   268e4:	9a0b      	ldr	r2, [sp, #44]	@ 0x2c
   268e6:	f000 faea 	bl	26ebe <__aeabi_memcpy>
   268ea:	4e92      	ldr	r6, [pc, #584]	@ (26b34 <_start+0x2c38>)
   268ec:	446e      	add	r6, sp
   268ee:	4630      	mov	r0, r6
   268f0:	4629      	mov	r1, r5
   268f2:	f7fb f82b 	bl	2194c <_ZN18complex_no_dynamic3app17h684de08290679f3dE>
   268f6:	7830      	ldrb	r0, [r6, #0]
   268f8:	2801      	cmp	r0, #1
   268fa:	d100      	bne.n	268fe <_start+0x2a02>
   268fc:	e10e      	b.n	26b1c <_start+0x2c20>
   268fe:	488d      	ldr	r0, [pc, #564]	@ (26b34 <_start+0x2c38>)
   26900:	4468      	add	r0, sp
   26902:	78c1      	ldrb	r1, [r0, #3]
   26904:	4d91      	ldr	r5, [pc, #580]	@ (26b4c <_start+0x2c50>)
   26906:	446d      	add	r5, sp
   26908:	70a9      	strb	r1, [r5, #2]
   2690a:	7841      	ldrb	r1, [r0, #1]
   2690c:	7882      	ldrb	r2, [r0, #2]
   2690e:	0212      	lsls	r2, r2, #8
   26910:	1851      	adds	r1, r2, r1
   26912:	8029      	strh	r1, [r5, #0]
   26914:	3008      	adds	r0, #8
   26916:	9905      	ldr	r1, [sp, #20]
   26918:	6e09      	ldr	r1, [r1, #96]	@ 0x60
   2691a:	4b87      	ldr	r3, [pc, #540]	@ (26b38 <_start+0x2c3c>)
   2691c:	446b      	add	r3, sp
   2691e:	930c      	str	r3, [sp, #48]	@ 0x30
   26920:	c844      	ldmia	r0!, {r2, r6}
   26922:	c344      	stmia	r3!, {r2, r6}
   26924:	8800      	ldrh	r0, [r0, #0]
   26926:	8018      	strh	r0, [r3, #0]
   26928:	0e08      	lsrs	r0, r1, #24
   2692a:	71a8      	strb	r0, [r5, #6]
   2692c:	0c08      	lsrs	r0, r1, #16
   2692e:	7168      	strb	r0, [r5, #5]
   26930:	0a08      	lsrs	r0, r1, #8
   26932:	7128      	strb	r0, [r5, #4]
   26934:	70e9      	strb	r1, [r5, #3]
   26936:	1de8      	adds	r0, r5, #7
   26938:	220a      	movs	r2, #10
   2693a:	990c      	ldr	r1, [sp, #48]	@ 0x30
   2693c:	f000 fabf 	bl	26ebe <__aeabi_memcpy>
   26940:	4e7c      	ldr	r6, [pc, #496]	@ (26b34 <_start+0x2c38>)
   26942:	446e      	add	r6, sp
   26944:	4630      	mov	r0, r6
   26946:	4629      	mov	r1, r5
   26948:	f7fb fdfa 	bl	22540 <_ZN18complex_no_dynamic3app17h842d3bde6548817dE>
   2694c:	7830      	ldrb	r0, [r6, #0]
   2694e:	2801      	cmp	r0, #1
   26950:	d100      	bne.n	26954 <_start+0x2a58>
   26952:	e0e3      	b.n	26b1c <_start+0x2c20>
   26954:	4977      	ldr	r1, [pc, #476]	@ (26b34 <_start+0x2c38>)
   26956:	4469      	add	r1, sp
   26958:	78c8      	ldrb	r0, [r1, #3]
   2695a:	4d7d      	ldr	r5, [pc, #500]	@ (26b50 <_start+0x2c54>)
   2695c:	446d      	add	r5, sp
   2695e:	70a8      	strb	r0, [r5, #2]
   26960:	7848      	ldrb	r0, [r1, #1]
   26962:	788a      	ldrb	r2, [r1, #2]
   26964:	0212      	lsls	r2, r2, #8
   26966:	1810      	adds	r0, r2, r0
   26968:	8028      	strh	r0, [r5, #0]
   2696a:	9805      	ldr	r0, [sp, #20]
   2696c:	6e06      	ldr	r6, [r0, #96]	@ 0x60
   2696e:	3108      	adds	r1, #8
   26970:	4871      	ldr	r0, [pc, #452]	@ (26b38 <_start+0x2c3c>)
   26972:	4468      	add	r0, sp
   26974:	900c      	str	r0, [sp, #48]	@ 0x30
   26976:	2249      	movs	r2, #73	@ 0x49
   26978:	920b      	str	r2, [sp, #44]	@ 0x2c
   2697a:	f000 f940 	bl	26bfe <__aeabi_memcpy4>
   2697e:	0e30      	lsrs	r0, r6, #24
   26980:	71a8      	strb	r0, [r5, #6]
   26982:	0c30      	lsrs	r0, r6, #16
   26984:	7168      	strb	r0, [r5, #5]
   26986:	0a30      	lsrs	r0, r6, #8
   26988:	7128      	strb	r0, [r5, #4]
   2698a:	70ee      	strb	r6, [r5, #3]
   2698c:	1de8      	adds	r0, r5, #7
   2698e:	990c      	ldr	r1, [sp, #48]	@ 0x30
   26990:	9a0b      	ldr	r2, [sp, #44]	@ 0x2c
   26992:	f000 fa94 	bl	26ebe <__aeabi_memcpy>
   26996:	4e67      	ldr	r6, [pc, #412]	@ (26b34 <_start+0x2c38>)
   26998:	446e      	add	r6, sp
   2699a:	4630      	mov	r0, r6
   2699c:	4629      	mov	r1, r5
   2699e:	f7fb f82b 	bl	219f8 <_ZN18complex_no_dynamic3app17h68ac22e45b0eba3eE>
   269a2:	7830      	ldrb	r0, [r6, #0]
   269a4:	2801      	cmp	r0, #1
   269a6:	d100      	bne.n	269aa <_start+0x2aae>
   269a8:	e0b8      	b.n	26b1c <_start+0x2c20>
   269aa:	4862      	ldr	r0, [pc, #392]	@ (26b34 <_start+0x2c38>)
   269ac:	4468      	add	r0, sp
   269ae:	78c1      	ldrb	r1, [r0, #3]
   269b0:	4d68      	ldr	r5, [pc, #416]	@ (26b54 <_start+0x2c58>)
   269b2:	446d      	add	r5, sp
   269b4:	70a9      	strb	r1, [r5, #2]
   269b6:	7841      	ldrb	r1, [r0, #1]
   269b8:	7882      	ldrb	r2, [r0, #2]
   269ba:	0212      	lsls	r2, r2, #8
   269bc:	1851      	adds	r1, r2, r1
   269be:	8029      	strh	r1, [r5, #0]
   269c0:	3008      	adds	r0, #8
   269c2:	9905      	ldr	r1, [sp, #20]
   269c4:	6e09      	ldr	r1, [r1, #96]	@ 0x60
   269c6:	910b      	str	r1, [sp, #44]	@ 0x2c
   269c8:	4b5b      	ldr	r3, [pc, #364]	@ (26b38 <_start+0x2c3c>)
   269ca:	446b      	add	r3, sp
   269cc:	930c      	str	r3, [sp, #48]	@ 0x30
   269ce:	c844      	ldmia	r0!, {r2, r6}
   269d0:	c344      	stmia	r3!, {r2, r6}
   269d2:	c846      	ldmia	r0!, {r1, r2, r6}
   269d4:	c346      	stmia	r3!, {r1, r2, r6}
   269d6:	990b      	ldr	r1, [sp, #44]	@ 0x2c
   269d8:	0e08      	lsrs	r0, r1, #24
   269da:	71a8      	strb	r0, [r5, #6]
   269dc:	0c08      	lsrs	r0, r1, #16
   269de:	7168      	strb	r0, [r5, #5]
   269e0:	0a08      	lsrs	r0, r1, #8
   269e2:	7128      	strb	r0, [r5, #4]
   269e4:	70e9      	strb	r1, [r5, #3]
   269e6:	1de8      	adds	r0, r5, #7
   269e8:	2214      	movs	r2, #20
   269ea:	990c      	ldr	r1, [sp, #48]	@ 0x30
   269ec:	f000 fa67 	bl	26ebe <__aeabi_memcpy>
   269f0:	4e50      	ldr	r6, [pc, #320]	@ (26b34 <_start+0x2c38>)
   269f2:	446e      	add	r6, sp
   269f4:	4630      	mov	r0, r6
   269f6:	4629      	mov	r1, r5
   269f8:	f7fb faa6 	bl	21f48 <_ZN18complex_no_dynamic3app17h72f8852c0d6d3640E>
   269fc:	7830      	ldrb	r0, [r6, #0]
   269fe:	2801      	cmp	r0, #1
   26a00:	d100      	bne.n	26a04 <_start+0x2b08>
   26a02:	e08b      	b.n	26b1c <_start+0x2c20>
   26a04:	494b      	ldr	r1, [pc, #300]	@ (26b34 <_start+0x2c38>)
   26a06:	4469      	add	r1, sp
   26a08:	78c8      	ldrb	r0, [r1, #3]
   26a0a:	4d53      	ldr	r5, [pc, #332]	@ (26b58 <_start+0x2c5c>)
   26a0c:	446d      	add	r5, sp
   26a0e:	70a8      	strb	r0, [r5, #2]
   26a10:	7848      	ldrb	r0, [r1, #1]
   26a12:	788a      	ldrb	r2, [r1, #2]
   26a14:	0212      	lsls	r2, r2, #8
   26a16:	1810      	adds	r0, r2, r0
   26a18:	8028      	strh	r0, [r5, #0]
   26a1a:	9805      	ldr	r0, [sp, #20]
   26a1c:	6e06      	ldr	r6, [r0, #96]	@ 0x60
   26a1e:	3108      	adds	r1, #8
   26a20:	4845      	ldr	r0, [pc, #276]	@ (26b38 <_start+0x2c3c>)
   26a22:	4468      	add	r0, sp
   26a24:	900c      	str	r0, [sp, #48]	@ 0x30
   26a26:	225c      	movs	r2, #92	@ 0x5c
   26a28:	920b      	str	r2, [sp, #44]	@ 0x2c
   26a2a:	f000 f8e8 	bl	26bfe <__aeabi_memcpy4>
   26a2e:	0e30      	lsrs	r0, r6, #24
   26a30:	71a8      	strb	r0, [r5, #6]
   26a32:	0c30      	lsrs	r0, r6, #16
   26a34:	7168      	strb	r0, [r5, #5]
   26a36:	0a30      	lsrs	r0, r6, #8
   26a38:	7128      	strb	r0, [r5, #4]
   26a3a:	70ee      	strb	r6, [r5, #3]
   26a3c:	1de8      	adds	r0, r5, #7
   26a3e:	990c      	ldr	r1, [sp, #48]	@ 0x30
   26a40:	9a0b      	ldr	r2, [sp, #44]	@ 0x2c
   26a42:	f000 fa3c 	bl	26ebe <__aeabi_memcpy>
   26a46:	4e3b      	ldr	r6, [pc, #236]	@ (26b34 <_start+0x2c38>)
   26a48:	446e      	add	r6, sp
   26a4a:	4630      	mov	r0, r6
   26a4c:	4629      	mov	r1, r5
   26a4e:	f7fc fc5d 	bl	2330c <_ZN18complex_no_dynamic3app17hc7fd27edbcf6f0b1E>
   26a52:	7830      	ldrb	r0, [r6, #0]
   26a54:	2801      	cmp	r0, #1
   26a56:	d061      	beq.n	26b1c <_start+0x2c20>
   26a58:	4836      	ldr	r0, [pc, #216]	@ (26b34 <_start+0x2c38>)
   26a5a:	4468      	add	r0, sp
   26a5c:	78c1      	ldrb	r1, [r0, #3]
   26a5e:	4d3f      	ldr	r5, [pc, #252]	@ (26b5c <_start+0x2c60>)
   26a60:	446d      	add	r5, sp
   26a62:	70a9      	strb	r1, [r5, #2]
   26a64:	7841      	ldrb	r1, [r0, #1]
   26a66:	7882      	ldrb	r2, [r0, #2]
   26a68:	0212      	lsls	r2, r2, #8
   26a6a:	1851      	adds	r1, r2, r1
   26a6c:	8029      	strh	r1, [r5, #0]
   26a6e:	3008      	adds	r0, #8
   26a70:	9905      	ldr	r1, [sp, #20]
   26a72:	6e09      	ldr	r1, [r1, #96]	@ 0x60
   26a74:	910b      	str	r1, [sp, #44]	@ 0x2c
   26a76:	4b30      	ldr	r3, [pc, #192]	@ (26b38 <_start+0x2c3c>)
   26a78:	446b      	add	r3, sp
   26a7a:	930c      	str	r3, [sp, #48]	@ 0x30
   26a7c:	c846      	ldmia	r0!, {r1, r2, r6}
   26a7e:	c346      	stmia	r3!, {r1, r2, r6}
   26a80:	c846      	ldmia	r0!, {r1, r2, r6}
   26a82:	c346      	stmia	r3!, {r1, r2, r6}
   26a84:	c846      	ldmia	r0!, {r1, r2, r6}
   26a86:	c346      	stmia	r3!, {r1, r2, r6}
   26a88:	7800      	ldrb	r0, [r0, #0]
   26a8a:	7018      	strb	r0, [r3, #0]
   26a8c:	990b      	ldr	r1, [sp, #44]	@ 0x2c
   26a8e:	0e08      	lsrs	r0, r1, #24
   26a90:	71a8      	strb	r0, [r5, #6]
   26a92:	0c08      	lsrs	r0, r1, #16
   26a94:	7168      	strb	r0, [r5, #5]
   26a96:	0a08      	lsrs	r0, r1, #8
   26a98:	7128      	strb	r0, [r5, #4]
   26a9a:	70e9      	strb	r1, [r5, #3]
   26a9c:	1de8      	adds	r0, r5, #7
   26a9e:	2225      	movs	r2, #37	@ 0x25
   26aa0:	990c      	ldr	r1, [sp, #48]	@ 0x30
   26aa2:	f000 fa0c 	bl	26ebe <__aeabi_memcpy>
   26aa6:	4e23      	ldr	r6, [pc, #140]	@ (26b34 <_start+0x2c38>)
   26aa8:	446e      	add	r6, sp
   26aaa:	4630      	mov	r0, r6
   26aac:	4629      	mov	r1, r5
   26aae:	f7f9 ff0d 	bl	208cc <_ZN18complex_no_dynamic3app17h1ea5cb6cd0487121E>
   26ab2:	7830      	ldrb	r0, [r6, #0]
   26ab4:	2801      	cmp	r0, #1
   26ab6:	d031      	beq.n	26b1c <_start+0x2c20>
   26ab8:	481e      	ldr	r0, [pc, #120]	@ (26b34 <_start+0x2c38>)
   26aba:	4468      	add	r0, sp
   26abc:	78c1      	ldrb	r1, [r0, #3]
   26abe:	4b28      	ldr	r3, [pc, #160]	@ (26b60 <_start+0x2c64>)
   26ac0:	446b      	add	r3, sp
   26ac2:	930b      	str	r3, [sp, #44]	@ 0x2c
   26ac4:	7099      	strb	r1, [r3, #2]
   26ac6:	7841      	ldrb	r1, [r0, #1]
   26ac8:	7882      	ldrb	r2, [r0, #2]
   26aca:	0212      	lsls	r2, r2, #8
   26acc:	1851      	adds	r1, r2, r1
   26ace:	8019      	strh	r1, [r3, #0]
   26ad0:	3008      	adds	r0, #8
   26ad2:	9905      	ldr	r1, [sp, #20]
   26ad4:	6e09      	ldr	r1, [r1, #96]	@ 0x60
   26ad6:	910a      	str	r1, [sp, #40]	@ 0x28
   26ad8:	4b17      	ldr	r3, [pc, #92]	@ (26b38 <_start+0x2c3c>)
   26ada:	446b      	add	r3, sp
   26adc:	930c      	str	r3, [sp, #48]	@ 0x30
   26ade:	c866      	ldmia	r0!, {r1, r2, r5, r6}
   26ae0:	c366      	stmia	r3!, {r1, r2, r5, r6}
   26ae2:	c866      	ldmia	r0!, {r1, r2, r5, r6}
   26ae4:	c366      	stmia	r3!, {r1, r2, r5, r6}
   26ae6:	8801      	ldrh	r1, [r0, #0]
   26ae8:	8019      	strh	r1, [r3, #0]
   26aea:	7880      	ldrb	r0, [r0, #2]
   26aec:	7098      	strb	r0, [r3, #2]
   26aee:	990a      	ldr	r1, [sp, #40]	@ 0x28
   26af0:	0e08      	lsrs	r0, r1, #24
   26af2:	9d0b      	ldr	r5, [sp, #44]	@ 0x2c
   26af4:	71a8      	strb	r0, [r5, #6]
   26af6:	0c08      	lsrs	r0, r1, #16
   26af8:	7168      	strb	r0, [r5, #5]
   26afa:	0a08      	lsrs	r0, r1, #8
   26afc:	7128      	strb	r0, [r5, #4]
   26afe:	70e9      	strb	r1, [r5, #3]
   26b00:	1de8      	adds	r0, r5, #7
   26b02:	2223      	movs	r2, #35	@ 0x23
   26b04:	990c      	ldr	r1, [sp, #48]	@ 0x30
   26b06:	f000 f9da 	bl	26ebe <__aeabi_memcpy>
   26b0a:	4e0a      	ldr	r6, [pc, #40]	@ (26b34 <_start+0x2c38>)
   26b0c:	446e      	add	r6, sp
   26b0e:	4630      	mov	r0, r6
   26b10:	4629      	mov	r1, r5
   26b12:	f7fa fe71 	bl	217f8 <_ZN18complex_no_dynamic3app17h56b1e20fb9ee6486E>
   26b16:	7830      	ldrb	r0, [r6, #0]
   26b18:	2801      	cmp	r0, #1
   26b1a:	d107      	bne.n	26b2c <_start+0x2c30>
   26b1c:	9805      	ldr	r0, [sp, #20]
   26b1e:	6e00      	ldr	r0, [r0, #96]	@ 0x60
   26b20:	900c      	str	r0, [sp, #48]	@ 0x30
   26b22:	f7fd fa26 	bl	23f72 <_start+0x76>
   26b26:	46c0      	nop			@ (mov r8, r8)
   26b28:	000013cc 	.word	0x000013cc
   26b2c:	f7fd fa22 	bl	23f74 <_start+0x78>
   26b30:	000011c0 	.word	0x000011c0
   26b34:	000013cc 	.word	0x000013cc
   26b38:	00001370 	.word	0x00001370
   26b3c:	000011e4 	.word	0x000011e4
   26b40:	00001208 	.word	0x00001208
   26b44:	00001238 	.word	0x00001238
   26b48:	00001298 	.word	0x00001298
   26b4c:	000012f0 	.word	0x000012f0
   26b50:	00001304 	.word	0x00001304
   26b54:	00001354 	.word	0x00001354
   26b58:	00001430 	.word	0x00001430
   26b5c:	00001494 	.word	0x00001494
   26b60:	000014c0 	.word	0x000014c0

00026b64 <__aeabi_memclr4>:
   26b64:	b5f0      	push	{r4, r5, r6, r7, lr}
   26b66:	af03      	add	r7, sp, #12
   26b68:	2904      	cmp	r1, #4
   26b6a:	d311      	bcc.n	26b90 <__aeabi_memclr4+0x2c>
   26b6c:	1f0c      	subs	r4, r1, #4
   26b6e:	250c      	movs	r5, #12
   26b70:	4025      	ands	r5, r4
   26b72:	2d0c      	cmp	r5, #12
   26b74:	d012      	beq.n	26b9c <__aeabi_memclr4+0x38>
   26b76:	2600      	movs	r6, #0
   26b78:	4602      	mov	r2, r0
   26b7a:	c240      	stmia	r2!, {r6}
   26b7c:	0723      	lsls	r3, r4, #28
   26b7e:	0f9b      	lsrs	r3, r3, #30
   26b80:	4623      	mov	r3, r4
   26b82:	d00d      	beq.n	26ba0 <__aeabi_memclr4+0x3c>
   26b84:	6046      	str	r6, [r0, #4]
   26b86:	2d04      	cmp	r5, #4
   26b88:	d105      	bne.n	26b96 <__aeabi_memclr4+0x32>
   26b8a:	3908      	subs	r1, #8
   26b8c:	3008      	adds	r0, #8
   26b8e:	e005      	b.n	26b9c <__aeabi_memclr4+0x38>
   26b90:	460b      	mov	r3, r1
   26b92:	4602      	mov	r2, r0
   26b94:	e00f      	b.n	26bb6 <__aeabi_memclr4+0x52>
   26b96:	6086      	str	r6, [r0, #8]
   26b98:	390c      	subs	r1, #12
   26b9a:	300c      	adds	r0, #12
   26b9c:	4602      	mov	r2, r0
   26b9e:	460b      	mov	r3, r1
   26ba0:	2c0c      	cmp	r4, #12
   26ba2:	d308      	bcc.n	26bb6 <__aeabi_memclr4+0x52>
   26ba4:	2000      	movs	r0, #0
   26ba6:	6010      	str	r0, [r2, #0]
   26ba8:	6050      	str	r0, [r2, #4]
   26baa:	6090      	str	r0, [r2, #8]
   26bac:	60d0      	str	r0, [r2, #12]
   26bae:	3210      	adds	r2, #16
   26bb0:	3b10      	subs	r3, #16
   26bb2:	2b03      	cmp	r3, #3
   26bb4:	d8f6      	bhi.n	26ba4 <__aeabi_memclr4+0x40>
   26bb6:	18d0      	adds	r0, r2, r3
   26bb8:	4282      	cmp	r2, r0
   26bba:	d21a      	bcs.n	26bf2 <__aeabi_memclr4+0x8e>
   26bbc:	2403      	movs	r4, #3
   26bbe:	401c      	ands	r4, r3
   26bc0:	1e59      	subs	r1, r3, #1
   26bc2:	2c00      	cmp	r4, #0
   26bc4:	d00b      	beq.n	26bde <__aeabi_memclr4+0x7a>
   26bc6:	2300      	movs	r3, #0
   26bc8:	7013      	strb	r3, [r2, #0]
   26bca:	2c01      	cmp	r4, #1
   26bcc:	d103      	bne.n	26bd6 <__aeabi_memclr4+0x72>
   26bce:	1c52      	adds	r2, r2, #1
   26bd0:	2903      	cmp	r1, #3
   26bd2:	d206      	bcs.n	26be2 <__aeabi_memclr4+0x7e>
   26bd4:	e00d      	b.n	26bf2 <__aeabi_memclr4+0x8e>
   26bd6:	7053      	strb	r3, [r2, #1]
   26bd8:	2c02      	cmp	r4, #2
   26bda:	d10b      	bne.n	26bf4 <__aeabi_memclr4+0x90>
   26bdc:	1c92      	adds	r2, r2, #2
   26bde:	2903      	cmp	r1, #3
   26be0:	d307      	bcc.n	26bf2 <__aeabi_memclr4+0x8e>
   26be2:	2100      	movs	r1, #0
   26be4:	70d1      	strb	r1, [r2, #3]
   26be6:	7091      	strb	r1, [r2, #2]
   26be8:	7051      	strb	r1, [r2, #1]
   26bea:	7011      	strb	r1, [r2, #0]
   26bec:	1d12      	adds	r2, r2, #4
   26bee:	4282      	cmp	r2, r0
   26bf0:	d1f7      	bne.n	26be2 <__aeabi_memclr4+0x7e>
   26bf2:	bdf0      	pop	{r4, r5, r6, r7, pc}
   26bf4:	7093      	strb	r3, [r2, #2]
   26bf6:	1cd2      	adds	r2, r2, #3
   26bf8:	2903      	cmp	r1, #3
   26bfa:	d2f2      	bcs.n	26be2 <__aeabi_memclr4+0x7e>
   26bfc:	e7f9      	b.n	26bf2 <__aeabi_memclr4+0x8e>

00026bfe <__aeabi_memcpy4>:
   26bfe:	b5f0      	push	{r4, r5, r6, r7, lr}
   26c00:	af03      	add	r7, sp, #12
   26c02:	b081      	sub	sp, #4
   26c04:	2a04      	cmp	r2, #4
   26c06:	d32d      	bcc.n	26c64 <__aeabi_memcpy4+0x66>
   26c08:	1f13      	subs	r3, r2, #4
   26c0a:	250c      	movs	r5, #12
   26c0c:	401d      	ands	r5, r3
   26c0e:	2d0c      	cmp	r5, #12
   26c10:	d019      	beq.n	26c46 <__aeabi_memcpy4+0x48>
   26c12:	9200      	str	r2, [sp, #0]
   26c14:	460e      	mov	r6, r1
   26c16:	c904      	ldmia	r1!, {r2}
   26c18:	4604      	mov	r4, r0
   26c1a:	c004      	stmia	r0!, {r2}
   26c1c:	071a      	lsls	r2, r3, #28
   26c1e:	0f92      	lsrs	r2, r2, #30
   26c20:	461a      	mov	r2, r3
   26c22:	d010      	beq.n	26c46 <__aeabi_memcpy4+0x48>
   26c24:	4631      	mov	r1, r6
   26c26:	6872      	ldr	r2, [r6, #4]
   26c28:	6062      	str	r2, [r4, #4]
   26c2a:	2d04      	cmp	r5, #4
   26c2c:	d104      	bne.n	26c38 <__aeabi_memcpy4+0x3a>
   26c2e:	9a00      	ldr	r2, [sp, #0]
   26c30:	3a08      	subs	r2, #8
   26c32:	3108      	adds	r1, #8
   26c34:	3408      	adds	r4, #8
   26c36:	e005      	b.n	26c44 <__aeabi_memcpy4+0x46>
   26c38:	688a      	ldr	r2, [r1, #8]
   26c3a:	60a2      	str	r2, [r4, #8]
   26c3c:	9a00      	ldr	r2, [sp, #0]
   26c3e:	3a0c      	subs	r2, #12
   26c40:	310c      	adds	r1, #12
   26c42:	340c      	adds	r4, #12
   26c44:	4620      	mov	r0, r4
   26c46:	2b0c      	cmp	r3, #12
   26c48:	d30c      	bcc.n	26c64 <__aeabi_memcpy4+0x66>
   26c4a:	680b      	ldr	r3, [r1, #0]
   26c4c:	6003      	str	r3, [r0, #0]
   26c4e:	684b      	ldr	r3, [r1, #4]
   26c50:	6043      	str	r3, [r0, #4]
   26c52:	688b      	ldr	r3, [r1, #8]
   26c54:	6083      	str	r3, [r0, #8]
   26c56:	68cb      	ldr	r3, [r1, #12]
   26c58:	60c3      	str	r3, [r0, #12]
   26c5a:	3110      	adds	r1, #16
   26c5c:	3010      	adds	r0, #16
   26c5e:	3a10      	subs	r2, #16
   26c60:	2a03      	cmp	r2, #3
   26c62:	d8f2      	bhi.n	26c4a <__aeabi_memcpy4+0x4c>
   26c64:	f000 f802 	bl	26c6c <_ZN17compiler_builtins3mem6memcpy17h1f9dbb1c3fd18e2fE>
   26c68:	b001      	add	sp, #4
   26c6a:	bdf0      	pop	{r4, r5, r6, r7, pc}

00026c6c <_ZN17compiler_builtins3mem6memcpy17h1f9dbb1c3fd18e2fE>:
   26c6c:	b5f0      	push	{r4, r5, r6, r7, lr}
   26c6e:	af03      	add	r7, sp, #12
   26c70:	b08f      	sub	sp, #60	@ 0x3c
   26c72:	2a10      	cmp	r2, #16
   26c74:	d315      	bcc.n	26ca2 <_ZN17compiler_builtins3mem6memcpy17h1f9dbb1c3fd18e2fE+0x36>
   26c76:	920b      	str	r2, [sp, #44]	@ 0x2c
   26c78:	4242      	negs	r2, r0
   26c7a:	2303      	movs	r3, #3
   26c7c:	9308      	str	r3, [sp, #32]
   26c7e:	401a      	ands	r2, r3
   26c80:	1885      	adds	r5, r0, r2
   26c82:	900a      	str	r0, [sp, #40]	@ 0x28
   26c84:	42a8      	cmp	r0, r5
   26c86:	d22a      	bcs.n	26cde <_ZN17compiler_builtins3mem6memcpy17h1f9dbb1c3fd18e2fE+0x72>
   26c88:	1e54      	subs	r4, r2, #1
   26c8a:	2a00      	cmp	r2, #0
   26c8c:	980a      	ldr	r0, [sp, #40]	@ 0x28
   26c8e:	4606      	mov	r6, r0
   26c90:	460b      	mov	r3, r1
   26c92:	d016      	beq.n	26cc2 <_ZN17compiler_builtins3mem6memcpy17h1f9dbb1c3fd18e2fE+0x56>
   26c94:	780b      	ldrb	r3, [r1, #0]
   26c96:	7003      	strb	r3, [r0, #0]
   26c98:	2a01      	cmp	r2, #1
   26c9a:	d107      	bne.n	26cac <_ZN17compiler_builtins3mem6memcpy17h1f9dbb1c3fd18e2fE+0x40>
   26c9c:	1c4b      	adds	r3, r1, #1
   26c9e:	1c46      	adds	r6, r0, #1
   26ca0:	e00f      	b.n	26cc2 <_ZN17compiler_builtins3mem6memcpy17h1f9dbb1c3fd18e2fE+0x56>
   26ca2:	4603      	mov	r3, r0
   26ca4:	189c      	adds	r4, r3, r2
   26ca6:	42a3      	cmp	r3, r4
   26ca8:	d341      	bcc.n	26d2e <_ZN17compiler_builtins3mem6memcpy17h1f9dbb1c3fd18e2fE+0xc2>
   26caa:	e062      	b.n	26d72 <_ZN17compiler_builtins3mem6memcpy17h1f9dbb1c3fd18e2fE+0x106>
   26cac:	784b      	ldrb	r3, [r1, #1]
   26cae:	7043      	strb	r3, [r0, #1]
   26cb0:	2a02      	cmp	r2, #2
   26cb2:	d102      	bne.n	26cba <_ZN17compiler_builtins3mem6memcpy17h1f9dbb1c3fd18e2fE+0x4e>
   26cb4:	1c8b      	adds	r3, r1, #2
   26cb6:	1c86      	adds	r6, r0, #2
   26cb8:	e003      	b.n	26cc2 <_ZN17compiler_builtins3mem6memcpy17h1f9dbb1c3fd18e2fE+0x56>
   26cba:	788b      	ldrb	r3, [r1, #2]
   26cbc:	7083      	strb	r3, [r0, #2]
   26cbe:	1ccb      	adds	r3, r1, #3
   26cc0:	1cc6      	adds	r6, r0, #3
   26cc2:	2c03      	cmp	r4, #3
   26cc4:	d30b      	bcc.n	26cde <_ZN17compiler_builtins3mem6memcpy17h1f9dbb1c3fd18e2fE+0x72>
   26cc6:	781c      	ldrb	r4, [r3, #0]
   26cc8:	7034      	strb	r4, [r6, #0]
   26cca:	785c      	ldrb	r4, [r3, #1]
   26ccc:	7074      	strb	r4, [r6, #1]
   26cce:	789c      	ldrb	r4, [r3, #2]
   26cd0:	70b4      	strb	r4, [r6, #2]
   26cd2:	78dc      	ldrb	r4, [r3, #3]
   26cd4:	70f4      	strb	r4, [r6, #3]
   26cd6:	1d1b      	adds	r3, r3, #4
   26cd8:	1d36      	adds	r6, r6, #4
   26cda:	42ae      	cmp	r6, r5
   26cdc:	d1f3      	bne.n	26cc6 <_ZN17compiler_builtins3mem6memcpy17h1f9dbb1c3fd18e2fE+0x5a>
   26cde:	980b      	ldr	r0, [sp, #44]	@ 0x2c
   26ce0:	1a80      	subs	r0, r0, r2
   26ce2:	900b      	str	r0, [sp, #44]	@ 0x2c
   26ce4:	9c08      	ldr	r4, [sp, #32]
   26ce6:	43a0      	bics	r0, r4
   26ce8:	182b      	adds	r3, r5, r0
   26cea:	188e      	adds	r6, r1, r2
   26cec:	9609      	str	r6, [sp, #36]	@ 0x24
   26cee:	4026      	ands	r6, r4
   26cf0:	9007      	str	r0, [sp, #28]
   26cf2:	d147      	bne.n	26d84 <_ZN17compiler_builtins3mem6memcpy17h1f9dbb1c3fd18e2fE+0x118>
   26cf4:	429d      	cmp	r5, r3
   26cf6:	9a0b      	ldr	r2, [sp, #44]	@ 0x2c
   26cf8:	9e09      	ldr	r6, [sp, #36]	@ 0x24
   26cfa:	d211      	bcs.n	26d20 <_ZN17compiler_builtins3mem6memcpy17h1f9dbb1c3fd18e2fE+0xb4>
   26cfc:	4631      	mov	r1, r6
   26cfe:	6808      	ldr	r0, [r1, #0]
   26d00:	c501      	stmia	r5!, {r0}
   26d02:	429d      	cmp	r5, r3
   26d04:	d20c      	bcs.n	26d20 <_ZN17compiler_builtins3mem6memcpy17h1f9dbb1c3fd18e2fE+0xb4>
   26d06:	6848      	ldr	r0, [r1, #4]
   26d08:	c501      	stmia	r5!, {r0}
   26d0a:	429d      	cmp	r5, r3
   26d0c:	d208      	bcs.n	26d20 <_ZN17compiler_builtins3mem6memcpy17h1f9dbb1c3fd18e2fE+0xb4>
   26d0e:	6888      	ldr	r0, [r1, #8]
   26d10:	c501      	stmia	r5!, {r0}
   26d12:	429d      	cmp	r5, r3
   26d14:	d204      	bcs.n	26d20 <_ZN17compiler_builtins3mem6memcpy17h1f9dbb1c3fd18e2fE+0xb4>
   26d16:	68c8      	ldr	r0, [r1, #12]
   26d18:	c501      	stmia	r5!, {r0}
   26d1a:	3110      	adds	r1, #16
   26d1c:	429d      	cmp	r5, r3
   26d1e:	d3ee      	bcc.n	26cfe <_ZN17compiler_builtins3mem6memcpy17h1f9dbb1c3fd18e2fE+0x92>
   26d20:	4022      	ands	r2, r4
   26d22:	9807      	ldr	r0, [sp, #28]
   26d24:	1831      	adds	r1, r6, r0
   26d26:	980a      	ldr	r0, [sp, #40]	@ 0x28
   26d28:	189c      	adds	r4, r3, r2
   26d2a:	42a3      	cmp	r3, r4
   26d2c:	d221      	bcs.n	26d72 <_ZN17compiler_builtins3mem6memcpy17h1f9dbb1c3fd18e2fE+0x106>
   26d2e:	2503      	movs	r5, #3
   26d30:	4015      	ands	r5, r2
   26d32:	1e52      	subs	r2, r2, #1
   26d34:	2d00      	cmp	r5, #0
   26d36:	d00e      	beq.n	26d56 <_ZN17compiler_builtins3mem6memcpy17h1f9dbb1c3fd18e2fE+0xea>
   26d38:	780e      	ldrb	r6, [r1, #0]
   26d3a:	701e      	strb	r6, [r3, #0]
   26d3c:	2d01      	cmp	r5, #1
   26d3e:	d104      	bne.n	26d4a <_ZN17compiler_builtins3mem6memcpy17h1f9dbb1c3fd18e2fE+0xde>
   26d40:	1c49      	adds	r1, r1, #1
   26d42:	1c5b      	adds	r3, r3, #1
   26d44:	2a03      	cmp	r2, #3
   26d46:	d208      	bcs.n	26d5a <_ZN17compiler_builtins3mem6memcpy17h1f9dbb1c3fd18e2fE+0xee>
   26d48:	e013      	b.n	26d72 <_ZN17compiler_builtins3mem6memcpy17h1f9dbb1c3fd18e2fE+0x106>
   26d4a:	784e      	ldrb	r6, [r1, #1]
   26d4c:	705e      	strb	r6, [r3, #1]
   26d4e:	2d02      	cmp	r5, #2
   26d50:	d111      	bne.n	26d76 <_ZN17compiler_builtins3mem6memcpy17h1f9dbb1c3fd18e2fE+0x10a>
   26d52:	1c89      	adds	r1, r1, #2
   26d54:	1c9b      	adds	r3, r3, #2
   26d56:	2a03      	cmp	r2, #3
   26d58:	d30b      	bcc.n	26d72 <_ZN17compiler_builtins3mem6memcpy17h1f9dbb1c3fd18e2fE+0x106>
   26d5a:	780a      	ldrb	r2, [r1, #0]
   26d5c:	701a      	strb	r2, [r3, #0]
   26d5e:	784a      	ldrb	r2, [r1, #1]
   26d60:	705a      	strb	r2, [r3, #1]
   26d62:	788a      	ldrb	r2, [r1, #2]
   26d64:	709a      	strb	r2, [r3, #2]
   26d66:	78ca      	ldrb	r2, [r1, #3]
   26d68:	70da      	strb	r2, [r3, #3]
   26d6a:	1d09      	adds	r1, r1, #4
   26d6c:	1d1b      	adds	r3, r3, #4
   26d6e:	42a3      	cmp	r3, r4
   26d70:	d1f3      	bne.n	26d5a <_ZN17compiler_builtins3mem6memcpy17h1f9dbb1c3fd18e2fE+0xee>
   26d72:	b00f      	add	sp, #60	@ 0x3c
   26d74:	bdf0      	pop	{r4, r5, r6, r7, pc}
   26d76:	788d      	ldrb	r5, [r1, #2]
   26d78:	709d      	strb	r5, [r3, #2]
   26d7a:	1cc9      	adds	r1, r1, #3
   26d7c:	1cdb      	adds	r3, r3, #3
   26d7e:	2a03      	cmp	r2, #3
   26d80:	d2eb      	bcs.n	26d5a <_ZN17compiler_builtins3mem6memcpy17h1f9dbb1c3fd18e2fE+0xee>
   26d82:	e7f6      	b.n	26d72 <_ZN17compiler_builtins3mem6memcpy17h1f9dbb1c3fd18e2fE+0x106>
   26d84:	2400      	movs	r4, #0
   26d86:	9406      	str	r4, [sp, #24]
   26d88:	940e      	str	r4, [sp, #56]	@ 0x38
   26d8a:	ac0e      	add	r4, sp, #56	@ 0x38
   26d8c:	19a4      	adds	r4, r4, r6
   26d8e:	9405      	str	r4, [sp, #20]
   26d90:	2404      	movs	r4, #4
   26d92:	1ba4      	subs	r4, r4, r6
   26d94:	9404      	str	r4, [sp, #16]
   26d96:	07e4      	lsls	r4, r4, #31
   26d98:	9600      	str	r6, [sp, #0]
   26d9a:	d006      	beq.n	26daa <_ZN17compiler_builtins3mem6memcpy17h1f9dbb1c3fd18e2fE+0x13e>
   26d9c:	9c09      	ldr	r4, [sp, #36]	@ 0x24
   26d9e:	7824      	ldrb	r4, [r4, #0]
   26da0:	9e05      	ldr	r6, [sp, #20]
   26da2:	7034      	strb	r4, [r6, #0]
   26da4:	9e00      	ldr	r6, [sp, #0]
   26da6:	2401      	movs	r4, #1
   26da8:	9406      	str	r4, [sp, #24]
   26daa:	9c04      	ldr	r4, [sp, #16]
   26dac:	07a4      	lsls	r4, r4, #30
   26dae:	d508      	bpl.n	26dc2 <_ZN17compiler_builtins3mem6memcpy17h1f9dbb1c3fd18e2fE+0x156>
   26db0:	9c09      	ldr	r4, [sp, #36]	@ 0x24
   26db2:	9204      	str	r2, [sp, #16]
   26db4:	9a06      	ldr	r2, [sp, #24]
   26db6:	5aa4      	ldrh	r4, [r4, r2]
   26db8:	9e05      	ldr	r6, [sp, #20]
   26dba:	9a06      	ldr	r2, [sp, #24]
   26dbc:	52b4      	strh	r4, [r6, r2]
   26dbe:	9a04      	ldr	r2, [sp, #16]
   26dc0:	9e00      	ldr	r6, [sp, #0]
   26dc2:	00f4      	lsls	r4, r6, #3
   26dc4:	9403      	str	r4, [sp, #12]
   26dc6:	9c0e      	ldr	r4, [sp, #56]	@ 0x38
   26dc8:	9406      	str	r4, [sp, #24]
   26dca:	1d2c      	adds	r4, r5, #4
   26dcc:	429c      	cmp	r4, r3
   26dce:	d236      	bcs.n	26e3e <_ZN17compiler_builtins3mem6memcpy17h1f9dbb1c3fd18e2fE+0x1d2>
   26dd0:	4274      	negs	r4, r6
   26dd2:	1909      	adds	r1, r1, r4
   26dd4:	9105      	str	r1, [sp, #20]
   26dd6:	9d03      	ldr	r5, [sp, #12]
   26dd8:	4269      	negs	r1, r5
   26dda:	2418      	movs	r4, #24
   26ddc:	400c      	ands	r4, r1
   26dde:	9402      	str	r4, [sp, #8]
   26de0:	990a      	ldr	r1, [sp, #40]	@ 0x28
   26de2:	9104      	str	r1, [sp, #16]
   26de4:	4629      	mov	r1, r5
   26de6:	9c06      	ldr	r4, [sp, #24]
   26de8:	40cc      	lsrs	r4, r1
   26dea:	9406      	str	r4, [sp, #24]
   26dec:	9905      	ldr	r1, [sp, #20]
   26dee:	1889      	adds	r1, r1, r2
   26df0:	9101      	str	r1, [sp, #4]
   26df2:	6849      	ldr	r1, [r1, #4]
   26df4:	460c      	mov	r4, r1
   26df6:	9d02      	ldr	r5, [sp, #8]
   26df8:	40ac      	lsls	r4, r5
   26dfa:	9d06      	ldr	r5, [sp, #24]
   26dfc:	432c      	orrs	r4, r5
   26dfe:	9d04      	ldr	r5, [sp, #16]
   26e00:	50ac      	str	r4, [r5, r2]
   26e02:	18ad      	adds	r5, r5, r2
   26e04:	462c      	mov	r4, r5
   26e06:	3408      	adds	r4, #8
   26e08:	429c      	cmp	r4, r3
   26e0a:	d21c      	bcs.n	26e46 <_ZN17compiler_builtins3mem6memcpy17h1f9dbb1c3fd18e2fE+0x1da>
   26e0c:	9c03      	ldr	r4, [sp, #12]
   26e0e:	40e1      	lsrs	r1, r4
   26e10:	9c01      	ldr	r4, [sp, #4]
   26e12:	68a4      	ldr	r4, [r4, #8]
   26e14:	9406      	str	r4, [sp, #24]
   26e16:	9501      	str	r5, [sp, #4]
   26e18:	9d02      	ldr	r5, [sp, #8]
   26e1a:	40ac      	lsls	r4, r5
   26e1c:	430c      	orrs	r4, r1
   26e1e:	9901      	ldr	r1, [sp, #4]
   26e20:	604c      	str	r4, [r1, #4]
   26e22:	9904      	ldr	r1, [sp, #16]
   26e24:	3108      	adds	r1, #8
   26e26:	9104      	str	r1, [sp, #16]
   26e28:	188d      	adds	r5, r1, r2
   26e2a:	1d29      	adds	r1, r5, #4
   26e2c:	9c05      	ldr	r4, [sp, #20]
   26e2e:	3408      	adds	r4, #8
   26e30:	9405      	str	r4, [sp, #20]
   26e32:	4299      	cmp	r1, r3
   26e34:	9903      	ldr	r1, [sp, #12]
   26e36:	d3d6      	bcc.n	26de6 <_ZN17compiler_builtins3mem6memcpy17h1f9dbb1c3fd18e2fE+0x17a>
   26e38:	9805      	ldr	r0, [sp, #20]
   26e3a:	1880      	adds	r0, r0, r2
   26e3c:	e001      	b.n	26e42 <_ZN17compiler_builtins3mem6memcpy17h1f9dbb1c3fd18e2fE+0x1d6>
   26e3e:	9809      	ldr	r0, [sp, #36]	@ 0x24
   26e40:	1b80      	subs	r0, r0, r6
   26e42:	9005      	str	r0, [sp, #20]
   26e44:	e004      	b.n	26e50 <_ZN17compiler_builtins3mem6memcpy17h1f9dbb1c3fd18e2fE+0x1e4>
   26e46:	9801      	ldr	r0, [sp, #4]
   26e48:	1d00      	adds	r0, r0, #4
   26e4a:	9005      	str	r0, [sp, #20]
   26e4c:	1d2d      	adds	r5, r5, #4
   26e4e:	9106      	str	r1, [sp, #24]
   26e50:	a80d      	add	r0, sp, #52	@ 0x34
   26e52:	2100      	movs	r1, #0
   26e54:	9004      	str	r0, [sp, #16]
   26e56:	7001      	strb	r1, [r0, #0]
   26e58:	a80c      	add	r0, sp, #48	@ 0x30
   26e5a:	7001      	strb	r1, [r0, #0]
   26e5c:	2e01      	cmp	r6, #1
   26e5e:	460e      	mov	r6, r1
   26e60:	460c      	mov	r4, r1
   26e62:	9102      	str	r1, [sp, #8]
   26e64:	9a0b      	ldr	r2, [sp, #44]	@ 0x2c
   26e66:	d009      	beq.n	26e7c <_ZN17compiler_builtins3mem6memcpy17h1f9dbb1c3fd18e2fE+0x210>
   26e68:	9c05      	ldr	r4, [sp, #20]
   26e6a:	7960      	ldrb	r0, [r4, #5]
   26e6c:	7926      	ldrb	r6, [r4, #4]
   26e6e:	ac0d      	add	r4, sp, #52	@ 0x34
   26e70:	7026      	strb	r6, [r4, #0]
   26e72:	0204      	lsls	r4, r0, #8
   26e74:	2002      	movs	r0, #2
   26e76:	9002      	str	r0, [sp, #8]
   26e78:	a80c      	add	r0, sp, #48	@ 0x30
   26e7a:	9004      	str	r0, [sp, #16]
   26e7c:	9809      	ldr	r0, [sp, #36]	@ 0x24
   26e7e:	07c0      	lsls	r0, r0, #31
   26e80:	d00a      	beq.n	26e98 <_ZN17compiler_builtins3mem6memcpy17h1f9dbb1c3fd18e2fE+0x22c>
   26e82:	9805      	ldr	r0, [sp, #20]
   26e84:	1d00      	adds	r0, r0, #4
   26e86:	9902      	ldr	r1, [sp, #8]
   26e88:	5c40      	ldrb	r0, [r0, r1]
   26e8a:	9904      	ldr	r1, [sp, #16]
   26e8c:	7008      	strb	r0, [r1, #0]
   26e8e:	a80d      	add	r0, sp, #52	@ 0x34
   26e90:	7806      	ldrb	r6, [r0, #0]
   26e92:	a80c      	add	r0, sp, #48	@ 0x30
   26e94:	7800      	ldrb	r0, [r0, #0]
   26e96:	0401      	lsls	r1, r0, #16
   26e98:	9605      	str	r6, [sp, #20]
   26e9a:	9803      	ldr	r0, [sp, #12]
   26e9c:	4240      	negs	r0, r0
   26e9e:	9004      	str	r0, [sp, #16]
   26ea0:	2618      	movs	r6, #24
   26ea2:	9804      	ldr	r0, [sp, #16]
   26ea4:	4006      	ands	r6, r0
   26ea6:	430c      	orrs	r4, r1
   26ea8:	9905      	ldr	r1, [sp, #20]
   26eaa:	430c      	orrs	r4, r1
   26eac:	40b4      	lsls	r4, r6
   26eae:	9906      	ldr	r1, [sp, #24]
   26eb0:	9803      	ldr	r0, [sp, #12]
   26eb2:	40c1      	lsrs	r1, r0
   26eb4:	4321      	orrs	r1, r4
   26eb6:	6029      	str	r1, [r5, #0]
   26eb8:	9c08      	ldr	r4, [sp, #32]
   26eba:	9e09      	ldr	r6, [sp, #36]	@ 0x24
   26ebc:	e730      	b.n	26d20 <_ZN17compiler_builtins3mem6memcpy17h1f9dbb1c3fd18e2fE+0xb4>

00026ebe <__aeabi_memcpy>:
   26ebe:	b580      	push	{r7, lr}
   26ec0:	af00      	add	r7, sp, #0
   26ec2:	f7ff fed3 	bl	26c6c <_ZN17compiler_builtins3mem6memcpy17h1f9dbb1c3fd18e2fE>
   26ec6:	bd80      	pop	{r7, pc}
