
target/thumbv6m-none-eabi/opt-s/examples/complex_dynamic_type:     file format elf32-littlearm

Sections:
Idx Name          Size      VMA       LMA       File off  Algn
  0 .ARM.exidx    00000010  000100d4  000100d4  000000d4  2**2
                  CONTENTS, ALLOC, LOAD, READONLY, DATA
  1 .text         0000a49e  000200e4  000200e4  000000e4  2**2
                  CONTENTS, ALLOC, LOAD, READONLY, CODE
  2 .comment      0000008b  00000000  00000000  0000a582  2**0
                  CONTENTS, READONLY
  3 .ARM.attributes 00000032  00000000  00000000  0000a60d  2**0
                  CONTENTS, READONLY

Disassembly of section .text:

000200e4 <_ZN9allow_pin12dynamic_type23Buffer$LT$B$C$_$C$_$GT$5allow17h02abe39b53d01be3E>:
   200e4:	b5f0      	push	{r4, r5, r6, r7, lr}
   200e6:	af03      	add	r7, sp, #12
   200e8:	4606      	mov	r6, r0
   200ea:	7800      	ldrb	r0, [r0, #0]
   200ec:	2401      	movs	r4, #1
   200ee:	2802      	cmp	r0, #2
   200f0:	d109      	bne.n	20106 <_ZN9allow_pin12dynamic_type23Buffer$LT$B$C$_$C$_$GT$5allow17h02abe39b53d01be3E+0x22>
   200f2:	4615      	mov	r5, r2
   200f4:	460b      	mov	r3, r1
   200f6:	1c72      	adds	r2, r6, #1
   200f8:	b2e8      	uxtb	r0, r5
   200fa:	2803      	cmp	r0, #3
   200fc:	d105      	bne.n	2010a <_ZN9allow_pin12dynamic_type23Buffer$LT$B$C$_$C$_$GT$5allow17h02abe39b53d01be3E+0x26>
   200fe:	4807      	ldr	r0, [pc, #28]	@ (2011c <_ZN9allow_pin12dynamic_type23Buffer$LT$B$C$_$C$_$GT$5allow17h02abe39b53d01be3E+0x38>)
   20100:	2108      	movs	r1, #8
   20102:	df03      	svc	3
   20104:	e004      	b.n	20110 <_ZN9allow_pin12dynamic_type23Buffer$LT$B$C$_$C$_$GT$5allow17h02abe39b53d01be3E+0x2c>
   20106:	2103      	movs	r1, #3
   20108:	e006      	b.n	20118 <_ZN9allow_pin12dynamic_type23Buffer$LT$B$C$_$C$_$GT$5allow17h02abe39b53d01be3E+0x34>
   2010a:	4804      	ldr	r0, [pc, #16]	@ (2011c <_ZN9allow_pin12dynamic_type23Buffer$LT$B$C$_$C$_$GT$5allow17h02abe39b53d01be3E+0x38>)
   2010c:	2108      	movs	r1, #8
   2010e:	df04      	svc	4
   20110:	2802      	cmp	r0, #2
   20112:	d001      	beq.n	20118 <_ZN9allow_pin12dynamic_type23Buffer$LT$B$C$_$C$_$GT$5allow17h02abe39b53d01be3E+0x34>
   20114:	7035      	strb	r5, [r6, #0]
   20116:	2400      	movs	r4, #0
   20118:	4620      	mov	r0, r4
   2011a:	bdf0      	pop	{r4, r5, r6, r7, pc}
   2011c:	00002095 	.word	0x00002095

00020120 <_ZN9allow_pin12dynamic_type23Buffer$LT$B$C$_$C$_$GT$5allow17h04038e4b4a060920E>:
   20120:	b5f0      	push	{r4, r5, r6, r7, lr}
   20122:	af03      	add	r7, sp, #12
   20124:	4606      	mov	r6, r0
   20126:	7800      	ldrb	r0, [r0, #0]
   20128:	2401      	movs	r4, #1
   2012a:	2802      	cmp	r0, #2
   2012c:	d109      	bne.n	20142 <_ZN9allow_pin12dynamic_type23Buffer$LT$B$C$_$C$_$GT$5allow17h04038e4b4a060920E+0x22>
   2012e:	4615      	mov	r5, r2
   20130:	460b      	mov	r3, r1
   20132:	1c72      	adds	r2, r6, #1
   20134:	b2e8      	uxtb	r0, r5
   20136:	2803      	cmp	r0, #3
   20138:	d105      	bne.n	20146 <_ZN9allow_pin12dynamic_type23Buffer$LT$B$C$_$C$_$GT$5allow17h04038e4b4a060920E+0x26>
   2013a:	4807      	ldr	r0, [pc, #28]	@ (20158 <_ZN9allow_pin12dynamic_type23Buffer$LT$B$C$_$C$_$GT$5allow17h04038e4b4a060920E+0x38>)
   2013c:	2103      	movs	r1, #3
   2013e:	df03      	svc	3
   20140:	e004      	b.n	2014c <_ZN9allow_pin12dynamic_type23Buffer$LT$B$C$_$C$_$GT$5allow17h04038e4b4a060920E+0x2c>
   20142:	2103      	movs	r1, #3
   20144:	e006      	b.n	20154 <_ZN9allow_pin12dynamic_type23Buffer$LT$B$C$_$C$_$GT$5allow17h04038e4b4a060920E+0x34>
   20146:	4804      	ldr	r0, [pc, #16]	@ (20158 <_ZN9allow_pin12dynamic_type23Buffer$LT$B$C$_$C$_$GT$5allow17h04038e4b4a060920E+0x38>)
   20148:	2103      	movs	r1, #3
   2014a:	df04      	svc	4
   2014c:	2802      	cmp	r0, #2
   2014e:	d001      	beq.n	20154 <_ZN9allow_pin12dynamic_type23Buffer$LT$B$C$_$C$_$GT$5allow17h04038e4b4a060920E+0x34>
   20150:	7035      	strb	r5, [r6, #0]
   20152:	2400      	movs	r4, #0
   20154:	4620      	mov	r0, r4
   20156:	bdf0      	pop	{r4, r5, r6, r7, pc}
   20158:	00002548 	.word	0x00002548

0002015c <_ZN9allow_pin12dynamic_type23Buffer$LT$B$C$_$C$_$GT$5allow17h37e2a81f0b04354bE>:
   2015c:	b5f0      	push	{r4, r5, r6, r7, lr}
   2015e:	af03      	add	r7, sp, #12
   20160:	4606      	mov	r6, r0
   20162:	7800      	ldrb	r0, [r0, #0]
   20164:	2401      	movs	r4, #1
   20166:	2802      	cmp	r0, #2
   20168:	d109      	bne.n	2017e <_ZN9allow_pin12dynamic_type23Buffer$LT$B$C$_$C$_$GT$5allow17h37e2a81f0b04354bE+0x22>
   2016a:	4615      	mov	r5, r2
   2016c:	460b      	mov	r3, r1
   2016e:	1c72      	adds	r2, r6, #1
   20170:	b2e8      	uxtb	r0, r5
   20172:	2803      	cmp	r0, #3
   20174:	d105      	bne.n	20182 <_ZN9allow_pin12dynamic_type23Buffer$LT$B$C$_$C$_$GT$5allow17h37e2a81f0b04354bE+0x26>
   20176:	4807      	ldr	r0, [pc, #28]	@ (20194 <_ZN9allow_pin12dynamic_type23Buffer$LT$B$C$_$C$_$GT$5allow17h37e2a81f0b04354bE+0x38>)
   20178:	2103      	movs	r1, #3
   2017a:	df03      	svc	3
   2017c:	e004      	b.n	20188 <_ZN9allow_pin12dynamic_type23Buffer$LT$B$C$_$C$_$GT$5allow17h37e2a81f0b04354bE+0x2c>
   2017e:	2103      	movs	r1, #3
   20180:	e006      	b.n	20190 <_ZN9allow_pin12dynamic_type23Buffer$LT$B$C$_$C$_$GT$5allow17h37e2a81f0b04354bE+0x34>
   20182:	4804      	ldr	r0, [pc, #16]	@ (20194 <_ZN9allow_pin12dynamic_type23Buffer$LT$B$C$_$C$_$GT$5allow17h37e2a81f0b04354bE+0x38>)
   20184:	2103      	movs	r1, #3
   20186:	df04      	svc	4
   20188:	2802      	cmp	r0, #2
   2018a:	d001      	beq.n	20190 <_ZN9allow_pin12dynamic_type23Buffer$LT$B$C$_$C$_$GT$5allow17h37e2a81f0b04354bE+0x34>
   2018c:	7035      	strb	r5, [r6, #0]
   2018e:	2400      	movs	r4, #0
   20190:	4620      	mov	r0, r4
   20192:	bdf0      	pop	{r4, r5, r6, r7, pc}
   20194:	000010e2 	.word	0x000010e2

00020198 <_ZN9allow_pin12dynamic_type23Buffer$LT$B$C$_$C$_$GT$5allow17h46e9d4014db1dcceE>:
   20198:	b5f0      	push	{r4, r5, r6, r7, lr}
   2019a:	af03      	add	r7, sp, #12
   2019c:	4606      	mov	r6, r0
   2019e:	7800      	ldrb	r0, [r0, #0]
   201a0:	2401      	movs	r4, #1
   201a2:	2802      	cmp	r0, #2
   201a4:	d109      	bne.n	201ba <_ZN9allow_pin12dynamic_type23Buffer$LT$B$C$_$C$_$GT$5allow17h46e9d4014db1dcceE+0x22>
   201a6:	4615      	mov	r5, r2
   201a8:	460b      	mov	r3, r1
   201aa:	1c72      	adds	r2, r6, #1
   201ac:	b2e8      	uxtb	r0, r5
   201ae:	2803      	cmp	r0, #3
   201b0:	d105      	bne.n	201be <_ZN9allow_pin12dynamic_type23Buffer$LT$B$C$_$C$_$GT$5allow17h46e9d4014db1dcceE+0x26>
   201b2:	4807      	ldr	r0, [pc, #28]	@ (201d0 <_ZN9allow_pin12dynamic_type23Buffer$LT$B$C$_$C$_$GT$5allow17h46e9d4014db1dcceE+0x38>)
   201b4:	2102      	movs	r1, #2
   201b6:	df03      	svc	3
   201b8:	e004      	b.n	201c4 <_ZN9allow_pin12dynamic_type23Buffer$LT$B$C$_$C$_$GT$5allow17h46e9d4014db1dcceE+0x2c>
   201ba:	2103      	movs	r1, #3
   201bc:	e006      	b.n	201cc <_ZN9allow_pin12dynamic_type23Buffer$LT$B$C$_$C$_$GT$5allow17h46e9d4014db1dcceE+0x34>
   201be:	4804      	ldr	r0, [pc, #16]	@ (201d0 <_ZN9allow_pin12dynamic_type23Buffer$LT$B$C$_$C$_$GT$5allow17h46e9d4014db1dcceE+0x38>)
   201c0:	2102      	movs	r1, #2
   201c2:	df04      	svc	4
   201c4:	2802      	cmp	r0, #2
   201c6:	d001      	beq.n	201cc <_ZN9allow_pin12dynamic_type23Buffer$LT$B$C$_$C$_$GT$5allow17h46e9d4014db1dcceE+0x34>
   201c8:	7035      	strb	r5, [r6, #0]
   201ca:	2400      	movs	r4, #0
   201cc:	4620      	mov	r0, r4
   201ce:	bdf0      	pop	{r4, r5, r6, r7, pc}
   201d0:	00000c89 	.word	0x00000c89

000201d4 <_ZN9allow_pin12dynamic_type23Buffer$LT$B$C$_$C$_$GT$5allow17h64f77a1f3748350cE>:
   201d4:	b5f0      	push	{r4, r5, r6, r7, lr}
   201d6:	af03      	add	r7, sp, #12
   201d8:	4606      	mov	r6, r0
   201da:	7800      	ldrb	r0, [r0, #0]
   201dc:	2401      	movs	r4, #1
   201de:	2802      	cmp	r0, #2
   201e0:	d109      	bne.n	201f6 <_ZN9allow_pin12dynamic_type23Buffer$LT$B$C$_$C$_$GT$5allow17h64f77a1f3748350cE+0x22>
   201e2:	4615      	mov	r5, r2
   201e4:	460b      	mov	r3, r1
   201e6:	1c72      	adds	r2, r6, #1
   201e8:	b2e8      	uxtb	r0, r5
   201ea:	2803      	cmp	r0, #3
   201ec:	d105      	bne.n	201fa <_ZN9allow_pin12dynamic_type23Buffer$LT$B$C$_$C$_$GT$5allow17h64f77a1f3748350cE+0x26>
   201ee:	4807      	ldr	r0, [pc, #28]	@ (2020c <_ZN9allow_pin12dynamic_type23Buffer$LT$B$C$_$C$_$GT$5allow17h64f77a1f3748350cE+0x38>)
   201f0:	2103      	movs	r1, #3
   201f2:	df03      	svc	3
   201f4:	e004      	b.n	20200 <_ZN9allow_pin12dynamic_type23Buffer$LT$B$C$_$C$_$GT$5allow17h64f77a1f3748350cE+0x2c>
   201f6:	2103      	movs	r1, #3
   201f8:	e006      	b.n	20208 <_ZN9allow_pin12dynamic_type23Buffer$LT$B$C$_$C$_$GT$5allow17h64f77a1f3748350cE+0x34>
   201fa:	4804      	ldr	r0, [pc, #16]	@ (2020c <_ZN9allow_pin12dynamic_type23Buffer$LT$B$C$_$C$_$GT$5allow17h64f77a1f3748350cE+0x38>)
   201fc:	2103      	movs	r1, #3
   201fe:	df04      	svc	4
   20200:	2802      	cmp	r0, #2
   20202:	d001      	beq.n	20208 <_ZN9allow_pin12dynamic_type23Buffer$LT$B$C$_$C$_$GT$5allow17h64f77a1f3748350cE+0x34>
   20204:	7035      	strb	r5, [r6, #0]
   20206:	2400      	movs	r4, #0
   20208:	4620      	mov	r0, r4
   2020a:	bdf0      	pop	{r4, r5, r6, r7, pc}
   2020c:	00001d19 	.word	0x00001d19

00020210 <_ZN9allow_pin12dynamic_type23Buffer$LT$B$C$_$C$_$GT$5allow17hb1dd552c8d8bfa58E>:
   20210:	b5f0      	push	{r4, r5, r6, r7, lr}
   20212:	af03      	add	r7, sp, #12
   20214:	4606      	mov	r6, r0
   20216:	7800      	ldrb	r0, [r0, #0]
   20218:	2401      	movs	r4, #1
   2021a:	2802      	cmp	r0, #2
   2021c:	d109      	bne.n	20232 <_ZN9allow_pin12dynamic_type23Buffer$LT$B$C$_$C$_$GT$5allow17hb1dd552c8d8bfa58E+0x22>
   2021e:	4615      	mov	r5, r2
   20220:	460b      	mov	r3, r1
   20222:	1c72      	adds	r2, r6, #1
   20224:	b2e8      	uxtb	r0, r5
   20226:	2803      	cmp	r0, #3
   20228:	d105      	bne.n	20236 <_ZN9allow_pin12dynamic_type23Buffer$LT$B$C$_$C$_$GT$5allow17hb1dd552c8d8bfa58E+0x26>
   2022a:	4807      	ldr	r0, [pc, #28]	@ (20248 <_ZN9allow_pin12dynamic_type23Buffer$LT$B$C$_$C$_$GT$5allow17hb1dd552c8d8bfa58E+0x38>)
   2022c:	2109      	movs	r1, #9
   2022e:	df03      	svc	3
   20230:	e004      	b.n	2023c <_ZN9allow_pin12dynamic_type23Buffer$LT$B$C$_$C$_$GT$5allow17hb1dd552c8d8bfa58E+0x2c>
   20232:	2103      	movs	r1, #3
   20234:	e006      	b.n	20244 <_ZN9allow_pin12dynamic_type23Buffer$LT$B$C$_$C$_$GT$5allow17hb1dd552c8d8bfa58E+0x34>
   20236:	4804      	ldr	r0, [pc, #16]	@ (20248 <_ZN9allow_pin12dynamic_type23Buffer$LT$B$C$_$C$_$GT$5allow17hb1dd552c8d8bfa58E+0x38>)
   20238:	2109      	movs	r1, #9
   2023a:	df04      	svc	4
   2023c:	2802      	cmp	r0, #2
   2023e:	d001      	beq.n	20244 <_ZN9allow_pin12dynamic_type23Buffer$LT$B$C$_$C$_$GT$5allow17hb1dd552c8d8bfa58E+0x34>
   20240:	7035      	strb	r5, [r6, #0]
   20242:	2400      	movs	r4, #0
   20244:	4620      	mov	r0, r4
   20246:	bdf0      	pop	{r4, r5, r6, r7, pc}
   20248:	00002006 	.word	0x00002006

0002024c <_ZN9allow_pin12dynamic_type23Buffer$LT$B$C$_$C$_$GT$5allow17hb7dd5f518917fc94E>:
   2024c:	b5f0      	push	{r4, r5, r6, r7, lr}
   2024e:	af03      	add	r7, sp, #12
   20250:	4606      	mov	r6, r0
   20252:	7800      	ldrb	r0, [r0, #0]
   20254:	2401      	movs	r4, #1
   20256:	2802      	cmp	r0, #2
   20258:	d109      	bne.n	2026e <_ZN9allow_pin12dynamic_type23Buffer$LT$B$C$_$C$_$GT$5allow17hb7dd5f518917fc94E+0x22>
   2025a:	4615      	mov	r5, r2
   2025c:	460b      	mov	r3, r1
   2025e:	1c72      	adds	r2, r6, #1
   20260:	b2e8      	uxtb	r0, r5
   20262:	2803      	cmp	r0, #3
   20264:	d105      	bne.n	20272 <_ZN9allow_pin12dynamic_type23Buffer$LT$B$C$_$C$_$GT$5allow17hb7dd5f518917fc94E+0x26>
   20266:	4807      	ldr	r0, [pc, #28]	@ (20284 <_ZN9allow_pin12dynamic_type23Buffer$LT$B$C$_$C$_$GT$5allow17hb7dd5f518917fc94E+0x38>)
   20268:	2109      	movs	r1, #9
   2026a:	df03      	svc	3
   2026c:	e004      	b.n	20278 <_ZN9allow_pin12dynamic_type23Buffer$LT$B$C$_$C$_$GT$5allow17hb7dd5f518917fc94E+0x2c>
   2026e:	2103      	movs	r1, #3
   20270:	e006      	b.n	20280 <_ZN9allow_pin12dynamic_type23Buffer$LT$B$C$_$C$_$GT$5allow17hb7dd5f518917fc94E+0x34>
   20272:	4804      	ldr	r0, [pc, #16]	@ (20284 <_ZN9allow_pin12dynamic_type23Buffer$LT$B$C$_$C$_$GT$5allow17hb7dd5f518917fc94E+0x38>)
   20274:	2109      	movs	r1, #9
   20276:	df04      	svc	4
   20278:	2802      	cmp	r0, #2
   2027a:	d001      	beq.n	20280 <_ZN9allow_pin12dynamic_type23Buffer$LT$B$C$_$C$_$GT$5allow17hb7dd5f518917fc94E+0x34>
   2027c:	7035      	strb	r5, [r6, #0]
   2027e:	2400      	movs	r4, #0
   20280:	4620      	mov	r0, r4
   20282:	bdf0      	pop	{r4, r5, r6, r7, pc}
   20284:	0000055e 	.word	0x0000055e

00020288 <_ZN9allow_pin12dynamic_type23Buffer$LT$B$C$_$C$_$GT$5allow17hb7ea17950ae19600E>:
   20288:	b5f0      	push	{r4, r5, r6, r7, lr}
   2028a:	af03      	add	r7, sp, #12
   2028c:	4606      	mov	r6, r0
   2028e:	7800      	ldrb	r0, [r0, #0]
   20290:	2401      	movs	r4, #1
   20292:	2802      	cmp	r0, #2
   20294:	d109      	bne.n	202aa <_ZN9allow_pin12dynamic_type23Buffer$LT$B$C$_$C$_$GT$5allow17hb7ea17950ae19600E+0x22>
   20296:	4615      	mov	r5, r2
   20298:	460b      	mov	r3, r1
   2029a:	1c72      	adds	r2, r6, #1
   2029c:	b2e8      	uxtb	r0, r5
   2029e:	2803      	cmp	r0, #3
   202a0:	d105      	bne.n	202ae <_ZN9allow_pin12dynamic_type23Buffer$LT$B$C$_$C$_$GT$5allow17hb7ea17950ae19600E+0x26>
   202a2:	4807      	ldr	r0, [pc, #28]	@ (202c0 <_ZN9allow_pin12dynamic_type23Buffer$LT$B$C$_$C$_$GT$5allow17hb7ea17950ae19600E+0x38>)
   202a4:	2109      	movs	r1, #9
   202a6:	df03      	svc	3
   202a8:	e004      	b.n	202b4 <_ZN9allow_pin12dynamic_type23Buffer$LT$B$C$_$C$_$GT$5allow17hb7ea17950ae19600E+0x2c>
   202aa:	2103      	movs	r1, #3
   202ac:	e006      	b.n	202bc <_ZN9allow_pin12dynamic_type23Buffer$LT$B$C$_$C$_$GT$5allow17hb7ea17950ae19600E+0x34>
   202ae:	4804      	ldr	r0, [pc, #16]	@ (202c0 <_ZN9allow_pin12dynamic_type23Buffer$LT$B$C$_$C$_$GT$5allow17hb7ea17950ae19600E+0x38>)
   202b0:	2109      	movs	r1, #9
   202b2:	df04      	svc	4
   202b4:	2802      	cmp	r0, #2
   202b6:	d001      	beq.n	202bc <_ZN9allow_pin12dynamic_type23Buffer$LT$B$C$_$C$_$GT$5allow17hb7ea17950ae19600E+0x34>
   202b8:	7035      	strb	r5, [r6, #0]
   202ba:	2400      	movs	r4, #0
   202bc:	4620      	mov	r0, r4
   202be:	bdf0      	pop	{r4, r5, r6, r7, pc}
   202c0:	00000a9d 	.word	0x00000a9d

000202c4 <_ZN9allow_pin12dynamic_type23Buffer$LT$B$C$_$C$_$GT$5allow17hbb7a1cc9c10561e1E>:
   202c4:	b5f0      	push	{r4, r5, r6, r7, lr}
   202c6:	af03      	add	r7, sp, #12
   202c8:	4606      	mov	r6, r0
   202ca:	7800      	ldrb	r0, [r0, #0]
   202cc:	2401      	movs	r4, #1
   202ce:	2802      	cmp	r0, #2
   202d0:	d109      	bne.n	202e6 <_ZN9allow_pin12dynamic_type23Buffer$LT$B$C$_$C$_$GT$5allow17hbb7a1cc9c10561e1E+0x22>
   202d2:	4615      	mov	r5, r2
   202d4:	460b      	mov	r3, r1
   202d6:	1c72      	adds	r2, r6, #1
   202d8:	b2e8      	uxtb	r0, r5
   202da:	2803      	cmp	r0, #3
   202dc:	d105      	bne.n	202ea <_ZN9allow_pin12dynamic_type23Buffer$LT$B$C$_$C$_$GT$5allow17hbb7a1cc9c10561e1E+0x26>
   202de:	4807      	ldr	r0, [pc, #28]	@ (202fc <_ZN9allow_pin12dynamic_type23Buffer$LT$B$C$_$C$_$GT$5allow17hbb7a1cc9c10561e1E+0x38>)
   202e0:	2100      	movs	r1, #0
   202e2:	df03      	svc	3
   202e4:	e004      	b.n	202f0 <_ZN9allow_pin12dynamic_type23Buffer$LT$B$C$_$C$_$GT$5allow17hbb7a1cc9c10561e1E+0x2c>
   202e6:	2103      	movs	r1, #3
   202e8:	e006      	b.n	202f8 <_ZN9allow_pin12dynamic_type23Buffer$LT$B$C$_$C$_$GT$5allow17hbb7a1cc9c10561e1E+0x34>
   202ea:	4804      	ldr	r0, [pc, #16]	@ (202fc <_ZN9allow_pin12dynamic_type23Buffer$LT$B$C$_$C$_$GT$5allow17hbb7a1cc9c10561e1E+0x38>)
   202ec:	2100      	movs	r1, #0
   202ee:	df04      	svc	4
   202f0:	2802      	cmp	r0, #2
   202f2:	d001      	beq.n	202f8 <_ZN9allow_pin12dynamic_type23Buffer$LT$B$C$_$C$_$GT$5allow17hbb7a1cc9c10561e1E+0x34>
   202f4:	7035      	strb	r5, [r6, #0]
   202f6:	2400      	movs	r4, #0
   202f8:	4620      	mov	r0, r4
   202fa:	bdf0      	pop	{r4, r5, r6, r7, pc}
   202fc:	000016b0 	.word	0x000016b0

00020300 <_ZN9allow_pin12dynamic_type23Buffer$LT$B$C$_$C$_$GT$5allow17he6eb79ba6938f85eE>:
   20300:	b5f0      	push	{r4, r5, r6, r7, lr}
   20302:	af03      	add	r7, sp, #12
   20304:	4606      	mov	r6, r0
   20306:	7800      	ldrb	r0, [r0, #0]
   20308:	2401      	movs	r4, #1
   2030a:	2802      	cmp	r0, #2
   2030c:	d109      	bne.n	20322 <_ZN9allow_pin12dynamic_type23Buffer$LT$B$C$_$C$_$GT$5allow17he6eb79ba6938f85eE+0x22>
   2030e:	4615      	mov	r5, r2
   20310:	460b      	mov	r3, r1
   20312:	1c72      	adds	r2, r6, #1
   20314:	b2e8      	uxtb	r0, r5
   20316:	2803      	cmp	r0, #3
   20318:	d105      	bne.n	20326 <_ZN9allow_pin12dynamic_type23Buffer$LT$B$C$_$C$_$GT$5allow17he6eb79ba6938f85eE+0x26>
   2031a:	4807      	ldr	r0, [pc, #28]	@ (20338 <_ZN9allow_pin12dynamic_type23Buffer$LT$B$C$_$C$_$GT$5allow17he6eb79ba6938f85eE+0x38>)
   2031c:	2106      	movs	r1, #6
   2031e:	df03      	svc	3
   20320:	e004      	b.n	2032c <_ZN9allow_pin12dynamic_type23Buffer$LT$B$C$_$C$_$GT$5allow17he6eb79ba6938f85eE+0x2c>
   20322:	2103      	movs	r1, #3
   20324:	e006      	b.n	20334 <_ZN9allow_pin12dynamic_type23Buffer$LT$B$C$_$C$_$GT$5allow17he6eb79ba6938f85eE+0x34>
   20326:	4804      	ldr	r0, [pc, #16]	@ (20338 <_ZN9allow_pin12dynamic_type23Buffer$LT$B$C$_$C$_$GT$5allow17he6eb79ba6938f85eE+0x38>)
   20328:	2106      	movs	r1, #6
   2032a:	df04      	svc	4
   2032c:	2802      	cmp	r0, #2
   2032e:	d001      	beq.n	20334 <_ZN9allow_pin12dynamic_type23Buffer$LT$B$C$_$C$_$GT$5allow17he6eb79ba6938f85eE+0x34>
   20330:	7035      	strb	r5, [r6, #0]
   20332:	2400      	movs	r4, #0
   20334:	4620      	mov	r0, r4
   20336:	bdf0      	pop	{r4, r5, r6, r7, pc}
   20338:	00001c6b 	.word	0x00001c6b

0002033c <_ZN20complex_dynamic_type3app17h030418878fdf572aE>:
   2033c:	b5f0      	push	{r4, r5, r6, r7, lr}
   2033e:	af03      	add	r7, sp, #12
   20340:	b099      	sub	sp, #100	@ 0x64
   20342:	9003      	str	r0, [sp, #12]
   20344:	a804      	add	r0, sp, #16
   20346:	2402      	movs	r4, #2
   20348:	7004      	strb	r4, [r0, #0]
   2034a:	1c46      	adds	r6, r0, #1
   2034c:	2234      	movs	r2, #52	@ 0x34
   2034e:	9202      	str	r2, [sp, #8]
   20350:	4630      	mov	r0, r6
   20352:	f00a f911 	bl	2a578 <__aeabi_memcpy>
   20356:	ad12      	add	r5, sp, #72	@ 0x48
   20358:	1c68      	adds	r0, r5, #1
   2035a:	211a      	movs	r1, #26
   2035c:	9001      	str	r0, [sp, #4]
   2035e:	f009 ff4b 	bl	2a1f8 <__aeabi_memclr>
   20362:	9400      	str	r4, [sp, #0]
   20364:	702c      	strb	r4, [r5, #0]
   20366:	483f      	ldr	r0, [pc, #252]	@ (20464 <_ZN20complex_dynamic_type3app17h030418878fdf572aE+0x128>)
   20368:	2100      	movs	r1, #0
   2036a:	4632      	mov	r2, r6
   2036c:	9b02      	ldr	r3, [sp, #8]
   2036e:	df04      	svc	4
   20370:	2802      	cmp	r0, #2
   20372:	d104      	bne.n	2037e <_ZN20complex_dynamic_type3app17h030418878fdf572aE+0x42>
   20374:	2001      	movs	r0, #1
   20376:	9a03      	ldr	r2, [sp, #12]
   20378:	7010      	strb	r0, [r2, #0]
   2037a:	6051      	str	r1, [r2, #4]
   2037c:	e02d      	b.n	203da <_ZN20complex_dynamic_type3app17h030418878fdf572aE+0x9e>
   2037e:	9d03      	ldr	r5, [sp, #12]
   20380:	a804      	add	r0, sp, #16
   20382:	2104      	movs	r1, #4
   20384:	7001      	strb	r1, [r0, #0]
   20386:	4837      	ldr	r0, [pc, #220]	@ (20464 <_ZN20complex_dynamic_type3app17h030418878fdf572aE+0x128>)
   20388:	2105      	movs	r1, #5
   2038a:	231a      	movs	r3, #26
   2038c:	9c01      	ldr	r4, [sp, #4]
   2038e:	4622      	mov	r2, r4
   20390:	df03      	svc	3
   20392:	2802      	cmp	r0, #2
   20394:	d10e      	bne.n	203b4 <_ZN20complex_dynamic_type3app17h030418878fdf572aE+0x78>
   20396:	2001      	movs	r0, #1
   20398:	7028      	strb	r0, [r5, #0]
   2039a:	6069      	str	r1, [r5, #4]
   2039c:	a812      	add	r0, sp, #72	@ 0x48
   2039e:	7800      	ldrb	r0, [r0, #0]
   203a0:	2802      	cmp	r0, #2
   203a2:	d01a      	beq.n	203da <_ZN20complex_dynamic_type3app17h030418878fdf572aE+0x9e>
   203a4:	2803      	cmp	r0, #3
   203a6:	d013      	beq.n	203d0 <_ZN20complex_dynamic_type3app17h030418878fdf572aE+0x94>
   203a8:	482e      	ldr	r0, [pc, #184]	@ (20464 <_ZN20complex_dynamic_type3app17h030418878fdf572aE+0x128>)
   203aa:	2105      	movs	r1, #5
   203ac:	2200      	movs	r2, #0
   203ae:	4613      	mov	r3, r2
   203b0:	df04      	svc	4
   203b2:	e012      	b.n	203da <_ZN20complex_dynamic_type3app17h030418878fdf572aE+0x9e>
   203b4:	a812      	add	r0, sp, #72	@ 0x48
   203b6:	2103      	movs	r1, #3
   203b8:	7001      	strb	r1, [r0, #0]
   203ba:	482a      	ldr	r0, [pc, #168]	@ (20464 <_ZN20complex_dynamic_type3app17h030418878fdf572aE+0x128>)
   203bc:	2205      	movs	r2, #5
   203be:	2600      	movs	r6, #0
   203c0:	4631      	mov	r1, r6
   203c2:	4633      	mov	r3, r6
   203c4:	df02      	svc	2
   203c6:	287f      	cmp	r0, #127	@ 0x7f
   203c8:	d816      	bhi.n	203f8 <_ZN20complex_dynamic_type3app17h030418878fdf572aE+0xbc>
   203ca:	2001      	movs	r0, #1
   203cc:	7028      	strb	r0, [r5, #0]
   203ce:	6069      	str	r1, [r5, #4]
   203d0:	4824      	ldr	r0, [pc, #144]	@ (20464 <_ZN20complex_dynamic_type3app17h030418878fdf572aE+0x128>)
   203d2:	2105      	movs	r1, #5
   203d4:	2200      	movs	r2, #0
   203d6:	4613      	mov	r3, r2
   203d8:	df03      	svc	3
   203da:	a804      	add	r0, sp, #16
   203dc:	7804      	ldrb	r4, [r0, #0]
   203de:	2c02      	cmp	r4, #2
   203e0:	d008      	beq.n	203f4 <_ZN20complex_dynamic_type3app17h030418878fdf572aE+0xb8>
   203e2:	4820      	ldr	r0, [pc, #128]	@ (20464 <_ZN20complex_dynamic_type3app17h030418878fdf572aE+0x128>)
   203e4:	2100      	movs	r1, #0
   203e6:	460a      	mov	r2, r1
   203e8:	460b      	mov	r3, r1
   203ea:	2c03      	cmp	r4, #3
   203ec:	d101      	bne.n	203f2 <_ZN20complex_dynamic_type3app17h030418878fdf572aE+0xb6>
   203ee:	df03      	svc	3
   203f0:	e000      	b.n	203f4 <_ZN20complex_dynamic_type3app17h030418878fdf572aE+0xb8>
   203f2:	df04      	svc	4
   203f4:	b019      	add	sp, #100	@ 0x64
   203f6:	bdf0      	pop	{r4, r5, r6, r7, pc}
   203f8:	a804      	add	r0, sp, #16
   203fa:	7800      	ldrb	r0, [r0, #0]
   203fc:	2802      	cmp	r0, #2
   203fe:	d01c      	beq.n	2043a <_ZN20complex_dynamic_type3app17h030418878fdf572aE+0xfe>
   20400:	2803      	cmp	r0, #3
   20402:	d105      	bne.n	20410 <_ZN20complex_dynamic_type3app17h030418878fdf572aE+0xd4>
   20404:	4817      	ldr	r0, [pc, #92]	@ (20464 <_ZN20complex_dynamic_type3app17h030418878fdf572aE+0x128>)
   20406:	2100      	movs	r1, #0
   20408:	460a      	mov	r2, r1
   2040a:	460b      	mov	r3, r1
   2040c:	df03      	svc	3
   2040e:	e004      	b.n	2041a <_ZN20complex_dynamic_type3app17h030418878fdf572aE+0xde>
   20410:	4814      	ldr	r0, [pc, #80]	@ (20464 <_ZN20complex_dynamic_type3app17h030418878fdf572aE+0x128>)
   20412:	2100      	movs	r1, #0
   20414:	460a      	mov	r2, r1
   20416:	460b      	mov	r3, r1
   20418:	df04      	svc	4
   2041a:	a804      	add	r0, sp, #16
   2041c:	9900      	ldr	r1, [sp, #0]
   2041e:	7001      	strb	r1, [r0, #0]
   20420:	a812      	add	r0, sp, #72	@ 0x48
   20422:	7800      	ldrb	r0, [r0, #0]
   20424:	2803      	cmp	r0, #3
   20426:	d008      	beq.n	2043a <_ZN20complex_dynamic_type3app17h030418878fdf572aE+0xfe>
   20428:	2802      	cmp	r0, #2
   2042a:	d10c      	bne.n	20446 <_ZN20complex_dynamic_type3app17h030418878fdf572aE+0x10a>
   2042c:	1c68      	adds	r0, r5, #1
   2042e:	221a      	movs	r2, #26
   20430:	4621      	mov	r1, r4
   20432:	f00a f8a1 	bl	2a578 <__aeabi_memcpy>
   20436:	702e      	strb	r6, [r5, #0]
   20438:	e7dc      	b.n	203f4 <_ZN20complex_dynamic_type3app17h030418878fdf572aE+0xb8>
   2043a:	480a      	ldr	r0, [pc, #40]	@ (20464 <_ZN20complex_dynamic_type3app17h030418878fdf572aE+0x128>)
   2043c:	2105      	movs	r1, #5
   2043e:	2200      	movs	r2, #0
   20440:	4613      	mov	r3, r2
   20442:	df03      	svc	3
   20444:	e004      	b.n	20450 <_ZN20complex_dynamic_type3app17h030418878fdf572aE+0x114>
   20446:	4807      	ldr	r0, [pc, #28]	@ (20464 <_ZN20complex_dynamic_type3app17h030418878fdf572aE+0x128>)
   20448:	2105      	movs	r1, #5
   2044a:	2200      	movs	r2, #0
   2044c:	4613      	mov	r3, r2
   2044e:	df04      	svc	4
   20450:	a804      	add	r0, sp, #16
   20452:	7804      	ldrb	r4, [r0, #0]
   20454:	1c68      	adds	r0, r5, #1
   20456:	221a      	movs	r2, #26
   20458:	9901      	ldr	r1, [sp, #4]
   2045a:	f00a f88d 	bl	2a578 <__aeabi_memcpy>
   2045e:	702e      	strb	r6, [r5, #0]
   20460:	e7bd      	b.n	203de <_ZN20complex_dynamic_type3app17h030418878fdf572aE+0xa2>
   20462:	46c0      	nop			@ (mov r8, r8)
   20464:	000012cc 	.word	0x000012cc

00020468 <_ZN20complex_dynamic_type3app17h03277ffa4dc3a8ebE>:
   20468:	b5f0      	push	{r4, r5, r6, r7, lr}
   2046a:	af03      	add	r7, sp, #12
   2046c:	b0a7      	sub	sp, #156	@ 0x9c
   2046e:	9002      	str	r0, [sp, #8]
   20470:	a803      	add	r0, sp, #12
   20472:	2502      	movs	r5, #2
   20474:	7005      	strb	r5, [r0, #0]
   20476:	1c46      	adds	r6, r0, #1
   20478:	222f      	movs	r2, #47	@ 0x2f
   2047a:	9201      	str	r2, [sp, #4]
   2047c:	4630      	mov	r0, r6
   2047e:	f00a f87b 	bl	2a578 <__aeabi_memcpy>
   20482:	ac0f      	add	r4, sp, #60	@ 0x3c
   20484:	1c60      	adds	r0, r4, #1
   20486:	215e      	movs	r1, #94	@ 0x5e
   20488:	9000      	str	r0, [sp, #0]
   2048a:	f009 feb5 	bl	2a1f8 <__aeabi_memclr>
   2048e:	7025      	strb	r5, [r4, #0]
   20490:	4841      	ldr	r0, [pc, #260]	@ (20598 <_ZN20complex_dynamic_type3app17h03277ffa4dc3a8ebE+0x130>)
   20492:	2105      	movs	r1, #5
   20494:	4632      	mov	r2, r6
   20496:	9b01      	ldr	r3, [sp, #4]
   20498:	df04      	svc	4
   2049a:	2802      	cmp	r0, #2
   2049c:	d104      	bne.n	204a8 <_ZN20complex_dynamic_type3app17h03277ffa4dc3a8ebE+0x40>
   2049e:	2001      	movs	r0, #1
   204a0:	9a02      	ldr	r2, [sp, #8]
   204a2:	7010      	strb	r0, [r2, #0]
   204a4:	6051      	str	r1, [r2, #4]
   204a6:	e02e      	b.n	20506 <_ZN20complex_dynamic_type3app17h03277ffa4dc3a8ebE+0x9e>
   204a8:	9c02      	ldr	r4, [sp, #8]
   204aa:	a803      	add	r0, sp, #12
   204ac:	2104      	movs	r1, #4
   204ae:	7001      	strb	r1, [r0, #0]
   204b0:	4839      	ldr	r0, [pc, #228]	@ (20598 <_ZN20complex_dynamic_type3app17h03277ffa4dc3a8ebE+0x130>)
   204b2:	2102      	movs	r1, #2
   204b4:	235e      	movs	r3, #94	@ 0x5e
   204b6:	9d00      	ldr	r5, [sp, #0]
   204b8:	462a      	mov	r2, r5
   204ba:	df03      	svc	3
   204bc:	2802      	cmp	r0, #2
   204be:	d10e      	bne.n	204de <_ZN20complex_dynamic_type3app17h03277ffa4dc3a8ebE+0x76>
   204c0:	2001      	movs	r0, #1
   204c2:	7020      	strb	r0, [r4, #0]
   204c4:	6061      	str	r1, [r4, #4]
   204c6:	a80f      	add	r0, sp, #60	@ 0x3c
   204c8:	7800      	ldrb	r0, [r0, #0]
   204ca:	2802      	cmp	r0, #2
   204cc:	d01b      	beq.n	20506 <_ZN20complex_dynamic_type3app17h03277ffa4dc3a8ebE+0x9e>
   204ce:	2803      	cmp	r0, #3
   204d0:	d014      	beq.n	204fc <_ZN20complex_dynamic_type3app17h03277ffa4dc3a8ebE+0x94>
   204d2:	4831      	ldr	r0, [pc, #196]	@ (20598 <_ZN20complex_dynamic_type3app17h03277ffa4dc3a8ebE+0x130>)
   204d4:	2102      	movs	r1, #2
   204d6:	2200      	movs	r2, #0
   204d8:	4613      	mov	r3, r2
   204da:	df04      	svc	4
   204dc:	e013      	b.n	20506 <_ZN20complex_dynamic_type3app17h03277ffa4dc3a8ebE+0x9e>
   204de:	a80f      	add	r0, sp, #60	@ 0x3c
   204e0:	2103      	movs	r1, #3
   204e2:	7001      	strb	r1, [r0, #0]
   204e4:	482c      	ldr	r0, [pc, #176]	@ (20598 <_ZN20complex_dynamic_type3app17h03277ffa4dc3a8ebE+0x130>)
   204e6:	2105      	movs	r1, #5
   204e8:	2602      	movs	r6, #2
   204ea:	2300      	movs	r3, #0
   204ec:	4632      	mov	r2, r6
   204ee:	9301      	str	r3, [sp, #4]
   204f0:	df02      	svc	2
   204f2:	287f      	cmp	r0, #127	@ 0x7f
   204f4:	d816      	bhi.n	20524 <_ZN20complex_dynamic_type3app17h03277ffa4dc3a8ebE+0xbc>
   204f6:	2001      	movs	r0, #1
   204f8:	7020      	strb	r0, [r4, #0]
   204fa:	6061      	str	r1, [r4, #4]
   204fc:	4826      	ldr	r0, [pc, #152]	@ (20598 <_ZN20complex_dynamic_type3app17h03277ffa4dc3a8ebE+0x130>)
   204fe:	2102      	movs	r1, #2
   20500:	2200      	movs	r2, #0
   20502:	4613      	mov	r3, r2
   20504:	df03      	svc	3
   20506:	a803      	add	r0, sp, #12
   20508:	7804      	ldrb	r4, [r0, #0]
   2050a:	2c02      	cmp	r4, #2
   2050c:	d008      	beq.n	20520 <_ZN20complex_dynamic_type3app17h03277ffa4dc3a8ebE+0xb8>
   2050e:	4822      	ldr	r0, [pc, #136]	@ (20598 <_ZN20complex_dynamic_type3app17h03277ffa4dc3a8ebE+0x130>)
   20510:	2105      	movs	r1, #5
   20512:	2200      	movs	r2, #0
   20514:	4613      	mov	r3, r2
   20516:	2c03      	cmp	r4, #3
   20518:	d101      	bne.n	2051e <_ZN20complex_dynamic_type3app17h03277ffa4dc3a8ebE+0xb6>
   2051a:	df03      	svc	3
   2051c:	e000      	b.n	20520 <_ZN20complex_dynamic_type3app17h03277ffa4dc3a8ebE+0xb8>
   2051e:	df04      	svc	4
   20520:	b027      	add	sp, #156	@ 0x9c
   20522:	bdf0      	pop	{r4, r5, r6, r7, pc}
   20524:	a803      	add	r0, sp, #12
   20526:	7800      	ldrb	r0, [r0, #0]
   20528:	2802      	cmp	r0, #2
   2052a:	d01c      	beq.n	20566 <_ZN20complex_dynamic_type3app17h03277ffa4dc3a8ebE+0xfe>
   2052c:	2803      	cmp	r0, #3
   2052e:	d105      	bne.n	2053c <_ZN20complex_dynamic_type3app17h03277ffa4dc3a8ebE+0xd4>
   20530:	4819      	ldr	r0, [pc, #100]	@ (20598 <_ZN20complex_dynamic_type3app17h03277ffa4dc3a8ebE+0x130>)
   20532:	2105      	movs	r1, #5
   20534:	2200      	movs	r2, #0
   20536:	4613      	mov	r3, r2
   20538:	df03      	svc	3
   2053a:	e004      	b.n	20546 <_ZN20complex_dynamic_type3app17h03277ffa4dc3a8ebE+0xde>
   2053c:	4816      	ldr	r0, [pc, #88]	@ (20598 <_ZN20complex_dynamic_type3app17h03277ffa4dc3a8ebE+0x130>)
   2053e:	2105      	movs	r1, #5
   20540:	2200      	movs	r2, #0
   20542:	4613      	mov	r3, r2
   20544:	df04      	svc	4
   20546:	a803      	add	r0, sp, #12
   20548:	7006      	strb	r6, [r0, #0]
   2054a:	a80f      	add	r0, sp, #60	@ 0x3c
   2054c:	7800      	ldrb	r0, [r0, #0]
   2054e:	2803      	cmp	r0, #3
   20550:	d009      	beq.n	20566 <_ZN20complex_dynamic_type3app17h03277ffa4dc3a8ebE+0xfe>
   20552:	2802      	cmp	r0, #2
   20554:	d10e      	bne.n	20574 <_ZN20complex_dynamic_type3app17h03277ffa4dc3a8ebE+0x10c>
   20556:	1c60      	adds	r0, r4, #1
   20558:	225e      	movs	r2, #94	@ 0x5e
   2055a:	4629      	mov	r1, r5
   2055c:	f00a f80c 	bl	2a578 <__aeabi_memcpy>
   20560:	9801      	ldr	r0, [sp, #4]
   20562:	7020      	strb	r0, [r4, #0]
   20564:	e7dc      	b.n	20520 <_ZN20complex_dynamic_type3app17h03277ffa4dc3a8ebE+0xb8>
   20566:	462e      	mov	r6, r5
   20568:	480b      	ldr	r0, [pc, #44]	@ (20598 <_ZN20complex_dynamic_type3app17h03277ffa4dc3a8ebE+0x130>)
   2056a:	2102      	movs	r1, #2
   2056c:	2200      	movs	r2, #0
   2056e:	4613      	mov	r3, r2
   20570:	df03      	svc	3
   20572:	e005      	b.n	20580 <_ZN20complex_dynamic_type3app17h03277ffa4dc3a8ebE+0x118>
   20574:	462e      	mov	r6, r5
   20576:	4808      	ldr	r0, [pc, #32]	@ (20598 <_ZN20complex_dynamic_type3app17h03277ffa4dc3a8ebE+0x130>)
   20578:	2102      	movs	r1, #2
   2057a:	2200      	movs	r2, #0
   2057c:	4613      	mov	r3, r2
   2057e:	df04      	svc	4
   20580:	4625      	mov	r5, r4
   20582:	a803      	add	r0, sp, #12
   20584:	7804      	ldrb	r4, [r0, #0]
   20586:	1c68      	adds	r0, r5, #1
   20588:	225e      	movs	r2, #94	@ 0x5e
   2058a:	4631      	mov	r1, r6
   2058c:	f009 fff4 	bl	2a578 <__aeabi_memcpy>
   20590:	9801      	ldr	r0, [sp, #4]
   20592:	7028      	strb	r0, [r5, #0]
   20594:	e7b9      	b.n	2050a <_ZN20complex_dynamic_type3app17h03277ffa4dc3a8ebE+0xa2>
   20596:	46c0      	nop			@ (mov r8, r8)
   20598:	0000022b 	.word	0x0000022b

0002059c <_ZN20complex_dynamic_type3app17h03adb85360fbcb5fE>:
   2059c:	b5f0      	push	{r4, r5, r6, r7, lr}
   2059e:	af03      	add	r7, sp, #12
   205a0:	b099      	sub	sp, #100	@ 0x64
   205a2:	9003      	str	r0, [sp, #12]
   205a4:	a804      	add	r0, sp, #16
   205a6:	2402      	movs	r4, #2
   205a8:	7004      	strb	r4, [r0, #0]
   205aa:	1c46      	adds	r6, r0, #1
   205ac:	2225      	movs	r2, #37	@ 0x25
   205ae:	9202      	str	r2, [sp, #8]
   205b0:	4630      	mov	r0, r6
   205b2:	f009 ffe1 	bl	2a578 <__aeabi_memcpy>
   205b6:	ad0e      	add	r5, sp, #56	@ 0x38
   205b8:	1c68      	adds	r0, r5, #1
   205ba:	212a      	movs	r1, #42	@ 0x2a
   205bc:	9001      	str	r0, [sp, #4]
   205be:	f009 fe1b 	bl	2a1f8 <__aeabi_memclr>
   205c2:	9400      	str	r4, [sp, #0]
   205c4:	702c      	strb	r4, [r5, #0]
   205c6:	483e      	ldr	r0, [pc, #248]	@ (206c0 <_ZN20complex_dynamic_type3app17h03adb85360fbcb5fE+0x124>)
   205c8:	2100      	movs	r1, #0
   205ca:	4632      	mov	r2, r6
   205cc:	9b02      	ldr	r3, [sp, #8]
   205ce:	df04      	svc	4
   205d0:	2802      	cmp	r0, #2
   205d2:	d104      	bne.n	205de <_ZN20complex_dynamic_type3app17h03adb85360fbcb5fE+0x42>
   205d4:	2001      	movs	r0, #1
   205d6:	9a03      	ldr	r2, [sp, #12]
   205d8:	7010      	strb	r0, [r2, #0]
   205da:	6051      	str	r1, [r2, #4]
   205dc:	e02c      	b.n	20638 <_ZN20complex_dynamic_type3app17h03adb85360fbcb5fE+0x9c>
   205de:	9d03      	ldr	r5, [sp, #12]
   205e0:	a804      	add	r0, sp, #16
   205e2:	2104      	movs	r1, #4
   205e4:	7001      	strb	r1, [r0, #0]
   205e6:	4836      	ldr	r0, [pc, #216]	@ (206c0 <_ZN20complex_dynamic_type3app17h03adb85360fbcb5fE+0x124>)
   205e8:	2403      	movs	r4, #3
   205ea:	232a      	movs	r3, #42	@ 0x2a
   205ec:	4621      	mov	r1, r4
   205ee:	9a01      	ldr	r2, [sp, #4]
   205f0:	df03      	svc	3
   205f2:	2802      	cmp	r0, #2
   205f4:	d10e      	bne.n	20614 <_ZN20complex_dynamic_type3app17h03adb85360fbcb5fE+0x78>
   205f6:	2001      	movs	r0, #1
   205f8:	7028      	strb	r0, [r5, #0]
   205fa:	6069      	str	r1, [r5, #4]
   205fc:	a80e      	add	r0, sp, #56	@ 0x38
   205fe:	7800      	ldrb	r0, [r0, #0]
   20600:	2802      	cmp	r0, #2
   20602:	d019      	beq.n	20638 <_ZN20complex_dynamic_type3app17h03adb85360fbcb5fE+0x9c>
   20604:	2803      	cmp	r0, #3
   20606:	d012      	beq.n	2062e <_ZN20complex_dynamic_type3app17h03adb85360fbcb5fE+0x92>
   20608:	482d      	ldr	r0, [pc, #180]	@ (206c0 <_ZN20complex_dynamic_type3app17h03adb85360fbcb5fE+0x124>)
   2060a:	2103      	movs	r1, #3
   2060c:	2200      	movs	r2, #0
   2060e:	4613      	mov	r3, r2
   20610:	df04      	svc	4
   20612:	e011      	b.n	20638 <_ZN20complex_dynamic_type3app17h03adb85360fbcb5fE+0x9c>
   20614:	a80e      	add	r0, sp, #56	@ 0x38
   20616:	7004      	strb	r4, [r0, #0]
   20618:	4829      	ldr	r0, [pc, #164]	@ (206c0 <_ZN20complex_dynamic_type3app17h03adb85360fbcb5fE+0x124>)
   2061a:	2600      	movs	r6, #0
   2061c:	4631      	mov	r1, r6
   2061e:	4622      	mov	r2, r4
   20620:	4633      	mov	r3, r6
   20622:	df02      	svc	2
   20624:	287f      	cmp	r0, #127	@ 0x7f
   20626:	d816      	bhi.n	20656 <_ZN20complex_dynamic_type3app17h03adb85360fbcb5fE+0xba>
   20628:	2001      	movs	r0, #1
   2062a:	7028      	strb	r0, [r5, #0]
   2062c:	6069      	str	r1, [r5, #4]
   2062e:	4824      	ldr	r0, [pc, #144]	@ (206c0 <_ZN20complex_dynamic_type3app17h03adb85360fbcb5fE+0x124>)
   20630:	2103      	movs	r1, #3
   20632:	2200      	movs	r2, #0
   20634:	4613      	mov	r3, r2
   20636:	df03      	svc	3
   20638:	a804      	add	r0, sp, #16
   2063a:	7804      	ldrb	r4, [r0, #0]
   2063c:	2c02      	cmp	r4, #2
   2063e:	d008      	beq.n	20652 <_ZN20complex_dynamic_type3app17h03adb85360fbcb5fE+0xb6>
   20640:	481f      	ldr	r0, [pc, #124]	@ (206c0 <_ZN20complex_dynamic_type3app17h03adb85360fbcb5fE+0x124>)
   20642:	2100      	movs	r1, #0
   20644:	460a      	mov	r2, r1
   20646:	460b      	mov	r3, r1
   20648:	2c03      	cmp	r4, #3
   2064a:	d101      	bne.n	20650 <_ZN20complex_dynamic_type3app17h03adb85360fbcb5fE+0xb4>
   2064c:	df03      	svc	3
   2064e:	e000      	b.n	20652 <_ZN20complex_dynamic_type3app17h03adb85360fbcb5fE+0xb6>
   20650:	df04      	svc	4
   20652:	b019      	add	sp, #100	@ 0x64
   20654:	bdf0      	pop	{r4, r5, r6, r7, pc}
   20656:	a804      	add	r0, sp, #16
   20658:	7800      	ldrb	r0, [r0, #0]
   2065a:	2802      	cmp	r0, #2
   2065c:	d01c      	beq.n	20698 <_ZN20complex_dynamic_type3app17h03adb85360fbcb5fE+0xfc>
   2065e:	2803      	cmp	r0, #3
   20660:	d105      	bne.n	2066e <_ZN20complex_dynamic_type3app17h03adb85360fbcb5fE+0xd2>
   20662:	4817      	ldr	r0, [pc, #92]	@ (206c0 <_ZN20complex_dynamic_type3app17h03adb85360fbcb5fE+0x124>)
   20664:	2100      	movs	r1, #0
   20666:	460a      	mov	r2, r1
   20668:	460b      	mov	r3, r1
   2066a:	df03      	svc	3
   2066c:	e004      	b.n	20678 <_ZN20complex_dynamic_type3app17h03adb85360fbcb5fE+0xdc>
   2066e:	4814      	ldr	r0, [pc, #80]	@ (206c0 <_ZN20complex_dynamic_type3app17h03adb85360fbcb5fE+0x124>)
   20670:	2100      	movs	r1, #0
   20672:	460a      	mov	r2, r1
   20674:	460b      	mov	r3, r1
   20676:	df04      	svc	4
   20678:	9900      	ldr	r1, [sp, #0]
   2067a:	a804      	add	r0, sp, #16
   2067c:	7001      	strb	r1, [r0, #0]
   2067e:	a80e      	add	r0, sp, #56	@ 0x38
   20680:	7800      	ldrb	r0, [r0, #0]
   20682:	2803      	cmp	r0, #3
   20684:	d008      	beq.n	20698 <_ZN20complex_dynamic_type3app17h03adb85360fbcb5fE+0xfc>
   20686:	2802      	cmp	r0, #2
   20688:	d10c      	bne.n	206a4 <_ZN20complex_dynamic_type3app17h03adb85360fbcb5fE+0x108>
   2068a:	1c68      	adds	r0, r5, #1
   2068c:	222a      	movs	r2, #42	@ 0x2a
   2068e:	9901      	ldr	r1, [sp, #4]
   20690:	f009 ff72 	bl	2a578 <__aeabi_memcpy>
   20694:	702e      	strb	r6, [r5, #0]
   20696:	e7dc      	b.n	20652 <_ZN20complex_dynamic_type3app17h03adb85360fbcb5fE+0xb6>
   20698:	4809      	ldr	r0, [pc, #36]	@ (206c0 <_ZN20complex_dynamic_type3app17h03adb85360fbcb5fE+0x124>)
   2069a:	2103      	movs	r1, #3
   2069c:	2200      	movs	r2, #0
   2069e:	4613      	mov	r3, r2
   206a0:	df03      	svc	3
   206a2:	e004      	b.n	206ae <_ZN20complex_dynamic_type3app17h03adb85360fbcb5fE+0x112>
   206a4:	4806      	ldr	r0, [pc, #24]	@ (206c0 <_ZN20complex_dynamic_type3app17h03adb85360fbcb5fE+0x124>)
   206a6:	2103      	movs	r1, #3
   206a8:	2200      	movs	r2, #0
   206aa:	4613      	mov	r3, r2
   206ac:	df04      	svc	4
   206ae:	a804      	add	r0, sp, #16
   206b0:	7804      	ldrb	r4, [r0, #0]
   206b2:	1c68      	adds	r0, r5, #1
   206b4:	222a      	movs	r2, #42	@ 0x2a
   206b6:	9901      	ldr	r1, [sp, #4]
   206b8:	f009 ff5e 	bl	2a578 <__aeabi_memcpy>
   206bc:	702e      	strb	r6, [r5, #0]
   206be:	e7bd      	b.n	2063c <_ZN20complex_dynamic_type3app17h03adb85360fbcb5fE+0xa0>
   206c0:	0000093c 	.word	0x0000093c

000206c4 <_ZN20complex_dynamic_type3app17h0565d1ffa222703aE>:
   206c4:	b5f0      	push	{r4, r5, r6, r7, lr}
   206c6:	af03      	add	r7, sp, #12
   206c8:	b0b3      	sub	sp, #204	@ 0xcc
   206ca:	9004      	str	r0, [sp, #16]
   206cc:	a805      	add	r0, sp, #20
   206ce:	2402      	movs	r4, #2
   206d0:	7004      	strb	r4, [r0, #0]
   206d2:	1c46      	adds	r6, r0, #1
   206d4:	225e      	movs	r2, #94	@ 0x5e
   206d6:	9203      	str	r2, [sp, #12]
   206d8:	4630      	mov	r0, r6
   206da:	f009 ff4d 	bl	2a578 <__aeabi_memcpy>
   206de:	ad1d      	add	r5, sp, #116	@ 0x74
   206e0:	1c68      	adds	r0, r5, #1
   206e2:	2155      	movs	r1, #85	@ 0x55
   206e4:	9002      	str	r0, [sp, #8]
   206e6:	f009 fd87 	bl	2a1f8 <__aeabi_memclr>
   206ea:	9401      	str	r4, [sp, #4]
   206ec:	702c      	strb	r4, [r5, #0]
   206ee:	483e      	ldr	r0, [pc, #248]	@ (207e8 <_ZN20complex_dynamic_type3app17h0565d1ffa222703aE+0x124>)
   206f0:	2107      	movs	r1, #7
   206f2:	4632      	mov	r2, r6
   206f4:	9b03      	ldr	r3, [sp, #12]
   206f6:	df04      	svc	4
   206f8:	2802      	cmp	r0, #2
   206fa:	d104      	bne.n	20706 <_ZN20complex_dynamic_type3app17h0565d1ffa222703aE+0x42>
   206fc:	2001      	movs	r0, #1
   206fe:	9a04      	ldr	r2, [sp, #16]
   20700:	7010      	strb	r0, [r2, #0]
   20702:	6051      	str	r1, [r2, #4]
   20704:	e02c      	b.n	20760 <_ZN20complex_dynamic_type3app17h0565d1ffa222703aE+0x9c>
   20706:	9d04      	ldr	r5, [sp, #16]
   20708:	a805      	add	r0, sp, #20
   2070a:	2104      	movs	r1, #4
   2070c:	7001      	strb	r1, [r0, #0]
   2070e:	4836      	ldr	r0, [pc, #216]	@ (207e8 <_ZN20complex_dynamic_type3app17h0565d1ffa222703aE+0x124>)
   20710:	2403      	movs	r4, #3
   20712:	2355      	movs	r3, #85	@ 0x55
   20714:	4621      	mov	r1, r4
   20716:	9a02      	ldr	r2, [sp, #8]
   20718:	df03      	svc	3
   2071a:	2802      	cmp	r0, #2
   2071c:	d10e      	bne.n	2073c <_ZN20complex_dynamic_type3app17h0565d1ffa222703aE+0x78>
   2071e:	2001      	movs	r0, #1
   20720:	7028      	strb	r0, [r5, #0]
   20722:	6069      	str	r1, [r5, #4]
   20724:	a81d      	add	r0, sp, #116	@ 0x74
   20726:	7800      	ldrb	r0, [r0, #0]
   20728:	2802      	cmp	r0, #2
   2072a:	d019      	beq.n	20760 <_ZN20complex_dynamic_type3app17h0565d1ffa222703aE+0x9c>
   2072c:	2803      	cmp	r0, #3
   2072e:	d012      	beq.n	20756 <_ZN20complex_dynamic_type3app17h0565d1ffa222703aE+0x92>
   20730:	482d      	ldr	r0, [pc, #180]	@ (207e8 <_ZN20complex_dynamic_type3app17h0565d1ffa222703aE+0x124>)
   20732:	2103      	movs	r1, #3
   20734:	2200      	movs	r2, #0
   20736:	4613      	mov	r3, r2
   20738:	df04      	svc	4
   2073a:	e011      	b.n	20760 <_ZN20complex_dynamic_type3app17h0565d1ffa222703aE+0x9c>
   2073c:	a81d      	add	r0, sp, #116	@ 0x74
   2073e:	7004      	strb	r4, [r0, #0]
   20740:	4829      	ldr	r0, [pc, #164]	@ (207e8 <_ZN20complex_dynamic_type3app17h0565d1ffa222703aE+0x124>)
   20742:	2107      	movs	r1, #7
   20744:	2600      	movs	r6, #0
   20746:	4622      	mov	r2, r4
   20748:	4633      	mov	r3, r6
   2074a:	df02      	svc	2
   2074c:	287f      	cmp	r0, #127	@ 0x7f
   2074e:	d816      	bhi.n	2077e <_ZN20complex_dynamic_type3app17h0565d1ffa222703aE+0xba>
   20750:	2001      	movs	r0, #1
   20752:	7028      	strb	r0, [r5, #0]
   20754:	6069      	str	r1, [r5, #4]
   20756:	4824      	ldr	r0, [pc, #144]	@ (207e8 <_ZN20complex_dynamic_type3app17h0565d1ffa222703aE+0x124>)
   20758:	2103      	movs	r1, #3
   2075a:	2200      	movs	r2, #0
   2075c:	4613      	mov	r3, r2
   2075e:	df03      	svc	3
   20760:	a805      	add	r0, sp, #20
   20762:	7804      	ldrb	r4, [r0, #0]
   20764:	2c02      	cmp	r4, #2
   20766:	d008      	beq.n	2077a <_ZN20complex_dynamic_type3app17h0565d1ffa222703aE+0xb6>
   20768:	481f      	ldr	r0, [pc, #124]	@ (207e8 <_ZN20complex_dynamic_type3app17h0565d1ffa222703aE+0x124>)
   2076a:	2107      	movs	r1, #7
   2076c:	2200      	movs	r2, #0
   2076e:	4613      	mov	r3, r2
   20770:	2c03      	cmp	r4, #3
   20772:	d101      	bne.n	20778 <_ZN20complex_dynamic_type3app17h0565d1ffa222703aE+0xb4>
   20774:	df03      	svc	3
   20776:	e000      	b.n	2077a <_ZN20complex_dynamic_type3app17h0565d1ffa222703aE+0xb6>
   20778:	df04      	svc	4
   2077a:	b033      	add	sp, #204	@ 0xcc
   2077c:	bdf0      	pop	{r4, r5, r6, r7, pc}
   2077e:	a805      	add	r0, sp, #20
   20780:	7800      	ldrb	r0, [r0, #0]
   20782:	2802      	cmp	r0, #2
   20784:	d01c      	beq.n	207c0 <_ZN20complex_dynamic_type3app17h0565d1ffa222703aE+0xfc>
   20786:	2803      	cmp	r0, #3
   20788:	d105      	bne.n	20796 <_ZN20complex_dynamic_type3app17h0565d1ffa222703aE+0xd2>
   2078a:	4817      	ldr	r0, [pc, #92]	@ (207e8 <_ZN20complex_dynamic_type3app17h0565d1ffa222703aE+0x124>)
   2078c:	2107      	movs	r1, #7
   2078e:	2200      	movs	r2, #0
   20790:	4613      	mov	r3, r2
   20792:	df03      	svc	3
   20794:	e004      	b.n	207a0 <_ZN20complex_dynamic_type3app17h0565d1ffa222703aE+0xdc>
   20796:	4814      	ldr	r0, [pc, #80]	@ (207e8 <_ZN20complex_dynamic_type3app17h0565d1ffa222703aE+0x124>)
   20798:	2107      	movs	r1, #7
   2079a:	2200      	movs	r2, #0
   2079c:	4613      	mov	r3, r2
   2079e:	df04      	svc	4
   207a0:	9901      	ldr	r1, [sp, #4]
   207a2:	a805      	add	r0, sp, #20
   207a4:	7001      	strb	r1, [r0, #0]
   207a6:	a81d      	add	r0, sp, #116	@ 0x74
   207a8:	7800      	ldrb	r0, [r0, #0]
   207aa:	2803      	cmp	r0, #3
   207ac:	d008      	beq.n	207c0 <_ZN20complex_dynamic_type3app17h0565d1ffa222703aE+0xfc>
   207ae:	2802      	cmp	r0, #2
   207b0:	d10c      	bne.n	207cc <_ZN20complex_dynamic_type3app17h0565d1ffa222703aE+0x108>
   207b2:	1c68      	adds	r0, r5, #1
   207b4:	2255      	movs	r2, #85	@ 0x55
   207b6:	9902      	ldr	r1, [sp, #8]
   207b8:	f009 fede 	bl	2a578 <__aeabi_memcpy>
   207bc:	702e      	strb	r6, [r5, #0]
   207be:	e7dc      	b.n	2077a <_ZN20complex_dynamic_type3app17h0565d1ffa222703aE+0xb6>
   207c0:	4809      	ldr	r0, [pc, #36]	@ (207e8 <_ZN20complex_dynamic_type3app17h0565d1ffa222703aE+0x124>)
   207c2:	2103      	movs	r1, #3
   207c4:	2200      	movs	r2, #0
   207c6:	4613      	mov	r3, r2
   207c8:	df03      	svc	3
   207ca:	e004      	b.n	207d6 <_ZN20complex_dynamic_type3app17h0565d1ffa222703aE+0x112>
   207cc:	4806      	ldr	r0, [pc, #24]	@ (207e8 <_ZN20complex_dynamic_type3app17h0565d1ffa222703aE+0x124>)
   207ce:	2103      	movs	r1, #3
   207d0:	2200      	movs	r2, #0
   207d2:	4613      	mov	r3, r2
   207d4:	df04      	svc	4
   207d6:	a805      	add	r0, sp, #20
   207d8:	7804      	ldrb	r4, [r0, #0]
   207da:	1c68      	adds	r0, r5, #1
   207dc:	2255      	movs	r2, #85	@ 0x55
   207de:	9902      	ldr	r1, [sp, #8]
   207e0:	f009 feca 	bl	2a578 <__aeabi_memcpy>
   207e4:	702e      	strb	r6, [r5, #0]
   207e6:	e7bd      	b.n	20764 <_ZN20complex_dynamic_type3app17h0565d1ffa222703aE+0xa0>
   207e8:	0000178a 	.word	0x0000178a

000207ec <_ZN20complex_dynamic_type3app17h0cad13c6d3d03556E>:
   207ec:	b5f0      	push	{r4, r5, r6, r7, lr}
   207ee:	af03      	add	r7, sp, #12
   207f0:	b09d      	sub	sp, #116	@ 0x74
   207f2:	9003      	str	r0, [sp, #12]
   207f4:	a804      	add	r0, sp, #16
   207f6:	2602      	movs	r6, #2
   207f8:	7006      	strb	r6, [r0, #0]
   207fa:	1c40      	adds	r0, r0, #1
   207fc:	9002      	str	r0, [sp, #8]
   207fe:	2538      	movs	r5, #56	@ 0x38
   20800:	462a      	mov	r2, r5
   20802:	f009 feb9 	bl	2a578 <__aeabi_memcpy>
   20806:	ac13      	add	r4, sp, #76	@ 0x4c
   20808:	1c60      	adds	r0, r4, #1
   2080a:	2127      	movs	r1, #39	@ 0x27
   2080c:	9001      	str	r0, [sp, #4]
   2080e:	f009 fcf3 	bl	2a1f8 <__aeabi_memclr>
   20812:	7026      	strb	r6, [r4, #0]
   20814:	4841      	ldr	r0, [pc, #260]	@ (2091c <_ZN20complex_dynamic_type3app17h0cad13c6d3d03556E+0x130>)
   20816:	4631      	mov	r1, r6
   20818:	9a02      	ldr	r2, [sp, #8]
   2081a:	462b      	mov	r3, r5
   2081c:	df04      	svc	4
   2081e:	2802      	cmp	r0, #2
   20820:	d104      	bne.n	2082c <_ZN20complex_dynamic_type3app17h0cad13c6d3d03556E+0x40>
   20822:	2001      	movs	r0, #1
   20824:	9a03      	ldr	r2, [sp, #12]
   20826:	7010      	strb	r0, [r2, #0]
   20828:	6051      	str	r1, [r2, #4]
   2082a:	e02e      	b.n	2088a <_ZN20complex_dynamic_type3app17h0cad13c6d3d03556E+0x9e>
   2082c:	9c03      	ldr	r4, [sp, #12]
   2082e:	a804      	add	r0, sp, #16
   20830:	2104      	movs	r1, #4
   20832:	7001      	strb	r1, [r0, #0]
   20834:	4839      	ldr	r0, [pc, #228]	@ (2091c <_ZN20complex_dynamic_type3app17h0cad13c6d3d03556E+0x130>)
   20836:	2108      	movs	r1, #8
   20838:	2327      	movs	r3, #39	@ 0x27
   2083a:	9d01      	ldr	r5, [sp, #4]
   2083c:	462a      	mov	r2, r5
   2083e:	df03      	svc	3
   20840:	2802      	cmp	r0, #2
   20842:	d10e      	bne.n	20862 <_ZN20complex_dynamic_type3app17h0cad13c6d3d03556E+0x76>
   20844:	2001      	movs	r0, #1
   20846:	7020      	strb	r0, [r4, #0]
   20848:	6061      	str	r1, [r4, #4]
   2084a:	a813      	add	r0, sp, #76	@ 0x4c
   2084c:	7800      	ldrb	r0, [r0, #0]
   2084e:	2802      	cmp	r0, #2
   20850:	d01b      	beq.n	2088a <_ZN20complex_dynamic_type3app17h0cad13c6d3d03556E+0x9e>
   20852:	2803      	cmp	r0, #3
   20854:	d014      	beq.n	20880 <_ZN20complex_dynamic_type3app17h0cad13c6d3d03556E+0x94>
   20856:	4831      	ldr	r0, [pc, #196]	@ (2091c <_ZN20complex_dynamic_type3app17h0cad13c6d3d03556E+0x130>)
   20858:	2108      	movs	r1, #8
   2085a:	2200      	movs	r2, #0
   2085c:	4613      	mov	r3, r2
   2085e:	df04      	svc	4
   20860:	e013      	b.n	2088a <_ZN20complex_dynamic_type3app17h0cad13c6d3d03556E+0x9e>
   20862:	a813      	add	r0, sp, #76	@ 0x4c
   20864:	2103      	movs	r1, #3
   20866:	7001      	strb	r1, [r0, #0]
   20868:	482c      	ldr	r0, [pc, #176]	@ (2091c <_ZN20complex_dynamic_type3app17h0cad13c6d3d03556E+0x130>)
   2086a:	2602      	movs	r6, #2
   2086c:	2208      	movs	r2, #8
   2086e:	2300      	movs	r3, #0
   20870:	4631      	mov	r1, r6
   20872:	9302      	str	r3, [sp, #8]
   20874:	df02      	svc	2
   20876:	287f      	cmp	r0, #127	@ 0x7f
   20878:	d816      	bhi.n	208a8 <_ZN20complex_dynamic_type3app17h0cad13c6d3d03556E+0xbc>
   2087a:	2001      	movs	r0, #1
   2087c:	7020      	strb	r0, [r4, #0]
   2087e:	6061      	str	r1, [r4, #4]
   20880:	4826      	ldr	r0, [pc, #152]	@ (2091c <_ZN20complex_dynamic_type3app17h0cad13c6d3d03556E+0x130>)
   20882:	2108      	movs	r1, #8
   20884:	2200      	movs	r2, #0
   20886:	4613      	mov	r3, r2
   20888:	df03      	svc	3
   2088a:	a804      	add	r0, sp, #16
   2088c:	7804      	ldrb	r4, [r0, #0]
   2088e:	2c02      	cmp	r4, #2
   20890:	d008      	beq.n	208a4 <_ZN20complex_dynamic_type3app17h0cad13c6d3d03556E+0xb8>
   20892:	4822      	ldr	r0, [pc, #136]	@ (2091c <_ZN20complex_dynamic_type3app17h0cad13c6d3d03556E+0x130>)
   20894:	2102      	movs	r1, #2
   20896:	2200      	movs	r2, #0
   20898:	4613      	mov	r3, r2
   2089a:	2c03      	cmp	r4, #3
   2089c:	d101      	bne.n	208a2 <_ZN20complex_dynamic_type3app17h0cad13c6d3d03556E+0xb6>
   2089e:	df03      	svc	3
   208a0:	e000      	b.n	208a4 <_ZN20complex_dynamic_type3app17h0cad13c6d3d03556E+0xb8>
   208a2:	df04      	svc	4
   208a4:	b01d      	add	sp, #116	@ 0x74
   208a6:	bdf0      	pop	{r4, r5, r6, r7, pc}
   208a8:	a804      	add	r0, sp, #16
   208aa:	7800      	ldrb	r0, [r0, #0]
   208ac:	2802      	cmp	r0, #2
   208ae:	d01c      	beq.n	208ea <_ZN20complex_dynamic_type3app17h0cad13c6d3d03556E+0xfe>
   208b0:	2803      	cmp	r0, #3
   208b2:	d105      	bne.n	208c0 <_ZN20complex_dynamic_type3app17h0cad13c6d3d03556E+0xd4>
   208b4:	4819      	ldr	r0, [pc, #100]	@ (2091c <_ZN20complex_dynamic_type3app17h0cad13c6d3d03556E+0x130>)
   208b6:	2102      	movs	r1, #2
   208b8:	2200      	movs	r2, #0
   208ba:	4613      	mov	r3, r2
   208bc:	df03      	svc	3
   208be:	e004      	b.n	208ca <_ZN20complex_dynamic_type3app17h0cad13c6d3d03556E+0xde>
   208c0:	4816      	ldr	r0, [pc, #88]	@ (2091c <_ZN20complex_dynamic_type3app17h0cad13c6d3d03556E+0x130>)
   208c2:	2102      	movs	r1, #2
   208c4:	2200      	movs	r2, #0
   208c6:	4613      	mov	r3, r2
   208c8:	df04      	svc	4
   208ca:	a804      	add	r0, sp, #16
   208cc:	7006      	strb	r6, [r0, #0]
   208ce:	a813      	add	r0, sp, #76	@ 0x4c
   208d0:	7800      	ldrb	r0, [r0, #0]
   208d2:	2803      	cmp	r0, #3
   208d4:	d009      	beq.n	208ea <_ZN20complex_dynamic_type3app17h0cad13c6d3d03556E+0xfe>
   208d6:	2802      	cmp	r0, #2
   208d8:	d10e      	bne.n	208f8 <_ZN20complex_dynamic_type3app17h0cad13c6d3d03556E+0x10c>
   208da:	1c60      	adds	r0, r4, #1
   208dc:	2227      	movs	r2, #39	@ 0x27
   208de:	4629      	mov	r1, r5
   208e0:	f009 fe4a 	bl	2a578 <__aeabi_memcpy>
   208e4:	9802      	ldr	r0, [sp, #8]
   208e6:	7020      	strb	r0, [r4, #0]
   208e8:	e7dc      	b.n	208a4 <_ZN20complex_dynamic_type3app17h0cad13c6d3d03556E+0xb8>
   208ea:	462e      	mov	r6, r5
   208ec:	480b      	ldr	r0, [pc, #44]	@ (2091c <_ZN20complex_dynamic_type3app17h0cad13c6d3d03556E+0x130>)
   208ee:	2108      	movs	r1, #8
   208f0:	2200      	movs	r2, #0
   208f2:	4613      	mov	r3, r2
   208f4:	df03      	svc	3
   208f6:	e005      	b.n	20904 <_ZN20complex_dynamic_type3app17h0cad13c6d3d03556E+0x118>
   208f8:	462e      	mov	r6, r5
   208fa:	4808      	ldr	r0, [pc, #32]	@ (2091c <_ZN20complex_dynamic_type3app17h0cad13c6d3d03556E+0x130>)
   208fc:	2108      	movs	r1, #8
   208fe:	2200      	movs	r2, #0
   20900:	4613      	mov	r3, r2
   20902:	df04      	svc	4
   20904:	4625      	mov	r5, r4
   20906:	a804      	add	r0, sp, #16
   20908:	7804      	ldrb	r4, [r0, #0]
   2090a:	1c68      	adds	r0, r5, #1
   2090c:	2227      	movs	r2, #39	@ 0x27
   2090e:	4631      	mov	r1, r6
   20910:	f009 fe32 	bl	2a578 <__aeabi_memcpy>
   20914:	9802      	ldr	r0, [sp, #8]
   20916:	7028      	strb	r0, [r5, #0]
   20918:	e7b9      	b.n	2088e <_ZN20complex_dynamic_type3app17h0cad13c6d3d03556E+0xa2>
   2091a:	46c0      	nop			@ (mov r8, r8)
   2091c:	00000e2b 	.word	0x00000e2b

00020920 <_ZN20complex_dynamic_type3app17h1046d7c4b6d748afE>:
   20920:	b5f0      	push	{r4, r5, r6, r7, lr}
   20922:	af03      	add	r7, sp, #12
   20924:	b0ad      	sub	sp, #180	@ 0xb4
   20926:	9003      	str	r0, [sp, #12]
   20928:	ae04      	add	r6, sp, #16
   2092a:	2502      	movs	r5, #2
   2092c:	7035      	strb	r5, [r6, #0]
   2092e:	1c70      	adds	r0, r6, #1
   20930:	2256      	movs	r2, #86	@ 0x56
   20932:	9202      	str	r2, [sp, #8]
   20934:	f009 fe20 	bl	2a578 <__aeabi_memcpy>
   20938:	ac1a      	add	r4, sp, #104	@ 0x68
   2093a:	1c60      	adds	r0, r4, #1
   2093c:	2149      	movs	r1, #73	@ 0x49
   2093e:	9001      	str	r0, [sp, #4]
   20940:	f009 fc5a 	bl	2a1f8 <__aeabi_memclr>
   20944:	7025      	strb	r5, [r4, #0]
   20946:	2204      	movs	r2, #4
   20948:	4630      	mov	r0, r6
   2094a:	9902      	ldr	r1, [sp, #8]
   2094c:	f7ff fcd8 	bl	20300 <_ZN9allow_pin12dynamic_type23Buffer$LT$B$C$_$C$_$GT$5allow17he6eb79ba6938f85eE>
   20950:	07c0      	lsls	r0, r0, #31
   20952:	d10e      	bne.n	20972 <_ZN20complex_dynamic_type3app17h1046d7c4b6d748afE+0x52>
   20954:	a81a      	add	r0, sp, #104	@ 0x68
   20956:	2149      	movs	r1, #73	@ 0x49
   20958:	2203      	movs	r2, #3
   2095a:	f7ff fcd1 	bl	20300 <_ZN9allow_pin12dynamic_type23Buffer$LT$B$C$_$C$_$GT$5allow17he6eb79ba6938f85eE>
   2095e:	07c0      	lsls	r0, r0, #31
   20960:	d107      	bne.n	20972 <_ZN20complex_dynamic_type3app17h1046d7c4b6d748afE+0x52>
   20962:	4831      	ldr	r0, [pc, #196]	@ (20a28 <_ZN20complex_dynamic_type3app17h1046d7c4b6d748afE+0x108>)
   20964:	2106      	movs	r1, #6
   20966:	2600      	movs	r6, #0
   20968:	460a      	mov	r2, r1
   2096a:	4633      	mov	r3, r6
   2096c:	df02      	svc	2
   2096e:	287f      	cmp	r0, #127	@ 0x7f
   20970:	d823      	bhi.n	209ba <_ZN20complex_dynamic_type3app17h1046d7c4b6d748afE+0x9a>
   20972:	2001      	movs	r0, #1
   20974:	9a03      	ldr	r2, [sp, #12]
   20976:	7010      	strb	r0, [r2, #0]
   20978:	6051      	str	r1, [r2, #4]
   2097a:	a81a      	add	r0, sp, #104	@ 0x68
   2097c:	7800      	ldrb	r0, [r0, #0]
   2097e:	2802      	cmp	r0, #2
   20980:	d00c      	beq.n	2099c <_ZN20complex_dynamic_type3app17h1046d7c4b6d748afE+0x7c>
   20982:	2803      	cmp	r0, #3
   20984:	d105      	bne.n	20992 <_ZN20complex_dynamic_type3app17h1046d7c4b6d748afE+0x72>
   20986:	4828      	ldr	r0, [pc, #160]	@ (20a28 <_ZN20complex_dynamic_type3app17h1046d7c4b6d748afE+0x108>)
   20988:	2106      	movs	r1, #6
   2098a:	2200      	movs	r2, #0
   2098c:	4613      	mov	r3, r2
   2098e:	df03      	svc	3
   20990:	e004      	b.n	2099c <_ZN20complex_dynamic_type3app17h1046d7c4b6d748afE+0x7c>
   20992:	4825      	ldr	r0, [pc, #148]	@ (20a28 <_ZN20complex_dynamic_type3app17h1046d7c4b6d748afE+0x108>)
   20994:	2106      	movs	r1, #6
   20996:	2200      	movs	r2, #0
   20998:	4613      	mov	r3, r2
   2099a:	df04      	svc	4
   2099c:	a804      	add	r0, sp, #16
   2099e:	7804      	ldrb	r4, [r0, #0]
   209a0:	2c02      	cmp	r4, #2
   209a2:	d008      	beq.n	209b6 <_ZN20complex_dynamic_type3app17h1046d7c4b6d748afE+0x96>
   209a4:	4820      	ldr	r0, [pc, #128]	@ (20a28 <_ZN20complex_dynamic_type3app17h1046d7c4b6d748afE+0x108>)
   209a6:	2106      	movs	r1, #6
   209a8:	2200      	movs	r2, #0
   209aa:	4613      	mov	r3, r2
   209ac:	2c03      	cmp	r4, #3
   209ae:	d101      	bne.n	209b4 <_ZN20complex_dynamic_type3app17h1046d7c4b6d748afE+0x94>
   209b0:	df03      	svc	3
   209b2:	e000      	b.n	209b6 <_ZN20complex_dynamic_type3app17h1046d7c4b6d748afE+0x96>
   209b4:	df04      	svc	4
   209b6:	b02d      	add	sp, #180	@ 0xb4
   209b8:	bdf0      	pop	{r4, r5, r6, r7, pc}
   209ba:	a804      	add	r0, sp, #16
   209bc:	7800      	ldrb	r0, [r0, #0]
   209be:	2802      	cmp	r0, #2
   209c0:	d00c      	beq.n	209dc <_ZN20complex_dynamic_type3app17h1046d7c4b6d748afE+0xbc>
   209c2:	2803      	cmp	r0, #3
   209c4:	d105      	bne.n	209d2 <_ZN20complex_dynamic_type3app17h1046d7c4b6d748afE+0xb2>
   209c6:	4818      	ldr	r0, [pc, #96]	@ (20a28 <_ZN20complex_dynamic_type3app17h1046d7c4b6d748afE+0x108>)
   209c8:	2106      	movs	r1, #6
   209ca:	2200      	movs	r2, #0
   209cc:	4613      	mov	r3, r2
   209ce:	df03      	svc	3
   209d0:	e004      	b.n	209dc <_ZN20complex_dynamic_type3app17h1046d7c4b6d748afE+0xbc>
   209d2:	4815      	ldr	r0, [pc, #84]	@ (20a28 <_ZN20complex_dynamic_type3app17h1046d7c4b6d748afE+0x108>)
   209d4:	2106      	movs	r1, #6
   209d6:	2200      	movs	r2, #0
   209d8:	4613      	mov	r3, r2
   209da:	df04      	svc	4
   209dc:	a804      	add	r0, sp, #16
   209de:	7005      	strb	r5, [r0, #0]
   209e0:	a81a      	add	r0, sp, #104	@ 0x68
   209e2:	7800      	ldrb	r0, [r0, #0]
   209e4:	2803      	cmp	r0, #3
   209e6:	d009      	beq.n	209fc <_ZN20complex_dynamic_type3app17h1046d7c4b6d748afE+0xdc>
   209e8:	2802      	cmp	r0, #2
   209ea:	d10d      	bne.n	20a08 <_ZN20complex_dynamic_type3app17h1046d7c4b6d748afE+0xe8>
   209ec:	9c03      	ldr	r4, [sp, #12]
   209ee:	1c60      	adds	r0, r4, #1
   209f0:	2249      	movs	r2, #73	@ 0x49
   209f2:	9901      	ldr	r1, [sp, #4]
   209f4:	f009 fdc0 	bl	2a578 <__aeabi_memcpy>
   209f8:	7026      	strb	r6, [r4, #0]
   209fa:	e7dc      	b.n	209b6 <_ZN20complex_dynamic_type3app17h1046d7c4b6d748afE+0x96>
   209fc:	480a      	ldr	r0, [pc, #40]	@ (20a28 <_ZN20complex_dynamic_type3app17h1046d7c4b6d748afE+0x108>)
   209fe:	2106      	movs	r1, #6
   20a00:	2200      	movs	r2, #0
   20a02:	4613      	mov	r3, r2
   20a04:	df03      	svc	3
   20a06:	e004      	b.n	20a12 <_ZN20complex_dynamic_type3app17h1046d7c4b6d748afE+0xf2>
   20a08:	4807      	ldr	r0, [pc, #28]	@ (20a28 <_ZN20complex_dynamic_type3app17h1046d7c4b6d748afE+0x108>)
   20a0a:	2106      	movs	r1, #6
   20a0c:	2200      	movs	r2, #0
   20a0e:	4613      	mov	r3, r2
   20a10:	df04      	svc	4
   20a12:	a804      	add	r0, sp, #16
   20a14:	7804      	ldrb	r4, [r0, #0]
   20a16:	9d03      	ldr	r5, [sp, #12]
   20a18:	1c68      	adds	r0, r5, #1
   20a1a:	2249      	movs	r2, #73	@ 0x49
   20a1c:	9901      	ldr	r1, [sp, #4]
   20a1e:	f009 fdab 	bl	2a578 <__aeabi_memcpy>
   20a22:	702e      	strb	r6, [r5, #0]
   20a24:	e7bc      	b.n	209a0 <_ZN20complex_dynamic_type3app17h1046d7c4b6d748afE+0x80>
   20a26:	46c0      	nop			@ (mov r8, r8)
   20a28:	00001c6b 	.word	0x00001c6b

00020a2c <_ZN20complex_dynamic_type3app17h113becc6d961bd7bE>:
   20a2c:	b5f0      	push	{r4, r5, r6, r7, lr}
   20a2e:	af03      	add	r7, sp, #12
   20a30:	b09d      	sub	sp, #116	@ 0x74
   20a32:	9004      	str	r0, [sp, #16]
   20a34:	a805      	add	r0, sp, #20
   20a36:	2602      	movs	r6, #2
   20a38:	7006      	strb	r6, [r0, #0]
   20a3a:	1c40      	adds	r0, r0, #1
   20a3c:	9003      	str	r0, [sp, #12]
   20a3e:	251e      	movs	r5, #30
   20a40:	462a      	mov	r2, r5
   20a42:	f009 fd99 	bl	2a578 <__aeabi_memcpy>
   20a46:	ac0d      	add	r4, sp, #52	@ 0x34
   20a48:	1c60      	adds	r0, r4, #1
   20a4a:	213c      	movs	r1, #60	@ 0x3c
   20a4c:	9002      	str	r0, [sp, #8]
   20a4e:	f009 fbd3 	bl	2a1f8 <__aeabi_memclr>
   20a52:	7026      	strb	r6, [r4, #0]
   20a54:	4841      	ldr	r0, [pc, #260]	@ (20b5c <_ZN20complex_dynamic_type3app17h113becc6d961bd7bE+0x130>)
   20a56:	4631      	mov	r1, r6
   20a58:	9a03      	ldr	r2, [sp, #12]
   20a5a:	462b      	mov	r3, r5
   20a5c:	df04      	svc	4
   20a5e:	2802      	cmp	r0, #2
   20a60:	d104      	bne.n	20a6c <_ZN20complex_dynamic_type3app17h113becc6d961bd7bE+0x40>
   20a62:	2001      	movs	r0, #1
   20a64:	9a04      	ldr	r2, [sp, #16]
   20a66:	7010      	strb	r0, [r2, #0]
   20a68:	6051      	str	r1, [r2, #4]
   20a6a:	e02e      	b.n	20aca <_ZN20complex_dynamic_type3app17h113becc6d961bd7bE+0x9e>
   20a6c:	9d04      	ldr	r5, [sp, #16]
   20a6e:	a805      	add	r0, sp, #20
   20a70:	2104      	movs	r1, #4
   20a72:	7001      	strb	r1, [r0, #0]
   20a74:	4839      	ldr	r0, [pc, #228]	@ (20b5c <_ZN20complex_dynamic_type3app17h113becc6d961bd7bE+0x130>)
   20a76:	2603      	movs	r6, #3
   20a78:	233c      	movs	r3, #60	@ 0x3c
   20a7a:	4631      	mov	r1, r6
   20a7c:	9c02      	ldr	r4, [sp, #8]
   20a7e:	4622      	mov	r2, r4
   20a80:	df03      	svc	3
   20a82:	2802      	cmp	r0, #2
   20a84:	d10e      	bne.n	20aa4 <_ZN20complex_dynamic_type3app17h113becc6d961bd7bE+0x78>
   20a86:	2001      	movs	r0, #1
   20a88:	7028      	strb	r0, [r5, #0]
   20a8a:	6069      	str	r1, [r5, #4]
   20a8c:	a80d      	add	r0, sp, #52	@ 0x34
   20a8e:	7800      	ldrb	r0, [r0, #0]
   20a90:	2802      	cmp	r0, #2
   20a92:	d01a      	beq.n	20aca <_ZN20complex_dynamic_type3app17h113becc6d961bd7bE+0x9e>
   20a94:	2803      	cmp	r0, #3
   20a96:	d013      	beq.n	20ac0 <_ZN20complex_dynamic_type3app17h113becc6d961bd7bE+0x94>
   20a98:	4830      	ldr	r0, [pc, #192]	@ (20b5c <_ZN20complex_dynamic_type3app17h113becc6d961bd7bE+0x130>)
   20a9a:	2103      	movs	r1, #3
   20a9c:	2200      	movs	r2, #0
   20a9e:	4613      	mov	r3, r2
   20aa0:	df04      	svc	4
   20aa2:	e012      	b.n	20aca <_ZN20complex_dynamic_type3app17h113becc6d961bd7bE+0x9e>
   20aa4:	a80d      	add	r0, sp, #52	@ 0x34
   20aa6:	7006      	strb	r6, [r0, #0]
   20aa8:	482c      	ldr	r0, [pc, #176]	@ (20b5c <_ZN20complex_dynamic_type3app17h113becc6d961bd7bE+0x130>)
   20aaa:	2102      	movs	r1, #2
   20aac:	2300      	movs	r3, #0
   20aae:	9101      	str	r1, [sp, #4]
   20ab0:	4632      	mov	r2, r6
   20ab2:	9303      	str	r3, [sp, #12]
   20ab4:	df02      	svc	2
   20ab6:	287f      	cmp	r0, #127	@ 0x7f
   20ab8:	d816      	bhi.n	20ae8 <_ZN20complex_dynamic_type3app17h113becc6d961bd7bE+0xbc>
   20aba:	2001      	movs	r0, #1
   20abc:	7028      	strb	r0, [r5, #0]
   20abe:	6069      	str	r1, [r5, #4]
   20ac0:	4826      	ldr	r0, [pc, #152]	@ (20b5c <_ZN20complex_dynamic_type3app17h113becc6d961bd7bE+0x130>)
   20ac2:	2103      	movs	r1, #3
   20ac4:	2200      	movs	r2, #0
   20ac6:	4613      	mov	r3, r2
   20ac8:	df03      	svc	3
   20aca:	a805      	add	r0, sp, #20
   20acc:	7804      	ldrb	r4, [r0, #0]
   20ace:	2c02      	cmp	r4, #2
   20ad0:	d008      	beq.n	20ae4 <_ZN20complex_dynamic_type3app17h113becc6d961bd7bE+0xb8>
   20ad2:	4822      	ldr	r0, [pc, #136]	@ (20b5c <_ZN20complex_dynamic_type3app17h113becc6d961bd7bE+0x130>)
   20ad4:	2102      	movs	r1, #2
   20ad6:	2200      	movs	r2, #0
   20ad8:	4613      	mov	r3, r2
   20ada:	2c03      	cmp	r4, #3
   20adc:	d101      	bne.n	20ae2 <_ZN20complex_dynamic_type3app17h113becc6d961bd7bE+0xb6>
   20ade:	df03      	svc	3
   20ae0:	e000      	b.n	20ae4 <_ZN20complex_dynamic_type3app17h113becc6d961bd7bE+0xb8>
   20ae2:	df04      	svc	4
   20ae4:	b01d      	add	sp, #116	@ 0x74
   20ae6:	bdf0      	pop	{r4, r5, r6, r7, pc}
   20ae8:	a805      	add	r0, sp, #20
   20aea:	7800      	ldrb	r0, [r0, #0]
   20aec:	2802      	cmp	r0, #2
   20aee:	d01d      	beq.n	20b2c <_ZN20complex_dynamic_type3app17h113becc6d961bd7bE+0x100>
   20af0:	2803      	cmp	r0, #3
   20af2:	d105      	bne.n	20b00 <_ZN20complex_dynamic_type3app17h113becc6d961bd7bE+0xd4>
   20af4:	4819      	ldr	r0, [pc, #100]	@ (20b5c <_ZN20complex_dynamic_type3app17h113becc6d961bd7bE+0x130>)
   20af6:	2102      	movs	r1, #2
   20af8:	2200      	movs	r2, #0
   20afa:	4613      	mov	r3, r2
   20afc:	df03      	svc	3
   20afe:	e004      	b.n	20b0a <_ZN20complex_dynamic_type3app17h113becc6d961bd7bE+0xde>
   20b00:	4816      	ldr	r0, [pc, #88]	@ (20b5c <_ZN20complex_dynamic_type3app17h113becc6d961bd7bE+0x130>)
   20b02:	2102      	movs	r1, #2
   20b04:	2200      	movs	r2, #0
   20b06:	4613      	mov	r3, r2
   20b08:	df04      	svc	4
   20b0a:	9901      	ldr	r1, [sp, #4]
   20b0c:	a805      	add	r0, sp, #20
   20b0e:	7001      	strb	r1, [r0, #0]
   20b10:	a80d      	add	r0, sp, #52	@ 0x34
   20b12:	7800      	ldrb	r0, [r0, #0]
   20b14:	2803      	cmp	r0, #3
   20b16:	d009      	beq.n	20b2c <_ZN20complex_dynamic_type3app17h113becc6d961bd7bE+0x100>
   20b18:	2802      	cmp	r0, #2
   20b1a:	d10e      	bne.n	20b3a <_ZN20complex_dynamic_type3app17h113becc6d961bd7bE+0x10e>
   20b1c:	1c68      	adds	r0, r5, #1
   20b1e:	223c      	movs	r2, #60	@ 0x3c
   20b20:	4621      	mov	r1, r4
   20b22:	f009 fd29 	bl	2a578 <__aeabi_memcpy>
   20b26:	9803      	ldr	r0, [sp, #12]
   20b28:	7028      	strb	r0, [r5, #0]
   20b2a:	e7db      	b.n	20ae4 <_ZN20complex_dynamic_type3app17h113becc6d961bd7bE+0xb8>
   20b2c:	4626      	mov	r6, r4
   20b2e:	480b      	ldr	r0, [pc, #44]	@ (20b5c <_ZN20complex_dynamic_type3app17h113becc6d961bd7bE+0x130>)
   20b30:	2103      	movs	r1, #3
   20b32:	2200      	movs	r2, #0
   20b34:	4613      	mov	r3, r2
   20b36:	df03      	svc	3
   20b38:	e005      	b.n	20b46 <_ZN20complex_dynamic_type3app17h113becc6d961bd7bE+0x11a>
   20b3a:	4626      	mov	r6, r4
   20b3c:	4807      	ldr	r0, [pc, #28]	@ (20b5c <_ZN20complex_dynamic_type3app17h113becc6d961bd7bE+0x130>)
   20b3e:	2103      	movs	r1, #3
   20b40:	2200      	movs	r2, #0
   20b42:	4613      	mov	r3, r2
   20b44:	df04      	svc	4
   20b46:	a805      	add	r0, sp, #20
   20b48:	7804      	ldrb	r4, [r0, #0]
   20b4a:	1c68      	adds	r0, r5, #1
   20b4c:	223c      	movs	r2, #60	@ 0x3c
   20b4e:	4631      	mov	r1, r6
   20b50:	f009 fd12 	bl	2a578 <__aeabi_memcpy>
   20b54:	9803      	ldr	r0, [sp, #12]
   20b56:	7028      	strb	r0, [r5, #0]
   20b58:	e7b9      	b.n	20ace <_ZN20complex_dynamic_type3app17h113becc6d961bd7bE+0xa2>
   20b5a:	46c0      	nop			@ (mov r8, r8)
   20b5c:	00000b3c 	.word	0x00000b3c

00020b60 <_ZN20complex_dynamic_type3app17h1367f443fbcad68dE>:
   20b60:	b5f0      	push	{r4, r5, r6, r7, lr}
   20b62:	af03      	add	r7, sp, #12
   20b64:	b0a1      	sub	sp, #132	@ 0x84
   20b66:	9003      	str	r0, [sp, #12]
   20b68:	a804      	add	r0, sp, #16
   20b6a:	2502      	movs	r5, #2
   20b6c:	7005      	strb	r5, [r0, #0]
   20b6e:	1c40      	adds	r0, r0, #1
   20b70:	9002      	str	r0, [sp, #8]
   20b72:	2638      	movs	r6, #56	@ 0x38
   20b74:	4632      	mov	r2, r6
   20b76:	f009 fcff 	bl	2a578 <__aeabi_memcpy>
   20b7a:	ac13      	add	r4, sp, #76	@ 0x4c
   20b7c:	1c60      	adds	r0, r4, #1
   20b7e:	2134      	movs	r1, #52	@ 0x34
   20b80:	9001      	str	r0, [sp, #4]
   20b82:	f009 fb39 	bl	2a1f8 <__aeabi_memclr>
   20b86:	9500      	str	r5, [sp, #0]
   20b88:	7025      	strb	r5, [r4, #0]
   20b8a:	2097      	movs	r0, #151	@ 0x97
   20b8c:	0044      	lsls	r4, r0, #1
   20b8e:	2108      	movs	r1, #8
   20b90:	4620      	mov	r0, r4
   20b92:	9a02      	ldr	r2, [sp, #8]
   20b94:	4633      	mov	r3, r6
   20b96:	df04      	svc	4
   20b98:	2802      	cmp	r0, #2
   20b9a:	d104      	bne.n	20ba6 <_ZN20complex_dynamic_type3app17h1367f443fbcad68dE+0x46>
   20b9c:	2001      	movs	r0, #1
   20b9e:	9a03      	ldr	r2, [sp, #12]
   20ba0:	7010      	strb	r0, [r2, #0]
   20ba2:	6051      	str	r1, [r2, #4]
   20ba4:	e02c      	b.n	20c00 <_ZN20complex_dynamic_type3app17h1367f443fbcad68dE+0xa0>
   20ba6:	9e03      	ldr	r6, [sp, #12]
   20ba8:	a804      	add	r0, sp, #16
   20baa:	2104      	movs	r1, #4
   20bac:	7001      	strb	r1, [r0, #0]
   20bae:	2503      	movs	r5, #3
   20bb0:	2334      	movs	r3, #52	@ 0x34
   20bb2:	4620      	mov	r0, r4
   20bb4:	4629      	mov	r1, r5
   20bb6:	9a01      	ldr	r2, [sp, #4]
   20bb8:	df03      	svc	3
   20bba:	2802      	cmp	r0, #2
   20bbc:	d10e      	bne.n	20bdc <_ZN20complex_dynamic_type3app17h1367f443fbcad68dE+0x7c>
   20bbe:	2001      	movs	r0, #1
   20bc0:	7030      	strb	r0, [r6, #0]
   20bc2:	6071      	str	r1, [r6, #4]
   20bc4:	a813      	add	r0, sp, #76	@ 0x4c
   20bc6:	7800      	ldrb	r0, [r0, #0]
   20bc8:	2802      	cmp	r0, #2
   20bca:	d019      	beq.n	20c00 <_ZN20complex_dynamic_type3app17h1367f443fbcad68dE+0xa0>
   20bcc:	2803      	cmp	r0, #3
   20bce:	d012      	beq.n	20bf6 <_ZN20complex_dynamic_type3app17h1367f443fbcad68dE+0x96>
   20bd0:	2103      	movs	r1, #3
   20bd2:	2200      	movs	r2, #0
   20bd4:	4620      	mov	r0, r4
   20bd6:	4613      	mov	r3, r2
   20bd8:	df04      	svc	4
   20bda:	e011      	b.n	20c00 <_ZN20complex_dynamic_type3app17h1367f443fbcad68dE+0xa0>
   20bdc:	a813      	add	r0, sp, #76	@ 0x4c
   20bde:	7005      	strb	r5, [r0, #0]
   20be0:	2108      	movs	r1, #8
   20be2:	2300      	movs	r3, #0
   20be4:	4620      	mov	r0, r4
   20be6:	462a      	mov	r2, r5
   20be8:	9302      	str	r3, [sp, #8]
   20bea:	df02      	svc	2
   20bec:	287f      	cmp	r0, #127	@ 0x7f
   20bee:	d817      	bhi.n	20c20 <_ZN20complex_dynamic_type3app17h1367f443fbcad68dE+0xc0>
   20bf0:	2001      	movs	r0, #1
   20bf2:	7030      	strb	r0, [r6, #0]
   20bf4:	6071      	str	r1, [r6, #4]
   20bf6:	2103      	movs	r1, #3
   20bf8:	2200      	movs	r2, #0
   20bfa:	4620      	mov	r0, r4
   20bfc:	4613      	mov	r3, r2
   20bfe:	df03      	svc	3
   20c00:	4625      	mov	r5, r4
   20c02:	a804      	add	r0, sp, #16
   20c04:	7804      	ldrb	r4, [r0, #0]
   20c06:	2c02      	cmp	r4, #2
   20c08:	d008      	beq.n	20c1c <_ZN20complex_dynamic_type3app17h1367f443fbcad68dE+0xbc>
   20c0a:	2108      	movs	r1, #8
   20c0c:	2200      	movs	r2, #0
   20c0e:	4628      	mov	r0, r5
   20c10:	4613      	mov	r3, r2
   20c12:	2c03      	cmp	r4, #3
   20c14:	d101      	bne.n	20c1a <_ZN20complex_dynamic_type3app17h1367f443fbcad68dE+0xba>
   20c16:	df03      	svc	3
   20c18:	e000      	b.n	20c1c <_ZN20complex_dynamic_type3app17h1367f443fbcad68dE+0xbc>
   20c1a:	df04      	svc	4
   20c1c:	b021      	add	sp, #132	@ 0x84
   20c1e:	bdf0      	pop	{r4, r5, r6, r7, pc}
   20c20:	a804      	add	r0, sp, #16
   20c22:	7800      	ldrb	r0, [r0, #0]
   20c24:	2802      	cmp	r0, #2
   20c26:	9d01      	ldr	r5, [sp, #4]
   20c28:	d01b      	beq.n	20c62 <_ZN20complex_dynamic_type3app17h1367f443fbcad68dE+0x102>
   20c2a:	2108      	movs	r1, #8
   20c2c:	2200      	movs	r2, #0
   20c2e:	2803      	cmp	r0, #3
   20c30:	d103      	bne.n	20c3a <_ZN20complex_dynamic_type3app17h1367f443fbcad68dE+0xda>
   20c32:	4620      	mov	r0, r4
   20c34:	4613      	mov	r3, r2
   20c36:	df03      	svc	3
   20c38:	e002      	b.n	20c40 <_ZN20complex_dynamic_type3app17h1367f443fbcad68dE+0xe0>
   20c3a:	4620      	mov	r0, r4
   20c3c:	4613      	mov	r3, r2
   20c3e:	df04      	svc	4
   20c40:	a804      	add	r0, sp, #16
   20c42:	9900      	ldr	r1, [sp, #0]
   20c44:	7001      	strb	r1, [r0, #0]
   20c46:	a813      	add	r0, sp, #76	@ 0x4c
   20c48:	7800      	ldrb	r0, [r0, #0]
   20c4a:	2803      	cmp	r0, #3
   20c4c:	d009      	beq.n	20c62 <_ZN20complex_dynamic_type3app17h1367f443fbcad68dE+0x102>
   20c4e:	2802      	cmp	r0, #2
   20c50:	d10e      	bne.n	20c70 <_ZN20complex_dynamic_type3app17h1367f443fbcad68dE+0x110>
   20c52:	1c70      	adds	r0, r6, #1
   20c54:	2234      	movs	r2, #52	@ 0x34
   20c56:	4629      	mov	r1, r5
   20c58:	f009 fc8e 	bl	2a578 <__aeabi_memcpy>
   20c5c:	9802      	ldr	r0, [sp, #8]
   20c5e:	7030      	strb	r0, [r6, #0]
   20c60:	e7dc      	b.n	20c1c <_ZN20complex_dynamic_type3app17h1367f443fbcad68dE+0xbc>
   20c62:	2103      	movs	r1, #3
   20c64:	2200      	movs	r2, #0
   20c66:	4625      	mov	r5, r4
   20c68:	4620      	mov	r0, r4
   20c6a:	4613      	mov	r3, r2
   20c6c:	df03      	svc	3
   20c6e:	e005      	b.n	20c7c <_ZN20complex_dynamic_type3app17h1367f443fbcad68dE+0x11c>
   20c70:	2103      	movs	r1, #3
   20c72:	2200      	movs	r2, #0
   20c74:	4625      	mov	r5, r4
   20c76:	4620      	mov	r0, r4
   20c78:	4613      	mov	r3, r2
   20c7a:	df04      	svc	4
   20c7c:	a804      	add	r0, sp, #16
   20c7e:	7804      	ldrb	r4, [r0, #0]
   20c80:	1c70      	adds	r0, r6, #1
   20c82:	2234      	movs	r2, #52	@ 0x34
   20c84:	9901      	ldr	r1, [sp, #4]
   20c86:	f009 fc77 	bl	2a578 <__aeabi_memcpy>
   20c8a:	9802      	ldr	r0, [sp, #8]
   20c8c:	7030      	strb	r0, [r6, #0]
   20c8e:	e7ba      	b.n	20c06 <_ZN20complex_dynamic_type3app17h1367f443fbcad68dE+0xa6>

00020c90 <_ZN20complex_dynamic_type3app17h177c4157ead0f878E>:
   20c90:	b5f0      	push	{r4, r5, r6, r7, lr}
   20c92:	af03      	add	r7, sp, #12
   20c94:	b095      	sub	sp, #84	@ 0x54
   20c96:	9004      	str	r0, [sp, #16]
   20c98:	a805      	add	r0, sp, #20
   20c9a:	2402      	movs	r4, #2
   20c9c:	7004      	strb	r4, [r0, #0]
   20c9e:	1c46      	adds	r6, r0, #1
   20ca0:	2227      	movs	r2, #39	@ 0x27
   20ca2:	9203      	str	r2, [sp, #12]
   20ca4:	4630      	mov	r0, r6
   20ca6:	f009 fc67 	bl	2a578 <__aeabi_memcpy>
   20caa:	ad0f      	add	r5, sp, #60	@ 0x3c
   20cac:	1c68      	adds	r0, r5, #1
   20cae:	2114      	movs	r1, #20
   20cb0:	9002      	str	r0, [sp, #8]
   20cb2:	f009 faa1 	bl	2a1f8 <__aeabi_memclr>
   20cb6:	9401      	str	r4, [sp, #4]
   20cb8:	702c      	strb	r4, [r5, #0]
   20cba:	483f      	ldr	r0, [pc, #252]	@ (20db8 <_ZN20complex_dynamic_type3app17h177c4157ead0f878E+0x128>)
   20cbc:	2106      	movs	r1, #6
   20cbe:	4632      	mov	r2, r6
   20cc0:	9b03      	ldr	r3, [sp, #12]
   20cc2:	df04      	svc	4
   20cc4:	2802      	cmp	r0, #2
   20cc6:	d104      	bne.n	20cd2 <_ZN20complex_dynamic_type3app17h177c4157ead0f878E+0x42>
   20cc8:	2001      	movs	r0, #1
   20cca:	9a04      	ldr	r2, [sp, #16]
   20ccc:	7010      	strb	r0, [r2, #0]
   20cce:	6051      	str	r1, [r2, #4]
   20cd0:	e02d      	b.n	20d2e <_ZN20complex_dynamic_type3app17h177c4157ead0f878E+0x9e>
   20cd2:	9d04      	ldr	r5, [sp, #16]
   20cd4:	a805      	add	r0, sp, #20
   20cd6:	2104      	movs	r1, #4
   20cd8:	7001      	strb	r1, [r0, #0]
   20cda:	4837      	ldr	r0, [pc, #220]	@ (20db8 <_ZN20complex_dynamic_type3app17h177c4157ead0f878E+0x128>)
   20cdc:	2105      	movs	r1, #5
   20cde:	2314      	movs	r3, #20
   20ce0:	9c02      	ldr	r4, [sp, #8]
   20ce2:	4622      	mov	r2, r4
   20ce4:	df03      	svc	3
   20ce6:	2802      	cmp	r0, #2
   20ce8:	d10e      	bne.n	20d08 <_ZN20complex_dynamic_type3app17h177c4157ead0f878E+0x78>
   20cea:	2001      	movs	r0, #1
   20cec:	7028      	strb	r0, [r5, #0]
   20cee:	6069      	str	r1, [r5, #4]
   20cf0:	a80f      	add	r0, sp, #60	@ 0x3c
   20cf2:	7800      	ldrb	r0, [r0, #0]
   20cf4:	2802      	cmp	r0, #2
   20cf6:	d01a      	beq.n	20d2e <_ZN20complex_dynamic_type3app17h177c4157ead0f878E+0x9e>
   20cf8:	2803      	cmp	r0, #3
   20cfa:	d013      	beq.n	20d24 <_ZN20complex_dynamic_type3app17h177c4157ead0f878E+0x94>
   20cfc:	482e      	ldr	r0, [pc, #184]	@ (20db8 <_ZN20complex_dynamic_type3app17h177c4157ead0f878E+0x128>)
   20cfe:	2105      	movs	r1, #5
   20d00:	2200      	movs	r2, #0
   20d02:	4613      	mov	r3, r2
   20d04:	df04      	svc	4
   20d06:	e012      	b.n	20d2e <_ZN20complex_dynamic_type3app17h177c4157ead0f878E+0x9e>
   20d08:	a80f      	add	r0, sp, #60	@ 0x3c
   20d0a:	2103      	movs	r1, #3
   20d0c:	7001      	strb	r1, [r0, #0]
   20d0e:	482a      	ldr	r0, [pc, #168]	@ (20db8 <_ZN20complex_dynamic_type3app17h177c4157ead0f878E+0x128>)
   20d10:	2106      	movs	r1, #6
   20d12:	2205      	movs	r2, #5
   20d14:	2600      	movs	r6, #0
   20d16:	4633      	mov	r3, r6
   20d18:	df02      	svc	2
   20d1a:	287f      	cmp	r0, #127	@ 0x7f
   20d1c:	d816      	bhi.n	20d4c <_ZN20complex_dynamic_type3app17h177c4157ead0f878E+0xbc>
   20d1e:	2001      	movs	r0, #1
   20d20:	7028      	strb	r0, [r5, #0]
   20d22:	6069      	str	r1, [r5, #4]
   20d24:	4824      	ldr	r0, [pc, #144]	@ (20db8 <_ZN20complex_dynamic_type3app17h177c4157ead0f878E+0x128>)
   20d26:	2105      	movs	r1, #5
   20d28:	2200      	movs	r2, #0
   20d2a:	4613      	mov	r3, r2
   20d2c:	df03      	svc	3
   20d2e:	a805      	add	r0, sp, #20
   20d30:	7804      	ldrb	r4, [r0, #0]
   20d32:	2c02      	cmp	r4, #2
   20d34:	d008      	beq.n	20d48 <_ZN20complex_dynamic_type3app17h177c4157ead0f878E+0xb8>
   20d36:	4820      	ldr	r0, [pc, #128]	@ (20db8 <_ZN20complex_dynamic_type3app17h177c4157ead0f878E+0x128>)
   20d38:	2106      	movs	r1, #6
   20d3a:	2200      	movs	r2, #0
   20d3c:	4613      	mov	r3, r2
   20d3e:	2c03      	cmp	r4, #3
   20d40:	d101      	bne.n	20d46 <_ZN20complex_dynamic_type3app17h177c4157ead0f878E+0xb6>
   20d42:	df03      	svc	3
   20d44:	e000      	b.n	20d48 <_ZN20complex_dynamic_type3app17h177c4157ead0f878E+0xb8>
   20d46:	df04      	svc	4
   20d48:	b015      	add	sp, #84	@ 0x54
   20d4a:	bdf0      	pop	{r4, r5, r6, r7, pc}
   20d4c:	a805      	add	r0, sp, #20
   20d4e:	7800      	ldrb	r0, [r0, #0]
   20d50:	2802      	cmp	r0, #2
   20d52:	d01c      	beq.n	20d8e <_ZN20complex_dynamic_type3app17h177c4157ead0f878E+0xfe>
   20d54:	2803      	cmp	r0, #3
   20d56:	d105      	bne.n	20d64 <_ZN20complex_dynamic_type3app17h177c4157ead0f878E+0xd4>
   20d58:	4817      	ldr	r0, [pc, #92]	@ (20db8 <_ZN20complex_dynamic_type3app17h177c4157ead0f878E+0x128>)
   20d5a:	2106      	movs	r1, #6
   20d5c:	2200      	movs	r2, #0
   20d5e:	4613      	mov	r3, r2
   20d60:	df03      	svc	3
   20d62:	e004      	b.n	20d6e <_ZN20complex_dynamic_type3app17h177c4157ead0f878E+0xde>
   20d64:	4814      	ldr	r0, [pc, #80]	@ (20db8 <_ZN20complex_dynamic_type3app17h177c4157ead0f878E+0x128>)
   20d66:	2106      	movs	r1, #6
   20d68:	2200      	movs	r2, #0
   20d6a:	4613      	mov	r3, r2
   20d6c:	df04      	svc	4
   20d6e:	a805      	add	r0, sp, #20
   20d70:	9901      	ldr	r1, [sp, #4]
   20d72:	7001      	strb	r1, [r0, #0]
   20d74:	a80f      	add	r0, sp, #60	@ 0x3c
   20d76:	7800      	ldrb	r0, [r0, #0]
   20d78:	2803      	cmp	r0, #3
   20d7a:	d008      	beq.n	20d8e <_ZN20complex_dynamic_type3app17h177c4157ead0f878E+0xfe>
   20d7c:	2802      	cmp	r0, #2
   20d7e:	d10c      	bne.n	20d9a <_ZN20complex_dynamic_type3app17h177c4157ead0f878E+0x10a>
   20d80:	1c68      	adds	r0, r5, #1
   20d82:	2214      	movs	r2, #20
   20d84:	4621      	mov	r1, r4
   20d86:	f009 fbf7 	bl	2a578 <__aeabi_memcpy>
   20d8a:	702e      	strb	r6, [r5, #0]
   20d8c:	e7dc      	b.n	20d48 <_ZN20complex_dynamic_type3app17h177c4157ead0f878E+0xb8>
   20d8e:	480a      	ldr	r0, [pc, #40]	@ (20db8 <_ZN20complex_dynamic_type3app17h177c4157ead0f878E+0x128>)
   20d90:	2105      	movs	r1, #5
   20d92:	2200      	movs	r2, #0
   20d94:	4613      	mov	r3, r2
   20d96:	df03      	svc	3
   20d98:	e004      	b.n	20da4 <_ZN20complex_dynamic_type3app17h177c4157ead0f878E+0x114>
   20d9a:	4807      	ldr	r0, [pc, #28]	@ (20db8 <_ZN20complex_dynamic_type3app17h177c4157ead0f878E+0x128>)
   20d9c:	2105      	movs	r1, #5
   20d9e:	2200      	movs	r2, #0
   20da0:	4613      	mov	r3, r2
   20da2:	df04      	svc	4
   20da4:	a805      	add	r0, sp, #20
   20da6:	7804      	ldrb	r4, [r0, #0]
   20da8:	1c68      	adds	r0, r5, #1
   20daa:	2214      	movs	r2, #20
   20dac:	9902      	ldr	r1, [sp, #8]
   20dae:	f009 fbe3 	bl	2a578 <__aeabi_memcpy>
   20db2:	702e      	strb	r6, [r5, #0]
   20db4:	e7bd      	b.n	20d32 <_ZN20complex_dynamic_type3app17h177c4157ead0f878E+0xa2>
   20db6:	46c0      	nop			@ (mov r8, r8)
   20db8:	000022c9 	.word	0x000022c9

00020dbc <_ZN20complex_dynamic_type3app17h189b413d8d5e6a8fE>:
   20dbc:	b5f0      	push	{r4, r5, r6, r7, lr}
   20dbe:	af03      	add	r7, sp, #12
   20dc0:	b09f      	sub	sp, #124	@ 0x7c
   20dc2:	9004      	str	r0, [sp, #16]
   20dc4:	a805      	add	r0, sp, #20
   20dc6:	2402      	movs	r4, #2
   20dc8:	7004      	strb	r4, [r0, #0]
   20dca:	1c40      	adds	r0, r0, #1
   20dcc:	9003      	str	r0, [sp, #12]
   20dce:	2532      	movs	r5, #50	@ 0x32
   20dd0:	462a      	mov	r2, r5
   20dd2:	f009 fbd1 	bl	2a578 <__aeabi_memcpy>
   20dd6:	ae12      	add	r6, sp, #72	@ 0x48
   20dd8:	1c70      	adds	r0, r6, #1
   20dda:	9002      	str	r0, [sp, #8]
   20ddc:	4629      	mov	r1, r5
   20dde:	f009 fa0b 	bl	2a1f8 <__aeabi_memclr>
   20de2:	9401      	str	r4, [sp, #4]
   20de4:	7034      	strb	r4, [r6, #0]
   20de6:	4840      	ldr	r0, [pc, #256]	@ (20ee8 <_ZN20complex_dynamic_type3app17h189b413d8d5e6a8fE+0x12c>)
   20de8:	2603      	movs	r6, #3
   20dea:	4631      	mov	r1, r6
   20dec:	9a03      	ldr	r2, [sp, #12]
   20dee:	462b      	mov	r3, r5
   20df0:	df04      	svc	4
   20df2:	2802      	cmp	r0, #2
   20df4:	d104      	bne.n	20e00 <_ZN20complex_dynamic_type3app17h189b413d8d5e6a8fE+0x44>
   20df6:	2001      	movs	r0, #1
   20df8:	9a04      	ldr	r2, [sp, #16]
   20dfa:	7010      	strb	r0, [r2, #0]
   20dfc:	6051      	str	r1, [r2, #4]
   20dfe:	e02b      	b.n	20e58 <_ZN20complex_dynamic_type3app17h189b413d8d5e6a8fE+0x9c>
   20e00:	9d04      	ldr	r5, [sp, #16]
   20e02:	a805      	add	r0, sp, #20
   20e04:	2104      	movs	r1, #4
   20e06:	7001      	strb	r1, [r0, #0]
   20e08:	4837      	ldr	r0, [pc, #220]	@ (20ee8 <_ZN20complex_dynamic_type3app17h189b413d8d5e6a8fE+0x12c>)
   20e0a:	2401      	movs	r4, #1
   20e0c:	2332      	movs	r3, #50	@ 0x32
   20e0e:	4621      	mov	r1, r4
   20e10:	9a02      	ldr	r2, [sp, #8]
   20e12:	df03      	svc	3
   20e14:	2802      	cmp	r0, #2
   20e16:	d10d      	bne.n	20e34 <_ZN20complex_dynamic_type3app17h189b413d8d5e6a8fE+0x78>
   20e18:	702c      	strb	r4, [r5, #0]
   20e1a:	6069      	str	r1, [r5, #4]
   20e1c:	a812      	add	r0, sp, #72	@ 0x48
   20e1e:	7800      	ldrb	r0, [r0, #0]
   20e20:	2802      	cmp	r0, #2
   20e22:	d019      	beq.n	20e58 <_ZN20complex_dynamic_type3app17h189b413d8d5e6a8fE+0x9c>
   20e24:	2803      	cmp	r0, #3
   20e26:	d012      	beq.n	20e4e <_ZN20complex_dynamic_type3app17h189b413d8d5e6a8fE+0x92>
   20e28:	482f      	ldr	r0, [pc, #188]	@ (20ee8 <_ZN20complex_dynamic_type3app17h189b413d8d5e6a8fE+0x12c>)
   20e2a:	2101      	movs	r1, #1
   20e2c:	2200      	movs	r2, #0
   20e2e:	4613      	mov	r3, r2
   20e30:	df04      	svc	4
   20e32:	e011      	b.n	20e58 <_ZN20complex_dynamic_type3app17h189b413d8d5e6a8fE+0x9c>
   20e34:	a812      	add	r0, sp, #72	@ 0x48
   20e36:	7006      	strb	r6, [r0, #0]
   20e38:	482b      	ldr	r0, [pc, #172]	@ (20ee8 <_ZN20complex_dynamic_type3app17h189b413d8d5e6a8fE+0x12c>)
   20e3a:	2401      	movs	r4, #1
   20e3c:	2300      	movs	r3, #0
   20e3e:	4631      	mov	r1, r6
   20e40:	4622      	mov	r2, r4
   20e42:	9303      	str	r3, [sp, #12]
   20e44:	df02      	svc	2
   20e46:	287f      	cmp	r0, #127	@ 0x7f
   20e48:	d815      	bhi.n	20e76 <_ZN20complex_dynamic_type3app17h189b413d8d5e6a8fE+0xba>
   20e4a:	702c      	strb	r4, [r5, #0]
   20e4c:	6069      	str	r1, [r5, #4]
   20e4e:	4826      	ldr	r0, [pc, #152]	@ (20ee8 <_ZN20complex_dynamic_type3app17h189b413d8d5e6a8fE+0x12c>)
   20e50:	2101      	movs	r1, #1
   20e52:	2200      	movs	r2, #0
   20e54:	4613      	mov	r3, r2
   20e56:	df03      	svc	3
   20e58:	a805      	add	r0, sp, #20
   20e5a:	7804      	ldrb	r4, [r0, #0]
   20e5c:	2c02      	cmp	r4, #2
   20e5e:	d008      	beq.n	20e72 <_ZN20complex_dynamic_type3app17h189b413d8d5e6a8fE+0xb6>
   20e60:	4821      	ldr	r0, [pc, #132]	@ (20ee8 <_ZN20complex_dynamic_type3app17h189b413d8d5e6a8fE+0x12c>)
   20e62:	2103      	movs	r1, #3
   20e64:	2200      	movs	r2, #0
   20e66:	4613      	mov	r3, r2
   20e68:	2c03      	cmp	r4, #3
   20e6a:	d101      	bne.n	20e70 <_ZN20complex_dynamic_type3app17h189b413d8d5e6a8fE+0xb4>
   20e6c:	df03      	svc	3
   20e6e:	e000      	b.n	20e72 <_ZN20complex_dynamic_type3app17h189b413d8d5e6a8fE+0xb6>
   20e70:	df04      	svc	4
   20e72:	b01f      	add	sp, #124	@ 0x7c
   20e74:	bdf0      	pop	{r4, r5, r6, r7, pc}
   20e76:	a805      	add	r0, sp, #20
   20e78:	7800      	ldrb	r0, [r0, #0]
   20e7a:	2802      	cmp	r0, #2
   20e7c:	9e02      	ldr	r6, [sp, #8]
   20e7e:	d01d      	beq.n	20ebc <_ZN20complex_dynamic_type3app17h189b413d8d5e6a8fE+0x100>
   20e80:	2803      	cmp	r0, #3
   20e82:	d105      	bne.n	20e90 <_ZN20complex_dynamic_type3app17h189b413d8d5e6a8fE+0xd4>
   20e84:	4818      	ldr	r0, [pc, #96]	@ (20ee8 <_ZN20complex_dynamic_type3app17h189b413d8d5e6a8fE+0x12c>)
   20e86:	2103      	movs	r1, #3
   20e88:	2200      	movs	r2, #0
   20e8a:	4613      	mov	r3, r2
   20e8c:	df03      	svc	3
   20e8e:	e004      	b.n	20e9a <_ZN20complex_dynamic_type3app17h189b413d8d5e6a8fE+0xde>
   20e90:	4815      	ldr	r0, [pc, #84]	@ (20ee8 <_ZN20complex_dynamic_type3app17h189b413d8d5e6a8fE+0x12c>)
   20e92:	2103      	movs	r1, #3
   20e94:	2200      	movs	r2, #0
   20e96:	4613      	mov	r3, r2
   20e98:	df04      	svc	4
   20e9a:	9901      	ldr	r1, [sp, #4]
   20e9c:	a805      	add	r0, sp, #20
   20e9e:	7001      	strb	r1, [r0, #0]
   20ea0:	a812      	add	r0, sp, #72	@ 0x48
   20ea2:	7800      	ldrb	r0, [r0, #0]
   20ea4:	2803      	cmp	r0, #3
   20ea6:	d009      	beq.n	20ebc <_ZN20complex_dynamic_type3app17h189b413d8d5e6a8fE+0x100>
   20ea8:	2802      	cmp	r0, #2
   20eaa:	d10d      	bne.n	20ec8 <_ZN20complex_dynamic_type3app17h189b413d8d5e6a8fE+0x10c>
   20eac:	1c68      	adds	r0, r5, #1
   20eae:	2232      	movs	r2, #50	@ 0x32
   20eb0:	4631      	mov	r1, r6
   20eb2:	f009 fb61 	bl	2a578 <__aeabi_memcpy>
   20eb6:	9803      	ldr	r0, [sp, #12]
   20eb8:	7028      	strb	r0, [r5, #0]
   20eba:	e7da      	b.n	20e72 <_ZN20complex_dynamic_type3app17h189b413d8d5e6a8fE+0xb6>
   20ebc:	480a      	ldr	r0, [pc, #40]	@ (20ee8 <_ZN20complex_dynamic_type3app17h189b413d8d5e6a8fE+0x12c>)
   20ebe:	2101      	movs	r1, #1
   20ec0:	2200      	movs	r2, #0
   20ec2:	4613      	mov	r3, r2
   20ec4:	df03      	svc	3
   20ec6:	e004      	b.n	20ed2 <_ZN20complex_dynamic_type3app17h189b413d8d5e6a8fE+0x116>
   20ec8:	4807      	ldr	r0, [pc, #28]	@ (20ee8 <_ZN20complex_dynamic_type3app17h189b413d8d5e6a8fE+0x12c>)
   20eca:	2101      	movs	r1, #1
   20ecc:	2200      	movs	r2, #0
   20ece:	4613      	mov	r3, r2
   20ed0:	df04      	svc	4
   20ed2:	a805      	add	r0, sp, #20
   20ed4:	7804      	ldrb	r4, [r0, #0]
   20ed6:	1c68      	adds	r0, r5, #1
   20ed8:	2232      	movs	r2, #50	@ 0x32
   20eda:	4631      	mov	r1, r6
   20edc:	f009 fb4c 	bl	2a578 <__aeabi_memcpy>
   20ee0:	9803      	ldr	r0, [sp, #12]
   20ee2:	7028      	strb	r0, [r5, #0]
   20ee4:	e7ba      	b.n	20e5c <_ZN20complex_dynamic_type3app17h189b413d8d5e6a8fE+0xa0>
   20ee6:	46c0      	nop			@ (mov r8, r8)
   20ee8:	00001f07 	.word	0x00001f07

00020eec <_ZN20complex_dynamic_type3app17h18ef73b3462341c0E>:
   20eec:	b5f0      	push	{r4, r5, r6, r7, lr}
   20eee:	af03      	add	r7, sp, #12
   20ef0:	b0a3      	sub	sp, #140	@ 0x8c
   20ef2:	9004      	str	r0, [sp, #16]
   20ef4:	a805      	add	r0, sp, #20
   20ef6:	2402      	movs	r4, #2
   20ef8:	7004      	strb	r4, [r0, #0]
   20efa:	1c46      	adds	r6, r0, #1
   20efc:	2232      	movs	r2, #50	@ 0x32
   20efe:	9203      	str	r2, [sp, #12]
   20f00:	4630      	mov	r0, r6
   20f02:	f009 fb39 	bl	2a578 <__aeabi_memcpy>
   20f06:	ad12      	add	r5, sp, #72	@ 0x48
   20f08:	1c68      	adds	r0, r5, #1
   20f0a:	2141      	movs	r1, #65	@ 0x41
   20f0c:	9002      	str	r0, [sp, #8]
   20f0e:	f009 f973 	bl	2a1f8 <__aeabi_memclr>
   20f12:	9401      	str	r4, [sp, #4]
   20f14:	702c      	strb	r4, [r5, #0]
   20f16:	483f      	ldr	r0, [pc, #252]	@ (21014 <_ZN20complex_dynamic_type3app17h18ef73b3462341c0E+0x128>)
   20f18:	2107      	movs	r1, #7
   20f1a:	4632      	mov	r2, r6
   20f1c:	9b03      	ldr	r3, [sp, #12]
   20f1e:	df04      	svc	4
   20f20:	2802      	cmp	r0, #2
   20f22:	d104      	bne.n	20f2e <_ZN20complex_dynamic_type3app17h18ef73b3462341c0E+0x42>
   20f24:	2001      	movs	r0, #1
   20f26:	9a04      	ldr	r2, [sp, #16]
   20f28:	7010      	strb	r0, [r2, #0]
   20f2a:	6051      	str	r1, [r2, #4]
   20f2c:	e02d      	b.n	20f8a <_ZN20complex_dynamic_type3app17h18ef73b3462341c0E+0x9e>
   20f2e:	9d04      	ldr	r5, [sp, #16]
   20f30:	a805      	add	r0, sp, #20
   20f32:	2104      	movs	r1, #4
   20f34:	7001      	strb	r1, [r0, #0]
   20f36:	4837      	ldr	r0, [pc, #220]	@ (21014 <_ZN20complex_dynamic_type3app17h18ef73b3462341c0E+0x128>)
   20f38:	2105      	movs	r1, #5
   20f3a:	2341      	movs	r3, #65	@ 0x41
   20f3c:	9c02      	ldr	r4, [sp, #8]
   20f3e:	4622      	mov	r2, r4
   20f40:	df03      	svc	3
   20f42:	2802      	cmp	r0, #2
   20f44:	d10e      	bne.n	20f64 <_ZN20complex_dynamic_type3app17h18ef73b3462341c0E+0x78>
   20f46:	2001      	movs	r0, #1
   20f48:	7028      	strb	r0, [r5, #0]
   20f4a:	6069      	str	r1, [r5, #4]
   20f4c:	a812      	add	r0, sp, #72	@ 0x48
   20f4e:	7800      	ldrb	r0, [r0, #0]
   20f50:	2802      	cmp	r0, #2
   20f52:	d01a      	beq.n	20f8a <_ZN20complex_dynamic_type3app17h18ef73b3462341c0E+0x9e>
   20f54:	2803      	cmp	r0, #3
   20f56:	d013      	beq.n	20f80 <_ZN20complex_dynamic_type3app17h18ef73b3462341c0E+0x94>
   20f58:	482e      	ldr	r0, [pc, #184]	@ (21014 <_ZN20complex_dynamic_type3app17h18ef73b3462341c0E+0x128>)
   20f5a:	2105      	movs	r1, #5
   20f5c:	2200      	movs	r2, #0
   20f5e:	4613      	mov	r3, r2
   20f60:	df04      	svc	4
   20f62:	e012      	b.n	20f8a <_ZN20complex_dynamic_type3app17h18ef73b3462341c0E+0x9e>
   20f64:	a812      	add	r0, sp, #72	@ 0x48
   20f66:	2103      	movs	r1, #3
   20f68:	7001      	strb	r1, [r0, #0]
   20f6a:	482a      	ldr	r0, [pc, #168]	@ (21014 <_ZN20complex_dynamic_type3app17h18ef73b3462341c0E+0x128>)
   20f6c:	2107      	movs	r1, #7
   20f6e:	2205      	movs	r2, #5
   20f70:	2600      	movs	r6, #0
   20f72:	4633      	mov	r3, r6
   20f74:	df02      	svc	2
   20f76:	287f      	cmp	r0, #127	@ 0x7f
   20f78:	d816      	bhi.n	20fa8 <_ZN20complex_dynamic_type3app17h18ef73b3462341c0E+0xbc>
   20f7a:	2001      	movs	r0, #1
   20f7c:	7028      	strb	r0, [r5, #0]
   20f7e:	6069      	str	r1, [r5, #4]
   20f80:	4824      	ldr	r0, [pc, #144]	@ (21014 <_ZN20complex_dynamic_type3app17h18ef73b3462341c0E+0x128>)
   20f82:	2105      	movs	r1, #5
   20f84:	2200      	movs	r2, #0
   20f86:	4613      	mov	r3, r2
   20f88:	df03      	svc	3
   20f8a:	a805      	add	r0, sp, #20
   20f8c:	7804      	ldrb	r4, [r0, #0]
   20f8e:	2c02      	cmp	r4, #2
   20f90:	d008      	beq.n	20fa4 <_ZN20complex_dynamic_type3app17h18ef73b3462341c0E+0xb8>
   20f92:	4820      	ldr	r0, [pc, #128]	@ (21014 <_ZN20complex_dynamic_type3app17h18ef73b3462341c0E+0x128>)
   20f94:	2107      	movs	r1, #7
   20f96:	2200      	movs	r2, #0
   20f98:	4613      	mov	r3, r2
   20f9a:	2c03      	cmp	r4, #3
   20f9c:	d101      	bne.n	20fa2 <_ZN20complex_dynamic_type3app17h18ef73b3462341c0E+0xb6>
   20f9e:	df03      	svc	3
   20fa0:	e000      	b.n	20fa4 <_ZN20complex_dynamic_type3app17h18ef73b3462341c0E+0xb8>
   20fa2:	df04      	svc	4
   20fa4:	b023      	add	sp, #140	@ 0x8c
   20fa6:	bdf0      	pop	{r4, r5, r6, r7, pc}
   20fa8:	a805      	add	r0, sp, #20
   20faa:	7800      	ldrb	r0, [r0, #0]
   20fac:	2802      	cmp	r0, #2
   20fae:	d01c      	beq.n	20fea <_ZN20complex_dynamic_type3app17h18ef73b3462341c0E+0xfe>
   20fb0:	2803      	cmp	r0, #3
   20fb2:	d105      	bne.n	20fc0 <_ZN20complex_dynamic_type3app17h18ef73b3462341c0E+0xd4>
   20fb4:	4817      	ldr	r0, [pc, #92]	@ (21014 <_ZN20complex_dynamic_type3app17h18ef73b3462341c0E+0x128>)
   20fb6:	2107      	movs	r1, #7
   20fb8:	2200      	movs	r2, #0
   20fba:	4613      	mov	r3, r2
   20fbc:	df03      	svc	3
   20fbe:	e004      	b.n	20fca <_ZN20complex_dynamic_type3app17h18ef73b3462341c0E+0xde>
   20fc0:	4814      	ldr	r0, [pc, #80]	@ (21014 <_ZN20complex_dynamic_type3app17h18ef73b3462341c0E+0x128>)
   20fc2:	2107      	movs	r1, #7
   20fc4:	2200      	movs	r2, #0
   20fc6:	4613      	mov	r3, r2
   20fc8:	df04      	svc	4
   20fca:	a805      	add	r0, sp, #20
   20fcc:	9901      	ldr	r1, [sp, #4]
   20fce:	7001      	strb	r1, [r0, #0]
   20fd0:	a812      	add	r0, sp, #72	@ 0x48
   20fd2:	7800      	ldrb	r0, [r0, #0]
   20fd4:	2803      	cmp	r0, #3
   20fd6:	d008      	beq.n	20fea <_ZN20complex_dynamic_type3app17h18ef73b3462341c0E+0xfe>
   20fd8:	2802      	cmp	r0, #2
   20fda:	d10c      	bne.n	20ff6 <_ZN20complex_dynamic_type3app17h18ef73b3462341c0E+0x10a>
   20fdc:	1c68      	adds	r0, r5, #1
   20fde:	2241      	movs	r2, #65	@ 0x41
   20fe0:	4621      	mov	r1, r4
   20fe2:	f009 fac9 	bl	2a578 <__aeabi_memcpy>
   20fe6:	702e      	strb	r6, [r5, #0]
   20fe8:	e7dc      	b.n	20fa4 <_ZN20complex_dynamic_type3app17h18ef73b3462341c0E+0xb8>
   20fea:	480a      	ldr	r0, [pc, #40]	@ (21014 <_ZN20complex_dynamic_type3app17h18ef73b3462341c0E+0x128>)
   20fec:	2105      	movs	r1, #5
   20fee:	2200      	movs	r2, #0
   20ff0:	4613      	mov	r3, r2
   20ff2:	df03      	svc	3
   20ff4:	e004      	b.n	21000 <_ZN20complex_dynamic_type3app17h18ef73b3462341c0E+0x114>
   20ff6:	4807      	ldr	r0, [pc, #28]	@ (21014 <_ZN20complex_dynamic_type3app17h18ef73b3462341c0E+0x128>)
   20ff8:	2105      	movs	r1, #5
   20ffa:	2200      	movs	r2, #0
   20ffc:	4613      	mov	r3, r2
   20ffe:	df04      	svc	4
   21000:	a805      	add	r0, sp, #20
   21002:	7804      	ldrb	r4, [r0, #0]
   21004:	1c68      	adds	r0, r5, #1
   21006:	2241      	movs	r2, #65	@ 0x41
   21008:	9902      	ldr	r1, [sp, #8]
   2100a:	f009 fab5 	bl	2a578 <__aeabi_memcpy>
   2100e:	702e      	strb	r6, [r5, #0]
   21010:	e7bd      	b.n	20f8e <_ZN20complex_dynamic_type3app17h18ef73b3462341c0E+0xa2>
   21012:	46c0      	nop			@ (mov r8, r8)
   21014:	0000091d 	.word	0x0000091d

00021018 <_ZN20complex_dynamic_type3app17h1fbe756cff57d5dcE>:
   21018:	b5f0      	push	{r4, r5, r6, r7, lr}
   2101a:	af03      	add	r7, sp, #12
   2101c:	b099      	sub	sp, #100	@ 0x64
   2101e:	9004      	str	r0, [sp, #16]
   21020:	a805      	add	r0, sp, #20
   21022:	2402      	movs	r4, #2
   21024:	7004      	strb	r4, [r0, #0]
   21026:	1c40      	adds	r0, r0, #1
   21028:	9003      	str	r0, [sp, #12]
   2102a:	2521      	movs	r5, #33	@ 0x21
   2102c:	462a      	mov	r2, r5
   2102e:	f009 faa3 	bl	2a578 <__aeabi_memcpy>
   21032:	ae0e      	add	r6, sp, #56	@ 0x38
   21034:	1c70      	adds	r0, r6, #1
   21036:	212a      	movs	r1, #42	@ 0x2a
   21038:	9002      	str	r0, [sp, #8]
   2103a:	f009 f8dd 	bl	2a1f8 <__aeabi_memclr>
   2103e:	9401      	str	r4, [sp, #4]
   21040:	7034      	strb	r4, [r6, #0]
   21042:	483f      	ldr	r0, [pc, #252]	@ (21140 <_ZN20complex_dynamic_type3app17h1fbe756cff57d5dcE+0x128>)
   21044:	2601      	movs	r6, #1
   21046:	4631      	mov	r1, r6
   21048:	9a03      	ldr	r2, [sp, #12]
   2104a:	462b      	mov	r3, r5
   2104c:	df04      	svc	4
   2104e:	2802      	cmp	r0, #2
   21050:	d103      	bne.n	2105a <_ZN20complex_dynamic_type3app17h1fbe756cff57d5dcE+0x42>
   21052:	9804      	ldr	r0, [sp, #16]
   21054:	7006      	strb	r6, [r0, #0]
   21056:	6041      	str	r1, [r0, #4]
   21058:	e02c      	b.n	210b4 <_ZN20complex_dynamic_type3app17h1fbe756cff57d5dcE+0x9c>
   2105a:	a805      	add	r0, sp, #20
   2105c:	2104      	movs	r1, #4
   2105e:	7001      	strb	r1, [r0, #0]
   21060:	4837      	ldr	r0, [pc, #220]	@ (21140 <_ZN20complex_dynamic_type3app17h1fbe756cff57d5dcE+0x128>)
   21062:	2403      	movs	r4, #3
   21064:	232a      	movs	r3, #42	@ 0x2a
   21066:	4621      	mov	r1, r4
   21068:	9a02      	ldr	r2, [sp, #8]
   2106a:	df03      	svc	3
   2106c:	2802      	cmp	r0, #2
   2106e:	d10e      	bne.n	2108e <_ZN20complex_dynamic_type3app17h1fbe756cff57d5dcE+0x76>
   21070:	9804      	ldr	r0, [sp, #16]
   21072:	7006      	strb	r6, [r0, #0]
   21074:	6041      	str	r1, [r0, #4]
   21076:	a80e      	add	r0, sp, #56	@ 0x38
   21078:	7800      	ldrb	r0, [r0, #0]
   2107a:	2802      	cmp	r0, #2
   2107c:	d01a      	beq.n	210b4 <_ZN20complex_dynamic_type3app17h1fbe756cff57d5dcE+0x9c>
   2107e:	2803      	cmp	r0, #3
   21080:	d013      	beq.n	210aa <_ZN20complex_dynamic_type3app17h1fbe756cff57d5dcE+0x92>
   21082:	482f      	ldr	r0, [pc, #188]	@ (21140 <_ZN20complex_dynamic_type3app17h1fbe756cff57d5dcE+0x128>)
   21084:	2103      	movs	r1, #3
   21086:	2200      	movs	r2, #0
   21088:	4613      	mov	r3, r2
   2108a:	df04      	svc	4
   2108c:	e012      	b.n	210b4 <_ZN20complex_dynamic_type3app17h1fbe756cff57d5dcE+0x9c>
   2108e:	a80e      	add	r0, sp, #56	@ 0x38
   21090:	7004      	strb	r4, [r0, #0]
   21092:	482b      	ldr	r0, [pc, #172]	@ (21140 <_ZN20complex_dynamic_type3app17h1fbe756cff57d5dcE+0x128>)
   21094:	2501      	movs	r5, #1
   21096:	2600      	movs	r6, #0
   21098:	4629      	mov	r1, r5
   2109a:	4622      	mov	r2, r4
   2109c:	4633      	mov	r3, r6
   2109e:	df02      	svc	2
   210a0:	287f      	cmp	r0, #127	@ 0x7f
   210a2:	d816      	bhi.n	210d2 <_ZN20complex_dynamic_type3app17h1fbe756cff57d5dcE+0xba>
   210a4:	9804      	ldr	r0, [sp, #16]
   210a6:	7005      	strb	r5, [r0, #0]
   210a8:	6041      	str	r1, [r0, #4]
   210aa:	4825      	ldr	r0, [pc, #148]	@ (21140 <_ZN20complex_dynamic_type3app17h1fbe756cff57d5dcE+0x128>)
   210ac:	2103      	movs	r1, #3
   210ae:	2200      	movs	r2, #0
   210b0:	4613      	mov	r3, r2
   210b2:	df03      	svc	3
   210b4:	a805      	add	r0, sp, #20
   210b6:	7804      	ldrb	r4, [r0, #0]
   210b8:	2c02      	cmp	r4, #2
   210ba:	d008      	beq.n	210ce <_ZN20complex_dynamic_type3app17h1fbe756cff57d5dcE+0xb6>
   210bc:	4820      	ldr	r0, [pc, #128]	@ (21140 <_ZN20complex_dynamic_type3app17h1fbe756cff57d5dcE+0x128>)
   210be:	2101      	movs	r1, #1
   210c0:	2200      	movs	r2, #0
   210c2:	4613      	mov	r3, r2
   210c4:	2c03      	cmp	r4, #3
   210c6:	d101      	bne.n	210cc <_ZN20complex_dynamic_type3app17h1fbe756cff57d5dcE+0xb4>
   210c8:	df03      	svc	3
   210ca:	e000      	b.n	210ce <_ZN20complex_dynamic_type3app17h1fbe756cff57d5dcE+0xb6>
   210cc:	df04      	svc	4
   210ce:	b019      	add	sp, #100	@ 0x64
   210d0:	bdf0      	pop	{r4, r5, r6, r7, pc}
   210d2:	a805      	add	r0, sp, #20
   210d4:	7800      	ldrb	r0, [r0, #0]
   210d6:	2802      	cmp	r0, #2
   210d8:	9d04      	ldr	r5, [sp, #16]
   210da:	d01c      	beq.n	21116 <_ZN20complex_dynamic_type3app17h1fbe756cff57d5dcE+0xfe>
   210dc:	2803      	cmp	r0, #3
   210de:	d105      	bne.n	210ec <_ZN20complex_dynamic_type3app17h1fbe756cff57d5dcE+0xd4>
   210e0:	4817      	ldr	r0, [pc, #92]	@ (21140 <_ZN20complex_dynamic_type3app17h1fbe756cff57d5dcE+0x128>)
   210e2:	2101      	movs	r1, #1
   210e4:	2200      	movs	r2, #0
   210e6:	4613      	mov	r3, r2
   210e8:	df03      	svc	3
   210ea:	e004      	b.n	210f6 <_ZN20complex_dynamic_type3app17h1fbe756cff57d5dcE+0xde>
   210ec:	4814      	ldr	r0, [pc, #80]	@ (21140 <_ZN20complex_dynamic_type3app17h1fbe756cff57d5dcE+0x128>)
   210ee:	2101      	movs	r1, #1
   210f0:	2200      	movs	r2, #0
   210f2:	4613      	mov	r3, r2
   210f4:	df04      	svc	4
   210f6:	9901      	ldr	r1, [sp, #4]
   210f8:	a805      	add	r0, sp, #20
   210fa:	7001      	strb	r1, [r0, #0]
   210fc:	a80e      	add	r0, sp, #56	@ 0x38
   210fe:	7800      	ldrb	r0, [r0, #0]
   21100:	2803      	cmp	r0, #3
   21102:	d008      	beq.n	21116 <_ZN20complex_dynamic_type3app17h1fbe756cff57d5dcE+0xfe>
   21104:	2802      	cmp	r0, #2
   21106:	d10c      	bne.n	21122 <_ZN20complex_dynamic_type3app17h1fbe756cff57d5dcE+0x10a>
   21108:	1c68      	adds	r0, r5, #1
   2110a:	222a      	movs	r2, #42	@ 0x2a
   2110c:	9902      	ldr	r1, [sp, #8]
   2110e:	f009 fa33 	bl	2a578 <__aeabi_memcpy>
   21112:	702e      	strb	r6, [r5, #0]
   21114:	e7db      	b.n	210ce <_ZN20complex_dynamic_type3app17h1fbe756cff57d5dcE+0xb6>
   21116:	480a      	ldr	r0, [pc, #40]	@ (21140 <_ZN20complex_dynamic_type3app17h1fbe756cff57d5dcE+0x128>)
   21118:	2103      	movs	r1, #3
   2111a:	2200      	movs	r2, #0
   2111c:	4613      	mov	r3, r2
   2111e:	df03      	svc	3
   21120:	e004      	b.n	2112c <_ZN20complex_dynamic_type3app17h1fbe756cff57d5dcE+0x114>
   21122:	4807      	ldr	r0, [pc, #28]	@ (21140 <_ZN20complex_dynamic_type3app17h1fbe756cff57d5dcE+0x128>)
   21124:	2103      	movs	r1, #3
   21126:	2200      	movs	r2, #0
   21128:	4613      	mov	r3, r2
   2112a:	df04      	svc	4
   2112c:	a805      	add	r0, sp, #20
   2112e:	7804      	ldrb	r4, [r0, #0]
   21130:	1c68      	adds	r0, r5, #1
   21132:	222a      	movs	r2, #42	@ 0x2a
   21134:	9902      	ldr	r1, [sp, #8]
   21136:	f009 fa1f 	bl	2a578 <__aeabi_memcpy>
   2113a:	702e      	strb	r6, [r5, #0]
   2113c:	e7bc      	b.n	210b8 <_ZN20complex_dynamic_type3app17h1fbe756cff57d5dcE+0xa0>
   2113e:	46c0      	nop			@ (mov r8, r8)
   21140:	000015f3 	.word	0x000015f3

00021144 <_ZN20complex_dynamic_type3app17h20ab9eace2b98475E>:
   21144:	b5f0      	push	{r4, r5, r6, r7, lr}
   21146:	af03      	add	r7, sp, #12
   21148:	b09b      	sub	sp, #108	@ 0x6c
   2114a:	9004      	str	r0, [sp, #16]
   2114c:	a805      	add	r0, sp, #20
   2114e:	2402      	movs	r4, #2
   21150:	7004      	strb	r4, [r0, #0]
   21152:	1c46      	adds	r6, r0, #1
   21154:	222a      	movs	r2, #42	@ 0x2a
   21156:	9203      	str	r2, [sp, #12]
   21158:	4630      	mov	r0, r6
   2115a:	f009 fa0d 	bl	2a578 <__aeabi_memcpy>
   2115e:	ad10      	add	r5, sp, #64	@ 0x40
   21160:	1c68      	adds	r0, r5, #1
   21162:	2128      	movs	r1, #40	@ 0x28
   21164:	9002      	str	r0, [sp, #8]
   21166:	f009 f847 	bl	2a1f8 <__aeabi_memclr>
   2116a:	9401      	str	r4, [sp, #4]
   2116c:	702c      	strb	r4, [r5, #0]
   2116e:	483f      	ldr	r0, [pc, #252]	@ (2126c <_ZN20complex_dynamic_type3app17h20ab9eace2b98475E+0x128>)
   21170:	2504      	movs	r5, #4
   21172:	4629      	mov	r1, r5
   21174:	4632      	mov	r2, r6
   21176:	9b03      	ldr	r3, [sp, #12]
   21178:	df04      	svc	4
   2117a:	2802      	cmp	r0, #2
   2117c:	d104      	bne.n	21188 <_ZN20complex_dynamic_type3app17h20ab9eace2b98475E+0x44>
   2117e:	2001      	movs	r0, #1
   21180:	9a04      	ldr	r2, [sp, #16]
   21182:	7010      	strb	r0, [r2, #0]
   21184:	6051      	str	r1, [r2, #4]
   21186:	e02c      	b.n	211e2 <_ZN20complex_dynamic_type3app17h20ab9eace2b98475E+0x9e>
   21188:	9c04      	ldr	r4, [sp, #16]
   2118a:	a805      	add	r0, sp, #20
   2118c:	7005      	strb	r5, [r0, #0]
   2118e:	4837      	ldr	r0, [pc, #220]	@ (2126c <_ZN20complex_dynamic_type3app17h20ab9eace2b98475E+0x128>)
   21190:	2108      	movs	r1, #8
   21192:	2328      	movs	r3, #40	@ 0x28
   21194:	9a02      	ldr	r2, [sp, #8]
   21196:	df03      	svc	3
   21198:	2802      	cmp	r0, #2
   2119a:	d10e      	bne.n	211ba <_ZN20complex_dynamic_type3app17h20ab9eace2b98475E+0x76>
   2119c:	2001      	movs	r0, #1
   2119e:	7020      	strb	r0, [r4, #0]
   211a0:	6061      	str	r1, [r4, #4]
   211a2:	a810      	add	r0, sp, #64	@ 0x40
   211a4:	7800      	ldrb	r0, [r0, #0]
   211a6:	2802      	cmp	r0, #2
   211a8:	d01b      	beq.n	211e2 <_ZN20complex_dynamic_type3app17h20ab9eace2b98475E+0x9e>
   211aa:	2803      	cmp	r0, #3
   211ac:	d014      	beq.n	211d8 <_ZN20complex_dynamic_type3app17h20ab9eace2b98475E+0x94>
   211ae:	482f      	ldr	r0, [pc, #188]	@ (2126c <_ZN20complex_dynamic_type3app17h20ab9eace2b98475E+0x128>)
   211b0:	2108      	movs	r1, #8
   211b2:	2200      	movs	r2, #0
   211b4:	4613      	mov	r3, r2
   211b6:	df04      	svc	4
   211b8:	e013      	b.n	211e2 <_ZN20complex_dynamic_type3app17h20ab9eace2b98475E+0x9e>
   211ba:	a810      	add	r0, sp, #64	@ 0x40
   211bc:	2103      	movs	r1, #3
   211be:	7001      	strb	r1, [r0, #0]
   211c0:	482a      	ldr	r0, [pc, #168]	@ (2126c <_ZN20complex_dynamic_type3app17h20ab9eace2b98475E+0x128>)
   211c2:	2104      	movs	r1, #4
   211c4:	2208      	movs	r2, #8
   211c6:	2600      	movs	r6, #0
   211c8:	4633      	mov	r3, r6
   211ca:	df02      	svc	2
   211cc:	287f      	cmp	r0, #127	@ 0x7f
   211ce:	4625      	mov	r5, r4
   211d0:	d816      	bhi.n	21200 <_ZN20complex_dynamic_type3app17h20ab9eace2b98475E+0xbc>
   211d2:	2001      	movs	r0, #1
   211d4:	7028      	strb	r0, [r5, #0]
   211d6:	6069      	str	r1, [r5, #4]
   211d8:	4824      	ldr	r0, [pc, #144]	@ (2126c <_ZN20complex_dynamic_type3app17h20ab9eace2b98475E+0x128>)
   211da:	2108      	movs	r1, #8
   211dc:	2200      	movs	r2, #0
   211de:	4613      	mov	r3, r2
   211e0:	df03      	svc	3
   211e2:	a805      	add	r0, sp, #20
   211e4:	7804      	ldrb	r4, [r0, #0]
   211e6:	2c02      	cmp	r4, #2
   211e8:	d008      	beq.n	211fc <_ZN20complex_dynamic_type3app17h20ab9eace2b98475E+0xb8>
   211ea:	4820      	ldr	r0, [pc, #128]	@ (2126c <_ZN20complex_dynamic_type3app17h20ab9eace2b98475E+0x128>)
   211ec:	2104      	movs	r1, #4
   211ee:	2200      	movs	r2, #0
   211f0:	4613      	mov	r3, r2
   211f2:	2c03      	cmp	r4, #3
   211f4:	d101      	bne.n	211fa <_ZN20complex_dynamic_type3app17h20ab9eace2b98475E+0xb6>
   211f6:	df03      	svc	3
   211f8:	e000      	b.n	211fc <_ZN20complex_dynamic_type3app17h20ab9eace2b98475E+0xb8>
   211fa:	df04      	svc	4
   211fc:	b01b      	add	sp, #108	@ 0x6c
   211fe:	bdf0      	pop	{r4, r5, r6, r7, pc}
   21200:	a805      	add	r0, sp, #20
   21202:	7800      	ldrb	r0, [r0, #0]
   21204:	2802      	cmp	r0, #2
   21206:	d01c      	beq.n	21242 <_ZN20complex_dynamic_type3app17h20ab9eace2b98475E+0xfe>
   21208:	2803      	cmp	r0, #3
   2120a:	d105      	bne.n	21218 <_ZN20complex_dynamic_type3app17h20ab9eace2b98475E+0xd4>
   2120c:	4817      	ldr	r0, [pc, #92]	@ (2126c <_ZN20complex_dynamic_type3app17h20ab9eace2b98475E+0x128>)
   2120e:	2104      	movs	r1, #4
   21210:	2200      	movs	r2, #0
   21212:	4613      	mov	r3, r2
   21214:	df03      	svc	3
   21216:	e004      	b.n	21222 <_ZN20complex_dynamic_type3app17h20ab9eace2b98475E+0xde>
   21218:	4814      	ldr	r0, [pc, #80]	@ (2126c <_ZN20complex_dynamic_type3app17h20ab9eace2b98475E+0x128>)
   2121a:	2104      	movs	r1, #4
   2121c:	2200      	movs	r2, #0
   2121e:	4613      	mov	r3, r2
   21220:	df04      	svc	4
   21222:	9901      	ldr	r1, [sp, #4]
   21224:	a805      	add	r0, sp, #20
   21226:	7001      	strb	r1, [r0, #0]
   21228:	a810      	add	r0, sp, #64	@ 0x40
   2122a:	7800      	ldrb	r0, [r0, #0]
   2122c:	2803      	cmp	r0, #3
   2122e:	d008      	beq.n	21242 <_ZN20complex_dynamic_type3app17h20ab9eace2b98475E+0xfe>
   21230:	2802      	cmp	r0, #2
   21232:	d10c      	bne.n	2124e <_ZN20complex_dynamic_type3app17h20ab9eace2b98475E+0x10a>
   21234:	1c68      	adds	r0, r5, #1
   21236:	2228      	movs	r2, #40	@ 0x28
   21238:	9902      	ldr	r1, [sp, #8]
   2123a:	f009 f99d 	bl	2a578 <__aeabi_memcpy>
   2123e:	702e      	strb	r6, [r5, #0]
   21240:	e7dc      	b.n	211fc <_ZN20complex_dynamic_type3app17h20ab9eace2b98475E+0xb8>
   21242:	480a      	ldr	r0, [pc, #40]	@ (2126c <_ZN20complex_dynamic_type3app17h20ab9eace2b98475E+0x128>)
   21244:	2108      	movs	r1, #8
   21246:	2200      	movs	r2, #0
   21248:	4613      	mov	r3, r2
   2124a:	df03      	svc	3
   2124c:	e004      	b.n	21258 <_ZN20complex_dynamic_type3app17h20ab9eace2b98475E+0x114>
   2124e:	4807      	ldr	r0, [pc, #28]	@ (2126c <_ZN20complex_dynamic_type3app17h20ab9eace2b98475E+0x128>)
   21250:	2108      	movs	r1, #8
   21252:	2200      	movs	r2, #0
   21254:	4613      	mov	r3, r2
   21256:	df04      	svc	4
   21258:	a805      	add	r0, sp, #20
   2125a:	7804      	ldrb	r4, [r0, #0]
   2125c:	1c68      	adds	r0, r5, #1
   2125e:	2228      	movs	r2, #40	@ 0x28
   21260:	9902      	ldr	r1, [sp, #8]
   21262:	f009 f989 	bl	2a578 <__aeabi_memcpy>
   21266:	702e      	strb	r6, [r5, #0]
   21268:	e7bd      	b.n	211e6 <_ZN20complex_dynamic_type3app17h20ab9eace2b98475E+0xa2>
   2126a:	46c0      	nop			@ (mov r8, r8)
   2126c:	00001efa 	.word	0x00001efa

00021270 <_ZN20complex_dynamic_type3app17h2223137f10ed531eE>:
   21270:	b5f0      	push	{r4, r5, r6, r7, lr}
   21272:	af03      	add	r7, sp, #12
   21274:	b09b      	sub	sp, #108	@ 0x6c
   21276:	9003      	str	r0, [sp, #12]
   21278:	a804      	add	r0, sp, #16
   2127a:	2602      	movs	r6, #2
   2127c:	7006      	strb	r6, [r0, #0]
   2127e:	1c40      	adds	r0, r0, #1
   21280:	9002      	str	r0, [sp, #8]
   21282:	2512      	movs	r5, #18
   21284:	462a      	mov	r2, r5
   21286:	f009 f977 	bl	2a578 <__aeabi_memcpy>
   2128a:	ac09      	add	r4, sp, #36	@ 0x24
   2128c:	1c60      	adds	r0, r4, #1
   2128e:	2144      	movs	r1, #68	@ 0x44
   21290:	9001      	str	r0, [sp, #4]
   21292:	f008 ffb1 	bl	2a1f8 <__aeabi_memclr>
   21296:	7026      	strb	r6, [r4, #0]
   21298:	4841      	ldr	r0, [pc, #260]	@ (213a0 <_ZN20complex_dynamic_type3app17h2223137f10ed531eE+0x130>)
   2129a:	4631      	mov	r1, r6
   2129c:	9a02      	ldr	r2, [sp, #8]
   2129e:	462b      	mov	r3, r5
   212a0:	df04      	svc	4
   212a2:	2802      	cmp	r0, #2
   212a4:	d104      	bne.n	212b0 <_ZN20complex_dynamic_type3app17h2223137f10ed531eE+0x40>
   212a6:	2001      	movs	r0, #1
   212a8:	9a03      	ldr	r2, [sp, #12]
   212aa:	7010      	strb	r0, [r2, #0]
   212ac:	6051      	str	r1, [r2, #4]
   212ae:	e02e      	b.n	2130e <_ZN20complex_dynamic_type3app17h2223137f10ed531eE+0x9e>
   212b0:	9c03      	ldr	r4, [sp, #12]
   212b2:	a804      	add	r0, sp, #16
   212b4:	2104      	movs	r1, #4
   212b6:	7001      	strb	r1, [r0, #0]
   212b8:	4839      	ldr	r0, [pc, #228]	@ (213a0 <_ZN20complex_dynamic_type3app17h2223137f10ed531eE+0x130>)
   212ba:	2109      	movs	r1, #9
   212bc:	2344      	movs	r3, #68	@ 0x44
   212be:	9d01      	ldr	r5, [sp, #4]
   212c0:	462a      	mov	r2, r5
   212c2:	df03      	svc	3
   212c4:	2802      	cmp	r0, #2
   212c6:	d10e      	bne.n	212e6 <_ZN20complex_dynamic_type3app17h2223137f10ed531eE+0x76>
   212c8:	2001      	movs	r0, #1
   212ca:	7020      	strb	r0, [r4, #0]
   212cc:	6061      	str	r1, [r4, #4]
   212ce:	a809      	add	r0, sp, #36	@ 0x24
   212d0:	7800      	ldrb	r0, [r0, #0]
   212d2:	2802      	cmp	r0, #2
   212d4:	d01b      	beq.n	2130e <_ZN20complex_dynamic_type3app17h2223137f10ed531eE+0x9e>
   212d6:	2803      	cmp	r0, #3
   212d8:	d014      	beq.n	21304 <_ZN20complex_dynamic_type3app17h2223137f10ed531eE+0x94>
   212da:	4831      	ldr	r0, [pc, #196]	@ (213a0 <_ZN20complex_dynamic_type3app17h2223137f10ed531eE+0x130>)
   212dc:	2109      	movs	r1, #9
   212de:	2200      	movs	r2, #0
   212e0:	4613      	mov	r3, r2
   212e2:	df04      	svc	4
   212e4:	e013      	b.n	2130e <_ZN20complex_dynamic_type3app17h2223137f10ed531eE+0x9e>
   212e6:	a809      	add	r0, sp, #36	@ 0x24
   212e8:	2103      	movs	r1, #3
   212ea:	7001      	strb	r1, [r0, #0]
   212ec:	482c      	ldr	r0, [pc, #176]	@ (213a0 <_ZN20complex_dynamic_type3app17h2223137f10ed531eE+0x130>)
   212ee:	2602      	movs	r6, #2
   212f0:	2209      	movs	r2, #9
   212f2:	2300      	movs	r3, #0
   212f4:	4631      	mov	r1, r6
   212f6:	9302      	str	r3, [sp, #8]
   212f8:	df02      	svc	2
   212fa:	287f      	cmp	r0, #127	@ 0x7f
   212fc:	d816      	bhi.n	2132c <_ZN20complex_dynamic_type3app17h2223137f10ed531eE+0xbc>
   212fe:	2001      	movs	r0, #1
   21300:	7020      	strb	r0, [r4, #0]
   21302:	6061      	str	r1, [r4, #4]
   21304:	4826      	ldr	r0, [pc, #152]	@ (213a0 <_ZN20complex_dynamic_type3app17h2223137f10ed531eE+0x130>)
   21306:	2109      	movs	r1, #9
   21308:	2200      	movs	r2, #0
   2130a:	4613      	mov	r3, r2
   2130c:	df03      	svc	3
   2130e:	a804      	add	r0, sp, #16
   21310:	7804      	ldrb	r4, [r0, #0]
   21312:	2c02      	cmp	r4, #2
   21314:	d008      	beq.n	21328 <_ZN20complex_dynamic_type3app17h2223137f10ed531eE+0xb8>
   21316:	4822      	ldr	r0, [pc, #136]	@ (213a0 <_ZN20complex_dynamic_type3app17h2223137f10ed531eE+0x130>)
   21318:	2102      	movs	r1, #2
   2131a:	2200      	movs	r2, #0
   2131c:	4613      	mov	r3, r2
   2131e:	2c03      	cmp	r4, #3
   21320:	d101      	bne.n	21326 <_ZN20complex_dynamic_type3app17h2223137f10ed531eE+0xb6>
   21322:	df03      	svc	3
   21324:	e000      	b.n	21328 <_ZN20complex_dynamic_type3app17h2223137f10ed531eE+0xb8>
   21326:	df04      	svc	4
   21328:	b01b      	add	sp, #108	@ 0x6c
   2132a:	bdf0      	pop	{r4, r5, r6, r7, pc}
   2132c:	a804      	add	r0, sp, #16
   2132e:	7800      	ldrb	r0, [r0, #0]
   21330:	2802      	cmp	r0, #2
   21332:	d01c      	beq.n	2136e <_ZN20complex_dynamic_type3app17h2223137f10ed531eE+0xfe>
   21334:	2803      	cmp	r0, #3
   21336:	d105      	bne.n	21344 <_ZN20complex_dynamic_type3app17h2223137f10ed531eE+0xd4>
   21338:	4819      	ldr	r0, [pc, #100]	@ (213a0 <_ZN20complex_dynamic_type3app17h2223137f10ed531eE+0x130>)
   2133a:	2102      	movs	r1, #2
   2133c:	2200      	movs	r2, #0
   2133e:	4613      	mov	r3, r2
   21340:	df03      	svc	3
   21342:	e004      	b.n	2134e <_ZN20complex_dynamic_type3app17h2223137f10ed531eE+0xde>
   21344:	4816      	ldr	r0, [pc, #88]	@ (213a0 <_ZN20complex_dynamic_type3app17h2223137f10ed531eE+0x130>)
   21346:	2102      	movs	r1, #2
   21348:	2200      	movs	r2, #0
   2134a:	4613      	mov	r3, r2
   2134c:	df04      	svc	4
   2134e:	a804      	add	r0, sp, #16
   21350:	7006      	strb	r6, [r0, #0]
   21352:	a809      	add	r0, sp, #36	@ 0x24
   21354:	7800      	ldrb	r0, [r0, #0]
   21356:	2803      	cmp	r0, #3
   21358:	d009      	beq.n	2136e <_ZN20complex_dynamic_type3app17h2223137f10ed531eE+0xfe>
   2135a:	2802      	cmp	r0, #2
   2135c:	d10e      	bne.n	2137c <_ZN20complex_dynamic_type3app17h2223137f10ed531eE+0x10c>
   2135e:	1c60      	adds	r0, r4, #1
   21360:	2244      	movs	r2, #68	@ 0x44
   21362:	4629      	mov	r1, r5
   21364:	f009 f908 	bl	2a578 <__aeabi_memcpy>
   21368:	9802      	ldr	r0, [sp, #8]
   2136a:	7020      	strb	r0, [r4, #0]
   2136c:	e7dc      	b.n	21328 <_ZN20complex_dynamic_type3app17h2223137f10ed531eE+0xb8>
   2136e:	462e      	mov	r6, r5
   21370:	480b      	ldr	r0, [pc, #44]	@ (213a0 <_ZN20complex_dynamic_type3app17h2223137f10ed531eE+0x130>)
   21372:	2109      	movs	r1, #9
   21374:	2200      	movs	r2, #0
   21376:	4613      	mov	r3, r2
   21378:	df03      	svc	3
   2137a:	e005      	b.n	21388 <_ZN20complex_dynamic_type3app17h2223137f10ed531eE+0x118>
   2137c:	462e      	mov	r6, r5
   2137e:	4808      	ldr	r0, [pc, #32]	@ (213a0 <_ZN20complex_dynamic_type3app17h2223137f10ed531eE+0x130>)
   21380:	2109      	movs	r1, #9
   21382:	2200      	movs	r2, #0
   21384:	4613      	mov	r3, r2
   21386:	df04      	svc	4
   21388:	4625      	mov	r5, r4
   2138a:	a804      	add	r0, sp, #16
   2138c:	7804      	ldrb	r4, [r0, #0]
   2138e:	1c68      	adds	r0, r5, #1
   21390:	2244      	movs	r2, #68	@ 0x44
   21392:	4631      	mov	r1, r6
   21394:	f009 f8f0 	bl	2a578 <__aeabi_memcpy>
   21398:	9802      	ldr	r0, [sp, #8]
   2139a:	7028      	strb	r0, [r5, #0]
   2139c:	e7b9      	b.n	21312 <_ZN20complex_dynamic_type3app17h2223137f10ed531eE+0xa2>
   2139e:	46c0      	nop			@ (mov r8, r8)
   213a0:	00002432 	.word	0x00002432

000213a4 <_ZN20complex_dynamic_type3app17h2224b8b4c3262f87E>:
   213a4:	b5f0      	push	{r4, r5, r6, r7, lr}
   213a6:	af03      	add	r7, sp, #12
   213a8:	b095      	sub	sp, #84	@ 0x54
   213aa:	9003      	str	r0, [sp, #12]
   213ac:	a804      	add	r0, sp, #16
   213ae:	2402      	movs	r4, #2
   213b0:	7004      	strb	r4, [r0, #0]
   213b2:	1c46      	adds	r6, r0, #1
   213b4:	2214      	movs	r2, #20
   213b6:	9202      	str	r2, [sp, #8]
   213b8:	4630      	mov	r0, r6
   213ba:	f009 f8dd 	bl	2a578 <__aeabi_memcpy>
   213be:	ad0a      	add	r5, sp, #40	@ 0x28
   213c0:	1c68      	adds	r0, r5, #1
   213c2:	212b      	movs	r1, #43	@ 0x2b
   213c4:	9001      	str	r0, [sp, #4]
   213c6:	f008 ff17 	bl	2a1f8 <__aeabi_memclr>
   213ca:	9400      	str	r4, [sp, #0]
   213cc:	702c      	strb	r4, [r5, #0]
   213ce:	483e      	ldr	r0, [pc, #248]	@ (214c8 <_ZN20complex_dynamic_type3app17h2224b8b4c3262f87E+0x124>)
   213d0:	2108      	movs	r1, #8
   213d2:	4632      	mov	r2, r6
   213d4:	9b02      	ldr	r3, [sp, #8]
   213d6:	df04      	svc	4
   213d8:	2802      	cmp	r0, #2
   213da:	d104      	bne.n	213e6 <_ZN20complex_dynamic_type3app17h2224b8b4c3262f87E+0x42>
   213dc:	2001      	movs	r0, #1
   213de:	9a03      	ldr	r2, [sp, #12]
   213e0:	7010      	strb	r0, [r2, #0]
   213e2:	6051      	str	r1, [r2, #4]
   213e4:	e02c      	b.n	21440 <_ZN20complex_dynamic_type3app17h2224b8b4c3262f87E+0x9c>
   213e6:	9d03      	ldr	r5, [sp, #12]
   213e8:	a804      	add	r0, sp, #16
   213ea:	2104      	movs	r1, #4
   213ec:	7001      	strb	r1, [r0, #0]
   213ee:	4836      	ldr	r0, [pc, #216]	@ (214c8 <_ZN20complex_dynamic_type3app17h2224b8b4c3262f87E+0x124>)
   213f0:	232b      	movs	r3, #43	@ 0x2b
   213f2:	9c01      	ldr	r4, [sp, #4]
   213f4:	4622      	mov	r2, r4
   213f6:	df03      	svc	3
   213f8:	2802      	cmp	r0, #2
   213fa:	d10e      	bne.n	2141a <_ZN20complex_dynamic_type3app17h2224b8b4c3262f87E+0x76>
   213fc:	2001      	movs	r0, #1
   213fe:	7028      	strb	r0, [r5, #0]
   21400:	6069      	str	r1, [r5, #4]
   21402:	a80a      	add	r0, sp, #40	@ 0x28
   21404:	7800      	ldrb	r0, [r0, #0]
   21406:	2802      	cmp	r0, #2
   21408:	d01a      	beq.n	21440 <_ZN20complex_dynamic_type3app17h2224b8b4c3262f87E+0x9c>
   2140a:	2803      	cmp	r0, #3
   2140c:	d013      	beq.n	21436 <_ZN20complex_dynamic_type3app17h2224b8b4c3262f87E+0x92>
   2140e:	482e      	ldr	r0, [pc, #184]	@ (214c8 <_ZN20complex_dynamic_type3app17h2224b8b4c3262f87E+0x124>)
   21410:	2104      	movs	r1, #4
   21412:	2200      	movs	r2, #0
   21414:	4613      	mov	r3, r2
   21416:	df04      	svc	4
   21418:	e012      	b.n	21440 <_ZN20complex_dynamic_type3app17h2224b8b4c3262f87E+0x9c>
   2141a:	a80a      	add	r0, sp, #40	@ 0x28
   2141c:	2103      	movs	r1, #3
   2141e:	7001      	strb	r1, [r0, #0]
   21420:	4829      	ldr	r0, [pc, #164]	@ (214c8 <_ZN20complex_dynamic_type3app17h2224b8b4c3262f87E+0x124>)
   21422:	2108      	movs	r1, #8
   21424:	2204      	movs	r2, #4
   21426:	2600      	movs	r6, #0
   21428:	4633      	mov	r3, r6
   2142a:	df02      	svc	2
   2142c:	287f      	cmp	r0, #127	@ 0x7f
   2142e:	d816      	bhi.n	2145e <_ZN20complex_dynamic_type3app17h2224b8b4c3262f87E+0xba>
   21430:	2001      	movs	r0, #1
   21432:	7028      	strb	r0, [r5, #0]
   21434:	6069      	str	r1, [r5, #4]
   21436:	4824      	ldr	r0, [pc, #144]	@ (214c8 <_ZN20complex_dynamic_type3app17h2224b8b4c3262f87E+0x124>)
   21438:	2104      	movs	r1, #4
   2143a:	2200      	movs	r2, #0
   2143c:	4613      	mov	r3, r2
   2143e:	df03      	svc	3
   21440:	a804      	add	r0, sp, #16
   21442:	7804      	ldrb	r4, [r0, #0]
   21444:	2c02      	cmp	r4, #2
   21446:	d008      	beq.n	2145a <_ZN20complex_dynamic_type3app17h2224b8b4c3262f87E+0xb6>
   21448:	481f      	ldr	r0, [pc, #124]	@ (214c8 <_ZN20complex_dynamic_type3app17h2224b8b4c3262f87E+0x124>)
   2144a:	2108      	movs	r1, #8
   2144c:	2200      	movs	r2, #0
   2144e:	4613      	mov	r3, r2
   21450:	2c03      	cmp	r4, #3
   21452:	d101      	bne.n	21458 <_ZN20complex_dynamic_type3app17h2224b8b4c3262f87E+0xb4>
   21454:	df03      	svc	3
   21456:	e000      	b.n	2145a <_ZN20complex_dynamic_type3app17h2224b8b4c3262f87E+0xb6>
   21458:	df04      	svc	4
   2145a:	b015      	add	sp, #84	@ 0x54
   2145c:	bdf0      	pop	{r4, r5, r6, r7, pc}
   2145e:	a804      	add	r0, sp, #16
   21460:	7800      	ldrb	r0, [r0, #0]
   21462:	2802      	cmp	r0, #2
   21464:	d01c      	beq.n	214a0 <_ZN20complex_dynamic_type3app17h2224b8b4c3262f87E+0xfc>
   21466:	2803      	cmp	r0, #3
   21468:	d105      	bne.n	21476 <_ZN20complex_dynamic_type3app17h2224b8b4c3262f87E+0xd2>
   2146a:	4817      	ldr	r0, [pc, #92]	@ (214c8 <_ZN20complex_dynamic_type3app17h2224b8b4c3262f87E+0x124>)
   2146c:	2108      	movs	r1, #8
   2146e:	2200      	movs	r2, #0
   21470:	4613      	mov	r3, r2
   21472:	df03      	svc	3
   21474:	e004      	b.n	21480 <_ZN20complex_dynamic_type3app17h2224b8b4c3262f87E+0xdc>
   21476:	4814      	ldr	r0, [pc, #80]	@ (214c8 <_ZN20complex_dynamic_type3app17h2224b8b4c3262f87E+0x124>)
   21478:	2108      	movs	r1, #8
   2147a:	2200      	movs	r2, #0
   2147c:	4613      	mov	r3, r2
   2147e:	df04      	svc	4
   21480:	a804      	add	r0, sp, #16
   21482:	9900      	ldr	r1, [sp, #0]
   21484:	7001      	strb	r1, [r0, #0]
   21486:	a80a      	add	r0, sp, #40	@ 0x28
   21488:	7800      	ldrb	r0, [r0, #0]
   2148a:	2803      	cmp	r0, #3
   2148c:	d008      	beq.n	214a0 <_ZN20complex_dynamic_type3app17h2224b8b4c3262f87E+0xfc>
   2148e:	2802      	cmp	r0, #2
   21490:	d10c      	bne.n	214ac <_ZN20complex_dynamic_type3app17h2224b8b4c3262f87E+0x108>
   21492:	1c68      	adds	r0, r5, #1
   21494:	222b      	movs	r2, #43	@ 0x2b
   21496:	4621      	mov	r1, r4
   21498:	f009 f86e 	bl	2a578 <__aeabi_memcpy>
   2149c:	702e      	strb	r6, [r5, #0]
   2149e:	e7dc      	b.n	2145a <_ZN20complex_dynamic_type3app17h2224b8b4c3262f87E+0xb6>
   214a0:	4809      	ldr	r0, [pc, #36]	@ (214c8 <_ZN20complex_dynamic_type3app17h2224b8b4c3262f87E+0x124>)
   214a2:	2104      	movs	r1, #4
   214a4:	2200      	movs	r2, #0
   214a6:	4613      	mov	r3, r2
   214a8:	df03      	svc	3
   214aa:	e004      	b.n	214b6 <_ZN20complex_dynamic_type3app17h2224b8b4c3262f87E+0x112>
   214ac:	4806      	ldr	r0, [pc, #24]	@ (214c8 <_ZN20complex_dynamic_type3app17h2224b8b4c3262f87E+0x124>)
   214ae:	2104      	movs	r1, #4
   214b0:	2200      	movs	r2, #0
   214b2:	4613      	mov	r3, r2
   214b4:	df04      	svc	4
   214b6:	a804      	add	r0, sp, #16
   214b8:	7804      	ldrb	r4, [r0, #0]
   214ba:	1c68      	adds	r0, r5, #1
   214bc:	222b      	movs	r2, #43	@ 0x2b
   214be:	9901      	ldr	r1, [sp, #4]
   214c0:	f009 f85a 	bl	2a578 <__aeabi_memcpy>
   214c4:	702e      	strb	r6, [r5, #0]
   214c6:	e7bd      	b.n	21444 <_ZN20complex_dynamic_type3app17h2224b8b4c3262f87E+0xa0>
   214c8:	0000239f 	.word	0x0000239f

000214cc <_ZN20complex_dynamic_type3app17h2529aacc00ef85f5E>:
   214cc:	b5f0      	push	{r4, r5, r6, r7, lr}
   214ce:	af03      	add	r7, sp, #12
   214d0:	b0a5      	sub	sp, #148	@ 0x94
   214d2:	9004      	str	r0, [sp, #16]
   214d4:	a805      	add	r0, sp, #20
   214d6:	2402      	movs	r4, #2
   214d8:	7004      	strb	r4, [r0, #0]
   214da:	1c46      	adds	r6, r0, #1
   214dc:	221c      	movs	r2, #28
   214de:	9203      	str	r2, [sp, #12]
   214e0:	4630      	mov	r0, r6
   214e2:	f009 f849 	bl	2a578 <__aeabi_memcpy>
   214e6:	ad0d      	add	r5, sp, #52	@ 0x34
   214e8:	1c68      	adds	r0, r5, #1
   214ea:	215d      	movs	r1, #93	@ 0x5d
   214ec:	9002      	str	r0, [sp, #8]
   214ee:	f008 fe83 	bl	2a1f8 <__aeabi_memclr>
   214f2:	9401      	str	r4, [sp, #4]
   214f4:	702c      	strb	r4, [r5, #0]
   214f6:	483f      	ldr	r0, [pc, #252]	@ (215f4 <_ZN20complex_dynamic_type3app17h2529aacc00ef85f5E+0x128>)
   214f8:	2108      	movs	r1, #8
   214fa:	4632      	mov	r2, r6
   214fc:	9b03      	ldr	r3, [sp, #12]
   214fe:	df04      	svc	4
   21500:	2802      	cmp	r0, #2
   21502:	d104      	bne.n	2150e <_ZN20complex_dynamic_type3app17h2529aacc00ef85f5E+0x42>
   21504:	2001      	movs	r0, #1
   21506:	9a04      	ldr	r2, [sp, #16]
   21508:	7010      	strb	r0, [r2, #0]
   2150a:	6051      	str	r1, [r2, #4]
   2150c:	e02d      	b.n	2156a <_ZN20complex_dynamic_type3app17h2529aacc00ef85f5E+0x9e>
   2150e:	9d04      	ldr	r5, [sp, #16]
   21510:	a805      	add	r0, sp, #20
   21512:	2104      	movs	r1, #4
   21514:	7001      	strb	r1, [r0, #0]
   21516:	4837      	ldr	r0, [pc, #220]	@ (215f4 <_ZN20complex_dynamic_type3app17h2529aacc00ef85f5E+0x128>)
   21518:	2105      	movs	r1, #5
   2151a:	235d      	movs	r3, #93	@ 0x5d
   2151c:	9c02      	ldr	r4, [sp, #8]
   2151e:	4622      	mov	r2, r4
   21520:	df03      	svc	3
   21522:	2802      	cmp	r0, #2
   21524:	d10e      	bne.n	21544 <_ZN20complex_dynamic_type3app17h2529aacc00ef85f5E+0x78>
   21526:	2001      	movs	r0, #1
   21528:	7028      	strb	r0, [r5, #0]
   2152a:	6069      	str	r1, [r5, #4]
   2152c:	a80d      	add	r0, sp, #52	@ 0x34
   2152e:	7800      	ldrb	r0, [r0, #0]
   21530:	2802      	cmp	r0, #2
   21532:	d01a      	beq.n	2156a <_ZN20complex_dynamic_type3app17h2529aacc00ef85f5E+0x9e>
   21534:	2803      	cmp	r0, #3
   21536:	d013      	beq.n	21560 <_ZN20complex_dynamic_type3app17h2529aacc00ef85f5E+0x94>
   21538:	482e      	ldr	r0, [pc, #184]	@ (215f4 <_ZN20complex_dynamic_type3app17h2529aacc00ef85f5E+0x128>)
   2153a:	2105      	movs	r1, #5
   2153c:	2200      	movs	r2, #0
   2153e:	4613      	mov	r3, r2
   21540:	df04      	svc	4
   21542:	e012      	b.n	2156a <_ZN20complex_dynamic_type3app17h2529aacc00ef85f5E+0x9e>
   21544:	a80d      	add	r0, sp, #52	@ 0x34
   21546:	2103      	movs	r1, #3
   21548:	7001      	strb	r1, [r0, #0]
   2154a:	482a      	ldr	r0, [pc, #168]	@ (215f4 <_ZN20complex_dynamic_type3app17h2529aacc00ef85f5E+0x128>)
   2154c:	2108      	movs	r1, #8
   2154e:	2205      	movs	r2, #5
   21550:	2600      	movs	r6, #0
   21552:	4633      	mov	r3, r6
   21554:	df02      	svc	2
   21556:	287f      	cmp	r0, #127	@ 0x7f
   21558:	d816      	bhi.n	21588 <_ZN20complex_dynamic_type3app17h2529aacc00ef85f5E+0xbc>
   2155a:	2001      	movs	r0, #1
   2155c:	7028      	strb	r0, [r5, #0]
   2155e:	6069      	str	r1, [r5, #4]
   21560:	4824      	ldr	r0, [pc, #144]	@ (215f4 <_ZN20complex_dynamic_type3app17h2529aacc00ef85f5E+0x128>)
   21562:	2105      	movs	r1, #5
   21564:	2200      	movs	r2, #0
   21566:	4613      	mov	r3, r2
   21568:	df03      	svc	3
   2156a:	a805      	add	r0, sp, #20
   2156c:	7804      	ldrb	r4, [r0, #0]
   2156e:	2c02      	cmp	r4, #2
   21570:	d008      	beq.n	21584 <_ZN20complex_dynamic_type3app17h2529aacc00ef85f5E+0xb8>
   21572:	4820      	ldr	r0, [pc, #128]	@ (215f4 <_ZN20complex_dynamic_type3app17h2529aacc00ef85f5E+0x128>)
   21574:	2108      	movs	r1, #8
   21576:	2200      	movs	r2, #0
   21578:	4613      	mov	r3, r2
   2157a:	2c03      	cmp	r4, #3
   2157c:	d101      	bne.n	21582 <_ZN20complex_dynamic_type3app17h2529aacc00ef85f5E+0xb6>
   2157e:	df03      	svc	3
   21580:	e000      	b.n	21584 <_ZN20complex_dynamic_type3app17h2529aacc00ef85f5E+0xb8>
   21582:	df04      	svc	4
   21584:	b025      	add	sp, #148	@ 0x94
   21586:	bdf0      	pop	{r4, r5, r6, r7, pc}
   21588:	a805      	add	r0, sp, #20
   2158a:	7800      	ldrb	r0, [r0, #0]
   2158c:	2802      	cmp	r0, #2
   2158e:	d01c      	beq.n	215ca <_ZN20complex_dynamic_type3app17h2529aacc00ef85f5E+0xfe>
   21590:	2803      	cmp	r0, #3
   21592:	d105      	bne.n	215a0 <_ZN20complex_dynamic_type3app17h2529aacc00ef85f5E+0xd4>
   21594:	4817      	ldr	r0, [pc, #92]	@ (215f4 <_ZN20complex_dynamic_type3app17h2529aacc00ef85f5E+0x128>)
   21596:	2108      	movs	r1, #8
   21598:	2200      	movs	r2, #0
   2159a:	4613      	mov	r3, r2
   2159c:	df03      	svc	3
   2159e:	e004      	b.n	215aa <_ZN20complex_dynamic_type3app17h2529aacc00ef85f5E+0xde>
   215a0:	4814      	ldr	r0, [pc, #80]	@ (215f4 <_ZN20complex_dynamic_type3app17h2529aacc00ef85f5E+0x128>)
   215a2:	2108      	movs	r1, #8
   215a4:	2200      	movs	r2, #0
   215a6:	4613      	mov	r3, r2
   215a8:	df04      	svc	4
   215aa:	a805      	add	r0, sp, #20
   215ac:	9901      	ldr	r1, [sp, #4]
   215ae:	7001      	strb	r1, [r0, #0]
   215b0:	a80d      	add	r0, sp, #52	@ 0x34
   215b2:	7800      	ldrb	r0, [r0, #0]
   215b4:	2803      	cmp	r0, #3
   215b6:	d008      	beq.n	215ca <_ZN20complex_dynamic_type3app17h2529aacc00ef85f5E+0xfe>
   215b8:	2802      	cmp	r0, #2
   215ba:	d10c      	bne.n	215d6 <_ZN20complex_dynamic_type3app17h2529aacc00ef85f5E+0x10a>
   215bc:	1c68      	adds	r0, r5, #1
   215be:	225d      	movs	r2, #93	@ 0x5d
   215c0:	4621      	mov	r1, r4
   215c2:	f008 ffd9 	bl	2a578 <__aeabi_memcpy>
   215c6:	702e      	strb	r6, [r5, #0]
   215c8:	e7dc      	b.n	21584 <_ZN20complex_dynamic_type3app17h2529aacc00ef85f5E+0xb8>
   215ca:	480a      	ldr	r0, [pc, #40]	@ (215f4 <_ZN20complex_dynamic_type3app17h2529aacc00ef85f5E+0x128>)
   215cc:	2105      	movs	r1, #5
   215ce:	2200      	movs	r2, #0
   215d0:	4613      	mov	r3, r2
   215d2:	df03      	svc	3
   215d4:	e004      	b.n	215e0 <_ZN20complex_dynamic_type3app17h2529aacc00ef85f5E+0x114>
   215d6:	4807      	ldr	r0, [pc, #28]	@ (215f4 <_ZN20complex_dynamic_type3app17h2529aacc00ef85f5E+0x128>)
   215d8:	2105      	movs	r1, #5
   215da:	2200      	movs	r2, #0
   215dc:	4613      	mov	r3, r2
   215de:	df04      	svc	4
   215e0:	a805      	add	r0, sp, #20
   215e2:	7804      	ldrb	r4, [r0, #0]
   215e4:	1c68      	adds	r0, r5, #1
   215e6:	225d      	movs	r2, #93	@ 0x5d
   215e8:	9902      	ldr	r1, [sp, #8]
   215ea:	f008 ffc5 	bl	2a578 <__aeabi_memcpy>
   215ee:	702e      	strb	r6, [r5, #0]
   215f0:	e7bd      	b.n	2156e <_ZN20complex_dynamic_type3app17h2529aacc00ef85f5E+0xa2>
   215f2:	46c0      	nop			@ (mov r8, r8)
   215f4:	00000c3e 	.word	0x00000c3e

000215f8 <_ZN20complex_dynamic_type3app17h2661e0835ac31b7bE>:
   215f8:	b5f0      	push	{r4, r5, r6, r7, lr}
   215fa:	af03      	add	r7, sp, #12
   215fc:	b09f      	sub	sp, #124	@ 0x7c
   215fe:	9003      	str	r0, [sp, #12]
   21600:	a804      	add	r0, sp, #16
   21602:	2402      	movs	r4, #2
   21604:	7004      	strb	r4, [r0, #0]
   21606:	1c46      	adds	r6, r0, #1
   21608:	2213      	movs	r2, #19
   2160a:	9202      	str	r2, [sp, #8]
   2160c:	4630      	mov	r0, r6
   2160e:	f008 ffb3 	bl	2a578 <__aeabi_memcpy>
   21612:	ad09      	add	r5, sp, #36	@ 0x24
   21614:	1c68      	adds	r0, r5, #1
   21616:	2155      	movs	r1, #85	@ 0x55
   21618:	9001      	str	r0, [sp, #4]
   2161a:	f008 fded 	bl	2a1f8 <__aeabi_memclr>
   2161e:	9400      	str	r4, [sp, #0]
   21620:	702c      	strb	r4, [r5, #0]
   21622:	483f      	ldr	r0, [pc, #252]	@ (21720 <_ZN20complex_dynamic_type3app17h2661e0835ac31b7bE+0x128>)
   21624:	2109      	movs	r1, #9
   21626:	4632      	mov	r2, r6
   21628:	9b02      	ldr	r3, [sp, #8]
   2162a:	df04      	svc	4
   2162c:	2802      	cmp	r0, #2
   2162e:	d104      	bne.n	2163a <_ZN20complex_dynamic_type3app17h2661e0835ac31b7bE+0x42>
   21630:	2001      	movs	r0, #1
   21632:	9a03      	ldr	r2, [sp, #12]
   21634:	7010      	strb	r0, [r2, #0]
   21636:	6051      	str	r1, [r2, #4]
   21638:	e02d      	b.n	21696 <_ZN20complex_dynamic_type3app17h2661e0835ac31b7bE+0x9e>
   2163a:	9d03      	ldr	r5, [sp, #12]
   2163c:	a804      	add	r0, sp, #16
   2163e:	2104      	movs	r1, #4
   21640:	7001      	strb	r1, [r0, #0]
   21642:	4837      	ldr	r0, [pc, #220]	@ (21720 <_ZN20complex_dynamic_type3app17h2661e0835ac31b7bE+0x128>)
   21644:	2107      	movs	r1, #7
   21646:	2355      	movs	r3, #85	@ 0x55
   21648:	9c01      	ldr	r4, [sp, #4]
   2164a:	4622      	mov	r2, r4
   2164c:	df03      	svc	3
   2164e:	2802      	cmp	r0, #2
   21650:	d10e      	bne.n	21670 <_ZN20complex_dynamic_type3app17h2661e0835ac31b7bE+0x78>
   21652:	2001      	movs	r0, #1
   21654:	7028      	strb	r0, [r5, #0]
   21656:	6069      	str	r1, [r5, #4]
   21658:	a809      	add	r0, sp, #36	@ 0x24
   2165a:	7800      	ldrb	r0, [r0, #0]
   2165c:	2802      	cmp	r0, #2
   2165e:	d01a      	beq.n	21696 <_ZN20complex_dynamic_type3app17h2661e0835ac31b7bE+0x9e>
   21660:	2803      	cmp	r0, #3
   21662:	d013      	beq.n	2168c <_ZN20complex_dynamic_type3app17h2661e0835ac31b7bE+0x94>
   21664:	482e      	ldr	r0, [pc, #184]	@ (21720 <_ZN20complex_dynamic_type3app17h2661e0835ac31b7bE+0x128>)
   21666:	2107      	movs	r1, #7
   21668:	2200      	movs	r2, #0
   2166a:	4613      	mov	r3, r2
   2166c:	df04      	svc	4
   2166e:	e012      	b.n	21696 <_ZN20complex_dynamic_type3app17h2661e0835ac31b7bE+0x9e>
   21670:	a809      	add	r0, sp, #36	@ 0x24
   21672:	2103      	movs	r1, #3
   21674:	7001      	strb	r1, [r0, #0]
   21676:	482a      	ldr	r0, [pc, #168]	@ (21720 <_ZN20complex_dynamic_type3app17h2661e0835ac31b7bE+0x128>)
   21678:	2109      	movs	r1, #9
   2167a:	2207      	movs	r2, #7
   2167c:	2600      	movs	r6, #0
   2167e:	4633      	mov	r3, r6
   21680:	df02      	svc	2
   21682:	287f      	cmp	r0, #127	@ 0x7f
   21684:	d816      	bhi.n	216b4 <_ZN20complex_dynamic_type3app17h2661e0835ac31b7bE+0xbc>
   21686:	2001      	movs	r0, #1
   21688:	7028      	strb	r0, [r5, #0]
   2168a:	6069      	str	r1, [r5, #4]
   2168c:	4824      	ldr	r0, [pc, #144]	@ (21720 <_ZN20complex_dynamic_type3app17h2661e0835ac31b7bE+0x128>)
   2168e:	2107      	movs	r1, #7
   21690:	2200      	movs	r2, #0
   21692:	4613      	mov	r3, r2
   21694:	df03      	svc	3
   21696:	a804      	add	r0, sp, #16
   21698:	7804      	ldrb	r4, [r0, #0]
   2169a:	2c02      	cmp	r4, #2
   2169c:	d008      	beq.n	216b0 <_ZN20complex_dynamic_type3app17h2661e0835ac31b7bE+0xb8>
   2169e:	4820      	ldr	r0, [pc, #128]	@ (21720 <_ZN20complex_dynamic_type3app17h2661e0835ac31b7bE+0x128>)
   216a0:	2109      	movs	r1, #9
   216a2:	2200      	movs	r2, #0
   216a4:	4613      	mov	r3, r2
   216a6:	2c03      	cmp	r4, #3
   216a8:	d101      	bne.n	216ae <_ZN20complex_dynamic_type3app17h2661e0835ac31b7bE+0xb6>
   216aa:	df03      	svc	3
   216ac:	e000      	b.n	216b0 <_ZN20complex_dynamic_type3app17h2661e0835ac31b7bE+0xb8>
   216ae:	df04      	svc	4
   216b0:	b01f      	add	sp, #124	@ 0x7c
   216b2:	bdf0      	pop	{r4, r5, r6, r7, pc}
   216b4:	a804      	add	r0, sp, #16
   216b6:	7800      	ldrb	r0, [r0, #0]
   216b8:	2802      	cmp	r0, #2
   216ba:	d01c      	beq.n	216f6 <_ZN20complex_dynamic_type3app17h2661e0835ac31b7bE+0xfe>
   216bc:	2803      	cmp	r0, #3
   216be:	d105      	bne.n	216cc <_ZN20complex_dynamic_type3app17h2661e0835ac31b7bE+0xd4>
   216c0:	4817      	ldr	r0, [pc, #92]	@ (21720 <_ZN20complex_dynamic_type3app17h2661e0835ac31b7bE+0x128>)
   216c2:	2109      	movs	r1, #9
   216c4:	2200      	movs	r2, #0
   216c6:	4613      	mov	r3, r2
   216c8:	df03      	svc	3
   216ca:	e004      	b.n	216d6 <_ZN20complex_dynamic_type3app17h2661e0835ac31b7bE+0xde>
   216cc:	4814      	ldr	r0, [pc, #80]	@ (21720 <_ZN20complex_dynamic_type3app17h2661e0835ac31b7bE+0x128>)
   216ce:	2109      	movs	r1, #9
   216d0:	2200      	movs	r2, #0
   216d2:	4613      	mov	r3, r2
   216d4:	df04      	svc	4
   216d6:	a804      	add	r0, sp, #16
   216d8:	9900      	ldr	r1, [sp, #0]
   216da:	7001      	strb	r1, [r0, #0]
   216dc:	a809      	add	r0, sp, #36	@ 0x24
   216de:	7800      	ldrb	r0, [r0, #0]
   216e0:	2803      	cmp	r0, #3
   216e2:	d008      	beq.n	216f6 <_ZN20complex_dynamic_type3app17h2661e0835ac31b7bE+0xfe>
   216e4:	2802      	cmp	r0, #2
   216e6:	d10c      	bne.n	21702 <_ZN20complex_dynamic_type3app17h2661e0835ac31b7bE+0x10a>
   216e8:	1c68      	adds	r0, r5, #1
   216ea:	2255      	movs	r2, #85	@ 0x55
   216ec:	4621      	mov	r1, r4
   216ee:	f008 ff43 	bl	2a578 <__aeabi_memcpy>
   216f2:	702e      	strb	r6, [r5, #0]
   216f4:	e7dc      	b.n	216b0 <_ZN20complex_dynamic_type3app17h2661e0835ac31b7bE+0xb8>
   216f6:	480a      	ldr	r0, [pc, #40]	@ (21720 <_ZN20complex_dynamic_type3app17h2661e0835ac31b7bE+0x128>)
   216f8:	2107      	movs	r1, #7
   216fa:	2200      	movs	r2, #0
   216fc:	4613      	mov	r3, r2
   216fe:	df03      	svc	3
   21700:	e004      	b.n	2170c <_ZN20complex_dynamic_type3app17h2661e0835ac31b7bE+0x114>
   21702:	4807      	ldr	r0, [pc, #28]	@ (21720 <_ZN20complex_dynamic_type3app17h2661e0835ac31b7bE+0x128>)
   21704:	2107      	movs	r1, #7
   21706:	2200      	movs	r2, #0
   21708:	4613      	mov	r3, r2
   2170a:	df04      	svc	4
   2170c:	a804      	add	r0, sp, #16
   2170e:	7804      	ldrb	r4, [r0, #0]
   21710:	1c68      	adds	r0, r5, #1
   21712:	2255      	movs	r2, #85	@ 0x55
   21714:	9901      	ldr	r1, [sp, #4]
   21716:	f008 ff2f 	bl	2a578 <__aeabi_memcpy>
   2171a:	702e      	strb	r6, [r5, #0]
   2171c:	e7bd      	b.n	2169a <_ZN20complex_dynamic_type3app17h2661e0835ac31b7bE+0xa2>
   2171e:	46c0      	nop			@ (mov r8, r8)
   21720:	0000032e 	.word	0x0000032e

00021724 <_ZN20complex_dynamic_type3app17h289e11000b1b4625E>:
   21724:	b5f0      	push	{r4, r5, r6, r7, lr}
   21726:	af03      	add	r7, sp, #12
   21728:	b0ad      	sub	sp, #180	@ 0xb4
   2172a:	9003      	str	r0, [sp, #12]
   2172c:	a804      	add	r0, sp, #16
   2172e:	2602      	movs	r6, #2
   21730:	7006      	strb	r6, [r0, #0]
   21732:	1c40      	adds	r0, r0, #1
   21734:	9002      	str	r0, [sp, #8]
   21736:	2551      	movs	r5, #81	@ 0x51
   21738:	462a      	mov	r2, r5
   2173a:	f008 ff1d 	bl	2a578 <__aeabi_memcpy>
   2173e:	ac19      	add	r4, sp, #100	@ 0x64
   21740:	1c60      	adds	r0, r4, #1
   21742:	214f      	movs	r1, #79	@ 0x4f
   21744:	9001      	str	r0, [sp, #4]
   21746:	f008 fd57 	bl	2a1f8 <__aeabi_memclr>
   2174a:	7026      	strb	r6, [r4, #0]
   2174c:	4840      	ldr	r0, [pc, #256]	@ (21850 <_ZN20complex_dynamic_type3app17h289e11000b1b4625E+0x12c>)
   2174e:	4631      	mov	r1, r6
   21750:	9a02      	ldr	r2, [sp, #8]
   21752:	462b      	mov	r3, r5
   21754:	df04      	svc	4
   21756:	2802      	cmp	r0, #2
   21758:	d104      	bne.n	21764 <_ZN20complex_dynamic_type3app17h289e11000b1b4625E+0x40>
   2175a:	2001      	movs	r0, #1
   2175c:	9a03      	ldr	r2, [sp, #12]
   2175e:	7010      	strb	r0, [r2, #0]
   21760:	6051      	str	r1, [r2, #4]
   21762:	e02d      	b.n	217c0 <_ZN20complex_dynamic_type3app17h289e11000b1b4625E+0x9c>
   21764:	9c03      	ldr	r4, [sp, #12]
   21766:	a804      	add	r0, sp, #16
   21768:	2104      	movs	r1, #4
   2176a:	7001      	strb	r1, [r0, #0]
   2176c:	4838      	ldr	r0, [pc, #224]	@ (21850 <_ZN20complex_dynamic_type3app17h289e11000b1b4625E+0x12c>)
   2176e:	234f      	movs	r3, #79	@ 0x4f
   21770:	9d01      	ldr	r5, [sp, #4]
   21772:	462a      	mov	r2, r5
   21774:	df03      	svc	3
   21776:	2802      	cmp	r0, #2
   21778:	d10e      	bne.n	21798 <_ZN20complex_dynamic_type3app17h289e11000b1b4625E+0x74>
   2177a:	2001      	movs	r0, #1
   2177c:	7020      	strb	r0, [r4, #0]
   2177e:	6061      	str	r1, [r4, #4]
   21780:	a819      	add	r0, sp, #100	@ 0x64
   21782:	7800      	ldrb	r0, [r0, #0]
   21784:	2802      	cmp	r0, #2
   21786:	d01b      	beq.n	217c0 <_ZN20complex_dynamic_type3app17h289e11000b1b4625E+0x9c>
   21788:	2803      	cmp	r0, #3
   2178a:	d014      	beq.n	217b6 <_ZN20complex_dynamic_type3app17h289e11000b1b4625E+0x92>
   2178c:	4830      	ldr	r0, [pc, #192]	@ (21850 <_ZN20complex_dynamic_type3app17h289e11000b1b4625E+0x12c>)
   2178e:	2104      	movs	r1, #4
   21790:	2200      	movs	r2, #0
   21792:	4613      	mov	r3, r2
   21794:	df04      	svc	4
   21796:	e013      	b.n	217c0 <_ZN20complex_dynamic_type3app17h289e11000b1b4625E+0x9c>
   21798:	a819      	add	r0, sp, #100	@ 0x64
   2179a:	2103      	movs	r1, #3
   2179c:	7001      	strb	r1, [r0, #0]
   2179e:	482c      	ldr	r0, [pc, #176]	@ (21850 <_ZN20complex_dynamic_type3app17h289e11000b1b4625E+0x12c>)
   217a0:	2602      	movs	r6, #2
   217a2:	2204      	movs	r2, #4
   217a4:	2300      	movs	r3, #0
   217a6:	4631      	mov	r1, r6
   217a8:	9302      	str	r3, [sp, #8]
   217aa:	df02      	svc	2
   217ac:	287f      	cmp	r0, #127	@ 0x7f
   217ae:	d816      	bhi.n	217de <_ZN20complex_dynamic_type3app17h289e11000b1b4625E+0xba>
   217b0:	2001      	movs	r0, #1
   217b2:	7020      	strb	r0, [r4, #0]
   217b4:	6061      	str	r1, [r4, #4]
   217b6:	4826      	ldr	r0, [pc, #152]	@ (21850 <_ZN20complex_dynamic_type3app17h289e11000b1b4625E+0x12c>)
   217b8:	2104      	movs	r1, #4
   217ba:	2200      	movs	r2, #0
   217bc:	4613      	mov	r3, r2
   217be:	df03      	svc	3
   217c0:	a804      	add	r0, sp, #16
   217c2:	7804      	ldrb	r4, [r0, #0]
   217c4:	2c02      	cmp	r4, #2
   217c6:	d008      	beq.n	217da <_ZN20complex_dynamic_type3app17h289e11000b1b4625E+0xb6>
   217c8:	4821      	ldr	r0, [pc, #132]	@ (21850 <_ZN20complex_dynamic_type3app17h289e11000b1b4625E+0x12c>)
   217ca:	2102      	movs	r1, #2
   217cc:	2200      	movs	r2, #0
   217ce:	4613      	mov	r3, r2
   217d0:	2c03      	cmp	r4, #3
   217d2:	d101      	bne.n	217d8 <_ZN20complex_dynamic_type3app17h289e11000b1b4625E+0xb4>
   217d4:	df03      	svc	3
   217d6:	e000      	b.n	217da <_ZN20complex_dynamic_type3app17h289e11000b1b4625E+0xb6>
   217d8:	df04      	svc	4
   217da:	b02d      	add	sp, #180	@ 0xb4
   217dc:	bdf0      	pop	{r4, r5, r6, r7, pc}
   217de:	a804      	add	r0, sp, #16
   217e0:	7800      	ldrb	r0, [r0, #0]
   217e2:	2802      	cmp	r0, #2
   217e4:	d01c      	beq.n	21820 <_ZN20complex_dynamic_type3app17h289e11000b1b4625E+0xfc>
   217e6:	2803      	cmp	r0, #3
   217e8:	d105      	bne.n	217f6 <_ZN20complex_dynamic_type3app17h289e11000b1b4625E+0xd2>
   217ea:	4819      	ldr	r0, [pc, #100]	@ (21850 <_ZN20complex_dynamic_type3app17h289e11000b1b4625E+0x12c>)
   217ec:	2102      	movs	r1, #2
   217ee:	2200      	movs	r2, #0
   217f0:	4613      	mov	r3, r2
   217f2:	df03      	svc	3
   217f4:	e004      	b.n	21800 <_ZN20complex_dynamic_type3app17h289e11000b1b4625E+0xdc>
   217f6:	4816      	ldr	r0, [pc, #88]	@ (21850 <_ZN20complex_dynamic_type3app17h289e11000b1b4625E+0x12c>)
   217f8:	2102      	movs	r1, #2
   217fa:	2200      	movs	r2, #0
   217fc:	4613      	mov	r3, r2
   217fe:	df04      	svc	4
   21800:	a804      	add	r0, sp, #16
   21802:	7006      	strb	r6, [r0, #0]
   21804:	a819      	add	r0, sp, #100	@ 0x64
   21806:	7800      	ldrb	r0, [r0, #0]
   21808:	2803      	cmp	r0, #3
   2180a:	d009      	beq.n	21820 <_ZN20complex_dynamic_type3app17h289e11000b1b4625E+0xfc>
   2180c:	2802      	cmp	r0, #2
   2180e:	d10e      	bne.n	2182e <_ZN20complex_dynamic_type3app17h289e11000b1b4625E+0x10a>
   21810:	1c60      	adds	r0, r4, #1
   21812:	224f      	movs	r2, #79	@ 0x4f
   21814:	4629      	mov	r1, r5
   21816:	f008 feaf 	bl	2a578 <__aeabi_memcpy>
   2181a:	9802      	ldr	r0, [sp, #8]
   2181c:	7020      	strb	r0, [r4, #0]
   2181e:	e7dc      	b.n	217da <_ZN20complex_dynamic_type3app17h289e11000b1b4625E+0xb6>
   21820:	462e      	mov	r6, r5
   21822:	480b      	ldr	r0, [pc, #44]	@ (21850 <_ZN20complex_dynamic_type3app17h289e11000b1b4625E+0x12c>)
   21824:	2104      	movs	r1, #4
   21826:	2200      	movs	r2, #0
   21828:	4613      	mov	r3, r2
   2182a:	df03      	svc	3
   2182c:	e005      	b.n	2183a <_ZN20complex_dynamic_type3app17h289e11000b1b4625E+0x116>
   2182e:	462e      	mov	r6, r5
   21830:	4807      	ldr	r0, [pc, #28]	@ (21850 <_ZN20complex_dynamic_type3app17h289e11000b1b4625E+0x12c>)
   21832:	2104      	movs	r1, #4
   21834:	2200      	movs	r2, #0
   21836:	4613      	mov	r3, r2
   21838:	df04      	svc	4
   2183a:	4625      	mov	r5, r4
   2183c:	a804      	add	r0, sp, #16
   2183e:	7804      	ldrb	r4, [r0, #0]
   21840:	1c68      	adds	r0, r5, #1
   21842:	224f      	movs	r2, #79	@ 0x4f
   21844:	4631      	mov	r1, r6
   21846:	f008 fe97 	bl	2a578 <__aeabi_memcpy>
   2184a:	9802      	ldr	r0, [sp, #8]
   2184c:	7028      	strb	r0, [r5, #0]
   2184e:	e7b9      	b.n	217c4 <_ZN20complex_dynamic_type3app17h289e11000b1b4625E+0xa0>
   21850:	00000e16 	.word	0x00000e16

00021854 <_ZN20complex_dynamic_type3app17h29dc0d46be5048d6E>:
   21854:	b5f0      	push	{r4, r5, r6, r7, lr}
   21856:	af03      	add	r7, sp, #12
   21858:	b0a3      	sub	sp, #140	@ 0x8c
   2185a:	9004      	str	r0, [sp, #16]
   2185c:	a805      	add	r0, sp, #20
   2185e:	2402      	movs	r4, #2
   21860:	7004      	strb	r4, [r0, #0]
   21862:	1c46      	adds	r6, r0, #1
   21864:	2235      	movs	r2, #53	@ 0x35
   21866:	9203      	str	r2, [sp, #12]
   21868:	4630      	mov	r0, r6
   2186a:	f008 fe85 	bl	2a578 <__aeabi_memcpy>
   2186e:	ad13      	add	r5, sp, #76	@ 0x4c
   21870:	1c68      	adds	r0, r5, #1
   21872:	213f      	movs	r1, #63	@ 0x3f
   21874:	9002      	str	r0, [sp, #8]
   21876:	f008 fcbf 	bl	2a1f8 <__aeabi_memclr>
   2187a:	9401      	str	r4, [sp, #4]
   2187c:	702c      	strb	r4, [r5, #0]
   2187e:	483e      	ldr	r0, [pc, #248]	@ (21978 <_ZN20complex_dynamic_type3app17h29dc0d46be5048d6E+0x124>)
   21880:	2100      	movs	r1, #0
   21882:	4632      	mov	r2, r6
   21884:	9b03      	ldr	r3, [sp, #12]
   21886:	df04      	svc	4
   21888:	2802      	cmp	r0, #2
   2188a:	d104      	bne.n	21896 <_ZN20complex_dynamic_type3app17h29dc0d46be5048d6E+0x42>
   2188c:	2001      	movs	r0, #1
   2188e:	9a04      	ldr	r2, [sp, #16]
   21890:	7010      	strb	r0, [r2, #0]
   21892:	6051      	str	r1, [r2, #4]
   21894:	e02c      	b.n	218f0 <_ZN20complex_dynamic_type3app17h29dc0d46be5048d6E+0x9c>
   21896:	9d04      	ldr	r5, [sp, #16]
   21898:	a805      	add	r0, sp, #20
   2189a:	2104      	movs	r1, #4
   2189c:	7001      	strb	r1, [r0, #0]
   2189e:	4836      	ldr	r0, [pc, #216]	@ (21978 <_ZN20complex_dynamic_type3app17h29dc0d46be5048d6E+0x124>)
   218a0:	2403      	movs	r4, #3
   218a2:	233f      	movs	r3, #63	@ 0x3f
   218a4:	4621      	mov	r1, r4
   218a6:	9a02      	ldr	r2, [sp, #8]
   218a8:	df03      	svc	3
   218aa:	2802      	cmp	r0, #2
   218ac:	d10e      	bne.n	218cc <_ZN20complex_dynamic_type3app17h29dc0d46be5048d6E+0x78>
   218ae:	2001      	movs	r0, #1
   218b0:	7028      	strb	r0, [r5, #0]
   218b2:	6069      	str	r1, [r5, #4]
   218b4:	a813      	add	r0, sp, #76	@ 0x4c
   218b6:	7800      	ldrb	r0, [r0, #0]
   218b8:	2802      	cmp	r0, #2
   218ba:	d019      	beq.n	218f0 <_ZN20complex_dynamic_type3app17h29dc0d46be5048d6E+0x9c>
   218bc:	2803      	cmp	r0, #3
   218be:	d012      	beq.n	218e6 <_ZN20complex_dynamic_type3app17h29dc0d46be5048d6E+0x92>
   218c0:	482d      	ldr	r0, [pc, #180]	@ (21978 <_ZN20complex_dynamic_type3app17h29dc0d46be5048d6E+0x124>)
   218c2:	2103      	movs	r1, #3
   218c4:	2200      	movs	r2, #0
   218c6:	4613      	mov	r3, r2
   218c8:	df04      	svc	4
   218ca:	e011      	b.n	218f0 <_ZN20complex_dynamic_type3app17h29dc0d46be5048d6E+0x9c>
   218cc:	a813      	add	r0, sp, #76	@ 0x4c
   218ce:	7004      	strb	r4, [r0, #0]
   218d0:	4829      	ldr	r0, [pc, #164]	@ (21978 <_ZN20complex_dynamic_type3app17h29dc0d46be5048d6E+0x124>)
   218d2:	2600      	movs	r6, #0
   218d4:	4631      	mov	r1, r6
   218d6:	4622      	mov	r2, r4
   218d8:	4633      	mov	r3, r6
   218da:	df02      	svc	2
   218dc:	287f      	cmp	r0, #127	@ 0x7f
   218de:	d816      	bhi.n	2190e <_ZN20complex_dynamic_type3app17h29dc0d46be5048d6E+0xba>
   218e0:	2001      	movs	r0, #1
   218e2:	7028      	strb	r0, [r5, #0]
   218e4:	6069      	str	r1, [r5, #4]
   218e6:	4824      	ldr	r0, [pc, #144]	@ (21978 <_ZN20complex_dynamic_type3app17h29dc0d46be5048d6E+0x124>)
   218e8:	2103      	movs	r1, #3
   218ea:	2200      	movs	r2, #0
   218ec:	4613      	mov	r3, r2
   218ee:	df03      	svc	3
   218f0:	a805      	add	r0, sp, #20
   218f2:	7804      	ldrb	r4, [r0, #0]
   218f4:	2c02      	cmp	r4, #2
   218f6:	d008      	beq.n	2190a <_ZN20complex_dynamic_type3app17h29dc0d46be5048d6E+0xb6>
   218f8:	481f      	ldr	r0, [pc, #124]	@ (21978 <_ZN20complex_dynamic_type3app17h29dc0d46be5048d6E+0x124>)
   218fa:	2100      	movs	r1, #0
   218fc:	460a      	mov	r2, r1
   218fe:	460b      	mov	r3, r1
   21900:	2c03      	cmp	r4, #3
   21902:	d101      	bne.n	21908 <_ZN20complex_dynamic_type3app17h29dc0d46be5048d6E+0xb4>
   21904:	df03      	svc	3
   21906:	e000      	b.n	2190a <_ZN20complex_dynamic_type3app17h29dc0d46be5048d6E+0xb6>
   21908:	df04      	svc	4
   2190a:	b023      	add	sp, #140	@ 0x8c
   2190c:	bdf0      	pop	{r4, r5, r6, r7, pc}
   2190e:	a805      	add	r0, sp, #20
   21910:	7800      	ldrb	r0, [r0, #0]
   21912:	2802      	cmp	r0, #2
   21914:	d01c      	beq.n	21950 <_ZN20complex_dynamic_type3app17h29dc0d46be5048d6E+0xfc>
   21916:	2803      	cmp	r0, #3
   21918:	d105      	bne.n	21926 <_ZN20complex_dynamic_type3app17h29dc0d46be5048d6E+0xd2>
   2191a:	4817      	ldr	r0, [pc, #92]	@ (21978 <_ZN20complex_dynamic_type3app17h29dc0d46be5048d6E+0x124>)
   2191c:	2100      	movs	r1, #0
   2191e:	460a      	mov	r2, r1
   21920:	460b      	mov	r3, r1
   21922:	df03      	svc	3
   21924:	e004      	b.n	21930 <_ZN20complex_dynamic_type3app17h29dc0d46be5048d6E+0xdc>
   21926:	4814      	ldr	r0, [pc, #80]	@ (21978 <_ZN20complex_dynamic_type3app17h29dc0d46be5048d6E+0x124>)
   21928:	2100      	movs	r1, #0
   2192a:	460a      	mov	r2, r1
   2192c:	460b      	mov	r3, r1
   2192e:	df04      	svc	4
   21930:	9901      	ldr	r1, [sp, #4]
   21932:	a805      	add	r0, sp, #20
   21934:	7001      	strb	r1, [r0, #0]
   21936:	a813      	add	r0, sp, #76	@ 0x4c
   21938:	7800      	ldrb	r0, [r0, #0]
   2193a:	2803      	cmp	r0, #3
   2193c:	d008      	beq.n	21950 <_ZN20complex_dynamic_type3app17h29dc0d46be5048d6E+0xfc>
   2193e:	2802      	cmp	r0, #2
   21940:	d10c      	bne.n	2195c <_ZN20complex_dynamic_type3app17h29dc0d46be5048d6E+0x108>
   21942:	1c68      	adds	r0, r5, #1
   21944:	223f      	movs	r2, #63	@ 0x3f
   21946:	9902      	ldr	r1, [sp, #8]
   21948:	f008 fe16 	bl	2a578 <__aeabi_memcpy>
   2194c:	702e      	strb	r6, [r5, #0]
   2194e:	e7dc      	b.n	2190a <_ZN20complex_dynamic_type3app17h29dc0d46be5048d6E+0xb6>
   21950:	4809      	ldr	r0, [pc, #36]	@ (21978 <_ZN20complex_dynamic_type3app17h29dc0d46be5048d6E+0x124>)
   21952:	2103      	movs	r1, #3
   21954:	2200      	movs	r2, #0
   21956:	4613      	mov	r3, r2
   21958:	df03      	svc	3
   2195a:	e004      	b.n	21966 <_ZN20complex_dynamic_type3app17h29dc0d46be5048d6E+0x112>
   2195c:	4806      	ldr	r0, [pc, #24]	@ (21978 <_ZN20complex_dynamic_type3app17h29dc0d46be5048d6E+0x124>)
   2195e:	2103      	movs	r1, #3
   21960:	2200      	movs	r2, #0
   21962:	4613      	mov	r3, r2
   21964:	df04      	svc	4
   21966:	a805      	add	r0, sp, #20
   21968:	7804      	ldrb	r4, [r0, #0]
   2196a:	1c68      	adds	r0, r5, #1
   2196c:	223f      	movs	r2, #63	@ 0x3f
   2196e:	9902      	ldr	r1, [sp, #8]
   21970:	f008 fe02 	bl	2a578 <__aeabi_memcpy>
   21974:	702e      	strb	r6, [r5, #0]
   21976:	e7bd      	b.n	218f4 <_ZN20complex_dynamic_type3app17h29dc0d46be5048d6E+0xa0>
   21978:	00000e57 	.word	0x00000e57

0002197c <_ZN20complex_dynamic_type3app17h2be707c5e7aa2453E>:
   2197c:	b5f0      	push	{r4, r5, r6, r7, lr}
   2197e:	af03      	add	r7, sp, #12
   21980:	b0a3      	sub	sp, #140	@ 0x8c
   21982:	9003      	str	r0, [sp, #12]
   21984:	ae04      	add	r6, sp, #16
   21986:	2502      	movs	r5, #2
   21988:	7035      	strb	r5, [r6, #0]
   2198a:	1c70      	adds	r0, r6, #1
   2198c:	223c      	movs	r2, #60	@ 0x3c
   2198e:	9202      	str	r2, [sp, #8]
   21990:	f008 fdf2 	bl	2a578 <__aeabi_memcpy>
   21994:	ac14      	add	r4, sp, #80	@ 0x50
   21996:	1c60      	adds	r0, r4, #1
   21998:	2138      	movs	r1, #56	@ 0x38
   2199a:	9001      	str	r0, [sp, #4]
   2199c:	f008 fc2c 	bl	2a1f8 <__aeabi_memclr>
   219a0:	7025      	strb	r5, [r4, #0]
   219a2:	2204      	movs	r2, #4
   219a4:	4630      	mov	r0, r6
   219a6:	9902      	ldr	r1, [sp, #8]
   219a8:	f7fe fc14 	bl	201d4 <_ZN9allow_pin12dynamic_type23Buffer$LT$B$C$_$C$_$GT$5allow17h64f77a1f3748350cE>
   219ac:	07c0      	lsls	r0, r0, #31
   219ae:	d10e      	bne.n	219ce <_ZN20complex_dynamic_type3app17h2be707c5e7aa2453E+0x52>
   219b0:	a814      	add	r0, sp, #80	@ 0x50
   219b2:	2138      	movs	r1, #56	@ 0x38
   219b4:	2203      	movs	r2, #3
   219b6:	f7fe fc0d 	bl	201d4 <_ZN9allow_pin12dynamic_type23Buffer$LT$B$C$_$C$_$GT$5allow17h64f77a1f3748350cE>
   219ba:	07c0      	lsls	r0, r0, #31
   219bc:	d107      	bne.n	219ce <_ZN20complex_dynamic_type3app17h2be707c5e7aa2453E+0x52>
   219be:	4831      	ldr	r0, [pc, #196]	@ (21a84 <_ZN20complex_dynamic_type3app17h2be707c5e7aa2453E+0x108>)
   219c0:	2103      	movs	r1, #3
   219c2:	2600      	movs	r6, #0
   219c4:	460a      	mov	r2, r1
   219c6:	4633      	mov	r3, r6
   219c8:	df02      	svc	2
   219ca:	287f      	cmp	r0, #127	@ 0x7f
   219cc:	d823      	bhi.n	21a16 <_ZN20complex_dynamic_type3app17h2be707c5e7aa2453E+0x9a>
   219ce:	2001      	movs	r0, #1
   219d0:	9a03      	ldr	r2, [sp, #12]
   219d2:	7010      	strb	r0, [r2, #0]
   219d4:	6051      	str	r1, [r2, #4]
   219d6:	a814      	add	r0, sp, #80	@ 0x50
   219d8:	7800      	ldrb	r0, [r0, #0]
   219da:	2802      	cmp	r0, #2
   219dc:	d00c      	beq.n	219f8 <_ZN20complex_dynamic_type3app17h2be707c5e7aa2453E+0x7c>
   219de:	2803      	cmp	r0, #3
   219e0:	d105      	bne.n	219ee <_ZN20complex_dynamic_type3app17h2be707c5e7aa2453E+0x72>
   219e2:	4828      	ldr	r0, [pc, #160]	@ (21a84 <_ZN20complex_dynamic_type3app17h2be707c5e7aa2453E+0x108>)
   219e4:	2103      	movs	r1, #3
   219e6:	2200      	movs	r2, #0
   219e8:	4613      	mov	r3, r2
   219ea:	df03      	svc	3
   219ec:	e004      	b.n	219f8 <_ZN20complex_dynamic_type3app17h2be707c5e7aa2453E+0x7c>
   219ee:	4825      	ldr	r0, [pc, #148]	@ (21a84 <_ZN20complex_dynamic_type3app17h2be707c5e7aa2453E+0x108>)
   219f0:	2103      	movs	r1, #3
   219f2:	2200      	movs	r2, #0
   219f4:	4613      	mov	r3, r2
   219f6:	df04      	svc	4
   219f8:	a804      	add	r0, sp, #16
   219fa:	7804      	ldrb	r4, [r0, #0]
   219fc:	2c02      	cmp	r4, #2
   219fe:	d008      	beq.n	21a12 <_ZN20complex_dynamic_type3app17h2be707c5e7aa2453E+0x96>
   21a00:	4820      	ldr	r0, [pc, #128]	@ (21a84 <_ZN20complex_dynamic_type3app17h2be707c5e7aa2453E+0x108>)
   21a02:	2103      	movs	r1, #3
   21a04:	2200      	movs	r2, #0
   21a06:	4613      	mov	r3, r2
   21a08:	2c03      	cmp	r4, #3
   21a0a:	d101      	bne.n	21a10 <_ZN20complex_dynamic_type3app17h2be707c5e7aa2453E+0x94>
   21a0c:	df03      	svc	3
   21a0e:	e000      	b.n	21a12 <_ZN20complex_dynamic_type3app17h2be707c5e7aa2453E+0x96>
   21a10:	df04      	svc	4
   21a12:	b023      	add	sp, #140	@ 0x8c
   21a14:	bdf0      	pop	{r4, r5, r6, r7, pc}
   21a16:	a804      	add	r0, sp, #16
   21a18:	7800      	ldrb	r0, [r0, #0]
   21a1a:	2802      	cmp	r0, #2
   21a1c:	d00c      	beq.n	21a38 <_ZN20complex_dynamic_type3app17h2be707c5e7aa2453E+0xbc>
   21a1e:	2803      	cmp	r0, #3
   21a20:	d105      	bne.n	21a2e <_ZN20complex_dynamic_type3app17h2be707c5e7aa2453E+0xb2>
   21a22:	4818      	ldr	r0, [pc, #96]	@ (21a84 <_ZN20complex_dynamic_type3app17h2be707c5e7aa2453E+0x108>)
   21a24:	2103      	movs	r1, #3
   21a26:	2200      	movs	r2, #0
   21a28:	4613      	mov	r3, r2
   21a2a:	df03      	svc	3
   21a2c:	e004      	b.n	21a38 <_ZN20complex_dynamic_type3app17h2be707c5e7aa2453E+0xbc>
   21a2e:	4815      	ldr	r0, [pc, #84]	@ (21a84 <_ZN20complex_dynamic_type3app17h2be707c5e7aa2453E+0x108>)
   21a30:	2103      	movs	r1, #3
   21a32:	2200      	movs	r2, #0
   21a34:	4613      	mov	r3, r2
   21a36:	df04      	svc	4
   21a38:	a804      	add	r0, sp, #16
   21a3a:	7005      	strb	r5, [r0, #0]
   21a3c:	a814      	add	r0, sp, #80	@ 0x50
   21a3e:	7800      	ldrb	r0, [r0, #0]
   21a40:	2803      	cmp	r0, #3
   21a42:	d009      	beq.n	21a58 <_ZN20complex_dynamic_type3app17h2be707c5e7aa2453E+0xdc>
   21a44:	2802      	cmp	r0, #2
   21a46:	d10d      	bne.n	21a64 <_ZN20complex_dynamic_type3app17h2be707c5e7aa2453E+0xe8>
   21a48:	9c03      	ldr	r4, [sp, #12]
   21a4a:	1c60      	adds	r0, r4, #1
   21a4c:	2238      	movs	r2, #56	@ 0x38
   21a4e:	9901      	ldr	r1, [sp, #4]
   21a50:	f008 fd92 	bl	2a578 <__aeabi_memcpy>
   21a54:	7026      	strb	r6, [r4, #0]
   21a56:	e7dc      	b.n	21a12 <_ZN20complex_dynamic_type3app17h2be707c5e7aa2453E+0x96>
   21a58:	480a      	ldr	r0, [pc, #40]	@ (21a84 <_ZN20complex_dynamic_type3app17h2be707c5e7aa2453E+0x108>)
   21a5a:	2103      	movs	r1, #3
   21a5c:	2200      	movs	r2, #0
   21a5e:	4613      	mov	r3, r2
   21a60:	df03      	svc	3
   21a62:	e004      	b.n	21a6e <_ZN20complex_dynamic_type3app17h2be707c5e7aa2453E+0xf2>
   21a64:	4807      	ldr	r0, [pc, #28]	@ (21a84 <_ZN20complex_dynamic_type3app17h2be707c5e7aa2453E+0x108>)
   21a66:	2103      	movs	r1, #3
   21a68:	2200      	movs	r2, #0
   21a6a:	4613      	mov	r3, r2
   21a6c:	df04      	svc	4
   21a6e:	a804      	add	r0, sp, #16
   21a70:	7804      	ldrb	r4, [r0, #0]
   21a72:	9d03      	ldr	r5, [sp, #12]
   21a74:	1c68      	adds	r0, r5, #1
   21a76:	2238      	movs	r2, #56	@ 0x38
   21a78:	9901      	ldr	r1, [sp, #4]
   21a7a:	f008 fd7d 	bl	2a578 <__aeabi_memcpy>
   21a7e:	702e      	strb	r6, [r5, #0]
   21a80:	e7bc      	b.n	219fc <_ZN20complex_dynamic_type3app17h2be707c5e7aa2453E+0x80>
   21a82:	46c0      	nop			@ (mov r8, r8)
   21a84:	00001d19 	.word	0x00001d19

00021a88 <_ZN20complex_dynamic_type3app17h2c54626a1155f496E>:
   21a88:	b5f0      	push	{r4, r5, r6, r7, lr}
   21a8a:	af03      	add	r7, sp, #12
   21a8c:	b09b      	sub	sp, #108	@ 0x6c
   21a8e:	9003      	str	r0, [sp, #12]
   21a90:	a804      	add	r0, sp, #16
   21a92:	2402      	movs	r4, #2
   21a94:	7004      	strb	r4, [r0, #0]
   21a96:	1c46      	adds	r6, r0, #1
   21a98:	2248      	movs	r2, #72	@ 0x48
   21a9a:	9202      	str	r2, [sp, #8]
   21a9c:	4630      	mov	r0, r6
   21a9e:	f008 fd6b 	bl	2a578 <__aeabi_memcpy>
   21aa2:	ad17      	add	r5, sp, #92	@ 0x5c
   21aa4:	1c68      	adds	r0, r5, #1
   21aa6:	210f      	movs	r1, #15
   21aa8:	9001      	str	r0, [sp, #4]
   21aaa:	f008 fba5 	bl	2a1f8 <__aeabi_memclr>
   21aae:	9400      	str	r4, [sp, #0]
   21ab0:	702c      	strb	r4, [r5, #0]
   21ab2:	483f      	ldr	r0, [pc, #252]	@ (21bb0 <_ZN20complex_dynamic_type3app17h2c54626a1155f496E+0x128>)
   21ab4:	2108      	movs	r1, #8
   21ab6:	4632      	mov	r2, r6
   21ab8:	9b02      	ldr	r3, [sp, #8]
   21aba:	df04      	svc	4
   21abc:	2802      	cmp	r0, #2
   21abe:	d104      	bne.n	21aca <_ZN20complex_dynamic_type3app17h2c54626a1155f496E+0x42>
   21ac0:	2001      	movs	r0, #1
   21ac2:	9a03      	ldr	r2, [sp, #12]
   21ac4:	7010      	strb	r0, [r2, #0]
   21ac6:	6051      	str	r1, [r2, #4]
   21ac8:	e02d      	b.n	21b26 <_ZN20complex_dynamic_type3app17h2c54626a1155f496E+0x9e>
   21aca:	9d03      	ldr	r5, [sp, #12]
   21acc:	a804      	add	r0, sp, #16
   21ace:	2104      	movs	r1, #4
   21ad0:	7001      	strb	r1, [r0, #0]
   21ad2:	4837      	ldr	r0, [pc, #220]	@ (21bb0 <_ZN20complex_dynamic_type3app17h2c54626a1155f496E+0x128>)
   21ad4:	2109      	movs	r1, #9
   21ad6:	230f      	movs	r3, #15
   21ad8:	9c01      	ldr	r4, [sp, #4]
   21ada:	4622      	mov	r2, r4
   21adc:	df03      	svc	3
   21ade:	2802      	cmp	r0, #2
   21ae0:	d10e      	bne.n	21b00 <_ZN20complex_dynamic_type3app17h2c54626a1155f496E+0x78>
   21ae2:	2001      	movs	r0, #1
   21ae4:	7028      	strb	r0, [r5, #0]
   21ae6:	6069      	str	r1, [r5, #4]
   21ae8:	a817      	add	r0, sp, #92	@ 0x5c
   21aea:	7800      	ldrb	r0, [r0, #0]
   21aec:	2802      	cmp	r0, #2
   21aee:	d01a      	beq.n	21b26 <_ZN20complex_dynamic_type3app17h2c54626a1155f496E+0x9e>
   21af0:	2803      	cmp	r0, #3
   21af2:	d013      	beq.n	21b1c <_ZN20complex_dynamic_type3app17h2c54626a1155f496E+0x94>
   21af4:	482e      	ldr	r0, [pc, #184]	@ (21bb0 <_ZN20complex_dynamic_type3app17h2c54626a1155f496E+0x128>)
   21af6:	2109      	movs	r1, #9
   21af8:	2200      	movs	r2, #0
   21afa:	4613      	mov	r3, r2
   21afc:	df04      	svc	4
   21afe:	e012      	b.n	21b26 <_ZN20complex_dynamic_type3app17h2c54626a1155f496E+0x9e>
   21b00:	a817      	add	r0, sp, #92	@ 0x5c
   21b02:	2103      	movs	r1, #3
   21b04:	7001      	strb	r1, [r0, #0]
   21b06:	482a      	ldr	r0, [pc, #168]	@ (21bb0 <_ZN20complex_dynamic_type3app17h2c54626a1155f496E+0x128>)
   21b08:	2108      	movs	r1, #8
   21b0a:	2209      	movs	r2, #9
   21b0c:	2600      	movs	r6, #0
   21b0e:	4633      	mov	r3, r6
   21b10:	df02      	svc	2
   21b12:	287f      	cmp	r0, #127	@ 0x7f
   21b14:	d816      	bhi.n	21b44 <_ZN20complex_dynamic_type3app17h2c54626a1155f496E+0xbc>
   21b16:	2001      	movs	r0, #1
   21b18:	7028      	strb	r0, [r5, #0]
   21b1a:	6069      	str	r1, [r5, #4]
   21b1c:	4824      	ldr	r0, [pc, #144]	@ (21bb0 <_ZN20complex_dynamic_type3app17h2c54626a1155f496E+0x128>)
   21b1e:	2109      	movs	r1, #9
   21b20:	2200      	movs	r2, #0
   21b22:	4613      	mov	r3, r2
   21b24:	df03      	svc	3
   21b26:	a804      	add	r0, sp, #16
   21b28:	7804      	ldrb	r4, [r0, #0]
   21b2a:	2c02      	cmp	r4, #2
   21b2c:	d008      	beq.n	21b40 <_ZN20complex_dynamic_type3app17h2c54626a1155f496E+0xb8>
   21b2e:	4820      	ldr	r0, [pc, #128]	@ (21bb0 <_ZN20complex_dynamic_type3app17h2c54626a1155f496E+0x128>)
   21b30:	2108      	movs	r1, #8
   21b32:	2200      	movs	r2, #0
   21b34:	4613      	mov	r3, r2
   21b36:	2c03      	cmp	r4, #3
   21b38:	d101      	bne.n	21b3e <_ZN20complex_dynamic_type3app17h2c54626a1155f496E+0xb6>
   21b3a:	df03      	svc	3
   21b3c:	e000      	b.n	21b40 <_ZN20complex_dynamic_type3app17h2c54626a1155f496E+0xb8>
   21b3e:	df04      	svc	4
   21b40:	b01b      	add	sp, #108	@ 0x6c
   21b42:	bdf0      	pop	{r4, r5, r6, r7, pc}
   21b44:	a804      	add	r0, sp, #16
   21b46:	7800      	ldrb	r0, [r0, #0]
   21b48:	2802      	cmp	r0, #2
   21b4a:	d01c      	beq.n	21b86 <_ZN20complex_dynamic_type3app17h2c54626a1155f496E+0xfe>
   21b4c:	2803      	cmp	r0, #3
   21b4e:	d105      	bne.n	21b5c <_ZN20complex_dynamic_type3app17h2c54626a1155f496E+0xd4>
   21b50:	4817      	ldr	r0, [pc, #92]	@ (21bb0 <_ZN20complex_dynamic_type3app17h2c54626a1155f496E+0x128>)
   21b52:	2108      	movs	r1, #8
   21b54:	2200      	movs	r2, #0
   21b56:	4613      	mov	r3, r2
   21b58:	df03      	svc	3
   21b5a:	e004      	b.n	21b66 <_ZN20complex_dynamic_type3app17h2c54626a1155f496E+0xde>
   21b5c:	4814      	ldr	r0, [pc, #80]	@ (21bb0 <_ZN20complex_dynamic_type3app17h2c54626a1155f496E+0x128>)
   21b5e:	2108      	movs	r1, #8
   21b60:	2200      	movs	r2, #0
   21b62:	4613      	mov	r3, r2
   21b64:	df04      	svc	4
   21b66:	a804      	add	r0, sp, #16
   21b68:	9900      	ldr	r1, [sp, #0]
   21b6a:	7001      	strb	r1, [r0, #0]
   21b6c:	a817      	add	r0, sp, #92	@ 0x5c
   21b6e:	7800      	ldrb	r0, [r0, #0]
   21b70:	2803      	cmp	r0, #3
   21b72:	d008      	beq.n	21b86 <_ZN20complex_dynamic_type3app17h2c54626a1155f496E+0xfe>
   21b74:	2802      	cmp	r0, #2
   21b76:	d10c      	bne.n	21b92 <_ZN20complex_dynamic_type3app17h2c54626a1155f496E+0x10a>
   21b78:	1c68      	adds	r0, r5, #1
   21b7a:	220f      	movs	r2, #15
   21b7c:	4621      	mov	r1, r4
   21b7e:	f008 fcfb 	bl	2a578 <__aeabi_memcpy>
   21b82:	702e      	strb	r6, [r5, #0]
   21b84:	e7dc      	b.n	21b40 <_ZN20complex_dynamic_type3app17h2c54626a1155f496E+0xb8>
   21b86:	480a      	ldr	r0, [pc, #40]	@ (21bb0 <_ZN20complex_dynamic_type3app17h2c54626a1155f496E+0x128>)
   21b88:	2109      	movs	r1, #9
   21b8a:	2200      	movs	r2, #0
   21b8c:	4613      	mov	r3, r2
   21b8e:	df03      	svc	3
   21b90:	e004      	b.n	21b9c <_ZN20complex_dynamic_type3app17h2c54626a1155f496E+0x114>
   21b92:	4807      	ldr	r0, [pc, #28]	@ (21bb0 <_ZN20complex_dynamic_type3app17h2c54626a1155f496E+0x128>)
   21b94:	2109      	movs	r1, #9
   21b96:	2200      	movs	r2, #0
   21b98:	4613      	mov	r3, r2
   21b9a:	df04      	svc	4
   21b9c:	a804      	add	r0, sp, #16
   21b9e:	7804      	ldrb	r4, [r0, #0]
   21ba0:	1c68      	adds	r0, r5, #1
   21ba2:	220f      	movs	r2, #15
   21ba4:	9901      	ldr	r1, [sp, #4]
   21ba6:	f008 fce7 	bl	2a578 <__aeabi_memcpy>
   21baa:	702e      	strb	r6, [r5, #0]
   21bac:	e7bd      	b.n	21b2a <_ZN20complex_dynamic_type3app17h2c54626a1155f496E+0xa2>
   21bae:	46c0      	nop			@ (mov r8, r8)
   21bb0:	0000111d 	.word	0x0000111d

00021bb4 <_ZN20complex_dynamic_type3app17h2e62881a43c6069cE>:
   21bb4:	b5f0      	push	{r4, r5, r6, r7, lr}
   21bb6:	af03      	add	r7, sp, #12
   21bb8:	b0a3      	sub	sp, #140	@ 0x8c
   21bba:	9003      	str	r0, [sp, #12]
   21bbc:	a804      	add	r0, sp, #16
   21bbe:	2402      	movs	r4, #2
   21bc0:	7004      	strb	r4, [r0, #0]
   21bc2:	1c46      	adds	r6, r0, #1
   21bc4:	2227      	movs	r2, #39	@ 0x27
   21bc6:	9202      	str	r2, [sp, #8]
   21bc8:	4630      	mov	r0, r6
   21bca:	f008 fcd5 	bl	2a578 <__aeabi_memcpy>
   21bce:	ad0e      	add	r5, sp, #56	@ 0x38
   21bd0:	1c68      	adds	r0, r5, #1
   21bd2:	2151      	movs	r1, #81	@ 0x51
   21bd4:	9001      	str	r0, [sp, #4]
   21bd6:	f008 fb0f 	bl	2a1f8 <__aeabi_memclr>
   21bda:	9400      	str	r4, [sp, #0]
   21bdc:	702c      	strb	r4, [r5, #0]
   21bde:	483e      	ldr	r0, [pc, #248]	@ (21cd8 <_ZN20complex_dynamic_type3app17h2e62881a43c6069cE+0x124>)
   21be0:	2100      	movs	r1, #0
   21be2:	4632      	mov	r2, r6
   21be4:	9b02      	ldr	r3, [sp, #8]
   21be6:	df04      	svc	4
   21be8:	2802      	cmp	r0, #2
   21bea:	d104      	bne.n	21bf6 <_ZN20complex_dynamic_type3app17h2e62881a43c6069cE+0x42>
   21bec:	2001      	movs	r0, #1
   21bee:	9a03      	ldr	r2, [sp, #12]
   21bf0:	7010      	strb	r0, [r2, #0]
   21bf2:	6051      	str	r1, [r2, #4]
   21bf4:	e02c      	b.n	21c50 <_ZN20complex_dynamic_type3app17h2e62881a43c6069cE+0x9c>
   21bf6:	9d03      	ldr	r5, [sp, #12]
   21bf8:	a804      	add	r0, sp, #16
   21bfa:	2104      	movs	r1, #4
   21bfc:	7001      	strb	r1, [r0, #0]
   21bfe:	4836      	ldr	r0, [pc, #216]	@ (21cd8 <_ZN20complex_dynamic_type3app17h2e62881a43c6069cE+0x124>)
   21c00:	2351      	movs	r3, #81	@ 0x51
   21c02:	9c01      	ldr	r4, [sp, #4]
   21c04:	4622      	mov	r2, r4
   21c06:	df03      	svc	3
   21c08:	2802      	cmp	r0, #2
   21c0a:	d10e      	bne.n	21c2a <_ZN20complex_dynamic_type3app17h2e62881a43c6069cE+0x76>
   21c0c:	2001      	movs	r0, #1
   21c0e:	7028      	strb	r0, [r5, #0]
   21c10:	6069      	str	r1, [r5, #4]
   21c12:	a80e      	add	r0, sp, #56	@ 0x38
   21c14:	7800      	ldrb	r0, [r0, #0]
   21c16:	2802      	cmp	r0, #2
   21c18:	d01a      	beq.n	21c50 <_ZN20complex_dynamic_type3app17h2e62881a43c6069cE+0x9c>
   21c1a:	2803      	cmp	r0, #3
   21c1c:	d013      	beq.n	21c46 <_ZN20complex_dynamic_type3app17h2e62881a43c6069cE+0x92>
   21c1e:	482e      	ldr	r0, [pc, #184]	@ (21cd8 <_ZN20complex_dynamic_type3app17h2e62881a43c6069cE+0x124>)
   21c20:	2104      	movs	r1, #4
   21c22:	2200      	movs	r2, #0
   21c24:	4613      	mov	r3, r2
   21c26:	df04      	svc	4
   21c28:	e012      	b.n	21c50 <_ZN20complex_dynamic_type3app17h2e62881a43c6069cE+0x9c>
   21c2a:	a80e      	add	r0, sp, #56	@ 0x38
   21c2c:	2103      	movs	r1, #3
   21c2e:	7001      	strb	r1, [r0, #0]
   21c30:	4829      	ldr	r0, [pc, #164]	@ (21cd8 <_ZN20complex_dynamic_type3app17h2e62881a43c6069cE+0x124>)
   21c32:	2204      	movs	r2, #4
   21c34:	2600      	movs	r6, #0
   21c36:	4631      	mov	r1, r6
   21c38:	4633      	mov	r3, r6
   21c3a:	df02      	svc	2
   21c3c:	287f      	cmp	r0, #127	@ 0x7f
   21c3e:	d816      	bhi.n	21c6e <_ZN20complex_dynamic_type3app17h2e62881a43c6069cE+0xba>
   21c40:	2001      	movs	r0, #1
   21c42:	7028      	strb	r0, [r5, #0]
   21c44:	6069      	str	r1, [r5, #4]
   21c46:	4824      	ldr	r0, [pc, #144]	@ (21cd8 <_ZN20complex_dynamic_type3app17h2e62881a43c6069cE+0x124>)
   21c48:	2104      	movs	r1, #4
   21c4a:	2200      	movs	r2, #0
   21c4c:	4613      	mov	r3, r2
   21c4e:	df03      	svc	3
   21c50:	a804      	add	r0, sp, #16
   21c52:	7804      	ldrb	r4, [r0, #0]
   21c54:	2c02      	cmp	r4, #2
   21c56:	d008      	beq.n	21c6a <_ZN20complex_dynamic_type3app17h2e62881a43c6069cE+0xb6>
   21c58:	481f      	ldr	r0, [pc, #124]	@ (21cd8 <_ZN20complex_dynamic_type3app17h2e62881a43c6069cE+0x124>)
   21c5a:	2100      	movs	r1, #0
   21c5c:	460a      	mov	r2, r1
   21c5e:	460b      	mov	r3, r1
   21c60:	2c03      	cmp	r4, #3
   21c62:	d101      	bne.n	21c68 <_ZN20complex_dynamic_type3app17h2e62881a43c6069cE+0xb4>
   21c64:	df03      	svc	3
   21c66:	e000      	b.n	21c6a <_ZN20complex_dynamic_type3app17h2e62881a43c6069cE+0xb6>
   21c68:	df04      	svc	4
   21c6a:	b023      	add	sp, #140	@ 0x8c
   21c6c:	bdf0      	pop	{r4, r5, r6, r7, pc}
   21c6e:	a804      	add	r0, sp, #16
   21c70:	7800      	ldrb	r0, [r0, #0]
   21c72:	2802      	cmp	r0, #2
   21c74:	d01c      	beq.n	21cb0 <_ZN20complex_dynamic_type3app17h2e62881a43c6069cE+0xfc>
   21c76:	2803      	cmp	r0, #3
   21c78:	d105      	bne.n	21c86 <_ZN20complex_dynamic_type3app17h2e62881a43c6069cE+0xd2>
   21c7a:	4817      	ldr	r0, [pc, #92]	@ (21cd8 <_ZN20complex_dynamic_type3app17h2e62881a43c6069cE+0x124>)
   21c7c:	2100      	movs	r1, #0
   21c7e:	460a      	mov	r2, r1
   21c80:	460b      	mov	r3, r1
   21c82:	df03      	svc	3
   21c84:	e004      	b.n	21c90 <_ZN20complex_dynamic_type3app17h2e62881a43c6069cE+0xdc>
   21c86:	4814      	ldr	r0, [pc, #80]	@ (21cd8 <_ZN20complex_dynamic_type3app17h2e62881a43c6069cE+0x124>)
   21c88:	2100      	movs	r1, #0
   21c8a:	460a      	mov	r2, r1
   21c8c:	460b      	mov	r3, r1
   21c8e:	df04      	svc	4
   21c90:	a804      	add	r0, sp, #16
   21c92:	9900      	ldr	r1, [sp, #0]
   21c94:	7001      	strb	r1, [r0, #0]
   21c96:	a80e      	add	r0, sp, #56	@ 0x38
   21c98:	7800      	ldrb	r0, [r0, #0]
   21c9a:	2803      	cmp	r0, #3
   21c9c:	d008      	beq.n	21cb0 <_ZN20complex_dynamic_type3app17h2e62881a43c6069cE+0xfc>
   21c9e:	2802      	cmp	r0, #2
   21ca0:	d10c      	bne.n	21cbc <_ZN20complex_dynamic_type3app17h2e62881a43c6069cE+0x108>
   21ca2:	1c68      	adds	r0, r5, #1
   21ca4:	2251      	movs	r2, #81	@ 0x51
   21ca6:	4621      	mov	r1, r4
   21ca8:	f008 fc66 	bl	2a578 <__aeabi_memcpy>
   21cac:	702e      	strb	r6, [r5, #0]
   21cae:	e7dc      	b.n	21c6a <_ZN20complex_dynamic_type3app17h2e62881a43c6069cE+0xb6>
   21cb0:	4809      	ldr	r0, [pc, #36]	@ (21cd8 <_ZN20complex_dynamic_type3app17h2e62881a43c6069cE+0x124>)
   21cb2:	2104      	movs	r1, #4
   21cb4:	2200      	movs	r2, #0
   21cb6:	4613      	mov	r3, r2
   21cb8:	df03      	svc	3
   21cba:	e004      	b.n	21cc6 <_ZN20complex_dynamic_type3app17h2e62881a43c6069cE+0x112>
   21cbc:	4806      	ldr	r0, [pc, #24]	@ (21cd8 <_ZN20complex_dynamic_type3app17h2e62881a43c6069cE+0x124>)
   21cbe:	2104      	movs	r1, #4
   21cc0:	2200      	movs	r2, #0
   21cc2:	4613      	mov	r3, r2
   21cc4:	df04      	svc	4
   21cc6:	a804      	add	r0, sp, #16
   21cc8:	7804      	ldrb	r4, [r0, #0]
   21cca:	1c68      	adds	r0, r5, #1
   21ccc:	2251      	movs	r2, #81	@ 0x51
   21cce:	9901      	ldr	r1, [sp, #4]
   21cd0:	f008 fc52 	bl	2a578 <__aeabi_memcpy>
   21cd4:	702e      	strb	r6, [r5, #0]
   21cd6:	e7bd      	b.n	21c54 <_ZN20complex_dynamic_type3app17h2e62881a43c6069cE+0xa0>
   21cd8:	00000a36 	.word	0x00000a36

00021cdc <_ZN20complex_dynamic_type3app17h3372fd64bfa5ae74E>:
   21cdc:	b5f0      	push	{r4, r5, r6, r7, lr}
   21cde:	af03      	add	r7, sp, #12
   21ce0:	b0a5      	sub	sp, #148	@ 0x94
   21ce2:	9004      	str	r0, [sp, #16]
   21ce4:	a805      	add	r0, sp, #20
   21ce6:	2402      	movs	r4, #2
   21ce8:	7004      	strb	r4, [r0, #0]
   21cea:	1c46      	adds	r6, r0, #1
   21cec:	2231      	movs	r2, #49	@ 0x31
   21cee:	9203      	str	r2, [sp, #12]
   21cf0:	4630      	mov	r0, r6
   21cf2:	f008 fc41 	bl	2a578 <__aeabi_memcpy>
   21cf6:	ad12      	add	r5, sp, #72	@ 0x48
   21cf8:	1c68      	adds	r0, r5, #1
   21cfa:	2148      	movs	r1, #72	@ 0x48
   21cfc:	9002      	str	r0, [sp, #8]
   21cfe:	f008 fa7b 	bl	2a1f8 <__aeabi_memclr>
   21d02:	9401      	str	r4, [sp, #4]
   21d04:	702c      	strb	r4, [r5, #0]
   21d06:	483f      	ldr	r0, [pc, #252]	@ (21e04 <_ZN20complex_dynamic_type3app17h3372fd64bfa5ae74E+0x128>)
   21d08:	2504      	movs	r5, #4
   21d0a:	4629      	mov	r1, r5
   21d0c:	4632      	mov	r2, r6
   21d0e:	9b03      	ldr	r3, [sp, #12]
   21d10:	df04      	svc	4
   21d12:	2802      	cmp	r0, #2
   21d14:	d104      	bne.n	21d20 <_ZN20complex_dynamic_type3app17h3372fd64bfa5ae74E+0x44>
   21d16:	2001      	movs	r0, #1
   21d18:	9a04      	ldr	r2, [sp, #16]
   21d1a:	7010      	strb	r0, [r2, #0]
   21d1c:	6051      	str	r1, [r2, #4]
   21d1e:	e02b      	b.n	21d78 <_ZN20complex_dynamic_type3app17h3372fd64bfa5ae74E+0x9c>
   21d20:	9e04      	ldr	r6, [sp, #16]
   21d22:	a805      	add	r0, sp, #20
   21d24:	7005      	strb	r5, [r0, #0]
   21d26:	4837      	ldr	r0, [pc, #220]	@ (21e04 <_ZN20complex_dynamic_type3app17h3372fd64bfa5ae74E+0x128>)
   21d28:	2403      	movs	r4, #3
   21d2a:	2348      	movs	r3, #72	@ 0x48
   21d2c:	4621      	mov	r1, r4
   21d2e:	9a02      	ldr	r2, [sp, #8]
   21d30:	df03      	svc	3
   21d32:	2802      	cmp	r0, #2
   21d34:	d10e      	bne.n	21d54 <_ZN20complex_dynamic_type3app17h3372fd64bfa5ae74E+0x78>
   21d36:	2001      	movs	r0, #1
   21d38:	7030      	strb	r0, [r6, #0]
   21d3a:	6071      	str	r1, [r6, #4]
   21d3c:	a812      	add	r0, sp, #72	@ 0x48
   21d3e:	7800      	ldrb	r0, [r0, #0]
   21d40:	2802      	cmp	r0, #2
   21d42:	d019      	beq.n	21d78 <_ZN20complex_dynamic_type3app17h3372fd64bfa5ae74E+0x9c>
   21d44:	2803      	cmp	r0, #3
   21d46:	d012      	beq.n	21d6e <_ZN20complex_dynamic_type3app17h3372fd64bfa5ae74E+0x92>
   21d48:	482e      	ldr	r0, [pc, #184]	@ (21e04 <_ZN20complex_dynamic_type3app17h3372fd64bfa5ae74E+0x128>)
   21d4a:	2103      	movs	r1, #3
   21d4c:	2200      	movs	r2, #0
   21d4e:	4613      	mov	r3, r2
   21d50:	df04      	svc	4
   21d52:	e011      	b.n	21d78 <_ZN20complex_dynamic_type3app17h3372fd64bfa5ae74E+0x9c>
   21d54:	a812      	add	r0, sp, #72	@ 0x48
   21d56:	7004      	strb	r4, [r0, #0]
   21d58:	482a      	ldr	r0, [pc, #168]	@ (21e04 <_ZN20complex_dynamic_type3app17h3372fd64bfa5ae74E+0x128>)
   21d5a:	2104      	movs	r1, #4
   21d5c:	2300      	movs	r3, #0
   21d5e:	4622      	mov	r2, r4
   21d60:	9303      	str	r3, [sp, #12]
   21d62:	df02      	svc	2
   21d64:	287f      	cmp	r0, #127	@ 0x7f
   21d66:	d816      	bhi.n	21d96 <_ZN20complex_dynamic_type3app17h3372fd64bfa5ae74E+0xba>
   21d68:	2001      	movs	r0, #1
   21d6a:	7030      	strb	r0, [r6, #0]
   21d6c:	6071      	str	r1, [r6, #4]
   21d6e:	4825      	ldr	r0, [pc, #148]	@ (21e04 <_ZN20complex_dynamic_type3app17h3372fd64bfa5ae74E+0x128>)
   21d70:	2103      	movs	r1, #3
   21d72:	2200      	movs	r2, #0
   21d74:	4613      	mov	r3, r2
   21d76:	df03      	svc	3
   21d78:	a805      	add	r0, sp, #20
   21d7a:	7804      	ldrb	r4, [r0, #0]
   21d7c:	2c02      	cmp	r4, #2
   21d7e:	d008      	beq.n	21d92 <_ZN20complex_dynamic_type3app17h3372fd64bfa5ae74E+0xb6>
   21d80:	4820      	ldr	r0, [pc, #128]	@ (21e04 <_ZN20complex_dynamic_type3app17h3372fd64bfa5ae74E+0x128>)
   21d82:	2104      	movs	r1, #4
   21d84:	2200      	movs	r2, #0
   21d86:	4613      	mov	r3, r2
   21d88:	2c03      	cmp	r4, #3
   21d8a:	d101      	bne.n	21d90 <_ZN20complex_dynamic_type3app17h3372fd64bfa5ae74E+0xb4>
   21d8c:	df03      	svc	3
   21d8e:	e000      	b.n	21d92 <_ZN20complex_dynamic_type3app17h3372fd64bfa5ae74E+0xb6>
   21d90:	df04      	svc	4
   21d92:	b025      	add	sp, #148	@ 0x94
   21d94:	bdf0      	pop	{r4, r5, r6, r7, pc}
   21d96:	a805      	add	r0, sp, #20
   21d98:	7800      	ldrb	r0, [r0, #0]
   21d9a:	2802      	cmp	r0, #2
   21d9c:	d01d      	beq.n	21dda <_ZN20complex_dynamic_type3app17h3372fd64bfa5ae74E+0xfe>
   21d9e:	2803      	cmp	r0, #3
   21da0:	d105      	bne.n	21dae <_ZN20complex_dynamic_type3app17h3372fd64bfa5ae74E+0xd2>
   21da2:	4818      	ldr	r0, [pc, #96]	@ (21e04 <_ZN20complex_dynamic_type3app17h3372fd64bfa5ae74E+0x128>)
   21da4:	2104      	movs	r1, #4
   21da6:	2200      	movs	r2, #0
   21da8:	4613      	mov	r3, r2
   21daa:	df03      	svc	3
   21dac:	e004      	b.n	21db8 <_ZN20complex_dynamic_type3app17h3372fd64bfa5ae74E+0xdc>
   21dae:	4815      	ldr	r0, [pc, #84]	@ (21e04 <_ZN20complex_dynamic_type3app17h3372fd64bfa5ae74E+0x128>)
   21db0:	2104      	movs	r1, #4
   21db2:	2200      	movs	r2, #0
   21db4:	4613      	mov	r3, r2
   21db6:	df04      	svc	4
   21db8:	9901      	ldr	r1, [sp, #4]
   21dba:	a805      	add	r0, sp, #20
   21dbc:	7001      	strb	r1, [r0, #0]
   21dbe:	a812      	add	r0, sp, #72	@ 0x48
   21dc0:	7800      	ldrb	r0, [r0, #0]
   21dc2:	2803      	cmp	r0, #3
   21dc4:	d009      	beq.n	21dda <_ZN20complex_dynamic_type3app17h3372fd64bfa5ae74E+0xfe>
   21dc6:	2802      	cmp	r0, #2
   21dc8:	d10d      	bne.n	21de6 <_ZN20complex_dynamic_type3app17h3372fd64bfa5ae74E+0x10a>
   21dca:	1c70      	adds	r0, r6, #1
   21dcc:	2248      	movs	r2, #72	@ 0x48
   21dce:	9902      	ldr	r1, [sp, #8]
   21dd0:	f008 fbd2 	bl	2a578 <__aeabi_memcpy>
   21dd4:	9803      	ldr	r0, [sp, #12]
   21dd6:	7030      	strb	r0, [r6, #0]
   21dd8:	e7db      	b.n	21d92 <_ZN20complex_dynamic_type3app17h3372fd64bfa5ae74E+0xb6>
   21dda:	480a      	ldr	r0, [pc, #40]	@ (21e04 <_ZN20complex_dynamic_type3app17h3372fd64bfa5ae74E+0x128>)
   21ddc:	2103      	movs	r1, #3
   21dde:	2200      	movs	r2, #0
   21de0:	4613      	mov	r3, r2
   21de2:	df03      	svc	3
   21de4:	e004      	b.n	21df0 <_ZN20complex_dynamic_type3app17h3372fd64bfa5ae74E+0x114>
   21de6:	4807      	ldr	r0, [pc, #28]	@ (21e04 <_ZN20complex_dynamic_type3app17h3372fd64bfa5ae74E+0x128>)
   21de8:	2103      	movs	r1, #3
   21dea:	2200      	movs	r2, #0
   21dec:	4613      	mov	r3, r2
   21dee:	df04      	svc	4
   21df0:	a805      	add	r0, sp, #20
   21df2:	7804      	ldrb	r4, [r0, #0]
   21df4:	1c70      	adds	r0, r6, #1
   21df6:	2248      	movs	r2, #72	@ 0x48
   21df8:	9902      	ldr	r1, [sp, #8]
   21dfa:	f008 fbbd 	bl	2a578 <__aeabi_memcpy>
   21dfe:	9803      	ldr	r0, [sp, #12]
   21e00:	7030      	strb	r0, [r6, #0]
   21e02:	e7bb      	b.n	21d7c <_ZN20complex_dynamic_type3app17h3372fd64bfa5ae74E+0xa0>
   21e04:	0000180e 	.word	0x0000180e

00021e08 <_ZN20complex_dynamic_type3app17h3797805cbb396edcE>:
   21e08:	b5f0      	push	{r4, r5, r6, r7, lr}
   21e0a:	af03      	add	r7, sp, #12
   21e0c:	b0a7      	sub	sp, #156	@ 0x9c
   21e0e:	9004      	str	r0, [sp, #16]
   21e10:	a805      	add	r0, sp, #20
   21e12:	2402      	movs	r4, #2
   21e14:	7004      	strb	r4, [r0, #0]
   21e16:	1c40      	adds	r0, r0, #1
   21e18:	9003      	str	r0, [sp, #12]
   21e1a:	252a      	movs	r5, #42	@ 0x2a
   21e1c:	462a      	mov	r2, r5
   21e1e:	f008 fbab 	bl	2a578 <__aeabi_memcpy>
   21e22:	ae10      	add	r6, sp, #64	@ 0x40
   21e24:	1c70      	adds	r0, r6, #1
   21e26:	2159      	movs	r1, #89	@ 0x59
   21e28:	9002      	str	r0, [sp, #8]
   21e2a:	f008 f9e5 	bl	2a1f8 <__aeabi_memclr>
   21e2e:	9401      	str	r4, [sp, #4]
   21e30:	7034      	strb	r4, [r6, #0]
   21e32:	483f      	ldr	r0, [pc, #252]	@ (21f30 <_ZN20complex_dynamic_type3app17h3797805cbb396edcE+0x128>)
   21e34:	2601      	movs	r6, #1
   21e36:	4631      	mov	r1, r6
   21e38:	9a03      	ldr	r2, [sp, #12]
   21e3a:	462b      	mov	r3, r5
   21e3c:	df04      	svc	4
   21e3e:	2802      	cmp	r0, #2
   21e40:	d103      	bne.n	21e4a <_ZN20complex_dynamic_type3app17h3797805cbb396edcE+0x42>
   21e42:	9804      	ldr	r0, [sp, #16]
   21e44:	7006      	strb	r6, [r0, #0]
   21e46:	6041      	str	r1, [r0, #4]
   21e48:	e02c      	b.n	21ea4 <_ZN20complex_dynamic_type3app17h3797805cbb396edcE+0x9c>
   21e4a:	a805      	add	r0, sp, #20
   21e4c:	2104      	movs	r1, #4
   21e4e:	7001      	strb	r1, [r0, #0]
   21e50:	4837      	ldr	r0, [pc, #220]	@ (21f30 <_ZN20complex_dynamic_type3app17h3797805cbb396edcE+0x128>)
   21e52:	2403      	movs	r4, #3
   21e54:	2359      	movs	r3, #89	@ 0x59
   21e56:	4621      	mov	r1, r4
   21e58:	9a02      	ldr	r2, [sp, #8]
   21e5a:	df03      	svc	3
   21e5c:	2802      	cmp	r0, #2
   21e5e:	d10e      	bne.n	21e7e <_ZN20complex_dynamic_type3app17h3797805cbb396edcE+0x76>
   21e60:	9804      	ldr	r0, [sp, #16]
   21e62:	7006      	strb	r6, [r0, #0]
   21e64:	6041      	str	r1, [r0, #4]
   21e66:	a810      	add	r0, sp, #64	@ 0x40
   21e68:	7800      	ldrb	r0, [r0, #0]
   21e6a:	2802      	cmp	r0, #2
   21e6c:	d01a      	beq.n	21ea4 <_ZN20complex_dynamic_type3app17h3797805cbb396edcE+0x9c>
   21e6e:	2803      	cmp	r0, #3
   21e70:	d013      	beq.n	21e9a <_ZN20complex_dynamic_type3app17h3797805cbb396edcE+0x92>
   21e72:	482f      	ldr	r0, [pc, #188]	@ (21f30 <_ZN20complex_dynamic_type3app17h3797805cbb396edcE+0x128>)
   21e74:	2103      	movs	r1, #3
   21e76:	2200      	movs	r2, #0
   21e78:	4613      	mov	r3, r2
   21e7a:	df04      	svc	4
   21e7c:	e012      	b.n	21ea4 <_ZN20complex_dynamic_type3app17h3797805cbb396edcE+0x9c>
   21e7e:	a810      	add	r0, sp, #64	@ 0x40
   21e80:	7004      	strb	r4, [r0, #0]
   21e82:	482b      	ldr	r0, [pc, #172]	@ (21f30 <_ZN20complex_dynamic_type3app17h3797805cbb396edcE+0x128>)
   21e84:	2501      	movs	r5, #1
   21e86:	2600      	movs	r6, #0
   21e88:	4629      	mov	r1, r5
   21e8a:	4622      	mov	r2, r4
   21e8c:	4633      	mov	r3, r6
   21e8e:	df02      	svc	2
   21e90:	287f      	cmp	r0, #127	@ 0x7f
   21e92:	d816      	bhi.n	21ec2 <_ZN20complex_dynamic_type3app17h3797805cbb396edcE+0xba>
   21e94:	9804      	ldr	r0, [sp, #16]
   21e96:	7005      	strb	r5, [r0, #0]
   21e98:	6041      	str	r1, [r0, #4]
   21e9a:	4825      	ldr	r0, [pc, #148]	@ (21f30 <_ZN20complex_dynamic_type3app17h3797805cbb396edcE+0x128>)
   21e9c:	2103      	movs	r1, #3
   21e9e:	2200      	movs	r2, #0
   21ea0:	4613      	mov	r3, r2
   21ea2:	df03      	svc	3
   21ea4:	a805      	add	r0, sp, #20
   21ea6:	7804      	ldrb	r4, [r0, #0]
   21ea8:	2c02      	cmp	r4, #2
   21eaa:	d008      	beq.n	21ebe <_ZN20complex_dynamic_type3app17h3797805cbb396edcE+0xb6>
   21eac:	4820      	ldr	r0, [pc, #128]	@ (21f30 <_ZN20complex_dynamic_type3app17h3797805cbb396edcE+0x128>)
   21eae:	2101      	movs	r1, #1
   21eb0:	2200      	movs	r2, #0
   21eb2:	4613      	mov	r3, r2
   21eb4:	2c03      	cmp	r4, #3
   21eb6:	d101      	bne.n	21ebc <_ZN20complex_dynamic_type3app17h3797805cbb396edcE+0xb4>
   21eb8:	df03      	svc	3
   21eba:	e000      	b.n	21ebe <_ZN20complex_dynamic_type3app17h3797805cbb396edcE+0xb6>
   21ebc:	df04      	svc	4
   21ebe:	b027      	add	sp, #156	@ 0x9c
   21ec0:	bdf0      	pop	{r4, r5, r6, r7, pc}
   21ec2:	a805      	add	r0, sp, #20
   21ec4:	7800      	ldrb	r0, [r0, #0]
   21ec6:	2802      	cmp	r0, #2
   21ec8:	9d04      	ldr	r5, [sp, #16]
   21eca:	d01c      	beq.n	21f06 <_ZN20complex_dynamic_type3app17h3797805cbb396edcE+0xfe>
   21ecc:	2803      	cmp	r0, #3
   21ece:	d105      	bne.n	21edc <_ZN20complex_dynamic_type3app17h3797805cbb396edcE+0xd4>
   21ed0:	4817      	ldr	r0, [pc, #92]	@ (21f30 <_ZN20complex_dynamic_type3app17h3797805cbb396edcE+0x128>)
   21ed2:	2101      	movs	r1, #1
   21ed4:	2200      	movs	r2, #0
   21ed6:	4613      	mov	r3, r2
   21ed8:	df03      	svc	3
   21eda:	e004      	b.n	21ee6 <_ZN20complex_dynamic_type3app17h3797805cbb396edcE+0xde>
   21edc:	4814      	ldr	r0, [pc, #80]	@ (21f30 <_ZN20complex_dynamic_type3app17h3797805cbb396edcE+0x128>)
   21ede:	2101      	movs	r1, #1
   21ee0:	2200      	movs	r2, #0
   21ee2:	4613      	mov	r3, r2
   21ee4:	df04      	svc	4
   21ee6:	9901      	ldr	r1, [sp, #4]
   21ee8:	a805      	add	r0, sp, #20
   21eea:	7001      	strb	r1, [r0, #0]
   21eec:	a810      	add	r0, sp, #64	@ 0x40
   21eee:	7800      	ldrb	r0, [r0, #0]
   21ef0:	2803      	cmp	r0, #3
   21ef2:	d008      	beq.n	21f06 <_ZN20complex_dynamic_type3app17h3797805cbb396edcE+0xfe>
   21ef4:	2802      	cmp	r0, #2
   21ef6:	d10c      	bne.n	21f12 <_ZN20complex_dynamic_type3app17h3797805cbb396edcE+0x10a>
   21ef8:	1c68      	adds	r0, r5, #1
   21efa:	2259      	movs	r2, #89	@ 0x59
   21efc:	9902      	ldr	r1, [sp, #8]
   21efe:	f008 fb3b 	bl	2a578 <__aeabi_memcpy>
   21f02:	702e      	strb	r6, [r5, #0]
   21f04:	e7db      	b.n	21ebe <_ZN20complex_dynamic_type3app17h3797805cbb396edcE+0xb6>
   21f06:	480a      	ldr	r0, [pc, #40]	@ (21f30 <_ZN20complex_dynamic_type3app17h3797805cbb396edcE+0x128>)
   21f08:	2103      	movs	r1, #3
   21f0a:	2200      	movs	r2, #0
   21f0c:	4613      	mov	r3, r2
   21f0e:	df03      	svc	3
   21f10:	e004      	b.n	21f1c <_ZN20complex_dynamic_type3app17h3797805cbb396edcE+0x114>
   21f12:	4807      	ldr	r0, [pc, #28]	@ (21f30 <_ZN20complex_dynamic_type3app17h3797805cbb396edcE+0x128>)
   21f14:	2103      	movs	r1, #3
   21f16:	2200      	movs	r2, #0
   21f18:	4613      	mov	r3, r2
   21f1a:	df04      	svc	4
   21f1c:	a805      	add	r0, sp, #20
   21f1e:	7804      	ldrb	r4, [r0, #0]
   21f20:	1c68      	adds	r0, r5, #1
   21f22:	2259      	movs	r2, #89	@ 0x59
   21f24:	9902      	ldr	r1, [sp, #8]
   21f26:	f008 fb27 	bl	2a578 <__aeabi_memcpy>
   21f2a:	702e      	strb	r6, [r5, #0]
   21f2c:	e7bc      	b.n	21ea8 <_ZN20complex_dynamic_type3app17h3797805cbb396edcE+0xa0>
   21f2e:	46c0      	nop			@ (mov r8, r8)
   21f30:	00000ed2 	.word	0x00000ed2

00021f34 <_ZN20complex_dynamic_type3app17h37df6c3a3aa2963cE>:
   21f34:	b5f0      	push	{r4, r5, r6, r7, lr}
   21f36:	af03      	add	r7, sp, #12
   21f38:	b099      	sub	sp, #100	@ 0x64
   21f3a:	9004      	str	r0, [sp, #16]
   21f3c:	a805      	add	r0, sp, #20
   21f3e:	2402      	movs	r4, #2
   21f40:	7004      	strb	r4, [r0, #0]
   21f42:	1c46      	adds	r6, r0, #1
   21f44:	221e      	movs	r2, #30
   21f46:	9203      	str	r2, [sp, #12]
   21f48:	4630      	mov	r0, r6
   21f4a:	f008 fb15 	bl	2a578 <__aeabi_memcpy>
   21f4e:	ad0d      	add	r5, sp, #52	@ 0x34
   21f50:	1c68      	adds	r0, r5, #1
   21f52:	212c      	movs	r1, #44	@ 0x2c
   21f54:	9002      	str	r0, [sp, #8]
   21f56:	f008 f94f 	bl	2a1f8 <__aeabi_memclr>
   21f5a:	9401      	str	r4, [sp, #4]
   21f5c:	702c      	strb	r4, [r5, #0]
   21f5e:	483f      	ldr	r0, [pc, #252]	@ (2205c <_ZN20complex_dynamic_type3app17h37df6c3a3aa2963cE+0x128>)
   21f60:	2107      	movs	r1, #7
   21f62:	4632      	mov	r2, r6
   21f64:	9b03      	ldr	r3, [sp, #12]
   21f66:	df04      	svc	4
   21f68:	2802      	cmp	r0, #2
   21f6a:	d104      	bne.n	21f76 <_ZN20complex_dynamic_type3app17h37df6c3a3aa2963cE+0x42>
   21f6c:	2001      	movs	r0, #1
   21f6e:	9a04      	ldr	r2, [sp, #16]
   21f70:	7010      	strb	r0, [r2, #0]
   21f72:	6051      	str	r1, [r2, #4]
   21f74:	e02d      	b.n	21fd2 <_ZN20complex_dynamic_type3app17h37df6c3a3aa2963cE+0x9e>
   21f76:	9d04      	ldr	r5, [sp, #16]
   21f78:	a805      	add	r0, sp, #20
   21f7a:	2104      	movs	r1, #4
   21f7c:	7001      	strb	r1, [r0, #0]
   21f7e:	4837      	ldr	r0, [pc, #220]	@ (2205c <_ZN20complex_dynamic_type3app17h37df6c3a3aa2963cE+0x128>)
   21f80:	2100      	movs	r1, #0
   21f82:	232c      	movs	r3, #44	@ 0x2c
   21f84:	9c02      	ldr	r4, [sp, #8]
   21f86:	4622      	mov	r2, r4
   21f88:	df03      	svc	3
   21f8a:	2802      	cmp	r0, #2
   21f8c:	d10e      	bne.n	21fac <_ZN20complex_dynamic_type3app17h37df6c3a3aa2963cE+0x78>
   21f8e:	2001      	movs	r0, #1
   21f90:	7028      	strb	r0, [r5, #0]
   21f92:	6069      	str	r1, [r5, #4]
   21f94:	a80d      	add	r0, sp, #52	@ 0x34
   21f96:	7800      	ldrb	r0, [r0, #0]
   21f98:	2802      	cmp	r0, #2
   21f9a:	d01a      	beq.n	21fd2 <_ZN20complex_dynamic_type3app17h37df6c3a3aa2963cE+0x9e>
   21f9c:	2803      	cmp	r0, #3
   21f9e:	d013      	beq.n	21fc8 <_ZN20complex_dynamic_type3app17h37df6c3a3aa2963cE+0x94>
   21fa0:	482e      	ldr	r0, [pc, #184]	@ (2205c <_ZN20complex_dynamic_type3app17h37df6c3a3aa2963cE+0x128>)
   21fa2:	2100      	movs	r1, #0
   21fa4:	460a      	mov	r2, r1
   21fa6:	460b      	mov	r3, r1
   21fa8:	df04      	svc	4
   21faa:	e012      	b.n	21fd2 <_ZN20complex_dynamic_type3app17h37df6c3a3aa2963cE+0x9e>
   21fac:	a80d      	add	r0, sp, #52	@ 0x34
   21fae:	2103      	movs	r1, #3
   21fb0:	7001      	strb	r1, [r0, #0]
   21fb2:	482a      	ldr	r0, [pc, #168]	@ (2205c <_ZN20complex_dynamic_type3app17h37df6c3a3aa2963cE+0x128>)
   21fb4:	2107      	movs	r1, #7
   21fb6:	2600      	movs	r6, #0
   21fb8:	4632      	mov	r2, r6
   21fba:	4633      	mov	r3, r6
   21fbc:	df02      	svc	2
   21fbe:	287f      	cmp	r0, #127	@ 0x7f
   21fc0:	d816      	bhi.n	21ff0 <_ZN20complex_dynamic_type3app17h37df6c3a3aa2963cE+0xbc>
   21fc2:	2001      	movs	r0, #1
   21fc4:	7028      	strb	r0, [r5, #0]
   21fc6:	6069      	str	r1, [r5, #4]
   21fc8:	4824      	ldr	r0, [pc, #144]	@ (2205c <_ZN20complex_dynamic_type3app17h37df6c3a3aa2963cE+0x128>)
   21fca:	2100      	movs	r1, #0
   21fcc:	460a      	mov	r2, r1
   21fce:	460b      	mov	r3, r1
   21fd0:	df03      	svc	3
   21fd2:	a805      	add	r0, sp, #20
   21fd4:	7804      	ldrb	r4, [r0, #0]
   21fd6:	2c02      	cmp	r4, #2
   21fd8:	d008      	beq.n	21fec <_ZN20complex_dynamic_type3app17h37df6c3a3aa2963cE+0xb8>
   21fda:	4820      	ldr	r0, [pc, #128]	@ (2205c <_ZN20complex_dynamic_type3app17h37df6c3a3aa2963cE+0x128>)
   21fdc:	2107      	movs	r1, #7
   21fde:	2200      	movs	r2, #0
   21fe0:	4613      	mov	r3, r2
   21fe2:	2c03      	cmp	r4, #3
   21fe4:	d101      	bne.n	21fea <_ZN20complex_dynamic_type3app17h37df6c3a3aa2963cE+0xb6>
   21fe6:	df03      	svc	3
   21fe8:	e000      	b.n	21fec <_ZN20complex_dynamic_type3app17h37df6c3a3aa2963cE+0xb8>
   21fea:	df04      	svc	4
   21fec:	b019      	add	sp, #100	@ 0x64
   21fee:	bdf0      	pop	{r4, r5, r6, r7, pc}
   21ff0:	a805      	add	r0, sp, #20
   21ff2:	7800      	ldrb	r0, [r0, #0]
   21ff4:	2802      	cmp	r0, #2
   21ff6:	d01c      	beq.n	22032 <_ZN20complex_dynamic_type3app17h37df6c3a3aa2963cE+0xfe>
   21ff8:	2803      	cmp	r0, #3
   21ffa:	d105      	bne.n	22008 <_ZN20complex_dynamic_type3app17h37df6c3a3aa2963cE+0xd4>
   21ffc:	4817      	ldr	r0, [pc, #92]	@ (2205c <_ZN20complex_dynamic_type3app17h37df6c3a3aa2963cE+0x128>)
   21ffe:	2107      	movs	r1, #7
   22000:	2200      	movs	r2, #0
   22002:	4613      	mov	r3, r2
   22004:	df03      	svc	3
   22006:	e004      	b.n	22012 <_ZN20complex_dynamic_type3app17h37df6c3a3aa2963cE+0xde>
   22008:	4814      	ldr	r0, [pc, #80]	@ (2205c <_ZN20complex_dynamic_type3app17h37df6c3a3aa2963cE+0x128>)
   2200a:	2107      	movs	r1, #7
   2200c:	2200      	movs	r2, #0
   2200e:	4613      	mov	r3, r2
   22010:	df04      	svc	4
   22012:	a805      	add	r0, sp, #20
   22014:	9901      	ldr	r1, [sp, #4]
   22016:	7001      	strb	r1, [r0, #0]
   22018:	a80d      	add	r0, sp, #52	@ 0x34
   2201a:	7800      	ldrb	r0, [r0, #0]
   2201c:	2803      	cmp	r0, #3
   2201e:	d008      	beq.n	22032 <_ZN20complex_dynamic_type3app17h37df6c3a3aa2963cE+0xfe>
   22020:	2802      	cmp	r0, #2
   22022:	d10c      	bne.n	2203e <_ZN20complex_dynamic_type3app17h37df6c3a3aa2963cE+0x10a>
   22024:	1c68      	adds	r0, r5, #1
   22026:	222c      	movs	r2, #44	@ 0x2c
   22028:	4621      	mov	r1, r4
   2202a:	f008 faa5 	bl	2a578 <__aeabi_memcpy>
   2202e:	702e      	strb	r6, [r5, #0]
   22030:	e7dc      	b.n	21fec <_ZN20complex_dynamic_type3app17h37df6c3a3aa2963cE+0xb8>
   22032:	480a      	ldr	r0, [pc, #40]	@ (2205c <_ZN20complex_dynamic_type3app17h37df6c3a3aa2963cE+0x128>)
   22034:	2100      	movs	r1, #0
   22036:	460a      	mov	r2, r1
   22038:	460b      	mov	r3, r1
   2203a:	df03      	svc	3
   2203c:	e004      	b.n	22048 <_ZN20complex_dynamic_type3app17h37df6c3a3aa2963cE+0x114>
   2203e:	4807      	ldr	r0, [pc, #28]	@ (2205c <_ZN20complex_dynamic_type3app17h37df6c3a3aa2963cE+0x128>)
   22040:	2100      	movs	r1, #0
   22042:	460a      	mov	r2, r1
   22044:	460b      	mov	r3, r1
   22046:	df04      	svc	4
   22048:	a805      	add	r0, sp, #20
   2204a:	7804      	ldrb	r4, [r0, #0]
   2204c:	1c68      	adds	r0, r5, #1
   2204e:	222c      	movs	r2, #44	@ 0x2c
   22050:	9902      	ldr	r1, [sp, #8]
   22052:	f008 fa91 	bl	2a578 <__aeabi_memcpy>
   22056:	702e      	strb	r6, [r5, #0]
   22058:	e7bd      	b.n	21fd6 <_ZN20complex_dynamic_type3app17h37df6c3a3aa2963cE+0xa2>
   2205a:	46c0      	nop			@ (mov r8, r8)
   2205c:	000003fb 	.word	0x000003fb

00022060 <_ZN20complex_dynamic_type3app17h3a78c8e0a8de9e3dE>:
   22060:	b5f0      	push	{r4, r5, r6, r7, lr}
   22062:	af03      	add	r7, sp, #12
   22064:	b095      	sub	sp, #84	@ 0x54
   22066:	9003      	str	r0, [sp, #12]
   22068:	a804      	add	r0, sp, #16
   2206a:	2502      	movs	r5, #2
   2206c:	7005      	strb	r5, [r0, #0]
   2206e:	1c40      	adds	r0, r0, #1
   22070:	9002      	str	r0, [sp, #8]
   22072:	2625      	movs	r6, #37	@ 0x25
   22074:	4632      	mov	r2, r6
   22076:	f008 fa7f 	bl	2a578 <__aeabi_memcpy>
   2207a:	ac0e      	add	r4, sp, #56	@ 0x38
   2207c:	1c60      	adds	r0, r4, #1
   2207e:	2118      	movs	r1, #24
   22080:	9001      	str	r0, [sp, #4]
   22082:	f008 f8b9 	bl	2a1f8 <__aeabi_memclr>
   22086:	9500      	str	r5, [sp, #0]
   22088:	7025      	strb	r5, [r4, #0]
   2208a:	20a7      	movs	r0, #167	@ 0xa7
   2208c:	0104      	lsls	r4, r0, #4
   2208e:	2109      	movs	r1, #9
   22090:	4620      	mov	r0, r4
   22092:	9a02      	ldr	r2, [sp, #8]
   22094:	4633      	mov	r3, r6
   22096:	df04      	svc	4
   22098:	2802      	cmp	r0, #2
   2209a:	d104      	bne.n	220a6 <_ZN20complex_dynamic_type3app17h3a78c8e0a8de9e3dE+0x46>
   2209c:	2001      	movs	r0, #1
   2209e:	9a03      	ldr	r2, [sp, #12]
   220a0:	7010      	strb	r0, [r2, #0]
   220a2:	6051      	str	r1, [r2, #4]
   220a4:	e02d      	b.n	22102 <_ZN20complex_dynamic_type3app17h3a78c8e0a8de9e3dE+0xa2>
   220a6:	9e03      	ldr	r6, [sp, #12]
   220a8:	a804      	add	r0, sp, #16
   220aa:	2104      	movs	r1, #4
   220ac:	7001      	strb	r1, [r0, #0]
   220ae:	2108      	movs	r1, #8
   220b0:	2318      	movs	r3, #24
   220b2:	4620      	mov	r0, r4
   220b4:	9d01      	ldr	r5, [sp, #4]
   220b6:	462a      	mov	r2, r5
   220b8:	df03      	svc	3
   220ba:	2802      	cmp	r0, #2
   220bc:	d10e      	bne.n	220dc <_ZN20complex_dynamic_type3app17h3a78c8e0a8de9e3dE+0x7c>
   220be:	2001      	movs	r0, #1
   220c0:	7030      	strb	r0, [r6, #0]
   220c2:	6071      	str	r1, [r6, #4]
   220c4:	a80e      	add	r0, sp, #56	@ 0x38
   220c6:	7800      	ldrb	r0, [r0, #0]
   220c8:	2802      	cmp	r0, #2
   220ca:	d01a      	beq.n	22102 <_ZN20complex_dynamic_type3app17h3a78c8e0a8de9e3dE+0xa2>
   220cc:	2803      	cmp	r0, #3
   220ce:	d013      	beq.n	220f8 <_ZN20complex_dynamic_type3app17h3a78c8e0a8de9e3dE+0x98>
   220d0:	2108      	movs	r1, #8
   220d2:	2200      	movs	r2, #0
   220d4:	4620      	mov	r0, r4
   220d6:	4613      	mov	r3, r2
   220d8:	df04      	svc	4
   220da:	e012      	b.n	22102 <_ZN20complex_dynamic_type3app17h3a78c8e0a8de9e3dE+0xa2>
   220dc:	a80e      	add	r0, sp, #56	@ 0x38
   220de:	2103      	movs	r1, #3
   220e0:	7001      	strb	r1, [r0, #0]
   220e2:	2109      	movs	r1, #9
   220e4:	2208      	movs	r2, #8
   220e6:	2300      	movs	r3, #0
   220e8:	4620      	mov	r0, r4
   220ea:	9302      	str	r3, [sp, #8]
   220ec:	df02      	svc	2
   220ee:	287f      	cmp	r0, #127	@ 0x7f
   220f0:	d817      	bhi.n	22122 <_ZN20complex_dynamic_type3app17h3a78c8e0a8de9e3dE+0xc2>
   220f2:	2001      	movs	r0, #1
   220f4:	7030      	strb	r0, [r6, #0]
   220f6:	6071      	str	r1, [r6, #4]
   220f8:	2108      	movs	r1, #8
   220fa:	2200      	movs	r2, #0
   220fc:	4620      	mov	r0, r4
   220fe:	4613      	mov	r3, r2
   22100:	df03      	svc	3
   22102:	4625      	mov	r5, r4
   22104:	a804      	add	r0, sp, #16
   22106:	7804      	ldrb	r4, [r0, #0]
   22108:	2c02      	cmp	r4, #2
   2210a:	d008      	beq.n	2211e <_ZN20complex_dynamic_type3app17h3a78c8e0a8de9e3dE+0xbe>
   2210c:	2109      	movs	r1, #9
   2210e:	2200      	movs	r2, #0
   22110:	4628      	mov	r0, r5
   22112:	4613      	mov	r3, r2
   22114:	2c03      	cmp	r4, #3
   22116:	d101      	bne.n	2211c <_ZN20complex_dynamic_type3app17h3a78c8e0a8de9e3dE+0xbc>
   22118:	df03      	svc	3
   2211a:	e000      	b.n	2211e <_ZN20complex_dynamic_type3app17h3a78c8e0a8de9e3dE+0xbe>
   2211c:	df04      	svc	4
   2211e:	b015      	add	sp, #84	@ 0x54
   22120:	bdf0      	pop	{r4, r5, r6, r7, pc}
   22122:	a804      	add	r0, sp, #16
   22124:	7800      	ldrb	r0, [r0, #0]
   22126:	2802      	cmp	r0, #2
   22128:	d01b      	beq.n	22162 <_ZN20complex_dynamic_type3app17h3a78c8e0a8de9e3dE+0x102>
   2212a:	2109      	movs	r1, #9
   2212c:	2200      	movs	r2, #0
   2212e:	2803      	cmp	r0, #3
   22130:	d103      	bne.n	2213a <_ZN20complex_dynamic_type3app17h3a78c8e0a8de9e3dE+0xda>
   22132:	4620      	mov	r0, r4
   22134:	4613      	mov	r3, r2
   22136:	df03      	svc	3
   22138:	e002      	b.n	22140 <_ZN20complex_dynamic_type3app17h3a78c8e0a8de9e3dE+0xe0>
   2213a:	4620      	mov	r0, r4
   2213c:	4613      	mov	r3, r2
   2213e:	df04      	svc	4
   22140:	a804      	add	r0, sp, #16
   22142:	9900      	ldr	r1, [sp, #0]
   22144:	7001      	strb	r1, [r0, #0]
   22146:	a80e      	add	r0, sp, #56	@ 0x38
   22148:	7800      	ldrb	r0, [r0, #0]
   2214a:	2803      	cmp	r0, #3
   2214c:	d009      	beq.n	22162 <_ZN20complex_dynamic_type3app17h3a78c8e0a8de9e3dE+0x102>
   2214e:	2802      	cmp	r0, #2
   22150:	d10e      	bne.n	22170 <_ZN20complex_dynamic_type3app17h3a78c8e0a8de9e3dE+0x110>
   22152:	1c70      	adds	r0, r6, #1
   22154:	2218      	movs	r2, #24
   22156:	4629      	mov	r1, r5
   22158:	f008 fa0e 	bl	2a578 <__aeabi_memcpy>
   2215c:	9802      	ldr	r0, [sp, #8]
   2215e:	7030      	strb	r0, [r6, #0]
   22160:	e7dd      	b.n	2211e <_ZN20complex_dynamic_type3app17h3a78c8e0a8de9e3dE+0xbe>
   22162:	2108      	movs	r1, #8
   22164:	2200      	movs	r2, #0
   22166:	4625      	mov	r5, r4
   22168:	4620      	mov	r0, r4
   2216a:	4613      	mov	r3, r2
   2216c:	df03      	svc	3
   2216e:	e005      	b.n	2217c <_ZN20complex_dynamic_type3app17h3a78c8e0a8de9e3dE+0x11c>
   22170:	2108      	movs	r1, #8
   22172:	2200      	movs	r2, #0
   22174:	4625      	mov	r5, r4
   22176:	4620      	mov	r0, r4
   22178:	4613      	mov	r3, r2
   2217a:	df04      	svc	4
   2217c:	a804      	add	r0, sp, #16
   2217e:	7804      	ldrb	r4, [r0, #0]
   22180:	1c70      	adds	r0, r6, #1
   22182:	2218      	movs	r2, #24
   22184:	9901      	ldr	r1, [sp, #4]
   22186:	f008 f9f7 	bl	2a578 <__aeabi_memcpy>
   2218a:	9802      	ldr	r0, [sp, #8]
   2218c:	7030      	strb	r0, [r6, #0]
   2218e:	e7bb      	b.n	22108 <_ZN20complex_dynamic_type3app17h3a78c8e0a8de9e3dE+0xa8>

00022190 <_ZN20complex_dynamic_type3app17h446db9d26882cf23E>:
   22190:	b5f0      	push	{r4, r5, r6, r7, lr}
   22192:	af03      	add	r7, sp, #12
   22194:	b09f      	sub	sp, #124	@ 0x7c
   22196:	9004      	str	r0, [sp, #16]
   22198:	a805      	add	r0, sp, #20
   2219a:	2402      	movs	r4, #2
   2219c:	7004      	strb	r4, [r0, #0]
   2219e:	1c40      	adds	r0, r0, #1
   221a0:	9003      	str	r0, [sp, #12]
   221a2:	2541      	movs	r5, #65	@ 0x41
   221a4:	462a      	mov	r2, r5
   221a6:	f008 f9e7 	bl	2a578 <__aeabi_memcpy>
   221aa:	ae16      	add	r6, sp, #88	@ 0x58
   221ac:	1c70      	adds	r0, r6, #1
   221ae:	2122      	movs	r1, #34	@ 0x22
   221b0:	9002      	str	r0, [sp, #8]
   221b2:	f008 f821 	bl	2a1f8 <__aeabi_memclr>
   221b6:	9401      	str	r4, [sp, #4]
   221b8:	7034      	strb	r4, [r6, #0]
   221ba:	483e      	ldr	r0, [pc, #248]	@ (222b4 <_ZN20complex_dynamic_type3app17h446db9d26882cf23E+0x124>)
   221bc:	2601      	movs	r6, #1
   221be:	4631      	mov	r1, r6
   221c0:	9a03      	ldr	r2, [sp, #12]
   221c2:	462b      	mov	r3, r5
   221c4:	df04      	svc	4
   221c6:	2802      	cmp	r0, #2
   221c8:	d103      	bne.n	221d2 <_ZN20complex_dynamic_type3app17h446db9d26882cf23E+0x42>
   221ca:	9804      	ldr	r0, [sp, #16]
   221cc:	7006      	strb	r6, [r0, #0]
   221ce:	6041      	str	r1, [r0, #4]
   221d0:	e02b      	b.n	2222a <_ZN20complex_dynamic_type3app17h446db9d26882cf23E+0x9a>
   221d2:	9d04      	ldr	r5, [sp, #16]
   221d4:	a805      	add	r0, sp, #20
   221d6:	2104      	movs	r1, #4
   221d8:	7001      	strb	r1, [r0, #0]
   221da:	4836      	ldr	r0, [pc, #216]	@ (222b4 <_ZN20complex_dynamic_type3app17h446db9d26882cf23E+0x124>)
   221dc:	2100      	movs	r1, #0
   221de:	2322      	movs	r3, #34	@ 0x22
   221e0:	9a02      	ldr	r2, [sp, #8]
   221e2:	df03      	svc	3
   221e4:	2802      	cmp	r0, #2
   221e6:	d10d      	bne.n	22204 <_ZN20complex_dynamic_type3app17h446db9d26882cf23E+0x74>
   221e8:	702e      	strb	r6, [r5, #0]
   221ea:	6069      	str	r1, [r5, #4]
   221ec:	a816      	add	r0, sp, #88	@ 0x58
   221ee:	7800      	ldrb	r0, [r0, #0]
   221f0:	2802      	cmp	r0, #2
   221f2:	d01a      	beq.n	2222a <_ZN20complex_dynamic_type3app17h446db9d26882cf23E+0x9a>
   221f4:	2803      	cmp	r0, #3
   221f6:	d013      	beq.n	22220 <_ZN20complex_dynamic_type3app17h446db9d26882cf23E+0x90>
   221f8:	482e      	ldr	r0, [pc, #184]	@ (222b4 <_ZN20complex_dynamic_type3app17h446db9d26882cf23E+0x124>)
   221fa:	2100      	movs	r1, #0
   221fc:	460a      	mov	r2, r1
   221fe:	460b      	mov	r3, r1
   22200:	df04      	svc	4
   22202:	e012      	b.n	2222a <_ZN20complex_dynamic_type3app17h446db9d26882cf23E+0x9a>
   22204:	a816      	add	r0, sp, #88	@ 0x58
   22206:	2103      	movs	r1, #3
   22208:	7001      	strb	r1, [r0, #0]
   2220a:	482a      	ldr	r0, [pc, #168]	@ (222b4 <_ZN20complex_dynamic_type3app17h446db9d26882cf23E+0x124>)
   2220c:	2401      	movs	r4, #1
   2220e:	2600      	movs	r6, #0
   22210:	4621      	mov	r1, r4
   22212:	4632      	mov	r2, r6
   22214:	4633      	mov	r3, r6
   22216:	df02      	svc	2
   22218:	287f      	cmp	r0, #127	@ 0x7f
   2221a:	d815      	bhi.n	22248 <_ZN20complex_dynamic_type3app17h446db9d26882cf23E+0xb8>
   2221c:	702c      	strb	r4, [r5, #0]
   2221e:	6069      	str	r1, [r5, #4]
   22220:	4824      	ldr	r0, [pc, #144]	@ (222b4 <_ZN20complex_dynamic_type3app17h446db9d26882cf23E+0x124>)
   22222:	2100      	movs	r1, #0
   22224:	460a      	mov	r2, r1
   22226:	460b      	mov	r3, r1
   22228:	df03      	svc	3
   2222a:	a805      	add	r0, sp, #20
   2222c:	7804      	ldrb	r4, [r0, #0]
   2222e:	2c02      	cmp	r4, #2
   22230:	d008      	beq.n	22244 <_ZN20complex_dynamic_type3app17h446db9d26882cf23E+0xb4>
   22232:	4820      	ldr	r0, [pc, #128]	@ (222b4 <_ZN20complex_dynamic_type3app17h446db9d26882cf23E+0x124>)
   22234:	2101      	movs	r1, #1
   22236:	2200      	movs	r2, #0
   22238:	4613      	mov	r3, r2
   2223a:	2c03      	cmp	r4, #3
   2223c:	d101      	bne.n	22242 <_ZN20complex_dynamic_type3app17h446db9d26882cf23E+0xb2>
   2223e:	df03      	svc	3
   22240:	e000      	b.n	22244 <_ZN20complex_dynamic_type3app17h446db9d26882cf23E+0xb4>
   22242:	df04      	svc	4
   22244:	b01f      	add	sp, #124	@ 0x7c
   22246:	bdf0      	pop	{r4, r5, r6, r7, pc}
   22248:	a805      	add	r0, sp, #20
   2224a:	7800      	ldrb	r0, [r0, #0]
   2224c:	2802      	cmp	r0, #2
   2224e:	9c02      	ldr	r4, [sp, #8]
   22250:	d01c      	beq.n	2228c <_ZN20complex_dynamic_type3app17h446db9d26882cf23E+0xfc>
   22252:	2803      	cmp	r0, #3
   22254:	d105      	bne.n	22262 <_ZN20complex_dynamic_type3app17h446db9d26882cf23E+0xd2>
   22256:	4817      	ldr	r0, [pc, #92]	@ (222b4 <_ZN20complex_dynamic_type3app17h446db9d26882cf23E+0x124>)
   22258:	2101      	movs	r1, #1
   2225a:	2200      	movs	r2, #0
   2225c:	4613      	mov	r3, r2
   2225e:	df03      	svc	3
   22260:	e004      	b.n	2226c <_ZN20complex_dynamic_type3app17h446db9d26882cf23E+0xdc>
   22262:	4814      	ldr	r0, [pc, #80]	@ (222b4 <_ZN20complex_dynamic_type3app17h446db9d26882cf23E+0x124>)
   22264:	2101      	movs	r1, #1
   22266:	2200      	movs	r2, #0
   22268:	4613      	mov	r3, r2
   2226a:	df04      	svc	4
   2226c:	a805      	add	r0, sp, #20
   2226e:	9901      	ldr	r1, [sp, #4]
   22270:	7001      	strb	r1, [r0, #0]
   22272:	a816      	add	r0, sp, #88	@ 0x58
   22274:	7800      	ldrb	r0, [r0, #0]
   22276:	2803      	cmp	r0, #3
   22278:	d008      	beq.n	2228c <_ZN20complex_dynamic_type3app17h446db9d26882cf23E+0xfc>
   2227a:	2802      	cmp	r0, #2
   2227c:	d10c      	bne.n	22298 <_ZN20complex_dynamic_type3app17h446db9d26882cf23E+0x108>
   2227e:	1c68      	adds	r0, r5, #1
   22280:	2222      	movs	r2, #34	@ 0x22
   22282:	4621      	mov	r1, r4
   22284:	f008 f978 	bl	2a578 <__aeabi_memcpy>
   22288:	702e      	strb	r6, [r5, #0]
   2228a:	e7db      	b.n	22244 <_ZN20complex_dynamic_type3app17h446db9d26882cf23E+0xb4>
   2228c:	4809      	ldr	r0, [pc, #36]	@ (222b4 <_ZN20complex_dynamic_type3app17h446db9d26882cf23E+0x124>)
   2228e:	2100      	movs	r1, #0
   22290:	460a      	mov	r2, r1
   22292:	460b      	mov	r3, r1
   22294:	df03      	svc	3
   22296:	e004      	b.n	222a2 <_ZN20complex_dynamic_type3app17h446db9d26882cf23E+0x112>
   22298:	4806      	ldr	r0, [pc, #24]	@ (222b4 <_ZN20complex_dynamic_type3app17h446db9d26882cf23E+0x124>)
   2229a:	2100      	movs	r1, #0
   2229c:	460a      	mov	r2, r1
   2229e:	460b      	mov	r3, r1
   222a0:	df04      	svc	4
   222a2:	a805      	add	r0, sp, #20
   222a4:	7804      	ldrb	r4, [r0, #0]
   222a6:	1c68      	adds	r0, r5, #1
   222a8:	2222      	movs	r2, #34	@ 0x22
   222aa:	9902      	ldr	r1, [sp, #8]
   222ac:	f008 f964 	bl	2a578 <__aeabi_memcpy>
   222b0:	702e      	strb	r6, [r5, #0]
   222b2:	e7bc      	b.n	2222e <_ZN20complex_dynamic_type3app17h446db9d26882cf23E+0x9e>
   222b4:	0000247c 	.word	0x0000247c

000222b8 <_ZN20complex_dynamic_type3app17h4804dee097fb7a81E>:
   222b8:	b5f0      	push	{r4, r5, r6, r7, lr}
   222ba:	af03      	add	r7, sp, #12
   222bc:	b09b      	sub	sp, #108	@ 0x6c
   222be:	9004      	str	r0, [sp, #16]
   222c0:	a805      	add	r0, sp, #20
   222c2:	2402      	movs	r4, #2
   222c4:	7004      	strb	r4, [r0, #0]
   222c6:	1c46      	adds	r6, r0, #1
   222c8:	2224      	movs	r2, #36	@ 0x24
   222ca:	9203      	str	r2, [sp, #12]
   222cc:	4630      	mov	r0, r6
   222ce:	f008 f953 	bl	2a578 <__aeabi_memcpy>
   222d2:	ad0f      	add	r5, sp, #60	@ 0x3c
   222d4:	1c68      	adds	r0, r5, #1
   222d6:	212f      	movs	r1, #47	@ 0x2f
   222d8:	9002      	str	r0, [sp, #8]
   222da:	f007 ff8d 	bl	2a1f8 <__aeabi_memclr>
   222de:	9401      	str	r4, [sp, #4]
   222e0:	702c      	strb	r4, [r5, #0]
   222e2:	483f      	ldr	r0, [pc, #252]	@ (223e0 <_ZN20complex_dynamic_type3app17h4804dee097fb7a81E+0x128>)
   222e4:	2106      	movs	r1, #6
   222e6:	4632      	mov	r2, r6
   222e8:	9b03      	ldr	r3, [sp, #12]
   222ea:	df04      	svc	4
   222ec:	2802      	cmp	r0, #2
   222ee:	d104      	bne.n	222fa <_ZN20complex_dynamic_type3app17h4804dee097fb7a81E+0x42>
   222f0:	2001      	movs	r0, #1
   222f2:	9a04      	ldr	r2, [sp, #16]
   222f4:	7010      	strb	r0, [r2, #0]
   222f6:	6051      	str	r1, [r2, #4]
   222f8:	e02d      	b.n	22356 <_ZN20complex_dynamic_type3app17h4804dee097fb7a81E+0x9e>
   222fa:	9d04      	ldr	r5, [sp, #16]
   222fc:	a805      	add	r0, sp, #20
   222fe:	2104      	movs	r1, #4
   22300:	7001      	strb	r1, [r0, #0]
   22302:	4837      	ldr	r0, [pc, #220]	@ (223e0 <_ZN20complex_dynamic_type3app17h4804dee097fb7a81E+0x128>)
   22304:	2109      	movs	r1, #9
   22306:	232f      	movs	r3, #47	@ 0x2f
   22308:	9c02      	ldr	r4, [sp, #8]
   2230a:	4622      	mov	r2, r4
   2230c:	df03      	svc	3
   2230e:	2802      	cmp	r0, #2
   22310:	d10e      	bne.n	22330 <_ZN20complex_dynamic_type3app17h4804dee097fb7a81E+0x78>
   22312:	2001      	movs	r0, #1
   22314:	7028      	strb	r0, [r5, #0]
   22316:	6069      	str	r1, [r5, #4]
   22318:	a80f      	add	r0, sp, #60	@ 0x3c
   2231a:	7800      	ldrb	r0, [r0, #0]
   2231c:	2802      	cmp	r0, #2
   2231e:	d01a      	beq.n	22356 <_ZN20complex_dynamic_type3app17h4804dee097fb7a81E+0x9e>
   22320:	2803      	cmp	r0, #3
   22322:	d013      	beq.n	2234c <_ZN20complex_dynamic_type3app17h4804dee097fb7a81E+0x94>
   22324:	482e      	ldr	r0, [pc, #184]	@ (223e0 <_ZN20complex_dynamic_type3app17h4804dee097fb7a81E+0x128>)
   22326:	2109      	movs	r1, #9
   22328:	2200      	movs	r2, #0
   2232a:	4613      	mov	r3, r2
   2232c:	df04      	svc	4
   2232e:	e012      	b.n	22356 <_ZN20complex_dynamic_type3app17h4804dee097fb7a81E+0x9e>
   22330:	a80f      	add	r0, sp, #60	@ 0x3c
   22332:	2103      	movs	r1, #3
   22334:	7001      	strb	r1, [r0, #0]
   22336:	482a      	ldr	r0, [pc, #168]	@ (223e0 <_ZN20complex_dynamic_type3app17h4804dee097fb7a81E+0x128>)
   22338:	2106      	movs	r1, #6
   2233a:	2209      	movs	r2, #9
   2233c:	2600      	movs	r6, #0
   2233e:	4633      	mov	r3, r6
   22340:	df02      	svc	2
   22342:	287f      	cmp	r0, #127	@ 0x7f
   22344:	d816      	bhi.n	22374 <_ZN20complex_dynamic_type3app17h4804dee097fb7a81E+0xbc>
   22346:	2001      	movs	r0, #1
   22348:	7028      	strb	r0, [r5, #0]
   2234a:	6069      	str	r1, [r5, #4]
   2234c:	4824      	ldr	r0, [pc, #144]	@ (223e0 <_ZN20complex_dynamic_type3app17h4804dee097fb7a81E+0x128>)
   2234e:	2109      	movs	r1, #9
   22350:	2200      	movs	r2, #0
   22352:	4613      	mov	r3, r2
   22354:	df03      	svc	3
   22356:	a805      	add	r0, sp, #20
   22358:	7804      	ldrb	r4, [r0, #0]
   2235a:	2c02      	cmp	r4, #2
   2235c:	d008      	beq.n	22370 <_ZN20complex_dynamic_type3app17h4804dee097fb7a81E+0xb8>
   2235e:	4820      	ldr	r0, [pc, #128]	@ (223e0 <_ZN20complex_dynamic_type3app17h4804dee097fb7a81E+0x128>)
   22360:	2106      	movs	r1, #6
   22362:	2200      	movs	r2, #0
   22364:	4613      	mov	r3, r2
   22366:	2c03      	cmp	r4, #3
   22368:	d101      	bne.n	2236e <_ZN20complex_dynamic_type3app17h4804dee097fb7a81E+0xb6>
   2236a:	df03      	svc	3
   2236c:	e000      	b.n	22370 <_ZN20complex_dynamic_type3app17h4804dee097fb7a81E+0xb8>
   2236e:	df04      	svc	4
   22370:	b01b      	add	sp, #108	@ 0x6c
   22372:	bdf0      	pop	{r4, r5, r6, r7, pc}
   22374:	a805      	add	r0, sp, #20
   22376:	7800      	ldrb	r0, [r0, #0]
   22378:	2802      	cmp	r0, #2
   2237a:	d01c      	beq.n	223b6 <_ZN20complex_dynamic_type3app17h4804dee097fb7a81E+0xfe>
   2237c:	2803      	cmp	r0, #3
   2237e:	d105      	bne.n	2238c <_ZN20complex_dynamic_type3app17h4804dee097fb7a81E+0xd4>
   22380:	4817      	ldr	r0, [pc, #92]	@ (223e0 <_ZN20complex_dynamic_type3app17h4804dee097fb7a81E+0x128>)
   22382:	2106      	movs	r1, #6
   22384:	2200      	movs	r2, #0
   22386:	4613      	mov	r3, r2
   22388:	df03      	svc	3
   2238a:	e004      	b.n	22396 <_ZN20complex_dynamic_type3app17h4804dee097fb7a81E+0xde>
   2238c:	4814      	ldr	r0, [pc, #80]	@ (223e0 <_ZN20complex_dynamic_type3app17h4804dee097fb7a81E+0x128>)
   2238e:	2106      	movs	r1, #6
   22390:	2200      	movs	r2, #0
   22392:	4613      	mov	r3, r2
   22394:	df04      	svc	4
   22396:	a805      	add	r0, sp, #20
   22398:	9901      	ldr	r1, [sp, #4]
   2239a:	7001      	strb	r1, [r0, #0]
   2239c:	a80f      	add	r0, sp, #60	@ 0x3c
   2239e:	7800      	ldrb	r0, [r0, #0]
   223a0:	2803      	cmp	r0, #3
   223a2:	d008      	beq.n	223b6 <_ZN20complex_dynamic_type3app17h4804dee097fb7a81E+0xfe>
   223a4:	2802      	cmp	r0, #2
   223a6:	d10c      	bne.n	223c2 <_ZN20complex_dynamic_type3app17h4804dee097fb7a81E+0x10a>
   223a8:	1c68      	adds	r0, r5, #1
   223aa:	222f      	movs	r2, #47	@ 0x2f
   223ac:	4621      	mov	r1, r4
   223ae:	f008 f8e3 	bl	2a578 <__aeabi_memcpy>
   223b2:	702e      	strb	r6, [r5, #0]
   223b4:	e7dc      	b.n	22370 <_ZN20complex_dynamic_type3app17h4804dee097fb7a81E+0xb8>
   223b6:	480a      	ldr	r0, [pc, #40]	@ (223e0 <_ZN20complex_dynamic_type3app17h4804dee097fb7a81E+0x128>)
   223b8:	2109      	movs	r1, #9
   223ba:	2200      	movs	r2, #0
   223bc:	4613      	mov	r3, r2
   223be:	df03      	svc	3
   223c0:	e004      	b.n	223cc <_ZN20complex_dynamic_type3app17h4804dee097fb7a81E+0x114>
   223c2:	4807      	ldr	r0, [pc, #28]	@ (223e0 <_ZN20complex_dynamic_type3app17h4804dee097fb7a81E+0x128>)
   223c4:	2109      	movs	r1, #9
   223c6:	2200      	movs	r2, #0
   223c8:	4613      	mov	r3, r2
   223ca:	df04      	svc	4
   223cc:	a805      	add	r0, sp, #20
   223ce:	7804      	ldrb	r4, [r0, #0]
   223d0:	1c68      	adds	r0, r5, #1
   223d2:	222f      	movs	r2, #47	@ 0x2f
   223d4:	9902      	ldr	r1, [sp, #8]
   223d6:	f008 f8cf 	bl	2a578 <__aeabi_memcpy>
   223da:	702e      	strb	r6, [r5, #0]
   223dc:	e7bd      	b.n	2235a <_ZN20complex_dynamic_type3app17h4804dee097fb7a81E+0xa2>
   223de:	46c0      	nop			@ (mov r8, r8)
   223e0:	00001273 	.word	0x00001273

000223e4 <_ZN20complex_dynamic_type3app17h4c44f96ac4a64c1dE>:
   223e4:	b5f0      	push	{r4, r5, r6, r7, lr}
   223e6:	af03      	add	r7, sp, #12
   223e8:	b0a9      	sub	sp, #164	@ 0xa4
   223ea:	9003      	str	r0, [sp, #12]
   223ec:	a804      	add	r0, sp, #16
   223ee:	2402      	movs	r4, #2
   223f0:	7004      	strb	r4, [r0, #0]
   223f2:	1c46      	adds	r6, r0, #1
   223f4:	2263      	movs	r2, #99	@ 0x63
   223f6:	9202      	str	r2, [sp, #8]
   223f8:	4630      	mov	r0, r6
   223fa:	f008 f8bd 	bl	2a578 <__aeabi_memcpy>
   223fe:	ad1d      	add	r5, sp, #116	@ 0x74
   22400:	1c68      	adds	r0, r5, #1
   22402:	212c      	movs	r1, #44	@ 0x2c
   22404:	9001      	str	r0, [sp, #4]
   22406:	f007 fef7 	bl	2a1f8 <__aeabi_memclr>
   2240a:	9400      	str	r4, [sp, #0]
   2240c:	702c      	strb	r4, [r5, #0]
   2240e:	2018      	movs	r0, #24
   22410:	2105      	movs	r1, #5
   22412:	4632      	mov	r2, r6
   22414:	9b02      	ldr	r3, [sp, #8]
   22416:	df04      	svc	4
   22418:	2802      	cmp	r0, #2
   2241a:	d104      	bne.n	22426 <_ZN20complex_dynamic_type3app17h4c44f96ac4a64c1dE+0x42>
   2241c:	2001      	movs	r0, #1
   2241e:	9a03      	ldr	r2, [sp, #12]
   22420:	7010      	strb	r0, [r2, #0]
   22422:	6051      	str	r1, [r2, #4]
   22424:	e02c      	b.n	22480 <_ZN20complex_dynamic_type3app17h4c44f96ac4a64c1dE+0x9c>
   22426:	9d03      	ldr	r5, [sp, #12]
   22428:	a804      	add	r0, sp, #16
   2242a:	2104      	movs	r1, #4
   2242c:	7001      	strb	r1, [r0, #0]
   2242e:	2018      	movs	r0, #24
   22430:	2403      	movs	r4, #3
   22432:	232c      	movs	r3, #44	@ 0x2c
   22434:	4621      	mov	r1, r4
   22436:	9a01      	ldr	r2, [sp, #4]
   22438:	df03      	svc	3
   2243a:	2802      	cmp	r0, #2
   2243c:	d10e      	bne.n	2245c <_ZN20complex_dynamic_type3app17h4c44f96ac4a64c1dE+0x78>
   2243e:	2001      	movs	r0, #1
   22440:	7028      	strb	r0, [r5, #0]
   22442:	6069      	str	r1, [r5, #4]
   22444:	a81d      	add	r0, sp, #116	@ 0x74
   22446:	7800      	ldrb	r0, [r0, #0]
   22448:	2802      	cmp	r0, #2
   2244a:	d019      	beq.n	22480 <_ZN20complex_dynamic_type3app17h4c44f96ac4a64c1dE+0x9c>
   2244c:	2803      	cmp	r0, #3
   2244e:	d012      	beq.n	22476 <_ZN20complex_dynamic_type3app17h4c44f96ac4a64c1dE+0x92>
   22450:	2018      	movs	r0, #24
   22452:	2103      	movs	r1, #3
   22454:	2200      	movs	r2, #0
   22456:	4613      	mov	r3, r2
   22458:	df04      	svc	4
   2245a:	e011      	b.n	22480 <_ZN20complex_dynamic_type3app17h4c44f96ac4a64c1dE+0x9c>
   2245c:	a81d      	add	r0, sp, #116	@ 0x74
   2245e:	7004      	strb	r4, [r0, #0]
   22460:	2018      	movs	r0, #24
   22462:	2105      	movs	r1, #5
   22464:	2600      	movs	r6, #0
   22466:	4622      	mov	r2, r4
   22468:	4633      	mov	r3, r6
   2246a:	df02      	svc	2
   2246c:	287f      	cmp	r0, #127	@ 0x7f
   2246e:	d816      	bhi.n	2249e <_ZN20complex_dynamic_type3app17h4c44f96ac4a64c1dE+0xba>
   22470:	2001      	movs	r0, #1
   22472:	7028      	strb	r0, [r5, #0]
   22474:	6069      	str	r1, [r5, #4]
   22476:	2018      	movs	r0, #24
   22478:	2103      	movs	r1, #3
   2247a:	2200      	movs	r2, #0
   2247c:	4613      	mov	r3, r2
   2247e:	df03      	svc	3
   22480:	a804      	add	r0, sp, #16
   22482:	7804      	ldrb	r4, [r0, #0]
   22484:	2c02      	cmp	r4, #2
   22486:	d008      	beq.n	2249a <_ZN20complex_dynamic_type3app17h4c44f96ac4a64c1dE+0xb6>
   22488:	2018      	movs	r0, #24
   2248a:	2105      	movs	r1, #5
   2248c:	2200      	movs	r2, #0
   2248e:	4613      	mov	r3, r2
   22490:	2c03      	cmp	r4, #3
   22492:	d101      	bne.n	22498 <_ZN20complex_dynamic_type3app17h4c44f96ac4a64c1dE+0xb4>
   22494:	df03      	svc	3
   22496:	e000      	b.n	2249a <_ZN20complex_dynamic_type3app17h4c44f96ac4a64c1dE+0xb6>
   22498:	df04      	svc	4
   2249a:	b029      	add	sp, #164	@ 0xa4
   2249c:	bdf0      	pop	{r4, r5, r6, r7, pc}
   2249e:	a804      	add	r0, sp, #16
   224a0:	7800      	ldrb	r0, [r0, #0]
   224a2:	2802      	cmp	r0, #2
   224a4:	d01c      	beq.n	224e0 <_ZN20complex_dynamic_type3app17h4c44f96ac4a64c1dE+0xfc>
   224a6:	2803      	cmp	r0, #3
   224a8:	d105      	bne.n	224b6 <_ZN20complex_dynamic_type3app17h4c44f96ac4a64c1dE+0xd2>
   224aa:	2018      	movs	r0, #24
   224ac:	2105      	movs	r1, #5
   224ae:	2200      	movs	r2, #0
   224b0:	4613      	mov	r3, r2
   224b2:	df03      	svc	3
   224b4:	e004      	b.n	224c0 <_ZN20complex_dynamic_type3app17h4c44f96ac4a64c1dE+0xdc>
   224b6:	2018      	movs	r0, #24
   224b8:	2105      	movs	r1, #5
   224ba:	2200      	movs	r2, #0
   224bc:	4613      	mov	r3, r2
   224be:	df04      	svc	4
   224c0:	9900      	ldr	r1, [sp, #0]
   224c2:	a804      	add	r0, sp, #16
   224c4:	7001      	strb	r1, [r0, #0]
   224c6:	a81d      	add	r0, sp, #116	@ 0x74
   224c8:	7800      	ldrb	r0, [r0, #0]
   224ca:	2803      	cmp	r0, #3
   224cc:	d008      	beq.n	224e0 <_ZN20complex_dynamic_type3app17h4c44f96ac4a64c1dE+0xfc>
   224ce:	2802      	cmp	r0, #2
   224d0:	d10c      	bne.n	224ec <_ZN20complex_dynamic_type3app17h4c44f96ac4a64c1dE+0x108>
   224d2:	1c68      	adds	r0, r5, #1
   224d4:	222c      	movs	r2, #44	@ 0x2c
   224d6:	9901      	ldr	r1, [sp, #4]
   224d8:	f008 f84e 	bl	2a578 <__aeabi_memcpy>
   224dc:	702e      	strb	r6, [r5, #0]
   224de:	e7dc      	b.n	2249a <_ZN20complex_dynamic_type3app17h4c44f96ac4a64c1dE+0xb6>
   224e0:	2018      	movs	r0, #24
   224e2:	2103      	movs	r1, #3
   224e4:	2200      	movs	r2, #0
   224e6:	4613      	mov	r3, r2
   224e8:	df03      	svc	3
   224ea:	e004      	b.n	224f6 <_ZN20complex_dynamic_type3app17h4c44f96ac4a64c1dE+0x112>
   224ec:	2018      	movs	r0, #24
   224ee:	2103      	movs	r1, #3
   224f0:	2200      	movs	r2, #0
   224f2:	4613      	mov	r3, r2
   224f4:	df04      	svc	4
   224f6:	a804      	add	r0, sp, #16
   224f8:	7804      	ldrb	r4, [r0, #0]
   224fa:	1c68      	adds	r0, r5, #1
   224fc:	222c      	movs	r2, #44	@ 0x2c
   224fe:	9901      	ldr	r1, [sp, #4]
   22500:	f008 f83a 	bl	2a578 <__aeabi_memcpy>
   22504:	702e      	strb	r6, [r5, #0]
   22506:	e7bd      	b.n	22484 <_ZN20complex_dynamic_type3app17h4c44f96ac4a64c1dE+0xa0>

00022508 <_ZN20complex_dynamic_type3app17h4cf4c384f39c8cc3E>:
   22508:	b5f0      	push	{r4, r5, r6, r7, lr}
   2250a:	af03      	add	r7, sp, #12
   2250c:	b093      	sub	sp, #76	@ 0x4c
   2250e:	9004      	str	r0, [sp, #16]
   22510:	a805      	add	r0, sp, #20
   22512:	2402      	movs	r4, #2
   22514:	7004      	strb	r4, [r0, #0]
   22516:	1c46      	adds	r6, r0, #1
   22518:	220f      	movs	r2, #15
   2251a:	9203      	str	r2, [sp, #12]
   2251c:	4630      	mov	r0, r6
   2251e:	f008 f82b 	bl	2a578 <__aeabi_memcpy>
   22522:	ad09      	add	r5, sp, #36	@ 0x24
   22524:	1c68      	adds	r0, r5, #1
   22526:	2125      	movs	r1, #37	@ 0x25
   22528:	9002      	str	r0, [sp, #8]
   2252a:	f007 fe65 	bl	2a1f8 <__aeabi_memclr>
   2252e:	9401      	str	r4, [sp, #4]
   22530:	702c      	strb	r4, [r5, #0]
   22532:	20a2      	movs	r0, #162	@ 0xa2
   22534:	2108      	movs	r1, #8
   22536:	4632      	mov	r2, r6
   22538:	9b03      	ldr	r3, [sp, #12]
   2253a:	df04      	svc	4
   2253c:	2802      	cmp	r0, #2
   2253e:	d104      	bne.n	2254a <_ZN20complex_dynamic_type3app17h4cf4c384f39c8cc3E+0x42>
   22540:	2001      	movs	r0, #1
   22542:	9a04      	ldr	r2, [sp, #16]
   22544:	7010      	strb	r0, [r2, #0]
   22546:	6051      	str	r1, [r2, #4]
   22548:	e02d      	b.n	225a6 <_ZN20complex_dynamic_type3app17h4cf4c384f39c8cc3E+0x9e>
   2254a:	9d04      	ldr	r5, [sp, #16]
   2254c:	a805      	add	r0, sp, #20
   2254e:	2104      	movs	r1, #4
   22550:	7001      	strb	r1, [r0, #0]
   22552:	20a2      	movs	r0, #162	@ 0xa2
   22554:	2100      	movs	r1, #0
   22556:	2325      	movs	r3, #37	@ 0x25
   22558:	9c02      	ldr	r4, [sp, #8]
   2255a:	4622      	mov	r2, r4
   2255c:	df03      	svc	3
   2255e:	2802      	cmp	r0, #2
   22560:	d10e      	bne.n	22580 <_ZN20complex_dynamic_type3app17h4cf4c384f39c8cc3E+0x78>
   22562:	2001      	movs	r0, #1
   22564:	7028      	strb	r0, [r5, #0]
   22566:	6069      	str	r1, [r5, #4]
   22568:	a809      	add	r0, sp, #36	@ 0x24
   2256a:	7800      	ldrb	r0, [r0, #0]
   2256c:	2802      	cmp	r0, #2
   2256e:	d01a      	beq.n	225a6 <_ZN20complex_dynamic_type3app17h4cf4c384f39c8cc3E+0x9e>
   22570:	2803      	cmp	r0, #3
   22572:	d013      	beq.n	2259c <_ZN20complex_dynamic_type3app17h4cf4c384f39c8cc3E+0x94>
   22574:	20a2      	movs	r0, #162	@ 0xa2
   22576:	2100      	movs	r1, #0
   22578:	460a      	mov	r2, r1
   2257a:	460b      	mov	r3, r1
   2257c:	df04      	svc	4
   2257e:	e012      	b.n	225a6 <_ZN20complex_dynamic_type3app17h4cf4c384f39c8cc3E+0x9e>
   22580:	a809      	add	r0, sp, #36	@ 0x24
   22582:	2103      	movs	r1, #3
   22584:	7001      	strb	r1, [r0, #0]
   22586:	20a2      	movs	r0, #162	@ 0xa2
   22588:	2108      	movs	r1, #8
   2258a:	2600      	movs	r6, #0
   2258c:	4632      	mov	r2, r6
   2258e:	4633      	mov	r3, r6
   22590:	df02      	svc	2
   22592:	287f      	cmp	r0, #127	@ 0x7f
   22594:	d816      	bhi.n	225c4 <_ZN20complex_dynamic_type3app17h4cf4c384f39c8cc3E+0xbc>
   22596:	2001      	movs	r0, #1
   22598:	7028      	strb	r0, [r5, #0]
   2259a:	6069      	str	r1, [r5, #4]
   2259c:	20a2      	movs	r0, #162	@ 0xa2
   2259e:	2100      	movs	r1, #0
   225a0:	460a      	mov	r2, r1
   225a2:	460b      	mov	r3, r1
   225a4:	df03      	svc	3
   225a6:	a805      	add	r0, sp, #20
   225a8:	7804      	ldrb	r4, [r0, #0]
   225aa:	2c02      	cmp	r4, #2
   225ac:	d008      	beq.n	225c0 <_ZN20complex_dynamic_type3app17h4cf4c384f39c8cc3E+0xb8>
   225ae:	20a2      	movs	r0, #162	@ 0xa2
   225b0:	2108      	movs	r1, #8
   225b2:	2200      	movs	r2, #0
   225b4:	4613      	mov	r3, r2
   225b6:	2c03      	cmp	r4, #3
   225b8:	d101      	bne.n	225be <_ZN20complex_dynamic_type3app17h4cf4c384f39c8cc3E+0xb6>
   225ba:	df03      	svc	3
   225bc:	e000      	b.n	225c0 <_ZN20complex_dynamic_type3app17h4cf4c384f39c8cc3E+0xb8>
   225be:	df04      	svc	4
   225c0:	b013      	add	sp, #76	@ 0x4c
   225c2:	bdf0      	pop	{r4, r5, r6, r7, pc}
   225c4:	a805      	add	r0, sp, #20
   225c6:	7800      	ldrb	r0, [r0, #0]
   225c8:	2802      	cmp	r0, #2
   225ca:	d01c      	beq.n	22606 <_ZN20complex_dynamic_type3app17h4cf4c384f39c8cc3E+0xfe>
   225cc:	2803      	cmp	r0, #3
   225ce:	d105      	bne.n	225dc <_ZN20complex_dynamic_type3app17h4cf4c384f39c8cc3E+0xd4>
   225d0:	20a2      	movs	r0, #162	@ 0xa2
   225d2:	2108      	movs	r1, #8
   225d4:	2200      	movs	r2, #0
   225d6:	4613      	mov	r3, r2
   225d8:	df03      	svc	3
   225da:	e004      	b.n	225e6 <_ZN20complex_dynamic_type3app17h4cf4c384f39c8cc3E+0xde>
   225dc:	20a2      	movs	r0, #162	@ 0xa2
   225de:	2108      	movs	r1, #8
   225e0:	2200      	movs	r2, #0
   225e2:	4613      	mov	r3, r2
   225e4:	df04      	svc	4
   225e6:	a805      	add	r0, sp, #20
   225e8:	9901      	ldr	r1, [sp, #4]
   225ea:	7001      	strb	r1, [r0, #0]
   225ec:	a809      	add	r0, sp, #36	@ 0x24
   225ee:	7800      	ldrb	r0, [r0, #0]
   225f0:	2803      	cmp	r0, #3
   225f2:	d008      	beq.n	22606 <_ZN20complex_dynamic_type3app17h4cf4c384f39c8cc3E+0xfe>
   225f4:	2802      	cmp	r0, #2
   225f6:	d10c      	bne.n	22612 <_ZN20complex_dynamic_type3app17h4cf4c384f39c8cc3E+0x10a>
   225f8:	1c68      	adds	r0, r5, #1
   225fa:	2225      	movs	r2, #37	@ 0x25
   225fc:	4621      	mov	r1, r4
   225fe:	f007 ffbb 	bl	2a578 <__aeabi_memcpy>
   22602:	702e      	strb	r6, [r5, #0]
   22604:	e7dc      	b.n	225c0 <_ZN20complex_dynamic_type3app17h4cf4c384f39c8cc3E+0xb8>
   22606:	20a2      	movs	r0, #162	@ 0xa2
   22608:	2100      	movs	r1, #0
   2260a:	460a      	mov	r2, r1
   2260c:	460b      	mov	r3, r1
   2260e:	df03      	svc	3
   22610:	e004      	b.n	2261c <_ZN20complex_dynamic_type3app17h4cf4c384f39c8cc3E+0x114>
   22612:	20a2      	movs	r0, #162	@ 0xa2
   22614:	2100      	movs	r1, #0
   22616:	460a      	mov	r2, r1
   22618:	460b      	mov	r3, r1
   2261a:	df04      	svc	4
   2261c:	a805      	add	r0, sp, #20
   2261e:	7804      	ldrb	r4, [r0, #0]
   22620:	1c68      	adds	r0, r5, #1
   22622:	2225      	movs	r2, #37	@ 0x25
   22624:	9902      	ldr	r1, [sp, #8]
   22626:	f007 ffa7 	bl	2a578 <__aeabi_memcpy>
   2262a:	702e      	strb	r6, [r5, #0]
   2262c:	e7bd      	b.n	225aa <_ZN20complex_dynamic_type3app17h4cf4c384f39c8cc3E+0xa2>

0002262e <_ZN20complex_dynamic_type3app17h555b0152ec2334e2E>:
   2262e:	b5f0      	push	{r4, r5, r6, r7, lr}
   22630:	af03      	add	r7, sp, #12
   22632:	b099      	sub	sp, #100	@ 0x64
   22634:	9003      	str	r0, [sp, #12]
   22636:	a804      	add	r0, sp, #16
   22638:	2502      	movs	r5, #2
   2263a:	7005      	strb	r5, [r0, #0]
   2263c:	1c40      	adds	r0, r0, #1
   2263e:	9002      	str	r0, [sp, #8]
   22640:	2611      	movs	r6, #17
   22642:	4632      	mov	r2, r6
   22644:	f007 ff98 	bl	2a578 <__aeabi_memcpy>
   22648:	ac09      	add	r4, sp, #36	@ 0x24
   2264a:	1c60      	adds	r0, r4, #1
   2264c:	213f      	movs	r1, #63	@ 0x3f
   2264e:	9001      	str	r0, [sp, #4]
   22650:	f007 fdd2 	bl	2a1f8 <__aeabi_memclr>
   22654:	9500      	str	r5, [sp, #0]
   22656:	7025      	strb	r5, [r4, #0]
   22658:	20cb      	movs	r0, #203	@ 0xcb
   2265a:	0104      	lsls	r4, r0, #4
   2265c:	2107      	movs	r1, #7
   2265e:	4620      	mov	r0, r4
   22660:	9a02      	ldr	r2, [sp, #8]
   22662:	4633      	mov	r3, r6
   22664:	df04      	svc	4
   22666:	2802      	cmp	r0, #2
   22668:	d104      	bne.n	22674 <_ZN20complex_dynamic_type3app17h555b0152ec2334e2E+0x46>
   2266a:	2001      	movs	r0, #1
   2266c:	9a03      	ldr	r2, [sp, #12]
   2266e:	7010      	strb	r0, [r2, #0]
   22670:	6051      	str	r1, [r2, #4]
   22672:	e02c      	b.n	226ce <_ZN20complex_dynamic_type3app17h555b0152ec2334e2E+0xa0>
   22674:	9e03      	ldr	r6, [sp, #12]
   22676:	a804      	add	r0, sp, #16
   22678:	2104      	movs	r1, #4
   2267a:	7001      	strb	r1, [r0, #0]
   2267c:	233f      	movs	r3, #63	@ 0x3f
   2267e:	4620      	mov	r0, r4
   22680:	9d01      	ldr	r5, [sp, #4]
   22682:	462a      	mov	r2, r5
   22684:	df03      	svc	3
   22686:	2802      	cmp	r0, #2
   22688:	d10e      	bne.n	226a8 <_ZN20complex_dynamic_type3app17h555b0152ec2334e2E+0x7a>
   2268a:	2001      	movs	r0, #1
   2268c:	7030      	strb	r0, [r6, #0]
   2268e:	6071      	str	r1, [r6, #4]
   22690:	a809      	add	r0, sp, #36	@ 0x24
   22692:	7800      	ldrb	r0, [r0, #0]
   22694:	2802      	cmp	r0, #2
   22696:	d01a      	beq.n	226ce <_ZN20complex_dynamic_type3app17h555b0152ec2334e2E+0xa0>
   22698:	2803      	cmp	r0, #3
   2269a:	d013      	beq.n	226c4 <_ZN20complex_dynamic_type3app17h555b0152ec2334e2E+0x96>
   2269c:	2104      	movs	r1, #4
   2269e:	2200      	movs	r2, #0
   226a0:	4620      	mov	r0, r4
   226a2:	4613      	mov	r3, r2
   226a4:	df04      	svc	4
   226a6:	e012      	b.n	226ce <_ZN20complex_dynamic_type3app17h555b0152ec2334e2E+0xa0>
   226a8:	a809      	add	r0, sp, #36	@ 0x24
   226aa:	2103      	movs	r1, #3
   226ac:	7001      	strb	r1, [r0, #0]
   226ae:	2107      	movs	r1, #7
   226b0:	2204      	movs	r2, #4
   226b2:	2300      	movs	r3, #0
   226b4:	4620      	mov	r0, r4
   226b6:	9302      	str	r3, [sp, #8]
   226b8:	df02      	svc	2
   226ba:	287f      	cmp	r0, #127	@ 0x7f
   226bc:	d817      	bhi.n	226ee <_ZN20complex_dynamic_type3app17h555b0152ec2334e2E+0xc0>
   226be:	2001      	movs	r0, #1
   226c0:	7030      	strb	r0, [r6, #0]
   226c2:	6071      	str	r1, [r6, #4]
   226c4:	2104      	movs	r1, #4
   226c6:	2200      	movs	r2, #0
   226c8:	4620      	mov	r0, r4
   226ca:	4613      	mov	r3, r2
   226cc:	df03      	svc	3
   226ce:	4625      	mov	r5, r4
   226d0:	a804      	add	r0, sp, #16
   226d2:	7804      	ldrb	r4, [r0, #0]
   226d4:	2c02      	cmp	r4, #2
   226d6:	d008      	beq.n	226ea <_ZN20complex_dynamic_type3app17h555b0152ec2334e2E+0xbc>
   226d8:	2107      	movs	r1, #7
   226da:	2200      	movs	r2, #0
   226dc:	4628      	mov	r0, r5
   226de:	4613      	mov	r3, r2
   226e0:	2c03      	cmp	r4, #3
   226e2:	d101      	bne.n	226e8 <_ZN20complex_dynamic_type3app17h555b0152ec2334e2E+0xba>
   226e4:	df03      	svc	3
   226e6:	e000      	b.n	226ea <_ZN20complex_dynamic_type3app17h555b0152ec2334e2E+0xbc>
   226e8:	df04      	svc	4
   226ea:	b019      	add	sp, #100	@ 0x64
   226ec:	bdf0      	pop	{r4, r5, r6, r7, pc}
   226ee:	a804      	add	r0, sp, #16
   226f0:	7800      	ldrb	r0, [r0, #0]
   226f2:	2802      	cmp	r0, #2
   226f4:	d01b      	beq.n	2272e <_ZN20complex_dynamic_type3app17h555b0152ec2334e2E+0x100>
   226f6:	2107      	movs	r1, #7
   226f8:	2200      	movs	r2, #0
   226fa:	2803      	cmp	r0, #3
   226fc:	d103      	bne.n	22706 <_ZN20complex_dynamic_type3app17h555b0152ec2334e2E+0xd8>
   226fe:	4620      	mov	r0, r4
   22700:	4613      	mov	r3, r2
   22702:	df03      	svc	3
   22704:	e002      	b.n	2270c <_ZN20complex_dynamic_type3app17h555b0152ec2334e2E+0xde>
   22706:	4620      	mov	r0, r4
   22708:	4613      	mov	r3, r2
   2270a:	df04      	svc	4
   2270c:	a804      	add	r0, sp, #16
   2270e:	9900      	ldr	r1, [sp, #0]
   22710:	7001      	strb	r1, [r0, #0]
   22712:	a809      	add	r0, sp, #36	@ 0x24
   22714:	7800      	ldrb	r0, [r0, #0]
   22716:	2803      	cmp	r0, #3
   22718:	d009      	beq.n	2272e <_ZN20complex_dynamic_type3app17h555b0152ec2334e2E+0x100>
   2271a:	2802      	cmp	r0, #2
   2271c:	d10e      	bne.n	2273c <_ZN20complex_dynamic_type3app17h555b0152ec2334e2E+0x10e>
   2271e:	1c70      	adds	r0, r6, #1
   22720:	223f      	movs	r2, #63	@ 0x3f
   22722:	4629      	mov	r1, r5
   22724:	f007 ff28 	bl	2a578 <__aeabi_memcpy>
   22728:	9802      	ldr	r0, [sp, #8]
   2272a:	7030      	strb	r0, [r6, #0]
   2272c:	e7dd      	b.n	226ea <_ZN20complex_dynamic_type3app17h555b0152ec2334e2E+0xbc>
   2272e:	2104      	movs	r1, #4
   22730:	2200      	movs	r2, #0
   22732:	4625      	mov	r5, r4
   22734:	4620      	mov	r0, r4
   22736:	4613      	mov	r3, r2
   22738:	df03      	svc	3
   2273a:	e005      	b.n	22748 <_ZN20complex_dynamic_type3app17h555b0152ec2334e2E+0x11a>
   2273c:	2104      	movs	r1, #4
   2273e:	2200      	movs	r2, #0
   22740:	4625      	mov	r5, r4
   22742:	4620      	mov	r0, r4
   22744:	4613      	mov	r3, r2
   22746:	df04      	svc	4
   22748:	a804      	add	r0, sp, #16
   2274a:	7804      	ldrb	r4, [r0, #0]
   2274c:	1c70      	adds	r0, r6, #1
   2274e:	223f      	movs	r2, #63	@ 0x3f
   22750:	9901      	ldr	r1, [sp, #4]
   22752:	f007 ff11 	bl	2a578 <__aeabi_memcpy>
   22756:	9802      	ldr	r0, [sp, #8]
   22758:	7030      	strb	r0, [r6, #0]
   2275a:	e7bb      	b.n	226d4 <_ZN20complex_dynamic_type3app17h555b0152ec2334e2E+0xa6>

0002275c <_ZN20complex_dynamic_type3app17h5ab4f235b6fe3ef3E>:
   2275c:	b5f0      	push	{r4, r5, r6, r7, lr}
   2275e:	af03      	add	r7, sp, #12
   22760:	b097      	sub	sp, #92	@ 0x5c
   22762:	9003      	str	r0, [sp, #12]
   22764:	a804      	add	r0, sp, #16
   22766:	2402      	movs	r4, #2
   22768:	7004      	strb	r4, [r0, #0]
   2276a:	1c40      	adds	r0, r0, #1
   2276c:	9002      	str	r0, [sp, #8]
   2276e:	2510      	movs	r5, #16
   22770:	462a      	mov	r2, r5
   22772:	f007 ff01 	bl	2a578 <__aeabi_memcpy>
   22776:	ae09      	add	r6, sp, #36	@ 0x24
   22778:	1c70      	adds	r0, r6, #1
   2277a:	2136      	movs	r1, #54	@ 0x36
   2277c:	9001      	str	r0, [sp, #4]
   2277e:	f007 fd3b 	bl	2a1f8 <__aeabi_memclr>
   22782:	9400      	str	r4, [sp, #0]
   22784:	7034      	strb	r4, [r6, #0]
   22786:	483e      	ldr	r0, [pc, #248]	@ (22880 <_ZN20complex_dynamic_type3app17h5ab4f235b6fe3ef3E+0x124>)
   22788:	2601      	movs	r6, #1
   2278a:	4631      	mov	r1, r6
   2278c:	9a02      	ldr	r2, [sp, #8]
   2278e:	462b      	mov	r3, r5
   22790:	df04      	svc	4
   22792:	2802      	cmp	r0, #2
   22794:	d103      	bne.n	2279e <_ZN20complex_dynamic_type3app17h5ab4f235b6fe3ef3E+0x42>
   22796:	9803      	ldr	r0, [sp, #12]
   22798:	7006      	strb	r6, [r0, #0]
   2279a:	6041      	str	r1, [r0, #4]
   2279c:	e02b      	b.n	227f6 <_ZN20complex_dynamic_type3app17h5ab4f235b6fe3ef3E+0x9a>
   2279e:	9d03      	ldr	r5, [sp, #12]
   227a0:	a804      	add	r0, sp, #16
   227a2:	2104      	movs	r1, #4
   227a4:	7001      	strb	r1, [r0, #0]
   227a6:	4836      	ldr	r0, [pc, #216]	@ (22880 <_ZN20complex_dynamic_type3app17h5ab4f235b6fe3ef3E+0x124>)
   227a8:	2107      	movs	r1, #7
   227aa:	2336      	movs	r3, #54	@ 0x36
   227ac:	9a01      	ldr	r2, [sp, #4]
   227ae:	df03      	svc	3
   227b0:	2802      	cmp	r0, #2
   227b2:	d10d      	bne.n	227d0 <_ZN20complex_dynamic_type3app17h5ab4f235b6fe3ef3E+0x74>
   227b4:	702e      	strb	r6, [r5, #0]
   227b6:	6069      	str	r1, [r5, #4]
   227b8:	a809      	add	r0, sp, #36	@ 0x24
   227ba:	7800      	ldrb	r0, [r0, #0]
   227bc:	2802      	cmp	r0, #2
   227be:	d01a      	beq.n	227f6 <_ZN20complex_dynamic_type3app17h5ab4f235b6fe3ef3E+0x9a>
   227c0:	2803      	cmp	r0, #3
   227c2:	d013      	beq.n	227ec <_ZN20complex_dynamic_type3app17h5ab4f235b6fe3ef3E+0x90>
   227c4:	482e      	ldr	r0, [pc, #184]	@ (22880 <_ZN20complex_dynamic_type3app17h5ab4f235b6fe3ef3E+0x124>)
   227c6:	2107      	movs	r1, #7
   227c8:	2200      	movs	r2, #0
   227ca:	4613      	mov	r3, r2
   227cc:	df04      	svc	4
   227ce:	e012      	b.n	227f6 <_ZN20complex_dynamic_type3app17h5ab4f235b6fe3ef3E+0x9a>
   227d0:	a809      	add	r0, sp, #36	@ 0x24
   227d2:	2103      	movs	r1, #3
   227d4:	7001      	strb	r1, [r0, #0]
   227d6:	482a      	ldr	r0, [pc, #168]	@ (22880 <_ZN20complex_dynamic_type3app17h5ab4f235b6fe3ef3E+0x124>)
   227d8:	2401      	movs	r4, #1
   227da:	2207      	movs	r2, #7
   227dc:	2600      	movs	r6, #0
   227de:	4621      	mov	r1, r4
   227e0:	4633      	mov	r3, r6
   227e2:	df02      	svc	2
   227e4:	287f      	cmp	r0, #127	@ 0x7f
   227e6:	d815      	bhi.n	22814 <_ZN20complex_dynamic_type3app17h5ab4f235b6fe3ef3E+0xb8>
   227e8:	702c      	strb	r4, [r5, #0]
   227ea:	6069      	str	r1, [r5, #4]
   227ec:	4824      	ldr	r0, [pc, #144]	@ (22880 <_ZN20complex_dynamic_type3app17h5ab4f235b6fe3ef3E+0x124>)
   227ee:	2107      	movs	r1, #7
   227f0:	2200      	movs	r2, #0
   227f2:	4613      	mov	r3, r2
   227f4:	df03      	svc	3
   227f6:	a804      	add	r0, sp, #16
   227f8:	7804      	ldrb	r4, [r0, #0]
   227fa:	2c02      	cmp	r4, #2
   227fc:	d008      	beq.n	22810 <_ZN20complex_dynamic_type3app17h5ab4f235b6fe3ef3E+0xb4>
   227fe:	4820      	ldr	r0, [pc, #128]	@ (22880 <_ZN20complex_dynamic_type3app17h5ab4f235b6fe3ef3E+0x124>)
   22800:	2101      	movs	r1, #1
   22802:	2200      	movs	r2, #0
   22804:	4613      	mov	r3, r2
   22806:	2c03      	cmp	r4, #3
   22808:	d101      	bne.n	2280e <_ZN20complex_dynamic_type3app17h5ab4f235b6fe3ef3E+0xb2>
   2280a:	df03      	svc	3
   2280c:	e000      	b.n	22810 <_ZN20complex_dynamic_type3app17h5ab4f235b6fe3ef3E+0xb4>
   2280e:	df04      	svc	4
   22810:	b017      	add	sp, #92	@ 0x5c
   22812:	bdf0      	pop	{r4, r5, r6, r7, pc}
   22814:	a804      	add	r0, sp, #16
   22816:	7800      	ldrb	r0, [r0, #0]
   22818:	2802      	cmp	r0, #2
   2281a:	9c01      	ldr	r4, [sp, #4]
   2281c:	d01c      	beq.n	22858 <_ZN20complex_dynamic_type3app17h5ab4f235b6fe3ef3E+0xfc>
   2281e:	2803      	cmp	r0, #3
   22820:	d105      	bne.n	2282e <_ZN20complex_dynamic_type3app17h5ab4f235b6fe3ef3E+0xd2>
   22822:	4817      	ldr	r0, [pc, #92]	@ (22880 <_ZN20complex_dynamic_type3app17h5ab4f235b6fe3ef3E+0x124>)
   22824:	2101      	movs	r1, #1
   22826:	2200      	movs	r2, #0
   22828:	4613      	mov	r3, r2
   2282a:	df03      	svc	3
   2282c:	e004      	b.n	22838 <_ZN20complex_dynamic_type3app17h5ab4f235b6fe3ef3E+0xdc>
   2282e:	4814      	ldr	r0, [pc, #80]	@ (22880 <_ZN20complex_dynamic_type3app17h5ab4f235b6fe3ef3E+0x124>)
   22830:	2101      	movs	r1, #1
   22832:	2200      	movs	r2, #0
   22834:	4613      	mov	r3, r2
   22836:	df04      	svc	4
   22838:	a804      	add	r0, sp, #16
   2283a:	9900      	ldr	r1, [sp, #0]
   2283c:	7001      	strb	r1, [r0, #0]
   2283e:	a809      	add	r0, sp, #36	@ 0x24
   22840:	7800      	ldrb	r0, [r0, #0]
   22842:	2803      	cmp	r0, #3
   22844:	d008      	beq.n	22858 <_ZN20complex_dynamic_type3app17h5ab4f235b6fe3ef3E+0xfc>
   22846:	2802      	cmp	r0, #2
   22848:	d10c      	bne.n	22864 <_ZN20complex_dynamic_type3app17h5ab4f235b6fe3ef3E+0x108>
   2284a:	1c68      	adds	r0, r5, #1
   2284c:	2236      	movs	r2, #54	@ 0x36
   2284e:	4621      	mov	r1, r4
   22850:	f007 fe92 	bl	2a578 <__aeabi_memcpy>
   22854:	702e      	strb	r6, [r5, #0]
   22856:	e7db      	b.n	22810 <_ZN20complex_dynamic_type3app17h5ab4f235b6fe3ef3E+0xb4>
   22858:	4809      	ldr	r0, [pc, #36]	@ (22880 <_ZN20complex_dynamic_type3app17h5ab4f235b6fe3ef3E+0x124>)
   2285a:	2107      	movs	r1, #7
   2285c:	2200      	movs	r2, #0
   2285e:	4613      	mov	r3, r2
   22860:	df03      	svc	3
   22862:	e004      	b.n	2286e <_ZN20complex_dynamic_type3app17h5ab4f235b6fe3ef3E+0x112>
   22864:	4806      	ldr	r0, [pc, #24]	@ (22880 <_ZN20complex_dynamic_type3app17h5ab4f235b6fe3ef3E+0x124>)
   22866:	2107      	movs	r1, #7
   22868:	2200      	movs	r2, #0
   2286a:	4613      	mov	r3, r2
   2286c:	df04      	svc	4
   2286e:	a804      	add	r0, sp, #16
   22870:	7804      	ldrb	r4, [r0, #0]
   22872:	1c68      	adds	r0, r5, #1
   22874:	2236      	movs	r2, #54	@ 0x36
   22876:	9901      	ldr	r1, [sp, #4]
   22878:	f007 fe7e 	bl	2a578 <__aeabi_memcpy>
   2287c:	702e      	strb	r6, [r5, #0]
   2287e:	e7bc      	b.n	227fa <_ZN20complex_dynamic_type3app17h5ab4f235b6fe3ef3E+0x9e>
   22880:	00001989 	.word	0x00001989

00022884 <_ZN20complex_dynamic_type3app17h5b3f75af7fa20fc7E>:
   22884:	b5f0      	push	{r4, r5, r6, r7, lr}
   22886:	af03      	add	r7, sp, #12
   22888:	b0a9      	sub	sp, #164	@ 0xa4
   2288a:	9004      	str	r0, [sp, #16]
   2288c:	a805      	add	r0, sp, #20
   2288e:	2402      	movs	r4, #2
   22890:	7004      	strb	r4, [r0, #0]
   22892:	1c46      	adds	r6, r0, #1
   22894:	224d      	movs	r2, #77	@ 0x4d
   22896:	9203      	str	r2, [sp, #12]
   22898:	4630      	mov	r0, r6
   2289a:	f007 fe6d 	bl	2a578 <__aeabi_memcpy>
   2289e:	ad19      	add	r5, sp, #100	@ 0x64
   228a0:	1c68      	adds	r0, r5, #1
   228a2:	213c      	movs	r1, #60	@ 0x3c
   228a4:	9002      	str	r0, [sp, #8]
   228a6:	f007 fca7 	bl	2a1f8 <__aeabi_memclr>
   228aa:	9401      	str	r4, [sp, #4]
   228ac:	702c      	strb	r4, [r5, #0]
   228ae:	483f      	ldr	r0, [pc, #252]	@ (229ac <_ZN20complex_dynamic_type3app17h5b3f75af7fa20fc7E+0x128>)
   228b0:	2504      	movs	r5, #4
   228b2:	4629      	mov	r1, r5
   228b4:	4632      	mov	r2, r6
   228b6:	9b03      	ldr	r3, [sp, #12]
   228b8:	df04      	svc	4
   228ba:	2802      	cmp	r0, #2
   228bc:	d104      	bne.n	228c8 <_ZN20complex_dynamic_type3app17h5b3f75af7fa20fc7E+0x44>
   228be:	2001      	movs	r0, #1
   228c0:	9a04      	ldr	r2, [sp, #16]
   228c2:	7010      	strb	r0, [r2, #0]
   228c4:	6051      	str	r1, [r2, #4]
   228c6:	e02c      	b.n	22922 <_ZN20complex_dynamic_type3app17h5b3f75af7fa20fc7E+0x9e>
   228c8:	9c04      	ldr	r4, [sp, #16]
   228ca:	a805      	add	r0, sp, #20
   228cc:	7005      	strb	r5, [r0, #0]
   228ce:	4837      	ldr	r0, [pc, #220]	@ (229ac <_ZN20complex_dynamic_type3app17h5b3f75af7fa20fc7E+0x128>)
   228d0:	2109      	movs	r1, #9
   228d2:	233c      	movs	r3, #60	@ 0x3c
   228d4:	9a02      	ldr	r2, [sp, #8]
   228d6:	df03      	svc	3
   228d8:	2802      	cmp	r0, #2
   228da:	d10e      	bne.n	228fa <_ZN20complex_dynamic_type3app17h5b3f75af7fa20fc7E+0x76>
   228dc:	2001      	movs	r0, #1
   228de:	7020      	strb	r0, [r4, #0]
   228e0:	6061      	str	r1, [r4, #4]
   228e2:	a819      	add	r0, sp, #100	@ 0x64
   228e4:	7800      	ldrb	r0, [r0, #0]
   228e6:	2802      	cmp	r0, #2
   228e8:	d01b      	beq.n	22922 <_ZN20complex_dynamic_type3app17h5b3f75af7fa20fc7E+0x9e>
   228ea:	2803      	cmp	r0, #3
   228ec:	d014      	beq.n	22918 <_ZN20complex_dynamic_type3app17h5b3f75af7fa20fc7E+0x94>
   228ee:	482f      	ldr	r0, [pc, #188]	@ (229ac <_ZN20complex_dynamic_type3app17h5b3f75af7fa20fc7E+0x128>)
   228f0:	2109      	movs	r1, #9
   228f2:	2200      	movs	r2, #0
   228f4:	4613      	mov	r3, r2
   228f6:	df04      	svc	4
   228f8:	e013      	b.n	22922 <_ZN20complex_dynamic_type3app17h5b3f75af7fa20fc7E+0x9e>
   228fa:	a819      	add	r0, sp, #100	@ 0x64
   228fc:	2103      	movs	r1, #3
   228fe:	7001      	strb	r1, [r0, #0]
   22900:	482a      	ldr	r0, [pc, #168]	@ (229ac <_ZN20complex_dynamic_type3app17h5b3f75af7fa20fc7E+0x128>)
   22902:	2104      	movs	r1, #4
   22904:	2209      	movs	r2, #9
   22906:	2600      	movs	r6, #0
   22908:	4633      	mov	r3, r6
   2290a:	df02      	svc	2
   2290c:	287f      	cmp	r0, #127	@ 0x7f
   2290e:	4625      	mov	r5, r4
   22910:	d816      	bhi.n	22940 <_ZN20complex_dynamic_type3app17h5b3f75af7fa20fc7E+0xbc>
   22912:	2001      	movs	r0, #1
   22914:	7028      	strb	r0, [r5, #0]
   22916:	6069      	str	r1, [r5, #4]
   22918:	4824      	ldr	r0, [pc, #144]	@ (229ac <_ZN20complex_dynamic_type3app17h5b3f75af7fa20fc7E+0x128>)
   2291a:	2109      	movs	r1, #9
   2291c:	2200      	movs	r2, #0
   2291e:	4613      	mov	r3, r2
   22920:	df03      	svc	3
   22922:	a805      	add	r0, sp, #20
   22924:	7804      	ldrb	r4, [r0, #0]
   22926:	2c02      	cmp	r4, #2
   22928:	d008      	beq.n	2293c <_ZN20complex_dynamic_type3app17h5b3f75af7fa20fc7E+0xb8>
   2292a:	4820      	ldr	r0, [pc, #128]	@ (229ac <_ZN20complex_dynamic_type3app17h5b3f75af7fa20fc7E+0x128>)
   2292c:	2104      	movs	r1, #4
   2292e:	2200      	movs	r2, #0
   22930:	4613      	mov	r3, r2
   22932:	2c03      	cmp	r4, #3
   22934:	d101      	bne.n	2293a <_ZN20complex_dynamic_type3app17h5b3f75af7fa20fc7E+0xb6>
   22936:	df03      	svc	3
   22938:	e000      	b.n	2293c <_ZN20complex_dynamic_type3app17h5b3f75af7fa20fc7E+0xb8>
   2293a:	df04      	svc	4
   2293c:	b029      	add	sp, #164	@ 0xa4
   2293e:	bdf0      	pop	{r4, r5, r6, r7, pc}
   22940:	a805      	add	r0, sp, #20
   22942:	7800      	ldrb	r0, [r0, #0]
   22944:	2802      	cmp	r0, #2
   22946:	d01c      	beq.n	22982 <_ZN20complex_dynamic_type3app17h5b3f75af7fa20fc7E+0xfe>
   22948:	2803      	cmp	r0, #3
   2294a:	d105      	bne.n	22958 <_ZN20complex_dynamic_type3app17h5b3f75af7fa20fc7E+0xd4>
   2294c:	4817      	ldr	r0, [pc, #92]	@ (229ac <_ZN20complex_dynamic_type3app17h5b3f75af7fa20fc7E+0x128>)
   2294e:	2104      	movs	r1, #4
   22950:	2200      	movs	r2, #0
   22952:	4613      	mov	r3, r2
   22954:	df03      	svc	3
   22956:	e004      	b.n	22962 <_ZN20complex_dynamic_type3app17h5b3f75af7fa20fc7E+0xde>
   22958:	4814      	ldr	r0, [pc, #80]	@ (229ac <_ZN20complex_dynamic_type3app17h5b3f75af7fa20fc7E+0x128>)
   2295a:	2104      	movs	r1, #4
   2295c:	2200      	movs	r2, #0
   2295e:	4613      	mov	r3, r2
   22960:	df04      	svc	4
   22962:	9901      	ldr	r1, [sp, #4]
   22964:	a805      	add	r0, sp, #20
   22966:	7001      	strb	r1, [r0, #0]
   22968:	a819      	add	r0, sp, #100	@ 0x64
   2296a:	7800      	ldrb	r0, [r0, #0]
   2296c:	2803      	cmp	r0, #3
   2296e:	d008      	beq.n	22982 <_ZN20complex_dynamic_type3app17h5b3f75af7fa20fc7E+0xfe>
   22970:	2802      	cmp	r0, #2
   22972:	d10c      	bne.n	2298e <_ZN20complex_dynamic_type3app17h5b3f75af7fa20fc7E+0x10a>
   22974:	1c68      	adds	r0, r5, #1
   22976:	223c      	movs	r2, #60	@ 0x3c
   22978:	9902      	ldr	r1, [sp, #8]
   2297a:	f007 fdfd 	bl	2a578 <__aeabi_memcpy>
   2297e:	702e      	strb	r6, [r5, #0]
   22980:	e7dc      	b.n	2293c <_ZN20complex_dynamic_type3app17h5b3f75af7fa20fc7E+0xb8>
   22982:	480a      	ldr	r0, [pc, #40]	@ (229ac <_ZN20complex_dynamic_type3app17h5b3f75af7fa20fc7E+0x128>)
   22984:	2109      	movs	r1, #9
   22986:	2200      	movs	r2, #0
   22988:	4613      	mov	r3, r2
   2298a:	df03      	svc	3
   2298c:	e004      	b.n	22998 <_ZN20complex_dynamic_type3app17h5b3f75af7fa20fc7E+0x114>
   2298e:	4807      	ldr	r0, [pc, #28]	@ (229ac <_ZN20complex_dynamic_type3app17h5b3f75af7fa20fc7E+0x128>)
   22990:	2109      	movs	r1, #9
   22992:	2200      	movs	r2, #0
   22994:	4613      	mov	r3, r2
   22996:	df04      	svc	4
   22998:	a805      	add	r0, sp, #20
   2299a:	7804      	ldrb	r4, [r0, #0]
   2299c:	1c68      	adds	r0, r5, #1
   2299e:	223c      	movs	r2, #60	@ 0x3c
   229a0:	9902      	ldr	r1, [sp, #8]
   229a2:	f007 fde9 	bl	2a578 <__aeabi_memcpy>
   229a6:	702e      	strb	r6, [r5, #0]
   229a8:	e7bd      	b.n	22926 <_ZN20complex_dynamic_type3app17h5b3f75af7fa20fc7E+0xa2>
   229aa:	46c0      	nop			@ (mov r8, r8)
   229ac:	000021ab 	.word	0x000021ab

000229b0 <_ZN20complex_dynamic_type3app17h5bc4b2f9694a14f1E>:
   229b0:	b5f0      	push	{r4, r5, r6, r7, lr}
   229b2:	af03      	add	r7, sp, #12
   229b4:	b09b      	sub	sp, #108	@ 0x6c
   229b6:	9003      	str	r0, [sp, #12]
   229b8:	a804      	add	r0, sp, #16
   229ba:	2402      	movs	r4, #2
   229bc:	7004      	strb	r4, [r0, #0]
   229be:	1c40      	adds	r0, r0, #1
   229c0:	9002      	str	r0, [sp, #8]
   229c2:	252c      	movs	r5, #44	@ 0x2c
   229c4:	462a      	mov	r2, r5
   229c6:	f007 fdd7 	bl	2a578 <__aeabi_memcpy>
   229ca:	ae10      	add	r6, sp, #64	@ 0x40
   229cc:	1c70      	adds	r0, r6, #1
   229ce:	212a      	movs	r1, #42	@ 0x2a
   229d0:	9001      	str	r0, [sp, #4]
   229d2:	f007 fc11 	bl	2a1f8 <__aeabi_memclr>
   229d6:	9400      	str	r4, [sp, #0]
   229d8:	7034      	strb	r4, [r6, #0]
   229da:	4841      	ldr	r0, [pc, #260]	@ (22ae0 <_ZN20complex_dynamic_type3app17h5bc4b2f9694a14f1E+0x130>)
   229dc:	2603      	movs	r6, #3
   229de:	4631      	mov	r1, r6
   229e0:	9a02      	ldr	r2, [sp, #8]
   229e2:	462b      	mov	r3, r5
   229e4:	df04      	svc	4
   229e6:	2802      	cmp	r0, #2
   229e8:	d104      	bne.n	229f4 <_ZN20complex_dynamic_type3app17h5bc4b2f9694a14f1E+0x44>
   229ea:	2001      	movs	r0, #1
   229ec:	9a03      	ldr	r2, [sp, #12]
   229ee:	7010      	strb	r0, [r2, #0]
   229f0:	6051      	str	r1, [r2, #4]
   229f2:	e02c      	b.n	22a4e <_ZN20complex_dynamic_type3app17h5bc4b2f9694a14f1E+0x9e>
   229f4:	9d03      	ldr	r5, [sp, #12]
   229f6:	a804      	add	r0, sp, #16
   229f8:	2104      	movs	r1, #4
   229fa:	7001      	strb	r1, [r0, #0]
   229fc:	4838      	ldr	r0, [pc, #224]	@ (22ae0 <_ZN20complex_dynamic_type3app17h5bc4b2f9694a14f1E+0x130>)
   229fe:	2100      	movs	r1, #0
   22a00:	232a      	movs	r3, #42	@ 0x2a
   22a02:	9c01      	ldr	r4, [sp, #4]
   22a04:	4622      	mov	r2, r4
   22a06:	df03      	svc	3
   22a08:	2802      	cmp	r0, #2
   22a0a:	d10e      	bne.n	22a2a <_ZN20complex_dynamic_type3app17h5bc4b2f9694a14f1E+0x7a>
   22a0c:	2001      	movs	r0, #1
   22a0e:	7028      	strb	r0, [r5, #0]
   22a10:	6069      	str	r1, [r5, #4]
   22a12:	a810      	add	r0, sp, #64	@ 0x40
   22a14:	7800      	ldrb	r0, [r0, #0]
   22a16:	2802      	cmp	r0, #2
   22a18:	d019      	beq.n	22a4e <_ZN20complex_dynamic_type3app17h5bc4b2f9694a14f1E+0x9e>
   22a1a:	2803      	cmp	r0, #3
   22a1c:	d012      	beq.n	22a44 <_ZN20complex_dynamic_type3app17h5bc4b2f9694a14f1E+0x94>
   22a1e:	4830      	ldr	r0, [pc, #192]	@ (22ae0 <_ZN20complex_dynamic_type3app17h5bc4b2f9694a14f1E+0x130>)
   22a20:	2100      	movs	r1, #0
   22a22:	460a      	mov	r2, r1
   22a24:	460b      	mov	r3, r1
   22a26:	df04      	svc	4
   22a28:	e011      	b.n	22a4e <_ZN20complex_dynamic_type3app17h5bc4b2f9694a14f1E+0x9e>
   22a2a:	a810      	add	r0, sp, #64	@ 0x40
   22a2c:	7006      	strb	r6, [r0, #0]
   22a2e:	482c      	ldr	r0, [pc, #176]	@ (22ae0 <_ZN20complex_dynamic_type3app17h5bc4b2f9694a14f1E+0x130>)
   22a30:	2200      	movs	r2, #0
   22a32:	4631      	mov	r1, r6
   22a34:	9202      	str	r2, [sp, #8]
   22a36:	4613      	mov	r3, r2
   22a38:	df02      	svc	2
   22a3a:	287f      	cmp	r0, #127	@ 0x7f
   22a3c:	d816      	bhi.n	22a6c <_ZN20complex_dynamic_type3app17h5bc4b2f9694a14f1E+0xbc>
   22a3e:	2001      	movs	r0, #1
   22a40:	7028      	strb	r0, [r5, #0]
   22a42:	6069      	str	r1, [r5, #4]
   22a44:	4826      	ldr	r0, [pc, #152]	@ (22ae0 <_ZN20complex_dynamic_type3app17h5bc4b2f9694a14f1E+0x130>)
   22a46:	2100      	movs	r1, #0
   22a48:	460a      	mov	r2, r1
   22a4a:	460b      	mov	r3, r1
   22a4c:	df03      	svc	3
   22a4e:	a804      	add	r0, sp, #16
   22a50:	7804      	ldrb	r4, [r0, #0]
   22a52:	2c02      	cmp	r4, #2
   22a54:	d008      	beq.n	22a68 <_ZN20complex_dynamic_type3app17h5bc4b2f9694a14f1E+0xb8>
   22a56:	4822      	ldr	r0, [pc, #136]	@ (22ae0 <_ZN20complex_dynamic_type3app17h5bc4b2f9694a14f1E+0x130>)
   22a58:	2103      	movs	r1, #3
   22a5a:	2200      	movs	r2, #0
   22a5c:	4613      	mov	r3, r2
   22a5e:	2c03      	cmp	r4, #3
   22a60:	d101      	bne.n	22a66 <_ZN20complex_dynamic_type3app17h5bc4b2f9694a14f1E+0xb6>
   22a62:	df03      	svc	3
   22a64:	e000      	b.n	22a68 <_ZN20complex_dynamic_type3app17h5bc4b2f9694a14f1E+0xb8>
   22a66:	df04      	svc	4
   22a68:	b01b      	add	sp, #108	@ 0x6c
   22a6a:	bdf0      	pop	{r4, r5, r6, r7, pc}
   22a6c:	a804      	add	r0, sp, #16
   22a6e:	7800      	ldrb	r0, [r0, #0]
   22a70:	2802      	cmp	r0, #2
   22a72:	d01d      	beq.n	22ab0 <_ZN20complex_dynamic_type3app17h5bc4b2f9694a14f1E+0x100>
   22a74:	2803      	cmp	r0, #3
   22a76:	d105      	bne.n	22a84 <_ZN20complex_dynamic_type3app17h5bc4b2f9694a14f1E+0xd4>
   22a78:	4819      	ldr	r0, [pc, #100]	@ (22ae0 <_ZN20complex_dynamic_type3app17h5bc4b2f9694a14f1E+0x130>)
   22a7a:	2103      	movs	r1, #3
   22a7c:	2200      	movs	r2, #0
   22a7e:	4613      	mov	r3, r2
   22a80:	df03      	svc	3
   22a82:	e004      	b.n	22a8e <_ZN20complex_dynamic_type3app17h5bc4b2f9694a14f1E+0xde>
   22a84:	4816      	ldr	r0, [pc, #88]	@ (22ae0 <_ZN20complex_dynamic_type3app17h5bc4b2f9694a14f1E+0x130>)
   22a86:	2103      	movs	r1, #3
   22a88:	2200      	movs	r2, #0
   22a8a:	4613      	mov	r3, r2
   22a8c:	df04      	svc	4
   22a8e:	9900      	ldr	r1, [sp, #0]
   22a90:	a804      	add	r0, sp, #16
   22a92:	7001      	strb	r1, [r0, #0]
   22a94:	a810      	add	r0, sp, #64	@ 0x40
   22a96:	7800      	ldrb	r0, [r0, #0]
   22a98:	2803      	cmp	r0, #3
   22a9a:	d009      	beq.n	22ab0 <_ZN20complex_dynamic_type3app17h5bc4b2f9694a14f1E+0x100>
   22a9c:	2802      	cmp	r0, #2
   22a9e:	d10e      	bne.n	22abe <_ZN20complex_dynamic_type3app17h5bc4b2f9694a14f1E+0x10e>
   22aa0:	1c68      	adds	r0, r5, #1
   22aa2:	222a      	movs	r2, #42	@ 0x2a
   22aa4:	4621      	mov	r1, r4
   22aa6:	f007 fd67 	bl	2a578 <__aeabi_memcpy>
   22aaa:	9802      	ldr	r0, [sp, #8]
   22aac:	7028      	strb	r0, [r5, #0]
   22aae:	e7db      	b.n	22a68 <_ZN20complex_dynamic_type3app17h5bc4b2f9694a14f1E+0xb8>
   22ab0:	4626      	mov	r6, r4
   22ab2:	480b      	ldr	r0, [pc, #44]	@ (22ae0 <_ZN20complex_dynamic_type3app17h5bc4b2f9694a14f1E+0x130>)
   22ab4:	2100      	movs	r1, #0
   22ab6:	460a      	mov	r2, r1
   22ab8:	460b      	mov	r3, r1
   22aba:	df03      	svc	3
   22abc:	e005      	b.n	22aca <_ZN20complex_dynamic_type3app17h5bc4b2f9694a14f1E+0x11a>
   22abe:	4626      	mov	r6, r4
   22ac0:	4807      	ldr	r0, [pc, #28]	@ (22ae0 <_ZN20complex_dynamic_type3app17h5bc4b2f9694a14f1E+0x130>)
   22ac2:	2100      	movs	r1, #0
   22ac4:	460a      	mov	r2, r1
   22ac6:	460b      	mov	r3, r1
   22ac8:	df04      	svc	4
   22aca:	a804      	add	r0, sp, #16
   22acc:	7804      	ldrb	r4, [r0, #0]
   22ace:	1c68      	adds	r0, r5, #1
   22ad0:	222a      	movs	r2, #42	@ 0x2a
   22ad2:	4631      	mov	r1, r6
   22ad4:	f007 fd50 	bl	2a578 <__aeabi_memcpy>
   22ad8:	9802      	ldr	r0, [sp, #8]
   22ada:	7028      	strb	r0, [r5, #0]
   22adc:	e7b9      	b.n	22a52 <_ZN20complex_dynamic_type3app17h5bc4b2f9694a14f1E+0xa2>
   22ade:	46c0      	nop			@ (mov r8, r8)
   22ae0:	000024f0 	.word	0x000024f0

00022ae4 <_ZN20complex_dynamic_type3app17h5f0a38fa6b7f6cd9E>:
   22ae4:	b5f0      	push	{r4, r5, r6, r7, lr}
   22ae6:	af03      	add	r7, sp, #12
   22ae8:	b09f      	sub	sp, #124	@ 0x7c
   22aea:	9004      	str	r0, [sp, #16]
   22aec:	a805      	add	r0, sp, #20
   22aee:	2402      	movs	r4, #2
   22af0:	7004      	strb	r4, [r0, #0]
   22af2:	1c46      	adds	r6, r0, #1
   22af4:	2211      	movs	r2, #17
   22af6:	9203      	str	r2, [sp, #12]
   22af8:	4630      	mov	r0, r6
   22afa:	f007 fd3d 	bl	2a578 <__aeabi_memcpy>
   22afe:	ad0a      	add	r5, sp, #40	@ 0x28
   22b00:	1c68      	adds	r0, r5, #1
   22b02:	2150      	movs	r1, #80	@ 0x50
   22b04:	9002      	str	r0, [sp, #8]
   22b06:	f007 fb77 	bl	2a1f8 <__aeabi_memclr>
   22b0a:	9401      	str	r4, [sp, #4]
   22b0c:	702c      	strb	r4, [r5, #0]
   22b0e:	483f      	ldr	r0, [pc, #252]	@ (22c0c <_ZN20complex_dynamic_type3app17h5f0a38fa6b7f6cd9E+0x128>)
   22b10:	2106      	movs	r1, #6
   22b12:	4632      	mov	r2, r6
   22b14:	9b03      	ldr	r3, [sp, #12]
   22b16:	df04      	svc	4
   22b18:	2802      	cmp	r0, #2
   22b1a:	d104      	bne.n	22b26 <_ZN20complex_dynamic_type3app17h5f0a38fa6b7f6cd9E+0x42>
   22b1c:	2001      	movs	r0, #1
   22b1e:	9a04      	ldr	r2, [sp, #16]
   22b20:	7010      	strb	r0, [r2, #0]
   22b22:	6051      	str	r1, [r2, #4]
   22b24:	e02d      	b.n	22b82 <_ZN20complex_dynamic_type3app17h5f0a38fa6b7f6cd9E+0x9e>
   22b26:	9d04      	ldr	r5, [sp, #16]
   22b28:	a805      	add	r0, sp, #20
   22b2a:	2104      	movs	r1, #4
   22b2c:	7001      	strb	r1, [r0, #0]
   22b2e:	4837      	ldr	r0, [pc, #220]	@ (22c0c <_ZN20complex_dynamic_type3app17h5f0a38fa6b7f6cd9E+0x128>)
   22b30:	2105      	movs	r1, #5
   22b32:	2350      	movs	r3, #80	@ 0x50
   22b34:	9c02      	ldr	r4, [sp, #8]
   22b36:	4622      	mov	r2, r4
   22b38:	df03      	svc	3
   22b3a:	2802      	cmp	r0, #2
   22b3c:	d10e      	bne.n	22b5c <_ZN20complex_dynamic_type3app17h5f0a38fa6b7f6cd9E+0x78>
   22b3e:	2001      	movs	r0, #1
   22b40:	7028      	strb	r0, [r5, #0]
   22b42:	6069      	str	r1, [r5, #4]
   22b44:	a80a      	add	r0, sp, #40	@ 0x28
   22b46:	7800      	ldrb	r0, [r0, #0]
   22b48:	2802      	cmp	r0, #2
   22b4a:	d01a      	beq.n	22b82 <_ZN20complex_dynamic_type3app17h5f0a38fa6b7f6cd9E+0x9e>
   22b4c:	2803      	cmp	r0, #3
   22b4e:	d013      	beq.n	22b78 <_ZN20complex_dynamic_type3app17h5f0a38fa6b7f6cd9E+0x94>
   22b50:	482e      	ldr	r0, [pc, #184]	@ (22c0c <_ZN20complex_dynamic_type3app17h5f0a38fa6b7f6cd9E+0x128>)
   22b52:	2105      	movs	r1, #5
   22b54:	2200      	movs	r2, #0
   22b56:	4613      	mov	r3, r2
   22b58:	df04      	svc	4
   22b5a:	e012      	b.n	22b82 <_ZN20complex_dynamic_type3app17h5f0a38fa6b7f6cd9E+0x9e>
   22b5c:	a80a      	add	r0, sp, #40	@ 0x28
   22b5e:	2103      	movs	r1, #3
   22b60:	7001      	strb	r1, [r0, #0]
   22b62:	482a      	ldr	r0, [pc, #168]	@ (22c0c <_ZN20complex_dynamic_type3app17h5f0a38fa6b7f6cd9E+0x128>)
   22b64:	2106      	movs	r1, #6
   22b66:	2205      	movs	r2, #5
   22b68:	2600      	movs	r6, #0
   22b6a:	4633      	mov	r3, r6
   22b6c:	df02      	svc	2
   22b6e:	287f      	cmp	r0, #127	@ 0x7f
   22b70:	d816      	bhi.n	22ba0 <_ZN20complex_dynamic_type3app17h5f0a38fa6b7f6cd9E+0xbc>
   22b72:	2001      	movs	r0, #1
   22b74:	7028      	strb	r0, [r5, #0]
   22b76:	6069      	str	r1, [r5, #4]
   22b78:	4824      	ldr	r0, [pc, #144]	@ (22c0c <_ZN20complex_dynamic_type3app17h5f0a38fa6b7f6cd9E+0x128>)
   22b7a:	2105      	movs	r1, #5
   22b7c:	2200      	movs	r2, #0
   22b7e:	4613      	mov	r3, r2
   22b80:	df03      	svc	3
   22b82:	a805      	add	r0, sp, #20
   22b84:	7804      	ldrb	r4, [r0, #0]
   22b86:	2c02      	cmp	r4, #2
   22b88:	d008      	beq.n	22b9c <_ZN20complex_dynamic_type3app17h5f0a38fa6b7f6cd9E+0xb8>
   22b8a:	4820      	ldr	r0, [pc, #128]	@ (22c0c <_ZN20complex_dynamic_type3app17h5f0a38fa6b7f6cd9E+0x128>)
   22b8c:	2106      	movs	r1, #6
   22b8e:	2200      	movs	r2, #0
   22b90:	4613      	mov	r3, r2
   22b92:	2c03      	cmp	r4, #3
   22b94:	d101      	bne.n	22b9a <_ZN20complex_dynamic_type3app17h5f0a38fa6b7f6cd9E+0xb6>
   22b96:	df03      	svc	3
   22b98:	e000      	b.n	22b9c <_ZN20complex_dynamic_type3app17h5f0a38fa6b7f6cd9E+0xb8>
   22b9a:	df04      	svc	4
   22b9c:	b01f      	add	sp, #124	@ 0x7c
   22b9e:	bdf0      	pop	{r4, r5, r6, r7, pc}
   22ba0:	a805      	add	r0, sp, #20
   22ba2:	7800      	ldrb	r0, [r0, #0]
   22ba4:	2802      	cmp	r0, #2
   22ba6:	d01c      	beq.n	22be2 <_ZN20complex_dynamic_type3app17h5f0a38fa6b7f6cd9E+0xfe>
   22ba8:	2803      	cmp	r0, #3
   22baa:	d105      	bne.n	22bb8 <_ZN20complex_dynamic_type3app17h5f0a38fa6b7f6cd9E+0xd4>
   22bac:	4817      	ldr	r0, [pc, #92]	@ (22c0c <_ZN20complex_dynamic_type3app17h5f0a38fa6b7f6cd9E+0x128>)
   22bae:	2106      	movs	r1, #6
   22bb0:	2200      	movs	r2, #0
   22bb2:	4613      	mov	r3, r2
   22bb4:	df03      	svc	3
   22bb6:	e004      	b.n	22bc2 <_ZN20complex_dynamic_type3app17h5f0a38fa6b7f6cd9E+0xde>
   22bb8:	4814      	ldr	r0, [pc, #80]	@ (22c0c <_ZN20complex_dynamic_type3app17h5f0a38fa6b7f6cd9E+0x128>)
   22bba:	2106      	movs	r1, #6
   22bbc:	2200      	movs	r2, #0
   22bbe:	4613      	mov	r3, r2
   22bc0:	df04      	svc	4
   22bc2:	a805      	add	r0, sp, #20
   22bc4:	9901      	ldr	r1, [sp, #4]
   22bc6:	7001      	strb	r1, [r0, #0]
   22bc8:	a80a      	add	r0, sp, #40	@ 0x28
   22bca:	7800      	ldrb	r0, [r0, #0]
   22bcc:	2803      	cmp	r0, #3
   22bce:	d008      	beq.n	22be2 <_ZN20complex_dynamic_type3app17h5f0a38fa6b7f6cd9E+0xfe>
   22bd0:	2802      	cmp	r0, #2
   22bd2:	d10c      	bne.n	22bee <_ZN20complex_dynamic_type3app17h5f0a38fa6b7f6cd9E+0x10a>
   22bd4:	1c68      	adds	r0, r5, #1
   22bd6:	2250      	movs	r2, #80	@ 0x50
   22bd8:	4621      	mov	r1, r4
   22bda:	f007 fccd 	bl	2a578 <__aeabi_memcpy>
   22bde:	702e      	strb	r6, [r5, #0]
   22be0:	e7dc      	b.n	22b9c <_ZN20complex_dynamic_type3app17h5f0a38fa6b7f6cd9E+0xb8>
   22be2:	480a      	ldr	r0, [pc, #40]	@ (22c0c <_ZN20complex_dynamic_type3app17h5f0a38fa6b7f6cd9E+0x128>)
   22be4:	2105      	movs	r1, #5
   22be6:	2200      	movs	r2, #0
   22be8:	4613      	mov	r3, r2
   22bea:	df03      	svc	3
   22bec:	e004      	b.n	22bf8 <_ZN20complex_dynamic_type3app17h5f0a38fa6b7f6cd9E+0x114>
   22bee:	4807      	ldr	r0, [pc, #28]	@ (22c0c <_ZN20complex_dynamic_type3app17h5f0a38fa6b7f6cd9E+0x128>)
   22bf0:	2105      	movs	r1, #5
   22bf2:	2200      	movs	r2, #0
   22bf4:	4613      	mov	r3, r2
   22bf6:	df04      	svc	4
   22bf8:	a805      	add	r0, sp, #20
   22bfa:	7804      	ldrb	r4, [r0, #0]
   22bfc:	1c68      	adds	r0, r5, #1
   22bfe:	2250      	movs	r2, #80	@ 0x50
   22c00:	9902      	ldr	r1, [sp, #8]
   22c02:	f007 fcb9 	bl	2a578 <__aeabi_memcpy>
   22c06:	702e      	strb	r6, [r5, #0]
   22c08:	e7bd      	b.n	22b86 <_ZN20complex_dynamic_type3app17h5f0a38fa6b7f6cd9E+0xa2>
   22c0a:	46c0      	nop			@ (mov r8, r8)
   22c0c:	00001aa9 	.word	0x00001aa9

00022c10 <_ZN20complex_dynamic_type3app17h623b7ad43a86e778E>:
   22c10:	b5f0      	push	{r4, r5, r6, r7, lr}
   22c12:	af03      	add	r7, sp, #12
   22c14:	b099      	sub	sp, #100	@ 0x64
   22c16:	9003      	str	r0, [sp, #12]
   22c18:	a804      	add	r0, sp, #16
   22c1a:	2402      	movs	r4, #2
   22c1c:	7004      	strb	r4, [r0, #0]
   22c1e:	1c46      	adds	r6, r0, #1
   22c20:	2218      	movs	r2, #24
   22c22:	9202      	str	r2, [sp, #8]
   22c24:	4630      	mov	r0, r6
   22c26:	f007 fca7 	bl	2a578 <__aeabi_memcpy>
   22c2a:	ad0b      	add	r5, sp, #44	@ 0x2c
   22c2c:	1c68      	adds	r0, r5, #1
   22c2e:	2136      	movs	r1, #54	@ 0x36
   22c30:	9001      	str	r0, [sp, #4]
   22c32:	f007 fae1 	bl	2a1f8 <__aeabi_memclr>
   22c36:	9400      	str	r4, [sp, #0]
   22c38:	702c      	strb	r4, [r5, #0]
   22c3a:	20f3      	movs	r0, #243	@ 0xf3
   22c3c:	2108      	movs	r1, #8
   22c3e:	4632      	mov	r2, r6
   22c40:	9b02      	ldr	r3, [sp, #8]
   22c42:	df04      	svc	4
   22c44:	2802      	cmp	r0, #2
   22c46:	d104      	bne.n	22c52 <_ZN20complex_dynamic_type3app17h623b7ad43a86e778E+0x42>
   22c48:	2001      	movs	r0, #1
   22c4a:	9a03      	ldr	r2, [sp, #12]
   22c4c:	7010      	strb	r0, [r2, #0]
   22c4e:	6051      	str	r1, [r2, #4]
   22c50:	e02c      	b.n	22cac <_ZN20complex_dynamic_type3app17h623b7ad43a86e778E+0x9c>
   22c52:	9d03      	ldr	r5, [sp, #12]
   22c54:	a804      	add	r0, sp, #16
   22c56:	2104      	movs	r1, #4
   22c58:	7001      	strb	r1, [r0, #0]
   22c5a:	20f3      	movs	r0, #243	@ 0xf3
   22c5c:	2336      	movs	r3, #54	@ 0x36
   22c5e:	9c01      	ldr	r4, [sp, #4]
   22c60:	4622      	mov	r2, r4
   22c62:	df03      	svc	3
   22c64:	2802      	cmp	r0, #2
   22c66:	d10e      	bne.n	22c86 <_ZN20complex_dynamic_type3app17h623b7ad43a86e778E+0x76>
   22c68:	2001      	movs	r0, #1
   22c6a:	7028      	strb	r0, [r5, #0]
   22c6c:	6069      	str	r1, [r5, #4]
   22c6e:	a80b      	add	r0, sp, #44	@ 0x2c
   22c70:	7800      	ldrb	r0, [r0, #0]
   22c72:	2802      	cmp	r0, #2
   22c74:	d01a      	beq.n	22cac <_ZN20complex_dynamic_type3app17h623b7ad43a86e778E+0x9c>
   22c76:	2803      	cmp	r0, #3
   22c78:	d013      	beq.n	22ca2 <_ZN20complex_dynamic_type3app17h623b7ad43a86e778E+0x92>
   22c7a:	20f3      	movs	r0, #243	@ 0xf3
   22c7c:	2104      	movs	r1, #4
   22c7e:	2200      	movs	r2, #0
   22c80:	4613      	mov	r3, r2
   22c82:	df04      	svc	4
   22c84:	e012      	b.n	22cac <_ZN20complex_dynamic_type3app17h623b7ad43a86e778E+0x9c>
   22c86:	a80b      	add	r0, sp, #44	@ 0x2c
   22c88:	2103      	movs	r1, #3
   22c8a:	7001      	strb	r1, [r0, #0]
   22c8c:	20f3      	movs	r0, #243	@ 0xf3
   22c8e:	2108      	movs	r1, #8
   22c90:	2204      	movs	r2, #4
   22c92:	2600      	movs	r6, #0
   22c94:	4633      	mov	r3, r6
   22c96:	df02      	svc	2
   22c98:	287f      	cmp	r0, #127	@ 0x7f
   22c9a:	d816      	bhi.n	22cca <_ZN20complex_dynamic_type3app17h623b7ad43a86e778E+0xba>
   22c9c:	2001      	movs	r0, #1
   22c9e:	7028      	strb	r0, [r5, #0]
   22ca0:	6069      	str	r1, [r5, #4]
   22ca2:	20f3      	movs	r0, #243	@ 0xf3
   22ca4:	2104      	movs	r1, #4
   22ca6:	2200      	movs	r2, #0
   22ca8:	4613      	mov	r3, r2
   22caa:	df03      	svc	3
   22cac:	a804      	add	r0, sp, #16
   22cae:	7804      	ldrb	r4, [r0, #0]
   22cb0:	2c02      	cmp	r4, #2
   22cb2:	d008      	beq.n	22cc6 <_ZN20complex_dynamic_type3app17h623b7ad43a86e778E+0xb6>
   22cb4:	20f3      	movs	r0, #243	@ 0xf3
   22cb6:	2108      	movs	r1, #8
   22cb8:	2200      	movs	r2, #0
   22cba:	4613      	mov	r3, r2
   22cbc:	2c03      	cmp	r4, #3
   22cbe:	d101      	bne.n	22cc4 <_ZN20complex_dynamic_type3app17h623b7ad43a86e778E+0xb4>
   22cc0:	df03      	svc	3
   22cc2:	e000      	b.n	22cc6 <_ZN20complex_dynamic_type3app17h623b7ad43a86e778E+0xb6>
   22cc4:	df04      	svc	4
   22cc6:	b019      	add	sp, #100	@ 0x64
   22cc8:	bdf0      	pop	{r4, r5, r6, r7, pc}
   22cca:	a804      	add	r0, sp, #16
   22ccc:	7800      	ldrb	r0, [r0, #0]
   22cce:	2802      	cmp	r0, #2
   22cd0:	d01c      	beq.n	22d0c <_ZN20complex_dynamic_type3app17h623b7ad43a86e778E+0xfc>
   22cd2:	2803      	cmp	r0, #3
   22cd4:	d105      	bne.n	22ce2 <_ZN20complex_dynamic_type3app17h623b7ad43a86e778E+0xd2>
   22cd6:	20f3      	movs	r0, #243	@ 0xf3
   22cd8:	2108      	movs	r1, #8
   22cda:	2200      	movs	r2, #0
   22cdc:	4613      	mov	r3, r2
   22cde:	df03      	svc	3
   22ce0:	e004      	b.n	22cec <_ZN20complex_dynamic_type3app17h623b7ad43a86e778E+0xdc>
   22ce2:	20f3      	movs	r0, #243	@ 0xf3
   22ce4:	2108      	movs	r1, #8
   22ce6:	2200      	movs	r2, #0
   22ce8:	4613      	mov	r3, r2
   22cea:	df04      	svc	4
   22cec:	a804      	add	r0, sp, #16
   22cee:	9900      	ldr	r1, [sp, #0]
   22cf0:	7001      	strb	r1, [r0, #0]
   22cf2:	a80b      	add	r0, sp, #44	@ 0x2c
   22cf4:	7800      	ldrb	r0, [r0, #0]
   22cf6:	2803      	cmp	r0, #3
   22cf8:	d008      	beq.n	22d0c <_ZN20complex_dynamic_type3app17h623b7ad43a86e778E+0xfc>
   22cfa:	2802      	cmp	r0, #2
   22cfc:	d10c      	bne.n	22d18 <_ZN20complex_dynamic_type3app17h623b7ad43a86e778E+0x108>
   22cfe:	1c68      	adds	r0, r5, #1
   22d00:	2236      	movs	r2, #54	@ 0x36
   22d02:	4621      	mov	r1, r4
   22d04:	f007 fc38 	bl	2a578 <__aeabi_memcpy>
   22d08:	702e      	strb	r6, [r5, #0]
   22d0a:	e7dc      	b.n	22cc6 <_ZN20complex_dynamic_type3app17h623b7ad43a86e778E+0xb6>
   22d0c:	20f3      	movs	r0, #243	@ 0xf3
   22d0e:	2104      	movs	r1, #4
   22d10:	2200      	movs	r2, #0
   22d12:	4613      	mov	r3, r2
   22d14:	df03      	svc	3
   22d16:	e004      	b.n	22d22 <_ZN20complex_dynamic_type3app17h623b7ad43a86e778E+0x112>
   22d18:	20f3      	movs	r0, #243	@ 0xf3
   22d1a:	2104      	movs	r1, #4
   22d1c:	2200      	movs	r2, #0
   22d1e:	4613      	mov	r3, r2
   22d20:	df04      	svc	4
   22d22:	a804      	add	r0, sp, #16
   22d24:	7804      	ldrb	r4, [r0, #0]
   22d26:	1c68      	adds	r0, r5, #1
   22d28:	2236      	movs	r2, #54	@ 0x36
   22d2a:	9901      	ldr	r1, [sp, #4]
   22d2c:	f007 fc24 	bl	2a578 <__aeabi_memcpy>
   22d30:	702e      	strb	r6, [r5, #0]
   22d32:	e7bd      	b.n	22cb0 <_ZN20complex_dynamic_type3app17h623b7ad43a86e778E+0xa0>

00022d34 <_ZN20complex_dynamic_type3app17h649ef70e4408e39fE>:
   22d34:	b5f0      	push	{r4, r5, r6, r7, lr}
   22d36:	af03      	add	r7, sp, #12
   22d38:	b091      	sub	sp, #68	@ 0x44
   22d3a:	9002      	str	r0, [sp, #8]
   22d3c:	a803      	add	r0, sp, #12
   22d3e:	2502      	movs	r5, #2
   22d40:	7005      	strb	r5, [r0, #0]
   22d42:	1c46      	adds	r6, r0, #1
   22d44:	221a      	movs	r2, #26
   22d46:	9201      	str	r2, [sp, #4]
   22d48:	4630      	mov	r0, r6
   22d4a:	f007 fc15 	bl	2a578 <__aeabi_memcpy>
   22d4e:	ac0a      	add	r4, sp, #40	@ 0x28
   22d50:	1c60      	adds	r0, r4, #1
   22d52:	211b      	movs	r1, #27
   22d54:	9000      	str	r0, [sp, #0]
   22d56:	f007 fa4f 	bl	2a1f8 <__aeabi_memclr>
   22d5a:	7025      	strb	r5, [r4, #0]
   22d5c:	4841      	ldr	r0, [pc, #260]	@ (22e64 <_ZN20complex_dynamic_type3app17h649ef70e4408e39fE+0x130>)
   22d5e:	2105      	movs	r1, #5
   22d60:	4632      	mov	r2, r6
   22d62:	9b01      	ldr	r3, [sp, #4]
   22d64:	df04      	svc	4
   22d66:	2802      	cmp	r0, #2
   22d68:	d104      	bne.n	22d74 <_ZN20complex_dynamic_type3app17h649ef70e4408e39fE+0x40>
   22d6a:	2001      	movs	r0, #1
   22d6c:	9a02      	ldr	r2, [sp, #8]
   22d6e:	7010      	strb	r0, [r2, #0]
   22d70:	6051      	str	r1, [r2, #4]
   22d72:	e02e      	b.n	22dd2 <_ZN20complex_dynamic_type3app17h649ef70e4408e39fE+0x9e>
   22d74:	9c02      	ldr	r4, [sp, #8]
   22d76:	a803      	add	r0, sp, #12
   22d78:	2104      	movs	r1, #4
   22d7a:	7001      	strb	r1, [r0, #0]
   22d7c:	4839      	ldr	r0, [pc, #228]	@ (22e64 <_ZN20complex_dynamic_type3app17h649ef70e4408e39fE+0x130>)
   22d7e:	2102      	movs	r1, #2
   22d80:	231b      	movs	r3, #27
   22d82:	9d00      	ldr	r5, [sp, #0]
   22d84:	462a      	mov	r2, r5
   22d86:	df03      	svc	3
   22d88:	2802      	cmp	r0, #2
   22d8a:	d10e      	bne.n	22daa <_ZN20complex_dynamic_type3app17h649ef70e4408e39fE+0x76>
   22d8c:	2001      	movs	r0, #1
   22d8e:	7020      	strb	r0, [r4, #0]
   22d90:	6061      	str	r1, [r4, #4]
   22d92:	a80a      	add	r0, sp, #40	@ 0x28
   22d94:	7800      	ldrb	r0, [r0, #0]
   22d96:	2802      	cmp	r0, #2
   22d98:	d01b      	beq.n	22dd2 <_ZN20complex_dynamic_type3app17h649ef70e4408e39fE+0x9e>
   22d9a:	2803      	cmp	r0, #3
   22d9c:	d014      	beq.n	22dc8 <_ZN20complex_dynamic_type3app17h649ef70e4408e39fE+0x94>
   22d9e:	4831      	ldr	r0, [pc, #196]	@ (22e64 <_ZN20complex_dynamic_type3app17h649ef70e4408e39fE+0x130>)
   22da0:	2102      	movs	r1, #2
   22da2:	2200      	movs	r2, #0
   22da4:	4613      	mov	r3, r2
   22da6:	df04      	svc	4
   22da8:	e013      	b.n	22dd2 <_ZN20complex_dynamic_type3app17h649ef70e4408e39fE+0x9e>
   22daa:	a80a      	add	r0, sp, #40	@ 0x28
   22dac:	2103      	movs	r1, #3
   22dae:	7001      	strb	r1, [r0, #0]
   22db0:	482c      	ldr	r0, [pc, #176]	@ (22e64 <_ZN20complex_dynamic_type3app17h649ef70e4408e39fE+0x130>)
   22db2:	2105      	movs	r1, #5
   22db4:	2602      	movs	r6, #2
   22db6:	2300      	movs	r3, #0
   22db8:	4632      	mov	r2, r6
   22dba:	9301      	str	r3, [sp, #4]
   22dbc:	df02      	svc	2
   22dbe:	287f      	cmp	r0, #127	@ 0x7f
   22dc0:	d816      	bhi.n	22df0 <_ZN20complex_dynamic_type3app17h649ef70e4408e39fE+0xbc>
   22dc2:	2001      	movs	r0, #1
   22dc4:	7020      	strb	r0, [r4, #0]
   22dc6:	6061      	str	r1, [r4, #4]
   22dc8:	4826      	ldr	r0, [pc, #152]	@ (22e64 <_ZN20complex_dynamic_type3app17h649ef70e4408e39fE+0x130>)
   22dca:	2102      	movs	r1, #2
   22dcc:	2200      	movs	r2, #0
   22dce:	4613      	mov	r3, r2
   22dd0:	df03      	svc	3
   22dd2:	a803      	add	r0, sp, #12
   22dd4:	7804      	ldrb	r4, [r0, #0]
   22dd6:	2c02      	cmp	r4, #2
   22dd8:	d008      	beq.n	22dec <_ZN20complex_dynamic_type3app17h649ef70e4408e39fE+0xb8>
   22dda:	4822      	ldr	r0, [pc, #136]	@ (22e64 <_ZN20complex_dynamic_type3app17h649ef70e4408e39fE+0x130>)
   22ddc:	2105      	movs	r1, #5
   22dde:	2200      	movs	r2, #0
   22de0:	4613      	mov	r3, r2
   22de2:	2c03      	cmp	r4, #3
   22de4:	d101      	bne.n	22dea <_ZN20complex_dynamic_type3app17h649ef70e4408e39fE+0xb6>
   22de6:	df03      	svc	3
   22de8:	e000      	b.n	22dec <_ZN20complex_dynamic_type3app17h649ef70e4408e39fE+0xb8>
   22dea:	df04      	svc	4
   22dec:	b011      	add	sp, #68	@ 0x44
   22dee:	bdf0      	pop	{r4, r5, r6, r7, pc}
   22df0:	a803      	add	r0, sp, #12
   22df2:	7800      	ldrb	r0, [r0, #0]
   22df4:	2802      	cmp	r0, #2
   22df6:	d01c      	beq.n	22e32 <_ZN20complex_dynamic_type3app17h649ef70e4408e39fE+0xfe>
   22df8:	2803      	cmp	r0, #3
   22dfa:	d105      	bne.n	22e08 <_ZN20complex_dynamic_type3app17h649ef70e4408e39fE+0xd4>
   22dfc:	4819      	ldr	r0, [pc, #100]	@ (22e64 <_ZN20complex_dynamic_type3app17h649ef70e4408e39fE+0x130>)
   22dfe:	2105      	movs	r1, #5
   22e00:	2200      	movs	r2, #0
   22e02:	4613      	mov	r3, r2
   22e04:	df03      	svc	3
   22e06:	e004      	b.n	22e12 <_ZN20complex_dynamic_type3app17h649ef70e4408e39fE+0xde>
   22e08:	4816      	ldr	r0, [pc, #88]	@ (22e64 <_ZN20complex_dynamic_type3app17h649ef70e4408e39fE+0x130>)
   22e0a:	2105      	movs	r1, #5
   22e0c:	2200      	movs	r2, #0
   22e0e:	4613      	mov	r3, r2
   22e10:	df04      	svc	4
   22e12:	a803      	add	r0, sp, #12
   22e14:	7006      	strb	r6, [r0, #0]
   22e16:	a80a      	add	r0, sp, #40	@ 0x28
   22e18:	7800      	ldrb	r0, [r0, #0]
   22e1a:	2803      	cmp	r0, #3
   22e1c:	d009      	beq.n	22e32 <_ZN20complex_dynamic_type3app17h649ef70e4408e39fE+0xfe>
   22e1e:	2802      	cmp	r0, #2
   22e20:	d10e      	bne.n	22e40 <_ZN20complex_dynamic_type3app17h649ef70e4408e39fE+0x10c>
   22e22:	1c60      	adds	r0, r4, #1
   22e24:	221b      	movs	r2, #27
   22e26:	4629      	mov	r1, r5
   22e28:	f007 fba6 	bl	2a578 <__aeabi_memcpy>
   22e2c:	9801      	ldr	r0, [sp, #4]
   22e2e:	7020      	strb	r0, [r4, #0]
   22e30:	e7dc      	b.n	22dec <_ZN20complex_dynamic_type3app17h649ef70e4408e39fE+0xb8>
   22e32:	462e      	mov	r6, r5
   22e34:	480b      	ldr	r0, [pc, #44]	@ (22e64 <_ZN20complex_dynamic_type3app17h649ef70e4408e39fE+0x130>)
   22e36:	2102      	movs	r1, #2
   22e38:	2200      	movs	r2, #0
   22e3a:	4613      	mov	r3, r2
   22e3c:	df03      	svc	3
   22e3e:	e005      	b.n	22e4c <_ZN20complex_dynamic_type3app17h649ef70e4408e39fE+0x118>
   22e40:	462e      	mov	r6, r5
   22e42:	4808      	ldr	r0, [pc, #32]	@ (22e64 <_ZN20complex_dynamic_type3app17h649ef70e4408e39fE+0x130>)
   22e44:	2102      	movs	r1, #2
   22e46:	2200      	movs	r2, #0
   22e48:	4613      	mov	r3, r2
   22e4a:	df04      	svc	4
   22e4c:	4625      	mov	r5, r4
   22e4e:	a803      	add	r0, sp, #12
   22e50:	7804      	ldrb	r4, [r0, #0]
   22e52:	1c68      	adds	r0, r5, #1
   22e54:	221b      	movs	r2, #27
   22e56:	4631      	mov	r1, r6
   22e58:	f007 fb8e 	bl	2a578 <__aeabi_memcpy>
   22e5c:	9801      	ldr	r0, [sp, #4]
   22e5e:	7028      	strb	r0, [r5, #0]
   22e60:	e7b9      	b.n	22dd6 <_ZN20complex_dynamic_type3app17h649ef70e4408e39fE+0xa2>
   22e62:	46c0      	nop			@ (mov r8, r8)
   22e64:	00001cce 	.word	0x00001cce

00022e68 <_ZN20complex_dynamic_type3app17h69bbe10d882bdbe1E>:
   22e68:	b5f0      	push	{r4, r5, r6, r7, lr}
   22e6a:	af03      	add	r7, sp, #12
   22e6c:	b09d      	sub	sp, #116	@ 0x74
   22e6e:	9003      	str	r0, [sp, #12]
   22e70:	a804      	add	r0, sp, #16
   22e72:	2402      	movs	r4, #2
   22e74:	7004      	strb	r4, [r0, #0]
   22e76:	1c46      	adds	r6, r0, #1
   22e78:	223b      	movs	r2, #59	@ 0x3b
   22e7a:	9202      	str	r2, [sp, #8]
   22e7c:	4630      	mov	r0, r6
   22e7e:	f007 fb7b 	bl	2a578 <__aeabi_memcpy>
   22e82:	ad13      	add	r5, sp, #76	@ 0x4c
   22e84:	1c68      	adds	r0, r5, #1
   22e86:	2127      	movs	r1, #39	@ 0x27
   22e88:	9001      	str	r0, [sp, #4]
   22e8a:	f007 f9b5 	bl	2a1f8 <__aeabi_memclr>
   22e8e:	9400      	str	r4, [sp, #0]
   22e90:	702c      	strb	r4, [r5, #0]
   22e92:	483e      	ldr	r0, [pc, #248]	@ (22f8c <_ZN20complex_dynamic_type3app17h69bbe10d882bdbe1E+0x124>)
   22e94:	2105      	movs	r1, #5
   22e96:	4632      	mov	r2, r6
   22e98:	9b02      	ldr	r3, [sp, #8]
   22e9a:	df04      	svc	4
   22e9c:	2802      	cmp	r0, #2
   22e9e:	d104      	bne.n	22eaa <_ZN20complex_dynamic_type3app17h69bbe10d882bdbe1E+0x42>
   22ea0:	2001      	movs	r0, #1
   22ea2:	9a03      	ldr	r2, [sp, #12]
   22ea4:	7010      	strb	r0, [r2, #0]
   22ea6:	6051      	str	r1, [r2, #4]
   22ea8:	e02c      	b.n	22f04 <_ZN20complex_dynamic_type3app17h69bbe10d882bdbe1E+0x9c>
   22eaa:	9d03      	ldr	r5, [sp, #12]
   22eac:	a804      	add	r0, sp, #16
   22eae:	2104      	movs	r1, #4
   22eb0:	7001      	strb	r1, [r0, #0]
   22eb2:	4836      	ldr	r0, [pc, #216]	@ (22f8c <_ZN20complex_dynamic_type3app17h69bbe10d882bdbe1E+0x124>)
   22eb4:	2403      	movs	r4, #3
   22eb6:	2327      	movs	r3, #39	@ 0x27
   22eb8:	4621      	mov	r1, r4
   22eba:	9a01      	ldr	r2, [sp, #4]
   22ebc:	df03      	svc	3
   22ebe:	2802      	cmp	r0, #2
   22ec0:	d10e      	bne.n	22ee0 <_ZN20complex_dynamic_type3app17h69bbe10d882bdbe1E+0x78>
   22ec2:	2001      	movs	r0, #1
   22ec4:	7028      	strb	r0, [r5, #0]
   22ec6:	6069      	str	r1, [r5, #4]
   22ec8:	a813      	add	r0, sp, #76	@ 0x4c
   22eca:	7800      	ldrb	r0, [r0, #0]
   22ecc:	2802      	cmp	r0, #2
   22ece:	d019      	beq.n	22f04 <_ZN20complex_dynamic_type3app17h69bbe10d882bdbe1E+0x9c>
   22ed0:	2803      	cmp	r0, #3
   22ed2:	d012      	beq.n	22efa <_ZN20complex_dynamic_type3app17h69bbe10d882bdbe1E+0x92>
   22ed4:	482d      	ldr	r0, [pc, #180]	@ (22f8c <_ZN20complex_dynamic_type3app17h69bbe10d882bdbe1E+0x124>)
   22ed6:	2103      	movs	r1, #3
   22ed8:	2200      	movs	r2, #0
   22eda:	4613      	mov	r3, r2
   22edc:	df04      	svc	4
   22ede:	e011      	b.n	22f04 <_ZN20complex_dynamic_type3app17h69bbe10d882bdbe1E+0x9c>
   22ee0:	a813      	add	r0, sp, #76	@ 0x4c
   22ee2:	7004      	strb	r4, [r0, #0]
   22ee4:	4829      	ldr	r0, [pc, #164]	@ (22f8c <_ZN20complex_dynamic_type3app17h69bbe10d882bdbe1E+0x124>)
   22ee6:	2105      	movs	r1, #5
   22ee8:	2600      	movs	r6, #0
   22eea:	4622      	mov	r2, r4
   22eec:	4633      	mov	r3, r6
   22eee:	df02      	svc	2
   22ef0:	287f      	cmp	r0, #127	@ 0x7f
   22ef2:	d816      	bhi.n	22f22 <_ZN20complex_dynamic_type3app17h69bbe10d882bdbe1E+0xba>
   22ef4:	2001      	movs	r0, #1
   22ef6:	7028      	strb	r0, [r5, #0]
   22ef8:	6069      	str	r1, [r5, #4]
   22efa:	4824      	ldr	r0, [pc, #144]	@ (22f8c <_ZN20complex_dynamic_type3app17h69bbe10d882bdbe1E+0x124>)
   22efc:	2103      	movs	r1, #3
   22efe:	2200      	movs	r2, #0
   22f00:	4613      	mov	r3, r2
   22f02:	df03      	svc	3
   22f04:	a804      	add	r0, sp, #16
   22f06:	7804      	ldrb	r4, [r0, #0]
   22f08:	2c02      	cmp	r4, #2
   22f0a:	d008      	beq.n	22f1e <_ZN20complex_dynamic_type3app17h69bbe10d882bdbe1E+0xb6>
   22f0c:	481f      	ldr	r0, [pc, #124]	@ (22f8c <_ZN20complex_dynamic_type3app17h69bbe10d882bdbe1E+0x124>)
   22f0e:	2105      	movs	r1, #5
   22f10:	2200      	movs	r2, #0
   22f12:	4613      	mov	r3, r2
   22f14:	2c03      	cmp	r4, #3
   22f16:	d101      	bne.n	22f1c <_ZN20complex_dynamic_type3app17h69bbe10d882bdbe1E+0xb4>
   22f18:	df03      	svc	3
   22f1a:	e000      	b.n	22f1e <_ZN20complex_dynamic_type3app17h69bbe10d882bdbe1E+0xb6>
   22f1c:	df04      	svc	4
   22f1e:	b01d      	add	sp, #116	@ 0x74
   22f20:	bdf0      	pop	{r4, r5, r6, r7, pc}
   22f22:	a804      	add	r0, sp, #16
   22f24:	7800      	ldrb	r0, [r0, #0]
   22f26:	2802      	cmp	r0, #2
   22f28:	d01c      	beq.n	22f64 <_ZN20complex_dynamic_type3app17h69bbe10d882bdbe1E+0xfc>
   22f2a:	2803      	cmp	r0, #3
   22f2c:	d105      	bne.n	22f3a <_ZN20complex_dynamic_type3app17h69bbe10d882bdbe1E+0xd2>
   22f2e:	4817      	ldr	r0, [pc, #92]	@ (22f8c <_ZN20complex_dynamic_type3app17h69bbe10d882bdbe1E+0x124>)
   22f30:	2105      	movs	r1, #5
   22f32:	2200      	movs	r2, #0
   22f34:	4613      	mov	r3, r2
   22f36:	df03      	svc	3
   22f38:	e004      	b.n	22f44 <_ZN20complex_dynamic_type3app17h69bbe10d882bdbe1E+0xdc>
   22f3a:	4814      	ldr	r0, [pc, #80]	@ (22f8c <_ZN20complex_dynamic_type3app17h69bbe10d882bdbe1E+0x124>)
   22f3c:	2105      	movs	r1, #5
   22f3e:	2200      	movs	r2, #0
   22f40:	4613      	mov	r3, r2
   22f42:	df04      	svc	4
   22f44:	9900      	ldr	r1, [sp, #0]
   22f46:	a804      	add	r0, sp, #16
   22f48:	7001      	strb	r1, [r0, #0]
   22f4a:	a813      	add	r0, sp, #76	@ 0x4c
   22f4c:	7800      	ldrb	r0, [r0, #0]
   22f4e:	2803      	cmp	r0, #3
   22f50:	d008      	beq.n	22f64 <_ZN20complex_dynamic_type3app17h69bbe10d882bdbe1E+0xfc>
   22f52:	2802      	cmp	r0, #2
   22f54:	d10c      	bne.n	22f70 <_ZN20complex_dynamic_type3app17h69bbe10d882bdbe1E+0x108>
   22f56:	1c68      	adds	r0, r5, #1
   22f58:	2227      	movs	r2, #39	@ 0x27
   22f5a:	9901      	ldr	r1, [sp, #4]
   22f5c:	f007 fb0c 	bl	2a578 <__aeabi_memcpy>
   22f60:	702e      	strb	r6, [r5, #0]
   22f62:	e7dc      	b.n	22f1e <_ZN20complex_dynamic_type3app17h69bbe10d882bdbe1E+0xb6>
   22f64:	4809      	ldr	r0, [pc, #36]	@ (22f8c <_ZN20complex_dynamic_type3app17h69bbe10d882bdbe1E+0x124>)
   22f66:	2103      	movs	r1, #3
   22f68:	2200      	movs	r2, #0
   22f6a:	4613      	mov	r3, r2
   22f6c:	df03      	svc	3
   22f6e:	e004      	b.n	22f7a <_ZN20complex_dynamic_type3app17h69bbe10d882bdbe1E+0x112>
   22f70:	4806      	ldr	r0, [pc, #24]	@ (22f8c <_ZN20complex_dynamic_type3app17h69bbe10d882bdbe1E+0x124>)
   22f72:	2103      	movs	r1, #3
   22f74:	2200      	movs	r2, #0
   22f76:	4613      	mov	r3, r2
   22f78:	df04      	svc	4
   22f7a:	a804      	add	r0, sp, #16
   22f7c:	7804      	ldrb	r4, [r0, #0]
   22f7e:	1c68      	adds	r0, r5, #1
   22f80:	2227      	movs	r2, #39	@ 0x27
   22f82:	9901      	ldr	r1, [sp, #4]
   22f84:	f007 faf8 	bl	2a578 <__aeabi_memcpy>
   22f88:	702e      	strb	r6, [r5, #0]
   22f8a:	e7bd      	b.n	22f08 <_ZN20complex_dynamic_type3app17h69bbe10d882bdbe1E+0xa0>
   22f8c:	00000bd3 	.word	0x00000bd3

00022f90 <_ZN20complex_dynamic_type3app17h6ded9dc40c67fd0fE>:
   22f90:	b5f0      	push	{r4, r5, r6, r7, lr}
   22f92:	af03      	add	r7, sp, #12
   22f94:	b099      	sub	sp, #100	@ 0x64
   22f96:	9002      	str	r0, [sp, #8]
   22f98:	a803      	add	r0, sp, #12
   22f9a:	2502      	movs	r5, #2
   22f9c:	7005      	strb	r5, [r0, #0]
   22f9e:	1c46      	adds	r6, r0, #1
   22fa0:	220f      	movs	r2, #15
   22fa2:	9201      	str	r2, [sp, #4]
   22fa4:	4630      	mov	r0, r6
   22fa6:	f007 fae7 	bl	2a578 <__aeabi_memcpy>
   22faa:	ac07      	add	r4, sp, #28
   22fac:	1c60      	adds	r0, r4, #1
   22fae:	2146      	movs	r1, #70	@ 0x46
   22fb0:	9000      	str	r0, [sp, #0]
   22fb2:	f007 f921 	bl	2a1f8 <__aeabi_memclr>
   22fb6:	7025      	strb	r5, [r4, #0]
   22fb8:	4841      	ldr	r0, [pc, #260]	@ (230c0 <_ZN20complex_dynamic_type3app17h6ded9dc40c67fd0fE+0x130>)
   22fba:	2109      	movs	r1, #9
   22fbc:	4632      	mov	r2, r6
   22fbe:	9b01      	ldr	r3, [sp, #4]
   22fc0:	df04      	svc	4
   22fc2:	2802      	cmp	r0, #2
   22fc4:	d104      	bne.n	22fd0 <_ZN20complex_dynamic_type3app17h6ded9dc40c67fd0fE+0x40>
   22fc6:	2001      	movs	r0, #1
   22fc8:	9a02      	ldr	r2, [sp, #8]
   22fca:	7010      	strb	r0, [r2, #0]
   22fcc:	6051      	str	r1, [r2, #4]
   22fce:	e02e      	b.n	2302e <_ZN20complex_dynamic_type3app17h6ded9dc40c67fd0fE+0x9e>
   22fd0:	9c02      	ldr	r4, [sp, #8]
   22fd2:	a803      	add	r0, sp, #12
   22fd4:	2104      	movs	r1, #4
   22fd6:	7001      	strb	r1, [r0, #0]
   22fd8:	4839      	ldr	r0, [pc, #228]	@ (230c0 <_ZN20complex_dynamic_type3app17h6ded9dc40c67fd0fE+0x130>)
   22fda:	2102      	movs	r1, #2
   22fdc:	2346      	movs	r3, #70	@ 0x46
   22fde:	9d00      	ldr	r5, [sp, #0]
   22fe0:	462a      	mov	r2, r5
   22fe2:	df03      	svc	3
   22fe4:	2802      	cmp	r0, #2
   22fe6:	d10e      	bne.n	23006 <_ZN20complex_dynamic_type3app17h6ded9dc40c67fd0fE+0x76>
   22fe8:	2001      	movs	r0, #1
   22fea:	7020      	strb	r0, [r4, #0]
   22fec:	6061      	str	r1, [r4, #4]
   22fee:	a807      	add	r0, sp, #28
   22ff0:	7800      	ldrb	r0, [r0, #0]
   22ff2:	2802      	cmp	r0, #2
   22ff4:	d01b      	beq.n	2302e <_ZN20complex_dynamic_type3app17h6ded9dc40c67fd0fE+0x9e>
   22ff6:	2803      	cmp	r0, #3
   22ff8:	d014      	beq.n	23024 <_ZN20complex_dynamic_type3app17h6ded9dc40c67fd0fE+0x94>
   22ffa:	4831      	ldr	r0, [pc, #196]	@ (230c0 <_ZN20complex_dynamic_type3app17h6ded9dc40c67fd0fE+0x130>)
   22ffc:	2102      	movs	r1, #2
   22ffe:	2200      	movs	r2, #0
   23000:	4613      	mov	r3, r2
   23002:	df04      	svc	4
   23004:	e013      	b.n	2302e <_ZN20complex_dynamic_type3app17h6ded9dc40c67fd0fE+0x9e>
   23006:	a807      	add	r0, sp, #28
   23008:	2103      	movs	r1, #3
   2300a:	7001      	strb	r1, [r0, #0]
   2300c:	482c      	ldr	r0, [pc, #176]	@ (230c0 <_ZN20complex_dynamic_type3app17h6ded9dc40c67fd0fE+0x130>)
   2300e:	2109      	movs	r1, #9
   23010:	2602      	movs	r6, #2
   23012:	2300      	movs	r3, #0
   23014:	4632      	mov	r2, r6
   23016:	9301      	str	r3, [sp, #4]
   23018:	df02      	svc	2
   2301a:	287f      	cmp	r0, #127	@ 0x7f
   2301c:	d816      	bhi.n	2304c <_ZN20complex_dynamic_type3app17h6ded9dc40c67fd0fE+0xbc>
   2301e:	2001      	movs	r0, #1
   23020:	7020      	strb	r0, [r4, #0]
   23022:	6061      	str	r1, [r4, #4]
   23024:	4826      	ldr	r0, [pc, #152]	@ (230c0 <_ZN20complex_dynamic_type3app17h6ded9dc40c67fd0fE+0x130>)
   23026:	2102      	movs	r1, #2
   23028:	2200      	movs	r2, #0
   2302a:	4613      	mov	r3, r2
   2302c:	df03      	svc	3
   2302e:	a803      	add	r0, sp, #12
   23030:	7804      	ldrb	r4, [r0, #0]
   23032:	2c02      	cmp	r4, #2
   23034:	d008      	beq.n	23048 <_ZN20complex_dynamic_type3app17h6ded9dc40c67fd0fE+0xb8>
   23036:	4822      	ldr	r0, [pc, #136]	@ (230c0 <_ZN20complex_dynamic_type3app17h6ded9dc40c67fd0fE+0x130>)
   23038:	2109      	movs	r1, #9
   2303a:	2200      	movs	r2, #0
   2303c:	4613      	mov	r3, r2
   2303e:	2c03      	cmp	r4, #3
   23040:	d101      	bne.n	23046 <_ZN20complex_dynamic_type3app17h6ded9dc40c67fd0fE+0xb6>
   23042:	df03      	svc	3
   23044:	e000      	b.n	23048 <_ZN20complex_dynamic_type3app17h6ded9dc40c67fd0fE+0xb8>
   23046:	df04      	svc	4
   23048:	b019      	add	sp, #100	@ 0x64
   2304a:	bdf0      	pop	{r4, r5, r6, r7, pc}
   2304c:	a803      	add	r0, sp, #12
   2304e:	7800      	ldrb	r0, [r0, #0]
   23050:	2802      	cmp	r0, #2
   23052:	d01c      	beq.n	2308e <_ZN20complex_dynamic_type3app17h6ded9dc40c67fd0fE+0xfe>
   23054:	2803      	cmp	r0, #3
   23056:	d105      	bne.n	23064 <_ZN20complex_dynamic_type3app17h6ded9dc40c67fd0fE+0xd4>
   23058:	4819      	ldr	r0, [pc, #100]	@ (230c0 <_ZN20complex_dynamic_type3app17h6ded9dc40c67fd0fE+0x130>)
   2305a:	2109      	movs	r1, #9
   2305c:	2200      	movs	r2, #0
   2305e:	4613      	mov	r3, r2
   23060:	df03      	svc	3
   23062:	e004      	b.n	2306e <_ZN20complex_dynamic_type3app17h6ded9dc40c67fd0fE+0xde>
   23064:	4816      	ldr	r0, [pc, #88]	@ (230c0 <_ZN20complex_dynamic_type3app17h6ded9dc40c67fd0fE+0x130>)
   23066:	2109      	movs	r1, #9
   23068:	2200      	movs	r2, #0
   2306a:	4613      	mov	r3, r2
   2306c:	df04      	svc	4
   2306e:	a803      	add	r0, sp, #12
   23070:	7006      	strb	r6, [r0, #0]
   23072:	a807      	add	r0, sp, #28
   23074:	7800      	ldrb	r0, [r0, #0]
   23076:	2803      	cmp	r0, #3
   23078:	d009      	beq.n	2308e <_ZN20complex_dynamic_type3app17h6ded9dc40c67fd0fE+0xfe>
   2307a:	2802      	cmp	r0, #2
   2307c:	d10e      	bne.n	2309c <_ZN20complex_dynamic_type3app17h6ded9dc40c67fd0fE+0x10c>
   2307e:	1c60      	adds	r0, r4, #1
   23080:	2246      	movs	r2, #70	@ 0x46
   23082:	4629      	mov	r1, r5
   23084:	f007 fa78 	bl	2a578 <__aeabi_memcpy>
   23088:	9801      	ldr	r0, [sp, #4]
   2308a:	7020      	strb	r0, [r4, #0]
   2308c:	e7dc      	b.n	23048 <_ZN20complex_dynamic_type3app17h6ded9dc40c67fd0fE+0xb8>
   2308e:	462e      	mov	r6, r5
   23090:	480b      	ldr	r0, [pc, #44]	@ (230c0 <_ZN20complex_dynamic_type3app17h6ded9dc40c67fd0fE+0x130>)
   23092:	2102      	movs	r1, #2
   23094:	2200      	movs	r2, #0
   23096:	4613      	mov	r3, r2
   23098:	df03      	svc	3
   2309a:	e005      	b.n	230a8 <_ZN20complex_dynamic_type3app17h6ded9dc40c67fd0fE+0x118>
   2309c:	462e      	mov	r6, r5
   2309e:	4808      	ldr	r0, [pc, #32]	@ (230c0 <_ZN20complex_dynamic_type3app17h6ded9dc40c67fd0fE+0x130>)
   230a0:	2102      	movs	r1, #2
   230a2:	2200      	movs	r2, #0
   230a4:	4613      	mov	r3, r2
   230a6:	df04      	svc	4
   230a8:	4625      	mov	r5, r4
   230aa:	a803      	add	r0, sp, #12
   230ac:	7804      	ldrb	r4, [r0, #0]
   230ae:	1c68      	adds	r0, r5, #1
   230b0:	2246      	movs	r2, #70	@ 0x46
   230b2:	4631      	mov	r1, r6
   230b4:	f007 fa60 	bl	2a578 <__aeabi_memcpy>
   230b8:	9801      	ldr	r0, [sp, #4]
   230ba:	7028      	strb	r0, [r5, #0]
   230bc:	e7b9      	b.n	23032 <_ZN20complex_dynamic_type3app17h6ded9dc40c67fd0fE+0xa2>
   230be:	46c0      	nop			@ (mov r8, r8)
   230c0:	00001d7e 	.word	0x00001d7e

000230c4 <_ZN20complex_dynamic_type3app17h6e0cb78261813f06E>:
   230c4:	b5f0      	push	{r4, r5, r6, r7, lr}
   230c6:	af03      	add	r7, sp, #12
   230c8:	b099      	sub	sp, #100	@ 0x64
   230ca:	9003      	str	r0, [sp, #12]
   230cc:	a804      	add	r0, sp, #16
   230ce:	2402      	movs	r4, #2
   230d0:	7004      	strb	r4, [r0, #0]
   230d2:	1c46      	adds	r6, r0, #1
   230d4:	223f      	movs	r2, #63	@ 0x3f
   230d6:	9202      	str	r2, [sp, #8]
   230d8:	4630      	mov	r0, r6
   230da:	f007 fa4d 	bl	2a578 <__aeabi_memcpy>
   230de:	ad14      	add	r5, sp, #80	@ 0x50
   230e0:	1c68      	adds	r0, r5, #1
   230e2:	2111      	movs	r1, #17
   230e4:	9001      	str	r0, [sp, #4]
   230e6:	f007 f887 	bl	2a1f8 <__aeabi_memclr>
   230ea:	9400      	str	r4, [sp, #0]
   230ec:	702c      	strb	r4, [r5, #0]
   230ee:	483f      	ldr	r0, [pc, #252]	@ (231ec <_ZN20complex_dynamic_type3app17h6e0cb78261813f06E+0x128>)
   230f0:	2504      	movs	r5, #4
   230f2:	4629      	mov	r1, r5
   230f4:	4632      	mov	r2, r6
   230f6:	9b02      	ldr	r3, [sp, #8]
   230f8:	df04      	svc	4
   230fa:	2802      	cmp	r0, #2
   230fc:	d104      	bne.n	23108 <_ZN20complex_dynamic_type3app17h6e0cb78261813f06E+0x44>
   230fe:	2001      	movs	r0, #1
   23100:	9a03      	ldr	r2, [sp, #12]
   23102:	7010      	strb	r0, [r2, #0]
   23104:	6051      	str	r1, [r2, #4]
   23106:	e02b      	b.n	23160 <_ZN20complex_dynamic_type3app17h6e0cb78261813f06E+0x9c>
   23108:	9e03      	ldr	r6, [sp, #12]
   2310a:	a804      	add	r0, sp, #16
   2310c:	7005      	strb	r5, [r0, #0]
   2310e:	4837      	ldr	r0, [pc, #220]	@ (231ec <_ZN20complex_dynamic_type3app17h6e0cb78261813f06E+0x128>)
   23110:	2403      	movs	r4, #3
   23112:	2311      	movs	r3, #17
   23114:	4621      	mov	r1, r4
   23116:	9a01      	ldr	r2, [sp, #4]
   23118:	df03      	svc	3
   2311a:	2802      	cmp	r0, #2
   2311c:	d10e      	bne.n	2313c <_ZN20complex_dynamic_type3app17h6e0cb78261813f06E+0x78>
   2311e:	2001      	movs	r0, #1
   23120:	7030      	strb	r0, [r6, #0]
   23122:	6071      	str	r1, [r6, #4]
   23124:	a814      	add	r0, sp, #80	@ 0x50
   23126:	7800      	ldrb	r0, [r0, #0]
   23128:	2802      	cmp	r0, #2
   2312a:	d019      	beq.n	23160 <_ZN20complex_dynamic_type3app17h6e0cb78261813f06E+0x9c>
   2312c:	2803      	cmp	r0, #3
   2312e:	d012      	beq.n	23156 <_ZN20complex_dynamic_type3app17h6e0cb78261813f06E+0x92>
   23130:	482e      	ldr	r0, [pc, #184]	@ (231ec <_ZN20complex_dynamic_type3app17h6e0cb78261813f06E+0x128>)
   23132:	2103      	movs	r1, #3
   23134:	2200      	movs	r2, #0
   23136:	4613      	mov	r3, r2
   23138:	df04      	svc	4
   2313a:	e011      	b.n	23160 <_ZN20complex_dynamic_type3app17h6e0cb78261813f06E+0x9c>
   2313c:	a814      	add	r0, sp, #80	@ 0x50
   2313e:	7004      	strb	r4, [r0, #0]
   23140:	482a      	ldr	r0, [pc, #168]	@ (231ec <_ZN20complex_dynamic_type3app17h6e0cb78261813f06E+0x128>)
   23142:	2104      	movs	r1, #4
   23144:	2300      	movs	r3, #0
   23146:	4622      	mov	r2, r4
   23148:	9302      	str	r3, [sp, #8]
   2314a:	df02      	svc	2
   2314c:	287f      	cmp	r0, #127	@ 0x7f
   2314e:	d816      	bhi.n	2317e <_ZN20complex_dynamic_type3app17h6e0cb78261813f06E+0xba>
   23150:	2001      	movs	r0, #1
   23152:	7030      	strb	r0, [r6, #0]
   23154:	6071      	str	r1, [r6, #4]
   23156:	4825      	ldr	r0, [pc, #148]	@ (231ec <_ZN20complex_dynamic_type3app17h6e0cb78261813f06E+0x128>)
   23158:	2103      	movs	r1, #3
   2315a:	2200      	movs	r2, #0
   2315c:	4613      	mov	r3, r2
   2315e:	df03      	svc	3
   23160:	a804      	add	r0, sp, #16
   23162:	7804      	ldrb	r4, [r0, #0]
   23164:	2c02      	cmp	r4, #2
   23166:	d008      	beq.n	2317a <_ZN20complex_dynamic_type3app17h6e0cb78261813f06E+0xb6>
   23168:	4820      	ldr	r0, [pc, #128]	@ (231ec <_ZN20complex_dynamic_type3app17h6e0cb78261813f06E+0x128>)
   2316a:	2104      	movs	r1, #4
   2316c:	2200      	movs	r2, #0
   2316e:	4613      	mov	r3, r2
   23170:	2c03      	cmp	r4, #3
   23172:	d101      	bne.n	23178 <_ZN20complex_dynamic_type3app17h6e0cb78261813f06E+0xb4>
   23174:	df03      	svc	3
   23176:	e000      	b.n	2317a <_ZN20complex_dynamic_type3app17h6e0cb78261813f06E+0xb6>
   23178:	df04      	svc	4
   2317a:	b019      	add	sp, #100	@ 0x64
   2317c:	bdf0      	pop	{r4, r5, r6, r7, pc}
   2317e:	a804      	add	r0, sp, #16
   23180:	7800      	ldrb	r0, [r0, #0]
   23182:	2802      	cmp	r0, #2
   23184:	d01d      	beq.n	231c2 <_ZN20complex_dynamic_type3app17h6e0cb78261813f06E+0xfe>
   23186:	2803      	cmp	r0, #3
   23188:	d105      	bne.n	23196 <_ZN20complex_dynamic_type3app17h6e0cb78261813f06E+0xd2>
   2318a:	4818      	ldr	r0, [pc, #96]	@ (231ec <_ZN20complex_dynamic_type3app17h6e0cb78261813f06E+0x128>)
   2318c:	2104      	movs	r1, #4
   2318e:	2200      	movs	r2, #0
   23190:	4613      	mov	r3, r2
   23192:	df03      	svc	3
   23194:	e004      	b.n	231a0 <_ZN20complex_dynamic_type3app17h6e0cb78261813f06E+0xdc>
   23196:	4815      	ldr	r0, [pc, #84]	@ (231ec <_ZN20complex_dynamic_type3app17h6e0cb78261813f06E+0x128>)
   23198:	2104      	movs	r1, #4
   2319a:	2200      	movs	r2, #0
   2319c:	4613      	mov	r3, r2
   2319e:	df04      	svc	4
   231a0:	9900      	ldr	r1, [sp, #0]
   231a2:	a804      	add	r0, sp, #16
   231a4:	7001      	strb	r1, [r0, #0]
   231a6:	a814      	add	r0, sp, #80	@ 0x50
   231a8:	7800      	ldrb	r0, [r0, #0]
   231aa:	2803      	cmp	r0, #3
   231ac:	d009      	beq.n	231c2 <_ZN20complex_dynamic_type3app17h6e0cb78261813f06E+0xfe>
   231ae:	2802      	cmp	r0, #2
   231b0:	d10d      	bne.n	231ce <_ZN20complex_dynamic_type3app17h6e0cb78261813f06E+0x10a>
   231b2:	1c70      	adds	r0, r6, #1
   231b4:	2211      	movs	r2, #17
   231b6:	9901      	ldr	r1, [sp, #4]
   231b8:	f007 f9de 	bl	2a578 <__aeabi_memcpy>
   231bc:	9802      	ldr	r0, [sp, #8]
   231be:	7030      	strb	r0, [r6, #0]
   231c0:	e7db      	b.n	2317a <_ZN20complex_dynamic_type3app17h6e0cb78261813f06E+0xb6>
   231c2:	480a      	ldr	r0, [pc, #40]	@ (231ec <_ZN20complex_dynamic_type3app17h6e0cb78261813f06E+0x128>)
   231c4:	2103      	movs	r1, #3
   231c6:	2200      	movs	r2, #0
   231c8:	4613      	mov	r3, r2
   231ca:	df03      	svc	3
   231cc:	e004      	b.n	231d8 <_ZN20complex_dynamic_type3app17h6e0cb78261813f06E+0x114>
   231ce:	4807      	ldr	r0, [pc, #28]	@ (231ec <_ZN20complex_dynamic_type3app17h6e0cb78261813f06E+0x128>)
   231d0:	2103      	movs	r1, #3
   231d2:	2200      	movs	r2, #0
   231d4:	4613      	mov	r3, r2
   231d6:	df04      	svc	4
   231d8:	a804      	add	r0, sp, #16
   231da:	7804      	ldrb	r4, [r0, #0]
   231dc:	1c70      	adds	r0, r6, #1
   231de:	2211      	movs	r2, #17
   231e0:	9901      	ldr	r1, [sp, #4]
   231e2:	f007 f9c9 	bl	2a578 <__aeabi_memcpy>
   231e6:	9802      	ldr	r0, [sp, #8]
   231e8:	7030      	strb	r0, [r6, #0]
   231ea:	e7bb      	b.n	23164 <_ZN20complex_dynamic_type3app17h6e0cb78261813f06E+0xa0>
   231ec:	000014d7 	.word	0x000014d7

000231f0 <_ZN20complex_dynamic_type3app17h7176a10f0db8083aE>:
   231f0:	b5f0      	push	{r4, r5, r6, r7, lr}
   231f2:	af03      	add	r7, sp, #12
   231f4:	b0a5      	sub	sp, #148	@ 0x94
   231f6:	9003      	str	r0, [sp, #12]
   231f8:	a804      	add	r0, sp, #16
   231fa:	2602      	movs	r6, #2
   231fc:	7006      	strb	r6, [r0, #0]
   231fe:	1c40      	adds	r0, r0, #1
   23200:	9002      	str	r0, [sp, #8]
   23202:	252d      	movs	r5, #45	@ 0x2d
   23204:	462a      	mov	r2, r5
   23206:	f007 f9b7 	bl	2a578 <__aeabi_memcpy>
   2320a:	ac10      	add	r4, sp, #64	@ 0x40
   2320c:	1c60      	adds	r0, r4, #1
   2320e:	2153      	movs	r1, #83	@ 0x53
   23210:	9001      	str	r0, [sp, #4]
   23212:	f006 fff1 	bl	2a1f8 <__aeabi_memclr>
   23216:	7026      	strb	r6, [r4, #0]
   23218:	4841      	ldr	r0, [pc, #260]	@ (23320 <_ZN20complex_dynamic_type3app17h7176a10f0db8083aE+0x130>)
   2321a:	4631      	mov	r1, r6
   2321c:	9a02      	ldr	r2, [sp, #8]
   2321e:	462b      	mov	r3, r5
   23220:	df04      	svc	4
   23222:	2802      	cmp	r0, #2
   23224:	d104      	bne.n	23230 <_ZN20complex_dynamic_type3app17h7176a10f0db8083aE+0x40>
   23226:	2001      	movs	r0, #1
   23228:	9a03      	ldr	r2, [sp, #12]
   2322a:	7010      	strb	r0, [r2, #0]
   2322c:	6051      	str	r1, [r2, #4]
   2322e:	e02e      	b.n	2328e <_ZN20complex_dynamic_type3app17h7176a10f0db8083aE+0x9e>
   23230:	9c03      	ldr	r4, [sp, #12]
   23232:	a804      	add	r0, sp, #16
   23234:	2104      	movs	r1, #4
   23236:	7001      	strb	r1, [r0, #0]
   23238:	4839      	ldr	r0, [pc, #228]	@ (23320 <_ZN20complex_dynamic_type3app17h7176a10f0db8083aE+0x130>)
   2323a:	2107      	movs	r1, #7
   2323c:	2353      	movs	r3, #83	@ 0x53
   2323e:	9d01      	ldr	r5, [sp, #4]
   23240:	462a      	mov	r2, r5
   23242:	df03      	svc	3
   23244:	2802      	cmp	r0, #2
   23246:	d10e      	bne.n	23266 <_ZN20complex_dynamic_type3app17h7176a10f0db8083aE+0x76>
   23248:	2001      	movs	r0, #1
   2324a:	7020      	strb	r0, [r4, #0]
   2324c:	6061      	str	r1, [r4, #4]
   2324e:	a810      	add	r0, sp, #64	@ 0x40
   23250:	7800      	ldrb	r0, [r0, #0]
   23252:	2802      	cmp	r0, #2
   23254:	d01b      	beq.n	2328e <_ZN20complex_dynamic_type3app17h7176a10f0db8083aE+0x9e>
   23256:	2803      	cmp	r0, #3
   23258:	d014      	beq.n	23284 <_ZN20complex_dynamic_type3app17h7176a10f0db8083aE+0x94>
   2325a:	4831      	ldr	r0, [pc, #196]	@ (23320 <_ZN20complex_dynamic_type3app17h7176a10f0db8083aE+0x130>)
   2325c:	2107      	movs	r1, #7
   2325e:	2200      	movs	r2, #0
   23260:	4613      	mov	r3, r2
   23262:	df04      	svc	4
   23264:	e013      	b.n	2328e <_ZN20complex_dynamic_type3app17h7176a10f0db8083aE+0x9e>
   23266:	a810      	add	r0, sp, #64	@ 0x40
   23268:	2103      	movs	r1, #3
   2326a:	7001      	strb	r1, [r0, #0]
   2326c:	482c      	ldr	r0, [pc, #176]	@ (23320 <_ZN20complex_dynamic_type3app17h7176a10f0db8083aE+0x130>)
   2326e:	2602      	movs	r6, #2
   23270:	2207      	movs	r2, #7
   23272:	2300      	movs	r3, #0
   23274:	4631      	mov	r1, r6
   23276:	9302      	str	r3, [sp, #8]
   23278:	df02      	svc	2
   2327a:	287f      	cmp	r0, #127	@ 0x7f
   2327c:	d816      	bhi.n	232ac <_ZN20complex_dynamic_type3app17h7176a10f0db8083aE+0xbc>
   2327e:	2001      	movs	r0, #1
   23280:	7020      	strb	r0, [r4, #0]
   23282:	6061      	str	r1, [r4, #4]
   23284:	4826      	ldr	r0, [pc, #152]	@ (23320 <_ZN20complex_dynamic_type3app17h7176a10f0db8083aE+0x130>)
   23286:	2107      	movs	r1, #7
   23288:	2200      	movs	r2, #0
   2328a:	4613      	mov	r3, r2
   2328c:	df03      	svc	3
   2328e:	a804      	add	r0, sp, #16
   23290:	7804      	ldrb	r4, [r0, #0]
   23292:	2c02      	cmp	r4, #2
   23294:	d008      	beq.n	232a8 <_ZN20complex_dynamic_type3app17h7176a10f0db8083aE+0xb8>
   23296:	4822      	ldr	r0, [pc, #136]	@ (23320 <_ZN20complex_dynamic_type3app17h7176a10f0db8083aE+0x130>)
   23298:	2102      	movs	r1, #2
   2329a:	2200      	movs	r2, #0
   2329c:	4613      	mov	r3, r2
   2329e:	2c03      	cmp	r4, #3
   232a0:	d101      	bne.n	232a6 <_ZN20complex_dynamic_type3app17h7176a10f0db8083aE+0xb6>
   232a2:	df03      	svc	3
   232a4:	e000      	b.n	232a8 <_ZN20complex_dynamic_type3app17h7176a10f0db8083aE+0xb8>
   232a6:	df04      	svc	4
   232a8:	b025      	add	sp, #148	@ 0x94
   232aa:	bdf0      	pop	{r4, r5, r6, r7, pc}
   232ac:	a804      	add	r0, sp, #16
   232ae:	7800      	ldrb	r0, [r0, #0]
   232b0:	2802      	cmp	r0, #2
   232b2:	d01c      	beq.n	232ee <_ZN20complex_dynamic_type3app17h7176a10f0db8083aE+0xfe>
   232b4:	2803      	cmp	r0, #3
   232b6:	d105      	bne.n	232c4 <_ZN20complex_dynamic_type3app17h7176a10f0db8083aE+0xd4>
   232b8:	4819      	ldr	r0, [pc, #100]	@ (23320 <_ZN20complex_dynamic_type3app17h7176a10f0db8083aE+0x130>)
   232ba:	2102      	movs	r1, #2
   232bc:	2200      	movs	r2, #0
   232be:	4613      	mov	r3, r2
   232c0:	df03      	svc	3
   232c2:	e004      	b.n	232ce <_ZN20complex_dynamic_type3app17h7176a10f0db8083aE+0xde>
   232c4:	4816      	ldr	r0, [pc, #88]	@ (23320 <_ZN20complex_dynamic_type3app17h7176a10f0db8083aE+0x130>)
   232c6:	2102      	movs	r1, #2
   232c8:	2200      	movs	r2, #0
   232ca:	4613      	mov	r3, r2
   232cc:	df04      	svc	4
   232ce:	a804      	add	r0, sp, #16
   232d0:	7006      	strb	r6, [r0, #0]
   232d2:	a810      	add	r0, sp, #64	@ 0x40
   232d4:	7800      	ldrb	r0, [r0, #0]
   232d6:	2803      	cmp	r0, #3
   232d8:	d009      	beq.n	232ee <_ZN20complex_dynamic_type3app17h7176a10f0db8083aE+0xfe>
   232da:	2802      	cmp	r0, #2
   232dc:	d10e      	bne.n	232fc <_ZN20complex_dynamic_type3app17h7176a10f0db8083aE+0x10c>
   232de:	1c60      	adds	r0, r4, #1
   232e0:	2253      	movs	r2, #83	@ 0x53
   232e2:	4629      	mov	r1, r5
   232e4:	f007 f948 	bl	2a578 <__aeabi_memcpy>
   232e8:	9802      	ldr	r0, [sp, #8]
   232ea:	7020      	strb	r0, [r4, #0]
   232ec:	e7dc      	b.n	232a8 <_ZN20complex_dynamic_type3app17h7176a10f0db8083aE+0xb8>
   232ee:	462e      	mov	r6, r5
   232f0:	480b      	ldr	r0, [pc, #44]	@ (23320 <_ZN20complex_dynamic_type3app17h7176a10f0db8083aE+0x130>)
   232f2:	2107      	movs	r1, #7
   232f4:	2200      	movs	r2, #0
   232f6:	4613      	mov	r3, r2
   232f8:	df03      	svc	3
   232fa:	e005      	b.n	23308 <_ZN20complex_dynamic_type3app17h7176a10f0db8083aE+0x118>
   232fc:	462e      	mov	r6, r5
   232fe:	4808      	ldr	r0, [pc, #32]	@ (23320 <_ZN20complex_dynamic_type3app17h7176a10f0db8083aE+0x130>)
   23300:	2107      	movs	r1, #7
   23302:	2200      	movs	r2, #0
   23304:	4613      	mov	r3, r2
   23306:	df04      	svc	4
   23308:	4625      	mov	r5, r4
   2330a:	a804      	add	r0, sp, #16
   2330c:	7804      	ldrb	r4, [r0, #0]
   2330e:	1c68      	adds	r0, r5, #1
   23310:	2253      	movs	r2, #83	@ 0x53
   23312:	4631      	mov	r1, r6
   23314:	f007 f930 	bl	2a578 <__aeabi_memcpy>
   23318:	9802      	ldr	r0, [sp, #8]
   2331a:	7028      	strb	r0, [r5, #0]
   2331c:	e7b9      	b.n	23292 <_ZN20complex_dynamic_type3app17h7176a10f0db8083aE+0xa2>
   2331e:	46c0      	nop			@ (mov r8, r8)
   23320:	00000ec3 	.word	0x00000ec3

00023324 <_ZN20complex_dynamic_type3app17h72fb49f6ba8b9828E>:
   23324:	b5f0      	push	{r4, r5, r6, r7, lr}
   23326:	af03      	add	r7, sp, #12
   23328:	b093      	sub	sp, #76	@ 0x4c
   2332a:	9003      	str	r0, [sp, #12]
   2332c:	a804      	add	r0, sp, #16
   2332e:	2402      	movs	r4, #2
   23330:	7004      	strb	r4, [r0, #0]
   23332:	1c46      	adds	r6, r0, #1
   23334:	2218      	movs	r2, #24
   23336:	9202      	str	r2, [sp, #8]
   23338:	4630      	mov	r0, r6
   2333a:	f007 f91d 	bl	2a578 <__aeabi_memcpy>
   2333e:	ad0b      	add	r5, sp, #44	@ 0x2c
   23340:	1c68      	adds	r0, r5, #1
   23342:	211e      	movs	r1, #30
   23344:	9001      	str	r0, [sp, #4]
   23346:	f006 ff57 	bl	2a1f8 <__aeabi_memclr>
   2334a:	9400      	str	r4, [sp, #0]
   2334c:	702c      	strb	r4, [r5, #0]
   2334e:	483f      	ldr	r0, [pc, #252]	@ (2344c <_ZN20complex_dynamic_type3app17h72fb49f6ba8b9828E+0x128>)
   23350:	2109      	movs	r1, #9
   23352:	4632      	mov	r2, r6
   23354:	9b02      	ldr	r3, [sp, #8]
   23356:	df04      	svc	4
   23358:	2802      	cmp	r0, #2
   2335a:	d104      	bne.n	23366 <_ZN20complex_dynamic_type3app17h72fb49f6ba8b9828E+0x42>
   2335c:	2001      	movs	r0, #1
   2335e:	9a03      	ldr	r2, [sp, #12]
   23360:	7010      	strb	r0, [r2, #0]
   23362:	6051      	str	r1, [r2, #4]
   23364:	e02d      	b.n	233c2 <_ZN20complex_dynamic_type3app17h72fb49f6ba8b9828E+0x9e>
   23366:	9d03      	ldr	r5, [sp, #12]
   23368:	a804      	add	r0, sp, #16
   2336a:	2104      	movs	r1, #4
   2336c:	7001      	strb	r1, [r0, #0]
   2336e:	4837      	ldr	r0, [pc, #220]	@ (2344c <_ZN20complex_dynamic_type3app17h72fb49f6ba8b9828E+0x128>)
   23370:	2105      	movs	r1, #5
   23372:	231e      	movs	r3, #30
   23374:	9c01      	ldr	r4, [sp, #4]
   23376:	4622      	mov	r2, r4
   23378:	df03      	svc	3
   2337a:	2802      	cmp	r0, #2
   2337c:	d10e      	bne.n	2339c <_ZN20complex_dynamic_type3app17h72fb49f6ba8b9828E+0x78>
   2337e:	2001      	movs	r0, #1
   23380:	7028      	strb	r0, [r5, #0]
   23382:	6069      	str	r1, [r5, #4]
   23384:	a80b      	add	r0, sp, #44	@ 0x2c
   23386:	7800      	ldrb	r0, [r0, #0]
   23388:	2802      	cmp	r0, #2
   2338a:	d01a      	beq.n	233c2 <_ZN20complex_dynamic_type3app17h72fb49f6ba8b9828E+0x9e>
   2338c:	2803      	cmp	r0, #3
   2338e:	d013      	beq.n	233b8 <_ZN20complex_dynamic_type3app17h72fb49f6ba8b9828E+0x94>
   23390:	482e      	ldr	r0, [pc, #184]	@ (2344c <_ZN20complex_dynamic_type3app17h72fb49f6ba8b9828E+0x128>)
   23392:	2105      	movs	r1, #5
   23394:	2200      	movs	r2, #0
   23396:	4613      	mov	r3, r2
   23398:	df04      	svc	4
   2339a:	e012      	b.n	233c2 <_ZN20complex_dynamic_type3app17h72fb49f6ba8b9828E+0x9e>
   2339c:	a80b      	add	r0, sp, #44	@ 0x2c
   2339e:	2103      	movs	r1, #3
   233a0:	7001      	strb	r1, [r0, #0]
   233a2:	482a      	ldr	r0, [pc, #168]	@ (2344c <_ZN20complex_dynamic_type3app17h72fb49f6ba8b9828E+0x128>)
   233a4:	2109      	movs	r1, #9
   233a6:	2205      	movs	r2, #5
   233a8:	2600      	movs	r6, #0
   233aa:	4633      	mov	r3, r6
   233ac:	df02      	svc	2
   233ae:	287f      	cmp	r0, #127	@ 0x7f
   233b0:	d816      	bhi.n	233e0 <_ZN20complex_dynamic_type3app17h72fb49f6ba8b9828E+0xbc>
   233b2:	2001      	movs	r0, #1
   233b4:	7028      	strb	r0, [r5, #0]
   233b6:	6069      	str	r1, [r5, #4]
   233b8:	4824      	ldr	r0, [pc, #144]	@ (2344c <_ZN20complex_dynamic_type3app17h72fb49f6ba8b9828E+0x128>)
   233ba:	2105      	movs	r1, #5
   233bc:	2200      	movs	r2, #0
   233be:	4613      	mov	r3, r2
   233c0:	df03      	svc	3
   233c2:	a804      	add	r0, sp, #16
   233c4:	7804      	ldrb	r4, [r0, #0]
   233c6:	2c02      	cmp	r4, #2
   233c8:	d008      	beq.n	233dc <_ZN20complex_dynamic_type3app17h72fb49f6ba8b9828E+0xb8>
   233ca:	4820      	ldr	r0, [pc, #128]	@ (2344c <_ZN20complex_dynamic_type3app17h72fb49f6ba8b9828E+0x128>)
   233cc:	2109      	movs	r1, #9
   233ce:	2200      	movs	r2, #0
   233d0:	4613      	mov	r3, r2
   233d2:	2c03      	cmp	r4, #3
   233d4:	d101      	bne.n	233da <_ZN20complex_dynamic_type3app17h72fb49f6ba8b9828E+0xb6>
   233d6:	df03      	svc	3
   233d8:	e000      	b.n	233dc <_ZN20complex_dynamic_type3app17h72fb49f6ba8b9828E+0xb8>
   233da:	df04      	svc	4
   233dc:	b013      	add	sp, #76	@ 0x4c
   233de:	bdf0      	pop	{r4, r5, r6, r7, pc}
   233e0:	a804      	add	r0, sp, #16
   233e2:	7800      	ldrb	r0, [r0, #0]
   233e4:	2802      	cmp	r0, #2
   233e6:	d01c      	beq.n	23422 <_ZN20complex_dynamic_type3app17h72fb49f6ba8b9828E+0xfe>
   233e8:	2803      	cmp	r0, #3
   233ea:	d105      	bne.n	233f8 <_ZN20complex_dynamic_type3app17h72fb49f6ba8b9828E+0xd4>
   233ec:	4817      	ldr	r0, [pc, #92]	@ (2344c <_ZN20complex_dynamic_type3app17h72fb49f6ba8b9828E+0x128>)
   233ee:	2109      	movs	r1, #9
   233f0:	2200      	movs	r2, #0
   233f2:	4613      	mov	r3, r2
   233f4:	df03      	svc	3
   233f6:	e004      	b.n	23402 <_ZN20complex_dynamic_type3app17h72fb49f6ba8b9828E+0xde>
   233f8:	4814      	ldr	r0, [pc, #80]	@ (2344c <_ZN20complex_dynamic_type3app17h72fb49f6ba8b9828E+0x128>)
   233fa:	2109      	movs	r1, #9
   233fc:	2200      	movs	r2, #0
   233fe:	4613      	mov	r3, r2
   23400:	df04      	svc	4
   23402:	a804      	add	r0, sp, #16
   23404:	9900      	ldr	r1, [sp, #0]
   23406:	7001      	strb	r1, [r0, #0]
   23408:	a80b      	add	r0, sp, #44	@ 0x2c
   2340a:	7800      	ldrb	r0, [r0, #0]
   2340c:	2803      	cmp	r0, #3
   2340e:	d008      	beq.n	23422 <_ZN20complex_dynamic_type3app17h72fb49f6ba8b9828E+0xfe>
   23410:	2802      	cmp	r0, #2
   23412:	d10c      	bne.n	2342e <_ZN20complex_dynamic_type3app17h72fb49f6ba8b9828E+0x10a>
   23414:	1c68      	adds	r0, r5, #1
   23416:	221e      	movs	r2, #30
   23418:	4621      	mov	r1, r4
   2341a:	f007 f8ad 	bl	2a578 <__aeabi_memcpy>
   2341e:	702e      	strb	r6, [r5, #0]
   23420:	e7dc      	b.n	233dc <_ZN20complex_dynamic_type3app17h72fb49f6ba8b9828E+0xb8>
   23422:	480a      	ldr	r0, [pc, #40]	@ (2344c <_ZN20complex_dynamic_type3app17h72fb49f6ba8b9828E+0x128>)
   23424:	2105      	movs	r1, #5
   23426:	2200      	movs	r2, #0
   23428:	4613      	mov	r3, r2
   2342a:	df03      	svc	3
   2342c:	e004      	b.n	23438 <_ZN20complex_dynamic_type3app17h72fb49f6ba8b9828E+0x114>
   2342e:	4807      	ldr	r0, [pc, #28]	@ (2344c <_ZN20complex_dynamic_type3app17h72fb49f6ba8b9828E+0x128>)
   23430:	2105      	movs	r1, #5
   23432:	2200      	movs	r2, #0
   23434:	4613      	mov	r3, r2
   23436:	df04      	svc	4
   23438:	a804      	add	r0, sp, #16
   2343a:	7804      	ldrb	r4, [r0, #0]
   2343c:	1c68      	adds	r0, r5, #1
   2343e:	221e      	movs	r2, #30
   23440:	9901      	ldr	r1, [sp, #4]
   23442:	f007 f899 	bl	2a578 <__aeabi_memcpy>
   23446:	702e      	strb	r6, [r5, #0]
   23448:	e7bd      	b.n	233c6 <_ZN20complex_dynamic_type3app17h72fb49f6ba8b9828E+0xa2>
   2344a:	46c0      	nop			@ (mov r8, r8)
   2344c:	00000cbb 	.word	0x00000cbb

00023450 <_ZN20complex_dynamic_type3app17h7411fcceffe19422E>:
   23450:	b5f0      	push	{r4, r5, r6, r7, lr}
   23452:	af03      	add	r7, sp, #12
   23454:	b095      	sub	sp, #84	@ 0x54
   23456:	9002      	str	r0, [sp, #8]
   23458:	ae03      	add	r6, sp, #12
   2345a:	2502      	movs	r5, #2
   2345c:	7035      	strb	r5, [r6, #0]
   2345e:	1c70      	adds	r0, r6, #1
   23460:	2227      	movs	r2, #39	@ 0x27
   23462:	9201      	str	r2, [sp, #4]
   23464:	f007 f888 	bl	2a578 <__aeabi_memcpy>
   23468:	ac0d      	add	r4, sp, #52	@ 0x34
   2346a:	1c60      	adds	r0, r4, #1
   2346c:	211e      	movs	r1, #30
   2346e:	9000      	str	r0, [sp, #0]
   23470:	f006 fec2 	bl	2a1f8 <__aeabi_memclr>
   23474:	7025      	strb	r5, [r4, #0]
   23476:	2204      	movs	r2, #4
   23478:	4630      	mov	r0, r6
   2347a:	9901      	ldr	r1, [sp, #4]
   2347c:	f7fc fe6e 	bl	2015c <_ZN9allow_pin12dynamic_type23Buffer$LT$B$C$_$C$_$GT$5allow17h37e2a81f0b04354bE>
   23480:	07c0      	lsls	r0, r0, #31
   23482:	d10e      	bne.n	234a2 <_ZN20complex_dynamic_type3app17h7411fcceffe19422E+0x52>
   23484:	a80d      	add	r0, sp, #52	@ 0x34
   23486:	211e      	movs	r1, #30
   23488:	2203      	movs	r2, #3
   2348a:	f7fc fe67 	bl	2015c <_ZN9allow_pin12dynamic_type23Buffer$LT$B$C$_$C$_$GT$5allow17h37e2a81f0b04354bE>
   2348e:	07c0      	lsls	r0, r0, #31
   23490:	d107      	bne.n	234a2 <_ZN20complex_dynamic_type3app17h7411fcceffe19422E+0x52>
   23492:	4831      	ldr	r0, [pc, #196]	@ (23558 <_ZN20complex_dynamic_type3app17h7411fcceffe19422E+0x108>)
   23494:	2103      	movs	r1, #3
   23496:	2600      	movs	r6, #0
   23498:	460a      	mov	r2, r1
   2349a:	4633      	mov	r3, r6
   2349c:	df02      	svc	2
   2349e:	287f      	cmp	r0, #127	@ 0x7f
   234a0:	d823      	bhi.n	234ea <_ZN20complex_dynamic_type3app17h7411fcceffe19422E+0x9a>
   234a2:	2001      	movs	r0, #1
   234a4:	9a02      	ldr	r2, [sp, #8]
   234a6:	7010      	strb	r0, [r2, #0]
   234a8:	6051      	str	r1, [r2, #4]
   234aa:	a80d      	add	r0, sp, #52	@ 0x34
   234ac:	7800      	ldrb	r0, [r0, #0]
   234ae:	2802      	cmp	r0, #2
   234b0:	d00c      	beq.n	234cc <_ZN20complex_dynamic_type3app17h7411fcceffe19422E+0x7c>
   234b2:	2803      	cmp	r0, #3
   234b4:	d105      	bne.n	234c2 <_ZN20complex_dynamic_type3app17h7411fcceffe19422E+0x72>
   234b6:	4828      	ldr	r0, [pc, #160]	@ (23558 <_ZN20complex_dynamic_type3app17h7411fcceffe19422E+0x108>)
   234b8:	2103      	movs	r1, #3
   234ba:	2200      	movs	r2, #0
   234bc:	4613      	mov	r3, r2
   234be:	df03      	svc	3
   234c0:	e004      	b.n	234cc <_ZN20complex_dynamic_type3app17h7411fcceffe19422E+0x7c>
   234c2:	4825      	ldr	r0, [pc, #148]	@ (23558 <_ZN20complex_dynamic_type3app17h7411fcceffe19422E+0x108>)
   234c4:	2103      	movs	r1, #3
   234c6:	2200      	movs	r2, #0
   234c8:	4613      	mov	r3, r2
   234ca:	df04      	svc	4
   234cc:	a803      	add	r0, sp, #12
   234ce:	7804      	ldrb	r4, [r0, #0]
   234d0:	2c02      	cmp	r4, #2
   234d2:	d008      	beq.n	234e6 <_ZN20complex_dynamic_type3app17h7411fcceffe19422E+0x96>
   234d4:	4820      	ldr	r0, [pc, #128]	@ (23558 <_ZN20complex_dynamic_type3app17h7411fcceffe19422E+0x108>)
   234d6:	2103      	movs	r1, #3
   234d8:	2200      	movs	r2, #0
   234da:	4613      	mov	r3, r2
   234dc:	2c03      	cmp	r4, #3
   234de:	d101      	bne.n	234e4 <_ZN20complex_dynamic_type3app17h7411fcceffe19422E+0x94>
   234e0:	df03      	svc	3
   234e2:	e000      	b.n	234e6 <_ZN20complex_dynamic_type3app17h7411fcceffe19422E+0x96>
   234e4:	df04      	svc	4
   234e6:	b015      	add	sp, #84	@ 0x54
   234e8:	bdf0      	pop	{r4, r5, r6, r7, pc}
   234ea:	a803      	add	r0, sp, #12
   234ec:	7800      	ldrb	r0, [r0, #0]
   234ee:	2802      	cmp	r0, #2
   234f0:	d00c      	beq.n	2350c <_ZN20complex_dynamic_type3app17h7411fcceffe19422E+0xbc>
   234f2:	2803      	cmp	r0, #3
   234f4:	d105      	bne.n	23502 <_ZN20complex_dynamic_type3app17h7411fcceffe19422E+0xb2>
   234f6:	4818      	ldr	r0, [pc, #96]	@ (23558 <_ZN20complex_dynamic_type3app17h7411fcceffe19422E+0x108>)
   234f8:	2103      	movs	r1, #3
   234fa:	2200      	movs	r2, #0
   234fc:	4613      	mov	r3, r2
   234fe:	df03      	svc	3
   23500:	e004      	b.n	2350c <_ZN20complex_dynamic_type3app17h7411fcceffe19422E+0xbc>
   23502:	4815      	ldr	r0, [pc, #84]	@ (23558 <_ZN20complex_dynamic_type3app17h7411fcceffe19422E+0x108>)
   23504:	2103      	movs	r1, #3
   23506:	2200      	movs	r2, #0
   23508:	4613      	mov	r3, r2
   2350a:	df04      	svc	4
   2350c:	a803      	add	r0, sp, #12
   2350e:	7005      	strb	r5, [r0, #0]
   23510:	a80d      	add	r0, sp, #52	@ 0x34
   23512:	7800      	ldrb	r0, [r0, #0]
   23514:	2803      	cmp	r0, #3
   23516:	d009      	beq.n	2352c <_ZN20complex_dynamic_type3app17h7411fcceffe19422E+0xdc>
   23518:	2802      	cmp	r0, #2
   2351a:	d10d      	bne.n	23538 <_ZN20complex_dynamic_type3app17h7411fcceffe19422E+0xe8>
   2351c:	9c02      	ldr	r4, [sp, #8]
   2351e:	1c60      	adds	r0, r4, #1
   23520:	221e      	movs	r2, #30
   23522:	9900      	ldr	r1, [sp, #0]
   23524:	f007 f828 	bl	2a578 <__aeabi_memcpy>
   23528:	7026      	strb	r6, [r4, #0]
   2352a:	e7dc      	b.n	234e6 <_ZN20complex_dynamic_type3app17h7411fcceffe19422E+0x96>
   2352c:	480a      	ldr	r0, [pc, #40]	@ (23558 <_ZN20complex_dynamic_type3app17h7411fcceffe19422E+0x108>)
   2352e:	2103      	movs	r1, #3
   23530:	2200      	movs	r2, #0
   23532:	4613      	mov	r3, r2
   23534:	df03      	svc	3
   23536:	e004      	b.n	23542 <_ZN20complex_dynamic_type3app17h7411fcceffe19422E+0xf2>
   23538:	4807      	ldr	r0, [pc, #28]	@ (23558 <_ZN20complex_dynamic_type3app17h7411fcceffe19422E+0x108>)
   2353a:	2103      	movs	r1, #3
   2353c:	2200      	movs	r2, #0
   2353e:	4613      	mov	r3, r2
   23540:	df04      	svc	4
   23542:	a803      	add	r0, sp, #12
   23544:	7804      	ldrb	r4, [r0, #0]
   23546:	9d02      	ldr	r5, [sp, #8]
   23548:	1c68      	adds	r0, r5, #1
   2354a:	221e      	movs	r2, #30
   2354c:	9900      	ldr	r1, [sp, #0]
   2354e:	f007 f813 	bl	2a578 <__aeabi_memcpy>
   23552:	702e      	strb	r6, [r5, #0]
   23554:	e7bc      	b.n	234d0 <_ZN20complex_dynamic_type3app17h7411fcceffe19422E+0x80>
   23556:	46c0      	nop			@ (mov r8, r8)
   23558:	000010e2 	.word	0x000010e2

0002355c <_ZN20complex_dynamic_type3app17h80a24f64a4276344E>:
   2355c:	b5f0      	push	{r4, r5, r6, r7, lr}
   2355e:	af03      	add	r7, sp, #12
   23560:	b09d      	sub	sp, #116	@ 0x74
   23562:	9002      	str	r0, [sp, #8]
   23564:	a803      	add	r0, sp, #12
   23566:	2602      	movs	r6, #2
   23568:	7006      	strb	r6, [r0, #0]
   2356a:	1c40      	adds	r0, r0, #1
   2356c:	9001      	str	r0, [sp, #4]
   2356e:	2534      	movs	r5, #52	@ 0x34
   23570:	462a      	mov	r2, r5
   23572:	f007 f801 	bl	2a578 <__aeabi_memcpy>
   23576:	ac11      	add	r4, sp, #68	@ 0x44
   23578:	1c60      	adds	r0, r4, #1
   2357a:	212e      	movs	r1, #46	@ 0x2e
   2357c:	9000      	str	r0, [sp, #0]
   2357e:	f006 fe3b 	bl	2a1f8 <__aeabi_memclr>
   23582:	7026      	strb	r6, [r4, #0]
   23584:	4841      	ldr	r0, [pc, #260]	@ (2368c <_ZN20complex_dynamic_type3app17h80a24f64a4276344E+0x130>)
   23586:	4631      	mov	r1, r6
   23588:	9a01      	ldr	r2, [sp, #4]
   2358a:	462b      	mov	r3, r5
   2358c:	df04      	svc	4
   2358e:	2802      	cmp	r0, #2
   23590:	d104      	bne.n	2359c <_ZN20complex_dynamic_type3app17h80a24f64a4276344E+0x40>
   23592:	2001      	movs	r0, #1
   23594:	9a02      	ldr	r2, [sp, #8]
   23596:	7010      	strb	r0, [r2, #0]
   23598:	6051      	str	r1, [r2, #4]
   2359a:	e02e      	b.n	235fa <_ZN20complex_dynamic_type3app17h80a24f64a4276344E+0x9e>
   2359c:	9c02      	ldr	r4, [sp, #8]
   2359e:	a803      	add	r0, sp, #12
   235a0:	2104      	movs	r1, #4
   235a2:	7001      	strb	r1, [r0, #0]
   235a4:	4839      	ldr	r0, [pc, #228]	@ (2368c <_ZN20complex_dynamic_type3app17h80a24f64a4276344E+0x130>)
   235a6:	2108      	movs	r1, #8
   235a8:	232e      	movs	r3, #46	@ 0x2e
   235aa:	9d00      	ldr	r5, [sp, #0]
   235ac:	462a      	mov	r2, r5
   235ae:	df03      	svc	3
   235b0:	2802      	cmp	r0, #2
   235b2:	d10e      	bne.n	235d2 <_ZN20complex_dynamic_type3app17h80a24f64a4276344E+0x76>
   235b4:	2001      	movs	r0, #1
   235b6:	7020      	strb	r0, [r4, #0]
   235b8:	6061      	str	r1, [r4, #4]
   235ba:	a811      	add	r0, sp, #68	@ 0x44
   235bc:	7800      	ldrb	r0, [r0, #0]
   235be:	2802      	cmp	r0, #2
   235c0:	d01b      	beq.n	235fa <_ZN20complex_dynamic_type3app17h80a24f64a4276344E+0x9e>
   235c2:	2803      	cmp	r0, #3
   235c4:	d014      	beq.n	235f0 <_ZN20complex_dynamic_type3app17h80a24f64a4276344E+0x94>
   235c6:	4831      	ldr	r0, [pc, #196]	@ (2368c <_ZN20complex_dynamic_type3app17h80a24f64a4276344E+0x130>)
   235c8:	2108      	movs	r1, #8
   235ca:	2200      	movs	r2, #0
   235cc:	4613      	mov	r3, r2
   235ce:	df04      	svc	4
   235d0:	e013      	b.n	235fa <_ZN20complex_dynamic_type3app17h80a24f64a4276344E+0x9e>
   235d2:	a811      	add	r0, sp, #68	@ 0x44
   235d4:	2103      	movs	r1, #3
   235d6:	7001      	strb	r1, [r0, #0]
   235d8:	482c      	ldr	r0, [pc, #176]	@ (2368c <_ZN20complex_dynamic_type3app17h80a24f64a4276344E+0x130>)
   235da:	2602      	movs	r6, #2
   235dc:	2208      	movs	r2, #8
   235de:	2300      	movs	r3, #0
   235e0:	4631      	mov	r1, r6
   235e2:	9301      	str	r3, [sp, #4]
   235e4:	df02      	svc	2
   235e6:	287f      	cmp	r0, #127	@ 0x7f
   235e8:	d816      	bhi.n	23618 <_ZN20complex_dynamic_type3app17h80a24f64a4276344E+0xbc>
   235ea:	2001      	movs	r0, #1
   235ec:	7020      	strb	r0, [r4, #0]
   235ee:	6061      	str	r1, [r4, #4]
   235f0:	4826      	ldr	r0, [pc, #152]	@ (2368c <_ZN20complex_dynamic_type3app17h80a24f64a4276344E+0x130>)
   235f2:	2108      	movs	r1, #8
   235f4:	2200      	movs	r2, #0
   235f6:	4613      	mov	r3, r2
   235f8:	df03      	svc	3
   235fa:	a803      	add	r0, sp, #12
   235fc:	7804      	ldrb	r4, [r0, #0]
   235fe:	2c02      	cmp	r4, #2
   23600:	d008      	beq.n	23614 <_ZN20complex_dynamic_type3app17h80a24f64a4276344E+0xb8>
   23602:	4822      	ldr	r0, [pc, #136]	@ (2368c <_ZN20complex_dynamic_type3app17h80a24f64a4276344E+0x130>)
   23604:	2102      	movs	r1, #2
   23606:	2200      	movs	r2, #0
   23608:	4613      	mov	r3, r2
   2360a:	2c03      	cmp	r4, #3
   2360c:	d101      	bne.n	23612 <_ZN20complex_dynamic_type3app17h80a24f64a4276344E+0xb6>
   2360e:	df03      	svc	3
   23610:	e000      	b.n	23614 <_ZN20complex_dynamic_type3app17h80a24f64a4276344E+0xb8>
   23612:	df04      	svc	4
   23614:	b01d      	add	sp, #116	@ 0x74
   23616:	bdf0      	pop	{r4, r5, r6, r7, pc}
   23618:	a803      	add	r0, sp, #12
   2361a:	7800      	ldrb	r0, [r0, #0]
   2361c:	2802      	cmp	r0, #2
   2361e:	d01c      	beq.n	2365a <_ZN20complex_dynamic_type3app17h80a24f64a4276344E+0xfe>
   23620:	2803      	cmp	r0, #3
   23622:	d105      	bne.n	23630 <_ZN20complex_dynamic_type3app17h80a24f64a4276344E+0xd4>
   23624:	4819      	ldr	r0, [pc, #100]	@ (2368c <_ZN20complex_dynamic_type3app17h80a24f64a4276344E+0x130>)
   23626:	2102      	movs	r1, #2
   23628:	2200      	movs	r2, #0
   2362a:	4613      	mov	r3, r2
   2362c:	df03      	svc	3
   2362e:	e004      	b.n	2363a <_ZN20complex_dynamic_type3app17h80a24f64a4276344E+0xde>
   23630:	4816      	ldr	r0, [pc, #88]	@ (2368c <_ZN20complex_dynamic_type3app17h80a24f64a4276344E+0x130>)
   23632:	2102      	movs	r1, #2
   23634:	2200      	movs	r2, #0
   23636:	4613      	mov	r3, r2
   23638:	df04      	svc	4
   2363a:	a803      	add	r0, sp, #12
   2363c:	7006      	strb	r6, [r0, #0]
   2363e:	a811      	add	r0, sp, #68	@ 0x44
   23640:	7800      	ldrb	r0, [r0, #0]
   23642:	2803      	cmp	r0, #3
   23644:	d009      	beq.n	2365a <_ZN20complex_dynamic_type3app17h80a24f64a4276344E+0xfe>
   23646:	2802      	cmp	r0, #2
   23648:	d10e      	bne.n	23668 <_ZN20complex_dynamic_type3app17h80a24f64a4276344E+0x10c>
   2364a:	1c60      	adds	r0, r4, #1
   2364c:	222e      	movs	r2, #46	@ 0x2e
   2364e:	4629      	mov	r1, r5
   23650:	f006 ff92 	bl	2a578 <__aeabi_memcpy>
   23654:	9801      	ldr	r0, [sp, #4]
   23656:	7020      	strb	r0, [r4, #0]
   23658:	e7dc      	b.n	23614 <_ZN20complex_dynamic_type3app17h80a24f64a4276344E+0xb8>
   2365a:	462e      	mov	r6, r5
   2365c:	480b      	ldr	r0, [pc, #44]	@ (2368c <_ZN20complex_dynamic_type3app17h80a24f64a4276344E+0x130>)
   2365e:	2108      	movs	r1, #8
   23660:	2200      	movs	r2, #0
   23662:	4613      	mov	r3, r2
   23664:	df03      	svc	3
   23666:	e005      	b.n	23674 <_ZN20complex_dynamic_type3app17h80a24f64a4276344E+0x118>
   23668:	462e      	mov	r6, r5
   2366a:	4808      	ldr	r0, [pc, #32]	@ (2368c <_ZN20complex_dynamic_type3app17h80a24f64a4276344E+0x130>)
   2366c:	2108      	movs	r1, #8
   2366e:	2200      	movs	r2, #0
   23670:	4613      	mov	r3, r2
   23672:	df04      	svc	4
   23674:	4625      	mov	r5, r4
   23676:	a803      	add	r0, sp, #12
   23678:	7804      	ldrb	r4, [r0, #0]
   2367a:	1c68      	adds	r0, r5, #1
   2367c:	222e      	movs	r2, #46	@ 0x2e
   2367e:	4631      	mov	r1, r6
   23680:	f006 ff7a 	bl	2a578 <__aeabi_memcpy>
   23684:	9801      	ldr	r0, [sp, #4]
   23686:	7028      	strb	r0, [r5, #0]
   23688:	e7b9      	b.n	235fe <_ZN20complex_dynamic_type3app17h80a24f64a4276344E+0xa2>
   2368a:	46c0      	nop			@ (mov r8, r8)
   2368c:	00000209 	.word	0x00000209

00023690 <_ZN20complex_dynamic_type3app17h8107ab0f23997b29E>:
   23690:	b5f0      	push	{r4, r5, r6, r7, lr}
   23692:	af03      	add	r7, sp, #12
   23694:	b09f      	sub	sp, #124	@ 0x7c
   23696:	9003      	str	r0, [sp, #12]
   23698:	ae04      	add	r6, sp, #16
   2369a:	2002      	movs	r0, #2
   2369c:	9002      	str	r0, [sp, #8]
   2369e:	7030      	strb	r0, [r6, #0]
   236a0:	1c70      	adds	r0, r6, #1
   236a2:	2555      	movs	r5, #85	@ 0x55
   236a4:	462a      	mov	r2, r5
   236a6:	f006 ff67 	bl	2a578 <__aeabi_memcpy>
   236aa:	ac1a      	add	r4, sp, #104	@ 0x68
   236ac:	1c60      	adds	r0, r4, #1
   236ae:	2111      	movs	r1, #17
   236b0:	9001      	str	r0, [sp, #4]
   236b2:	f006 fda1 	bl	2a1f8 <__aeabi_memclr>
   236b6:	9802      	ldr	r0, [sp, #8]
   236b8:	7020      	strb	r0, [r4, #0]
   236ba:	2204      	movs	r2, #4
   236bc:	4630      	mov	r0, r6
   236be:	4629      	mov	r1, r5
   236c0:	f7fc fd6a 	bl	20198 <_ZN9allow_pin12dynamic_type23Buffer$LT$B$C$_$C$_$GT$5allow17h46e9d4014db1dcceE>
   236c4:	07c0      	lsls	r0, r0, #31
   236c6:	d10f      	bne.n	236e8 <_ZN20complex_dynamic_type3app17h8107ab0f23997b29E+0x58>
   236c8:	a81a      	add	r0, sp, #104	@ 0x68
   236ca:	2111      	movs	r1, #17
   236cc:	2203      	movs	r2, #3
   236ce:	f7fc fd63 	bl	20198 <_ZN9allow_pin12dynamic_type23Buffer$LT$B$C$_$C$_$GT$5allow17h46e9d4014db1dcceE>
   236d2:	07c0      	lsls	r0, r0, #31
   236d4:	d108      	bne.n	236e8 <_ZN20complex_dynamic_type3app17h8107ab0f23997b29E+0x58>
   236d6:	4832      	ldr	r0, [pc, #200]	@ (237a0 <_ZN20complex_dynamic_type3app17h8107ab0f23997b29E+0x110>)
   236d8:	2602      	movs	r6, #2
   236da:	2500      	movs	r5, #0
   236dc:	4631      	mov	r1, r6
   236de:	4632      	mov	r2, r6
   236e0:	462b      	mov	r3, r5
   236e2:	df02      	svc	2
   236e4:	287f      	cmp	r0, #127	@ 0x7f
   236e6:	d823      	bhi.n	23730 <_ZN20complex_dynamic_type3app17h8107ab0f23997b29E+0xa0>
   236e8:	2001      	movs	r0, #1
   236ea:	9a03      	ldr	r2, [sp, #12]
   236ec:	7010      	strb	r0, [r2, #0]
   236ee:	6051      	str	r1, [r2, #4]
   236f0:	a81a      	add	r0, sp, #104	@ 0x68
   236f2:	7800      	ldrb	r0, [r0, #0]
   236f4:	2802      	cmp	r0, #2
   236f6:	d00c      	beq.n	23712 <_ZN20complex_dynamic_type3app17h8107ab0f23997b29E+0x82>
   236f8:	2803      	cmp	r0, #3
   236fa:	d105      	bne.n	23708 <_ZN20complex_dynamic_type3app17h8107ab0f23997b29E+0x78>
   236fc:	4828      	ldr	r0, [pc, #160]	@ (237a0 <_ZN20complex_dynamic_type3app17h8107ab0f23997b29E+0x110>)
   236fe:	2102      	movs	r1, #2
   23700:	2200      	movs	r2, #0
   23702:	4613      	mov	r3, r2
   23704:	df03      	svc	3
   23706:	e004      	b.n	23712 <_ZN20complex_dynamic_type3app17h8107ab0f23997b29E+0x82>
   23708:	4825      	ldr	r0, [pc, #148]	@ (237a0 <_ZN20complex_dynamic_type3app17h8107ab0f23997b29E+0x110>)
   2370a:	2102      	movs	r1, #2
   2370c:	2200      	movs	r2, #0
   2370e:	4613      	mov	r3, r2
   23710:	df04      	svc	4
   23712:	a804      	add	r0, sp, #16
   23714:	7805      	ldrb	r5, [r0, #0]
   23716:	2d02      	cmp	r5, #2
   23718:	d008      	beq.n	2372c <_ZN20complex_dynamic_type3app17h8107ab0f23997b29E+0x9c>
   2371a:	4821      	ldr	r0, [pc, #132]	@ (237a0 <_ZN20complex_dynamic_type3app17h8107ab0f23997b29E+0x110>)
   2371c:	2102      	movs	r1, #2
   2371e:	2200      	movs	r2, #0
   23720:	4613      	mov	r3, r2
   23722:	2d03      	cmp	r5, #3
   23724:	d101      	bne.n	2372a <_ZN20complex_dynamic_type3app17h8107ab0f23997b29E+0x9a>
   23726:	df03      	svc	3
   23728:	e000      	b.n	2372c <_ZN20complex_dynamic_type3app17h8107ab0f23997b29E+0x9c>
   2372a:	df04      	svc	4
   2372c:	b01f      	add	sp, #124	@ 0x7c
   2372e:	bdf0      	pop	{r4, r5, r6, r7, pc}
   23730:	a804      	add	r0, sp, #16
   23732:	7800      	ldrb	r0, [r0, #0]
   23734:	2802      	cmp	r0, #2
   23736:	d00c      	beq.n	23752 <_ZN20complex_dynamic_type3app17h8107ab0f23997b29E+0xc2>
   23738:	2803      	cmp	r0, #3
   2373a:	d105      	bne.n	23748 <_ZN20complex_dynamic_type3app17h8107ab0f23997b29E+0xb8>
   2373c:	4818      	ldr	r0, [pc, #96]	@ (237a0 <_ZN20complex_dynamic_type3app17h8107ab0f23997b29E+0x110>)
   2373e:	2102      	movs	r1, #2
   23740:	2200      	movs	r2, #0
   23742:	4613      	mov	r3, r2
   23744:	df03      	svc	3
   23746:	e004      	b.n	23752 <_ZN20complex_dynamic_type3app17h8107ab0f23997b29E+0xc2>
   23748:	4815      	ldr	r0, [pc, #84]	@ (237a0 <_ZN20complex_dynamic_type3app17h8107ab0f23997b29E+0x110>)
   2374a:	2102      	movs	r1, #2
   2374c:	2200      	movs	r2, #0
   2374e:	4613      	mov	r3, r2
   23750:	df04      	svc	4
   23752:	a804      	add	r0, sp, #16
   23754:	7006      	strb	r6, [r0, #0]
   23756:	a81a      	add	r0, sp, #104	@ 0x68
   23758:	7800      	ldrb	r0, [r0, #0]
   2375a:	2803      	cmp	r0, #3
   2375c:	d009      	beq.n	23772 <_ZN20complex_dynamic_type3app17h8107ab0f23997b29E+0xe2>
   2375e:	2802      	cmp	r0, #2
   23760:	d10e      	bne.n	23780 <_ZN20complex_dynamic_type3app17h8107ab0f23997b29E+0xf0>
   23762:	9c03      	ldr	r4, [sp, #12]
   23764:	1c60      	adds	r0, r4, #1
   23766:	2211      	movs	r2, #17
   23768:	9901      	ldr	r1, [sp, #4]
   2376a:	f006 ff05 	bl	2a578 <__aeabi_memcpy>
   2376e:	7025      	strb	r5, [r4, #0]
   23770:	e7dc      	b.n	2372c <_ZN20complex_dynamic_type3app17h8107ab0f23997b29E+0x9c>
   23772:	462e      	mov	r6, r5
   23774:	480a      	ldr	r0, [pc, #40]	@ (237a0 <_ZN20complex_dynamic_type3app17h8107ab0f23997b29E+0x110>)
   23776:	2102      	movs	r1, #2
   23778:	2200      	movs	r2, #0
   2377a:	4613      	mov	r3, r2
   2377c:	df03      	svc	3
   2377e:	e005      	b.n	2378c <_ZN20complex_dynamic_type3app17h8107ab0f23997b29E+0xfc>
   23780:	462e      	mov	r6, r5
   23782:	4807      	ldr	r0, [pc, #28]	@ (237a0 <_ZN20complex_dynamic_type3app17h8107ab0f23997b29E+0x110>)
   23784:	2102      	movs	r1, #2
   23786:	2200      	movs	r2, #0
   23788:	4613      	mov	r3, r2
   2378a:	df04      	svc	4
   2378c:	a804      	add	r0, sp, #16
   2378e:	7805      	ldrb	r5, [r0, #0]
   23790:	9c03      	ldr	r4, [sp, #12]
   23792:	1c60      	adds	r0, r4, #1
   23794:	2211      	movs	r2, #17
   23796:	9901      	ldr	r1, [sp, #4]
   23798:	f006 feee 	bl	2a578 <__aeabi_memcpy>
   2379c:	7026      	strb	r6, [r4, #0]
   2379e:	e7ba      	b.n	23716 <_ZN20complex_dynamic_type3app17h8107ab0f23997b29E+0x86>
   237a0:	00000c89 	.word	0x00000c89

000237a4 <_ZN20complex_dynamic_type3app17h85d139267e8fe921E>:
   237a4:	b5f0      	push	{r4, r5, r6, r7, lr}
   237a6:	af03      	add	r7, sp, #12
   237a8:	b0ab      	sub	sp, #172	@ 0xac
   237aa:	9003      	str	r0, [sp, #12]
   237ac:	a804      	add	r0, sp, #16
   237ae:	2402      	movs	r4, #2
   237b0:	7004      	strb	r4, [r0, #0]
   237b2:	1c46      	adds	r6, r0, #1
   237b4:	223a      	movs	r2, #58	@ 0x3a
   237b6:	9202      	str	r2, [sp, #8]
   237b8:	4630      	mov	r0, r6
   237ba:	f006 fedd 	bl	2a578 <__aeabi_memcpy>
   237be:	ad13      	add	r5, sp, #76	@ 0x4c
   237c0:	1c68      	adds	r0, r5, #1
   237c2:	215d      	movs	r1, #93	@ 0x5d
   237c4:	9001      	str	r0, [sp, #4]
   237c6:	f006 fd17 	bl	2a1f8 <__aeabi_memclr>
   237ca:	9400      	str	r4, [sp, #0]
   237cc:	702c      	strb	r4, [r5, #0]
   237ce:	483f      	ldr	r0, [pc, #252]	@ (238cc <_ZN20complex_dynamic_type3app17h85d139267e8fe921E+0x128>)
   237d0:	2100      	movs	r1, #0
   237d2:	4632      	mov	r2, r6
   237d4:	9b02      	ldr	r3, [sp, #8]
   237d6:	df04      	svc	4
   237d8:	2802      	cmp	r0, #2
   237da:	d104      	bne.n	237e6 <_ZN20complex_dynamic_type3app17h85d139267e8fe921E+0x42>
   237dc:	2001      	movs	r0, #1
   237de:	9a03      	ldr	r2, [sp, #12]
   237e0:	7010      	strb	r0, [r2, #0]
   237e2:	6051      	str	r1, [r2, #4]
   237e4:	e02d      	b.n	23842 <_ZN20complex_dynamic_type3app17h85d139267e8fe921E+0x9e>
   237e6:	9d03      	ldr	r5, [sp, #12]
   237e8:	a804      	add	r0, sp, #16
   237ea:	2104      	movs	r1, #4
   237ec:	7001      	strb	r1, [r0, #0]
   237ee:	4837      	ldr	r0, [pc, #220]	@ (238cc <_ZN20complex_dynamic_type3app17h85d139267e8fe921E+0x128>)
   237f0:	2105      	movs	r1, #5
   237f2:	235d      	movs	r3, #93	@ 0x5d
   237f4:	9c01      	ldr	r4, [sp, #4]
   237f6:	4622      	mov	r2, r4
   237f8:	df03      	svc	3
   237fa:	2802      	cmp	r0, #2
   237fc:	d10e      	bne.n	2381c <_ZN20complex_dynamic_type3app17h85d139267e8fe921E+0x78>
   237fe:	2001      	movs	r0, #1
   23800:	7028      	strb	r0, [r5, #0]
   23802:	6069      	str	r1, [r5, #4]
   23804:	a813      	add	r0, sp, #76	@ 0x4c
   23806:	7800      	ldrb	r0, [r0, #0]
   23808:	2802      	cmp	r0, #2
   2380a:	d01a      	beq.n	23842 <_ZN20complex_dynamic_type3app17h85d139267e8fe921E+0x9e>
   2380c:	2803      	cmp	r0, #3
   2380e:	d013      	beq.n	23838 <_ZN20complex_dynamic_type3app17h85d139267e8fe921E+0x94>
   23810:	482e      	ldr	r0, [pc, #184]	@ (238cc <_ZN20complex_dynamic_type3app17h85d139267e8fe921E+0x128>)
   23812:	2105      	movs	r1, #5
   23814:	2200      	movs	r2, #0
   23816:	4613      	mov	r3, r2
   23818:	df04      	svc	4
   2381a:	e012      	b.n	23842 <_ZN20complex_dynamic_type3app17h85d139267e8fe921E+0x9e>
   2381c:	a813      	add	r0, sp, #76	@ 0x4c
   2381e:	2103      	movs	r1, #3
   23820:	7001      	strb	r1, [r0, #0]
   23822:	482a      	ldr	r0, [pc, #168]	@ (238cc <_ZN20complex_dynamic_type3app17h85d139267e8fe921E+0x128>)
   23824:	2205      	movs	r2, #5
   23826:	2600      	movs	r6, #0
   23828:	4631      	mov	r1, r6
   2382a:	4633      	mov	r3, r6
   2382c:	df02      	svc	2
   2382e:	287f      	cmp	r0, #127	@ 0x7f
   23830:	d816      	bhi.n	23860 <_ZN20complex_dynamic_type3app17h85d139267e8fe921E+0xbc>
   23832:	2001      	movs	r0, #1
   23834:	7028      	strb	r0, [r5, #0]
   23836:	6069      	str	r1, [r5, #4]
   23838:	4824      	ldr	r0, [pc, #144]	@ (238cc <_ZN20complex_dynamic_type3app17h85d139267e8fe921E+0x128>)
   2383a:	2105      	movs	r1, #5
   2383c:	2200      	movs	r2, #0
   2383e:	4613      	mov	r3, r2
   23840:	df03      	svc	3
   23842:	a804      	add	r0, sp, #16
   23844:	7804      	ldrb	r4, [r0, #0]
   23846:	2c02      	cmp	r4, #2
   23848:	d008      	beq.n	2385c <_ZN20complex_dynamic_type3app17h85d139267e8fe921E+0xb8>
   2384a:	4820      	ldr	r0, [pc, #128]	@ (238cc <_ZN20complex_dynamic_type3app17h85d139267e8fe921E+0x128>)
   2384c:	2100      	movs	r1, #0
   2384e:	460a      	mov	r2, r1
   23850:	460b      	mov	r3, r1
   23852:	2c03      	cmp	r4, #3
   23854:	d101      	bne.n	2385a <_ZN20complex_dynamic_type3app17h85d139267e8fe921E+0xb6>
   23856:	df03      	svc	3
   23858:	e000      	b.n	2385c <_ZN20complex_dynamic_type3app17h85d139267e8fe921E+0xb8>
   2385a:	df04      	svc	4
   2385c:	b02b      	add	sp, #172	@ 0xac
   2385e:	bdf0      	pop	{r4, r5, r6, r7, pc}
   23860:	a804      	add	r0, sp, #16
   23862:	7800      	ldrb	r0, [r0, #0]
   23864:	2802      	cmp	r0, #2
   23866:	d01c      	beq.n	238a2 <_ZN20complex_dynamic_type3app17h85d139267e8fe921E+0xfe>
   23868:	2803      	cmp	r0, #3
   2386a:	d105      	bne.n	23878 <_ZN20complex_dynamic_type3app17h85d139267e8fe921E+0xd4>
   2386c:	4817      	ldr	r0, [pc, #92]	@ (238cc <_ZN20complex_dynamic_type3app17h85d139267e8fe921E+0x128>)
   2386e:	2100      	movs	r1, #0
   23870:	460a      	mov	r2, r1
   23872:	460b      	mov	r3, r1
   23874:	df03      	svc	3
   23876:	e004      	b.n	23882 <_ZN20complex_dynamic_type3app17h85d139267e8fe921E+0xde>
   23878:	4814      	ldr	r0, [pc, #80]	@ (238cc <_ZN20complex_dynamic_type3app17h85d139267e8fe921E+0x128>)
   2387a:	2100      	movs	r1, #0
   2387c:	460a      	mov	r2, r1
   2387e:	460b      	mov	r3, r1
   23880:	df04      	svc	4
   23882:	a804      	add	r0, sp, #16
   23884:	9900      	ldr	r1, [sp, #0]
   23886:	7001      	strb	r1, [r0, #0]
   23888:	a813      	add	r0, sp, #76	@ 0x4c
   2388a:	7800      	ldrb	r0, [r0, #0]
   2388c:	2803      	cmp	r0, #3
   2388e:	d008      	beq.n	238a2 <_ZN20complex_dynamic_type3app17h85d139267e8fe921E+0xfe>
   23890:	2802      	cmp	r0, #2
   23892:	d10c      	bne.n	238ae <_ZN20complex_dynamic_type3app17h85d139267e8fe921E+0x10a>
   23894:	1c68      	adds	r0, r5, #1
   23896:	225d      	movs	r2, #93	@ 0x5d
   23898:	4621      	mov	r1, r4
   2389a:	f006 fe6d 	bl	2a578 <__aeabi_memcpy>
   2389e:	702e      	strb	r6, [r5, #0]
   238a0:	e7dc      	b.n	2385c <_ZN20complex_dynamic_type3app17h85d139267e8fe921E+0xb8>
   238a2:	480a      	ldr	r0, [pc, #40]	@ (238cc <_ZN20complex_dynamic_type3app17h85d139267e8fe921E+0x128>)
   238a4:	2105      	movs	r1, #5
   238a6:	2200      	movs	r2, #0
   238a8:	4613      	mov	r3, r2
   238aa:	df03      	svc	3
   238ac:	e004      	b.n	238b8 <_ZN20complex_dynamic_type3app17h85d139267e8fe921E+0x114>
   238ae:	4807      	ldr	r0, [pc, #28]	@ (238cc <_ZN20complex_dynamic_type3app17h85d139267e8fe921E+0x128>)
   238b0:	2105      	movs	r1, #5
   238b2:	2200      	movs	r2, #0
   238b4:	4613      	mov	r3, r2
   238b6:	df04      	svc	4
   238b8:	a804      	add	r0, sp, #16
   238ba:	7804      	ldrb	r4, [r0, #0]
   238bc:	1c68      	adds	r0, r5, #1
   238be:	225d      	movs	r2, #93	@ 0x5d
   238c0:	9901      	ldr	r1, [sp, #4]
   238c2:	f006 fe59 	bl	2a578 <__aeabi_memcpy>
   238c6:	702e      	strb	r6, [r5, #0]
   238c8:	e7bd      	b.n	23846 <_ZN20complex_dynamic_type3app17h85d139267e8fe921E+0xa2>
   238ca:	46c0      	nop			@ (mov r8, r8)
   238cc:	000014a4 	.word	0x000014a4

000238d0 <_ZN20complex_dynamic_type3app17h881d767d3072134eE>:
   238d0:	b5f0      	push	{r4, r5, r6, r7, lr}
   238d2:	af03      	add	r7, sp, #12
   238d4:	b09b      	sub	sp, #108	@ 0x6c
   238d6:	9003      	str	r0, [sp, #12]
   238d8:	a804      	add	r0, sp, #16
   238da:	2402      	movs	r4, #2
   238dc:	7004      	strb	r4, [r0, #0]
   238de:	1c40      	adds	r0, r0, #1
   238e0:	9002      	str	r0, [sp, #8]
   238e2:	250e      	movs	r5, #14
   238e4:	462a      	mov	r2, r5
   238e6:	f006 fe47 	bl	2a578 <__aeabi_memcpy>
   238ea:	ae08      	add	r6, sp, #32
   238ec:	1c70      	adds	r0, r6, #1
   238ee:	2148      	movs	r1, #72	@ 0x48
   238f0:	9001      	str	r0, [sp, #4]
   238f2:	f006 fc81 	bl	2a1f8 <__aeabi_memclr>
   238f6:	9400      	str	r4, [sp, #0]
   238f8:	7034      	strb	r4, [r6, #0]
   238fa:	4841      	ldr	r0, [pc, #260]	@ (23a00 <_ZN20complex_dynamic_type3app17h881d767d3072134eE+0x130>)
   238fc:	2603      	movs	r6, #3
   238fe:	4631      	mov	r1, r6
   23900:	9a02      	ldr	r2, [sp, #8]
   23902:	462b      	mov	r3, r5
   23904:	df04      	svc	4
   23906:	2802      	cmp	r0, #2
   23908:	d104      	bne.n	23914 <_ZN20complex_dynamic_type3app17h881d767d3072134eE+0x44>
   2390a:	2001      	movs	r0, #1
   2390c:	9a03      	ldr	r2, [sp, #12]
   2390e:	7010      	strb	r0, [r2, #0]
   23910:	6051      	str	r1, [r2, #4]
   23912:	e02c      	b.n	2396e <_ZN20complex_dynamic_type3app17h881d767d3072134eE+0x9e>
   23914:	9d03      	ldr	r5, [sp, #12]
   23916:	a804      	add	r0, sp, #16
   23918:	2104      	movs	r1, #4
   2391a:	7001      	strb	r1, [r0, #0]
   2391c:	4838      	ldr	r0, [pc, #224]	@ (23a00 <_ZN20complex_dynamic_type3app17h881d767d3072134eE+0x130>)
   2391e:	2108      	movs	r1, #8
   23920:	2348      	movs	r3, #72	@ 0x48
   23922:	9c01      	ldr	r4, [sp, #4]
   23924:	4622      	mov	r2, r4
   23926:	df03      	svc	3
   23928:	2802      	cmp	r0, #2
   2392a:	d10e      	bne.n	2394a <_ZN20complex_dynamic_type3app17h881d767d3072134eE+0x7a>
   2392c:	2001      	movs	r0, #1
   2392e:	7028      	strb	r0, [r5, #0]
   23930:	6069      	str	r1, [r5, #4]
   23932:	a808      	add	r0, sp, #32
   23934:	7800      	ldrb	r0, [r0, #0]
   23936:	2802      	cmp	r0, #2
   23938:	d019      	beq.n	2396e <_ZN20complex_dynamic_type3app17h881d767d3072134eE+0x9e>
   2393a:	2803      	cmp	r0, #3
   2393c:	d012      	beq.n	23964 <_ZN20complex_dynamic_type3app17h881d767d3072134eE+0x94>
   2393e:	4830      	ldr	r0, [pc, #192]	@ (23a00 <_ZN20complex_dynamic_type3app17h881d767d3072134eE+0x130>)
   23940:	2108      	movs	r1, #8
   23942:	2200      	movs	r2, #0
   23944:	4613      	mov	r3, r2
   23946:	df04      	svc	4
   23948:	e011      	b.n	2396e <_ZN20complex_dynamic_type3app17h881d767d3072134eE+0x9e>
   2394a:	a808      	add	r0, sp, #32
   2394c:	7006      	strb	r6, [r0, #0]
   2394e:	482c      	ldr	r0, [pc, #176]	@ (23a00 <_ZN20complex_dynamic_type3app17h881d767d3072134eE+0x130>)
   23950:	2208      	movs	r2, #8
   23952:	2300      	movs	r3, #0
   23954:	4631      	mov	r1, r6
   23956:	9302      	str	r3, [sp, #8]
   23958:	df02      	svc	2
   2395a:	287f      	cmp	r0, #127	@ 0x7f
   2395c:	d816      	bhi.n	2398c <_ZN20complex_dynamic_type3app17h881d767d3072134eE+0xbc>
   2395e:	2001      	movs	r0, #1
   23960:	7028      	strb	r0, [r5, #0]
   23962:	6069      	str	r1, [r5, #4]
   23964:	4826      	ldr	r0, [pc, #152]	@ (23a00 <_ZN20complex_dynamic_type3app17h881d767d3072134eE+0x130>)
   23966:	2108      	movs	r1, #8
   23968:	2200      	movs	r2, #0
   2396a:	4613      	mov	r3, r2
   2396c:	df03      	svc	3
   2396e:	a804      	add	r0, sp, #16
   23970:	7804      	ldrb	r4, [r0, #0]
   23972:	2c02      	cmp	r4, #2
   23974:	d008      	beq.n	23988 <_ZN20complex_dynamic_type3app17h881d767d3072134eE+0xb8>
   23976:	4822      	ldr	r0, [pc, #136]	@ (23a00 <_ZN20complex_dynamic_type3app17h881d767d3072134eE+0x130>)
   23978:	2103      	movs	r1, #3
   2397a:	2200      	movs	r2, #0
   2397c:	4613      	mov	r3, r2
   2397e:	2c03      	cmp	r4, #3
   23980:	d101      	bne.n	23986 <_ZN20complex_dynamic_type3app17h881d767d3072134eE+0xb6>
   23982:	df03      	svc	3
   23984:	e000      	b.n	23988 <_ZN20complex_dynamic_type3app17h881d767d3072134eE+0xb8>
   23986:	df04      	svc	4
   23988:	b01b      	add	sp, #108	@ 0x6c
   2398a:	bdf0      	pop	{r4, r5, r6, r7, pc}
   2398c:	a804      	add	r0, sp, #16
   2398e:	7800      	ldrb	r0, [r0, #0]
   23990:	2802      	cmp	r0, #2
   23992:	d01d      	beq.n	239d0 <_ZN20complex_dynamic_type3app17h881d767d3072134eE+0x100>
   23994:	2803      	cmp	r0, #3
   23996:	d105      	bne.n	239a4 <_ZN20complex_dynamic_type3app17h881d767d3072134eE+0xd4>
   23998:	4819      	ldr	r0, [pc, #100]	@ (23a00 <_ZN20complex_dynamic_type3app17h881d767d3072134eE+0x130>)
   2399a:	2103      	movs	r1, #3
   2399c:	2200      	movs	r2, #0
   2399e:	4613      	mov	r3, r2
   239a0:	df03      	svc	3
   239a2:	e004      	b.n	239ae <_ZN20complex_dynamic_type3app17h881d767d3072134eE+0xde>
   239a4:	4816      	ldr	r0, [pc, #88]	@ (23a00 <_ZN20complex_dynamic_type3app17h881d767d3072134eE+0x130>)
   239a6:	2103      	movs	r1, #3
   239a8:	2200      	movs	r2, #0
   239aa:	4613      	mov	r3, r2
   239ac:	df04      	svc	4
   239ae:	9900      	ldr	r1, [sp, #0]
   239b0:	a804      	add	r0, sp, #16
   239b2:	7001      	strb	r1, [r0, #0]
   239b4:	a808      	add	r0, sp, #32
   239b6:	7800      	ldrb	r0, [r0, #0]
   239b8:	2803      	cmp	r0, #3
   239ba:	d009      	beq.n	239d0 <_ZN20complex_dynamic_type3app17h881d767d3072134eE+0x100>
   239bc:	2802      	cmp	r0, #2
   239be:	d10e      	bne.n	239de <_ZN20complex_dynamic_type3app17h881d767d3072134eE+0x10e>
   239c0:	1c68      	adds	r0, r5, #1
   239c2:	2248      	movs	r2, #72	@ 0x48
   239c4:	4621      	mov	r1, r4
   239c6:	f006 fdd7 	bl	2a578 <__aeabi_memcpy>
   239ca:	9802      	ldr	r0, [sp, #8]
   239cc:	7028      	strb	r0, [r5, #0]
   239ce:	e7db      	b.n	23988 <_ZN20complex_dynamic_type3app17h881d767d3072134eE+0xb8>
   239d0:	4626      	mov	r6, r4
   239d2:	480b      	ldr	r0, [pc, #44]	@ (23a00 <_ZN20complex_dynamic_type3app17h881d767d3072134eE+0x130>)
   239d4:	2108      	movs	r1, #8
   239d6:	2200      	movs	r2, #0
   239d8:	4613      	mov	r3, r2
   239da:	df03      	svc	3
   239dc:	e005      	b.n	239ea <_ZN20complex_dynamic_type3app17h881d767d3072134eE+0x11a>
   239de:	4626      	mov	r6, r4
   239e0:	4807      	ldr	r0, [pc, #28]	@ (23a00 <_ZN20complex_dynamic_type3app17h881d767d3072134eE+0x130>)
   239e2:	2108      	movs	r1, #8
   239e4:	2200      	movs	r2, #0
   239e6:	4613      	mov	r3, r2
   239e8:	df04      	svc	4
   239ea:	a804      	add	r0, sp, #16
   239ec:	7804      	ldrb	r4, [r0, #0]
   239ee:	1c68      	adds	r0, r5, #1
   239f0:	2248      	movs	r2, #72	@ 0x48
   239f2:	4631      	mov	r1, r6
   239f4:	f006 fdc0 	bl	2a578 <__aeabi_memcpy>
   239f8:	9802      	ldr	r0, [sp, #8]
   239fa:	7028      	strb	r0, [r5, #0]
   239fc:	e7b9      	b.n	23972 <_ZN20complex_dynamic_type3app17h881d767d3072134eE+0xa2>
   239fe:	46c0      	nop			@ (mov r8, r8)
   23a00:	000012d1 	.word	0x000012d1

00023a04 <_ZN20complex_dynamic_type3app17h8a833151dba88244E>:
   23a04:	b5f0      	push	{r4, r5, r6, r7, lr}
   23a06:	af03      	add	r7, sp, #12
   23a08:	b09f      	sub	sp, #124	@ 0x7c
   23a0a:	9002      	str	r0, [sp, #8]
   23a0c:	a803      	add	r0, sp, #12
   23a0e:	2602      	movs	r6, #2
   23a10:	7006      	strb	r6, [r0, #0]
   23a12:	1c40      	adds	r0, r0, #1
   23a14:	9001      	str	r0, [sp, #4]
   23a16:	2550      	movs	r5, #80	@ 0x50
   23a18:	462a      	mov	r2, r5
   23a1a:	f006 fdad 	bl	2a578 <__aeabi_memcpy>
   23a1e:	ac18      	add	r4, sp, #96	@ 0x60
   23a20:	1c60      	adds	r0, r4, #1
   23a22:	211b      	movs	r1, #27
   23a24:	9000      	str	r0, [sp, #0]
   23a26:	f006 fbe7 	bl	2a1f8 <__aeabi_memclr>
   23a2a:	7026      	strb	r6, [r4, #0]
   23a2c:	483f      	ldr	r0, [pc, #252]	@ (23b2c <_ZN20complex_dynamic_type3app17h8a833151dba88244E+0x128>)
   23a2e:	2601      	movs	r6, #1
   23a30:	4631      	mov	r1, r6
   23a32:	9a01      	ldr	r2, [sp, #4]
   23a34:	462b      	mov	r3, r5
   23a36:	df04      	svc	4
   23a38:	2802      	cmp	r0, #2
   23a3a:	d103      	bne.n	23a44 <_ZN20complex_dynamic_type3app17h8a833151dba88244E+0x40>
   23a3c:	9802      	ldr	r0, [sp, #8]
   23a3e:	7006      	strb	r6, [r0, #0]
   23a40:	6041      	str	r1, [r0, #4]
   23a42:	e02c      	b.n	23a9e <_ZN20complex_dynamic_type3app17h8a833151dba88244E+0x9a>
   23a44:	9d02      	ldr	r5, [sp, #8]
   23a46:	a803      	add	r0, sp, #12
   23a48:	2104      	movs	r1, #4
   23a4a:	7001      	strb	r1, [r0, #0]
   23a4c:	4837      	ldr	r0, [pc, #220]	@ (23b2c <_ZN20complex_dynamic_type3app17h8a833151dba88244E+0x128>)
   23a4e:	2102      	movs	r1, #2
   23a50:	231b      	movs	r3, #27
   23a52:	9a00      	ldr	r2, [sp, #0]
   23a54:	df03      	svc	3
   23a56:	2802      	cmp	r0, #2
   23a58:	d10d      	bne.n	23a76 <_ZN20complex_dynamic_type3app17h8a833151dba88244E+0x72>
   23a5a:	702e      	strb	r6, [r5, #0]
   23a5c:	6069      	str	r1, [r5, #4]
   23a5e:	a818      	add	r0, sp, #96	@ 0x60
   23a60:	7800      	ldrb	r0, [r0, #0]
   23a62:	2802      	cmp	r0, #2
   23a64:	d01b      	beq.n	23a9e <_ZN20complex_dynamic_type3app17h8a833151dba88244E+0x9a>
   23a66:	2803      	cmp	r0, #3
   23a68:	d014      	beq.n	23a94 <_ZN20complex_dynamic_type3app17h8a833151dba88244E+0x90>
   23a6a:	4830      	ldr	r0, [pc, #192]	@ (23b2c <_ZN20complex_dynamic_type3app17h8a833151dba88244E+0x128>)
   23a6c:	2102      	movs	r1, #2
   23a6e:	2200      	movs	r2, #0
   23a70:	4613      	mov	r3, r2
   23a72:	df04      	svc	4
   23a74:	e013      	b.n	23a9e <_ZN20complex_dynamic_type3app17h8a833151dba88244E+0x9a>
   23a76:	a818      	add	r0, sp, #96	@ 0x60
   23a78:	2103      	movs	r1, #3
   23a7a:	7001      	strb	r1, [r0, #0]
   23a7c:	482b      	ldr	r0, [pc, #172]	@ (23b2c <_ZN20complex_dynamic_type3app17h8a833151dba88244E+0x128>)
   23a7e:	2401      	movs	r4, #1
   23a80:	2602      	movs	r6, #2
   23a82:	2300      	movs	r3, #0
   23a84:	4621      	mov	r1, r4
   23a86:	4632      	mov	r2, r6
   23a88:	9301      	str	r3, [sp, #4]
   23a8a:	df02      	svc	2
   23a8c:	287f      	cmp	r0, #127	@ 0x7f
   23a8e:	d815      	bhi.n	23abc <_ZN20complex_dynamic_type3app17h8a833151dba88244E+0xb8>
   23a90:	702c      	strb	r4, [r5, #0]
   23a92:	6069      	str	r1, [r5, #4]
   23a94:	4825      	ldr	r0, [pc, #148]	@ (23b2c <_ZN20complex_dynamic_type3app17h8a833151dba88244E+0x128>)
   23a96:	2102      	movs	r1, #2
   23a98:	2200      	movs	r2, #0
   23a9a:	4613      	mov	r3, r2
   23a9c:	df03      	svc	3
   23a9e:	a803      	add	r0, sp, #12
   23aa0:	7804      	ldrb	r4, [r0, #0]
   23aa2:	2c02      	cmp	r4, #2
   23aa4:	d008      	beq.n	23ab8 <_ZN20complex_dynamic_type3app17h8a833151dba88244E+0xb4>
   23aa6:	4821      	ldr	r0, [pc, #132]	@ (23b2c <_ZN20complex_dynamic_type3app17h8a833151dba88244E+0x128>)
   23aa8:	2101      	movs	r1, #1
   23aaa:	2200      	movs	r2, #0
   23aac:	4613      	mov	r3, r2
   23aae:	2c03      	cmp	r4, #3
   23ab0:	d101      	bne.n	23ab6 <_ZN20complex_dynamic_type3app17h8a833151dba88244E+0xb2>
   23ab2:	df03      	svc	3
   23ab4:	e000      	b.n	23ab8 <_ZN20complex_dynamic_type3app17h8a833151dba88244E+0xb4>
   23ab6:	df04      	svc	4
   23ab8:	b01f      	add	sp, #124	@ 0x7c
   23aba:	bdf0      	pop	{r4, r5, r6, r7, pc}
   23abc:	a803      	add	r0, sp, #12
   23abe:	7800      	ldrb	r0, [r0, #0]
   23ac0:	2802      	cmp	r0, #2
   23ac2:	9c00      	ldr	r4, [sp, #0]
   23ac4:	d01c      	beq.n	23b00 <_ZN20complex_dynamic_type3app17h8a833151dba88244E+0xfc>
   23ac6:	2803      	cmp	r0, #3
   23ac8:	d105      	bne.n	23ad6 <_ZN20complex_dynamic_type3app17h8a833151dba88244E+0xd2>
   23aca:	4818      	ldr	r0, [pc, #96]	@ (23b2c <_ZN20complex_dynamic_type3app17h8a833151dba88244E+0x128>)
   23acc:	2101      	movs	r1, #1
   23ace:	2200      	movs	r2, #0
   23ad0:	4613      	mov	r3, r2
   23ad2:	df03      	svc	3
   23ad4:	e004      	b.n	23ae0 <_ZN20complex_dynamic_type3app17h8a833151dba88244E+0xdc>
   23ad6:	4815      	ldr	r0, [pc, #84]	@ (23b2c <_ZN20complex_dynamic_type3app17h8a833151dba88244E+0x128>)
   23ad8:	2101      	movs	r1, #1
   23ada:	2200      	movs	r2, #0
   23adc:	4613      	mov	r3, r2
   23ade:	df04      	svc	4
   23ae0:	a803      	add	r0, sp, #12
   23ae2:	7006      	strb	r6, [r0, #0]
   23ae4:	a818      	add	r0, sp, #96	@ 0x60
   23ae6:	7800      	ldrb	r0, [r0, #0]
   23ae8:	2803      	cmp	r0, #3
   23aea:	d009      	beq.n	23b00 <_ZN20complex_dynamic_type3app17h8a833151dba88244E+0xfc>
   23aec:	2802      	cmp	r0, #2
   23aee:	d10d      	bne.n	23b0c <_ZN20complex_dynamic_type3app17h8a833151dba88244E+0x108>
   23af0:	1c68      	adds	r0, r5, #1
   23af2:	221b      	movs	r2, #27
   23af4:	4621      	mov	r1, r4
   23af6:	f006 fd3f 	bl	2a578 <__aeabi_memcpy>
   23afa:	9801      	ldr	r0, [sp, #4]
   23afc:	7028      	strb	r0, [r5, #0]
   23afe:	e7db      	b.n	23ab8 <_ZN20complex_dynamic_type3app17h8a833151dba88244E+0xb4>
   23b00:	480a      	ldr	r0, [pc, #40]	@ (23b2c <_ZN20complex_dynamic_type3app17h8a833151dba88244E+0x128>)
   23b02:	2102      	movs	r1, #2
   23b04:	2200      	movs	r2, #0
   23b06:	4613      	mov	r3, r2
   23b08:	df03      	svc	3
   23b0a:	e004      	b.n	23b16 <_ZN20complex_dynamic_type3app17h8a833151dba88244E+0x112>
   23b0c:	4807      	ldr	r0, [pc, #28]	@ (23b2c <_ZN20complex_dynamic_type3app17h8a833151dba88244E+0x128>)
   23b0e:	2102      	movs	r1, #2
   23b10:	2200      	movs	r2, #0
   23b12:	4613      	mov	r3, r2
   23b14:	df04      	svc	4
   23b16:	a803      	add	r0, sp, #12
   23b18:	7804      	ldrb	r4, [r0, #0]
   23b1a:	1c68      	adds	r0, r5, #1
   23b1c:	221b      	movs	r2, #27
   23b1e:	9900      	ldr	r1, [sp, #0]
   23b20:	f006 fd2a 	bl	2a578 <__aeabi_memcpy>
   23b24:	9801      	ldr	r0, [sp, #4]
   23b26:	7028      	strb	r0, [r5, #0]
   23b28:	e7bb      	b.n	23aa2 <_ZN20complex_dynamic_type3app17h8a833151dba88244E+0x9e>
   23b2a:	46c0      	nop			@ (mov r8, r8)
   23b2c:	000003d9 	.word	0x000003d9

00023b30 <_ZN20complex_dynamic_type3app17h8b79a8a920e9bbc8E>:
   23b30:	b5f0      	push	{r4, r5, r6, r7, lr}
   23b32:	af03      	add	r7, sp, #12
   23b34:	b0a7      	sub	sp, #156	@ 0x9c
   23b36:	9003      	str	r0, [sp, #12]
   23b38:	a804      	add	r0, sp, #16
   23b3a:	2402      	movs	r4, #2
   23b3c:	7004      	strb	r4, [r0, #0]
   23b3e:	1c46      	adds	r6, r0, #1
   23b40:	2263      	movs	r2, #99	@ 0x63
   23b42:	9202      	str	r2, [sp, #8]
   23b44:	4630      	mov	r0, r6
   23b46:	f006 fd17 	bl	2a578 <__aeabi_memcpy>
   23b4a:	ad1d      	add	r5, sp, #116	@ 0x74
   23b4c:	1c68      	adds	r0, r5, #1
   23b4e:	2127      	movs	r1, #39	@ 0x27
   23b50:	9001      	str	r0, [sp, #4]
   23b52:	f006 fb51 	bl	2a1f8 <__aeabi_memclr>
   23b56:	9400      	str	r4, [sp, #0]
   23b58:	702c      	strb	r4, [r5, #0]
   23b5a:	483f      	ldr	r0, [pc, #252]	@ (23c58 <_ZN20complex_dynamic_type3app17h8b79a8a920e9bbc8E+0x128>)
   23b5c:	2107      	movs	r1, #7
   23b5e:	4632      	mov	r2, r6
   23b60:	9b02      	ldr	r3, [sp, #8]
   23b62:	df04      	svc	4
   23b64:	2802      	cmp	r0, #2
   23b66:	d104      	bne.n	23b72 <_ZN20complex_dynamic_type3app17h8b79a8a920e9bbc8E+0x42>
   23b68:	2001      	movs	r0, #1
   23b6a:	9a03      	ldr	r2, [sp, #12]
   23b6c:	7010      	strb	r0, [r2, #0]
   23b6e:	6051      	str	r1, [r2, #4]
   23b70:	e02d      	b.n	23bce <_ZN20complex_dynamic_type3app17h8b79a8a920e9bbc8E+0x9e>
   23b72:	9d03      	ldr	r5, [sp, #12]
   23b74:	a804      	add	r0, sp, #16
   23b76:	2104      	movs	r1, #4
   23b78:	7001      	strb	r1, [r0, #0]
   23b7a:	4837      	ldr	r0, [pc, #220]	@ (23c58 <_ZN20complex_dynamic_type3app17h8b79a8a920e9bbc8E+0x128>)
   23b7c:	2100      	movs	r1, #0
   23b7e:	2327      	movs	r3, #39	@ 0x27
   23b80:	9c01      	ldr	r4, [sp, #4]
   23b82:	4622      	mov	r2, r4
   23b84:	df03      	svc	3
   23b86:	2802      	cmp	r0, #2
   23b88:	d10e      	bne.n	23ba8 <_ZN20complex_dynamic_type3app17h8b79a8a920e9bbc8E+0x78>
   23b8a:	2001      	movs	r0, #1
   23b8c:	7028      	strb	r0, [r5, #0]
   23b8e:	6069      	str	r1, [r5, #4]
   23b90:	a81d      	add	r0, sp, #116	@ 0x74
   23b92:	7800      	ldrb	r0, [r0, #0]
   23b94:	2802      	cmp	r0, #2
   23b96:	d01a      	beq.n	23bce <_ZN20complex_dynamic_type3app17h8b79a8a920e9bbc8E+0x9e>
   23b98:	2803      	cmp	r0, #3
   23b9a:	d013      	beq.n	23bc4 <_ZN20complex_dynamic_type3app17h8b79a8a920e9bbc8E+0x94>
   23b9c:	482e      	ldr	r0, [pc, #184]	@ (23c58 <_ZN20complex_dynamic_type3app17h8b79a8a920e9bbc8E+0x128>)
   23b9e:	2100      	movs	r1, #0
   23ba0:	460a      	mov	r2, r1
   23ba2:	460b      	mov	r3, r1
   23ba4:	df04      	svc	4
   23ba6:	e012      	b.n	23bce <_ZN20complex_dynamic_type3app17h8b79a8a920e9bbc8E+0x9e>
   23ba8:	a81d      	add	r0, sp, #116	@ 0x74
   23baa:	2103      	movs	r1, #3
   23bac:	7001      	strb	r1, [r0, #0]
   23bae:	482a      	ldr	r0, [pc, #168]	@ (23c58 <_ZN20complex_dynamic_type3app17h8b79a8a920e9bbc8E+0x128>)
   23bb0:	2107      	movs	r1, #7
   23bb2:	2600      	movs	r6, #0
   23bb4:	4632      	mov	r2, r6
   23bb6:	4633      	mov	r3, r6
   23bb8:	df02      	svc	2
   23bba:	287f      	cmp	r0, #127	@ 0x7f
   23bbc:	d816      	bhi.n	23bec <_ZN20complex_dynamic_type3app17h8b79a8a920e9bbc8E+0xbc>
   23bbe:	2001      	movs	r0, #1
   23bc0:	7028      	strb	r0, [r5, #0]
   23bc2:	6069      	str	r1, [r5, #4]
   23bc4:	4824      	ldr	r0, [pc, #144]	@ (23c58 <_ZN20complex_dynamic_type3app17h8b79a8a920e9bbc8E+0x128>)
   23bc6:	2100      	movs	r1, #0
   23bc8:	460a      	mov	r2, r1
   23bca:	460b      	mov	r3, r1
   23bcc:	df03      	svc	3
   23bce:	a804      	add	r0, sp, #16
   23bd0:	7804      	ldrb	r4, [r0, #0]
   23bd2:	2c02      	cmp	r4, #2
   23bd4:	d008      	beq.n	23be8 <_ZN20complex_dynamic_type3app17h8b79a8a920e9bbc8E+0xb8>
   23bd6:	4820      	ldr	r0, [pc, #128]	@ (23c58 <_ZN20complex_dynamic_type3app17h8b79a8a920e9bbc8E+0x128>)
   23bd8:	2107      	movs	r1, #7
   23bda:	2200      	movs	r2, #0
   23bdc:	4613      	mov	r3, r2
   23bde:	2c03      	cmp	r4, #3
   23be0:	d101      	bne.n	23be6 <_ZN20complex_dynamic_type3app17h8b79a8a920e9bbc8E+0xb6>
   23be2:	df03      	svc	3
   23be4:	e000      	b.n	23be8 <_ZN20complex_dynamic_type3app17h8b79a8a920e9bbc8E+0xb8>
   23be6:	df04      	svc	4
   23be8:	b027      	add	sp, #156	@ 0x9c
   23bea:	bdf0      	pop	{r4, r5, r6, r7, pc}
   23bec:	a804      	add	r0, sp, #16
   23bee:	7800      	ldrb	r0, [r0, #0]
   23bf0:	2802      	cmp	r0, #2
   23bf2:	d01c      	beq.n	23c2e <_ZN20complex_dynamic_type3app17h8b79a8a920e9bbc8E+0xfe>
   23bf4:	2803      	cmp	r0, #3
   23bf6:	d105      	bne.n	23c04 <_ZN20complex_dynamic_type3app17h8b79a8a920e9bbc8E+0xd4>
   23bf8:	4817      	ldr	r0, [pc, #92]	@ (23c58 <_ZN20complex_dynamic_type3app17h8b79a8a920e9bbc8E+0x128>)
   23bfa:	2107      	movs	r1, #7
   23bfc:	2200      	movs	r2, #0
   23bfe:	4613      	mov	r3, r2
   23c00:	df03      	svc	3
   23c02:	e004      	b.n	23c0e <_ZN20complex_dynamic_type3app17h8b79a8a920e9bbc8E+0xde>
   23c04:	4814      	ldr	r0, [pc, #80]	@ (23c58 <_ZN20complex_dynamic_type3app17h8b79a8a920e9bbc8E+0x128>)
   23c06:	2107      	movs	r1, #7
   23c08:	2200      	movs	r2, #0
   23c0a:	4613      	mov	r3, r2
   23c0c:	df04      	svc	4
   23c0e:	a804      	add	r0, sp, #16
   23c10:	9900      	ldr	r1, [sp, #0]
   23c12:	7001      	strb	r1, [r0, #0]
   23c14:	a81d      	add	r0, sp, #116	@ 0x74
   23c16:	7800      	ldrb	r0, [r0, #0]
   23c18:	2803      	cmp	r0, #3
   23c1a:	d008      	beq.n	23c2e <_ZN20complex_dynamic_type3app17h8b79a8a920e9bbc8E+0xfe>
   23c1c:	2802      	cmp	r0, #2
   23c1e:	d10c      	bne.n	23c3a <_ZN20complex_dynamic_type3app17h8b79a8a920e9bbc8E+0x10a>
   23c20:	1c68      	adds	r0, r5, #1
   23c22:	2227      	movs	r2, #39	@ 0x27
   23c24:	4621      	mov	r1, r4
   23c26:	f006 fca7 	bl	2a578 <__aeabi_memcpy>
   23c2a:	702e      	strb	r6, [r5, #0]
   23c2c:	e7dc      	b.n	23be8 <_ZN20complex_dynamic_type3app17h8b79a8a920e9bbc8E+0xb8>
   23c2e:	480a      	ldr	r0, [pc, #40]	@ (23c58 <_ZN20complex_dynamic_type3app17h8b79a8a920e9bbc8E+0x128>)
   23c30:	2100      	movs	r1, #0
   23c32:	460a      	mov	r2, r1
   23c34:	460b      	mov	r3, r1
   23c36:	df03      	svc	3
   23c38:	e004      	b.n	23c44 <_ZN20complex_dynamic_type3app17h8b79a8a920e9bbc8E+0x114>
   23c3a:	4807      	ldr	r0, [pc, #28]	@ (23c58 <_ZN20complex_dynamic_type3app17h8b79a8a920e9bbc8E+0x128>)
   23c3c:	2100      	movs	r1, #0
   23c3e:	460a      	mov	r2, r1
   23c40:	460b      	mov	r3, r1
   23c42:	df04      	svc	4
   23c44:	a804      	add	r0, sp, #16
   23c46:	7804      	ldrb	r4, [r0, #0]
   23c48:	1c68      	adds	r0, r5, #1
   23c4a:	2227      	movs	r2, #39	@ 0x27
   23c4c:	9901      	ldr	r1, [sp, #4]
   23c4e:	f006 fc93 	bl	2a578 <__aeabi_memcpy>
   23c52:	702e      	strb	r6, [r5, #0]
   23c54:	e7bd      	b.n	23bd2 <_ZN20complex_dynamic_type3app17h8b79a8a920e9bbc8E+0xa2>
   23c56:	46c0      	nop			@ (mov r8, r8)
   23c58:	00001e54 	.word	0x00001e54

00023c5c <_ZN20complex_dynamic_type3app17h983f1fab8c256a46E>:
   23c5c:	b5f0      	push	{r4, r5, r6, r7, lr}
   23c5e:	af03      	add	r7, sp, #12
   23c60:	b093      	sub	sp, #76	@ 0x4c
   23c62:	9003      	str	r0, [sp, #12]
   23c64:	a804      	add	r0, sp, #16
   23c66:	2402      	movs	r4, #2
   23c68:	7004      	strb	r4, [r0, #0]
   23c6a:	1c46      	adds	r6, r0, #1
   23c6c:	222b      	movs	r2, #43	@ 0x2b
   23c6e:	9202      	str	r2, [sp, #8]
   23c70:	4630      	mov	r0, r6
   23c72:	f006 fc81 	bl	2a578 <__aeabi_memcpy>
   23c76:	ad0f      	add	r5, sp, #60	@ 0x3c
   23c78:	1c68      	adds	r0, r5, #1
   23c7a:	210d      	movs	r1, #13
   23c7c:	9001      	str	r0, [sp, #4]
   23c7e:	f006 fabb 	bl	2a1f8 <__aeabi_memclr>
   23c82:	9400      	str	r4, [sp, #0]
   23c84:	702c      	strb	r4, [r5, #0]
   23c86:	483f      	ldr	r0, [pc, #252]	@ (23d84 <_ZN20complex_dynamic_type3app17h983f1fab8c256a46E+0x128>)
   23c88:	2106      	movs	r1, #6
   23c8a:	4632      	mov	r2, r6
   23c8c:	9b02      	ldr	r3, [sp, #8]
   23c8e:	df04      	svc	4
   23c90:	2802      	cmp	r0, #2
   23c92:	d104      	bne.n	23c9e <_ZN20complex_dynamic_type3app17h983f1fab8c256a46E+0x42>
   23c94:	2001      	movs	r0, #1
   23c96:	9a03      	ldr	r2, [sp, #12]
   23c98:	7010      	strb	r0, [r2, #0]
   23c9a:	6051      	str	r1, [r2, #4]
   23c9c:	e02d      	b.n	23cfa <_ZN20complex_dynamic_type3app17h983f1fab8c256a46E+0x9e>
   23c9e:	9d03      	ldr	r5, [sp, #12]
   23ca0:	a804      	add	r0, sp, #16
   23ca2:	2104      	movs	r1, #4
   23ca4:	7001      	strb	r1, [r0, #0]
   23ca6:	4837      	ldr	r0, [pc, #220]	@ (23d84 <_ZN20complex_dynamic_type3app17h983f1fab8c256a46E+0x128>)
   23ca8:	2100      	movs	r1, #0
   23caa:	230d      	movs	r3, #13
   23cac:	9c01      	ldr	r4, [sp, #4]
   23cae:	4622      	mov	r2, r4
   23cb0:	df03      	svc	3
   23cb2:	2802      	cmp	r0, #2
   23cb4:	d10e      	bne.n	23cd4 <_ZN20complex_dynamic_type3app17h983f1fab8c256a46E+0x78>
   23cb6:	2001      	movs	r0, #1
   23cb8:	7028      	strb	r0, [r5, #0]
   23cba:	6069      	str	r1, [r5, #4]
   23cbc:	a80f      	add	r0, sp, #60	@ 0x3c
   23cbe:	7800      	ldrb	r0, [r0, #0]
   23cc0:	2802      	cmp	r0, #2
   23cc2:	d01a      	beq.n	23cfa <_ZN20complex_dynamic_type3app17h983f1fab8c256a46E+0x9e>
   23cc4:	2803      	cmp	r0, #3
   23cc6:	d013      	beq.n	23cf0 <_ZN20complex_dynamic_type3app17h983f1fab8c256a46E+0x94>
   23cc8:	482e      	ldr	r0, [pc, #184]	@ (23d84 <_ZN20complex_dynamic_type3app17h983f1fab8c256a46E+0x128>)
   23cca:	2100      	movs	r1, #0
   23ccc:	460a      	mov	r2, r1
   23cce:	460b      	mov	r3, r1
   23cd0:	df04      	svc	4
   23cd2:	e012      	b.n	23cfa <_ZN20complex_dynamic_type3app17h983f1fab8c256a46E+0x9e>
   23cd4:	a80f      	add	r0, sp, #60	@ 0x3c
   23cd6:	2103      	movs	r1, #3
   23cd8:	7001      	strb	r1, [r0, #0]
   23cda:	482a      	ldr	r0, [pc, #168]	@ (23d84 <_ZN20complex_dynamic_type3app17h983f1fab8c256a46E+0x128>)
   23cdc:	2106      	movs	r1, #6
   23cde:	2600      	movs	r6, #0
   23ce0:	4632      	mov	r2, r6
   23ce2:	4633      	mov	r3, r6
   23ce4:	df02      	svc	2
   23ce6:	287f      	cmp	r0, #127	@ 0x7f
   23ce8:	d816      	bhi.n	23d18 <_ZN20complex_dynamic_type3app17h983f1fab8c256a46E+0xbc>
   23cea:	2001      	movs	r0, #1
   23cec:	7028      	strb	r0, [r5, #0]
   23cee:	6069      	str	r1, [r5, #4]
   23cf0:	4824      	ldr	r0, [pc, #144]	@ (23d84 <_ZN20complex_dynamic_type3app17h983f1fab8c256a46E+0x128>)
   23cf2:	2100      	movs	r1, #0
   23cf4:	460a      	mov	r2, r1
   23cf6:	460b      	mov	r3, r1
   23cf8:	df03      	svc	3
   23cfa:	a804      	add	r0, sp, #16
   23cfc:	7804      	ldrb	r4, [r0, #0]
   23cfe:	2c02      	cmp	r4, #2
   23d00:	d008      	beq.n	23d14 <_ZN20complex_dynamic_type3app17h983f1fab8c256a46E+0xb8>
   23d02:	4820      	ldr	r0, [pc, #128]	@ (23d84 <_ZN20complex_dynamic_type3app17h983f1fab8c256a46E+0x128>)
   23d04:	2106      	movs	r1, #6
   23d06:	2200      	movs	r2, #0
   23d08:	4613      	mov	r3, r2
   23d0a:	2c03      	cmp	r4, #3
   23d0c:	d101      	bne.n	23d12 <_ZN20complex_dynamic_type3app17h983f1fab8c256a46E+0xb6>
   23d0e:	df03      	svc	3
   23d10:	e000      	b.n	23d14 <_ZN20complex_dynamic_type3app17h983f1fab8c256a46E+0xb8>
   23d12:	df04      	svc	4
   23d14:	b013      	add	sp, #76	@ 0x4c
   23d16:	bdf0      	pop	{r4, r5, r6, r7, pc}
   23d18:	a804      	add	r0, sp, #16
   23d1a:	7800      	ldrb	r0, [r0, #0]
   23d1c:	2802      	cmp	r0, #2
   23d1e:	d01c      	beq.n	23d5a <_ZN20complex_dynamic_type3app17h983f1fab8c256a46E+0xfe>
   23d20:	2803      	cmp	r0, #3
   23d22:	d105      	bne.n	23d30 <_ZN20complex_dynamic_type3app17h983f1fab8c256a46E+0xd4>
   23d24:	4817      	ldr	r0, [pc, #92]	@ (23d84 <_ZN20complex_dynamic_type3app17h983f1fab8c256a46E+0x128>)
   23d26:	2106      	movs	r1, #6
   23d28:	2200      	movs	r2, #0
   23d2a:	4613      	mov	r3, r2
   23d2c:	df03      	svc	3
   23d2e:	e004      	b.n	23d3a <_ZN20complex_dynamic_type3app17h983f1fab8c256a46E+0xde>
   23d30:	4814      	ldr	r0, [pc, #80]	@ (23d84 <_ZN20complex_dynamic_type3app17h983f1fab8c256a46E+0x128>)
   23d32:	2106      	movs	r1, #6
   23d34:	2200      	movs	r2, #0
   23d36:	4613      	mov	r3, r2
   23d38:	df04      	svc	4
   23d3a:	a804      	add	r0, sp, #16
   23d3c:	9900      	ldr	r1, [sp, #0]
   23d3e:	7001      	strb	r1, [r0, #0]
   23d40:	a80f      	add	r0, sp, #60	@ 0x3c
   23d42:	7800      	ldrb	r0, [r0, #0]
   23d44:	2803      	cmp	r0, #3
   23d46:	d008      	beq.n	23d5a <_ZN20complex_dynamic_type3app17h983f1fab8c256a46E+0xfe>
   23d48:	2802      	cmp	r0, #2
   23d4a:	d10c      	bne.n	23d66 <_ZN20complex_dynamic_type3app17h983f1fab8c256a46E+0x10a>
   23d4c:	1c68      	adds	r0, r5, #1
   23d4e:	220d      	movs	r2, #13
   23d50:	4621      	mov	r1, r4
   23d52:	f006 fc11 	bl	2a578 <__aeabi_memcpy>
   23d56:	702e      	strb	r6, [r5, #0]
   23d58:	e7dc      	b.n	23d14 <_ZN20complex_dynamic_type3app17h983f1fab8c256a46E+0xb8>
   23d5a:	480a      	ldr	r0, [pc, #40]	@ (23d84 <_ZN20complex_dynamic_type3app17h983f1fab8c256a46E+0x128>)
   23d5c:	2100      	movs	r1, #0
   23d5e:	460a      	mov	r2, r1
   23d60:	460b      	mov	r3, r1
   23d62:	df03      	svc	3
   23d64:	e004      	b.n	23d70 <_ZN20complex_dynamic_type3app17h983f1fab8c256a46E+0x114>
   23d66:	4807      	ldr	r0, [pc, #28]	@ (23d84 <_ZN20complex_dynamic_type3app17h983f1fab8c256a46E+0x128>)
   23d68:	2100      	movs	r1, #0
   23d6a:	460a      	mov	r2, r1
   23d6c:	460b      	mov	r3, r1
   23d6e:	df04      	svc	4
   23d70:	a804      	add	r0, sp, #16
   23d72:	7804      	ldrb	r4, [r0, #0]
   23d74:	1c68      	adds	r0, r5, #1
   23d76:	220d      	movs	r2, #13
   23d78:	9901      	ldr	r1, [sp, #4]
   23d7a:	f006 fbfd 	bl	2a578 <__aeabi_memcpy>
   23d7e:	702e      	strb	r6, [r5, #0]
   23d80:	e7bd      	b.n	23cfe <_ZN20complex_dynamic_type3app17h983f1fab8c256a46E+0xa2>
   23d82:	46c0      	nop			@ (mov r8, r8)
   23d84:	00001465 	.word	0x00001465

00023d88 <_ZN20complex_dynamic_type3app17h98ad835171ac22b0E>:
   23d88:	b5f0      	push	{r4, r5, r6, r7, lr}
   23d8a:	af03      	add	r7, sp, #12
   23d8c:	b09d      	sub	sp, #116	@ 0x74
   23d8e:	9004      	str	r0, [sp, #16]
   23d90:	a805      	add	r0, sp, #20
   23d92:	2502      	movs	r5, #2
   23d94:	7005      	strb	r5, [r0, #0]
   23d96:	1c40      	adds	r0, r0, #1
   23d98:	9003      	str	r0, [sp, #12]
   23d9a:	261b      	movs	r6, #27
   23d9c:	4632      	mov	r2, r6
   23d9e:	f006 fbeb 	bl	2a578 <__aeabi_memcpy>
   23da2:	ac0c      	add	r4, sp, #48	@ 0x30
   23da4:	1c60      	adds	r0, r4, #1
   23da6:	2141      	movs	r1, #65	@ 0x41
   23da8:	9002      	str	r0, [sp, #8]
   23daa:	f006 fa25 	bl	2a1f8 <__aeabi_memclr>
   23dae:	9501      	str	r5, [sp, #4]
   23db0:	7025      	strb	r5, [r4, #0]
   23db2:	2005      	movs	r0, #5
   23db4:	0184      	lsls	r4, r0, #6
   23db6:	2108      	movs	r1, #8
   23db8:	4620      	mov	r0, r4
   23dba:	9a03      	ldr	r2, [sp, #12]
   23dbc:	4633      	mov	r3, r6
   23dbe:	df04      	svc	4
   23dc0:	2802      	cmp	r0, #2
   23dc2:	d104      	bne.n	23dce <_ZN20complex_dynamic_type3app17h98ad835171ac22b0E+0x46>
   23dc4:	2001      	movs	r0, #1
   23dc6:	9a04      	ldr	r2, [sp, #16]
   23dc8:	7010      	strb	r0, [r2, #0]
   23dca:	6051      	str	r1, [r2, #4]
   23dcc:	e02d      	b.n	23e2a <_ZN20complex_dynamic_type3app17h98ad835171ac22b0E+0xa2>
   23dce:	9e04      	ldr	r6, [sp, #16]
   23dd0:	a805      	add	r0, sp, #20
   23dd2:	2104      	movs	r1, #4
   23dd4:	7001      	strb	r1, [r0, #0]
   23dd6:	2109      	movs	r1, #9
   23dd8:	2341      	movs	r3, #65	@ 0x41
   23dda:	4620      	mov	r0, r4
   23ddc:	9d02      	ldr	r5, [sp, #8]
   23dde:	462a      	mov	r2, r5
   23de0:	df03      	svc	3
   23de2:	2802      	cmp	r0, #2
   23de4:	d10e      	bne.n	23e04 <_ZN20complex_dynamic_type3app17h98ad835171ac22b0E+0x7c>
   23de6:	2001      	movs	r0, #1
   23de8:	7030      	strb	r0, [r6, #0]
   23dea:	6071      	str	r1, [r6, #4]
   23dec:	a80c      	add	r0, sp, #48	@ 0x30
   23dee:	7800      	ldrb	r0, [r0, #0]
   23df0:	2802      	cmp	r0, #2
   23df2:	d01a      	beq.n	23e2a <_ZN20complex_dynamic_type3app17h98ad835171ac22b0E+0xa2>
   23df4:	2803      	cmp	r0, #3
   23df6:	d013      	beq.n	23e20 <_ZN20complex_dynamic_type3app17h98ad835171ac22b0E+0x98>
   23df8:	2109      	movs	r1, #9
   23dfa:	2200      	movs	r2, #0
   23dfc:	4620      	mov	r0, r4
   23dfe:	4613      	mov	r3, r2
   23e00:	df04      	svc	4
   23e02:	e012      	b.n	23e2a <_ZN20complex_dynamic_type3app17h98ad835171ac22b0E+0xa2>
   23e04:	a80c      	add	r0, sp, #48	@ 0x30
   23e06:	2103      	movs	r1, #3
   23e08:	7001      	strb	r1, [r0, #0]
   23e0a:	2108      	movs	r1, #8
   23e0c:	2209      	movs	r2, #9
   23e0e:	2300      	movs	r3, #0
   23e10:	4620      	mov	r0, r4
   23e12:	9303      	str	r3, [sp, #12]
   23e14:	df02      	svc	2
   23e16:	287f      	cmp	r0, #127	@ 0x7f
   23e18:	d817      	bhi.n	23e4a <_ZN20complex_dynamic_type3app17h98ad835171ac22b0E+0xc2>
   23e1a:	2001      	movs	r0, #1
   23e1c:	7030      	strb	r0, [r6, #0]
   23e1e:	6071      	str	r1, [r6, #4]
   23e20:	2109      	movs	r1, #9
   23e22:	2200      	movs	r2, #0
   23e24:	4620      	mov	r0, r4
   23e26:	4613      	mov	r3, r2
   23e28:	df03      	svc	3
   23e2a:	4625      	mov	r5, r4
   23e2c:	a805      	add	r0, sp, #20
   23e2e:	7804      	ldrb	r4, [r0, #0]
   23e30:	2c02      	cmp	r4, #2
   23e32:	d008      	beq.n	23e46 <_ZN20complex_dynamic_type3app17h98ad835171ac22b0E+0xbe>
   23e34:	2108      	movs	r1, #8
   23e36:	2200      	movs	r2, #0
   23e38:	4628      	mov	r0, r5
   23e3a:	4613      	mov	r3, r2
   23e3c:	2c03      	cmp	r4, #3
   23e3e:	d101      	bne.n	23e44 <_ZN20complex_dynamic_type3app17h98ad835171ac22b0E+0xbc>
   23e40:	df03      	svc	3
   23e42:	e000      	b.n	23e46 <_ZN20complex_dynamic_type3app17h98ad835171ac22b0E+0xbe>
   23e44:	df04      	svc	4
   23e46:	b01d      	add	sp, #116	@ 0x74
   23e48:	bdf0      	pop	{r4, r5, r6, r7, pc}
   23e4a:	a805      	add	r0, sp, #20
   23e4c:	7800      	ldrb	r0, [r0, #0]
   23e4e:	2802      	cmp	r0, #2
   23e50:	d01b      	beq.n	23e8a <_ZN20complex_dynamic_type3app17h98ad835171ac22b0E+0x102>
   23e52:	2108      	movs	r1, #8
   23e54:	2200      	movs	r2, #0
   23e56:	2803      	cmp	r0, #3
   23e58:	d103      	bne.n	23e62 <_ZN20complex_dynamic_type3app17h98ad835171ac22b0E+0xda>
   23e5a:	4620      	mov	r0, r4
   23e5c:	4613      	mov	r3, r2
   23e5e:	df03      	svc	3
   23e60:	e002      	b.n	23e68 <_ZN20complex_dynamic_type3app17h98ad835171ac22b0E+0xe0>
   23e62:	4620      	mov	r0, r4
   23e64:	4613      	mov	r3, r2
   23e66:	df04      	svc	4
   23e68:	a805      	add	r0, sp, #20
   23e6a:	9901      	ldr	r1, [sp, #4]
   23e6c:	7001      	strb	r1, [r0, #0]
   23e6e:	a80c      	add	r0, sp, #48	@ 0x30
   23e70:	7800      	ldrb	r0, [r0, #0]
   23e72:	2803      	cmp	r0, #3
   23e74:	d009      	beq.n	23e8a <_ZN20complex_dynamic_type3app17h98ad835171ac22b0E+0x102>
   23e76:	2802      	cmp	r0, #2
   23e78:	d10e      	bne.n	23e98 <_ZN20complex_dynamic_type3app17h98ad835171ac22b0E+0x110>
   23e7a:	1c70      	adds	r0, r6, #1
   23e7c:	2241      	movs	r2, #65	@ 0x41
   23e7e:	4629      	mov	r1, r5
   23e80:	f006 fb7a 	bl	2a578 <__aeabi_memcpy>
   23e84:	9803      	ldr	r0, [sp, #12]
   23e86:	7030      	strb	r0, [r6, #0]
   23e88:	e7dd      	b.n	23e46 <_ZN20complex_dynamic_type3app17h98ad835171ac22b0E+0xbe>
   23e8a:	2109      	movs	r1, #9
   23e8c:	2200      	movs	r2, #0
   23e8e:	4625      	mov	r5, r4
   23e90:	4620      	mov	r0, r4
   23e92:	4613      	mov	r3, r2
   23e94:	df03      	svc	3
   23e96:	e005      	b.n	23ea4 <_ZN20complex_dynamic_type3app17h98ad835171ac22b0E+0x11c>
   23e98:	2109      	movs	r1, #9
   23e9a:	2200      	movs	r2, #0
   23e9c:	4625      	mov	r5, r4
   23e9e:	4620      	mov	r0, r4
   23ea0:	4613      	mov	r3, r2
   23ea2:	df04      	svc	4
   23ea4:	a805      	add	r0, sp, #20
   23ea6:	7804      	ldrb	r4, [r0, #0]
   23ea8:	1c70      	adds	r0, r6, #1
   23eaa:	2241      	movs	r2, #65	@ 0x41
   23eac:	9902      	ldr	r1, [sp, #8]
   23eae:	f006 fb63 	bl	2a578 <__aeabi_memcpy>
   23eb2:	9803      	ldr	r0, [sp, #12]
   23eb4:	7030      	strb	r0, [r6, #0]
   23eb6:	e7bb      	b.n	23e30 <_ZN20complex_dynamic_type3app17h98ad835171ac22b0E+0xa8>

00023eb8 <_ZN20complex_dynamic_type3app17h9bcb08ce6ca4a26bE>:
   23eb8:	b5f0      	push	{r4, r5, r6, r7, lr}
   23eba:	af03      	add	r7, sp, #12
   23ebc:	b097      	sub	sp, #92	@ 0x5c
   23ebe:	9004      	str	r0, [sp, #16]
   23ec0:	a805      	add	r0, sp, #20
   23ec2:	2402      	movs	r4, #2
   23ec4:	7004      	strb	r4, [r0, #0]
   23ec6:	1c46      	adds	r6, r0, #1
   23ec8:	2229      	movs	r2, #41	@ 0x29
   23eca:	9203      	str	r2, [sp, #12]
   23ecc:	4630      	mov	r0, r6
   23ece:	f006 fb53 	bl	2a578 <__aeabi_memcpy>
   23ed2:	ad10      	add	r5, sp, #64	@ 0x40
   23ed4:	1c68      	adds	r0, r5, #1
   23ed6:	211a      	movs	r1, #26
   23ed8:	9002      	str	r0, [sp, #8]
   23eda:	f006 f98d 	bl	2a1f8 <__aeabi_memclr>
   23ede:	9401      	str	r4, [sp, #4]
   23ee0:	702c      	strb	r4, [r5, #0]
   23ee2:	483e      	ldr	r0, [pc, #248]	@ (23fdc <_ZN20complex_dynamic_type3app17h9bcb08ce6ca4a26bE+0x124>)
   23ee4:	2105      	movs	r1, #5
   23ee6:	4632      	mov	r2, r6
   23ee8:	9b03      	ldr	r3, [sp, #12]
   23eea:	df04      	svc	4
   23eec:	2802      	cmp	r0, #2
   23eee:	d104      	bne.n	23efa <_ZN20complex_dynamic_type3app17h9bcb08ce6ca4a26bE+0x42>
   23ef0:	2001      	movs	r0, #1
   23ef2:	9a04      	ldr	r2, [sp, #16]
   23ef4:	7010      	strb	r0, [r2, #0]
   23ef6:	6051      	str	r1, [r2, #4]
   23ef8:	e02c      	b.n	23f54 <_ZN20complex_dynamic_type3app17h9bcb08ce6ca4a26bE+0x9c>
   23efa:	9d04      	ldr	r5, [sp, #16]
   23efc:	a805      	add	r0, sp, #20
   23efe:	2104      	movs	r1, #4
   23f00:	7001      	strb	r1, [r0, #0]
   23f02:	4836      	ldr	r0, [pc, #216]	@ (23fdc <_ZN20complex_dynamic_type3app17h9bcb08ce6ca4a26bE+0x124>)
   23f04:	2403      	movs	r4, #3
   23f06:	231a      	movs	r3, #26
   23f08:	4621      	mov	r1, r4
   23f0a:	9a02      	ldr	r2, [sp, #8]
   23f0c:	df03      	svc	3
   23f0e:	2802      	cmp	r0, #2
   23f10:	d10e      	bne.n	23f30 <_ZN20complex_dynamic_type3app17h9bcb08ce6ca4a26bE+0x78>
   23f12:	2001      	movs	r0, #1
   23f14:	7028      	strb	r0, [r5, #0]
   23f16:	6069      	str	r1, [r5, #4]
   23f18:	a810      	add	r0, sp, #64	@ 0x40
   23f1a:	7800      	ldrb	r0, [r0, #0]
   23f1c:	2802      	cmp	r0, #2
   23f1e:	d019      	beq.n	23f54 <_ZN20complex_dynamic_type3app17h9bcb08ce6ca4a26bE+0x9c>
   23f20:	2803      	cmp	r0, #3
   23f22:	d012      	beq.n	23f4a <_ZN20complex_dynamic_type3app17h9bcb08ce6ca4a26bE+0x92>
   23f24:	482d      	ldr	r0, [pc, #180]	@ (23fdc <_ZN20complex_dynamic_type3app17h9bcb08ce6ca4a26bE+0x124>)
   23f26:	2103      	movs	r1, #3
   23f28:	2200      	movs	r2, #0
   23f2a:	4613      	mov	r3, r2
   23f2c:	df04      	svc	4
   23f2e:	e011      	b.n	23f54 <_ZN20complex_dynamic_type3app17h9bcb08ce6ca4a26bE+0x9c>
   23f30:	a810      	add	r0, sp, #64	@ 0x40
   23f32:	7004      	strb	r4, [r0, #0]
   23f34:	4829      	ldr	r0, [pc, #164]	@ (23fdc <_ZN20complex_dynamic_type3app17h9bcb08ce6ca4a26bE+0x124>)
   23f36:	2105      	movs	r1, #5
   23f38:	2600      	movs	r6, #0
   23f3a:	4622      	mov	r2, r4
   23f3c:	4633      	mov	r3, r6
   23f3e:	df02      	svc	2
   23f40:	287f      	cmp	r0, #127	@ 0x7f
   23f42:	d816      	bhi.n	23f72 <_ZN20complex_dynamic_type3app17h9bcb08ce6ca4a26bE+0xba>
   23f44:	2001      	movs	r0, #1
   23f46:	7028      	strb	r0, [r5, #0]
   23f48:	6069      	str	r1, [r5, #4]
   23f4a:	4824      	ldr	r0, [pc, #144]	@ (23fdc <_ZN20complex_dynamic_type3app17h9bcb08ce6ca4a26bE+0x124>)
   23f4c:	2103      	movs	r1, #3
   23f4e:	2200      	movs	r2, #0
   23f50:	4613      	mov	r3, r2
   23f52:	df03      	svc	3
   23f54:	a805      	add	r0, sp, #20
   23f56:	7804      	ldrb	r4, [r0, #0]
   23f58:	2c02      	cmp	r4, #2
   23f5a:	d008      	beq.n	23f6e <_ZN20complex_dynamic_type3app17h9bcb08ce6ca4a26bE+0xb6>
   23f5c:	481f      	ldr	r0, [pc, #124]	@ (23fdc <_ZN20complex_dynamic_type3app17h9bcb08ce6ca4a26bE+0x124>)
   23f5e:	2105      	movs	r1, #5
   23f60:	2200      	movs	r2, #0
   23f62:	4613      	mov	r3, r2
   23f64:	2c03      	cmp	r4, #3
   23f66:	d101      	bne.n	23f6c <_ZN20complex_dynamic_type3app17h9bcb08ce6ca4a26bE+0xb4>
   23f68:	df03      	svc	3
   23f6a:	e000      	b.n	23f6e <_ZN20complex_dynamic_type3app17h9bcb08ce6ca4a26bE+0xb6>
   23f6c:	df04      	svc	4
   23f6e:	b017      	add	sp, #92	@ 0x5c
   23f70:	bdf0      	pop	{r4, r5, r6, r7, pc}
   23f72:	a805      	add	r0, sp, #20
   23f74:	7800      	ldrb	r0, [r0, #0]
   23f76:	2802      	cmp	r0, #2
   23f78:	d01c      	beq.n	23fb4 <_ZN20complex_dynamic_type3app17h9bcb08ce6ca4a26bE+0xfc>
   23f7a:	2803      	cmp	r0, #3
   23f7c:	d105      	bne.n	23f8a <_ZN20complex_dynamic_type3app17h9bcb08ce6ca4a26bE+0xd2>
   23f7e:	4817      	ldr	r0, [pc, #92]	@ (23fdc <_ZN20complex_dynamic_type3app17h9bcb08ce6ca4a26bE+0x124>)
   23f80:	2105      	movs	r1, #5
   23f82:	2200      	movs	r2, #0
   23f84:	4613      	mov	r3, r2
   23f86:	df03      	svc	3
   23f88:	e004      	b.n	23f94 <_ZN20complex_dynamic_type3app17h9bcb08ce6ca4a26bE+0xdc>
   23f8a:	4814      	ldr	r0, [pc, #80]	@ (23fdc <_ZN20complex_dynamic_type3app17h9bcb08ce6ca4a26bE+0x124>)
   23f8c:	2105      	movs	r1, #5
   23f8e:	2200      	movs	r2, #0
   23f90:	4613      	mov	r3, r2
   23f92:	df04      	svc	4
   23f94:	9901      	ldr	r1, [sp, #4]
   23f96:	a805      	add	r0, sp, #20
   23f98:	7001      	strb	r1, [r0, #0]
   23f9a:	a810      	add	r0, sp, #64	@ 0x40
   23f9c:	7800      	ldrb	r0, [r0, #0]
   23f9e:	2803      	cmp	r0, #3
   23fa0:	d008      	beq.n	23fb4 <_ZN20complex_dynamic_type3app17h9bcb08ce6ca4a26bE+0xfc>
   23fa2:	2802      	cmp	r0, #2
   23fa4:	d10c      	bne.n	23fc0 <_ZN20complex_dynamic_type3app17h9bcb08ce6ca4a26bE+0x108>
   23fa6:	1c68      	adds	r0, r5, #1
   23fa8:	221a      	movs	r2, #26
   23faa:	9902      	ldr	r1, [sp, #8]
   23fac:	f006 fae4 	bl	2a578 <__aeabi_memcpy>
   23fb0:	702e      	strb	r6, [r5, #0]
   23fb2:	e7dc      	b.n	23f6e <_ZN20complex_dynamic_type3app17h9bcb08ce6ca4a26bE+0xb6>
   23fb4:	4809      	ldr	r0, [pc, #36]	@ (23fdc <_ZN20complex_dynamic_type3app17h9bcb08ce6ca4a26bE+0x124>)
   23fb6:	2103      	movs	r1, #3
   23fb8:	2200      	movs	r2, #0
   23fba:	4613      	mov	r3, r2
   23fbc:	df03      	svc	3
   23fbe:	e004      	b.n	23fca <_ZN20complex_dynamic_type3app17h9bcb08ce6ca4a26bE+0x112>
   23fc0:	4806      	ldr	r0, [pc, #24]	@ (23fdc <_ZN20complex_dynamic_type3app17h9bcb08ce6ca4a26bE+0x124>)
   23fc2:	2103      	movs	r1, #3
   23fc4:	2200      	movs	r2, #0
   23fc6:	4613      	mov	r3, r2
   23fc8:	df04      	svc	4
   23fca:	a805      	add	r0, sp, #20
   23fcc:	7804      	ldrb	r4, [r0, #0]
   23fce:	1c68      	adds	r0, r5, #1
   23fd0:	221a      	movs	r2, #26
   23fd2:	9902      	ldr	r1, [sp, #8]
   23fd4:	f006 fad0 	bl	2a578 <__aeabi_memcpy>
   23fd8:	702e      	strb	r6, [r5, #0]
   23fda:	e7bd      	b.n	23f58 <_ZN20complex_dynamic_type3app17h9bcb08ce6ca4a26bE+0xa0>
   23fdc:	00002048 	.word	0x00002048

00023fe0 <_ZN20complex_dynamic_type3app17h9dc40ab664db814aE>:
   23fe0:	b5f0      	push	{r4, r5, r6, r7, lr}
   23fe2:	af03      	add	r7, sp, #12
   23fe4:	b097      	sub	sp, #92	@ 0x5c
   23fe6:	9002      	str	r0, [sp, #8]
   23fe8:	a803      	add	r0, sp, #12
   23fea:	2602      	movs	r6, #2
   23fec:	7006      	strb	r6, [r0, #0]
   23fee:	1c40      	adds	r0, r0, #1
   23ff0:	9001      	str	r0, [sp, #4]
   23ff2:	2523      	movs	r5, #35	@ 0x23
   23ff4:	462a      	mov	r2, r5
   23ff6:	f006 fabf 	bl	2a578 <__aeabi_memcpy>
   23ffa:	ac0c      	add	r4, sp, #48	@ 0x30
   23ffc:	1c60      	adds	r0, r4, #1
   23ffe:	212b      	movs	r1, #43	@ 0x2b
   24000:	9000      	str	r0, [sp, #0]
   24002:	f006 f8f9 	bl	2a1f8 <__aeabi_memclr>
   24006:	7026      	strb	r6, [r4, #0]
   24008:	4841      	ldr	r0, [pc, #260]	@ (24110 <_ZN20complex_dynamic_type3app17h9dc40ab664db814aE+0x130>)
   2400a:	4631      	mov	r1, r6
   2400c:	9a01      	ldr	r2, [sp, #4]
   2400e:	462b      	mov	r3, r5
   24010:	df04      	svc	4
   24012:	2802      	cmp	r0, #2
   24014:	d104      	bne.n	24020 <_ZN20complex_dynamic_type3app17h9dc40ab664db814aE+0x40>
   24016:	2001      	movs	r0, #1
   24018:	9a02      	ldr	r2, [sp, #8]
   2401a:	7010      	strb	r0, [r2, #0]
   2401c:	6051      	str	r1, [r2, #4]
   2401e:	e02e      	b.n	2407e <_ZN20complex_dynamic_type3app17h9dc40ab664db814aE+0x9e>
   24020:	9c02      	ldr	r4, [sp, #8]
   24022:	a803      	add	r0, sp, #12
   24024:	2104      	movs	r1, #4
   24026:	7001      	strb	r1, [r0, #0]
   24028:	4839      	ldr	r0, [pc, #228]	@ (24110 <_ZN20complex_dynamic_type3app17h9dc40ab664db814aE+0x130>)
   2402a:	2100      	movs	r1, #0
   2402c:	232b      	movs	r3, #43	@ 0x2b
   2402e:	9d00      	ldr	r5, [sp, #0]
   24030:	462a      	mov	r2, r5
   24032:	df03      	svc	3
   24034:	2802      	cmp	r0, #2
   24036:	d10e      	bne.n	24056 <_ZN20complex_dynamic_type3app17h9dc40ab664db814aE+0x76>
   24038:	2001      	movs	r0, #1
   2403a:	7020      	strb	r0, [r4, #0]
   2403c:	6061      	str	r1, [r4, #4]
   2403e:	a80c      	add	r0, sp, #48	@ 0x30
   24040:	7800      	ldrb	r0, [r0, #0]
   24042:	2802      	cmp	r0, #2
   24044:	d01b      	beq.n	2407e <_ZN20complex_dynamic_type3app17h9dc40ab664db814aE+0x9e>
   24046:	2803      	cmp	r0, #3
   24048:	d014      	beq.n	24074 <_ZN20complex_dynamic_type3app17h9dc40ab664db814aE+0x94>
   2404a:	4831      	ldr	r0, [pc, #196]	@ (24110 <_ZN20complex_dynamic_type3app17h9dc40ab664db814aE+0x130>)
   2404c:	2100      	movs	r1, #0
   2404e:	460a      	mov	r2, r1
   24050:	460b      	mov	r3, r1
   24052:	df04      	svc	4
   24054:	e013      	b.n	2407e <_ZN20complex_dynamic_type3app17h9dc40ab664db814aE+0x9e>
   24056:	a80c      	add	r0, sp, #48	@ 0x30
   24058:	2103      	movs	r1, #3
   2405a:	7001      	strb	r1, [r0, #0]
   2405c:	482c      	ldr	r0, [pc, #176]	@ (24110 <_ZN20complex_dynamic_type3app17h9dc40ab664db814aE+0x130>)
   2405e:	2602      	movs	r6, #2
   24060:	2200      	movs	r2, #0
   24062:	4631      	mov	r1, r6
   24064:	9201      	str	r2, [sp, #4]
   24066:	4613      	mov	r3, r2
   24068:	df02      	svc	2
   2406a:	287f      	cmp	r0, #127	@ 0x7f
   2406c:	d816      	bhi.n	2409c <_ZN20complex_dynamic_type3app17h9dc40ab664db814aE+0xbc>
   2406e:	2001      	movs	r0, #1
   24070:	7020      	strb	r0, [r4, #0]
   24072:	6061      	str	r1, [r4, #4]
   24074:	4826      	ldr	r0, [pc, #152]	@ (24110 <_ZN20complex_dynamic_type3app17h9dc40ab664db814aE+0x130>)
   24076:	2100      	movs	r1, #0
   24078:	460a      	mov	r2, r1
   2407a:	460b      	mov	r3, r1
   2407c:	df03      	svc	3
   2407e:	a803      	add	r0, sp, #12
   24080:	7804      	ldrb	r4, [r0, #0]
   24082:	2c02      	cmp	r4, #2
   24084:	d008      	beq.n	24098 <_ZN20complex_dynamic_type3app17h9dc40ab664db814aE+0xb8>
   24086:	4822      	ldr	r0, [pc, #136]	@ (24110 <_ZN20complex_dynamic_type3app17h9dc40ab664db814aE+0x130>)
   24088:	2102      	movs	r1, #2
   2408a:	2200      	movs	r2, #0
   2408c:	4613      	mov	r3, r2
   2408e:	2c03      	cmp	r4, #3
   24090:	d101      	bne.n	24096 <_ZN20complex_dynamic_type3app17h9dc40ab664db814aE+0xb6>
   24092:	df03      	svc	3
   24094:	e000      	b.n	24098 <_ZN20complex_dynamic_type3app17h9dc40ab664db814aE+0xb8>
   24096:	df04      	svc	4
   24098:	b017      	add	sp, #92	@ 0x5c
   2409a:	bdf0      	pop	{r4, r5, r6, r7, pc}
   2409c:	a803      	add	r0, sp, #12
   2409e:	7800      	ldrb	r0, [r0, #0]
   240a0:	2802      	cmp	r0, #2
   240a2:	d01c      	beq.n	240de <_ZN20complex_dynamic_type3app17h9dc40ab664db814aE+0xfe>
   240a4:	2803      	cmp	r0, #3
   240a6:	d105      	bne.n	240b4 <_ZN20complex_dynamic_type3app17h9dc40ab664db814aE+0xd4>
   240a8:	4819      	ldr	r0, [pc, #100]	@ (24110 <_ZN20complex_dynamic_type3app17h9dc40ab664db814aE+0x130>)
   240aa:	2102      	movs	r1, #2
   240ac:	2200      	movs	r2, #0
   240ae:	4613      	mov	r3, r2
   240b0:	df03      	svc	3
   240b2:	e004      	b.n	240be <_ZN20complex_dynamic_type3app17h9dc40ab664db814aE+0xde>
   240b4:	4816      	ldr	r0, [pc, #88]	@ (24110 <_ZN20complex_dynamic_type3app17h9dc40ab664db814aE+0x130>)
   240b6:	2102      	movs	r1, #2
   240b8:	2200      	movs	r2, #0
   240ba:	4613      	mov	r3, r2
   240bc:	df04      	svc	4
   240be:	a803      	add	r0, sp, #12
   240c0:	7006      	strb	r6, [r0, #0]
   240c2:	a80c      	add	r0, sp, #48	@ 0x30
   240c4:	7800      	ldrb	r0, [r0, #0]
   240c6:	2803      	cmp	r0, #3
   240c8:	d009      	beq.n	240de <_ZN20complex_dynamic_type3app17h9dc40ab664db814aE+0xfe>
   240ca:	2802      	cmp	r0, #2
   240cc:	d10e      	bne.n	240ec <_ZN20complex_dynamic_type3app17h9dc40ab664db814aE+0x10c>
   240ce:	1c60      	adds	r0, r4, #1
   240d0:	222b      	movs	r2, #43	@ 0x2b
   240d2:	4629      	mov	r1, r5
   240d4:	f006 fa50 	bl	2a578 <__aeabi_memcpy>
   240d8:	9801      	ldr	r0, [sp, #4]
   240da:	7020      	strb	r0, [r4, #0]
   240dc:	e7dc      	b.n	24098 <_ZN20complex_dynamic_type3app17h9dc40ab664db814aE+0xb8>
   240de:	462e      	mov	r6, r5
   240e0:	480b      	ldr	r0, [pc, #44]	@ (24110 <_ZN20complex_dynamic_type3app17h9dc40ab664db814aE+0x130>)
   240e2:	2100      	movs	r1, #0
   240e4:	460a      	mov	r2, r1
   240e6:	460b      	mov	r3, r1
   240e8:	df03      	svc	3
   240ea:	e005      	b.n	240f8 <_ZN20complex_dynamic_type3app17h9dc40ab664db814aE+0x118>
   240ec:	462e      	mov	r6, r5
   240ee:	4808      	ldr	r0, [pc, #32]	@ (24110 <_ZN20complex_dynamic_type3app17h9dc40ab664db814aE+0x130>)
   240f0:	2100      	movs	r1, #0
   240f2:	460a      	mov	r2, r1
   240f4:	460b      	mov	r3, r1
   240f6:	df04      	svc	4
   240f8:	4625      	mov	r5, r4
   240fa:	a803      	add	r0, sp, #12
   240fc:	7804      	ldrb	r4, [r0, #0]
   240fe:	1c68      	adds	r0, r5, #1
   24100:	222b      	movs	r2, #43	@ 0x2b
   24102:	4631      	mov	r1, r6
   24104:	f006 fa38 	bl	2a578 <__aeabi_memcpy>
   24108:	9801      	ldr	r0, [sp, #4]
   2410a:	7028      	strb	r0, [r5, #0]
   2410c:	e7b9      	b.n	24082 <_ZN20complex_dynamic_type3app17h9dc40ab664db814aE+0xa2>
   2410e:	46c0      	nop			@ (mov r8, r8)
   24110:	00000d5d 	.word	0x00000d5d

00024114 <_ZN20complex_dynamic_type3app17h9ea77b395fcf7f91E>:
   24114:	b5f0      	push	{r4, r5, r6, r7, lr}
   24116:	af03      	add	r7, sp, #12
   24118:	b097      	sub	sp, #92	@ 0x5c
   2411a:	9004      	str	r0, [sp, #16]
   2411c:	a805      	add	r0, sp, #20
   2411e:	2402      	movs	r4, #2
   24120:	7004      	strb	r4, [r0, #0]
   24122:	1c46      	adds	r6, r0, #1
   24124:	2232      	movs	r2, #50	@ 0x32
   24126:	9203      	str	r2, [sp, #12]
   24128:	4630      	mov	r0, r6
   2412a:	f006 fa25 	bl	2a578 <__aeabi_memcpy>
   2412e:	ad12      	add	r5, sp, #72	@ 0x48
   24130:	1c68      	adds	r0, r5, #1
   24132:	2110      	movs	r1, #16
   24134:	9002      	str	r0, [sp, #8]
   24136:	f006 f85f 	bl	2a1f8 <__aeabi_memclr>
   2413a:	9401      	str	r4, [sp, #4]
   2413c:	702c      	strb	r4, [r5, #0]
   2413e:	483f      	ldr	r0, [pc, #252]	@ (2423c <_ZN20complex_dynamic_type3app17h9ea77b395fcf7f91E+0x128>)
   24140:	2504      	movs	r5, #4
   24142:	4629      	mov	r1, r5
   24144:	4632      	mov	r2, r6
   24146:	9b03      	ldr	r3, [sp, #12]
   24148:	df04      	svc	4
   2414a:	2802      	cmp	r0, #2
   2414c:	d104      	bne.n	24158 <_ZN20complex_dynamic_type3app17h9ea77b395fcf7f91E+0x44>
   2414e:	2001      	movs	r0, #1
   24150:	9a04      	ldr	r2, [sp, #16]
   24152:	7010      	strb	r0, [r2, #0]
   24154:	6051      	str	r1, [r2, #4]
   24156:	e02c      	b.n	241b2 <_ZN20complex_dynamic_type3app17h9ea77b395fcf7f91E+0x9e>
   24158:	9c04      	ldr	r4, [sp, #16]
   2415a:	a805      	add	r0, sp, #20
   2415c:	7005      	strb	r5, [r0, #0]
   2415e:	4837      	ldr	r0, [pc, #220]	@ (2423c <_ZN20complex_dynamic_type3app17h9ea77b395fcf7f91E+0x128>)
   24160:	2109      	movs	r1, #9
   24162:	2310      	movs	r3, #16
   24164:	9a02      	ldr	r2, [sp, #8]
   24166:	df03      	svc	3
   24168:	2802      	cmp	r0, #2
   2416a:	d10e      	bne.n	2418a <_ZN20complex_dynamic_type3app17h9ea77b395fcf7f91E+0x76>
   2416c:	2001      	movs	r0, #1
   2416e:	7020      	strb	r0, [r4, #0]
   24170:	6061      	str	r1, [r4, #4]
   24172:	a812      	add	r0, sp, #72	@ 0x48
   24174:	7800      	ldrb	r0, [r0, #0]
   24176:	2802      	cmp	r0, #2
   24178:	d01b      	beq.n	241b2 <_ZN20complex_dynamic_type3app17h9ea77b395fcf7f91E+0x9e>
   2417a:	2803      	cmp	r0, #3
   2417c:	d014      	beq.n	241a8 <_ZN20complex_dynamic_type3app17h9ea77b395fcf7f91E+0x94>
   2417e:	482f      	ldr	r0, [pc, #188]	@ (2423c <_ZN20complex_dynamic_type3app17h9ea77b395fcf7f91E+0x128>)
   24180:	2109      	movs	r1, #9
   24182:	2200      	movs	r2, #0
   24184:	4613      	mov	r3, r2
   24186:	df04      	svc	4
   24188:	e013      	b.n	241b2 <_ZN20complex_dynamic_type3app17h9ea77b395fcf7f91E+0x9e>
   2418a:	a812      	add	r0, sp, #72	@ 0x48
   2418c:	2103      	movs	r1, #3
   2418e:	7001      	strb	r1, [r0, #0]
   24190:	482a      	ldr	r0, [pc, #168]	@ (2423c <_ZN20complex_dynamic_type3app17h9ea77b395fcf7f91E+0x128>)
   24192:	2104      	movs	r1, #4
   24194:	2209      	movs	r2, #9
   24196:	2600      	movs	r6, #0
   24198:	4633      	mov	r3, r6
   2419a:	df02      	svc	2
   2419c:	287f      	cmp	r0, #127	@ 0x7f
   2419e:	4625      	mov	r5, r4
   241a0:	d816      	bhi.n	241d0 <_ZN20complex_dynamic_type3app17h9ea77b395fcf7f91E+0xbc>
   241a2:	2001      	movs	r0, #1
   241a4:	7028      	strb	r0, [r5, #0]
   241a6:	6069      	str	r1, [r5, #4]
   241a8:	4824      	ldr	r0, [pc, #144]	@ (2423c <_ZN20complex_dynamic_type3app17h9ea77b395fcf7f91E+0x128>)
   241aa:	2109      	movs	r1, #9
   241ac:	2200      	movs	r2, #0
   241ae:	4613      	mov	r3, r2
   241b0:	df03      	svc	3
   241b2:	a805      	add	r0, sp, #20
   241b4:	7804      	ldrb	r4, [r0, #0]
   241b6:	2c02      	cmp	r4, #2
   241b8:	d008      	beq.n	241cc <_ZN20complex_dynamic_type3app17h9ea77b395fcf7f91E+0xb8>
   241ba:	4820      	ldr	r0, [pc, #128]	@ (2423c <_ZN20complex_dynamic_type3app17h9ea77b395fcf7f91E+0x128>)
   241bc:	2104      	movs	r1, #4
   241be:	2200      	movs	r2, #0
   241c0:	4613      	mov	r3, r2
   241c2:	2c03      	cmp	r4, #3
   241c4:	d101      	bne.n	241ca <_ZN20complex_dynamic_type3app17h9ea77b395fcf7f91E+0xb6>
   241c6:	df03      	svc	3
   241c8:	e000      	b.n	241cc <_ZN20complex_dynamic_type3app17h9ea77b395fcf7f91E+0xb8>
   241ca:	df04      	svc	4
   241cc:	b017      	add	sp, #92	@ 0x5c
   241ce:	bdf0      	pop	{r4, r5, r6, r7, pc}
   241d0:	a805      	add	r0, sp, #20
   241d2:	7800      	ldrb	r0, [r0, #0]
   241d4:	2802      	cmp	r0, #2
   241d6:	d01c      	beq.n	24212 <_ZN20complex_dynamic_type3app17h9ea77b395fcf7f91E+0xfe>
   241d8:	2803      	cmp	r0, #3
   241da:	d105      	bne.n	241e8 <_ZN20complex_dynamic_type3app17h9ea77b395fcf7f91E+0xd4>
   241dc:	4817      	ldr	r0, [pc, #92]	@ (2423c <_ZN20complex_dynamic_type3app17h9ea77b395fcf7f91E+0x128>)
   241de:	2104      	movs	r1, #4
   241e0:	2200      	movs	r2, #0
   241e2:	4613      	mov	r3, r2
   241e4:	df03      	svc	3
   241e6:	e004      	b.n	241f2 <_ZN20complex_dynamic_type3app17h9ea77b395fcf7f91E+0xde>
   241e8:	4814      	ldr	r0, [pc, #80]	@ (2423c <_ZN20complex_dynamic_type3app17h9ea77b395fcf7f91E+0x128>)
   241ea:	2104      	movs	r1, #4
   241ec:	2200      	movs	r2, #0
   241ee:	4613      	mov	r3, r2
   241f0:	df04      	svc	4
   241f2:	9901      	ldr	r1, [sp, #4]
   241f4:	a805      	add	r0, sp, #20
   241f6:	7001      	strb	r1, [r0, #0]
   241f8:	a812      	add	r0, sp, #72	@ 0x48
   241fa:	7800      	ldrb	r0, [r0, #0]
   241fc:	2803      	cmp	r0, #3
   241fe:	d008      	beq.n	24212 <_ZN20complex_dynamic_type3app17h9ea77b395fcf7f91E+0xfe>
   24200:	2802      	cmp	r0, #2
   24202:	d10c      	bne.n	2421e <_ZN20complex_dynamic_type3app17h9ea77b395fcf7f91E+0x10a>
   24204:	1c68      	adds	r0, r5, #1
   24206:	2210      	movs	r2, #16
   24208:	9902      	ldr	r1, [sp, #8]
   2420a:	f006 f9b5 	bl	2a578 <__aeabi_memcpy>
   2420e:	702e      	strb	r6, [r5, #0]
   24210:	e7dc      	b.n	241cc <_ZN20complex_dynamic_type3app17h9ea77b395fcf7f91E+0xb8>
   24212:	480a      	ldr	r0, [pc, #40]	@ (2423c <_ZN20complex_dynamic_type3app17h9ea77b395fcf7f91E+0x128>)
   24214:	2109      	movs	r1, #9
   24216:	2200      	movs	r2, #0
   24218:	4613      	mov	r3, r2
   2421a:	df03      	svc	3
   2421c:	e004      	b.n	24228 <_ZN20complex_dynamic_type3app17h9ea77b395fcf7f91E+0x114>
   2421e:	4807      	ldr	r0, [pc, #28]	@ (2423c <_ZN20complex_dynamic_type3app17h9ea77b395fcf7f91E+0x128>)
   24220:	2109      	movs	r1, #9
   24222:	2200      	movs	r2, #0
   24224:	4613      	mov	r3, r2
   24226:	df04      	svc	4
   24228:	a805      	add	r0, sp, #20
   2422a:	7804      	ldrb	r4, [r0, #0]
   2422c:	1c68      	adds	r0, r5, #1
   2422e:	2210      	movs	r2, #16
   24230:	9902      	ldr	r1, [sp, #8]
   24232:	f006 f9a1 	bl	2a578 <__aeabi_memcpy>
   24236:	702e      	strb	r6, [r5, #0]
   24238:	e7bd      	b.n	241b6 <_ZN20complex_dynamic_type3app17h9ea77b395fcf7f91E+0xa2>
   2423a:	46c0      	nop			@ (mov r8, r8)
   2423c:	000019d6 	.word	0x000019d6

00024240 <_ZN20complex_dynamic_type3app17h9f5e25f0f2f27f16E>:
   24240:	b5f0      	push	{r4, r5, r6, r7, lr}
   24242:	af03      	add	r7, sp, #12
   24244:	b0a9      	sub	sp, #164	@ 0xa4
   24246:	9003      	str	r0, [sp, #12]
   24248:	a804      	add	r0, sp, #16
   2424a:	2402      	movs	r4, #2
   2424c:	7004      	strb	r4, [r0, #0]
   2424e:	1c40      	adds	r0, r0, #1
   24250:	9002      	str	r0, [sp, #8]
   24252:	2550      	movs	r5, #80	@ 0x50
   24254:	462a      	mov	r2, r5
   24256:	f006 f98f 	bl	2a578 <__aeabi_memcpy>
   2425a:	ae19      	add	r6, sp, #100	@ 0x64
   2425c:	1c70      	adds	r0, r6, #1
   2425e:	213c      	movs	r1, #60	@ 0x3c
   24260:	9001      	str	r0, [sp, #4]
   24262:	f005 ffc9 	bl	2a1f8 <__aeabi_memclr>
   24266:	9400      	str	r4, [sp, #0]
   24268:	7034      	strb	r4, [r6, #0]
   2426a:	4841      	ldr	r0, [pc, #260]	@ (24370 <_ZN20complex_dynamic_type3app17h9f5e25f0f2f27f16E+0x130>)
   2426c:	2603      	movs	r6, #3
   2426e:	4631      	mov	r1, r6
   24270:	9a02      	ldr	r2, [sp, #8]
   24272:	462b      	mov	r3, r5
   24274:	df04      	svc	4
   24276:	2802      	cmp	r0, #2
   24278:	d104      	bne.n	24284 <_ZN20complex_dynamic_type3app17h9f5e25f0f2f27f16E+0x44>
   2427a:	2001      	movs	r0, #1
   2427c:	9a03      	ldr	r2, [sp, #12]
   2427e:	7010      	strb	r0, [r2, #0]
   24280:	6051      	str	r1, [r2, #4]
   24282:	e02c      	b.n	242de <_ZN20complex_dynamic_type3app17h9f5e25f0f2f27f16E+0x9e>
   24284:	9d03      	ldr	r5, [sp, #12]
   24286:	a804      	add	r0, sp, #16
   24288:	2104      	movs	r1, #4
   2428a:	7001      	strb	r1, [r0, #0]
   2428c:	4838      	ldr	r0, [pc, #224]	@ (24370 <_ZN20complex_dynamic_type3app17h9f5e25f0f2f27f16E+0x130>)
   2428e:	2109      	movs	r1, #9
   24290:	233c      	movs	r3, #60	@ 0x3c
   24292:	9c01      	ldr	r4, [sp, #4]
   24294:	4622      	mov	r2, r4
   24296:	df03      	svc	3
   24298:	2802      	cmp	r0, #2
   2429a:	d10e      	bne.n	242ba <_ZN20complex_dynamic_type3app17h9f5e25f0f2f27f16E+0x7a>
   2429c:	2001      	movs	r0, #1
   2429e:	7028      	strb	r0, [r5, #0]
   242a0:	6069      	str	r1, [r5, #4]
   242a2:	a819      	add	r0, sp, #100	@ 0x64
   242a4:	7800      	ldrb	r0, [r0, #0]
   242a6:	2802      	cmp	r0, #2
   242a8:	d019      	beq.n	242de <_ZN20complex_dynamic_type3app17h9f5e25f0f2f27f16E+0x9e>
   242aa:	2803      	cmp	r0, #3
   242ac:	d012      	beq.n	242d4 <_ZN20complex_dynamic_type3app17h9f5e25f0f2f27f16E+0x94>
   242ae:	4830      	ldr	r0, [pc, #192]	@ (24370 <_ZN20complex_dynamic_type3app17h9f5e25f0f2f27f16E+0x130>)
   242b0:	2109      	movs	r1, #9
   242b2:	2200      	movs	r2, #0
   242b4:	4613      	mov	r3, r2
   242b6:	df04      	svc	4
   242b8:	e011      	b.n	242de <_ZN20complex_dynamic_type3app17h9f5e25f0f2f27f16E+0x9e>
   242ba:	a819      	add	r0, sp, #100	@ 0x64
   242bc:	7006      	strb	r6, [r0, #0]
   242be:	482c      	ldr	r0, [pc, #176]	@ (24370 <_ZN20complex_dynamic_type3app17h9f5e25f0f2f27f16E+0x130>)
   242c0:	2209      	movs	r2, #9
   242c2:	2300      	movs	r3, #0
   242c4:	4631      	mov	r1, r6
   242c6:	9302      	str	r3, [sp, #8]
   242c8:	df02      	svc	2
   242ca:	287f      	cmp	r0, #127	@ 0x7f
   242cc:	d816      	bhi.n	242fc <_ZN20complex_dynamic_type3app17h9f5e25f0f2f27f16E+0xbc>
   242ce:	2001      	movs	r0, #1
   242d0:	7028      	strb	r0, [r5, #0]
   242d2:	6069      	str	r1, [r5, #4]
   242d4:	4826      	ldr	r0, [pc, #152]	@ (24370 <_ZN20complex_dynamic_type3app17h9f5e25f0f2f27f16E+0x130>)
   242d6:	2109      	movs	r1, #9
   242d8:	2200      	movs	r2, #0
   242da:	4613      	mov	r3, r2
   242dc:	df03      	svc	3
   242de:	a804      	add	r0, sp, #16
   242e0:	7804      	ldrb	r4, [r0, #0]
   242e2:	2c02      	cmp	r4, #2
   242e4:	d008      	beq.n	242f8 <_ZN20complex_dynamic_type3app17h9f5e25f0f2f27f16E+0xb8>
   242e6:	4822      	ldr	r0, [pc, #136]	@ (24370 <_ZN20complex_dynamic_type3app17h9f5e25f0f2f27f16E+0x130>)
   242e8:	2103      	movs	r1, #3
   242ea:	2200      	movs	r2, #0
   242ec:	4613      	mov	r3, r2
   242ee:	2c03      	cmp	r4, #3
   242f0:	d101      	bne.n	242f6 <_ZN20complex_dynamic_type3app17h9f5e25f0f2f27f16E+0xb6>
   242f2:	df03      	svc	3
   242f4:	e000      	b.n	242f8 <_ZN20complex_dynamic_type3app17h9f5e25f0f2f27f16E+0xb8>
   242f6:	df04      	svc	4
   242f8:	b029      	add	sp, #164	@ 0xa4
   242fa:	bdf0      	pop	{r4, r5, r6, r7, pc}
   242fc:	a804      	add	r0, sp, #16
   242fe:	7800      	ldrb	r0, [r0, #0]
   24300:	2802      	cmp	r0, #2
   24302:	d01d      	beq.n	24340 <_ZN20complex_dynamic_type3app17h9f5e25f0f2f27f16E+0x100>
   24304:	2803      	cmp	r0, #3
   24306:	d105      	bne.n	24314 <_ZN20complex_dynamic_type3app17h9f5e25f0f2f27f16E+0xd4>
   24308:	4819      	ldr	r0, [pc, #100]	@ (24370 <_ZN20complex_dynamic_type3app17h9f5e25f0f2f27f16E+0x130>)
   2430a:	2103      	movs	r1, #3
   2430c:	2200      	movs	r2, #0
   2430e:	4613      	mov	r3, r2
   24310:	df03      	svc	3
   24312:	e004      	b.n	2431e <_ZN20complex_dynamic_type3app17h9f5e25f0f2f27f16E+0xde>
   24314:	4816      	ldr	r0, [pc, #88]	@ (24370 <_ZN20complex_dynamic_type3app17h9f5e25f0f2f27f16E+0x130>)
   24316:	2103      	movs	r1, #3
   24318:	2200      	movs	r2, #0
   2431a:	4613      	mov	r3, r2
   2431c:	df04      	svc	4
   2431e:	9900      	ldr	r1, [sp, #0]
   24320:	a804      	add	r0, sp, #16
   24322:	7001      	strb	r1, [r0, #0]
   24324:	a819      	add	r0, sp, #100	@ 0x64
   24326:	7800      	ldrb	r0, [r0, #0]
   24328:	2803      	cmp	r0, #3
   2432a:	d009      	beq.n	24340 <_ZN20complex_dynamic_type3app17h9f5e25f0f2f27f16E+0x100>
   2432c:	2802      	cmp	r0, #2
   2432e:	d10e      	bne.n	2434e <_ZN20complex_dynamic_type3app17h9f5e25f0f2f27f16E+0x10e>
   24330:	1c68      	adds	r0, r5, #1
   24332:	223c      	movs	r2, #60	@ 0x3c
   24334:	4621      	mov	r1, r4
   24336:	f006 f91f 	bl	2a578 <__aeabi_memcpy>
   2433a:	9802      	ldr	r0, [sp, #8]
   2433c:	7028      	strb	r0, [r5, #0]
   2433e:	e7db      	b.n	242f8 <_ZN20complex_dynamic_type3app17h9f5e25f0f2f27f16E+0xb8>
   24340:	4626      	mov	r6, r4
   24342:	480b      	ldr	r0, [pc, #44]	@ (24370 <_ZN20complex_dynamic_type3app17h9f5e25f0f2f27f16E+0x130>)
   24344:	2109      	movs	r1, #9
   24346:	2200      	movs	r2, #0
   24348:	4613      	mov	r3, r2
   2434a:	df03      	svc	3
   2434c:	e005      	b.n	2435a <_ZN20complex_dynamic_type3app17h9f5e25f0f2f27f16E+0x11a>
   2434e:	4626      	mov	r6, r4
   24350:	4807      	ldr	r0, [pc, #28]	@ (24370 <_ZN20complex_dynamic_type3app17h9f5e25f0f2f27f16E+0x130>)
   24352:	2109      	movs	r1, #9
   24354:	2200      	movs	r2, #0
   24356:	4613      	mov	r3, r2
   24358:	df04      	svc	4
   2435a:	a804      	add	r0, sp, #16
   2435c:	7804      	ldrb	r4, [r0, #0]
   2435e:	1c68      	adds	r0, r5, #1
   24360:	223c      	movs	r2, #60	@ 0x3c
   24362:	4631      	mov	r1, r6
   24364:	f006 f908 	bl	2a578 <__aeabi_memcpy>
   24368:	9802      	ldr	r0, [sp, #8]
   2436a:	7028      	strb	r0, [r5, #0]
   2436c:	e7b9      	b.n	242e2 <_ZN20complex_dynamic_type3app17h9f5e25f0f2f27f16E+0xa2>
   2436e:	46c0      	nop			@ (mov r8, r8)
   24370:	00000d7a 	.word	0x00000d7a

00024374 <_ZN20complex_dynamic_type3app17ha0cdadd0201f52d4E>:
   24374:	b5f0      	push	{r4, r5, r6, r7, lr}
   24376:	af03      	add	r7, sp, #12
   24378:	b09d      	sub	sp, #116	@ 0x74
   2437a:	9004      	str	r0, [sp, #16]
   2437c:	a805      	add	r0, sp, #20
   2437e:	2402      	movs	r4, #2
   24380:	7004      	strb	r4, [r0, #0]
   24382:	1c40      	adds	r0, r0, #1
   24384:	9003      	str	r0, [sp, #12]
   24386:	2541      	movs	r5, #65	@ 0x41
   24388:	462a      	mov	r2, r5
   2438a:	f006 f8f5 	bl	2a578 <__aeabi_memcpy>
   2438e:	ae16      	add	r6, sp, #88	@ 0x58
   24390:	1c70      	adds	r0, r6, #1
   24392:	2118      	movs	r1, #24
   24394:	9002      	str	r0, [sp, #8]
   24396:	f005 ff2f 	bl	2a1f8 <__aeabi_memclr>
   2439a:	9401      	str	r4, [sp, #4]
   2439c:	7034      	strb	r4, [r6, #0]
   2439e:	483e      	ldr	r0, [pc, #248]	@ (24498 <_ZN20complex_dynamic_type3app17ha0cdadd0201f52d4E+0x124>)
   243a0:	2601      	movs	r6, #1
   243a2:	4631      	mov	r1, r6
   243a4:	9a03      	ldr	r2, [sp, #12]
   243a6:	462b      	mov	r3, r5
   243a8:	df04      	svc	4
   243aa:	2802      	cmp	r0, #2
   243ac:	d103      	bne.n	243b6 <_ZN20complex_dynamic_type3app17ha0cdadd0201f52d4E+0x42>
   243ae:	9804      	ldr	r0, [sp, #16]
   243b0:	7006      	strb	r6, [r0, #0]
   243b2:	6041      	str	r1, [r0, #4]
   243b4:	e02b      	b.n	2440e <_ZN20complex_dynamic_type3app17ha0cdadd0201f52d4E+0x9a>
   243b6:	9d04      	ldr	r5, [sp, #16]
   243b8:	a805      	add	r0, sp, #20
   243ba:	2104      	movs	r1, #4
   243bc:	7001      	strb	r1, [r0, #0]
   243be:	4836      	ldr	r0, [pc, #216]	@ (24498 <_ZN20complex_dynamic_type3app17ha0cdadd0201f52d4E+0x124>)
   243c0:	2109      	movs	r1, #9
   243c2:	2318      	movs	r3, #24
   243c4:	9a02      	ldr	r2, [sp, #8]
   243c6:	df03      	svc	3
   243c8:	2802      	cmp	r0, #2
   243ca:	d10d      	bne.n	243e8 <_ZN20complex_dynamic_type3app17ha0cdadd0201f52d4E+0x74>
   243cc:	702e      	strb	r6, [r5, #0]
   243ce:	6069      	str	r1, [r5, #4]
   243d0:	a816      	add	r0, sp, #88	@ 0x58
   243d2:	7800      	ldrb	r0, [r0, #0]
   243d4:	2802      	cmp	r0, #2
   243d6:	d01a      	beq.n	2440e <_ZN20complex_dynamic_type3app17ha0cdadd0201f52d4E+0x9a>
   243d8:	2803      	cmp	r0, #3
   243da:	d013      	beq.n	24404 <_ZN20complex_dynamic_type3app17ha0cdadd0201f52d4E+0x90>
   243dc:	482e      	ldr	r0, [pc, #184]	@ (24498 <_ZN20complex_dynamic_type3app17ha0cdadd0201f52d4E+0x124>)
   243de:	2109      	movs	r1, #9
   243e0:	2200      	movs	r2, #0
   243e2:	4613      	mov	r3, r2
   243e4:	df04      	svc	4
   243e6:	e012      	b.n	2440e <_ZN20complex_dynamic_type3app17ha0cdadd0201f52d4E+0x9a>
   243e8:	a816      	add	r0, sp, #88	@ 0x58
   243ea:	2103      	movs	r1, #3
   243ec:	7001      	strb	r1, [r0, #0]
   243ee:	482a      	ldr	r0, [pc, #168]	@ (24498 <_ZN20complex_dynamic_type3app17ha0cdadd0201f52d4E+0x124>)
   243f0:	2401      	movs	r4, #1
   243f2:	2209      	movs	r2, #9
   243f4:	2600      	movs	r6, #0
   243f6:	4621      	mov	r1, r4
   243f8:	4633      	mov	r3, r6
   243fa:	df02      	svc	2
   243fc:	287f      	cmp	r0, #127	@ 0x7f
   243fe:	d815      	bhi.n	2442c <_ZN20complex_dynamic_type3app17ha0cdadd0201f52d4E+0xb8>
   24400:	702c      	strb	r4, [r5, #0]
   24402:	6069      	str	r1, [r5, #4]
   24404:	4824      	ldr	r0, [pc, #144]	@ (24498 <_ZN20complex_dynamic_type3app17ha0cdadd0201f52d4E+0x124>)
   24406:	2109      	movs	r1, #9
   24408:	2200      	movs	r2, #0
   2440a:	4613      	mov	r3, r2
   2440c:	df03      	svc	3
   2440e:	a805      	add	r0, sp, #20
   24410:	7804      	ldrb	r4, [r0, #0]
   24412:	2c02      	cmp	r4, #2
   24414:	d008      	beq.n	24428 <_ZN20complex_dynamic_type3app17ha0cdadd0201f52d4E+0xb4>
   24416:	4820      	ldr	r0, [pc, #128]	@ (24498 <_ZN20complex_dynamic_type3app17ha0cdadd0201f52d4E+0x124>)
   24418:	2101      	movs	r1, #1
   2441a:	2200      	movs	r2, #0
   2441c:	4613      	mov	r3, r2
   2441e:	2c03      	cmp	r4, #3
   24420:	d101      	bne.n	24426 <_ZN20complex_dynamic_type3app17ha0cdadd0201f52d4E+0xb2>
   24422:	df03      	svc	3
   24424:	e000      	b.n	24428 <_ZN20complex_dynamic_type3app17ha0cdadd0201f52d4E+0xb4>
   24426:	df04      	svc	4
   24428:	b01d      	add	sp, #116	@ 0x74
   2442a:	bdf0      	pop	{r4, r5, r6, r7, pc}
   2442c:	a805      	add	r0, sp, #20
   2442e:	7800      	ldrb	r0, [r0, #0]
   24430:	2802      	cmp	r0, #2
   24432:	9c02      	ldr	r4, [sp, #8]
   24434:	d01c      	beq.n	24470 <_ZN20complex_dynamic_type3app17ha0cdadd0201f52d4E+0xfc>
   24436:	2803      	cmp	r0, #3
   24438:	d105      	bne.n	24446 <_ZN20complex_dynamic_type3app17ha0cdadd0201f52d4E+0xd2>
   2443a:	4817      	ldr	r0, [pc, #92]	@ (24498 <_ZN20complex_dynamic_type3app17ha0cdadd0201f52d4E+0x124>)
   2443c:	2101      	movs	r1, #1
   2443e:	2200      	movs	r2, #0
   24440:	4613      	mov	r3, r2
   24442:	df03      	svc	3
   24444:	e004      	b.n	24450 <_ZN20complex_dynamic_type3app17ha0cdadd0201f52d4E+0xdc>
   24446:	4814      	ldr	r0, [pc, #80]	@ (24498 <_ZN20complex_dynamic_type3app17ha0cdadd0201f52d4E+0x124>)
   24448:	2101      	movs	r1, #1
   2444a:	2200      	movs	r2, #0
   2444c:	4613      	mov	r3, r2
   2444e:	df04      	svc	4
   24450:	a805      	add	r0, sp, #20
   24452:	9901      	ldr	r1, [sp, #4]
   24454:	7001      	strb	r1, [r0, #0]
   24456:	a816      	add	r0, sp, #88	@ 0x58
   24458:	7800      	ldrb	r0, [r0, #0]
   2445a:	2803      	cmp	r0, #3
   2445c:	d008      	beq.n	24470 <_ZN20complex_dynamic_type3app17ha0cdadd0201f52d4E+0xfc>
   2445e:	2802      	cmp	r0, #2
   24460:	d10c      	bne.n	2447c <_ZN20complex_dynamic_type3app17ha0cdadd0201f52d4E+0x108>
   24462:	1c68      	adds	r0, r5, #1
   24464:	2218      	movs	r2, #24
   24466:	4621      	mov	r1, r4
   24468:	f006 f886 	bl	2a578 <__aeabi_memcpy>
   2446c:	702e      	strb	r6, [r5, #0]
   2446e:	e7db      	b.n	24428 <_ZN20complex_dynamic_type3app17ha0cdadd0201f52d4E+0xb4>
   24470:	4809      	ldr	r0, [pc, #36]	@ (24498 <_ZN20complex_dynamic_type3app17ha0cdadd0201f52d4E+0x124>)
   24472:	2109      	movs	r1, #9
   24474:	2200      	movs	r2, #0
   24476:	4613      	mov	r3, r2
   24478:	df03      	svc	3
   2447a:	e004      	b.n	24486 <_ZN20complex_dynamic_type3app17ha0cdadd0201f52d4E+0x112>
   2447c:	4806      	ldr	r0, [pc, #24]	@ (24498 <_ZN20complex_dynamic_type3app17ha0cdadd0201f52d4E+0x124>)
   2447e:	2109      	movs	r1, #9
   24480:	2200      	movs	r2, #0
   24482:	4613      	mov	r3, r2
   24484:	df04      	svc	4
   24486:	a805      	add	r0, sp, #20
   24488:	7804      	ldrb	r4, [r0, #0]
   2448a:	1c68      	adds	r0, r5, #1
   2448c:	2218      	movs	r2, #24
   2448e:	9902      	ldr	r1, [sp, #8]
   24490:	f006 f872 	bl	2a578 <__aeabi_memcpy>
   24494:	702e      	strb	r6, [r5, #0]
   24496:	e7bc      	b.n	24412 <_ZN20complex_dynamic_type3app17ha0cdadd0201f52d4E+0x9e>
   24498:	00002156 	.word	0x00002156

0002449c <_ZN20complex_dynamic_type3app17ha1dcd224bf445c41E>:
   2449c:	b5f0      	push	{r4, r5, r6, r7, lr}
   2449e:	af03      	add	r7, sp, #12
   244a0:	b09d      	sub	sp, #116	@ 0x74
   244a2:	9004      	str	r0, [sp, #16]
   244a4:	a805      	add	r0, sp, #20
   244a6:	2402      	movs	r4, #2
   244a8:	7004      	strb	r4, [r0, #0]
   244aa:	1c46      	adds	r6, r0, #1
   244ac:	223f      	movs	r2, #63	@ 0x3f
   244ae:	9203      	str	r2, [sp, #12]
   244b0:	4630      	mov	r0, r6
   244b2:	f006 f861 	bl	2a578 <__aeabi_memcpy>
   244b6:	ad15      	add	r5, sp, #84	@ 0x54
   244b8:	1c68      	adds	r0, r5, #1
   244ba:	211c      	movs	r1, #28
   244bc:	9002      	str	r0, [sp, #8]
   244be:	f005 fe9b 	bl	2a1f8 <__aeabi_memclr>
   244c2:	9401      	str	r4, [sp, #4]
   244c4:	702c      	strb	r4, [r5, #0]
   244c6:	483f      	ldr	r0, [pc, #252]	@ (245c4 <_ZN20complex_dynamic_type3app17ha1dcd224bf445c41E+0x128>)
   244c8:	2105      	movs	r1, #5
   244ca:	4632      	mov	r2, r6
   244cc:	9b03      	ldr	r3, [sp, #12]
   244ce:	df04      	svc	4
   244d0:	2802      	cmp	r0, #2
   244d2:	d104      	bne.n	244de <_ZN20complex_dynamic_type3app17ha1dcd224bf445c41E+0x42>
   244d4:	2001      	movs	r0, #1
   244d6:	9a04      	ldr	r2, [sp, #16]
   244d8:	7010      	strb	r0, [r2, #0]
   244da:	6051      	str	r1, [r2, #4]
   244dc:	e02d      	b.n	2453a <_ZN20complex_dynamic_type3app17ha1dcd224bf445c41E+0x9e>
   244de:	9d04      	ldr	r5, [sp, #16]
   244e0:	a805      	add	r0, sp, #20
   244e2:	2104      	movs	r1, #4
   244e4:	7001      	strb	r1, [r0, #0]
   244e6:	4837      	ldr	r0, [pc, #220]	@ (245c4 <_ZN20complex_dynamic_type3app17ha1dcd224bf445c41E+0x128>)
   244e8:	2109      	movs	r1, #9
   244ea:	231c      	movs	r3, #28
   244ec:	9c02      	ldr	r4, [sp, #8]
   244ee:	4622      	mov	r2, r4
   244f0:	df03      	svc	3
   244f2:	2802      	cmp	r0, #2
   244f4:	d10e      	bne.n	24514 <_ZN20complex_dynamic_type3app17ha1dcd224bf445c41E+0x78>
   244f6:	2001      	movs	r0, #1
   244f8:	7028      	strb	r0, [r5, #0]
   244fa:	6069      	str	r1, [r5, #4]
   244fc:	a815      	add	r0, sp, #84	@ 0x54
   244fe:	7800      	ldrb	r0, [r0, #0]
   24500:	2802      	cmp	r0, #2
   24502:	d01a      	beq.n	2453a <_ZN20complex_dynamic_type3app17ha1dcd224bf445c41E+0x9e>
   24504:	2803      	cmp	r0, #3
   24506:	d013      	beq.n	24530 <_ZN20complex_dynamic_type3app17ha1dcd224bf445c41E+0x94>
   24508:	482e      	ldr	r0, [pc, #184]	@ (245c4 <_ZN20complex_dynamic_type3app17ha1dcd224bf445c41E+0x128>)
   2450a:	2109      	movs	r1, #9
   2450c:	2200      	movs	r2, #0
   2450e:	4613      	mov	r3, r2
   24510:	df04      	svc	4
   24512:	e012      	b.n	2453a <_ZN20complex_dynamic_type3app17ha1dcd224bf445c41E+0x9e>
   24514:	a815      	add	r0, sp, #84	@ 0x54
   24516:	2103      	movs	r1, #3
   24518:	7001      	strb	r1, [r0, #0]
   2451a:	482a      	ldr	r0, [pc, #168]	@ (245c4 <_ZN20complex_dynamic_type3app17ha1dcd224bf445c41E+0x128>)
   2451c:	2105      	movs	r1, #5
   2451e:	2209      	movs	r2, #9
   24520:	2600      	movs	r6, #0
   24522:	4633      	mov	r3, r6
   24524:	df02      	svc	2
   24526:	287f      	cmp	r0, #127	@ 0x7f
   24528:	d816      	bhi.n	24558 <_ZN20complex_dynamic_type3app17ha1dcd224bf445c41E+0xbc>
   2452a:	2001      	movs	r0, #1
   2452c:	7028      	strb	r0, [r5, #0]
   2452e:	6069      	str	r1, [r5, #4]
   24530:	4824      	ldr	r0, [pc, #144]	@ (245c4 <_ZN20complex_dynamic_type3app17ha1dcd224bf445c41E+0x128>)
   24532:	2109      	movs	r1, #9
   24534:	2200      	movs	r2, #0
   24536:	4613      	mov	r3, r2
   24538:	df03      	svc	3
   2453a:	a805      	add	r0, sp, #20
   2453c:	7804      	ldrb	r4, [r0, #0]
   2453e:	2c02      	cmp	r4, #2
   24540:	d008      	beq.n	24554 <_ZN20complex_dynamic_type3app17ha1dcd224bf445c41E+0xb8>
   24542:	4820      	ldr	r0, [pc, #128]	@ (245c4 <_ZN20complex_dynamic_type3app17ha1dcd224bf445c41E+0x128>)
   24544:	2105      	movs	r1, #5
   24546:	2200      	movs	r2, #0
   24548:	4613      	mov	r3, r2
   2454a:	2c03      	cmp	r4, #3
   2454c:	d101      	bne.n	24552 <_ZN20complex_dynamic_type3app17ha1dcd224bf445c41E+0xb6>
   2454e:	df03      	svc	3
   24550:	e000      	b.n	24554 <_ZN20complex_dynamic_type3app17ha1dcd224bf445c41E+0xb8>
   24552:	df04      	svc	4
   24554:	b01d      	add	sp, #116	@ 0x74
   24556:	bdf0      	pop	{r4, r5, r6, r7, pc}
   24558:	a805      	add	r0, sp, #20
   2455a:	7800      	ldrb	r0, [r0, #0]
   2455c:	2802      	cmp	r0, #2
   2455e:	d01c      	beq.n	2459a <_ZN20complex_dynamic_type3app17ha1dcd224bf445c41E+0xfe>
   24560:	2803      	cmp	r0, #3
   24562:	d105      	bne.n	24570 <_ZN20complex_dynamic_type3app17ha1dcd224bf445c41E+0xd4>
   24564:	4817      	ldr	r0, [pc, #92]	@ (245c4 <_ZN20complex_dynamic_type3app17ha1dcd224bf445c41E+0x128>)
   24566:	2105      	movs	r1, #5
   24568:	2200      	movs	r2, #0
   2456a:	4613      	mov	r3, r2
   2456c:	df03      	svc	3
   2456e:	e004      	b.n	2457a <_ZN20complex_dynamic_type3app17ha1dcd224bf445c41E+0xde>
   24570:	4814      	ldr	r0, [pc, #80]	@ (245c4 <_ZN20complex_dynamic_type3app17ha1dcd224bf445c41E+0x128>)
   24572:	2105      	movs	r1, #5
   24574:	2200      	movs	r2, #0
   24576:	4613      	mov	r3, r2
   24578:	df04      	svc	4
   2457a:	a805      	add	r0, sp, #20
   2457c:	9901      	ldr	r1, [sp, #4]
   2457e:	7001      	strb	r1, [r0, #0]
   24580:	a815      	add	r0, sp, #84	@ 0x54
   24582:	7800      	ldrb	r0, [r0, #0]
   24584:	2803      	cmp	r0, #3
   24586:	d008      	beq.n	2459a <_ZN20complex_dynamic_type3app17ha1dcd224bf445c41E+0xfe>
   24588:	2802      	cmp	r0, #2
   2458a:	d10c      	bne.n	245a6 <_ZN20complex_dynamic_type3app17ha1dcd224bf445c41E+0x10a>
   2458c:	1c68      	adds	r0, r5, #1
   2458e:	221c      	movs	r2, #28
   24590:	4621      	mov	r1, r4
   24592:	f005 fff1 	bl	2a578 <__aeabi_memcpy>
   24596:	702e      	strb	r6, [r5, #0]
   24598:	e7dc      	b.n	24554 <_ZN20complex_dynamic_type3app17ha1dcd224bf445c41E+0xb8>
   2459a:	480a      	ldr	r0, [pc, #40]	@ (245c4 <_ZN20complex_dynamic_type3app17ha1dcd224bf445c41E+0x128>)
   2459c:	2109      	movs	r1, #9
   2459e:	2200      	movs	r2, #0
   245a0:	4613      	mov	r3, r2
   245a2:	df03      	svc	3
   245a4:	e004      	b.n	245b0 <_ZN20complex_dynamic_type3app17ha1dcd224bf445c41E+0x114>
   245a6:	4807      	ldr	r0, [pc, #28]	@ (245c4 <_ZN20complex_dynamic_type3app17ha1dcd224bf445c41E+0x128>)
   245a8:	2109      	movs	r1, #9
   245aa:	2200      	movs	r2, #0
   245ac:	4613      	mov	r3, r2
   245ae:	df04      	svc	4
   245b0:	a805      	add	r0, sp, #20
   245b2:	7804      	ldrb	r4, [r0, #0]
   245b4:	1c68      	adds	r0, r5, #1
   245b6:	221c      	movs	r2, #28
   245b8:	9902      	ldr	r1, [sp, #8]
   245ba:	f005 ffdd 	bl	2a578 <__aeabi_memcpy>
   245be:	702e      	strb	r6, [r5, #0]
   245c0:	e7bd      	b.n	2453e <_ZN20complex_dynamic_type3app17ha1dcd224bf445c41E+0xa2>
   245c2:	46c0      	nop			@ (mov r8, r8)
   245c4:	00001694 	.word	0x00001694

000245c8 <_ZN20complex_dynamic_type3app17ha3a4ea5947fe68acE>:
   245c8:	b5f0      	push	{r4, r5, r6, r7, lr}
   245ca:	af03      	add	r7, sp, #12
   245cc:	b0a3      	sub	sp, #140	@ 0x8c
   245ce:	9004      	str	r0, [sp, #16]
   245d0:	a805      	add	r0, sp, #20
   245d2:	2402      	movs	r4, #2
   245d4:	7004      	strb	r4, [r0, #0]
   245d6:	1c46      	adds	r6, r0, #1
   245d8:	2240      	movs	r2, #64	@ 0x40
   245da:	9203      	str	r2, [sp, #12]
   245dc:	4630      	mov	r0, r6
   245de:	f005 ffcb 	bl	2a578 <__aeabi_memcpy>
   245e2:	ad16      	add	r5, sp, #88	@ 0x58
   245e4:	1c68      	adds	r0, r5, #1
   245e6:	2131      	movs	r1, #49	@ 0x31
   245e8:	9002      	str	r0, [sp, #8]
   245ea:	f005 fe05 	bl	2a1f8 <__aeabi_memclr>
   245ee:	9401      	str	r4, [sp, #4]
   245f0:	702c      	strb	r4, [r5, #0]
   245f2:	483f      	ldr	r0, [pc, #252]	@ (246f0 <_ZN20complex_dynamic_type3app17ha3a4ea5947fe68acE+0x128>)
   245f4:	2108      	movs	r1, #8
   245f6:	4632      	mov	r2, r6
   245f8:	9b03      	ldr	r3, [sp, #12]
   245fa:	df04      	svc	4
   245fc:	2802      	cmp	r0, #2
   245fe:	d104      	bne.n	2460a <_ZN20complex_dynamic_type3app17ha3a4ea5947fe68acE+0x42>
   24600:	2001      	movs	r0, #1
   24602:	9a04      	ldr	r2, [sp, #16]
   24604:	7010      	strb	r0, [r2, #0]
   24606:	6051      	str	r1, [r2, #4]
   24608:	e02d      	b.n	24666 <_ZN20complex_dynamic_type3app17ha3a4ea5947fe68acE+0x9e>
   2460a:	9d04      	ldr	r5, [sp, #16]
   2460c:	a805      	add	r0, sp, #20
   2460e:	2104      	movs	r1, #4
   24610:	7001      	strb	r1, [r0, #0]
   24612:	4837      	ldr	r0, [pc, #220]	@ (246f0 <_ZN20complex_dynamic_type3app17ha3a4ea5947fe68acE+0x128>)
   24614:	2105      	movs	r1, #5
   24616:	2331      	movs	r3, #49	@ 0x31
   24618:	9c02      	ldr	r4, [sp, #8]
   2461a:	4622      	mov	r2, r4
   2461c:	df03      	svc	3
   2461e:	2802      	cmp	r0, #2
   24620:	d10e      	bne.n	24640 <_ZN20complex_dynamic_type3app17ha3a4ea5947fe68acE+0x78>
   24622:	2001      	movs	r0, #1
   24624:	7028      	strb	r0, [r5, #0]
   24626:	6069      	str	r1, [r5, #4]
   24628:	a816      	add	r0, sp, #88	@ 0x58
   2462a:	7800      	ldrb	r0, [r0, #0]
   2462c:	2802      	cmp	r0, #2
   2462e:	d01a      	beq.n	24666 <_ZN20complex_dynamic_type3app17ha3a4ea5947fe68acE+0x9e>
   24630:	2803      	cmp	r0, #3
   24632:	d013      	beq.n	2465c <_ZN20complex_dynamic_type3app17ha3a4ea5947fe68acE+0x94>
   24634:	482e      	ldr	r0, [pc, #184]	@ (246f0 <_ZN20complex_dynamic_type3app17ha3a4ea5947fe68acE+0x128>)
   24636:	2105      	movs	r1, #5
   24638:	2200      	movs	r2, #0
   2463a:	4613      	mov	r3, r2
   2463c:	df04      	svc	4
   2463e:	e012      	b.n	24666 <_ZN20complex_dynamic_type3app17ha3a4ea5947fe68acE+0x9e>
   24640:	a816      	add	r0, sp, #88	@ 0x58
   24642:	2103      	movs	r1, #3
   24644:	7001      	strb	r1, [r0, #0]
   24646:	482a      	ldr	r0, [pc, #168]	@ (246f0 <_ZN20complex_dynamic_type3app17ha3a4ea5947fe68acE+0x128>)
   24648:	2108      	movs	r1, #8
   2464a:	2205      	movs	r2, #5
   2464c:	2600      	movs	r6, #0
   2464e:	4633      	mov	r3, r6
   24650:	df02      	svc	2
   24652:	287f      	cmp	r0, #127	@ 0x7f
   24654:	d816      	bhi.n	24684 <_ZN20complex_dynamic_type3app17ha3a4ea5947fe68acE+0xbc>
   24656:	2001      	movs	r0, #1
   24658:	7028      	strb	r0, [r5, #0]
   2465a:	6069      	str	r1, [r5, #4]
   2465c:	4824      	ldr	r0, [pc, #144]	@ (246f0 <_ZN20complex_dynamic_type3app17ha3a4ea5947fe68acE+0x128>)
   2465e:	2105      	movs	r1, #5
   24660:	2200      	movs	r2, #0
   24662:	4613      	mov	r3, r2
   24664:	df03      	svc	3
   24666:	a805      	add	r0, sp, #20
   24668:	7804      	ldrb	r4, [r0, #0]
   2466a:	2c02      	cmp	r4, #2
   2466c:	d008      	beq.n	24680 <_ZN20complex_dynamic_type3app17ha3a4ea5947fe68acE+0xb8>
   2466e:	4820      	ldr	r0, [pc, #128]	@ (246f0 <_ZN20complex_dynamic_type3app17ha3a4ea5947fe68acE+0x128>)
   24670:	2108      	movs	r1, #8
   24672:	2200      	movs	r2, #0
   24674:	4613      	mov	r3, r2
   24676:	2c03      	cmp	r4, #3
   24678:	d101      	bne.n	2467e <_ZN20complex_dynamic_type3app17ha3a4ea5947fe68acE+0xb6>
   2467a:	df03      	svc	3
   2467c:	e000      	b.n	24680 <_ZN20complex_dynamic_type3app17ha3a4ea5947fe68acE+0xb8>
   2467e:	df04      	svc	4
   24680:	b023      	add	sp, #140	@ 0x8c
   24682:	bdf0      	pop	{r4, r5, r6, r7, pc}
   24684:	a805      	add	r0, sp, #20
   24686:	7800      	ldrb	r0, [r0, #0]
   24688:	2802      	cmp	r0, #2
   2468a:	d01c      	beq.n	246c6 <_ZN20complex_dynamic_type3app17ha3a4ea5947fe68acE+0xfe>
   2468c:	2803      	cmp	r0, #3
   2468e:	d105      	bne.n	2469c <_ZN20complex_dynamic_type3app17ha3a4ea5947fe68acE+0xd4>
   24690:	4817      	ldr	r0, [pc, #92]	@ (246f0 <_ZN20complex_dynamic_type3app17ha3a4ea5947fe68acE+0x128>)
   24692:	2108      	movs	r1, #8
   24694:	2200      	movs	r2, #0
   24696:	4613      	mov	r3, r2
   24698:	df03      	svc	3
   2469a:	e004      	b.n	246a6 <_ZN20complex_dynamic_type3app17ha3a4ea5947fe68acE+0xde>
   2469c:	4814      	ldr	r0, [pc, #80]	@ (246f0 <_ZN20complex_dynamic_type3app17ha3a4ea5947fe68acE+0x128>)
   2469e:	2108      	movs	r1, #8
   246a0:	2200      	movs	r2, #0
   246a2:	4613      	mov	r3, r2
   246a4:	df04      	svc	4
   246a6:	a805      	add	r0, sp, #20
   246a8:	9901      	ldr	r1, [sp, #4]
   246aa:	7001      	strb	r1, [r0, #0]
   246ac:	a816      	add	r0, sp, #88	@ 0x58
   246ae:	7800      	ldrb	r0, [r0, #0]
   246b0:	2803      	cmp	r0, #3
   246b2:	d008      	beq.n	246c6 <_ZN20complex_dynamic_type3app17ha3a4ea5947fe68acE+0xfe>
   246b4:	2802      	cmp	r0, #2
   246b6:	d10c      	bne.n	246d2 <_ZN20complex_dynamic_type3app17ha3a4ea5947fe68acE+0x10a>
   246b8:	1c68      	adds	r0, r5, #1
   246ba:	2231      	movs	r2, #49	@ 0x31
   246bc:	4621      	mov	r1, r4
   246be:	f005 ff5b 	bl	2a578 <__aeabi_memcpy>
   246c2:	702e      	strb	r6, [r5, #0]
   246c4:	e7dc      	b.n	24680 <_ZN20complex_dynamic_type3app17ha3a4ea5947fe68acE+0xb8>
   246c6:	480a      	ldr	r0, [pc, #40]	@ (246f0 <_ZN20complex_dynamic_type3app17ha3a4ea5947fe68acE+0x128>)
   246c8:	2105      	movs	r1, #5
   246ca:	2200      	movs	r2, #0
   246cc:	4613      	mov	r3, r2
   246ce:	df03      	svc	3
   246d0:	e004      	b.n	246dc <_ZN20complex_dynamic_type3app17ha3a4ea5947fe68acE+0x114>
   246d2:	4807      	ldr	r0, [pc, #28]	@ (246f0 <_ZN20complex_dynamic_type3app17ha3a4ea5947fe68acE+0x128>)
   246d4:	2105      	movs	r1, #5
   246d6:	2200      	movs	r2, #0
   246d8:	4613      	mov	r3, r2
   246da:	df04      	svc	4
   246dc:	a805      	add	r0, sp, #20
   246de:	7804      	ldrb	r4, [r0, #0]
   246e0:	1c68      	adds	r0, r5, #1
   246e2:	2231      	movs	r2, #49	@ 0x31
   246e4:	9902      	ldr	r1, [sp, #8]
   246e6:	f005 ff47 	bl	2a578 <__aeabi_memcpy>
   246ea:	702e      	strb	r6, [r5, #0]
   246ec:	e7bd      	b.n	2466a <_ZN20complex_dynamic_type3app17ha3a4ea5947fe68acE+0xa2>
   246ee:	46c0      	nop			@ (mov r8, r8)
   246f0:	00000fce 	.word	0x00000fce

000246f4 <_ZN20complex_dynamic_type3app17ha9d62dc3983ab6c7E>:
   246f4:	b5f0      	push	{r4, r5, r6, r7, lr}
   246f6:	af03      	add	r7, sp, #12
   246f8:	b0a3      	sub	sp, #140	@ 0x8c
   246fa:	9002      	str	r0, [sp, #8]
   246fc:	ae03      	add	r6, sp, #12
   246fe:	2502      	movs	r5, #2
   24700:	7035      	strb	r5, [r6, #0]
   24702:	1c70      	adds	r0, r6, #1
   24704:	221b      	movs	r2, #27
   24706:	9201      	str	r2, [sp, #4]
   24708:	f005 ff36 	bl	2a578 <__aeabi_memcpy>
   2470c:	ac0a      	add	r4, sp, #40	@ 0x28
   2470e:	1c60      	adds	r0, r4, #1
   24710:	2163      	movs	r1, #99	@ 0x63
   24712:	9000      	str	r0, [sp, #0]
   24714:	f005 fd70 	bl	2a1f8 <__aeabi_memclr>
   24718:	7025      	strb	r5, [r4, #0]
   2471a:	2204      	movs	r2, #4
   2471c:	4630      	mov	r0, r6
   2471e:	9901      	ldr	r1, [sp, #4]
   24720:	f7fb fcfe 	bl	20120 <_ZN9allow_pin12dynamic_type23Buffer$LT$B$C$_$C$_$GT$5allow17h04038e4b4a060920E>
   24724:	07c0      	lsls	r0, r0, #31
   24726:	d10e      	bne.n	24746 <_ZN20complex_dynamic_type3app17ha9d62dc3983ab6c7E+0x52>
   24728:	a80a      	add	r0, sp, #40	@ 0x28
   2472a:	2163      	movs	r1, #99	@ 0x63
   2472c:	2203      	movs	r2, #3
   2472e:	f7fb fcf7 	bl	20120 <_ZN9allow_pin12dynamic_type23Buffer$LT$B$C$_$C$_$GT$5allow17h04038e4b4a060920E>
   24732:	07c0      	lsls	r0, r0, #31
   24734:	d107      	bne.n	24746 <_ZN20complex_dynamic_type3app17ha9d62dc3983ab6c7E+0x52>
   24736:	4831      	ldr	r0, [pc, #196]	@ (247fc <_ZN20complex_dynamic_type3app17ha9d62dc3983ab6c7E+0x108>)
   24738:	2103      	movs	r1, #3
   2473a:	2600      	movs	r6, #0
   2473c:	460a      	mov	r2, r1
   2473e:	4633      	mov	r3, r6
   24740:	df02      	svc	2
   24742:	287f      	cmp	r0, #127	@ 0x7f
   24744:	d823      	bhi.n	2478e <_ZN20complex_dynamic_type3app17ha9d62dc3983ab6c7E+0x9a>
   24746:	2001      	movs	r0, #1
   24748:	9a02      	ldr	r2, [sp, #8]
   2474a:	7010      	strb	r0, [r2, #0]
   2474c:	6051      	str	r1, [r2, #4]
   2474e:	a80a      	add	r0, sp, #40	@ 0x28
   24750:	7800      	ldrb	r0, [r0, #0]
   24752:	2802      	cmp	r0, #2
   24754:	d00c      	beq.n	24770 <_ZN20complex_dynamic_type3app17ha9d62dc3983ab6c7E+0x7c>
   24756:	2803      	cmp	r0, #3
   24758:	d105      	bne.n	24766 <_ZN20complex_dynamic_type3app17ha9d62dc3983ab6c7E+0x72>
   2475a:	4828      	ldr	r0, [pc, #160]	@ (247fc <_ZN20complex_dynamic_type3app17ha9d62dc3983ab6c7E+0x108>)
   2475c:	2103      	movs	r1, #3
   2475e:	2200      	movs	r2, #0
   24760:	4613      	mov	r3, r2
   24762:	df03      	svc	3
   24764:	e004      	b.n	24770 <_ZN20complex_dynamic_type3app17ha9d62dc3983ab6c7E+0x7c>
   24766:	4825      	ldr	r0, [pc, #148]	@ (247fc <_ZN20complex_dynamic_type3app17ha9d62dc3983ab6c7E+0x108>)
   24768:	2103      	movs	r1, #3
   2476a:	2200      	movs	r2, #0
   2476c:	4613      	mov	r3, r2
   2476e:	df04      	svc	4
   24770:	a803      	add	r0, sp, #12
   24772:	7804      	ldrb	r4, [r0, #0]
   24774:	2c02      	cmp	r4, #2
   24776:	d008      	beq.n	2478a <_ZN20complex_dynamic_type3app17ha9d62dc3983ab6c7E+0x96>
   24778:	4820      	ldr	r0, [pc, #128]	@ (247fc <_ZN20complex_dynamic_type3app17ha9d62dc3983ab6c7E+0x108>)
   2477a:	2103      	movs	r1, #3
   2477c:	2200      	movs	r2, #0
   2477e:	4613      	mov	r3, r2
   24780:	2c03      	cmp	r4, #3
   24782:	d101      	bne.n	24788 <_ZN20complex_dynamic_type3app17ha9d62dc3983ab6c7E+0x94>
   24784:	df03      	svc	3
   24786:	e000      	b.n	2478a <_ZN20complex_dynamic_type3app17ha9d62dc3983ab6c7E+0x96>
   24788:	df04      	svc	4
   2478a:	b023      	add	sp, #140	@ 0x8c
   2478c:	bdf0      	pop	{r4, r5, r6, r7, pc}
   2478e:	a803      	add	r0, sp, #12
   24790:	7800      	ldrb	r0, [r0, #0]
   24792:	2802      	cmp	r0, #2
   24794:	d00c      	beq.n	247b0 <_ZN20complex_dynamic_type3app17ha9d62dc3983ab6c7E+0xbc>
   24796:	2803      	cmp	r0, #3
   24798:	d105      	bne.n	247a6 <_ZN20complex_dynamic_type3app17ha9d62dc3983ab6c7E+0xb2>
   2479a:	4818      	ldr	r0, [pc, #96]	@ (247fc <_ZN20complex_dynamic_type3app17ha9d62dc3983ab6c7E+0x108>)
   2479c:	2103      	movs	r1, #3
   2479e:	2200      	movs	r2, #0
   247a0:	4613      	mov	r3, r2
   247a2:	df03      	svc	3
   247a4:	e004      	b.n	247b0 <_ZN20complex_dynamic_type3app17ha9d62dc3983ab6c7E+0xbc>
   247a6:	4815      	ldr	r0, [pc, #84]	@ (247fc <_ZN20complex_dynamic_type3app17ha9d62dc3983ab6c7E+0x108>)
   247a8:	2103      	movs	r1, #3
   247aa:	2200      	movs	r2, #0
   247ac:	4613      	mov	r3, r2
   247ae:	df04      	svc	4
   247b0:	a803      	add	r0, sp, #12
   247b2:	7005      	strb	r5, [r0, #0]
   247b4:	a80a      	add	r0, sp, #40	@ 0x28
   247b6:	7800      	ldrb	r0, [r0, #0]
   247b8:	2803      	cmp	r0, #3
   247ba:	d009      	beq.n	247d0 <_ZN20complex_dynamic_type3app17ha9d62dc3983ab6c7E+0xdc>
   247bc:	2802      	cmp	r0, #2
   247be:	d10d      	bne.n	247dc <_ZN20complex_dynamic_type3app17ha9d62dc3983ab6c7E+0xe8>
   247c0:	9c02      	ldr	r4, [sp, #8]
   247c2:	1c60      	adds	r0, r4, #1
   247c4:	2263      	movs	r2, #99	@ 0x63
   247c6:	9900      	ldr	r1, [sp, #0]
   247c8:	f005 fed6 	bl	2a578 <__aeabi_memcpy>
   247cc:	7026      	strb	r6, [r4, #0]
   247ce:	e7dc      	b.n	2478a <_ZN20complex_dynamic_type3app17ha9d62dc3983ab6c7E+0x96>
   247d0:	480a      	ldr	r0, [pc, #40]	@ (247fc <_ZN20complex_dynamic_type3app17ha9d62dc3983ab6c7E+0x108>)
   247d2:	2103      	movs	r1, #3
   247d4:	2200      	movs	r2, #0
   247d6:	4613      	mov	r3, r2
   247d8:	df03      	svc	3
   247da:	e004      	b.n	247e6 <_ZN20complex_dynamic_type3app17ha9d62dc3983ab6c7E+0xf2>
   247dc:	4807      	ldr	r0, [pc, #28]	@ (247fc <_ZN20complex_dynamic_type3app17ha9d62dc3983ab6c7E+0x108>)
   247de:	2103      	movs	r1, #3
   247e0:	2200      	movs	r2, #0
   247e2:	4613      	mov	r3, r2
   247e4:	df04      	svc	4
   247e6:	a803      	add	r0, sp, #12
   247e8:	7804      	ldrb	r4, [r0, #0]
   247ea:	9d02      	ldr	r5, [sp, #8]
   247ec:	1c68      	adds	r0, r5, #1
   247ee:	2263      	movs	r2, #99	@ 0x63
   247f0:	9900      	ldr	r1, [sp, #0]
   247f2:	f005 fec1 	bl	2a578 <__aeabi_memcpy>
   247f6:	702e      	strb	r6, [r5, #0]
   247f8:	e7bc      	b.n	24774 <_ZN20complex_dynamic_type3app17ha9d62dc3983ab6c7E+0x80>
   247fa:	46c0      	nop			@ (mov r8, r8)
   247fc:	00002548 	.word	0x00002548

00024800 <_ZN20complex_dynamic_type3app17haf7a0a14fec1a9a5E>:
   24800:	b5f0      	push	{r4, r5, r6, r7, lr}
   24802:	af03      	add	r7, sp, #12
   24804:	b0a7      	sub	sp, #156	@ 0x9c
   24806:	9004      	str	r0, [sp, #16]
   24808:	a805      	add	r0, sp, #20
   2480a:	2402      	movs	r4, #2
   2480c:	7004      	strb	r4, [r0, #0]
   2480e:	1c46      	adds	r6, r0, #1
   24810:	224f      	movs	r2, #79	@ 0x4f
   24812:	9203      	str	r2, [sp, #12]
   24814:	4630      	mov	r0, r6
   24816:	f005 feaf 	bl	2a578 <__aeabi_memcpy>
   2481a:	ad19      	add	r5, sp, #100	@ 0x64
   2481c:	1c68      	adds	r0, r5, #1
   2481e:	2135      	movs	r1, #53	@ 0x35
   24820:	9002      	str	r0, [sp, #8]
   24822:	f005 fce9 	bl	2a1f8 <__aeabi_memclr>
   24826:	9401      	str	r4, [sp, #4]
   24828:	702c      	strb	r4, [r5, #0]
   2482a:	483e      	ldr	r0, [pc, #248]	@ (24924 <_ZN20complex_dynamic_type3app17haf7a0a14fec1a9a5E+0x124>)
   2482c:	2107      	movs	r1, #7
   2482e:	4632      	mov	r2, r6
   24830:	9b03      	ldr	r3, [sp, #12]
   24832:	df04      	svc	4
   24834:	2802      	cmp	r0, #2
   24836:	d104      	bne.n	24842 <_ZN20complex_dynamic_type3app17haf7a0a14fec1a9a5E+0x42>
   24838:	2001      	movs	r0, #1
   2483a:	9a04      	ldr	r2, [sp, #16]
   2483c:	7010      	strb	r0, [r2, #0]
   2483e:	6051      	str	r1, [r2, #4]
   24840:	e02c      	b.n	2489c <_ZN20complex_dynamic_type3app17haf7a0a14fec1a9a5E+0x9c>
   24842:	9d04      	ldr	r5, [sp, #16]
   24844:	a805      	add	r0, sp, #20
   24846:	2104      	movs	r1, #4
   24848:	7001      	strb	r1, [r0, #0]
   2484a:	4836      	ldr	r0, [pc, #216]	@ (24924 <_ZN20complex_dynamic_type3app17haf7a0a14fec1a9a5E+0x124>)
   2484c:	2401      	movs	r4, #1
   2484e:	2335      	movs	r3, #53	@ 0x35
   24850:	4621      	mov	r1, r4
   24852:	9a02      	ldr	r2, [sp, #8]
   24854:	df03      	svc	3
   24856:	2802      	cmp	r0, #2
   24858:	d10d      	bne.n	24876 <_ZN20complex_dynamic_type3app17haf7a0a14fec1a9a5E+0x76>
   2485a:	702c      	strb	r4, [r5, #0]
   2485c:	6069      	str	r1, [r5, #4]
   2485e:	a819      	add	r0, sp, #100	@ 0x64
   24860:	7800      	ldrb	r0, [r0, #0]
   24862:	2802      	cmp	r0, #2
   24864:	d01a      	beq.n	2489c <_ZN20complex_dynamic_type3app17haf7a0a14fec1a9a5E+0x9c>
   24866:	2803      	cmp	r0, #3
   24868:	d013      	beq.n	24892 <_ZN20complex_dynamic_type3app17haf7a0a14fec1a9a5E+0x92>
   2486a:	482e      	ldr	r0, [pc, #184]	@ (24924 <_ZN20complex_dynamic_type3app17haf7a0a14fec1a9a5E+0x124>)
   2486c:	2101      	movs	r1, #1
   2486e:	2200      	movs	r2, #0
   24870:	4613      	mov	r3, r2
   24872:	df04      	svc	4
   24874:	e012      	b.n	2489c <_ZN20complex_dynamic_type3app17haf7a0a14fec1a9a5E+0x9c>
   24876:	a819      	add	r0, sp, #100	@ 0x64
   24878:	2103      	movs	r1, #3
   2487a:	7001      	strb	r1, [r0, #0]
   2487c:	4829      	ldr	r0, [pc, #164]	@ (24924 <_ZN20complex_dynamic_type3app17haf7a0a14fec1a9a5E+0x124>)
   2487e:	2107      	movs	r1, #7
   24880:	2401      	movs	r4, #1
   24882:	2600      	movs	r6, #0
   24884:	4622      	mov	r2, r4
   24886:	4633      	mov	r3, r6
   24888:	df02      	svc	2
   2488a:	287f      	cmp	r0, #127	@ 0x7f
   2488c:	d815      	bhi.n	248ba <_ZN20complex_dynamic_type3app17haf7a0a14fec1a9a5E+0xba>
   2488e:	702c      	strb	r4, [r5, #0]
   24890:	6069      	str	r1, [r5, #4]
   24892:	4824      	ldr	r0, [pc, #144]	@ (24924 <_ZN20complex_dynamic_type3app17haf7a0a14fec1a9a5E+0x124>)
   24894:	2101      	movs	r1, #1
   24896:	2200      	movs	r2, #0
   24898:	4613      	mov	r3, r2
   2489a:	df03      	svc	3
   2489c:	a805      	add	r0, sp, #20
   2489e:	7804      	ldrb	r4, [r0, #0]
   248a0:	2c02      	cmp	r4, #2
   248a2:	d008      	beq.n	248b6 <_ZN20complex_dynamic_type3app17haf7a0a14fec1a9a5E+0xb6>
   248a4:	481f      	ldr	r0, [pc, #124]	@ (24924 <_ZN20complex_dynamic_type3app17haf7a0a14fec1a9a5E+0x124>)
   248a6:	2107      	movs	r1, #7
   248a8:	2200      	movs	r2, #0
   248aa:	4613      	mov	r3, r2
   248ac:	2c03      	cmp	r4, #3
   248ae:	d101      	bne.n	248b4 <_ZN20complex_dynamic_type3app17haf7a0a14fec1a9a5E+0xb4>
   248b0:	df03      	svc	3
   248b2:	e000      	b.n	248b6 <_ZN20complex_dynamic_type3app17haf7a0a14fec1a9a5E+0xb6>
   248b4:	df04      	svc	4
   248b6:	b027      	add	sp, #156	@ 0x9c
   248b8:	bdf0      	pop	{r4, r5, r6, r7, pc}
   248ba:	a805      	add	r0, sp, #20
   248bc:	7800      	ldrb	r0, [r0, #0]
   248be:	2802      	cmp	r0, #2
   248c0:	d01c      	beq.n	248fc <_ZN20complex_dynamic_type3app17haf7a0a14fec1a9a5E+0xfc>
   248c2:	2803      	cmp	r0, #3
   248c4:	d105      	bne.n	248d2 <_ZN20complex_dynamic_type3app17haf7a0a14fec1a9a5E+0xd2>
   248c6:	4817      	ldr	r0, [pc, #92]	@ (24924 <_ZN20complex_dynamic_type3app17haf7a0a14fec1a9a5E+0x124>)
   248c8:	2107      	movs	r1, #7
   248ca:	2200      	movs	r2, #0
   248cc:	4613      	mov	r3, r2
   248ce:	df03      	svc	3
   248d0:	e004      	b.n	248dc <_ZN20complex_dynamic_type3app17haf7a0a14fec1a9a5E+0xdc>
   248d2:	4814      	ldr	r0, [pc, #80]	@ (24924 <_ZN20complex_dynamic_type3app17haf7a0a14fec1a9a5E+0x124>)
   248d4:	2107      	movs	r1, #7
   248d6:	2200      	movs	r2, #0
   248d8:	4613      	mov	r3, r2
   248da:	df04      	svc	4
   248dc:	9901      	ldr	r1, [sp, #4]
   248de:	a805      	add	r0, sp, #20
   248e0:	7001      	strb	r1, [r0, #0]
   248e2:	a819      	add	r0, sp, #100	@ 0x64
   248e4:	7800      	ldrb	r0, [r0, #0]
   248e6:	2803      	cmp	r0, #3
   248e8:	d008      	beq.n	248fc <_ZN20complex_dynamic_type3app17haf7a0a14fec1a9a5E+0xfc>
   248ea:	2802      	cmp	r0, #2
   248ec:	d10c      	bne.n	24908 <_ZN20complex_dynamic_type3app17haf7a0a14fec1a9a5E+0x108>
   248ee:	1c68      	adds	r0, r5, #1
   248f0:	2235      	movs	r2, #53	@ 0x35
   248f2:	9902      	ldr	r1, [sp, #8]
   248f4:	f005 fe40 	bl	2a578 <__aeabi_memcpy>
   248f8:	702e      	strb	r6, [r5, #0]
   248fa:	e7dc      	b.n	248b6 <_ZN20complex_dynamic_type3app17haf7a0a14fec1a9a5E+0xb6>
   248fc:	4809      	ldr	r0, [pc, #36]	@ (24924 <_ZN20complex_dynamic_type3app17haf7a0a14fec1a9a5E+0x124>)
   248fe:	2101      	movs	r1, #1
   24900:	2200      	movs	r2, #0
   24902:	4613      	mov	r3, r2
   24904:	df03      	svc	3
   24906:	e004      	b.n	24912 <_ZN20complex_dynamic_type3app17haf7a0a14fec1a9a5E+0x112>
   24908:	4806      	ldr	r0, [pc, #24]	@ (24924 <_ZN20complex_dynamic_type3app17haf7a0a14fec1a9a5E+0x124>)
   2490a:	2101      	movs	r1, #1
   2490c:	2200      	movs	r2, #0
   2490e:	4613      	mov	r3, r2
   24910:	df04      	svc	4
   24912:	a805      	add	r0, sp, #20
   24914:	7804      	ldrb	r4, [r0, #0]
   24916:	1c68      	adds	r0, r5, #1
   24918:	2235      	movs	r2, #53	@ 0x35
   2491a:	9902      	ldr	r1, [sp, #8]
   2491c:	f005 fe2c 	bl	2a578 <__aeabi_memcpy>
   24920:	702e      	strb	r6, [r5, #0]
   24922:	e7bd      	b.n	248a0 <_ZN20complex_dynamic_type3app17haf7a0a14fec1a9a5E+0xa0>
   24924:	000016d7 	.word	0x000016d7

00024928 <_ZN20complex_dynamic_type3app17hb0df980530ce1ee1E>:
   24928:	b5f0      	push	{r4, r5, r6, r7, lr}
   2492a:	af03      	add	r7, sp, #12
   2492c:	b0a3      	sub	sp, #140	@ 0x8c
   2492e:	9003      	str	r0, [sp, #12]
   24930:	a804      	add	r0, sp, #16
   24932:	2602      	movs	r6, #2
   24934:	7006      	strb	r6, [r0, #0]
   24936:	1c40      	adds	r0, r0, #1
   24938:	9002      	str	r0, [sp, #8]
   2493a:	254a      	movs	r5, #74	@ 0x4a
   2493c:	462a      	mov	r2, r5
   2493e:	f005 fe1b 	bl	2a578 <__aeabi_memcpy>
   24942:	ac17      	add	r4, sp, #92	@ 0x5c
   24944:	1c60      	adds	r0, r4, #1
   24946:	212d      	movs	r1, #45	@ 0x2d
   24948:	9001      	str	r0, [sp, #4]
   2494a:	f005 fc55 	bl	2a1f8 <__aeabi_memclr>
   2494e:	7026      	strb	r6, [r4, #0]
   24950:	4841      	ldr	r0, [pc, #260]	@ (24a58 <_ZN20complex_dynamic_type3app17hb0df980530ce1ee1E+0x130>)
   24952:	4631      	mov	r1, r6
   24954:	9a02      	ldr	r2, [sp, #8]
   24956:	462b      	mov	r3, r5
   24958:	df04      	svc	4
   2495a:	2802      	cmp	r0, #2
   2495c:	d104      	bne.n	24968 <_ZN20complex_dynamic_type3app17hb0df980530ce1ee1E+0x40>
   2495e:	2001      	movs	r0, #1
   24960:	9a03      	ldr	r2, [sp, #12]
   24962:	7010      	strb	r0, [r2, #0]
   24964:	6051      	str	r1, [r2, #4]
   24966:	e02e      	b.n	249c6 <_ZN20complex_dynamic_type3app17hb0df980530ce1ee1E+0x9e>
   24968:	9d03      	ldr	r5, [sp, #12]
   2496a:	a804      	add	r0, sp, #16
   2496c:	2104      	movs	r1, #4
   2496e:	7001      	strb	r1, [r0, #0]
   24970:	4839      	ldr	r0, [pc, #228]	@ (24a58 <_ZN20complex_dynamic_type3app17hb0df980530ce1ee1E+0x130>)
   24972:	2603      	movs	r6, #3
   24974:	232d      	movs	r3, #45	@ 0x2d
   24976:	4631      	mov	r1, r6
   24978:	9c01      	ldr	r4, [sp, #4]
   2497a:	4622      	mov	r2, r4
   2497c:	df03      	svc	3
   2497e:	2802      	cmp	r0, #2
   24980:	d10e      	bne.n	249a0 <_ZN20complex_dynamic_type3app17hb0df980530ce1ee1E+0x78>
   24982:	2001      	movs	r0, #1
   24984:	7028      	strb	r0, [r5, #0]
   24986:	6069      	str	r1, [r5, #4]
   24988:	a817      	add	r0, sp, #92	@ 0x5c
   2498a:	7800      	ldrb	r0, [r0, #0]
   2498c:	2802      	cmp	r0, #2
   2498e:	d01a      	beq.n	249c6 <_ZN20complex_dynamic_type3app17hb0df980530ce1ee1E+0x9e>
   24990:	2803      	cmp	r0, #3
   24992:	d013      	beq.n	249bc <_ZN20complex_dynamic_type3app17hb0df980530ce1ee1E+0x94>
   24994:	4830      	ldr	r0, [pc, #192]	@ (24a58 <_ZN20complex_dynamic_type3app17hb0df980530ce1ee1E+0x130>)
   24996:	2103      	movs	r1, #3
   24998:	2200      	movs	r2, #0
   2499a:	4613      	mov	r3, r2
   2499c:	df04      	svc	4
   2499e:	e012      	b.n	249c6 <_ZN20complex_dynamic_type3app17hb0df980530ce1ee1E+0x9e>
   249a0:	a817      	add	r0, sp, #92	@ 0x5c
   249a2:	7006      	strb	r6, [r0, #0]
   249a4:	482c      	ldr	r0, [pc, #176]	@ (24a58 <_ZN20complex_dynamic_type3app17hb0df980530ce1ee1E+0x130>)
   249a6:	2102      	movs	r1, #2
   249a8:	2300      	movs	r3, #0
   249aa:	9100      	str	r1, [sp, #0]
   249ac:	4632      	mov	r2, r6
   249ae:	9302      	str	r3, [sp, #8]
   249b0:	df02      	svc	2
   249b2:	287f      	cmp	r0, #127	@ 0x7f
   249b4:	d816      	bhi.n	249e4 <_ZN20complex_dynamic_type3app17hb0df980530ce1ee1E+0xbc>
   249b6:	2001      	movs	r0, #1
   249b8:	7028      	strb	r0, [r5, #0]
   249ba:	6069      	str	r1, [r5, #4]
   249bc:	4826      	ldr	r0, [pc, #152]	@ (24a58 <_ZN20complex_dynamic_type3app17hb0df980530ce1ee1E+0x130>)
   249be:	2103      	movs	r1, #3
   249c0:	2200      	movs	r2, #0
   249c2:	4613      	mov	r3, r2
   249c4:	df03      	svc	3
   249c6:	a804      	add	r0, sp, #16
   249c8:	7804      	ldrb	r4, [r0, #0]
   249ca:	2c02      	cmp	r4, #2
   249cc:	d008      	beq.n	249e0 <_ZN20complex_dynamic_type3app17hb0df980530ce1ee1E+0xb8>
   249ce:	4822      	ldr	r0, [pc, #136]	@ (24a58 <_ZN20complex_dynamic_type3app17hb0df980530ce1ee1E+0x130>)
   249d0:	2102      	movs	r1, #2
   249d2:	2200      	movs	r2, #0
   249d4:	4613      	mov	r3, r2
   249d6:	2c03      	cmp	r4, #3
   249d8:	d101      	bne.n	249de <_ZN20complex_dynamic_type3app17hb0df980530ce1ee1E+0xb6>
   249da:	df03      	svc	3
   249dc:	e000      	b.n	249e0 <_ZN20complex_dynamic_type3app17hb0df980530ce1ee1E+0xb8>
   249de:	df04      	svc	4
   249e0:	b023      	add	sp, #140	@ 0x8c
   249e2:	bdf0      	pop	{r4, r5, r6, r7, pc}
   249e4:	a804      	add	r0, sp, #16
   249e6:	7800      	ldrb	r0, [r0, #0]
   249e8:	2802      	cmp	r0, #2
   249ea:	d01d      	beq.n	24a28 <_ZN20complex_dynamic_type3app17hb0df980530ce1ee1E+0x100>
   249ec:	2803      	cmp	r0, #3
   249ee:	d105      	bne.n	249fc <_ZN20complex_dynamic_type3app17hb0df980530ce1ee1E+0xd4>
   249f0:	4819      	ldr	r0, [pc, #100]	@ (24a58 <_ZN20complex_dynamic_type3app17hb0df980530ce1ee1E+0x130>)
   249f2:	2102      	movs	r1, #2
   249f4:	2200      	movs	r2, #0
   249f6:	4613      	mov	r3, r2
   249f8:	df03      	svc	3
   249fa:	e004      	b.n	24a06 <_ZN20complex_dynamic_type3app17hb0df980530ce1ee1E+0xde>
   249fc:	4816      	ldr	r0, [pc, #88]	@ (24a58 <_ZN20complex_dynamic_type3app17hb0df980530ce1ee1E+0x130>)
   249fe:	2102      	movs	r1, #2
   24a00:	2200      	movs	r2, #0
   24a02:	4613      	mov	r3, r2
   24a04:	df04      	svc	4
   24a06:	9900      	ldr	r1, [sp, #0]
   24a08:	a804      	add	r0, sp, #16
   24a0a:	7001      	strb	r1, [r0, #0]
   24a0c:	a817      	add	r0, sp, #92	@ 0x5c
   24a0e:	7800      	ldrb	r0, [r0, #0]
   24a10:	2803      	cmp	r0, #3
   24a12:	d009      	beq.n	24a28 <_ZN20complex_dynamic_type3app17hb0df980530ce1ee1E+0x100>
   24a14:	2802      	cmp	r0, #2
   24a16:	d10e      	bne.n	24a36 <_ZN20complex_dynamic_type3app17hb0df980530ce1ee1E+0x10e>
   24a18:	1c68      	adds	r0, r5, #1
   24a1a:	222d      	movs	r2, #45	@ 0x2d
   24a1c:	4621      	mov	r1, r4
   24a1e:	f005 fdab 	bl	2a578 <__aeabi_memcpy>
   24a22:	9802      	ldr	r0, [sp, #8]
   24a24:	7028      	strb	r0, [r5, #0]
   24a26:	e7db      	b.n	249e0 <_ZN20complex_dynamic_type3app17hb0df980530ce1ee1E+0xb8>
   24a28:	4626      	mov	r6, r4
   24a2a:	480b      	ldr	r0, [pc, #44]	@ (24a58 <_ZN20complex_dynamic_type3app17hb0df980530ce1ee1E+0x130>)
   24a2c:	2103      	movs	r1, #3
   24a2e:	2200      	movs	r2, #0
   24a30:	4613      	mov	r3, r2
   24a32:	df03      	svc	3
   24a34:	e005      	b.n	24a42 <_ZN20complex_dynamic_type3app17hb0df980530ce1ee1E+0x11a>
   24a36:	4626      	mov	r6, r4
   24a38:	4807      	ldr	r0, [pc, #28]	@ (24a58 <_ZN20complex_dynamic_type3app17hb0df980530ce1ee1E+0x130>)
   24a3a:	2103      	movs	r1, #3
   24a3c:	2200      	movs	r2, #0
   24a3e:	4613      	mov	r3, r2
   24a40:	df04      	svc	4
   24a42:	a804      	add	r0, sp, #16
   24a44:	7804      	ldrb	r4, [r0, #0]
   24a46:	1c68      	adds	r0, r5, #1
   24a48:	222d      	movs	r2, #45	@ 0x2d
   24a4a:	4631      	mov	r1, r6
   24a4c:	f005 fd94 	bl	2a578 <__aeabi_memcpy>
   24a50:	9802      	ldr	r0, [sp, #8]
   24a52:	7028      	strb	r0, [r5, #0]
   24a54:	e7b9      	b.n	249ca <_ZN20complex_dynamic_type3app17hb0df980530ce1ee1E+0xa2>
   24a56:	46c0      	nop			@ (mov r8, r8)
   24a58:	00000e3d 	.word	0x00000e3d

00024a5c <_ZN20complex_dynamic_type3app17hb26a5917fcf0b5cbE>:
   24a5c:	b5f0      	push	{r4, r5, r6, r7, lr}
   24a5e:	af03      	add	r7, sp, #12
   24a60:	b0a1      	sub	sp, #132	@ 0x84
   24a62:	9002      	str	r0, [sp, #8]
   24a64:	a803      	add	r0, sp, #12
   24a66:	2602      	movs	r6, #2
   24a68:	7006      	strb	r6, [r0, #0]
   24a6a:	1c40      	adds	r0, r0, #1
   24a6c:	9001      	str	r0, [sp, #4]
   24a6e:	2521      	movs	r5, #33	@ 0x21
   24a70:	462a      	mov	r2, r5
   24a72:	f005 fd81 	bl	2a578 <__aeabi_memcpy>
   24a76:	ac0c      	add	r4, sp, #48	@ 0x30
   24a78:	1c60      	adds	r0, r4, #1
   24a7a:	2153      	movs	r1, #83	@ 0x53
   24a7c:	9000      	str	r0, [sp, #0]
   24a7e:	f005 fbbb 	bl	2a1f8 <__aeabi_memclr>
   24a82:	7026      	strb	r6, [r4, #0]
   24a84:	4841      	ldr	r0, [pc, #260]	@ (24b8c <_ZN20complex_dynamic_type3app17hb26a5917fcf0b5cbE+0x130>)
   24a86:	4631      	mov	r1, r6
   24a88:	9a01      	ldr	r2, [sp, #4]
   24a8a:	462b      	mov	r3, r5
   24a8c:	df04      	svc	4
   24a8e:	2802      	cmp	r0, #2
   24a90:	d104      	bne.n	24a9c <_ZN20complex_dynamic_type3app17hb26a5917fcf0b5cbE+0x40>
   24a92:	2001      	movs	r0, #1
   24a94:	9a02      	ldr	r2, [sp, #8]
   24a96:	7010      	strb	r0, [r2, #0]
   24a98:	6051      	str	r1, [r2, #4]
   24a9a:	e02e      	b.n	24afa <_ZN20complex_dynamic_type3app17hb26a5917fcf0b5cbE+0x9e>
   24a9c:	9c02      	ldr	r4, [sp, #8]
   24a9e:	a803      	add	r0, sp, #12
   24aa0:	2104      	movs	r1, #4
   24aa2:	7001      	strb	r1, [r0, #0]
   24aa4:	4839      	ldr	r0, [pc, #228]	@ (24b8c <_ZN20complex_dynamic_type3app17hb26a5917fcf0b5cbE+0x130>)
   24aa6:	2108      	movs	r1, #8
   24aa8:	2353      	movs	r3, #83	@ 0x53
   24aaa:	9d00      	ldr	r5, [sp, #0]
   24aac:	462a      	mov	r2, r5
   24aae:	df03      	svc	3
   24ab0:	2802      	cmp	r0, #2
   24ab2:	d10e      	bne.n	24ad2 <_ZN20complex_dynamic_type3app17hb26a5917fcf0b5cbE+0x76>
   24ab4:	2001      	movs	r0, #1
   24ab6:	7020      	strb	r0, [r4, #0]
   24ab8:	6061      	str	r1, [r4, #4]
   24aba:	a80c      	add	r0, sp, #48	@ 0x30
   24abc:	7800      	ldrb	r0, [r0, #0]
   24abe:	2802      	cmp	r0, #2
   24ac0:	d01b      	beq.n	24afa <_ZN20complex_dynamic_type3app17hb26a5917fcf0b5cbE+0x9e>
   24ac2:	2803      	cmp	r0, #3
   24ac4:	d014      	beq.n	24af0 <_ZN20complex_dynamic_type3app17hb26a5917fcf0b5cbE+0x94>
   24ac6:	4831      	ldr	r0, [pc, #196]	@ (24b8c <_ZN20complex_dynamic_type3app17hb26a5917fcf0b5cbE+0x130>)
   24ac8:	2108      	movs	r1, #8
   24aca:	2200      	movs	r2, #0
   24acc:	4613      	mov	r3, r2
   24ace:	df04      	svc	4
   24ad0:	e013      	b.n	24afa <_ZN20complex_dynamic_type3app17hb26a5917fcf0b5cbE+0x9e>
   24ad2:	a80c      	add	r0, sp, #48	@ 0x30
   24ad4:	2103      	movs	r1, #3
   24ad6:	7001      	strb	r1, [r0, #0]
   24ad8:	482c      	ldr	r0, [pc, #176]	@ (24b8c <_ZN20complex_dynamic_type3app17hb26a5917fcf0b5cbE+0x130>)
   24ada:	2602      	movs	r6, #2
   24adc:	2208      	movs	r2, #8
   24ade:	2300      	movs	r3, #0
   24ae0:	4631      	mov	r1, r6
   24ae2:	9301      	str	r3, [sp, #4]
   24ae4:	df02      	svc	2
   24ae6:	287f      	cmp	r0, #127	@ 0x7f
   24ae8:	d816      	bhi.n	24b18 <_ZN20complex_dynamic_type3app17hb26a5917fcf0b5cbE+0xbc>
   24aea:	2001      	movs	r0, #1
   24aec:	7020      	strb	r0, [r4, #0]
   24aee:	6061      	str	r1, [r4, #4]
   24af0:	4826      	ldr	r0, [pc, #152]	@ (24b8c <_ZN20complex_dynamic_type3app17hb26a5917fcf0b5cbE+0x130>)
   24af2:	2108      	movs	r1, #8
   24af4:	2200      	movs	r2, #0
   24af6:	4613      	mov	r3, r2
   24af8:	df03      	svc	3
   24afa:	a803      	add	r0, sp, #12
   24afc:	7804      	ldrb	r4, [r0, #0]
   24afe:	2c02      	cmp	r4, #2
   24b00:	d008      	beq.n	24b14 <_ZN20complex_dynamic_type3app17hb26a5917fcf0b5cbE+0xb8>
   24b02:	4822      	ldr	r0, [pc, #136]	@ (24b8c <_ZN20complex_dynamic_type3app17hb26a5917fcf0b5cbE+0x130>)
   24b04:	2102      	movs	r1, #2
   24b06:	2200      	movs	r2, #0
   24b08:	4613      	mov	r3, r2
   24b0a:	2c03      	cmp	r4, #3
   24b0c:	d101      	bne.n	24b12 <_ZN20complex_dynamic_type3app17hb26a5917fcf0b5cbE+0xb6>
   24b0e:	df03      	svc	3
   24b10:	e000      	b.n	24b14 <_ZN20complex_dynamic_type3app17hb26a5917fcf0b5cbE+0xb8>
   24b12:	df04      	svc	4
   24b14:	b021      	add	sp, #132	@ 0x84
   24b16:	bdf0      	pop	{r4, r5, r6, r7, pc}
   24b18:	a803      	add	r0, sp, #12
   24b1a:	7800      	ldrb	r0, [r0, #0]
   24b1c:	2802      	cmp	r0, #2
   24b1e:	d01c      	beq.n	24b5a <_ZN20complex_dynamic_type3app17hb26a5917fcf0b5cbE+0xfe>
   24b20:	2803      	cmp	r0, #3
   24b22:	d105      	bne.n	24b30 <_ZN20complex_dynamic_type3app17hb26a5917fcf0b5cbE+0xd4>
   24b24:	4819      	ldr	r0, [pc, #100]	@ (24b8c <_ZN20complex_dynamic_type3app17hb26a5917fcf0b5cbE+0x130>)
   24b26:	2102      	movs	r1, #2
   24b28:	2200      	movs	r2, #0
   24b2a:	4613      	mov	r3, r2
   24b2c:	df03      	svc	3
   24b2e:	e004      	b.n	24b3a <_ZN20complex_dynamic_type3app17hb26a5917fcf0b5cbE+0xde>
   24b30:	4816      	ldr	r0, [pc, #88]	@ (24b8c <_ZN20complex_dynamic_type3app17hb26a5917fcf0b5cbE+0x130>)
   24b32:	2102      	movs	r1, #2
   24b34:	2200      	movs	r2, #0
   24b36:	4613      	mov	r3, r2
   24b38:	df04      	svc	4
   24b3a:	a803      	add	r0, sp, #12
   24b3c:	7006      	strb	r6, [r0, #0]
   24b3e:	a80c      	add	r0, sp, #48	@ 0x30
   24b40:	7800      	ldrb	r0, [r0, #0]
   24b42:	2803      	cmp	r0, #3
   24b44:	d009      	beq.n	24b5a <_ZN20complex_dynamic_type3app17hb26a5917fcf0b5cbE+0xfe>
   24b46:	2802      	cmp	r0, #2
   24b48:	d10e      	bne.n	24b68 <_ZN20complex_dynamic_type3app17hb26a5917fcf0b5cbE+0x10c>
   24b4a:	1c60      	adds	r0, r4, #1
   24b4c:	2253      	movs	r2, #83	@ 0x53
   24b4e:	4629      	mov	r1, r5
   24b50:	f005 fd12 	bl	2a578 <__aeabi_memcpy>
   24b54:	9801      	ldr	r0, [sp, #4]
   24b56:	7020      	strb	r0, [r4, #0]
   24b58:	e7dc      	b.n	24b14 <_ZN20complex_dynamic_type3app17hb26a5917fcf0b5cbE+0xb8>
   24b5a:	462e      	mov	r6, r5
   24b5c:	480b      	ldr	r0, [pc, #44]	@ (24b8c <_ZN20complex_dynamic_type3app17hb26a5917fcf0b5cbE+0x130>)
   24b5e:	2108      	movs	r1, #8
   24b60:	2200      	movs	r2, #0
   24b62:	4613      	mov	r3, r2
   24b64:	df03      	svc	3
   24b66:	e005      	b.n	24b74 <_ZN20complex_dynamic_type3app17hb26a5917fcf0b5cbE+0x118>
   24b68:	462e      	mov	r6, r5
   24b6a:	4808      	ldr	r0, [pc, #32]	@ (24b8c <_ZN20complex_dynamic_type3app17hb26a5917fcf0b5cbE+0x130>)
   24b6c:	2108      	movs	r1, #8
   24b6e:	2200      	movs	r2, #0
   24b70:	4613      	mov	r3, r2
   24b72:	df04      	svc	4
   24b74:	4625      	mov	r5, r4
   24b76:	a803      	add	r0, sp, #12
   24b78:	7804      	ldrb	r4, [r0, #0]
   24b7a:	1c68      	adds	r0, r5, #1
   24b7c:	2253      	movs	r2, #83	@ 0x53
   24b7e:	4631      	mov	r1, r6
   24b80:	f005 fcfa 	bl	2a578 <__aeabi_memcpy>
   24b84:	9801      	ldr	r0, [sp, #4]
   24b86:	7028      	strb	r0, [r5, #0]
   24b88:	e7b9      	b.n	24afe <_ZN20complex_dynamic_type3app17hb26a5917fcf0b5cbE+0xa2>
   24b8a:	46c0      	nop			@ (mov r8, r8)
   24b8c:	0000253e 	.word	0x0000253e

00024b90 <_ZN20complex_dynamic_type3app17hb9d0c8f2458861c2E>:
   24b90:	b5f0      	push	{r4, r5, r6, r7, lr}
   24b92:	af03      	add	r7, sp, #12
   24b94:	b09f      	sub	sp, #124	@ 0x7c
   24b96:	9003      	str	r0, [sp, #12]
   24b98:	ae04      	add	r6, sp, #16
   24b9a:	2502      	movs	r5, #2
   24b9c:	7035      	strb	r5, [r6, #0]
   24b9e:	1c70      	adds	r0, r6, #1
   24ba0:	222e      	movs	r2, #46	@ 0x2e
   24ba2:	9202      	str	r2, [sp, #8]
   24ba4:	f005 fce8 	bl	2a578 <__aeabi_memcpy>
   24ba8:	ac10      	add	r4, sp, #64	@ 0x40
   24baa:	1c60      	adds	r0, r4, #1
   24bac:	2138      	movs	r1, #56	@ 0x38
   24bae:	9001      	str	r0, [sp, #4]
   24bb0:	f005 fb22 	bl	2a1f8 <__aeabi_memclr>
   24bb4:	7025      	strb	r5, [r4, #0]
   24bb6:	2204      	movs	r2, #4
   24bb8:	4630      	mov	r0, r6
   24bba:	9902      	ldr	r1, [sp, #8]
   24bbc:	f7fb fb64 	bl	20288 <_ZN9allow_pin12dynamic_type23Buffer$LT$B$C$_$C$_$GT$5allow17hb7ea17950ae19600E>
   24bc0:	07c0      	lsls	r0, r0, #31
   24bc2:	d10e      	bne.n	24be2 <_ZN20complex_dynamic_type3app17hb9d0c8f2458861c2E+0x52>
   24bc4:	a810      	add	r0, sp, #64	@ 0x40
   24bc6:	2138      	movs	r1, #56	@ 0x38
   24bc8:	2203      	movs	r2, #3
   24bca:	f7fb fb5d 	bl	20288 <_ZN9allow_pin12dynamic_type23Buffer$LT$B$C$_$C$_$GT$5allow17hb7ea17950ae19600E>
   24bce:	07c0      	lsls	r0, r0, #31
   24bd0:	d107      	bne.n	24be2 <_ZN20complex_dynamic_type3app17hb9d0c8f2458861c2E+0x52>
   24bd2:	4831      	ldr	r0, [pc, #196]	@ (24c98 <_ZN20complex_dynamic_type3app17hb9d0c8f2458861c2E+0x108>)
   24bd4:	2109      	movs	r1, #9
   24bd6:	2600      	movs	r6, #0
   24bd8:	460a      	mov	r2, r1
   24bda:	4633      	mov	r3, r6
   24bdc:	df02      	svc	2
   24bde:	287f      	cmp	r0, #127	@ 0x7f
   24be0:	d823      	bhi.n	24c2a <_ZN20complex_dynamic_type3app17hb9d0c8f2458861c2E+0x9a>
   24be2:	2001      	movs	r0, #1
   24be4:	9a03      	ldr	r2, [sp, #12]
   24be6:	7010      	strb	r0, [r2, #0]
   24be8:	6051      	str	r1, [r2, #4]
   24bea:	a810      	add	r0, sp, #64	@ 0x40
   24bec:	7800      	ldrb	r0, [r0, #0]
   24bee:	2802      	cmp	r0, #2
   24bf0:	d00c      	beq.n	24c0c <_ZN20complex_dynamic_type3app17hb9d0c8f2458861c2E+0x7c>
   24bf2:	2803      	cmp	r0, #3
   24bf4:	d105      	bne.n	24c02 <_ZN20complex_dynamic_type3app17hb9d0c8f2458861c2E+0x72>
   24bf6:	4828      	ldr	r0, [pc, #160]	@ (24c98 <_ZN20complex_dynamic_type3app17hb9d0c8f2458861c2E+0x108>)
   24bf8:	2109      	movs	r1, #9
   24bfa:	2200      	movs	r2, #0
   24bfc:	4613      	mov	r3, r2
   24bfe:	df03      	svc	3
   24c00:	e004      	b.n	24c0c <_ZN20complex_dynamic_type3app17hb9d0c8f2458861c2E+0x7c>
   24c02:	4825      	ldr	r0, [pc, #148]	@ (24c98 <_ZN20complex_dynamic_type3app17hb9d0c8f2458861c2E+0x108>)
   24c04:	2109      	movs	r1, #9
   24c06:	2200      	movs	r2, #0
   24c08:	4613      	mov	r3, r2
   24c0a:	df04      	svc	4
   24c0c:	a804      	add	r0, sp, #16
   24c0e:	7804      	ldrb	r4, [r0, #0]
   24c10:	2c02      	cmp	r4, #2
   24c12:	d008      	beq.n	24c26 <_ZN20complex_dynamic_type3app17hb9d0c8f2458861c2E+0x96>
   24c14:	4820      	ldr	r0, [pc, #128]	@ (24c98 <_ZN20complex_dynamic_type3app17hb9d0c8f2458861c2E+0x108>)
   24c16:	2109      	movs	r1, #9
   24c18:	2200      	movs	r2, #0
   24c1a:	4613      	mov	r3, r2
   24c1c:	2c03      	cmp	r4, #3
   24c1e:	d101      	bne.n	24c24 <_ZN20complex_dynamic_type3app17hb9d0c8f2458861c2E+0x94>
   24c20:	df03      	svc	3
   24c22:	e000      	b.n	24c26 <_ZN20complex_dynamic_type3app17hb9d0c8f2458861c2E+0x96>
   24c24:	df04      	svc	4
   24c26:	b01f      	add	sp, #124	@ 0x7c
   24c28:	bdf0      	pop	{r4, r5, r6, r7, pc}
   24c2a:	a804      	add	r0, sp, #16
   24c2c:	7800      	ldrb	r0, [r0, #0]
   24c2e:	2802      	cmp	r0, #2
   24c30:	d00c      	beq.n	24c4c <_ZN20complex_dynamic_type3app17hb9d0c8f2458861c2E+0xbc>
   24c32:	2803      	cmp	r0, #3
   24c34:	d105      	bne.n	24c42 <_ZN20complex_dynamic_type3app17hb9d0c8f2458861c2E+0xb2>
   24c36:	4818      	ldr	r0, [pc, #96]	@ (24c98 <_ZN20complex_dynamic_type3app17hb9d0c8f2458861c2E+0x108>)
   24c38:	2109      	movs	r1, #9
   24c3a:	2200      	movs	r2, #0
   24c3c:	4613      	mov	r3, r2
   24c3e:	df03      	svc	3
   24c40:	e004      	b.n	24c4c <_ZN20complex_dynamic_type3app17hb9d0c8f2458861c2E+0xbc>
   24c42:	4815      	ldr	r0, [pc, #84]	@ (24c98 <_ZN20complex_dynamic_type3app17hb9d0c8f2458861c2E+0x108>)
   24c44:	2109      	movs	r1, #9
   24c46:	2200      	movs	r2, #0
   24c48:	4613      	mov	r3, r2
   24c4a:	df04      	svc	4
   24c4c:	a804      	add	r0, sp, #16
   24c4e:	7005      	strb	r5, [r0, #0]
   24c50:	a810      	add	r0, sp, #64	@ 0x40
   24c52:	7800      	ldrb	r0, [r0, #0]
   24c54:	2803      	cmp	r0, #3
   24c56:	d009      	beq.n	24c6c <_ZN20complex_dynamic_type3app17hb9d0c8f2458861c2E+0xdc>
   24c58:	2802      	cmp	r0, #2
   24c5a:	d10d      	bne.n	24c78 <_ZN20complex_dynamic_type3app17hb9d0c8f2458861c2E+0xe8>
   24c5c:	9c03      	ldr	r4, [sp, #12]
   24c5e:	1c60      	adds	r0, r4, #1
   24c60:	2238      	movs	r2, #56	@ 0x38
   24c62:	9901      	ldr	r1, [sp, #4]
   24c64:	f005 fc88 	bl	2a578 <__aeabi_memcpy>
   24c68:	7026      	strb	r6, [r4, #0]
   24c6a:	e7dc      	b.n	24c26 <_ZN20complex_dynamic_type3app17hb9d0c8f2458861c2E+0x96>
   24c6c:	480a      	ldr	r0, [pc, #40]	@ (24c98 <_ZN20complex_dynamic_type3app17hb9d0c8f2458861c2E+0x108>)
   24c6e:	2109      	movs	r1, #9
   24c70:	2200      	movs	r2, #0
   24c72:	4613      	mov	r3, r2
   24c74:	df03      	svc	3
   24c76:	e004      	b.n	24c82 <_ZN20complex_dynamic_type3app17hb9d0c8f2458861c2E+0xf2>
   24c78:	4807      	ldr	r0, [pc, #28]	@ (24c98 <_ZN20complex_dynamic_type3app17hb9d0c8f2458861c2E+0x108>)
   24c7a:	2109      	movs	r1, #9
   24c7c:	2200      	movs	r2, #0
   24c7e:	4613      	mov	r3, r2
   24c80:	df04      	svc	4
   24c82:	a804      	add	r0, sp, #16
   24c84:	7804      	ldrb	r4, [r0, #0]
   24c86:	9d03      	ldr	r5, [sp, #12]
   24c88:	1c68      	adds	r0, r5, #1
   24c8a:	2238      	movs	r2, #56	@ 0x38
   24c8c:	9901      	ldr	r1, [sp, #4]
   24c8e:	f005 fc73 	bl	2a578 <__aeabi_memcpy>
   24c92:	702e      	strb	r6, [r5, #0]
   24c94:	e7bc      	b.n	24c10 <_ZN20complex_dynamic_type3app17hb9d0c8f2458861c2E+0x80>
   24c96:	46c0      	nop			@ (mov r8, r8)
   24c98:	00000a9d 	.word	0x00000a9d

00024c9c <_ZN20complex_dynamic_type3app17hba9c8a8a448b81f7E>:
   24c9c:	b5f0      	push	{r4, r5, r6, r7, lr}
   24c9e:	af03      	add	r7, sp, #12
   24ca0:	b0a5      	sub	sp, #148	@ 0x94
   24ca2:	9003      	str	r0, [sp, #12]
   24ca4:	a804      	add	r0, sp, #16
   24ca6:	2502      	movs	r5, #2
   24ca8:	7005      	strb	r5, [r0, #0]
   24caa:	1c40      	adds	r0, r0, #1
   24cac:	9002      	str	r0, [sp, #8]
   24cae:	2661      	movs	r6, #97	@ 0x61
   24cb0:	4632      	mov	r2, r6
   24cb2:	f005 fc61 	bl	2a578 <__aeabi_memcpy>
   24cb6:	ac1d      	add	r4, sp, #116	@ 0x74
   24cb8:	1c60      	adds	r0, r4, #1
   24cba:	211e      	movs	r1, #30
   24cbc:	9001      	str	r0, [sp, #4]
   24cbe:	f005 fa9b 	bl	2a1f8 <__aeabi_memclr>
   24cc2:	9500      	str	r5, [sp, #0]
   24cc4:	7025      	strb	r5, [r4, #0]
   24cc6:	2031      	movs	r0, #49	@ 0x31
   24cc8:	00c5      	lsls	r5, r0, #3
   24cca:	2404      	movs	r4, #4
   24ccc:	4628      	mov	r0, r5
   24cce:	4621      	mov	r1, r4
   24cd0:	9a02      	ldr	r2, [sp, #8]
   24cd2:	4633      	mov	r3, r6
   24cd4:	df04      	svc	4
   24cd6:	2802      	cmp	r0, #2
   24cd8:	d104      	bne.n	24ce4 <_ZN20complex_dynamic_type3app17hba9c8a8a448b81f7E+0x48>
   24cda:	2001      	movs	r0, #1
   24cdc:	9a03      	ldr	r2, [sp, #12]
   24cde:	7010      	strb	r0, [r2, #0]
   24ce0:	6051      	str	r1, [r2, #4]
   24ce2:	e02c      	b.n	24d3e <_ZN20complex_dynamic_type3app17hba9c8a8a448b81f7E+0xa2>
   24ce4:	9e03      	ldr	r6, [sp, #12]
   24ce6:	a804      	add	r0, sp, #16
   24ce8:	7004      	strb	r4, [r0, #0]
   24cea:	2106      	movs	r1, #6
   24cec:	231e      	movs	r3, #30
   24cee:	4628      	mov	r0, r5
   24cf0:	9c01      	ldr	r4, [sp, #4]
   24cf2:	4622      	mov	r2, r4
   24cf4:	df03      	svc	3
   24cf6:	2802      	cmp	r0, #2
   24cf8:	d10e      	bne.n	24d18 <_ZN20complex_dynamic_type3app17hba9c8a8a448b81f7E+0x7c>
   24cfa:	2001      	movs	r0, #1
   24cfc:	7030      	strb	r0, [r6, #0]
   24cfe:	6071      	str	r1, [r6, #4]
   24d00:	a81d      	add	r0, sp, #116	@ 0x74
   24d02:	7800      	ldrb	r0, [r0, #0]
   24d04:	2802      	cmp	r0, #2
   24d06:	d01a      	beq.n	24d3e <_ZN20complex_dynamic_type3app17hba9c8a8a448b81f7E+0xa2>
   24d08:	2803      	cmp	r0, #3
   24d0a:	d013      	beq.n	24d34 <_ZN20complex_dynamic_type3app17hba9c8a8a448b81f7E+0x98>
   24d0c:	2106      	movs	r1, #6
   24d0e:	2200      	movs	r2, #0
   24d10:	4628      	mov	r0, r5
   24d12:	4613      	mov	r3, r2
   24d14:	df04      	svc	4
   24d16:	e012      	b.n	24d3e <_ZN20complex_dynamic_type3app17hba9c8a8a448b81f7E+0xa2>
   24d18:	a81d      	add	r0, sp, #116	@ 0x74
   24d1a:	2103      	movs	r1, #3
   24d1c:	7001      	strb	r1, [r0, #0]
   24d1e:	2104      	movs	r1, #4
   24d20:	2206      	movs	r2, #6
   24d22:	2300      	movs	r3, #0
   24d24:	4628      	mov	r0, r5
   24d26:	9302      	str	r3, [sp, #8]
   24d28:	df02      	svc	2
   24d2a:	287f      	cmp	r0, #127	@ 0x7f
   24d2c:	d816      	bhi.n	24d5c <_ZN20complex_dynamic_type3app17hba9c8a8a448b81f7E+0xc0>
   24d2e:	2001      	movs	r0, #1
   24d30:	7030      	strb	r0, [r6, #0]
   24d32:	6071      	str	r1, [r6, #4]
   24d34:	2106      	movs	r1, #6
   24d36:	2200      	movs	r2, #0
   24d38:	4628      	mov	r0, r5
   24d3a:	4613      	mov	r3, r2
   24d3c:	df03      	svc	3
   24d3e:	a804      	add	r0, sp, #16
   24d40:	7804      	ldrb	r4, [r0, #0]
   24d42:	2c02      	cmp	r4, #2
   24d44:	d008      	beq.n	24d58 <_ZN20complex_dynamic_type3app17hba9c8a8a448b81f7E+0xbc>
   24d46:	2104      	movs	r1, #4
   24d48:	2200      	movs	r2, #0
   24d4a:	4628      	mov	r0, r5
   24d4c:	4613      	mov	r3, r2
   24d4e:	2c03      	cmp	r4, #3
   24d50:	d101      	bne.n	24d56 <_ZN20complex_dynamic_type3app17hba9c8a8a448b81f7E+0xba>
   24d52:	df03      	svc	3
   24d54:	e000      	b.n	24d58 <_ZN20complex_dynamic_type3app17hba9c8a8a448b81f7E+0xbc>
   24d56:	df04      	svc	4
   24d58:	b025      	add	sp, #148	@ 0x94
   24d5a:	bdf0      	pop	{r4, r5, r6, r7, pc}
   24d5c:	a804      	add	r0, sp, #16
   24d5e:	7800      	ldrb	r0, [r0, #0]
   24d60:	2802      	cmp	r0, #2
   24d62:	d01b      	beq.n	24d9c <_ZN20complex_dynamic_type3app17hba9c8a8a448b81f7E+0x100>
   24d64:	2104      	movs	r1, #4
   24d66:	2200      	movs	r2, #0
   24d68:	2803      	cmp	r0, #3
   24d6a:	d103      	bne.n	24d74 <_ZN20complex_dynamic_type3app17hba9c8a8a448b81f7E+0xd8>
   24d6c:	4628      	mov	r0, r5
   24d6e:	4613      	mov	r3, r2
   24d70:	df03      	svc	3
   24d72:	e002      	b.n	24d7a <_ZN20complex_dynamic_type3app17hba9c8a8a448b81f7E+0xde>
   24d74:	4628      	mov	r0, r5
   24d76:	4613      	mov	r3, r2
   24d78:	df04      	svc	4
   24d7a:	a804      	add	r0, sp, #16
   24d7c:	9900      	ldr	r1, [sp, #0]
   24d7e:	7001      	strb	r1, [r0, #0]
   24d80:	a81d      	add	r0, sp, #116	@ 0x74
   24d82:	7800      	ldrb	r0, [r0, #0]
   24d84:	2803      	cmp	r0, #3
   24d86:	d009      	beq.n	24d9c <_ZN20complex_dynamic_type3app17hba9c8a8a448b81f7E+0x100>
   24d88:	2802      	cmp	r0, #2
   24d8a:	d10d      	bne.n	24da8 <_ZN20complex_dynamic_type3app17hba9c8a8a448b81f7E+0x10c>
   24d8c:	1c70      	adds	r0, r6, #1
   24d8e:	221e      	movs	r2, #30
   24d90:	4621      	mov	r1, r4
   24d92:	f005 fbf1 	bl	2a578 <__aeabi_memcpy>
   24d96:	9802      	ldr	r0, [sp, #8]
   24d98:	7030      	strb	r0, [r6, #0]
   24d9a:	e7dd      	b.n	24d58 <_ZN20complex_dynamic_type3app17hba9c8a8a448b81f7E+0xbc>
   24d9c:	2106      	movs	r1, #6
   24d9e:	2200      	movs	r2, #0
   24da0:	4628      	mov	r0, r5
   24da2:	4613      	mov	r3, r2
   24da4:	df03      	svc	3
   24da6:	e004      	b.n	24db2 <_ZN20complex_dynamic_type3app17hba9c8a8a448b81f7E+0x116>
   24da8:	2106      	movs	r1, #6
   24daa:	2200      	movs	r2, #0
   24dac:	4628      	mov	r0, r5
   24dae:	4613      	mov	r3, r2
   24db0:	df04      	svc	4
   24db2:	a804      	add	r0, sp, #16
   24db4:	7804      	ldrb	r4, [r0, #0]
   24db6:	1c70      	adds	r0, r6, #1
   24db8:	221e      	movs	r2, #30
   24dba:	9901      	ldr	r1, [sp, #4]
   24dbc:	f005 fbdc 	bl	2a578 <__aeabi_memcpy>
   24dc0:	9802      	ldr	r0, [sp, #8]
   24dc2:	7030      	strb	r0, [r6, #0]
   24dc4:	e7bd      	b.n	24d42 <_ZN20complex_dynamic_type3app17hba9c8a8a448b81f7E+0xa6>
   24dc6:	d4d4      	bmi.n	24d72 <_ZN20complex_dynamic_type3app17hba9c8a8a448b81f7E+0xd6>

00024dc8 <_ZN20complex_dynamic_type3app17hbea8e513934dc6efE>:
   24dc8:	b5f0      	push	{r4, r5, r6, r7, lr}
   24dca:	af03      	add	r7, sp, #12
   24dcc:	b091      	sub	sp, #68	@ 0x44
   24dce:	9003      	str	r0, [sp, #12]
   24dd0:	ae04      	add	r6, sp, #16
   24dd2:	2502      	movs	r5, #2
   24dd4:	7035      	strb	r5, [r6, #0]
   24dd6:	1c70      	adds	r0, r6, #1
   24dd8:	220d      	movs	r2, #13
   24dda:	9202      	str	r2, [sp, #8]
   24ddc:	f005 fbcc 	bl	2a578 <__aeabi_memcpy>
   24de0:	ac08      	add	r4, sp, #32
   24de2:	1c60      	adds	r0, r4, #1
   24de4:	2121      	movs	r1, #33	@ 0x21
   24de6:	9001      	str	r0, [sp, #4]
   24de8:	f005 fa06 	bl	2a1f8 <__aeabi_memclr>
   24dec:	7025      	strb	r5, [r4, #0]
   24dee:	2204      	movs	r2, #4
   24df0:	4630      	mov	r0, r6
   24df2:	9902      	ldr	r1, [sp, #8]
   24df4:	f7fb fa66 	bl	202c4 <_ZN9allow_pin12dynamic_type23Buffer$LT$B$C$_$C$_$GT$5allow17hbb7a1cc9c10561e1E>
   24df8:	07c0      	lsls	r0, r0, #31
   24dfa:	d10e      	bne.n	24e1a <_ZN20complex_dynamic_type3app17hbea8e513934dc6efE+0x52>
   24dfc:	a808      	add	r0, sp, #32
   24dfe:	2121      	movs	r1, #33	@ 0x21
   24e00:	2203      	movs	r2, #3
   24e02:	f7fb fa5f 	bl	202c4 <_ZN9allow_pin12dynamic_type23Buffer$LT$B$C$_$C$_$GT$5allow17hbb7a1cc9c10561e1E>
   24e06:	07c0      	lsls	r0, r0, #31
   24e08:	d107      	bne.n	24e1a <_ZN20complex_dynamic_type3app17hbea8e513934dc6efE+0x52>
   24e0a:	4831      	ldr	r0, [pc, #196]	@ (24ed0 <_ZN20complex_dynamic_type3app17hbea8e513934dc6efE+0x108>)
   24e0c:	2600      	movs	r6, #0
   24e0e:	4631      	mov	r1, r6
   24e10:	4632      	mov	r2, r6
   24e12:	4633      	mov	r3, r6
   24e14:	df02      	svc	2
   24e16:	287f      	cmp	r0, #127	@ 0x7f
   24e18:	d823      	bhi.n	24e62 <_ZN20complex_dynamic_type3app17hbea8e513934dc6efE+0x9a>
   24e1a:	2001      	movs	r0, #1
   24e1c:	9a03      	ldr	r2, [sp, #12]
   24e1e:	7010      	strb	r0, [r2, #0]
   24e20:	6051      	str	r1, [r2, #4]
   24e22:	a808      	add	r0, sp, #32
   24e24:	7800      	ldrb	r0, [r0, #0]
   24e26:	2802      	cmp	r0, #2
   24e28:	d00c      	beq.n	24e44 <_ZN20complex_dynamic_type3app17hbea8e513934dc6efE+0x7c>
   24e2a:	2803      	cmp	r0, #3
   24e2c:	d105      	bne.n	24e3a <_ZN20complex_dynamic_type3app17hbea8e513934dc6efE+0x72>
   24e2e:	4828      	ldr	r0, [pc, #160]	@ (24ed0 <_ZN20complex_dynamic_type3app17hbea8e513934dc6efE+0x108>)
   24e30:	2100      	movs	r1, #0
   24e32:	460a      	mov	r2, r1
   24e34:	460b      	mov	r3, r1
   24e36:	df03      	svc	3
   24e38:	e004      	b.n	24e44 <_ZN20complex_dynamic_type3app17hbea8e513934dc6efE+0x7c>
   24e3a:	4825      	ldr	r0, [pc, #148]	@ (24ed0 <_ZN20complex_dynamic_type3app17hbea8e513934dc6efE+0x108>)
   24e3c:	2100      	movs	r1, #0
   24e3e:	460a      	mov	r2, r1
   24e40:	460b      	mov	r3, r1
   24e42:	df04      	svc	4
   24e44:	a804      	add	r0, sp, #16
   24e46:	7804      	ldrb	r4, [r0, #0]
   24e48:	2c02      	cmp	r4, #2
   24e4a:	d008      	beq.n	24e5e <_ZN20complex_dynamic_type3app17hbea8e513934dc6efE+0x96>
   24e4c:	4820      	ldr	r0, [pc, #128]	@ (24ed0 <_ZN20complex_dynamic_type3app17hbea8e513934dc6efE+0x108>)
   24e4e:	2100      	movs	r1, #0
   24e50:	460a      	mov	r2, r1
   24e52:	460b      	mov	r3, r1
   24e54:	2c03      	cmp	r4, #3
   24e56:	d101      	bne.n	24e5c <_ZN20complex_dynamic_type3app17hbea8e513934dc6efE+0x94>
   24e58:	df03      	svc	3
   24e5a:	e000      	b.n	24e5e <_ZN20complex_dynamic_type3app17hbea8e513934dc6efE+0x96>
   24e5c:	df04      	svc	4
   24e5e:	b011      	add	sp, #68	@ 0x44
   24e60:	bdf0      	pop	{r4, r5, r6, r7, pc}
   24e62:	a804      	add	r0, sp, #16
   24e64:	7800      	ldrb	r0, [r0, #0]
   24e66:	2802      	cmp	r0, #2
   24e68:	d00c      	beq.n	24e84 <_ZN20complex_dynamic_type3app17hbea8e513934dc6efE+0xbc>
   24e6a:	2803      	cmp	r0, #3
   24e6c:	d105      	bne.n	24e7a <_ZN20complex_dynamic_type3app17hbea8e513934dc6efE+0xb2>
   24e6e:	4818      	ldr	r0, [pc, #96]	@ (24ed0 <_ZN20complex_dynamic_type3app17hbea8e513934dc6efE+0x108>)
   24e70:	2100      	movs	r1, #0
   24e72:	460a      	mov	r2, r1
   24e74:	460b      	mov	r3, r1
   24e76:	df03      	svc	3
   24e78:	e004      	b.n	24e84 <_ZN20complex_dynamic_type3app17hbea8e513934dc6efE+0xbc>
   24e7a:	4815      	ldr	r0, [pc, #84]	@ (24ed0 <_ZN20complex_dynamic_type3app17hbea8e513934dc6efE+0x108>)
   24e7c:	2100      	movs	r1, #0
   24e7e:	460a      	mov	r2, r1
   24e80:	460b      	mov	r3, r1
   24e82:	df04      	svc	4
   24e84:	a804      	add	r0, sp, #16
   24e86:	7005      	strb	r5, [r0, #0]
   24e88:	a808      	add	r0, sp, #32
   24e8a:	7800      	ldrb	r0, [r0, #0]
   24e8c:	2803      	cmp	r0, #3
   24e8e:	d009      	beq.n	24ea4 <_ZN20complex_dynamic_type3app17hbea8e513934dc6efE+0xdc>
   24e90:	2802      	cmp	r0, #2
   24e92:	d10d      	bne.n	24eb0 <_ZN20complex_dynamic_type3app17hbea8e513934dc6efE+0xe8>
   24e94:	9c03      	ldr	r4, [sp, #12]
   24e96:	1c60      	adds	r0, r4, #1
   24e98:	2221      	movs	r2, #33	@ 0x21
   24e9a:	9901      	ldr	r1, [sp, #4]
   24e9c:	f005 fb6c 	bl	2a578 <__aeabi_memcpy>
   24ea0:	7026      	strb	r6, [r4, #0]
   24ea2:	e7dc      	b.n	24e5e <_ZN20complex_dynamic_type3app17hbea8e513934dc6efE+0x96>
   24ea4:	480a      	ldr	r0, [pc, #40]	@ (24ed0 <_ZN20complex_dynamic_type3app17hbea8e513934dc6efE+0x108>)
   24ea6:	2100      	movs	r1, #0
   24ea8:	460a      	mov	r2, r1
   24eaa:	460b      	mov	r3, r1
   24eac:	df03      	svc	3
   24eae:	e004      	b.n	24eba <_ZN20complex_dynamic_type3app17hbea8e513934dc6efE+0xf2>
   24eb0:	4807      	ldr	r0, [pc, #28]	@ (24ed0 <_ZN20complex_dynamic_type3app17hbea8e513934dc6efE+0x108>)
   24eb2:	2100      	movs	r1, #0
   24eb4:	460a      	mov	r2, r1
   24eb6:	460b      	mov	r3, r1
   24eb8:	df04      	svc	4
   24eba:	a804      	add	r0, sp, #16
   24ebc:	7804      	ldrb	r4, [r0, #0]
   24ebe:	9d03      	ldr	r5, [sp, #12]
   24ec0:	1c68      	adds	r0, r5, #1
   24ec2:	2221      	movs	r2, #33	@ 0x21
   24ec4:	9901      	ldr	r1, [sp, #4]
   24ec6:	f005 fb57 	bl	2a578 <__aeabi_memcpy>
   24eca:	702e      	strb	r6, [r5, #0]
   24ecc:	e7bc      	b.n	24e48 <_ZN20complex_dynamic_type3app17hbea8e513934dc6efE+0x80>
   24ece:	46c0      	nop			@ (mov r8, r8)
   24ed0:	000016b0 	.word	0x000016b0

00024ed4 <_ZN20complex_dynamic_type3app17hbf4fb59fe4124581E>:
   24ed4:	b5f0      	push	{r4, r5, r6, r7, lr}
   24ed6:	af03      	add	r7, sp, #12
   24ed8:	b0ad      	sub	sp, #180	@ 0xb4
   24eda:	9003      	str	r0, [sp, #12]
   24edc:	a804      	add	r0, sp, #16
   24ede:	2402      	movs	r4, #2
   24ee0:	7004      	strb	r4, [r0, #0]
   24ee2:	1c46      	adds	r6, r0, #1
   24ee4:	2251      	movs	r2, #81	@ 0x51
   24ee6:	9202      	str	r2, [sp, #8]
   24ee8:	4630      	mov	r0, r6
   24eea:	f005 fb45 	bl	2a578 <__aeabi_memcpy>
   24eee:	ad19      	add	r5, sp, #100	@ 0x64
   24ef0:	1c68      	adds	r0, r5, #1
   24ef2:	214f      	movs	r1, #79	@ 0x4f
   24ef4:	9001      	str	r0, [sp, #4]
   24ef6:	f005 f97f 	bl	2a1f8 <__aeabi_memclr>
   24efa:	9400      	str	r4, [sp, #0]
   24efc:	702c      	strb	r4, [r5, #0]
   24efe:	483f      	ldr	r0, [pc, #252]	@ (24ffc <_ZN20complex_dynamic_type3app17hbf4fb59fe4124581E+0x128>)
   24f00:	2504      	movs	r5, #4
   24f02:	4629      	mov	r1, r5
   24f04:	4632      	mov	r2, r6
   24f06:	9b02      	ldr	r3, [sp, #8]
   24f08:	df04      	svc	4
   24f0a:	2802      	cmp	r0, #2
   24f0c:	d104      	bne.n	24f18 <_ZN20complex_dynamic_type3app17hbf4fb59fe4124581E+0x44>
   24f0e:	2001      	movs	r0, #1
   24f10:	9a03      	ldr	r2, [sp, #12]
   24f12:	7010      	strb	r0, [r2, #0]
   24f14:	6051      	str	r1, [r2, #4]
   24f16:	e02c      	b.n	24f72 <_ZN20complex_dynamic_type3app17hbf4fb59fe4124581E+0x9e>
   24f18:	9c03      	ldr	r4, [sp, #12]
   24f1a:	a804      	add	r0, sp, #16
   24f1c:	7005      	strb	r5, [r0, #0]
   24f1e:	4837      	ldr	r0, [pc, #220]	@ (24ffc <_ZN20complex_dynamic_type3app17hbf4fb59fe4124581E+0x128>)
   24f20:	2109      	movs	r1, #9
   24f22:	234f      	movs	r3, #79	@ 0x4f
   24f24:	9a01      	ldr	r2, [sp, #4]
   24f26:	df03      	svc	3
   24f28:	2802      	cmp	r0, #2
   24f2a:	d10e      	bne.n	24f4a <_ZN20complex_dynamic_type3app17hbf4fb59fe4124581E+0x76>
   24f2c:	2001      	movs	r0, #1
   24f2e:	7020      	strb	r0, [r4, #0]
   24f30:	6061      	str	r1, [r4, #4]
   24f32:	a819      	add	r0, sp, #100	@ 0x64
   24f34:	7800      	ldrb	r0, [r0, #0]
   24f36:	2802      	cmp	r0, #2
   24f38:	d01b      	beq.n	24f72 <_ZN20complex_dynamic_type3app17hbf4fb59fe4124581E+0x9e>
   24f3a:	2803      	cmp	r0, #3
   24f3c:	d014      	beq.n	24f68 <_ZN20complex_dynamic_type3app17hbf4fb59fe4124581E+0x94>
   24f3e:	482f      	ldr	r0, [pc, #188]	@ (24ffc <_ZN20complex_dynamic_type3app17hbf4fb59fe4124581E+0x128>)
   24f40:	2109      	movs	r1, #9
   24f42:	2200      	movs	r2, #0
   24f44:	4613      	mov	r3, r2
   24f46:	df04      	svc	4
   24f48:	e013      	b.n	24f72 <_ZN20complex_dynamic_type3app17hbf4fb59fe4124581E+0x9e>
   24f4a:	a819      	add	r0, sp, #100	@ 0x64
   24f4c:	2103      	movs	r1, #3
   24f4e:	7001      	strb	r1, [r0, #0]
   24f50:	482a      	ldr	r0, [pc, #168]	@ (24ffc <_ZN20complex_dynamic_type3app17hbf4fb59fe4124581E+0x128>)
   24f52:	2104      	movs	r1, #4
   24f54:	2209      	movs	r2, #9
   24f56:	2600      	movs	r6, #0
   24f58:	4633      	mov	r3, r6
   24f5a:	df02      	svc	2
   24f5c:	287f      	cmp	r0, #127	@ 0x7f
   24f5e:	4625      	mov	r5, r4
   24f60:	d816      	bhi.n	24f90 <_ZN20complex_dynamic_type3app17hbf4fb59fe4124581E+0xbc>
   24f62:	2001      	movs	r0, #1
   24f64:	7028      	strb	r0, [r5, #0]
   24f66:	6069      	str	r1, [r5, #4]
   24f68:	4824      	ldr	r0, [pc, #144]	@ (24ffc <_ZN20complex_dynamic_type3app17hbf4fb59fe4124581E+0x128>)
   24f6a:	2109      	movs	r1, #9
   24f6c:	2200      	movs	r2, #0
   24f6e:	4613      	mov	r3, r2
   24f70:	df03      	svc	3
   24f72:	a804      	add	r0, sp, #16
   24f74:	7804      	ldrb	r4, [r0, #0]
   24f76:	2c02      	cmp	r4, #2
   24f78:	d008      	beq.n	24f8c <_ZN20complex_dynamic_type3app17hbf4fb59fe4124581E+0xb8>
   24f7a:	4820      	ldr	r0, [pc, #128]	@ (24ffc <_ZN20complex_dynamic_type3app17hbf4fb59fe4124581E+0x128>)
   24f7c:	2104      	movs	r1, #4
   24f7e:	2200      	movs	r2, #0
   24f80:	4613      	mov	r3, r2
   24f82:	2c03      	cmp	r4, #3
   24f84:	d101      	bne.n	24f8a <_ZN20complex_dynamic_type3app17hbf4fb59fe4124581E+0xb6>
   24f86:	df03      	svc	3
   24f88:	e000      	b.n	24f8c <_ZN20complex_dynamic_type3app17hbf4fb59fe4124581E+0xb8>
   24f8a:	df04      	svc	4
   24f8c:	b02d      	add	sp, #180	@ 0xb4
   24f8e:	bdf0      	pop	{r4, r5, r6, r7, pc}
   24f90:	a804      	add	r0, sp, #16
   24f92:	7800      	ldrb	r0, [r0, #0]
   24f94:	2802      	cmp	r0, #2
   24f96:	d01c      	beq.n	24fd2 <_ZN20complex_dynamic_type3app17hbf4fb59fe4124581E+0xfe>
   24f98:	2803      	cmp	r0, #3
   24f9a:	d105      	bne.n	24fa8 <_ZN20complex_dynamic_type3app17hbf4fb59fe4124581E+0xd4>
   24f9c:	4817      	ldr	r0, [pc, #92]	@ (24ffc <_ZN20complex_dynamic_type3app17hbf4fb59fe4124581E+0x128>)
   24f9e:	2104      	movs	r1, #4
   24fa0:	2200      	movs	r2, #0
   24fa2:	4613      	mov	r3, r2
   24fa4:	df03      	svc	3
   24fa6:	e004      	b.n	24fb2 <_ZN20complex_dynamic_type3app17hbf4fb59fe4124581E+0xde>
   24fa8:	4814      	ldr	r0, [pc, #80]	@ (24ffc <_ZN20complex_dynamic_type3app17hbf4fb59fe4124581E+0x128>)
   24faa:	2104      	movs	r1, #4
   24fac:	2200      	movs	r2, #0
   24fae:	4613      	mov	r3, r2
   24fb0:	df04      	svc	4
   24fb2:	9900      	ldr	r1, [sp, #0]
   24fb4:	a804      	add	r0, sp, #16
   24fb6:	7001      	strb	r1, [r0, #0]
   24fb8:	a819      	add	r0, sp, #100	@ 0x64
   24fba:	7800      	ldrb	r0, [r0, #0]
   24fbc:	2803      	cmp	r0, #3
   24fbe:	d008      	beq.n	24fd2 <_ZN20complex_dynamic_type3app17hbf4fb59fe4124581E+0xfe>
   24fc0:	2802      	cmp	r0, #2
   24fc2:	d10c      	bne.n	24fde <_ZN20complex_dynamic_type3app17hbf4fb59fe4124581E+0x10a>
   24fc4:	1c68      	adds	r0, r5, #1
   24fc6:	224f      	movs	r2, #79	@ 0x4f
   24fc8:	9901      	ldr	r1, [sp, #4]
   24fca:	f005 fad5 	bl	2a578 <__aeabi_memcpy>
   24fce:	702e      	strb	r6, [r5, #0]
   24fd0:	e7dc      	b.n	24f8c <_ZN20complex_dynamic_type3app17hbf4fb59fe4124581E+0xb8>
   24fd2:	480a      	ldr	r0, [pc, #40]	@ (24ffc <_ZN20complex_dynamic_type3app17hbf4fb59fe4124581E+0x128>)
   24fd4:	2109      	movs	r1, #9
   24fd6:	2200      	movs	r2, #0
   24fd8:	4613      	mov	r3, r2
   24fda:	df03      	svc	3
   24fdc:	e004      	b.n	24fe8 <_ZN20complex_dynamic_type3app17hbf4fb59fe4124581E+0x114>
   24fde:	4807      	ldr	r0, [pc, #28]	@ (24ffc <_ZN20complex_dynamic_type3app17hbf4fb59fe4124581E+0x128>)
   24fe0:	2109      	movs	r1, #9
   24fe2:	2200      	movs	r2, #0
   24fe4:	4613      	mov	r3, r2
   24fe6:	df04      	svc	4
   24fe8:	a804      	add	r0, sp, #16
   24fea:	7804      	ldrb	r4, [r0, #0]
   24fec:	1c68      	adds	r0, r5, #1
   24fee:	224f      	movs	r2, #79	@ 0x4f
   24ff0:	9901      	ldr	r1, [sp, #4]
   24ff2:	f005 fac1 	bl	2a578 <__aeabi_memcpy>
   24ff6:	702e      	strb	r6, [r5, #0]
   24ff8:	e7bd      	b.n	24f76 <_ZN20complex_dynamic_type3app17hbf4fb59fe4124581E+0xa2>
   24ffa:	46c0      	nop			@ (mov r8, r8)
   24ffc:	000020ee 	.word	0x000020ee

00025000 <_ZN20complex_dynamic_type3app17hc1a92c2f529117d4E>:
   25000:	b5f0      	push	{r4, r5, r6, r7, lr}
   25002:	af03      	add	r7, sp, #12
   25004:	b09f      	sub	sp, #124	@ 0x7c
   25006:	9003      	str	r0, [sp, #12]
   25008:	a804      	add	r0, sp, #16
   2500a:	2402      	movs	r4, #2
   2500c:	7004      	strb	r4, [r0, #0]
   2500e:	1c46      	adds	r6, r0, #1
   25010:	2244      	movs	r2, #68	@ 0x44
   25012:	9202      	str	r2, [sp, #8]
   25014:	4630      	mov	r0, r6
   25016:	f005 faaf 	bl	2a578 <__aeabi_memcpy>
   2501a:	ad16      	add	r5, sp, #88	@ 0x58
   2501c:	1c68      	adds	r0, r5, #1
   2501e:	2123      	movs	r1, #35	@ 0x23
   25020:	9001      	str	r0, [sp, #4]
   25022:	f005 f8e9 	bl	2a1f8 <__aeabi_memclr>
   25026:	9400      	str	r4, [sp, #0]
   25028:	702c      	strb	r4, [r5, #0]
   2502a:	483e      	ldr	r0, [pc, #248]	@ (25124 <_ZN20complex_dynamic_type3app17hc1a92c2f529117d4E+0x124>)
   2502c:	2106      	movs	r1, #6
   2502e:	4632      	mov	r2, r6
   25030:	9b02      	ldr	r3, [sp, #8]
   25032:	df04      	svc	4
   25034:	2802      	cmp	r0, #2
   25036:	d104      	bne.n	25042 <_ZN20complex_dynamic_type3app17hc1a92c2f529117d4E+0x42>
   25038:	2001      	movs	r0, #1
   2503a:	9a03      	ldr	r2, [sp, #12]
   2503c:	7010      	strb	r0, [r2, #0]
   2503e:	6051      	str	r1, [r2, #4]
   25040:	e02c      	b.n	2509c <_ZN20complex_dynamic_type3app17hc1a92c2f529117d4E+0x9c>
   25042:	9d03      	ldr	r5, [sp, #12]
   25044:	a804      	add	r0, sp, #16
   25046:	2104      	movs	r1, #4
   25048:	7001      	strb	r1, [r0, #0]
   2504a:	4836      	ldr	r0, [pc, #216]	@ (25124 <_ZN20complex_dynamic_type3app17hc1a92c2f529117d4E+0x124>)
   2504c:	2403      	movs	r4, #3
   2504e:	2323      	movs	r3, #35	@ 0x23
   25050:	4621      	mov	r1, r4
   25052:	9a01      	ldr	r2, [sp, #4]
   25054:	df03      	svc	3
   25056:	2802      	cmp	r0, #2
   25058:	d10e      	bne.n	25078 <_ZN20complex_dynamic_type3app17hc1a92c2f529117d4E+0x78>
   2505a:	2001      	movs	r0, #1
   2505c:	7028      	strb	r0, [r5, #0]
   2505e:	6069      	str	r1, [r5, #4]
   25060:	a816      	add	r0, sp, #88	@ 0x58
   25062:	7800      	ldrb	r0, [r0, #0]
   25064:	2802      	cmp	r0, #2
   25066:	d019      	beq.n	2509c <_ZN20complex_dynamic_type3app17hc1a92c2f529117d4E+0x9c>
   25068:	2803      	cmp	r0, #3
   2506a:	d012      	beq.n	25092 <_ZN20complex_dynamic_type3app17hc1a92c2f529117d4E+0x92>
   2506c:	482d      	ldr	r0, [pc, #180]	@ (25124 <_ZN20complex_dynamic_type3app17hc1a92c2f529117d4E+0x124>)
   2506e:	2103      	movs	r1, #3
   25070:	2200      	movs	r2, #0
   25072:	4613      	mov	r3, r2
   25074:	df04      	svc	4
   25076:	e011      	b.n	2509c <_ZN20complex_dynamic_type3app17hc1a92c2f529117d4E+0x9c>
   25078:	a816      	add	r0, sp, #88	@ 0x58
   2507a:	7004      	strb	r4, [r0, #0]
   2507c:	4829      	ldr	r0, [pc, #164]	@ (25124 <_ZN20complex_dynamic_type3app17hc1a92c2f529117d4E+0x124>)
   2507e:	2106      	movs	r1, #6
   25080:	2600      	movs	r6, #0
   25082:	4622      	mov	r2, r4
   25084:	4633      	mov	r3, r6
   25086:	df02      	svc	2
   25088:	287f      	cmp	r0, #127	@ 0x7f
   2508a:	d816      	bhi.n	250ba <_ZN20complex_dynamic_type3app17hc1a92c2f529117d4E+0xba>
   2508c:	2001      	movs	r0, #1
   2508e:	7028      	strb	r0, [r5, #0]
   25090:	6069      	str	r1, [r5, #4]
   25092:	4824      	ldr	r0, [pc, #144]	@ (25124 <_ZN20complex_dynamic_type3app17hc1a92c2f529117d4E+0x124>)
   25094:	2103      	movs	r1, #3
   25096:	2200      	movs	r2, #0
   25098:	4613      	mov	r3, r2
   2509a:	df03      	svc	3
   2509c:	a804      	add	r0, sp, #16
   2509e:	7804      	ldrb	r4, [r0, #0]
   250a0:	2c02      	cmp	r4, #2
   250a2:	d008      	beq.n	250b6 <_ZN20complex_dynamic_type3app17hc1a92c2f529117d4E+0xb6>
   250a4:	481f      	ldr	r0, [pc, #124]	@ (25124 <_ZN20complex_dynamic_type3app17hc1a92c2f529117d4E+0x124>)
   250a6:	2106      	movs	r1, #6
   250a8:	2200      	movs	r2, #0
   250aa:	4613      	mov	r3, r2
   250ac:	2c03      	cmp	r4, #3
   250ae:	d101      	bne.n	250b4 <_ZN20complex_dynamic_type3app17hc1a92c2f529117d4E+0xb4>
   250b0:	df03      	svc	3
   250b2:	e000      	b.n	250b6 <_ZN20complex_dynamic_type3app17hc1a92c2f529117d4E+0xb6>
   250b4:	df04      	svc	4
   250b6:	b01f      	add	sp, #124	@ 0x7c
   250b8:	bdf0      	pop	{r4, r5, r6, r7, pc}
   250ba:	a804      	add	r0, sp, #16
   250bc:	7800      	ldrb	r0, [r0, #0]
   250be:	2802      	cmp	r0, #2
   250c0:	d01c      	beq.n	250fc <_ZN20complex_dynamic_type3app17hc1a92c2f529117d4E+0xfc>
   250c2:	2803      	cmp	r0, #3
   250c4:	d105      	bne.n	250d2 <_ZN20complex_dynamic_type3app17hc1a92c2f529117d4E+0xd2>
   250c6:	4817      	ldr	r0, [pc, #92]	@ (25124 <_ZN20complex_dynamic_type3app17hc1a92c2f529117d4E+0x124>)
   250c8:	2106      	movs	r1, #6
   250ca:	2200      	movs	r2, #0
   250cc:	4613      	mov	r3, r2
   250ce:	df03      	svc	3
   250d0:	e004      	b.n	250dc <_ZN20complex_dynamic_type3app17hc1a92c2f529117d4E+0xdc>
   250d2:	4814      	ldr	r0, [pc, #80]	@ (25124 <_ZN20complex_dynamic_type3app17hc1a92c2f529117d4E+0x124>)
   250d4:	2106      	movs	r1, #6
   250d6:	2200      	movs	r2, #0
   250d8:	4613      	mov	r3, r2
   250da:	df04      	svc	4
   250dc:	9900      	ldr	r1, [sp, #0]
   250de:	a804      	add	r0, sp, #16
   250e0:	7001      	strb	r1, [r0, #0]
   250e2:	a816      	add	r0, sp, #88	@ 0x58
   250e4:	7800      	ldrb	r0, [r0, #0]
   250e6:	2803      	cmp	r0, #3
   250e8:	d008      	beq.n	250fc <_ZN20complex_dynamic_type3app17hc1a92c2f529117d4E+0xfc>
   250ea:	2802      	cmp	r0, #2
   250ec:	d10c      	bne.n	25108 <_ZN20complex_dynamic_type3app17hc1a92c2f529117d4E+0x108>
   250ee:	1c68      	adds	r0, r5, #1
   250f0:	2223      	movs	r2, #35	@ 0x23
   250f2:	9901      	ldr	r1, [sp, #4]
   250f4:	f005 fa40 	bl	2a578 <__aeabi_memcpy>
   250f8:	702e      	strb	r6, [r5, #0]
   250fa:	e7dc      	b.n	250b6 <_ZN20complex_dynamic_type3app17hc1a92c2f529117d4E+0xb6>
   250fc:	4809      	ldr	r0, [pc, #36]	@ (25124 <_ZN20complex_dynamic_type3app17hc1a92c2f529117d4E+0x124>)
   250fe:	2103      	movs	r1, #3
   25100:	2200      	movs	r2, #0
   25102:	4613      	mov	r3, r2
   25104:	df03      	svc	3
   25106:	e004      	b.n	25112 <_ZN20complex_dynamic_type3app17hc1a92c2f529117d4E+0x112>
   25108:	4806      	ldr	r0, [pc, #24]	@ (25124 <_ZN20complex_dynamic_type3app17hc1a92c2f529117d4E+0x124>)
   2510a:	2103      	movs	r1, #3
   2510c:	2200      	movs	r2, #0
   2510e:	4613      	mov	r3, r2
   25110:	df04      	svc	4
   25112:	a804      	add	r0, sp, #16
   25114:	7804      	ldrb	r4, [r0, #0]
   25116:	1c68      	adds	r0, r5, #1
   25118:	2223      	movs	r2, #35	@ 0x23
   2511a:	9901      	ldr	r1, [sp, #4]
   2511c:	f005 fa2c 	bl	2a578 <__aeabi_memcpy>
   25120:	702e      	strb	r6, [r5, #0]
   25122:	e7bd      	b.n	250a0 <_ZN20complex_dynamic_type3app17hc1a92c2f529117d4E+0xa0>
   25124:	000009bf 	.word	0x000009bf

00025128 <_ZN20complex_dynamic_type3app17hc74fabfcdf258e68E>:
   25128:	b5f0      	push	{r4, r5, r6, r7, lr}
   2512a:	af03      	add	r7, sp, #12
   2512c:	b0a1      	sub	sp, #132	@ 0x84
   2512e:	9004      	str	r0, [sp, #16]
   25130:	a805      	add	r0, sp, #20
   25132:	2402      	movs	r4, #2
   25134:	7004      	strb	r4, [r0, #0]
   25136:	1c46      	adds	r6, r0, #1
   25138:	223c      	movs	r2, #60	@ 0x3c
   2513a:	9203      	str	r2, [sp, #12]
   2513c:	4630      	mov	r0, r6
   2513e:	f005 fa1b 	bl	2a578 <__aeabi_memcpy>
   25142:	ad15      	add	r5, sp, #84	@ 0x54
   25144:	1c68      	adds	r0, r5, #1
   25146:	212c      	movs	r1, #44	@ 0x2c
   25148:	9002      	str	r0, [sp, #8]
   2514a:	f005 f855 	bl	2a1f8 <__aeabi_memclr>
   2514e:	9401      	str	r4, [sp, #4]
   25150:	702c      	strb	r4, [r5, #0]
   25152:	483f      	ldr	r0, [pc, #252]	@ (25250 <_ZN20complex_dynamic_type3app17hc74fabfcdf258e68E+0x128>)
   25154:	2105      	movs	r1, #5
   25156:	4632      	mov	r2, r6
   25158:	9b03      	ldr	r3, [sp, #12]
   2515a:	df04      	svc	4
   2515c:	2802      	cmp	r0, #2
   2515e:	d104      	bne.n	2516a <_ZN20complex_dynamic_type3app17hc74fabfcdf258e68E+0x42>
   25160:	2001      	movs	r0, #1
   25162:	9a04      	ldr	r2, [sp, #16]
   25164:	7010      	strb	r0, [r2, #0]
   25166:	6051      	str	r1, [r2, #4]
   25168:	e02d      	b.n	251c6 <_ZN20complex_dynamic_type3app17hc74fabfcdf258e68E+0x9e>
   2516a:	9d04      	ldr	r5, [sp, #16]
   2516c:	a805      	add	r0, sp, #20
   2516e:	2104      	movs	r1, #4
   25170:	7001      	strb	r1, [r0, #0]
   25172:	4837      	ldr	r0, [pc, #220]	@ (25250 <_ZN20complex_dynamic_type3app17hc74fabfcdf258e68E+0x128>)
   25174:	2107      	movs	r1, #7
   25176:	232c      	movs	r3, #44	@ 0x2c
   25178:	9c02      	ldr	r4, [sp, #8]
   2517a:	4622      	mov	r2, r4
   2517c:	df03      	svc	3
   2517e:	2802      	cmp	r0, #2
   25180:	d10e      	bne.n	251a0 <_ZN20complex_dynamic_type3app17hc74fabfcdf258e68E+0x78>
   25182:	2001      	movs	r0, #1
   25184:	7028      	strb	r0, [r5, #0]
   25186:	6069      	str	r1, [r5, #4]
   25188:	a815      	add	r0, sp, #84	@ 0x54
   2518a:	7800      	ldrb	r0, [r0, #0]
   2518c:	2802      	cmp	r0, #2
   2518e:	d01a      	beq.n	251c6 <_ZN20complex_dynamic_type3app17hc74fabfcdf258e68E+0x9e>
   25190:	2803      	cmp	r0, #3
   25192:	d013      	beq.n	251bc <_ZN20complex_dynamic_type3app17hc74fabfcdf258e68E+0x94>
   25194:	482e      	ldr	r0, [pc, #184]	@ (25250 <_ZN20complex_dynamic_type3app17hc74fabfcdf258e68E+0x128>)
   25196:	2107      	movs	r1, #7
   25198:	2200      	movs	r2, #0
   2519a:	4613      	mov	r3, r2
   2519c:	df04      	svc	4
   2519e:	e012      	b.n	251c6 <_ZN20complex_dynamic_type3app17hc74fabfcdf258e68E+0x9e>
   251a0:	a815      	add	r0, sp, #84	@ 0x54
   251a2:	2103      	movs	r1, #3
   251a4:	7001      	strb	r1, [r0, #0]
   251a6:	482a      	ldr	r0, [pc, #168]	@ (25250 <_ZN20complex_dynamic_type3app17hc74fabfcdf258e68E+0x128>)
   251a8:	2105      	movs	r1, #5
   251aa:	2207      	movs	r2, #7
   251ac:	2600      	movs	r6, #0
   251ae:	4633      	mov	r3, r6
   251b0:	df02      	svc	2
   251b2:	287f      	cmp	r0, #127	@ 0x7f
   251b4:	d816      	bhi.n	251e4 <_ZN20complex_dynamic_type3app17hc74fabfcdf258e68E+0xbc>
   251b6:	2001      	movs	r0, #1
   251b8:	7028      	strb	r0, [r5, #0]
   251ba:	6069      	str	r1, [r5, #4]
   251bc:	4824      	ldr	r0, [pc, #144]	@ (25250 <_ZN20complex_dynamic_type3app17hc74fabfcdf258e68E+0x128>)
   251be:	2107      	movs	r1, #7
   251c0:	2200      	movs	r2, #0
   251c2:	4613      	mov	r3, r2
   251c4:	df03      	svc	3
   251c6:	a805      	add	r0, sp, #20
   251c8:	7804      	ldrb	r4, [r0, #0]
   251ca:	2c02      	cmp	r4, #2
   251cc:	d008      	beq.n	251e0 <_ZN20complex_dynamic_type3app17hc74fabfcdf258e68E+0xb8>
   251ce:	4820      	ldr	r0, [pc, #128]	@ (25250 <_ZN20complex_dynamic_type3app17hc74fabfcdf258e68E+0x128>)
   251d0:	2105      	movs	r1, #5
   251d2:	2200      	movs	r2, #0
   251d4:	4613      	mov	r3, r2
   251d6:	2c03      	cmp	r4, #3
   251d8:	d101      	bne.n	251de <_ZN20complex_dynamic_type3app17hc74fabfcdf258e68E+0xb6>
   251da:	df03      	svc	3
   251dc:	e000      	b.n	251e0 <_ZN20complex_dynamic_type3app17hc74fabfcdf258e68E+0xb8>
   251de:	df04      	svc	4
   251e0:	b021      	add	sp, #132	@ 0x84
   251e2:	bdf0      	pop	{r4, r5, r6, r7, pc}
   251e4:	a805      	add	r0, sp, #20
   251e6:	7800      	ldrb	r0, [r0, #0]
   251e8:	2802      	cmp	r0, #2
   251ea:	d01c      	beq.n	25226 <_ZN20complex_dynamic_type3app17hc74fabfcdf258e68E+0xfe>
   251ec:	2803      	cmp	r0, #3
   251ee:	d105      	bne.n	251fc <_ZN20complex_dynamic_type3app17hc74fabfcdf258e68E+0xd4>
   251f0:	4817      	ldr	r0, [pc, #92]	@ (25250 <_ZN20complex_dynamic_type3app17hc74fabfcdf258e68E+0x128>)
   251f2:	2105      	movs	r1, #5
   251f4:	2200      	movs	r2, #0
   251f6:	4613      	mov	r3, r2
   251f8:	df03      	svc	3
   251fa:	e004      	b.n	25206 <_ZN20complex_dynamic_type3app17hc74fabfcdf258e68E+0xde>
   251fc:	4814      	ldr	r0, [pc, #80]	@ (25250 <_ZN20complex_dynamic_type3app17hc74fabfcdf258e68E+0x128>)
   251fe:	2105      	movs	r1, #5
   25200:	2200      	movs	r2, #0
   25202:	4613      	mov	r3, r2
   25204:	df04      	svc	4
   25206:	a805      	add	r0, sp, #20
   25208:	9901      	ldr	r1, [sp, #4]
   2520a:	7001      	strb	r1, [r0, #0]
   2520c:	a815      	add	r0, sp, #84	@ 0x54
   2520e:	7800      	ldrb	r0, [r0, #0]
   25210:	2803      	cmp	r0, #3
   25212:	d008      	beq.n	25226 <_ZN20complex_dynamic_type3app17hc74fabfcdf258e68E+0xfe>
   25214:	2802      	cmp	r0, #2
   25216:	d10c      	bne.n	25232 <_ZN20complex_dynamic_type3app17hc74fabfcdf258e68E+0x10a>
   25218:	1c68      	adds	r0, r5, #1
   2521a:	222c      	movs	r2, #44	@ 0x2c
   2521c:	4621      	mov	r1, r4
   2521e:	f005 f9ab 	bl	2a578 <__aeabi_memcpy>
   25222:	702e      	strb	r6, [r5, #0]
   25224:	e7dc      	b.n	251e0 <_ZN20complex_dynamic_type3app17hc74fabfcdf258e68E+0xb8>
   25226:	480a      	ldr	r0, [pc, #40]	@ (25250 <_ZN20complex_dynamic_type3app17hc74fabfcdf258e68E+0x128>)
   25228:	2107      	movs	r1, #7
   2522a:	2200      	movs	r2, #0
   2522c:	4613      	mov	r3, r2
   2522e:	df03      	svc	3
   25230:	e004      	b.n	2523c <_ZN20complex_dynamic_type3app17hc74fabfcdf258e68E+0x114>
   25232:	4807      	ldr	r0, [pc, #28]	@ (25250 <_ZN20complex_dynamic_type3app17hc74fabfcdf258e68E+0x128>)
   25234:	2107      	movs	r1, #7
   25236:	2200      	movs	r2, #0
   25238:	4613      	mov	r3, r2
   2523a:	df04      	svc	4
   2523c:	a805      	add	r0, sp, #20
   2523e:	7804      	ldrb	r4, [r0, #0]
   25240:	1c68      	adds	r0, r5, #1
   25242:	222c      	movs	r2, #44	@ 0x2c
   25244:	9902      	ldr	r1, [sp, #8]
   25246:	f005 f997 	bl	2a578 <__aeabi_memcpy>
   2524a:	702e      	strb	r6, [r5, #0]
   2524c:	e7bd      	b.n	251ca <_ZN20complex_dynamic_type3app17hc74fabfcdf258e68E+0xa2>
   2524e:	46c0      	nop			@ (mov r8, r8)
   25250:	00001eac 	.word	0x00001eac

00025254 <_ZN20complex_dynamic_type3app17hc87090a081f40053E>:
   25254:	b5f0      	push	{r4, r5, r6, r7, lr}
   25256:	af03      	add	r7, sp, #12
   25258:	b097      	sub	sp, #92	@ 0x5c
   2525a:	9003      	str	r0, [sp, #12]
   2525c:	a804      	add	r0, sp, #16
   2525e:	2402      	movs	r4, #2
   25260:	7004      	strb	r4, [r0, #0]
   25262:	1c46      	adds	r6, r0, #1
   25264:	222b      	movs	r2, #43	@ 0x2b
   25266:	9202      	str	r2, [sp, #8]
   25268:	4630      	mov	r0, r6
   2526a:	f005 f985 	bl	2a578 <__aeabi_memcpy>
   2526e:	ad0f      	add	r5, sp, #60	@ 0x3c
   25270:	1c68      	adds	r0, r5, #1
   25272:	211e      	movs	r1, #30
   25274:	9001      	str	r0, [sp, #4]
   25276:	f004 ffbf 	bl	2a1f8 <__aeabi_memclr>
   2527a:	9400      	str	r4, [sp, #0]
   2527c:	702c      	strb	r4, [r5, #0]
   2527e:	483f      	ldr	r0, [pc, #252]	@ (2537c <_ZN20complex_dynamic_type3app17hc87090a081f40053E+0x128>)
   25280:	2107      	movs	r1, #7
   25282:	4632      	mov	r2, r6
   25284:	9b02      	ldr	r3, [sp, #8]
   25286:	df04      	svc	4
   25288:	2802      	cmp	r0, #2
   2528a:	d104      	bne.n	25296 <_ZN20complex_dynamic_type3app17hc87090a081f40053E+0x42>
   2528c:	2001      	movs	r0, #1
   2528e:	9a03      	ldr	r2, [sp, #12]
   25290:	7010      	strb	r0, [r2, #0]
   25292:	6051      	str	r1, [r2, #4]
   25294:	e02d      	b.n	252f2 <_ZN20complex_dynamic_type3app17hc87090a081f40053E+0x9e>
   25296:	9d03      	ldr	r5, [sp, #12]
   25298:	a804      	add	r0, sp, #16
   2529a:	2104      	movs	r1, #4
   2529c:	7001      	strb	r1, [r0, #0]
   2529e:	4837      	ldr	r0, [pc, #220]	@ (2537c <_ZN20complex_dynamic_type3app17hc87090a081f40053E+0x128>)
   252a0:	2108      	movs	r1, #8
   252a2:	231e      	movs	r3, #30
   252a4:	9c01      	ldr	r4, [sp, #4]
   252a6:	4622      	mov	r2, r4
   252a8:	df03      	svc	3
   252aa:	2802      	cmp	r0, #2
   252ac:	d10e      	bne.n	252cc <_ZN20complex_dynamic_type3app17hc87090a081f40053E+0x78>
   252ae:	2001      	movs	r0, #1
   252b0:	7028      	strb	r0, [r5, #0]
   252b2:	6069      	str	r1, [r5, #4]
   252b4:	a80f      	add	r0, sp, #60	@ 0x3c
   252b6:	7800      	ldrb	r0, [r0, #0]
   252b8:	2802      	cmp	r0, #2
   252ba:	d01a      	beq.n	252f2 <_ZN20complex_dynamic_type3app17hc87090a081f40053E+0x9e>
   252bc:	2803      	cmp	r0, #3
   252be:	d013      	beq.n	252e8 <_ZN20complex_dynamic_type3app17hc87090a081f40053E+0x94>
   252c0:	482e      	ldr	r0, [pc, #184]	@ (2537c <_ZN20complex_dynamic_type3app17hc87090a081f40053E+0x128>)
   252c2:	2108      	movs	r1, #8
   252c4:	2200      	movs	r2, #0
   252c6:	4613      	mov	r3, r2
   252c8:	df04      	svc	4
   252ca:	e012      	b.n	252f2 <_ZN20complex_dynamic_type3app17hc87090a081f40053E+0x9e>
   252cc:	a80f      	add	r0, sp, #60	@ 0x3c
   252ce:	2103      	movs	r1, #3
   252d0:	7001      	strb	r1, [r0, #0]
   252d2:	482a      	ldr	r0, [pc, #168]	@ (2537c <_ZN20complex_dynamic_type3app17hc87090a081f40053E+0x128>)
   252d4:	2107      	movs	r1, #7
   252d6:	2208      	movs	r2, #8
   252d8:	2600      	movs	r6, #0
   252da:	4633      	mov	r3, r6
   252dc:	df02      	svc	2
   252de:	287f      	cmp	r0, #127	@ 0x7f
   252e0:	d816      	bhi.n	25310 <_ZN20complex_dynamic_type3app17hc87090a081f40053E+0xbc>
   252e2:	2001      	movs	r0, #1
   252e4:	7028      	strb	r0, [r5, #0]
   252e6:	6069      	str	r1, [r5, #4]
   252e8:	4824      	ldr	r0, [pc, #144]	@ (2537c <_ZN20complex_dynamic_type3app17hc87090a081f40053E+0x128>)
   252ea:	2108      	movs	r1, #8
   252ec:	2200      	movs	r2, #0
   252ee:	4613      	mov	r3, r2
   252f0:	df03      	svc	3
   252f2:	a804      	add	r0, sp, #16
   252f4:	7804      	ldrb	r4, [r0, #0]
   252f6:	2c02      	cmp	r4, #2
   252f8:	d008      	beq.n	2530c <_ZN20complex_dynamic_type3app17hc87090a081f40053E+0xb8>
   252fa:	4820      	ldr	r0, [pc, #128]	@ (2537c <_ZN20complex_dynamic_type3app17hc87090a081f40053E+0x128>)
   252fc:	2107      	movs	r1, #7
   252fe:	2200      	movs	r2, #0
   25300:	4613      	mov	r3, r2
   25302:	2c03      	cmp	r4, #3
   25304:	d101      	bne.n	2530a <_ZN20complex_dynamic_type3app17hc87090a081f40053E+0xb6>
   25306:	df03      	svc	3
   25308:	e000      	b.n	2530c <_ZN20complex_dynamic_type3app17hc87090a081f40053E+0xb8>
   2530a:	df04      	svc	4
   2530c:	b017      	add	sp, #92	@ 0x5c
   2530e:	bdf0      	pop	{r4, r5, r6, r7, pc}
   25310:	a804      	add	r0, sp, #16
   25312:	7800      	ldrb	r0, [r0, #0]
   25314:	2802      	cmp	r0, #2
   25316:	d01c      	beq.n	25352 <_ZN20complex_dynamic_type3app17hc87090a081f40053E+0xfe>
   25318:	2803      	cmp	r0, #3
   2531a:	d105      	bne.n	25328 <_ZN20complex_dynamic_type3app17hc87090a081f40053E+0xd4>
   2531c:	4817      	ldr	r0, [pc, #92]	@ (2537c <_ZN20complex_dynamic_type3app17hc87090a081f40053E+0x128>)
   2531e:	2107      	movs	r1, #7
   25320:	2200      	movs	r2, #0
   25322:	4613      	mov	r3, r2
   25324:	df03      	svc	3
   25326:	e004      	b.n	25332 <_ZN20complex_dynamic_type3app17hc87090a081f40053E+0xde>
   25328:	4814      	ldr	r0, [pc, #80]	@ (2537c <_ZN20complex_dynamic_type3app17hc87090a081f40053E+0x128>)
   2532a:	2107      	movs	r1, #7
   2532c:	2200      	movs	r2, #0
   2532e:	4613      	mov	r3, r2
   25330:	df04      	svc	4
   25332:	a804      	add	r0, sp, #16
   25334:	9900      	ldr	r1, [sp, #0]
   25336:	7001      	strb	r1, [r0, #0]
   25338:	a80f      	add	r0, sp, #60	@ 0x3c
   2533a:	7800      	ldrb	r0, [r0, #0]
   2533c:	2803      	cmp	r0, #3
   2533e:	d008      	beq.n	25352 <_ZN20complex_dynamic_type3app17hc87090a081f40053E+0xfe>
   25340:	2802      	cmp	r0, #2
   25342:	d10c      	bne.n	2535e <_ZN20complex_dynamic_type3app17hc87090a081f40053E+0x10a>
   25344:	1c68      	adds	r0, r5, #1
   25346:	221e      	movs	r2, #30
   25348:	4621      	mov	r1, r4
   2534a:	f005 f915 	bl	2a578 <__aeabi_memcpy>
   2534e:	702e      	strb	r6, [r5, #0]
   25350:	e7dc      	b.n	2530c <_ZN20complex_dynamic_type3app17hc87090a081f40053E+0xb8>
   25352:	480a      	ldr	r0, [pc, #40]	@ (2537c <_ZN20complex_dynamic_type3app17hc87090a081f40053E+0x128>)
   25354:	2108      	movs	r1, #8
   25356:	2200      	movs	r2, #0
   25358:	4613      	mov	r3, r2
   2535a:	df03      	svc	3
   2535c:	e004      	b.n	25368 <_ZN20complex_dynamic_type3app17hc87090a081f40053E+0x114>
   2535e:	4807      	ldr	r0, [pc, #28]	@ (2537c <_ZN20complex_dynamic_type3app17hc87090a081f40053E+0x128>)
   25360:	2108      	movs	r1, #8
   25362:	2200      	movs	r2, #0
   25364:	4613      	mov	r3, r2
   25366:	df04      	svc	4
   25368:	a804      	add	r0, sp, #16
   2536a:	7804      	ldrb	r4, [r0, #0]
   2536c:	1c68      	adds	r0, r5, #1
   2536e:	221e      	movs	r2, #30
   25370:	9901      	ldr	r1, [sp, #4]
   25372:	f005 f901 	bl	2a578 <__aeabi_memcpy>
   25376:	702e      	strb	r6, [r5, #0]
   25378:	e7bd      	b.n	252f6 <_ZN20complex_dynamic_type3app17hc87090a081f40053E+0xa2>
   2537a:	46c0      	nop			@ (mov r8, r8)
   2537c:	000007e3 	.word	0x000007e3

00025380 <_ZN20complex_dynamic_type3app17hc921413f7e8a3334E>:
   25380:	b5f0      	push	{r4, r5, r6, r7, lr}
   25382:	af03      	add	r7, sp, #12
   25384:	b0a7      	sub	sp, #156	@ 0x9c
   25386:	9003      	str	r0, [sp, #12]
   25388:	ae04      	add	r6, sp, #16
   2538a:	2502      	movs	r5, #2
   2538c:	7035      	strb	r5, [r6, #0]
   2538e:	1c70      	adds	r0, r6, #1
   25390:	2255      	movs	r2, #85	@ 0x55
   25392:	9202      	str	r2, [sp, #8]
   25394:	f005 f8f0 	bl	2a578 <__aeabi_memcpy>
   25398:	ac1a      	add	r4, sp, #104	@ 0x68
   2539a:	1c60      	adds	r0, r4, #1
   2539c:	2132      	movs	r1, #50	@ 0x32
   2539e:	9001      	str	r0, [sp, #4]
   253a0:	f004 ff2a 	bl	2a1f8 <__aeabi_memclr>
   253a4:	7025      	strb	r5, [r4, #0]
   253a6:	2204      	movs	r2, #4
   253a8:	4630      	mov	r0, r6
   253aa:	9902      	ldr	r1, [sp, #8]
   253ac:	f7fa fe9a 	bl	200e4 <_ZN9allow_pin12dynamic_type23Buffer$LT$B$C$_$C$_$GT$5allow17h02abe39b53d01be3E>
   253b0:	07c0      	lsls	r0, r0, #31
   253b2:	d10e      	bne.n	253d2 <_ZN20complex_dynamic_type3app17hc921413f7e8a3334E+0x52>
   253b4:	a81a      	add	r0, sp, #104	@ 0x68
   253b6:	2132      	movs	r1, #50	@ 0x32
   253b8:	2203      	movs	r2, #3
   253ba:	f7fa fe93 	bl	200e4 <_ZN9allow_pin12dynamic_type23Buffer$LT$B$C$_$C$_$GT$5allow17h02abe39b53d01be3E>
   253be:	07c0      	lsls	r0, r0, #31
   253c0:	d107      	bne.n	253d2 <_ZN20complex_dynamic_type3app17hc921413f7e8a3334E+0x52>
   253c2:	4831      	ldr	r0, [pc, #196]	@ (25488 <_ZN20complex_dynamic_type3app17hc921413f7e8a3334E+0x108>)
   253c4:	2108      	movs	r1, #8
   253c6:	2600      	movs	r6, #0
   253c8:	460a      	mov	r2, r1
   253ca:	4633      	mov	r3, r6
   253cc:	df02      	svc	2
   253ce:	287f      	cmp	r0, #127	@ 0x7f
   253d0:	d823      	bhi.n	2541a <_ZN20complex_dynamic_type3app17hc921413f7e8a3334E+0x9a>
   253d2:	2001      	movs	r0, #1
   253d4:	9a03      	ldr	r2, [sp, #12]
   253d6:	7010      	strb	r0, [r2, #0]
   253d8:	6051      	str	r1, [r2, #4]
   253da:	a81a      	add	r0, sp, #104	@ 0x68
   253dc:	7800      	ldrb	r0, [r0, #0]
   253de:	2802      	cmp	r0, #2
   253e0:	d00c      	beq.n	253fc <_ZN20complex_dynamic_type3app17hc921413f7e8a3334E+0x7c>
   253e2:	2803      	cmp	r0, #3
   253e4:	d105      	bne.n	253f2 <_ZN20complex_dynamic_type3app17hc921413f7e8a3334E+0x72>
   253e6:	4828      	ldr	r0, [pc, #160]	@ (25488 <_ZN20complex_dynamic_type3app17hc921413f7e8a3334E+0x108>)
   253e8:	2108      	movs	r1, #8
   253ea:	2200      	movs	r2, #0
   253ec:	4613      	mov	r3, r2
   253ee:	df03      	svc	3
   253f0:	e004      	b.n	253fc <_ZN20complex_dynamic_type3app17hc921413f7e8a3334E+0x7c>
   253f2:	4825      	ldr	r0, [pc, #148]	@ (25488 <_ZN20complex_dynamic_type3app17hc921413f7e8a3334E+0x108>)
   253f4:	2108      	movs	r1, #8
   253f6:	2200      	movs	r2, #0
   253f8:	4613      	mov	r3, r2
   253fa:	df04      	svc	4
   253fc:	a804      	add	r0, sp, #16
   253fe:	7804      	ldrb	r4, [r0, #0]
   25400:	2c02      	cmp	r4, #2
   25402:	d008      	beq.n	25416 <_ZN20complex_dynamic_type3app17hc921413f7e8a3334E+0x96>
   25404:	4820      	ldr	r0, [pc, #128]	@ (25488 <_ZN20complex_dynamic_type3app17hc921413f7e8a3334E+0x108>)
   25406:	2108      	movs	r1, #8
   25408:	2200      	movs	r2, #0
   2540a:	4613      	mov	r3, r2
   2540c:	2c03      	cmp	r4, #3
   2540e:	d101      	bne.n	25414 <_ZN20complex_dynamic_type3app17hc921413f7e8a3334E+0x94>
   25410:	df03      	svc	3
   25412:	e000      	b.n	25416 <_ZN20complex_dynamic_type3app17hc921413f7e8a3334E+0x96>
   25414:	df04      	svc	4
   25416:	b027      	add	sp, #156	@ 0x9c
   25418:	bdf0      	pop	{r4, r5, r6, r7, pc}
   2541a:	a804      	add	r0, sp, #16
   2541c:	7800      	ldrb	r0, [r0, #0]
   2541e:	2802      	cmp	r0, #2
   25420:	d00c      	beq.n	2543c <_ZN20complex_dynamic_type3app17hc921413f7e8a3334E+0xbc>
   25422:	2803      	cmp	r0, #3
   25424:	d105      	bne.n	25432 <_ZN20complex_dynamic_type3app17hc921413f7e8a3334E+0xb2>
   25426:	4818      	ldr	r0, [pc, #96]	@ (25488 <_ZN20complex_dynamic_type3app17hc921413f7e8a3334E+0x108>)
   25428:	2108      	movs	r1, #8
   2542a:	2200      	movs	r2, #0
   2542c:	4613      	mov	r3, r2
   2542e:	df03      	svc	3
   25430:	e004      	b.n	2543c <_ZN20complex_dynamic_type3app17hc921413f7e8a3334E+0xbc>
   25432:	4815      	ldr	r0, [pc, #84]	@ (25488 <_ZN20complex_dynamic_type3app17hc921413f7e8a3334E+0x108>)
   25434:	2108      	movs	r1, #8
   25436:	2200      	movs	r2, #0
   25438:	4613      	mov	r3, r2
   2543a:	df04      	svc	4
   2543c:	a804      	add	r0, sp, #16
   2543e:	7005      	strb	r5, [r0, #0]
   25440:	a81a      	add	r0, sp, #104	@ 0x68
   25442:	7800      	ldrb	r0, [r0, #0]
   25444:	2803      	cmp	r0, #3
   25446:	d009      	beq.n	2545c <_ZN20complex_dynamic_type3app17hc921413f7e8a3334E+0xdc>
   25448:	2802      	cmp	r0, #2
   2544a:	d10d      	bne.n	25468 <_ZN20complex_dynamic_type3app17hc921413f7e8a3334E+0xe8>
   2544c:	9c03      	ldr	r4, [sp, #12]
   2544e:	1c60      	adds	r0, r4, #1
   25450:	2232      	movs	r2, #50	@ 0x32
   25452:	9901      	ldr	r1, [sp, #4]
   25454:	f005 f890 	bl	2a578 <__aeabi_memcpy>
   25458:	7026      	strb	r6, [r4, #0]
   2545a:	e7dc      	b.n	25416 <_ZN20complex_dynamic_type3app17hc921413f7e8a3334E+0x96>
   2545c:	480a      	ldr	r0, [pc, #40]	@ (25488 <_ZN20complex_dynamic_type3app17hc921413f7e8a3334E+0x108>)
   2545e:	2108      	movs	r1, #8
   25460:	2200      	movs	r2, #0
   25462:	4613      	mov	r3, r2
   25464:	df03      	svc	3
   25466:	e004      	b.n	25472 <_ZN20complex_dynamic_type3app17hc921413f7e8a3334E+0xf2>
   25468:	4807      	ldr	r0, [pc, #28]	@ (25488 <_ZN20complex_dynamic_type3app17hc921413f7e8a3334E+0x108>)
   2546a:	2108      	movs	r1, #8
   2546c:	2200      	movs	r2, #0
   2546e:	4613      	mov	r3, r2
   25470:	df04      	svc	4
   25472:	a804      	add	r0, sp, #16
   25474:	7804      	ldrb	r4, [r0, #0]
   25476:	9d03      	ldr	r5, [sp, #12]
   25478:	1c68      	adds	r0, r5, #1
   2547a:	2232      	movs	r2, #50	@ 0x32
   2547c:	9901      	ldr	r1, [sp, #4]
   2547e:	f005 f87b 	bl	2a578 <__aeabi_memcpy>
   25482:	702e      	strb	r6, [r5, #0]
   25484:	e7bc      	b.n	25400 <_ZN20complex_dynamic_type3app17hc921413f7e8a3334E+0x80>
   25486:	46c0      	nop			@ (mov r8, r8)
   25488:	00002095 	.word	0x00002095

0002548c <_ZN20complex_dynamic_type3app17hc9e08913b675efc5E>:
   2548c:	b5f0      	push	{r4, r5, r6, r7, lr}
   2548e:	af03      	add	r7, sp, #12
   25490:	b0a3      	sub	sp, #140	@ 0x8c
   25492:	9004      	str	r0, [sp, #16]
   25494:	a805      	add	r0, sp, #20
   25496:	2402      	movs	r4, #2
   25498:	7004      	strb	r4, [r0, #0]
   2549a:	1c46      	adds	r6, r0, #1
   2549c:	2227      	movs	r2, #39	@ 0x27
   2549e:	9203      	str	r2, [sp, #12]
   254a0:	4630      	mov	r0, r6
   254a2:	f005 f869 	bl	2a578 <__aeabi_memcpy>
   254a6:	ad0f      	add	r5, sp, #60	@ 0x3c
   254a8:	1c68      	adds	r0, r5, #1
   254aa:	214f      	movs	r1, #79	@ 0x4f
   254ac:	9002      	str	r0, [sp, #8]
   254ae:	f004 fea3 	bl	2a1f8 <__aeabi_memclr>
   254b2:	9401      	str	r4, [sp, #4]
   254b4:	702c      	strb	r4, [r5, #0]
   254b6:	483f      	ldr	r0, [pc, #252]	@ (255b4 <_ZN20complex_dynamic_type3app17hc9e08913b675efc5E+0x128>)
   254b8:	2109      	movs	r1, #9
   254ba:	4632      	mov	r2, r6
   254bc:	9b03      	ldr	r3, [sp, #12]
   254be:	df04      	svc	4
   254c0:	2802      	cmp	r0, #2
   254c2:	d104      	bne.n	254ce <_ZN20complex_dynamic_type3app17hc9e08913b675efc5E+0x42>
   254c4:	2001      	movs	r0, #1
   254c6:	9a04      	ldr	r2, [sp, #16]
   254c8:	7010      	strb	r0, [r2, #0]
   254ca:	6051      	str	r1, [r2, #4]
   254cc:	e02d      	b.n	2552a <_ZN20complex_dynamic_type3app17hc9e08913b675efc5E+0x9e>
   254ce:	9d04      	ldr	r5, [sp, #16]
   254d0:	a805      	add	r0, sp, #20
   254d2:	2104      	movs	r1, #4
   254d4:	7001      	strb	r1, [r0, #0]
   254d6:	4837      	ldr	r0, [pc, #220]	@ (255b4 <_ZN20complex_dynamic_type3app17hc9e08913b675efc5E+0x128>)
   254d8:	2100      	movs	r1, #0
   254da:	234f      	movs	r3, #79	@ 0x4f
   254dc:	9c02      	ldr	r4, [sp, #8]
   254de:	4622      	mov	r2, r4
   254e0:	df03      	svc	3
   254e2:	2802      	cmp	r0, #2
   254e4:	d10e      	bne.n	25504 <_ZN20complex_dynamic_type3app17hc9e08913b675efc5E+0x78>
   254e6:	2001      	movs	r0, #1
   254e8:	7028      	strb	r0, [r5, #0]
   254ea:	6069      	str	r1, [r5, #4]
   254ec:	a80f      	add	r0, sp, #60	@ 0x3c
   254ee:	7800      	ldrb	r0, [r0, #0]
   254f0:	2802      	cmp	r0, #2
   254f2:	d01a      	beq.n	2552a <_ZN20complex_dynamic_type3app17hc9e08913b675efc5E+0x9e>
   254f4:	2803      	cmp	r0, #3
   254f6:	d013      	beq.n	25520 <_ZN20complex_dynamic_type3app17hc9e08913b675efc5E+0x94>
   254f8:	482e      	ldr	r0, [pc, #184]	@ (255b4 <_ZN20complex_dynamic_type3app17hc9e08913b675efc5E+0x128>)
   254fa:	2100      	movs	r1, #0
   254fc:	460a      	mov	r2, r1
   254fe:	460b      	mov	r3, r1
   25500:	df04      	svc	4
   25502:	e012      	b.n	2552a <_ZN20complex_dynamic_type3app17hc9e08913b675efc5E+0x9e>
   25504:	a80f      	add	r0, sp, #60	@ 0x3c
   25506:	2103      	movs	r1, #3
   25508:	7001      	strb	r1, [r0, #0]
   2550a:	482a      	ldr	r0, [pc, #168]	@ (255b4 <_ZN20complex_dynamic_type3app17hc9e08913b675efc5E+0x128>)
   2550c:	2109      	movs	r1, #9
   2550e:	2600      	movs	r6, #0
   25510:	4632      	mov	r2, r6
   25512:	4633      	mov	r3, r6
   25514:	df02      	svc	2
   25516:	287f      	cmp	r0, #127	@ 0x7f
   25518:	d816      	bhi.n	25548 <_ZN20complex_dynamic_type3app17hc9e08913b675efc5E+0xbc>
   2551a:	2001      	movs	r0, #1
   2551c:	7028      	strb	r0, [r5, #0]
   2551e:	6069      	str	r1, [r5, #4]
   25520:	4824      	ldr	r0, [pc, #144]	@ (255b4 <_ZN20complex_dynamic_type3app17hc9e08913b675efc5E+0x128>)
   25522:	2100      	movs	r1, #0
   25524:	460a      	mov	r2, r1
   25526:	460b      	mov	r3, r1
   25528:	df03      	svc	3
   2552a:	a805      	add	r0, sp, #20
   2552c:	7804      	ldrb	r4, [r0, #0]
   2552e:	2c02      	cmp	r4, #2
   25530:	d008      	beq.n	25544 <_ZN20complex_dynamic_type3app17hc9e08913b675efc5E+0xb8>
   25532:	4820      	ldr	r0, [pc, #128]	@ (255b4 <_ZN20complex_dynamic_type3app17hc9e08913b675efc5E+0x128>)
   25534:	2109      	movs	r1, #9
   25536:	2200      	movs	r2, #0
   25538:	4613      	mov	r3, r2
   2553a:	2c03      	cmp	r4, #3
   2553c:	d101      	bne.n	25542 <_ZN20complex_dynamic_type3app17hc9e08913b675efc5E+0xb6>
   2553e:	df03      	svc	3
   25540:	e000      	b.n	25544 <_ZN20complex_dynamic_type3app17hc9e08913b675efc5E+0xb8>
   25542:	df04      	svc	4
   25544:	b023      	add	sp, #140	@ 0x8c
   25546:	bdf0      	pop	{r4, r5, r6, r7, pc}
   25548:	a805      	add	r0, sp, #20
   2554a:	7800      	ldrb	r0, [r0, #0]
   2554c:	2802      	cmp	r0, #2
   2554e:	d01c      	beq.n	2558a <_ZN20complex_dynamic_type3app17hc9e08913b675efc5E+0xfe>
   25550:	2803      	cmp	r0, #3
   25552:	d105      	bne.n	25560 <_ZN20complex_dynamic_type3app17hc9e08913b675efc5E+0xd4>
   25554:	4817      	ldr	r0, [pc, #92]	@ (255b4 <_ZN20complex_dynamic_type3app17hc9e08913b675efc5E+0x128>)
   25556:	2109      	movs	r1, #9
   25558:	2200      	movs	r2, #0
   2555a:	4613      	mov	r3, r2
   2555c:	df03      	svc	3
   2555e:	e004      	b.n	2556a <_ZN20complex_dynamic_type3app17hc9e08913b675efc5E+0xde>
   25560:	4814      	ldr	r0, [pc, #80]	@ (255b4 <_ZN20complex_dynamic_type3app17hc9e08913b675efc5E+0x128>)
   25562:	2109      	movs	r1, #9
   25564:	2200      	movs	r2, #0
   25566:	4613      	mov	r3, r2
   25568:	df04      	svc	4
   2556a:	a805      	add	r0, sp, #20
   2556c:	9901      	ldr	r1, [sp, #4]
   2556e:	7001      	strb	r1, [r0, #0]
   25570:	a80f      	add	r0, sp, #60	@ 0x3c
   25572:	7800      	ldrb	r0, [r0, #0]
   25574:	2803      	cmp	r0, #3
   25576:	d008      	beq.n	2558a <_ZN20complex_dynamic_type3app17hc9e08913b675efc5E+0xfe>
   25578:	2802      	cmp	r0, #2
   2557a:	d10c      	bne.n	25596 <_ZN20complex_dynamic_type3app17hc9e08913b675efc5E+0x10a>
   2557c:	1c68      	adds	r0, r5, #1
   2557e:	224f      	movs	r2, #79	@ 0x4f
   25580:	4621      	mov	r1, r4
   25582:	f004 fff9 	bl	2a578 <__aeabi_memcpy>
   25586:	702e      	strb	r6, [r5, #0]
   25588:	e7dc      	b.n	25544 <_ZN20complex_dynamic_type3app17hc9e08913b675efc5E+0xb8>
   2558a:	480a      	ldr	r0, [pc, #40]	@ (255b4 <_ZN20complex_dynamic_type3app17hc9e08913b675efc5E+0x128>)
   2558c:	2100      	movs	r1, #0
   2558e:	460a      	mov	r2, r1
   25590:	460b      	mov	r3, r1
   25592:	df03      	svc	3
   25594:	e004      	b.n	255a0 <_ZN20complex_dynamic_type3app17hc9e08913b675efc5E+0x114>
   25596:	4807      	ldr	r0, [pc, #28]	@ (255b4 <_ZN20complex_dynamic_type3app17hc9e08913b675efc5E+0x128>)
   25598:	2100      	movs	r1, #0
   2559a:	460a      	mov	r2, r1
   2559c:	460b      	mov	r3, r1
   2559e:	df04      	svc	4
   255a0:	a805      	add	r0, sp, #20
   255a2:	7804      	ldrb	r4, [r0, #0]
   255a4:	1c68      	adds	r0, r5, #1
   255a6:	224f      	movs	r2, #79	@ 0x4f
   255a8:	9902      	ldr	r1, [sp, #8]
   255aa:	f004 ffe5 	bl	2a578 <__aeabi_memcpy>
   255ae:	702e      	strb	r6, [r5, #0]
   255b0:	e7bd      	b.n	2552e <_ZN20complex_dynamic_type3app17hc9e08913b675efc5E+0xa2>
   255b2:	46c0      	nop			@ (mov r8, r8)
   255b4:	00000b4c 	.word	0x00000b4c

000255b8 <_ZN20complex_dynamic_type3app17hcacbe775e642b624E>:
   255b8:	b5f0      	push	{r4, r5, r6, r7, lr}
   255ba:	af03      	add	r7, sp, #12
   255bc:	b0a1      	sub	sp, #132	@ 0x84
   255be:	9004      	str	r0, [sp, #16]
   255c0:	a805      	add	r0, sp, #20
   255c2:	2402      	movs	r4, #2
   255c4:	7004      	strb	r4, [r0, #0]
   255c6:	1c46      	adds	r6, r0, #1
   255c8:	2249      	movs	r2, #73	@ 0x49
   255ca:	9203      	str	r2, [sp, #12]
   255cc:	4630      	mov	r0, r6
   255ce:	f004 ffd3 	bl	2a578 <__aeabi_memcpy>
   255d2:	ad18      	add	r5, sp, #96	@ 0x60
   255d4:	1c68      	adds	r0, r5, #1
   255d6:	2123      	movs	r1, #35	@ 0x23
   255d8:	9002      	str	r0, [sp, #8]
   255da:	f004 fe0d 	bl	2a1f8 <__aeabi_memclr>
   255de:	9401      	str	r4, [sp, #4]
   255e0:	702c      	strb	r4, [r5, #0]
   255e2:	483e      	ldr	r0, [pc, #248]	@ (256dc <_ZN20complex_dynamic_type3app17hcacbe775e642b624E+0x124>)
   255e4:	2107      	movs	r1, #7
   255e6:	4632      	mov	r2, r6
   255e8:	9b03      	ldr	r3, [sp, #12]
   255ea:	df04      	svc	4
   255ec:	2802      	cmp	r0, #2
   255ee:	d104      	bne.n	255fa <_ZN20complex_dynamic_type3app17hcacbe775e642b624E+0x42>
   255f0:	2001      	movs	r0, #1
   255f2:	9a04      	ldr	r2, [sp, #16]
   255f4:	7010      	strb	r0, [r2, #0]
   255f6:	6051      	str	r1, [r2, #4]
   255f8:	e02c      	b.n	25654 <_ZN20complex_dynamic_type3app17hcacbe775e642b624E+0x9c>
   255fa:	9d04      	ldr	r5, [sp, #16]
   255fc:	a805      	add	r0, sp, #20
   255fe:	2104      	movs	r1, #4
   25600:	7001      	strb	r1, [r0, #0]
   25602:	4836      	ldr	r0, [pc, #216]	@ (256dc <_ZN20complex_dynamic_type3app17hcacbe775e642b624E+0x124>)
   25604:	2401      	movs	r4, #1
   25606:	2323      	movs	r3, #35	@ 0x23
   25608:	4621      	mov	r1, r4
   2560a:	9a02      	ldr	r2, [sp, #8]
   2560c:	df03      	svc	3
   2560e:	2802      	cmp	r0, #2
   25610:	d10d      	bne.n	2562e <_ZN20complex_dynamic_type3app17hcacbe775e642b624E+0x76>
   25612:	702c      	strb	r4, [r5, #0]
   25614:	6069      	str	r1, [r5, #4]
   25616:	a818      	add	r0, sp, #96	@ 0x60
   25618:	7800      	ldrb	r0, [r0, #0]
   2561a:	2802      	cmp	r0, #2
   2561c:	d01a      	beq.n	25654 <_ZN20complex_dynamic_type3app17hcacbe775e642b624E+0x9c>
   2561e:	2803      	cmp	r0, #3
   25620:	d013      	beq.n	2564a <_ZN20complex_dynamic_type3app17hcacbe775e642b624E+0x92>
   25622:	482e      	ldr	r0, [pc, #184]	@ (256dc <_ZN20complex_dynamic_type3app17hcacbe775e642b624E+0x124>)
   25624:	2101      	movs	r1, #1
   25626:	2200      	movs	r2, #0
   25628:	4613      	mov	r3, r2
   2562a:	df04      	svc	4
   2562c:	e012      	b.n	25654 <_ZN20complex_dynamic_type3app17hcacbe775e642b624E+0x9c>
   2562e:	a818      	add	r0, sp, #96	@ 0x60
   25630:	2103      	movs	r1, #3
   25632:	7001      	strb	r1, [r0, #0]
   25634:	4829      	ldr	r0, [pc, #164]	@ (256dc <_ZN20complex_dynamic_type3app17hcacbe775e642b624E+0x124>)
   25636:	2107      	movs	r1, #7
   25638:	2401      	movs	r4, #1
   2563a:	2600      	movs	r6, #0
   2563c:	4622      	mov	r2, r4
   2563e:	4633      	mov	r3, r6
   25640:	df02      	svc	2
   25642:	287f      	cmp	r0, #127	@ 0x7f
   25644:	d815      	bhi.n	25672 <_ZN20complex_dynamic_type3app17hcacbe775e642b624E+0xba>
   25646:	702c      	strb	r4, [r5, #0]
   25648:	6069      	str	r1, [r5, #4]
   2564a:	4824      	ldr	r0, [pc, #144]	@ (256dc <_ZN20complex_dynamic_type3app17hcacbe775e642b624E+0x124>)
   2564c:	2101      	movs	r1, #1
   2564e:	2200      	movs	r2, #0
   25650:	4613      	mov	r3, r2
   25652:	df03      	svc	3
   25654:	a805      	add	r0, sp, #20
   25656:	7804      	ldrb	r4, [r0, #0]
   25658:	2c02      	cmp	r4, #2
   2565a:	d008      	beq.n	2566e <_ZN20complex_dynamic_type3app17hcacbe775e642b624E+0xb6>
   2565c:	481f      	ldr	r0, [pc, #124]	@ (256dc <_ZN20complex_dynamic_type3app17hcacbe775e642b624E+0x124>)
   2565e:	2107      	movs	r1, #7
   25660:	2200      	movs	r2, #0
   25662:	4613      	mov	r3, r2
   25664:	2c03      	cmp	r4, #3
   25666:	d101      	bne.n	2566c <_ZN20complex_dynamic_type3app17hcacbe775e642b624E+0xb4>
   25668:	df03      	svc	3
   2566a:	e000      	b.n	2566e <_ZN20complex_dynamic_type3app17hcacbe775e642b624E+0xb6>
   2566c:	df04      	svc	4
   2566e:	b021      	add	sp, #132	@ 0x84
   25670:	bdf0      	pop	{r4, r5, r6, r7, pc}
   25672:	a805      	add	r0, sp, #20
   25674:	7800      	ldrb	r0, [r0, #0]
   25676:	2802      	cmp	r0, #2
   25678:	d01c      	beq.n	256b4 <_ZN20complex_dynamic_type3app17hcacbe775e642b624E+0xfc>
   2567a:	2803      	cmp	r0, #3
   2567c:	d105      	bne.n	2568a <_ZN20complex_dynamic_type3app17hcacbe775e642b624E+0xd2>
   2567e:	4817      	ldr	r0, [pc, #92]	@ (256dc <_ZN20complex_dynamic_type3app17hcacbe775e642b624E+0x124>)
   25680:	2107      	movs	r1, #7
   25682:	2200      	movs	r2, #0
   25684:	4613      	mov	r3, r2
   25686:	df03      	svc	3
   25688:	e004      	b.n	25694 <_ZN20complex_dynamic_type3app17hcacbe775e642b624E+0xdc>
   2568a:	4814      	ldr	r0, [pc, #80]	@ (256dc <_ZN20complex_dynamic_type3app17hcacbe775e642b624E+0x124>)
   2568c:	2107      	movs	r1, #7
   2568e:	2200      	movs	r2, #0
   25690:	4613      	mov	r3, r2
   25692:	df04      	svc	4
   25694:	9901      	ldr	r1, [sp, #4]
   25696:	a805      	add	r0, sp, #20
   25698:	7001      	strb	r1, [r0, #0]
   2569a:	a818      	add	r0, sp, #96	@ 0x60
   2569c:	7800      	ldrb	r0, [r0, #0]
   2569e:	2803      	cmp	r0, #3
   256a0:	d008      	beq.n	256b4 <_ZN20complex_dynamic_type3app17hcacbe775e642b624E+0xfc>
   256a2:	2802      	cmp	r0, #2
   256a4:	d10c      	bne.n	256c0 <_ZN20complex_dynamic_type3app17hcacbe775e642b624E+0x108>
   256a6:	1c68      	adds	r0, r5, #1
   256a8:	2223      	movs	r2, #35	@ 0x23
   256aa:	9902      	ldr	r1, [sp, #8]
   256ac:	f004 ff64 	bl	2a578 <__aeabi_memcpy>
   256b0:	702e      	strb	r6, [r5, #0]
   256b2:	e7dc      	b.n	2566e <_ZN20complex_dynamic_type3app17hcacbe775e642b624E+0xb6>
   256b4:	4809      	ldr	r0, [pc, #36]	@ (256dc <_ZN20complex_dynamic_type3app17hcacbe775e642b624E+0x124>)
   256b6:	2101      	movs	r1, #1
   256b8:	2200      	movs	r2, #0
   256ba:	4613      	mov	r3, r2
   256bc:	df03      	svc	3
   256be:	e004      	b.n	256ca <_ZN20complex_dynamic_type3app17hcacbe775e642b624E+0x112>
   256c0:	4806      	ldr	r0, [pc, #24]	@ (256dc <_ZN20complex_dynamic_type3app17hcacbe775e642b624E+0x124>)
   256c2:	2101      	movs	r1, #1
   256c4:	2200      	movs	r2, #0
   256c6:	4613      	mov	r3, r2
   256c8:	df04      	svc	4
   256ca:	a805      	add	r0, sp, #20
   256cc:	7804      	ldrb	r4, [r0, #0]
   256ce:	1c68      	adds	r0, r5, #1
   256d0:	2223      	movs	r2, #35	@ 0x23
   256d2:	9902      	ldr	r1, [sp, #8]
   256d4:	f004 ff50 	bl	2a578 <__aeabi_memcpy>
   256d8:	702e      	strb	r6, [r5, #0]
   256da:	e7bd      	b.n	25658 <_ZN20complex_dynamic_type3app17hcacbe775e642b624E+0xa0>
   256dc:	00001551 	.word	0x00001551

000256e0 <_ZN20complex_dynamic_type3app17hcb20addc805e86c9E>:
   256e0:	b5f0      	push	{r4, r5, r6, r7, lr}
   256e2:	af03      	add	r7, sp, #12
   256e4:	b09b      	sub	sp, #108	@ 0x6c
   256e6:	9004      	str	r0, [sp, #16]
   256e8:	a805      	add	r0, sp, #20
   256ea:	2402      	movs	r4, #2
   256ec:	7004      	strb	r4, [r0, #0]
   256ee:	1c40      	adds	r0, r0, #1
   256f0:	9003      	str	r0, [sp, #12]
   256f2:	252c      	movs	r5, #44	@ 0x2c
   256f4:	462a      	mov	r2, r5
   256f6:	f004 ff3f 	bl	2a578 <__aeabi_memcpy>
   256fa:	ae11      	add	r6, sp, #68	@ 0x44
   256fc:	1c70      	adds	r0, r6, #1
   256fe:	2125      	movs	r1, #37	@ 0x25
   25700:	9002      	str	r0, [sp, #8]
   25702:	f004 fd79 	bl	2a1f8 <__aeabi_memclr>
   25706:	9401      	str	r4, [sp, #4]
   25708:	7034      	strb	r4, [r6, #0]
   2570a:	4841      	ldr	r0, [pc, #260]	@ (25810 <_ZN20complex_dynamic_type3app17hcb20addc805e86c9E+0x130>)
   2570c:	2603      	movs	r6, #3
   2570e:	4631      	mov	r1, r6
   25710:	9a03      	ldr	r2, [sp, #12]
   25712:	462b      	mov	r3, r5
   25714:	df04      	svc	4
   25716:	2802      	cmp	r0, #2
   25718:	d104      	bne.n	25724 <_ZN20complex_dynamic_type3app17hcb20addc805e86c9E+0x44>
   2571a:	2001      	movs	r0, #1
   2571c:	9a04      	ldr	r2, [sp, #16]
   2571e:	7010      	strb	r0, [r2, #0]
   25720:	6051      	str	r1, [r2, #4]
   25722:	e02c      	b.n	2577e <_ZN20complex_dynamic_type3app17hcb20addc805e86c9E+0x9e>
   25724:	9d04      	ldr	r5, [sp, #16]
   25726:	a805      	add	r0, sp, #20
   25728:	2104      	movs	r1, #4
   2572a:	7001      	strb	r1, [r0, #0]
   2572c:	4838      	ldr	r0, [pc, #224]	@ (25810 <_ZN20complex_dynamic_type3app17hcb20addc805e86c9E+0x130>)
   2572e:	2100      	movs	r1, #0
   25730:	2325      	movs	r3, #37	@ 0x25
   25732:	9c02      	ldr	r4, [sp, #8]
   25734:	4622      	mov	r2, r4
   25736:	df03      	svc	3
   25738:	2802      	cmp	r0, #2
   2573a:	d10e      	bne.n	2575a <_ZN20complex_dynamic_type3app17hcb20addc805e86c9E+0x7a>
   2573c:	2001      	movs	r0, #1
   2573e:	7028      	strb	r0, [r5, #0]
   25740:	6069      	str	r1, [r5, #4]
   25742:	a811      	add	r0, sp, #68	@ 0x44
   25744:	7800      	ldrb	r0, [r0, #0]
   25746:	2802      	cmp	r0, #2
   25748:	d019      	beq.n	2577e <_ZN20complex_dynamic_type3app17hcb20addc805e86c9E+0x9e>
   2574a:	2803      	cmp	r0, #3
   2574c:	d012      	beq.n	25774 <_ZN20complex_dynamic_type3app17hcb20addc805e86c9E+0x94>
   2574e:	4830      	ldr	r0, [pc, #192]	@ (25810 <_ZN20complex_dynamic_type3app17hcb20addc805e86c9E+0x130>)
   25750:	2100      	movs	r1, #0
   25752:	460a      	mov	r2, r1
   25754:	460b      	mov	r3, r1
   25756:	df04      	svc	4
   25758:	e011      	b.n	2577e <_ZN20complex_dynamic_type3app17hcb20addc805e86c9E+0x9e>
   2575a:	a811      	add	r0, sp, #68	@ 0x44
   2575c:	7006      	strb	r6, [r0, #0]
   2575e:	482c      	ldr	r0, [pc, #176]	@ (25810 <_ZN20complex_dynamic_type3app17hcb20addc805e86c9E+0x130>)
   25760:	2200      	movs	r2, #0
   25762:	4631      	mov	r1, r6
   25764:	9203      	str	r2, [sp, #12]
   25766:	4613      	mov	r3, r2
   25768:	df02      	svc	2
   2576a:	287f      	cmp	r0, #127	@ 0x7f
   2576c:	d816      	bhi.n	2579c <_ZN20complex_dynamic_type3app17hcb20addc805e86c9E+0xbc>
   2576e:	2001      	movs	r0, #1
   25770:	7028      	strb	r0, [r5, #0]
   25772:	6069      	str	r1, [r5, #4]
   25774:	4826      	ldr	r0, [pc, #152]	@ (25810 <_ZN20complex_dynamic_type3app17hcb20addc805e86c9E+0x130>)
   25776:	2100      	movs	r1, #0
   25778:	460a      	mov	r2, r1
   2577a:	460b      	mov	r3, r1
   2577c:	df03      	svc	3
   2577e:	a805      	add	r0, sp, #20
   25780:	7804      	ldrb	r4, [r0, #0]
   25782:	2c02      	cmp	r4, #2
   25784:	d008      	beq.n	25798 <_ZN20complex_dynamic_type3app17hcb20addc805e86c9E+0xb8>
   25786:	4822      	ldr	r0, [pc, #136]	@ (25810 <_ZN20complex_dynamic_type3app17hcb20addc805e86c9E+0x130>)
   25788:	2103      	movs	r1, #3
   2578a:	2200      	movs	r2, #0
   2578c:	4613      	mov	r3, r2
   2578e:	2c03      	cmp	r4, #3
   25790:	d101      	bne.n	25796 <_ZN20complex_dynamic_type3app17hcb20addc805e86c9E+0xb6>
   25792:	df03      	svc	3
   25794:	e000      	b.n	25798 <_ZN20complex_dynamic_type3app17hcb20addc805e86c9E+0xb8>
   25796:	df04      	svc	4
   25798:	b01b      	add	sp, #108	@ 0x6c
   2579a:	bdf0      	pop	{r4, r5, r6, r7, pc}
   2579c:	a805      	add	r0, sp, #20
   2579e:	7800      	ldrb	r0, [r0, #0]
   257a0:	2802      	cmp	r0, #2
   257a2:	d01d      	beq.n	257e0 <_ZN20complex_dynamic_type3app17hcb20addc805e86c9E+0x100>
   257a4:	2803      	cmp	r0, #3
   257a6:	d105      	bne.n	257b4 <_ZN20complex_dynamic_type3app17hcb20addc805e86c9E+0xd4>
   257a8:	4819      	ldr	r0, [pc, #100]	@ (25810 <_ZN20complex_dynamic_type3app17hcb20addc805e86c9E+0x130>)
   257aa:	2103      	movs	r1, #3
   257ac:	2200      	movs	r2, #0
   257ae:	4613      	mov	r3, r2
   257b0:	df03      	svc	3
   257b2:	e004      	b.n	257be <_ZN20complex_dynamic_type3app17hcb20addc805e86c9E+0xde>
   257b4:	4816      	ldr	r0, [pc, #88]	@ (25810 <_ZN20complex_dynamic_type3app17hcb20addc805e86c9E+0x130>)
   257b6:	2103      	movs	r1, #3
   257b8:	2200      	movs	r2, #0
   257ba:	4613      	mov	r3, r2
   257bc:	df04      	svc	4
   257be:	9901      	ldr	r1, [sp, #4]
   257c0:	a805      	add	r0, sp, #20
   257c2:	7001      	strb	r1, [r0, #0]
   257c4:	a811      	add	r0, sp, #68	@ 0x44
   257c6:	7800      	ldrb	r0, [r0, #0]
   257c8:	2803      	cmp	r0, #3
   257ca:	d009      	beq.n	257e0 <_ZN20complex_dynamic_type3app17hcb20addc805e86c9E+0x100>
   257cc:	2802      	cmp	r0, #2
   257ce:	d10e      	bne.n	257ee <_ZN20complex_dynamic_type3app17hcb20addc805e86c9E+0x10e>
   257d0:	1c68      	adds	r0, r5, #1
   257d2:	2225      	movs	r2, #37	@ 0x25
   257d4:	4621      	mov	r1, r4
   257d6:	f004 fecf 	bl	2a578 <__aeabi_memcpy>
   257da:	9803      	ldr	r0, [sp, #12]
   257dc:	7028      	strb	r0, [r5, #0]
   257de:	e7db      	b.n	25798 <_ZN20complex_dynamic_type3app17hcb20addc805e86c9E+0xb8>
   257e0:	4626      	mov	r6, r4
   257e2:	480b      	ldr	r0, [pc, #44]	@ (25810 <_ZN20complex_dynamic_type3app17hcb20addc805e86c9E+0x130>)
   257e4:	2100      	movs	r1, #0
   257e6:	460a      	mov	r2, r1
   257e8:	460b      	mov	r3, r1
   257ea:	df03      	svc	3
   257ec:	e005      	b.n	257fa <_ZN20complex_dynamic_type3app17hcb20addc805e86c9E+0x11a>
   257ee:	4626      	mov	r6, r4
   257f0:	4807      	ldr	r0, [pc, #28]	@ (25810 <_ZN20complex_dynamic_type3app17hcb20addc805e86c9E+0x130>)
   257f2:	2100      	movs	r1, #0
   257f4:	460a      	mov	r2, r1
   257f6:	460b      	mov	r3, r1
   257f8:	df04      	svc	4
   257fa:	a805      	add	r0, sp, #20
   257fc:	7804      	ldrb	r4, [r0, #0]
   257fe:	1c68      	adds	r0, r5, #1
   25800:	2225      	movs	r2, #37	@ 0x25
   25802:	4631      	mov	r1, r6
   25804:	f004 feb8 	bl	2a578 <__aeabi_memcpy>
   25808:	9803      	ldr	r0, [sp, #12]
   2580a:	7028      	strb	r0, [r5, #0]
   2580c:	e7b9      	b.n	25782 <_ZN20complex_dynamic_type3app17hcb20addc805e86c9E+0xa2>
   2580e:	46c0      	nop			@ (mov r8, r8)
   25810:	0000077f 	.word	0x0000077f

00025814 <_ZN20complex_dynamic_type3app17hd1a1a94deea5691eE>:
   25814:	b5f0      	push	{r4, r5, r6, r7, lr}
   25816:	af03      	add	r7, sp, #12
   25818:	b0a1      	sub	sp, #132	@ 0x84
   2581a:	9002      	str	r0, [sp, #8]
   2581c:	ae03      	add	r6, sp, #12
   2581e:	2502      	movs	r5, #2
   25820:	7035      	strb	r5, [r6, #0]
   25822:	1c70      	adds	r0, r6, #1
   25824:	2222      	movs	r2, #34	@ 0x22
   25826:	9201      	str	r2, [sp, #4]
   25828:	f004 fea6 	bl	2a578 <__aeabi_memcpy>
   2582c:	ac0c      	add	r4, sp, #48	@ 0x30
   2582e:	1c60      	adds	r0, r4, #1
   25830:	2151      	movs	r1, #81	@ 0x51
   25832:	9000      	str	r0, [sp, #0]
   25834:	f004 fce0 	bl	2a1f8 <__aeabi_memclr>
   25838:	7025      	strb	r5, [r4, #0]
   2583a:	2204      	movs	r2, #4
   2583c:	4630      	mov	r0, r6
   2583e:	9901      	ldr	r1, [sp, #4]
   25840:	f7fa fd04 	bl	2024c <_ZN9allow_pin12dynamic_type23Buffer$LT$B$C$_$C$_$GT$5allow17hb7dd5f518917fc94E>
   25844:	07c0      	lsls	r0, r0, #31
   25846:	d10e      	bne.n	25866 <_ZN20complex_dynamic_type3app17hd1a1a94deea5691eE+0x52>
   25848:	a80c      	add	r0, sp, #48	@ 0x30
   2584a:	2151      	movs	r1, #81	@ 0x51
   2584c:	2203      	movs	r2, #3
   2584e:	f7fa fcfd 	bl	2024c <_ZN9allow_pin12dynamic_type23Buffer$LT$B$C$_$C$_$GT$5allow17hb7dd5f518917fc94E>
   25852:	07c0      	lsls	r0, r0, #31
   25854:	d107      	bne.n	25866 <_ZN20complex_dynamic_type3app17hd1a1a94deea5691eE+0x52>
   25856:	4831      	ldr	r0, [pc, #196]	@ (2591c <_ZN20complex_dynamic_type3app17hd1a1a94deea5691eE+0x108>)
   25858:	2109      	movs	r1, #9
   2585a:	2600      	movs	r6, #0
   2585c:	460a      	mov	r2, r1
   2585e:	4633      	mov	r3, r6
   25860:	df02      	svc	2
   25862:	287f      	cmp	r0, #127	@ 0x7f
   25864:	d823      	bhi.n	258ae <_ZN20complex_dynamic_type3app17hd1a1a94deea5691eE+0x9a>
   25866:	2001      	movs	r0, #1
   25868:	9a02      	ldr	r2, [sp, #8]
   2586a:	7010      	strb	r0, [r2, #0]
   2586c:	6051      	str	r1, [r2, #4]
   2586e:	a80c      	add	r0, sp, #48	@ 0x30
   25870:	7800      	ldrb	r0, [r0, #0]
   25872:	2802      	cmp	r0, #2
   25874:	d00c      	beq.n	25890 <_ZN20complex_dynamic_type3app17hd1a1a94deea5691eE+0x7c>
   25876:	2803      	cmp	r0, #3
   25878:	d105      	bne.n	25886 <_ZN20complex_dynamic_type3app17hd1a1a94deea5691eE+0x72>
   2587a:	4828      	ldr	r0, [pc, #160]	@ (2591c <_ZN20complex_dynamic_type3app17hd1a1a94deea5691eE+0x108>)
   2587c:	2109      	movs	r1, #9
   2587e:	2200      	movs	r2, #0
   25880:	4613      	mov	r3, r2
   25882:	df03      	svc	3
   25884:	e004      	b.n	25890 <_ZN20complex_dynamic_type3app17hd1a1a94deea5691eE+0x7c>
   25886:	4825      	ldr	r0, [pc, #148]	@ (2591c <_ZN20complex_dynamic_type3app17hd1a1a94deea5691eE+0x108>)
   25888:	2109      	movs	r1, #9
   2588a:	2200      	movs	r2, #0
   2588c:	4613      	mov	r3, r2
   2588e:	df04      	svc	4
   25890:	a803      	add	r0, sp, #12
   25892:	7804      	ldrb	r4, [r0, #0]
   25894:	2c02      	cmp	r4, #2
   25896:	d008      	beq.n	258aa <_ZN20complex_dynamic_type3app17hd1a1a94deea5691eE+0x96>
   25898:	4820      	ldr	r0, [pc, #128]	@ (2591c <_ZN20complex_dynamic_type3app17hd1a1a94deea5691eE+0x108>)
   2589a:	2109      	movs	r1, #9
   2589c:	2200      	movs	r2, #0
   2589e:	4613      	mov	r3, r2
   258a0:	2c03      	cmp	r4, #3
   258a2:	d101      	bne.n	258a8 <_ZN20complex_dynamic_type3app17hd1a1a94deea5691eE+0x94>
   258a4:	df03      	svc	3
   258a6:	e000      	b.n	258aa <_ZN20complex_dynamic_type3app17hd1a1a94deea5691eE+0x96>
   258a8:	df04      	svc	4
   258aa:	b021      	add	sp, #132	@ 0x84
   258ac:	bdf0      	pop	{r4, r5, r6, r7, pc}
   258ae:	a803      	add	r0, sp, #12
   258b0:	7800      	ldrb	r0, [r0, #0]
   258b2:	2802      	cmp	r0, #2
   258b4:	d00c      	beq.n	258d0 <_ZN20complex_dynamic_type3app17hd1a1a94deea5691eE+0xbc>
   258b6:	2803      	cmp	r0, #3
   258b8:	d105      	bne.n	258c6 <_ZN20complex_dynamic_type3app17hd1a1a94deea5691eE+0xb2>
   258ba:	4818      	ldr	r0, [pc, #96]	@ (2591c <_ZN20complex_dynamic_type3app17hd1a1a94deea5691eE+0x108>)
   258bc:	2109      	movs	r1, #9
   258be:	2200      	movs	r2, #0
   258c0:	4613      	mov	r3, r2
   258c2:	df03      	svc	3
   258c4:	e004      	b.n	258d0 <_ZN20complex_dynamic_type3app17hd1a1a94deea5691eE+0xbc>
   258c6:	4815      	ldr	r0, [pc, #84]	@ (2591c <_ZN20complex_dynamic_type3app17hd1a1a94deea5691eE+0x108>)
   258c8:	2109      	movs	r1, #9
   258ca:	2200      	movs	r2, #0
   258cc:	4613      	mov	r3, r2
   258ce:	df04      	svc	4
   258d0:	a803      	add	r0, sp, #12
   258d2:	7005      	strb	r5, [r0, #0]
   258d4:	a80c      	add	r0, sp, #48	@ 0x30
   258d6:	7800      	ldrb	r0, [r0, #0]
   258d8:	2803      	cmp	r0, #3
   258da:	d009      	beq.n	258f0 <_ZN20complex_dynamic_type3app17hd1a1a94deea5691eE+0xdc>
   258dc:	2802      	cmp	r0, #2
   258de:	d10d      	bne.n	258fc <_ZN20complex_dynamic_type3app17hd1a1a94deea5691eE+0xe8>
   258e0:	9c02      	ldr	r4, [sp, #8]
   258e2:	1c60      	adds	r0, r4, #1
   258e4:	2251      	movs	r2, #81	@ 0x51
   258e6:	9900      	ldr	r1, [sp, #0]
   258e8:	f004 fe46 	bl	2a578 <__aeabi_memcpy>
   258ec:	7026      	strb	r6, [r4, #0]
   258ee:	e7dc      	b.n	258aa <_ZN20complex_dynamic_type3app17hd1a1a94deea5691eE+0x96>
   258f0:	480a      	ldr	r0, [pc, #40]	@ (2591c <_ZN20complex_dynamic_type3app17hd1a1a94deea5691eE+0x108>)
   258f2:	2109      	movs	r1, #9
   258f4:	2200      	movs	r2, #0
   258f6:	4613      	mov	r3, r2
   258f8:	df03      	svc	3
   258fa:	e004      	b.n	25906 <_ZN20complex_dynamic_type3app17hd1a1a94deea5691eE+0xf2>
   258fc:	4807      	ldr	r0, [pc, #28]	@ (2591c <_ZN20complex_dynamic_type3app17hd1a1a94deea5691eE+0x108>)
   258fe:	2109      	movs	r1, #9
   25900:	2200      	movs	r2, #0
   25902:	4613      	mov	r3, r2
   25904:	df04      	svc	4
   25906:	a803      	add	r0, sp, #12
   25908:	7804      	ldrb	r4, [r0, #0]
   2590a:	9d02      	ldr	r5, [sp, #8]
   2590c:	1c68      	adds	r0, r5, #1
   2590e:	2251      	movs	r2, #81	@ 0x51
   25910:	9900      	ldr	r1, [sp, #0]
   25912:	f004 fe31 	bl	2a578 <__aeabi_memcpy>
   25916:	702e      	strb	r6, [r5, #0]
   25918:	e7bc      	b.n	25894 <_ZN20complex_dynamic_type3app17hd1a1a94deea5691eE+0x80>
   2591a:	46c0      	nop			@ (mov r8, r8)
   2591c:	0000055e 	.word	0x0000055e

00025920 <_ZN20complex_dynamic_type3app17hd269de3460cf9f05E>:
   25920:	b5f0      	push	{r4, r5, r6, r7, lr}
   25922:	af03      	add	r7, sp, #12
   25924:	b0a1      	sub	sp, #132	@ 0x84
   25926:	9003      	str	r0, [sp, #12]
   25928:	a804      	add	r0, sp, #16
   2592a:	2502      	movs	r5, #2
   2592c:	7005      	strb	r5, [r0, #0]
   2592e:	1c46      	adds	r6, r0, #1
   25930:	225d      	movs	r2, #93	@ 0x5d
   25932:	9202      	str	r2, [sp, #8]
   25934:	4630      	mov	r0, r6
   25936:	f004 fe1f 	bl	2a578 <__aeabi_memcpy>
   2593a:	ac1c      	add	r4, sp, #112	@ 0x70
   2593c:	1c60      	adds	r0, r4, #1
   2593e:	2112      	movs	r1, #18
   25940:	9001      	str	r0, [sp, #4]
   25942:	f004 fc59 	bl	2a1f8 <__aeabi_memclr>
   25946:	7025      	strb	r5, [r4, #0]
   25948:	4841      	ldr	r0, [pc, #260]	@ (25a50 <_ZN20complex_dynamic_type3app17hd269de3460cf9f05E+0x130>)
   2594a:	2100      	movs	r1, #0
   2594c:	4632      	mov	r2, r6
   2594e:	9b02      	ldr	r3, [sp, #8]
   25950:	df04      	svc	4
   25952:	2802      	cmp	r0, #2
   25954:	d104      	bne.n	25960 <_ZN20complex_dynamic_type3app17hd269de3460cf9f05E+0x40>
   25956:	2001      	movs	r0, #1
   25958:	9a03      	ldr	r2, [sp, #12]
   2595a:	7010      	strb	r0, [r2, #0]
   2595c:	6051      	str	r1, [r2, #4]
   2595e:	e02e      	b.n	259be <_ZN20complex_dynamic_type3app17hd269de3460cf9f05E+0x9e>
   25960:	9c03      	ldr	r4, [sp, #12]
   25962:	a804      	add	r0, sp, #16
   25964:	2104      	movs	r1, #4
   25966:	7001      	strb	r1, [r0, #0]
   25968:	4839      	ldr	r0, [pc, #228]	@ (25a50 <_ZN20complex_dynamic_type3app17hd269de3460cf9f05E+0x130>)
   2596a:	2102      	movs	r1, #2
   2596c:	2312      	movs	r3, #18
   2596e:	9d01      	ldr	r5, [sp, #4]
   25970:	462a      	mov	r2, r5
   25972:	df03      	svc	3
   25974:	2802      	cmp	r0, #2
   25976:	d10e      	bne.n	25996 <_ZN20complex_dynamic_type3app17hd269de3460cf9f05E+0x76>
   25978:	2001      	movs	r0, #1
   2597a:	7020      	strb	r0, [r4, #0]
   2597c:	6061      	str	r1, [r4, #4]
   2597e:	a81c      	add	r0, sp, #112	@ 0x70
   25980:	7800      	ldrb	r0, [r0, #0]
   25982:	2802      	cmp	r0, #2
   25984:	d01b      	beq.n	259be <_ZN20complex_dynamic_type3app17hd269de3460cf9f05E+0x9e>
   25986:	2803      	cmp	r0, #3
   25988:	d014      	beq.n	259b4 <_ZN20complex_dynamic_type3app17hd269de3460cf9f05E+0x94>
   2598a:	4831      	ldr	r0, [pc, #196]	@ (25a50 <_ZN20complex_dynamic_type3app17hd269de3460cf9f05E+0x130>)
   2598c:	2102      	movs	r1, #2
   2598e:	2200      	movs	r2, #0
   25990:	4613      	mov	r3, r2
   25992:	df04      	svc	4
   25994:	e013      	b.n	259be <_ZN20complex_dynamic_type3app17hd269de3460cf9f05E+0x9e>
   25996:	a81c      	add	r0, sp, #112	@ 0x70
   25998:	2103      	movs	r1, #3
   2599a:	7001      	strb	r1, [r0, #0]
   2599c:	482c      	ldr	r0, [pc, #176]	@ (25a50 <_ZN20complex_dynamic_type3app17hd269de3460cf9f05E+0x130>)
   2599e:	2602      	movs	r6, #2
   259a0:	2100      	movs	r1, #0
   259a2:	4632      	mov	r2, r6
   259a4:	9102      	str	r1, [sp, #8]
   259a6:	460b      	mov	r3, r1
   259a8:	df02      	svc	2
   259aa:	287f      	cmp	r0, #127	@ 0x7f
   259ac:	d816      	bhi.n	259dc <_ZN20complex_dynamic_type3app17hd269de3460cf9f05E+0xbc>
   259ae:	2001      	movs	r0, #1
   259b0:	7020      	strb	r0, [r4, #0]
   259b2:	6061      	str	r1, [r4, #4]
   259b4:	4826      	ldr	r0, [pc, #152]	@ (25a50 <_ZN20complex_dynamic_type3app17hd269de3460cf9f05E+0x130>)
   259b6:	2102      	movs	r1, #2
   259b8:	2200      	movs	r2, #0
   259ba:	4613      	mov	r3, r2
   259bc:	df03      	svc	3
   259be:	a804      	add	r0, sp, #16
   259c0:	7804      	ldrb	r4, [r0, #0]
   259c2:	2c02      	cmp	r4, #2
   259c4:	d008      	beq.n	259d8 <_ZN20complex_dynamic_type3app17hd269de3460cf9f05E+0xb8>
   259c6:	4822      	ldr	r0, [pc, #136]	@ (25a50 <_ZN20complex_dynamic_type3app17hd269de3460cf9f05E+0x130>)
   259c8:	2100      	movs	r1, #0
   259ca:	460a      	mov	r2, r1
   259cc:	460b      	mov	r3, r1
   259ce:	2c03      	cmp	r4, #3
   259d0:	d101      	bne.n	259d6 <_ZN20complex_dynamic_type3app17hd269de3460cf9f05E+0xb6>
   259d2:	df03      	svc	3
   259d4:	e000      	b.n	259d8 <_ZN20complex_dynamic_type3app17hd269de3460cf9f05E+0xb8>
   259d6:	df04      	svc	4
   259d8:	b021      	add	sp, #132	@ 0x84
   259da:	bdf0      	pop	{r4, r5, r6, r7, pc}
   259dc:	a804      	add	r0, sp, #16
   259de:	7800      	ldrb	r0, [r0, #0]
   259e0:	2802      	cmp	r0, #2
   259e2:	d01c      	beq.n	25a1e <_ZN20complex_dynamic_type3app17hd269de3460cf9f05E+0xfe>
   259e4:	2803      	cmp	r0, #3
   259e6:	d105      	bne.n	259f4 <_ZN20complex_dynamic_type3app17hd269de3460cf9f05E+0xd4>
   259e8:	4819      	ldr	r0, [pc, #100]	@ (25a50 <_ZN20complex_dynamic_type3app17hd269de3460cf9f05E+0x130>)
   259ea:	2100      	movs	r1, #0
   259ec:	460a      	mov	r2, r1
   259ee:	460b      	mov	r3, r1
   259f0:	df03      	svc	3
   259f2:	e004      	b.n	259fe <_ZN20complex_dynamic_type3app17hd269de3460cf9f05E+0xde>
   259f4:	4816      	ldr	r0, [pc, #88]	@ (25a50 <_ZN20complex_dynamic_type3app17hd269de3460cf9f05E+0x130>)
   259f6:	2100      	movs	r1, #0
   259f8:	460a      	mov	r2, r1
   259fa:	460b      	mov	r3, r1
   259fc:	df04      	svc	4
   259fe:	a804      	add	r0, sp, #16
   25a00:	7006      	strb	r6, [r0, #0]
   25a02:	a81c      	add	r0, sp, #112	@ 0x70
   25a04:	7800      	ldrb	r0, [r0, #0]
   25a06:	2803      	cmp	r0, #3
   25a08:	d009      	beq.n	25a1e <_ZN20complex_dynamic_type3app17hd269de3460cf9f05E+0xfe>
   25a0a:	2802      	cmp	r0, #2
   25a0c:	d10e      	bne.n	25a2c <_ZN20complex_dynamic_type3app17hd269de3460cf9f05E+0x10c>
   25a0e:	1c60      	adds	r0, r4, #1
   25a10:	2212      	movs	r2, #18
   25a12:	4629      	mov	r1, r5
   25a14:	f004 fdb0 	bl	2a578 <__aeabi_memcpy>
   25a18:	9802      	ldr	r0, [sp, #8]
   25a1a:	7020      	strb	r0, [r4, #0]
   25a1c:	e7dc      	b.n	259d8 <_ZN20complex_dynamic_type3app17hd269de3460cf9f05E+0xb8>
   25a1e:	462e      	mov	r6, r5
   25a20:	480b      	ldr	r0, [pc, #44]	@ (25a50 <_ZN20complex_dynamic_type3app17hd269de3460cf9f05E+0x130>)
   25a22:	2102      	movs	r1, #2
   25a24:	2200      	movs	r2, #0
   25a26:	4613      	mov	r3, r2
   25a28:	df03      	svc	3
   25a2a:	e005      	b.n	25a38 <_ZN20complex_dynamic_type3app17hd269de3460cf9f05E+0x118>
   25a2c:	462e      	mov	r6, r5
   25a2e:	4808      	ldr	r0, [pc, #32]	@ (25a50 <_ZN20complex_dynamic_type3app17hd269de3460cf9f05E+0x130>)
   25a30:	2102      	movs	r1, #2
   25a32:	2200      	movs	r2, #0
   25a34:	4613      	mov	r3, r2
   25a36:	df04      	svc	4
   25a38:	4625      	mov	r5, r4
   25a3a:	a804      	add	r0, sp, #16
   25a3c:	7804      	ldrb	r4, [r0, #0]
   25a3e:	1c68      	adds	r0, r5, #1
   25a40:	2212      	movs	r2, #18
   25a42:	4631      	mov	r1, r6
   25a44:	f004 fd98 	bl	2a578 <__aeabi_memcpy>
   25a48:	9802      	ldr	r0, [sp, #8]
   25a4a:	7028      	strb	r0, [r5, #0]
   25a4c:	e7b9      	b.n	259c2 <_ZN20complex_dynamic_type3app17hd269de3460cf9f05E+0xa2>
   25a4e:	46c0      	nop			@ (mov r8, r8)
   25a50:	000015f1 	.word	0x000015f1

00025a54 <_ZN20complex_dynamic_type3app17hd5e6e0f431b1eaf3E>:
   25a54:	b5f0      	push	{r4, r5, r6, r7, lr}
   25a56:	af03      	add	r7, sp, #12
   25a58:	b0ad      	sub	sp, #180	@ 0xb4
   25a5a:	9004      	str	r0, [sp, #16]
   25a5c:	a805      	add	r0, sp, #20
   25a5e:	2402      	movs	r4, #2
   25a60:	7004      	strb	r4, [r0, #0]
   25a62:	1c46      	adds	r6, r0, #1
   25a64:	2246      	movs	r2, #70	@ 0x46
   25a66:	9203      	str	r2, [sp, #12]
   25a68:	4630      	mov	r0, r6
   25a6a:	f004 fd85 	bl	2a578 <__aeabi_memcpy>
   25a6e:	ad17      	add	r5, sp, #92	@ 0x5c
   25a70:	1c68      	adds	r0, r5, #1
   25a72:	2156      	movs	r1, #86	@ 0x56
   25a74:	9002      	str	r0, [sp, #8]
   25a76:	f004 fbbf 	bl	2a1f8 <__aeabi_memclr>
   25a7a:	9401      	str	r4, [sp, #4]
   25a7c:	702c      	strb	r4, [r5, #0]
   25a7e:	483e      	ldr	r0, [pc, #248]	@ (25b78 <_ZN20complex_dynamic_type3app17hd5e6e0f431b1eaf3E+0x124>)
   25a80:	2107      	movs	r1, #7
   25a82:	4632      	mov	r2, r6
   25a84:	9b03      	ldr	r3, [sp, #12]
   25a86:	df04      	svc	4
   25a88:	2802      	cmp	r0, #2
   25a8a:	d104      	bne.n	25a96 <_ZN20complex_dynamic_type3app17hd5e6e0f431b1eaf3E+0x42>
   25a8c:	2001      	movs	r0, #1
   25a8e:	9a04      	ldr	r2, [sp, #16]
   25a90:	7010      	strb	r0, [r2, #0]
   25a92:	6051      	str	r1, [r2, #4]
   25a94:	e02c      	b.n	25af0 <_ZN20complex_dynamic_type3app17hd5e6e0f431b1eaf3E+0x9c>
   25a96:	9d04      	ldr	r5, [sp, #16]
   25a98:	a805      	add	r0, sp, #20
   25a9a:	2104      	movs	r1, #4
   25a9c:	7001      	strb	r1, [r0, #0]
   25a9e:	4836      	ldr	r0, [pc, #216]	@ (25b78 <_ZN20complex_dynamic_type3app17hd5e6e0f431b1eaf3E+0x124>)
   25aa0:	2403      	movs	r4, #3
   25aa2:	2356      	movs	r3, #86	@ 0x56
   25aa4:	4621      	mov	r1, r4
   25aa6:	9a02      	ldr	r2, [sp, #8]
   25aa8:	df03      	svc	3
   25aaa:	2802      	cmp	r0, #2
   25aac:	d10e      	bne.n	25acc <_ZN20complex_dynamic_type3app17hd5e6e0f431b1eaf3E+0x78>
   25aae:	2001      	movs	r0, #1
   25ab0:	7028      	strb	r0, [r5, #0]
   25ab2:	6069      	str	r1, [r5, #4]
   25ab4:	a817      	add	r0, sp, #92	@ 0x5c
   25ab6:	7800      	ldrb	r0, [r0, #0]
   25ab8:	2802      	cmp	r0, #2
   25aba:	d019      	beq.n	25af0 <_ZN20complex_dynamic_type3app17hd5e6e0f431b1eaf3E+0x9c>
   25abc:	2803      	cmp	r0, #3
   25abe:	d012      	beq.n	25ae6 <_ZN20complex_dynamic_type3app17hd5e6e0f431b1eaf3E+0x92>
   25ac0:	482d      	ldr	r0, [pc, #180]	@ (25b78 <_ZN20complex_dynamic_type3app17hd5e6e0f431b1eaf3E+0x124>)
   25ac2:	2103      	movs	r1, #3
   25ac4:	2200      	movs	r2, #0
   25ac6:	4613      	mov	r3, r2
   25ac8:	df04      	svc	4
   25aca:	e011      	b.n	25af0 <_ZN20complex_dynamic_type3app17hd5e6e0f431b1eaf3E+0x9c>
   25acc:	a817      	add	r0, sp, #92	@ 0x5c
   25ace:	7004      	strb	r4, [r0, #0]
   25ad0:	4829      	ldr	r0, [pc, #164]	@ (25b78 <_ZN20complex_dynamic_type3app17hd5e6e0f431b1eaf3E+0x124>)
   25ad2:	2107      	movs	r1, #7
   25ad4:	2600      	movs	r6, #0
   25ad6:	4622      	mov	r2, r4
   25ad8:	4633      	mov	r3, r6
   25ada:	df02      	svc	2
   25adc:	287f      	cmp	r0, #127	@ 0x7f
   25ade:	d816      	bhi.n	25b0e <_ZN20complex_dynamic_type3app17hd5e6e0f431b1eaf3E+0xba>
   25ae0:	2001      	movs	r0, #1
   25ae2:	7028      	strb	r0, [r5, #0]
   25ae4:	6069      	str	r1, [r5, #4]
   25ae6:	4824      	ldr	r0, [pc, #144]	@ (25b78 <_ZN20complex_dynamic_type3app17hd5e6e0f431b1eaf3E+0x124>)
   25ae8:	2103      	movs	r1, #3
   25aea:	2200      	movs	r2, #0
   25aec:	4613      	mov	r3, r2
   25aee:	df03      	svc	3
   25af0:	a805      	add	r0, sp, #20
   25af2:	7804      	ldrb	r4, [r0, #0]
   25af4:	2c02      	cmp	r4, #2
   25af6:	d008      	beq.n	25b0a <_ZN20complex_dynamic_type3app17hd5e6e0f431b1eaf3E+0xb6>
   25af8:	481f      	ldr	r0, [pc, #124]	@ (25b78 <_ZN20complex_dynamic_type3app17hd5e6e0f431b1eaf3E+0x124>)
   25afa:	2107      	movs	r1, #7
   25afc:	2200      	movs	r2, #0
   25afe:	4613      	mov	r3, r2
   25b00:	2c03      	cmp	r4, #3
   25b02:	d101      	bne.n	25b08 <_ZN20complex_dynamic_type3app17hd5e6e0f431b1eaf3E+0xb4>
   25b04:	df03      	svc	3
   25b06:	e000      	b.n	25b0a <_ZN20complex_dynamic_type3app17hd5e6e0f431b1eaf3E+0xb6>
   25b08:	df04      	svc	4
   25b0a:	b02d      	add	sp, #180	@ 0xb4
   25b0c:	bdf0      	pop	{r4, r5, r6, r7, pc}
   25b0e:	a805      	add	r0, sp, #20
   25b10:	7800      	ldrb	r0, [r0, #0]
   25b12:	2802      	cmp	r0, #2
   25b14:	d01c      	beq.n	25b50 <_ZN20complex_dynamic_type3app17hd5e6e0f431b1eaf3E+0xfc>
   25b16:	2803      	cmp	r0, #3
   25b18:	d105      	bne.n	25b26 <_ZN20complex_dynamic_type3app17hd5e6e0f431b1eaf3E+0xd2>
   25b1a:	4817      	ldr	r0, [pc, #92]	@ (25b78 <_ZN20complex_dynamic_type3app17hd5e6e0f431b1eaf3E+0x124>)
   25b1c:	2107      	movs	r1, #7
   25b1e:	2200      	movs	r2, #0
   25b20:	4613      	mov	r3, r2
   25b22:	df03      	svc	3
   25b24:	e004      	b.n	25b30 <_ZN20complex_dynamic_type3app17hd5e6e0f431b1eaf3E+0xdc>
   25b26:	4814      	ldr	r0, [pc, #80]	@ (25b78 <_ZN20complex_dynamic_type3app17hd5e6e0f431b1eaf3E+0x124>)
   25b28:	2107      	movs	r1, #7
   25b2a:	2200      	movs	r2, #0
   25b2c:	4613      	mov	r3, r2
   25b2e:	df04      	svc	4
   25b30:	9901      	ldr	r1, [sp, #4]
   25b32:	a805      	add	r0, sp, #20
   25b34:	7001      	strb	r1, [r0, #0]
   25b36:	a817      	add	r0, sp, #92	@ 0x5c
   25b38:	7800      	ldrb	r0, [r0, #0]
   25b3a:	2803      	cmp	r0, #3
   25b3c:	d008      	beq.n	25b50 <_ZN20complex_dynamic_type3app17hd5e6e0f431b1eaf3E+0xfc>
   25b3e:	2802      	cmp	r0, #2
   25b40:	d10c      	bne.n	25b5c <_ZN20complex_dynamic_type3app17hd5e6e0f431b1eaf3E+0x108>
   25b42:	1c68      	adds	r0, r5, #1
   25b44:	2256      	movs	r2, #86	@ 0x56
   25b46:	9902      	ldr	r1, [sp, #8]
   25b48:	f004 fd16 	bl	2a578 <__aeabi_memcpy>
   25b4c:	702e      	strb	r6, [r5, #0]
   25b4e:	e7dc      	b.n	25b0a <_ZN20complex_dynamic_type3app17hd5e6e0f431b1eaf3E+0xb6>
   25b50:	4809      	ldr	r0, [pc, #36]	@ (25b78 <_ZN20complex_dynamic_type3app17hd5e6e0f431b1eaf3E+0x124>)
   25b52:	2103      	movs	r1, #3
   25b54:	2200      	movs	r2, #0
   25b56:	4613      	mov	r3, r2
   25b58:	df03      	svc	3
   25b5a:	e004      	b.n	25b66 <_ZN20complex_dynamic_type3app17hd5e6e0f431b1eaf3E+0x112>
   25b5c:	4806      	ldr	r0, [pc, #24]	@ (25b78 <_ZN20complex_dynamic_type3app17hd5e6e0f431b1eaf3E+0x124>)
   25b5e:	2103      	movs	r1, #3
   25b60:	2200      	movs	r2, #0
   25b62:	4613      	mov	r3, r2
   25b64:	df04      	svc	4
   25b66:	a805      	add	r0, sp, #20
   25b68:	7804      	ldrb	r4, [r0, #0]
   25b6a:	1c68      	adds	r0, r5, #1
   25b6c:	2256      	movs	r2, #86	@ 0x56
   25b6e:	9902      	ldr	r1, [sp, #8]
   25b70:	f004 fd02 	bl	2a578 <__aeabi_memcpy>
   25b74:	702e      	strb	r6, [r5, #0]
   25b76:	e7bd      	b.n	25af4 <_ZN20complex_dynamic_type3app17hd5e6e0f431b1eaf3E+0xa0>
   25b78:	00001e50 	.word	0x00001e50

00025b7c <_ZN20complex_dynamic_type3app17hd8e638bafceaaf27E>:
   25b7c:	b5f0      	push	{r4, r5, r6, r7, lr}
   25b7e:	af03      	add	r7, sp, #12
   25b80:	b09b      	sub	sp, #108	@ 0x6c
   25b82:	9004      	str	r0, [sp, #16]
   25b84:	a805      	add	r0, sp, #20
   25b86:	2402      	movs	r4, #2
   25b88:	7004      	strb	r4, [r0, #0]
   25b8a:	1c46      	adds	r6, r0, #1
   25b8c:	222c      	movs	r2, #44	@ 0x2c
   25b8e:	9203      	str	r2, [sp, #12]
   25b90:	4630      	mov	r0, r6
   25b92:	f004 fcf1 	bl	2a578 <__aeabi_memcpy>
   25b96:	ad11      	add	r5, sp, #68	@ 0x44
   25b98:	1c68      	adds	r0, r5, #1
   25b9a:	2127      	movs	r1, #39	@ 0x27
   25b9c:	9002      	str	r0, [sp, #8]
   25b9e:	f004 fb2b 	bl	2a1f8 <__aeabi_memclr>
   25ba2:	9401      	str	r4, [sp, #4]
   25ba4:	702c      	strb	r4, [r5, #0]
   25ba6:	483f      	ldr	r0, [pc, #252]	@ (25ca4 <_ZN20complex_dynamic_type3app17hd8e638bafceaaf27E+0x128>)
   25ba8:	2504      	movs	r5, #4
   25baa:	4629      	mov	r1, r5
   25bac:	4632      	mov	r2, r6
   25bae:	9b03      	ldr	r3, [sp, #12]
   25bb0:	df04      	svc	4
   25bb2:	2802      	cmp	r0, #2
   25bb4:	d104      	bne.n	25bc0 <_ZN20complex_dynamic_type3app17hd8e638bafceaaf27E+0x44>
   25bb6:	2001      	movs	r0, #1
   25bb8:	9a04      	ldr	r2, [sp, #16]
   25bba:	7010      	strb	r0, [r2, #0]
   25bbc:	6051      	str	r1, [r2, #4]
   25bbe:	e02b      	b.n	25c18 <_ZN20complex_dynamic_type3app17hd8e638bafceaaf27E+0x9c>
   25bc0:	9e04      	ldr	r6, [sp, #16]
   25bc2:	a805      	add	r0, sp, #20
   25bc4:	7005      	strb	r5, [r0, #0]
   25bc6:	4837      	ldr	r0, [pc, #220]	@ (25ca4 <_ZN20complex_dynamic_type3app17hd8e638bafceaaf27E+0x128>)
   25bc8:	2403      	movs	r4, #3
   25bca:	2327      	movs	r3, #39	@ 0x27
   25bcc:	4621      	mov	r1, r4
   25bce:	9a02      	ldr	r2, [sp, #8]
   25bd0:	df03      	svc	3
   25bd2:	2802      	cmp	r0, #2
   25bd4:	d10e      	bne.n	25bf4 <_ZN20complex_dynamic_type3app17hd8e638bafceaaf27E+0x78>
   25bd6:	2001      	movs	r0, #1
   25bd8:	7030      	strb	r0, [r6, #0]
   25bda:	6071      	str	r1, [r6, #4]
   25bdc:	a811      	add	r0, sp, #68	@ 0x44
   25bde:	7800      	ldrb	r0, [r0, #0]
   25be0:	2802      	cmp	r0, #2
   25be2:	d019      	beq.n	25c18 <_ZN20complex_dynamic_type3app17hd8e638bafceaaf27E+0x9c>
   25be4:	2803      	cmp	r0, #3
   25be6:	d012      	beq.n	25c0e <_ZN20complex_dynamic_type3app17hd8e638bafceaaf27E+0x92>
   25be8:	482e      	ldr	r0, [pc, #184]	@ (25ca4 <_ZN20complex_dynamic_type3app17hd8e638bafceaaf27E+0x128>)
   25bea:	2103      	movs	r1, #3
   25bec:	2200      	movs	r2, #0
   25bee:	4613      	mov	r3, r2
   25bf0:	df04      	svc	4
   25bf2:	e011      	b.n	25c18 <_ZN20complex_dynamic_type3app17hd8e638bafceaaf27E+0x9c>
   25bf4:	a811      	add	r0, sp, #68	@ 0x44
   25bf6:	7004      	strb	r4, [r0, #0]
   25bf8:	482a      	ldr	r0, [pc, #168]	@ (25ca4 <_ZN20complex_dynamic_type3app17hd8e638bafceaaf27E+0x128>)
   25bfa:	2104      	movs	r1, #4
   25bfc:	2300      	movs	r3, #0
   25bfe:	4622      	mov	r2, r4
   25c00:	9303      	str	r3, [sp, #12]
   25c02:	df02      	svc	2
   25c04:	287f      	cmp	r0, #127	@ 0x7f
   25c06:	d816      	bhi.n	25c36 <_ZN20complex_dynamic_type3app17hd8e638bafceaaf27E+0xba>
   25c08:	2001      	movs	r0, #1
   25c0a:	7030      	strb	r0, [r6, #0]
   25c0c:	6071      	str	r1, [r6, #4]
   25c0e:	4825      	ldr	r0, [pc, #148]	@ (25ca4 <_ZN20complex_dynamic_type3app17hd8e638bafceaaf27E+0x128>)
   25c10:	2103      	movs	r1, #3
   25c12:	2200      	movs	r2, #0
   25c14:	4613      	mov	r3, r2
   25c16:	df03      	svc	3
   25c18:	a805      	add	r0, sp, #20
   25c1a:	7804      	ldrb	r4, [r0, #0]
   25c1c:	2c02      	cmp	r4, #2
   25c1e:	d008      	beq.n	25c32 <_ZN20complex_dynamic_type3app17hd8e638bafceaaf27E+0xb6>
   25c20:	4820      	ldr	r0, [pc, #128]	@ (25ca4 <_ZN20complex_dynamic_type3app17hd8e638bafceaaf27E+0x128>)
   25c22:	2104      	movs	r1, #4
   25c24:	2200      	movs	r2, #0
   25c26:	4613      	mov	r3, r2
   25c28:	2c03      	cmp	r4, #3
   25c2a:	d101      	bne.n	25c30 <_ZN20complex_dynamic_type3app17hd8e638bafceaaf27E+0xb4>
   25c2c:	df03      	svc	3
   25c2e:	e000      	b.n	25c32 <_ZN20complex_dynamic_type3app17hd8e638bafceaaf27E+0xb6>
   25c30:	df04      	svc	4
   25c32:	b01b      	add	sp, #108	@ 0x6c
   25c34:	bdf0      	pop	{r4, r5, r6, r7, pc}
   25c36:	a805      	add	r0, sp, #20
   25c38:	7800      	ldrb	r0, [r0, #0]
   25c3a:	2802      	cmp	r0, #2
   25c3c:	d01d      	beq.n	25c7a <_ZN20complex_dynamic_type3app17hd8e638bafceaaf27E+0xfe>
   25c3e:	2803      	cmp	r0, #3
   25c40:	d105      	bne.n	25c4e <_ZN20complex_dynamic_type3app17hd8e638bafceaaf27E+0xd2>
   25c42:	4818      	ldr	r0, [pc, #96]	@ (25ca4 <_ZN20complex_dynamic_type3app17hd8e638bafceaaf27E+0x128>)
   25c44:	2104      	movs	r1, #4
   25c46:	2200      	movs	r2, #0
   25c48:	4613      	mov	r3, r2
   25c4a:	df03      	svc	3
   25c4c:	e004      	b.n	25c58 <_ZN20complex_dynamic_type3app17hd8e638bafceaaf27E+0xdc>
   25c4e:	4815      	ldr	r0, [pc, #84]	@ (25ca4 <_ZN20complex_dynamic_type3app17hd8e638bafceaaf27E+0x128>)
   25c50:	2104      	movs	r1, #4
   25c52:	2200      	movs	r2, #0
   25c54:	4613      	mov	r3, r2
   25c56:	df04      	svc	4
   25c58:	9901      	ldr	r1, [sp, #4]
   25c5a:	a805      	add	r0, sp, #20
   25c5c:	7001      	strb	r1, [r0, #0]
   25c5e:	a811      	add	r0, sp, #68	@ 0x44
   25c60:	7800      	ldrb	r0, [r0, #0]
   25c62:	2803      	cmp	r0, #3
   25c64:	d009      	beq.n	25c7a <_ZN20complex_dynamic_type3app17hd8e638bafceaaf27E+0xfe>
   25c66:	2802      	cmp	r0, #2
   25c68:	d10d      	bne.n	25c86 <_ZN20complex_dynamic_type3app17hd8e638bafceaaf27E+0x10a>
   25c6a:	1c70      	adds	r0, r6, #1
   25c6c:	2227      	movs	r2, #39	@ 0x27
   25c6e:	9902      	ldr	r1, [sp, #8]
   25c70:	f004 fc82 	bl	2a578 <__aeabi_memcpy>
   25c74:	9803      	ldr	r0, [sp, #12]
   25c76:	7030      	strb	r0, [r6, #0]
   25c78:	e7db      	b.n	25c32 <_ZN20complex_dynamic_type3app17hd8e638bafceaaf27E+0xb6>
   25c7a:	480a      	ldr	r0, [pc, #40]	@ (25ca4 <_ZN20complex_dynamic_type3app17hd8e638bafceaaf27E+0x128>)
   25c7c:	2103      	movs	r1, #3
   25c7e:	2200      	movs	r2, #0
   25c80:	4613      	mov	r3, r2
   25c82:	df03      	svc	3
   25c84:	e004      	b.n	25c90 <_ZN20complex_dynamic_type3app17hd8e638bafceaaf27E+0x114>
   25c86:	4807      	ldr	r0, [pc, #28]	@ (25ca4 <_ZN20complex_dynamic_type3app17hd8e638bafceaaf27E+0x128>)
   25c88:	2103      	movs	r1, #3
   25c8a:	2200      	movs	r2, #0
   25c8c:	4613      	mov	r3, r2
   25c8e:	df04      	svc	4
   25c90:	a805      	add	r0, sp, #20
   25c92:	7804      	ldrb	r4, [r0, #0]
   25c94:	1c70      	adds	r0, r6, #1
   25c96:	2227      	movs	r2, #39	@ 0x27
   25c98:	9902      	ldr	r1, [sp, #8]
   25c9a:	f004 fc6d 	bl	2a578 <__aeabi_memcpy>
   25c9e:	9803      	ldr	r0, [sp, #12]
   25ca0:	7030      	strb	r0, [r6, #0]
   25ca2:	e7bb      	b.n	25c1c <_ZN20complex_dynamic_type3app17hd8e638bafceaaf27E+0xa0>
   25ca4:	000011b5 	.word	0x000011b5

00025ca8 <_ZN20complex_dynamic_type3app17hd9f48d37549c9935E>:
   25ca8:	b5f0      	push	{r4, r5, r6, r7, lr}
   25caa:	af03      	add	r7, sp, #12
   25cac:	b09f      	sub	sp, #124	@ 0x7c
   25cae:	9002      	str	r0, [sp, #8]
   25cb0:	a803      	add	r0, sp, #12
   25cb2:	2502      	movs	r5, #2
   25cb4:	7005      	strb	r5, [r0, #0]
   25cb6:	1c46      	adds	r6, r0, #1
   25cb8:	2236      	movs	r2, #54	@ 0x36
   25cba:	9201      	str	r2, [sp, #4]
   25cbc:	4630      	mov	r0, r6
   25cbe:	f004 fc5b 	bl	2a578 <__aeabi_memcpy>
   25cc2:	ac11      	add	r4, sp, #68	@ 0x44
   25cc4:	1c60      	adds	r0, r4, #1
   25cc6:	2134      	movs	r1, #52	@ 0x34
   25cc8:	9000      	str	r0, [sp, #0]
   25cca:	f004 fa95 	bl	2a1f8 <__aeabi_memclr>
   25cce:	7025      	strb	r5, [r4, #0]
   25cd0:	4841      	ldr	r0, [pc, #260]	@ (25dd8 <_ZN20complex_dynamic_type3app17hd9f48d37549c9935E+0x130>)
   25cd2:	2504      	movs	r5, #4
   25cd4:	4629      	mov	r1, r5
   25cd6:	4632      	mov	r2, r6
   25cd8:	9b01      	ldr	r3, [sp, #4]
   25cda:	df04      	svc	4
   25cdc:	2802      	cmp	r0, #2
   25cde:	d104      	bne.n	25cea <_ZN20complex_dynamic_type3app17hd9f48d37549c9935E+0x42>
   25ce0:	2001      	movs	r0, #1
   25ce2:	9a02      	ldr	r2, [sp, #8]
   25ce4:	7010      	strb	r0, [r2, #0]
   25ce6:	6051      	str	r1, [r2, #4]
   25ce8:	e02d      	b.n	25d46 <_ZN20complex_dynamic_type3app17hd9f48d37549c9935E+0x9e>
   25cea:	9c02      	ldr	r4, [sp, #8]
   25cec:	a803      	add	r0, sp, #12
   25cee:	7005      	strb	r5, [r0, #0]
   25cf0:	4839      	ldr	r0, [pc, #228]	@ (25dd8 <_ZN20complex_dynamic_type3app17hd9f48d37549c9935E+0x130>)
   25cf2:	2102      	movs	r1, #2
   25cf4:	2334      	movs	r3, #52	@ 0x34
   25cf6:	9d00      	ldr	r5, [sp, #0]
   25cf8:	462a      	mov	r2, r5
   25cfa:	df03      	svc	3
   25cfc:	2802      	cmp	r0, #2
   25cfe:	d10e      	bne.n	25d1e <_ZN20complex_dynamic_type3app17hd9f48d37549c9935E+0x76>
   25d00:	2001      	movs	r0, #1
   25d02:	7020      	strb	r0, [r4, #0]
   25d04:	6061      	str	r1, [r4, #4]
   25d06:	a811      	add	r0, sp, #68	@ 0x44
   25d08:	7800      	ldrb	r0, [r0, #0]
   25d0a:	2802      	cmp	r0, #2
   25d0c:	d01b      	beq.n	25d46 <_ZN20complex_dynamic_type3app17hd9f48d37549c9935E+0x9e>
   25d0e:	2803      	cmp	r0, #3
   25d10:	d014      	beq.n	25d3c <_ZN20complex_dynamic_type3app17hd9f48d37549c9935E+0x94>
   25d12:	4831      	ldr	r0, [pc, #196]	@ (25dd8 <_ZN20complex_dynamic_type3app17hd9f48d37549c9935E+0x130>)
   25d14:	2102      	movs	r1, #2
   25d16:	2200      	movs	r2, #0
   25d18:	4613      	mov	r3, r2
   25d1a:	df04      	svc	4
   25d1c:	e013      	b.n	25d46 <_ZN20complex_dynamic_type3app17hd9f48d37549c9935E+0x9e>
   25d1e:	a811      	add	r0, sp, #68	@ 0x44
   25d20:	2103      	movs	r1, #3
   25d22:	7001      	strb	r1, [r0, #0]
   25d24:	482c      	ldr	r0, [pc, #176]	@ (25dd8 <_ZN20complex_dynamic_type3app17hd9f48d37549c9935E+0x130>)
   25d26:	2104      	movs	r1, #4
   25d28:	2602      	movs	r6, #2
   25d2a:	2300      	movs	r3, #0
   25d2c:	4632      	mov	r2, r6
   25d2e:	9301      	str	r3, [sp, #4]
   25d30:	df02      	svc	2
   25d32:	287f      	cmp	r0, #127	@ 0x7f
   25d34:	d816      	bhi.n	25d64 <_ZN20complex_dynamic_type3app17hd9f48d37549c9935E+0xbc>
   25d36:	2001      	movs	r0, #1
   25d38:	7020      	strb	r0, [r4, #0]
   25d3a:	6061      	str	r1, [r4, #4]
   25d3c:	4826      	ldr	r0, [pc, #152]	@ (25dd8 <_ZN20complex_dynamic_type3app17hd9f48d37549c9935E+0x130>)
   25d3e:	2102      	movs	r1, #2
   25d40:	2200      	movs	r2, #0
   25d42:	4613      	mov	r3, r2
   25d44:	df03      	svc	3
   25d46:	a803      	add	r0, sp, #12
   25d48:	7804      	ldrb	r4, [r0, #0]
   25d4a:	2c02      	cmp	r4, #2
   25d4c:	d008      	beq.n	25d60 <_ZN20complex_dynamic_type3app17hd9f48d37549c9935E+0xb8>
   25d4e:	4822      	ldr	r0, [pc, #136]	@ (25dd8 <_ZN20complex_dynamic_type3app17hd9f48d37549c9935E+0x130>)
   25d50:	2104      	movs	r1, #4
   25d52:	2200      	movs	r2, #0
   25d54:	4613      	mov	r3, r2
   25d56:	2c03      	cmp	r4, #3
   25d58:	d101      	bne.n	25d5e <_ZN20complex_dynamic_type3app17hd9f48d37549c9935E+0xb6>
   25d5a:	df03      	svc	3
   25d5c:	e000      	b.n	25d60 <_ZN20complex_dynamic_type3app17hd9f48d37549c9935E+0xb8>
   25d5e:	df04      	svc	4
   25d60:	b01f      	add	sp, #124	@ 0x7c
   25d62:	bdf0      	pop	{r4, r5, r6, r7, pc}
   25d64:	a803      	add	r0, sp, #12
   25d66:	7800      	ldrb	r0, [r0, #0]
   25d68:	2802      	cmp	r0, #2
   25d6a:	d01c      	beq.n	25da6 <_ZN20complex_dynamic_type3app17hd9f48d37549c9935E+0xfe>
   25d6c:	2803      	cmp	r0, #3
   25d6e:	d105      	bne.n	25d7c <_ZN20complex_dynamic_type3app17hd9f48d37549c9935E+0xd4>
   25d70:	4819      	ldr	r0, [pc, #100]	@ (25dd8 <_ZN20complex_dynamic_type3app17hd9f48d37549c9935E+0x130>)
   25d72:	2104      	movs	r1, #4
   25d74:	2200      	movs	r2, #0
   25d76:	4613      	mov	r3, r2
   25d78:	df03      	svc	3
   25d7a:	e004      	b.n	25d86 <_ZN20complex_dynamic_type3app17hd9f48d37549c9935E+0xde>
   25d7c:	4816      	ldr	r0, [pc, #88]	@ (25dd8 <_ZN20complex_dynamic_type3app17hd9f48d37549c9935E+0x130>)
   25d7e:	2104      	movs	r1, #4
   25d80:	2200      	movs	r2, #0
   25d82:	4613      	mov	r3, r2
   25d84:	df04      	svc	4
   25d86:	a803      	add	r0, sp, #12
   25d88:	7006      	strb	r6, [r0, #0]
   25d8a:	a811      	add	r0, sp, #68	@ 0x44
   25d8c:	7800      	ldrb	r0, [r0, #0]
   25d8e:	2803      	cmp	r0, #3
   25d90:	d009      	beq.n	25da6 <_ZN20complex_dynamic_type3app17hd9f48d37549c9935E+0xfe>
   25d92:	2802      	cmp	r0, #2
   25d94:	d10e      	bne.n	25db4 <_ZN20complex_dynamic_type3app17hd9f48d37549c9935E+0x10c>
   25d96:	1c60      	adds	r0, r4, #1
   25d98:	2234      	movs	r2, #52	@ 0x34
   25d9a:	4629      	mov	r1, r5
   25d9c:	f004 fbec 	bl	2a578 <__aeabi_memcpy>
   25da0:	9801      	ldr	r0, [sp, #4]
   25da2:	7020      	strb	r0, [r4, #0]
   25da4:	e7dc      	b.n	25d60 <_ZN20complex_dynamic_type3app17hd9f48d37549c9935E+0xb8>
   25da6:	462e      	mov	r6, r5
   25da8:	480b      	ldr	r0, [pc, #44]	@ (25dd8 <_ZN20complex_dynamic_type3app17hd9f48d37549c9935E+0x130>)
   25daa:	2102      	movs	r1, #2
   25dac:	2200      	movs	r2, #0
   25dae:	4613      	mov	r3, r2
   25db0:	df03      	svc	3
   25db2:	e005      	b.n	25dc0 <_ZN20complex_dynamic_type3app17hd9f48d37549c9935E+0x118>
   25db4:	462e      	mov	r6, r5
   25db6:	4808      	ldr	r0, [pc, #32]	@ (25dd8 <_ZN20complex_dynamic_type3app17hd9f48d37549c9935E+0x130>)
   25db8:	2102      	movs	r1, #2
   25dba:	2200      	movs	r2, #0
   25dbc:	4613      	mov	r3, r2
   25dbe:	df04      	svc	4
   25dc0:	4625      	mov	r5, r4
   25dc2:	a803      	add	r0, sp, #12
   25dc4:	7804      	ldrb	r4, [r0, #0]
   25dc6:	1c68      	adds	r0, r5, #1
   25dc8:	2234      	movs	r2, #52	@ 0x34
   25dca:	4631      	mov	r1, r6
   25dcc:	f004 fbd4 	bl	2a578 <__aeabi_memcpy>
   25dd0:	9801      	ldr	r0, [sp, #4]
   25dd2:	7028      	strb	r0, [r5, #0]
   25dd4:	e7b9      	b.n	25d4a <_ZN20complex_dynamic_type3app17hd9f48d37549c9935E+0xa2>
   25dd6:	46c0      	nop			@ (mov r8, r8)
   25dd8:	000023c6 	.word	0x000023c6

00025ddc <_ZN20complex_dynamic_type3app17hdcdeeef77c5111fbE>:
   25ddc:	b5f0      	push	{r4, r5, r6, r7, lr}
   25dde:	af03      	add	r7, sp, #12
   25de0:	b0a1      	sub	sp, #132	@ 0x84
   25de2:	9004      	str	r0, [sp, #16]
   25de4:	a805      	add	r0, sp, #20
   25de6:	2402      	movs	r4, #2
   25de8:	7004      	strb	r4, [r0, #0]
   25dea:	1c46      	adds	r6, r0, #1
   25dec:	221a      	movs	r2, #26
   25dee:	9203      	str	r2, [sp, #12]
   25df0:	4630      	mov	r0, r6
   25df2:	f004 fbc1 	bl	2a578 <__aeabi_memcpy>
   25df6:	ad0c      	add	r5, sp, #48	@ 0x30
   25df8:	1c68      	adds	r0, r5, #1
   25dfa:	2150      	movs	r1, #80	@ 0x50
   25dfc:	9002      	str	r0, [sp, #8]
   25dfe:	f004 f9fb 	bl	2a1f8 <__aeabi_memclr>
   25e02:	9401      	str	r4, [sp, #4]
   25e04:	702c      	strb	r4, [r5, #0]
   25e06:	483e      	ldr	r0, [pc, #248]	@ (25f00 <_ZN20complex_dynamic_type3app17hdcdeeef77c5111fbE+0x124>)
   25e08:	2107      	movs	r1, #7
   25e0a:	4632      	mov	r2, r6
   25e0c:	9b03      	ldr	r3, [sp, #12]
   25e0e:	df04      	svc	4
   25e10:	2802      	cmp	r0, #2
   25e12:	d104      	bne.n	25e1e <_ZN20complex_dynamic_type3app17hdcdeeef77c5111fbE+0x42>
   25e14:	2001      	movs	r0, #1
   25e16:	9a04      	ldr	r2, [sp, #16]
   25e18:	7010      	strb	r0, [r2, #0]
   25e1a:	6051      	str	r1, [r2, #4]
   25e1c:	e02c      	b.n	25e78 <_ZN20complex_dynamic_type3app17hdcdeeef77c5111fbE+0x9c>
   25e1e:	9d04      	ldr	r5, [sp, #16]
   25e20:	a805      	add	r0, sp, #20
   25e22:	2104      	movs	r1, #4
   25e24:	7001      	strb	r1, [r0, #0]
   25e26:	4836      	ldr	r0, [pc, #216]	@ (25f00 <_ZN20complex_dynamic_type3app17hdcdeeef77c5111fbE+0x124>)
   25e28:	2350      	movs	r3, #80	@ 0x50
   25e2a:	9c02      	ldr	r4, [sp, #8]
   25e2c:	4622      	mov	r2, r4
   25e2e:	df03      	svc	3
   25e30:	2802      	cmp	r0, #2
   25e32:	d10e      	bne.n	25e52 <_ZN20complex_dynamic_type3app17hdcdeeef77c5111fbE+0x76>
   25e34:	2001      	movs	r0, #1
   25e36:	7028      	strb	r0, [r5, #0]
   25e38:	6069      	str	r1, [r5, #4]
   25e3a:	a80c      	add	r0, sp, #48	@ 0x30
   25e3c:	7800      	ldrb	r0, [r0, #0]
   25e3e:	2802      	cmp	r0, #2
   25e40:	d01a      	beq.n	25e78 <_ZN20complex_dynamic_type3app17hdcdeeef77c5111fbE+0x9c>
   25e42:	2803      	cmp	r0, #3
   25e44:	d013      	beq.n	25e6e <_ZN20complex_dynamic_type3app17hdcdeeef77c5111fbE+0x92>
   25e46:	482e      	ldr	r0, [pc, #184]	@ (25f00 <_ZN20complex_dynamic_type3app17hdcdeeef77c5111fbE+0x124>)
   25e48:	2104      	movs	r1, #4
   25e4a:	2200      	movs	r2, #0
   25e4c:	4613      	mov	r3, r2
   25e4e:	df04      	svc	4
   25e50:	e012      	b.n	25e78 <_ZN20complex_dynamic_type3app17hdcdeeef77c5111fbE+0x9c>
   25e52:	a80c      	add	r0, sp, #48	@ 0x30
   25e54:	2103      	movs	r1, #3
   25e56:	7001      	strb	r1, [r0, #0]
   25e58:	4829      	ldr	r0, [pc, #164]	@ (25f00 <_ZN20complex_dynamic_type3app17hdcdeeef77c5111fbE+0x124>)
   25e5a:	2107      	movs	r1, #7
   25e5c:	2204      	movs	r2, #4
   25e5e:	2600      	movs	r6, #0
   25e60:	4633      	mov	r3, r6
   25e62:	df02      	svc	2
   25e64:	287f      	cmp	r0, #127	@ 0x7f
   25e66:	d816      	bhi.n	25e96 <_ZN20complex_dynamic_type3app17hdcdeeef77c5111fbE+0xba>
   25e68:	2001      	movs	r0, #1
   25e6a:	7028      	strb	r0, [r5, #0]
   25e6c:	6069      	str	r1, [r5, #4]
   25e6e:	4824      	ldr	r0, [pc, #144]	@ (25f00 <_ZN20complex_dynamic_type3app17hdcdeeef77c5111fbE+0x124>)
   25e70:	2104      	movs	r1, #4
   25e72:	2200      	movs	r2, #0
   25e74:	4613      	mov	r3, r2
   25e76:	df03      	svc	3
   25e78:	a805      	add	r0, sp, #20
   25e7a:	7804      	ldrb	r4, [r0, #0]
   25e7c:	2c02      	cmp	r4, #2
   25e7e:	d008      	beq.n	25e92 <_ZN20complex_dynamic_type3app17hdcdeeef77c5111fbE+0xb6>
   25e80:	481f      	ldr	r0, [pc, #124]	@ (25f00 <_ZN20complex_dynamic_type3app17hdcdeeef77c5111fbE+0x124>)
   25e82:	2107      	movs	r1, #7
   25e84:	2200      	movs	r2, #0
   25e86:	4613      	mov	r3, r2
   25e88:	2c03      	cmp	r4, #3
   25e8a:	d101      	bne.n	25e90 <_ZN20complex_dynamic_type3app17hdcdeeef77c5111fbE+0xb4>
   25e8c:	df03      	svc	3
   25e8e:	e000      	b.n	25e92 <_ZN20complex_dynamic_type3app17hdcdeeef77c5111fbE+0xb6>
   25e90:	df04      	svc	4
   25e92:	b021      	add	sp, #132	@ 0x84
   25e94:	bdf0      	pop	{r4, r5, r6, r7, pc}
   25e96:	a805      	add	r0, sp, #20
   25e98:	7800      	ldrb	r0, [r0, #0]
   25e9a:	2802      	cmp	r0, #2
   25e9c:	d01c      	beq.n	25ed8 <_ZN20complex_dynamic_type3app17hdcdeeef77c5111fbE+0xfc>
   25e9e:	2803      	cmp	r0, #3
   25ea0:	d105      	bne.n	25eae <_ZN20complex_dynamic_type3app17hdcdeeef77c5111fbE+0xd2>
   25ea2:	4817      	ldr	r0, [pc, #92]	@ (25f00 <_ZN20complex_dynamic_type3app17hdcdeeef77c5111fbE+0x124>)
   25ea4:	2107      	movs	r1, #7
   25ea6:	2200      	movs	r2, #0
   25ea8:	4613      	mov	r3, r2
   25eaa:	df03      	svc	3
   25eac:	e004      	b.n	25eb8 <_ZN20complex_dynamic_type3app17hdcdeeef77c5111fbE+0xdc>
   25eae:	4814      	ldr	r0, [pc, #80]	@ (25f00 <_ZN20complex_dynamic_type3app17hdcdeeef77c5111fbE+0x124>)
   25eb0:	2107      	movs	r1, #7
   25eb2:	2200      	movs	r2, #0
   25eb4:	4613      	mov	r3, r2
   25eb6:	df04      	svc	4
   25eb8:	a805      	add	r0, sp, #20
   25eba:	9901      	ldr	r1, [sp, #4]
   25ebc:	7001      	strb	r1, [r0, #0]
   25ebe:	a80c      	add	r0, sp, #48	@ 0x30
   25ec0:	7800      	ldrb	r0, [r0, #0]
   25ec2:	2803      	cmp	r0, #3
   25ec4:	d008      	beq.n	25ed8 <_ZN20complex_dynamic_type3app17hdcdeeef77c5111fbE+0xfc>
   25ec6:	2802      	cmp	r0, #2
   25ec8:	d10c      	bne.n	25ee4 <_ZN20complex_dynamic_type3app17hdcdeeef77c5111fbE+0x108>
   25eca:	1c68      	adds	r0, r5, #1
   25ecc:	2250      	movs	r2, #80	@ 0x50
   25ece:	4621      	mov	r1, r4
   25ed0:	f004 fb52 	bl	2a578 <__aeabi_memcpy>
   25ed4:	702e      	strb	r6, [r5, #0]
   25ed6:	e7dc      	b.n	25e92 <_ZN20complex_dynamic_type3app17hdcdeeef77c5111fbE+0xb6>
   25ed8:	4809      	ldr	r0, [pc, #36]	@ (25f00 <_ZN20complex_dynamic_type3app17hdcdeeef77c5111fbE+0x124>)
   25eda:	2104      	movs	r1, #4
   25edc:	2200      	movs	r2, #0
   25ede:	4613      	mov	r3, r2
   25ee0:	df03      	svc	3
   25ee2:	e004      	b.n	25eee <_ZN20complex_dynamic_type3app17hdcdeeef77c5111fbE+0x112>
   25ee4:	4806      	ldr	r0, [pc, #24]	@ (25f00 <_ZN20complex_dynamic_type3app17hdcdeeef77c5111fbE+0x124>)
   25ee6:	2104      	movs	r1, #4
   25ee8:	2200      	movs	r2, #0
   25eea:	4613      	mov	r3, r2
   25eec:	df04      	svc	4
   25eee:	a805      	add	r0, sp, #20
   25ef0:	7804      	ldrb	r4, [r0, #0]
   25ef2:	1c68      	adds	r0, r5, #1
   25ef4:	2250      	movs	r2, #80	@ 0x50
   25ef6:	9902      	ldr	r1, [sp, #8]
   25ef8:	f004 fb3e 	bl	2a578 <__aeabi_memcpy>
   25efc:	702e      	strb	r6, [r5, #0]
   25efe:	e7bd      	b.n	25e7c <_ZN20complex_dynamic_type3app17hdcdeeef77c5111fbE+0xa0>
   25f00:	00000aee 	.word	0x00000aee

00025f04 <_ZN20complex_dynamic_type3app17he071a96d57b5e480E>:
   25f04:	b5f0      	push	{r4, r5, r6, r7, lr}
   25f06:	af03      	add	r7, sp, #12
   25f08:	b0a7      	sub	sp, #156	@ 0x9c
   25f0a:	9003      	str	r0, [sp, #12]
   25f0c:	a804      	add	r0, sp, #16
   25f0e:	2402      	movs	r4, #2
   25f10:	7004      	strb	r4, [r0, #0]
   25f12:	1c46      	adds	r6, r0, #1
   25f14:	224f      	movs	r2, #79	@ 0x4f
   25f16:	9202      	str	r2, [sp, #8]
   25f18:	4630      	mov	r0, r6
   25f1a:	f004 fb2d 	bl	2a578 <__aeabi_memcpy>
   25f1e:	ad18      	add	r5, sp, #96	@ 0x60
   25f20:	1c68      	adds	r0, r5, #1
   25f22:	213b      	movs	r1, #59	@ 0x3b
   25f24:	9001      	str	r0, [sp, #4]
   25f26:	f004 f967 	bl	2a1f8 <__aeabi_memclr>
   25f2a:	9400      	str	r4, [sp, #0]
   25f2c:	702c      	strb	r4, [r5, #0]
   25f2e:	483f      	ldr	r0, [pc, #252]	@ (2602c <_ZN20complex_dynamic_type3app17he071a96d57b5e480E+0x128>)
   25f30:	2108      	movs	r1, #8
   25f32:	4632      	mov	r2, r6
   25f34:	9b02      	ldr	r3, [sp, #8]
   25f36:	df04      	svc	4
   25f38:	2802      	cmp	r0, #2
   25f3a:	d104      	bne.n	25f46 <_ZN20complex_dynamic_type3app17he071a96d57b5e480E+0x42>
   25f3c:	2001      	movs	r0, #1
   25f3e:	9a03      	ldr	r2, [sp, #12]
   25f40:	7010      	strb	r0, [r2, #0]
   25f42:	6051      	str	r1, [r2, #4]
   25f44:	e02d      	b.n	25fa2 <_ZN20complex_dynamic_type3app17he071a96d57b5e480E+0x9e>
   25f46:	9d03      	ldr	r5, [sp, #12]
   25f48:	a804      	add	r0, sp, #16
   25f4a:	2104      	movs	r1, #4
   25f4c:	7001      	strb	r1, [r0, #0]
   25f4e:	4837      	ldr	r0, [pc, #220]	@ (2602c <_ZN20complex_dynamic_type3app17he071a96d57b5e480E+0x128>)
   25f50:	2105      	movs	r1, #5
   25f52:	233b      	movs	r3, #59	@ 0x3b
   25f54:	9c01      	ldr	r4, [sp, #4]
   25f56:	4622      	mov	r2, r4
   25f58:	df03      	svc	3
   25f5a:	2802      	cmp	r0, #2
   25f5c:	d10e      	bne.n	25f7c <_ZN20complex_dynamic_type3app17he071a96d57b5e480E+0x78>
   25f5e:	2001      	movs	r0, #1
   25f60:	7028      	strb	r0, [r5, #0]
   25f62:	6069      	str	r1, [r5, #4]
   25f64:	a818      	add	r0, sp, #96	@ 0x60
   25f66:	7800      	ldrb	r0, [r0, #0]
   25f68:	2802      	cmp	r0, #2
   25f6a:	d01a      	beq.n	25fa2 <_ZN20complex_dynamic_type3app17he071a96d57b5e480E+0x9e>
   25f6c:	2803      	cmp	r0, #3
   25f6e:	d013      	beq.n	25f98 <_ZN20complex_dynamic_type3app17he071a96d57b5e480E+0x94>
   25f70:	482e      	ldr	r0, [pc, #184]	@ (2602c <_ZN20complex_dynamic_type3app17he071a96d57b5e480E+0x128>)
   25f72:	2105      	movs	r1, #5
   25f74:	2200      	movs	r2, #0
   25f76:	4613      	mov	r3, r2
   25f78:	df04      	svc	4
   25f7a:	e012      	b.n	25fa2 <_ZN20complex_dynamic_type3app17he071a96d57b5e480E+0x9e>
   25f7c:	a818      	add	r0, sp, #96	@ 0x60
   25f7e:	2103      	movs	r1, #3
   25f80:	7001      	strb	r1, [r0, #0]
   25f82:	482a      	ldr	r0, [pc, #168]	@ (2602c <_ZN20complex_dynamic_type3app17he071a96d57b5e480E+0x128>)
   25f84:	2108      	movs	r1, #8
   25f86:	2205      	movs	r2, #5
   25f88:	2600      	movs	r6, #0
   25f8a:	4633      	mov	r3, r6
   25f8c:	df02      	svc	2
   25f8e:	287f      	cmp	r0, #127	@ 0x7f
   25f90:	d816      	bhi.n	25fc0 <_ZN20complex_dynamic_type3app17he071a96d57b5e480E+0xbc>
   25f92:	2001      	movs	r0, #1
   25f94:	7028      	strb	r0, [r5, #0]
   25f96:	6069      	str	r1, [r5, #4]
   25f98:	4824      	ldr	r0, [pc, #144]	@ (2602c <_ZN20complex_dynamic_type3app17he071a96d57b5e480E+0x128>)
   25f9a:	2105      	movs	r1, #5
   25f9c:	2200      	movs	r2, #0
   25f9e:	4613      	mov	r3, r2
   25fa0:	df03      	svc	3
   25fa2:	a804      	add	r0, sp, #16
   25fa4:	7804      	ldrb	r4, [r0, #0]
   25fa6:	2c02      	cmp	r4, #2
   25fa8:	d008      	beq.n	25fbc <_ZN20complex_dynamic_type3app17he071a96d57b5e480E+0xb8>
   25faa:	4820      	ldr	r0, [pc, #128]	@ (2602c <_ZN20complex_dynamic_type3app17he071a96d57b5e480E+0x128>)
   25fac:	2108      	movs	r1, #8
   25fae:	2200      	movs	r2, #0
   25fb0:	4613      	mov	r3, r2
   25fb2:	2c03      	cmp	r4, #3
   25fb4:	d101      	bne.n	25fba <_ZN20complex_dynamic_type3app17he071a96d57b5e480E+0xb6>
   25fb6:	df03      	svc	3
   25fb8:	e000      	b.n	25fbc <_ZN20complex_dynamic_type3app17he071a96d57b5e480E+0xb8>
   25fba:	df04      	svc	4
   25fbc:	b027      	add	sp, #156	@ 0x9c
   25fbe:	bdf0      	pop	{r4, r5, r6, r7, pc}
   25fc0:	a804      	add	r0, sp, #16
   25fc2:	7800      	ldrb	r0, [r0, #0]
   25fc4:	2802      	cmp	r0, #2
   25fc6:	d01c      	beq.n	26002 <_ZN20complex_dynamic_type3app17he071a96d57b5e480E+0xfe>
   25fc8:	2803      	cmp	r0, #3
   25fca:	d105      	bne.n	25fd8 <_ZN20complex_dynamic_type3app17he071a96d57b5e480E+0xd4>
   25fcc:	4817      	ldr	r0, [pc, #92]	@ (2602c <_ZN20complex_dynamic_type3app17he071a96d57b5e480E+0x128>)
   25fce:	2108      	movs	r1, #8
   25fd0:	2200      	movs	r2, #0
   25fd2:	4613      	mov	r3, r2
   25fd4:	df03      	svc	3
   25fd6:	e004      	b.n	25fe2 <_ZN20complex_dynamic_type3app17he071a96d57b5e480E+0xde>
   25fd8:	4814      	ldr	r0, [pc, #80]	@ (2602c <_ZN20complex_dynamic_type3app17he071a96d57b5e480E+0x128>)
   25fda:	2108      	movs	r1, #8
   25fdc:	2200      	movs	r2, #0
   25fde:	4613      	mov	r3, r2
   25fe0:	df04      	svc	4
   25fe2:	a804      	add	r0, sp, #16
   25fe4:	9900      	ldr	r1, [sp, #0]
   25fe6:	7001      	strb	r1, [r0, #0]
   25fe8:	a818      	add	r0, sp, #96	@ 0x60
   25fea:	7800      	ldrb	r0, [r0, #0]
   25fec:	2803      	cmp	r0, #3
   25fee:	d008      	beq.n	26002 <_ZN20complex_dynamic_type3app17he071a96d57b5e480E+0xfe>
   25ff0:	2802      	cmp	r0, #2
   25ff2:	d10c      	bne.n	2600e <_ZN20complex_dynamic_type3app17he071a96d57b5e480E+0x10a>
   25ff4:	1c68      	adds	r0, r5, #1
   25ff6:	223b      	movs	r2, #59	@ 0x3b
   25ff8:	4621      	mov	r1, r4
   25ffa:	f004 fabd 	bl	2a578 <__aeabi_memcpy>
   25ffe:	702e      	strb	r6, [r5, #0]
   26000:	e7dc      	b.n	25fbc <_ZN20complex_dynamic_type3app17he071a96d57b5e480E+0xb8>
   26002:	480a      	ldr	r0, [pc, #40]	@ (2602c <_ZN20complex_dynamic_type3app17he071a96d57b5e480E+0x128>)
   26004:	2105      	movs	r1, #5
   26006:	2200      	movs	r2, #0
   26008:	4613      	mov	r3, r2
   2600a:	df03      	svc	3
   2600c:	e004      	b.n	26018 <_ZN20complex_dynamic_type3app17he071a96d57b5e480E+0x114>
   2600e:	4807      	ldr	r0, [pc, #28]	@ (2602c <_ZN20complex_dynamic_type3app17he071a96d57b5e480E+0x128>)
   26010:	2105      	movs	r1, #5
   26012:	2200      	movs	r2, #0
   26014:	4613      	mov	r3, r2
   26016:	df04      	svc	4
   26018:	a804      	add	r0, sp, #16
   2601a:	7804      	ldrb	r4, [r0, #0]
   2601c:	1c68      	adds	r0, r5, #1
   2601e:	223b      	movs	r2, #59	@ 0x3b
   26020:	9901      	ldr	r1, [sp, #4]
   26022:	f004 faa9 	bl	2a578 <__aeabi_memcpy>
   26026:	702e      	strb	r6, [r5, #0]
   26028:	e7bd      	b.n	25fa6 <_ZN20complex_dynamic_type3app17he071a96d57b5e480E+0xa2>
   2602a:	46c0      	nop			@ (mov r8, r8)
   2602c:	00000a06 	.word	0x00000a06

00026030 <_ZN20complex_dynamic_type3app17he16ff068827b1506E>:
   26030:	b5f0      	push	{r4, r5, r6, r7, lr}
   26032:	af03      	add	r7, sp, #12
   26034:	b095      	sub	sp, #84	@ 0x54
   26036:	9003      	str	r0, [sp, #12]
   26038:	a804      	add	r0, sp, #16
   2603a:	2402      	movs	r4, #2
   2603c:	7004      	strb	r4, [r0, #0]
   2603e:	1c46      	adds	r6, r0, #1
   26040:	221e      	movs	r2, #30
   26042:	9202      	str	r2, [sp, #8]
   26044:	4630      	mov	r0, r6
   26046:	f004 fa97 	bl	2a578 <__aeabi_memcpy>
   2604a:	ad0c      	add	r5, sp, #48	@ 0x30
   2604c:	1c68      	adds	r0, r5, #1
   2604e:	2121      	movs	r1, #33	@ 0x21
   26050:	9001      	str	r0, [sp, #4]
   26052:	f004 f8d1 	bl	2a1f8 <__aeabi_memclr>
   26056:	9400      	str	r4, [sp, #0]
   26058:	702c      	strb	r4, [r5, #0]
   2605a:	483f      	ldr	r0, [pc, #252]	@ (26158 <_ZN20complex_dynamic_type3app17he16ff068827b1506E+0x128>)
   2605c:	2106      	movs	r1, #6
   2605e:	4632      	mov	r2, r6
   26060:	9b02      	ldr	r3, [sp, #8]
   26062:	df04      	svc	4
   26064:	2802      	cmp	r0, #2
   26066:	d104      	bne.n	26072 <_ZN20complex_dynamic_type3app17he16ff068827b1506E+0x42>
   26068:	2001      	movs	r0, #1
   2606a:	9a03      	ldr	r2, [sp, #12]
   2606c:	7010      	strb	r0, [r2, #0]
   2606e:	6051      	str	r1, [r2, #4]
   26070:	e02d      	b.n	260ce <_ZN20complex_dynamic_type3app17he16ff068827b1506E+0x9e>
   26072:	9d03      	ldr	r5, [sp, #12]
   26074:	a804      	add	r0, sp, #16
   26076:	2104      	movs	r1, #4
   26078:	7001      	strb	r1, [r0, #0]
   2607a:	4837      	ldr	r0, [pc, #220]	@ (26158 <_ZN20complex_dynamic_type3app17he16ff068827b1506E+0x128>)
   2607c:	2109      	movs	r1, #9
   2607e:	2321      	movs	r3, #33	@ 0x21
   26080:	9c01      	ldr	r4, [sp, #4]
   26082:	4622      	mov	r2, r4
   26084:	df03      	svc	3
   26086:	2802      	cmp	r0, #2
   26088:	d10e      	bne.n	260a8 <_ZN20complex_dynamic_type3app17he16ff068827b1506E+0x78>
   2608a:	2001      	movs	r0, #1
   2608c:	7028      	strb	r0, [r5, #0]
   2608e:	6069      	str	r1, [r5, #4]
   26090:	a80c      	add	r0, sp, #48	@ 0x30
   26092:	7800      	ldrb	r0, [r0, #0]
   26094:	2802      	cmp	r0, #2
   26096:	d01a      	beq.n	260ce <_ZN20complex_dynamic_type3app17he16ff068827b1506E+0x9e>
   26098:	2803      	cmp	r0, #3
   2609a:	d013      	beq.n	260c4 <_ZN20complex_dynamic_type3app17he16ff068827b1506E+0x94>
   2609c:	482e      	ldr	r0, [pc, #184]	@ (26158 <_ZN20complex_dynamic_type3app17he16ff068827b1506E+0x128>)
   2609e:	2109      	movs	r1, #9
   260a0:	2200      	movs	r2, #0
   260a2:	4613      	mov	r3, r2
   260a4:	df04      	svc	4
   260a6:	e012      	b.n	260ce <_ZN20complex_dynamic_type3app17he16ff068827b1506E+0x9e>
   260a8:	a80c      	add	r0, sp, #48	@ 0x30
   260aa:	2103      	movs	r1, #3
   260ac:	7001      	strb	r1, [r0, #0]
   260ae:	482a      	ldr	r0, [pc, #168]	@ (26158 <_ZN20complex_dynamic_type3app17he16ff068827b1506E+0x128>)
   260b0:	2106      	movs	r1, #6
   260b2:	2209      	movs	r2, #9
   260b4:	2600      	movs	r6, #0
   260b6:	4633      	mov	r3, r6
   260b8:	df02      	svc	2
   260ba:	287f      	cmp	r0, #127	@ 0x7f
   260bc:	d816      	bhi.n	260ec <_ZN20complex_dynamic_type3app17he16ff068827b1506E+0xbc>
   260be:	2001      	movs	r0, #1
   260c0:	7028      	strb	r0, [r5, #0]
   260c2:	6069      	str	r1, [r5, #4]
   260c4:	4824      	ldr	r0, [pc, #144]	@ (26158 <_ZN20complex_dynamic_type3app17he16ff068827b1506E+0x128>)
   260c6:	2109      	movs	r1, #9
   260c8:	2200      	movs	r2, #0
   260ca:	4613      	mov	r3, r2
   260cc:	df03      	svc	3
   260ce:	a804      	add	r0, sp, #16
   260d0:	7804      	ldrb	r4, [r0, #0]
   260d2:	2c02      	cmp	r4, #2
   260d4:	d008      	beq.n	260e8 <_ZN20complex_dynamic_type3app17he16ff068827b1506E+0xb8>
   260d6:	4820      	ldr	r0, [pc, #128]	@ (26158 <_ZN20complex_dynamic_type3app17he16ff068827b1506E+0x128>)
   260d8:	2106      	movs	r1, #6
   260da:	2200      	movs	r2, #0
   260dc:	4613      	mov	r3, r2
   260de:	2c03      	cmp	r4, #3
   260e0:	d101      	bne.n	260e6 <_ZN20complex_dynamic_type3app17he16ff068827b1506E+0xb6>
   260e2:	df03      	svc	3
   260e4:	e000      	b.n	260e8 <_ZN20complex_dynamic_type3app17he16ff068827b1506E+0xb8>
   260e6:	df04      	svc	4
   260e8:	b015      	add	sp, #84	@ 0x54
   260ea:	bdf0      	pop	{r4, r5, r6, r7, pc}
   260ec:	a804      	add	r0, sp, #16
   260ee:	7800      	ldrb	r0, [r0, #0]
   260f0:	2802      	cmp	r0, #2
   260f2:	d01c      	beq.n	2612e <_ZN20complex_dynamic_type3app17he16ff068827b1506E+0xfe>
   260f4:	2803      	cmp	r0, #3
   260f6:	d105      	bne.n	26104 <_ZN20complex_dynamic_type3app17he16ff068827b1506E+0xd4>
   260f8:	4817      	ldr	r0, [pc, #92]	@ (26158 <_ZN20complex_dynamic_type3app17he16ff068827b1506E+0x128>)
   260fa:	2106      	movs	r1, #6
   260fc:	2200      	movs	r2, #0
   260fe:	4613      	mov	r3, r2
   26100:	df03      	svc	3
   26102:	e004      	b.n	2610e <_ZN20complex_dynamic_type3app17he16ff068827b1506E+0xde>
   26104:	4814      	ldr	r0, [pc, #80]	@ (26158 <_ZN20complex_dynamic_type3app17he16ff068827b1506E+0x128>)
   26106:	2106      	movs	r1, #6
   26108:	2200      	movs	r2, #0
   2610a:	4613      	mov	r3, r2
   2610c:	df04      	svc	4
   2610e:	a804      	add	r0, sp, #16
   26110:	9900      	ldr	r1, [sp, #0]
   26112:	7001      	strb	r1, [r0, #0]
   26114:	a80c      	add	r0, sp, #48	@ 0x30
   26116:	7800      	ldrb	r0, [r0, #0]
   26118:	2803      	cmp	r0, #3
   2611a:	d008      	beq.n	2612e <_ZN20complex_dynamic_type3app17he16ff068827b1506E+0xfe>
   2611c:	2802      	cmp	r0, #2
   2611e:	d10c      	bne.n	2613a <_ZN20complex_dynamic_type3app17he16ff068827b1506E+0x10a>
   26120:	1c68      	adds	r0, r5, #1
   26122:	2221      	movs	r2, #33	@ 0x21
   26124:	4621      	mov	r1, r4
   26126:	f004 fa27 	bl	2a578 <__aeabi_memcpy>
   2612a:	702e      	strb	r6, [r5, #0]
   2612c:	e7dc      	b.n	260e8 <_ZN20complex_dynamic_type3app17he16ff068827b1506E+0xb8>
   2612e:	480a      	ldr	r0, [pc, #40]	@ (26158 <_ZN20complex_dynamic_type3app17he16ff068827b1506E+0x128>)
   26130:	2109      	movs	r1, #9
   26132:	2200      	movs	r2, #0
   26134:	4613      	mov	r3, r2
   26136:	df03      	svc	3
   26138:	e004      	b.n	26144 <_ZN20complex_dynamic_type3app17he16ff068827b1506E+0x114>
   2613a:	4807      	ldr	r0, [pc, #28]	@ (26158 <_ZN20complex_dynamic_type3app17he16ff068827b1506E+0x128>)
   2613c:	2109      	movs	r1, #9
   2613e:	2200      	movs	r2, #0
   26140:	4613      	mov	r3, r2
   26142:	df04      	svc	4
   26144:	a804      	add	r0, sp, #16
   26146:	7804      	ldrb	r4, [r0, #0]
   26148:	1c68      	adds	r0, r5, #1
   2614a:	2221      	movs	r2, #33	@ 0x21
   2614c:	9901      	ldr	r1, [sp, #4]
   2614e:	f004 fa13 	bl	2a578 <__aeabi_memcpy>
   26152:	702e      	strb	r6, [r5, #0]
   26154:	e7bd      	b.n	260d2 <_ZN20complex_dynamic_type3app17he16ff068827b1506E+0xa2>
   26156:	46c0      	nop			@ (mov r8, r8)
   26158:	000019b5 	.word	0x000019b5

0002615c <_ZN20complex_dynamic_type3app17he36373ac1ef91ad2E>:
   2615c:	b5f0      	push	{r4, r5, r6, r7, lr}
   2615e:	af03      	add	r7, sp, #12
   26160:	b0a1      	sub	sp, #132	@ 0x84
   26162:	9003      	str	r0, [sp, #12]
   26164:	a804      	add	r0, sp, #16
   26166:	2402      	movs	r4, #2
   26168:	7004      	strb	r4, [r0, #0]
   2616a:	1c46      	adds	r6, r0, #1
   2616c:	223c      	movs	r2, #60	@ 0x3c
   2616e:	9202      	str	r2, [sp, #8]
   26170:	4630      	mov	r0, r6
   26172:	f004 fa01 	bl	2a578 <__aeabi_memcpy>
   26176:	ad14      	add	r5, sp, #80	@ 0x50
   26178:	1c68      	adds	r0, r5, #1
   2617a:	2132      	movs	r1, #50	@ 0x32
   2617c:	9001      	str	r0, [sp, #4]
   2617e:	f004 f83b 	bl	2a1f8 <__aeabi_memclr>
   26182:	9400      	str	r4, [sp, #0]
   26184:	702c      	strb	r4, [r5, #0]
   26186:	483f      	ldr	r0, [pc, #252]	@ (26284 <_ZN20complex_dynamic_type3app17he36373ac1ef91ad2E+0x128>)
   26188:	2106      	movs	r1, #6
   2618a:	4632      	mov	r2, r6
   2618c:	9b02      	ldr	r3, [sp, #8]
   2618e:	df04      	svc	4
   26190:	2802      	cmp	r0, #2
   26192:	d104      	bne.n	2619e <_ZN20complex_dynamic_type3app17he36373ac1ef91ad2E+0x42>
   26194:	2001      	movs	r0, #1
   26196:	9a03      	ldr	r2, [sp, #12]
   26198:	7010      	strb	r0, [r2, #0]
   2619a:	6051      	str	r1, [r2, #4]
   2619c:	e02d      	b.n	261fa <_ZN20complex_dynamic_type3app17he36373ac1ef91ad2E+0x9e>
   2619e:	9d03      	ldr	r5, [sp, #12]
   261a0:	a804      	add	r0, sp, #16
   261a2:	2104      	movs	r1, #4
   261a4:	7001      	strb	r1, [r0, #0]
   261a6:	4837      	ldr	r0, [pc, #220]	@ (26284 <_ZN20complex_dynamic_type3app17he36373ac1ef91ad2E+0x128>)
   261a8:	2108      	movs	r1, #8
   261aa:	2332      	movs	r3, #50	@ 0x32
   261ac:	9c01      	ldr	r4, [sp, #4]
   261ae:	4622      	mov	r2, r4
   261b0:	df03      	svc	3
   261b2:	2802      	cmp	r0, #2
   261b4:	d10e      	bne.n	261d4 <_ZN20complex_dynamic_type3app17he36373ac1ef91ad2E+0x78>
   261b6:	2001      	movs	r0, #1
   261b8:	7028      	strb	r0, [r5, #0]
   261ba:	6069      	str	r1, [r5, #4]
   261bc:	a814      	add	r0, sp, #80	@ 0x50
   261be:	7800      	ldrb	r0, [r0, #0]
   261c0:	2802      	cmp	r0, #2
   261c2:	d01a      	beq.n	261fa <_ZN20complex_dynamic_type3app17he36373ac1ef91ad2E+0x9e>
   261c4:	2803      	cmp	r0, #3
   261c6:	d013      	beq.n	261f0 <_ZN20complex_dynamic_type3app17he36373ac1ef91ad2E+0x94>
   261c8:	482e      	ldr	r0, [pc, #184]	@ (26284 <_ZN20complex_dynamic_type3app17he36373ac1ef91ad2E+0x128>)
   261ca:	2108      	movs	r1, #8
   261cc:	2200      	movs	r2, #0
   261ce:	4613      	mov	r3, r2
   261d0:	df04      	svc	4
   261d2:	e012      	b.n	261fa <_ZN20complex_dynamic_type3app17he36373ac1ef91ad2E+0x9e>
   261d4:	a814      	add	r0, sp, #80	@ 0x50
   261d6:	2103      	movs	r1, #3
   261d8:	7001      	strb	r1, [r0, #0]
   261da:	482a      	ldr	r0, [pc, #168]	@ (26284 <_ZN20complex_dynamic_type3app17he36373ac1ef91ad2E+0x128>)
   261dc:	2106      	movs	r1, #6
   261de:	2208      	movs	r2, #8
   261e0:	2600      	movs	r6, #0
   261e2:	4633      	mov	r3, r6
   261e4:	df02      	svc	2
   261e6:	287f      	cmp	r0, #127	@ 0x7f
   261e8:	d816      	bhi.n	26218 <_ZN20complex_dynamic_type3app17he36373ac1ef91ad2E+0xbc>
   261ea:	2001      	movs	r0, #1
   261ec:	7028      	strb	r0, [r5, #0]
   261ee:	6069      	str	r1, [r5, #4]
   261f0:	4824      	ldr	r0, [pc, #144]	@ (26284 <_ZN20complex_dynamic_type3app17he36373ac1ef91ad2E+0x128>)
   261f2:	2108      	movs	r1, #8
   261f4:	2200      	movs	r2, #0
   261f6:	4613      	mov	r3, r2
   261f8:	df03      	svc	3
   261fa:	a804      	add	r0, sp, #16
   261fc:	7804      	ldrb	r4, [r0, #0]
   261fe:	2c02      	cmp	r4, #2
   26200:	d008      	beq.n	26214 <_ZN20complex_dynamic_type3app17he36373ac1ef91ad2E+0xb8>
   26202:	4820      	ldr	r0, [pc, #128]	@ (26284 <_ZN20complex_dynamic_type3app17he36373ac1ef91ad2E+0x128>)
   26204:	2106      	movs	r1, #6
   26206:	2200      	movs	r2, #0
   26208:	4613      	mov	r3, r2
   2620a:	2c03      	cmp	r4, #3
   2620c:	d101      	bne.n	26212 <_ZN20complex_dynamic_type3app17he36373ac1ef91ad2E+0xb6>
   2620e:	df03      	svc	3
   26210:	e000      	b.n	26214 <_ZN20complex_dynamic_type3app17he36373ac1ef91ad2E+0xb8>
   26212:	df04      	svc	4
   26214:	b021      	add	sp, #132	@ 0x84
   26216:	bdf0      	pop	{r4, r5, r6, r7, pc}
   26218:	a804      	add	r0, sp, #16
   2621a:	7800      	ldrb	r0, [r0, #0]
   2621c:	2802      	cmp	r0, #2
   2621e:	d01c      	beq.n	2625a <_ZN20complex_dynamic_type3app17he36373ac1ef91ad2E+0xfe>
   26220:	2803      	cmp	r0, #3
   26222:	d105      	bne.n	26230 <_ZN20complex_dynamic_type3app17he36373ac1ef91ad2E+0xd4>
   26224:	4817      	ldr	r0, [pc, #92]	@ (26284 <_ZN20complex_dynamic_type3app17he36373ac1ef91ad2E+0x128>)
   26226:	2106      	movs	r1, #6
   26228:	2200      	movs	r2, #0
   2622a:	4613      	mov	r3, r2
   2622c:	df03      	svc	3
   2622e:	e004      	b.n	2623a <_ZN20complex_dynamic_type3app17he36373ac1ef91ad2E+0xde>
   26230:	4814      	ldr	r0, [pc, #80]	@ (26284 <_ZN20complex_dynamic_type3app17he36373ac1ef91ad2E+0x128>)
   26232:	2106      	movs	r1, #6
   26234:	2200      	movs	r2, #0
   26236:	4613      	mov	r3, r2
   26238:	df04      	svc	4
   2623a:	a804      	add	r0, sp, #16
   2623c:	9900      	ldr	r1, [sp, #0]
   2623e:	7001      	strb	r1, [r0, #0]
   26240:	a814      	add	r0, sp, #80	@ 0x50
   26242:	7800      	ldrb	r0, [r0, #0]
   26244:	2803      	cmp	r0, #3
   26246:	d008      	beq.n	2625a <_ZN20complex_dynamic_type3app17he36373ac1ef91ad2E+0xfe>
   26248:	2802      	cmp	r0, #2
   2624a:	d10c      	bne.n	26266 <_ZN20complex_dynamic_type3app17he36373ac1ef91ad2E+0x10a>
   2624c:	1c68      	adds	r0, r5, #1
   2624e:	2232      	movs	r2, #50	@ 0x32
   26250:	4621      	mov	r1, r4
   26252:	f004 f991 	bl	2a578 <__aeabi_memcpy>
   26256:	702e      	strb	r6, [r5, #0]
   26258:	e7dc      	b.n	26214 <_ZN20complex_dynamic_type3app17he36373ac1ef91ad2E+0xb8>
   2625a:	480a      	ldr	r0, [pc, #40]	@ (26284 <_ZN20complex_dynamic_type3app17he36373ac1ef91ad2E+0x128>)
   2625c:	2108      	movs	r1, #8
   2625e:	2200      	movs	r2, #0
   26260:	4613      	mov	r3, r2
   26262:	df03      	svc	3
   26264:	e004      	b.n	26270 <_ZN20complex_dynamic_type3app17he36373ac1ef91ad2E+0x114>
   26266:	4807      	ldr	r0, [pc, #28]	@ (26284 <_ZN20complex_dynamic_type3app17he36373ac1ef91ad2E+0x128>)
   26268:	2108      	movs	r1, #8
   2626a:	2200      	movs	r2, #0
   2626c:	4613      	mov	r3, r2
   2626e:	df04      	svc	4
   26270:	a804      	add	r0, sp, #16
   26272:	7804      	ldrb	r4, [r0, #0]
   26274:	1c68      	adds	r0, r5, #1
   26276:	2232      	movs	r2, #50	@ 0x32
   26278:	9901      	ldr	r1, [sp, #4]
   2627a:	f004 f97d 	bl	2a578 <__aeabi_memcpy>
   2627e:	702e      	strb	r6, [r5, #0]
   26280:	e7bd      	b.n	261fe <_ZN20complex_dynamic_type3app17he36373ac1ef91ad2E+0xa2>
   26282:	46c0      	nop			@ (mov r8, r8)
   26284:	00001b1e 	.word	0x00001b1e

00026288 <_ZN20complex_dynamic_type3app17he80345f6a8a3d6a3E>:
   26288:	b5f0      	push	{r4, r5, r6, r7, lr}
   2628a:	af03      	add	r7, sp, #12
   2628c:	b0b1      	sub	sp, #196	@ 0xc4
   2628e:	9003      	str	r0, [sp, #12]
   26290:	a804      	add	r0, sp, #16
   26292:	2502      	movs	r5, #2
   26294:	7005      	strb	r5, [r0, #0]
   26296:	1c46      	adds	r6, r0, #1
   26298:	224f      	movs	r2, #79	@ 0x4f
   2629a:	9202      	str	r2, [sp, #8]
   2629c:	4630      	mov	r0, r6
   2629e:	f004 f96b 	bl	2a578 <__aeabi_memcpy>
   262a2:	ac18      	add	r4, sp, #96	@ 0x60
   262a4:	1c60      	adds	r0, r4, #1
   262a6:	2161      	movs	r1, #97	@ 0x61
   262a8:	9001      	str	r0, [sp, #4]
   262aa:	f003 ffa5 	bl	2a1f8 <__aeabi_memclr>
   262ae:	7025      	strb	r5, [r4, #0]
   262b0:	20db      	movs	r0, #219	@ 0xdb
   262b2:	0044      	lsls	r4, r0, #1
   262b4:	4620      	mov	r0, r4
   262b6:	4629      	mov	r1, r5
   262b8:	4632      	mov	r2, r6
   262ba:	9b02      	ldr	r3, [sp, #8]
   262bc:	df04      	svc	4
   262be:	2802      	cmp	r0, #2
   262c0:	d104      	bne.n	262cc <_ZN20complex_dynamic_type3app17he80345f6a8a3d6a3E+0x44>
   262c2:	2001      	movs	r0, #1
   262c4:	9a03      	ldr	r2, [sp, #12]
   262c6:	7010      	strb	r0, [r2, #0]
   262c8:	6051      	str	r1, [r2, #4]
   262ca:	e02e      	b.n	2632a <_ZN20complex_dynamic_type3app17he80345f6a8a3d6a3E+0xa2>
   262cc:	9e03      	ldr	r6, [sp, #12]
   262ce:	a804      	add	r0, sp, #16
   262d0:	2104      	movs	r1, #4
   262d2:	7001      	strb	r1, [r0, #0]
   262d4:	2108      	movs	r1, #8
   262d6:	2361      	movs	r3, #97	@ 0x61
   262d8:	4620      	mov	r0, r4
   262da:	9d01      	ldr	r5, [sp, #4]
   262dc:	462a      	mov	r2, r5
   262de:	df03      	svc	3
   262e0:	2802      	cmp	r0, #2
   262e2:	d10e      	bne.n	26302 <_ZN20complex_dynamic_type3app17he80345f6a8a3d6a3E+0x7a>
   262e4:	2001      	movs	r0, #1
   262e6:	7030      	strb	r0, [r6, #0]
   262e8:	6071      	str	r1, [r6, #4]
   262ea:	a818      	add	r0, sp, #96	@ 0x60
   262ec:	7800      	ldrb	r0, [r0, #0]
   262ee:	2802      	cmp	r0, #2
   262f0:	d01b      	beq.n	2632a <_ZN20complex_dynamic_type3app17he80345f6a8a3d6a3E+0xa2>
   262f2:	2803      	cmp	r0, #3
   262f4:	d014      	beq.n	26320 <_ZN20complex_dynamic_type3app17he80345f6a8a3d6a3E+0x98>
   262f6:	2108      	movs	r1, #8
   262f8:	2200      	movs	r2, #0
   262fa:	4620      	mov	r0, r4
   262fc:	4613      	mov	r3, r2
   262fe:	df04      	svc	4
   26300:	e013      	b.n	2632a <_ZN20complex_dynamic_type3app17he80345f6a8a3d6a3E+0xa2>
   26302:	a818      	add	r0, sp, #96	@ 0x60
   26304:	2103      	movs	r1, #3
   26306:	7001      	strb	r1, [r0, #0]
   26308:	2102      	movs	r1, #2
   2630a:	2208      	movs	r2, #8
   2630c:	2300      	movs	r3, #0
   2630e:	4620      	mov	r0, r4
   26310:	9100      	str	r1, [sp, #0]
   26312:	9302      	str	r3, [sp, #8]
   26314:	df02      	svc	2
   26316:	287f      	cmp	r0, #127	@ 0x7f
   26318:	d817      	bhi.n	2634a <_ZN20complex_dynamic_type3app17he80345f6a8a3d6a3E+0xc2>
   2631a:	2001      	movs	r0, #1
   2631c:	7030      	strb	r0, [r6, #0]
   2631e:	6071      	str	r1, [r6, #4]
   26320:	2108      	movs	r1, #8
   26322:	2200      	movs	r2, #0
   26324:	4620      	mov	r0, r4
   26326:	4613      	mov	r3, r2
   26328:	df03      	svc	3
   2632a:	4625      	mov	r5, r4
   2632c:	a804      	add	r0, sp, #16
   2632e:	7804      	ldrb	r4, [r0, #0]
   26330:	2c02      	cmp	r4, #2
   26332:	d008      	beq.n	26346 <_ZN20complex_dynamic_type3app17he80345f6a8a3d6a3E+0xbe>
   26334:	2102      	movs	r1, #2
   26336:	2200      	movs	r2, #0
   26338:	4628      	mov	r0, r5
   2633a:	4613      	mov	r3, r2
   2633c:	2c03      	cmp	r4, #3
   2633e:	d101      	bne.n	26344 <_ZN20complex_dynamic_type3app17he80345f6a8a3d6a3E+0xbc>
   26340:	df03      	svc	3
   26342:	e000      	b.n	26346 <_ZN20complex_dynamic_type3app17he80345f6a8a3d6a3E+0xbe>
   26344:	df04      	svc	4
   26346:	b031      	add	sp, #196	@ 0xc4
   26348:	bdf0      	pop	{r4, r5, r6, r7, pc}
   2634a:	a804      	add	r0, sp, #16
   2634c:	7800      	ldrb	r0, [r0, #0]
   2634e:	2802      	cmp	r0, #2
   26350:	d01b      	beq.n	2638a <_ZN20complex_dynamic_type3app17he80345f6a8a3d6a3E+0x102>
   26352:	2102      	movs	r1, #2
   26354:	2200      	movs	r2, #0
   26356:	2803      	cmp	r0, #3
   26358:	d103      	bne.n	26362 <_ZN20complex_dynamic_type3app17he80345f6a8a3d6a3E+0xda>
   2635a:	4620      	mov	r0, r4
   2635c:	4613      	mov	r3, r2
   2635e:	df03      	svc	3
   26360:	e002      	b.n	26368 <_ZN20complex_dynamic_type3app17he80345f6a8a3d6a3E+0xe0>
   26362:	4620      	mov	r0, r4
   26364:	4613      	mov	r3, r2
   26366:	df04      	svc	4
   26368:	a804      	add	r0, sp, #16
   2636a:	9900      	ldr	r1, [sp, #0]
   2636c:	7001      	strb	r1, [r0, #0]
   2636e:	a818      	add	r0, sp, #96	@ 0x60
   26370:	7800      	ldrb	r0, [r0, #0]
   26372:	2803      	cmp	r0, #3
   26374:	d009      	beq.n	2638a <_ZN20complex_dynamic_type3app17he80345f6a8a3d6a3E+0x102>
   26376:	2802      	cmp	r0, #2
   26378:	d10e      	bne.n	26398 <_ZN20complex_dynamic_type3app17he80345f6a8a3d6a3E+0x110>
   2637a:	1c70      	adds	r0, r6, #1
   2637c:	2261      	movs	r2, #97	@ 0x61
   2637e:	4629      	mov	r1, r5
   26380:	f004 f8fa 	bl	2a578 <__aeabi_memcpy>
   26384:	9802      	ldr	r0, [sp, #8]
   26386:	7030      	strb	r0, [r6, #0]
   26388:	e7dd      	b.n	26346 <_ZN20complex_dynamic_type3app17he80345f6a8a3d6a3E+0xbe>
   2638a:	2108      	movs	r1, #8
   2638c:	2200      	movs	r2, #0
   2638e:	4625      	mov	r5, r4
   26390:	4620      	mov	r0, r4
   26392:	4613      	mov	r3, r2
   26394:	df03      	svc	3
   26396:	e005      	b.n	263a4 <_ZN20complex_dynamic_type3app17he80345f6a8a3d6a3E+0x11c>
   26398:	2108      	movs	r1, #8
   2639a:	2200      	movs	r2, #0
   2639c:	4625      	mov	r5, r4
   2639e:	4620      	mov	r0, r4
   263a0:	4613      	mov	r3, r2
   263a2:	df04      	svc	4
   263a4:	a804      	add	r0, sp, #16
   263a6:	7804      	ldrb	r4, [r0, #0]
   263a8:	1c70      	adds	r0, r6, #1
   263aa:	2261      	movs	r2, #97	@ 0x61
   263ac:	9901      	ldr	r1, [sp, #4]
   263ae:	f004 f8e3 	bl	2a578 <__aeabi_memcpy>
   263b2:	9802      	ldr	r0, [sp, #8]
   263b4:	7030      	strb	r0, [r6, #0]
   263b6:	e7bb      	b.n	26330 <_ZN20complex_dynamic_type3app17he80345f6a8a3d6a3E+0xa8>

000263b8 <_ZN20complex_dynamic_type3app17he8fbff4d62a556edE>:
   263b8:	b5f0      	push	{r4, r5, r6, r7, lr}
   263ba:	af03      	add	r7, sp, #12
   263bc:	b097      	sub	sp, #92	@ 0x5c
   263be:	9004      	str	r0, [sp, #16]
   263c0:	a805      	add	r0, sp, #20
   263c2:	2402      	movs	r4, #2
   263c4:	7004      	strb	r4, [r0, #0]
   263c6:	1c46      	adds	r6, r0, #1
   263c8:	2236      	movs	r2, #54	@ 0x36
   263ca:	9203      	str	r2, [sp, #12]
   263cc:	4630      	mov	r0, r6
   263ce:	f004 f8d3 	bl	2a578 <__aeabi_memcpy>
   263d2:	ad13      	add	r5, sp, #76	@ 0x4c
   263d4:	1c68      	adds	r0, r5, #1
   263d6:	210f      	movs	r1, #15
   263d8:	9002      	str	r0, [sp, #8]
   263da:	f003 ff0d 	bl	2a1f8 <__aeabi_memclr>
   263de:	9401      	str	r4, [sp, #4]
   263e0:	702c      	strb	r4, [r5, #0]
   263e2:	483e      	ldr	r0, [pc, #248]	@ (264dc <_ZN20complex_dynamic_type3app17he8fbff4d62a556edE+0x124>)
   263e4:	2105      	movs	r1, #5
   263e6:	4632      	mov	r2, r6
   263e8:	9b03      	ldr	r3, [sp, #12]
   263ea:	df04      	svc	4
   263ec:	2802      	cmp	r0, #2
   263ee:	d104      	bne.n	263fa <_ZN20complex_dynamic_type3app17he8fbff4d62a556edE+0x42>
   263f0:	2001      	movs	r0, #1
   263f2:	9a04      	ldr	r2, [sp, #16]
   263f4:	7010      	strb	r0, [r2, #0]
   263f6:	6051      	str	r1, [r2, #4]
   263f8:	e02c      	b.n	26454 <_ZN20complex_dynamic_type3app17he8fbff4d62a556edE+0x9c>
   263fa:	9d04      	ldr	r5, [sp, #16]
   263fc:	a805      	add	r0, sp, #20
   263fe:	2104      	movs	r1, #4
   26400:	7001      	strb	r1, [r0, #0]
   26402:	4836      	ldr	r0, [pc, #216]	@ (264dc <_ZN20complex_dynamic_type3app17he8fbff4d62a556edE+0x124>)
   26404:	2403      	movs	r4, #3
   26406:	230f      	movs	r3, #15
   26408:	4621      	mov	r1, r4
   2640a:	9a02      	ldr	r2, [sp, #8]
   2640c:	df03      	svc	3
   2640e:	2802      	cmp	r0, #2
   26410:	d10e      	bne.n	26430 <_ZN20complex_dynamic_type3app17he8fbff4d62a556edE+0x78>
   26412:	2001      	movs	r0, #1
   26414:	7028      	strb	r0, [r5, #0]
   26416:	6069      	str	r1, [r5, #4]
   26418:	a813      	add	r0, sp, #76	@ 0x4c
   2641a:	7800      	ldrb	r0, [r0, #0]
   2641c:	2802      	cmp	r0, #2
   2641e:	d019      	beq.n	26454 <_ZN20complex_dynamic_type3app17he8fbff4d62a556edE+0x9c>
   26420:	2803      	cmp	r0, #3
   26422:	d012      	beq.n	2644a <_ZN20complex_dynamic_type3app17he8fbff4d62a556edE+0x92>
   26424:	482d      	ldr	r0, [pc, #180]	@ (264dc <_ZN20complex_dynamic_type3app17he8fbff4d62a556edE+0x124>)
   26426:	2103      	movs	r1, #3
   26428:	2200      	movs	r2, #0
   2642a:	4613      	mov	r3, r2
   2642c:	df04      	svc	4
   2642e:	e011      	b.n	26454 <_ZN20complex_dynamic_type3app17he8fbff4d62a556edE+0x9c>
   26430:	a813      	add	r0, sp, #76	@ 0x4c
   26432:	7004      	strb	r4, [r0, #0]
   26434:	4829      	ldr	r0, [pc, #164]	@ (264dc <_ZN20complex_dynamic_type3app17he8fbff4d62a556edE+0x124>)
   26436:	2105      	movs	r1, #5
   26438:	2600      	movs	r6, #0
   2643a:	4622      	mov	r2, r4
   2643c:	4633      	mov	r3, r6
   2643e:	df02      	svc	2
   26440:	287f      	cmp	r0, #127	@ 0x7f
   26442:	d816      	bhi.n	26472 <_ZN20complex_dynamic_type3app17he8fbff4d62a556edE+0xba>
   26444:	2001      	movs	r0, #1
   26446:	7028      	strb	r0, [r5, #0]
   26448:	6069      	str	r1, [r5, #4]
   2644a:	4824      	ldr	r0, [pc, #144]	@ (264dc <_ZN20complex_dynamic_type3app17he8fbff4d62a556edE+0x124>)
   2644c:	2103      	movs	r1, #3
   2644e:	2200      	movs	r2, #0
   26450:	4613      	mov	r3, r2
   26452:	df03      	svc	3
   26454:	a805      	add	r0, sp, #20
   26456:	7804      	ldrb	r4, [r0, #0]
   26458:	2c02      	cmp	r4, #2
   2645a:	d008      	beq.n	2646e <_ZN20complex_dynamic_type3app17he8fbff4d62a556edE+0xb6>
   2645c:	481f      	ldr	r0, [pc, #124]	@ (264dc <_ZN20complex_dynamic_type3app17he8fbff4d62a556edE+0x124>)
   2645e:	2105      	movs	r1, #5
   26460:	2200      	movs	r2, #0
   26462:	4613      	mov	r3, r2
   26464:	2c03      	cmp	r4, #3
   26466:	d101      	bne.n	2646c <_ZN20complex_dynamic_type3app17he8fbff4d62a556edE+0xb4>
   26468:	df03      	svc	3
   2646a:	e000      	b.n	2646e <_ZN20complex_dynamic_type3app17he8fbff4d62a556edE+0xb6>
   2646c:	df04      	svc	4
   2646e:	b017      	add	sp, #92	@ 0x5c
   26470:	bdf0      	pop	{r4, r5, r6, r7, pc}
   26472:	a805      	add	r0, sp, #20
   26474:	7800      	ldrb	r0, [r0, #0]
   26476:	2802      	cmp	r0, #2
   26478:	d01c      	beq.n	264b4 <_ZN20complex_dynamic_type3app17he8fbff4d62a556edE+0xfc>
   2647a:	2803      	cmp	r0, #3
   2647c:	d105      	bne.n	2648a <_ZN20complex_dynamic_type3app17he8fbff4d62a556edE+0xd2>
   2647e:	4817      	ldr	r0, [pc, #92]	@ (264dc <_ZN20complex_dynamic_type3app17he8fbff4d62a556edE+0x124>)
   26480:	2105      	movs	r1, #5
   26482:	2200      	movs	r2, #0
   26484:	4613      	mov	r3, r2
   26486:	df03      	svc	3
   26488:	e004      	b.n	26494 <_ZN20complex_dynamic_type3app17he8fbff4d62a556edE+0xdc>
   2648a:	4814      	ldr	r0, [pc, #80]	@ (264dc <_ZN20complex_dynamic_type3app17he8fbff4d62a556edE+0x124>)
   2648c:	2105      	movs	r1, #5
   2648e:	2200      	movs	r2, #0
   26490:	4613      	mov	r3, r2
   26492:	df04      	svc	4
   26494:	9901      	ldr	r1, [sp, #4]
   26496:	a805      	add	r0, sp, #20
   26498:	7001      	strb	r1, [r0, #0]
   2649a:	a813      	add	r0, sp, #76	@ 0x4c
   2649c:	7800      	ldrb	r0, [r0, #0]
   2649e:	2803      	cmp	r0, #3
   264a0:	d008      	beq.n	264b4 <_ZN20complex_dynamic_type3app17he8fbff4d62a556edE+0xfc>
   264a2:	2802      	cmp	r0, #2
   264a4:	d10c      	bne.n	264c0 <_ZN20complex_dynamic_type3app17he8fbff4d62a556edE+0x108>
   264a6:	1c68      	adds	r0, r5, #1
   264a8:	220f      	movs	r2, #15
   264aa:	9902      	ldr	r1, [sp, #8]
   264ac:	f004 f864 	bl	2a578 <__aeabi_memcpy>
   264b0:	702e      	strb	r6, [r5, #0]
   264b2:	e7dc      	b.n	2646e <_ZN20complex_dynamic_type3app17he8fbff4d62a556edE+0xb6>
   264b4:	4809      	ldr	r0, [pc, #36]	@ (264dc <_ZN20complex_dynamic_type3app17he8fbff4d62a556edE+0x124>)
   264b6:	2103      	movs	r1, #3
   264b8:	2200      	movs	r2, #0
   264ba:	4613      	mov	r3, r2
   264bc:	df03      	svc	3
   264be:	e004      	b.n	264ca <_ZN20complex_dynamic_type3app17he8fbff4d62a556edE+0x112>
   264c0:	4806      	ldr	r0, [pc, #24]	@ (264dc <_ZN20complex_dynamic_type3app17he8fbff4d62a556edE+0x124>)
   264c2:	2103      	movs	r1, #3
   264c4:	2200      	movs	r2, #0
   264c6:	4613      	mov	r3, r2
   264c8:	df04      	svc	4
   264ca:	a805      	add	r0, sp, #20
   264cc:	7804      	ldrb	r4, [r0, #0]
   264ce:	1c68      	adds	r0, r5, #1
   264d0:	220f      	movs	r2, #15
   264d2:	9902      	ldr	r1, [sp, #8]
   264d4:	f004 f850 	bl	2a578 <__aeabi_memcpy>
   264d8:	702e      	strb	r6, [r5, #0]
   264da:	e7bd      	b.n	26458 <_ZN20complex_dynamic_type3app17he8fbff4d62a556edE+0xa0>
   264dc:	00000653 	.word	0x00000653

000264e0 <_ZN20complex_dynamic_type3app17heb20955bd9948d42E>:
   264e0:	b5f0      	push	{r4, r5, r6, r7, lr}
   264e2:	af03      	add	r7, sp, #12
   264e4:	b097      	sub	sp, #92	@ 0x5c
   264e6:	9003      	str	r0, [sp, #12]
   264e8:	a804      	add	r0, sp, #16
   264ea:	2402      	movs	r4, #2
   264ec:	7004      	strb	r4, [r0, #0]
   264ee:	1c46      	adds	r6, r0, #1
   264f0:	2223      	movs	r2, #35	@ 0x23
   264f2:	9202      	str	r2, [sp, #8]
   264f4:	4630      	mov	r0, r6
   264f6:	f004 f83f 	bl	2a578 <__aeabi_memcpy>
   264fa:	ad0d      	add	r5, sp, #52	@ 0x34
   264fc:	1c68      	adds	r0, r5, #1
   264fe:	2124      	movs	r1, #36	@ 0x24
   26500:	9001      	str	r0, [sp, #4]
   26502:	f003 fe79 	bl	2a1f8 <__aeabi_memclr>
   26506:	9400      	str	r4, [sp, #0]
   26508:	702c      	strb	r4, [r5, #0]
   2650a:	483f      	ldr	r0, [pc, #252]	@ (26608 <_ZN20complex_dynamic_type3app17heb20955bd9948d42E+0x128>)
   2650c:	2504      	movs	r5, #4
   2650e:	4629      	mov	r1, r5
   26510:	4632      	mov	r2, r6
   26512:	9b02      	ldr	r3, [sp, #8]
   26514:	df04      	svc	4
   26516:	2802      	cmp	r0, #2
   26518:	d104      	bne.n	26524 <_ZN20complex_dynamic_type3app17heb20955bd9948d42E+0x44>
   2651a:	2001      	movs	r0, #1
   2651c:	9a03      	ldr	r2, [sp, #12]
   2651e:	7010      	strb	r0, [r2, #0]
   26520:	6051      	str	r1, [r2, #4]
   26522:	e02c      	b.n	2657e <_ZN20complex_dynamic_type3app17heb20955bd9948d42E+0x9e>
   26524:	9c03      	ldr	r4, [sp, #12]
   26526:	a804      	add	r0, sp, #16
   26528:	7005      	strb	r5, [r0, #0]
   2652a:	4837      	ldr	r0, [pc, #220]	@ (26608 <_ZN20complex_dynamic_type3app17heb20955bd9948d42E+0x128>)
   2652c:	2108      	movs	r1, #8
   2652e:	2324      	movs	r3, #36	@ 0x24
   26530:	9a01      	ldr	r2, [sp, #4]
   26532:	df03      	svc	3
   26534:	2802      	cmp	r0, #2
   26536:	d10e      	bne.n	26556 <_ZN20complex_dynamic_type3app17heb20955bd9948d42E+0x76>
   26538:	2001      	movs	r0, #1
   2653a:	7020      	strb	r0, [r4, #0]
   2653c:	6061      	str	r1, [r4, #4]
   2653e:	a80d      	add	r0, sp, #52	@ 0x34
   26540:	7800      	ldrb	r0, [r0, #0]
   26542:	2802      	cmp	r0, #2
   26544:	d01b      	beq.n	2657e <_ZN20complex_dynamic_type3app17heb20955bd9948d42E+0x9e>
   26546:	2803      	cmp	r0, #3
   26548:	d014      	beq.n	26574 <_ZN20complex_dynamic_type3app17heb20955bd9948d42E+0x94>
   2654a:	482f      	ldr	r0, [pc, #188]	@ (26608 <_ZN20complex_dynamic_type3app17heb20955bd9948d42E+0x128>)
   2654c:	2108      	movs	r1, #8
   2654e:	2200      	movs	r2, #0
   26550:	4613      	mov	r3, r2
   26552:	df04      	svc	4
   26554:	e013      	b.n	2657e <_ZN20complex_dynamic_type3app17heb20955bd9948d42E+0x9e>
   26556:	a80d      	add	r0, sp, #52	@ 0x34
   26558:	2103      	movs	r1, #3
   2655a:	7001      	strb	r1, [r0, #0]
   2655c:	482a      	ldr	r0, [pc, #168]	@ (26608 <_ZN20complex_dynamic_type3app17heb20955bd9948d42E+0x128>)
   2655e:	2104      	movs	r1, #4
   26560:	2208      	movs	r2, #8
   26562:	2600      	movs	r6, #0
   26564:	4633      	mov	r3, r6
   26566:	df02      	svc	2
   26568:	287f      	cmp	r0, #127	@ 0x7f
   2656a:	4625      	mov	r5, r4
   2656c:	d816      	bhi.n	2659c <_ZN20complex_dynamic_type3app17heb20955bd9948d42E+0xbc>
   2656e:	2001      	movs	r0, #1
   26570:	7028      	strb	r0, [r5, #0]
   26572:	6069      	str	r1, [r5, #4]
   26574:	4824      	ldr	r0, [pc, #144]	@ (26608 <_ZN20complex_dynamic_type3app17heb20955bd9948d42E+0x128>)
   26576:	2108      	movs	r1, #8
   26578:	2200      	movs	r2, #0
   2657a:	4613      	mov	r3, r2
   2657c:	df03      	svc	3
   2657e:	a804      	add	r0, sp, #16
   26580:	7804      	ldrb	r4, [r0, #0]
   26582:	2c02      	cmp	r4, #2
   26584:	d008      	beq.n	26598 <_ZN20complex_dynamic_type3app17heb20955bd9948d42E+0xb8>
   26586:	4820      	ldr	r0, [pc, #128]	@ (26608 <_ZN20complex_dynamic_type3app17heb20955bd9948d42E+0x128>)
   26588:	2104      	movs	r1, #4
   2658a:	2200      	movs	r2, #0
   2658c:	4613      	mov	r3, r2
   2658e:	2c03      	cmp	r4, #3
   26590:	d101      	bne.n	26596 <_ZN20complex_dynamic_type3app17heb20955bd9948d42E+0xb6>
   26592:	df03      	svc	3
   26594:	e000      	b.n	26598 <_ZN20complex_dynamic_type3app17heb20955bd9948d42E+0xb8>
   26596:	df04      	svc	4
   26598:	b017      	add	sp, #92	@ 0x5c
   2659a:	bdf0      	pop	{r4, r5, r6, r7, pc}
   2659c:	a804      	add	r0, sp, #16
   2659e:	7800      	ldrb	r0, [r0, #0]
   265a0:	2802      	cmp	r0, #2
   265a2:	d01c      	beq.n	265de <_ZN20complex_dynamic_type3app17heb20955bd9948d42E+0xfe>
   265a4:	2803      	cmp	r0, #3
   265a6:	d105      	bne.n	265b4 <_ZN20complex_dynamic_type3app17heb20955bd9948d42E+0xd4>
   265a8:	4817      	ldr	r0, [pc, #92]	@ (26608 <_ZN20complex_dynamic_type3app17heb20955bd9948d42E+0x128>)
   265aa:	2104      	movs	r1, #4
   265ac:	2200      	movs	r2, #0
   265ae:	4613      	mov	r3, r2
   265b0:	df03      	svc	3
   265b2:	e004      	b.n	265be <_ZN20complex_dynamic_type3app17heb20955bd9948d42E+0xde>
   265b4:	4814      	ldr	r0, [pc, #80]	@ (26608 <_ZN20complex_dynamic_type3app17heb20955bd9948d42E+0x128>)
   265b6:	2104      	movs	r1, #4
   265b8:	2200      	movs	r2, #0
   265ba:	4613      	mov	r3, r2
   265bc:	df04      	svc	4
   265be:	9900      	ldr	r1, [sp, #0]
   265c0:	a804      	add	r0, sp, #16
   265c2:	7001      	strb	r1, [r0, #0]
   265c4:	a80d      	add	r0, sp, #52	@ 0x34
   265c6:	7800      	ldrb	r0, [r0, #0]
   265c8:	2803      	cmp	r0, #3
   265ca:	d008      	beq.n	265de <_ZN20complex_dynamic_type3app17heb20955bd9948d42E+0xfe>
   265cc:	2802      	cmp	r0, #2
   265ce:	d10c      	bne.n	265ea <_ZN20complex_dynamic_type3app17heb20955bd9948d42E+0x10a>
   265d0:	1c68      	adds	r0, r5, #1
   265d2:	2224      	movs	r2, #36	@ 0x24
   265d4:	9901      	ldr	r1, [sp, #4]
   265d6:	f003 ffcf 	bl	2a578 <__aeabi_memcpy>
   265da:	702e      	strb	r6, [r5, #0]
   265dc:	e7dc      	b.n	26598 <_ZN20complex_dynamic_type3app17heb20955bd9948d42E+0xb8>
   265de:	480a      	ldr	r0, [pc, #40]	@ (26608 <_ZN20complex_dynamic_type3app17heb20955bd9948d42E+0x128>)
   265e0:	2108      	movs	r1, #8
   265e2:	2200      	movs	r2, #0
   265e4:	4613      	mov	r3, r2
   265e6:	df03      	svc	3
   265e8:	e004      	b.n	265f4 <_ZN20complex_dynamic_type3app17heb20955bd9948d42E+0x114>
   265ea:	4807      	ldr	r0, [pc, #28]	@ (26608 <_ZN20complex_dynamic_type3app17heb20955bd9948d42E+0x128>)
   265ec:	2108      	movs	r1, #8
   265ee:	2200      	movs	r2, #0
   265f0:	4613      	mov	r3, r2
   265f2:	df04      	svc	4
   265f4:	a804      	add	r0, sp, #16
   265f6:	7804      	ldrb	r4, [r0, #0]
   265f8:	1c68      	adds	r0, r5, #1
   265fa:	2224      	movs	r2, #36	@ 0x24
   265fc:	9901      	ldr	r1, [sp, #4]
   265fe:	f003 ffbb 	bl	2a578 <__aeabi_memcpy>
   26602:	702e      	strb	r6, [r5, #0]
   26604:	e7bd      	b.n	26582 <_ZN20complex_dynamic_type3app17heb20955bd9948d42E+0xa2>
   26606:	46c0      	nop			@ (mov r8, r8)
   26608:	00001bd6 	.word	0x00001bd6

0002660c <_ZN20complex_dynamic_type3app17hebeb75f4c784f321E>:
   2660c:	b5f0      	push	{r4, r5, r6, r7, lr}
   2660e:	af03      	add	r7, sp, #12
   26610:	b0a9      	sub	sp, #164	@ 0xa4
   26612:	9004      	str	r0, [sp, #16]
   26614:	a805      	add	r0, sp, #20
   26616:	2402      	movs	r4, #2
   26618:	7004      	strb	r4, [r0, #0]
   2661a:	1c46      	adds	r6, r0, #1
   2661c:	2253      	movs	r2, #83	@ 0x53
   2661e:	9203      	str	r2, [sp, #12]
   26620:	4630      	mov	r0, r6
   26622:	f003 ffa9 	bl	2a578 <__aeabi_memcpy>
   26626:	ad1a      	add	r5, sp, #104	@ 0x68
   26628:	1c68      	adds	r0, r5, #1
   2662a:	213a      	movs	r1, #58	@ 0x3a
   2662c:	9002      	str	r0, [sp, #8]
   2662e:	f003 fde3 	bl	2a1f8 <__aeabi_memclr>
   26632:	9401      	str	r4, [sp, #4]
   26634:	702c      	strb	r4, [r5, #0]
   26636:	483f      	ldr	r0, [pc, #252]	@ (26734 <_ZN20complex_dynamic_type3app17hebeb75f4c784f321E+0x128>)
   26638:	2106      	movs	r1, #6
   2663a:	4632      	mov	r2, r6
   2663c:	9b03      	ldr	r3, [sp, #12]
   2663e:	df04      	svc	4
   26640:	2802      	cmp	r0, #2
   26642:	d104      	bne.n	2664e <_ZN20complex_dynamic_type3app17hebeb75f4c784f321E+0x42>
   26644:	2001      	movs	r0, #1
   26646:	9a04      	ldr	r2, [sp, #16]
   26648:	7010      	strb	r0, [r2, #0]
   2664a:	6051      	str	r1, [r2, #4]
   2664c:	e02d      	b.n	266aa <_ZN20complex_dynamic_type3app17hebeb75f4c784f321E+0x9e>
   2664e:	9d04      	ldr	r5, [sp, #16]
   26650:	a805      	add	r0, sp, #20
   26652:	2104      	movs	r1, #4
   26654:	7001      	strb	r1, [r0, #0]
   26656:	4837      	ldr	r0, [pc, #220]	@ (26734 <_ZN20complex_dynamic_type3app17hebeb75f4c784f321E+0x128>)
   26658:	2107      	movs	r1, #7
   2665a:	233a      	movs	r3, #58	@ 0x3a
   2665c:	9c02      	ldr	r4, [sp, #8]
   2665e:	4622      	mov	r2, r4
   26660:	df03      	svc	3
   26662:	2802      	cmp	r0, #2
   26664:	d10e      	bne.n	26684 <_ZN20complex_dynamic_type3app17hebeb75f4c784f321E+0x78>
   26666:	2001      	movs	r0, #1
   26668:	7028      	strb	r0, [r5, #0]
   2666a:	6069      	str	r1, [r5, #4]
   2666c:	a81a      	add	r0, sp, #104	@ 0x68
   2666e:	7800      	ldrb	r0, [r0, #0]
   26670:	2802      	cmp	r0, #2
   26672:	d01a      	beq.n	266aa <_ZN20complex_dynamic_type3app17hebeb75f4c784f321E+0x9e>
   26674:	2803      	cmp	r0, #3
   26676:	d013      	beq.n	266a0 <_ZN20complex_dynamic_type3app17hebeb75f4c784f321E+0x94>
   26678:	482e      	ldr	r0, [pc, #184]	@ (26734 <_ZN20complex_dynamic_type3app17hebeb75f4c784f321E+0x128>)
   2667a:	2107      	movs	r1, #7
   2667c:	2200      	movs	r2, #0
   2667e:	4613      	mov	r3, r2
   26680:	df04      	svc	4
   26682:	e012      	b.n	266aa <_ZN20complex_dynamic_type3app17hebeb75f4c784f321E+0x9e>
   26684:	a81a      	add	r0, sp, #104	@ 0x68
   26686:	2103      	movs	r1, #3
   26688:	7001      	strb	r1, [r0, #0]
   2668a:	482a      	ldr	r0, [pc, #168]	@ (26734 <_ZN20complex_dynamic_type3app17hebeb75f4c784f321E+0x128>)
   2668c:	2106      	movs	r1, #6
   2668e:	2207      	movs	r2, #7
   26690:	2600      	movs	r6, #0
   26692:	4633      	mov	r3, r6
   26694:	df02      	svc	2
   26696:	287f      	cmp	r0, #127	@ 0x7f
   26698:	d816      	bhi.n	266c8 <_ZN20complex_dynamic_type3app17hebeb75f4c784f321E+0xbc>
   2669a:	2001      	movs	r0, #1
   2669c:	7028      	strb	r0, [r5, #0]
   2669e:	6069      	str	r1, [r5, #4]
   266a0:	4824      	ldr	r0, [pc, #144]	@ (26734 <_ZN20complex_dynamic_type3app17hebeb75f4c784f321E+0x128>)
   266a2:	2107      	movs	r1, #7
   266a4:	2200      	movs	r2, #0
   266a6:	4613      	mov	r3, r2
   266a8:	df03      	svc	3
   266aa:	a805      	add	r0, sp, #20
   266ac:	7804      	ldrb	r4, [r0, #0]
   266ae:	2c02      	cmp	r4, #2
   266b0:	d008      	beq.n	266c4 <_ZN20complex_dynamic_type3app17hebeb75f4c784f321E+0xb8>
   266b2:	4820      	ldr	r0, [pc, #128]	@ (26734 <_ZN20complex_dynamic_type3app17hebeb75f4c784f321E+0x128>)
   266b4:	2106      	movs	r1, #6
   266b6:	2200      	movs	r2, #0
   266b8:	4613      	mov	r3, r2
   266ba:	2c03      	cmp	r4, #3
   266bc:	d101      	bne.n	266c2 <_ZN20complex_dynamic_type3app17hebeb75f4c784f321E+0xb6>
   266be:	df03      	svc	3
   266c0:	e000      	b.n	266c4 <_ZN20complex_dynamic_type3app17hebeb75f4c784f321E+0xb8>
   266c2:	df04      	svc	4
   266c4:	b029      	add	sp, #164	@ 0xa4
   266c6:	bdf0      	pop	{r4, r5, r6, r7, pc}
   266c8:	a805      	add	r0, sp, #20
   266ca:	7800      	ldrb	r0, [r0, #0]
   266cc:	2802      	cmp	r0, #2
   266ce:	d01c      	beq.n	2670a <_ZN20complex_dynamic_type3app17hebeb75f4c784f321E+0xfe>
   266d0:	2803      	cmp	r0, #3
   266d2:	d105      	bne.n	266e0 <_ZN20complex_dynamic_type3app17hebeb75f4c784f321E+0xd4>
   266d4:	4817      	ldr	r0, [pc, #92]	@ (26734 <_ZN20complex_dynamic_type3app17hebeb75f4c784f321E+0x128>)
   266d6:	2106      	movs	r1, #6
   266d8:	2200      	movs	r2, #0
   266da:	4613      	mov	r3, r2
   266dc:	df03      	svc	3
   266de:	e004      	b.n	266ea <_ZN20complex_dynamic_type3app17hebeb75f4c784f321E+0xde>
   266e0:	4814      	ldr	r0, [pc, #80]	@ (26734 <_ZN20complex_dynamic_type3app17hebeb75f4c784f321E+0x128>)
   266e2:	2106      	movs	r1, #6
   266e4:	2200      	movs	r2, #0
   266e6:	4613      	mov	r3, r2
   266e8:	df04      	svc	4
   266ea:	a805      	add	r0, sp, #20
   266ec:	9901      	ldr	r1, [sp, #4]
   266ee:	7001      	strb	r1, [r0, #0]
   266f0:	a81a      	add	r0, sp, #104	@ 0x68
   266f2:	7800      	ldrb	r0, [r0, #0]
   266f4:	2803      	cmp	r0, #3
   266f6:	d008      	beq.n	2670a <_ZN20complex_dynamic_type3app17hebeb75f4c784f321E+0xfe>
   266f8:	2802      	cmp	r0, #2
   266fa:	d10c      	bne.n	26716 <_ZN20complex_dynamic_type3app17hebeb75f4c784f321E+0x10a>
   266fc:	1c68      	adds	r0, r5, #1
   266fe:	223a      	movs	r2, #58	@ 0x3a
   26700:	4621      	mov	r1, r4
   26702:	f003 ff39 	bl	2a578 <__aeabi_memcpy>
   26706:	702e      	strb	r6, [r5, #0]
   26708:	e7dc      	b.n	266c4 <_ZN20complex_dynamic_type3app17hebeb75f4c784f321E+0xb8>
   2670a:	480a      	ldr	r0, [pc, #40]	@ (26734 <_ZN20complex_dynamic_type3app17hebeb75f4c784f321E+0x128>)
   2670c:	2107      	movs	r1, #7
   2670e:	2200      	movs	r2, #0
   26710:	4613      	mov	r3, r2
   26712:	df03      	svc	3
   26714:	e004      	b.n	26720 <_ZN20complex_dynamic_type3app17hebeb75f4c784f321E+0x114>
   26716:	4807      	ldr	r0, [pc, #28]	@ (26734 <_ZN20complex_dynamic_type3app17hebeb75f4c784f321E+0x128>)
   26718:	2107      	movs	r1, #7
   2671a:	2200      	movs	r2, #0
   2671c:	4613      	mov	r3, r2
   2671e:	df04      	svc	4
   26720:	a805      	add	r0, sp, #20
   26722:	7804      	ldrb	r4, [r0, #0]
   26724:	1c68      	adds	r0, r5, #1
   26726:	223a      	movs	r2, #58	@ 0x3a
   26728:	9902      	ldr	r1, [sp, #8]
   2672a:	f003 ff25 	bl	2a578 <__aeabi_memcpy>
   2672e:	702e      	strb	r6, [r5, #0]
   26730:	e7bd      	b.n	266ae <_ZN20complex_dynamic_type3app17hebeb75f4c784f321E+0xa2>
   26732:	46c0      	nop			@ (mov r8, r8)
   26734:	00002645 	.word	0x00002645

00026738 <_ZN20complex_dynamic_type3app17hed3e9183041b6e58E>:
   26738:	b5f0      	push	{r4, r5, r6, r7, lr}
   2673a:	af03      	add	r7, sp, #12
   2673c:	b0a9      	sub	sp, #164	@ 0xa4
   2673e:	9004      	str	r0, [sp, #16]
   26740:	a805      	add	r0, sp, #20
   26742:	2402      	movs	r4, #2
   26744:	7004      	strb	r4, [r0, #0]
   26746:	1c46      	adds	r6, r0, #1
   26748:	222a      	movs	r2, #42	@ 0x2a
   2674a:	9203      	str	r2, [sp, #12]
   2674c:	4630      	mov	r0, r6
   2674e:	f003 ff13 	bl	2a578 <__aeabi_memcpy>
   26752:	ad10      	add	r5, sp, #64	@ 0x40
   26754:	1c68      	adds	r0, r5, #1
   26756:	2163      	movs	r1, #99	@ 0x63
   26758:	9002      	str	r0, [sp, #8]
   2675a:	f003 fd4d 	bl	2a1f8 <__aeabi_memclr>
   2675e:	9401      	str	r4, [sp, #4]
   26760:	702c      	strb	r4, [r5, #0]
   26762:	483f      	ldr	r0, [pc, #252]	@ (26860 <_ZN20complex_dynamic_type3app17hed3e9183041b6e58E+0x128>)
   26764:	2504      	movs	r5, #4
   26766:	4629      	mov	r1, r5
   26768:	4632      	mov	r2, r6
   2676a:	9b03      	ldr	r3, [sp, #12]
   2676c:	df04      	svc	4
   2676e:	2802      	cmp	r0, #2
   26770:	d104      	bne.n	2677c <_ZN20complex_dynamic_type3app17hed3e9183041b6e58E+0x44>
   26772:	2001      	movs	r0, #1
   26774:	9a04      	ldr	r2, [sp, #16]
   26776:	7010      	strb	r0, [r2, #0]
   26778:	6051      	str	r1, [r2, #4]
   2677a:	e02c      	b.n	267d6 <_ZN20complex_dynamic_type3app17hed3e9183041b6e58E+0x9e>
   2677c:	9c04      	ldr	r4, [sp, #16]
   2677e:	a805      	add	r0, sp, #20
   26780:	7005      	strb	r5, [r0, #0]
   26782:	4837      	ldr	r0, [pc, #220]	@ (26860 <_ZN20complex_dynamic_type3app17hed3e9183041b6e58E+0x128>)
   26784:	2100      	movs	r1, #0
   26786:	2363      	movs	r3, #99	@ 0x63
   26788:	9a02      	ldr	r2, [sp, #8]
   2678a:	df03      	svc	3
   2678c:	2802      	cmp	r0, #2
   2678e:	d10e      	bne.n	267ae <_ZN20complex_dynamic_type3app17hed3e9183041b6e58E+0x76>
   26790:	2001      	movs	r0, #1
   26792:	7020      	strb	r0, [r4, #0]
   26794:	6061      	str	r1, [r4, #4]
   26796:	a810      	add	r0, sp, #64	@ 0x40
   26798:	7800      	ldrb	r0, [r0, #0]
   2679a:	2802      	cmp	r0, #2
   2679c:	d01b      	beq.n	267d6 <_ZN20complex_dynamic_type3app17hed3e9183041b6e58E+0x9e>
   2679e:	2803      	cmp	r0, #3
   267a0:	d014      	beq.n	267cc <_ZN20complex_dynamic_type3app17hed3e9183041b6e58E+0x94>
   267a2:	482f      	ldr	r0, [pc, #188]	@ (26860 <_ZN20complex_dynamic_type3app17hed3e9183041b6e58E+0x128>)
   267a4:	2100      	movs	r1, #0
   267a6:	460a      	mov	r2, r1
   267a8:	460b      	mov	r3, r1
   267aa:	df04      	svc	4
   267ac:	e013      	b.n	267d6 <_ZN20complex_dynamic_type3app17hed3e9183041b6e58E+0x9e>
   267ae:	a810      	add	r0, sp, #64	@ 0x40
   267b0:	2103      	movs	r1, #3
   267b2:	7001      	strb	r1, [r0, #0]
   267b4:	482a      	ldr	r0, [pc, #168]	@ (26860 <_ZN20complex_dynamic_type3app17hed3e9183041b6e58E+0x128>)
   267b6:	2104      	movs	r1, #4
   267b8:	2600      	movs	r6, #0
   267ba:	4632      	mov	r2, r6
   267bc:	4633      	mov	r3, r6
   267be:	df02      	svc	2
   267c0:	287f      	cmp	r0, #127	@ 0x7f
   267c2:	4625      	mov	r5, r4
   267c4:	d816      	bhi.n	267f4 <_ZN20complex_dynamic_type3app17hed3e9183041b6e58E+0xbc>
   267c6:	2001      	movs	r0, #1
   267c8:	7028      	strb	r0, [r5, #0]
   267ca:	6069      	str	r1, [r5, #4]
   267cc:	4824      	ldr	r0, [pc, #144]	@ (26860 <_ZN20complex_dynamic_type3app17hed3e9183041b6e58E+0x128>)
   267ce:	2100      	movs	r1, #0
   267d0:	460a      	mov	r2, r1
   267d2:	460b      	mov	r3, r1
   267d4:	df03      	svc	3
   267d6:	a805      	add	r0, sp, #20
   267d8:	7804      	ldrb	r4, [r0, #0]
   267da:	2c02      	cmp	r4, #2
   267dc:	d008      	beq.n	267f0 <_ZN20complex_dynamic_type3app17hed3e9183041b6e58E+0xb8>
   267de:	4820      	ldr	r0, [pc, #128]	@ (26860 <_ZN20complex_dynamic_type3app17hed3e9183041b6e58E+0x128>)
   267e0:	2104      	movs	r1, #4
   267e2:	2200      	movs	r2, #0
   267e4:	4613      	mov	r3, r2
   267e6:	2c03      	cmp	r4, #3
   267e8:	d101      	bne.n	267ee <_ZN20complex_dynamic_type3app17hed3e9183041b6e58E+0xb6>
   267ea:	df03      	svc	3
   267ec:	e000      	b.n	267f0 <_ZN20complex_dynamic_type3app17hed3e9183041b6e58E+0xb8>
   267ee:	df04      	svc	4
   267f0:	b029      	add	sp, #164	@ 0xa4
   267f2:	bdf0      	pop	{r4, r5, r6, r7, pc}
   267f4:	a805      	add	r0, sp, #20
   267f6:	7800      	ldrb	r0, [r0, #0]
   267f8:	2802      	cmp	r0, #2
   267fa:	d01c      	beq.n	26836 <_ZN20complex_dynamic_type3app17hed3e9183041b6e58E+0xfe>
   267fc:	2803      	cmp	r0, #3
   267fe:	d105      	bne.n	2680c <_ZN20complex_dynamic_type3app17hed3e9183041b6e58E+0xd4>
   26800:	4817      	ldr	r0, [pc, #92]	@ (26860 <_ZN20complex_dynamic_type3app17hed3e9183041b6e58E+0x128>)
   26802:	2104      	movs	r1, #4
   26804:	2200      	movs	r2, #0
   26806:	4613      	mov	r3, r2
   26808:	df03      	svc	3
   2680a:	e004      	b.n	26816 <_ZN20complex_dynamic_type3app17hed3e9183041b6e58E+0xde>
   2680c:	4814      	ldr	r0, [pc, #80]	@ (26860 <_ZN20complex_dynamic_type3app17hed3e9183041b6e58E+0x128>)
   2680e:	2104      	movs	r1, #4
   26810:	2200      	movs	r2, #0
   26812:	4613      	mov	r3, r2
   26814:	df04      	svc	4
   26816:	9901      	ldr	r1, [sp, #4]
   26818:	a805      	add	r0, sp, #20
   2681a:	7001      	strb	r1, [r0, #0]
   2681c:	a810      	add	r0, sp, #64	@ 0x40
   2681e:	7800      	ldrb	r0, [r0, #0]
   26820:	2803      	cmp	r0, #3
   26822:	d008      	beq.n	26836 <_ZN20complex_dynamic_type3app17hed3e9183041b6e58E+0xfe>
   26824:	2802      	cmp	r0, #2
   26826:	d10c      	bne.n	26842 <_ZN20complex_dynamic_type3app17hed3e9183041b6e58E+0x10a>
   26828:	1c68      	adds	r0, r5, #1
   2682a:	2263      	movs	r2, #99	@ 0x63
   2682c:	9902      	ldr	r1, [sp, #8]
   2682e:	f003 fea3 	bl	2a578 <__aeabi_memcpy>
   26832:	702e      	strb	r6, [r5, #0]
   26834:	e7dc      	b.n	267f0 <_ZN20complex_dynamic_type3app17hed3e9183041b6e58E+0xb8>
   26836:	480a      	ldr	r0, [pc, #40]	@ (26860 <_ZN20complex_dynamic_type3app17hed3e9183041b6e58E+0x128>)
   26838:	2100      	movs	r1, #0
   2683a:	460a      	mov	r2, r1
   2683c:	460b      	mov	r3, r1
   2683e:	df03      	svc	3
   26840:	e004      	b.n	2684c <_ZN20complex_dynamic_type3app17hed3e9183041b6e58E+0x114>
   26842:	4807      	ldr	r0, [pc, #28]	@ (26860 <_ZN20complex_dynamic_type3app17hed3e9183041b6e58E+0x128>)
   26844:	2100      	movs	r1, #0
   26846:	460a      	mov	r2, r1
   26848:	460b      	mov	r3, r1
   2684a:	df04      	svc	4
   2684c:	a805      	add	r0, sp, #20
   2684e:	7804      	ldrb	r4, [r0, #0]
   26850:	1c68      	adds	r0, r5, #1
   26852:	2263      	movs	r2, #99	@ 0x63
   26854:	9902      	ldr	r1, [sp, #8]
   26856:	f003 fe8f 	bl	2a578 <__aeabi_memcpy>
   2685a:	702e      	strb	r6, [r5, #0]
   2685c:	e7bd      	b.n	267da <_ZN20complex_dynamic_type3app17hed3e9183041b6e58E+0xa2>
   2685e:	46c0      	nop			@ (mov r8, r8)
   26860:	00001c7c 	.word	0x00001c7c

00026864 <_ZN20complex_dynamic_type3app17hf02017a81f6c8a98E>:
   26864:	b5f0      	push	{r4, r5, r6, r7, lr}
   26866:	af03      	add	r7, sp, #12
   26868:	b09d      	sub	sp, #116	@ 0x74
   2686a:	9003      	str	r0, [sp, #12]
   2686c:	a804      	add	r0, sp, #16
   2686e:	2402      	movs	r4, #2
   26870:	7004      	strb	r4, [r0, #0]
   26872:	1c46      	adds	r6, r0, #1
   26874:	2251      	movs	r2, #81	@ 0x51
   26876:	9202      	str	r2, [sp, #8]
   26878:	4630      	mov	r0, r6
   2687a:	f003 fe7d 	bl	2a578 <__aeabi_memcpy>
   2687e:	ad19      	add	r5, sp, #100	@ 0x64
   26880:	1c68      	adds	r0, r5, #1
   26882:	210f      	movs	r1, #15
   26884:	9001      	str	r0, [sp, #4]
   26886:	f003 fcb7 	bl	2a1f8 <__aeabi_memclr>
   2688a:	9400      	str	r4, [sp, #0]
   2688c:	702c      	strb	r4, [r5, #0]
   2688e:	483e      	ldr	r0, [pc, #248]	@ (26988 <_ZN20complex_dynamic_type3app17hf02017a81f6c8a98E+0x124>)
   26890:	2100      	movs	r1, #0
   26892:	4632      	mov	r2, r6
   26894:	9b02      	ldr	r3, [sp, #8]
   26896:	df04      	svc	4
   26898:	2802      	cmp	r0, #2
   2689a:	d104      	bne.n	268a6 <_ZN20complex_dynamic_type3app17hf02017a81f6c8a98E+0x42>
   2689c:	2001      	movs	r0, #1
   2689e:	9a03      	ldr	r2, [sp, #12]
   268a0:	7010      	strb	r0, [r2, #0]
   268a2:	6051      	str	r1, [r2, #4]
   268a4:	e02c      	b.n	26900 <_ZN20complex_dynamic_type3app17hf02017a81f6c8a98E+0x9c>
   268a6:	9d03      	ldr	r5, [sp, #12]
   268a8:	a804      	add	r0, sp, #16
   268aa:	2104      	movs	r1, #4
   268ac:	7001      	strb	r1, [r0, #0]
   268ae:	4836      	ldr	r0, [pc, #216]	@ (26988 <_ZN20complex_dynamic_type3app17hf02017a81f6c8a98E+0x124>)
   268b0:	2403      	movs	r4, #3
   268b2:	230f      	movs	r3, #15
   268b4:	4621      	mov	r1, r4
   268b6:	9a01      	ldr	r2, [sp, #4]
   268b8:	df03      	svc	3
   268ba:	2802      	cmp	r0, #2
   268bc:	d10e      	bne.n	268dc <_ZN20complex_dynamic_type3app17hf02017a81f6c8a98E+0x78>
   268be:	2001      	movs	r0, #1
   268c0:	7028      	strb	r0, [r5, #0]
   268c2:	6069      	str	r1, [r5, #4]
   268c4:	a819      	add	r0, sp, #100	@ 0x64
   268c6:	7800      	ldrb	r0, [r0, #0]
   268c8:	2802      	cmp	r0, #2
   268ca:	d019      	beq.n	26900 <_ZN20complex_dynamic_type3app17hf02017a81f6c8a98E+0x9c>
   268cc:	2803      	cmp	r0, #3
   268ce:	d012      	beq.n	268f6 <_ZN20complex_dynamic_type3app17hf02017a81f6c8a98E+0x92>
   268d0:	482d      	ldr	r0, [pc, #180]	@ (26988 <_ZN20complex_dynamic_type3app17hf02017a81f6c8a98E+0x124>)
   268d2:	2103      	movs	r1, #3
   268d4:	2200      	movs	r2, #0
   268d6:	4613      	mov	r3, r2
   268d8:	df04      	svc	4
   268da:	e011      	b.n	26900 <_ZN20complex_dynamic_type3app17hf02017a81f6c8a98E+0x9c>
   268dc:	a819      	add	r0, sp, #100	@ 0x64
   268de:	7004      	strb	r4, [r0, #0]
   268e0:	4829      	ldr	r0, [pc, #164]	@ (26988 <_ZN20complex_dynamic_type3app17hf02017a81f6c8a98E+0x124>)
   268e2:	2600      	movs	r6, #0
   268e4:	4631      	mov	r1, r6
   268e6:	4622      	mov	r2, r4
   268e8:	4633      	mov	r3, r6
   268ea:	df02      	svc	2
   268ec:	287f      	cmp	r0, #127	@ 0x7f
   268ee:	d816      	bhi.n	2691e <_ZN20complex_dynamic_type3app17hf02017a81f6c8a98E+0xba>
   268f0:	2001      	movs	r0, #1
   268f2:	7028      	strb	r0, [r5, #0]
   268f4:	6069      	str	r1, [r5, #4]
   268f6:	4824      	ldr	r0, [pc, #144]	@ (26988 <_ZN20complex_dynamic_type3app17hf02017a81f6c8a98E+0x124>)
   268f8:	2103      	movs	r1, #3
   268fa:	2200      	movs	r2, #0
   268fc:	4613      	mov	r3, r2
   268fe:	df03      	svc	3
   26900:	a804      	add	r0, sp, #16
   26902:	7804      	ldrb	r4, [r0, #0]
   26904:	2c02      	cmp	r4, #2
   26906:	d008      	beq.n	2691a <_ZN20complex_dynamic_type3app17hf02017a81f6c8a98E+0xb6>
   26908:	481f      	ldr	r0, [pc, #124]	@ (26988 <_ZN20complex_dynamic_type3app17hf02017a81f6c8a98E+0x124>)
   2690a:	2100      	movs	r1, #0
   2690c:	460a      	mov	r2, r1
   2690e:	460b      	mov	r3, r1
   26910:	2c03      	cmp	r4, #3
   26912:	d101      	bne.n	26918 <_ZN20complex_dynamic_type3app17hf02017a81f6c8a98E+0xb4>
   26914:	df03      	svc	3
   26916:	e000      	b.n	2691a <_ZN20complex_dynamic_type3app17hf02017a81f6c8a98E+0xb6>
   26918:	df04      	svc	4
   2691a:	b01d      	add	sp, #116	@ 0x74
   2691c:	bdf0      	pop	{r4, r5, r6, r7, pc}
   2691e:	a804      	add	r0, sp, #16
   26920:	7800      	ldrb	r0, [r0, #0]
   26922:	2802      	cmp	r0, #2
   26924:	d01c      	beq.n	26960 <_ZN20complex_dynamic_type3app17hf02017a81f6c8a98E+0xfc>
   26926:	2803      	cmp	r0, #3
   26928:	d105      	bne.n	26936 <_ZN20complex_dynamic_type3app17hf02017a81f6c8a98E+0xd2>
   2692a:	4817      	ldr	r0, [pc, #92]	@ (26988 <_ZN20complex_dynamic_type3app17hf02017a81f6c8a98E+0x124>)
   2692c:	2100      	movs	r1, #0
   2692e:	460a      	mov	r2, r1
   26930:	460b      	mov	r3, r1
   26932:	df03      	svc	3
   26934:	e004      	b.n	26940 <_ZN20complex_dynamic_type3app17hf02017a81f6c8a98E+0xdc>
   26936:	4814      	ldr	r0, [pc, #80]	@ (26988 <_ZN20complex_dynamic_type3app17hf02017a81f6c8a98E+0x124>)
   26938:	2100      	movs	r1, #0
   2693a:	460a      	mov	r2, r1
   2693c:	460b      	mov	r3, r1
   2693e:	df04      	svc	4
   26940:	9900      	ldr	r1, [sp, #0]
   26942:	a804      	add	r0, sp, #16
   26944:	7001      	strb	r1, [r0, #0]
   26946:	a819      	add	r0, sp, #100	@ 0x64
   26948:	7800      	ldrb	r0, [r0, #0]
   2694a:	2803      	cmp	r0, #3
   2694c:	d008      	beq.n	26960 <_ZN20complex_dynamic_type3app17hf02017a81f6c8a98E+0xfc>
   2694e:	2802      	cmp	r0, #2
   26950:	d10c      	bne.n	2696c <_ZN20complex_dynamic_type3app17hf02017a81f6c8a98E+0x108>
   26952:	1c68      	adds	r0, r5, #1
   26954:	220f      	movs	r2, #15
   26956:	9901      	ldr	r1, [sp, #4]
   26958:	f003 fe0e 	bl	2a578 <__aeabi_memcpy>
   2695c:	702e      	strb	r6, [r5, #0]
   2695e:	e7dc      	b.n	2691a <_ZN20complex_dynamic_type3app17hf02017a81f6c8a98E+0xb6>
   26960:	4809      	ldr	r0, [pc, #36]	@ (26988 <_ZN20complex_dynamic_type3app17hf02017a81f6c8a98E+0x124>)
   26962:	2103      	movs	r1, #3
   26964:	2200      	movs	r2, #0
   26966:	4613      	mov	r3, r2
   26968:	df03      	svc	3
   2696a:	e004      	b.n	26976 <_ZN20complex_dynamic_type3app17hf02017a81f6c8a98E+0x112>
   2696c:	4806      	ldr	r0, [pc, #24]	@ (26988 <_ZN20complex_dynamic_type3app17hf02017a81f6c8a98E+0x124>)
   2696e:	2103      	movs	r1, #3
   26970:	2200      	movs	r2, #0
   26972:	4613      	mov	r3, r2
   26974:	df04      	svc	4
   26976:	a804      	add	r0, sp, #16
   26978:	7804      	ldrb	r4, [r0, #0]
   2697a:	1c68      	adds	r0, r5, #1
   2697c:	220f      	movs	r2, #15
   2697e:	9901      	ldr	r1, [sp, #4]
   26980:	f003 fdfa 	bl	2a578 <__aeabi_memcpy>
   26984:	702e      	strb	r6, [r5, #0]
   26986:	e7bd      	b.n	26904 <_ZN20complex_dynamic_type3app17hf02017a81f6c8a98E+0xa0>
   26988:	000013bf 	.word	0x000013bf

0002698c <_ZN20complex_dynamic_type3app17hf14be92c05ff7282E>:
   2698c:	b5f0      	push	{r4, r5, r6, r7, lr}
   2698e:	af03      	add	r7, sp, #12
   26990:	b0a1      	sub	sp, #132	@ 0x84
   26992:	9003      	str	r0, [sp, #12]
   26994:	a804      	add	r0, sp, #16
   26996:	2602      	movs	r6, #2
   26998:	7006      	strb	r6, [r0, #0]
   2699a:	1c40      	adds	r0, r0, #1
   2699c:	9002      	str	r0, [sp, #8]
   2699e:	251e      	movs	r5, #30
   269a0:	462a      	mov	r2, r5
   269a2:	f003 fde9 	bl	2a578 <__aeabi_memcpy>
   269a6:	ac0c      	add	r4, sp, #48	@ 0x30
   269a8:	1c60      	adds	r0, r4, #1
   269aa:	2151      	movs	r1, #81	@ 0x51
   269ac:	9001      	str	r0, [sp, #4]
   269ae:	f003 fc23 	bl	2a1f8 <__aeabi_memclr>
   269b2:	7026      	strb	r6, [r4, #0]
   269b4:	4841      	ldr	r0, [pc, #260]	@ (26abc <_ZN20complex_dynamic_type3app17hf14be92c05ff7282E+0x130>)
   269b6:	4631      	mov	r1, r6
   269b8:	9a02      	ldr	r2, [sp, #8]
   269ba:	462b      	mov	r3, r5
   269bc:	df04      	svc	4
   269be:	2802      	cmp	r0, #2
   269c0:	d104      	bne.n	269cc <_ZN20complex_dynamic_type3app17hf14be92c05ff7282E+0x40>
   269c2:	2001      	movs	r0, #1
   269c4:	9a03      	ldr	r2, [sp, #12]
   269c6:	7010      	strb	r0, [r2, #0]
   269c8:	6051      	str	r1, [r2, #4]
   269ca:	e02e      	b.n	26a2a <_ZN20complex_dynamic_type3app17hf14be92c05ff7282E+0x9e>
   269cc:	9c03      	ldr	r4, [sp, #12]
   269ce:	a804      	add	r0, sp, #16
   269d0:	2104      	movs	r1, #4
   269d2:	7001      	strb	r1, [r0, #0]
   269d4:	4839      	ldr	r0, [pc, #228]	@ (26abc <_ZN20complex_dynamic_type3app17hf14be92c05ff7282E+0x130>)
   269d6:	2100      	movs	r1, #0
   269d8:	2351      	movs	r3, #81	@ 0x51
   269da:	9d01      	ldr	r5, [sp, #4]
   269dc:	462a      	mov	r2, r5
   269de:	df03      	svc	3
   269e0:	2802      	cmp	r0, #2
   269e2:	d10e      	bne.n	26a02 <_ZN20complex_dynamic_type3app17hf14be92c05ff7282E+0x76>
   269e4:	2001      	movs	r0, #1
   269e6:	7020      	strb	r0, [r4, #0]
   269e8:	6061      	str	r1, [r4, #4]
   269ea:	a80c      	add	r0, sp, #48	@ 0x30
   269ec:	7800      	ldrb	r0, [r0, #0]
   269ee:	2802      	cmp	r0, #2
   269f0:	d01b      	beq.n	26a2a <_ZN20complex_dynamic_type3app17hf14be92c05ff7282E+0x9e>
   269f2:	2803      	cmp	r0, #3
   269f4:	d014      	beq.n	26a20 <_ZN20complex_dynamic_type3app17hf14be92c05ff7282E+0x94>
   269f6:	4831      	ldr	r0, [pc, #196]	@ (26abc <_ZN20complex_dynamic_type3app17hf14be92c05ff7282E+0x130>)
   269f8:	2100      	movs	r1, #0
   269fa:	460a      	mov	r2, r1
   269fc:	460b      	mov	r3, r1
   269fe:	df04      	svc	4
   26a00:	e013      	b.n	26a2a <_ZN20complex_dynamic_type3app17hf14be92c05ff7282E+0x9e>
   26a02:	a80c      	add	r0, sp, #48	@ 0x30
   26a04:	2103      	movs	r1, #3
   26a06:	7001      	strb	r1, [r0, #0]
   26a08:	482c      	ldr	r0, [pc, #176]	@ (26abc <_ZN20complex_dynamic_type3app17hf14be92c05ff7282E+0x130>)
   26a0a:	2602      	movs	r6, #2
   26a0c:	2200      	movs	r2, #0
   26a0e:	4631      	mov	r1, r6
   26a10:	9202      	str	r2, [sp, #8]
   26a12:	4613      	mov	r3, r2
   26a14:	df02      	svc	2
   26a16:	287f      	cmp	r0, #127	@ 0x7f
   26a18:	d816      	bhi.n	26a48 <_ZN20complex_dynamic_type3app17hf14be92c05ff7282E+0xbc>
   26a1a:	2001      	movs	r0, #1
   26a1c:	7020      	strb	r0, [r4, #0]
   26a1e:	6061      	str	r1, [r4, #4]
   26a20:	4826      	ldr	r0, [pc, #152]	@ (26abc <_ZN20complex_dynamic_type3app17hf14be92c05ff7282E+0x130>)
   26a22:	2100      	movs	r1, #0
   26a24:	460a      	mov	r2, r1
   26a26:	460b      	mov	r3, r1
   26a28:	df03      	svc	3
   26a2a:	a804      	add	r0, sp, #16
   26a2c:	7804      	ldrb	r4, [r0, #0]
   26a2e:	2c02      	cmp	r4, #2
   26a30:	d008      	beq.n	26a44 <_ZN20complex_dynamic_type3app17hf14be92c05ff7282E+0xb8>
   26a32:	4822      	ldr	r0, [pc, #136]	@ (26abc <_ZN20complex_dynamic_type3app17hf14be92c05ff7282E+0x130>)
   26a34:	2102      	movs	r1, #2
   26a36:	2200      	movs	r2, #0
   26a38:	4613      	mov	r3, r2
   26a3a:	2c03      	cmp	r4, #3
   26a3c:	d101      	bne.n	26a42 <_ZN20complex_dynamic_type3app17hf14be92c05ff7282E+0xb6>
   26a3e:	df03      	svc	3
   26a40:	e000      	b.n	26a44 <_ZN20complex_dynamic_type3app17hf14be92c05ff7282E+0xb8>
   26a42:	df04      	svc	4
   26a44:	b021      	add	sp, #132	@ 0x84
   26a46:	bdf0      	pop	{r4, r5, r6, r7, pc}
   26a48:	a804      	add	r0, sp, #16
   26a4a:	7800      	ldrb	r0, [r0, #0]
   26a4c:	2802      	cmp	r0, #2
   26a4e:	d01c      	beq.n	26a8a <_ZN20complex_dynamic_type3app17hf14be92c05ff7282E+0xfe>
   26a50:	2803      	cmp	r0, #3
   26a52:	d105      	bne.n	26a60 <_ZN20complex_dynamic_type3app17hf14be92c05ff7282E+0xd4>
   26a54:	4819      	ldr	r0, [pc, #100]	@ (26abc <_ZN20complex_dynamic_type3app17hf14be92c05ff7282E+0x130>)
   26a56:	2102      	movs	r1, #2
   26a58:	2200      	movs	r2, #0
   26a5a:	4613      	mov	r3, r2
   26a5c:	df03      	svc	3
   26a5e:	e004      	b.n	26a6a <_ZN20complex_dynamic_type3app17hf14be92c05ff7282E+0xde>
   26a60:	4816      	ldr	r0, [pc, #88]	@ (26abc <_ZN20complex_dynamic_type3app17hf14be92c05ff7282E+0x130>)
   26a62:	2102      	movs	r1, #2
   26a64:	2200      	movs	r2, #0
   26a66:	4613      	mov	r3, r2
   26a68:	df04      	svc	4
   26a6a:	a804      	add	r0, sp, #16
   26a6c:	7006      	strb	r6, [r0, #0]
   26a6e:	a80c      	add	r0, sp, #48	@ 0x30
   26a70:	7800      	ldrb	r0, [r0, #0]
   26a72:	2803      	cmp	r0, #3
   26a74:	d009      	beq.n	26a8a <_ZN20complex_dynamic_type3app17hf14be92c05ff7282E+0xfe>
   26a76:	2802      	cmp	r0, #2
   26a78:	d10e      	bne.n	26a98 <_ZN20complex_dynamic_type3app17hf14be92c05ff7282E+0x10c>
   26a7a:	1c60      	adds	r0, r4, #1
   26a7c:	2251      	movs	r2, #81	@ 0x51
   26a7e:	4629      	mov	r1, r5
   26a80:	f003 fd7a 	bl	2a578 <__aeabi_memcpy>
   26a84:	9802      	ldr	r0, [sp, #8]
   26a86:	7020      	strb	r0, [r4, #0]
   26a88:	e7dc      	b.n	26a44 <_ZN20complex_dynamic_type3app17hf14be92c05ff7282E+0xb8>
   26a8a:	462e      	mov	r6, r5
   26a8c:	480b      	ldr	r0, [pc, #44]	@ (26abc <_ZN20complex_dynamic_type3app17hf14be92c05ff7282E+0x130>)
   26a8e:	2100      	movs	r1, #0
   26a90:	460a      	mov	r2, r1
   26a92:	460b      	mov	r3, r1
   26a94:	df03      	svc	3
   26a96:	e005      	b.n	26aa4 <_ZN20complex_dynamic_type3app17hf14be92c05ff7282E+0x118>
   26a98:	462e      	mov	r6, r5
   26a9a:	4808      	ldr	r0, [pc, #32]	@ (26abc <_ZN20complex_dynamic_type3app17hf14be92c05ff7282E+0x130>)
   26a9c:	2100      	movs	r1, #0
   26a9e:	460a      	mov	r2, r1
   26aa0:	460b      	mov	r3, r1
   26aa2:	df04      	svc	4
   26aa4:	4625      	mov	r5, r4
   26aa6:	a804      	add	r0, sp, #16
   26aa8:	7804      	ldrb	r4, [r0, #0]
   26aaa:	1c68      	adds	r0, r5, #1
   26aac:	2251      	movs	r2, #81	@ 0x51
   26aae:	4631      	mov	r1, r6
   26ab0:	f003 fd62 	bl	2a578 <__aeabi_memcpy>
   26ab4:	9802      	ldr	r0, [sp, #8]
   26ab6:	7028      	strb	r0, [r5, #0]
   26ab8:	e7b9      	b.n	26a2e <_ZN20complex_dynamic_type3app17hf14be92c05ff7282E+0xa2>
   26aba:	46c0      	nop			@ (mov r8, r8)
   26abc:	0000196b 	.word	0x0000196b

00026ac0 <_ZN20complex_dynamic_type3app17hf169a1091b609218E>:
   26ac0:	b5f0      	push	{r4, r5, r6, r7, lr}
   26ac2:	af03      	add	r7, sp, #12
   26ac4:	b0a3      	sub	sp, #140	@ 0x8c
   26ac6:	9004      	str	r0, [sp, #16]
   26ac8:	a805      	add	r0, sp, #20
   26aca:	2402      	movs	r4, #2
   26acc:	7004      	strb	r4, [r0, #0]
   26ace:	1c40      	adds	r0, r0, #1
   26ad0:	9003      	str	r0, [sp, #12]
   26ad2:	2548      	movs	r5, #72	@ 0x48
   26ad4:	462a      	mov	r2, r5
   26ad6:	f003 fd4f 	bl	2a578 <__aeabi_memcpy>
   26ada:	ae18      	add	r6, sp, #96	@ 0x60
   26adc:	1c70      	adds	r0, r6, #1
   26ade:	2129      	movs	r1, #41	@ 0x29
   26ae0:	9002      	str	r0, [sp, #8]
   26ae2:	f003 fb89 	bl	2a1f8 <__aeabi_memclr>
   26ae6:	9401      	str	r4, [sp, #4]
   26ae8:	7034      	strb	r4, [r6, #0]
   26aea:	4840      	ldr	r0, [pc, #256]	@ (26bec <_ZN20complex_dynamic_type3app17hf169a1091b609218E+0x12c>)
   26aec:	2603      	movs	r6, #3
   26aee:	4631      	mov	r1, r6
   26af0:	9a03      	ldr	r2, [sp, #12]
   26af2:	462b      	mov	r3, r5
   26af4:	df04      	svc	4
   26af6:	2802      	cmp	r0, #2
   26af8:	d104      	bne.n	26b04 <_ZN20complex_dynamic_type3app17hf169a1091b609218E+0x44>
   26afa:	2001      	movs	r0, #1
   26afc:	9a04      	ldr	r2, [sp, #16]
   26afe:	7010      	strb	r0, [r2, #0]
   26b00:	6051      	str	r1, [r2, #4]
   26b02:	e02b      	b.n	26b5c <_ZN20complex_dynamic_type3app17hf169a1091b609218E+0x9c>
   26b04:	9d04      	ldr	r5, [sp, #16]
   26b06:	a805      	add	r0, sp, #20
   26b08:	2104      	movs	r1, #4
   26b0a:	7001      	strb	r1, [r0, #0]
   26b0c:	4837      	ldr	r0, [pc, #220]	@ (26bec <_ZN20complex_dynamic_type3app17hf169a1091b609218E+0x12c>)
   26b0e:	2329      	movs	r3, #41	@ 0x29
   26b10:	9c02      	ldr	r4, [sp, #8]
   26b12:	4622      	mov	r2, r4
   26b14:	df03      	svc	3
   26b16:	2802      	cmp	r0, #2
   26b18:	d10e      	bne.n	26b38 <_ZN20complex_dynamic_type3app17hf169a1091b609218E+0x78>
   26b1a:	2001      	movs	r0, #1
   26b1c:	7028      	strb	r0, [r5, #0]
   26b1e:	6069      	str	r1, [r5, #4]
   26b20:	a818      	add	r0, sp, #96	@ 0x60
   26b22:	7800      	ldrb	r0, [r0, #0]
   26b24:	2802      	cmp	r0, #2
   26b26:	d019      	beq.n	26b5c <_ZN20complex_dynamic_type3app17hf169a1091b609218E+0x9c>
   26b28:	2803      	cmp	r0, #3
   26b2a:	d012      	beq.n	26b52 <_ZN20complex_dynamic_type3app17hf169a1091b609218E+0x92>
   26b2c:	482f      	ldr	r0, [pc, #188]	@ (26bec <_ZN20complex_dynamic_type3app17hf169a1091b609218E+0x12c>)
   26b2e:	2104      	movs	r1, #4
   26b30:	2200      	movs	r2, #0
   26b32:	4613      	mov	r3, r2
   26b34:	df04      	svc	4
   26b36:	e011      	b.n	26b5c <_ZN20complex_dynamic_type3app17hf169a1091b609218E+0x9c>
   26b38:	a818      	add	r0, sp, #96	@ 0x60
   26b3a:	7006      	strb	r6, [r0, #0]
   26b3c:	482b      	ldr	r0, [pc, #172]	@ (26bec <_ZN20complex_dynamic_type3app17hf169a1091b609218E+0x12c>)
   26b3e:	2204      	movs	r2, #4
   26b40:	2300      	movs	r3, #0
   26b42:	4631      	mov	r1, r6
   26b44:	9303      	str	r3, [sp, #12]
   26b46:	df02      	svc	2
   26b48:	287f      	cmp	r0, #127	@ 0x7f
   26b4a:	d816      	bhi.n	26b7a <_ZN20complex_dynamic_type3app17hf169a1091b609218E+0xba>
   26b4c:	2001      	movs	r0, #1
   26b4e:	7028      	strb	r0, [r5, #0]
   26b50:	6069      	str	r1, [r5, #4]
   26b52:	4826      	ldr	r0, [pc, #152]	@ (26bec <_ZN20complex_dynamic_type3app17hf169a1091b609218E+0x12c>)
   26b54:	2104      	movs	r1, #4
   26b56:	2200      	movs	r2, #0
   26b58:	4613      	mov	r3, r2
   26b5a:	df03      	svc	3
   26b5c:	a805      	add	r0, sp, #20
   26b5e:	7804      	ldrb	r4, [r0, #0]
   26b60:	2c02      	cmp	r4, #2
   26b62:	d008      	beq.n	26b76 <_ZN20complex_dynamic_type3app17hf169a1091b609218E+0xb6>
   26b64:	4821      	ldr	r0, [pc, #132]	@ (26bec <_ZN20complex_dynamic_type3app17hf169a1091b609218E+0x12c>)
   26b66:	2103      	movs	r1, #3
   26b68:	2200      	movs	r2, #0
   26b6a:	4613      	mov	r3, r2
   26b6c:	2c03      	cmp	r4, #3
   26b6e:	d101      	bne.n	26b74 <_ZN20complex_dynamic_type3app17hf169a1091b609218E+0xb4>
   26b70:	df03      	svc	3
   26b72:	e000      	b.n	26b76 <_ZN20complex_dynamic_type3app17hf169a1091b609218E+0xb6>
   26b74:	df04      	svc	4
   26b76:	b023      	add	sp, #140	@ 0x8c
   26b78:	bdf0      	pop	{r4, r5, r6, r7, pc}
   26b7a:	a805      	add	r0, sp, #20
   26b7c:	7800      	ldrb	r0, [r0, #0]
   26b7e:	2802      	cmp	r0, #2
   26b80:	d01d      	beq.n	26bbe <_ZN20complex_dynamic_type3app17hf169a1091b609218E+0xfe>
   26b82:	2803      	cmp	r0, #3
   26b84:	d105      	bne.n	26b92 <_ZN20complex_dynamic_type3app17hf169a1091b609218E+0xd2>
   26b86:	4819      	ldr	r0, [pc, #100]	@ (26bec <_ZN20complex_dynamic_type3app17hf169a1091b609218E+0x12c>)
   26b88:	2103      	movs	r1, #3
   26b8a:	2200      	movs	r2, #0
   26b8c:	4613      	mov	r3, r2
   26b8e:	df03      	svc	3
   26b90:	e004      	b.n	26b9c <_ZN20complex_dynamic_type3app17hf169a1091b609218E+0xdc>
   26b92:	4816      	ldr	r0, [pc, #88]	@ (26bec <_ZN20complex_dynamic_type3app17hf169a1091b609218E+0x12c>)
   26b94:	2103      	movs	r1, #3
   26b96:	2200      	movs	r2, #0
   26b98:	4613      	mov	r3, r2
   26b9a:	df04      	svc	4
   26b9c:	9901      	ldr	r1, [sp, #4]
   26b9e:	a805      	add	r0, sp, #20
   26ba0:	7001      	strb	r1, [r0, #0]
   26ba2:	a818      	add	r0, sp, #96	@ 0x60
   26ba4:	7800      	ldrb	r0, [r0, #0]
   26ba6:	2803      	cmp	r0, #3
   26ba8:	d009      	beq.n	26bbe <_ZN20complex_dynamic_type3app17hf169a1091b609218E+0xfe>
   26baa:	2802      	cmp	r0, #2
   26bac:	d10e      	bne.n	26bcc <_ZN20complex_dynamic_type3app17hf169a1091b609218E+0x10c>
   26bae:	1c68      	adds	r0, r5, #1
   26bb0:	2229      	movs	r2, #41	@ 0x29
   26bb2:	4621      	mov	r1, r4
   26bb4:	f003 fce0 	bl	2a578 <__aeabi_memcpy>
   26bb8:	9803      	ldr	r0, [sp, #12]
   26bba:	7028      	strb	r0, [r5, #0]
   26bbc:	e7db      	b.n	26b76 <_ZN20complex_dynamic_type3app17hf169a1091b609218E+0xb6>
   26bbe:	4626      	mov	r6, r4
   26bc0:	480a      	ldr	r0, [pc, #40]	@ (26bec <_ZN20complex_dynamic_type3app17hf169a1091b609218E+0x12c>)
   26bc2:	2104      	movs	r1, #4
   26bc4:	2200      	movs	r2, #0
   26bc6:	4613      	mov	r3, r2
   26bc8:	df03      	svc	3
   26bca:	e005      	b.n	26bd8 <_ZN20complex_dynamic_type3app17hf169a1091b609218E+0x118>
   26bcc:	4626      	mov	r6, r4
   26bce:	4807      	ldr	r0, [pc, #28]	@ (26bec <_ZN20complex_dynamic_type3app17hf169a1091b609218E+0x12c>)
   26bd0:	2104      	movs	r1, #4
   26bd2:	2200      	movs	r2, #0
   26bd4:	4613      	mov	r3, r2
   26bd6:	df04      	svc	4
   26bd8:	a805      	add	r0, sp, #20
   26bda:	7804      	ldrb	r4, [r0, #0]
   26bdc:	1c68      	adds	r0, r5, #1
   26bde:	2229      	movs	r2, #41	@ 0x29
   26be0:	4631      	mov	r1, r6
   26be2:	f003 fcc9 	bl	2a578 <__aeabi_memcpy>
   26be6:	9803      	ldr	r0, [sp, #12]
   26be8:	7028      	strb	r0, [r5, #0]
   26bea:	e7b9      	b.n	26b60 <_ZN20complex_dynamic_type3app17hf169a1091b609218E+0xa0>
   26bec:	000026a4 	.word	0x000026a4

00026bf0 <_ZN20complex_dynamic_type3app17hf73daa8e09320859E>:
   26bf0:	b5f0      	push	{r4, r5, r6, r7, lr}
   26bf2:	af03      	add	r7, sp, #12
   26bf4:	b0af      	sub	sp, #188	@ 0xbc
   26bf6:	9004      	str	r0, [sp, #16]
   26bf8:	a805      	add	r0, sp, #20
   26bfa:	2402      	movs	r4, #2
   26bfc:	7004      	strb	r4, [r0, #0]
   26bfe:	1c46      	adds	r6, r0, #1
   26c00:	2259      	movs	r2, #89	@ 0x59
   26c02:	9203      	str	r2, [sp, #12]
   26c04:	4630      	mov	r0, r6
   26c06:	f003 fcb7 	bl	2a578 <__aeabi_memcpy>
   26c0a:	ad1c      	add	r5, sp, #112	@ 0x70
   26c0c:	1c68      	adds	r0, r5, #1
   26c0e:	214a      	movs	r1, #74	@ 0x4a
   26c10:	9002      	str	r0, [sp, #8]
   26c12:	f003 faf1 	bl	2a1f8 <__aeabi_memclr>
   26c16:	9401      	str	r4, [sp, #4]
   26c18:	702c      	strb	r4, [r5, #0]
   26c1a:	483e      	ldr	r0, [pc, #248]	@ (26d14 <_ZN20complex_dynamic_type3app17hf73daa8e09320859E+0x124>)
   26c1c:	2100      	movs	r1, #0
   26c1e:	4632      	mov	r2, r6
   26c20:	9b03      	ldr	r3, [sp, #12]
   26c22:	df04      	svc	4
   26c24:	2802      	cmp	r0, #2
   26c26:	d104      	bne.n	26c32 <_ZN20complex_dynamic_type3app17hf73daa8e09320859E+0x42>
   26c28:	2001      	movs	r0, #1
   26c2a:	9a04      	ldr	r2, [sp, #16]
   26c2c:	7010      	strb	r0, [r2, #0]
   26c2e:	6051      	str	r1, [r2, #4]
   26c30:	e02c      	b.n	26c8c <_ZN20complex_dynamic_type3app17hf73daa8e09320859E+0x9c>
   26c32:	9d04      	ldr	r5, [sp, #16]
   26c34:	a805      	add	r0, sp, #20
   26c36:	2104      	movs	r1, #4
   26c38:	7001      	strb	r1, [r0, #0]
   26c3a:	4836      	ldr	r0, [pc, #216]	@ (26d14 <_ZN20complex_dynamic_type3app17hf73daa8e09320859E+0x124>)
   26c3c:	234a      	movs	r3, #74	@ 0x4a
   26c3e:	9c02      	ldr	r4, [sp, #8]
   26c40:	4622      	mov	r2, r4
   26c42:	df03      	svc	3
   26c44:	2802      	cmp	r0, #2
   26c46:	d10e      	bne.n	26c66 <_ZN20complex_dynamic_type3app17hf73daa8e09320859E+0x76>
   26c48:	2001      	movs	r0, #1
   26c4a:	7028      	strb	r0, [r5, #0]
   26c4c:	6069      	str	r1, [r5, #4]
   26c4e:	a81c      	add	r0, sp, #112	@ 0x70
   26c50:	7800      	ldrb	r0, [r0, #0]
   26c52:	2802      	cmp	r0, #2
   26c54:	d01a      	beq.n	26c8c <_ZN20complex_dynamic_type3app17hf73daa8e09320859E+0x9c>
   26c56:	2803      	cmp	r0, #3
   26c58:	d013      	beq.n	26c82 <_ZN20complex_dynamic_type3app17hf73daa8e09320859E+0x92>
   26c5a:	482e      	ldr	r0, [pc, #184]	@ (26d14 <_ZN20complex_dynamic_type3app17hf73daa8e09320859E+0x124>)
   26c5c:	2104      	movs	r1, #4
   26c5e:	2200      	movs	r2, #0
   26c60:	4613      	mov	r3, r2
   26c62:	df04      	svc	4
   26c64:	e012      	b.n	26c8c <_ZN20complex_dynamic_type3app17hf73daa8e09320859E+0x9c>
   26c66:	a81c      	add	r0, sp, #112	@ 0x70
   26c68:	2103      	movs	r1, #3
   26c6a:	7001      	strb	r1, [r0, #0]
   26c6c:	4829      	ldr	r0, [pc, #164]	@ (26d14 <_ZN20complex_dynamic_type3app17hf73daa8e09320859E+0x124>)
   26c6e:	2204      	movs	r2, #4
   26c70:	2600      	movs	r6, #0
   26c72:	4631      	mov	r1, r6
   26c74:	4633      	mov	r3, r6
   26c76:	df02      	svc	2
   26c78:	287f      	cmp	r0, #127	@ 0x7f
   26c7a:	d816      	bhi.n	26caa <_ZN20complex_dynamic_type3app17hf73daa8e09320859E+0xba>
   26c7c:	2001      	movs	r0, #1
   26c7e:	7028      	strb	r0, [r5, #0]
   26c80:	6069      	str	r1, [r5, #4]
   26c82:	4824      	ldr	r0, [pc, #144]	@ (26d14 <_ZN20complex_dynamic_type3app17hf73daa8e09320859E+0x124>)
   26c84:	2104      	movs	r1, #4
   26c86:	2200      	movs	r2, #0
   26c88:	4613      	mov	r3, r2
   26c8a:	df03      	svc	3
   26c8c:	a805      	add	r0, sp, #20
   26c8e:	7804      	ldrb	r4, [r0, #0]
   26c90:	2c02      	cmp	r4, #2
   26c92:	d008      	beq.n	26ca6 <_ZN20complex_dynamic_type3app17hf73daa8e09320859E+0xb6>
   26c94:	481f      	ldr	r0, [pc, #124]	@ (26d14 <_ZN20complex_dynamic_type3app17hf73daa8e09320859E+0x124>)
   26c96:	2100      	movs	r1, #0
   26c98:	460a      	mov	r2, r1
   26c9a:	460b      	mov	r3, r1
   26c9c:	2c03      	cmp	r4, #3
   26c9e:	d101      	bne.n	26ca4 <_ZN20complex_dynamic_type3app17hf73daa8e09320859E+0xb4>
   26ca0:	df03      	svc	3
   26ca2:	e000      	b.n	26ca6 <_ZN20complex_dynamic_type3app17hf73daa8e09320859E+0xb6>
   26ca4:	df04      	svc	4
   26ca6:	b02f      	add	sp, #188	@ 0xbc
   26ca8:	bdf0      	pop	{r4, r5, r6, r7, pc}
   26caa:	a805      	add	r0, sp, #20
   26cac:	7800      	ldrb	r0, [r0, #0]
   26cae:	2802      	cmp	r0, #2
   26cb0:	d01c      	beq.n	26cec <_ZN20complex_dynamic_type3app17hf73daa8e09320859E+0xfc>
   26cb2:	2803      	cmp	r0, #3
   26cb4:	d105      	bne.n	26cc2 <_ZN20complex_dynamic_type3app17hf73daa8e09320859E+0xd2>
   26cb6:	4817      	ldr	r0, [pc, #92]	@ (26d14 <_ZN20complex_dynamic_type3app17hf73daa8e09320859E+0x124>)
   26cb8:	2100      	movs	r1, #0
   26cba:	460a      	mov	r2, r1
   26cbc:	460b      	mov	r3, r1
   26cbe:	df03      	svc	3
   26cc0:	e004      	b.n	26ccc <_ZN20complex_dynamic_type3app17hf73daa8e09320859E+0xdc>
   26cc2:	4814      	ldr	r0, [pc, #80]	@ (26d14 <_ZN20complex_dynamic_type3app17hf73daa8e09320859E+0x124>)
   26cc4:	2100      	movs	r1, #0
   26cc6:	460a      	mov	r2, r1
   26cc8:	460b      	mov	r3, r1
   26cca:	df04      	svc	4
   26ccc:	a805      	add	r0, sp, #20
   26cce:	9901      	ldr	r1, [sp, #4]
   26cd0:	7001      	strb	r1, [r0, #0]
   26cd2:	a81c      	add	r0, sp, #112	@ 0x70
   26cd4:	7800      	ldrb	r0, [r0, #0]
   26cd6:	2803      	cmp	r0, #3
   26cd8:	d008      	beq.n	26cec <_ZN20complex_dynamic_type3app17hf73daa8e09320859E+0xfc>
   26cda:	2802      	cmp	r0, #2
   26cdc:	d10c      	bne.n	26cf8 <_ZN20complex_dynamic_type3app17hf73daa8e09320859E+0x108>
   26cde:	1c68      	adds	r0, r5, #1
   26ce0:	224a      	movs	r2, #74	@ 0x4a
   26ce2:	4621      	mov	r1, r4
   26ce4:	f003 fc48 	bl	2a578 <__aeabi_memcpy>
   26ce8:	702e      	strb	r6, [r5, #0]
   26cea:	e7dc      	b.n	26ca6 <_ZN20complex_dynamic_type3app17hf73daa8e09320859E+0xb6>
   26cec:	4809      	ldr	r0, [pc, #36]	@ (26d14 <_ZN20complex_dynamic_type3app17hf73daa8e09320859E+0x124>)
   26cee:	2104      	movs	r1, #4
   26cf0:	2200      	movs	r2, #0
   26cf2:	4613      	mov	r3, r2
   26cf4:	df03      	svc	3
   26cf6:	e004      	b.n	26d02 <_ZN20complex_dynamic_type3app17hf73daa8e09320859E+0x112>
   26cf8:	4806      	ldr	r0, [pc, #24]	@ (26d14 <_ZN20complex_dynamic_type3app17hf73daa8e09320859E+0x124>)
   26cfa:	2104      	movs	r1, #4
   26cfc:	2200      	movs	r2, #0
   26cfe:	4613      	mov	r3, r2
   26d00:	df04      	svc	4
   26d02:	a805      	add	r0, sp, #20
   26d04:	7804      	ldrb	r4, [r0, #0]
   26d06:	1c68      	adds	r0, r5, #1
   26d08:	224a      	movs	r2, #74	@ 0x4a
   26d0a:	9902      	ldr	r1, [sp, #8]
   26d0c:	f003 fc34 	bl	2a578 <__aeabi_memcpy>
   26d10:	702e      	strb	r6, [r5, #0]
   26d12:	e7bd      	b.n	26c90 <_ZN20complex_dynamic_type3app17hf73daa8e09320859E+0xa0>
   26d14:	00001484 	.word	0x00001484

00026d18 <_ZN20complex_dynamic_type3app17hfcdb46a3ea1d15deE>:
   26d18:	b5f0      	push	{r4, r5, r6, r7, lr}
   26d1a:	af03      	add	r7, sp, #12
   26d1c:	b08d      	sub	sp, #52	@ 0x34
   26d1e:	9003      	str	r0, [sp, #12]
   26d20:	a804      	add	r0, sp, #16
   26d22:	2402      	movs	r4, #2
   26d24:	7004      	strb	r4, [r0, #0]
   26d26:	1c40      	adds	r0, r0, #1
   26d28:	9002      	str	r0, [sp, #8]
   26d2a:	250f      	movs	r5, #15
   26d2c:	462a      	mov	r2, r5
   26d2e:	f003 fc23 	bl	2a578 <__aeabi_memcpy>
   26d32:	ae08      	add	r6, sp, #32
   26d34:	1c70      	adds	r0, r6, #1
   26d36:	2113      	movs	r1, #19
   26d38:	9001      	str	r0, [sp, #4]
   26d3a:	f003 fa5d 	bl	2a1f8 <__aeabi_memclr>
   26d3e:	9400      	str	r4, [sp, #0]
   26d40:	7034      	strb	r4, [r6, #0]
   26d42:	4841      	ldr	r0, [pc, #260]	@ (26e48 <_ZN20complex_dynamic_type3app17hfcdb46a3ea1d15deE+0x130>)
   26d44:	2603      	movs	r6, #3
   26d46:	4631      	mov	r1, r6
   26d48:	9a02      	ldr	r2, [sp, #8]
   26d4a:	462b      	mov	r3, r5
   26d4c:	df04      	svc	4
   26d4e:	2802      	cmp	r0, #2
   26d50:	d104      	bne.n	26d5c <_ZN20complex_dynamic_type3app17hfcdb46a3ea1d15deE+0x44>
   26d52:	2001      	movs	r0, #1
   26d54:	9a03      	ldr	r2, [sp, #12]
   26d56:	7010      	strb	r0, [r2, #0]
   26d58:	6051      	str	r1, [r2, #4]
   26d5a:	e02c      	b.n	26db6 <_ZN20complex_dynamic_type3app17hfcdb46a3ea1d15deE+0x9e>
   26d5c:	9d03      	ldr	r5, [sp, #12]
   26d5e:	a804      	add	r0, sp, #16
   26d60:	2104      	movs	r1, #4
   26d62:	7001      	strb	r1, [r0, #0]
   26d64:	4838      	ldr	r0, [pc, #224]	@ (26e48 <_ZN20complex_dynamic_type3app17hfcdb46a3ea1d15deE+0x130>)
   26d66:	2100      	movs	r1, #0
   26d68:	2313      	movs	r3, #19
   26d6a:	9c01      	ldr	r4, [sp, #4]
   26d6c:	4622      	mov	r2, r4
   26d6e:	df03      	svc	3
   26d70:	2802      	cmp	r0, #2
   26d72:	d10e      	bne.n	26d92 <_ZN20complex_dynamic_type3app17hfcdb46a3ea1d15deE+0x7a>
   26d74:	2001      	movs	r0, #1
   26d76:	7028      	strb	r0, [r5, #0]
   26d78:	6069      	str	r1, [r5, #4]
   26d7a:	a808      	add	r0, sp, #32
   26d7c:	7800      	ldrb	r0, [r0, #0]
   26d7e:	2802      	cmp	r0, #2
   26d80:	d019      	beq.n	26db6 <_ZN20complex_dynamic_type3app17hfcdb46a3ea1d15deE+0x9e>
   26d82:	2803      	cmp	r0, #3
   26d84:	d012      	beq.n	26dac <_ZN20complex_dynamic_type3app17hfcdb46a3ea1d15deE+0x94>
   26d86:	4830      	ldr	r0, [pc, #192]	@ (26e48 <_ZN20complex_dynamic_type3app17hfcdb46a3ea1d15deE+0x130>)
   26d88:	2100      	movs	r1, #0
   26d8a:	460a      	mov	r2, r1
   26d8c:	460b      	mov	r3, r1
   26d8e:	df04      	svc	4
   26d90:	e011      	b.n	26db6 <_ZN20complex_dynamic_type3app17hfcdb46a3ea1d15deE+0x9e>
   26d92:	a808      	add	r0, sp, #32
   26d94:	7006      	strb	r6, [r0, #0]
   26d96:	482c      	ldr	r0, [pc, #176]	@ (26e48 <_ZN20complex_dynamic_type3app17hfcdb46a3ea1d15deE+0x130>)
   26d98:	2200      	movs	r2, #0
   26d9a:	4631      	mov	r1, r6
   26d9c:	9202      	str	r2, [sp, #8]
   26d9e:	4613      	mov	r3, r2
   26da0:	df02      	svc	2
   26da2:	287f      	cmp	r0, #127	@ 0x7f
   26da4:	d816      	bhi.n	26dd4 <_ZN20complex_dynamic_type3app17hfcdb46a3ea1d15deE+0xbc>
   26da6:	2001      	movs	r0, #1
   26da8:	7028      	strb	r0, [r5, #0]
   26daa:	6069      	str	r1, [r5, #4]
   26dac:	4826      	ldr	r0, [pc, #152]	@ (26e48 <_ZN20complex_dynamic_type3app17hfcdb46a3ea1d15deE+0x130>)
   26dae:	2100      	movs	r1, #0
   26db0:	460a      	mov	r2, r1
   26db2:	460b      	mov	r3, r1
   26db4:	df03      	svc	3
   26db6:	a804      	add	r0, sp, #16
   26db8:	7804      	ldrb	r4, [r0, #0]
   26dba:	2c02      	cmp	r4, #2
   26dbc:	d008      	beq.n	26dd0 <_ZN20complex_dynamic_type3app17hfcdb46a3ea1d15deE+0xb8>
   26dbe:	4822      	ldr	r0, [pc, #136]	@ (26e48 <_ZN20complex_dynamic_type3app17hfcdb46a3ea1d15deE+0x130>)
   26dc0:	2103      	movs	r1, #3
   26dc2:	2200      	movs	r2, #0
   26dc4:	4613      	mov	r3, r2
   26dc6:	2c03      	cmp	r4, #3
   26dc8:	d101      	bne.n	26dce <_ZN20complex_dynamic_type3app17hfcdb46a3ea1d15deE+0xb6>
   26dca:	df03      	svc	3
   26dcc:	e000      	b.n	26dd0 <_ZN20complex_dynamic_type3app17hfcdb46a3ea1d15deE+0xb8>
   26dce:	df04      	svc	4
   26dd0:	b00d      	add	sp, #52	@ 0x34
   26dd2:	bdf0      	pop	{r4, r5, r6, r7, pc}
   26dd4:	a804      	add	r0, sp, #16
   26dd6:	7800      	ldrb	r0, [r0, #0]
   26dd8:	2802      	cmp	r0, #2
   26dda:	d01d      	beq.n	26e18 <_ZN20complex_dynamic_type3app17hfcdb46a3ea1d15deE+0x100>
   26ddc:	2803      	cmp	r0, #3
   26dde:	d105      	bne.n	26dec <_ZN20complex_dynamic_type3app17hfcdb46a3ea1d15deE+0xd4>
   26de0:	4819      	ldr	r0, [pc, #100]	@ (26e48 <_ZN20complex_dynamic_type3app17hfcdb46a3ea1d15deE+0x130>)
   26de2:	2103      	movs	r1, #3
   26de4:	2200      	movs	r2, #0
   26de6:	4613      	mov	r3, r2
   26de8:	df03      	svc	3
   26dea:	e004      	b.n	26df6 <_ZN20complex_dynamic_type3app17hfcdb46a3ea1d15deE+0xde>
   26dec:	4816      	ldr	r0, [pc, #88]	@ (26e48 <_ZN20complex_dynamic_type3app17hfcdb46a3ea1d15deE+0x130>)
   26dee:	2103      	movs	r1, #3
   26df0:	2200      	movs	r2, #0
   26df2:	4613      	mov	r3, r2
   26df4:	df04      	svc	4
   26df6:	9900      	ldr	r1, [sp, #0]
   26df8:	a804      	add	r0, sp, #16
   26dfa:	7001      	strb	r1, [r0, #0]
   26dfc:	a808      	add	r0, sp, #32
   26dfe:	7800      	ldrb	r0, [r0, #0]
   26e00:	2803      	cmp	r0, #3
   26e02:	d009      	beq.n	26e18 <_ZN20complex_dynamic_type3app17hfcdb46a3ea1d15deE+0x100>
   26e04:	2802      	cmp	r0, #2
   26e06:	d10e      	bne.n	26e26 <_ZN20complex_dynamic_type3app17hfcdb46a3ea1d15deE+0x10e>
   26e08:	1c68      	adds	r0, r5, #1
   26e0a:	2213      	movs	r2, #19
   26e0c:	4621      	mov	r1, r4
   26e0e:	f003 fbb3 	bl	2a578 <__aeabi_memcpy>
   26e12:	9802      	ldr	r0, [sp, #8]
   26e14:	7028      	strb	r0, [r5, #0]
   26e16:	e7db      	b.n	26dd0 <_ZN20complex_dynamic_type3app17hfcdb46a3ea1d15deE+0xb8>
   26e18:	4626      	mov	r6, r4
   26e1a:	480b      	ldr	r0, [pc, #44]	@ (26e48 <_ZN20complex_dynamic_type3app17hfcdb46a3ea1d15deE+0x130>)
   26e1c:	2100      	movs	r1, #0
   26e1e:	460a      	mov	r2, r1
   26e20:	460b      	mov	r3, r1
   26e22:	df03      	svc	3
   26e24:	e005      	b.n	26e32 <_ZN20complex_dynamic_type3app17hfcdb46a3ea1d15deE+0x11a>
   26e26:	4626      	mov	r6, r4
   26e28:	4807      	ldr	r0, [pc, #28]	@ (26e48 <_ZN20complex_dynamic_type3app17hfcdb46a3ea1d15deE+0x130>)
   26e2a:	2100      	movs	r1, #0
   26e2c:	460a      	mov	r2, r1
   26e2e:	460b      	mov	r3, r1
   26e30:	df04      	svc	4
   26e32:	a804      	add	r0, sp, #16
   26e34:	7804      	ldrb	r4, [r0, #0]
   26e36:	1c68      	adds	r0, r5, #1
   26e38:	2213      	movs	r2, #19
   26e3a:	4631      	mov	r1, r6
   26e3c:	f003 fb9c 	bl	2a578 <__aeabi_memcpy>
   26e40:	9802      	ldr	r0, [sp, #8]
   26e42:	7028      	strb	r0, [r5, #0]
   26e44:	e7b9      	b.n	26dba <_ZN20complex_dynamic_type3app17hfcdb46a3ea1d15deE+0xa2>
   26e46:	46c0      	nop			@ (mov r8, r8)
   26e48:	00001e4b 	.word	0x00001e4b

00026e4c <_ZN20complex_dynamic_type3app17hfcfc46a0def3489aE>:
   26e4c:	b5f0      	push	{r4, r5, r6, r7, lr}
   26e4e:	af03      	add	r7, sp, #12
   26e50:	b0ad      	sub	sp, #180	@ 0xb4
   26e52:	9003      	str	r0, [sp, #12]
   26e54:	a804      	add	r0, sp, #16
   26e56:	2402      	movs	r4, #2
   26e58:	7004      	strb	r4, [r0, #0]
   26e5a:	1c46      	adds	r6, r0, #1
   26e5c:	225d      	movs	r2, #93	@ 0x5d
   26e5e:	9202      	str	r2, [sp, #8]
   26e60:	4630      	mov	r0, r6
   26e62:	f003 fb89 	bl	2a578 <__aeabi_memcpy>
   26e66:	ad1c      	add	r5, sp, #112	@ 0x70
   26e68:	1c68      	adds	r0, r5, #1
   26e6a:	2140      	movs	r1, #64	@ 0x40
   26e6c:	9001      	str	r0, [sp, #4]
   26e6e:	f003 f9c3 	bl	2a1f8 <__aeabi_memclr>
   26e72:	9400      	str	r4, [sp, #0]
   26e74:	702c      	strb	r4, [r5, #0]
   26e76:	483e      	ldr	r0, [pc, #248]	@ (26f70 <_ZN20complex_dynamic_type3app17hfcfc46a0def3489aE+0x124>)
   26e78:	2108      	movs	r1, #8
   26e7a:	4632      	mov	r2, r6
   26e7c:	9b02      	ldr	r3, [sp, #8]
   26e7e:	df04      	svc	4
   26e80:	2802      	cmp	r0, #2
   26e82:	d104      	bne.n	26e8e <_ZN20complex_dynamic_type3app17hfcfc46a0def3489aE+0x42>
   26e84:	2001      	movs	r0, #1
   26e86:	9a03      	ldr	r2, [sp, #12]
   26e88:	7010      	strb	r0, [r2, #0]
   26e8a:	6051      	str	r1, [r2, #4]
   26e8c:	e02c      	b.n	26ee8 <_ZN20complex_dynamic_type3app17hfcfc46a0def3489aE+0x9c>
   26e8e:	9d03      	ldr	r5, [sp, #12]
   26e90:	a804      	add	r0, sp, #16
   26e92:	2104      	movs	r1, #4
   26e94:	7001      	strb	r1, [r0, #0]
   26e96:	4836      	ldr	r0, [pc, #216]	@ (26f70 <_ZN20complex_dynamic_type3app17hfcfc46a0def3489aE+0x124>)
   26e98:	2340      	movs	r3, #64	@ 0x40
   26e9a:	9c01      	ldr	r4, [sp, #4]
   26e9c:	4622      	mov	r2, r4
   26e9e:	df03      	svc	3
   26ea0:	2802      	cmp	r0, #2
   26ea2:	d10e      	bne.n	26ec2 <_ZN20complex_dynamic_type3app17hfcfc46a0def3489aE+0x76>
   26ea4:	2001      	movs	r0, #1
   26ea6:	7028      	strb	r0, [r5, #0]
   26ea8:	6069      	str	r1, [r5, #4]
   26eaa:	a81c      	add	r0, sp, #112	@ 0x70
   26eac:	7800      	ldrb	r0, [r0, #0]
   26eae:	2802      	cmp	r0, #2
   26eb0:	d01a      	beq.n	26ee8 <_ZN20complex_dynamic_type3app17hfcfc46a0def3489aE+0x9c>
   26eb2:	2803      	cmp	r0, #3
   26eb4:	d013      	beq.n	26ede <_ZN20complex_dynamic_type3app17hfcfc46a0def3489aE+0x92>
   26eb6:	482e      	ldr	r0, [pc, #184]	@ (26f70 <_ZN20complex_dynamic_type3app17hfcfc46a0def3489aE+0x124>)
   26eb8:	2104      	movs	r1, #4
   26eba:	2200      	movs	r2, #0
   26ebc:	4613      	mov	r3, r2
   26ebe:	df04      	svc	4
   26ec0:	e012      	b.n	26ee8 <_ZN20complex_dynamic_type3app17hfcfc46a0def3489aE+0x9c>
   26ec2:	a81c      	add	r0, sp, #112	@ 0x70
   26ec4:	2103      	movs	r1, #3
   26ec6:	7001      	strb	r1, [r0, #0]
   26ec8:	4829      	ldr	r0, [pc, #164]	@ (26f70 <_ZN20complex_dynamic_type3app17hfcfc46a0def3489aE+0x124>)
   26eca:	2108      	movs	r1, #8
   26ecc:	2204      	movs	r2, #4
   26ece:	2600      	movs	r6, #0
   26ed0:	4633      	mov	r3, r6
   26ed2:	df02      	svc	2
   26ed4:	287f      	cmp	r0, #127	@ 0x7f
   26ed6:	d816      	bhi.n	26f06 <_ZN20complex_dynamic_type3app17hfcfc46a0def3489aE+0xba>
   26ed8:	2001      	movs	r0, #1
   26eda:	7028      	strb	r0, [r5, #0]
   26edc:	6069      	str	r1, [r5, #4]
   26ede:	4824      	ldr	r0, [pc, #144]	@ (26f70 <_ZN20complex_dynamic_type3app17hfcfc46a0def3489aE+0x124>)
   26ee0:	2104      	movs	r1, #4
   26ee2:	2200      	movs	r2, #0
   26ee4:	4613      	mov	r3, r2
   26ee6:	df03      	svc	3
   26ee8:	a804      	add	r0, sp, #16
   26eea:	7804      	ldrb	r4, [r0, #0]
   26eec:	2c02      	cmp	r4, #2
   26eee:	d008      	beq.n	26f02 <_ZN20complex_dynamic_type3app17hfcfc46a0def3489aE+0xb6>
   26ef0:	481f      	ldr	r0, [pc, #124]	@ (26f70 <_ZN20complex_dynamic_type3app17hfcfc46a0def3489aE+0x124>)
   26ef2:	2108      	movs	r1, #8
   26ef4:	2200      	movs	r2, #0
   26ef6:	4613      	mov	r3, r2
   26ef8:	2c03      	cmp	r4, #3
   26efa:	d101      	bne.n	26f00 <_ZN20complex_dynamic_type3app17hfcfc46a0def3489aE+0xb4>
   26efc:	df03      	svc	3
   26efe:	e000      	b.n	26f02 <_ZN20complex_dynamic_type3app17hfcfc46a0def3489aE+0xb6>
   26f00:	df04      	svc	4
   26f02:	b02d      	add	sp, #180	@ 0xb4
   26f04:	bdf0      	pop	{r4, r5, r6, r7, pc}
   26f06:	a804      	add	r0, sp, #16
   26f08:	7800      	ldrb	r0, [r0, #0]
   26f0a:	2802      	cmp	r0, #2
   26f0c:	d01c      	beq.n	26f48 <_ZN20complex_dynamic_type3app17hfcfc46a0def3489aE+0xfc>
   26f0e:	2803      	cmp	r0, #3
   26f10:	d105      	bne.n	26f1e <_ZN20complex_dynamic_type3app17hfcfc46a0def3489aE+0xd2>
   26f12:	4817      	ldr	r0, [pc, #92]	@ (26f70 <_ZN20complex_dynamic_type3app17hfcfc46a0def3489aE+0x124>)
   26f14:	2108      	movs	r1, #8
   26f16:	2200      	movs	r2, #0
   26f18:	4613      	mov	r3, r2
   26f1a:	df03      	svc	3
   26f1c:	e004      	b.n	26f28 <_ZN20complex_dynamic_type3app17hfcfc46a0def3489aE+0xdc>
   26f1e:	4814      	ldr	r0, [pc, #80]	@ (26f70 <_ZN20complex_dynamic_type3app17hfcfc46a0def3489aE+0x124>)
   26f20:	2108      	movs	r1, #8
   26f22:	2200      	movs	r2, #0
   26f24:	4613      	mov	r3, r2
   26f26:	df04      	svc	4
   26f28:	a804      	add	r0, sp, #16
   26f2a:	9900      	ldr	r1, [sp, #0]
   26f2c:	7001      	strb	r1, [r0, #0]
   26f2e:	a81c      	add	r0, sp, #112	@ 0x70
   26f30:	7800      	ldrb	r0, [r0, #0]
   26f32:	2803      	cmp	r0, #3
   26f34:	d008      	beq.n	26f48 <_ZN20complex_dynamic_type3app17hfcfc46a0def3489aE+0xfc>
   26f36:	2802      	cmp	r0, #2
   26f38:	d10c      	bne.n	26f54 <_ZN20complex_dynamic_type3app17hfcfc46a0def3489aE+0x108>
   26f3a:	1c68      	adds	r0, r5, #1
   26f3c:	2240      	movs	r2, #64	@ 0x40
   26f3e:	4621      	mov	r1, r4
   26f40:	f003 fb1a 	bl	2a578 <__aeabi_memcpy>
   26f44:	702e      	strb	r6, [r5, #0]
   26f46:	e7dc      	b.n	26f02 <_ZN20complex_dynamic_type3app17hfcfc46a0def3489aE+0xb6>
   26f48:	4809      	ldr	r0, [pc, #36]	@ (26f70 <_ZN20complex_dynamic_type3app17hfcfc46a0def3489aE+0x124>)
   26f4a:	2104      	movs	r1, #4
   26f4c:	2200      	movs	r2, #0
   26f4e:	4613      	mov	r3, r2
   26f50:	df03      	svc	3
   26f52:	e004      	b.n	26f5e <_ZN20complex_dynamic_type3app17hfcfc46a0def3489aE+0x112>
   26f54:	4806      	ldr	r0, [pc, #24]	@ (26f70 <_ZN20complex_dynamic_type3app17hfcfc46a0def3489aE+0x124>)
   26f56:	2104      	movs	r1, #4
   26f58:	2200      	movs	r2, #0
   26f5a:	4613      	mov	r3, r2
   26f5c:	df04      	svc	4
   26f5e:	a804      	add	r0, sp, #16
   26f60:	7804      	ldrb	r4, [r0, #0]
   26f62:	1c68      	adds	r0, r5, #1
   26f64:	2240      	movs	r2, #64	@ 0x40
   26f66:	9901      	ldr	r1, [sp, #4]
   26f68:	f003 fb06 	bl	2a578 <__aeabi_memcpy>
   26f6c:	702e      	strb	r6, [r5, #0]
   26f6e:	e7bd      	b.n	26eec <_ZN20complex_dynamic_type3app17hfcfc46a0def3489aE+0xa0>
   26f70:	00001028 	.word	0x00001028

00026f74 <_ZN20complex_dynamic_type3app17hfe02ba42aceb3337E>:
   26f74:	b5f0      	push	{r4, r5, r6, r7, lr}
   26f76:	af03      	add	r7, sp, #12
   26f78:	b0ad      	sub	sp, #180	@ 0xb4
   26f7a:	9003      	str	r0, [sp, #12]
   26f7c:	a804      	add	r0, sp, #16
   26f7e:	2402      	movs	r4, #2
   26f80:	7004      	strb	r4, [r0, #0]
   26f82:	1c46      	adds	r6, r0, #1
   26f84:	2253      	movs	r2, #83	@ 0x53
   26f86:	9202      	str	r2, [sp, #8]
   26f88:	4630      	mov	r0, r6
   26f8a:	f003 faf5 	bl	2a578 <__aeabi_memcpy>
   26f8e:	ad19      	add	r5, sp, #100	@ 0x64
   26f90:	1c68      	adds	r0, r5, #1
   26f92:	214d      	movs	r1, #77	@ 0x4d
   26f94:	9001      	str	r0, [sp, #4]
   26f96:	f003 f92f 	bl	2a1f8 <__aeabi_memclr>
   26f9a:	9400      	str	r4, [sp, #0]
   26f9c:	702c      	strb	r4, [r5, #0]
   26f9e:	483e      	ldr	r0, [pc, #248]	@ (27098 <_ZN20complex_dynamic_type3app17hfe02ba42aceb3337E+0x124>)
   26fa0:	2109      	movs	r1, #9
   26fa2:	4632      	mov	r2, r6
   26fa4:	9b02      	ldr	r3, [sp, #8]
   26fa6:	df04      	svc	4
   26fa8:	2802      	cmp	r0, #2
   26faa:	d104      	bne.n	26fb6 <_ZN20complex_dynamic_type3app17hfe02ba42aceb3337E+0x42>
   26fac:	2001      	movs	r0, #1
   26fae:	9a03      	ldr	r2, [sp, #12]
   26fb0:	7010      	strb	r0, [r2, #0]
   26fb2:	6051      	str	r1, [r2, #4]
   26fb4:	e02c      	b.n	27010 <_ZN20complex_dynamic_type3app17hfe02ba42aceb3337E+0x9c>
   26fb6:	9d03      	ldr	r5, [sp, #12]
   26fb8:	a804      	add	r0, sp, #16
   26fba:	2104      	movs	r1, #4
   26fbc:	7001      	strb	r1, [r0, #0]
   26fbe:	4836      	ldr	r0, [pc, #216]	@ (27098 <_ZN20complex_dynamic_type3app17hfe02ba42aceb3337E+0x124>)
   26fc0:	234d      	movs	r3, #77	@ 0x4d
   26fc2:	9c01      	ldr	r4, [sp, #4]
   26fc4:	4622      	mov	r2, r4
   26fc6:	df03      	svc	3
   26fc8:	2802      	cmp	r0, #2
   26fca:	d10e      	bne.n	26fea <_ZN20complex_dynamic_type3app17hfe02ba42aceb3337E+0x76>
   26fcc:	2001      	movs	r0, #1
   26fce:	7028      	strb	r0, [r5, #0]
   26fd0:	6069      	str	r1, [r5, #4]
   26fd2:	a819      	add	r0, sp, #100	@ 0x64
   26fd4:	7800      	ldrb	r0, [r0, #0]
   26fd6:	2802      	cmp	r0, #2
   26fd8:	d01a      	beq.n	27010 <_ZN20complex_dynamic_type3app17hfe02ba42aceb3337E+0x9c>
   26fda:	2803      	cmp	r0, #3
   26fdc:	d013      	beq.n	27006 <_ZN20complex_dynamic_type3app17hfe02ba42aceb3337E+0x92>
   26fde:	482e      	ldr	r0, [pc, #184]	@ (27098 <_ZN20complex_dynamic_type3app17hfe02ba42aceb3337E+0x124>)
   26fe0:	2104      	movs	r1, #4
   26fe2:	2200      	movs	r2, #0
   26fe4:	4613      	mov	r3, r2
   26fe6:	df04      	svc	4
   26fe8:	e012      	b.n	27010 <_ZN20complex_dynamic_type3app17hfe02ba42aceb3337E+0x9c>
   26fea:	a819      	add	r0, sp, #100	@ 0x64
   26fec:	2103      	movs	r1, #3
   26fee:	7001      	strb	r1, [r0, #0]
   26ff0:	4829      	ldr	r0, [pc, #164]	@ (27098 <_ZN20complex_dynamic_type3app17hfe02ba42aceb3337E+0x124>)
   26ff2:	2109      	movs	r1, #9
   26ff4:	2204      	movs	r2, #4
   26ff6:	2600      	movs	r6, #0
   26ff8:	4633      	mov	r3, r6
   26ffa:	df02      	svc	2
   26ffc:	287f      	cmp	r0, #127	@ 0x7f
   26ffe:	d816      	bhi.n	2702e <_ZN20complex_dynamic_type3app17hfe02ba42aceb3337E+0xba>
   27000:	2001      	movs	r0, #1
   27002:	7028      	strb	r0, [r5, #0]
   27004:	6069      	str	r1, [r5, #4]
   27006:	4824      	ldr	r0, [pc, #144]	@ (27098 <_ZN20complex_dynamic_type3app17hfe02ba42aceb3337E+0x124>)
   27008:	2104      	movs	r1, #4
   2700a:	2200      	movs	r2, #0
   2700c:	4613      	mov	r3, r2
   2700e:	df03      	svc	3
   27010:	a804      	add	r0, sp, #16
   27012:	7804      	ldrb	r4, [r0, #0]
   27014:	2c02      	cmp	r4, #2
   27016:	d008      	beq.n	2702a <_ZN20complex_dynamic_type3app17hfe02ba42aceb3337E+0xb6>
   27018:	481f      	ldr	r0, [pc, #124]	@ (27098 <_ZN20complex_dynamic_type3app17hfe02ba42aceb3337E+0x124>)
   2701a:	2109      	movs	r1, #9
   2701c:	2200      	movs	r2, #0
   2701e:	4613      	mov	r3, r2
   27020:	2c03      	cmp	r4, #3
   27022:	d101      	bne.n	27028 <_ZN20complex_dynamic_type3app17hfe02ba42aceb3337E+0xb4>
   27024:	df03      	svc	3
   27026:	e000      	b.n	2702a <_ZN20complex_dynamic_type3app17hfe02ba42aceb3337E+0xb6>
   27028:	df04      	svc	4
   2702a:	b02d      	add	sp, #180	@ 0xb4
   2702c:	bdf0      	pop	{r4, r5, r6, r7, pc}
   2702e:	a804      	add	r0, sp, #16
   27030:	7800      	ldrb	r0, [r0, #0]
   27032:	2802      	cmp	r0, #2
   27034:	d01c      	beq.n	27070 <_ZN20complex_dynamic_type3app17hfe02ba42aceb3337E+0xfc>
   27036:	2803      	cmp	r0, #3
   27038:	d105      	bne.n	27046 <_ZN20complex_dynamic_type3app17hfe02ba42aceb3337E+0xd2>
   2703a:	4817      	ldr	r0, [pc, #92]	@ (27098 <_ZN20complex_dynamic_type3app17hfe02ba42aceb3337E+0x124>)
   2703c:	2109      	movs	r1, #9
   2703e:	2200      	movs	r2, #0
   27040:	4613      	mov	r3, r2
   27042:	df03      	svc	3
   27044:	e004      	b.n	27050 <_ZN20complex_dynamic_type3app17hfe02ba42aceb3337E+0xdc>
   27046:	4814      	ldr	r0, [pc, #80]	@ (27098 <_ZN20complex_dynamic_type3app17hfe02ba42aceb3337E+0x124>)
   27048:	2109      	movs	r1, #9
   2704a:	2200      	movs	r2, #0
   2704c:	4613      	mov	r3, r2
   2704e:	df04      	svc	4
   27050:	a804      	add	r0, sp, #16
   27052:	9900      	ldr	r1, [sp, #0]
   27054:	7001      	strb	r1, [r0, #0]
   27056:	a819      	add	r0, sp, #100	@ 0x64
   27058:	7800      	ldrb	r0, [r0, #0]
   2705a:	2803      	cmp	r0, #3
   2705c:	d008      	beq.n	27070 <_ZN20complex_dynamic_type3app17hfe02ba42aceb3337E+0xfc>
   2705e:	2802      	cmp	r0, #2
   27060:	d10c      	bne.n	2707c <_ZN20complex_dynamic_type3app17hfe02ba42aceb3337E+0x108>
   27062:	1c68      	adds	r0, r5, #1
   27064:	224d      	movs	r2, #77	@ 0x4d
   27066:	4621      	mov	r1, r4
   27068:	f003 fa86 	bl	2a578 <__aeabi_memcpy>
   2706c:	702e      	strb	r6, [r5, #0]
   2706e:	e7dc      	b.n	2702a <_ZN20complex_dynamic_type3app17hfe02ba42aceb3337E+0xb6>
   27070:	4809      	ldr	r0, [pc, #36]	@ (27098 <_ZN20complex_dynamic_type3app17hfe02ba42aceb3337E+0x124>)
   27072:	2104      	movs	r1, #4
   27074:	2200      	movs	r2, #0
   27076:	4613      	mov	r3, r2
   27078:	df03      	svc	3
   2707a:	e004      	b.n	27086 <_ZN20complex_dynamic_type3app17hfe02ba42aceb3337E+0x112>
   2707c:	4806      	ldr	r0, [pc, #24]	@ (27098 <_ZN20complex_dynamic_type3app17hfe02ba42aceb3337E+0x124>)
   2707e:	2104      	movs	r1, #4
   27080:	2200      	movs	r2, #0
   27082:	4613      	mov	r3, r2
   27084:	df04      	svc	4
   27086:	a804      	add	r0, sp, #16
   27088:	7804      	ldrb	r4, [r0, #0]
   2708a:	1c68      	adds	r0, r5, #1
   2708c:	224d      	movs	r2, #77	@ 0x4d
   2708e:	9901      	ldr	r1, [sp, #4]
   27090:	f003 fa72 	bl	2a578 <__aeabi_memcpy>
   27094:	702e      	strb	r6, [r5, #0]
   27096:	e7bd      	b.n	27014 <_ZN20complex_dynamic_type3app17hfe02ba42aceb3337E+0xa0>
   27098:	000016ba 	.word	0x000016ba

0002709c <_start>:
   2709c:	b5f0      	push	{r4, r5, r6, r7, lr}
   2709e:	af03      	add	r7, sp, #12
   270a0:	4eca      	ldr	r6, [pc, #808]	@ (273cc <_start+0x330>)
   270a2:	44b5      	add	sp, r6
   270a4:	48ca      	ldr	r0, [pc, #808]	@ (273d0 <_start+0x334>)
   270a6:	4468      	add	r0, sp
   270a8:	9009      	str	r0, [sp, #36]	@ 0x24
   270aa:	48ca      	ldr	r0, [pc, #808]	@ (273d4 <_start+0x338>)
   270ac:	4468      	add	r0, sp
   270ae:	9007      	str	r0, [sp, #28]
   270b0:	ac1f      	add	r4, sp, #124	@ 0x7c
   270b2:	1c60      	adds	r0, r4, #1
   270b4:	2128      	movs	r1, #40	@ 0x28
   270b6:	910b      	str	r1, [sp, #44]	@ 0x2c
   270b8:	f003 f89e 	bl	2a1f8 <__aeabi_memclr>
   270bc:	2502      	movs	r5, #2
   270be:	7025      	strb	r5, [r4, #0]
   270c0:	4ec5      	ldr	r6, [pc, #788]	@ (273d8 <_start+0x33c>)
   270c2:	446e      	add	r6, sp
   270c4:	1c70      	adds	r0, r6, #1
   270c6:	2151      	movs	r1, #81	@ 0x51
   270c8:	9008      	str	r0, [sp, #32]
   270ca:	f003 f895 	bl	2a1f8 <__aeabi_memclr>
   270ce:	950a      	str	r5, [sp, #40]	@ 0x28
   270d0:	7035      	strb	r5, [r6, #0]
   270d2:	2204      	movs	r2, #4
   270d4:	4620      	mov	r0, r4
   270d6:	990b      	ldr	r1, [sp, #44]	@ 0x2c
   270d8:	920b      	str	r2, [sp, #44]	@ 0x2c
   270da:	f7f9 f899 	bl	20210 <_ZN9allow_pin12dynamic_type23Buffer$LT$B$C$_$C$_$GT$5allow17hb1dd552c8d8bfa58E>
   270de:	460d      	mov	r5, r1
   270e0:	07c0      	lsls	r0, r0, #31
   270e2:	a94b      	add	r1, sp, #300	@ 0x12c
   270e4:	4cbd      	ldr	r4, [pc, #756]	@ (273dc <_start+0x340>)
   270e6:	446c      	add	r4, sp
   270e8:	4ebd      	ldr	r6, [pc, #756]	@ (273e0 <_start+0x344>)
   270ea:	446e      	add	r6, sp
   270ec:	2800      	cmp	r0, #0
   270ee:	d110      	bne.n	27112 <_start+0x76>
   270f0:	9106      	str	r1, [sp, #24]
   270f2:	48b9      	ldr	r0, [pc, #740]	@ (273d8 <_start+0x33c>)
   270f4:	4468      	add	r0, sp
   270f6:	2151      	movs	r1, #81	@ 0x51
   270f8:	2203      	movs	r2, #3
   270fa:	f7f9 f889 	bl	20210 <_ZN9allow_pin12dynamic_type23Buffer$LT$B$C$_$C$_$GT$5allow17hb1dd552c8d8bfa58E>
   270fe:	07c0      	lsls	r0, r0, #31
   27100:	d106      	bne.n	27110 <_start+0x74>
   27102:	48b8      	ldr	r0, [pc, #736]	@ (273e4 <_start+0x348>)
   27104:	2109      	movs	r1, #9
   27106:	2300      	movs	r3, #0
   27108:	460a      	mov	r2, r1
   2710a:	df02      	svc	2
   2710c:	287f      	cmp	r0, #127	@ 0x7f
   2710e:	d82a      	bhi.n	27166 <_start+0xca>
   27110:	460d      	mov	r5, r1
   27112:	48b1      	ldr	r0, [pc, #708]	@ (273d8 <_start+0x33c>)
   27114:	4468      	add	r0, sp
   27116:	7800      	ldrb	r0, [r0, #0]
   27118:	2802      	cmp	r0, #2
   2711a:	d00c      	beq.n	27136 <_start+0x9a>
   2711c:	2803      	cmp	r0, #3
   2711e:	d105      	bne.n	2712c <_start+0x90>
   27120:	48b0      	ldr	r0, [pc, #704]	@ (273e4 <_start+0x348>)
   27122:	2109      	movs	r1, #9
   27124:	2200      	movs	r2, #0
   27126:	4613      	mov	r3, r2
   27128:	df03      	svc	3
   2712a:	e004      	b.n	27136 <_start+0x9a>
   2712c:	48ad      	ldr	r0, [pc, #692]	@ (273e4 <_start+0x348>)
   2712e:	2109      	movs	r1, #9
   27130:	2200      	movs	r2, #0
   27132:	4613      	mov	r3, r2
   27134:	df04      	svc	4
   27136:	a81f      	add	r0, sp, #124	@ 0x7c
   27138:	7800      	ldrb	r0, [r0, #0]
   2713a:	2802      	cmp	r0, #2
   2713c:	d00c      	beq.n	27158 <_start+0xbc>
   2713e:	2803      	cmp	r0, #3
   27140:	d105      	bne.n	2714e <_start+0xb2>
   27142:	48a8      	ldr	r0, [pc, #672]	@ (273e4 <_start+0x348>)
   27144:	2109      	movs	r1, #9
   27146:	2200      	movs	r2, #0
   27148:	4613      	mov	r3, r2
   2714a:	df03      	svc	3
   2714c:	e004      	b.n	27158 <_start+0xbc>
   2714e:	48a5      	ldr	r0, [pc, #660]	@ (273e4 <_start+0x348>)
   27150:	2109      	movs	r1, #9
   27152:	2200      	movs	r2, #0
   27154:	4613      	mov	r3, r2
   27156:	df04      	svc	4
   27158:	2401      	movs	r4, #1
   2715a:	4620      	mov	r0, r4
   2715c:	4629      	mov	r1, r5
   2715e:	1ffe      	subs	r6, r7, #7
   27160:	3e05      	subs	r6, #5
   27162:	46b5      	mov	sp, r6
   27164:	bdf0      	pop	{r4, r5, r6, r7, pc}
   27166:	a81f      	add	r0, sp, #124	@ 0x7c
   27168:	7800      	ldrb	r0, [r0, #0]
   2716a:	2802      	cmp	r0, #2
   2716c:	d00c      	beq.n	27188 <_start+0xec>
   2716e:	2803      	cmp	r0, #3
   27170:	d105      	bne.n	2717e <_start+0xe2>
   27172:	489c      	ldr	r0, [pc, #624]	@ (273e4 <_start+0x348>)
   27174:	2109      	movs	r1, #9
   27176:	2200      	movs	r2, #0
   27178:	4613      	mov	r3, r2
   2717a:	df03      	svc	3
   2717c:	e004      	b.n	27188 <_start+0xec>
   2717e:	4899      	ldr	r0, [pc, #612]	@ (273e4 <_start+0x348>)
   27180:	2109      	movs	r1, #9
   27182:	2200      	movs	r2, #0
   27184:	4613      	mov	r3, r2
   27186:	df04      	svc	4
   27188:	a81f      	add	r0, sp, #124	@ 0x7c
   2718a:	990a      	ldr	r1, [sp, #40]	@ 0x28
   2718c:	7001      	strb	r1, [r0, #0]
   2718e:	4892      	ldr	r0, [pc, #584]	@ (273d8 <_start+0x33c>)
   27190:	4468      	add	r0, sp
   27192:	7800      	ldrb	r0, [r0, #0]
   27194:	2803      	cmp	r0, #3
   27196:	9603      	str	r6, [sp, #12]
   27198:	9402      	str	r4, [sp, #8]
   2719a:	d015      	beq.n	271c8 <_start+0x12c>
   2719c:	2802      	cmp	r0, #2
   2719e:	d119      	bne.n	271d4 <_start+0x138>
   271a0:	9a08      	ldr	r2, [sp, #32]
   271a2:	7890      	ldrb	r0, [r2, #2]
   271a4:	a92f      	add	r1, sp, #188	@ 0xbc
   271a6:	7088      	strb	r0, [r1, #2]
   271a8:	7810      	ldrb	r0, [r2, #0]
   271aa:	7852      	ldrb	r2, [r2, #1]
   271ac:	0212      	lsls	r2, r2, #8
   271ae:	1810      	adds	r0, r2, r0
   271b0:	8008      	strh	r0, [r1, #0]
   271b2:	9809      	ldr	r0, [sp, #36]	@ 0x24
   271b4:	6e00      	ldr	r0, [r0, #96]	@ 0x60
   271b6:	9008      	str	r0, [sp, #32]
   271b8:	4987      	ldr	r1, [pc, #540]	@ (273d8 <_start+0x33c>)
   271ba:	4469      	add	r1, sp
   271bc:	3108      	adds	r1, #8
   271be:	a80c      	add	r0, sp, #48	@ 0x30
   271c0:	224a      	movs	r2, #74	@ 0x4a
   271c2:	f003 f879 	bl	2a2b8 <__aeabi_memcpy4>
   271c6:	e02a      	b.n	2721e <_start+0x182>
   271c8:	4886      	ldr	r0, [pc, #536]	@ (273e4 <_start+0x348>)
   271ca:	2109      	movs	r1, #9
   271cc:	2200      	movs	r2, #0
   271ce:	4613      	mov	r3, r2
   271d0:	df03      	svc	3
   271d2:	e004      	b.n	271de <_start+0x142>
   271d4:	4883      	ldr	r0, [pc, #524]	@ (273e4 <_start+0x348>)
   271d6:	2109      	movs	r1, #9
   271d8:	2200      	movs	r2, #0
   271da:	4613      	mov	r3, r2
   271dc:	df04      	svc	4
   271de:	9a08      	ldr	r2, [sp, #32]
   271e0:	7890      	ldrb	r0, [r2, #2]
   271e2:	a92f      	add	r1, sp, #188	@ 0xbc
   271e4:	7088      	strb	r0, [r1, #2]
   271e6:	7810      	ldrb	r0, [r2, #0]
   271e8:	7852      	ldrb	r2, [r2, #1]
   271ea:	0212      	lsls	r2, r2, #8
   271ec:	1810      	adds	r0, r2, r0
   271ee:	8008      	strh	r0, [r1, #0]
   271f0:	a81f      	add	r0, sp, #124	@ 0x7c
   271f2:	7804      	ldrb	r4, [r0, #0]
   271f4:	9809      	ldr	r0, [sp, #36]	@ 0x24
   271f6:	6e05      	ldr	r5, [r0, #96]	@ 0x60
   271f8:	4977      	ldr	r1, [pc, #476]	@ (273d8 <_start+0x33c>)
   271fa:	4469      	add	r1, sp
   271fc:	3108      	adds	r1, #8
   271fe:	a80c      	add	r0, sp, #48	@ 0x30
   27200:	224a      	movs	r2, #74	@ 0x4a
   27202:	f003 f859 	bl	2a2b8 <__aeabi_memcpy4>
   27206:	2c02      	cmp	r4, #2
   27208:	9508      	str	r5, [sp, #32]
   2720a:	d008      	beq.n	2721e <_start+0x182>
   2720c:	4875      	ldr	r0, [pc, #468]	@ (273e4 <_start+0x348>)
   2720e:	2109      	movs	r1, #9
   27210:	2200      	movs	r2, #0
   27212:	4613      	mov	r3, r2
   27214:	2c03      	cmp	r4, #3
   27216:	d101      	bne.n	2721c <_start+0x180>
   27218:	df03      	svc	3
   2721a:	e000      	b.n	2721e <_start+0x182>
   2721c:	df04      	svc	4
   2721e:	4d6e      	ldr	r5, [pc, #440]	@ (273d8 <_start+0x33c>)
   27220:	446d      	add	r5, sp
   27222:	1c68      	adds	r0, r5, #1
   27224:	9005      	str	r0, [sp, #20]
   27226:	a92f      	add	r1, sp, #188	@ 0xbc
   27228:	2203      	movs	r2, #3
   2722a:	9204      	str	r2, [sp, #16]
   2722c:	f003 f9a4 	bl	2a578 <__aeabi_memcpy>
   27230:	4e67      	ldr	r6, [pc, #412]	@ (273d0 <_start+0x334>)
   27232:	446e      	add	r6, sp
   27234:	a90c      	add	r1, sp, #48	@ 0x30
   27236:	244a      	movs	r4, #74	@ 0x4a
   27238:	4630      	mov	r0, r6
   2723a:	4622      	mov	r2, r4
   2723c:	f003 f83c 	bl	2a2b8 <__aeabi_memcpy4>
   27240:	4628      	mov	r0, r5
   27242:	3008      	adds	r0, #8
   27244:	4631      	mov	r1, r6
   27246:	4622      	mov	r2, r4
   27248:	f003 f836 	bl	2a2b8 <__aeabi_memcpy4>
   2724c:	9e0a      	ldr	r6, [sp, #40]	@ 0x28
   2724e:	702e      	strb	r6, [r5, #0]
   27250:	9809      	ldr	r0, [sp, #36]	@ 0x24
   27252:	9908      	ldr	r1, [sp, #32]
   27254:	6601      	str	r1, [r0, #96]	@ 0x60
   27256:	4c5e      	ldr	r4, [pc, #376]	@ (273d0 <_start+0x334>)
   27258:	446c      	add	r4, sp
   2725a:	1c65      	adds	r5, r4, #1
   2725c:	2146      	movs	r1, #70	@ 0x46
   2725e:	4628      	mov	r0, r5
   27260:	f002 ffca 	bl	2a1f8 <__aeabi_memclr>
   27264:	7026      	strb	r6, [r4, #0]
   27266:	4860      	ldr	r0, [pc, #384]	@ (273e8 <_start+0x34c>)
   27268:	2107      	movs	r1, #7
   2726a:	2351      	movs	r3, #81	@ 0x51
   2726c:	9a05      	ldr	r2, [sp, #20]
   2726e:	df04      	svc	4
   27270:	2802      	cmp	r0, #2
   27272:	d101      	bne.n	27278 <_start+0x1dc>
   27274:	460d      	mov	r5, r1
   27276:	e029      	b.n	272cc <_start+0x230>
   27278:	4857      	ldr	r0, [pc, #348]	@ (273d8 <_start+0x33c>)
   2727a:	4468      	add	r0, sp
   2727c:	990b      	ldr	r1, [sp, #44]	@ 0x2c
   2727e:	7001      	strb	r1, [r0, #0]
   27280:	4859      	ldr	r0, [pc, #356]	@ (273e8 <_start+0x34c>)
   27282:	2100      	movs	r1, #0
   27284:	2346      	movs	r3, #70	@ 0x46
   27286:	462a      	mov	r2, r5
   27288:	df03      	svc	3
   2728a:	2802      	cmp	r0, #2
   2728c:	d10d      	bne.n	272aa <_start+0x20e>
   2728e:	4850      	ldr	r0, [pc, #320]	@ (273d0 <_start+0x334>)
   27290:	4468      	add	r0, sp
   27292:	7800      	ldrb	r0, [r0, #0]
   27294:	2802      	cmp	r0, #2
   27296:	d0ed      	beq.n	27274 <_start+0x1d8>
   27298:	2803      	cmp	r0, #3
   2729a:	460d      	mov	r5, r1
   2729c:	d011      	beq.n	272c2 <_start+0x226>
   2729e:	4852      	ldr	r0, [pc, #328]	@ (273e8 <_start+0x34c>)
   272a0:	2100      	movs	r1, #0
   272a2:	460a      	mov	r2, r1
   272a4:	460b      	mov	r3, r1
   272a6:	df04      	svc	4
   272a8:	e010      	b.n	272cc <_start+0x230>
   272aa:	4849      	ldr	r0, [pc, #292]	@ (273d0 <_start+0x334>)
   272ac:	4468      	add	r0, sp
   272ae:	9904      	ldr	r1, [sp, #16]
   272b0:	7001      	strb	r1, [r0, #0]
   272b2:	484d      	ldr	r0, [pc, #308]	@ (273e8 <_start+0x34c>)
   272b4:	2107      	movs	r1, #7
   272b6:	2200      	movs	r2, #0
   272b8:	4613      	mov	r3, r2
   272ba:	df02      	svc	2
   272bc:	287f      	cmp	r0, #127	@ 0x7f
   272be:	d819      	bhi.n	272f4 <_start+0x258>
   272c0:	460d      	mov	r5, r1
   272c2:	4849      	ldr	r0, [pc, #292]	@ (273e8 <_start+0x34c>)
   272c4:	2100      	movs	r1, #0
   272c6:	460a      	mov	r2, r1
   272c8:	460b      	mov	r3, r1
   272ca:	df03      	svc	3
   272cc:	4842      	ldr	r0, [pc, #264]	@ (273d8 <_start+0x33c>)
   272ce:	4468      	add	r0, sp
   272d0:	7800      	ldrb	r0, [r0, #0]
   272d2:	2802      	cmp	r0, #2
   272d4:	d100      	bne.n	272d8 <_start+0x23c>
   272d6:	e73f      	b.n	27158 <_start+0xbc>
   272d8:	2803      	cmp	r0, #3
   272da:	d105      	bne.n	272e8 <_start+0x24c>
   272dc:	4842      	ldr	r0, [pc, #264]	@ (273e8 <_start+0x34c>)
   272de:	2107      	movs	r1, #7
   272e0:	2200      	movs	r2, #0
   272e2:	4613      	mov	r3, r2
   272e4:	df03      	svc	3
   272e6:	e737      	b.n	27158 <_start+0xbc>
   272e8:	483f      	ldr	r0, [pc, #252]	@ (273e8 <_start+0x34c>)
   272ea:	2107      	movs	r1, #7
   272ec:	2200      	movs	r2, #0
   272ee:	4613      	mov	r3, r2
   272f0:	df04      	svc	4
   272f2:	e731      	b.n	27158 <_start+0xbc>
   272f4:	4838      	ldr	r0, [pc, #224]	@ (273d8 <_start+0x33c>)
   272f6:	4468      	add	r0, sp
   272f8:	7800      	ldrb	r0, [r0, #0]
   272fa:	2802      	cmp	r0, #2
   272fc:	d033      	beq.n	27366 <_start+0x2ca>
   272fe:	2803      	cmp	r0, #3
   27300:	d105      	bne.n	2730e <_start+0x272>
   27302:	4839      	ldr	r0, [pc, #228]	@ (273e8 <_start+0x34c>)
   27304:	2107      	movs	r1, #7
   27306:	2200      	movs	r2, #0
   27308:	4613      	mov	r3, r2
   2730a:	df03      	svc	3
   2730c:	e004      	b.n	27318 <_start+0x27c>
   2730e:	4836      	ldr	r0, [pc, #216]	@ (273e8 <_start+0x34c>)
   27310:	2107      	movs	r1, #7
   27312:	2200      	movs	r2, #0
   27314:	4613      	mov	r3, r2
   27316:	df04      	svc	4
   27318:	482f      	ldr	r0, [pc, #188]	@ (273d8 <_start+0x33c>)
   2731a:	4468      	add	r0, sp
   2731c:	990a      	ldr	r1, [sp, #40]	@ 0x28
   2731e:	7001      	strb	r1, [r0, #0]
   27320:	482b      	ldr	r0, [pc, #172]	@ (273d0 <_start+0x334>)
   27322:	4468      	add	r0, sp
   27324:	7800      	ldrb	r0, [r0, #0]
   27326:	2803      	cmp	r0, #3
   27328:	d01d      	beq.n	27366 <_start+0x2ca>
   2732a:	2802      	cmp	r0, #2
   2732c:	d121      	bne.n	27372 <_start+0x2d6>
   2732e:	78a8      	ldrb	r0, [r5, #2]
   27330:	a92f      	add	r1, sp, #188	@ 0xbc
   27332:	7088      	strb	r0, [r1, #2]
   27334:	7828      	ldrb	r0, [r5, #0]
   27336:	786a      	ldrb	r2, [r5, #1]
   27338:	0212      	lsls	r2, r2, #8
   2733a:	1810      	adds	r0, r2, r0
   2733c:	8008      	strh	r0, [r1, #0]
   2733e:	4824      	ldr	r0, [pc, #144]	@ (273d0 <_start+0x334>)
   27340:	4468      	add	r0, sp
   27342:	3008      	adds	r0, #8
   27344:	9907      	ldr	r1, [sp, #28]
   27346:	6809      	ldr	r1, [r1, #0]
   27348:	9108      	str	r1, [sp, #32]
   2734a:	a91f      	add	r1, sp, #124	@ 0x7c
   2734c:	c81c      	ldmia	r0!, {r2, r3, r4}
   2734e:	c11c      	stmia	r1!, {r2, r3, r4}
   27350:	c83c      	ldmia	r0!, {r2, r3, r4, r5}
   27352:	c13c      	stmia	r1!, {r2, r3, r4, r5}
   27354:	c83c      	ldmia	r0!, {r2, r3, r4, r5}
   27356:	c13c      	stmia	r1!, {r2, r3, r4, r5}
   27358:	c83c      	ldmia	r0!, {r2, r3, r4, r5}
   2735a:	c13c      	stmia	r1!, {r2, r3, r4, r5}
   2735c:	8802      	ldrh	r2, [r0, #0]
   2735e:	800a      	strh	r2, [r1, #0]
   27360:	7880      	ldrb	r0, [r0, #2]
   27362:	7088      	strb	r0, [r1, #2]
   27364:	e047      	b.n	273f6 <_start+0x35a>
   27366:	4820      	ldr	r0, [pc, #128]	@ (273e8 <_start+0x34c>)
   27368:	2100      	movs	r1, #0
   2736a:	460a      	mov	r2, r1
   2736c:	460b      	mov	r3, r1
   2736e:	df03      	svc	3
   27370:	e004      	b.n	2737c <_start+0x2e0>
   27372:	481d      	ldr	r0, [pc, #116]	@ (273e8 <_start+0x34c>)
   27374:	2100      	movs	r1, #0
   27376:	460a      	mov	r2, r1
   27378:	460b      	mov	r3, r1
   2737a:	df04      	svc	4
   2737c:	78a8      	ldrb	r0, [r5, #2]
   2737e:	a92f      	add	r1, sp, #188	@ 0xbc
   27380:	7088      	strb	r0, [r1, #2]
   27382:	7828      	ldrb	r0, [r5, #0]
   27384:	786a      	ldrb	r2, [r5, #1]
   27386:	0212      	lsls	r2, r2, #8
   27388:	1810      	adds	r0, r2, r0
   2738a:	8008      	strh	r0, [r1, #0]
   2738c:	4812      	ldr	r0, [pc, #72]	@ (273d8 <_start+0x33c>)
   2738e:	4468      	add	r0, sp
   27390:	7800      	ldrb	r0, [r0, #0]
   27392:	490f      	ldr	r1, [pc, #60]	@ (273d0 <_start+0x334>)
   27394:	4469      	add	r1, sp
   27396:	3108      	adds	r1, #8
   27398:	9a07      	ldr	r2, [sp, #28]
   2739a:	6812      	ldr	r2, [r2, #0]
   2739c:	9208      	str	r2, [sp, #32]
   2739e:	aa1f      	add	r2, sp, #124	@ 0x7c
   273a0:	c938      	ldmia	r1!, {r3, r4, r5}
   273a2:	c238      	stmia	r2!, {r3, r4, r5}
   273a4:	c978      	ldmia	r1!, {r3, r4, r5, r6}
   273a6:	c278      	stmia	r2!, {r3, r4, r5, r6}
   273a8:	c978      	ldmia	r1!, {r3, r4, r5, r6}
   273aa:	c278      	stmia	r2!, {r3, r4, r5, r6}
   273ac:	c978      	ldmia	r1!, {r3, r4, r5, r6}
   273ae:	c278      	stmia	r2!, {r3, r4, r5, r6}
   273b0:	880b      	ldrh	r3, [r1, #0]
   273b2:	8013      	strh	r3, [r2, #0]
   273b4:	7889      	ldrb	r1, [r1, #2]
   273b6:	7091      	strb	r1, [r2, #2]
   273b8:	2802      	cmp	r0, #2
   273ba:	d01c      	beq.n	273f6 <_start+0x35a>
   273bc:	2803      	cmp	r0, #3
   273be:	d115      	bne.n	273ec <_start+0x350>
   273c0:	4809      	ldr	r0, [pc, #36]	@ (273e8 <_start+0x34c>)
   273c2:	2107      	movs	r1, #7
   273c4:	2200      	movs	r2, #0
   273c6:	4613      	mov	r3, r2
   273c8:	df03      	svc	3
   273ca:	e014      	b.n	273f6 <_start+0x35a>
   273cc:	ffffeadc 	.word	0xffffeadc
   273d0:	000013a8 	.word	0x000013a8
   273d4:	000013ac 	.word	0x000013ac
   273d8:	00001404 	.word	0x00001404
   273dc:	00000508 	.word	0x00000508
   273e0:	000007dc 	.word	0x000007dc
   273e4:	00002006 	.word	0x00002006
   273e8:	000020c4 	.word	0x000020c4
   273ec:	48d7      	ldr	r0, [pc, #860]	@ (2774c <_start+0x6b0>)
   273ee:	2107      	movs	r1, #7
   273f0:	2200      	movs	r2, #0
   273f2:	4613      	mov	r3, r2
   273f4:	df04      	svc	4
   273f6:	48d6      	ldr	r0, [pc, #856]	@ (27750 <_start+0x6b4>)
   273f8:	4468      	add	r0, sp
   273fa:	9001      	str	r0, [sp, #4]
   273fc:	1c40      	adds	r0, r0, #1
   273fe:	9005      	str	r0, [sp, #20]
   27400:	a92f      	add	r1, sp, #188	@ 0xbc
   27402:	2203      	movs	r2, #3
   27404:	9204      	str	r2, [sp, #16]
   27406:	f003 f8b7 	bl	2a578 <__aeabi_memcpy>
   2740a:	a91f      	add	r1, sp, #124	@ 0x7c
   2740c:	a80c      	add	r0, sp, #48	@ 0x30
   2740e:	4602      	mov	r2, r0
   27410:	c958      	ldmia	r1!, {r3, r4, r6}
   27412:	c258      	stmia	r2!, {r3, r4, r6}
   27414:	c978      	ldmia	r1!, {r3, r4, r5, r6}
   27416:	c278      	stmia	r2!, {r3, r4, r5, r6}
   27418:	c978      	ldmia	r1!, {r3, r4, r5, r6}
   2741a:	c278      	stmia	r2!, {r3, r4, r5, r6}
   2741c:	c978      	ldmia	r1!, {r3, r4, r5, r6}
   2741e:	c278      	stmia	r2!, {r3, r4, r5, r6}
   27420:	880b      	ldrh	r3, [r1, #0]
   27422:	8013      	strh	r3, [r2, #0]
   27424:	7889      	ldrb	r1, [r1, #2]
   27426:	7091      	strb	r1, [r2, #2]
   27428:	9e01      	ldr	r6, [sp, #4]
   2742a:	4631      	mov	r1, r6
   2742c:	3108      	adds	r1, #8
   2742e:	c81c      	ldmia	r0!, {r2, r3, r4}
   27430:	c11c      	stmia	r1!, {r2, r3, r4}
   27432:	c83c      	ldmia	r0!, {r2, r3, r4, r5}
   27434:	c13c      	stmia	r1!, {r2, r3, r4, r5}
   27436:	c83c      	ldmia	r0!, {r2, r3, r4, r5}
   27438:	c13c      	stmia	r1!, {r2, r3, r4, r5}
   2743a:	c83c      	ldmia	r0!, {r2, r3, r4, r5}
   2743c:	c13c      	stmia	r1!, {r2, r3, r4, r5}
   2743e:	8802      	ldrh	r2, [r0, #0]
   27440:	800a      	strh	r2, [r1, #0]
   27442:	7880      	ldrb	r0, [r0, #2]
   27444:	7088      	strb	r0, [r1, #2]
   27446:	9d0a      	ldr	r5, [sp, #40]	@ 0x28
   27448:	7035      	strb	r5, [r6, #0]
   2744a:	9809      	ldr	r0, [sp, #36]	@ 0x24
   2744c:	9908      	ldr	r1, [sp, #32]
   2744e:	6601      	str	r1, [r0, #96]	@ 0x60
   27450:	4cc0      	ldr	r4, [pc, #768]	@ (27754 <_start+0x6b8>)
   27452:	446c      	add	r4, sp
   27454:	1c66      	adds	r6, r4, #1
   27456:	2118      	movs	r1, #24
   27458:	4630      	mov	r0, r6
   2745a:	f002 fecd 	bl	2a1f8 <__aeabi_memclr>
   2745e:	7025      	strb	r5, [r4, #0]
   27460:	48bd      	ldr	r0, [pc, #756]	@ (27758 <_start+0x6bc>)
   27462:	2346      	movs	r3, #70	@ 0x46
   27464:	9904      	ldr	r1, [sp, #16]
   27466:	460c      	mov	r4, r1
   27468:	9a05      	ldr	r2, [sp, #20]
   2746a:	df04      	svc	4
   2746c:	2802      	cmp	r0, #2
   2746e:	d101      	bne.n	27474 <_start+0x3d8>
   27470:	460d      	mov	r5, r1
   27472:	e029      	b.n	274c8 <_start+0x42c>
   27474:	48b6      	ldr	r0, [pc, #728]	@ (27750 <_start+0x6b4>)
   27476:	4468      	add	r0, sp
   27478:	990b      	ldr	r1, [sp, #44]	@ 0x2c
   2747a:	7001      	strb	r1, [r0, #0]
   2747c:	48b6      	ldr	r0, [pc, #728]	@ (27758 <_start+0x6bc>)
   2747e:	2102      	movs	r1, #2
   27480:	2318      	movs	r3, #24
   27482:	4632      	mov	r2, r6
   27484:	df03      	svc	3
   27486:	2802      	cmp	r0, #2
   27488:	d10d      	bne.n	274a6 <_start+0x40a>
   2748a:	460d      	mov	r5, r1
   2748c:	48b1      	ldr	r0, [pc, #708]	@ (27754 <_start+0x6b8>)
   2748e:	4468      	add	r0, sp
   27490:	7800      	ldrb	r0, [r0, #0]
   27492:	2802      	cmp	r0, #2
   27494:	d018      	beq.n	274c8 <_start+0x42c>
   27496:	2803      	cmp	r0, #3
   27498:	d011      	beq.n	274be <_start+0x422>
   2749a:	48af      	ldr	r0, [pc, #700]	@ (27758 <_start+0x6bc>)
   2749c:	2102      	movs	r1, #2
   2749e:	2200      	movs	r2, #0
   274a0:	4613      	mov	r3, r2
   274a2:	df04      	svc	4
   274a4:	e010      	b.n	274c8 <_start+0x42c>
   274a6:	48ab      	ldr	r0, [pc, #684]	@ (27754 <_start+0x6b8>)
   274a8:	4468      	add	r0, sp
   274aa:	4621      	mov	r1, r4
   274ac:	7004      	strb	r4, [r0, #0]
   274ae:	48aa      	ldr	r0, [pc, #680]	@ (27758 <_start+0x6bc>)
   274b0:	2402      	movs	r4, #2
   274b2:	2300      	movs	r3, #0
   274b4:	4622      	mov	r2, r4
   274b6:	df02      	svc	2
   274b8:	287f      	cmp	r0, #127	@ 0x7f
   274ba:	d819      	bhi.n	274f0 <_start+0x454>
   274bc:	460d      	mov	r5, r1
   274be:	48a6      	ldr	r0, [pc, #664]	@ (27758 <_start+0x6bc>)
   274c0:	2102      	movs	r1, #2
   274c2:	2200      	movs	r2, #0
   274c4:	4613      	mov	r3, r2
   274c6:	df03      	svc	3
   274c8:	48a1      	ldr	r0, [pc, #644]	@ (27750 <_start+0x6b4>)
   274ca:	4468      	add	r0, sp
   274cc:	7800      	ldrb	r0, [r0, #0]
   274ce:	2802      	cmp	r0, #2
   274d0:	d100      	bne.n	274d4 <_start+0x438>
   274d2:	e641      	b.n	27158 <_start+0xbc>
   274d4:	2803      	cmp	r0, #3
   274d6:	d105      	bne.n	274e4 <_start+0x448>
   274d8:	489f      	ldr	r0, [pc, #636]	@ (27758 <_start+0x6bc>)
   274da:	2103      	movs	r1, #3
   274dc:	2200      	movs	r2, #0
   274de:	4613      	mov	r3, r2
   274e0:	df03      	svc	3
   274e2:	e639      	b.n	27158 <_start+0xbc>
   274e4:	489c      	ldr	r0, [pc, #624]	@ (27758 <_start+0x6bc>)
   274e6:	2103      	movs	r1, #3
   274e8:	2200      	movs	r2, #0
   274ea:	4613      	mov	r3, r2
   274ec:	df04      	svc	4
   274ee:	e633      	b.n	27158 <_start+0xbc>
   274f0:	4897      	ldr	r0, [pc, #604]	@ (27750 <_start+0x6b4>)
   274f2:	4468      	add	r0, sp
   274f4:	7800      	ldrb	r0, [r0, #0]
   274f6:	2802      	cmp	r0, #2
   274f8:	940a      	str	r4, [sp, #40]	@ 0x28
   274fa:	d02a      	beq.n	27552 <_start+0x4b6>
   274fc:	2803      	cmp	r0, #3
   274fe:	d105      	bne.n	2750c <_start+0x470>
   27500:	4895      	ldr	r0, [pc, #596]	@ (27758 <_start+0x6bc>)
   27502:	2103      	movs	r1, #3
   27504:	2200      	movs	r2, #0
   27506:	4613      	mov	r3, r2
   27508:	df03      	svc	3
   2750a:	e004      	b.n	27516 <_start+0x47a>
   2750c:	4892      	ldr	r0, [pc, #584]	@ (27758 <_start+0x6bc>)
   2750e:	2103      	movs	r1, #3
   27510:	2200      	movs	r2, #0
   27512:	4613      	mov	r3, r2
   27514:	df04      	svc	4
   27516:	488e      	ldr	r0, [pc, #568]	@ (27750 <_start+0x6b4>)
   27518:	4468      	add	r0, sp
   2751a:	7004      	strb	r4, [r0, #0]
   2751c:	488d      	ldr	r0, [pc, #564]	@ (27754 <_start+0x6b8>)
   2751e:	4468      	add	r0, sp
   27520:	7800      	ldrb	r0, [r0, #0]
   27522:	2803      	cmp	r0, #3
   27524:	d015      	beq.n	27552 <_start+0x4b6>
   27526:	2802      	cmp	r0, #2
   27528:	d119      	bne.n	2755e <_start+0x4c2>
   2752a:	78b0      	ldrb	r0, [r6, #2]
   2752c:	a934      	add	r1, sp, #208	@ 0xd0
   2752e:	7088      	strb	r0, [r1, #2]
   27530:	7830      	ldrb	r0, [r6, #0]
   27532:	7872      	ldrb	r2, [r6, #1]
   27534:	0212      	lsls	r2, r2, #8
   27536:	1810      	adds	r0, r2, r0
   27538:	8008      	strh	r0, [r1, #0]
   2753a:	4886      	ldr	r0, [pc, #536]	@ (27754 <_start+0x6b8>)
   2753c:	4468      	add	r0, sp
   2753e:	3008      	adds	r0, #8
   27540:	9907      	ldr	r1, [sp, #28]
   27542:	6809      	ldr	r1, [r1, #0]
   27544:	9108      	str	r1, [sp, #32]
   27546:	a92f      	add	r1, sp, #188	@ 0xbc
   27548:	c83c      	ldmia	r0!, {r2, r3, r4, r5}
   2754a:	c13c      	stmia	r1!, {r2, r3, r4, r5}
   2754c:	7800      	ldrb	r0, [r0, #0]
   2754e:	7008      	strb	r0, [r1, #0]
   27550:	e02f      	b.n	275b2 <_start+0x516>
   27552:	4881      	ldr	r0, [pc, #516]	@ (27758 <_start+0x6bc>)
   27554:	2102      	movs	r1, #2
   27556:	2200      	movs	r2, #0
   27558:	4613      	mov	r3, r2
   2755a:	df03      	svc	3
   2755c:	e004      	b.n	27568 <_start+0x4cc>
   2755e:	487e      	ldr	r0, [pc, #504]	@ (27758 <_start+0x6bc>)
   27560:	2102      	movs	r1, #2
   27562:	2200      	movs	r2, #0
   27564:	4613      	mov	r3, r2
   27566:	df04      	svc	4
   27568:	78b0      	ldrb	r0, [r6, #2]
   2756a:	a934      	add	r1, sp, #208	@ 0xd0
   2756c:	7088      	strb	r0, [r1, #2]
   2756e:	7830      	ldrb	r0, [r6, #0]
   27570:	7872      	ldrb	r2, [r6, #1]
   27572:	0212      	lsls	r2, r2, #8
   27574:	1810      	adds	r0, r2, r0
   27576:	8008      	strh	r0, [r1, #0]
   27578:	4875      	ldr	r0, [pc, #468]	@ (27750 <_start+0x6b4>)
   2757a:	4468      	add	r0, sp
   2757c:	7800      	ldrb	r0, [r0, #0]
   2757e:	4975      	ldr	r1, [pc, #468]	@ (27754 <_start+0x6b8>)
   27580:	4469      	add	r1, sp
   27582:	3108      	adds	r1, #8
   27584:	9a07      	ldr	r2, [sp, #28]
   27586:	6812      	ldr	r2, [r2, #0]
   27588:	9208      	str	r2, [sp, #32]
   2758a:	aa2f      	add	r2, sp, #188	@ 0xbc
   2758c:	c978      	ldmia	r1!, {r3, r4, r5, r6}
   2758e:	c278      	stmia	r2!, {r3, r4, r5, r6}
   27590:	7809      	ldrb	r1, [r1, #0]
   27592:	7011      	strb	r1, [r2, #0]
   27594:	2802      	cmp	r0, #2
   27596:	d00c      	beq.n	275b2 <_start+0x516>
   27598:	2803      	cmp	r0, #3
   2759a:	d105      	bne.n	275a8 <_start+0x50c>
   2759c:	486e      	ldr	r0, [pc, #440]	@ (27758 <_start+0x6bc>)
   2759e:	2103      	movs	r1, #3
   275a0:	2200      	movs	r2, #0
   275a2:	4613      	mov	r3, r2
   275a4:	df03      	svc	3
   275a6:	e004      	b.n	275b2 <_start+0x516>
   275a8:	486b      	ldr	r0, [pc, #428]	@ (27758 <_start+0x6bc>)
   275aa:	2103      	movs	r1, #3
   275ac:	2200      	movs	r2, #0
   275ae:	4613      	mov	r3, r2
   275b0:	df04      	svc	4
   275b2:	a81f      	add	r0, sp, #124	@ 0x7c
   275b4:	9004      	str	r0, [sp, #16]
   275b6:	1c40      	adds	r0, r0, #1
   275b8:	9005      	str	r0, [sp, #20]
   275ba:	a934      	add	r1, sp, #208	@ 0xd0
   275bc:	2203      	movs	r2, #3
   275be:	9201      	str	r2, [sp, #4]
   275c0:	f002 ffda 	bl	2a578 <__aeabi_memcpy>
   275c4:	a82f      	add	r0, sp, #188	@ 0xbc
   275c6:	a90c      	add	r1, sp, #48	@ 0x30
   275c8:	460a      	mov	r2, r1
   275ca:	c878      	ldmia	r0!, {r3, r4, r5, r6}
   275cc:	c278      	stmia	r2!, {r3, r4, r5, r6}
   275ce:	7800      	ldrb	r0, [r0, #0]
   275d0:	7010      	strb	r0, [r2, #0]
   275d2:	9e04      	ldr	r6, [sp, #16]
   275d4:	4630      	mov	r0, r6
   275d6:	3008      	adds	r0, #8
   275d8:	c93c      	ldmia	r1!, {r2, r3, r4, r5}
   275da:	c03c      	stmia	r0!, {r2, r3, r4, r5}
   275dc:	7809      	ldrb	r1, [r1, #0]
   275de:	7001      	strb	r1, [r0, #0]
   275e0:	9d0a      	ldr	r5, [sp, #40]	@ 0x28
   275e2:	7035      	strb	r5, [r6, #0]
   275e4:	9808      	ldr	r0, [sp, #32]
   275e6:	9020      	str	r0, [sp, #128]	@ 0x80
   275e8:	4c59      	ldr	r4, [pc, #356]	@ (27750 <_start+0x6b4>)
   275ea:	446c      	add	r4, sp
   275ec:	1c66      	adds	r6, r4, #1
   275ee:	2136      	movs	r1, #54	@ 0x36
   275f0:	4630      	mov	r0, r6
   275f2:	f002 fe01 	bl	2a1f8 <__aeabi_memclr>
   275f6:	7025      	strb	r5, [r4, #0]
   275f8:	4858      	ldr	r0, [pc, #352]	@ (2775c <_start+0x6c0>)
   275fa:	2100      	movs	r1, #0
   275fc:	2318      	movs	r3, #24
   275fe:	9a05      	ldr	r2, [sp, #20]
   27600:	df04      	svc	4
   27602:	2802      	cmp	r0, #2
   27604:	d101      	bne.n	2760a <_start+0x56e>
   27606:	460d      	mov	r5, r1
   27608:	e028      	b.n	2765c <_start+0x5c0>
   2760a:	a81f      	add	r0, sp, #124	@ 0x7c
   2760c:	990b      	ldr	r1, [sp, #44]	@ 0x2c
   2760e:	7001      	strb	r1, [r0, #0]
   27610:	4852      	ldr	r0, [pc, #328]	@ (2775c <_start+0x6c0>)
   27612:	2107      	movs	r1, #7
   27614:	2336      	movs	r3, #54	@ 0x36
   27616:	4632      	mov	r2, r6
   27618:	df03      	svc	3
   2761a:	2802      	cmp	r0, #2
   2761c:	d10d      	bne.n	2763a <_start+0x59e>
   2761e:	460d      	mov	r5, r1
   27620:	484b      	ldr	r0, [pc, #300]	@ (27750 <_start+0x6b4>)
   27622:	4468      	add	r0, sp
   27624:	7800      	ldrb	r0, [r0, #0]
   27626:	2802      	cmp	r0, #2
   27628:	d018      	beq.n	2765c <_start+0x5c0>
   2762a:	2803      	cmp	r0, #3
   2762c:	d011      	beq.n	27652 <_start+0x5b6>
   2762e:	484b      	ldr	r0, [pc, #300]	@ (2775c <_start+0x6c0>)
   27630:	2107      	movs	r1, #7
   27632:	2200      	movs	r2, #0
   27634:	4613      	mov	r3, r2
   27636:	df04      	svc	4
   27638:	e010      	b.n	2765c <_start+0x5c0>
   2763a:	4845      	ldr	r0, [pc, #276]	@ (27750 <_start+0x6b4>)
   2763c:	4468      	add	r0, sp
   2763e:	9901      	ldr	r1, [sp, #4]
   27640:	7001      	strb	r1, [r0, #0]
   27642:	4846      	ldr	r0, [pc, #280]	@ (2775c <_start+0x6c0>)
   27644:	2207      	movs	r2, #7
   27646:	2100      	movs	r1, #0
   27648:	460b      	mov	r3, r1
   2764a:	df02      	svc	2
   2764c:	287f      	cmp	r0, #127	@ 0x7f
   2764e:	d818      	bhi.n	27682 <_start+0x5e6>
   27650:	460d      	mov	r5, r1
   27652:	4842      	ldr	r0, [pc, #264]	@ (2775c <_start+0x6c0>)
   27654:	2107      	movs	r1, #7
   27656:	2200      	movs	r2, #0
   27658:	4613      	mov	r3, r2
   2765a:	df03      	svc	3
   2765c:	a81f      	add	r0, sp, #124	@ 0x7c
   2765e:	7800      	ldrb	r0, [r0, #0]
   27660:	2802      	cmp	r0, #2
   27662:	d100      	bne.n	27666 <_start+0x5ca>
   27664:	e578      	b.n	27158 <_start+0xbc>
   27666:	2803      	cmp	r0, #3
   27668:	d105      	bne.n	27676 <_start+0x5da>
   2766a:	483c      	ldr	r0, [pc, #240]	@ (2775c <_start+0x6c0>)
   2766c:	2100      	movs	r1, #0
   2766e:	460a      	mov	r2, r1
   27670:	460b      	mov	r3, r1
   27672:	df03      	svc	3
   27674:	e570      	b.n	27158 <_start+0xbc>
   27676:	4839      	ldr	r0, [pc, #228]	@ (2775c <_start+0x6c0>)
   27678:	2100      	movs	r1, #0
   2767a:	460a      	mov	r2, r1
   2767c:	460b      	mov	r3, r1
   2767e:	df04      	svc	4
   27680:	e56a      	b.n	27158 <_start+0xbc>
   27682:	a81f      	add	r0, sp, #124	@ 0x7c
   27684:	7800      	ldrb	r0, [r0, #0]
   27686:	2802      	cmp	r0, #2
   27688:	d030      	beq.n	276ec <_start+0x650>
   2768a:	2803      	cmp	r0, #3
   2768c:	d105      	bne.n	2769a <_start+0x5fe>
   2768e:	4833      	ldr	r0, [pc, #204]	@ (2775c <_start+0x6c0>)
   27690:	2100      	movs	r1, #0
   27692:	460a      	mov	r2, r1
   27694:	460b      	mov	r3, r1
   27696:	df03      	svc	3
   27698:	e004      	b.n	276a4 <_start+0x608>
   2769a:	4830      	ldr	r0, [pc, #192]	@ (2775c <_start+0x6c0>)
   2769c:	2100      	movs	r1, #0
   2769e:	460a      	mov	r2, r1
   276a0:	460b      	mov	r3, r1
   276a2:	df04      	svc	4
   276a4:	a81f      	add	r0, sp, #124	@ 0x7c
   276a6:	990a      	ldr	r1, [sp, #40]	@ 0x28
   276a8:	7001      	strb	r1, [r0, #0]
   276aa:	4829      	ldr	r0, [pc, #164]	@ (27750 <_start+0x6b4>)
   276ac:	4468      	add	r0, sp
   276ae:	7800      	ldrb	r0, [r0, #0]
   276b0:	2803      	cmp	r0, #3
   276b2:	d01b      	beq.n	276ec <_start+0x650>
   276b4:	2802      	cmp	r0, #2
   276b6:	d11f      	bne.n	276f8 <_start+0x65c>
   276b8:	78b0      	ldrb	r0, [r6, #2]
   276ba:	a92f      	add	r1, sp, #188	@ 0xbc
   276bc:	7088      	strb	r0, [r1, #2]
   276be:	7830      	ldrb	r0, [r6, #0]
   276c0:	7872      	ldrb	r2, [r6, #1]
   276c2:	0212      	lsls	r2, r2, #8
   276c4:	1810      	adds	r0, r2, r0
   276c6:	8008      	strh	r0, [r1, #0]
   276c8:	4821      	ldr	r0, [pc, #132]	@ (27750 <_start+0x6b4>)
   276ca:	4468      	add	r0, sp
   276cc:	3008      	adds	r0, #8
   276ce:	9909      	ldr	r1, [sp, #36]	@ 0x24
   276d0:	6e09      	ldr	r1, [r1, #96]	@ 0x60
   276d2:	9108      	str	r1, [sp, #32]
   276d4:	a90c      	add	r1, sp, #48	@ 0x30
   276d6:	c81c      	ldmia	r0!, {r2, r3, r4}
   276d8:	c11c      	stmia	r1!, {r2, r3, r4}
   276da:	c83c      	ldmia	r0!, {r2, r3, r4, r5}
   276dc:	c13c      	stmia	r1!, {r2, r3, r4, r5}
   276de:	c83c      	ldmia	r0!, {r2, r3, r4, r5}
   276e0:	c13c      	stmia	r1!, {r2, r3, r4, r5}
   276e2:	8802      	ldrh	r2, [r0, #0]
   276e4:	800a      	strh	r2, [r1, #0]
   276e6:	7880      	ldrb	r0, [r0, #2]
   276e8:	7088      	strb	r0, [r1, #2]
   276ea:	e03e      	b.n	2776a <_start+0x6ce>
   276ec:	481b      	ldr	r0, [pc, #108]	@ (2775c <_start+0x6c0>)
   276ee:	2107      	movs	r1, #7
   276f0:	2200      	movs	r2, #0
   276f2:	4613      	mov	r3, r2
   276f4:	df03      	svc	3
   276f6:	e004      	b.n	27702 <_start+0x666>
   276f8:	4818      	ldr	r0, [pc, #96]	@ (2775c <_start+0x6c0>)
   276fa:	2107      	movs	r1, #7
   276fc:	2200      	movs	r2, #0
   276fe:	4613      	mov	r3, r2
   27700:	df04      	svc	4
   27702:	78b0      	ldrb	r0, [r6, #2]
   27704:	a92f      	add	r1, sp, #188	@ 0xbc
   27706:	7088      	strb	r0, [r1, #2]
   27708:	7830      	ldrb	r0, [r6, #0]
   2770a:	7872      	ldrb	r2, [r6, #1]
   2770c:	0212      	lsls	r2, r2, #8
   2770e:	1810      	adds	r0, r2, r0
   27710:	8008      	strh	r0, [r1, #0]
   27712:	a81f      	add	r0, sp, #124	@ 0x7c
   27714:	7800      	ldrb	r0, [r0, #0]
   27716:	490e      	ldr	r1, [pc, #56]	@ (27750 <_start+0x6b4>)
   27718:	4469      	add	r1, sp
   2771a:	3108      	adds	r1, #8
   2771c:	9a09      	ldr	r2, [sp, #36]	@ 0x24
   2771e:	6e12      	ldr	r2, [r2, #96]	@ 0x60
   27720:	9208      	str	r2, [sp, #32]
   27722:	aa0c      	add	r2, sp, #48	@ 0x30
   27724:	c938      	ldmia	r1!, {r3, r4, r5}
   27726:	c238      	stmia	r2!, {r3, r4, r5}
   27728:	c978      	ldmia	r1!, {r3, r4, r5, r6}
   2772a:	c278      	stmia	r2!, {r3, r4, r5, r6}
   2772c:	c978      	ldmia	r1!, {r3, r4, r5, r6}
   2772e:	c278      	stmia	r2!, {r3, r4, r5, r6}
   27730:	880b      	ldrh	r3, [r1, #0]
   27732:	8013      	strh	r3, [r2, #0]
   27734:	7889      	ldrb	r1, [r1, #2]
   27736:	7091      	strb	r1, [r2, #2]
   27738:	2802      	cmp	r0, #2
   2773a:	d016      	beq.n	2776a <_start+0x6ce>
   2773c:	2803      	cmp	r0, #3
   2773e:	d10f      	bne.n	27760 <_start+0x6c4>
   27740:	4806      	ldr	r0, [pc, #24]	@ (2775c <_start+0x6c0>)
   27742:	2100      	movs	r1, #0
   27744:	460a      	mov	r2, r1
   27746:	460b      	mov	r3, r1
   27748:	df03      	svc	3
   2774a:	e00e      	b.n	2776a <_start+0x6ce>
   2774c:	000020c4 	.word	0x000020c4
   27750:	00001404 	.word	0x00001404
   27754:	000013a8 	.word	0x000013a8
   27758:	000023cf 	.word	0x000023cf
   2775c:	0000021f 	.word	0x0000021f
   27760:	48d7      	ldr	r0, [pc, #860]	@ (27ac0 <_start+0xa24>)
   27762:	2100      	movs	r1, #0
   27764:	460a      	mov	r2, r1
   27766:	460b      	mov	r3, r1
   27768:	df04      	svc	4
   2776a:	48d6      	ldr	r0, [pc, #856]	@ (27ac4 <_start+0xa28>)
   2776c:	4468      	add	r0, sp
   2776e:	9004      	str	r0, [sp, #16]
   27770:	1c40      	adds	r0, r0, #1
   27772:	9005      	str	r0, [sp, #20]
   27774:	a92f      	add	r1, sp, #188	@ 0xbc
   27776:	2203      	movs	r2, #3
   27778:	9201      	str	r2, [sp, #4]
   2777a:	f002 fefd 	bl	2a578 <__aeabi_memcpy>
   2777e:	a90c      	add	r1, sp, #48	@ 0x30
   27780:	48d1      	ldr	r0, [pc, #836]	@ (27ac8 <_start+0xa2c>)
   27782:	4468      	add	r0, sp
   27784:	4602      	mov	r2, r0
   27786:	c958      	ldmia	r1!, {r3, r4, r6}
   27788:	c258      	stmia	r2!, {r3, r4, r6}
   2778a:	c978      	ldmia	r1!, {r3, r4, r5, r6}
   2778c:	c278      	stmia	r2!, {r3, r4, r5, r6}
   2778e:	c978      	ldmia	r1!, {r3, r4, r5, r6}
   27790:	c278      	stmia	r2!, {r3, r4, r5, r6}
   27792:	880b      	ldrh	r3, [r1, #0]
   27794:	8013      	strh	r3, [r2, #0]
   27796:	7889      	ldrb	r1, [r1, #2]
   27798:	7091      	strb	r1, [r2, #2]
   2779a:	9e04      	ldr	r6, [sp, #16]
   2779c:	4631      	mov	r1, r6
   2779e:	3108      	adds	r1, #8
   277a0:	c81c      	ldmia	r0!, {r2, r3, r4}
   277a2:	c11c      	stmia	r1!, {r2, r3, r4}
   277a4:	c83c      	ldmia	r0!, {r2, r3, r4, r5}
   277a6:	c13c      	stmia	r1!, {r2, r3, r4, r5}
   277a8:	c83c      	ldmia	r0!, {r2, r3, r4, r5}
   277aa:	c13c      	stmia	r1!, {r2, r3, r4, r5}
   277ac:	8802      	ldrh	r2, [r0, #0]
   277ae:	800a      	strh	r2, [r1, #0]
   277b0:	7880      	ldrb	r0, [r0, #2]
   277b2:	7088      	strb	r0, [r1, #2]
   277b4:	9d0a      	ldr	r5, [sp, #40]	@ 0x28
   277b6:	7035      	strb	r5, [r6, #0]
   277b8:	9809      	ldr	r0, [sp, #36]	@ 0x24
   277ba:	9908      	ldr	r1, [sp, #32]
   277bc:	6601      	str	r1, [r0, #96]	@ 0x60
   277be:	4cc2      	ldr	r4, [pc, #776]	@ (27ac8 <_start+0xa2c>)
   277c0:	446c      	add	r4, sp
   277c2:	1c66      	adds	r6, r4, #1
   277c4:	2125      	movs	r1, #37	@ 0x25
   277c6:	4630      	mov	r0, r6
   277c8:	f002 fd16 	bl	2a1f8 <__aeabi_memclr>
   277cc:	7025      	strb	r5, [r4, #0]
   277ce:	48bf      	ldr	r0, [pc, #764]	@ (27acc <_start+0xa30>)
   277d0:	2107      	movs	r1, #7
   277d2:	2336      	movs	r3, #54	@ 0x36
   277d4:	9a05      	ldr	r2, [sp, #20]
   277d6:	df04      	svc	4
   277d8:	2802      	cmp	r0, #2
   277da:	d101      	bne.n	277e0 <_start+0x744>
   277dc:	460d      	mov	r5, r1
   277de:	e029      	b.n	27834 <_start+0x798>
   277e0:	48b8      	ldr	r0, [pc, #736]	@ (27ac4 <_start+0xa28>)
   277e2:	4468      	add	r0, sp
   277e4:	990b      	ldr	r1, [sp, #44]	@ 0x2c
   277e6:	7001      	strb	r1, [r0, #0]
   277e8:	48b8      	ldr	r0, [pc, #736]	@ (27acc <_start+0xa30>)
   277ea:	2100      	movs	r1, #0
   277ec:	2325      	movs	r3, #37	@ 0x25
   277ee:	4632      	mov	r2, r6
   277f0:	df03      	svc	3
   277f2:	2802      	cmp	r0, #2
   277f4:	d10d      	bne.n	27812 <_start+0x776>
   277f6:	460d      	mov	r5, r1
   277f8:	48b3      	ldr	r0, [pc, #716]	@ (27ac8 <_start+0xa2c>)
   277fa:	4468      	add	r0, sp
   277fc:	7800      	ldrb	r0, [r0, #0]
   277fe:	2802      	cmp	r0, #2
   27800:	d018      	beq.n	27834 <_start+0x798>
   27802:	2803      	cmp	r0, #3
   27804:	d011      	beq.n	2782a <_start+0x78e>
   27806:	48b1      	ldr	r0, [pc, #708]	@ (27acc <_start+0xa30>)
   27808:	2100      	movs	r1, #0
   2780a:	460a      	mov	r2, r1
   2780c:	460b      	mov	r3, r1
   2780e:	df04      	svc	4
   27810:	e010      	b.n	27834 <_start+0x798>
   27812:	48ad      	ldr	r0, [pc, #692]	@ (27ac8 <_start+0xa2c>)
   27814:	4468      	add	r0, sp
   27816:	9901      	ldr	r1, [sp, #4]
   27818:	7001      	strb	r1, [r0, #0]
   2781a:	48ac      	ldr	r0, [pc, #688]	@ (27acc <_start+0xa30>)
   2781c:	2107      	movs	r1, #7
   2781e:	2200      	movs	r2, #0
   27820:	4613      	mov	r3, r2
   27822:	df02      	svc	2
   27824:	287f      	cmp	r0, #127	@ 0x7f
   27826:	d819      	bhi.n	2785c <_start+0x7c0>
   27828:	460d      	mov	r5, r1
   2782a:	48a8      	ldr	r0, [pc, #672]	@ (27acc <_start+0xa30>)
   2782c:	2100      	movs	r1, #0
   2782e:	460a      	mov	r2, r1
   27830:	460b      	mov	r3, r1
   27832:	df03      	svc	3
   27834:	48a3      	ldr	r0, [pc, #652]	@ (27ac4 <_start+0xa28>)
   27836:	4468      	add	r0, sp
   27838:	7800      	ldrb	r0, [r0, #0]
   2783a:	2802      	cmp	r0, #2
   2783c:	d100      	bne.n	27840 <_start+0x7a4>
   2783e:	e48b      	b.n	27158 <_start+0xbc>
   27840:	2803      	cmp	r0, #3
   27842:	d105      	bne.n	27850 <_start+0x7b4>
   27844:	48a1      	ldr	r0, [pc, #644]	@ (27acc <_start+0xa30>)
   27846:	2107      	movs	r1, #7
   27848:	2200      	movs	r2, #0
   2784a:	4613      	mov	r3, r2
   2784c:	df03      	svc	3
   2784e:	e483      	b.n	27158 <_start+0xbc>
   27850:	489e      	ldr	r0, [pc, #632]	@ (27acc <_start+0xa30>)
   27852:	2107      	movs	r1, #7
   27854:	2200      	movs	r2, #0
   27856:	4613      	mov	r3, r2
   27858:	df04      	svc	4
   2785a:	e47d      	b.n	27158 <_start+0xbc>
   2785c:	4899      	ldr	r0, [pc, #612]	@ (27ac4 <_start+0xa28>)
   2785e:	4468      	add	r0, sp
   27860:	7800      	ldrb	r0, [r0, #0]
   27862:	2802      	cmp	r0, #2
   27864:	d02d      	beq.n	278c2 <_start+0x826>
   27866:	2803      	cmp	r0, #3
   27868:	d105      	bne.n	27876 <_start+0x7da>
   2786a:	4898      	ldr	r0, [pc, #608]	@ (27acc <_start+0xa30>)
   2786c:	2107      	movs	r1, #7
   2786e:	2200      	movs	r2, #0
   27870:	4613      	mov	r3, r2
   27872:	df03      	svc	3
   27874:	e004      	b.n	27880 <_start+0x7e4>
   27876:	4895      	ldr	r0, [pc, #596]	@ (27acc <_start+0xa30>)
   27878:	2107      	movs	r1, #7
   2787a:	2200      	movs	r2, #0
   2787c:	4613      	mov	r3, r2
   2787e:	df04      	svc	4
   27880:	4890      	ldr	r0, [pc, #576]	@ (27ac4 <_start+0xa28>)
   27882:	4468      	add	r0, sp
   27884:	990a      	ldr	r1, [sp, #40]	@ 0x28
   27886:	7001      	strb	r1, [r0, #0]
   27888:	488f      	ldr	r0, [pc, #572]	@ (27ac8 <_start+0xa2c>)
   2788a:	4468      	add	r0, sp
   2788c:	7800      	ldrb	r0, [r0, #0]
   2788e:	2803      	cmp	r0, #3
   27890:	d017      	beq.n	278c2 <_start+0x826>
   27892:	2802      	cmp	r0, #2
   27894:	d11b      	bne.n	278ce <_start+0x832>
   27896:	78b0      	ldrb	r0, [r6, #2]
   27898:	a92f      	add	r1, sp, #188	@ 0xbc
   2789a:	7088      	strb	r0, [r1, #2]
   2789c:	7830      	ldrb	r0, [r6, #0]
   2789e:	7872      	ldrb	r2, [r6, #1]
   278a0:	0212      	lsls	r2, r2, #8
   278a2:	1810      	adds	r0, r2, r0
   278a4:	8008      	strh	r0, [r1, #0]
   278a6:	4888      	ldr	r0, [pc, #544]	@ (27ac8 <_start+0xa2c>)
   278a8:	4468      	add	r0, sp
   278aa:	3008      	adds	r0, #8
   278ac:	9907      	ldr	r1, [sp, #28]
   278ae:	6809      	ldr	r1, [r1, #0]
   278b0:	9108      	str	r1, [sp, #32]
   278b2:	a91f      	add	r1, sp, #124	@ 0x7c
   278b4:	c81c      	ldmia	r0!, {r2, r3, r4}
   278b6:	c11c      	stmia	r1!, {r2, r3, r4}
   278b8:	c83c      	ldmia	r0!, {r2, r3, r4, r5}
   278ba:	c13c      	stmia	r1!, {r2, r3, r4, r5}
   278bc:	8800      	ldrh	r0, [r0, #0]
   278be:	8008      	strh	r0, [r1, #0]
   278c0:	e031      	b.n	27926 <_start+0x88a>
   278c2:	4882      	ldr	r0, [pc, #520]	@ (27acc <_start+0xa30>)
   278c4:	2100      	movs	r1, #0
   278c6:	460a      	mov	r2, r1
   278c8:	460b      	mov	r3, r1
   278ca:	df03      	svc	3
   278cc:	e004      	b.n	278d8 <_start+0x83c>
   278ce:	487f      	ldr	r0, [pc, #508]	@ (27acc <_start+0xa30>)
   278d0:	2100      	movs	r1, #0
   278d2:	460a      	mov	r2, r1
   278d4:	460b      	mov	r3, r1
   278d6:	df04      	svc	4
   278d8:	78b0      	ldrb	r0, [r6, #2]
   278da:	a92f      	add	r1, sp, #188	@ 0xbc
   278dc:	7088      	strb	r0, [r1, #2]
   278de:	7830      	ldrb	r0, [r6, #0]
   278e0:	7872      	ldrb	r2, [r6, #1]
   278e2:	0212      	lsls	r2, r2, #8
   278e4:	1810      	adds	r0, r2, r0
   278e6:	8008      	strh	r0, [r1, #0]
   278e8:	4876      	ldr	r0, [pc, #472]	@ (27ac4 <_start+0xa28>)
   278ea:	4468      	add	r0, sp
   278ec:	7800      	ldrb	r0, [r0, #0]
   278ee:	4976      	ldr	r1, [pc, #472]	@ (27ac8 <_start+0xa2c>)
   278f0:	4469      	add	r1, sp
   278f2:	3108      	adds	r1, #8
   278f4:	9a07      	ldr	r2, [sp, #28]
   278f6:	6812      	ldr	r2, [r2, #0]
   278f8:	9208      	str	r2, [sp, #32]
   278fa:	aa1f      	add	r2, sp, #124	@ 0x7c
   278fc:	c938      	ldmia	r1!, {r3, r4, r5}
   278fe:	c238      	stmia	r2!, {r3, r4, r5}
   27900:	c978      	ldmia	r1!, {r3, r4, r5, r6}
   27902:	c278      	stmia	r2!, {r3, r4, r5, r6}
   27904:	8809      	ldrh	r1, [r1, #0]
   27906:	8011      	strh	r1, [r2, #0]
   27908:	2802      	cmp	r0, #2
   2790a:	d00c      	beq.n	27926 <_start+0x88a>
   2790c:	2803      	cmp	r0, #3
   2790e:	d105      	bne.n	2791c <_start+0x880>
   27910:	486e      	ldr	r0, [pc, #440]	@ (27acc <_start+0xa30>)
   27912:	2107      	movs	r1, #7
   27914:	2200      	movs	r2, #0
   27916:	4613      	mov	r3, r2
   27918:	df03      	svc	3
   2791a:	e004      	b.n	27926 <_start+0x88a>
   2791c:	486b      	ldr	r0, [pc, #428]	@ (27acc <_start+0xa30>)
   2791e:	2107      	movs	r1, #7
   27920:	2200      	movs	r2, #0
   27922:	4613      	mov	r3, r2
   27924:	df04      	svc	4
   27926:	4867      	ldr	r0, [pc, #412]	@ (27ac4 <_start+0xa28>)
   27928:	4468      	add	r0, sp
   2792a:	9004      	str	r0, [sp, #16]
   2792c:	1c40      	adds	r0, r0, #1
   2792e:	9005      	str	r0, [sp, #20]
   27930:	a92f      	add	r1, sp, #188	@ 0xbc
   27932:	2203      	movs	r2, #3
   27934:	9201      	str	r2, [sp, #4]
   27936:	f002 fe1f 	bl	2a578 <__aeabi_memcpy>
   2793a:	a91f      	add	r1, sp, #124	@ 0x7c
   2793c:	a80c      	add	r0, sp, #48	@ 0x30
   2793e:	4602      	mov	r2, r0
   27940:	c958      	ldmia	r1!, {r3, r4, r6}
   27942:	c258      	stmia	r2!, {r3, r4, r6}
   27944:	c978      	ldmia	r1!, {r3, r4, r5, r6}
   27946:	c278      	stmia	r2!, {r3, r4, r5, r6}
   27948:	8809      	ldrh	r1, [r1, #0]
   2794a:	8011      	strh	r1, [r2, #0]
   2794c:	9e04      	ldr	r6, [sp, #16]
   2794e:	4631      	mov	r1, r6
   27950:	3108      	adds	r1, #8
   27952:	c81c      	ldmia	r0!, {r2, r3, r4}
   27954:	c11c      	stmia	r1!, {r2, r3, r4}
   27956:	c83c      	ldmia	r0!, {r2, r3, r4, r5}
   27958:	c13c      	stmia	r1!, {r2, r3, r4, r5}
   2795a:	8800      	ldrh	r0, [r0, #0]
   2795c:	8008      	strh	r0, [r1, #0]
   2795e:	9d0a      	ldr	r5, [sp, #40]	@ 0x28
   27960:	7035      	strb	r5, [r6, #0]
   27962:	9809      	ldr	r0, [sp, #36]	@ 0x24
   27964:	9908      	ldr	r1, [sp, #32]
   27966:	6601      	str	r1, [r0, #96]	@ 0x60
   27968:	4c57      	ldr	r4, [pc, #348]	@ (27ac8 <_start+0xa2c>)
   2796a:	446c      	add	r4, sp
   2796c:	1c60      	adds	r0, r4, #1
   2796e:	210e      	movs	r1, #14
   27970:	4606      	mov	r6, r0
   27972:	f002 fc41 	bl	2a1f8 <__aeabi_memclr>
   27976:	7025      	strb	r5, [r4, #0]
   27978:	4855      	ldr	r0, [pc, #340]	@ (27ad0 <_start+0xa34>)
   2797a:	2325      	movs	r3, #37	@ 0x25
   2797c:	4629      	mov	r1, r5
   2797e:	9a05      	ldr	r2, [sp, #20]
   27980:	df04      	svc	4
   27982:	2802      	cmp	r0, #2
   27984:	d101      	bne.n	2798a <_start+0x8ee>
   27986:	460d      	mov	r5, r1
   27988:	e02b      	b.n	279e2 <_start+0x946>
   2798a:	484e      	ldr	r0, [pc, #312]	@ (27ac4 <_start+0xa28>)
   2798c:	4468      	add	r0, sp
   2798e:	990b      	ldr	r1, [sp, #44]	@ 0x2c
   27990:	7001      	strb	r1, [r0, #0]
   27992:	484f      	ldr	r0, [pc, #316]	@ (27ad0 <_start+0xa34>)
   27994:	2108      	movs	r1, #8
   27996:	230e      	movs	r3, #14
   27998:	4632      	mov	r2, r6
   2799a:	df03      	svc	3
   2799c:	2802      	cmp	r0, #2
   2799e:	d10d      	bne.n	279bc <_start+0x920>
   279a0:	460d      	mov	r5, r1
   279a2:	4849      	ldr	r0, [pc, #292]	@ (27ac8 <_start+0xa2c>)
   279a4:	4468      	add	r0, sp
   279a6:	7800      	ldrb	r0, [r0, #0]
   279a8:	2802      	cmp	r0, #2
   279aa:	d01a      	beq.n	279e2 <_start+0x946>
   279ac:	2803      	cmp	r0, #3
   279ae:	d013      	beq.n	279d8 <_start+0x93c>
   279b0:	4847      	ldr	r0, [pc, #284]	@ (27ad0 <_start+0xa34>)
   279b2:	2108      	movs	r1, #8
   279b4:	2200      	movs	r2, #0
   279b6:	4613      	mov	r3, r2
   279b8:	df04      	svc	4
   279ba:	e012      	b.n	279e2 <_start+0x946>
   279bc:	4842      	ldr	r0, [pc, #264]	@ (27ac8 <_start+0xa2c>)
   279be:	4468      	add	r0, sp
   279c0:	9901      	ldr	r1, [sp, #4]
   279c2:	7001      	strb	r1, [r0, #0]
   279c4:	4842      	ldr	r0, [pc, #264]	@ (27ad0 <_start+0xa34>)
   279c6:	2102      	movs	r1, #2
   279c8:	2208      	movs	r2, #8
   279ca:	2400      	movs	r4, #0
   279cc:	910b      	str	r1, [sp, #44]	@ 0x2c
   279ce:	4623      	mov	r3, r4
   279d0:	df02      	svc	2
   279d2:	287f      	cmp	r0, #127	@ 0x7f
   279d4:	d81c      	bhi.n	27a10 <_start+0x974>
   279d6:	460d      	mov	r5, r1
   279d8:	483d      	ldr	r0, [pc, #244]	@ (27ad0 <_start+0xa34>)
   279da:	2108      	movs	r1, #8
   279dc:	2200      	movs	r2, #0
   279de:	4613      	mov	r3, r2
   279e0:	df03      	svc	3
   279e2:	4838      	ldr	r0, [pc, #224]	@ (27ac4 <_start+0xa28>)
   279e4:	4468      	add	r0, sp
   279e6:	7800      	ldrb	r0, [r0, #0]
   279e8:	2802      	cmp	r0, #2
   279ea:	d101      	bne.n	279f0 <_start+0x954>
   279ec:	f7ff fbb4 	bl	27158 <_start+0xbc>
   279f0:	2803      	cmp	r0, #3
   279f2:	d106      	bne.n	27a02 <_start+0x966>
   279f4:	4836      	ldr	r0, [pc, #216]	@ (27ad0 <_start+0xa34>)
   279f6:	2102      	movs	r1, #2
   279f8:	2200      	movs	r2, #0
   279fa:	4613      	mov	r3, r2
   279fc:	df03      	svc	3
   279fe:	f7ff fbab 	bl	27158 <_start+0xbc>
   27a02:	4833      	ldr	r0, [pc, #204]	@ (27ad0 <_start+0xa34>)
   27a04:	2102      	movs	r1, #2
   27a06:	2200      	movs	r2, #0
   27a08:	4613      	mov	r3, r2
   27a0a:	df04      	svc	4
   27a0c:	f7ff fba4 	bl	27158 <_start+0xbc>
   27a10:	482c      	ldr	r0, [pc, #176]	@ (27ac4 <_start+0xa28>)
   27a12:	4468      	add	r0, sp
   27a14:	7800      	ldrb	r0, [r0, #0]
   27a16:	2802      	cmp	r0, #2
   27a18:	d029      	beq.n	27a6e <_start+0x9d2>
   27a1a:	2803      	cmp	r0, #3
   27a1c:	d105      	bne.n	27a2a <_start+0x98e>
   27a1e:	482c      	ldr	r0, [pc, #176]	@ (27ad0 <_start+0xa34>)
   27a20:	2102      	movs	r1, #2
   27a22:	2200      	movs	r2, #0
   27a24:	4613      	mov	r3, r2
   27a26:	df03      	svc	3
   27a28:	e004      	b.n	27a34 <_start+0x998>
   27a2a:	4829      	ldr	r0, [pc, #164]	@ (27ad0 <_start+0xa34>)
   27a2c:	2102      	movs	r1, #2
   27a2e:	2200      	movs	r2, #0
   27a30:	4613      	mov	r3, r2
   27a32:	df04      	svc	4
   27a34:	4823      	ldr	r0, [pc, #140]	@ (27ac4 <_start+0xa28>)
   27a36:	4468      	add	r0, sp
   27a38:	990b      	ldr	r1, [sp, #44]	@ 0x2c
   27a3a:	7001      	strb	r1, [r0, #0]
   27a3c:	4822      	ldr	r0, [pc, #136]	@ (27ac8 <_start+0xa2c>)
   27a3e:	4468      	add	r0, sp
   27a40:	7800      	ldrb	r0, [r0, #0]
   27a42:	2803      	cmp	r0, #3
   27a44:	d013      	beq.n	27a6e <_start+0x9d2>
   27a46:	2802      	cmp	r0, #2
   27a48:	d117      	bne.n	27a7a <_start+0x9de>
   27a4a:	78b0      	ldrb	r0, [r6, #2]
   27a4c:	a92f      	add	r1, sp, #188	@ 0xbc
   27a4e:	7088      	strb	r0, [r1, #2]
   27a50:	7830      	ldrb	r0, [r6, #0]
   27a52:	7872      	ldrb	r2, [r6, #1]
   27a54:	0212      	lsls	r2, r2, #8
   27a56:	1810      	adds	r0, r2, r0
   27a58:	8008      	strh	r0, [r1, #0]
   27a5a:	9807      	ldr	r0, [sp, #28]
   27a5c:	6806      	ldr	r6, [r0, #0]
   27a5e:	491a      	ldr	r1, [pc, #104]	@ (27ac8 <_start+0xa2c>)
   27a60:	4469      	add	r1, sp
   27a62:	3108      	adds	r1, #8
   27a64:	a81f      	add	r0, sp, #124	@ 0x7c
   27a66:	2207      	movs	r2, #7
   27a68:	f002 fd86 	bl	2a578 <__aeabi_memcpy>
   27a6c:	e033      	b.n	27ad6 <_start+0xa3a>
   27a6e:	4818      	ldr	r0, [pc, #96]	@ (27ad0 <_start+0xa34>)
   27a70:	2108      	movs	r1, #8
   27a72:	2200      	movs	r2, #0
   27a74:	4613      	mov	r3, r2
   27a76:	df03      	svc	3
   27a78:	e004      	b.n	27a84 <_start+0x9e8>
   27a7a:	4815      	ldr	r0, [pc, #84]	@ (27ad0 <_start+0xa34>)
   27a7c:	2108      	movs	r1, #8
   27a7e:	2200      	movs	r2, #0
   27a80:	4613      	mov	r3, r2
   27a82:	df04      	svc	4
   27a84:	78b0      	ldrb	r0, [r6, #2]
   27a86:	a92f      	add	r1, sp, #188	@ 0xbc
   27a88:	7088      	strb	r0, [r1, #2]
   27a8a:	7830      	ldrb	r0, [r6, #0]
   27a8c:	7872      	ldrb	r2, [r6, #1]
   27a8e:	0212      	lsls	r2, r2, #8
   27a90:	1810      	adds	r0, r2, r0
   27a92:	8008      	strh	r0, [r1, #0]
   27a94:	480b      	ldr	r0, [pc, #44]	@ (27ac4 <_start+0xa28>)
   27a96:	4468      	add	r0, sp
   27a98:	7805      	ldrb	r5, [r0, #0]
   27a9a:	9807      	ldr	r0, [sp, #28]
   27a9c:	6806      	ldr	r6, [r0, #0]
   27a9e:	490a      	ldr	r1, [pc, #40]	@ (27ac8 <_start+0xa2c>)
   27aa0:	4469      	add	r1, sp
   27aa2:	3108      	adds	r1, #8
   27aa4:	a81f      	add	r0, sp, #124	@ 0x7c
   27aa6:	2207      	movs	r2, #7
   27aa8:	f002 fd66 	bl	2a578 <__aeabi_memcpy>
   27aac:	2d02      	cmp	r5, #2
   27aae:	d012      	beq.n	27ad6 <_start+0xa3a>
   27ab0:	4807      	ldr	r0, [pc, #28]	@ (27ad0 <_start+0xa34>)
   27ab2:	2102      	movs	r1, #2
   27ab4:	2200      	movs	r2, #0
   27ab6:	4613      	mov	r3, r2
   27ab8:	2d03      	cmp	r5, #3
   27aba:	d10b      	bne.n	27ad4 <_start+0xa38>
   27abc:	df03      	svc	3
   27abe:	e00a      	b.n	27ad6 <_start+0xa3a>
   27ac0:	0000021f 	.word	0x0000021f
   27ac4:	00001404 	.word	0x00001404
   27ac8:	000013a8 	.word	0x000013a8
   27acc:	00001597 	.word	0x00001597
   27ad0:	00000667 	.word	0x00000667
   27ad4:	df04      	svc	4
   27ad6:	ad35      	add	r5, sp, #212	@ 0xd4
   27ad8:	982f      	ldr	r0, [sp, #188]	@ 0xbc
   27ada:	8028      	strh	r0, [r5, #0]
   27adc:	a82f      	add	r0, sp, #188	@ 0xbc
   27ade:	7880      	ldrb	r0, [r0, #2]
   27ae0:	70a8      	strb	r0, [r5, #2]
   27ae2:	a81f      	add	r0, sp, #124	@ 0x7c
   27ae4:	a90c      	add	r1, sp, #48	@ 0x30
   27ae6:	460a      	mov	r2, r1
   27ae8:	c808      	ldmia	r0!, {r3}
   27aea:	c208      	stmia	r2!, {r3}
   27aec:	8803      	ldrh	r3, [r0, #0]
   27aee:	8013      	strh	r3, [r2, #0]
   27af0:	7880      	ldrb	r0, [r0, #2]
   27af2:	7090      	strb	r0, [r2, #2]
   27af4:	0e30      	lsrs	r0, r6, #24
   27af6:	71a8      	strb	r0, [r5, #6]
   27af8:	0c30      	lsrs	r0, r6, #16
   27afa:	7168      	strb	r0, [r5, #5]
   27afc:	0a30      	lsrs	r0, r6, #8
   27afe:	7128      	strb	r0, [r5, #4]
   27b00:	70ee      	strb	r6, [r5, #3]
   27b02:	1de8      	adds	r0, r5, #7
   27b04:	2207      	movs	r2, #7
   27b06:	f002 fd37 	bl	2a578 <__aeabi_memcpy>
   27b0a:	4e05      	ldr	r6, [pc, #20]	@ (27b20 <_start+0xa84>)
   27b0c:	446e      	add	r6, sp
   27b0e:	4630      	mov	r0, r6
   27b10:	4629      	mov	r1, r5
   27b12:	f7fb fedd 	bl	238d0 <_ZN20complex_dynamic_type3app17h881d767d3072134eE>
   27b16:	7830      	ldrb	r0, [r6, #0]
   27b18:	2801      	cmp	r0, #1
   27b1a:	d103      	bne.n	27b24 <_start+0xa88>
   27b1c:	f002 fb4c 	bl	2a1b8 <_start+0x311c>
   27b20:	00001404 	.word	0x00001404
   27b24:	4915      	ldr	r1, [pc, #84]	@ (27b7c <_start+0xae0>)
   27b26:	4469      	add	r1, sp
   27b28:	78c8      	ldrb	r0, [r1, #3]
   27b2a:	ad39      	add	r5, sp, #228	@ 0xe4
   27b2c:	70a8      	strb	r0, [r5, #2]
   27b2e:	7848      	ldrb	r0, [r1, #1]
   27b30:	788a      	ldrb	r2, [r1, #2]
   27b32:	0212      	lsls	r2, r2, #8
   27b34:	1810      	adds	r0, r2, r0
   27b36:	8028      	strh	r0, [r5, #0]
   27b38:	9809      	ldr	r0, [sp, #36]	@ 0x24
   27b3a:	6e06      	ldr	r6, [r0, #96]	@ 0x60
   27b3c:	3108      	adds	r1, #8
   27b3e:	4810      	ldr	r0, [pc, #64]	@ (27b80 <_start+0xae4>)
   27b40:	4468      	add	r0, sp
   27b42:	900b      	str	r0, [sp, #44]	@ 0x2c
   27b44:	2241      	movs	r2, #65	@ 0x41
   27b46:	920a      	str	r2, [sp, #40]	@ 0x28
   27b48:	f002 fbb6 	bl	2a2b8 <__aeabi_memcpy4>
   27b4c:	0e30      	lsrs	r0, r6, #24
   27b4e:	71a8      	strb	r0, [r5, #6]
   27b50:	0c30      	lsrs	r0, r6, #16
   27b52:	7168      	strb	r0, [r5, #5]
   27b54:	0a30      	lsrs	r0, r6, #8
   27b56:	7128      	strb	r0, [r5, #4]
   27b58:	70ee      	strb	r6, [r5, #3]
   27b5a:	1de8      	adds	r0, r5, #7
   27b5c:	990b      	ldr	r1, [sp, #44]	@ 0x2c
   27b5e:	9a0a      	ldr	r2, [sp, #40]	@ 0x28
   27b60:	f002 fd0a 	bl	2a578 <__aeabi_memcpy>
   27b64:	4e05      	ldr	r6, [pc, #20]	@ (27b7c <_start+0xae0>)
   27b66:	446e      	add	r6, sp
   27b68:	4630      	mov	r0, r6
   27b6a:	4629      	mov	r1, r5
   27b6c:	f7f9 ff8c 	bl	21a88 <_ZN20complex_dynamic_type3app17h2c54626a1155f496E>
   27b70:	7830      	ldrb	r0, [r6, #0]
   27b72:	2801      	cmp	r0, #1
   27b74:	d106      	bne.n	27b84 <_start+0xae8>
   27b76:	f002 fb1f 	bl	2a1b8 <_start+0x311c>
   27b7a:	46c0      	nop			@ (mov r8, r8)
   27b7c:	00001404 	.word	0x00001404
   27b80:	000013a8 	.word	0x000013a8
   27b84:	9806      	ldr	r0, [sp, #24]
   27b86:	1cc0      	adds	r0, r0, #3
   27b88:	4a15      	ldr	r2, [pc, #84]	@ (27be0 <_start+0xb44>)
   27b8a:	446a      	add	r2, sp
   27b8c:	78d3      	ldrb	r3, [r2, #3]
   27b8e:	a94b      	add	r1, sp, #300	@ 0x12c
   27b90:	708b      	strb	r3, [r1, #2]
   27b92:	7853      	ldrb	r3, [r2, #1]
   27b94:	7892      	ldrb	r2, [r2, #2]
   27b96:	0212      	lsls	r2, r2, #8
   27b98:	18d2      	adds	r2, r2, r3
   27b9a:	800a      	strh	r2, [r1, #0]
   27b9c:	9d09      	ldr	r5, [sp, #36]	@ 0x24
   27b9e:	3560      	adds	r5, #96	@ 0x60
   27ba0:	cd2c      	ldmia	r5, {r2, r3, r5}
   27ba2:	0e2e      	lsrs	r6, r5, #24
   27ba4:	72c6      	strb	r6, [r0, #11]
   27ba6:	0c2e      	lsrs	r6, r5, #16
   27ba8:	7286      	strb	r6, [r0, #10]
   27baa:	0a2e      	lsrs	r6, r5, #8
   27bac:	7246      	strb	r6, [r0, #9]
   27bae:	7205      	strb	r5, [r0, #8]
   27bb0:	0e1d      	lsrs	r5, r3, #24
   27bb2:	71c5      	strb	r5, [r0, #7]
   27bb4:	0c1d      	lsrs	r5, r3, #16
   27bb6:	7185      	strb	r5, [r0, #6]
   27bb8:	0a1d      	lsrs	r5, r3, #8
   27bba:	7145      	strb	r5, [r0, #5]
   27bbc:	7103      	strb	r3, [r0, #4]
   27bbe:	0e13      	lsrs	r3, r2, #24
   27bc0:	70c3      	strb	r3, [r0, #3]
   27bc2:	0c13      	lsrs	r3, r2, #16
   27bc4:	7083      	strb	r3, [r0, #2]
   27bc6:	0a13      	lsrs	r3, r2, #8
   27bc8:	7043      	strb	r3, [r0, #1]
   27bca:	7002      	strb	r2, [r0, #0]
   27bcc:	4d04      	ldr	r5, [pc, #16]	@ (27be0 <_start+0xb44>)
   27bce:	446d      	add	r5, sp
   27bd0:	4628      	mov	r0, r5
   27bd2:	f7fa fc99 	bl	22508 <_ZN20complex_dynamic_type3app17h4cf4c384f39c8cc3E>
   27bd6:	7828      	ldrb	r0, [r5, #0]
   27bd8:	2801      	cmp	r0, #1
   27bda:	d103      	bne.n	27be4 <_start+0xb48>
   27bdc:	f002 faec 	bl	2a1b8 <_start+0x311c>
   27be0:	00001404 	.word	0x00001404
   27be4:	4818      	ldr	r0, [pc, #96]	@ (27c48 <_start+0xbac>)
   27be6:	4468      	add	r0, sp
   27be8:	78c1      	ldrb	r1, [r0, #3]
   27bea:	ab4f      	add	r3, sp, #316	@ 0x13c
   27bec:	930a      	str	r3, [sp, #40]	@ 0x28
   27bee:	7099      	strb	r1, [r3, #2]
   27bf0:	7841      	ldrb	r1, [r0, #1]
   27bf2:	7882      	ldrb	r2, [r0, #2]
   27bf4:	0212      	lsls	r2, r2, #8
   27bf6:	1851      	adds	r1, r2, r1
   27bf8:	8019      	strh	r1, [r3, #0]
   27bfa:	3008      	adds	r0, #8
   27bfc:	9909      	ldr	r1, [sp, #36]	@ 0x24
   27bfe:	6e09      	ldr	r1, [r1, #96]	@ 0x60
   27c00:	9108      	str	r1, [sp, #32]
   27c02:	4b12      	ldr	r3, [pc, #72]	@ (27c4c <_start+0xbb0>)
   27c04:	446b      	add	r3, sp
   27c06:	930b      	str	r3, [sp, #44]	@ 0x2c
   27c08:	c846      	ldmia	r0!, {r1, r2, r6}
   27c0a:	c346      	stmia	r3!, {r1, r2, r6}
   27c0c:	c866      	ldmia	r0!, {r1, r2, r5, r6}
   27c0e:	c366      	stmia	r3!, {r1, r2, r5, r6}
   27c10:	8800      	ldrh	r0, [r0, #0]
   27c12:	8018      	strh	r0, [r3, #0]
   27c14:	9908      	ldr	r1, [sp, #32]
   27c16:	0e08      	lsrs	r0, r1, #24
   27c18:	9d0a      	ldr	r5, [sp, #40]	@ 0x28
   27c1a:	71a8      	strb	r0, [r5, #6]
   27c1c:	0c08      	lsrs	r0, r1, #16
   27c1e:	7168      	strb	r0, [r5, #5]
   27c20:	0a08      	lsrs	r0, r1, #8
   27c22:	7128      	strb	r0, [r5, #4]
   27c24:	70e9      	strb	r1, [r5, #3]
   27c26:	1de8      	adds	r0, r5, #7
   27c28:	221e      	movs	r2, #30
   27c2a:	990b      	ldr	r1, [sp, #44]	@ 0x2c
   27c2c:	f002 fca4 	bl	2a578 <__aeabi_memcpy>
   27c30:	4e05      	ldr	r6, [pc, #20]	@ (27c48 <_start+0xbac>)
   27c32:	446e      	add	r6, sp
   27c34:	4630      	mov	r0, r6
   27c36:	4629      	mov	r1, r5
   27c38:	f7f8 fcb0 	bl	2059c <_ZN20complex_dynamic_type3app17h03adb85360fbcb5fE>
   27c3c:	7830      	ldrb	r0, [r6, #0]
   27c3e:	2801      	cmp	r0, #1
   27c40:	d106      	bne.n	27c50 <_start+0xbb4>
   27c42:	f002 fab9 	bl	2a1b8 <_start+0x311c>
   27c46:	46c0      	nop			@ (mov r8, r8)
   27c48:	00001404 	.word	0x00001404
   27c4c:	000013a8 	.word	0x000013a8
   27c50:	4819      	ldr	r0, [pc, #100]	@ (27cb8 <_start+0xc1c>)
   27c52:	4468      	add	r0, sp
   27c54:	78c1      	ldrb	r1, [r0, #3]
   27c56:	ab59      	add	r3, sp, #356	@ 0x164
   27c58:	930a      	str	r3, [sp, #40]	@ 0x28
   27c5a:	7099      	strb	r1, [r3, #2]
   27c5c:	7841      	ldrb	r1, [r0, #1]
   27c5e:	7882      	ldrb	r2, [r0, #2]
   27c60:	0212      	lsls	r2, r2, #8
   27c62:	1851      	adds	r1, r2, r1
   27c64:	8019      	strh	r1, [r3, #0]
   27c66:	3008      	adds	r0, #8
   27c68:	9909      	ldr	r1, [sp, #36]	@ 0x24
   27c6a:	6e09      	ldr	r1, [r1, #96]	@ 0x60
   27c6c:	9108      	str	r1, [sp, #32]
   27c6e:	4b13      	ldr	r3, [pc, #76]	@ (27cbc <_start+0xc20>)
   27c70:	446b      	add	r3, sp
   27c72:	930b      	str	r3, [sp, #44]	@ 0x2c
   27c74:	c866      	ldmia	r0!, {r1, r2, r5, r6}
   27c76:	c366      	stmia	r3!, {r1, r2, r5, r6}
   27c78:	c866      	ldmia	r0!, {r1, r2, r5, r6}
   27c7a:	c366      	stmia	r3!, {r1, r2, r5, r6}
   27c7c:	8801      	ldrh	r1, [r0, #0]
   27c7e:	8019      	strh	r1, [r3, #0]
   27c80:	7880      	ldrb	r0, [r0, #2]
   27c82:	7098      	strb	r0, [r3, #2]
   27c84:	9908      	ldr	r1, [sp, #32]
   27c86:	0e08      	lsrs	r0, r1, #24
   27c88:	9d0a      	ldr	r5, [sp, #40]	@ 0x28
   27c8a:	71a8      	strb	r0, [r5, #6]
   27c8c:	0c08      	lsrs	r0, r1, #16
   27c8e:	7168      	strb	r0, [r5, #5]
   27c90:	0a08      	lsrs	r0, r1, #8
   27c92:	7128      	strb	r0, [r5, #4]
   27c94:	70e9      	strb	r1, [r5, #3]
   27c96:	1de8      	adds	r0, r5, #7
   27c98:	2223      	movs	r2, #35	@ 0x23
   27c9a:	990b      	ldr	r1, [sp, #44]	@ 0x2c
   27c9c:	f002 fc6c 	bl	2a578 <__aeabi_memcpy>
   27ca0:	4e05      	ldr	r6, [pc, #20]	@ (27cb8 <_start+0xc1c>)
   27ca2:	446e      	add	r6, sp
   27ca4:	4630      	mov	r0, r6
   27ca6:	4629      	mov	r1, r5
   27ca8:	f7fe fd46 	bl	26738 <_ZN20complex_dynamic_type3app17hed3e9183041b6e58E>
   27cac:	7830      	ldrb	r0, [r6, #0]
   27cae:	2801      	cmp	r0, #1
   27cb0:	d106      	bne.n	27cc0 <_start+0xc24>
   27cb2:	f002 fa81 	bl	2a1b8 <_start+0x311c>
   27cb6:	46c0      	nop			@ (mov r8, r8)
   27cb8:	00001404 	.word	0x00001404
   27cbc:	000013a8 	.word	0x000013a8
   27cc0:	4915      	ldr	r1, [pc, #84]	@ (27d18 <_start+0xc7c>)
   27cc2:	4469      	add	r1, sp
   27cc4:	78c8      	ldrb	r0, [r1, #3]
   27cc6:	ad64      	add	r5, sp, #400	@ 0x190
   27cc8:	70a8      	strb	r0, [r5, #2]
   27cca:	7848      	ldrb	r0, [r1, #1]
   27ccc:	788a      	ldrb	r2, [r1, #2]
   27cce:	0212      	lsls	r2, r2, #8
   27cd0:	1810      	adds	r0, r2, r0
   27cd2:	8028      	strh	r0, [r5, #0]
   27cd4:	9809      	ldr	r0, [sp, #36]	@ 0x24
   27cd6:	6e06      	ldr	r6, [r0, #96]	@ 0x60
   27cd8:	3108      	adds	r1, #8
   27cda:	4810      	ldr	r0, [pc, #64]	@ (27d1c <_start+0xc80>)
   27cdc:	4468      	add	r0, sp
   27cde:	900b      	str	r0, [sp, #44]	@ 0x2c
   27ce0:	225c      	movs	r2, #92	@ 0x5c
   27ce2:	920a      	str	r2, [sp, #40]	@ 0x28
   27ce4:	f002 fae8 	bl	2a2b8 <__aeabi_memcpy4>
   27ce8:	0e30      	lsrs	r0, r6, #24
   27cea:	71a8      	strb	r0, [r5, #6]
   27cec:	0c30      	lsrs	r0, r6, #16
   27cee:	7168      	strb	r0, [r5, #5]
   27cf0:	0a30      	lsrs	r0, r6, #8
   27cf2:	7128      	strb	r0, [r5, #4]
   27cf4:	70ee      	strb	r6, [r5, #3]
   27cf6:	1de8      	adds	r0, r5, #7
   27cf8:	990b      	ldr	r1, [sp, #44]	@ 0x2c
   27cfa:	9a0a      	ldr	r2, [sp, #40]	@ 0x28
   27cfc:	f002 fc3c 	bl	2a578 <__aeabi_memcpy>
   27d00:	4e05      	ldr	r6, [pc, #20]	@ (27d18 <_start+0xc7c>)
   27d02:	446e      	add	r6, sp
   27d04:	4630      	mov	r0, r6
   27d06:	4629      	mov	r1, r5
   27d08:	f7fb ff12 	bl	23b30 <_ZN20complex_dynamic_type3app17h8b79a8a920e9bbc8E>
   27d0c:	7830      	ldrb	r0, [r6, #0]
   27d0e:	2801      	cmp	r0, #1
   27d10:	d106      	bne.n	27d20 <_start+0xc84>
   27d12:	f002 fa51 	bl	2a1b8 <_start+0x311c>
   27d16:	46c0      	nop			@ (mov r8, r8)
   27d18:	00001404 	.word	0x00001404
   27d1c:	000013a8 	.word	0x000013a8
   27d20:	4817      	ldr	r0, [pc, #92]	@ (27d80 <_start+0xce4>)
   27d22:	4468      	add	r0, sp
   27d24:	78c1      	ldrb	r1, [r0, #3]
   27d26:	ab7d      	add	r3, sp, #500	@ 0x1f4
   27d28:	930a      	str	r3, [sp, #40]	@ 0x28
   27d2a:	7099      	strb	r1, [r3, #2]
   27d2c:	7841      	ldrb	r1, [r0, #1]
   27d2e:	7882      	ldrb	r2, [r0, #2]
   27d30:	0212      	lsls	r2, r2, #8
   27d32:	1851      	adds	r1, r2, r1
   27d34:	8019      	strh	r1, [r3, #0]
   27d36:	3008      	adds	r0, #8
   27d38:	9909      	ldr	r1, [sp, #36]	@ 0x24
   27d3a:	6e09      	ldr	r1, [r1, #96]	@ 0x60
   27d3c:	9108      	str	r1, [sp, #32]
   27d3e:	4b11      	ldr	r3, [pc, #68]	@ (27d84 <_start+0xce8>)
   27d40:	446b      	add	r3, sp
   27d42:	930b      	str	r3, [sp, #44]	@ 0x2c
   27d44:	c866      	ldmia	r0!, {r1, r2, r5, r6}
   27d46:	c366      	stmia	r3!, {r1, r2, r5, r6}
   27d48:	c866      	ldmia	r0!, {r1, r2, r5, r6}
   27d4a:	c366      	stmia	r3!, {r1, r2, r5, r6}
   27d4c:	9908      	ldr	r1, [sp, #32]
   27d4e:	0e08      	lsrs	r0, r1, #24
   27d50:	9d0a      	ldr	r5, [sp, #40]	@ 0x28
   27d52:	71a8      	strb	r0, [r5, #6]
   27d54:	0c08      	lsrs	r0, r1, #16
   27d56:	7168      	strb	r0, [r5, #5]
   27d58:	0a08      	lsrs	r0, r1, #8
   27d5a:	7128      	strb	r0, [r5, #4]
   27d5c:	70e9      	strb	r1, [r5, #3]
   27d5e:	1de8      	adds	r0, r5, #7
   27d60:	2220      	movs	r2, #32
   27d62:	990b      	ldr	r1, [sp, #44]	@ 0x2c
   27d64:	f002 fc08 	bl	2a578 <__aeabi_memcpy>
   27d68:	4e05      	ldr	r6, [pc, #20]	@ (27d80 <_start+0xce4>)
   27d6a:	446e      	add	r6, sp
   27d6c:	4630      	mov	r0, r6
   27d6e:	4629      	mov	r1, r5
   27d70:	f7fb fb6e 	bl	23450 <_ZN20complex_dynamic_type3app17h7411fcceffe19422E>
   27d74:	7830      	ldrb	r0, [r6, #0]
   27d76:	2801      	cmp	r0, #1
   27d78:	d106      	bne.n	27d88 <_start+0xcec>
   27d7a:	f002 fa1d 	bl	2a1b8 <_start+0x311c>
   27d7e:	46c0      	nop			@ (mov r8, r8)
   27d80:	00001404 	.word	0x00001404
   27d84:	000013a8 	.word	0x000013a8
   27d88:	4818      	ldr	r0, [pc, #96]	@ (27dec <_start+0xd50>)
   27d8a:	4468      	add	r0, sp
   27d8c:	78c1      	ldrb	r1, [r0, #3]
   27d8e:	ad87      	add	r5, sp, #540	@ 0x21c
   27d90:	70a9      	strb	r1, [r5, #2]
   27d92:	7841      	ldrb	r1, [r0, #1]
   27d94:	7882      	ldrb	r2, [r0, #2]
   27d96:	0212      	lsls	r2, r2, #8
   27d98:	1851      	adds	r1, r2, r1
   27d9a:	8029      	strh	r1, [r5, #0]
   27d9c:	3008      	adds	r0, #8
   27d9e:	9909      	ldr	r1, [sp, #36]	@ 0x24
   27da0:	6e09      	ldr	r1, [r1, #96]	@ 0x60
   27da2:	910a      	str	r1, [sp, #40]	@ 0x28
   27da4:	4b12      	ldr	r3, [pc, #72]	@ (27df0 <_start+0xd54>)
   27da6:	446b      	add	r3, sp
   27da8:	930b      	str	r3, [sp, #44]	@ 0x2c
   27daa:	c844      	ldmia	r0!, {r2, r6}
   27dac:	c344      	stmia	r3!, {r2, r6}
   27dae:	c846      	ldmia	r0!, {r1, r2, r6}
   27db0:	c346      	stmia	r3!, {r1, r2, r6}
   27db2:	8801      	ldrh	r1, [r0, #0]
   27db4:	8019      	strh	r1, [r3, #0]
   27db6:	7880      	ldrb	r0, [r0, #2]
   27db8:	7098      	strb	r0, [r3, #2]
   27dba:	990a      	ldr	r1, [sp, #40]	@ 0x28
   27dbc:	0e08      	lsrs	r0, r1, #24
   27dbe:	71a8      	strb	r0, [r5, #6]
   27dc0:	0c08      	lsrs	r0, r1, #16
   27dc2:	7168      	strb	r0, [r5, #5]
   27dc4:	0a08      	lsrs	r0, r1, #8
   27dc6:	7128      	strb	r0, [r5, #4]
   27dc8:	70e9      	strb	r1, [r5, #3]
   27dca:	1de8      	adds	r0, r5, #7
   27dcc:	2217      	movs	r2, #23
   27dce:	990b      	ldr	r1, [sp, #44]	@ 0x2c
   27dd0:	f002 fbd2 	bl	2a578 <__aeabi_memcpy>
   27dd4:	4e05      	ldr	r6, [pc, #20]	@ (27dec <_start+0xd50>)
   27dd6:	446e      	add	r6, sp
   27dd8:	4630      	mov	r0, r6
   27dda:	4629      	mov	r1, r5
   27ddc:	f7fa f8aa 	bl	21f34 <_ZN20complex_dynamic_type3app17h37df6c3a3aa2963cE>
   27de0:	7830      	ldrb	r0, [r6, #0]
   27de2:	2801      	cmp	r0, #1
   27de4:	d106      	bne.n	27df4 <_start+0xd58>
   27de6:	f002 f9e7 	bl	2a1b8 <_start+0x311c>
   27dea:	46c0      	nop			@ (mov r8, r8)
   27dec:	00001404 	.word	0x00001404
   27df0:	000013a8 	.word	0x000013a8
   27df4:	4818      	ldr	r0, [pc, #96]	@ (27e58 <_start+0xdbc>)
   27df6:	4468      	add	r0, sp
   27df8:	78c1      	ldrb	r1, [r0, #3]
   27dfa:	ad8f      	add	r5, sp, #572	@ 0x23c
   27dfc:	70a9      	strb	r1, [r5, #2]
   27dfe:	7841      	ldrb	r1, [r0, #1]
   27e00:	7882      	ldrb	r2, [r0, #2]
   27e02:	0212      	lsls	r2, r2, #8
   27e04:	1851      	adds	r1, r2, r1
   27e06:	8029      	strh	r1, [r5, #0]
   27e08:	3008      	adds	r0, #8
   27e0a:	9909      	ldr	r1, [sp, #36]	@ 0x24
   27e0c:	6e09      	ldr	r1, [r1, #96]	@ 0x60
   27e0e:	910a      	str	r1, [sp, #40]	@ 0x28
   27e10:	4b12      	ldr	r3, [pc, #72]	@ (27e5c <_start+0xdc0>)
   27e12:	446b      	add	r3, sp
   27e14:	930b      	str	r3, [sp, #44]	@ 0x2c
   27e16:	c846      	ldmia	r0!, {r1, r2, r6}
   27e18:	c346      	stmia	r3!, {r1, r2, r6}
   27e1a:	c846      	ldmia	r0!, {r1, r2, r6}
   27e1c:	c346      	stmia	r3!, {r1, r2, r6}
   27e1e:	c846      	ldmia	r0!, {r1, r2, r6}
   27e20:	c346      	stmia	r3!, {r1, r2, r6}
   27e22:	7800      	ldrb	r0, [r0, #0]
   27e24:	7018      	strb	r0, [r3, #0]
   27e26:	990a      	ldr	r1, [sp, #40]	@ 0x28
   27e28:	0e08      	lsrs	r0, r1, #24
   27e2a:	71a8      	strb	r0, [r5, #6]
   27e2c:	0c08      	lsrs	r0, r1, #16
   27e2e:	7168      	strb	r0, [r5, #5]
   27e30:	0a08      	lsrs	r0, r1, #8
   27e32:	7128      	strb	r0, [r5, #4]
   27e34:	70e9      	strb	r1, [r5, #3]
   27e36:	1de8      	adds	r0, r5, #7
   27e38:	2225      	movs	r2, #37	@ 0x25
   27e3a:	990b      	ldr	r1, [sp, #44]	@ 0x2c
   27e3c:	f002 fb9c 	bl	2a578 <__aeabi_memcpy>
   27e40:	4e05      	ldr	r6, [pc, #20]	@ (27e58 <_start+0xdbc>)
   27e42:	446e      	add	r6, sp
   27e44:	4630      	mov	r0, r6
   27e46:	4629      	mov	r1, r5
   27e48:	f7fd fc4a 	bl	256e0 <_ZN20complex_dynamic_type3app17hcb20addc805e86c9E>
   27e4c:	7830      	ldrb	r0, [r6, #0]
   27e4e:	2801      	cmp	r0, #1
   27e50:	d106      	bne.n	27e60 <_start+0xdc4>
   27e52:	f002 f9b1 	bl	2a1b8 <_start+0x311c>
   27e56:	46c0      	nop			@ (mov r8, r8)
   27e58:	00001404 	.word	0x00001404
   27e5c:	000013a8 	.word	0x000013a8
   27e60:	4818      	ldr	r0, [pc, #96]	@ (27ec4 <_start+0xe28>)
   27e62:	4468      	add	r0, sp
   27e64:	78c1      	ldrb	r1, [r0, #3]
   27e66:	ab9a      	add	r3, sp, #616	@ 0x268
   27e68:	930a      	str	r3, [sp, #40]	@ 0x28
   27e6a:	7099      	strb	r1, [r3, #2]
   27e6c:	7841      	ldrb	r1, [r0, #1]
   27e6e:	7882      	ldrb	r2, [r0, #2]
   27e70:	0212      	lsls	r2, r2, #8
   27e72:	1851      	adds	r1, r2, r1
   27e74:	8019      	strh	r1, [r3, #0]
   27e76:	3008      	adds	r0, #8
   27e78:	9909      	ldr	r1, [sp, #36]	@ 0x24
   27e7a:	6e09      	ldr	r1, [r1, #96]	@ 0x60
   27e7c:	9108      	str	r1, [sp, #32]
   27e7e:	4b12      	ldr	r3, [pc, #72]	@ (27ec8 <_start+0xe2c>)
   27e80:	446b      	add	r3, sp
   27e82:	930b      	str	r3, [sp, #44]	@ 0x2c
   27e84:	c846      	ldmia	r0!, {r1, r2, r6}
   27e86:	c346      	stmia	r3!, {r1, r2, r6}
   27e88:	c866      	ldmia	r0!, {r1, r2, r5, r6}
   27e8a:	c366      	stmia	r3!, {r1, r2, r5, r6}
   27e8c:	8800      	ldrh	r0, [r0, #0]
   27e8e:	8018      	strh	r0, [r3, #0]
   27e90:	9908      	ldr	r1, [sp, #32]
   27e92:	0e08      	lsrs	r0, r1, #24
   27e94:	9d0a      	ldr	r5, [sp, #40]	@ 0x28
   27e96:	71a8      	strb	r0, [r5, #6]
   27e98:	0c08      	lsrs	r0, r1, #16
   27e9a:	7168      	strb	r0, [r5, #5]
   27e9c:	0a08      	lsrs	r0, r1, #8
   27e9e:	7128      	strb	r0, [r5, #4]
   27ea0:	70e9      	strb	r1, [r5, #3]
   27ea2:	1de8      	adds	r0, r5, #7
   27ea4:	221e      	movs	r2, #30
   27ea6:	990b      	ldr	r1, [sp, #44]	@ 0x2c
   27ea8:	f002 fb66 	bl	2a578 <__aeabi_memcpy>
   27eac:	4e05      	ldr	r6, [pc, #20]	@ (27ec4 <_start+0xe28>)
   27eae:	446e      	add	r6, sp
   27eb0:	4630      	mov	r0, r6
   27eb2:	4629      	mov	r1, r5
   27eb4:	f7fa f8d4 	bl	22060 <_ZN20complex_dynamic_type3app17h3a78c8e0a8de9e3dE>
   27eb8:	7830      	ldrb	r0, [r6, #0]
   27eba:	2801      	cmp	r0, #1
   27ebc:	d106      	bne.n	27ecc <_start+0xe30>
   27ebe:	f002 f97b 	bl	2a1b8 <_start+0x311c>
   27ec2:	46c0      	nop			@ (mov r8, r8)
   27ec4:	00001404 	.word	0x00001404
   27ec8:	000013a8 	.word	0x000013a8
   27ecc:	4819      	ldr	r0, [pc, #100]	@ (27f34 <_start+0xe98>)
   27ece:	4468      	add	r0, sp
   27ed0:	78c1      	ldrb	r1, [r0, #3]
   27ed2:	aba4      	add	r3, sp, #656	@ 0x290
   27ed4:	9307      	str	r3, [sp, #28]
   27ed6:	7099      	strb	r1, [r3, #2]
   27ed8:	7841      	ldrb	r1, [r0, #1]
   27eda:	7882      	ldrb	r2, [r0, #2]
   27edc:	0212      	lsls	r2, r2, #8
   27ede:	1851      	adds	r1, r2, r1
   27ee0:	8019      	strh	r1, [r3, #0]
   27ee2:	3008      	adds	r0, #8
   27ee4:	9909      	ldr	r1, [sp, #36]	@ 0x24
   27ee6:	6e09      	ldr	r1, [r1, #96]	@ 0x60
   27ee8:	9108      	str	r1, [sp, #32]
   27eea:	4913      	ldr	r1, [pc, #76]	@ (27f38 <_start+0xe9c>)
   27eec:	4469      	add	r1, sp
   27eee:	910a      	str	r1, [sp, #40]	@ 0x28
   27ef0:	910b      	str	r1, [sp, #44]	@ 0x2c
   27ef2:	9d0b      	ldr	r5, [sp, #44]	@ 0x2c
   27ef4:	c84e      	ldmia	r0!, {r1, r2, r3, r6}
   27ef6:	c54e      	stmia	r5!, {r1, r2, r3, r6}
   27ef8:	950b      	str	r5, [sp, #44]	@ 0x2c
   27efa:	7800      	ldrb	r0, [r0, #0]
   27efc:	990b      	ldr	r1, [sp, #44]	@ 0x2c
   27efe:	7008      	strb	r0, [r1, #0]
   27f00:	9908      	ldr	r1, [sp, #32]
   27f02:	0e08      	lsrs	r0, r1, #24
   27f04:	9d07      	ldr	r5, [sp, #28]
   27f06:	71a8      	strb	r0, [r5, #6]
   27f08:	0c08      	lsrs	r0, r1, #16
   27f0a:	7168      	strb	r0, [r5, #5]
   27f0c:	0a08      	lsrs	r0, r1, #8
   27f0e:	7128      	strb	r0, [r5, #4]
   27f10:	70e9      	strb	r1, [r5, #3]
   27f12:	1de8      	adds	r0, r5, #7
   27f14:	2211      	movs	r2, #17
   27f16:	990a      	ldr	r1, [sp, #40]	@ 0x28
   27f18:	f002 fb2e 	bl	2a578 <__aeabi_memcpy>
   27f1c:	4e05      	ldr	r6, [pc, #20]	@ (27f34 <_start+0xe98>)
   27f1e:	446e      	add	r6, sp
   27f20:	4630      	mov	r0, r6
   27f22:	4629      	mov	r1, r5
   27f24:	f7fa fe74 	bl	22c10 <_ZN20complex_dynamic_type3app17h623b7ad43a86e778E>
   27f28:	7830      	ldrb	r0, [r6, #0]
   27f2a:	2801      	cmp	r0, #1
   27f2c:	d106      	bne.n	27f3c <_start+0xea0>
   27f2e:	f002 f943 	bl	2a1b8 <_start+0x311c>
   27f32:	46c0      	nop			@ (mov r8, r8)
   27f34:	00001404 	.word	0x00001404
   27f38:	000013a8 	.word	0x000013a8
   27f3c:	481a      	ldr	r0, [pc, #104]	@ (27fa8 <_start+0xf0c>)
   27f3e:	4468      	add	r0, sp
   27f40:	78c1      	ldrb	r1, [r0, #3]
   27f42:	abaa      	add	r3, sp, #680	@ 0x2a8
   27f44:	930a      	str	r3, [sp, #40]	@ 0x28
   27f46:	7099      	strb	r1, [r3, #2]
   27f48:	7841      	ldrb	r1, [r0, #1]
   27f4a:	7882      	ldrb	r2, [r0, #2]
   27f4c:	0212      	lsls	r2, r2, #8
   27f4e:	1851      	adds	r1, r2, r1
   27f50:	8019      	strh	r1, [r3, #0]
   27f52:	3008      	adds	r0, #8
   27f54:	9909      	ldr	r1, [sp, #36]	@ 0x24
   27f56:	6e09      	ldr	r1, [r1, #96]	@ 0x60
   27f58:	9108      	str	r1, [sp, #32]
   27f5a:	4b14      	ldr	r3, [pc, #80]	@ (27fac <_start+0xf10>)
   27f5c:	446b      	add	r3, sp
   27f5e:	930b      	str	r3, [sp, #44]	@ 0x2c
   27f60:	c846      	ldmia	r0!, {r1, r2, r6}
   27f62:	c346      	stmia	r3!, {r1, r2, r6}
   27f64:	c866      	ldmia	r0!, {r1, r2, r5, r6}
   27f66:	c366      	stmia	r3!, {r1, r2, r5, r6}
   27f68:	c866      	ldmia	r0!, {r1, r2, r5, r6}
   27f6a:	c366      	stmia	r3!, {r1, r2, r5, r6}
   27f6c:	8801      	ldrh	r1, [r0, #0]
   27f6e:	8019      	strh	r1, [r3, #0]
   27f70:	7880      	ldrb	r0, [r0, #2]
   27f72:	7098      	strb	r0, [r3, #2]
   27f74:	9908      	ldr	r1, [sp, #32]
   27f76:	0e08      	lsrs	r0, r1, #24
   27f78:	9d0a      	ldr	r5, [sp, #40]	@ 0x28
   27f7a:	71a8      	strb	r0, [r5, #6]
   27f7c:	0c08      	lsrs	r0, r1, #16
   27f7e:	7168      	strb	r0, [r5, #5]
   27f80:	0a08      	lsrs	r0, r1, #8
   27f82:	7128      	strb	r0, [r5, #4]
   27f84:	70e9      	strb	r1, [r5, #3]
   27f86:	1de8      	adds	r0, r5, #7
   27f88:	222f      	movs	r2, #47	@ 0x2f
   27f8a:	990b      	ldr	r1, [sp, #44]	@ 0x2c
   27f8c:	f002 faf4 	bl	2a578 <__aeabi_memcpy>
   27f90:	4e05      	ldr	r6, [pc, #20]	@ (27fa8 <_start+0xf0c>)
   27f92:	446e      	add	r6, sp
   27f94:	4630      	mov	r0, r6
   27f96:	4629      	mov	r1, r5
   27f98:	f7fd fe86 	bl	25ca8 <_ZN20complex_dynamic_type3app17hd9f48d37549c9935E>
   27f9c:	7830      	ldrb	r0, [r6, #0]
   27f9e:	2801      	cmp	r0, #1
   27fa0:	d106      	bne.n	27fb0 <_start+0xf14>
   27fa2:	f002 f909 	bl	2a1b8 <_start+0x311c>
   27fa6:	46c0      	nop			@ (mov r8, r8)
   27fa8:	00001404 	.word	0x00001404
   27fac:	000013a8 	.word	0x000013a8
   27fb0:	4819      	ldr	r0, [pc, #100]	@ (28018 <_start+0xf7c>)
   27fb2:	4468      	add	r0, sp
   27fb4:	78c1      	ldrb	r1, [r0, #3]
   27fb6:	abb8      	add	r3, sp, #736	@ 0x2e0
   27fb8:	930a      	str	r3, [sp, #40]	@ 0x28
   27fba:	7099      	strb	r1, [r3, #2]
   27fbc:	7841      	ldrb	r1, [r0, #1]
   27fbe:	7882      	ldrb	r2, [r0, #2]
   27fc0:	0212      	lsls	r2, r2, #8
   27fc2:	1851      	adds	r1, r2, r1
   27fc4:	8019      	strh	r1, [r3, #0]
   27fc6:	3008      	adds	r0, #8
   27fc8:	9909      	ldr	r1, [sp, #36]	@ 0x24
   27fca:	6e09      	ldr	r1, [r1, #96]	@ 0x60
   27fcc:	9108      	str	r1, [sp, #32]
   27fce:	4b13      	ldr	r3, [pc, #76]	@ (2801c <_start+0xf80>)
   27fd0:	446b      	add	r3, sp
   27fd2:	930b      	str	r3, [sp, #44]	@ 0x2c
   27fd4:	c846      	ldmia	r0!, {r1, r2, r6}
   27fd6:	c346      	stmia	r3!, {r1, r2, r6}
   27fd8:	c866      	ldmia	r0!, {r1, r2, r5, r6}
   27fda:	c366      	stmia	r3!, {r1, r2, r5, r6}
   27fdc:	c866      	ldmia	r0!, {r1, r2, r5, r6}
   27fde:	c366      	stmia	r3!, {r1, r2, r5, r6}
   27fe0:	7800      	ldrb	r0, [r0, #0]
   27fe2:	7018      	strb	r0, [r3, #0]
   27fe4:	9908      	ldr	r1, [sp, #32]
   27fe6:	0e08      	lsrs	r0, r1, #24
   27fe8:	9d0a      	ldr	r5, [sp, #40]	@ 0x28
   27fea:	71a8      	strb	r0, [r5, #6]
   27fec:	0c08      	lsrs	r0, r1, #16
   27fee:	7168      	strb	r0, [r5, #5]
   27ff0:	0a08      	lsrs	r0, r1, #8
   27ff2:	7128      	strb	r0, [r5, #4]
   27ff4:	70e9      	strb	r1, [r5, #3]
   27ff6:	1de8      	adds	r0, r5, #7
   27ff8:	222d      	movs	r2, #45	@ 0x2d
   27ffa:	990b      	ldr	r1, [sp, #44]	@ 0x2c
   27ffc:	f002 fabc 	bl	2a578 <__aeabi_memcpy>
   28000:	4e05      	ldr	r6, [pc, #20]	@ (28018 <_start+0xf7c>)
   28002:	446e      	add	r6, sp
   28004:	4630      	mov	r0, r6
   28006:	4629      	mov	r1, r5
   28008:	f7fb faa8 	bl	2355c <_ZN20complex_dynamic_type3app17h80a24f64a4276344E>
   2800c:	7830      	ldrb	r0, [r6, #0]
   2800e:	2801      	cmp	r0, #1
   28010:	d106      	bne.n	28020 <_start+0xf84>
   28012:	f002 f8d1 	bl	2a1b8 <_start+0x311c>
   28016:	46c0      	nop			@ (mov r8, r8)
   28018:	00001404 	.word	0x00001404
   2801c:	000013a8 	.word	0x000013a8
   28020:	4819      	ldr	r0, [pc, #100]	@ (28088 <_start+0xfec>)
   28022:	4468      	add	r0, sp
   28024:	78c1      	ldrb	r1, [r0, #3]
   28026:	adc5      	add	r5, sp, #788	@ 0x314
   28028:	70a9      	strb	r1, [r5, #2]
   2802a:	7841      	ldrb	r1, [r0, #1]
   2802c:	7882      	ldrb	r2, [r0, #2]
   2802e:	0212      	lsls	r2, r2, #8
   28030:	1851      	adds	r1, r2, r1
   28032:	8029      	strh	r1, [r5, #0]
   28034:	3008      	adds	r0, #8
   28036:	9909      	ldr	r1, [sp, #36]	@ 0x24
   28038:	6e09      	ldr	r1, [r1, #96]	@ 0x60
   2803a:	910a      	str	r1, [sp, #40]	@ 0x28
   2803c:	4b13      	ldr	r3, [pc, #76]	@ (2808c <_start+0xff0>)
   2803e:	446b      	add	r3, sp
   28040:	930b      	str	r3, [sp, #44]	@ 0x2c
   28042:	c846      	ldmia	r0!, {r1, r2, r6}
   28044:	c346      	stmia	r3!, {r1, r2, r6}
   28046:	c846      	ldmia	r0!, {r1, r2, r6}
   28048:	c346      	stmia	r3!, {r1, r2, r6}
   2804a:	c846      	ldmia	r0!, {r1, r2, r6}
   2804c:	c346      	stmia	r3!, {r1, r2, r6}
   2804e:	8801      	ldrh	r1, [r0, #0]
   28050:	8019      	strh	r1, [r3, #0]
   28052:	7880      	ldrb	r0, [r0, #2]
   28054:	7098      	strb	r0, [r3, #2]
   28056:	990a      	ldr	r1, [sp, #40]	@ 0x28
   28058:	0e08      	lsrs	r0, r1, #24
   2805a:	71a8      	strb	r0, [r5, #6]
   2805c:	0c08      	lsrs	r0, r1, #16
   2805e:	7168      	strb	r0, [r5, #5]
   28060:	0a08      	lsrs	r0, r1, #8
   28062:	7128      	strb	r0, [r5, #4]
   28064:	70e9      	strb	r1, [r5, #3]
   28066:	1de8      	adds	r0, r5, #7
   28068:	2227      	movs	r2, #39	@ 0x27
   2806a:	990b      	ldr	r1, [sp, #44]	@ 0x2c
   2806c:	f002 fa84 	bl	2a578 <__aeabi_memcpy>
   28070:	4e05      	ldr	r6, [pc, #20]	@ (28088 <_start+0xfec>)
   28072:	446e      	add	r6, sp
   28074:	4630      	mov	r0, r6
   28076:	4629      	mov	r1, r5
   28078:	f7fc fd8a 	bl	24b90 <_ZN20complex_dynamic_type3app17hb9d0c8f2458861c2E>
   2807c:	7830      	ldrb	r0, [r6, #0]
   2807e:	2801      	cmp	r0, #1
   28080:	d106      	bne.n	28090 <_start+0xff4>
   28082:	f002 f899 	bl	2a1b8 <_start+0x311c>
   28086:	46c0      	nop			@ (mov r8, r8)
   28088:	00001404 	.word	0x00001404
   2808c:	000013a8 	.word	0x000013a8
   28090:	4819      	ldr	r0, [pc, #100]	@ (280f8 <_start+0x105c>)
   28092:	4468      	add	r0, sp
   28094:	78c1      	ldrb	r1, [r0, #3]
   28096:	abd1      	add	r3, sp, #836	@ 0x344
   28098:	930a      	str	r3, [sp, #40]	@ 0x28
   2809a:	7099      	strb	r1, [r3, #2]
   2809c:	7841      	ldrb	r1, [r0, #1]
   2809e:	7882      	ldrb	r2, [r0, #2]
   280a0:	0212      	lsls	r2, r2, #8
   280a2:	1851      	adds	r1, r2, r1
   280a4:	8019      	strh	r1, [r3, #0]
   280a6:	3008      	adds	r0, #8
   280a8:	9909      	ldr	r1, [sp, #36]	@ 0x24
   280aa:	6e09      	ldr	r1, [r1, #96]	@ 0x60
   280ac:	9108      	str	r1, [sp, #32]
   280ae:	4b13      	ldr	r3, [pc, #76]	@ (280fc <_start+0x1060>)
   280b0:	446b      	add	r3, sp
   280b2:	930b      	str	r3, [sp, #44]	@ 0x2c
   280b4:	c866      	ldmia	r0!, {r1, r2, r5, r6}
   280b6:	c366      	stmia	r3!, {r1, r2, r5, r6}
   280b8:	c866      	ldmia	r0!, {r1, r2, r5, r6}
   280ba:	c366      	stmia	r3!, {r1, r2, r5, r6}
   280bc:	c866      	ldmia	r0!, {r1, r2, r5, r6}
   280be:	c366      	stmia	r3!, {r1, r2, r5, r6}
   280c0:	7800      	ldrb	r0, [r0, #0]
   280c2:	7018      	strb	r0, [r3, #0]
   280c4:	9908      	ldr	r1, [sp, #32]
   280c6:	0e08      	lsrs	r0, r1, #24
   280c8:	9d0a      	ldr	r5, [sp, #40]	@ 0x28
   280ca:	71a8      	strb	r0, [r5, #6]
   280cc:	0c08      	lsrs	r0, r1, #16
   280ce:	7168      	strb	r0, [r5, #5]
   280d0:	0a08      	lsrs	r0, r1, #8
   280d2:	7128      	strb	r0, [r5, #4]
   280d4:	70e9      	strb	r1, [r5, #3]
   280d6:	1de8      	adds	r0, r5, #7
   280d8:	2231      	movs	r2, #49	@ 0x31
   280da:	990b      	ldr	r1, [sp, #44]	@ 0x2c
   280dc:	f002 fa4c 	bl	2a578 <__aeabi_memcpy>
   280e0:	4e05      	ldr	r6, [pc, #20]	@ (280f8 <_start+0x105c>)
   280e2:	446e      	add	r6, sp
   280e4:	4630      	mov	r0, r6
   280e6:	4629      	mov	r1, r5
   280e8:	f7f8 fd3a 	bl	20b60 <_ZN20complex_dynamic_type3app17h1367f443fbcad68dE>
   280ec:	7830      	ldrb	r0, [r6, #0]
   280ee:	2801      	cmp	r0, #1
   280f0:	d106      	bne.n	28100 <_start+0x1064>
   280f2:	f002 f861 	bl	2a1b8 <_start+0x311c>
   280f6:	46c0      	nop			@ (mov r8, r8)
   280f8:	00001404 	.word	0x00001404
   280fc:	000013a8 	.word	0x000013a8
   28100:	4819      	ldr	r0, [pc, #100]	@ (28168 <_start+0x10cc>)
   28102:	4468      	add	r0, sp
   28104:	78c1      	ldrb	r1, [r0, #3]
   28106:	abdf      	add	r3, sp, #892	@ 0x37c
   28108:	930a      	str	r3, [sp, #40]	@ 0x28
   2810a:	7099      	strb	r1, [r3, #2]
   2810c:	7841      	ldrb	r1, [r0, #1]
   2810e:	7882      	ldrb	r2, [r0, #2]
   28110:	0212      	lsls	r2, r2, #8
   28112:	1851      	adds	r1, r2, r1
   28114:	8019      	strh	r1, [r3, #0]
   28116:	3008      	adds	r0, #8
   28118:	9909      	ldr	r1, [sp, #36]	@ 0x24
   2811a:	6e09      	ldr	r1, [r1, #96]	@ 0x60
   2811c:	9108      	str	r1, [sp, #32]
   2811e:	4b13      	ldr	r3, [pc, #76]	@ (2816c <_start+0x10d0>)
   28120:	446b      	add	r3, sp
   28122:	930b      	str	r3, [sp, #44]	@ 0x2c
   28124:	c846      	ldmia	r0!, {r1, r2, r6}
   28126:	c346      	stmia	r3!, {r1, r2, r6}
   28128:	c866      	ldmia	r0!, {r1, r2, r5, r6}
   2812a:	c366      	stmia	r3!, {r1, r2, r5, r6}
   2812c:	c866      	ldmia	r0!, {r1, r2, r5, r6}
   2812e:	c366      	stmia	r3!, {r1, r2, r5, r6}
   28130:	7800      	ldrb	r0, [r0, #0]
   28132:	7018      	strb	r0, [r3, #0]
   28134:	9908      	ldr	r1, [sp, #32]
   28136:	0e08      	lsrs	r0, r1, #24
   28138:	9d0a      	ldr	r5, [sp, #40]	@ 0x28
   2813a:	71a8      	strb	r0, [r5, #6]
   2813c:	0c08      	lsrs	r0, r1, #16
   2813e:	7168      	strb	r0, [r5, #5]
   28140:	0a08      	lsrs	r0, r1, #8
   28142:	7128      	strb	r0, [r5, #4]
   28144:	70e9      	strb	r1, [r5, #3]
   28146:	1de8      	adds	r0, r5, #7
   28148:	222d      	movs	r2, #45	@ 0x2d
   2814a:	990b      	ldr	r1, [sp, #44]	@ 0x2c
   2814c:	f002 fa14 	bl	2a578 <__aeabi_memcpy>
   28150:	4e05      	ldr	r6, [pc, #20]	@ (28168 <_start+0x10cc>)
   28152:	446e      	add	r6, sp
   28154:	4630      	mov	r0, r6
   28156:	4629      	mov	r1, r5
   28158:	f7f8 f8f0 	bl	2033c <_ZN20complex_dynamic_type3app17h030418878fdf572aE>
   2815c:	7830      	ldrb	r0, [r6, #0]
   2815e:	2801      	cmp	r0, #1
   28160:	d106      	bne.n	28170 <_start+0x10d4>
   28162:	f002 f829 	bl	2a1b8 <_start+0x311c>
   28166:	46c0      	nop			@ (mov r8, r8)
   28168:	00001404 	.word	0x00001404
   2816c:	000013a8 	.word	0x000013a8
   28170:	4818      	ldr	r0, [pc, #96]	@ (281d4 <_start+0x1138>)
   28172:	4468      	add	r0, sp
   28174:	78c1      	ldrb	r1, [r0, #3]
   28176:	abec      	add	r3, sp, #944	@ 0x3b0
   28178:	930a      	str	r3, [sp, #40]	@ 0x28
   2817a:	7099      	strb	r1, [r3, #2]
   2817c:	7841      	ldrb	r1, [r0, #1]
   2817e:	7882      	ldrb	r2, [r0, #2]
   28180:	0212      	lsls	r2, r2, #8
   28182:	1851      	adds	r1, r2, r1
   28184:	8019      	strh	r1, [r3, #0]
   28186:	3008      	adds	r0, #8
   28188:	9909      	ldr	r1, [sp, #36]	@ 0x24
   2818a:	6e09      	ldr	r1, [r1, #96]	@ 0x60
   2818c:	9108      	str	r1, [sp, #32]
   2818e:	4b12      	ldr	r3, [pc, #72]	@ (281d8 <_start+0x113c>)
   28190:	446b      	add	r3, sp
   28192:	930b      	str	r3, [sp, #44]	@ 0x2c
   28194:	c866      	ldmia	r0!, {r1, r2, r5, r6}
   28196:	c366      	stmia	r3!, {r1, r2, r5, r6}
   28198:	8801      	ldrh	r1, [r0, #0]
   2819a:	8019      	strh	r1, [r3, #0]
   2819c:	7880      	ldrb	r0, [r0, #2]
   2819e:	7098      	strb	r0, [r3, #2]
   281a0:	9908      	ldr	r1, [sp, #32]
   281a2:	0e08      	lsrs	r0, r1, #24
   281a4:	9d0a      	ldr	r5, [sp, #40]	@ 0x28
   281a6:	71a8      	strb	r0, [r5, #6]
   281a8:	0c08      	lsrs	r0, r1, #16
   281aa:	7168      	strb	r0, [r5, #5]
   281ac:	0a08      	lsrs	r0, r1, #8
   281ae:	7128      	strb	r0, [r5, #4]
   281b0:	70e9      	strb	r1, [r5, #3]
   281b2:	1de8      	adds	r0, r5, #7
   281b4:	2213      	movs	r2, #19
   281b6:	990b      	ldr	r1, [sp, #44]	@ 0x2c
   281b8:	f002 f9de 	bl	2a578 <__aeabi_memcpy>
   281bc:	4e05      	ldr	r6, [pc, #20]	@ (281d4 <_start+0x1138>)
   281be:	446e      	add	r6, sp
   281c0:	4630      	mov	r0, r6
   281c2:	4629      	mov	r1, r5
   281c4:	f7fd fe0a 	bl	25ddc <_ZN20complex_dynamic_type3app17hdcdeeef77c5111fbE>
   281c8:	7830      	ldrb	r0, [r6, #0]
   281ca:	2801      	cmp	r0, #1
   281cc:	d106      	bne.n	281dc <_start+0x1140>
   281ce:	f001 fff3 	bl	2a1b8 <_start+0x311c>
   281d2:	46c0      	nop			@ (mov r8, r8)
   281d4:	00001404 	.word	0x00001404
   281d8:	000013a8 	.word	0x000013a8
   281dc:	4915      	ldr	r1, [pc, #84]	@ (28234 <_start+0x1198>)
   281de:	4469      	add	r1, sp
   281e0:	78c8      	ldrb	r0, [r1, #3]
   281e2:	adf3      	add	r5, sp, #972	@ 0x3cc
   281e4:	70a8      	strb	r0, [r5, #2]
   281e6:	7848      	ldrb	r0, [r1, #1]
   281e8:	788a      	ldrb	r2, [r1, #2]
   281ea:	0212      	lsls	r2, r2, #8
   281ec:	1810      	adds	r0, r2, r0
   281ee:	8028      	strh	r0, [r5, #0]
   281f0:	9809      	ldr	r0, [sp, #36]	@ 0x24
   281f2:	6e06      	ldr	r6, [r0, #96]	@ 0x60
   281f4:	3108      	adds	r1, #8
   281f6:	4810      	ldr	r0, [pc, #64]	@ (28238 <_start+0x119c>)
   281f8:	4468      	add	r0, sp
   281fa:	900b      	str	r0, [sp, #44]	@ 0x2c
   281fc:	2249      	movs	r2, #73	@ 0x49
   281fe:	920a      	str	r2, [sp, #40]	@ 0x28
   28200:	f002 f85a 	bl	2a2b8 <__aeabi_memcpy4>
   28204:	0e30      	lsrs	r0, r6, #24
   28206:	71a8      	strb	r0, [r5, #6]
   28208:	0c30      	lsrs	r0, r6, #16
   2820a:	7168      	strb	r0, [r5, #5]
   2820c:	0a30      	lsrs	r0, r6, #8
   2820e:	7128      	strb	r0, [r5, #4]
   28210:	70ee      	strb	r6, [r5, #3]
   28212:	1de8      	adds	r0, r5, #7
   28214:	990b      	ldr	r1, [sp, #44]	@ 0x2c
   28216:	9a0a      	ldr	r2, [sp, #40]	@ 0x28
   28218:	f002 f9ae 	bl	2a578 <__aeabi_memcpy>
   2821c:	4e05      	ldr	r6, [pc, #20]	@ (28234 <_start+0x1198>)
   2821e:	446e      	add	r6, sp
   28220:	4630      	mov	r0, r6
   28222:	4629      	mov	r1, r5
   28224:	f7fc f80c 	bl	24240 <_ZN20complex_dynamic_type3app17h9f5e25f0f2f27f16E>
   28228:	7830      	ldrb	r0, [r6, #0]
   2822a:	2801      	cmp	r0, #1
   2822c:	d106      	bne.n	2823c <_start+0x11a0>
   2822e:	f001 ffc3 	bl	2a1b8 <_start+0x311c>
   28232:	46c0      	nop			@ (mov r8, r8)
   28234:	00001404 	.word	0x00001404
   28238:	000013a8 	.word	0x000013a8
   2823c:	481a      	ldr	r0, [pc, #104]	@ (282a8 <_start+0x120c>)
   2823e:	4468      	add	r0, sp
   28240:	78c1      	ldrb	r1, [r0, #3]
   28242:	abff      	add	r3, sp, #1020	@ 0x3fc
   28244:	3320      	adds	r3, #32
   28246:	930a      	str	r3, [sp, #40]	@ 0x28
   28248:	7099      	strb	r1, [r3, #2]
   2824a:	7841      	ldrb	r1, [r0, #1]
   2824c:	7882      	ldrb	r2, [r0, #2]
   2824e:	0212      	lsls	r2, r2, #8
   28250:	1851      	adds	r1, r2, r1
   28252:	8019      	strh	r1, [r3, #0]
   28254:	3008      	adds	r0, #8
   28256:	9909      	ldr	r1, [sp, #36]	@ 0x24
   28258:	6e09      	ldr	r1, [r1, #96]	@ 0x60
   2825a:	9108      	str	r1, [sp, #32]
   2825c:	4b13      	ldr	r3, [pc, #76]	@ (282ac <_start+0x1210>)
   2825e:	446b      	add	r3, sp
   28260:	930b      	str	r3, [sp, #44]	@ 0x2c
   28262:	c846      	ldmia	r0!, {r1, r2, r6}
   28264:	c346      	stmia	r3!, {r1, r2, r6}
   28266:	c846      	ldmia	r0!, {r1, r2, r6}
   28268:	c346      	stmia	r3!, {r1, r2, r6}
   2826a:	c846      	ldmia	r0!, {r1, r2, r6}
   2826c:	c346      	stmia	r3!, {r1, r2, r6}
   2826e:	c866      	ldmia	r0!, {r1, r2, r5, r6}
   28270:	c366      	stmia	r3!, {r1, r2, r5, r6}
   28272:	7800      	ldrb	r0, [r0, #0]
   28274:	7018      	strb	r0, [r3, #0]
   28276:	9908      	ldr	r1, [sp, #32]
   28278:	0e08      	lsrs	r0, r1, #24
   2827a:	9d0a      	ldr	r5, [sp, #40]	@ 0x28
   2827c:	71a8      	strb	r0, [r5, #6]
   2827e:	0c08      	lsrs	r0, r1, #16
   28280:	7168      	strb	r0, [r5, #5]
   28282:	0a08      	lsrs	r0, r1, #8
   28284:	7128      	strb	r0, [r5, #4]
   28286:	70e9      	strb	r1, [r5, #3]
   28288:	1de8      	adds	r0, r5, #7
   2828a:	2235      	movs	r2, #53	@ 0x35
   2828c:	990b      	ldr	r1, [sp, #44]	@ 0x2c
   2828e:	f002 f973 	bl	2a578 <__aeabi_memcpy>
   28292:	4e05      	ldr	r6, [pc, #20]	@ (282a8 <_start+0x120c>)
   28294:	446e      	add	r6, sp
   28296:	4630      	mov	r0, r6
   28298:	4629      	mov	r1, r5
   2829a:	f7fd ff5f 	bl	2615c <_ZN20complex_dynamic_type3app17he36373ac1ef91ad2E>
   2829e:	7830      	ldrb	r0, [r6, #0]
   282a0:	2801      	cmp	r0, #1
   282a2:	d105      	bne.n	282b0 <_start+0x1214>
   282a4:	f001 ff88 	bl	2a1b8 <_start+0x311c>
   282a8:	00001404 	.word	0x00001404
   282ac:	000013a8 	.word	0x000013a8
   282b0:	481a      	ldr	r0, [pc, #104]	@ (2831c <_start+0x1280>)
   282b2:	4468      	add	r0, sp
   282b4:	78c1      	ldrb	r1, [r0, #3]
   282b6:	abff      	add	r3, sp, #1020	@ 0x3fc
   282b8:	335c      	adds	r3, #92	@ 0x5c
   282ba:	930a      	str	r3, [sp, #40]	@ 0x28
   282bc:	7099      	strb	r1, [r3, #2]
   282be:	7841      	ldrb	r1, [r0, #1]
   282c0:	7882      	ldrb	r2, [r0, #2]
   282c2:	0212      	lsls	r2, r2, #8
   282c4:	1851      	adds	r1, r2, r1
   282c6:	8019      	strh	r1, [r3, #0]
   282c8:	3008      	adds	r0, #8
   282ca:	9909      	ldr	r1, [sp, #36]	@ 0x24
   282cc:	6e09      	ldr	r1, [r1, #96]	@ 0x60
   282ce:	9108      	str	r1, [sp, #32]
   282d0:	4b13      	ldr	r3, [pc, #76]	@ (28320 <_start+0x1284>)
   282d2:	446b      	add	r3, sp
   282d4:	930b      	str	r3, [sp, #44]	@ 0x2c
   282d6:	c846      	ldmia	r0!, {r1, r2, r6}
   282d8:	c346      	stmia	r3!, {r1, r2, r6}
   282da:	c846      	ldmia	r0!, {r1, r2, r6}
   282dc:	c346      	stmia	r3!, {r1, r2, r6}
   282de:	c866      	ldmia	r0!, {r1, r2, r5, r6}
   282e0:	c366      	stmia	r3!, {r1, r2, r5, r6}
   282e2:	8801      	ldrh	r1, [r0, #0]
   282e4:	8019      	strh	r1, [r3, #0]
   282e6:	7880      	ldrb	r0, [r0, #2]
   282e8:	7098      	strb	r0, [r3, #2]
   282ea:	9908      	ldr	r1, [sp, #32]
   282ec:	0e08      	lsrs	r0, r1, #24
   282ee:	9d0a      	ldr	r5, [sp, #40]	@ 0x28
   282f0:	71a8      	strb	r0, [r5, #6]
   282f2:	0c08      	lsrs	r0, r1, #16
   282f4:	7168      	strb	r0, [r5, #5]
   282f6:	0a08      	lsrs	r0, r1, #8
   282f8:	7128      	strb	r0, [r5, #4]
   282fa:	70e9      	strb	r1, [r5, #3]
   282fc:	1de8      	adds	r0, r5, #7
   282fe:	222b      	movs	r2, #43	@ 0x2b
   28300:	990b      	ldr	r1, [sp, #44]	@ 0x2c
   28302:	f002 f939 	bl	2a578 <__aeabi_memcpy>
   28306:	4e05      	ldr	r6, [pc, #20]	@ (2831c <_start+0x1280>)
   28308:	446e      	add	r6, sp
   2830a:	4630      	mov	r0, r6
   2830c:	4629      	mov	r1, r5
   2830e:	f7f8 fd55 	bl	20dbc <_ZN20complex_dynamic_type3app17h189b413d8d5e6a8fE>
   28312:	7830      	ldrb	r0, [r6, #0]
   28314:	2801      	cmp	r0, #1
   28316:	d105      	bne.n	28324 <_start+0x1288>
   28318:	f001 ff4e 	bl	2a1b8 <_start+0x311c>
   2831c:	00001404 	.word	0x00001404
   28320:	000013a8 	.word	0x000013a8
   28324:	481a      	ldr	r0, [pc, #104]	@ (28390 <_start+0x12f4>)
   28326:	4468      	add	r0, sp
   28328:	78c1      	ldrb	r1, [r0, #3]
   2832a:	abff      	add	r3, sp, #1020	@ 0x3fc
   2832c:	3390      	adds	r3, #144	@ 0x90
   2832e:	930a      	str	r3, [sp, #40]	@ 0x28
   28330:	7099      	strb	r1, [r3, #2]
   28332:	7841      	ldrb	r1, [r0, #1]
   28334:	7882      	ldrb	r2, [r0, #2]
   28336:	0212      	lsls	r2, r2, #8
   28338:	1851      	adds	r1, r2, r1
   2833a:	8019      	strh	r1, [r3, #0]
   2833c:	3008      	adds	r0, #8
   2833e:	9909      	ldr	r1, [sp, #36]	@ 0x24
   28340:	6e09      	ldr	r1, [r1, #96]	@ 0x60
   28342:	9108      	str	r1, [sp, #32]
   28344:	4b13      	ldr	r3, [pc, #76]	@ (28394 <_start+0x12f8>)
   28346:	446b      	add	r3, sp
   28348:	930b      	str	r3, [sp, #44]	@ 0x2c
   2834a:	c846      	ldmia	r0!, {r1, r2, r6}
   2834c:	c346      	stmia	r3!, {r1, r2, r6}
   2834e:	c846      	ldmia	r0!, {r1, r2, r6}
   28350:	c346      	stmia	r3!, {r1, r2, r6}
   28352:	c866      	ldmia	r0!, {r1, r2, r5, r6}
   28354:	c366      	stmia	r3!, {r1, r2, r5, r6}
   28356:	8801      	ldrh	r1, [r0, #0]
   28358:	8019      	strh	r1, [r3, #0]
   2835a:	7880      	ldrb	r0, [r0, #2]
   2835c:	7098      	strb	r0, [r3, #2]
   2835e:	9908      	ldr	r1, [sp, #32]
   28360:	0e08      	lsrs	r0, r1, #24
   28362:	9d0a      	ldr	r5, [sp, #40]	@ 0x28
   28364:	71a8      	strb	r0, [r5, #6]
   28366:	0c08      	lsrs	r0, r1, #16
   28368:	7168      	strb	r0, [r5, #5]
   2836a:	0a08      	lsrs	r0, r1, #8
   2836c:	7128      	strb	r0, [r5, #4]
   2836e:	70e9      	strb	r1, [r5, #3]
   28370:	1de8      	adds	r0, r5, #7
   28372:	222b      	movs	r2, #43	@ 0x2b
   28374:	990b      	ldr	r1, [sp, #44]	@ 0x2c
   28376:	f002 f8ff 	bl	2a578 <__aeabi_memcpy>
   2837a:	4e05      	ldr	r6, [pc, #20]	@ (28390 <_start+0x12f4>)
   2837c:	446e      	add	r6, sp
   2837e:	4630      	mov	r0, r6
   28380:	4629      	mov	r1, r5
   28382:	f7fb fec7 	bl	24114 <_ZN20complex_dynamic_type3app17h9ea77b395fcf7f91E>
   28386:	7830      	ldrb	r0, [r6, #0]
   28388:	2801      	cmp	r0, #1
   2838a:	d105      	bne.n	28398 <_start+0x12fc>
   2838c:	f001 ff14 	bl	2a1b8 <_start+0x311c>
   28390:	00001404 	.word	0x00001404
   28394:	000013a8 	.word	0x000013a8
   28398:	4815      	ldr	r0, [pc, #84]	@ (283f0 <_start+0x1354>)
   2839a:	4468      	add	r0, sp
   2839c:	78c1      	ldrb	r1, [r0, #3]
   2839e:	adff      	add	r5, sp, #1020	@ 0x3fc
   283a0:	35c4      	adds	r5, #196	@ 0xc4
   283a2:	70a9      	strb	r1, [r5, #2]
   283a4:	7841      	ldrb	r1, [r0, #1]
   283a6:	7882      	ldrb	r2, [r0, #2]
   283a8:	0212      	lsls	r2, r2, #8
   283aa:	1851      	adds	r1, r2, r1
   283ac:	8029      	strh	r1, [r5, #0]
   283ae:	3008      	adds	r0, #8
   283b0:	9909      	ldr	r1, [sp, #36]	@ 0x24
   283b2:	6e09      	ldr	r1, [r1, #96]	@ 0x60
   283b4:	4b0f      	ldr	r3, [pc, #60]	@ (283f4 <_start+0x1358>)
   283b6:	446b      	add	r3, sp
   283b8:	930b      	str	r3, [sp, #44]	@ 0x2c
   283ba:	c844      	ldmia	r0!, {r2, r6}
   283bc:	c344      	stmia	r3!, {r2, r6}
   283be:	7800      	ldrb	r0, [r0, #0]
   283c0:	7018      	strb	r0, [r3, #0]
   283c2:	0e08      	lsrs	r0, r1, #24
   283c4:	71a8      	strb	r0, [r5, #6]
   283c6:	0c08      	lsrs	r0, r1, #16
   283c8:	7168      	strb	r0, [r5, #5]
   283ca:	0a08      	lsrs	r0, r1, #8
   283cc:	7128      	strb	r0, [r5, #4]
   283ce:	70e9      	strb	r1, [r5, #3]
   283d0:	1de8      	adds	r0, r5, #7
   283d2:	2209      	movs	r2, #9
   283d4:	990b      	ldr	r1, [sp, #44]	@ 0x2c
   283d6:	f002 f8cf 	bl	2a578 <__aeabi_memcpy>
   283da:	4e05      	ldr	r6, [pc, #20]	@ (283f0 <_start+0x1354>)
   283dc:	446e      	add	r6, sp
   283de:	4630      	mov	r0, r6
   283e0:	4629      	mov	r1, r5
   283e2:	f7fa f9bb 	bl	2275c <_ZN20complex_dynamic_type3app17h5ab4f235b6fe3ef3E>
   283e6:	7830      	ldrb	r0, [r6, #0]
   283e8:	2801      	cmp	r0, #1
   283ea:	d105      	bne.n	283f8 <_start+0x135c>
   283ec:	f001 fee4 	bl	2a1b8 <_start+0x311c>
   283f0:	00001404 	.word	0x00001404
   283f4:	000013a8 	.word	0x000013a8
   283f8:	481a      	ldr	r0, [pc, #104]	@ (28464 <_start+0x13c8>)
   283fa:	4468      	add	r0, sp
   283fc:	78c1      	ldrb	r1, [r0, #3]
   283fe:	abff      	add	r3, sp, #1020	@ 0x3fc
   28400:	33d4      	adds	r3, #212	@ 0xd4
   28402:	930a      	str	r3, [sp, #40]	@ 0x28
   28404:	7099      	strb	r1, [r3, #2]
   28406:	7841      	ldrb	r1, [r0, #1]
   28408:	7882      	ldrb	r2, [r0, #2]
   2840a:	0212      	lsls	r2, r2, #8
   2840c:	1851      	adds	r1, r2, r1
   2840e:	8019      	strh	r1, [r3, #0]
   28410:	3008      	adds	r0, #8
   28412:	9909      	ldr	r1, [sp, #36]	@ 0x24
   28414:	6e09      	ldr	r1, [r1, #96]	@ 0x60
   28416:	9108      	str	r1, [sp, #32]
   28418:	4b13      	ldr	r3, [pc, #76]	@ (28468 <_start+0x13cc>)
   2841a:	446b      	add	r3, sp
   2841c:	930b      	str	r3, [sp, #44]	@ 0x2c
   2841e:	c846      	ldmia	r0!, {r1, r2, r6}
   28420:	c346      	stmia	r3!, {r1, r2, r6}
   28422:	c866      	ldmia	r0!, {r1, r2, r5, r6}
   28424:	c366      	stmia	r3!, {r1, r2, r5, r6}
   28426:	c866      	ldmia	r0!, {r1, r2, r5, r6}
   28428:	c366      	stmia	r3!, {r1, r2, r5, r6}
   2842a:	8801      	ldrh	r1, [r0, #0]
   2842c:	8019      	strh	r1, [r3, #0]
   2842e:	7880      	ldrb	r0, [r0, #2]
   28430:	7098      	strb	r0, [r3, #2]
   28432:	9908      	ldr	r1, [sp, #32]
   28434:	0e08      	lsrs	r0, r1, #24
   28436:	9d0a      	ldr	r5, [sp, #40]	@ 0x28
   28438:	71a8      	strb	r0, [r5, #6]
   2843a:	0c08      	lsrs	r0, r1, #16
   2843c:	7168      	strb	r0, [r5, #5]
   2843e:	0a08      	lsrs	r0, r1, #8
   28440:	7128      	strb	r0, [r5, #4]
   28442:	70e9      	strb	r1, [r5, #3]
   28444:	1de8      	adds	r0, r5, #7
   28446:	222f      	movs	r2, #47	@ 0x2f
   28448:	990b      	ldr	r1, [sp, #44]	@ 0x2c
   2844a:	f002 f895 	bl	2a578 <__aeabi_memcpy>
   2844e:	4e05      	ldr	r6, [pc, #20]	@ (28464 <_start+0x13c8>)
   28450:	446e      	add	r6, sp
   28452:	4630      	mov	r0, r6
   28454:	4629      	mov	r1, r5
   28456:	f7fd ffaf 	bl	263b8 <_ZN20complex_dynamic_type3app17he8fbff4d62a556edE>
   2845a:	7830      	ldrb	r0, [r6, #0]
   2845c:	2801      	cmp	r0, #1
   2845e:	d105      	bne.n	2846c <_start+0x13d0>
   28460:	f001 feaa 	bl	2a1b8 <_start+0x311c>
   28464:	00001404 	.word	0x00001404
   28468:	000013a8 	.word	0x000013a8
   2846c:	9802      	ldr	r0, [sp, #8]
   2846e:	1cc0      	adds	r0, r0, #3
   28470:	4a16      	ldr	r2, [pc, #88]	@ (284cc <_start+0x1430>)
   28472:	446a      	add	r2, sp
   28474:	78d3      	ldrb	r3, [r2, #3]
   28476:	4916      	ldr	r1, [pc, #88]	@ (284d0 <_start+0x1434>)
   28478:	4469      	add	r1, sp
   2847a:	708b      	strb	r3, [r1, #2]
   2847c:	7853      	ldrb	r3, [r2, #1]
   2847e:	7892      	ldrb	r2, [r2, #2]
   28480:	0212      	lsls	r2, r2, #8
   28482:	18d2      	adds	r2, r2, r3
   28484:	800a      	strh	r2, [r1, #0]
   28486:	9d09      	ldr	r5, [sp, #36]	@ 0x24
   28488:	3560      	adds	r5, #96	@ 0x60
   2848a:	cd2c      	ldmia	r5, {r2, r3, r5}
   2848c:	0e2e      	lsrs	r6, r5, #24
   2848e:	72c6      	strb	r6, [r0, #11]
   28490:	0c2e      	lsrs	r6, r5, #16
   28492:	7286      	strb	r6, [r0, #10]
   28494:	0a2e      	lsrs	r6, r5, #8
   28496:	7246      	strb	r6, [r0, #9]
   28498:	7205      	strb	r5, [r0, #8]
   2849a:	0e1d      	lsrs	r5, r3, #24
   2849c:	71c5      	strb	r5, [r0, #7]
   2849e:	0c1d      	lsrs	r5, r3, #16
   284a0:	7185      	strb	r5, [r0, #6]
   284a2:	0a1d      	lsrs	r5, r3, #8
   284a4:	7145      	strb	r5, [r0, #5]
   284a6:	7103      	strb	r3, [r0, #4]
   284a8:	0e13      	lsrs	r3, r2, #24
   284aa:	70c3      	strb	r3, [r0, #3]
   284ac:	0c13      	lsrs	r3, r2, #16
   284ae:	7083      	strb	r3, [r0, #2]
   284b0:	0a13      	lsrs	r3, r2, #8
   284b2:	7043      	strb	r3, [r0, #1]
   284b4:	7002      	strb	r2, [r0, #0]
   284b6:	4d05      	ldr	r5, [pc, #20]	@ (284cc <_start+0x1430>)
   284b8:	446d      	add	r5, sp
   284ba:	4628      	mov	r0, r5
   284bc:	f7fe fc2c 	bl	26d18 <_ZN20complex_dynamic_type3app17hfcdb46a3ea1d15deE>
   284c0:	7828      	ldrb	r0, [r5, #0]
   284c2:	2801      	cmp	r0, #1
   284c4:	d106      	bne.n	284d4 <_start+0x1438>
   284c6:	f001 fe77 	bl	2a1b8 <_start+0x311c>
   284ca:	46c0      	nop			@ (mov r8, r8)
   284cc:	00001404 	.word	0x00001404
   284d0:	00000508 	.word	0x00000508
   284d4:	4815      	ldr	r0, [pc, #84]	@ (2852c <_start+0x1490>)
   284d6:	4468      	add	r0, sp
   284d8:	78c1      	ldrb	r1, [r0, #3]
   284da:	4d15      	ldr	r5, [pc, #84]	@ (28530 <_start+0x1494>)
   284dc:	446d      	add	r5, sp
   284de:	70a9      	strb	r1, [r5, #2]
   284e0:	7841      	ldrb	r1, [r0, #1]
   284e2:	7882      	ldrb	r2, [r0, #2]
   284e4:	0212      	lsls	r2, r2, #8
   284e6:	1851      	adds	r1, r2, r1
   284e8:	8029      	strh	r1, [r5, #0]
   284ea:	3008      	adds	r0, #8
   284ec:	9909      	ldr	r1, [sp, #36]	@ 0x24
   284ee:	6e09      	ldr	r1, [r1, #96]	@ 0x60
   284f0:	910a      	str	r1, [sp, #40]	@ 0x28
   284f2:	4b10      	ldr	r3, [pc, #64]	@ (28534 <_start+0x1498>)
   284f4:	446b      	add	r3, sp
   284f6:	930b      	str	r3, [sp, #44]	@ 0x2c
   284f8:	c846      	ldmia	r0!, {r1, r2, r6}
   284fa:	c346      	stmia	r3!, {r1, r2, r6}
   284fc:	990a      	ldr	r1, [sp, #40]	@ 0x28
   284fe:	0e08      	lsrs	r0, r1, #24
   28500:	71a8      	strb	r0, [r5, #6]
   28502:	0c08      	lsrs	r0, r1, #16
   28504:	7168      	strb	r0, [r5, #5]
   28506:	0a08      	lsrs	r0, r1, #8
   28508:	7128      	strb	r0, [r5, #4]
   2850a:	70e9      	strb	r1, [r5, #3]
   2850c:	1de8      	adds	r0, r5, #7
   2850e:	220c      	movs	r2, #12
   28510:	990b      	ldr	r1, [sp, #44]	@ 0x2c
   28512:	f002 f831 	bl	2a578 <__aeabi_memcpy>
   28516:	4e05      	ldr	r6, [pc, #20]	@ (2852c <_start+0x1490>)
   28518:	446e      	add	r6, sp
   2851a:	4630      	mov	r0, r6
   2851c:	4629      	mov	r1, r5
   2851e:	f7f9 f86b 	bl	215f8 <_ZN20complex_dynamic_type3app17h2661e0835ac31b7bE>
   28522:	7830      	ldrb	r0, [r6, #0]
   28524:	2801      	cmp	r0, #1
   28526:	d107      	bne.n	28538 <_start+0x149c>
   28528:	f001 fe46 	bl	2a1b8 <_start+0x311c>
   2852c:	00001404 	.word	0x00001404
   28530:	00000518 	.word	0x00000518
   28534:	000013a8 	.word	0x000013a8
   28538:	4915      	ldr	r1, [pc, #84]	@ (28590 <_start+0x14f4>)
   2853a:	4469      	add	r1, sp
   2853c:	78c8      	ldrb	r0, [r1, #3]
   2853e:	4d15      	ldr	r5, [pc, #84]	@ (28594 <_start+0x14f8>)
   28540:	446d      	add	r5, sp
   28542:	70a8      	strb	r0, [r5, #2]
   28544:	7848      	ldrb	r0, [r1, #1]
   28546:	788a      	ldrb	r2, [r1, #2]
   28548:	0212      	lsls	r2, r2, #8
   2854a:	1810      	adds	r0, r2, r0
   2854c:	8028      	strh	r0, [r5, #0]
   2854e:	9809      	ldr	r0, [sp, #36]	@ 0x24
   28550:	6e06      	ldr	r6, [r0, #96]	@ 0x60
   28552:	3108      	adds	r1, #8
   28554:	4810      	ldr	r0, [pc, #64]	@ (28598 <_start+0x14fc>)
   28556:	4468      	add	r0, sp
   28558:	900b      	str	r0, [sp, #44]	@ 0x2c
   2855a:	224e      	movs	r2, #78	@ 0x4e
   2855c:	920a      	str	r2, [sp, #40]	@ 0x28
   2855e:	f001 feab 	bl	2a2b8 <__aeabi_memcpy4>
   28562:	0e30      	lsrs	r0, r6, #24
   28564:	71a8      	strb	r0, [r5, #6]
   28566:	0c30      	lsrs	r0, r6, #16
   28568:	7168      	strb	r0, [r5, #5]
   2856a:	0a30      	lsrs	r0, r6, #8
   2856c:	7128      	strb	r0, [r5, #4]
   2856e:	70ee      	strb	r6, [r5, #3]
   28570:	1de8      	adds	r0, r5, #7
   28572:	990b      	ldr	r1, [sp, #44]	@ 0x2c
   28574:	9a0a      	ldr	r2, [sp, #40]	@ 0x28
   28576:	f001 ffff 	bl	2a578 <__aeabi_memcpy>
   2857a:	4e05      	ldr	r6, [pc, #20]	@ (28590 <_start+0x14f4>)
   2857c:	446e      	add	r6, sp
   2857e:	4630      	mov	r0, r6
   28580:	4629      	mov	r1, r5
   28582:	f7fc fefd 	bl	25380 <_ZN20complex_dynamic_type3app17hc921413f7e8a3334E>
   28586:	7830      	ldrb	r0, [r6, #0]
   28588:	2801      	cmp	r0, #1
   2858a:	d107      	bne.n	2859c <_start+0x1500>
   2858c:	f001 fe14 	bl	2a1b8 <_start+0x311c>
   28590:	00001404 	.word	0x00001404
   28594:	0000052c 	.word	0x0000052c
   28598:	000013a8 	.word	0x000013a8
   2859c:	481a      	ldr	r0, [pc, #104]	@ (28608 <_start+0x156c>)
   2859e:	4468      	add	r0, sp
   285a0:	78c1      	ldrb	r1, [r0, #3]
   285a2:	4b1a      	ldr	r3, [pc, #104]	@ (2860c <_start+0x1570>)
   285a4:	446b      	add	r3, sp
   285a6:	930a      	str	r3, [sp, #40]	@ 0x28
   285a8:	7099      	strb	r1, [r3, #2]
   285aa:	7841      	ldrb	r1, [r0, #1]
   285ac:	7882      	ldrb	r2, [r0, #2]
   285ae:	0212      	lsls	r2, r2, #8
   285b0:	1851      	adds	r1, r2, r1
   285b2:	8019      	strh	r1, [r3, #0]
   285b4:	3008      	adds	r0, #8
   285b6:	9909      	ldr	r1, [sp, #36]	@ 0x24
   285b8:	6e09      	ldr	r1, [r1, #96]	@ 0x60
   285ba:	9108      	str	r1, [sp, #32]
   285bc:	4b14      	ldr	r3, [pc, #80]	@ (28610 <_start+0x1574>)
   285be:	446b      	add	r3, sp
   285c0:	930b      	str	r3, [sp, #44]	@ 0x2c
   285c2:	c846      	ldmia	r0!, {r1, r2, r6}
   285c4:	c346      	stmia	r3!, {r1, r2, r6}
   285c6:	c846      	ldmia	r0!, {r1, r2, r6}
   285c8:	c346      	stmia	r3!, {r1, r2, r6}
   285ca:	c866      	ldmia	r0!, {r1, r2, r5, r6}
   285cc:	c366      	stmia	r3!, {r1, r2, r5, r6}
   285ce:	8801      	ldrh	r1, [r0, #0]
   285d0:	8019      	strh	r1, [r3, #0]
   285d2:	7880      	ldrb	r0, [r0, #2]
   285d4:	7098      	strb	r0, [r3, #2]
   285d6:	9908      	ldr	r1, [sp, #32]
   285d8:	0e08      	lsrs	r0, r1, #24
   285da:	9d0a      	ldr	r5, [sp, #40]	@ 0x28
   285dc:	71a8      	strb	r0, [r5, #6]
   285de:	0c08      	lsrs	r0, r1, #16
   285e0:	7168      	strb	r0, [r5, #5]
   285e2:	0a08      	lsrs	r0, r1, #8
   285e4:	7128      	strb	r0, [r5, #4]
   285e6:	70e9      	strb	r1, [r5, #3]
   285e8:	1de8      	adds	r0, r5, #7
   285ea:	222b      	movs	r2, #43	@ 0x2b
   285ec:	990b      	ldr	r1, [sp, #44]	@ 0x2c
   285ee:	f001 ffc3 	bl	2a578 <__aeabi_memcpy>
   285f2:	4e05      	ldr	r6, [pc, #20]	@ (28608 <_start+0x156c>)
   285f4:	446e      	add	r6, sp
   285f6:	4630      	mov	r0, r6
   285f8:	4629      	mov	r1, r5
   285fa:	f7f8 fc77 	bl	20eec <_ZN20complex_dynamic_type3app17h18ef73b3462341c0E>
   285fe:	7830      	ldrb	r0, [r6, #0]
   28600:	2801      	cmp	r0, #1
   28602:	d107      	bne.n	28614 <_start+0x1578>
   28604:	f001 fdd8 	bl	2a1b8 <_start+0x311c>
   28608:	00001404 	.word	0x00001404
   2860c:	00000584 	.word	0x00000584
   28610:	000013a8 	.word	0x000013a8
   28614:	481a      	ldr	r0, [pc, #104]	@ (28680 <_start+0x15e4>)
   28616:	4468      	add	r0, sp
   28618:	78c1      	ldrb	r1, [r0, #3]
   2861a:	4b1a      	ldr	r3, [pc, #104]	@ (28684 <_start+0x15e8>)
   2861c:	446b      	add	r3, sp
   2861e:	930a      	str	r3, [sp, #40]	@ 0x28
   28620:	7099      	strb	r1, [r3, #2]
   28622:	7841      	ldrb	r1, [r0, #1]
   28624:	7882      	ldrb	r2, [r0, #2]
   28626:	0212      	lsls	r2, r2, #8
   28628:	1851      	adds	r1, r2, r1
   2862a:	8019      	strh	r1, [r3, #0]
   2862c:	3008      	adds	r0, #8
   2862e:	9909      	ldr	r1, [sp, #36]	@ 0x24
   28630:	6e09      	ldr	r1, [r1, #96]	@ 0x60
   28632:	9108      	str	r1, [sp, #32]
   28634:	4b14      	ldr	r3, [pc, #80]	@ (28688 <_start+0x15ec>)
   28636:	446b      	add	r3, sp
   28638:	930b      	str	r3, [sp, #44]	@ 0x2c
   2863a:	c846      	ldmia	r0!, {r1, r2, r6}
   2863c:	c346      	stmia	r3!, {r1, r2, r6}
   2863e:	c866      	ldmia	r0!, {r1, r2, r5, r6}
   28640:	c366      	stmia	r3!, {r1, r2, r5, r6}
   28642:	c826      	ldmia	r0!, {r1, r2, r5}
   28644:	c326      	stmia	r3!, {r1, r2, r5}
   28646:	c866      	ldmia	r0!, {r1, r2, r5, r6}
   28648:	c366      	stmia	r3!, {r1, r2, r5, r6}
   2864a:	8800      	ldrh	r0, [r0, #0]
   2864c:	8018      	strh	r0, [r3, #0]
   2864e:	9908      	ldr	r1, [sp, #32]
   28650:	0e08      	lsrs	r0, r1, #24
   28652:	9d0a      	ldr	r5, [sp, #40]	@ 0x28
   28654:	71a8      	strb	r0, [r5, #6]
   28656:	0c08      	lsrs	r0, r1, #16
   28658:	7168      	strb	r0, [r5, #5]
   2865a:	0a08      	lsrs	r0, r1, #8
   2865c:	7128      	strb	r0, [r5, #4]
   2865e:	70e9      	strb	r1, [r5, #3]
   28660:	1de8      	adds	r0, r5, #7
   28662:	223a      	movs	r2, #58	@ 0x3a
   28664:	990b      	ldr	r1, [sp, #44]	@ 0x2c
   28666:	f001 ff87 	bl	2a578 <__aeabi_memcpy>
   2866a:	4e05      	ldr	r6, [pc, #20]	@ (28680 <_start+0x15e4>)
   2866c:	446e      	add	r6, sp
   2866e:	4630      	mov	r0, r6
   28670:	4629      	mov	r1, r5
   28672:	f7f9 fd8d 	bl	22190 <_ZN20complex_dynamic_type3app17h446db9d26882cf23E>
   28676:	7830      	ldrb	r0, [r6, #0]
   28678:	2801      	cmp	r0, #1
   2867a:	d107      	bne.n	2868c <_start+0x15f0>
   2867c:	f001 fd9c 	bl	2a1b8 <_start+0x311c>
   28680:	00001404 	.word	0x00001404
   28684:	000005b8 	.word	0x000005b8
   28688:	000013a8 	.word	0x000013a8
   2868c:	4818      	ldr	r0, [pc, #96]	@ (286f0 <_start+0x1654>)
   2868e:	4468      	add	r0, sp
   28690:	78c1      	ldrb	r1, [r0, #3]
   28692:	4d18      	ldr	r5, [pc, #96]	@ (286f4 <_start+0x1658>)
   28694:	446d      	add	r5, sp
   28696:	70a9      	strb	r1, [r5, #2]
   28698:	7841      	ldrb	r1, [r0, #1]
   2869a:	7882      	ldrb	r2, [r0, #2]
   2869c:	0212      	lsls	r2, r2, #8
   2869e:	1851      	adds	r1, r2, r1
   286a0:	8029      	strh	r1, [r5, #0]
   286a2:	3008      	adds	r0, #8
   286a4:	9909      	ldr	r1, [sp, #36]	@ 0x24
   286a6:	6e09      	ldr	r1, [r1, #96]	@ 0x60
   286a8:	910a      	str	r1, [sp, #40]	@ 0x28
   286aa:	4b13      	ldr	r3, [pc, #76]	@ (286f8 <_start+0x165c>)
   286ac:	446b      	add	r3, sp
   286ae:	930b      	str	r3, [sp, #44]	@ 0x2c
   286b0:	c846      	ldmia	r0!, {r1, r2, r6}
   286b2:	c346      	stmia	r3!, {r1, r2, r6}
   286b4:	c846      	ldmia	r0!, {r1, r2, r6}
   286b6:	c346      	stmia	r3!, {r1, r2, r6}
   286b8:	8801      	ldrh	r1, [r0, #0]
   286ba:	8019      	strh	r1, [r3, #0]
   286bc:	7880      	ldrb	r0, [r0, #2]
   286be:	7098      	strb	r0, [r3, #2]
   286c0:	990a      	ldr	r1, [sp, #40]	@ 0x28
   286c2:	0e08      	lsrs	r0, r1, #24
   286c4:	71a8      	strb	r0, [r5, #6]
   286c6:	0c08      	lsrs	r0, r1, #16
   286c8:	7168      	strb	r0, [r5, #5]
   286ca:	0a08      	lsrs	r0, r1, #8
   286cc:	7128      	strb	r0, [r5, #4]
   286ce:	70e9      	strb	r1, [r5, #3]
   286d0:	1de8      	adds	r0, r5, #7
   286d2:	221b      	movs	r2, #27
   286d4:	990b      	ldr	r1, [sp, #44]	@ 0x2c
   286d6:	f001 ff4f 	bl	2a578 <__aeabi_memcpy>
   286da:	4e05      	ldr	r6, [pc, #20]	@ (286f0 <_start+0x1654>)
   286dc:	446e      	add	r6, sp
   286de:	4630      	mov	r0, r6
   286e0:	4629      	mov	r1, r5
   286e2:	f7fd f897 	bl	25814 <_ZN20complex_dynamic_type3app17hd1a1a94deea5691eE>
   286e6:	7830      	ldrb	r0, [r6, #0]
   286e8:	2801      	cmp	r0, #1
   286ea:	d107      	bne.n	286fc <_start+0x1660>
   286ec:	f001 fd64 	bl	2a1b8 <_start+0x311c>
   286f0:	00001404 	.word	0x00001404
   286f4:	000005fc 	.word	0x000005fc
   286f8:	000013a8 	.word	0x000013a8
   286fc:	4915      	ldr	r1, [pc, #84]	@ (28754 <_start+0x16b8>)
   286fe:	4469      	add	r1, sp
   28700:	78c8      	ldrb	r0, [r1, #3]
   28702:	4d15      	ldr	r5, [pc, #84]	@ (28758 <_start+0x16bc>)
   28704:	446d      	add	r5, sp
   28706:	70a8      	strb	r0, [r5, #2]
   28708:	7848      	ldrb	r0, [r1, #1]
   2870a:	788a      	ldrb	r2, [r1, #2]
   2870c:	0212      	lsls	r2, r2, #8
   2870e:	1810      	adds	r0, r2, r0
   28710:	8028      	strh	r0, [r5, #0]
   28712:	9809      	ldr	r0, [sp, #36]	@ 0x24
   28714:	6e06      	ldr	r6, [r0, #96]	@ 0x60
   28716:	3108      	adds	r1, #8
   28718:	4810      	ldr	r0, [pc, #64]	@ (2875c <_start+0x16c0>)
   2871a:	4468      	add	r0, sp
   2871c:	900b      	str	r0, [sp, #44]	@ 0x2c
   2871e:	224a      	movs	r2, #74	@ 0x4a
   28720:	920a      	str	r2, [sp, #40]	@ 0x28
   28722:	f001 fdc9 	bl	2a2b8 <__aeabi_memcpy4>
   28726:	0e30      	lsrs	r0, r6, #24
   28728:	71a8      	strb	r0, [r5, #6]
   2872a:	0c30      	lsrs	r0, r6, #16
   2872c:	7168      	strb	r0, [r5, #5]
   2872e:	0a30      	lsrs	r0, r6, #8
   28730:	7128      	strb	r0, [r5, #4]
   28732:	70ee      	strb	r6, [r5, #3]
   28734:	1de8      	adds	r0, r5, #7
   28736:	990b      	ldr	r1, [sp, #44]	@ 0x2c
   28738:	9a0a      	ldr	r2, [sp, #40]	@ 0x28
   2873a:	f001 ff1d 	bl	2a578 <__aeabi_memcpy>
   2873e:	4e05      	ldr	r6, [pc, #20]	@ (28754 <_start+0x16b8>)
   28740:	446e      	add	r6, sp
   28742:	4630      	mov	r0, r6
   28744:	4629      	mov	r1, r5
   28746:	f7f8 ffed 	bl	21724 <_ZN20complex_dynamic_type3app17h289e11000b1b4625E>
   2874a:	7830      	ldrb	r0, [r6, #0]
   2874c:	2801      	cmp	r0, #1
   2874e:	d107      	bne.n	28760 <_start+0x16c4>
   28750:	f001 fd32 	bl	2a1b8 <_start+0x311c>
   28754:	00001404 	.word	0x00001404
   28758:	00000620 	.word	0x00000620
   2875c:	000013a8 	.word	0x000013a8
   28760:	4915      	ldr	r1, [pc, #84]	@ (287b8 <_start+0x171c>)
   28762:	4469      	add	r1, sp
   28764:	78c8      	ldrb	r0, [r1, #3]
   28766:	4d15      	ldr	r5, [pc, #84]	@ (287bc <_start+0x1720>)
   28768:	446d      	add	r5, sp
   2876a:	70a8      	strb	r0, [r5, #2]
   2876c:	7848      	ldrb	r0, [r1, #1]
   2876e:	788a      	ldrb	r2, [r1, #2]
   28770:	0212      	lsls	r2, r2, #8
   28772:	1810      	adds	r0, r2, r0
   28774:	8028      	strh	r0, [r5, #0]
   28776:	9809      	ldr	r0, [sp, #36]	@ 0x24
   28778:	6e06      	ldr	r6, [r0, #96]	@ 0x60
   2877a:	3108      	adds	r1, #8
   2877c:	4810      	ldr	r0, [pc, #64]	@ (287c0 <_start+0x1724>)
   2877e:	4468      	add	r0, sp
   28780:	900b      	str	r0, [sp, #44]	@ 0x2c
   28782:	2248      	movs	r2, #72	@ 0x48
   28784:	920a      	str	r2, [sp, #40]	@ 0x28
   28786:	f001 fd97 	bl	2a2b8 <__aeabi_memcpy4>
   2878a:	0e30      	lsrs	r0, r6, #24
   2878c:	71a8      	strb	r0, [r5, #6]
   2878e:	0c30      	lsrs	r0, r6, #16
   28790:	7168      	strb	r0, [r5, #5]
   28792:	0a30      	lsrs	r0, r6, #8
   28794:	7128      	strb	r0, [r5, #4]
   28796:	70ee      	strb	r6, [r5, #3]
   28798:	1de8      	adds	r0, r5, #7
   2879a:	990b      	ldr	r1, [sp, #44]	@ 0x2c
   2879c:	9a0a      	ldr	r2, [sp, #40]	@ 0x28
   2879e:	f001 feeb 	bl	2a578 <__aeabi_memcpy>
   287a2:	4e05      	ldr	r6, [pc, #20]	@ (287b8 <_start+0x171c>)
   287a4:	446e      	add	r6, sp
   287a6:	4630      	mov	r0, r6
   287a8:	4629      	mov	r1, r5
   287aa:	f7fd fbab 	bl	25f04 <_ZN20complex_dynamic_type3app17he071a96d57b5e480E>
   287ae:	7830      	ldrb	r0, [r6, #0]
   287b0:	2801      	cmp	r0, #1
   287b2:	d107      	bne.n	287c4 <_start+0x1728>
   287b4:	f001 fd00 	bl	2a1b8 <_start+0x311c>
   287b8:	00001404 	.word	0x00001404
   287bc:	00000674 	.word	0x00000674
   287c0:	000013a8 	.word	0x000013a8
   287c4:	4819      	ldr	r0, [pc, #100]	@ (2882c <_start+0x1790>)
   287c6:	4468      	add	r0, sp
   287c8:	78c1      	ldrb	r1, [r0, #3]
   287ca:	4b19      	ldr	r3, [pc, #100]	@ (28830 <_start+0x1794>)
   287cc:	446b      	add	r3, sp
   287ce:	930a      	str	r3, [sp, #40]	@ 0x28
   287d0:	7099      	strb	r1, [r3, #2]
   287d2:	7841      	ldrb	r1, [r0, #1]
   287d4:	7882      	ldrb	r2, [r0, #2]
   287d6:	0212      	lsls	r2, r2, #8
   287d8:	1851      	adds	r1, r2, r1
   287da:	8019      	strh	r1, [r3, #0]
   287dc:	3008      	adds	r0, #8
   287de:	9909      	ldr	r1, [sp, #36]	@ 0x24
   287e0:	6e09      	ldr	r1, [r1, #96]	@ 0x60
   287e2:	9108      	str	r1, [sp, #32]
   287e4:	4b13      	ldr	r3, [pc, #76]	@ (28834 <_start+0x1798>)
   287e6:	446b      	add	r3, sp
   287e8:	930b      	str	r3, [sp, #44]	@ 0x2c
   287ea:	c846      	ldmia	r0!, {r1, r2, r6}
   287ec:	c346      	stmia	r3!, {r1, r2, r6}
   287ee:	c846      	ldmia	r0!, {r1, r2, r6}
   287f0:	c346      	stmia	r3!, {r1, r2, r6}
   287f2:	c846      	ldmia	r0!, {r1, r2, r6}
   287f4:	c346      	stmia	r3!, {r1, r2, r6}
   287f6:	c866      	ldmia	r0!, {r1, r2, r5, r6}
   287f8:	c366      	stmia	r3!, {r1, r2, r5, r6}
   287fa:	9908      	ldr	r1, [sp, #32]
   287fc:	0e08      	lsrs	r0, r1, #24
   287fe:	9d0a      	ldr	r5, [sp, #40]	@ 0x28
   28800:	71a8      	strb	r0, [r5, #6]
   28802:	0c08      	lsrs	r0, r1, #16
   28804:	7168      	strb	r0, [r5, #5]
   28806:	0a08      	lsrs	r0, r1, #8
   28808:	7128      	strb	r0, [r5, #4]
   2880a:	70e9      	strb	r1, [r5, #3]
   2880c:	1de8      	adds	r0, r5, #7
   2880e:	2234      	movs	r2, #52	@ 0x34
   28810:	990b      	ldr	r1, [sp, #44]	@ 0x2c
   28812:	f001 feb1 	bl	2a578 <__aeabi_memcpy>
   28816:	4e05      	ldr	r6, [pc, #20]	@ (2882c <_start+0x1790>)
   28818:	446e      	add	r6, sp
   2881a:	4630      	mov	r0, r6
   2881c:	4629      	mov	r1, r5
   2881e:	f7fa fb23 	bl	22e68 <_ZN20complex_dynamic_type3app17h69bbe10d882bdbe1E>
   28822:	7830      	ldrb	r0, [r6, #0]
   28824:	2801      	cmp	r0, #1
   28826:	d107      	bne.n	28838 <_start+0x179c>
   28828:	f001 fcc6 	bl	2a1b8 <_start+0x311c>
   2882c:	00001404 	.word	0x00001404
   28830:	000006c4 	.word	0x000006c4
   28834:	000013a8 	.word	0x000013a8
   28838:	4817      	ldr	r0, [pc, #92]	@ (28898 <_start+0x17fc>)
   2883a:	4468      	add	r0, sp
   2883c:	78c1      	ldrb	r1, [r0, #3]
   2883e:	4b17      	ldr	r3, [pc, #92]	@ (2889c <_start+0x1800>)
   28840:	446b      	add	r3, sp
   28842:	930a      	str	r3, [sp, #40]	@ 0x28
   28844:	7099      	strb	r1, [r3, #2]
   28846:	7841      	ldrb	r1, [r0, #1]
   28848:	7882      	ldrb	r2, [r0, #2]
   2884a:	0212      	lsls	r2, r2, #8
   2884c:	1851      	adds	r1, r2, r1
   2884e:	8019      	strh	r1, [r3, #0]
   28850:	3008      	adds	r0, #8
   28852:	9909      	ldr	r1, [sp, #36]	@ 0x24
   28854:	6e09      	ldr	r1, [r1, #96]	@ 0x60
   28856:	9108      	str	r1, [sp, #32]
   28858:	4b11      	ldr	r3, [pc, #68]	@ (288a0 <_start+0x1804>)
   2885a:	446b      	add	r3, sp
   2885c:	930b      	str	r3, [sp, #44]	@ 0x2c
   2885e:	c866      	ldmia	r0!, {r1, r2, r5, r6}
   28860:	c366      	stmia	r3!, {r1, r2, r5, r6}
   28862:	c866      	ldmia	r0!, {r1, r2, r5, r6}
   28864:	c366      	stmia	r3!, {r1, r2, r5, r6}
   28866:	9908      	ldr	r1, [sp, #32]
   28868:	0e08      	lsrs	r0, r1, #24
   2886a:	9d0a      	ldr	r5, [sp, #40]	@ 0x28
   2886c:	71a8      	strb	r0, [r5, #6]
   2886e:	0c08      	lsrs	r0, r1, #16
   28870:	7168      	strb	r0, [r5, #5]
   28872:	0a08      	lsrs	r0, r1, #8
   28874:	7128      	strb	r0, [r5, #4]
   28876:	70e9      	strb	r1, [r5, #3]
   28878:	1de8      	adds	r0, r5, #7
   2887a:	2220      	movs	r2, #32
   2887c:	990b      	ldr	r1, [sp, #44]	@ 0x2c
   2887e:	f001 fe7b 	bl	2a578 <__aeabi_memcpy>
   28882:	4e05      	ldr	r6, [pc, #20]	@ (28898 <_start+0x17fc>)
   28884:	446e      	add	r6, sp
   28886:	4630      	mov	r0, r6
   28888:	4629      	mov	r1, r5
   2888a:	f7f8 fa01 	bl	20c90 <_ZN20complex_dynamic_type3app17h177c4157ead0f878E>
   2888e:	7830      	ldrb	r0, [r6, #0]
   28890:	2801      	cmp	r0, #1
   28892:	d107      	bne.n	288a4 <_start+0x1808>
   28894:	f001 fc90 	bl	2a1b8 <_start+0x311c>
   28898:	00001404 	.word	0x00001404
   2889c:	00000700 	.word	0x00000700
   288a0:	000013a8 	.word	0x000013a8
   288a4:	4816      	ldr	r0, [pc, #88]	@ (28900 <_start+0x1864>)
   288a6:	4468      	add	r0, sp
   288a8:	78c1      	ldrb	r1, [r0, #3]
   288aa:	4d16      	ldr	r5, [pc, #88]	@ (28904 <_start+0x1868>)
   288ac:	446d      	add	r5, sp
   288ae:	70a9      	strb	r1, [r5, #2]
   288b0:	7841      	ldrb	r1, [r0, #1]
   288b2:	7882      	ldrb	r2, [r0, #2]
   288b4:	0212      	lsls	r2, r2, #8
   288b6:	1851      	adds	r1, r2, r1
   288b8:	8029      	strh	r1, [r5, #0]
   288ba:	3008      	adds	r0, #8
   288bc:	9909      	ldr	r1, [sp, #36]	@ 0x24
   288be:	6e09      	ldr	r1, [r1, #96]	@ 0x60
   288c0:	910a      	str	r1, [sp, #40]	@ 0x28
   288c2:	4b11      	ldr	r3, [pc, #68]	@ (28908 <_start+0x186c>)
   288c4:	446b      	add	r3, sp
   288c6:	930b      	str	r3, [sp, #44]	@ 0x2c
   288c8:	c846      	ldmia	r0!, {r1, r2, r6}
   288ca:	c346      	stmia	r3!, {r1, r2, r6}
   288cc:	7800      	ldrb	r0, [r0, #0]
   288ce:	7018      	strb	r0, [r3, #0]
   288d0:	990a      	ldr	r1, [sp, #40]	@ 0x28
   288d2:	0e08      	lsrs	r0, r1, #24
   288d4:	71a8      	strb	r0, [r5, #6]
   288d6:	0c08      	lsrs	r0, r1, #16
   288d8:	7168      	strb	r0, [r5, #5]
   288da:	0a08      	lsrs	r0, r1, #8
   288dc:	7128      	strb	r0, [r5, #4]
   288de:	70e9      	strb	r1, [r5, #3]
   288e0:	1de8      	adds	r0, r5, #7
   288e2:	220d      	movs	r2, #13
   288e4:	990b      	ldr	r1, [sp, #44]	@ 0x2c
   288e6:	f001 fe47 	bl	2a578 <__aeabi_memcpy>
   288ea:	4e05      	ldr	r6, [pc, #20]	@ (28900 <_start+0x1864>)
   288ec:	446e      	add	r6, sp
   288ee:	4630      	mov	r0, r6
   288f0:	4629      	mov	r1, r5
   288f2:	f7f8 fd57 	bl	213a4 <_ZN20complex_dynamic_type3app17h2224b8b4c3262f87E>
   288f6:	7830      	ldrb	r0, [r6, #0]
   288f8:	2801      	cmp	r0, #1
   288fa:	d107      	bne.n	2890c <_start+0x1870>
   288fc:	f001 fc5c 	bl	2a1b8 <_start+0x311c>
   28900:	00001404 	.word	0x00001404
   28904:	00000728 	.word	0x00000728
   28908:	000013a8 	.word	0x000013a8
   2890c:	4817      	ldr	r0, [pc, #92]	@ (2896c <_start+0x18d0>)
   2890e:	4468      	add	r0, sp
   28910:	78c1      	ldrb	r1, [r0, #3]
   28912:	4d17      	ldr	r5, [pc, #92]	@ (28970 <_start+0x18d4>)
   28914:	446d      	add	r5, sp
   28916:	70a9      	strb	r1, [r5, #2]
   28918:	7841      	ldrb	r1, [r0, #1]
   2891a:	7882      	ldrb	r2, [r0, #2]
   2891c:	0212      	lsls	r2, r2, #8
   2891e:	1851      	adds	r1, r2, r1
   28920:	8029      	strh	r1, [r5, #0]
   28922:	3008      	adds	r0, #8
   28924:	9909      	ldr	r1, [sp, #36]	@ 0x24
   28926:	6e09      	ldr	r1, [r1, #96]	@ 0x60
   28928:	910a      	str	r1, [sp, #40]	@ 0x28
   2892a:	4b12      	ldr	r3, [pc, #72]	@ (28974 <_start+0x18d8>)
   2892c:	446b      	add	r3, sp
   2892e:	930b      	str	r3, [sp, #44]	@ 0x2c
   28930:	c846      	ldmia	r0!, {r1, r2, r6}
   28932:	c346      	stmia	r3!, {r1, r2, r6}
   28934:	c846      	ldmia	r0!, {r1, r2, r6}
   28936:	c346      	stmia	r3!, {r1, r2, r6}
   28938:	c846      	ldmia	r0!, {r1, r2, r6}
   2893a:	c346      	stmia	r3!, {r1, r2, r6}
   2893c:	990a      	ldr	r1, [sp, #40]	@ 0x28
   2893e:	0e08      	lsrs	r0, r1, #24
   28940:	71a8      	strb	r0, [r5, #6]
   28942:	0c08      	lsrs	r0, r1, #16
   28944:	7168      	strb	r0, [r5, #5]
   28946:	0a08      	lsrs	r0, r1, #8
   28948:	7128      	strb	r0, [r5, #4]
   2894a:	70e9      	strb	r1, [r5, #3]
   2894c:	1de8      	adds	r0, r5, #7
   2894e:	2224      	movs	r2, #36	@ 0x24
   28950:	990b      	ldr	r1, [sp, #44]	@ 0x2c
   28952:	f001 fe11 	bl	2a578 <__aeabi_memcpy>
   28956:	4e05      	ldr	r6, [pc, #20]	@ (2896c <_start+0x18d0>)
   28958:	446e      	add	r6, sp
   2895a:	4630      	mov	r0, r6
   2895c:	4629      	mov	r1, r5
   2895e:	f7fc fc79 	bl	25254 <_ZN20complex_dynamic_type3app17hc87090a081f40053E>
   28962:	7830      	ldrb	r0, [r6, #0]
   28964:	2801      	cmp	r0, #1
   28966:	d107      	bne.n	28978 <_start+0x18dc>
   28968:	f001 fc26 	bl	2a1b8 <_start+0x311c>
   2896c:	00001404 	.word	0x00001404
   28970:	0000073c 	.word	0x0000073c
   28974:	000013a8 	.word	0x000013a8
   28978:	4818      	ldr	r0, [pc, #96]	@ (289dc <_start+0x1940>)
   2897a:	4468      	add	r0, sp
   2897c:	78c1      	ldrb	r1, [r0, #3]
   2897e:	4d18      	ldr	r5, [pc, #96]	@ (289e0 <_start+0x1944>)
   28980:	446d      	add	r5, sp
   28982:	70a9      	strb	r1, [r5, #2]
   28984:	7841      	ldrb	r1, [r0, #1]
   28986:	7882      	ldrb	r2, [r0, #2]
   28988:	0212      	lsls	r2, r2, #8
   2898a:	1851      	adds	r1, r2, r1
   2898c:	8029      	strh	r1, [r5, #0]
   2898e:	3008      	adds	r0, #8
   28990:	9909      	ldr	r1, [sp, #36]	@ 0x24
   28992:	6e09      	ldr	r1, [r1, #96]	@ 0x60
   28994:	910a      	str	r1, [sp, #40]	@ 0x28
   28996:	4b13      	ldr	r3, [pc, #76]	@ (289e4 <_start+0x1948>)
   28998:	446b      	add	r3, sp
   2899a:	930b      	str	r3, [sp, #44]	@ 0x2c
   2899c:	c844      	ldmia	r0!, {r2, r6}
   2899e:	c344      	stmia	r3!, {r2, r6}
   289a0:	c846      	ldmia	r0!, {r1, r2, r6}
   289a2:	c346      	stmia	r3!, {r1, r2, r6}
   289a4:	8801      	ldrh	r1, [r0, #0]
   289a6:	8019      	strh	r1, [r3, #0]
   289a8:	7880      	ldrb	r0, [r0, #2]
   289aa:	7098      	strb	r0, [r3, #2]
   289ac:	990a      	ldr	r1, [sp, #40]	@ 0x28
   289ae:	0e08      	lsrs	r0, r1, #24
   289b0:	71a8      	strb	r0, [r5, #6]
   289b2:	0c08      	lsrs	r0, r1, #16
   289b4:	7168      	strb	r0, [r5, #5]
   289b6:	0a08      	lsrs	r0, r1, #8
   289b8:	7128      	strb	r0, [r5, #4]
   289ba:	70e9      	strb	r1, [r5, #3]
   289bc:	1de8      	adds	r0, r5, #7
   289be:	2217      	movs	r2, #23
   289c0:	990b      	ldr	r1, [sp, #44]	@ 0x2c
   289c2:	f001 fdd9 	bl	2a578 <__aeabi_memcpy>
   289c6:	4e05      	ldr	r6, [pc, #20]	@ (289dc <_start+0x1940>)
   289c8:	446e      	add	r6, sp
   289ca:	4630      	mov	r0, r6
   289cc:	4629      	mov	r1, r5
   289ce:	f7fd ffdd 	bl	2698c <_ZN20complex_dynamic_type3app17hf14be92c05ff7282E>
   289d2:	7830      	ldrb	r0, [r6, #0]
   289d4:	2801      	cmp	r0, #1
   289d6:	d107      	bne.n	289e8 <_start+0x194c>
   289d8:	f001 fbee 	bl	2a1b8 <_start+0x311c>
   289dc:	00001404 	.word	0x00001404
   289e0:	00000768 	.word	0x00000768
   289e4:	000013a8 	.word	0x000013a8
   289e8:	4915      	ldr	r1, [pc, #84]	@ (28a40 <_start+0x19a4>)
   289ea:	4469      	add	r1, sp
   289ec:	78c8      	ldrb	r0, [r1, #3]
   289ee:	4d15      	ldr	r5, [pc, #84]	@ (28a44 <_start+0x19a8>)
   289f0:	446d      	add	r5, sp
   289f2:	70a8      	strb	r0, [r5, #2]
   289f4:	7848      	ldrb	r0, [r1, #1]
   289f6:	788a      	ldrb	r2, [r1, #2]
   289f8:	0212      	lsls	r2, r2, #8
   289fa:	1810      	adds	r0, r2, r0
   289fc:	8028      	strh	r0, [r5, #0]
   289fe:	9809      	ldr	r0, [sp, #36]	@ 0x24
   28a00:	6e06      	ldr	r6, [r0, #96]	@ 0x60
   28a02:	3108      	adds	r1, #8
   28a04:	4810      	ldr	r0, [pc, #64]	@ (28a48 <_start+0x19ac>)
   28a06:	4468      	add	r0, sp
   28a08:	900b      	str	r0, [sp, #44]	@ 0x2c
   28a0a:	224a      	movs	r2, #74	@ 0x4a
   28a0c:	920a      	str	r2, [sp, #40]	@ 0x28
   28a0e:	f001 fc53 	bl	2a2b8 <__aeabi_memcpy4>
   28a12:	0e30      	lsrs	r0, r6, #24
   28a14:	71a8      	strb	r0, [r5, #6]
   28a16:	0c30      	lsrs	r0, r6, #16
   28a18:	7168      	strb	r0, [r5, #5]
   28a1a:	0a30      	lsrs	r0, r6, #8
   28a1c:	7128      	strb	r0, [r5, #4]
   28a1e:	70ee      	strb	r6, [r5, #3]
   28a20:	1de8      	adds	r0, r5, #7
   28a22:	990b      	ldr	r1, [sp, #44]	@ 0x2c
   28a24:	9a0a      	ldr	r2, [sp, #40]	@ 0x28
   28a26:	f001 fda7 	bl	2a578 <__aeabi_memcpy>
   28a2a:	4e05      	ldr	r6, [pc, #20]	@ (28a40 <_start+0x19a4>)
   28a2c:	446e      	add	r6, sp
   28a2e:	4630      	mov	r0, r6
   28a30:	4629      	mov	r1, r5
   28a32:	f7fd ff17 	bl	26864 <_ZN20complex_dynamic_type3app17hf02017a81f6c8a98E>
   28a36:	7830      	ldrb	r0, [r6, #0]
   28a38:	2801      	cmp	r0, #1
   28a3a:	d107      	bne.n	28a4c <_start+0x19b0>
   28a3c:	f001 fbbc 	bl	2a1b8 <_start+0x311c>
   28a40:	00001404 	.word	0x00001404
   28a44:	00000788 	.word	0x00000788
   28a48:	000013a8 	.word	0x000013a8
   28a4c:	9803      	ldr	r0, [sp, #12]
   28a4e:	1cc0      	adds	r0, r0, #3
   28a50:	4a16      	ldr	r2, [pc, #88]	@ (28aac <_start+0x1a10>)
   28a52:	446a      	add	r2, sp
   28a54:	78d3      	ldrb	r3, [r2, #3]
   28a56:	4916      	ldr	r1, [pc, #88]	@ (28ab0 <_start+0x1a14>)
   28a58:	4469      	add	r1, sp
   28a5a:	708b      	strb	r3, [r1, #2]
   28a5c:	7853      	ldrb	r3, [r2, #1]
   28a5e:	7892      	ldrb	r2, [r2, #2]
   28a60:	0212      	lsls	r2, r2, #8
   28a62:	18d2      	adds	r2, r2, r3
   28a64:	800a      	strh	r2, [r1, #0]
   28a66:	9d09      	ldr	r5, [sp, #36]	@ 0x24
   28a68:	3560      	adds	r5, #96	@ 0x60
   28a6a:	cd2c      	ldmia	r5, {r2, r3, r5}
   28a6c:	0e2e      	lsrs	r6, r5, #24
   28a6e:	72c6      	strb	r6, [r0, #11]
   28a70:	0c2e      	lsrs	r6, r5, #16
   28a72:	7286      	strb	r6, [r0, #10]
   28a74:	0a2e      	lsrs	r6, r5, #8
   28a76:	7246      	strb	r6, [r0, #9]
   28a78:	7205      	strb	r5, [r0, #8]
   28a7a:	0e1d      	lsrs	r5, r3, #24
   28a7c:	71c5      	strb	r5, [r0, #7]
   28a7e:	0c1d      	lsrs	r5, r3, #16
   28a80:	7185      	strb	r5, [r0, #6]
   28a82:	0a1d      	lsrs	r5, r3, #8
   28a84:	7145      	strb	r5, [r0, #5]
   28a86:	7103      	strb	r3, [r0, #4]
   28a88:	0e13      	lsrs	r3, r2, #24
   28a8a:	70c3      	strb	r3, [r0, #3]
   28a8c:	0c13      	lsrs	r3, r2, #16
   28a8e:	7083      	strb	r3, [r0, #2]
   28a90:	0a13      	lsrs	r3, r2, #8
   28a92:	7043      	strb	r3, [r0, #1]
   28a94:	7002      	strb	r2, [r0, #0]
   28a96:	4d05      	ldr	r5, [pc, #20]	@ (28aac <_start+0x1a10>)
   28a98:	446d      	add	r5, sp
   28a9a:	4628      	mov	r0, r5
   28a9c:	f7fa fa78 	bl	22f90 <_ZN20complex_dynamic_type3app17h6ded9dc40c67fd0fE>
   28aa0:	7828      	ldrb	r0, [r5, #0]
   28aa2:	2801      	cmp	r0, #1
   28aa4:	d106      	bne.n	28ab4 <_start+0x1a18>
   28aa6:	f001 fb87 	bl	2a1b8 <_start+0x311c>
   28aaa:	46c0      	nop			@ (mov r8, r8)
   28aac:	00001404 	.word	0x00001404
   28ab0:	000007dc 	.word	0x000007dc
   28ab4:	481b      	ldr	r0, [pc, #108]	@ (28b24 <_start+0x1a88>)
   28ab6:	4468      	add	r0, sp
   28ab8:	78c1      	ldrb	r1, [r0, #3]
   28aba:	4b1b      	ldr	r3, [pc, #108]	@ (28b28 <_start+0x1a8c>)
   28abc:	446b      	add	r3, sp
   28abe:	930a      	str	r3, [sp, #40]	@ 0x28
   28ac0:	7099      	strb	r1, [r3, #2]
   28ac2:	7841      	ldrb	r1, [r0, #1]
   28ac4:	7882      	ldrb	r2, [r0, #2]
   28ac6:	0212      	lsls	r2, r2, #8
   28ac8:	1851      	adds	r1, r2, r1
   28aca:	8019      	strh	r1, [r3, #0]
   28acc:	3008      	adds	r0, #8
   28ace:	9909      	ldr	r1, [sp, #36]	@ 0x24
   28ad0:	6e09      	ldr	r1, [r1, #96]	@ 0x60
   28ad2:	9108      	str	r1, [sp, #32]
   28ad4:	4b15      	ldr	r3, [pc, #84]	@ (28b2c <_start+0x1a90>)
   28ad6:	446b      	add	r3, sp
   28ad8:	930b      	str	r3, [sp, #44]	@ 0x2c
   28ada:	c846      	ldmia	r0!, {r1, r2, r6}
   28adc:	c346      	stmia	r3!, {r1, r2, r6}
   28ade:	c866      	ldmia	r0!, {r1, r2, r5, r6}
   28ae0:	c366      	stmia	r3!, {r1, r2, r5, r6}
   28ae2:	c866      	ldmia	r0!, {r1, r2, r5, r6}
   28ae4:	c366      	stmia	r3!, {r1, r2, r5, r6}
   28ae6:	c866      	ldmia	r0!, {r1, r2, r5, r6}
   28ae8:	c366      	stmia	r3!, {r1, r2, r5, r6}
   28aea:	8801      	ldrh	r1, [r0, #0]
   28aec:	8019      	strh	r1, [r3, #0]
   28aee:	7880      	ldrb	r0, [r0, #2]
   28af0:	7098      	strb	r0, [r3, #2]
   28af2:	9908      	ldr	r1, [sp, #32]
   28af4:	0e08      	lsrs	r0, r1, #24
   28af6:	9d0a      	ldr	r5, [sp, #40]	@ 0x28
   28af8:	71a8      	strb	r0, [r5, #6]
   28afa:	0c08      	lsrs	r0, r1, #16
   28afc:	7168      	strb	r0, [r5, #5]
   28afe:	0a08      	lsrs	r0, r1, #8
   28b00:	7128      	strb	r0, [r5, #4]
   28b02:	70e9      	strb	r1, [r5, #3]
   28b04:	1de8      	adds	r0, r5, #7
   28b06:	223f      	movs	r2, #63	@ 0x3f
   28b08:	990b      	ldr	r1, [sp, #44]	@ 0x2c
   28b0a:	f001 fd35 	bl	2a578 <__aeabi_memcpy>
   28b0e:	4e05      	ldr	r6, [pc, #20]	@ (28b24 <_start+0x1a88>)
   28b10:	446e      	add	r6, sp
   28b12:	4630      	mov	r0, r6
   28b14:	4629      	mov	r1, r5
   28b16:	f7fc ff9d 	bl	25a54 <_ZN20complex_dynamic_type3app17hd5e6e0f431b1eaf3E>
   28b1a:	7830      	ldrb	r0, [r6, #0]
   28b1c:	2801      	cmp	r0, #1
   28b1e:	d107      	bne.n	28b30 <_start+0x1a94>
   28b20:	f001 fb4a 	bl	2a1b8 <_start+0x311c>
   28b24:	00001404 	.word	0x00001404
   28b28:	000007ec 	.word	0x000007ec
   28b2c:	000013a8 	.word	0x000013a8
   28b30:	4915      	ldr	r1, [pc, #84]	@ (28b88 <_start+0x1aec>)
   28b32:	4469      	add	r1, sp
   28b34:	78c8      	ldrb	r0, [r1, #3]
   28b36:	4d15      	ldr	r5, [pc, #84]	@ (28b8c <_start+0x1af0>)
   28b38:	446d      	add	r5, sp
   28b3a:	70a8      	strb	r0, [r5, #2]
   28b3c:	7848      	ldrb	r0, [r1, #1]
   28b3e:	788a      	ldrb	r2, [r1, #2]
   28b40:	0212      	lsls	r2, r2, #8
   28b42:	1810      	adds	r0, r2, r0
   28b44:	8028      	strh	r0, [r5, #0]
   28b46:	9809      	ldr	r0, [sp, #36]	@ 0x24
   28b48:	6e06      	ldr	r6, [r0, #96]	@ 0x60
   28b4a:	3108      	adds	r1, #8
   28b4c:	4810      	ldr	r0, [pc, #64]	@ (28b90 <_start+0x1af4>)
   28b4e:	4468      	add	r0, sp
   28b50:	900b      	str	r0, [sp, #44]	@ 0x2c
   28b52:	224f      	movs	r2, #79	@ 0x4f
   28b54:	920a      	str	r2, [sp, #40]	@ 0x28
   28b56:	f001 fbaf 	bl	2a2b8 <__aeabi_memcpy4>
   28b5a:	0e30      	lsrs	r0, r6, #24
   28b5c:	71a8      	strb	r0, [r5, #6]
   28b5e:	0c30      	lsrs	r0, r6, #16
   28b60:	7168      	strb	r0, [r5, #5]
   28b62:	0a30      	lsrs	r0, r6, #8
   28b64:	7128      	strb	r0, [r5, #4]
   28b66:	70ee      	strb	r6, [r5, #3]
   28b68:	1de8      	adds	r0, r5, #7
   28b6a:	990b      	ldr	r1, [sp, #44]	@ 0x2c
   28b6c:	9a0a      	ldr	r2, [sp, #40]	@ 0x28
   28b6e:	f001 fd03 	bl	2a578 <__aeabi_memcpy>
   28b72:	4e05      	ldr	r6, [pc, #20]	@ (28b88 <_start+0x1aec>)
   28b74:	446e      	add	r6, sp
   28b76:	4630      	mov	r0, r6
   28b78:	4629      	mov	r1, r5
   28b7a:	f7f7 fed1 	bl	20920 <_ZN20complex_dynamic_type3app17h1046d7c4b6d748afE>
   28b7e:	7830      	ldrb	r0, [r6, #0]
   28b80:	2801      	cmp	r0, #1
   28b82:	d107      	bne.n	28b94 <_start+0x1af8>
   28b84:	f001 fb18 	bl	2a1b8 <_start+0x311c>
   28b88:	00001404 	.word	0x00001404
   28b8c:	00000834 	.word	0x00000834
   28b90:	000013a8 	.word	0x000013a8
   28b94:	4915      	ldr	r1, [pc, #84]	@ (28bec <_start+0x1b50>)
   28b96:	4469      	add	r1, sp
   28b98:	78c8      	ldrb	r0, [r1, #3]
   28b9a:	4d15      	ldr	r5, [pc, #84]	@ (28bf0 <_start+0x1b54>)
   28b9c:	446d      	add	r5, sp
   28b9e:	70a8      	strb	r0, [r5, #2]
   28ba0:	7848      	ldrb	r0, [r1, #1]
   28ba2:	788a      	ldrb	r2, [r1, #2]
   28ba4:	0212      	lsls	r2, r2, #8
   28ba6:	1810      	adds	r0, r2, r0
   28ba8:	8028      	strh	r0, [r5, #0]
   28baa:	9809      	ldr	r0, [sp, #36]	@ 0x24
   28bac:	6e06      	ldr	r6, [r0, #96]	@ 0x60
   28bae:	3108      	adds	r1, #8
   28bb0:	4810      	ldr	r0, [pc, #64]	@ (28bf4 <_start+0x1b58>)
   28bb2:	4468      	add	r0, sp
   28bb4:	900b      	str	r0, [sp, #44]	@ 0x2c
   28bb6:	2242      	movs	r2, #66	@ 0x42
   28bb8:	920a      	str	r2, [sp, #40]	@ 0x28
   28bba:	f001 fb7d 	bl	2a2b8 <__aeabi_memcpy4>
   28bbe:	0e30      	lsrs	r0, r6, #24
   28bc0:	71a8      	strb	r0, [r5, #6]
   28bc2:	0c30      	lsrs	r0, r6, #16
   28bc4:	7168      	strb	r0, [r5, #5]
   28bc6:	0a30      	lsrs	r0, r6, #8
   28bc8:	7128      	strb	r0, [r5, #4]
   28bca:	70ee      	strb	r6, [r5, #3]
   28bcc:	1de8      	adds	r0, r5, #7
   28bce:	990b      	ldr	r1, [sp, #44]	@ 0x2c
   28bd0:	9a0a      	ldr	r2, [sp, #40]	@ 0x28
   28bd2:	f001 fcd1 	bl	2a578 <__aeabi_memcpy>
   28bd6:	4e05      	ldr	r6, [pc, #20]	@ (28bec <_start+0x1b50>)
   28bd8:	446e      	add	r6, sp
   28bda:	4630      	mov	r0, r6
   28bdc:	4629      	mov	r1, r5
   28bde:	f7fc fceb 	bl	255b8 <_ZN20complex_dynamic_type3app17hcacbe775e642b624E>
   28be2:	7830      	ldrb	r0, [r6, #0]
   28be4:	2801      	cmp	r0, #1
   28be6:	d107      	bne.n	28bf8 <_start+0x1b5c>
   28be8:	f001 fae6 	bl	2a1b8 <_start+0x311c>
   28bec:	00001404 	.word	0x00001404
   28bf0:	0000088c 	.word	0x0000088c
   28bf4:	000013a8 	.word	0x000013a8
   28bf8:	4817      	ldr	r0, [pc, #92]	@ (28c58 <_start+0x1bbc>)
   28bfa:	4468      	add	r0, sp
   28bfc:	78c1      	ldrb	r1, [r0, #3]
   28bfe:	4b17      	ldr	r3, [pc, #92]	@ (28c5c <_start+0x1bc0>)
   28c00:	446b      	add	r3, sp
   28c02:	930a      	str	r3, [sp, #40]	@ 0x28
   28c04:	7099      	strb	r1, [r3, #2]
   28c06:	7841      	ldrb	r1, [r0, #1]
   28c08:	7882      	ldrb	r2, [r0, #2]
   28c0a:	0212      	lsls	r2, r2, #8
   28c0c:	1851      	adds	r1, r2, r1
   28c0e:	8019      	strh	r1, [r3, #0]
   28c10:	3008      	adds	r0, #8
   28c12:	9909      	ldr	r1, [sp, #36]	@ 0x24
   28c14:	6e09      	ldr	r1, [r1, #96]	@ 0x60
   28c16:	9108      	str	r1, [sp, #32]
   28c18:	4b11      	ldr	r3, [pc, #68]	@ (28c60 <_start+0x1bc4>)
   28c1a:	446b      	add	r3, sp
   28c1c:	930b      	str	r3, [sp, #44]	@ 0x2c
   28c1e:	c846      	ldmia	r0!, {r1, r2, r6}
   28c20:	c346      	stmia	r3!, {r1, r2, r6}
   28c22:	c866      	ldmia	r0!, {r1, r2, r5, r6}
   28c24:	c366      	stmia	r3!, {r1, r2, r5, r6}
   28c26:	9908      	ldr	r1, [sp, #32]
   28c28:	0e08      	lsrs	r0, r1, #24
   28c2a:	9d0a      	ldr	r5, [sp, #40]	@ 0x28
   28c2c:	71a8      	strb	r0, [r5, #6]
   28c2e:	0c08      	lsrs	r0, r1, #16
   28c30:	7168      	strb	r0, [r5, #5]
   28c32:	0a08      	lsrs	r0, r1, #8
   28c34:	7128      	strb	r0, [r5, #4]
   28c36:	70e9      	strb	r1, [r5, #3]
   28c38:	1de8      	adds	r0, r5, #7
   28c3a:	221c      	movs	r2, #28
   28c3c:	990b      	ldr	r1, [sp, #44]	@ 0x2c
   28c3e:	f001 fc9b 	bl	2a578 <__aeabi_memcpy>
   28c42:	4e05      	ldr	r6, [pc, #20]	@ (28c58 <_start+0x1bbc>)
   28c44:	446e      	add	r6, sp
   28c46:	4630      	mov	r0, r6
   28c48:	4629      	mov	r1, r5
   28c4a:	f7fb f9c9 	bl	23fe0 <_ZN20complex_dynamic_type3app17h9dc40ab664db814aE>
   28c4e:	7830      	ldrb	r0, [r6, #0]
   28c50:	2801      	cmp	r0, #1
   28c52:	d107      	bne.n	28c64 <_start+0x1bc8>
   28c54:	f001 fab0 	bl	2a1b8 <_start+0x311c>
   28c58:	00001404 	.word	0x00001404
   28c5c:	000008d8 	.word	0x000008d8
   28c60:	000013a8 	.word	0x000013a8
   28c64:	4817      	ldr	r0, [pc, #92]	@ (28cc4 <_start+0x1c28>)
   28c66:	4468      	add	r0, sp
   28c68:	78c1      	ldrb	r1, [r0, #3]
   28c6a:	4d17      	ldr	r5, [pc, #92]	@ (28cc8 <_start+0x1c2c>)
   28c6c:	446d      	add	r5, sp
   28c6e:	70a9      	strb	r1, [r5, #2]
   28c70:	7841      	ldrb	r1, [r0, #1]
   28c72:	7882      	ldrb	r2, [r0, #2]
   28c74:	0212      	lsls	r2, r2, #8
   28c76:	1851      	adds	r1, r2, r1
   28c78:	8029      	strh	r1, [r5, #0]
   28c7a:	3008      	adds	r0, #8
   28c7c:	9909      	ldr	r1, [sp, #36]	@ 0x24
   28c7e:	6e09      	ldr	r1, [r1, #96]	@ 0x60
   28c80:	910a      	str	r1, [sp, #40]	@ 0x28
   28c82:	4b12      	ldr	r3, [pc, #72]	@ (28ccc <_start+0x1c30>)
   28c84:	446b      	add	r3, sp
   28c86:	930b      	str	r3, [sp, #44]	@ 0x2c
   28c88:	c846      	ldmia	r0!, {r1, r2, r6}
   28c8a:	c346      	stmia	r3!, {r1, r2, r6}
   28c8c:	c846      	ldmia	r0!, {r1, r2, r6}
   28c8e:	c346      	stmia	r3!, {r1, r2, r6}
   28c90:	c846      	ldmia	r0!, {r1, r2, r6}
   28c92:	c346      	stmia	r3!, {r1, r2, r6}
   28c94:	990a      	ldr	r1, [sp, #40]	@ 0x28
   28c96:	0e08      	lsrs	r0, r1, #24
   28c98:	71a8      	strb	r0, [r5, #6]
   28c9a:	0c08      	lsrs	r0, r1, #16
   28c9c:	7168      	strb	r0, [r5, #5]
   28c9e:	0a08      	lsrs	r0, r1, #8
   28ca0:	7128      	strb	r0, [r5, #4]
   28ca2:	70e9      	strb	r1, [r5, #3]
   28ca4:	1de8      	adds	r0, r5, #7
   28ca6:	2224      	movs	r2, #36	@ 0x24
   28ca8:	990b      	ldr	r1, [sp, #44]	@ 0x2c
   28caa:	f001 fc65 	bl	2a578 <__aeabi_memcpy>
   28cae:	4e05      	ldr	r6, [pc, #20]	@ (28cc4 <_start+0x1c28>)
   28cb0:	446e      	add	r6, sp
   28cb2:	4630      	mov	r0, r6
   28cb4:	4629      	mov	r1, r5
   28cb6:	f7fa ffd1 	bl	23c5c <_ZN20complex_dynamic_type3app17h983f1fab8c256a46E>
   28cba:	7830      	ldrb	r0, [r6, #0]
   28cbc:	2801      	cmp	r0, #1
   28cbe:	d107      	bne.n	28cd0 <_start+0x1c34>
   28cc0:	f001 fa7a 	bl	2a1b8 <_start+0x311c>
   28cc4:	00001404 	.word	0x00001404
   28cc8:	000008fc 	.word	0x000008fc
   28ccc:	000013a8 	.word	0x000013a8
   28cd0:	4914      	ldr	r1, [pc, #80]	@ (28d24 <_start+0x1c88>)
   28cd2:	4469      	add	r1, sp
   28cd4:	9b09      	ldr	r3, [sp, #36]	@ 0x24
   28cd6:	6e98      	ldr	r0, [r3, #104]	@ 0x68
   28cd8:	8088      	strh	r0, [r1, #4]
   28cda:	4813      	ldr	r0, [pc, #76]	@ (28d28 <_start+0x1c8c>)
   28cdc:	4468      	add	r0, sp
   28cde:	78c2      	ldrb	r2, [r0, #3]
   28ce0:	4d12      	ldr	r5, [pc, #72]	@ (28d2c <_start+0x1c90>)
   28ce2:	446d      	add	r5, sp
   28ce4:	70aa      	strb	r2, [r5, #2]
   28ce6:	7842      	ldrb	r2, [r0, #1]
   28ce8:	7880      	ldrb	r0, [r0, #2]
   28cea:	0200      	lsls	r0, r0, #8
   28cec:	1880      	adds	r0, r0, r2
   28cee:	8028      	strh	r0, [r5, #0]
   28cf0:	6e18      	ldr	r0, [r3, #96]	@ 0x60
   28cf2:	70e8      	strb	r0, [r5, #3]
   28cf4:	0e02      	lsrs	r2, r0, #24
   28cf6:	71aa      	strb	r2, [r5, #6]
   28cf8:	0c02      	lsrs	r2, r0, #16
   28cfa:	716a      	strb	r2, [r5, #5]
   28cfc:	0a00      	lsrs	r0, r0, #8
   28cfe:	7128      	strb	r0, [r5, #4]
   28d00:	6e58      	ldr	r0, [r3, #100]	@ 0x64
   28d02:	6018      	str	r0, [r3, #0]
   28d04:	1de8      	adds	r0, r5, #7
   28d06:	2206      	movs	r2, #6
   28d08:	f001 fc36 	bl	2a578 <__aeabi_memcpy>
   28d0c:	4e06      	ldr	r6, [pc, #24]	@ (28d28 <_start+0x1c8c>)
   28d0e:	446e      	add	r6, sp
   28d10:	4630      	mov	r0, r6
   28d12:	4629      	mov	r1, r5
   28d14:	f7fc f858 	bl	24dc8 <_ZN20complex_dynamic_type3app17hbea8e513934dc6efE>
   28d18:	7830      	ldrb	r0, [r6, #0]
   28d1a:	2801      	cmp	r0, #1
   28d1c:	d108      	bne.n	28d30 <_start+0x1c94>
   28d1e:	f001 fa4b 	bl	2a1b8 <_start+0x311c>
   28d22:	46c0      	nop			@ (mov r8, r8)
   28d24:	000013a8 	.word	0x000013a8
   28d28:	00001404 	.word	0x00001404
   28d2c:	00000928 	.word	0x00000928
   28d30:	4817      	ldr	r0, [pc, #92]	@ (28d90 <_start+0x1cf4>)
   28d32:	4468      	add	r0, sp
   28d34:	78c1      	ldrb	r1, [r0, #3]
   28d36:	4d17      	ldr	r5, [pc, #92]	@ (28d94 <_start+0x1cf8>)
   28d38:	446d      	add	r5, sp
   28d3a:	70a9      	strb	r1, [r5, #2]
   28d3c:	7841      	ldrb	r1, [r0, #1]
   28d3e:	7882      	ldrb	r2, [r0, #2]
   28d40:	0212      	lsls	r2, r2, #8
   28d42:	1851      	adds	r1, r2, r1
   28d44:	8029      	strh	r1, [r5, #0]
   28d46:	3008      	adds	r0, #8
   28d48:	9909      	ldr	r1, [sp, #36]	@ 0x24
   28d4a:	6e09      	ldr	r1, [r1, #96]	@ 0x60
   28d4c:	910a      	str	r1, [sp, #40]	@ 0x28
   28d4e:	4b12      	ldr	r3, [pc, #72]	@ (28d98 <_start+0x1cfc>)
   28d50:	446b      	add	r3, sp
   28d52:	930b      	str	r3, [sp, #44]	@ 0x2c
   28d54:	c846      	ldmia	r0!, {r1, r2, r6}
   28d56:	c346      	stmia	r3!, {r1, r2, r6}
   28d58:	c846      	ldmia	r0!, {r1, r2, r6}
   28d5a:	c346      	stmia	r3!, {r1, r2, r6}
   28d5c:	8800      	ldrh	r0, [r0, #0]
   28d5e:	8018      	strh	r0, [r3, #0]
   28d60:	990a      	ldr	r1, [sp, #40]	@ 0x28
   28d62:	0e08      	lsrs	r0, r1, #24
   28d64:	71a8      	strb	r0, [r5, #6]
   28d66:	0c08      	lsrs	r0, r1, #16
   28d68:	7168      	strb	r0, [r5, #5]
   28d6a:	0a08      	lsrs	r0, r1, #8
   28d6c:	7128      	strb	r0, [r5, #4]
   28d6e:	70e9      	strb	r1, [r5, #3]
   28d70:	1de8      	adds	r0, r5, #7
   28d72:	221a      	movs	r2, #26
   28d74:	990b      	ldr	r1, [sp, #44]	@ 0x2c
   28d76:	f001 fbff 	bl	2a578 <__aeabi_memcpy>
   28d7a:	4e05      	ldr	r6, [pc, #20]	@ (28d90 <_start+0x1cf4>)
   28d7c:	446e      	add	r6, sp
   28d7e:	4630      	mov	r0, r6
   28d80:	4629      	mov	r1, r5
   28d82:	f7fb fe6b 	bl	24a5c <_ZN20complex_dynamic_type3app17hb26a5917fcf0b5cbE>
   28d86:	7830      	ldrb	r0, [r6, #0]
   28d88:	2801      	cmp	r0, #1
   28d8a:	d107      	bne.n	28d9c <_start+0x1d00>
   28d8c:	f001 fa14 	bl	2a1b8 <_start+0x311c>
   28d90:	00001404 	.word	0x00001404
   28d94:	00000938 	.word	0x00000938
   28d98:	000013a8 	.word	0x000013a8
   28d9c:	4915      	ldr	r1, [pc, #84]	@ (28df4 <_start+0x1d58>)
   28d9e:	4469      	add	r1, sp
   28da0:	78c8      	ldrb	r0, [r1, #3]
   28da2:	4d15      	ldr	r5, [pc, #84]	@ (28df8 <_start+0x1d5c>)
   28da4:	446d      	add	r5, sp
   28da6:	70a8      	strb	r0, [r5, #2]
   28da8:	7848      	ldrb	r0, [r1, #1]
   28daa:	788a      	ldrb	r2, [r1, #2]
   28dac:	0212      	lsls	r2, r2, #8
   28dae:	1810      	adds	r0, r2, r0
   28db0:	8028      	strh	r0, [r5, #0]
   28db2:	9809      	ldr	r0, [sp, #36]	@ 0x24
   28db4:	6e06      	ldr	r6, [r0, #96]	@ 0x60
   28db6:	3108      	adds	r1, #8
   28db8:	4810      	ldr	r0, [pc, #64]	@ (28dfc <_start+0x1d60>)
   28dba:	4468      	add	r0, sp
   28dbc:	900b      	str	r0, [sp, #44]	@ 0x2c
   28dbe:	224c      	movs	r2, #76	@ 0x4c
   28dc0:	920a      	str	r2, [sp, #40]	@ 0x28
   28dc2:	f001 fa79 	bl	2a2b8 <__aeabi_memcpy4>
   28dc6:	0e30      	lsrs	r0, r6, #24
   28dc8:	71a8      	strb	r0, [r5, #6]
   28dca:	0c30      	lsrs	r0, r6, #16
   28dcc:	7168      	strb	r0, [r5, #5]
   28dce:	0a30      	lsrs	r0, r6, #8
   28dd0:	7128      	strb	r0, [r5, #4]
   28dd2:	70ee      	strb	r6, [r5, #3]
   28dd4:	1de8      	adds	r0, r5, #7
   28dd6:	990b      	ldr	r1, [sp, #44]	@ 0x2c
   28dd8:	9a0a      	ldr	r2, [sp, #40]	@ 0x28
   28dda:	f001 fbcd 	bl	2a578 <__aeabi_memcpy>
   28dde:	4e05      	ldr	r6, [pc, #20]	@ (28df4 <_start+0x1d58>)
   28de0:	446e      	add	r6, sp
   28de2:	4630      	mov	r0, r6
   28de4:	4629      	mov	r1, r5
   28de6:	f7fe f8c5 	bl	26f74 <_ZN20complex_dynamic_type3app17hfe02ba42aceb3337E>
   28dea:	7830      	ldrb	r0, [r6, #0]
   28dec:	2801      	cmp	r0, #1
   28dee:	d107      	bne.n	28e00 <_start+0x1d64>
   28df0:	f001 f9e2 	bl	2a1b8 <_start+0x311c>
   28df4:	00001404 	.word	0x00001404
   28df8:	0000095c 	.word	0x0000095c
   28dfc:	000013a8 	.word	0x000013a8
   28e00:	4915      	ldr	r1, [pc, #84]	@ (28e58 <_start+0x1dbc>)
   28e02:	4469      	add	r1, sp
   28e04:	78c8      	ldrb	r0, [r1, #3]
   28e06:	4d15      	ldr	r5, [pc, #84]	@ (28e5c <_start+0x1dc0>)
   28e08:	446d      	add	r5, sp
   28e0a:	70a8      	strb	r0, [r5, #2]
   28e0c:	7848      	ldrb	r0, [r1, #1]
   28e0e:	788a      	ldrb	r2, [r1, #2]
   28e10:	0212      	lsls	r2, r2, #8
   28e12:	1810      	adds	r0, r2, r0
   28e14:	8028      	strh	r0, [r5, #0]
   28e16:	9809      	ldr	r0, [sp, #36]	@ 0x24
   28e18:	6e06      	ldr	r6, [r0, #96]	@ 0x60
   28e1a:	3108      	adds	r1, #8
   28e1c:	4810      	ldr	r0, [pc, #64]	@ (28e60 <_start+0x1dc4>)
   28e1e:	4468      	add	r0, sp
   28e20:	900b      	str	r0, [sp, #44]	@ 0x2c
   28e22:	2246      	movs	r2, #70	@ 0x46
   28e24:	920a      	str	r2, [sp, #40]	@ 0x28
   28e26:	f001 fa47 	bl	2a2b8 <__aeabi_memcpy4>
   28e2a:	0e30      	lsrs	r0, r6, #24
   28e2c:	71a8      	strb	r0, [r5, #6]
   28e2e:	0c30      	lsrs	r0, r6, #16
   28e30:	7168      	strb	r0, [r5, #5]
   28e32:	0a30      	lsrs	r0, r6, #8
   28e34:	7128      	strb	r0, [r5, #4]
   28e36:	70ee      	strb	r6, [r5, #3]
   28e38:	1de8      	adds	r0, r5, #7
   28e3a:	990b      	ldr	r1, [sp, #44]	@ 0x2c
   28e3c:	9a0a      	ldr	r2, [sp, #40]	@ 0x28
   28e3e:	f001 fb9b 	bl	2a578 <__aeabi_memcpy>
   28e42:	4e05      	ldr	r6, [pc, #20]	@ (28e58 <_start+0x1dbc>)
   28e44:	446e      	add	r6, sp
   28e46:	4630      	mov	r0, r6
   28e48:	4629      	mov	r1, r5
   28e4a:	f7f9 fd1b 	bl	22884 <_ZN20complex_dynamic_type3app17h5b3f75af7fa20fc7E>
   28e4e:	7830      	ldrb	r0, [r6, #0]
   28e50:	2801      	cmp	r0, #1
   28e52:	d107      	bne.n	28e64 <_start+0x1dc8>
   28e54:	f001 f9b0 	bl	2a1b8 <_start+0x311c>
   28e58:	00001404 	.word	0x00001404
   28e5c:	000009b0 	.word	0x000009b0
   28e60:	000013a8 	.word	0x000013a8
   28e64:	481a      	ldr	r0, [pc, #104]	@ (28ed0 <_start+0x1e34>)
   28e66:	4468      	add	r0, sp
   28e68:	78c1      	ldrb	r1, [r0, #3]
   28e6a:	4b1a      	ldr	r3, [pc, #104]	@ (28ed4 <_start+0x1e38>)
   28e6c:	446b      	add	r3, sp
   28e6e:	930a      	str	r3, [sp, #40]	@ 0x28
   28e70:	7099      	strb	r1, [r3, #2]
   28e72:	7841      	ldrb	r1, [r0, #1]
   28e74:	7882      	ldrb	r2, [r0, #2]
   28e76:	0212      	lsls	r2, r2, #8
   28e78:	1851      	adds	r1, r2, r1
   28e7a:	8019      	strh	r1, [r3, #0]
   28e7c:	3008      	adds	r0, #8
   28e7e:	9909      	ldr	r1, [sp, #36]	@ 0x24
   28e80:	6e09      	ldr	r1, [r1, #96]	@ 0x60
   28e82:	9108      	str	r1, [sp, #32]
   28e84:	4b14      	ldr	r3, [pc, #80]	@ (28ed8 <_start+0x1e3c>)
   28e86:	446b      	add	r3, sp
   28e88:	930b      	str	r3, [sp, #44]	@ 0x2c
   28e8a:	c846      	ldmia	r0!, {r1, r2, r6}
   28e8c:	c346      	stmia	r3!, {r1, r2, r6}
   28e8e:	c846      	ldmia	r0!, {r1, r2, r6}
   28e90:	c346      	stmia	r3!, {r1, r2, r6}
   28e92:	c846      	ldmia	r0!, {r1, r2, r6}
   28e94:	c346      	stmia	r3!, {r1, r2, r6}
   28e96:	c866      	ldmia	r0!, {r1, r2, r5, r6}
   28e98:	c366      	stmia	r3!, {r1, r2, r5, r6}
   28e9a:	7800      	ldrb	r0, [r0, #0]
   28e9c:	7018      	strb	r0, [r3, #0]
   28e9e:	9908      	ldr	r1, [sp, #32]
   28ea0:	0e08      	lsrs	r0, r1, #24
   28ea2:	9d0a      	ldr	r5, [sp, #40]	@ 0x28
   28ea4:	71a8      	strb	r0, [r5, #6]
   28ea6:	0c08      	lsrs	r0, r1, #16
   28ea8:	7168      	strb	r0, [r5, #5]
   28eaa:	0a08      	lsrs	r0, r1, #8
   28eac:	7128      	strb	r0, [r5, #4]
   28eae:	70e9      	strb	r1, [r5, #3]
   28eb0:	1de8      	adds	r0, r5, #7
   28eb2:	2235      	movs	r2, #53	@ 0x35
   28eb4:	990b      	ldr	r1, [sp, #44]	@ 0x2c
   28eb6:	f001 fb5f 	bl	2a578 <__aeabi_memcpy>
   28eba:	4e05      	ldr	r6, [pc, #20]	@ (28ed0 <_start+0x1e34>)
   28ebc:	446e      	add	r6, sp
   28ebe:	4630      	mov	r0, r6
   28ec0:	4629      	mov	r1, r5
   28ec2:	f7f8 fd5b 	bl	2197c <_ZN20complex_dynamic_type3app17h2be707c5e7aa2453E>
   28ec6:	7830      	ldrb	r0, [r6, #0]
   28ec8:	2801      	cmp	r0, #1
   28eca:	d107      	bne.n	28edc <_start+0x1e40>
   28ecc:	f001 f974 	bl	2a1b8 <_start+0x311c>
   28ed0:	00001404 	.word	0x00001404
   28ed4:	00000a00 	.word	0x00000a00
   28ed8:	000013a8 	.word	0x000013a8
   28edc:	4819      	ldr	r0, [pc, #100]	@ (28f44 <_start+0x1ea8>)
   28ede:	4468      	add	r0, sp
   28ee0:	78c1      	ldrb	r1, [r0, #3]
   28ee2:	4b19      	ldr	r3, [pc, #100]	@ (28f48 <_start+0x1eac>)
   28ee4:	446b      	add	r3, sp
   28ee6:	930a      	str	r3, [sp, #40]	@ 0x28
   28ee8:	7099      	strb	r1, [r3, #2]
   28eea:	7841      	ldrb	r1, [r0, #1]
   28eec:	7882      	ldrb	r2, [r0, #2]
   28eee:	0212      	lsls	r2, r2, #8
   28ef0:	1851      	adds	r1, r2, r1
   28ef2:	8019      	strh	r1, [r3, #0]
   28ef4:	3008      	adds	r0, #8
   28ef6:	9909      	ldr	r1, [sp, #36]	@ 0x24
   28ef8:	6e09      	ldr	r1, [r1, #96]	@ 0x60
   28efa:	9108      	str	r1, [sp, #32]
   28efc:	4b13      	ldr	r3, [pc, #76]	@ (28f4c <_start+0x1eb0>)
   28efe:	446b      	add	r3, sp
   28f00:	930b      	str	r3, [sp, #44]	@ 0x2c
   28f02:	c866      	ldmia	r0!, {r1, r2, r5, r6}
   28f04:	c366      	stmia	r3!, {r1, r2, r5, r6}
   28f06:	c866      	ldmia	r0!, {r1, r2, r5, r6}
   28f08:	c366      	stmia	r3!, {r1, r2, r5, r6}
   28f0a:	c866      	ldmia	r0!, {r1, r2, r5, r6}
   28f0c:	c366      	stmia	r3!, {r1, r2, r5, r6}
   28f0e:	7800      	ldrb	r0, [r0, #0]
   28f10:	7018      	strb	r0, [r3, #0]
   28f12:	9908      	ldr	r1, [sp, #32]
   28f14:	0e08      	lsrs	r0, r1, #24
   28f16:	9d0a      	ldr	r5, [sp, #40]	@ 0x28
   28f18:	71a8      	strb	r0, [r5, #6]
   28f1a:	0c08      	lsrs	r0, r1, #16
   28f1c:	7168      	strb	r0, [r5, #5]
   28f1e:	0a08      	lsrs	r0, r1, #8
   28f20:	7128      	strb	r0, [r5, #4]
   28f22:	70e9      	strb	r1, [r5, #3]
   28f24:	1de8      	adds	r0, r5, #7
   28f26:	2231      	movs	r2, #49	@ 0x31
   28f28:	990b      	ldr	r1, [sp, #44]	@ 0x2c
   28f2a:	f001 fb25 	bl	2a578 <__aeabi_memcpy>
   28f2e:	4e05      	ldr	r6, [pc, #20]	@ (28f44 <_start+0x1ea8>)
   28f30:	446e      	add	r6, sp
   28f32:	4630      	mov	r0, r6
   28f34:	4629      	mov	r1, r5
   28f36:	f7f7 fc59 	bl	207ec <_ZN20complex_dynamic_type3app17h0cad13c6d3d03556E>
   28f3a:	7830      	ldrb	r0, [r6, #0]
   28f3c:	2801      	cmp	r0, #1
   28f3e:	d107      	bne.n	28f50 <_start+0x1eb4>
   28f40:	f001 f93a 	bl	2a1b8 <_start+0x311c>
   28f44:	00001404 	.word	0x00001404
   28f48:	00000a3c 	.word	0x00000a3c
   28f4c:	000013a8 	.word	0x000013a8
   28f50:	4817      	ldr	r0, [pc, #92]	@ (28fb0 <_start+0x1f14>)
   28f52:	4468      	add	r0, sp
   28f54:	78c1      	ldrb	r1, [r0, #3]
   28f56:	4b17      	ldr	r3, [pc, #92]	@ (28fb4 <_start+0x1f18>)
   28f58:	446b      	add	r3, sp
   28f5a:	930a      	str	r3, [sp, #40]	@ 0x28
   28f5c:	7099      	strb	r1, [r3, #2]
   28f5e:	7841      	ldrb	r1, [r0, #1]
   28f60:	7882      	ldrb	r2, [r0, #2]
   28f62:	0212      	lsls	r2, r2, #8
   28f64:	1851      	adds	r1, r2, r1
   28f66:	8019      	strh	r1, [r3, #0]
   28f68:	3008      	adds	r0, #8
   28f6a:	9909      	ldr	r1, [sp, #36]	@ 0x24
   28f6c:	6e09      	ldr	r1, [r1, #96]	@ 0x60
   28f6e:	9108      	str	r1, [sp, #32]
   28f70:	4b11      	ldr	r3, [pc, #68]	@ (28fb8 <_start+0x1f1c>)
   28f72:	446b      	add	r3, sp
   28f74:	930b      	str	r3, [sp, #44]	@ 0x2c
   28f76:	c866      	ldmia	r0!, {r1, r2, r5, r6}
   28f78:	c366      	stmia	r3!, {r1, r2, r5, r6}
   28f7a:	c866      	ldmia	r0!, {r1, r2, r5, r6}
   28f7c:	c366      	stmia	r3!, {r1, r2, r5, r6}
   28f7e:	9908      	ldr	r1, [sp, #32]
   28f80:	0e08      	lsrs	r0, r1, #24
   28f82:	9d0a      	ldr	r5, [sp, #40]	@ 0x28
   28f84:	71a8      	strb	r0, [r5, #6]
   28f86:	0c08      	lsrs	r0, r1, #16
   28f88:	7168      	strb	r0, [r5, #5]
   28f8a:	0a08      	lsrs	r0, r1, #8
   28f8c:	7128      	strb	r0, [r5, #4]
   28f8e:	70e9      	strb	r1, [r5, #3]
   28f90:	1de8      	adds	r0, r5, #7
   28f92:	2220      	movs	r2, #32
   28f94:	990b      	ldr	r1, [sp, #44]	@ 0x2c
   28f96:	f001 faef 	bl	2a578 <__aeabi_memcpy>
   28f9a:	4e05      	ldr	r6, [pc, #20]	@ (28fb0 <_start+0x1f14>)
   28f9c:	446e      	add	r6, sp
   28f9e:	4630      	mov	r0, r6
   28fa0:	4629      	mov	r1, r5
   28fa2:	f7f8 fe07 	bl	21bb4 <_ZN20complex_dynamic_type3app17h2e62881a43c6069cE>
   28fa6:	7830      	ldrb	r0, [r6, #0]
   28fa8:	2801      	cmp	r0, #1
   28faa:	d107      	bne.n	28fbc <_start+0x1f20>
   28fac:	f001 f904 	bl	2a1b8 <_start+0x311c>
   28fb0:	00001404 	.word	0x00001404
   28fb4:	00000a74 	.word	0x00000a74
   28fb8:	000013a8 	.word	0x000013a8
   28fbc:	4915      	ldr	r1, [pc, #84]	@ (29014 <_start+0x1f78>)
   28fbe:	4469      	add	r1, sp
   28fc0:	78c8      	ldrb	r0, [r1, #3]
   28fc2:	4d15      	ldr	r5, [pc, #84]	@ (29018 <_start+0x1f7c>)
   28fc4:	446d      	add	r5, sp
   28fc6:	70a8      	strb	r0, [r5, #2]
   28fc8:	7848      	ldrb	r0, [r1, #1]
   28fca:	788a      	ldrb	r2, [r1, #2]
   28fcc:	0212      	lsls	r2, r2, #8
   28fce:	1810      	adds	r0, r2, r0
   28fd0:	8028      	strh	r0, [r5, #0]
   28fd2:	9809      	ldr	r0, [sp, #36]	@ 0x24
   28fd4:	6e06      	ldr	r6, [r0, #96]	@ 0x60
   28fd6:	3108      	adds	r1, #8
   28fd8:	4810      	ldr	r0, [pc, #64]	@ (2901c <_start+0x1f80>)
   28fda:	4468      	add	r0, sp
   28fdc:	900b      	str	r0, [sp, #44]	@ 0x2c
   28fde:	224a      	movs	r2, #74	@ 0x4a
   28fe0:	920a      	str	r2, [sp, #40]	@ 0x28
   28fe2:	f001 f969 	bl	2a2b8 <__aeabi_memcpy4>
   28fe6:	0e30      	lsrs	r0, r6, #24
   28fe8:	71a8      	strb	r0, [r5, #6]
   28fea:	0c30      	lsrs	r0, r6, #16
   28fec:	7168      	strb	r0, [r5, #5]
   28fee:	0a30      	lsrs	r0, r6, #8
   28ff0:	7128      	strb	r0, [r5, #4]
   28ff2:	70ee      	strb	r6, [r5, #3]
   28ff4:	1de8      	adds	r0, r5, #7
   28ff6:	990b      	ldr	r1, [sp, #44]	@ 0x2c
   28ff8:	9a0a      	ldr	r2, [sp, #40]	@ 0x28
   28ffa:	f001 fabd 	bl	2a578 <__aeabi_memcpy>
   28ffe:	4e05      	ldr	r6, [pc, #20]	@ (29014 <_start+0x1f78>)
   29000:	446e      	add	r6, sp
   29002:	4630      	mov	r0, r6
   29004:	4629      	mov	r1, r5
   29006:	f7fb ff65 	bl	24ed4 <_ZN20complex_dynamic_type3app17hbf4fb59fe4124581E>
   2900a:	7830      	ldrb	r0, [r6, #0]
   2900c:	2801      	cmp	r0, #1
   2900e:	d107      	bne.n	29020 <_start+0x1f84>
   29010:	f001 f8d2 	bl	2a1b8 <_start+0x311c>
   29014:	00001404 	.word	0x00001404
   29018:	00000a9c 	.word	0x00000a9c
   2901c:	000013a8 	.word	0x000013a8
   29020:	4915      	ldr	r1, [pc, #84]	@ (29078 <_start+0x1fdc>)
   29022:	4469      	add	r1, sp
   29024:	78c8      	ldrb	r0, [r1, #3]
   29026:	4d15      	ldr	r5, [pc, #84]	@ (2907c <_start+0x1fe0>)
   29028:	446d      	add	r5, sp
   2902a:	70a8      	strb	r0, [r5, #2]
   2902c:	7848      	ldrb	r0, [r1, #1]
   2902e:	788a      	ldrb	r2, [r1, #2]
   29030:	0212      	lsls	r2, r2, #8
   29032:	1810      	adds	r0, r2, r0
   29034:	8028      	strh	r0, [r5, #0]
   29036:	9809      	ldr	r0, [sp, #36]	@ 0x24
   29038:	6e06      	ldr	r6, [r0, #96]	@ 0x60
   2903a:	3108      	adds	r1, #8
   2903c:	4810      	ldr	r0, [pc, #64]	@ (29080 <_start+0x1fe4>)
   2903e:	4468      	add	r0, sp
   29040:	900b      	str	r0, [sp, #44]	@ 0x2c
   29042:	2248      	movs	r2, #72	@ 0x48
   29044:	920a      	str	r2, [sp, #40]	@ 0x28
   29046:	f001 f937 	bl	2a2b8 <__aeabi_memcpy4>
   2904a:	0e30      	lsrs	r0, r6, #24
   2904c:	71a8      	strb	r0, [r5, #6]
   2904e:	0c30      	lsrs	r0, r6, #16
   29050:	7168      	strb	r0, [r5, #5]
   29052:	0a30      	lsrs	r0, r6, #8
   29054:	7128      	strb	r0, [r5, #4]
   29056:	70ee      	strb	r6, [r5, #3]
   29058:	1de8      	adds	r0, r5, #7
   2905a:	990b      	ldr	r1, [sp, #44]	@ 0x2c
   2905c:	9a0a      	ldr	r2, [sp, #40]	@ 0x28
   2905e:	f001 fa8b 	bl	2a578 <__aeabi_memcpy>
   29062:	4e05      	ldr	r6, [pc, #20]	@ (29078 <_start+0x1fdc>)
   29064:	446e      	add	r6, sp
   29066:	4630      	mov	r0, r6
   29068:	4629      	mov	r1, r5
   2906a:	f7fd f90d 	bl	26288 <_ZN20complex_dynamic_type3app17he80345f6a8a3d6a3E>
   2906e:	7830      	ldrb	r0, [r6, #0]
   29070:	2801      	cmp	r0, #1
   29072:	d107      	bne.n	29084 <_start+0x1fe8>
   29074:	f001 f8a0 	bl	2a1b8 <_start+0x311c>
   29078:	00001404 	.word	0x00001404
   2907c:	00000af0 	.word	0x00000af0
   29080:	000013a8 	.word	0x000013a8
   29084:	4915      	ldr	r1, [pc, #84]	@ (290dc <_start+0x2040>)
   29086:	4469      	add	r1, sp
   29088:	78c8      	ldrb	r0, [r1, #3]
   2908a:	4d15      	ldr	r5, [pc, #84]	@ (290e0 <_start+0x2044>)
   2908c:	446d      	add	r5, sp
   2908e:	70a8      	strb	r0, [r5, #2]
   29090:	7848      	ldrb	r0, [r1, #1]
   29092:	788a      	ldrb	r2, [r1, #2]
   29094:	0212      	lsls	r2, r2, #8
   29096:	1810      	adds	r0, r2, r0
   29098:	8028      	strh	r0, [r5, #0]
   2909a:	9809      	ldr	r0, [sp, #36]	@ 0x24
   2909c:	6e06      	ldr	r6, [r0, #96]	@ 0x60
   2909e:	3108      	adds	r1, #8
   290a0:	4810      	ldr	r0, [pc, #64]	@ (290e4 <_start+0x2048>)
   290a2:	4468      	add	r0, sp
   290a4:	900b      	str	r0, [sp, #44]	@ 0x2c
   290a6:	225a      	movs	r2, #90	@ 0x5a
   290a8:	920a      	str	r2, [sp, #40]	@ 0x28
   290aa:	f001 f905 	bl	2a2b8 <__aeabi_memcpy4>
   290ae:	0e30      	lsrs	r0, r6, #24
   290b0:	71a8      	strb	r0, [r5, #6]
   290b2:	0c30      	lsrs	r0, r6, #16
   290b4:	7168      	strb	r0, [r5, #5]
   290b6:	0a30      	lsrs	r0, r6, #8
   290b8:	7128      	strb	r0, [r5, #4]
   290ba:	70ee      	strb	r6, [r5, #3]
   290bc:	1de8      	adds	r0, r5, #7
   290be:	990b      	ldr	r1, [sp, #44]	@ 0x2c
   290c0:	9a0a      	ldr	r2, [sp, #40]	@ 0x28
   290c2:	f001 fa59 	bl	2a578 <__aeabi_memcpy>
   290c6:	4e05      	ldr	r6, [pc, #20]	@ (290dc <_start+0x2040>)
   290c8:	446e      	add	r6, sp
   290ca:	4630      	mov	r0, r6
   290cc:	4629      	mov	r1, r5
   290ce:	f7fb fde5 	bl	24c9c <_ZN20complex_dynamic_type3app17hba9c8a8a448b81f7E>
   290d2:	7830      	ldrb	r0, [r6, #0]
   290d4:	2801      	cmp	r0, #1
   290d6:	d107      	bne.n	290e8 <_start+0x204c>
   290d8:	f001 f86e 	bl	2a1b8 <_start+0x311c>
   290dc:	00001404 	.word	0x00001404
   290e0:	00000b40 	.word	0x00000b40
   290e4:	000013a8 	.word	0x000013a8
   290e8:	4818      	ldr	r0, [pc, #96]	@ (2914c <_start+0x20b0>)
   290ea:	4468      	add	r0, sp
   290ec:	78c1      	ldrb	r1, [r0, #3]
   290ee:	4d18      	ldr	r5, [pc, #96]	@ (29150 <_start+0x20b4>)
   290f0:	446d      	add	r5, sp
   290f2:	70a9      	strb	r1, [r5, #2]
   290f4:	7841      	ldrb	r1, [r0, #1]
   290f6:	7882      	ldrb	r2, [r0, #2]
   290f8:	0212      	lsls	r2, r2, #8
   290fa:	1851      	adds	r1, r2, r1
   290fc:	8029      	strh	r1, [r5, #0]
   290fe:	3008      	adds	r0, #8
   29100:	9909      	ldr	r1, [sp, #36]	@ 0x24
   29102:	6e09      	ldr	r1, [r1, #96]	@ 0x60
   29104:	910a      	str	r1, [sp, #40]	@ 0x28
   29106:	4b13      	ldr	r3, [pc, #76]	@ (29154 <_start+0x20b8>)
   29108:	446b      	add	r3, sp
   2910a:	930b      	str	r3, [sp, #44]	@ 0x2c
   2910c:	c844      	ldmia	r0!, {r2, r6}
   2910e:	c344      	stmia	r3!, {r2, r6}
   29110:	c846      	ldmia	r0!, {r1, r2, r6}
   29112:	c346      	stmia	r3!, {r1, r2, r6}
   29114:	8801      	ldrh	r1, [r0, #0]
   29116:	8019      	strh	r1, [r3, #0]
   29118:	7880      	ldrb	r0, [r0, #2]
   2911a:	7098      	strb	r0, [r3, #2]
   2911c:	990a      	ldr	r1, [sp, #40]	@ 0x28
   2911e:	0e08      	lsrs	r0, r1, #24
   29120:	71a8      	strb	r0, [r5, #6]
   29122:	0c08      	lsrs	r0, r1, #16
   29124:	7168      	strb	r0, [r5, #5]
   29126:	0a08      	lsrs	r0, r1, #8
   29128:	7128      	strb	r0, [r5, #4]
   2912a:	70e9      	strb	r1, [r5, #3]
   2912c:	1de8      	adds	r0, r5, #7
   2912e:	2217      	movs	r2, #23
   29130:	990b      	ldr	r1, [sp, #44]	@ 0x2c
   29132:	f001 fa21 	bl	2a578 <__aeabi_memcpy>
   29136:	4e05      	ldr	r6, [pc, #20]	@ (2914c <_start+0x20b0>)
   29138:	446e      	add	r6, sp
   2913a:	4630      	mov	r0, r6
   2913c:	4629      	mov	r1, r5
   2913e:	f7fc ff77 	bl	26030 <_ZN20complex_dynamic_type3app17he16ff068827b1506E>
   29142:	7830      	ldrb	r0, [r6, #0]
   29144:	2801      	cmp	r0, #1
   29146:	d107      	bne.n	29158 <_start+0x20bc>
   29148:	f001 f836 	bl	2a1b8 <_start+0x311c>
   2914c:	00001404 	.word	0x00001404
   29150:	00000ba4 	.word	0x00000ba4
   29154:	000013a8 	.word	0x000013a8
   29158:	4817      	ldr	r0, [pc, #92]	@ (291b8 <_start+0x211c>)
   2915a:	4468      	add	r0, sp
   2915c:	78c1      	ldrb	r1, [r0, #3]
   2915e:	4d17      	ldr	r5, [pc, #92]	@ (291bc <_start+0x2120>)
   29160:	446d      	add	r5, sp
   29162:	70a9      	strb	r1, [r5, #2]
   29164:	7841      	ldrb	r1, [r0, #1]
   29166:	7882      	ldrb	r2, [r0, #2]
   29168:	0212      	lsls	r2, r2, #8
   2916a:	1851      	adds	r1, r2, r1
   2916c:	8029      	strh	r1, [r5, #0]
   2916e:	3008      	adds	r0, #8
   29170:	9909      	ldr	r1, [sp, #36]	@ 0x24
   29172:	6e09      	ldr	r1, [r1, #96]	@ 0x60
   29174:	910a      	str	r1, [sp, #40]	@ 0x28
   29176:	4b12      	ldr	r3, [pc, #72]	@ (291c0 <_start+0x2124>)
   29178:	446b      	add	r3, sp
   2917a:	930b      	str	r3, [sp, #44]	@ 0x2c
   2917c:	c846      	ldmia	r0!, {r1, r2, r6}
   2917e:	c346      	stmia	r3!, {r1, r2, r6}
   29180:	c846      	ldmia	r0!, {r1, r2, r6}
   29182:	c346      	stmia	r3!, {r1, r2, r6}
   29184:	8800      	ldrh	r0, [r0, #0]
   29186:	8018      	strh	r0, [r3, #0]
   29188:	990a      	ldr	r1, [sp, #40]	@ 0x28
   2918a:	0e08      	lsrs	r0, r1, #24
   2918c:	71a8      	strb	r0, [r5, #6]
   2918e:	0c08      	lsrs	r0, r1, #16
   29190:	7168      	strb	r0, [r5, #5]
   29192:	0a08      	lsrs	r0, r1, #8
   29194:	7128      	strb	r0, [r5, #4]
   29196:	70e9      	strb	r1, [r5, #3]
   29198:	1de8      	adds	r0, r5, #7
   2919a:	221a      	movs	r2, #26
   2919c:	990b      	ldr	r1, [sp, #44]	@ 0x2c
   2919e:	f001 f9eb 	bl	2a578 <__aeabi_memcpy>
   291a2:	4e05      	ldr	r6, [pc, #20]	@ (291b8 <_start+0x211c>)
   291a4:	446e      	add	r6, sp
   291a6:	4630      	mov	r0, r6
   291a8:	4629      	mov	r1, r5
   291aa:	f7f7 ff35 	bl	21018 <_ZN20complex_dynamic_type3app17h1fbe756cff57d5dcE>
   291ae:	7830      	ldrb	r0, [r6, #0]
   291b0:	2801      	cmp	r0, #1
   291b2:	d107      	bne.n	291c4 <_start+0x2128>
   291b4:	f001 f800 	bl	2a1b8 <_start+0x311c>
   291b8:	00001404 	.word	0x00001404
   291bc:	00000bc4 	.word	0x00000bc4
   291c0:	000013a8 	.word	0x000013a8
   291c4:	4819      	ldr	r0, [pc, #100]	@ (2922c <_start+0x2190>)
   291c6:	4468      	add	r0, sp
   291c8:	78c1      	ldrb	r1, [r0, #3]
   291ca:	4b19      	ldr	r3, [pc, #100]	@ (29230 <_start+0x2194>)
   291cc:	446b      	add	r3, sp
   291ce:	930a      	str	r3, [sp, #40]	@ 0x28
   291d0:	7099      	strb	r1, [r3, #2]
   291d2:	7841      	ldrb	r1, [r0, #1]
   291d4:	7882      	ldrb	r2, [r0, #2]
   291d6:	0212      	lsls	r2, r2, #8
   291d8:	1851      	adds	r1, r2, r1
   291da:	8019      	strh	r1, [r3, #0]
   291dc:	3008      	adds	r0, #8
   291de:	9909      	ldr	r1, [sp, #36]	@ 0x24
   291e0:	6e09      	ldr	r1, [r1, #96]	@ 0x60
   291e2:	9108      	str	r1, [sp, #32]
   291e4:	4b13      	ldr	r3, [pc, #76]	@ (29234 <_start+0x2198>)
   291e6:	446b      	add	r3, sp
   291e8:	930b      	str	r3, [sp, #44]	@ 0x2c
   291ea:	c866      	ldmia	r0!, {r1, r2, r5, r6}
   291ec:	c366      	stmia	r3!, {r1, r2, r5, r6}
   291ee:	c866      	ldmia	r0!, {r1, r2, r5, r6}
   291f0:	c366      	stmia	r3!, {r1, r2, r5, r6}
   291f2:	8801      	ldrh	r1, [r0, #0]
   291f4:	8019      	strh	r1, [r3, #0]
   291f6:	7880      	ldrb	r0, [r0, #2]
   291f8:	7098      	strb	r0, [r3, #2]
   291fa:	9908      	ldr	r1, [sp, #32]
   291fc:	0e08      	lsrs	r0, r1, #24
   291fe:	9d0a      	ldr	r5, [sp, #40]	@ 0x28
   29200:	71a8      	strb	r0, [r5, #6]
   29202:	0c08      	lsrs	r0, r1, #16
   29204:	7168      	strb	r0, [r5, #5]
   29206:	0a08      	lsrs	r0, r1, #8
   29208:	7128      	strb	r0, [r5, #4]
   2920a:	70e9      	strb	r1, [r5, #3]
   2920c:	1de8      	adds	r0, r5, #7
   2920e:	2223      	movs	r2, #35	@ 0x23
   29210:	990b      	ldr	r1, [sp, #44]	@ 0x2c
   29212:	f001 f9b1 	bl	2a578 <__aeabi_memcpy>
   29216:	4e05      	ldr	r6, [pc, #20]	@ (2922c <_start+0x2190>)
   29218:	446e      	add	r6, sp
   2921a:	4630      	mov	r0, r6
   2921c:	4629      	mov	r1, r5
   2921e:	f7f8 fdf3 	bl	21e08 <_ZN20complex_dynamic_type3app17h3797805cbb396edcE>
   29222:	7830      	ldrb	r0, [r6, #0]
   29224:	2801      	cmp	r0, #1
   29226:	d107      	bne.n	29238 <_start+0x219c>
   29228:	f000 ffc6 	bl	2a1b8 <_start+0x311c>
   2922c:	00001404 	.word	0x00001404
   29230:	00000be8 	.word	0x00000be8
   29234:	000013a8 	.word	0x000013a8
   29238:	4915      	ldr	r1, [pc, #84]	@ (29290 <_start+0x21f4>)
   2923a:	4469      	add	r1, sp
   2923c:	78c8      	ldrb	r0, [r1, #3]
   2923e:	4d15      	ldr	r5, [pc, #84]	@ (29294 <_start+0x21f8>)
   29240:	446d      	add	r5, sp
   29242:	70a8      	strb	r0, [r5, #2]
   29244:	7848      	ldrb	r0, [r1, #1]
   29246:	788a      	ldrb	r2, [r1, #2]
   29248:	0212      	lsls	r2, r2, #8
   2924a:	1810      	adds	r0, r2, r0
   2924c:	8028      	strh	r0, [r5, #0]
   2924e:	9809      	ldr	r0, [sp, #36]	@ 0x24
   29250:	6e06      	ldr	r6, [r0, #96]	@ 0x60
   29252:	3108      	adds	r1, #8
   29254:	4810      	ldr	r0, [pc, #64]	@ (29298 <_start+0x21fc>)
   29256:	4468      	add	r0, sp
   29258:	900b      	str	r0, [sp, #44]	@ 0x2c
   2925a:	2252      	movs	r2, #82	@ 0x52
   2925c:	920a      	str	r2, [sp, #40]	@ 0x28
   2925e:	f001 f82b 	bl	2a2b8 <__aeabi_memcpy4>
   29262:	0e30      	lsrs	r0, r6, #24
   29264:	71a8      	strb	r0, [r5, #6]
   29266:	0c30      	lsrs	r0, r6, #16
   29268:	7168      	strb	r0, [r5, #5]
   2926a:	0a30      	lsrs	r0, r6, #8
   2926c:	7128      	strb	r0, [r5, #4]
   2926e:	70ee      	strb	r6, [r5, #3]
   29270:	1de8      	adds	r0, r5, #7
   29272:	990b      	ldr	r1, [sp, #44]	@ 0x2c
   29274:	9a0a      	ldr	r2, [sp, #40]	@ 0x28
   29276:	f001 f97f 	bl	2a578 <__aeabi_memcpy>
   2927a:	4e05      	ldr	r6, [pc, #20]	@ (29290 <_start+0x21f4>)
   2927c:	446e      	add	r6, sp
   2927e:	4630      	mov	r0, r6
   29280:	4629      	mov	r1, r5
   29282:	f7fd fcb5 	bl	26bf0 <_ZN20complex_dynamic_type3app17hf73daa8e09320859E>
   29286:	7830      	ldrb	r0, [r6, #0]
   29288:	2801      	cmp	r0, #1
   2928a:	d107      	bne.n	2929c <_start+0x2200>
   2928c:	f000 ff94 	bl	2a1b8 <_start+0x311c>
   29290:	00001404 	.word	0x00001404
   29294:	00000c14 	.word	0x00000c14
   29298:	000013a8 	.word	0x000013a8
   2929c:	4915      	ldr	r1, [pc, #84]	@ (292f4 <_start+0x2258>)
   2929e:	4469      	add	r1, sp
   292a0:	78c8      	ldrb	r0, [r1, #3]
   292a2:	4d15      	ldr	r5, [pc, #84]	@ (292f8 <_start+0x225c>)
   292a4:	446d      	add	r5, sp
   292a6:	70a8      	strb	r0, [r5, #2]
   292a8:	7848      	ldrb	r0, [r1, #1]
   292aa:	788a      	ldrb	r2, [r1, #2]
   292ac:	0212      	lsls	r2, r2, #8
   292ae:	1810      	adds	r0, r2, r0
   292b0:	8028      	strh	r0, [r5, #0]
   292b2:	9809      	ldr	r0, [sp, #36]	@ 0x24
   292b4:	6e06      	ldr	r6, [r0, #96]	@ 0x60
   292b6:	3108      	adds	r1, #8
   292b8:	4810      	ldr	r0, [pc, #64]	@ (292fc <_start+0x2260>)
   292ba:	4468      	add	r0, sp
   292bc:	900b      	str	r0, [sp, #44]	@ 0x2c
   292be:	2243      	movs	r2, #67	@ 0x43
   292c0:	920a      	str	r2, [sp, #40]	@ 0x28
   292c2:	f000 fff9 	bl	2a2b8 <__aeabi_memcpy4>
   292c6:	0e30      	lsrs	r0, r6, #24
   292c8:	71a8      	strb	r0, [r5, #6]
   292ca:	0c30      	lsrs	r0, r6, #16
   292cc:	7168      	strb	r0, [r5, #5]
   292ce:	0a30      	lsrs	r0, r6, #8
   292d0:	7128      	strb	r0, [r5, #4]
   292d2:	70ee      	strb	r6, [r5, #3]
   292d4:	1de8      	adds	r0, r5, #7
   292d6:	990b      	ldr	r1, [sp, #44]	@ 0x2c
   292d8:	9a0a      	ldr	r2, [sp, #40]	@ 0x28
   292da:	f001 f94d 	bl	2a578 <__aeabi_memcpy>
   292de:	4e05      	ldr	r6, [pc, #20]	@ (292f4 <_start+0x2258>)
   292e0:	446e      	add	r6, sp
   292e2:	4630      	mov	r0, r6
   292e4:	4629      	mov	r1, r5
   292e6:	f7fb fb1f 	bl	24928 <_ZN20complex_dynamic_type3app17hb0df980530ce1ee1E>
   292ea:	7830      	ldrb	r0, [r6, #0]
   292ec:	2801      	cmp	r0, #1
   292ee:	d107      	bne.n	29300 <_start+0x2264>
   292f0:	f000 ff62 	bl	2a1b8 <_start+0x311c>
   292f4:	00001404 	.word	0x00001404
   292f8:	00000c70 	.word	0x00000c70
   292fc:	000013a8 	.word	0x000013a8
   29300:	4818      	ldr	r0, [pc, #96]	@ (29364 <_start+0x22c8>)
   29302:	4468      	add	r0, sp
   29304:	78c1      	ldrb	r1, [r0, #3]
   29306:	4d18      	ldr	r5, [pc, #96]	@ (29368 <_start+0x22cc>)
   29308:	446d      	add	r5, sp
   2930a:	70a9      	strb	r1, [r5, #2]
   2930c:	7841      	ldrb	r1, [r0, #1]
   2930e:	7882      	ldrb	r2, [r0, #2]
   29310:	0212      	lsls	r2, r2, #8
   29312:	1851      	adds	r1, r2, r1
   29314:	8029      	strh	r1, [r5, #0]
   29316:	3008      	adds	r0, #8
   29318:	9909      	ldr	r1, [sp, #36]	@ 0x24
   2931a:	6e09      	ldr	r1, [r1, #96]	@ 0x60
   2931c:	910a      	str	r1, [sp, #40]	@ 0x28
   2931e:	4b13      	ldr	r3, [pc, #76]	@ (2936c <_start+0x22d0>)
   29320:	446b      	add	r3, sp
   29322:	930b      	str	r3, [sp, #44]	@ 0x2c
   29324:	c846      	ldmia	r0!, {r1, r2, r6}
   29326:	c346      	stmia	r3!, {r1, r2, r6}
   29328:	c846      	ldmia	r0!, {r1, r2, r6}
   2932a:	c346      	stmia	r3!, {r1, r2, r6}
   2932c:	c846      	ldmia	r0!, {r1, r2, r6}
   2932e:	c346      	stmia	r3!, {r1, r2, r6}
   29330:	8800      	ldrh	r0, [r0, #0]
   29332:	8018      	strh	r0, [r3, #0]
   29334:	990a      	ldr	r1, [sp, #40]	@ 0x28
   29336:	0e08      	lsrs	r0, r1, #24
   29338:	71a8      	strb	r0, [r5, #6]
   2933a:	0c08      	lsrs	r0, r1, #16
   2933c:	7168      	strb	r0, [r5, #5]
   2933e:	0a08      	lsrs	r0, r1, #8
   29340:	7128      	strb	r0, [r5, #4]
   29342:	70e9      	strb	r1, [r5, #3]
   29344:	1de8      	adds	r0, r5, #7
   29346:	2226      	movs	r2, #38	@ 0x26
   29348:	990b      	ldr	r1, [sp, #44]	@ 0x2c
   2934a:	f001 f915 	bl	2a578 <__aeabi_memcpy>
   2934e:	4e05      	ldr	r6, [pc, #20]	@ (29364 <_start+0x22c8>)
   29350:	446e      	add	r6, sp
   29352:	4630      	mov	r0, r6
   29354:	4629      	mov	r1, r5
   29356:	f7f9 ff4b 	bl	231f0 <_ZN20complex_dynamic_type3app17h7176a10f0db8083aE>
   2935a:	7830      	ldrb	r0, [r6, #0]
   2935c:	2801      	cmp	r0, #1
   2935e:	d107      	bne.n	29370 <_start+0x22d4>
   29360:	f000 ff2a 	bl	2a1b8 <_start+0x311c>
   29364:	00001404 	.word	0x00001404
   29368:	00000cbc 	.word	0x00000cbc
   2936c:	000013a8 	.word	0x000013a8
   29370:	4915      	ldr	r1, [pc, #84]	@ (293c8 <_start+0x232c>)
   29372:	4469      	add	r1, sp
   29374:	78c8      	ldrb	r0, [r1, #3]
   29376:	4d15      	ldr	r5, [pc, #84]	@ (293cc <_start+0x2330>)
   29378:	446d      	add	r5, sp
   2937a:	70a8      	strb	r0, [r5, #2]
   2937c:	7848      	ldrb	r0, [r1, #1]
   2937e:	788a      	ldrb	r2, [r1, #2]
   29380:	0212      	lsls	r2, r2, #8
   29382:	1810      	adds	r0, r2, r0
   29384:	8028      	strh	r0, [r5, #0]
   29386:	9809      	ldr	r0, [sp, #36]	@ 0x24
   29388:	6e06      	ldr	r6, [r0, #96]	@ 0x60
   2938a:	3108      	adds	r1, #8
   2938c:	4810      	ldr	r0, [pc, #64]	@ (293d0 <_start+0x2334>)
   2938e:	4468      	add	r0, sp
   29390:	900b      	str	r0, [sp, #44]	@ 0x2c
   29392:	224c      	movs	r2, #76	@ 0x4c
   29394:	920a      	str	r2, [sp, #40]	@ 0x28
   29396:	f000 ff8f 	bl	2a2b8 <__aeabi_memcpy4>
   2939a:	0e30      	lsrs	r0, r6, #24
   2939c:	71a8      	strb	r0, [r5, #6]
   2939e:	0c30      	lsrs	r0, r6, #16
   293a0:	7168      	strb	r0, [r5, #5]
   293a2:	0a30      	lsrs	r0, r6, #8
   293a4:	7128      	strb	r0, [r5, #4]
   293a6:	70ee      	strb	r6, [r5, #3]
   293a8:	1de8      	adds	r0, r5, #7
   293aa:	990b      	ldr	r1, [sp, #44]	@ 0x2c
   293ac:	9a0a      	ldr	r2, [sp, #40]	@ 0x28
   293ae:	f001 f8e3 	bl	2a578 <__aeabi_memcpy>
   293b2:	4e05      	ldr	r6, [pc, #20]	@ (293c8 <_start+0x232c>)
   293b4:	446e      	add	r6, sp
   293b6:	4630      	mov	r0, r6
   293b8:	4629      	mov	r1, r5
   293ba:	f7fd f927 	bl	2660c <_ZN20complex_dynamic_type3app17hebeb75f4c784f321E>
   293be:	7830      	ldrb	r0, [r6, #0]
   293c0:	2801      	cmp	r0, #1
   293c2:	d107      	bne.n	293d4 <_start+0x2338>
   293c4:	f000 fef8 	bl	2a1b8 <_start+0x311c>
   293c8:	00001404 	.word	0x00001404
   293cc:	00000cec 	.word	0x00000cec
   293d0:	000013a8 	.word	0x000013a8
   293d4:	481a      	ldr	r0, [pc, #104]	@ (29440 <_start+0x23a4>)
   293d6:	4468      	add	r0, sp
   293d8:	78c1      	ldrb	r1, [r0, #3]
   293da:	4b1a      	ldr	r3, [pc, #104]	@ (29444 <_start+0x23a8>)
   293dc:	446b      	add	r3, sp
   293de:	930a      	str	r3, [sp, #40]	@ 0x28
   293e0:	7099      	strb	r1, [r3, #2]
   293e2:	7841      	ldrb	r1, [r0, #1]
   293e4:	7882      	ldrb	r2, [r0, #2]
   293e6:	0212      	lsls	r2, r2, #8
   293e8:	1851      	adds	r1, r2, r1
   293ea:	8019      	strh	r1, [r3, #0]
   293ec:	3008      	adds	r0, #8
   293ee:	9909      	ldr	r1, [sp, #36]	@ 0x24
   293f0:	6e09      	ldr	r1, [r1, #96]	@ 0x60
   293f2:	9108      	str	r1, [sp, #32]
   293f4:	4b14      	ldr	r3, [pc, #80]	@ (29448 <_start+0x23ac>)
   293f6:	446b      	add	r3, sp
   293f8:	930b      	str	r3, [sp, #44]	@ 0x2c
   293fa:	c866      	ldmia	r0!, {r1, r2, r5, r6}
   293fc:	c366      	stmia	r3!, {r1, r2, r5, r6}
   293fe:	c866      	ldmia	r0!, {r1, r2, r5, r6}
   29400:	c366      	stmia	r3!, {r1, r2, r5, r6}
   29402:	c866      	ldmia	r0!, {r1, r2, r5, r6}
   29404:	c366      	stmia	r3!, {r1, r2, r5, r6}
   29406:	8801      	ldrh	r1, [r0, #0]
   29408:	8019      	strh	r1, [r3, #0]
   2940a:	7880      	ldrb	r0, [r0, #2]
   2940c:	7098      	strb	r0, [r3, #2]
   2940e:	9908      	ldr	r1, [sp, #32]
   29410:	0e08      	lsrs	r0, r1, #24
   29412:	9d0a      	ldr	r5, [sp, #40]	@ 0x28
   29414:	71a8      	strb	r0, [r5, #6]
   29416:	0c08      	lsrs	r0, r1, #16
   29418:	7168      	strb	r0, [r5, #5]
   2941a:	0a08      	lsrs	r0, r1, #8
   2941c:	7128      	strb	r0, [r5, #4]
   2941e:	70e9      	strb	r1, [r5, #3]
   29420:	1de8      	adds	r0, r5, #7
   29422:	2233      	movs	r2, #51	@ 0x33
   29424:	990b      	ldr	r1, [sp, #44]	@ 0x2c
   29426:	f001 f8a7 	bl	2a578 <__aeabi_memcpy>
   2942a:	4e05      	ldr	r6, [pc, #20]	@ (29440 <_start+0x23a4>)
   2942c:	446e      	add	r6, sp
   2942e:	4630      	mov	r0, r6
   29430:	4629      	mov	r1, r5
   29432:	f7fa f9b7 	bl	237a4 <_ZN20complex_dynamic_type3app17h85d139267e8fe921E>
   29436:	7830      	ldrb	r0, [r6, #0]
   29438:	2801      	cmp	r0, #1
   2943a:	d107      	bne.n	2944c <_start+0x23b0>
   2943c:	f000 febc 	bl	2a1b8 <_start+0x311c>
   29440:	00001404 	.word	0x00001404
   29444:	00000d40 	.word	0x00000d40
   29448:	000013a8 	.word	0x000013a8
   2944c:	4915      	ldr	r1, [pc, #84]	@ (294a4 <_start+0x2408>)
   2944e:	4469      	add	r1, sp
   29450:	78c8      	ldrb	r0, [r1, #3]
   29452:	4d15      	ldr	r5, [pc, #84]	@ (294a8 <_start+0x240c>)
   29454:	446d      	add	r5, sp
   29456:	70a8      	strb	r0, [r5, #2]
   29458:	7848      	ldrb	r0, [r1, #1]
   2945a:	788a      	ldrb	r2, [r1, #2]
   2945c:	0212      	lsls	r2, r2, #8
   2945e:	1810      	adds	r0, r2, r0
   29460:	8028      	strh	r0, [r5, #0]
   29462:	9809      	ldr	r0, [sp, #36]	@ 0x24
   29464:	6e06      	ldr	r6, [r0, #96]	@ 0x60
   29466:	3108      	adds	r1, #8
   29468:	4810      	ldr	r0, [pc, #64]	@ (294ac <_start+0x2410>)
   2946a:	4468      	add	r0, sp
   2946c:	900b      	str	r0, [sp, #44]	@ 0x2c
   2946e:	2256      	movs	r2, #86	@ 0x56
   29470:	920a      	str	r2, [sp, #40]	@ 0x28
   29472:	f000 ff21 	bl	2a2b8 <__aeabi_memcpy4>
   29476:	0e30      	lsrs	r0, r6, #24
   29478:	71a8      	strb	r0, [r5, #6]
   2947a:	0c30      	lsrs	r0, r6, #16
   2947c:	7168      	strb	r0, [r5, #5]
   2947e:	0a30      	lsrs	r0, r6, #8
   29480:	7128      	strb	r0, [r5, #4]
   29482:	70ee      	strb	r6, [r5, #3]
   29484:	1de8      	adds	r0, r5, #7
   29486:	990b      	ldr	r1, [sp, #44]	@ 0x2c
   29488:	9a0a      	ldr	r2, [sp, #40]	@ 0x28
   2948a:	f001 f875 	bl	2a578 <__aeabi_memcpy>
   2948e:	4e05      	ldr	r6, [pc, #20]	@ (294a4 <_start+0x2408>)
   29490:	446e      	add	r6, sp
   29492:	4630      	mov	r0, r6
   29494:	4629      	mov	r1, r5
   29496:	f7fd fcd9 	bl	26e4c <_ZN20complex_dynamic_type3app17hfcfc46a0def3489aE>
   2949a:	7830      	ldrb	r0, [r6, #0]
   2949c:	2801      	cmp	r0, #1
   2949e:	d107      	bne.n	294b0 <_start+0x2414>
   294a0:	f000 fe8a 	bl	2a1b8 <_start+0x311c>
   294a4:	00001404 	.word	0x00001404
   294a8:	00000d7c 	.word	0x00000d7c
   294ac:	000013a8 	.word	0x000013a8
   294b0:	481a      	ldr	r0, [pc, #104]	@ (2951c <_start+0x2480>)
   294b2:	4468      	add	r0, sp
   294b4:	78c1      	ldrb	r1, [r0, #3]
   294b6:	4b1a      	ldr	r3, [pc, #104]	@ (29520 <_start+0x2484>)
   294b8:	446b      	add	r3, sp
   294ba:	930a      	str	r3, [sp, #40]	@ 0x28
   294bc:	7099      	strb	r1, [r3, #2]
   294be:	7841      	ldrb	r1, [r0, #1]
   294c0:	7882      	ldrb	r2, [r0, #2]
   294c2:	0212      	lsls	r2, r2, #8
   294c4:	1851      	adds	r1, r2, r1
   294c6:	8019      	strh	r1, [r3, #0]
   294c8:	3008      	adds	r0, #8
   294ca:	9909      	ldr	r1, [sp, #36]	@ 0x24
   294cc:	6e09      	ldr	r1, [r1, #96]	@ 0x60
   294ce:	9108      	str	r1, [sp, #32]
   294d0:	4b14      	ldr	r3, [pc, #80]	@ (29524 <_start+0x2488>)
   294d2:	446b      	add	r3, sp
   294d4:	930b      	str	r3, [sp, #44]	@ 0x2c
   294d6:	c846      	ldmia	r0!, {r1, r2, r6}
   294d8:	c346      	stmia	r3!, {r1, r2, r6}
   294da:	c866      	ldmia	r0!, {r1, r2, r5, r6}
   294dc:	c366      	stmia	r3!, {r1, r2, r5, r6}
   294de:	c826      	ldmia	r0!, {r1, r2, r5}
   294e0:	c326      	stmia	r3!, {r1, r2, r5}
   294e2:	c866      	ldmia	r0!, {r1, r2, r5, r6}
   294e4:	c366      	stmia	r3!, {r1, r2, r5, r6}
   294e6:	7800      	ldrb	r0, [r0, #0]
   294e8:	7018      	strb	r0, [r3, #0]
   294ea:	9908      	ldr	r1, [sp, #32]
   294ec:	0e08      	lsrs	r0, r1, #24
   294ee:	9d0a      	ldr	r5, [sp, #40]	@ 0x28
   294f0:	71a8      	strb	r0, [r5, #6]
   294f2:	0c08      	lsrs	r0, r1, #16
   294f4:	7168      	strb	r0, [r5, #5]
   294f6:	0a08      	lsrs	r0, r1, #8
   294f8:	7128      	strb	r0, [r5, #4]
   294fa:	70e9      	strb	r1, [r5, #3]
   294fc:	1de8      	adds	r0, r5, #7
   294fe:	2239      	movs	r2, #57	@ 0x39
   29500:	990b      	ldr	r1, [sp, #44]	@ 0x2c
   29502:	f001 f839 	bl	2a578 <__aeabi_memcpy>
   29506:	4e05      	ldr	r6, [pc, #20]	@ (2951c <_start+0x2480>)
   29508:	446e      	add	r6, sp
   2950a:	4630      	mov	r0, r6
   2950c:	4629      	mov	r1, r5
   2950e:	f7fb f85b 	bl	245c8 <_ZN20complex_dynamic_type3app17ha3a4ea5947fe68acE>
   29512:	7830      	ldrb	r0, [r6, #0]
   29514:	2801      	cmp	r0, #1
   29516:	d107      	bne.n	29528 <_start+0x248c>
   29518:	f000 fe4e 	bl	2a1b8 <_start+0x311c>
   2951c:	00001404 	.word	0x00001404
   29520:	00000ddc 	.word	0x00000ddc
   29524:	000013a8 	.word	0x000013a8
   29528:	4819      	ldr	r0, [pc, #100]	@ (29590 <_start+0x24f4>)
   2952a:	4468      	add	r0, sp
   2952c:	78c1      	ldrb	r1, [r0, #3]
   2952e:	4b19      	ldr	r3, [pc, #100]	@ (29594 <_start+0x24f8>)
   29530:	446b      	add	r3, sp
   29532:	930a      	str	r3, [sp, #40]	@ 0x28
   29534:	7099      	strb	r1, [r3, #2]
   29536:	7841      	ldrb	r1, [r0, #1]
   29538:	7882      	ldrb	r2, [r0, #2]
   2953a:	0212      	lsls	r2, r2, #8
   2953c:	1851      	adds	r1, r2, r1
   2953e:	8019      	strh	r1, [r3, #0]
   29540:	3008      	adds	r0, #8
   29542:	9909      	ldr	r1, [sp, #36]	@ 0x24
   29544:	6e09      	ldr	r1, [r1, #96]	@ 0x60
   29546:	9108      	str	r1, [sp, #32]
   29548:	4b13      	ldr	r3, [pc, #76]	@ (29598 <_start+0x24fc>)
   2954a:	446b      	add	r3, sp
   2954c:	930b      	str	r3, [sp, #44]	@ 0x2c
   2954e:	c846      	ldmia	r0!, {r1, r2, r6}
   29550:	c346      	stmia	r3!, {r1, r2, r6}
   29552:	c846      	ldmia	r0!, {r1, r2, r6}
   29554:	c346      	stmia	r3!, {r1, r2, r6}
   29556:	c866      	ldmia	r0!, {r1, r2, r5, r6}
   29558:	c366      	stmia	r3!, {r1, r2, r5, r6}
   2955a:	8800      	ldrh	r0, [r0, #0]
   2955c:	8018      	strh	r0, [r3, #0]
   2955e:	9908      	ldr	r1, [sp, #32]
   29560:	0e08      	lsrs	r0, r1, #24
   29562:	9d0a      	ldr	r5, [sp, #40]	@ 0x28
   29564:	71a8      	strb	r0, [r5, #6]
   29566:	0c08      	lsrs	r0, r1, #16
   29568:	7168      	strb	r0, [r5, #5]
   2956a:	0a08      	lsrs	r0, r1, #8
   2956c:	7128      	strb	r0, [r5, #4]
   2956e:	70e9      	strb	r1, [r5, #3]
   29570:	1de8      	adds	r0, r5, #7
   29572:	222a      	movs	r2, #42	@ 0x2a
   29574:	990b      	ldr	r1, [sp, #44]	@ 0x2c
   29576:	f000 ffff 	bl	2a578 <__aeabi_memcpy>
   2957a:	4e05      	ldr	r6, [pc, #20]	@ (29590 <_start+0x24f4>)
   2957c:	446e      	add	r6, sp
   2957e:	4630      	mov	r0, r6
   29580:	4629      	mov	r1, r5
   29582:	f7f8 fbab 	bl	21cdc <_ZN20complex_dynamic_type3app17h3372fd64bfa5ae74E>
   29586:	7830      	ldrb	r0, [r6, #0]
   29588:	2801      	cmp	r0, #1
   2958a:	d107      	bne.n	2959c <_start+0x2500>
   2958c:	f000 fe14 	bl	2a1b8 <_start+0x311c>
   29590:	00001404 	.word	0x00001404
   29594:	00000e1c 	.word	0x00000e1c
   29598:	000013a8 	.word	0x000013a8
   2959c:	4915      	ldr	r1, [pc, #84]	@ (295f4 <_start+0x2558>)
   2959e:	4469      	add	r1, sp
   295a0:	78c8      	ldrb	r0, [r1, #3]
   295a2:	4d15      	ldr	r5, [pc, #84]	@ (295f8 <_start+0x255c>)
   295a4:	446d      	add	r5, sp
   295a6:	70a8      	strb	r0, [r5, #2]
   295a8:	7848      	ldrb	r0, [r1, #1]
   295aa:	788a      	ldrb	r2, [r1, #2]
   295ac:	0212      	lsls	r2, r2, #8
   295ae:	1810      	adds	r0, r2, r0
   295b0:	8028      	strh	r0, [r5, #0]
   295b2:	9809      	ldr	r0, [sp, #36]	@ 0x24
   295b4:	6e06      	ldr	r6, [r0, #96]	@ 0x60
   295b6:	3108      	adds	r1, #8
   295b8:	4810      	ldr	r0, [pc, #64]	@ (295fc <_start+0x2560>)
   295ba:	4468      	add	r0, sp
   295bc:	900b      	str	r0, [sp, #44]	@ 0x2c
   295be:	2241      	movs	r2, #65	@ 0x41
   295c0:	920a      	str	r2, [sp, #40]	@ 0x28
   295c2:	f000 fe79 	bl	2a2b8 <__aeabi_memcpy4>
   295c6:	0e30      	lsrs	r0, r6, #24
   295c8:	71a8      	strb	r0, [r5, #6]
   295ca:	0c30      	lsrs	r0, r6, #16
   295cc:	7168      	strb	r0, [r5, #5]
   295ce:	0a30      	lsrs	r0, r6, #8
   295d0:	7128      	strb	r0, [r5, #4]
   295d2:	70ee      	strb	r6, [r5, #3]
   295d4:	1de8      	adds	r0, r5, #7
   295d6:	990b      	ldr	r1, [sp, #44]	@ 0x2c
   295d8:	9a0a      	ldr	r2, [sp, #40]	@ 0x28
   295da:	f000 ffcd 	bl	2a578 <__aeabi_memcpy>
   295de:	4e05      	ldr	r6, [pc, #20]	@ (295f4 <_start+0x2558>)
   295e0:	446e      	add	r6, sp
   295e2:	4630      	mov	r0, r6
   295e4:	4629      	mov	r1, r5
   295e6:	f7fd fa6b 	bl	26ac0 <_ZN20complex_dynamic_type3app17hf169a1091b609218E>
   295ea:	7830      	ldrb	r0, [r6, #0]
   295ec:	2801      	cmp	r0, #1
   295ee:	d107      	bne.n	29600 <_start+0x2564>
   295f0:	f000 fde2 	bl	2a1b8 <_start+0x311c>
   295f4:	00001404 	.word	0x00001404
   295f8:	00000e50 	.word	0x00000e50
   295fc:	000013a8 	.word	0x000013a8
   29600:	4818      	ldr	r0, [pc, #96]	@ (29664 <_start+0x25c8>)
   29602:	4468      	add	r0, sp
   29604:	78c1      	ldrb	r1, [r0, #3]
   29606:	4b18      	ldr	r3, [pc, #96]	@ (29668 <_start+0x25cc>)
   29608:	446b      	add	r3, sp
   2960a:	930a      	str	r3, [sp, #40]	@ 0x28
   2960c:	7099      	strb	r1, [r3, #2]
   2960e:	7841      	ldrb	r1, [r0, #1]
   29610:	7882      	ldrb	r2, [r0, #2]
   29612:	0212      	lsls	r2, r2, #8
   29614:	1851      	adds	r1, r2, r1
   29616:	8019      	strh	r1, [r3, #0]
   29618:	3008      	adds	r0, #8
   2961a:	9909      	ldr	r1, [sp, #36]	@ 0x24
   2961c:	6e09      	ldr	r1, [r1, #96]	@ 0x60
   2961e:	9108      	str	r1, [sp, #32]
   29620:	4b12      	ldr	r3, [pc, #72]	@ (2966c <_start+0x25d0>)
   29622:	446b      	add	r3, sp
   29624:	930b      	str	r3, [sp, #44]	@ 0x2c
   29626:	c866      	ldmia	r0!, {r1, r2, r5, r6}
   29628:	c366      	stmia	r3!, {r1, r2, r5, r6}
   2962a:	c866      	ldmia	r0!, {r1, r2, r5, r6}
   2962c:	c366      	stmia	r3!, {r1, r2, r5, r6}
   2962e:	8800      	ldrh	r0, [r0, #0]
   29630:	8018      	strh	r0, [r3, #0]
   29632:	9908      	ldr	r1, [sp, #32]
   29634:	0e08      	lsrs	r0, r1, #24
   29636:	9d0a      	ldr	r5, [sp, #40]	@ 0x28
   29638:	71a8      	strb	r0, [r5, #6]
   2963a:	0c08      	lsrs	r0, r1, #16
   2963c:	7168      	strb	r0, [r5, #5]
   2963e:	0a08      	lsrs	r0, r1, #8
   29640:	7128      	strb	r0, [r5, #4]
   29642:	70e9      	strb	r1, [r5, #3]
   29644:	1de8      	adds	r0, r5, #7
   29646:	2222      	movs	r2, #34	@ 0x22
   29648:	990b      	ldr	r1, [sp, #44]	@ 0x2c
   2964a:	f000 ff95 	bl	2a578 <__aeabi_memcpy>
   2964e:	4e05      	ldr	r6, [pc, #20]	@ (29664 <_start+0x25c8>)
   29650:	446e      	add	r6, sp
   29652:	4630      	mov	r0, r6
   29654:	4629      	mov	r1, r5
   29656:	f7fa fc2f 	bl	23eb8 <_ZN20complex_dynamic_type3app17h9bcb08ce6ca4a26bE>
   2965a:	7830      	ldrb	r0, [r6, #0]
   2965c:	2801      	cmp	r0, #1
   2965e:	d107      	bne.n	29670 <_start+0x25d4>
   29660:	f000 fdaa 	bl	2a1b8 <_start+0x311c>
   29664:	00001404 	.word	0x00001404
   29668:	00000e98 	.word	0x00000e98
   2966c:	000013a8 	.word	0x000013a8
   29670:	4818      	ldr	r0, [pc, #96]	@ (296d4 <_start+0x2638>)
   29672:	4468      	add	r0, sp
   29674:	78c1      	ldrb	r1, [r0, #3]
   29676:	4b18      	ldr	r3, [pc, #96]	@ (296d8 <_start+0x263c>)
   29678:	446b      	add	r3, sp
   2967a:	930a      	str	r3, [sp, #40]	@ 0x28
   2967c:	7099      	strb	r1, [r3, #2]
   2967e:	7841      	ldrb	r1, [r0, #1]
   29680:	7882      	ldrb	r2, [r0, #2]
   29682:	0212      	lsls	r2, r2, #8
   29684:	1851      	adds	r1, r2, r1
   29686:	8019      	strh	r1, [r3, #0]
   29688:	3008      	adds	r0, #8
   2968a:	9909      	ldr	r1, [sp, #36]	@ 0x24
   2968c:	6e09      	ldr	r1, [r1, #96]	@ 0x60
   2968e:	9108      	str	r1, [sp, #32]
   29690:	4b12      	ldr	r3, [pc, #72]	@ (296dc <_start+0x2640>)
   29692:	446b      	add	r3, sp
   29694:	930b      	str	r3, [sp, #44]	@ 0x2c
   29696:	c866      	ldmia	r0!, {r1, r2, r5, r6}
   29698:	c366      	stmia	r3!, {r1, r2, r5, r6}
   2969a:	8801      	ldrh	r1, [r0, #0]
   2969c:	8019      	strh	r1, [r3, #0]
   2969e:	7880      	ldrb	r0, [r0, #2]
   296a0:	7098      	strb	r0, [r3, #2]
   296a2:	9908      	ldr	r1, [sp, #32]
   296a4:	0e08      	lsrs	r0, r1, #24
   296a6:	9d0a      	ldr	r5, [sp, #40]	@ 0x28
   296a8:	71a8      	strb	r0, [r5, #6]
   296aa:	0c08      	lsrs	r0, r1, #16
   296ac:	7168      	strb	r0, [r5, #5]
   296ae:	0a08      	lsrs	r0, r1, #8
   296b0:	7128      	strb	r0, [r5, #4]
   296b2:	70e9      	strb	r1, [r5, #3]
   296b4:	1de8      	adds	r0, r5, #7
   296b6:	2213      	movs	r2, #19
   296b8:	990b      	ldr	r1, [sp, #44]	@ 0x2c
   296ba:	f000 ff5d 	bl	2a578 <__aeabi_memcpy>
   296be:	4e05      	ldr	r6, [pc, #20]	@ (296d4 <_start+0x2638>)
   296c0:	446e      	add	r6, sp
   296c2:	4630      	mov	r0, r6
   296c4:	4629      	mov	r1, r5
   296c6:	f7f9 fb35 	bl	22d34 <_ZN20complex_dynamic_type3app17h649ef70e4408e39fE>
   296ca:	7830      	ldrb	r0, [r6, #0]
   296cc:	2801      	cmp	r0, #1
   296ce:	d107      	bne.n	296e0 <_start+0x2644>
   296d0:	f000 fd72 	bl	2a1b8 <_start+0x311c>
   296d4:	00001404 	.word	0x00001404
   296d8:	00000ec4 	.word	0x00000ec4
   296dc:	000013a8 	.word	0x000013a8
   296e0:	4816      	ldr	r0, [pc, #88]	@ (2973c <_start+0x26a0>)
   296e2:	4468      	add	r0, sp
   296e4:	78c1      	ldrb	r1, [r0, #3]
   296e6:	4d16      	ldr	r5, [pc, #88]	@ (29740 <_start+0x26a4>)
   296e8:	446d      	add	r5, sp
   296ea:	70a9      	strb	r1, [r5, #2]
   296ec:	7841      	ldrb	r1, [r0, #1]
   296ee:	7882      	ldrb	r2, [r0, #2]
   296f0:	0212      	lsls	r2, r2, #8
   296f2:	1851      	adds	r1, r2, r1
   296f4:	8029      	strh	r1, [r5, #0]
   296f6:	3008      	adds	r0, #8
   296f8:	9909      	ldr	r1, [sp, #36]	@ 0x24
   296fa:	6e09      	ldr	r1, [r1, #96]	@ 0x60
   296fc:	910a      	str	r1, [sp, #40]	@ 0x28
   296fe:	4b11      	ldr	r3, [pc, #68]	@ (29744 <_start+0x26a8>)
   29700:	446b      	add	r3, sp
   29702:	930b      	str	r3, [sp, #44]	@ 0x2c
   29704:	c844      	ldmia	r0!, {r2, r6}
   29706:	c344      	stmia	r3!, {r2, r6}
   29708:	c846      	ldmia	r0!, {r1, r2, r6}
   2970a:	c346      	stmia	r3!, {r1, r2, r6}
   2970c:	990a      	ldr	r1, [sp, #40]	@ 0x28
   2970e:	0e08      	lsrs	r0, r1, #24
   29710:	71a8      	strb	r0, [r5, #6]
   29712:	0c08      	lsrs	r0, r1, #16
   29714:	7168      	strb	r0, [r5, #5]
   29716:	0a08      	lsrs	r0, r1, #8
   29718:	7128      	strb	r0, [r5, #4]
   2971a:	70e9      	strb	r1, [r5, #3]
   2971c:	1de8      	adds	r0, r5, #7
   2971e:	2214      	movs	r2, #20
   29720:	990b      	ldr	r1, [sp, #44]	@ 0x2c
   29722:	f000 ff29 	bl	2a578 <__aeabi_memcpy>
   29726:	4e05      	ldr	r6, [pc, #20]	@ (2973c <_start+0x26a0>)
   29728:	446e      	add	r6, sp
   2972a:	4630      	mov	r0, r6
   2972c:	4629      	mov	r1, r5
   2972e:	f7fa fb2b 	bl	23d88 <_ZN20complex_dynamic_type3app17h98ad835171ac22b0E>
   29732:	7830      	ldrb	r0, [r6, #0]
   29734:	2801      	cmp	r0, #1
   29736:	d107      	bne.n	29748 <_start+0x26ac>
   29738:	f000 fd3e 	bl	2a1b8 <_start+0x311c>
   2973c:	00001404 	.word	0x00001404
   29740:	00000ee0 	.word	0x00000ee0
   29744:	000013a8 	.word	0x000013a8
   29748:	481a      	ldr	r0, [pc, #104]	@ (297b4 <_start+0x2718>)
   2974a:	4468      	add	r0, sp
   2974c:	78c1      	ldrb	r1, [r0, #3]
   2974e:	4b1a      	ldr	r3, [pc, #104]	@ (297b8 <_start+0x271c>)
   29750:	446b      	add	r3, sp
   29752:	930a      	str	r3, [sp, #40]	@ 0x28
   29754:	7099      	strb	r1, [r3, #2]
   29756:	7841      	ldrb	r1, [r0, #1]
   29758:	7882      	ldrb	r2, [r0, #2]
   2975a:	0212      	lsls	r2, r2, #8
   2975c:	1851      	adds	r1, r2, r1
   2975e:	8019      	strh	r1, [r3, #0]
   29760:	3008      	adds	r0, #8
   29762:	9909      	ldr	r1, [sp, #36]	@ 0x24
   29764:	6e09      	ldr	r1, [r1, #96]	@ 0x60
   29766:	9108      	str	r1, [sp, #32]
   29768:	4b14      	ldr	r3, [pc, #80]	@ (297bc <_start+0x2720>)
   2976a:	446b      	add	r3, sp
   2976c:	930b      	str	r3, [sp, #44]	@ 0x2c
   2976e:	c846      	ldmia	r0!, {r1, r2, r6}
   29770:	c346      	stmia	r3!, {r1, r2, r6}
   29772:	c866      	ldmia	r0!, {r1, r2, r5, r6}
   29774:	c366      	stmia	r3!, {r1, r2, r5, r6}
   29776:	c826      	ldmia	r0!, {r1, r2, r5}
   29778:	c326      	stmia	r3!, {r1, r2, r5}
   2977a:	c866      	ldmia	r0!, {r1, r2, r5, r6}
   2977c:	c366      	stmia	r3!, {r1, r2, r5, r6}
   2977e:	8800      	ldrh	r0, [r0, #0]
   29780:	8018      	strh	r0, [r3, #0]
   29782:	9908      	ldr	r1, [sp, #32]
   29784:	0e08      	lsrs	r0, r1, #24
   29786:	9d0a      	ldr	r5, [sp, #40]	@ 0x28
   29788:	71a8      	strb	r0, [r5, #6]
   2978a:	0c08      	lsrs	r0, r1, #16
   2978c:	7168      	strb	r0, [r5, #5]
   2978e:	0a08      	lsrs	r0, r1, #8
   29790:	7128      	strb	r0, [r5, #4]
   29792:	70e9      	strb	r1, [r5, #3]
   29794:	1de8      	adds	r0, r5, #7
   29796:	223a      	movs	r2, #58	@ 0x3a
   29798:	990b      	ldr	r1, [sp, #44]	@ 0x2c
   2979a:	f000 feed 	bl	2a578 <__aeabi_memcpy>
   2979e:	4e05      	ldr	r6, [pc, #20]	@ (297b4 <_start+0x2718>)
   297a0:	446e      	add	r6, sp
   297a2:	4630      	mov	r0, r6
   297a4:	4629      	mov	r1, r5
   297a6:	f7fa fde5 	bl	24374 <_ZN20complex_dynamic_type3app17ha0cdadd0201f52d4E>
   297aa:	7830      	ldrb	r0, [r6, #0]
   297ac:	2801      	cmp	r0, #1
   297ae:	d107      	bne.n	297c0 <_start+0x2724>
   297b0:	f000 fd02 	bl	2a1b8 <_start+0x311c>
   297b4:	00001404 	.word	0x00001404
   297b8:	00000efc 	.word	0x00000efc
   297bc:	000013a8 	.word	0x000013a8
   297c0:	4819      	ldr	r0, [pc, #100]	@ (29828 <_start+0x278c>)
   297c2:	4468      	add	r0, sp
   297c4:	78c1      	ldrb	r1, [r0, #3]
   297c6:	4b19      	ldr	r3, [pc, #100]	@ (2982c <_start+0x2790>)
   297c8:	446b      	add	r3, sp
   297ca:	9307      	str	r3, [sp, #28]
   297cc:	7099      	strb	r1, [r3, #2]
   297ce:	7841      	ldrb	r1, [r0, #1]
   297d0:	7882      	ldrb	r2, [r0, #2]
   297d2:	0212      	lsls	r2, r2, #8
   297d4:	1851      	adds	r1, r2, r1
   297d6:	8019      	strh	r1, [r3, #0]
   297d8:	3008      	adds	r0, #8
   297da:	9909      	ldr	r1, [sp, #36]	@ 0x24
   297dc:	6e09      	ldr	r1, [r1, #96]	@ 0x60
   297de:	9108      	str	r1, [sp, #32]
   297e0:	4913      	ldr	r1, [pc, #76]	@ (29830 <_start+0x2794>)
   297e2:	4469      	add	r1, sp
   297e4:	910a      	str	r1, [sp, #40]	@ 0x28
   297e6:	910b      	str	r1, [sp, #44]	@ 0x2c
   297e8:	9d0b      	ldr	r5, [sp, #44]	@ 0x2c
   297ea:	c84e      	ldmia	r0!, {r1, r2, r3, r6}
   297ec:	c54e      	stmia	r5!, {r1, r2, r3, r6}
   297ee:	950b      	str	r5, [sp, #44]	@ 0x2c
   297f0:	7800      	ldrb	r0, [r0, #0]
   297f2:	990b      	ldr	r1, [sp, #44]	@ 0x2c
   297f4:	7008      	strb	r0, [r1, #0]
   297f6:	9908      	ldr	r1, [sp, #32]
   297f8:	0e08      	lsrs	r0, r1, #24
   297fa:	9d07      	ldr	r5, [sp, #28]
   297fc:	71a8      	strb	r0, [r5, #6]
   297fe:	0c08      	lsrs	r0, r1, #16
   29800:	7168      	strb	r0, [r5, #5]
   29802:	0a08      	lsrs	r0, r1, #8
   29804:	7128      	strb	r0, [r5, #4]
   29806:	70e9      	strb	r1, [r5, #3]
   29808:	1de8      	adds	r0, r5, #7
   2980a:	2211      	movs	r2, #17
   2980c:	990a      	ldr	r1, [sp, #40]	@ 0x28
   2980e:	f000 feb3 	bl	2a578 <__aeabi_memcpy>
   29812:	4e05      	ldr	r6, [pc, #20]	@ (29828 <_start+0x278c>)
   29814:	446e      	add	r6, sp
   29816:	4630      	mov	r0, r6
   29818:	4629      	mov	r1, r5
   2981a:	f7f9 fd83 	bl	23324 <_ZN20complex_dynamic_type3app17h72fb49f6ba8b9828E>
   2981e:	7830      	ldrb	r0, [r6, #0]
   29820:	2801      	cmp	r0, #1
   29822:	d107      	bne.n	29834 <_start+0x2798>
   29824:	f000 fcc8 	bl	2a1b8 <_start+0x311c>
   29828:	00001404 	.word	0x00001404
   2982c:	00000f40 	.word	0x00000f40
   29830:	000013a8 	.word	0x000013a8
   29834:	4818      	ldr	r0, [pc, #96]	@ (29898 <_start+0x27fc>)
   29836:	4468      	add	r0, sp
   29838:	78c1      	ldrb	r1, [r0, #3]
   2983a:	4d18      	ldr	r5, [pc, #96]	@ (2989c <_start+0x2800>)
   2983c:	446d      	add	r5, sp
   2983e:	70a9      	strb	r1, [r5, #2]
   29840:	7841      	ldrb	r1, [r0, #1]
   29842:	7882      	ldrb	r2, [r0, #2]
   29844:	0212      	lsls	r2, r2, #8
   29846:	1851      	adds	r1, r2, r1
   29848:	8029      	strh	r1, [r5, #0]
   2984a:	3008      	adds	r0, #8
   2984c:	9909      	ldr	r1, [sp, #36]	@ 0x24
   2984e:	6e09      	ldr	r1, [r1, #96]	@ 0x60
   29850:	910a      	str	r1, [sp, #40]	@ 0x28
   29852:	4b13      	ldr	r3, [pc, #76]	@ (298a0 <_start+0x2804>)
   29854:	446b      	add	r3, sp
   29856:	930b      	str	r3, [sp, #44]	@ 0x2c
   29858:	c844      	ldmia	r0!, {r2, r6}
   2985a:	c344      	stmia	r3!, {r2, r6}
   2985c:	c846      	ldmia	r0!, {r1, r2, r6}
   2985e:	c346      	stmia	r3!, {r1, r2, r6}
   29860:	8801      	ldrh	r1, [r0, #0]
   29862:	8019      	strh	r1, [r3, #0]
   29864:	7880      	ldrb	r0, [r0, #2]
   29866:	7098      	strb	r0, [r3, #2]
   29868:	990a      	ldr	r1, [sp, #40]	@ 0x28
   2986a:	0e08      	lsrs	r0, r1, #24
   2986c:	71a8      	strb	r0, [r5, #6]
   2986e:	0c08      	lsrs	r0, r1, #16
   29870:	7168      	strb	r0, [r5, #5]
   29872:	0a08      	lsrs	r0, r1, #8
   29874:	7128      	strb	r0, [r5, #4]
   29876:	70e9      	strb	r1, [r5, #3]
   29878:	1de8      	adds	r0, r5, #7
   2987a:	2217      	movs	r2, #23
   2987c:	990b      	ldr	r1, [sp, #44]	@ 0x2c
   2987e:	f000 fe7b 	bl	2a578 <__aeabi_memcpy>
   29882:	4e05      	ldr	r6, [pc, #20]	@ (29898 <_start+0x27fc>)
   29884:	446e      	add	r6, sp
   29886:	4630      	mov	r0, r6
   29888:	4629      	mov	r1, r5
   2988a:	f7f7 f8cf 	bl	20a2c <_ZN20complex_dynamic_type3app17h113becc6d961bd7bE>
   2988e:	7830      	ldrb	r0, [r6, #0]
   29890:	2801      	cmp	r0, #1
   29892:	d107      	bne.n	298a4 <_start+0x2808>
   29894:	f000 fc90 	bl	2a1b8 <_start+0x311c>
   29898:	00001404 	.word	0x00001404
   2989c:	00000f58 	.word	0x00000f58
   298a0:	000013a8 	.word	0x000013a8
   298a4:	481a      	ldr	r0, [pc, #104]	@ (29910 <_start+0x2874>)
   298a6:	4468      	add	r0, sp
   298a8:	78c1      	ldrb	r1, [r0, #3]
   298aa:	4b1a      	ldr	r3, [pc, #104]	@ (29914 <_start+0x2878>)
   298ac:	446b      	add	r3, sp
   298ae:	930a      	str	r3, [sp, #40]	@ 0x28
   298b0:	7099      	strb	r1, [r3, #2]
   298b2:	7841      	ldrb	r1, [r0, #1]
   298b4:	7882      	ldrb	r2, [r0, #2]
   298b6:	0212      	lsls	r2, r2, #8
   298b8:	1851      	adds	r1, r2, r1
   298ba:	8019      	strh	r1, [r3, #0]
   298bc:	3008      	adds	r0, #8
   298be:	9909      	ldr	r1, [sp, #36]	@ 0x24
   298c0:	6e09      	ldr	r1, [r1, #96]	@ 0x60
   298c2:	9108      	str	r1, [sp, #32]
   298c4:	4b14      	ldr	r3, [pc, #80]	@ (29918 <_start+0x287c>)
   298c6:	446b      	add	r3, sp
   298c8:	930b      	str	r3, [sp, #44]	@ 0x2c
   298ca:	c846      	ldmia	r0!, {r1, r2, r6}
   298cc:	c346      	stmia	r3!, {r1, r2, r6}
   298ce:	c846      	ldmia	r0!, {r1, r2, r6}
   298d0:	c346      	stmia	r3!, {r1, r2, r6}
   298d2:	c846      	ldmia	r0!, {r1, r2, r6}
   298d4:	c346      	stmia	r3!, {r1, r2, r6}
   298d6:	c866      	ldmia	r0!, {r1, r2, r5, r6}
   298d8:	c366      	stmia	r3!, {r1, r2, r5, r6}
   298da:	7800      	ldrb	r0, [r0, #0]
   298dc:	7018      	strb	r0, [r3, #0]
   298de:	9908      	ldr	r1, [sp, #32]
   298e0:	0e08      	lsrs	r0, r1, #24
   298e2:	9d0a      	ldr	r5, [sp, #40]	@ 0x28
   298e4:	71a8      	strb	r0, [r5, #6]
   298e6:	0c08      	lsrs	r0, r1, #16
   298e8:	7168      	strb	r0, [r5, #5]
   298ea:	0a08      	lsrs	r0, r1, #8
   298ec:	7128      	strb	r0, [r5, #4]
   298ee:	70e9      	strb	r1, [r5, #3]
   298f0:	1de8      	adds	r0, r5, #7
   298f2:	2235      	movs	r2, #53	@ 0x35
   298f4:	990b      	ldr	r1, [sp, #44]	@ 0x2c
   298f6:	f000 fe3f 	bl	2a578 <__aeabi_memcpy>
   298fa:	4e05      	ldr	r6, [pc, #20]	@ (29910 <_start+0x2874>)
   298fc:	446e      	add	r6, sp
   298fe:	4630      	mov	r0, r6
   29900:	4629      	mov	r1, r5
   29902:	f7fb fc11 	bl	25128 <_ZN20complex_dynamic_type3app17hc74fabfcdf258e68E>
   29906:	7830      	ldrb	r0, [r6, #0]
   29908:	2801      	cmp	r0, #1
   2990a:	d107      	bne.n	2991c <_start+0x2880>
   2990c:	f000 fc54 	bl	2a1b8 <_start+0x311c>
   29910:	00001404 	.word	0x00001404
   29914:	00000f78 	.word	0x00000f78
   29918:	000013a8 	.word	0x000013a8
   2991c:	4818      	ldr	r0, [pc, #96]	@ (29980 <_start+0x28e4>)
   2991e:	4468      	add	r0, sp
   29920:	78c1      	ldrb	r1, [r0, #3]
   29922:	4d18      	ldr	r5, [pc, #96]	@ (29984 <_start+0x28e8>)
   29924:	446d      	add	r5, sp
   29926:	70a9      	strb	r1, [r5, #2]
   29928:	7841      	ldrb	r1, [r0, #1]
   2992a:	7882      	ldrb	r2, [r0, #2]
   2992c:	0212      	lsls	r2, r2, #8
   2992e:	1851      	adds	r1, r2, r1
   29930:	8029      	strh	r1, [r5, #0]
   29932:	3008      	adds	r0, #8
   29934:	9909      	ldr	r1, [sp, #36]	@ 0x24
   29936:	6e09      	ldr	r1, [r1, #96]	@ 0x60
   29938:	910a      	str	r1, [sp, #40]	@ 0x28
   2993a:	4b13      	ldr	r3, [pc, #76]	@ (29988 <_start+0x28ec>)
   2993c:	446b      	add	r3, sp
   2993e:	930b      	str	r3, [sp, #44]	@ 0x2c
   29940:	c846      	ldmia	r0!, {r1, r2, r6}
   29942:	c346      	stmia	r3!, {r1, r2, r6}
   29944:	c846      	ldmia	r0!, {r1, r2, r6}
   29946:	c346      	stmia	r3!, {r1, r2, r6}
   29948:	c846      	ldmia	r0!, {r1, r2, r6}
   2994a:	c346      	stmia	r3!, {r1, r2, r6}
   2994c:	7800      	ldrb	r0, [r0, #0]
   2994e:	7018      	strb	r0, [r3, #0]
   29950:	990a      	ldr	r1, [sp, #40]	@ 0x28
   29952:	0e08      	lsrs	r0, r1, #24
   29954:	71a8      	strb	r0, [r5, #6]
   29956:	0c08      	lsrs	r0, r1, #16
   29958:	7168      	strb	r0, [r5, #5]
   2995a:	0a08      	lsrs	r0, r1, #8
   2995c:	7128      	strb	r0, [r5, #4]
   2995e:	70e9      	strb	r1, [r5, #3]
   29960:	1de8      	adds	r0, r5, #7
   29962:	2225      	movs	r2, #37	@ 0x25
   29964:	990b      	ldr	r1, [sp, #44]	@ 0x2c
   29966:	f000 fe07 	bl	2a578 <__aeabi_memcpy>
   2996a:	4e05      	ldr	r6, [pc, #20]	@ (29980 <_start+0x28e4>)
   2996c:	446e      	add	r6, sp
   2996e:	4630      	mov	r0, r6
   29970:	4629      	mov	r1, r5
   29972:	f7fc f903 	bl	25b7c <_ZN20complex_dynamic_type3app17hd8e638bafceaaf27E>
   29976:	7830      	ldrb	r0, [r6, #0]
   29978:	2801      	cmp	r0, #1
   2997a:	d107      	bne.n	2998c <_start+0x28f0>
   2997c:	f000 fc1c 	bl	2a1b8 <_start+0x311c>
   29980:	00001404 	.word	0x00001404
   29984:	00000fb4 	.word	0x00000fb4
   29988:	000013a8 	.word	0x000013a8
   2998c:	4817      	ldr	r0, [pc, #92]	@ (299ec <_start+0x2950>)
   2998e:	4468      	add	r0, sp
   29990:	78c1      	ldrb	r1, [r0, #3]
   29992:	4b17      	ldr	r3, [pc, #92]	@ (299f0 <_start+0x2954>)
   29994:	446b      	add	r3, sp
   29996:	930a      	str	r3, [sp, #40]	@ 0x28
   29998:	7099      	strb	r1, [r3, #2]
   2999a:	7841      	ldrb	r1, [r0, #1]
   2999c:	7882      	ldrb	r2, [r0, #2]
   2999e:	0212      	lsls	r2, r2, #8
   299a0:	1851      	adds	r1, r2, r1
   299a2:	8019      	strh	r1, [r3, #0]
   299a4:	3008      	adds	r0, #8
   299a6:	9909      	ldr	r1, [sp, #36]	@ 0x24
   299a8:	6e09      	ldr	r1, [r1, #96]	@ 0x60
   299aa:	9108      	str	r1, [sp, #32]
   299ac:	4b11      	ldr	r3, [pc, #68]	@ (299f4 <_start+0x2958>)
   299ae:	446b      	add	r3, sp
   299b0:	930b      	str	r3, [sp, #44]	@ 0x2c
   299b2:	c866      	ldmia	r0!, {r1, r2, r5, r6}
   299b4:	c366      	stmia	r3!, {r1, r2, r5, r6}
   299b6:	c866      	ldmia	r0!, {r1, r2, r5, r6}
   299b8:	c366      	stmia	r3!, {r1, r2, r5, r6}
   299ba:	9908      	ldr	r1, [sp, #32]
   299bc:	0e08      	lsrs	r0, r1, #24
   299be:	9d0a      	ldr	r5, [sp, #40]	@ 0x28
   299c0:	71a8      	strb	r0, [r5, #6]
   299c2:	0c08      	lsrs	r0, r1, #16
   299c4:	7168      	strb	r0, [r5, #5]
   299c6:	0a08      	lsrs	r0, r1, #8
   299c8:	7128      	strb	r0, [r5, #4]
   299ca:	70e9      	strb	r1, [r5, #3]
   299cc:	1de8      	adds	r0, r5, #7
   299ce:	2220      	movs	r2, #32
   299d0:	990b      	ldr	r1, [sp, #44]	@ 0x2c
   299d2:	f000 fdd1 	bl	2a578 <__aeabi_memcpy>
   299d6:	4e05      	ldr	r6, [pc, #20]	@ (299ec <_start+0x2950>)
   299d8:	446e      	add	r6, sp
   299da:	4630      	mov	r0, r6
   299dc:	4629      	mov	r1, r5
   299de:	f7fb fd55 	bl	2548c <_ZN20complex_dynamic_type3app17hc9e08913b675efc5E>
   299e2:	7830      	ldrb	r0, [r6, #0]
   299e4:	2801      	cmp	r0, #1
   299e6:	d107      	bne.n	299f8 <_start+0x295c>
   299e8:	e3e6      	b.n	2a1b8 <_start+0x311c>
   299ea:	46c0      	nop			@ (mov r8, r8)
   299ec:	00001404 	.word	0x00001404
   299f0:	00000fe0 	.word	0x00000fe0
   299f4:	000013a8 	.word	0x000013a8
   299f8:	4915      	ldr	r1, [pc, #84]	@ (29a50 <_start+0x29b4>)
   299fa:	4469      	add	r1, sp
   299fc:	78c8      	ldrb	r0, [r1, #3]
   299fe:	4d15      	ldr	r5, [pc, #84]	@ (29a54 <_start+0x29b8>)
   29a00:	446d      	add	r5, sp
   29a02:	70a8      	strb	r0, [r5, #2]
   29a04:	7848      	ldrb	r0, [r1, #1]
   29a06:	788a      	ldrb	r2, [r1, #2]
   29a08:	0212      	lsls	r2, r2, #8
   29a0a:	1810      	adds	r0, r2, r0
   29a0c:	8028      	strh	r0, [r5, #0]
   29a0e:	9809      	ldr	r0, [sp, #36]	@ 0x24
   29a10:	6e06      	ldr	r6, [r0, #96]	@ 0x60
   29a12:	3108      	adds	r1, #8
   29a14:	4810      	ldr	r0, [pc, #64]	@ (29a58 <_start+0x29bc>)
   29a16:	4468      	add	r0, sp
   29a18:	900b      	str	r0, [sp, #44]	@ 0x2c
   29a1a:	2248      	movs	r2, #72	@ 0x48
   29a1c:	920a      	str	r2, [sp, #40]	@ 0x28
   29a1e:	f000 fc4b 	bl	2a2b8 <__aeabi_memcpy4>
   29a22:	0e30      	lsrs	r0, r6, #24
   29a24:	71a8      	strb	r0, [r5, #6]
   29a26:	0c30      	lsrs	r0, r6, #16
   29a28:	7168      	strb	r0, [r5, #5]
   29a2a:	0a30      	lsrs	r0, r6, #8
   29a2c:	7128      	strb	r0, [r5, #4]
   29a2e:	70ee      	strb	r6, [r5, #3]
   29a30:	1de8      	adds	r0, r5, #7
   29a32:	990b      	ldr	r1, [sp, #44]	@ 0x2c
   29a34:	9a0a      	ldr	r2, [sp, #40]	@ 0x28
   29a36:	f000 fd9f 	bl	2a578 <__aeabi_memcpy>
   29a3a:	4e05      	ldr	r6, [pc, #20]	@ (29a50 <_start+0x29b4>)
   29a3c:	446e      	add	r6, sp
   29a3e:	4630      	mov	r0, r6
   29a40:	4629      	mov	r1, r5
   29a42:	f7fa fedd 	bl	24800 <_ZN20complex_dynamic_type3app17haf7a0a14fec1a9a5E>
   29a46:	7830      	ldrb	r0, [r6, #0]
   29a48:	2801      	cmp	r0, #1
   29a4a:	d107      	bne.n	29a5c <_start+0x29c0>
   29a4c:	e3b4      	b.n	2a1b8 <_start+0x311c>
   29a4e:	46c0      	nop			@ (mov r8, r8)
   29a50:	00001404 	.word	0x00001404
   29a54:	00001008 	.word	0x00001008
   29a58:	000013a8 	.word	0x000013a8
   29a5c:	4819      	ldr	r0, [pc, #100]	@ (29ac4 <_start+0x2a28>)
   29a5e:	4468      	add	r0, sp
   29a60:	78c1      	ldrb	r1, [r0, #3]
   29a62:	4b19      	ldr	r3, [pc, #100]	@ (29ac8 <_start+0x2a2c>)
   29a64:	446b      	add	r3, sp
   29a66:	930a      	str	r3, [sp, #40]	@ 0x28
   29a68:	7099      	strb	r1, [r3, #2]
   29a6a:	7841      	ldrb	r1, [r0, #1]
   29a6c:	7882      	ldrb	r2, [r0, #2]
   29a6e:	0212      	lsls	r2, r2, #8
   29a70:	1851      	adds	r1, r2, r1
   29a72:	8019      	strh	r1, [r3, #0]
   29a74:	3008      	adds	r0, #8
   29a76:	9909      	ldr	r1, [sp, #36]	@ 0x24
   29a78:	6e09      	ldr	r1, [r1, #96]	@ 0x60
   29a7a:	9108      	str	r1, [sp, #32]
   29a7c:	4b13      	ldr	r3, [pc, #76]	@ (29acc <_start+0x2a30>)
   29a7e:	446b      	add	r3, sp
   29a80:	930b      	str	r3, [sp, #44]	@ 0x2c
   29a82:	c846      	ldmia	r0!, {r1, r2, r6}
   29a84:	c346      	stmia	r3!, {r1, r2, r6}
   29a86:	c866      	ldmia	r0!, {r1, r2, r5, r6}
   29a88:	c366      	stmia	r3!, {r1, r2, r5, r6}
   29a8a:	c866      	ldmia	r0!, {r1, r2, r5, r6}
   29a8c:	c366      	stmia	r3!, {r1, r2, r5, r6}
   29a8e:	8800      	ldrh	r0, [r0, #0]
   29a90:	8018      	strh	r0, [r3, #0]
   29a92:	9908      	ldr	r1, [sp, #32]
   29a94:	0e08      	lsrs	r0, r1, #24
   29a96:	9d0a      	ldr	r5, [sp, #40]	@ 0x28
   29a98:	71a8      	strb	r0, [r5, #6]
   29a9a:	0c08      	lsrs	r0, r1, #16
   29a9c:	7168      	strb	r0, [r5, #5]
   29a9e:	0a08      	lsrs	r0, r1, #8
   29aa0:	7128      	strb	r0, [r5, #4]
   29aa2:	70e9      	strb	r1, [r5, #3]
   29aa4:	1de8      	adds	r0, r5, #7
   29aa6:	222e      	movs	r2, #46	@ 0x2e
   29aa8:	990b      	ldr	r1, [sp, #44]	@ 0x2c
   29aaa:	f000 fd65 	bl	2a578 <__aeabi_memcpy>
   29aae:	4e05      	ldr	r6, [pc, #20]	@ (29ac4 <_start+0x2a28>)
   29ab0:	446e      	add	r6, sp
   29ab2:	4630      	mov	r0, r6
   29ab4:	4629      	mov	r1, r5
   29ab6:	f7f7 fecd 	bl	21854 <_ZN20complex_dynamic_type3app17h29dc0d46be5048d6E>
   29aba:	7830      	ldrb	r0, [r6, #0]
   29abc:	2801      	cmp	r0, #1
   29abe:	d107      	bne.n	29ad0 <_start+0x2a34>
   29ac0:	e37a      	b.n	2a1b8 <_start+0x311c>
   29ac2:	46c0      	nop			@ (mov r8, r8)
   29ac4:	00001404 	.word	0x00001404
   29ac8:	00001058 	.word	0x00001058
   29acc:	000013a8 	.word	0x000013a8
   29ad0:	4819      	ldr	r0, [pc, #100]	@ (29b38 <_start+0x2a9c>)
   29ad2:	4468      	add	r0, sp
   29ad4:	78c1      	ldrb	r1, [r0, #3]
   29ad6:	4b19      	ldr	r3, [pc, #100]	@ (29b3c <_start+0x2aa0>)
   29ad8:	446b      	add	r3, sp
   29ada:	930a      	str	r3, [sp, #40]	@ 0x28
   29adc:	7099      	strb	r1, [r3, #2]
   29ade:	7841      	ldrb	r1, [r0, #1]
   29ae0:	7882      	ldrb	r2, [r0, #2]
   29ae2:	0212      	lsls	r2, r2, #8
   29ae4:	1851      	adds	r1, r2, r1
   29ae6:	8019      	strh	r1, [r3, #0]
   29ae8:	3008      	adds	r0, #8
   29aea:	9909      	ldr	r1, [sp, #36]	@ 0x24
   29aec:	6e09      	ldr	r1, [r1, #96]	@ 0x60
   29aee:	9108      	str	r1, [sp, #32]
   29af0:	4b13      	ldr	r3, [pc, #76]	@ (29b40 <_start+0x2aa4>)
   29af2:	446b      	add	r3, sp
   29af4:	930b      	str	r3, [sp, #44]	@ 0x2c
   29af6:	c846      	ldmia	r0!, {r1, r2, r6}
   29af8:	c346      	stmia	r3!, {r1, r2, r6}
   29afa:	c866      	ldmia	r0!, {r1, r2, r5, r6}
   29afc:	c366      	stmia	r3!, {r1, r2, r5, r6}
   29afe:	c826      	ldmia	r0!, {r1, r2, r5}
   29b00:	c326      	stmia	r3!, {r1, r2, r5}
   29b02:	c866      	ldmia	r0!, {r1, r2, r5, r6}
   29b04:	c366      	stmia	r3!, {r1, r2, r5, r6}
   29b06:	9908      	ldr	r1, [sp, #32]
   29b08:	0e08      	lsrs	r0, r1, #24
   29b0a:	9d0a      	ldr	r5, [sp, #40]	@ 0x28
   29b0c:	71a8      	strb	r0, [r5, #6]
   29b0e:	0c08      	lsrs	r0, r1, #16
   29b10:	7168      	strb	r0, [r5, #5]
   29b12:	0a08      	lsrs	r0, r1, #8
   29b14:	7128      	strb	r0, [r5, #4]
   29b16:	70e9      	strb	r1, [r5, #3]
   29b18:	1de8      	adds	r0, r5, #7
   29b1a:	2238      	movs	r2, #56	@ 0x38
   29b1c:	990b      	ldr	r1, [sp, #44]	@ 0x2c
   29b1e:	f000 fd2b 	bl	2a578 <__aeabi_memcpy>
   29b22:	4e05      	ldr	r6, [pc, #20]	@ (29b38 <_start+0x2a9c>)
   29b24:	446e      	add	r6, sp
   29b26:	4630      	mov	r0, r6
   29b28:	4629      	mov	r1, r5
   29b2a:	f7f9 facb 	bl	230c4 <_ZN20complex_dynamic_type3app17h6e0cb78261813f06E>
   29b2e:	7830      	ldrb	r0, [r6, #0]
   29b30:	2801      	cmp	r0, #1
   29b32:	d107      	bne.n	29b44 <_start+0x2aa8>
   29b34:	e340      	b.n	2a1b8 <_start+0x311c>
   29b36:	46c0      	nop			@ (mov r8, r8)
   29b38:	00001404 	.word	0x00001404
   29b3c:	00001090 	.word	0x00001090
   29b40:	000013a8 	.word	0x000013a8
   29b44:	4815      	ldr	r0, [pc, #84]	@ (29b9c <_start+0x2b00>)
   29b46:	4468      	add	r0, sp
   29b48:	78c1      	ldrb	r1, [r0, #3]
   29b4a:	4d15      	ldr	r5, [pc, #84]	@ (29ba0 <_start+0x2b04>)
   29b4c:	446d      	add	r5, sp
   29b4e:	70a9      	strb	r1, [r5, #2]
   29b50:	7841      	ldrb	r1, [r0, #1]
   29b52:	7882      	ldrb	r2, [r0, #2]
   29b54:	0212      	lsls	r2, r2, #8
   29b56:	1851      	adds	r1, r2, r1
   29b58:	8029      	strh	r1, [r5, #0]
   29b5a:	3008      	adds	r0, #8
   29b5c:	9909      	ldr	r1, [sp, #36]	@ 0x24
   29b5e:	6e09      	ldr	r1, [r1, #96]	@ 0x60
   29b60:	4b10      	ldr	r3, [pc, #64]	@ (29ba4 <_start+0x2b08>)
   29b62:	446b      	add	r3, sp
   29b64:	930b      	str	r3, [sp, #44]	@ 0x2c
   29b66:	c844      	ldmia	r0!, {r2, r6}
   29b68:	c344      	stmia	r3!, {r2, r6}
   29b6a:	8800      	ldrh	r0, [r0, #0]
   29b6c:	8018      	strh	r0, [r3, #0]
   29b6e:	0e08      	lsrs	r0, r1, #24
   29b70:	71a8      	strb	r0, [r5, #6]
   29b72:	0c08      	lsrs	r0, r1, #16
   29b74:	7168      	strb	r0, [r5, #5]
   29b76:	0a08      	lsrs	r0, r1, #8
   29b78:	7128      	strb	r0, [r5, #4]
   29b7a:	70e9      	strb	r1, [r5, #3]
   29b7c:	1de8      	adds	r0, r5, #7
   29b7e:	220a      	movs	r2, #10
   29b80:	990b      	ldr	r1, [sp, #44]	@ 0x2c
   29b82:	f000 fcf9 	bl	2a578 <__aeabi_memcpy>
   29b86:	4e05      	ldr	r6, [pc, #20]	@ (29b9c <_start+0x2b00>)
   29b88:	446e      	add	r6, sp
   29b8a:	4630      	mov	r0, r6
   29b8c:	4629      	mov	r1, r5
   29b8e:	f7f8 fd4e 	bl	2262e <_ZN20complex_dynamic_type3app17h555b0152ec2334e2E>
   29b92:	7830      	ldrb	r0, [r6, #0]
   29b94:	2801      	cmp	r0, #1
   29b96:	d107      	bne.n	29ba8 <_start+0x2b0c>
   29b98:	e30e      	b.n	2a1b8 <_start+0x311c>
   29b9a:	46c0      	nop			@ (mov r8, r8)
   29b9c:	00001404 	.word	0x00001404
   29ba0:	000010d0 	.word	0x000010d0
   29ba4:	000013a8 	.word	0x000013a8
   29ba8:	4819      	ldr	r0, [pc, #100]	@ (29c10 <_start+0x2b74>)
   29baa:	4468      	add	r0, sp
   29bac:	78c1      	ldrb	r1, [r0, #3]
   29bae:	4b19      	ldr	r3, [pc, #100]	@ (29c14 <_start+0x2b78>)
   29bb0:	446b      	add	r3, sp
   29bb2:	930a      	str	r3, [sp, #40]	@ 0x28
   29bb4:	7099      	strb	r1, [r3, #2]
   29bb6:	7841      	ldrb	r1, [r0, #1]
   29bb8:	7882      	ldrb	r2, [r0, #2]
   29bba:	0212      	lsls	r2, r2, #8
   29bbc:	1851      	adds	r1, r2, r1
   29bbe:	8019      	strh	r1, [r3, #0]
   29bc0:	3008      	adds	r0, #8
   29bc2:	9909      	ldr	r1, [sp, #36]	@ 0x24
   29bc4:	6e09      	ldr	r1, [r1, #96]	@ 0x60
   29bc6:	9108      	str	r1, [sp, #32]
   29bc8:	4b13      	ldr	r3, [pc, #76]	@ (29c18 <_start+0x2b7c>)
   29bca:	446b      	add	r3, sp
   29bcc:	930b      	str	r3, [sp, #44]	@ 0x2c
   29bce:	c846      	ldmia	r0!, {r1, r2, r6}
   29bd0:	c346      	stmia	r3!, {r1, r2, r6}
   29bd2:	c866      	ldmia	r0!, {r1, r2, r5, r6}
   29bd4:	c366      	stmia	r3!, {r1, r2, r5, r6}
   29bd6:	c826      	ldmia	r0!, {r1, r2, r5}
   29bd8:	c326      	stmia	r3!, {r1, r2, r5}
   29bda:	c866      	ldmia	r0!, {r1, r2, r5, r6}
   29bdc:	c366      	stmia	r3!, {r1, r2, r5, r6}
   29bde:	9908      	ldr	r1, [sp, #32]
   29be0:	0e08      	lsrs	r0, r1, #24
   29be2:	9d0a      	ldr	r5, [sp, #40]	@ 0x28
   29be4:	71a8      	strb	r0, [r5, #6]
   29be6:	0c08      	lsrs	r0, r1, #16
   29be8:	7168      	strb	r0, [r5, #5]
   29bea:	0a08      	lsrs	r0, r1, #8
   29bec:	7128      	strb	r0, [r5, #4]
   29bee:	70e9      	strb	r1, [r5, #3]
   29bf0:	1de8      	adds	r0, r5, #7
   29bf2:	2238      	movs	r2, #56	@ 0x38
   29bf4:	990b      	ldr	r1, [sp, #44]	@ 0x2c
   29bf6:	f000 fcbf 	bl	2a578 <__aeabi_memcpy>
   29bfa:	4e05      	ldr	r6, [pc, #20]	@ (29c10 <_start+0x2b74>)
   29bfc:	446e      	add	r6, sp
   29bfe:	4630      	mov	r0, r6
   29c00:	4629      	mov	r1, r5
   29c02:	f7fa fc4b 	bl	2449c <_ZN20complex_dynamic_type3app17ha1dcd224bf445c41E>
   29c06:	7830      	ldrb	r0, [r6, #0]
   29c08:	2801      	cmp	r0, #1
   29c0a:	d107      	bne.n	29c1c <_start+0x2b80>
   29c0c:	e2d4      	b.n	2a1b8 <_start+0x311c>
   29c0e:	46c0      	nop			@ (mov r8, r8)
   29c10:	00001404 	.word	0x00001404
   29c14:	000010e4 	.word	0x000010e4
   29c18:	000013a8 	.word	0x000013a8
   29c1c:	4817      	ldr	r0, [pc, #92]	@ (29c7c <_start+0x2be0>)
   29c1e:	4468      	add	r0, sp
   29c20:	78c1      	ldrb	r1, [r0, #3]
   29c22:	4d17      	ldr	r5, [pc, #92]	@ (29c80 <_start+0x2be4>)
   29c24:	446d      	add	r5, sp
   29c26:	70a9      	strb	r1, [r5, #2]
   29c28:	7841      	ldrb	r1, [r0, #1]
   29c2a:	7882      	ldrb	r2, [r0, #2]
   29c2c:	0212      	lsls	r2, r2, #8
   29c2e:	1851      	adds	r1, r2, r1
   29c30:	8029      	strh	r1, [r5, #0]
   29c32:	3008      	adds	r0, #8
   29c34:	9909      	ldr	r1, [sp, #36]	@ 0x24
   29c36:	6e09      	ldr	r1, [r1, #96]	@ 0x60
   29c38:	910a      	str	r1, [sp, #40]	@ 0x28
   29c3a:	4b12      	ldr	r3, [pc, #72]	@ (29c84 <_start+0x2be8>)
   29c3c:	446b      	add	r3, sp
   29c3e:	930b      	str	r3, [sp, #44]	@ 0x2c
   29c40:	c844      	ldmia	r0!, {r2, r6}
   29c42:	c344      	stmia	r3!, {r2, r6}
   29c44:	c846      	ldmia	r0!, {r1, r2, r6}
   29c46:	c346      	stmia	r3!, {r1, r2, r6}
   29c48:	7800      	ldrb	r0, [r0, #0]
   29c4a:	7018      	strb	r0, [r3, #0]
   29c4c:	990a      	ldr	r1, [sp, #40]	@ 0x28
   29c4e:	0e08      	lsrs	r0, r1, #24
   29c50:	71a8      	strb	r0, [r5, #6]
   29c52:	0c08      	lsrs	r0, r1, #16
   29c54:	7168      	strb	r0, [r5, #5]
   29c56:	0a08      	lsrs	r0, r1, #8
   29c58:	7128      	strb	r0, [r5, #4]
   29c5a:	70e9      	strb	r1, [r5, #3]
   29c5c:	1de8      	adds	r0, r5, #7
   29c5e:	2215      	movs	r2, #21
   29c60:	990b      	ldr	r1, [sp, #44]	@ 0x2c
   29c62:	f000 fc89 	bl	2a578 <__aeabi_memcpy>
   29c66:	4e05      	ldr	r6, [pc, #20]	@ (29c7c <_start+0x2be0>)
   29c68:	446e      	add	r6, sp
   29c6a:	4630      	mov	r0, r6
   29c6c:	4629      	mov	r1, r5
   29c6e:	f7f7 fc2d 	bl	214cc <_ZN20complex_dynamic_type3app17h2529aacc00ef85f5E>
   29c72:	7830      	ldrb	r0, [r6, #0]
   29c74:	2801      	cmp	r0, #1
   29c76:	d107      	bne.n	29c88 <_start+0x2bec>
   29c78:	e29e      	b.n	2a1b8 <_start+0x311c>
   29c7a:	46c0      	nop			@ (mov r8, r8)
   29c7c:	00001404 	.word	0x00001404
   29c80:	00001124 	.word	0x00001124
   29c84:	000013a8 	.word	0x000013a8
   29c88:	4915      	ldr	r1, [pc, #84]	@ (29ce0 <_start+0x2c44>)
   29c8a:	4469      	add	r1, sp
   29c8c:	78c8      	ldrb	r0, [r1, #3]
   29c8e:	4d15      	ldr	r5, [pc, #84]	@ (29ce4 <_start+0x2c48>)
   29c90:	446d      	add	r5, sp
   29c92:	70a8      	strb	r0, [r5, #2]
   29c94:	7848      	ldrb	r0, [r1, #1]
   29c96:	788a      	ldrb	r2, [r1, #2]
   29c98:	0212      	lsls	r2, r2, #8
   29c9a:	1810      	adds	r0, r2, r0
   29c9c:	8028      	strh	r0, [r5, #0]
   29c9e:	9809      	ldr	r0, [sp, #36]	@ 0x24
   29ca0:	6e06      	ldr	r6, [r0, #96]	@ 0x60
   29ca2:	3108      	adds	r1, #8
   29ca4:	4810      	ldr	r0, [pc, #64]	@ (29ce8 <_start+0x2c4c>)
   29ca6:	4468      	add	r0, sp
   29ca8:	900b      	str	r0, [sp, #44]	@ 0x2c
   29caa:	2256      	movs	r2, #86	@ 0x56
   29cac:	920a      	str	r2, [sp, #40]	@ 0x28
   29cae:	f000 fb03 	bl	2a2b8 <__aeabi_memcpy4>
   29cb2:	0e30      	lsrs	r0, r6, #24
   29cb4:	71a8      	strb	r0, [r5, #6]
   29cb6:	0c30      	lsrs	r0, r6, #16
   29cb8:	7168      	strb	r0, [r5, #5]
   29cba:	0a30      	lsrs	r0, r6, #8
   29cbc:	7128      	strb	r0, [r5, #4]
   29cbe:	70ee      	strb	r6, [r5, #3]
   29cc0:	1de8      	adds	r0, r5, #7
   29cc2:	990b      	ldr	r1, [sp, #44]	@ 0x2c
   29cc4:	9a0a      	ldr	r2, [sp, #40]	@ 0x28
   29cc6:	f000 fc57 	bl	2a578 <__aeabi_memcpy>
   29cca:	4e05      	ldr	r6, [pc, #20]	@ (29ce0 <_start+0x2c44>)
   29ccc:	446e      	add	r6, sp
   29cce:	4630      	mov	r0, r6
   29cd0:	4629      	mov	r1, r5
   29cd2:	f7fb fe25 	bl	25920 <_ZN20complex_dynamic_type3app17hd269de3460cf9f05E>
   29cd6:	7830      	ldrb	r0, [r6, #0]
   29cd8:	2801      	cmp	r0, #1
   29cda:	d107      	bne.n	29cec <_start+0x2c50>
   29cdc:	e26c      	b.n	2a1b8 <_start+0x311c>
   29cde:	46c0      	nop			@ (mov r8, r8)
   29ce0:	00001404 	.word	0x00001404
   29ce4:	00001140 	.word	0x00001140
   29ce8:	000013a8 	.word	0x000013a8
   29cec:	4816      	ldr	r0, [pc, #88]	@ (29d48 <_start+0x2cac>)
   29cee:	4468      	add	r0, sp
   29cf0:	78c1      	ldrb	r1, [r0, #3]
   29cf2:	4d16      	ldr	r5, [pc, #88]	@ (29d4c <_start+0x2cb0>)
   29cf4:	446d      	add	r5, sp
   29cf6:	70a9      	strb	r1, [r5, #2]
   29cf8:	7841      	ldrb	r1, [r0, #1]
   29cfa:	7882      	ldrb	r2, [r0, #2]
   29cfc:	0212      	lsls	r2, r2, #8
   29cfe:	1851      	adds	r1, r2, r1
   29d00:	8029      	strh	r1, [r5, #0]
   29d02:	3008      	adds	r0, #8
   29d04:	9909      	ldr	r1, [sp, #36]	@ 0x24
   29d06:	6e09      	ldr	r1, [r1, #96]	@ 0x60
   29d08:	4b11      	ldr	r3, [pc, #68]	@ (29d50 <_start+0x2cb4>)
   29d0a:	446b      	add	r3, sp
   29d0c:	930b      	str	r3, [sp, #44]	@ 0x2c
   29d0e:	c844      	ldmia	r0!, {r2, r6}
   29d10:	c344      	stmia	r3!, {r2, r6}
   29d12:	8802      	ldrh	r2, [r0, #0]
   29d14:	801a      	strh	r2, [r3, #0]
   29d16:	7880      	ldrb	r0, [r0, #2]
   29d18:	7098      	strb	r0, [r3, #2]
   29d1a:	0e08      	lsrs	r0, r1, #24
   29d1c:	71a8      	strb	r0, [r5, #6]
   29d1e:	0c08      	lsrs	r0, r1, #16
   29d20:	7168      	strb	r0, [r5, #5]
   29d22:	0a08      	lsrs	r0, r1, #8
   29d24:	7128      	strb	r0, [r5, #4]
   29d26:	70e9      	strb	r1, [r5, #3]
   29d28:	1de8      	adds	r0, r5, #7
   29d2a:	220b      	movs	r2, #11
   29d2c:	990b      	ldr	r1, [sp, #44]	@ 0x2c
   29d2e:	f000 fc23 	bl	2a578 <__aeabi_memcpy>
   29d32:	4e05      	ldr	r6, [pc, #20]	@ (29d48 <_start+0x2cac>)
   29d34:	446e      	add	r6, sp
   29d36:	4630      	mov	r0, r6
   29d38:	4629      	mov	r1, r5
   29d3a:	f7f7 fa99 	bl	21270 <_ZN20complex_dynamic_type3app17h2223137f10ed531eE>
   29d3e:	7830      	ldrb	r0, [r6, #0]
   29d40:	2801      	cmp	r0, #1
   29d42:	d107      	bne.n	29d54 <_start+0x2cb8>
   29d44:	e238      	b.n	2a1b8 <_start+0x311c>
   29d46:	46c0      	nop			@ (mov r8, r8)
   29d48:	00001404 	.word	0x00001404
   29d4c:	000011a0 	.word	0x000011a0
   29d50:	000013a8 	.word	0x000013a8
   29d54:	481a      	ldr	r0, [pc, #104]	@ (29dc0 <_start+0x2d24>)
   29d56:	4468      	add	r0, sp
   29d58:	78c1      	ldrb	r1, [r0, #3]
   29d5a:	4b1a      	ldr	r3, [pc, #104]	@ (29dc4 <_start+0x2d28>)
   29d5c:	446b      	add	r3, sp
   29d5e:	930a      	str	r3, [sp, #40]	@ 0x28
   29d60:	7099      	strb	r1, [r3, #2]
   29d62:	7841      	ldrb	r1, [r0, #1]
   29d64:	7882      	ldrb	r2, [r0, #2]
   29d66:	0212      	lsls	r2, r2, #8
   29d68:	1851      	adds	r1, r2, r1
   29d6a:	8019      	strh	r1, [r3, #0]
   29d6c:	3008      	adds	r0, #8
   29d6e:	9909      	ldr	r1, [sp, #36]	@ 0x24
   29d70:	6e09      	ldr	r1, [r1, #96]	@ 0x60
   29d72:	9108      	str	r1, [sp, #32]
   29d74:	4b14      	ldr	r3, [pc, #80]	@ (29dc8 <_start+0x2d2c>)
   29d76:	446b      	add	r3, sp
   29d78:	930b      	str	r3, [sp, #44]	@ 0x2c
   29d7a:	c846      	ldmia	r0!, {r1, r2, r6}
   29d7c:	c346      	stmia	r3!, {r1, r2, r6}
   29d7e:	c866      	ldmia	r0!, {r1, r2, r5, r6}
   29d80:	c366      	stmia	r3!, {r1, r2, r5, r6}
   29d82:	c866      	ldmia	r0!, {r1, r2, r5, r6}
   29d84:	c366      	stmia	r3!, {r1, r2, r5, r6}
   29d86:	c866      	ldmia	r0!, {r1, r2, r5, r6}
   29d88:	c366      	stmia	r3!, {r1, r2, r5, r6}
   29d8a:	7800      	ldrb	r0, [r0, #0]
   29d8c:	7018      	strb	r0, [r3, #0]
   29d8e:	9908      	ldr	r1, [sp, #32]
   29d90:	0e08      	lsrs	r0, r1, #24
   29d92:	9d0a      	ldr	r5, [sp, #40]	@ 0x28
   29d94:	71a8      	strb	r0, [r5, #6]
   29d96:	0c08      	lsrs	r0, r1, #16
   29d98:	7168      	strb	r0, [r5, #5]
   29d9a:	0a08      	lsrs	r0, r1, #8
   29d9c:	7128      	strb	r0, [r5, #4]
   29d9e:	70e9      	strb	r1, [r5, #3]
   29da0:	1de8      	adds	r0, r5, #7
   29da2:	223d      	movs	r2, #61	@ 0x3d
   29da4:	990b      	ldr	r1, [sp, #44]	@ 0x2c
   29da6:	f000 fbe7 	bl	2a578 <__aeabi_memcpy>
   29daa:	4e05      	ldr	r6, [pc, #20]	@ (29dc0 <_start+0x2d24>)
   29dac:	446e      	add	r6, sp
   29dae:	4630      	mov	r0, r6
   29db0:	4629      	mov	r1, r5
   29db2:	f7fb f925 	bl	25000 <_ZN20complex_dynamic_type3app17hc1a92c2f529117d4E>
   29db6:	7830      	ldrb	r0, [r6, #0]
   29db8:	2801      	cmp	r0, #1
   29dba:	d107      	bne.n	29dcc <_start+0x2d30>
   29dbc:	e1fc      	b.n	2a1b8 <_start+0x311c>
   29dbe:	46c0      	nop			@ (mov r8, r8)
   29dc0:	00001404 	.word	0x00001404
   29dc4:	000011b4 	.word	0x000011b4
   29dc8:	000013a8 	.word	0x000013a8
   29dcc:	48fd      	ldr	r0, [pc, #1012]	@ (2a1c4 <_start+0x3128>)
   29dce:	4468      	add	r0, sp
   29dd0:	78c1      	ldrb	r1, [r0, #3]
   29dd2:	4bfe      	ldr	r3, [pc, #1016]	@ (2a1cc <_start+0x3130>)
   29dd4:	446b      	add	r3, sp
   29dd6:	930a      	str	r3, [sp, #40]	@ 0x28
   29dd8:	7099      	strb	r1, [r3, #2]
   29dda:	7841      	ldrb	r1, [r0, #1]
   29ddc:	7882      	ldrb	r2, [r0, #2]
   29dde:	0212      	lsls	r2, r2, #8
   29de0:	1851      	adds	r1, r2, r1
   29de2:	8019      	strh	r1, [r3, #0]
   29de4:	3008      	adds	r0, #8
   29de6:	9909      	ldr	r1, [sp, #36]	@ 0x24
   29de8:	6e09      	ldr	r1, [r1, #96]	@ 0x60
   29dea:	9108      	str	r1, [sp, #32]
   29dec:	4bf6      	ldr	r3, [pc, #984]	@ (2a1c8 <_start+0x312c>)
   29dee:	446b      	add	r3, sp
   29df0:	930b      	str	r3, [sp, #44]	@ 0x2c
   29df2:	c846      	ldmia	r0!, {r1, r2, r6}
   29df4:	c346      	stmia	r3!, {r1, r2, r6}
   29df6:	c866      	ldmia	r0!, {r1, r2, r5, r6}
   29df8:	c366      	stmia	r3!, {r1, r2, r5, r6}
   29dfa:	9908      	ldr	r1, [sp, #32]
   29dfc:	0e08      	lsrs	r0, r1, #24
   29dfe:	9d0a      	ldr	r5, [sp, #40]	@ 0x28
   29e00:	71a8      	strb	r0, [r5, #6]
   29e02:	0c08      	lsrs	r0, r1, #16
   29e04:	7168      	strb	r0, [r5, #5]
   29e06:	0a08      	lsrs	r0, r1, #8
   29e08:	7128      	strb	r0, [r5, #4]
   29e0a:	70e9      	strb	r1, [r5, #3]
   29e0c:	1de8      	adds	r0, r5, #7
   29e0e:	221c      	movs	r2, #28
   29e10:	990b      	ldr	r1, [sp, #44]	@ 0x2c
   29e12:	f000 fbb1 	bl	2a578 <__aeabi_memcpy>
   29e16:	4eeb      	ldr	r6, [pc, #940]	@ (2a1c4 <_start+0x3128>)
   29e18:	446e      	add	r6, sp
   29e1a:	4630      	mov	r0, r6
   29e1c:	4629      	mov	r1, r5
   29e1e:	f7fc fb5f 	bl	264e0 <_ZN20complex_dynamic_type3app17heb20955bd9948d42E>
   29e22:	7830      	ldrb	r0, [r6, #0]
   29e24:	2801      	cmp	r0, #1
   29e26:	d100      	bne.n	29e2a <_start+0x2d8e>
   29e28:	e1c6      	b.n	2a1b8 <_start+0x311c>
   29e2a:	48e6      	ldr	r0, [pc, #920]	@ (2a1c4 <_start+0x3128>)
   29e2c:	4468      	add	r0, sp
   29e2e:	78c1      	ldrb	r1, [r0, #3]
   29e30:	4be7      	ldr	r3, [pc, #924]	@ (2a1d0 <_start+0x3134>)
   29e32:	446b      	add	r3, sp
   29e34:	930a      	str	r3, [sp, #40]	@ 0x28
   29e36:	7099      	strb	r1, [r3, #2]
   29e38:	7841      	ldrb	r1, [r0, #1]
   29e3a:	7882      	ldrb	r2, [r0, #2]
   29e3c:	0212      	lsls	r2, r2, #8
   29e3e:	1851      	adds	r1, r2, r1
   29e40:	8019      	strh	r1, [r3, #0]
   29e42:	3008      	adds	r0, #8
   29e44:	9909      	ldr	r1, [sp, #36]	@ 0x24
   29e46:	6e09      	ldr	r1, [r1, #96]	@ 0x60
   29e48:	9108      	str	r1, [sp, #32]
   29e4a:	4bdf      	ldr	r3, [pc, #892]	@ (2a1c8 <_start+0x312c>)
   29e4c:	446b      	add	r3, sp
   29e4e:	930b      	str	r3, [sp, #44]	@ 0x2c
   29e50:	c846      	ldmia	r0!, {r1, r2, r6}
   29e52:	c346      	stmia	r3!, {r1, r2, r6}
   29e54:	c866      	ldmia	r0!, {r1, r2, r5, r6}
   29e56:	c366      	stmia	r3!, {r1, r2, r5, r6}
   29e58:	7800      	ldrb	r0, [r0, #0]
   29e5a:	7018      	strb	r0, [r3, #0]
   29e5c:	9908      	ldr	r1, [sp, #32]
   29e5e:	0e08      	lsrs	r0, r1, #24
   29e60:	9d0a      	ldr	r5, [sp, #40]	@ 0x28
   29e62:	71a8      	strb	r0, [r5, #6]
   29e64:	0c08      	lsrs	r0, r1, #16
   29e66:	7168      	strb	r0, [r5, #5]
   29e68:	0a08      	lsrs	r0, r1, #8
   29e6a:	7128      	strb	r0, [r5, #4]
   29e6c:	70e9      	strb	r1, [r5, #3]
   29e6e:	1de8      	adds	r0, r5, #7
   29e70:	221d      	movs	r2, #29
   29e72:	990b      	ldr	r1, [sp, #44]	@ 0x2c
   29e74:	f000 fb80 	bl	2a578 <__aeabi_memcpy>
   29e78:	4ed2      	ldr	r6, [pc, #840]	@ (2a1c4 <_start+0x3128>)
   29e7a:	446e      	add	r6, sp
   29e7c:	4630      	mov	r0, r6
   29e7e:	4629      	mov	r1, r5
   29e80:	f7f8 fa1a 	bl	222b8 <_ZN20complex_dynamic_type3app17h4804dee097fb7a81E>
   29e84:	7830      	ldrb	r0, [r6, #0]
   29e86:	2801      	cmp	r0, #1
   29e88:	d100      	bne.n	29e8c <_start+0x2df0>
   29e8a:	e195      	b.n	2a1b8 <_start+0x311c>
   29e8c:	48cd      	ldr	r0, [pc, #820]	@ (2a1c4 <_start+0x3128>)
   29e8e:	4468      	add	r0, sp
   29e90:	78c1      	ldrb	r1, [r0, #3]
   29e92:	4bd0      	ldr	r3, [pc, #832]	@ (2a1d4 <_start+0x3138>)
   29e94:	446b      	add	r3, sp
   29e96:	930a      	str	r3, [sp, #40]	@ 0x28
   29e98:	7099      	strb	r1, [r3, #2]
   29e9a:	7841      	ldrb	r1, [r0, #1]
   29e9c:	7882      	ldrb	r2, [r0, #2]
   29e9e:	0212      	lsls	r2, r2, #8
   29ea0:	1851      	adds	r1, r2, r1
   29ea2:	8019      	strh	r1, [r3, #0]
   29ea4:	3008      	adds	r0, #8
   29ea6:	9909      	ldr	r1, [sp, #36]	@ 0x24
   29ea8:	6e09      	ldr	r1, [r1, #96]	@ 0x60
   29eaa:	9108      	str	r1, [sp, #32]
   29eac:	4bc6      	ldr	r3, [pc, #792]	@ (2a1c8 <_start+0x312c>)
   29eae:	446b      	add	r3, sp
   29eb0:	930b      	str	r3, [sp, #44]	@ 0x2c
   29eb2:	c846      	ldmia	r0!, {r1, r2, r6}
   29eb4:	c346      	stmia	r3!, {r1, r2, r6}
   29eb6:	c846      	ldmia	r0!, {r1, r2, r6}
   29eb8:	c346      	stmia	r3!, {r1, r2, r6}
   29eba:	c866      	ldmia	r0!, {r1, r2, r5, r6}
   29ebc:	c366      	stmia	r3!, {r1, r2, r5, r6}
   29ebe:	9908      	ldr	r1, [sp, #32]
   29ec0:	0e08      	lsrs	r0, r1, #24
   29ec2:	9d0a      	ldr	r5, [sp, #40]	@ 0x28
   29ec4:	71a8      	strb	r0, [r5, #6]
   29ec6:	0c08      	lsrs	r0, r1, #16
   29ec8:	7168      	strb	r0, [r5, #5]
   29eca:	0a08      	lsrs	r0, r1, #8
   29ecc:	7128      	strb	r0, [r5, #4]
   29ece:	70e9      	strb	r1, [r5, #3]
   29ed0:	1de8      	adds	r0, r5, #7
   29ed2:	2228      	movs	r2, #40	@ 0x28
   29ed4:	990b      	ldr	r1, [sp, #44]	@ 0x2c
   29ed6:	f000 fb4f 	bl	2a578 <__aeabi_memcpy>
   29eda:	4eba      	ldr	r6, [pc, #744]	@ (2a1c4 <_start+0x3128>)
   29edc:	446e      	add	r6, sp
   29ede:	4630      	mov	r0, r6
   29ee0:	4629      	mov	r1, r5
   29ee2:	f7f6 fac1 	bl	20468 <_ZN20complex_dynamic_type3app17h03277ffa4dc3a8ebE>
   29ee6:	7830      	ldrb	r0, [r6, #0]
   29ee8:	2801      	cmp	r0, #1
   29eea:	d100      	bne.n	29eee <_start+0x2e52>
   29eec:	e164      	b.n	2a1b8 <_start+0x311c>
   29eee:	49b5      	ldr	r1, [pc, #724]	@ (2a1c4 <_start+0x3128>)
   29ef0:	4469      	add	r1, sp
   29ef2:	78c8      	ldrb	r0, [r1, #3]
   29ef4:	4db8      	ldr	r5, [pc, #736]	@ (2a1d8 <_start+0x313c>)
   29ef6:	446d      	add	r5, sp
   29ef8:	70a8      	strb	r0, [r5, #2]
   29efa:	7848      	ldrb	r0, [r1, #1]
   29efc:	788a      	ldrb	r2, [r1, #2]
   29efe:	0212      	lsls	r2, r2, #8
   29f00:	1810      	adds	r0, r2, r0
   29f02:	8028      	strh	r0, [r5, #0]
   29f04:	9809      	ldr	r0, [sp, #36]	@ 0x24
   29f06:	6e06      	ldr	r6, [r0, #96]	@ 0x60
   29f08:	3108      	adds	r1, #8
   29f0a:	48af      	ldr	r0, [pc, #700]	@ (2a1c8 <_start+0x312c>)
   29f0c:	4468      	add	r0, sp
   29f0e:	900b      	str	r0, [sp, #44]	@ 0x2c
   29f10:	2257      	movs	r2, #87	@ 0x57
   29f12:	920a      	str	r2, [sp, #40]	@ 0x28
   29f14:	f000 f9d0 	bl	2a2b8 <__aeabi_memcpy4>
   29f18:	0e30      	lsrs	r0, r6, #24
   29f1a:	71a8      	strb	r0, [r5, #6]
   29f1c:	0c30      	lsrs	r0, r6, #16
   29f1e:	7168      	strb	r0, [r5, #5]
   29f20:	0a30      	lsrs	r0, r6, #8
   29f22:	7128      	strb	r0, [r5, #4]
   29f24:	70ee      	strb	r6, [r5, #3]
   29f26:	1de8      	adds	r0, r5, #7
   29f28:	990b      	ldr	r1, [sp, #44]	@ 0x2c
   29f2a:	9a0a      	ldr	r2, [sp, #40]	@ 0x28
   29f2c:	f000 fb24 	bl	2a578 <__aeabi_memcpy>
   29f30:	4ea4      	ldr	r6, [pc, #656]	@ (2a1c4 <_start+0x3128>)
   29f32:	446e      	add	r6, sp
   29f34:	4630      	mov	r0, r6
   29f36:	4629      	mov	r1, r5
   29f38:	f7f6 fbc4 	bl	206c4 <_ZN20complex_dynamic_type3app17h0565d1ffa222703aE>
   29f3c:	7830      	ldrb	r0, [r6, #0]
   29f3e:	2801      	cmp	r0, #1
   29f40:	d100      	bne.n	29f44 <_start+0x2ea8>
   29f42:	e139      	b.n	2a1b8 <_start+0x311c>
   29f44:	499f      	ldr	r1, [pc, #636]	@ (2a1c4 <_start+0x3128>)
   29f46:	4469      	add	r1, sp
   29f48:	78c8      	ldrb	r0, [r1, #3]
   29f4a:	4da4      	ldr	r5, [pc, #656]	@ (2a1dc <_start+0x3140>)
   29f4c:	446d      	add	r5, sp
   29f4e:	70a8      	strb	r0, [r5, #2]
   29f50:	7848      	ldrb	r0, [r1, #1]
   29f52:	788a      	ldrb	r2, [r1, #2]
   29f54:	0212      	lsls	r2, r2, #8
   29f56:	1810      	adds	r0, r2, r0
   29f58:	8028      	strh	r0, [r5, #0]
   29f5a:	9809      	ldr	r0, [sp, #36]	@ 0x24
   29f5c:	6e06      	ldr	r6, [r0, #96]	@ 0x60
   29f5e:	3108      	adds	r1, #8
   29f60:	4899      	ldr	r0, [pc, #612]	@ (2a1c8 <_start+0x312c>)
   29f62:	4468      	add	r0, sp
   29f64:	900b      	str	r0, [sp, #44]	@ 0x2c
   29f66:	224e      	movs	r2, #78	@ 0x4e
   29f68:	920a      	str	r2, [sp, #40]	@ 0x28
   29f6a:	f000 f9a5 	bl	2a2b8 <__aeabi_memcpy4>
   29f6e:	0e30      	lsrs	r0, r6, #24
   29f70:	71a8      	strb	r0, [r5, #6]
   29f72:	0c30      	lsrs	r0, r6, #16
   29f74:	7168      	strb	r0, [r5, #5]
   29f76:	0a30      	lsrs	r0, r6, #8
   29f78:	7128      	strb	r0, [r5, #4]
   29f7a:	70ee      	strb	r6, [r5, #3]
   29f7c:	1de8      	adds	r0, r5, #7
   29f7e:	990b      	ldr	r1, [sp, #44]	@ 0x2c
   29f80:	9a0a      	ldr	r2, [sp, #40]	@ 0x28
   29f82:	f000 faf9 	bl	2a578 <__aeabi_memcpy>
   29f86:	4e8f      	ldr	r6, [pc, #572]	@ (2a1c4 <_start+0x3128>)
   29f88:	446e      	add	r6, sp
   29f8a:	4630      	mov	r0, r6
   29f8c:	4629      	mov	r1, r5
   29f8e:	f7f9 fb7f 	bl	23690 <_ZN20complex_dynamic_type3app17h8107ab0f23997b29E>
   29f92:	7830      	ldrb	r0, [r6, #0]
   29f94:	2801      	cmp	r0, #1
   29f96:	d100      	bne.n	29f9a <_start+0x2efe>
   29f98:	e10e      	b.n	2a1b8 <_start+0x311c>
   29f9a:	488a      	ldr	r0, [pc, #552]	@ (2a1c4 <_start+0x3128>)
   29f9c:	4468      	add	r0, sp
   29f9e:	78c1      	ldrb	r1, [r0, #3]
   29fa0:	4d8f      	ldr	r5, [pc, #572]	@ (2a1e0 <_start+0x3144>)
   29fa2:	446d      	add	r5, sp
   29fa4:	70a9      	strb	r1, [r5, #2]
   29fa6:	7841      	ldrb	r1, [r0, #1]
   29fa8:	7882      	ldrb	r2, [r0, #2]
   29faa:	0212      	lsls	r2, r2, #8
   29fac:	1851      	adds	r1, r2, r1
   29fae:	8029      	strh	r1, [r5, #0]
   29fb0:	3008      	adds	r0, #8
   29fb2:	9909      	ldr	r1, [sp, #36]	@ 0x24
   29fb4:	6e09      	ldr	r1, [r1, #96]	@ 0x60
   29fb6:	4b84      	ldr	r3, [pc, #528]	@ (2a1c8 <_start+0x312c>)
   29fb8:	446b      	add	r3, sp
   29fba:	930b      	str	r3, [sp, #44]	@ 0x2c
   29fbc:	c844      	ldmia	r0!, {r2, r6}
   29fbe:	c344      	stmia	r3!, {r2, r6}
   29fc0:	8800      	ldrh	r0, [r0, #0]
   29fc2:	8018      	strh	r0, [r3, #0]
   29fc4:	0e08      	lsrs	r0, r1, #24
   29fc6:	71a8      	strb	r0, [r5, #6]
   29fc8:	0c08      	lsrs	r0, r1, #16
   29fca:	7168      	strb	r0, [r5, #5]
   29fcc:	0a08      	lsrs	r0, r1, #8
   29fce:	7128      	strb	r0, [r5, #4]
   29fd0:	70e9      	strb	r1, [r5, #3]
   29fd2:	1de8      	adds	r0, r5, #7
   29fd4:	220a      	movs	r2, #10
   29fd6:	990b      	ldr	r1, [sp, #44]	@ 0x2c
   29fd8:	f000 face 	bl	2a578 <__aeabi_memcpy>
   29fdc:	4e79      	ldr	r6, [pc, #484]	@ (2a1c4 <_start+0x3128>)
   29fde:	446e      	add	r6, sp
   29fe0:	4630      	mov	r0, r6
   29fe2:	4629      	mov	r1, r5
   29fe4:	f7f8 fd7e 	bl	22ae4 <_ZN20complex_dynamic_type3app17h5f0a38fa6b7f6cd9E>
   29fe8:	7830      	ldrb	r0, [r6, #0]
   29fea:	2801      	cmp	r0, #1
   29fec:	d100      	bne.n	29ff0 <_start+0x2f54>
   29fee:	e0e3      	b.n	2a1b8 <_start+0x311c>
   29ff0:	4974      	ldr	r1, [pc, #464]	@ (2a1c4 <_start+0x3128>)
   29ff2:	4469      	add	r1, sp
   29ff4:	78c8      	ldrb	r0, [r1, #3]
   29ff6:	4d7b      	ldr	r5, [pc, #492]	@ (2a1e4 <_start+0x3148>)
   29ff8:	446d      	add	r5, sp
   29ffa:	70a8      	strb	r0, [r5, #2]
   29ffc:	7848      	ldrb	r0, [r1, #1]
   29ffe:	788a      	ldrb	r2, [r1, #2]
   2a000:	0212      	lsls	r2, r2, #8
   2a002:	1810      	adds	r0, r2, r0
   2a004:	8028      	strh	r0, [r5, #0]
   2a006:	9809      	ldr	r0, [sp, #36]	@ 0x24
   2a008:	6e06      	ldr	r6, [r0, #96]	@ 0x60
   2a00a:	3108      	adds	r1, #8
   2a00c:	486e      	ldr	r0, [pc, #440]	@ (2a1c8 <_start+0x312c>)
   2a00e:	4468      	add	r0, sp
   2a010:	900b      	str	r0, [sp, #44]	@ 0x2c
   2a012:	2249      	movs	r2, #73	@ 0x49
   2a014:	920a      	str	r2, [sp, #40]	@ 0x28
   2a016:	f000 f94f 	bl	2a2b8 <__aeabi_memcpy4>
   2a01a:	0e30      	lsrs	r0, r6, #24
   2a01c:	71a8      	strb	r0, [r5, #6]
   2a01e:	0c30      	lsrs	r0, r6, #16
   2a020:	7168      	strb	r0, [r5, #5]
   2a022:	0a30      	lsrs	r0, r6, #8
   2a024:	7128      	strb	r0, [r5, #4]
   2a026:	70ee      	strb	r6, [r5, #3]
   2a028:	1de8      	adds	r0, r5, #7
   2a02a:	990b      	ldr	r1, [sp, #44]	@ 0x2c
   2a02c:	9a0a      	ldr	r2, [sp, #40]	@ 0x28
   2a02e:	f000 faa3 	bl	2a578 <__aeabi_memcpy>
   2a032:	4e64      	ldr	r6, [pc, #400]	@ (2a1c4 <_start+0x3128>)
   2a034:	446e      	add	r6, sp
   2a036:	4630      	mov	r0, r6
   2a038:	4629      	mov	r1, r5
   2a03a:	f7f9 fce3 	bl	23a04 <_ZN20complex_dynamic_type3app17h8a833151dba88244E>
   2a03e:	7830      	ldrb	r0, [r6, #0]
   2a040:	2801      	cmp	r0, #1
   2a042:	d100      	bne.n	2a046 <_start+0x2faa>
   2a044:	e0b8      	b.n	2a1b8 <_start+0x311c>
   2a046:	485f      	ldr	r0, [pc, #380]	@ (2a1c4 <_start+0x3128>)
   2a048:	4468      	add	r0, sp
   2a04a:	78c1      	ldrb	r1, [r0, #3]
   2a04c:	4d66      	ldr	r5, [pc, #408]	@ (2a1e8 <_start+0x314c>)
   2a04e:	446d      	add	r5, sp
   2a050:	70a9      	strb	r1, [r5, #2]
   2a052:	7841      	ldrb	r1, [r0, #1]
   2a054:	7882      	ldrb	r2, [r0, #2]
   2a056:	0212      	lsls	r2, r2, #8
   2a058:	1851      	adds	r1, r2, r1
   2a05a:	8029      	strh	r1, [r5, #0]
   2a05c:	3008      	adds	r0, #8
   2a05e:	9909      	ldr	r1, [sp, #36]	@ 0x24
   2a060:	6e09      	ldr	r1, [r1, #96]	@ 0x60
   2a062:	910a      	str	r1, [sp, #40]	@ 0x28
   2a064:	4b58      	ldr	r3, [pc, #352]	@ (2a1c8 <_start+0x312c>)
   2a066:	446b      	add	r3, sp
   2a068:	930b      	str	r3, [sp, #44]	@ 0x2c
   2a06a:	c844      	ldmia	r0!, {r2, r6}
   2a06c:	c344      	stmia	r3!, {r2, r6}
   2a06e:	c846      	ldmia	r0!, {r1, r2, r6}
   2a070:	c346      	stmia	r3!, {r1, r2, r6}
   2a072:	990a      	ldr	r1, [sp, #40]	@ 0x28
   2a074:	0e08      	lsrs	r0, r1, #24
   2a076:	71a8      	strb	r0, [r5, #6]
   2a078:	0c08      	lsrs	r0, r1, #16
   2a07a:	7168      	strb	r0, [r5, #5]
   2a07c:	0a08      	lsrs	r0, r1, #8
   2a07e:	7128      	strb	r0, [r5, #4]
   2a080:	70e9      	strb	r1, [r5, #3]
   2a082:	1de8      	adds	r0, r5, #7
   2a084:	2214      	movs	r2, #20
   2a086:	990b      	ldr	r1, [sp, #44]	@ 0x2c
   2a088:	f000 fa76 	bl	2a578 <__aeabi_memcpy>
   2a08c:	4e4d      	ldr	r6, [pc, #308]	@ (2a1c4 <_start+0x3128>)
   2a08e:	446e      	add	r6, sp
   2a090:	4630      	mov	r0, r6
   2a092:	4629      	mov	r1, r5
   2a094:	f7fa fb2e 	bl	246f4 <_ZN20complex_dynamic_type3app17ha9d62dc3983ab6c7E>
   2a098:	7830      	ldrb	r0, [r6, #0]
   2a09a:	2801      	cmp	r0, #1
   2a09c:	d100      	bne.n	2a0a0 <_start+0x3004>
   2a09e:	e08b      	b.n	2a1b8 <_start+0x311c>
   2a0a0:	4948      	ldr	r1, [pc, #288]	@ (2a1c4 <_start+0x3128>)
   2a0a2:	4469      	add	r1, sp
   2a0a4:	78c8      	ldrb	r0, [r1, #3]
   2a0a6:	4d51      	ldr	r5, [pc, #324]	@ (2a1ec <_start+0x3150>)
   2a0a8:	446d      	add	r5, sp
   2a0aa:	70a8      	strb	r0, [r5, #2]
   2a0ac:	7848      	ldrb	r0, [r1, #1]
   2a0ae:	788a      	ldrb	r2, [r1, #2]
   2a0b0:	0212      	lsls	r2, r2, #8
   2a0b2:	1810      	adds	r0, r2, r0
   2a0b4:	8028      	strh	r0, [r5, #0]
   2a0b6:	9809      	ldr	r0, [sp, #36]	@ 0x24
   2a0b8:	6e06      	ldr	r6, [r0, #96]	@ 0x60
   2a0ba:	3108      	adds	r1, #8
   2a0bc:	4842      	ldr	r0, [pc, #264]	@ (2a1c8 <_start+0x312c>)
   2a0be:	4468      	add	r0, sp
   2a0c0:	900b      	str	r0, [sp, #44]	@ 0x2c
   2a0c2:	225c      	movs	r2, #92	@ 0x5c
   2a0c4:	920a      	str	r2, [sp, #40]	@ 0x28
   2a0c6:	f000 f8f7 	bl	2a2b8 <__aeabi_memcpy4>
   2a0ca:	0e30      	lsrs	r0, r6, #24
   2a0cc:	71a8      	strb	r0, [r5, #6]
   2a0ce:	0c30      	lsrs	r0, r6, #16
   2a0d0:	7168      	strb	r0, [r5, #5]
   2a0d2:	0a30      	lsrs	r0, r6, #8
   2a0d4:	7128      	strb	r0, [r5, #4]
   2a0d6:	70ee      	strb	r6, [r5, #3]
   2a0d8:	1de8      	adds	r0, r5, #7
   2a0da:	990b      	ldr	r1, [sp, #44]	@ 0x2c
   2a0dc:	9a0a      	ldr	r2, [sp, #40]	@ 0x28
   2a0de:	f000 fa4b 	bl	2a578 <__aeabi_memcpy>
   2a0e2:	4e38      	ldr	r6, [pc, #224]	@ (2a1c4 <_start+0x3128>)
   2a0e4:	446e      	add	r6, sp
   2a0e6:	4630      	mov	r0, r6
   2a0e8:	4629      	mov	r1, r5
   2a0ea:	f7f8 f97b 	bl	223e4 <_ZN20complex_dynamic_type3app17h4c44f96ac4a64c1dE>
   2a0ee:	7830      	ldrb	r0, [r6, #0]
   2a0f0:	2801      	cmp	r0, #1
   2a0f2:	d061      	beq.n	2a1b8 <_start+0x311c>
   2a0f4:	4833      	ldr	r0, [pc, #204]	@ (2a1c4 <_start+0x3128>)
   2a0f6:	4468      	add	r0, sp
   2a0f8:	78c1      	ldrb	r1, [r0, #3]
   2a0fa:	4d3d      	ldr	r5, [pc, #244]	@ (2a1f0 <_start+0x3154>)
   2a0fc:	446d      	add	r5, sp
   2a0fe:	70a9      	strb	r1, [r5, #2]
   2a100:	7841      	ldrb	r1, [r0, #1]
   2a102:	7882      	ldrb	r2, [r0, #2]
   2a104:	0212      	lsls	r2, r2, #8
   2a106:	1851      	adds	r1, r2, r1
   2a108:	8029      	strh	r1, [r5, #0]
   2a10a:	3008      	adds	r0, #8
   2a10c:	9909      	ldr	r1, [sp, #36]	@ 0x24
   2a10e:	6e09      	ldr	r1, [r1, #96]	@ 0x60
   2a110:	910a      	str	r1, [sp, #40]	@ 0x28
   2a112:	4b2d      	ldr	r3, [pc, #180]	@ (2a1c8 <_start+0x312c>)
   2a114:	446b      	add	r3, sp
   2a116:	930b      	str	r3, [sp, #44]	@ 0x2c
   2a118:	c846      	ldmia	r0!, {r1, r2, r6}
   2a11a:	c346      	stmia	r3!, {r1, r2, r6}
   2a11c:	c846      	ldmia	r0!, {r1, r2, r6}
   2a11e:	c346      	stmia	r3!, {r1, r2, r6}
   2a120:	c846      	ldmia	r0!, {r1, r2, r6}
   2a122:	c346      	stmia	r3!, {r1, r2, r6}
   2a124:	7800      	ldrb	r0, [r0, #0]
   2a126:	7018      	strb	r0, [r3, #0]
   2a128:	990a      	ldr	r1, [sp, #40]	@ 0x28
   2a12a:	0e08      	lsrs	r0, r1, #24
   2a12c:	71a8      	strb	r0, [r5, #6]
   2a12e:	0c08      	lsrs	r0, r1, #16
   2a130:	7168      	strb	r0, [r5, #5]
   2a132:	0a08      	lsrs	r0, r1, #8
   2a134:	7128      	strb	r0, [r5, #4]
   2a136:	70e9      	strb	r1, [r5, #3]
   2a138:	1de8      	adds	r0, r5, #7
   2a13a:	2225      	movs	r2, #37	@ 0x25
   2a13c:	990b      	ldr	r1, [sp, #44]	@ 0x2c
   2a13e:	f000 fa1b 	bl	2a578 <__aeabi_memcpy>
   2a142:	4e20      	ldr	r6, [pc, #128]	@ (2a1c4 <_start+0x3128>)
   2a144:	446e      	add	r6, sp
   2a146:	4630      	mov	r0, r6
   2a148:	4629      	mov	r1, r5
   2a14a:	f7f8 fc31 	bl	229b0 <_ZN20complex_dynamic_type3app17h5bc4b2f9694a14f1E>
   2a14e:	7830      	ldrb	r0, [r6, #0]
   2a150:	2801      	cmp	r0, #1
   2a152:	d031      	beq.n	2a1b8 <_start+0x311c>
   2a154:	481b      	ldr	r0, [pc, #108]	@ (2a1c4 <_start+0x3128>)
   2a156:	4468      	add	r0, sp
   2a158:	78c1      	ldrb	r1, [r0, #3]
   2a15a:	4b26      	ldr	r3, [pc, #152]	@ (2a1f4 <_start+0x3158>)
   2a15c:	446b      	add	r3, sp
   2a15e:	930a      	str	r3, [sp, #40]	@ 0x28
   2a160:	7099      	strb	r1, [r3, #2]
   2a162:	7841      	ldrb	r1, [r0, #1]
   2a164:	7882      	ldrb	r2, [r0, #2]
   2a166:	0212      	lsls	r2, r2, #8
   2a168:	1851      	adds	r1, r2, r1
   2a16a:	8019      	strh	r1, [r3, #0]
   2a16c:	3008      	adds	r0, #8
   2a16e:	9909      	ldr	r1, [sp, #36]	@ 0x24
   2a170:	6e09      	ldr	r1, [r1, #96]	@ 0x60
   2a172:	9108      	str	r1, [sp, #32]
   2a174:	4b14      	ldr	r3, [pc, #80]	@ (2a1c8 <_start+0x312c>)
   2a176:	446b      	add	r3, sp
   2a178:	930b      	str	r3, [sp, #44]	@ 0x2c
   2a17a:	c866      	ldmia	r0!, {r1, r2, r5, r6}
   2a17c:	c366      	stmia	r3!, {r1, r2, r5, r6}
   2a17e:	c866      	ldmia	r0!, {r1, r2, r5, r6}
   2a180:	c366      	stmia	r3!, {r1, r2, r5, r6}
   2a182:	8801      	ldrh	r1, [r0, #0]
   2a184:	8019      	strh	r1, [r3, #0]
   2a186:	7880      	ldrb	r0, [r0, #2]
   2a188:	7098      	strb	r0, [r3, #2]
   2a18a:	9908      	ldr	r1, [sp, #32]
   2a18c:	0e08      	lsrs	r0, r1, #24
   2a18e:	9d0a      	ldr	r5, [sp, #40]	@ 0x28
   2a190:	71a8      	strb	r0, [r5, #6]
   2a192:	0c08      	lsrs	r0, r1, #16
   2a194:	7168      	strb	r0, [r5, #5]
   2a196:	0a08      	lsrs	r0, r1, #8
   2a198:	7128      	strb	r0, [r5, #4]
   2a19a:	70e9      	strb	r1, [r5, #3]
   2a19c:	1de8      	adds	r0, r5, #7
   2a19e:	2223      	movs	r2, #35	@ 0x23
   2a1a0:	990b      	ldr	r1, [sp, #44]	@ 0x2c
   2a1a2:	f000 f9e9 	bl	2a578 <__aeabi_memcpy>
   2a1a6:	4e07      	ldr	r6, [pc, #28]	@ (2a1c4 <_start+0x3128>)
   2a1a8:	446e      	add	r6, sp
   2a1aa:	4630      	mov	r0, r6
   2a1ac:	4629      	mov	r1, r5
   2a1ae:	f7f6 ffc9 	bl	21144 <_ZN20complex_dynamic_type3app17h20ab9eace2b98475E>
   2a1b2:	7830      	ldrb	r0, [r6, #0]
   2a1b4:	2801      	cmp	r0, #1
   2a1b6:	d103      	bne.n	2a1c0 <_start+0x3124>
   2a1b8:	9809      	ldr	r0, [sp, #36]	@ 0x24
   2a1ba:	6e05      	ldr	r5, [r0, #96]	@ 0x60
   2a1bc:	f7fc ffcc 	bl	27158 <_start+0xbc>
   2a1c0:	f7fc ffcb 	bl	2715a <_start+0xbe>
   2a1c4:	00001404 	.word	0x00001404
   2a1c8:	000013a8 	.word	0x000013a8
   2a1cc:	000011f8 	.word	0x000011f8
   2a1d0:	0000121c 	.word	0x0000121c
   2a1d4:	00001240 	.word	0x00001240
   2a1d8:	00001270 	.word	0x00001270
   2a1dc:	000012d0 	.word	0x000012d0
   2a1e0:	00001328 	.word	0x00001328
   2a1e4:	0000133c 	.word	0x0000133c
   2a1e8:	0000138c 	.word	0x0000138c
   2a1ec:	00001468 	.word	0x00001468
   2a1f0:	000014cc 	.word	0x000014cc
   2a1f4:	000014f8 	.word	0x000014f8

0002a1f8 <__aeabi_memclr>:
   2a1f8:	b5f0      	push	{r4, r5, r6, r7, lr}
   2a1fa:	af03      	add	r7, sp, #12
   2a1fc:	2910      	cmp	r1, #16
   2a1fe:	d332      	bcc.n	2a266 <__aeabi_memclr+0x6e>
   2a200:	4244      	negs	r4, r0
   2a202:	2203      	movs	r2, #3
   2a204:	4014      	ands	r4, r2
   2a206:	1903      	adds	r3, r0, r4
   2a208:	4298      	cmp	r0, r3
   2a20a:	d218      	bcs.n	2a23e <__aeabi_memclr+0x46>
   2a20c:	1e65      	subs	r5, r4, #1
   2a20e:	2c00      	cmp	r4, #0
   2a210:	d00b      	beq.n	2a22a <__aeabi_memclr+0x32>
   2a212:	2600      	movs	r6, #0
   2a214:	7006      	strb	r6, [r0, #0]
   2a216:	2c01      	cmp	r4, #1
   2a218:	d103      	bne.n	2a222 <__aeabi_memclr+0x2a>
   2a21a:	1c40      	adds	r0, r0, #1
   2a21c:	2d03      	cmp	r5, #3
   2a21e:	d206      	bcs.n	2a22e <__aeabi_memclr+0x36>
   2a220:	e00d      	b.n	2a23e <__aeabi_memclr+0x46>
   2a222:	7046      	strb	r6, [r0, #1]
   2a224:	2c02      	cmp	r4, #2
   2a226:	d142      	bne.n	2a2ae <__aeabi_memclr+0xb6>
   2a228:	1c80      	adds	r0, r0, #2
   2a22a:	2d03      	cmp	r5, #3
   2a22c:	d307      	bcc.n	2a23e <__aeabi_memclr+0x46>
   2a22e:	2500      	movs	r5, #0
   2a230:	70c5      	strb	r5, [r0, #3]
   2a232:	7085      	strb	r5, [r0, #2]
   2a234:	7045      	strb	r5, [r0, #1]
   2a236:	7005      	strb	r5, [r0, #0]
   2a238:	1d00      	adds	r0, r0, #4
   2a23a:	4298      	cmp	r0, r3
   2a23c:	d1f7      	bne.n	2a22e <__aeabi_memclr+0x36>
   2a23e:	1b09      	subs	r1, r1, r4
   2a240:	4608      	mov	r0, r1
   2a242:	4390      	bics	r0, r2
   2a244:	1818      	adds	r0, r3, r0
   2a246:	4283      	cmp	r3, r0
   2a248:	d20c      	bcs.n	2a264 <__aeabi_memclr+0x6c>
   2a24a:	2400      	movs	r4, #0
   2a24c:	c310      	stmia	r3!, {r4}
   2a24e:	4283      	cmp	r3, r0
   2a250:	d208      	bcs.n	2a264 <__aeabi_memclr+0x6c>
   2a252:	c310      	stmia	r3!, {r4}
   2a254:	4283      	cmp	r3, r0
   2a256:	d205      	bcs.n	2a264 <__aeabi_memclr+0x6c>
   2a258:	c310      	stmia	r3!, {r4}
   2a25a:	4283      	cmp	r3, r0
   2a25c:	d202      	bcs.n	2a264 <__aeabi_memclr+0x6c>
   2a25e:	c310      	stmia	r3!, {r4}
   2a260:	4283      	cmp	r3, r0
   2a262:	d3f2      	bcc.n	2a24a <__aeabi_memclr+0x52>
   2a264:	4011      	ands	r1, r2
   2a266:	1842      	adds	r2, r0, r1
   2a268:	4290      	cmp	r0, r2
   2a26a:	d21a      	bcs.n	2a2a2 <__aeabi_memclr+0xaa>
   2a26c:	2303      	movs	r3, #3
   2a26e:	400b      	ands	r3, r1
   2a270:	1e49      	subs	r1, r1, #1
   2a272:	2b00      	cmp	r3, #0
   2a274:	d00b      	beq.n	2a28e <__aeabi_memclr+0x96>
   2a276:	2400      	movs	r4, #0
   2a278:	7004      	strb	r4, [r0, #0]
   2a27a:	2b01      	cmp	r3, #1
   2a27c:	d103      	bne.n	2a286 <__aeabi_memclr+0x8e>
   2a27e:	1c40      	adds	r0, r0, #1
   2a280:	2903      	cmp	r1, #3
   2a282:	d206      	bcs.n	2a292 <__aeabi_memclr+0x9a>
   2a284:	e00d      	b.n	2a2a2 <__aeabi_memclr+0xaa>
   2a286:	7044      	strb	r4, [r0, #1]
   2a288:	2b02      	cmp	r3, #2
   2a28a:	d10b      	bne.n	2a2a4 <__aeabi_memclr+0xac>
   2a28c:	1c80      	adds	r0, r0, #2
   2a28e:	2903      	cmp	r1, #3
   2a290:	d307      	bcc.n	2a2a2 <__aeabi_memclr+0xaa>
   2a292:	2100      	movs	r1, #0
   2a294:	70c1      	strb	r1, [r0, #3]
   2a296:	7081      	strb	r1, [r0, #2]
   2a298:	7041      	strb	r1, [r0, #1]
   2a29a:	7001      	strb	r1, [r0, #0]
   2a29c:	1d00      	adds	r0, r0, #4
   2a29e:	4290      	cmp	r0, r2
   2a2a0:	d1f7      	bne.n	2a292 <__aeabi_memclr+0x9a>
   2a2a2:	bdf0      	pop	{r4, r5, r6, r7, pc}
   2a2a4:	7084      	strb	r4, [r0, #2]
   2a2a6:	1cc0      	adds	r0, r0, #3
   2a2a8:	2903      	cmp	r1, #3
   2a2aa:	d2f2      	bcs.n	2a292 <__aeabi_memclr+0x9a>
   2a2ac:	e7f9      	b.n	2a2a2 <__aeabi_memclr+0xaa>
   2a2ae:	7086      	strb	r6, [r0, #2]
   2a2b0:	1cc0      	adds	r0, r0, #3
   2a2b2:	2d03      	cmp	r5, #3
   2a2b4:	d2bb      	bcs.n	2a22e <__aeabi_memclr+0x36>
   2a2b6:	e7c2      	b.n	2a23e <__aeabi_memclr+0x46>

0002a2b8 <__aeabi_memcpy4>:
   2a2b8:	b5f0      	push	{r4, r5, r6, r7, lr}
   2a2ba:	af03      	add	r7, sp, #12
   2a2bc:	b081      	sub	sp, #4
   2a2be:	2a04      	cmp	r2, #4
   2a2c0:	d32d      	bcc.n	2a31e <__aeabi_memcpy4+0x66>
   2a2c2:	1f13      	subs	r3, r2, #4
   2a2c4:	250c      	movs	r5, #12
   2a2c6:	401d      	ands	r5, r3
   2a2c8:	2d0c      	cmp	r5, #12
   2a2ca:	d019      	beq.n	2a300 <__aeabi_memcpy4+0x48>
   2a2cc:	9200      	str	r2, [sp, #0]
   2a2ce:	460e      	mov	r6, r1
   2a2d0:	c904      	ldmia	r1!, {r2}
   2a2d2:	4604      	mov	r4, r0
   2a2d4:	c004      	stmia	r0!, {r2}
   2a2d6:	071a      	lsls	r2, r3, #28
   2a2d8:	0f92      	lsrs	r2, r2, #30
   2a2da:	461a      	mov	r2, r3
   2a2dc:	d010      	beq.n	2a300 <__aeabi_memcpy4+0x48>
   2a2de:	4631      	mov	r1, r6
   2a2e0:	6872      	ldr	r2, [r6, #4]
   2a2e2:	6062      	str	r2, [r4, #4]
   2a2e4:	2d04      	cmp	r5, #4
   2a2e6:	d104      	bne.n	2a2f2 <__aeabi_memcpy4+0x3a>
   2a2e8:	9a00      	ldr	r2, [sp, #0]
   2a2ea:	3a08      	subs	r2, #8
   2a2ec:	3108      	adds	r1, #8
   2a2ee:	3408      	adds	r4, #8
   2a2f0:	e005      	b.n	2a2fe <__aeabi_memcpy4+0x46>
   2a2f2:	688a      	ldr	r2, [r1, #8]
   2a2f4:	60a2      	str	r2, [r4, #8]
   2a2f6:	9a00      	ldr	r2, [sp, #0]
   2a2f8:	3a0c      	subs	r2, #12
   2a2fa:	310c      	adds	r1, #12
   2a2fc:	340c      	adds	r4, #12
   2a2fe:	4620      	mov	r0, r4
   2a300:	2b0c      	cmp	r3, #12
   2a302:	d30c      	bcc.n	2a31e <__aeabi_memcpy4+0x66>
   2a304:	680b      	ldr	r3, [r1, #0]
   2a306:	6003      	str	r3, [r0, #0]
   2a308:	684b      	ldr	r3, [r1, #4]
   2a30a:	6043      	str	r3, [r0, #4]
   2a30c:	688b      	ldr	r3, [r1, #8]
   2a30e:	6083      	str	r3, [r0, #8]
   2a310:	68cb      	ldr	r3, [r1, #12]
   2a312:	60c3      	str	r3, [r0, #12]
   2a314:	3110      	adds	r1, #16
   2a316:	3010      	adds	r0, #16
   2a318:	3a10      	subs	r2, #16
   2a31a:	2a03      	cmp	r2, #3
   2a31c:	d8f2      	bhi.n	2a304 <__aeabi_memcpy4+0x4c>
   2a31e:	f000 f802 	bl	2a326 <_ZN17compiler_builtins3mem6memcpy17h1f9dbb1c3fd18e2fE>
   2a322:	b001      	add	sp, #4
   2a324:	bdf0      	pop	{r4, r5, r6, r7, pc}

0002a326 <_ZN17compiler_builtins3mem6memcpy17h1f9dbb1c3fd18e2fE>:
   2a326:	b5f0      	push	{r4, r5, r6, r7, lr}
   2a328:	af03      	add	r7, sp, #12
   2a32a:	b08f      	sub	sp, #60	@ 0x3c
   2a32c:	2a10      	cmp	r2, #16
   2a32e:	d315      	bcc.n	2a35c <_ZN17compiler_builtins3mem6memcpy17h1f9dbb1c3fd18e2fE+0x36>
   2a330:	920b      	str	r2, [sp, #44]	@ 0x2c
   2a332:	4242      	negs	r2, r0
   2a334:	2303      	movs	r3, #3
   2a336:	9308      	str	r3, [sp, #32]
   2a338:	401a      	ands	r2, r3
   2a33a:	1885      	adds	r5, r0, r2
   2a33c:	900a      	str	r0, [sp, #40]	@ 0x28
   2a33e:	42a8      	cmp	r0, r5
   2a340:	d22a      	bcs.n	2a398 <_ZN17compiler_builtins3mem6memcpy17h1f9dbb1c3fd18e2fE+0x72>
   2a342:	1e54      	subs	r4, r2, #1
   2a344:	2a00      	cmp	r2, #0
   2a346:	980a      	ldr	r0, [sp, #40]	@ 0x28
   2a348:	4606      	mov	r6, r0
   2a34a:	460b      	mov	r3, r1
   2a34c:	d016      	beq.n	2a37c <_ZN17compiler_builtins3mem6memcpy17h1f9dbb1c3fd18e2fE+0x56>
   2a34e:	780b      	ldrb	r3, [r1, #0]
   2a350:	7003      	strb	r3, [r0, #0]
   2a352:	2a01      	cmp	r2, #1
   2a354:	d107      	bne.n	2a366 <_ZN17compiler_builtins3mem6memcpy17h1f9dbb1c3fd18e2fE+0x40>
   2a356:	1c4b      	adds	r3, r1, #1
   2a358:	1c46      	adds	r6, r0, #1
   2a35a:	e00f      	b.n	2a37c <_ZN17compiler_builtins3mem6memcpy17h1f9dbb1c3fd18e2fE+0x56>
   2a35c:	4603      	mov	r3, r0
   2a35e:	189c      	adds	r4, r3, r2
   2a360:	42a3      	cmp	r3, r4
   2a362:	d341      	bcc.n	2a3e8 <_ZN17compiler_builtins3mem6memcpy17h1f9dbb1c3fd18e2fE+0xc2>
   2a364:	e062      	b.n	2a42c <_ZN17compiler_builtins3mem6memcpy17h1f9dbb1c3fd18e2fE+0x106>
   2a366:	784b      	ldrb	r3, [r1, #1]
   2a368:	7043      	strb	r3, [r0, #1]
   2a36a:	2a02      	cmp	r2, #2
   2a36c:	d102      	bne.n	2a374 <_ZN17compiler_builtins3mem6memcpy17h1f9dbb1c3fd18e2fE+0x4e>
   2a36e:	1c8b      	adds	r3, r1, #2
   2a370:	1c86      	adds	r6, r0, #2
   2a372:	e003      	b.n	2a37c <_ZN17compiler_builtins3mem6memcpy17h1f9dbb1c3fd18e2fE+0x56>
   2a374:	788b      	ldrb	r3, [r1, #2]
   2a376:	7083      	strb	r3, [r0, #2]
   2a378:	1ccb      	adds	r3, r1, #3
   2a37a:	1cc6      	adds	r6, r0, #3
   2a37c:	2c03      	cmp	r4, #3
   2a37e:	d30b      	bcc.n	2a398 <_ZN17compiler_builtins3mem6memcpy17h1f9dbb1c3fd18e2fE+0x72>
   2a380:	781c      	ldrb	r4, [r3, #0]
   2a382:	7034      	strb	r4, [r6, #0]
   2a384:	785c      	ldrb	r4, [r3, #1]
   2a386:	7074      	strb	r4, [r6, #1]
   2a388:	789c      	ldrb	r4, [r3, #2]
   2a38a:	70b4      	strb	r4, [r6, #2]
   2a38c:	78dc      	ldrb	r4, [r3, #3]
   2a38e:	70f4      	strb	r4, [r6, #3]
   2a390:	1d1b      	adds	r3, r3, #4
   2a392:	1d36      	adds	r6, r6, #4
   2a394:	42ae      	cmp	r6, r5
   2a396:	d1f3      	bne.n	2a380 <_ZN17compiler_builtins3mem6memcpy17h1f9dbb1c3fd18e2fE+0x5a>
   2a398:	980b      	ldr	r0, [sp, #44]	@ 0x2c
   2a39a:	1a80      	subs	r0, r0, r2
   2a39c:	900b      	str	r0, [sp, #44]	@ 0x2c
   2a39e:	9c08      	ldr	r4, [sp, #32]
   2a3a0:	43a0      	bics	r0, r4
   2a3a2:	182b      	adds	r3, r5, r0
   2a3a4:	188e      	adds	r6, r1, r2
   2a3a6:	9609      	str	r6, [sp, #36]	@ 0x24
   2a3a8:	4026      	ands	r6, r4
   2a3aa:	9007      	str	r0, [sp, #28]
   2a3ac:	d147      	bne.n	2a43e <_ZN17compiler_builtins3mem6memcpy17h1f9dbb1c3fd18e2fE+0x118>
   2a3ae:	429d      	cmp	r5, r3
   2a3b0:	9a0b      	ldr	r2, [sp, #44]	@ 0x2c
   2a3b2:	9e09      	ldr	r6, [sp, #36]	@ 0x24
   2a3b4:	d211      	bcs.n	2a3da <_ZN17compiler_builtins3mem6memcpy17h1f9dbb1c3fd18e2fE+0xb4>
   2a3b6:	4631      	mov	r1, r6
   2a3b8:	6808      	ldr	r0, [r1, #0]
   2a3ba:	c501      	stmia	r5!, {r0}
   2a3bc:	429d      	cmp	r5, r3
   2a3be:	d20c      	bcs.n	2a3da <_ZN17compiler_builtins3mem6memcpy17h1f9dbb1c3fd18e2fE+0xb4>
   2a3c0:	6848      	ldr	r0, [r1, #4]
   2a3c2:	c501      	stmia	r5!, {r0}
   2a3c4:	429d      	cmp	r5, r3
   2a3c6:	d208      	bcs.n	2a3da <_ZN17compiler_builtins3mem6memcpy17h1f9dbb1c3fd18e2fE+0xb4>
   2a3c8:	6888      	ldr	r0, [r1, #8]
   2a3ca:	c501      	stmia	r5!, {r0}
   2a3cc:	429d      	cmp	r5, r3
   2a3ce:	d204      	bcs.n	2a3da <_ZN17compiler_builtins3mem6memcpy17h1f9dbb1c3fd18e2fE+0xb4>
   2a3d0:	68c8      	ldr	r0, [r1, #12]
   2a3d2:	c501      	stmia	r5!, {r0}
   2a3d4:	3110      	adds	r1, #16
   2a3d6:	429d      	cmp	r5, r3
   2a3d8:	d3ee      	bcc.n	2a3b8 <_ZN17compiler_builtins3mem6memcpy17h1f9dbb1c3fd18e2fE+0x92>
   2a3da:	4022      	ands	r2, r4
   2a3dc:	9807      	ldr	r0, [sp, #28]
   2a3de:	1831      	adds	r1, r6, r0
   2a3e0:	980a      	ldr	r0, [sp, #40]	@ 0x28
   2a3e2:	189c      	adds	r4, r3, r2
   2a3e4:	42a3      	cmp	r3, r4
   2a3e6:	d221      	bcs.n	2a42c <_ZN17compiler_builtins3mem6memcpy17h1f9dbb1c3fd18e2fE+0x106>
   2a3e8:	2503      	movs	r5, #3
   2a3ea:	4015      	ands	r5, r2
   2a3ec:	1e52      	subs	r2, r2, #1
   2a3ee:	2d00      	cmp	r5, #0
   2a3f0:	d00e      	beq.n	2a410 <_ZN17compiler_builtins3mem6memcpy17h1f9dbb1c3fd18e2fE+0xea>
   2a3f2:	780e      	ldrb	r6, [r1, #0]
   2a3f4:	701e      	strb	r6, [r3, #0]
   2a3f6:	2d01      	cmp	r5, #1
   2a3f8:	d104      	bne.n	2a404 <_ZN17compiler_builtins3mem6memcpy17h1f9dbb1c3fd18e2fE+0xde>
   2a3fa:	1c49      	adds	r1, r1, #1
   2a3fc:	1c5b      	adds	r3, r3, #1
   2a3fe:	2a03      	cmp	r2, #3
   2a400:	d208      	bcs.n	2a414 <_ZN17compiler_builtins3mem6memcpy17h1f9dbb1c3fd18e2fE+0xee>
   2a402:	e013      	b.n	2a42c <_ZN17compiler_builtins3mem6memcpy17h1f9dbb1c3fd18e2fE+0x106>
   2a404:	784e      	ldrb	r6, [r1, #1]
   2a406:	705e      	strb	r6, [r3, #1]
   2a408:	2d02      	cmp	r5, #2
   2a40a:	d111      	bne.n	2a430 <_ZN17compiler_builtins3mem6memcpy17h1f9dbb1c3fd18e2fE+0x10a>
   2a40c:	1c89      	adds	r1, r1, #2
   2a40e:	1c9b      	adds	r3, r3, #2
   2a410:	2a03      	cmp	r2, #3
   2a412:	d30b      	bcc.n	2a42c <_ZN17compiler_builtins3mem6memcpy17h1f9dbb1c3fd18e2fE+0x106>
   2a414:	780a      	ldrb	r2, [r1, #0]
   2a416:	701a      	strb	r2, [r3, #0]
   2a418:	784a      	ldrb	r2, [r1, #1]
   2a41a:	705a      	strb	r2, [r3, #1]
   2a41c:	788a      	ldrb	r2, [r1, #2]
   2a41e:	709a      	strb	r2, [r3, #2]
   2a420:	78ca      	ldrb	r2, [r1, #3]
   2a422:	70da      	strb	r2, [r3, #3]
   2a424:	1d09      	adds	r1, r1, #4
   2a426:	1d1b      	adds	r3, r3, #4
   2a428:	42a3      	cmp	r3, r4
   2a42a:	d1f3      	bne.n	2a414 <_ZN17compiler_builtins3mem6memcpy17h1f9dbb1c3fd18e2fE+0xee>
   2a42c:	b00f      	add	sp, #60	@ 0x3c
   2a42e:	bdf0      	pop	{r4, r5, r6, r7, pc}
   2a430:	788d      	ldrb	r5, [r1, #2]
   2a432:	709d      	strb	r5, [r3, #2]
   2a434:	1cc9      	adds	r1, r1, #3
   2a436:	1cdb      	adds	r3, r3, #3
   2a438:	2a03      	cmp	r2, #3
   2a43a:	d2eb      	bcs.n	2a414 <_ZN17compiler_builtins3mem6memcpy17h1f9dbb1c3fd18e2fE+0xee>
   2a43c:	e7f6      	b.n	2a42c <_ZN17compiler_builtins3mem6memcpy17h1f9dbb1c3fd18e2fE+0x106>
   2a43e:	2400      	movs	r4, #0
   2a440:	9406      	str	r4, [sp, #24]
   2a442:	940e      	str	r4, [sp, #56]	@ 0x38
   2a444:	ac0e      	add	r4, sp, #56	@ 0x38
   2a446:	19a4      	adds	r4, r4, r6
   2a448:	9405      	str	r4, [sp, #20]
   2a44a:	2404      	movs	r4, #4
   2a44c:	1ba4      	subs	r4, r4, r6
   2a44e:	9404      	str	r4, [sp, #16]
   2a450:	07e4      	lsls	r4, r4, #31
   2a452:	9600      	str	r6, [sp, #0]
   2a454:	d006      	beq.n	2a464 <_ZN17compiler_builtins3mem6memcpy17h1f9dbb1c3fd18e2fE+0x13e>
   2a456:	9c09      	ldr	r4, [sp, #36]	@ 0x24
   2a458:	7824      	ldrb	r4, [r4, #0]
   2a45a:	9e05      	ldr	r6, [sp, #20]
   2a45c:	7034      	strb	r4, [r6, #0]
   2a45e:	9e00      	ldr	r6, [sp, #0]
   2a460:	2401      	movs	r4, #1
   2a462:	9406      	str	r4, [sp, #24]
   2a464:	9c04      	ldr	r4, [sp, #16]
   2a466:	07a4      	lsls	r4, r4, #30
   2a468:	d508      	bpl.n	2a47c <_ZN17compiler_builtins3mem6memcpy17h1f9dbb1c3fd18e2fE+0x156>
   2a46a:	9c09      	ldr	r4, [sp, #36]	@ 0x24
   2a46c:	9204      	str	r2, [sp, #16]
   2a46e:	9a06      	ldr	r2, [sp, #24]
   2a470:	5aa4      	ldrh	r4, [r4, r2]
   2a472:	9e05      	ldr	r6, [sp, #20]
   2a474:	9a06      	ldr	r2, [sp, #24]
   2a476:	52b4      	strh	r4, [r6, r2]
   2a478:	9a04      	ldr	r2, [sp, #16]
   2a47a:	9e00      	ldr	r6, [sp, #0]
   2a47c:	00f4      	lsls	r4, r6, #3
   2a47e:	9403      	str	r4, [sp, #12]
   2a480:	9c0e      	ldr	r4, [sp, #56]	@ 0x38
   2a482:	9406      	str	r4, [sp, #24]
   2a484:	1d2c      	adds	r4, r5, #4
   2a486:	429c      	cmp	r4, r3
   2a488:	d236      	bcs.n	2a4f8 <_ZN17compiler_builtins3mem6memcpy17h1f9dbb1c3fd18e2fE+0x1d2>
   2a48a:	4274      	negs	r4, r6
   2a48c:	1909      	adds	r1, r1, r4
   2a48e:	9105      	str	r1, [sp, #20]
   2a490:	9d03      	ldr	r5, [sp, #12]
   2a492:	4269      	negs	r1, r5
   2a494:	2418      	movs	r4, #24
   2a496:	400c      	ands	r4, r1
   2a498:	9402      	str	r4, [sp, #8]
   2a49a:	990a      	ldr	r1, [sp, #40]	@ 0x28
   2a49c:	9104      	str	r1, [sp, #16]
   2a49e:	4629      	mov	r1, r5
   2a4a0:	9c06      	ldr	r4, [sp, #24]
   2a4a2:	40cc      	lsrs	r4, r1
   2a4a4:	9406      	str	r4, [sp, #24]
   2a4a6:	9905      	ldr	r1, [sp, #20]
   2a4a8:	1889      	adds	r1, r1, r2
   2a4aa:	9101      	str	r1, [sp, #4]
   2a4ac:	6849      	ldr	r1, [r1, #4]
   2a4ae:	460c      	mov	r4, r1
   2a4b0:	9d02      	ldr	r5, [sp, #8]
   2a4b2:	40ac      	lsls	r4, r5
   2a4b4:	9d06      	ldr	r5, [sp, #24]
   2a4b6:	432c      	orrs	r4, r5
   2a4b8:	9d04      	ldr	r5, [sp, #16]
   2a4ba:	50ac      	str	r4, [r5, r2]
   2a4bc:	18ad      	adds	r5, r5, r2
   2a4be:	462c      	mov	r4, r5
   2a4c0:	3408      	adds	r4, #8
   2a4c2:	429c      	cmp	r4, r3
   2a4c4:	d21c      	bcs.n	2a500 <_ZN17compiler_builtins3mem6memcpy17h1f9dbb1c3fd18e2fE+0x1da>
   2a4c6:	9c03      	ldr	r4, [sp, #12]
   2a4c8:	40e1      	lsrs	r1, r4
   2a4ca:	9c01      	ldr	r4, [sp, #4]
   2a4cc:	68a4      	ldr	r4, [r4, #8]
   2a4ce:	9406      	str	r4, [sp, #24]
   2a4d0:	9501      	str	r5, [sp, #4]
   2a4d2:	9d02      	ldr	r5, [sp, #8]
   2a4d4:	40ac      	lsls	r4, r5
   2a4d6:	430c      	orrs	r4, r1
   2a4d8:	9901      	ldr	r1, [sp, #4]
   2a4da:	604c      	str	r4, [r1, #4]
   2a4dc:	9904      	ldr	r1, [sp, #16]
   2a4de:	3108      	adds	r1, #8
   2a4e0:	9104      	str	r1, [sp, #16]
   2a4e2:	188d      	adds	r5, r1, r2
   2a4e4:	1d29      	adds	r1, r5, #4
   2a4e6:	9c05      	ldr	r4, [sp, #20]
   2a4e8:	3408      	adds	r4, #8
   2a4ea:	9405      	str	r4, [sp, #20]
   2a4ec:	4299      	cmp	r1, r3
   2a4ee:	9903      	ldr	r1, [sp, #12]
   2a4f0:	d3d6      	bcc.n	2a4a0 <_ZN17compiler_builtins3mem6memcpy17h1f9dbb1c3fd18e2fE+0x17a>
   2a4f2:	9805      	ldr	r0, [sp, #20]
   2a4f4:	1880      	adds	r0, r0, r2
   2a4f6:	e001      	b.n	2a4fc <_ZN17compiler_builtins3mem6memcpy17h1f9dbb1c3fd18e2fE+0x1d6>
   2a4f8:	9809      	ldr	r0, [sp, #36]	@ 0x24
   2a4fa:	1b80      	subs	r0, r0, r6
   2a4fc:	9005      	str	r0, [sp, #20]
   2a4fe:	e004      	b.n	2a50a <_ZN17compiler_builtins3mem6memcpy17h1f9dbb1c3fd18e2fE+0x1e4>
   2a500:	9801      	ldr	r0, [sp, #4]
   2a502:	1d00      	adds	r0, r0, #4
   2a504:	9005      	str	r0, [sp, #20]
   2a506:	1d2d      	adds	r5, r5, #4
   2a508:	9106      	str	r1, [sp, #24]
   2a50a:	a80d      	add	r0, sp, #52	@ 0x34
   2a50c:	2100      	movs	r1, #0
   2a50e:	9004      	str	r0, [sp, #16]
   2a510:	7001      	strb	r1, [r0, #0]
   2a512:	a80c      	add	r0, sp, #48	@ 0x30
   2a514:	7001      	strb	r1, [r0, #0]
   2a516:	2e01      	cmp	r6, #1
   2a518:	460e      	mov	r6, r1
   2a51a:	460c      	mov	r4, r1
   2a51c:	9102      	str	r1, [sp, #8]
   2a51e:	9a0b      	ldr	r2, [sp, #44]	@ 0x2c
   2a520:	d009      	beq.n	2a536 <_ZN17compiler_builtins3mem6memcpy17h1f9dbb1c3fd18e2fE+0x210>
   2a522:	9c05      	ldr	r4, [sp, #20]
   2a524:	7960      	ldrb	r0, [r4, #5]
   2a526:	7926      	ldrb	r6, [r4, #4]
   2a528:	ac0d      	add	r4, sp, #52	@ 0x34
   2a52a:	7026      	strb	r6, [r4, #0]
   2a52c:	0204      	lsls	r4, r0, #8
   2a52e:	2002      	movs	r0, #2
   2a530:	9002      	str	r0, [sp, #8]
   2a532:	a80c      	add	r0, sp, #48	@ 0x30
   2a534:	9004      	str	r0, [sp, #16]
   2a536:	9809      	ldr	r0, [sp, #36]	@ 0x24
   2a538:	07c0      	lsls	r0, r0, #31
   2a53a:	d00a      	beq.n	2a552 <_ZN17compiler_builtins3mem6memcpy17h1f9dbb1c3fd18e2fE+0x22c>
   2a53c:	9805      	ldr	r0, [sp, #20]
   2a53e:	1d00      	adds	r0, r0, #4
   2a540:	9902      	ldr	r1, [sp, #8]
   2a542:	5c40      	ldrb	r0, [r0, r1]
   2a544:	9904      	ldr	r1, [sp, #16]
   2a546:	7008      	strb	r0, [r1, #0]
   2a548:	a80d      	add	r0, sp, #52	@ 0x34
   2a54a:	7806      	ldrb	r6, [r0, #0]
   2a54c:	a80c      	add	r0, sp, #48	@ 0x30
   2a54e:	7800      	ldrb	r0, [r0, #0]
   2a550:	0401      	lsls	r1, r0, #16
   2a552:	9605      	str	r6, [sp, #20]
   2a554:	9803      	ldr	r0, [sp, #12]
   2a556:	4240      	negs	r0, r0
   2a558:	9004      	str	r0, [sp, #16]
   2a55a:	2618      	movs	r6, #24
   2a55c:	9804      	ldr	r0, [sp, #16]
   2a55e:	4006      	ands	r6, r0
   2a560:	430c      	orrs	r4, r1
   2a562:	9905      	ldr	r1, [sp, #20]
   2a564:	430c      	orrs	r4, r1
   2a566:	40b4      	lsls	r4, r6
   2a568:	9906      	ldr	r1, [sp, #24]
   2a56a:	9803      	ldr	r0, [sp, #12]
   2a56c:	40c1      	lsrs	r1, r0
   2a56e:	4321      	orrs	r1, r4
   2a570:	6029      	str	r1, [r5, #0]
   2a572:	9c08      	ldr	r4, [sp, #32]
   2a574:	9e09      	ldr	r6, [sp, #36]	@ 0x24
   2a576:	e730      	b.n	2a3da <_ZN17compiler_builtins3mem6memcpy17h1f9dbb1c3fd18e2fE+0xb4>

0002a578 <__aeabi_memcpy>:
   2a578:	b580      	push	{r7, lr}
   2a57a:	af00      	add	r7, sp, #0
   2a57c:	f7ff fed3 	bl	2a326 <_ZN17compiler_builtins3mem6memcpy17h1f9dbb1c3fd18e2fE>
   2a580:	bd80      	pop	{r7, pc}
