
target/riscv32imc-unknown-none-elf/opt-s/examples/complex_no_dynamic:     file format elf32-littleriscv

Sections:
Idx Name          Size      VMA       LMA       File off  Algn
  0 .eh_frame     00000060  000100d4  000100d4  000000d4  2**2
                  CONTENTS, ALLOC, LOAD, READONLY, DATA
  1 .text         00009c88  00011134  00011134  00000134  2**1
                  CONTENTS, ALLOC, LOAD, READONLY, CODE
  2 .comment      0000008b  00000000  00000000  00009dbc  2**0
                  CONTENTS, READONLY
  3 .riscv.attributes 0000002f  00000000  00000000  00009e47  2**0
                  CONTENTS, READONLY

Disassembly of section .text:

00011134 <_ZN18complex_no_dynamic3app17h041a5cb411e44033E>:
   11134:	7119                	addi	sp,sp,-128
   11136:	de86                	sw	ra,124(sp)
   11138:	dca2                	sw	s0,120(sp)
   1113a:	daa6                	sw	s1,116(sp)
   1113c:	842a                	mv	s0,a0
   1113e:	00d10513          	addi	a0,sp,13
   11142:	04400613          	li	a2,68
   11146:	0000a097          	auipc	ra,0xa
   1114a:	ad0080e7          	jalr	-1328(ra) # 1ac16 <memcpy>
   1114e:	05110513          	addi	a0,sp,81
   11152:	02300613          	li	a2,35
   11156:	4581                	li	a1,0
   11158:	0000a097          	auipc	ra,0xa
   1115c:	a52080e7          	jalr	-1454(ra) # 1abaa <memset>
   11160:	6505                	lui	a0,0x1
   11162:	4599                	li	a1,6
   11164:	00d10613          	addi	a2,sp,13
   11168:	04400693          	li	a3,68
   1116c:	9bf50793          	addi	a5,a0,-1601 # 9bf <.Lline_table_start1+0x794>
   11170:	4711                	li	a4,4
   11172:	4489                	li	s1,2
   11174:	853e                	mv	a0,a5
   11176:	00000073          	ecall
   1117a:	02950b63          	beq	a0,s1,111b0 <_ZN18complex_no_dynamic3app17h041a5cb411e44033E+0x7c>
   1117e:	458d                	li	a1,3
   11180:	05110613          	addi	a2,sp,81
   11184:	02300693          	li	a3,35
   11188:	470d                	li	a4,3
   1118a:	853e                	mv	a0,a5
   1118c:	00000073          	ecall
   11190:	02950063          	beq	a0,s1,111b0 <_ZN18complex_no_dynamic3app17h041a5cb411e44033E+0x7c>
   11194:	6505                	lui	a0,0x1
   11196:	4599                	li	a1,6
   11198:	460d                	li	a2,3
   1119a:	9bf50493          	addi	s1,a0,-1601 # 9bf <.Lline_table_start1+0x794>
   1119e:	4709                	li	a4,2
   111a0:	07f00793          	li	a5,127
   111a4:	8526                	mv	a0,s1
   111a6:	4681                	li	a3,0
   111a8:	00000073          	ecall
   111ac:	02a7ed63          	bltu	a5,a0,111e6 <_ZN18complex_no_dynamic3app17h041a5cb411e44033E+0xb2>
   111b0:	872e                	mv	a4,a1
   111b2:	4601                	li	a2,0
   111b4:	4681                	li	a3,0
   111b6:	4505                	li	a0,1
   111b8:	6785                	lui	a5,0x1
   111ba:	458d                	li	a1,3
   111bc:	00a40023          	sb	a0,0(s0)
   111c0:	c058                	sw	a4,4(s0)
   111c2:	9bf78793          	addi	a5,a5,-1601 # 9bf <.Lline_table_start1+0x794>
   111c6:	470d                	li	a4,3
   111c8:	853e                	mv	a0,a5
   111ca:	00000073          	ecall
   111ce:	4599                	li	a1,6
   111d0:	4711                	li	a4,4
   111d2:	853e                	mv	a0,a5
   111d4:	4601                	li	a2,0
   111d6:	4681                	li	a3,0
   111d8:	00000073          	ecall
   111dc:	50f6                	lw	ra,124(sp)
   111de:	5466                	lw	s0,120(sp)
   111e0:	54d6                	lw	s1,116(sp)
   111e2:	6109                	addi	sp,sp,128
   111e4:	8082                	ret
   111e6:	8526                	mv	a0,s1
   111e8:	4601                	li	a2,0
   111ea:	4681                	li	a3,0
   111ec:	458d                	li	a1,3
   111ee:	470d                	li	a4,3
   111f0:	00000073          	ecall
   111f4:	458d                	li	a1,3
   111f6:	470d                	li	a4,3
   111f8:	8526                	mv	a0,s1
   111fa:	4601                	li	a2,0
   111fc:	4681                	li	a3,0
   111fe:	00000073          	ecall
   11202:	00140513          	addi	a0,s0,1
   11206:	05110593          	addi	a1,sp,81
   1120a:	02300613          	li	a2,35
   1120e:	0000a097          	auipc	ra,0xa
   11212:	a08080e7          	jalr	-1528(ra) # 1ac16 <memcpy>
   11216:	8526                	mv	a0,s1
   11218:	4601                	li	a2,0
   1121a:	4681                	li	a3,0
   1121c:	00040023          	sb	zero,0(s0)
   11220:	458d                	li	a1,3
   11222:	470d                	li	a4,3
   11224:	00000073          	ecall
   11228:	4599                	li	a1,6
   1122a:	4711                	li	a4,4
   1122c:	8526                	mv	a0,s1
   1122e:	4601                	li	a2,0
   11230:	4681                	li	a3,0
   11232:	00000073          	ecall
   11236:	b75d                	j	111dc <_ZN18complex_no_dynamic3app17h041a5cb411e44033E+0xa8>

00011238 <_ZN18complex_no_dynamic3app17h08708a12094af326E>:
   11238:	711d                	addi	sp,sp,-96
   1123a:	ce86                	sw	ra,92(sp)
   1123c:	cca2                	sw	s0,88(sp)
   1123e:	842a                	mv	s0,a0
   11240:	00a10513          	addi	a0,sp,10
   11244:	4661                	li	a2,24
   11246:	0000a097          	auipc	ra,0xa
   1124a:	9d0080e7          	jalr	-1584(ra) # 1ac16 <memcpy>
   1124e:	02210513          	addi	a0,sp,34
   11252:	03600613          	li	a2,54
   11256:	4581                	li	a1,0
   11258:	0000a097          	auipc	ra,0xa
   1125c:	952080e7          	jalr	-1710(ra) # 1abaa <memset>
   11260:	0f300513          	li	a0,243
   11264:	45a1                	li	a1,8
   11266:	00a10613          	addi	a2,sp,10
   1126a:	46e1                	li	a3,24
   1126c:	4711                	li	a4,4
   1126e:	4789                	li	a5,2
   11270:	00000073          	ecall
   11274:	02f50a63          	beq	a0,a5,112a8 <_ZN18complex_no_dynamic3app17h08708a12094af326E+0x70>
   11278:	0f300513          	li	a0,243
   1127c:	4591                	li	a1,4
   1127e:	02210613          	addi	a2,sp,34
   11282:	03600693          	li	a3,54
   11286:	470d                	li	a4,3
   11288:	00000073          	ecall
   1128c:	00f50e63          	beq	a0,a5,112a8 <_ZN18complex_no_dynamic3app17h08708a12094af326E+0x70>
   11290:	0f300513          	li	a0,243
   11294:	45a1                	li	a1,8
   11296:	4611                	li	a2,4
   11298:	4709                	li	a4,2
   1129a:	07f00793          	li	a5,127
   1129e:	4681                	li	a3,0
   112a0:	00000073          	ecall
   112a4:	02a7ea63          	bltu	a5,a0,112d8 <_ZN18complex_no_dynamic3app17h08708a12094af326E+0xa0>
   112a8:	4601                	li	a2,0
   112aa:	4681                	li	a3,0
   112ac:	4705                	li	a4,1
   112ae:	0f300513          	li	a0,243
   112b2:	00e40023          	sb	a4,0(s0)
   112b6:	c04c                	sw	a1,4(s0)
   112b8:	4591                	li	a1,4
   112ba:	470d                	li	a4,3
   112bc:	00000073          	ecall
   112c0:	0f300513          	li	a0,243
   112c4:	45a1                	li	a1,8
   112c6:	4711                	li	a4,4
   112c8:	4601                	li	a2,0
   112ca:	4681                	li	a3,0
   112cc:	00000073          	ecall
   112d0:	40f6                	lw	ra,92(sp)
   112d2:	4466                	lw	s0,88(sp)
   112d4:	6125                	addi	sp,sp,96
   112d6:	8082                	ret
   112d8:	4601                	li	a2,0
   112da:	4681                	li	a3,0
   112dc:	0f300513          	li	a0,243
   112e0:	4591                	li	a1,4
   112e2:	470d                	li	a4,3
   112e4:	00000073          	ecall
   112e8:	0f300513          	li	a0,243
   112ec:	4591                	li	a1,4
   112ee:	470d                	li	a4,3
   112f0:	4601                	li	a2,0
   112f2:	4681                	li	a3,0
   112f4:	00000073          	ecall
   112f8:	00140513          	addi	a0,s0,1
   112fc:	02210593          	addi	a1,sp,34
   11300:	03600613          	li	a2,54
   11304:	0000a097          	auipc	ra,0xa
   11308:	912080e7          	jalr	-1774(ra) # 1ac16 <memcpy>
   1130c:	4601                	li	a2,0
   1130e:	4681                	li	a3,0
   11310:	00040023          	sb	zero,0(s0)
   11314:	0f300513          	li	a0,243
   11318:	4591                	li	a1,4
   1131a:	470d                	li	a4,3
   1131c:	00000073          	ecall
   11320:	0f300513          	li	a0,243
   11324:	45a1                	li	a1,8
   11326:	4711                	li	a4,4
   11328:	4601                	li	a2,0
   1132a:	4681                	li	a3,0
   1132c:	00000073          	ecall
   11330:	b745                	j	112d0 <_ZN18complex_no_dynamic3app17h08708a12094af326E+0x98>

00011332 <_ZN18complex_no_dynamic3app17h0efb490f5ea430d3E>:
   11332:	715d                	addi	sp,sp,-80
   11334:	c686                	sw	ra,76(sp)
   11336:	c4a2                	sw	s0,72(sp)
   11338:	842a                	mv	s0,a0
   1133a:	00310513          	addi	a0,sp,3
   1133e:	03600613          	li	a2,54
   11342:	0000a097          	auipc	ra,0xa
   11346:	8d4080e7          	jalr	-1836(ra) # 1ac16 <memcpy>
   1134a:	03910513          	addi	a0,sp,57
   1134e:	463d                	li	a2,15
   11350:	4581                	li	a1,0
   11352:	0000a097          	auipc	ra,0xa
   11356:	858080e7          	jalr	-1960(ra) # 1abaa <memset>
   1135a:	65300513          	li	a0,1619
   1135e:	4595                	li	a1,5
   11360:	00310613          	addi	a2,sp,3
   11364:	03600693          	li	a3,54
   11368:	4711                	li	a4,4
   1136a:	4789                	li	a5,2
   1136c:	00000073          	ecall
   11370:	02f50963          	beq	a0,a5,113a2 <_ZN18complex_no_dynamic3app17h0efb490f5ea430d3E+0x70>
   11374:	65300513          	li	a0,1619
   11378:	458d                	li	a1,3
   1137a:	03910613          	addi	a2,sp,57
   1137e:	46bd                	li	a3,15
   11380:	470d                	li	a4,3
   11382:	00000073          	ecall
   11386:	00f50e63          	beq	a0,a5,113a2 <_ZN18complex_no_dynamic3app17h0efb490f5ea430d3E+0x70>
   1138a:	65300513          	li	a0,1619
   1138e:	4595                	li	a1,5
   11390:	460d                	li	a2,3
   11392:	4709                	li	a4,2
   11394:	07f00793          	li	a5,127
   11398:	4681                	li	a3,0
   1139a:	00000073          	ecall
   1139e:	02a7ea63          	bltu	a5,a0,113d2 <_ZN18complex_no_dynamic3app17h0efb490f5ea430d3E+0xa0>
   113a2:	4601                	li	a2,0
   113a4:	4681                	li	a3,0
   113a6:	4705                	li	a4,1
   113a8:	65300513          	li	a0,1619
   113ac:	00e40023          	sb	a4,0(s0)
   113b0:	c04c                	sw	a1,4(s0)
   113b2:	458d                	li	a1,3
   113b4:	470d                	li	a4,3
   113b6:	00000073          	ecall
   113ba:	65300513          	li	a0,1619
   113be:	4595                	li	a1,5
   113c0:	4711                	li	a4,4
   113c2:	4601                	li	a2,0
   113c4:	4681                	li	a3,0
   113c6:	00000073          	ecall
   113ca:	40b6                	lw	ra,76(sp)
   113cc:	4426                	lw	s0,72(sp)
   113ce:	6161                	addi	sp,sp,80
   113d0:	8082                	ret
   113d2:	4601                	li	a2,0
   113d4:	4681                	li	a3,0
   113d6:	65300513          	li	a0,1619
   113da:	458d                	li	a1,3
   113dc:	470d                	li	a4,3
   113de:	00000073          	ecall
   113e2:	65300513          	li	a0,1619
   113e6:	458d                	li	a1,3
   113e8:	470d                	li	a4,3
   113ea:	4601                	li	a2,0
   113ec:	4681                	li	a3,0
   113ee:	00000073          	ecall
   113f2:	00140513          	addi	a0,s0,1
   113f6:	03910593          	addi	a1,sp,57
   113fa:	463d                	li	a2,15
   113fc:	0000a097          	auipc	ra,0xa
   11400:	81a080e7          	jalr	-2022(ra) # 1ac16 <memcpy>
   11404:	4601                	li	a2,0
   11406:	4681                	li	a3,0
   11408:	00040023          	sb	zero,0(s0)
   1140c:	65300513          	li	a0,1619
   11410:	458d                	li	a1,3
   11412:	470d                	li	a4,3
   11414:	00000073          	ecall
   11418:	65300513          	li	a0,1619
   1141c:	4595                	li	a1,5
   1141e:	4711                	li	a4,4
   11420:	4601                	li	a2,0
   11422:	4681                	li	a3,0
   11424:	00000073          	ecall
   11428:	b74d                	j	113ca <_ZN18complex_no_dynamic3app17h0efb490f5ea430d3E+0x98>

0001142a <_ZN18complex_no_dynamic3app17h0f1b37f180aa4e4dE>:
   1142a:	7119                	addi	sp,sp,-128
   1142c:	de86                	sw	ra,124(sp)
   1142e:	dca2                	sw	s0,120(sp)
   11430:	daa6                	sw	s1,116(sp)
   11432:	842a                	mv	s0,a0
   11434:	00310513          	addi	a0,sp,3
   11438:	04000613          	li	a2,64
   1143c:	00009097          	auipc	ra,0x9
   11440:	7da080e7          	jalr	2010(ra) # 1ac16 <memcpy>
   11444:	04310513          	addi	a0,sp,67
   11448:	03100613          	li	a2,49
   1144c:	4581                	li	a1,0
   1144e:	00009097          	auipc	ra,0x9
   11452:	75c080e7          	jalr	1884(ra) # 1abaa <memset>
   11456:	6505                	lui	a0,0x1
   11458:	45a1                	li	a1,8
   1145a:	00310613          	addi	a2,sp,3
   1145e:	04000693          	li	a3,64
   11462:	fce50793          	addi	a5,a0,-50 # fce <.Lline_table_start1+0xda3>
   11466:	4711                	li	a4,4
   11468:	4489                	li	s1,2
   1146a:	853e                	mv	a0,a5
   1146c:	00000073          	ecall
   11470:	02950b63          	beq	a0,s1,114a6 <_ZN18complex_no_dynamic3app17h0f1b37f180aa4e4dE+0x7c>
   11474:	4595                	li	a1,5
   11476:	04310613          	addi	a2,sp,67
   1147a:	03100693          	li	a3,49
   1147e:	470d                	li	a4,3
   11480:	853e                	mv	a0,a5
   11482:	00000073          	ecall
   11486:	02950063          	beq	a0,s1,114a6 <_ZN18complex_no_dynamic3app17h0f1b37f180aa4e4dE+0x7c>
   1148a:	6505                	lui	a0,0x1
   1148c:	45a1                	li	a1,8
   1148e:	4615                	li	a2,5
   11490:	fce50493          	addi	s1,a0,-50 # fce <.Lline_table_start1+0xda3>
   11494:	4709                	li	a4,2
   11496:	07f00793          	li	a5,127
   1149a:	8526                	mv	a0,s1
   1149c:	4681                	li	a3,0
   1149e:	00000073          	ecall
   114a2:	02a7ed63          	bltu	a5,a0,114dc <_ZN18complex_no_dynamic3app17h0f1b37f180aa4e4dE+0xb2>
   114a6:	872e                	mv	a4,a1
   114a8:	4601                	li	a2,0
   114aa:	4681                	li	a3,0
   114ac:	4505                	li	a0,1
   114ae:	6785                	lui	a5,0x1
   114b0:	4595                	li	a1,5
   114b2:	00a40023          	sb	a0,0(s0)
   114b6:	c058                	sw	a4,4(s0)
   114b8:	fce78793          	addi	a5,a5,-50 # fce <.Lline_table_start1+0xda3>
   114bc:	470d                	li	a4,3
   114be:	853e                	mv	a0,a5
   114c0:	00000073          	ecall
   114c4:	45a1                	li	a1,8
   114c6:	4711                	li	a4,4
   114c8:	853e                	mv	a0,a5
   114ca:	4601                	li	a2,0
   114cc:	4681                	li	a3,0
   114ce:	00000073          	ecall
   114d2:	50f6                	lw	ra,124(sp)
   114d4:	5466                	lw	s0,120(sp)
   114d6:	54d6                	lw	s1,116(sp)
   114d8:	6109                	addi	sp,sp,128
   114da:	8082                	ret
   114dc:	8526                	mv	a0,s1
   114de:	4601                	li	a2,0
   114e0:	4681                	li	a3,0
   114e2:	4595                	li	a1,5
   114e4:	470d                	li	a4,3
   114e6:	00000073          	ecall
   114ea:	4595                	li	a1,5
   114ec:	470d                	li	a4,3
   114ee:	8526                	mv	a0,s1
   114f0:	4601                	li	a2,0
   114f2:	4681                	li	a3,0
   114f4:	00000073          	ecall
   114f8:	00140513          	addi	a0,s0,1
   114fc:	04310593          	addi	a1,sp,67
   11500:	03100613          	li	a2,49
   11504:	00009097          	auipc	ra,0x9
   11508:	712080e7          	jalr	1810(ra) # 1ac16 <memcpy>
   1150c:	8526                	mv	a0,s1
   1150e:	4601                	li	a2,0
   11510:	4681                	li	a3,0
   11512:	00040023          	sb	zero,0(s0)
   11516:	4595                	li	a1,5
   11518:	470d                	li	a4,3
   1151a:	00000073          	ecall
   1151e:	45a1                	li	a1,8
   11520:	4711                	li	a4,4
   11522:	8526                	mv	a0,s1
   11524:	4601                	li	a2,0
   11526:	4681                	li	a3,0
   11528:	00000073          	ecall
   1152c:	b75d                	j	114d2 <_ZN18complex_no_dynamic3app17h0f1b37f180aa4e4dE+0xa8>

0001152e <_ZN18complex_no_dynamic3app17h0fe6ac1bf6eab8d1E>:
   1152e:	7159                	addi	sp,sp,-112
   11530:	d686                	sw	ra,108(sp)
   11532:	d4a2                	sw	s0,104(sp)
   11534:	d2a6                	sw	s1,100(sp)
   11536:	842a                	mv	s0,a0
   11538:	00f10513          	addi	a0,sp,15
   1153c:	463d                	li	a2,15
   1153e:	00009097          	auipc	ra,0x9
   11542:	6d8080e7          	jalr	1752(ra) # 1ac16 <memcpy>
   11546:	01e10513          	addi	a0,sp,30
   1154a:	04600613          	li	a2,70
   1154e:	4581                	li	a1,0
   11550:	00009097          	auipc	ra,0x9
   11554:	65a080e7          	jalr	1626(ra) # 1abaa <memset>
   11558:	6509                	lui	a0,0x2
   1155a:	45a5                	li	a1,9
   1155c:	00f10613          	addi	a2,sp,15
   11560:	46bd                	li	a3,15
   11562:	d7e50793          	addi	a5,a0,-642 # 1d7e <.Lline_table_start1+0x1b53>
   11566:	4711                	li	a4,4
   11568:	4489                	li	s1,2
   1156a:	853e                	mv	a0,a5
   1156c:	00000073          	ecall
   11570:	02950b63          	beq	a0,s1,115a6 <_ZN18complex_no_dynamic3app17h0fe6ac1bf6eab8d1E+0x78>
   11574:	4589                	li	a1,2
   11576:	01e10613          	addi	a2,sp,30
   1157a:	04600693          	li	a3,70
   1157e:	470d                	li	a4,3
   11580:	853e                	mv	a0,a5
   11582:	00000073          	ecall
   11586:	02950063          	beq	a0,s1,115a6 <_ZN18complex_no_dynamic3app17h0fe6ac1bf6eab8d1E+0x78>
   1158a:	6509                	lui	a0,0x2
   1158c:	45a5                	li	a1,9
   1158e:	4609                	li	a2,2
   11590:	d7e50493          	addi	s1,a0,-642 # 1d7e <.Lline_table_start1+0x1b53>
   11594:	4709                	li	a4,2
   11596:	07f00793          	li	a5,127
   1159a:	8526                	mv	a0,s1
   1159c:	4681                	li	a3,0
   1159e:	00000073          	ecall
   115a2:	02a7ed63          	bltu	a5,a0,115dc <_ZN18complex_no_dynamic3app17h0fe6ac1bf6eab8d1E+0xae>
   115a6:	872e                	mv	a4,a1
   115a8:	4601                	li	a2,0
   115aa:	4681                	li	a3,0
   115ac:	4505                	li	a0,1
   115ae:	6789                	lui	a5,0x2
   115b0:	4589                	li	a1,2
   115b2:	00a40023          	sb	a0,0(s0)
   115b6:	c058                	sw	a4,4(s0)
   115b8:	d7e78793          	addi	a5,a5,-642 # 1d7e <.Lline_table_start1+0x1b53>
   115bc:	470d                	li	a4,3
   115be:	853e                	mv	a0,a5
   115c0:	00000073          	ecall
   115c4:	45a5                	li	a1,9
   115c6:	4711                	li	a4,4
   115c8:	853e                	mv	a0,a5
   115ca:	4601                	li	a2,0
   115cc:	4681                	li	a3,0
   115ce:	00000073          	ecall
   115d2:	50b6                	lw	ra,108(sp)
   115d4:	5426                	lw	s0,104(sp)
   115d6:	5496                	lw	s1,100(sp)
   115d8:	6165                	addi	sp,sp,112
   115da:	8082                	ret
   115dc:	8526                	mv	a0,s1
   115de:	4601                	li	a2,0
   115e0:	4681                	li	a3,0
   115e2:	4589                	li	a1,2
   115e4:	470d                	li	a4,3
   115e6:	00000073          	ecall
   115ea:	4589                	li	a1,2
   115ec:	470d                	li	a4,3
   115ee:	8526                	mv	a0,s1
   115f0:	4601                	li	a2,0
   115f2:	4681                	li	a3,0
   115f4:	00000073          	ecall
   115f8:	00140513          	addi	a0,s0,1
   115fc:	01e10593          	addi	a1,sp,30
   11600:	04600613          	li	a2,70
   11604:	00009097          	auipc	ra,0x9
   11608:	612080e7          	jalr	1554(ra) # 1ac16 <memcpy>
   1160c:	8526                	mv	a0,s1
   1160e:	4601                	li	a2,0
   11610:	4681                	li	a3,0
   11612:	00040023          	sb	zero,0(s0)
   11616:	4589                	li	a1,2
   11618:	470d                	li	a4,3
   1161a:	00000073          	ecall
   1161e:	45a5                	li	a1,9
   11620:	4711                	li	a4,4
   11622:	8526                	mv	a0,s1
   11624:	4601                	li	a2,0
   11626:	4681                	li	a3,0
   11628:	00000073          	ecall
   1162c:	b75d                	j	115d2 <_ZN18complex_no_dynamic3app17h0fe6ac1bf6eab8d1E+0xa4>

0001162e <_ZN18complex_no_dynamic3app17h11a0a1b6e07a2cecE>:
   1162e:	7175                	addi	sp,sp,-144
   11630:	c706                	sw	ra,140(sp)
   11632:	c522                	sw	s0,136(sp)
   11634:	842a                	mv	s0,a0
   11636:	00910513          	addi	a0,sp,9
   1163a:	06100613          	li	a2,97
   1163e:	00009097          	auipc	ra,0x9
   11642:	5d8080e7          	jalr	1496(ra) # 1ac16 <memcpy>
   11646:	06a10513          	addi	a0,sp,106
   1164a:	4679                	li	a2,30
   1164c:	4581                	li	a1,0
   1164e:	00009097          	auipc	ra,0x9
   11652:	55c080e7          	jalr	1372(ra) # 1abaa <memset>
   11656:	18800513          	li	a0,392
   1165a:	4591                	li	a1,4
   1165c:	00910613          	addi	a2,sp,9
   11660:	06100693          	li	a3,97
   11664:	4711                	li	a4,4
   11666:	4789                	li	a5,2
   11668:	00000073          	ecall
   1166c:	02f50963          	beq	a0,a5,1169e <_ZN18complex_no_dynamic3app17h11a0a1b6e07a2cecE+0x70>
   11670:	18800513          	li	a0,392
   11674:	4599                	li	a1,6
   11676:	06a10613          	addi	a2,sp,106
   1167a:	46f9                	li	a3,30
   1167c:	470d                	li	a4,3
   1167e:	00000073          	ecall
   11682:	00f50e63          	beq	a0,a5,1169e <_ZN18complex_no_dynamic3app17h11a0a1b6e07a2cecE+0x70>
   11686:	18800513          	li	a0,392
   1168a:	4591                	li	a1,4
   1168c:	4619                	li	a2,6
   1168e:	4709                	li	a4,2
   11690:	07f00793          	li	a5,127
   11694:	4681                	li	a3,0
   11696:	00000073          	ecall
   1169a:	02a7ea63          	bltu	a5,a0,116ce <_ZN18complex_no_dynamic3app17h11a0a1b6e07a2cecE+0xa0>
   1169e:	4601                	li	a2,0
   116a0:	4681                	li	a3,0
   116a2:	4705                	li	a4,1
   116a4:	18800513          	li	a0,392
   116a8:	00e40023          	sb	a4,0(s0)
   116ac:	c04c                	sw	a1,4(s0)
   116ae:	4599                	li	a1,6
   116b0:	470d                	li	a4,3
   116b2:	00000073          	ecall
   116b6:	18800513          	li	a0,392
   116ba:	4591                	li	a1,4
   116bc:	4711                	li	a4,4
   116be:	4601                	li	a2,0
   116c0:	4681                	li	a3,0
   116c2:	00000073          	ecall
   116c6:	40ba                	lw	ra,140(sp)
   116c8:	442a                	lw	s0,136(sp)
   116ca:	6149                	addi	sp,sp,144
   116cc:	8082                	ret
   116ce:	4601                	li	a2,0
   116d0:	4681                	li	a3,0
   116d2:	18800513          	li	a0,392
   116d6:	4599                	li	a1,6
   116d8:	470d                	li	a4,3
   116da:	00000073          	ecall
   116de:	18800513          	li	a0,392
   116e2:	4599                	li	a1,6
   116e4:	470d                	li	a4,3
   116e6:	4601                	li	a2,0
   116e8:	4681                	li	a3,0
   116ea:	00000073          	ecall
   116ee:	00140513          	addi	a0,s0,1
   116f2:	06a10593          	addi	a1,sp,106
   116f6:	4679                	li	a2,30
   116f8:	00009097          	auipc	ra,0x9
   116fc:	51e080e7          	jalr	1310(ra) # 1ac16 <memcpy>
   11700:	4601                	li	a2,0
   11702:	4681                	li	a3,0
   11704:	00040023          	sb	zero,0(s0)
   11708:	18800513          	li	a0,392
   1170c:	4599                	li	a1,6
   1170e:	470d                	li	a4,3
   11710:	00000073          	ecall
   11714:	18800513          	li	a0,392
   11718:	4591                	li	a1,4
   1171a:	4711                	li	a4,4
   1171c:	4601                	li	a2,0
   1171e:	4681                	li	a3,0
   11720:	00000073          	ecall
   11724:	b74d                	j	116c6 <_ZN18complex_no_dynamic3app17h11a0a1b6e07a2cecE+0x98>

00011726 <_ZN18complex_no_dynamic3app17h1abc879e02fac4e5E>:
   11726:	715d                	addi	sp,sp,-80
   11728:	c686                	sw	ra,76(sp)
   1172a:	c4a2                	sw	s0,72(sp)
   1172c:	c2a6                	sw	s1,68(sp)
   1172e:	842a                	mv	s0,a0
   11730:	00510513          	addi	a0,sp,5
   11734:	4651                	li	a2,20
   11736:	00009097          	auipc	ra,0x9
   1173a:	4e0080e7          	jalr	1248(ra) # 1ac16 <memcpy>
   1173e:	01910513          	addi	a0,sp,25
   11742:	02b00613          	li	a2,43
   11746:	4581                	li	a1,0
   11748:	00009097          	auipc	ra,0x9
   1174c:	462080e7          	jalr	1122(ra) # 1abaa <memset>
   11750:	6509                	lui	a0,0x2
   11752:	45a1                	li	a1,8
   11754:	00510613          	addi	a2,sp,5
   11758:	46d1                	li	a3,20
   1175a:	39f50793          	addi	a5,a0,927 # 239f <.Lline_table_start1+0x2174>
   1175e:	4711                	li	a4,4
   11760:	4489                	li	s1,2
   11762:	853e                	mv	a0,a5
   11764:	00000073          	ecall
   11768:	02950b63          	beq	a0,s1,1179e <_ZN18complex_no_dynamic3app17h1abc879e02fac4e5E+0x78>
   1176c:	4591                	li	a1,4
   1176e:	01910613          	addi	a2,sp,25
   11772:	02b00693          	li	a3,43
   11776:	470d                	li	a4,3
   11778:	853e                	mv	a0,a5
   1177a:	00000073          	ecall
   1177e:	02950063          	beq	a0,s1,1179e <_ZN18complex_no_dynamic3app17h1abc879e02fac4e5E+0x78>
   11782:	6509                	lui	a0,0x2
   11784:	45a1                	li	a1,8
   11786:	4611                	li	a2,4
   11788:	39f50493          	addi	s1,a0,927 # 239f <.Lline_table_start1+0x2174>
   1178c:	4709                	li	a4,2
   1178e:	07f00793          	li	a5,127
   11792:	8526                	mv	a0,s1
   11794:	4681                	li	a3,0
   11796:	00000073          	ecall
   1179a:	02a7ed63          	bltu	a5,a0,117d4 <_ZN18complex_no_dynamic3app17h1abc879e02fac4e5E+0xae>
   1179e:	872e                	mv	a4,a1
   117a0:	4601                	li	a2,0
   117a2:	4681                	li	a3,0
   117a4:	4505                	li	a0,1
   117a6:	6789                	lui	a5,0x2
   117a8:	4591                	li	a1,4
   117aa:	00a40023          	sb	a0,0(s0)
   117ae:	c058                	sw	a4,4(s0)
   117b0:	39f78793          	addi	a5,a5,927 # 239f <.Lline_table_start1+0x2174>
   117b4:	470d                	li	a4,3
   117b6:	853e                	mv	a0,a5
   117b8:	00000073          	ecall
   117bc:	45a1                	li	a1,8
   117be:	4711                	li	a4,4
   117c0:	853e                	mv	a0,a5
   117c2:	4601                	li	a2,0
   117c4:	4681                	li	a3,0
   117c6:	00000073          	ecall
   117ca:	40b6                	lw	ra,76(sp)
   117cc:	4426                	lw	s0,72(sp)
   117ce:	4496                	lw	s1,68(sp)
   117d0:	6161                	addi	sp,sp,80
   117d2:	8082                	ret
   117d4:	8526                	mv	a0,s1
   117d6:	4601                	li	a2,0
   117d8:	4681                	li	a3,0
   117da:	4591                	li	a1,4
   117dc:	470d                	li	a4,3
   117de:	00000073          	ecall
   117e2:	4591                	li	a1,4
   117e4:	470d                	li	a4,3
   117e6:	8526                	mv	a0,s1
   117e8:	4601                	li	a2,0
   117ea:	4681                	li	a3,0
   117ec:	00000073          	ecall
   117f0:	00140513          	addi	a0,s0,1
   117f4:	01910593          	addi	a1,sp,25
   117f8:	02b00613          	li	a2,43
   117fc:	00009097          	auipc	ra,0x9
   11800:	41a080e7          	jalr	1050(ra) # 1ac16 <memcpy>
   11804:	8526                	mv	a0,s1
   11806:	4601                	li	a2,0
   11808:	4681                	li	a3,0
   1180a:	00040023          	sb	zero,0(s0)
   1180e:	4591                	li	a1,4
   11810:	470d                	li	a4,3
   11812:	00000073          	ecall
   11816:	45a1                	li	a1,8
   11818:	4711                	li	a4,4
   1181a:	8526                	mv	a0,s1
   1181c:	4601                	li	a2,0
   1181e:	4681                	li	a3,0
   11820:	00000073          	ecall
   11824:	b75d                	j	117ca <_ZN18complex_no_dynamic3app17h1abc879e02fac4e5E+0xa4>

00011826 <_ZN18complex_no_dynamic3app17h1d1a29e491944c11E>:
   11826:	711d                	addi	sp,sp,-96
   11828:	ce86                	sw	ra,92(sp)
   1182a:	cca2                	sw	s0,88(sp)
   1182c:	caa6                	sw	s1,84(sp)
   1182e:	842a                	mv	s0,a0
   11830:	00110513          	addi	a0,sp,1
   11834:	02c00613          	li	a2,44
   11838:	00009097          	auipc	ra,0x9
   1183c:	3de080e7          	jalr	990(ra) # 1ac16 <memcpy>
   11840:	02d10513          	addi	a0,sp,45
   11844:	02700613          	li	a2,39
   11848:	4581                	li	a1,0
   1184a:	00009097          	auipc	ra,0x9
   1184e:	360080e7          	jalr	864(ra) # 1abaa <memset>
   11852:	6505                	lui	a0,0x1
   11854:	4591                	li	a1,4
   11856:	00110613          	addi	a2,sp,1
   1185a:	02c00693          	li	a3,44
   1185e:	1b550793          	addi	a5,a0,437 # 11b5 <.Lline_table_start1+0xf8a>
   11862:	4711                	li	a4,4
   11864:	4489                	li	s1,2
   11866:	853e                	mv	a0,a5
   11868:	00000073          	ecall
   1186c:	02950b63          	beq	a0,s1,118a2 <_ZN18complex_no_dynamic3app17h1d1a29e491944c11E+0x7c>
   11870:	458d                	li	a1,3
   11872:	02d10613          	addi	a2,sp,45
   11876:	02700693          	li	a3,39
   1187a:	470d                	li	a4,3
   1187c:	853e                	mv	a0,a5
   1187e:	00000073          	ecall
   11882:	02950063          	beq	a0,s1,118a2 <_ZN18complex_no_dynamic3app17h1d1a29e491944c11E+0x7c>
   11886:	6505                	lui	a0,0x1
   11888:	4591                	li	a1,4
   1188a:	460d                	li	a2,3
   1188c:	1b550493          	addi	s1,a0,437 # 11b5 <.Lline_table_start1+0xf8a>
   11890:	4709                	li	a4,2
   11892:	07f00793          	li	a5,127
   11896:	8526                	mv	a0,s1
   11898:	4681                	li	a3,0
   1189a:	00000073          	ecall
   1189e:	02a7ed63          	bltu	a5,a0,118d8 <_ZN18complex_no_dynamic3app17h1d1a29e491944c11E+0xb2>
   118a2:	872e                	mv	a4,a1
   118a4:	4601                	li	a2,0
   118a6:	4681                	li	a3,0
   118a8:	4505                	li	a0,1
   118aa:	6785                	lui	a5,0x1
   118ac:	458d                	li	a1,3
   118ae:	00a40023          	sb	a0,0(s0)
   118b2:	c058                	sw	a4,4(s0)
   118b4:	1b578793          	addi	a5,a5,437 # 11b5 <.Lline_table_start1+0xf8a>
   118b8:	470d                	li	a4,3
   118ba:	853e                	mv	a0,a5
   118bc:	00000073          	ecall
   118c0:	4591                	li	a1,4
   118c2:	4711                	li	a4,4
   118c4:	853e                	mv	a0,a5
   118c6:	4601                	li	a2,0
   118c8:	4681                	li	a3,0
   118ca:	00000073          	ecall
   118ce:	40f6                	lw	ra,92(sp)
   118d0:	4466                	lw	s0,88(sp)
   118d2:	44d6                	lw	s1,84(sp)
   118d4:	6125                	addi	sp,sp,96
   118d6:	8082                	ret
   118d8:	8526                	mv	a0,s1
   118da:	4601                	li	a2,0
   118dc:	4681                	li	a3,0
   118de:	458d                	li	a1,3
   118e0:	470d                	li	a4,3
   118e2:	00000073          	ecall
   118e6:	458d                	li	a1,3
   118e8:	470d                	li	a4,3
   118ea:	8526                	mv	a0,s1
   118ec:	4601                	li	a2,0
   118ee:	4681                	li	a3,0
   118f0:	00000073          	ecall
   118f4:	00140513          	addi	a0,s0,1
   118f8:	02d10593          	addi	a1,sp,45
   118fc:	02700613          	li	a2,39
   11900:	00009097          	auipc	ra,0x9
   11904:	316080e7          	jalr	790(ra) # 1ac16 <memcpy>
   11908:	8526                	mv	a0,s1
   1190a:	4601                	li	a2,0
   1190c:	4681                	li	a3,0
   1190e:	00040023          	sb	zero,0(s0)
   11912:	458d                	li	a1,3
   11914:	470d                	li	a4,3
   11916:	00000073          	ecall
   1191a:	4591                	li	a1,4
   1191c:	4711                	li	a4,4
   1191e:	8526                	mv	a0,s1
   11920:	4601                	li	a2,0
   11922:	4681                	li	a3,0
   11924:	00000073          	ecall
   11928:	b75d                	j	118ce <_ZN18complex_no_dynamic3app17h1d1a29e491944c11E+0xa8>

0001192a <_ZN18complex_no_dynamic3app17h1da4c26b6e221c1eE>:
   1192a:	715d                	addi	sp,sp,-80
   1192c:	c686                	sw	ra,76(sp)
   1192e:	c4a2                	sw	s0,72(sp)
   11930:	c2a6                	sw	s1,68(sp)
   11932:	842a                	mv	s0,a0
   11934:	00110513          	addi	a0,sp,1
   11938:	02900613          	li	a2,41
   1193c:	00009097          	auipc	ra,0x9
   11940:	2da080e7          	jalr	730(ra) # 1ac16 <memcpy>
   11944:	02a10513          	addi	a0,sp,42
   11948:	4669                	li	a2,26
   1194a:	4581                	li	a1,0
   1194c:	00009097          	auipc	ra,0x9
   11950:	25e080e7          	jalr	606(ra) # 1abaa <memset>
   11954:	6509                	lui	a0,0x2
   11956:	4595                	li	a1,5
   11958:	00110613          	addi	a2,sp,1
   1195c:	02900693          	li	a3,41
   11960:	04850793          	addi	a5,a0,72 # 2048 <.Lline_table_start1+0x1e1d>
   11964:	4711                	li	a4,4
   11966:	4489                	li	s1,2
   11968:	853e                	mv	a0,a5
   1196a:	00000073          	ecall
   1196e:	02950a63          	beq	a0,s1,119a2 <_ZN18complex_no_dynamic3app17h1da4c26b6e221c1eE+0x78>
   11972:	458d                	li	a1,3
   11974:	02a10613          	addi	a2,sp,42
   11978:	46e9                	li	a3,26
   1197a:	470d                	li	a4,3
   1197c:	853e                	mv	a0,a5
   1197e:	00000073          	ecall
   11982:	02950063          	beq	a0,s1,119a2 <_ZN18complex_no_dynamic3app17h1da4c26b6e221c1eE+0x78>
   11986:	6509                	lui	a0,0x2
   11988:	4595                	li	a1,5
   1198a:	460d                	li	a2,3
   1198c:	04850493          	addi	s1,a0,72 # 2048 <.Lline_table_start1+0x1e1d>
   11990:	4709                	li	a4,2
   11992:	07f00793          	li	a5,127
   11996:	8526                	mv	a0,s1
   11998:	4681                	li	a3,0
   1199a:	00000073          	ecall
   1199e:	02a7ed63          	bltu	a5,a0,119d8 <_ZN18complex_no_dynamic3app17h1da4c26b6e221c1eE+0xae>
   119a2:	872e                	mv	a4,a1
   119a4:	4601                	li	a2,0
   119a6:	4681                	li	a3,0
   119a8:	4505                	li	a0,1
   119aa:	6789                	lui	a5,0x2
   119ac:	458d                	li	a1,3
   119ae:	00a40023          	sb	a0,0(s0)
   119b2:	c058                	sw	a4,4(s0)
   119b4:	04878793          	addi	a5,a5,72 # 2048 <.Lline_table_start1+0x1e1d>
   119b8:	470d                	li	a4,3
   119ba:	853e                	mv	a0,a5
   119bc:	00000073          	ecall
   119c0:	4595                	li	a1,5
   119c2:	4711                	li	a4,4
   119c4:	853e                	mv	a0,a5
   119c6:	4601                	li	a2,0
   119c8:	4681                	li	a3,0
   119ca:	00000073          	ecall
   119ce:	40b6                	lw	ra,76(sp)
   119d0:	4426                	lw	s0,72(sp)
   119d2:	4496                	lw	s1,68(sp)
   119d4:	6161                	addi	sp,sp,80
   119d6:	8082                	ret
   119d8:	8526                	mv	a0,s1
   119da:	4601                	li	a2,0
   119dc:	4681                	li	a3,0
   119de:	458d                	li	a1,3
   119e0:	470d                	li	a4,3
   119e2:	00000073          	ecall
   119e6:	458d                	li	a1,3
   119e8:	470d                	li	a4,3
   119ea:	8526                	mv	a0,s1
   119ec:	4601                	li	a2,0
   119ee:	4681                	li	a3,0
   119f0:	00000073          	ecall
   119f4:	00140513          	addi	a0,s0,1
   119f8:	02a10593          	addi	a1,sp,42
   119fc:	4669                	li	a2,26
   119fe:	00009097          	auipc	ra,0x9
   11a02:	218080e7          	jalr	536(ra) # 1ac16 <memcpy>
   11a06:	8526                	mv	a0,s1
   11a08:	4601                	li	a2,0
   11a0a:	4681                	li	a3,0
   11a0c:	00040023          	sb	zero,0(s0)
   11a10:	458d                	li	a1,3
   11a12:	470d                	li	a4,3
   11a14:	00000073          	ecall
   11a18:	4595                	li	a1,5
   11a1a:	4711                	li	a4,4
   11a1c:	8526                	mv	a0,s1
   11a1e:	4601                	li	a2,0
   11a20:	4681                	li	a3,0
   11a22:	00000073          	ecall
   11a26:	b765                	j	119ce <_ZN18complex_no_dynamic3app17h1da4c26b6e221c1eE+0xa4>

00011a28 <_ZN18complex_no_dynamic3app17h219fab0baaa65843E>:
   11a28:	7119                	addi	sp,sp,-128
   11a2a:	de86                	sw	ra,124(sp)
   11a2c:	dca2                	sw	s0,120(sp)
   11a2e:	daa6                	sw	s1,116(sp)
   11a30:	842a                	mv	s0,a0
   11a32:	00a10513          	addi	a0,sp,10
   11a36:	4669                	li	a2,26
   11a38:	00009097          	auipc	ra,0x9
   11a3c:	1de080e7          	jalr	478(ra) # 1ac16 <memcpy>
   11a40:	1048                	addi	a0,sp,36
   11a42:	05000613          	li	a2,80
   11a46:	4581                	li	a1,0
   11a48:	00009097          	auipc	ra,0x9
   11a4c:	162080e7          	jalr	354(ra) # 1abaa <memset>
   11a50:	6505                	lui	a0,0x1
   11a52:	459d                	li	a1,7
   11a54:	00a10613          	addi	a2,sp,10
   11a58:	46e9                	li	a3,26
   11a5a:	aee50793          	addi	a5,a0,-1298 # aee <.Lline_table_start1+0x8c3>
   11a5e:	4711                	li	a4,4
   11a60:	4489                	li	s1,2
   11a62:	853e                	mv	a0,a5
   11a64:	00000073          	ecall
   11a68:	02950a63          	beq	a0,s1,11a9c <_ZN18complex_no_dynamic3app17h219fab0baaa65843E+0x74>
   11a6c:	4591                	li	a1,4
   11a6e:	1050                	addi	a2,sp,36
   11a70:	05000693          	li	a3,80
   11a74:	470d                	li	a4,3
   11a76:	853e                	mv	a0,a5
   11a78:	00000073          	ecall
   11a7c:	02950063          	beq	a0,s1,11a9c <_ZN18complex_no_dynamic3app17h219fab0baaa65843E+0x74>
   11a80:	6505                	lui	a0,0x1
   11a82:	459d                	li	a1,7
   11a84:	4611                	li	a2,4
   11a86:	aee50493          	addi	s1,a0,-1298 # aee <.Lline_table_start1+0x8c3>
   11a8a:	4709                	li	a4,2
   11a8c:	07f00793          	li	a5,127
   11a90:	8526                	mv	a0,s1
   11a92:	4681                	li	a3,0
   11a94:	00000073          	ecall
   11a98:	02a7ed63          	bltu	a5,a0,11ad2 <_ZN18complex_no_dynamic3app17h219fab0baaa65843E+0xaa>
   11a9c:	872e                	mv	a4,a1
   11a9e:	4601                	li	a2,0
   11aa0:	4681                	li	a3,0
   11aa2:	4505                	li	a0,1
   11aa4:	6785                	lui	a5,0x1
   11aa6:	4591                	li	a1,4
   11aa8:	00a40023          	sb	a0,0(s0)
   11aac:	c058                	sw	a4,4(s0)
   11aae:	aee78793          	addi	a5,a5,-1298 # aee <.Lline_table_start1+0x8c3>
   11ab2:	470d                	li	a4,3
   11ab4:	853e                	mv	a0,a5
   11ab6:	00000073          	ecall
   11aba:	459d                	li	a1,7
   11abc:	4711                	li	a4,4
   11abe:	853e                	mv	a0,a5
   11ac0:	4601                	li	a2,0
   11ac2:	4681                	li	a3,0
   11ac4:	00000073          	ecall
   11ac8:	50f6                	lw	ra,124(sp)
   11aca:	5466                	lw	s0,120(sp)
   11acc:	54d6                	lw	s1,116(sp)
   11ace:	6109                	addi	sp,sp,128
   11ad0:	8082                	ret
   11ad2:	8526                	mv	a0,s1
   11ad4:	4601                	li	a2,0
   11ad6:	4681                	li	a3,0
   11ad8:	4591                	li	a1,4
   11ada:	470d                	li	a4,3
   11adc:	00000073          	ecall
   11ae0:	4591                	li	a1,4
   11ae2:	470d                	li	a4,3
   11ae4:	8526                	mv	a0,s1
   11ae6:	4601                	li	a2,0
   11ae8:	4681                	li	a3,0
   11aea:	00000073          	ecall
   11aee:	00140513          	addi	a0,s0,1
   11af2:	104c                	addi	a1,sp,36
   11af4:	05000613          	li	a2,80
   11af8:	00009097          	auipc	ra,0x9
   11afc:	11e080e7          	jalr	286(ra) # 1ac16 <memcpy>
   11b00:	8526                	mv	a0,s1
   11b02:	4601                	li	a2,0
   11b04:	4681                	li	a3,0
   11b06:	00040023          	sb	zero,0(s0)
   11b0a:	4591                	li	a1,4
   11b0c:	470d                	li	a4,3
   11b0e:	00000073          	ecall
   11b12:	459d                	li	a1,7
   11b14:	4711                	li	a4,4
   11b16:	8526                	mv	a0,s1
   11b18:	4601                	li	a2,0
   11b1a:	4681                	li	a3,0
   11b1c:	00000073          	ecall
   11b20:	b765                	j	11ac8 <_ZN18complex_no_dynamic3app17h219fab0baaa65843E+0xa0>

00011b22 <_ZN18complex_no_dynamic3app17h26c0cf7ad759b382E>:
   11b22:	715d                	addi	sp,sp,-80
   11b24:	c686                	sw	ra,76(sp)
   11b26:	c4a2                	sw	s0,72(sp)
   11b28:	c2a6                	sw	s1,68(sp)
   11b2a:	842a                	mv	s0,a0
   11b2c:	00210513          	addi	a0,sp,2
   11b30:	03200613          	li	a2,50
   11b34:	00009097          	auipc	ra,0x9
   11b38:	0e2080e7          	jalr	226(ra) # 1ac16 <memcpy>
   11b3c:	da02                	sw	zero,52(sp)
   11b3e:	dc02                	sw	zero,56(sp)
   11b40:	de02                	sw	zero,60(sp)
   11b42:	c082                	sw	zero,64(sp)
   11b44:	6509                	lui	a0,0x2
   11b46:	4591                	li	a1,4
   11b48:	00210613          	addi	a2,sp,2
   11b4c:	03200693          	li	a3,50
   11b50:	9d650793          	addi	a5,a0,-1578 # 19d6 <.Lline_table_start1+0x17ab>
   11b54:	4711                	li	a4,4
   11b56:	4489                	li	s1,2
   11b58:	853e                	mv	a0,a5
   11b5a:	00000073          	ecall
   11b5e:	02950963          	beq	a0,s1,11b90 <_ZN18complex_no_dynamic3app17h26c0cf7ad759b382E+0x6e>
   11b62:	45a5                	li	a1,9
   11b64:	1850                	addi	a2,sp,52
   11b66:	46c1                	li	a3,16
   11b68:	470d                	li	a4,3
   11b6a:	853e                	mv	a0,a5
   11b6c:	00000073          	ecall
   11b70:	02950063          	beq	a0,s1,11b90 <_ZN18complex_no_dynamic3app17h26c0cf7ad759b382E+0x6e>
   11b74:	6509                	lui	a0,0x2
   11b76:	4591                	li	a1,4
   11b78:	4625                	li	a2,9
   11b7a:	9d650493          	addi	s1,a0,-1578 # 19d6 <.Lline_table_start1+0x17ab>
   11b7e:	4709                	li	a4,2
   11b80:	07f00793          	li	a5,127
   11b84:	8526                	mv	a0,s1
   11b86:	4681                	li	a3,0
   11b88:	00000073          	ecall
   11b8c:	02a7ed63          	bltu	a5,a0,11bc6 <_ZN18complex_no_dynamic3app17h26c0cf7ad759b382E+0xa4>
   11b90:	872e                	mv	a4,a1
   11b92:	4601                	li	a2,0
   11b94:	4681                	li	a3,0
   11b96:	4505                	li	a0,1
   11b98:	6789                	lui	a5,0x2
   11b9a:	45a5                	li	a1,9
   11b9c:	00a40023          	sb	a0,0(s0)
   11ba0:	c058                	sw	a4,4(s0)
   11ba2:	9d678793          	addi	a5,a5,-1578 # 19d6 <.Lline_table_start1+0x17ab>
   11ba6:	470d                	li	a4,3
   11ba8:	853e                	mv	a0,a5
   11baa:	00000073          	ecall
   11bae:	4591                	li	a1,4
   11bb0:	4711                	li	a4,4
   11bb2:	853e                	mv	a0,a5
   11bb4:	4601                	li	a2,0
   11bb6:	4681                	li	a3,0
   11bb8:	00000073          	ecall
   11bbc:	40b6                	lw	ra,76(sp)
   11bbe:	4426                	lw	s0,72(sp)
   11bc0:	4496                	lw	s1,68(sp)
   11bc2:	6161                	addi	sp,sp,80
   11bc4:	8082                	ret
   11bc6:	8526                	mv	a0,s1
   11bc8:	4601                	li	a2,0
   11bca:	4681                	li	a3,0
   11bcc:	45a5                	li	a1,9
   11bce:	470d                	li	a4,3
   11bd0:	00000073          	ecall
   11bd4:	45a5                	li	a1,9
   11bd6:	470d                	li	a4,3
   11bd8:	8526                	mv	a0,s1
   11bda:	4601                	li	a2,0
   11bdc:	4681                	li	a3,0
   11bde:	00000073          	ecall
   11be2:	00140513          	addi	a0,s0,1
   11be6:	184c                	addi	a1,sp,52
   11be8:	4641                	li	a2,16
   11bea:	00009097          	auipc	ra,0x9
   11bee:	02c080e7          	jalr	44(ra) # 1ac16 <memcpy>
   11bf2:	8526                	mv	a0,s1
   11bf4:	4601                	li	a2,0
   11bf6:	4681                	li	a3,0
   11bf8:	00040023          	sb	zero,0(s0)
   11bfc:	45a5                	li	a1,9
   11bfe:	470d                	li	a4,3
   11c00:	00000073          	ecall
   11c04:	4591                	li	a1,4
   11c06:	4711                	li	a4,4
   11c08:	8526                	mv	a0,s1
   11c0a:	4601                	li	a2,0
   11c0c:	4681                	li	a3,0
   11c0e:	00000073          	ecall
   11c12:	b76d                	j	11bbc <_ZN18complex_no_dynamic3app17h26c0cf7ad759b382E+0x9a>

00011c14 <_ZN18complex_no_dynamic3app17h2999d907ddc46e4eE>:
   11c14:	7119                	addi	sp,sp,-128
   11c16:	de86                	sw	ra,124(sp)
   11c18:	dca2                	sw	s0,120(sp)
   11c1a:	daa6                	sw	s1,116(sp)
   11c1c:	842a                	mv	s0,a0
   11c1e:	0028                	addi	a0,sp,8
   11c20:	04900613          	li	a2,73
   11c24:	00009097          	auipc	ra,0x9
   11c28:	ff2080e7          	jalr	-14(ra) # 1ac16 <memcpy>
   11c2c:	05110513          	addi	a0,sp,81
   11c30:	02300613          	li	a2,35
   11c34:	4581                	li	a1,0
   11c36:	00009097          	auipc	ra,0x9
   11c3a:	f74080e7          	jalr	-140(ra) # 1abaa <memset>
   11c3e:	6505                	lui	a0,0x1
   11c40:	459d                	li	a1,7
   11c42:	0030                	addi	a2,sp,8
   11c44:	04900693          	li	a3,73
   11c48:	55150793          	addi	a5,a0,1361 # 1551 <.Lline_table_start1+0x1326>
   11c4c:	4711                	li	a4,4
   11c4e:	4489                	li	s1,2
   11c50:	853e                	mv	a0,a5
   11c52:	00000073          	ecall
   11c56:	02950b63          	beq	a0,s1,11c8c <_ZN18complex_no_dynamic3app17h2999d907ddc46e4eE+0x78>
   11c5a:	4585                	li	a1,1
   11c5c:	05110613          	addi	a2,sp,81
   11c60:	02300693          	li	a3,35
   11c64:	470d                	li	a4,3
   11c66:	853e                	mv	a0,a5
   11c68:	00000073          	ecall
   11c6c:	02950063          	beq	a0,s1,11c8c <_ZN18complex_no_dynamic3app17h2999d907ddc46e4eE+0x78>
   11c70:	6505                	lui	a0,0x1
   11c72:	459d                	li	a1,7
   11c74:	4605                	li	a2,1
   11c76:	55150493          	addi	s1,a0,1361 # 1551 <.Lline_table_start1+0x1326>
   11c7a:	4709                	li	a4,2
   11c7c:	07f00793          	li	a5,127
   11c80:	8526                	mv	a0,s1
   11c82:	4681                	li	a3,0
   11c84:	00000073          	ecall
   11c88:	02a7ed63          	bltu	a5,a0,11cc2 <_ZN18complex_no_dynamic3app17h2999d907ddc46e4eE+0xae>
   11c8c:	872e                	mv	a4,a1
   11c8e:	4601                	li	a2,0
   11c90:	4681                	li	a3,0
   11c92:	4505                	li	a0,1
   11c94:	6785                	lui	a5,0x1
   11c96:	4585                	li	a1,1
   11c98:	00a40023          	sb	a0,0(s0)
   11c9c:	c058                	sw	a4,4(s0)
   11c9e:	55178793          	addi	a5,a5,1361 # 1551 <.Lline_table_start1+0x1326>
   11ca2:	470d                	li	a4,3
   11ca4:	853e                	mv	a0,a5
   11ca6:	00000073          	ecall
   11caa:	459d                	li	a1,7
   11cac:	4711                	li	a4,4
   11cae:	853e                	mv	a0,a5
   11cb0:	4601                	li	a2,0
   11cb2:	4681                	li	a3,0
   11cb4:	00000073          	ecall
   11cb8:	50f6                	lw	ra,124(sp)
   11cba:	5466                	lw	s0,120(sp)
   11cbc:	54d6                	lw	s1,116(sp)
   11cbe:	6109                	addi	sp,sp,128
   11cc0:	8082                	ret
   11cc2:	8526                	mv	a0,s1
   11cc4:	4601                	li	a2,0
   11cc6:	4681                	li	a3,0
   11cc8:	4585                	li	a1,1
   11cca:	470d                	li	a4,3
   11ccc:	00000073          	ecall
   11cd0:	4585                	li	a1,1
   11cd2:	470d                	li	a4,3
   11cd4:	8526                	mv	a0,s1
   11cd6:	4601                	li	a2,0
   11cd8:	4681                	li	a3,0
   11cda:	00000073          	ecall
   11cde:	00140513          	addi	a0,s0,1
   11ce2:	05110593          	addi	a1,sp,81
   11ce6:	02300613          	li	a2,35
   11cea:	00009097          	auipc	ra,0x9
   11cee:	f2c080e7          	jalr	-212(ra) # 1ac16 <memcpy>
   11cf2:	8526                	mv	a0,s1
   11cf4:	4601                	li	a2,0
   11cf6:	4681                	li	a3,0
   11cf8:	00040023          	sb	zero,0(s0)
   11cfc:	4585                	li	a1,1
   11cfe:	470d                	li	a4,3
   11d00:	00000073          	ecall
   11d04:	459d                	li	a1,7
   11d06:	4711                	li	a4,4
   11d08:	8526                	mv	a0,s1
   11d0a:	4601                	li	a2,0
   11d0c:	4681                	li	a3,0
   11d0e:	00000073          	ecall
   11d12:	b75d                	j	11cb8 <_ZN18complex_no_dynamic3app17h2999d907ddc46e4eE+0xa4>

00011d14 <_ZN18complex_no_dynamic3app17h2f1db3589d491c05E>:
   11d14:	7135                	addi	sp,sp,-160
   11d16:	cf06                	sw	ra,156(sp)
   11d18:	cd22                	sw	s0,152(sp)
   11d1a:	cb26                	sw	s1,148(sp)
   11d1c:	842a                	mv	s0,a0
   11d1e:	00a10513          	addi	a0,sp,10
   11d22:	06300613          	li	a2,99
   11d26:	00009097          	auipc	ra,0x9
   11d2a:	ef0080e7          	jalr	-272(ra) # 1ac16 <memcpy>
   11d2e:	06d10513          	addi	a0,sp,109
   11d32:	02700613          	li	a2,39
   11d36:	4581                	li	a1,0
   11d38:	00009097          	auipc	ra,0x9
   11d3c:	e72080e7          	jalr	-398(ra) # 1abaa <memset>
   11d40:	6509                	lui	a0,0x2
   11d42:	459d                	li	a1,7
   11d44:	00a10613          	addi	a2,sp,10
   11d48:	06300693          	li	a3,99
   11d4c:	e5450793          	addi	a5,a0,-428 # 1e54 <.Lline_table_start1+0x1c29>
   11d50:	4711                	li	a4,4
   11d52:	4489                	li	s1,2
   11d54:	853e                	mv	a0,a5
   11d56:	00000073          	ecall
   11d5a:	02950b63          	beq	a0,s1,11d90 <_ZN18complex_no_dynamic3app17h2f1db3589d491c05E+0x7c>
   11d5e:	06d10613          	addi	a2,sp,109
   11d62:	02700693          	li	a3,39
   11d66:	470d                	li	a4,3
   11d68:	853e                	mv	a0,a5
   11d6a:	4581                	li	a1,0
   11d6c:	00000073          	ecall
   11d70:	02950063          	beq	a0,s1,11d90 <_ZN18complex_no_dynamic3app17h2f1db3589d491c05E+0x7c>
   11d74:	6509                	lui	a0,0x2
   11d76:	459d                	li	a1,7
   11d78:	e5450493          	addi	s1,a0,-428 # 1e54 <.Lline_table_start1+0x1c29>
   11d7c:	4709                	li	a4,2
   11d7e:	07f00793          	li	a5,127
   11d82:	8526                	mv	a0,s1
   11d84:	4601                	li	a2,0
   11d86:	4681                	li	a3,0
   11d88:	00000073          	ecall
   11d8c:	02a7ed63          	bltu	a5,a0,11dc6 <_ZN18complex_no_dynamic3app17h2f1db3589d491c05E+0xb2>
   11d90:	872e                	mv	a4,a1
   11d92:	4581                	li	a1,0
   11d94:	4601                	li	a2,0
   11d96:	4681                	li	a3,0
   11d98:	4505                	li	a0,1
   11d9a:	6789                	lui	a5,0x2
   11d9c:	00a40023          	sb	a0,0(s0)
   11da0:	c058                	sw	a4,4(s0)
   11da2:	e5478793          	addi	a5,a5,-428 # 1e54 <.Lline_table_start1+0x1c29>
   11da6:	470d                	li	a4,3
   11da8:	853e                	mv	a0,a5
   11daa:	00000073          	ecall
   11dae:	459d                	li	a1,7
   11db0:	4711                	li	a4,4
   11db2:	853e                	mv	a0,a5
   11db4:	4601                	li	a2,0
   11db6:	4681                	li	a3,0
   11db8:	00000073          	ecall
   11dbc:	40fa                	lw	ra,156(sp)
   11dbe:	446a                	lw	s0,152(sp)
   11dc0:	44da                	lw	s1,148(sp)
   11dc2:	610d                	addi	sp,sp,160
   11dc4:	8082                	ret
   11dc6:	470d                	li	a4,3
   11dc8:	8526                	mv	a0,s1
   11dca:	4581                	li	a1,0
   11dcc:	4601                	li	a2,0
   11dce:	4681                	li	a3,0
   11dd0:	00000073          	ecall
   11dd4:	470d                	li	a4,3
   11dd6:	8526                	mv	a0,s1
   11dd8:	4581                	li	a1,0
   11dda:	4601                	li	a2,0
   11ddc:	4681                	li	a3,0
   11dde:	00000073          	ecall
   11de2:	00140513          	addi	a0,s0,1
   11de6:	06d10593          	addi	a1,sp,109
   11dea:	02700613          	li	a2,39
   11dee:	00009097          	auipc	ra,0x9
   11df2:	e28080e7          	jalr	-472(ra) # 1ac16 <memcpy>
   11df6:	8526                	mv	a0,s1
   11df8:	4581                	li	a1,0
   11dfa:	4601                	li	a2,0
   11dfc:	4681                	li	a3,0
   11dfe:	00040023          	sb	zero,0(s0)
   11e02:	470d                	li	a4,3
   11e04:	00000073          	ecall
   11e08:	459d                	li	a1,7
   11e0a:	4711                	li	a4,4
   11e0c:	8526                	mv	a0,s1
   11e0e:	4601                	li	a2,0
   11e10:	4681                	li	a3,0
   11e12:	00000073          	ecall
   11e16:	b75d                	j	11dbc <_ZN18complex_no_dynamic3app17h2f1db3589d491c05E+0xa8>

00011e18 <_ZN18complex_no_dynamic3app17h33e9949c35e854beE>:
   11e18:	711d                	addi	sp,sp,-96
   11e1a:	ce86                	sw	ra,92(sp)
   11e1c:	cca2                	sw	s0,88(sp)
   11e1e:	caa6                	sw	s1,84(sp)
   11e20:	842a                	mv	s0,a0
   11e22:	00610513          	addi	a0,sp,6
   11e26:	02300613          	li	a2,35
   11e2a:	00009097          	auipc	ra,0x9
   11e2e:	dec080e7          	jalr	-532(ra) # 1ac16 <memcpy>
   11e32:	02910513          	addi	a0,sp,41
   11e36:	02b00613          	li	a2,43
   11e3a:	4581                	li	a1,0
   11e3c:	00009097          	auipc	ra,0x9
   11e40:	d6e080e7          	jalr	-658(ra) # 1abaa <memset>
   11e44:	6505                	lui	a0,0x1
   11e46:	4489                	li	s1,2
   11e48:	4589                	li	a1,2
   11e4a:	00610613          	addi	a2,sp,6
   11e4e:	d5d50793          	addi	a5,a0,-675 # d5d <.Lline_table_start1+0xb32>
   11e52:	02300693          	li	a3,35
   11e56:	4711                	li	a4,4
   11e58:	853e                	mv	a0,a5
   11e5a:	00000073          	ecall
   11e5e:	02950b63          	beq	a0,s1,11e94 <_ZN18complex_no_dynamic3app17h33e9949c35e854beE+0x7c>
   11e62:	02910613          	addi	a2,sp,41
   11e66:	02b00693          	li	a3,43
   11e6a:	470d                	li	a4,3
   11e6c:	853e                	mv	a0,a5
   11e6e:	4581                	li	a1,0
   11e70:	00000073          	ecall
   11e74:	02950063          	beq	a0,s1,11e94 <_ZN18complex_no_dynamic3app17h33e9949c35e854beE+0x7c>
   11e78:	6505                	lui	a0,0x1
   11e7a:	4589                	li	a1,2
   11e7c:	d5d50493          	addi	s1,a0,-675 # d5d <.Lline_table_start1+0xb32>
   11e80:	4709                	li	a4,2
   11e82:	07f00793          	li	a5,127
   11e86:	8526                	mv	a0,s1
   11e88:	4601                	li	a2,0
   11e8a:	4681                	li	a3,0
   11e8c:	00000073          	ecall
   11e90:	02a7ed63          	bltu	a5,a0,11eca <_ZN18complex_no_dynamic3app17h33e9949c35e854beE+0xb2>
   11e94:	872e                	mv	a4,a1
   11e96:	4581                	li	a1,0
   11e98:	4601                	li	a2,0
   11e9a:	4681                	li	a3,0
   11e9c:	4505                	li	a0,1
   11e9e:	6785                	lui	a5,0x1
   11ea0:	00a40023          	sb	a0,0(s0)
   11ea4:	c058                	sw	a4,4(s0)
   11ea6:	d5d78793          	addi	a5,a5,-675 # d5d <.Lline_table_start1+0xb32>
   11eaa:	470d                	li	a4,3
   11eac:	853e                	mv	a0,a5
   11eae:	00000073          	ecall
   11eb2:	4589                	li	a1,2
   11eb4:	4711                	li	a4,4
   11eb6:	853e                	mv	a0,a5
   11eb8:	4601                	li	a2,0
   11eba:	4681                	li	a3,0
   11ebc:	00000073          	ecall
   11ec0:	40f6                	lw	ra,92(sp)
   11ec2:	4466                	lw	s0,88(sp)
   11ec4:	44d6                	lw	s1,84(sp)
   11ec6:	6125                	addi	sp,sp,96
   11ec8:	8082                	ret
   11eca:	470d                	li	a4,3
   11ecc:	8526                	mv	a0,s1
   11ece:	4581                	li	a1,0
   11ed0:	4601                	li	a2,0
   11ed2:	4681                	li	a3,0
   11ed4:	00000073          	ecall
   11ed8:	470d                	li	a4,3
   11eda:	8526                	mv	a0,s1
   11edc:	4581                	li	a1,0
   11ede:	4601                	li	a2,0
   11ee0:	4681                	li	a3,0
   11ee2:	00000073          	ecall
   11ee6:	00140513          	addi	a0,s0,1
   11eea:	02910593          	addi	a1,sp,41
   11eee:	02b00613          	li	a2,43
   11ef2:	00009097          	auipc	ra,0x9
   11ef6:	d24080e7          	jalr	-732(ra) # 1ac16 <memcpy>
   11efa:	8526                	mv	a0,s1
   11efc:	4581                	li	a1,0
   11efe:	4601                	li	a2,0
   11f00:	4681                	li	a3,0
   11f02:	00040023          	sb	zero,0(s0)
   11f06:	470d                	li	a4,3
   11f08:	00000073          	ecall
   11f0c:	4589                	li	a1,2
   11f0e:	4711                	li	a4,4
   11f10:	8526                	mv	a0,s1
   11f12:	4601                	li	a2,0
   11f14:	4681                	li	a3,0
   11f16:	00000073          	ecall
   11f1a:	b75d                	j	11ec0 <_ZN18complex_no_dynamic3app17h33e9949c35e854beE+0xa8>

00011f1c <_ZN18complex_no_dynamic3app17h377755564a445d98E>:
   11f1c:	715d                	addi	sp,sp,-80
   11f1e:	c686                	sw	ra,76(sp)
   11f20:	c4a2                	sw	s0,72(sp)
   11f22:	c2a6                	sw	s1,68(sp)
   11f24:	842a                	mv	s0,a0
   11f26:	00510513          	addi	a0,sp,5
   11f2a:	4679                	li	a2,30
   11f2c:	00009097          	auipc	ra,0x9
   11f30:	cea080e7          	jalr	-790(ra) # 1ac16 <memcpy>
   11f34:	02310513          	addi	a0,sp,35
   11f38:	02100613          	li	a2,33
   11f3c:	4581                	li	a1,0
   11f3e:	00009097          	auipc	ra,0x9
   11f42:	c6c080e7          	jalr	-916(ra) # 1abaa <memset>
   11f46:	6509                	lui	a0,0x2
   11f48:	4599                	li	a1,6
   11f4a:	00510613          	addi	a2,sp,5
   11f4e:	46f9                	li	a3,30
   11f50:	9b550793          	addi	a5,a0,-1611 # 19b5 <.Lline_table_start1+0x178a>
   11f54:	4711                	li	a4,4
   11f56:	4489                	li	s1,2
   11f58:	853e                	mv	a0,a5
   11f5a:	00000073          	ecall
   11f5e:	02950b63          	beq	a0,s1,11f94 <_ZN18complex_no_dynamic3app17h377755564a445d98E+0x78>
   11f62:	45a5                	li	a1,9
   11f64:	02310613          	addi	a2,sp,35
   11f68:	02100693          	li	a3,33
   11f6c:	470d                	li	a4,3
   11f6e:	853e                	mv	a0,a5
   11f70:	00000073          	ecall
   11f74:	02950063          	beq	a0,s1,11f94 <_ZN18complex_no_dynamic3app17h377755564a445d98E+0x78>
   11f78:	6509                	lui	a0,0x2
   11f7a:	4599                	li	a1,6
   11f7c:	4625                	li	a2,9
   11f7e:	9b550493          	addi	s1,a0,-1611 # 19b5 <.Lline_table_start1+0x178a>
   11f82:	4709                	li	a4,2
   11f84:	07f00793          	li	a5,127
   11f88:	8526                	mv	a0,s1
   11f8a:	4681                	li	a3,0
   11f8c:	00000073          	ecall
   11f90:	02a7ed63          	bltu	a5,a0,11fca <_ZN18complex_no_dynamic3app17h377755564a445d98E+0xae>
   11f94:	872e                	mv	a4,a1
   11f96:	4601                	li	a2,0
   11f98:	4681                	li	a3,0
   11f9a:	4505                	li	a0,1
   11f9c:	6789                	lui	a5,0x2
   11f9e:	45a5                	li	a1,9
   11fa0:	00a40023          	sb	a0,0(s0)
   11fa4:	c058                	sw	a4,4(s0)
   11fa6:	9b578793          	addi	a5,a5,-1611 # 19b5 <.Lline_table_start1+0x178a>
   11faa:	470d                	li	a4,3
   11fac:	853e                	mv	a0,a5
   11fae:	00000073          	ecall
   11fb2:	4599                	li	a1,6
   11fb4:	4711                	li	a4,4
   11fb6:	853e                	mv	a0,a5
   11fb8:	4601                	li	a2,0
   11fba:	4681                	li	a3,0
   11fbc:	00000073          	ecall
   11fc0:	40b6                	lw	ra,76(sp)
   11fc2:	4426                	lw	s0,72(sp)
   11fc4:	4496                	lw	s1,68(sp)
   11fc6:	6161                	addi	sp,sp,80
   11fc8:	8082                	ret
   11fca:	8526                	mv	a0,s1
   11fcc:	4601                	li	a2,0
   11fce:	4681                	li	a3,0
   11fd0:	45a5                	li	a1,9
   11fd2:	470d                	li	a4,3
   11fd4:	00000073          	ecall
   11fd8:	45a5                	li	a1,9
   11fda:	470d                	li	a4,3
   11fdc:	8526                	mv	a0,s1
   11fde:	4601                	li	a2,0
   11fe0:	4681                	li	a3,0
   11fe2:	00000073          	ecall
   11fe6:	00140513          	addi	a0,s0,1
   11fea:	02310593          	addi	a1,sp,35
   11fee:	02100613          	li	a2,33
   11ff2:	00009097          	auipc	ra,0x9
   11ff6:	c24080e7          	jalr	-988(ra) # 1ac16 <memcpy>
   11ffa:	8526                	mv	a0,s1
   11ffc:	4601                	li	a2,0
   11ffe:	4681                	li	a3,0
   12000:	00040023          	sb	zero,0(s0)
   12004:	45a5                	li	a1,9
   12006:	470d                	li	a4,3
   12008:	00000073          	ecall
   1200c:	4599                	li	a1,6
   1200e:	4711                	li	a4,4
   12010:	8526                	mv	a0,s1
   12012:	4601                	li	a2,0
   12014:	4681                	li	a3,0
   12016:	00000073          	ecall
   1201a:	b75d                	j	11fc0 <_ZN18complex_no_dynamic3app17h377755564a445d98E+0xa4>

0001201c <_ZN18complex_no_dynamic3app17h399714d1ab7b73bcE>:
   1201c:	7159                	addi	sp,sp,-112
   1201e:	d686                	sw	ra,108(sp)
   12020:	d4a2                	sw	s0,104(sp)
   12022:	d2a6                	sw	s1,100(sp)
   12024:	842a                	mv	s0,a0
   12026:	00e10513          	addi	a0,sp,14
   1202a:	02c00613          	li	a2,44
   1202e:	00009097          	auipc	ra,0x9
   12032:	be8080e7          	jalr	-1048(ra) # 1ac16 <memcpy>
   12036:	03a10513          	addi	a0,sp,58
   1203a:	02a00613          	li	a2,42
   1203e:	4581                	li	a1,0
   12040:	00009097          	auipc	ra,0x9
   12044:	b6a080e7          	jalr	-1174(ra) # 1abaa <memset>
   12048:	6509                	lui	a0,0x2
   1204a:	458d                	li	a1,3
   1204c:	00e10613          	addi	a2,sp,14
   12050:	02c00693          	li	a3,44
   12054:	4f050793          	addi	a5,a0,1264 # 24f0 <.Lline_table_start1+0x22c5>
   12058:	4711                	li	a4,4
   1205a:	4489                	li	s1,2
   1205c:	853e                	mv	a0,a5
   1205e:	00000073          	ecall
   12062:	02950b63          	beq	a0,s1,12098 <_ZN18complex_no_dynamic3app17h399714d1ab7b73bcE+0x7c>
   12066:	03a10613          	addi	a2,sp,58
   1206a:	02a00693          	li	a3,42
   1206e:	470d                	li	a4,3
   12070:	853e                	mv	a0,a5
   12072:	4581                	li	a1,0
   12074:	00000073          	ecall
   12078:	02950063          	beq	a0,s1,12098 <_ZN18complex_no_dynamic3app17h399714d1ab7b73bcE+0x7c>
   1207c:	6509                	lui	a0,0x2
   1207e:	458d                	li	a1,3
   12080:	4f050493          	addi	s1,a0,1264 # 24f0 <.Lline_table_start1+0x22c5>
   12084:	4709                	li	a4,2
   12086:	07f00793          	li	a5,127
   1208a:	8526                	mv	a0,s1
   1208c:	4601                	li	a2,0
   1208e:	4681                	li	a3,0
   12090:	00000073          	ecall
   12094:	02a7ed63          	bltu	a5,a0,120ce <_ZN18complex_no_dynamic3app17h399714d1ab7b73bcE+0xb2>
   12098:	872e                	mv	a4,a1
   1209a:	4581                	li	a1,0
   1209c:	4601                	li	a2,0
   1209e:	4681                	li	a3,0
   120a0:	4505                	li	a0,1
   120a2:	6789                	lui	a5,0x2
   120a4:	00a40023          	sb	a0,0(s0)
   120a8:	c058                	sw	a4,4(s0)
   120aa:	4f078793          	addi	a5,a5,1264 # 24f0 <.Lline_table_start1+0x22c5>
   120ae:	470d                	li	a4,3
   120b0:	853e                	mv	a0,a5
   120b2:	00000073          	ecall
   120b6:	458d                	li	a1,3
   120b8:	4711                	li	a4,4
   120ba:	853e                	mv	a0,a5
   120bc:	4601                	li	a2,0
   120be:	4681                	li	a3,0
   120c0:	00000073          	ecall
   120c4:	50b6                	lw	ra,108(sp)
   120c6:	5426                	lw	s0,104(sp)
   120c8:	5496                	lw	s1,100(sp)
   120ca:	6165                	addi	sp,sp,112
   120cc:	8082                	ret
   120ce:	470d                	li	a4,3
   120d0:	8526                	mv	a0,s1
   120d2:	4581                	li	a1,0
   120d4:	4601                	li	a2,0
   120d6:	4681                	li	a3,0
   120d8:	00000073          	ecall
   120dc:	470d                	li	a4,3
   120de:	8526                	mv	a0,s1
   120e0:	4581                	li	a1,0
   120e2:	4601                	li	a2,0
   120e4:	4681                	li	a3,0
   120e6:	00000073          	ecall
   120ea:	00140513          	addi	a0,s0,1
   120ee:	03a10593          	addi	a1,sp,58
   120f2:	02a00613          	li	a2,42
   120f6:	00009097          	auipc	ra,0x9
   120fa:	b20080e7          	jalr	-1248(ra) # 1ac16 <memcpy>
   120fe:	8526                	mv	a0,s1
   12100:	4581                	li	a1,0
   12102:	4601                	li	a2,0
   12104:	4681                	li	a3,0
   12106:	00040023          	sb	zero,0(s0)
   1210a:	470d                	li	a4,3
   1210c:	00000073          	ecall
   12110:	458d                	li	a1,3
   12112:	4711                	li	a4,4
   12114:	8526                	mv	a0,s1
   12116:	4601                	li	a2,0
   12118:	4681                	li	a3,0
   1211a:	00000073          	ecall
   1211e:	b75d                	j	120c4 <_ZN18complex_no_dynamic3app17h399714d1ab7b73bcE+0xa8>

00012120 <_ZN18complex_no_dynamic3app17h3ab01e72685e168cE>:
   12120:	711d                	addi	sp,sp,-96
   12122:	ce86                	sw	ra,92(sp)
   12124:	cca2                	sw	s0,88(sp)
   12126:	842a                	mv	s0,a0
   12128:	00f10513          	addi	a0,sp,15
   1212c:	02b00613          	li	a2,43
   12130:	00009097          	auipc	ra,0x9
   12134:	ae6080e7          	jalr	-1306(ra) # 1ac16 <memcpy>
   12138:	03a10513          	addi	a0,sp,58
   1213c:	4679                	li	a2,30
   1213e:	4581                	li	a1,0
   12140:	00009097          	auipc	ra,0x9
   12144:	a6a080e7          	jalr	-1430(ra) # 1abaa <memset>
   12148:	7e300513          	li	a0,2019
   1214c:	459d                	li	a1,7
   1214e:	00f10613          	addi	a2,sp,15
   12152:	02b00693          	li	a3,43
   12156:	4711                	li	a4,4
   12158:	4789                	li	a5,2
   1215a:	00000073          	ecall
   1215e:	02f50963          	beq	a0,a5,12190 <_ZN18complex_no_dynamic3app17h3ab01e72685e168cE+0x70>
   12162:	7e300513          	li	a0,2019
   12166:	45a1                	li	a1,8
   12168:	03a10613          	addi	a2,sp,58
   1216c:	46f9                	li	a3,30
   1216e:	470d                	li	a4,3
   12170:	00000073          	ecall
   12174:	00f50e63          	beq	a0,a5,12190 <_ZN18complex_no_dynamic3app17h3ab01e72685e168cE+0x70>
   12178:	7e300513          	li	a0,2019
   1217c:	459d                	li	a1,7
   1217e:	4621                	li	a2,8
   12180:	4709                	li	a4,2
   12182:	07f00793          	li	a5,127
   12186:	4681                	li	a3,0
   12188:	00000073          	ecall
   1218c:	02a7ea63          	bltu	a5,a0,121c0 <_ZN18complex_no_dynamic3app17h3ab01e72685e168cE+0xa0>
   12190:	4601                	li	a2,0
   12192:	4681                	li	a3,0
   12194:	4705                	li	a4,1
   12196:	7e300513          	li	a0,2019
   1219a:	00e40023          	sb	a4,0(s0)
   1219e:	c04c                	sw	a1,4(s0)
   121a0:	45a1                	li	a1,8
   121a2:	470d                	li	a4,3
   121a4:	00000073          	ecall
   121a8:	7e300513          	li	a0,2019
   121ac:	459d                	li	a1,7
   121ae:	4711                	li	a4,4
   121b0:	4601                	li	a2,0
   121b2:	4681                	li	a3,0
   121b4:	00000073          	ecall
   121b8:	40f6                	lw	ra,92(sp)
   121ba:	4466                	lw	s0,88(sp)
   121bc:	6125                	addi	sp,sp,96
   121be:	8082                	ret
   121c0:	4601                	li	a2,0
   121c2:	4681                	li	a3,0
   121c4:	7e300513          	li	a0,2019
   121c8:	45a1                	li	a1,8
   121ca:	470d                	li	a4,3
   121cc:	00000073          	ecall
   121d0:	7e300513          	li	a0,2019
   121d4:	45a1                	li	a1,8
   121d6:	470d                	li	a4,3
   121d8:	4601                	li	a2,0
   121da:	4681                	li	a3,0
   121dc:	00000073          	ecall
   121e0:	00140513          	addi	a0,s0,1
   121e4:	03a10593          	addi	a1,sp,58
   121e8:	4679                	li	a2,30
   121ea:	00009097          	auipc	ra,0x9
   121ee:	a2c080e7          	jalr	-1492(ra) # 1ac16 <memcpy>
   121f2:	4601                	li	a2,0
   121f4:	4681                	li	a3,0
   121f6:	00040023          	sb	zero,0(s0)
   121fa:	7e300513          	li	a0,2019
   121fe:	45a1                	li	a1,8
   12200:	470d                	li	a4,3
   12202:	00000073          	ecall
   12206:	7e300513          	li	a0,2019
   1220a:	459d                	li	a1,7
   1220c:	4711                	li	a4,4
   1220e:	4601                	li	a2,0
   12210:	4681                	li	a3,0
   12212:	00000073          	ecall
   12216:	b74d                	j	121b8 <_ZN18complex_no_dynamic3app17h3ab01e72685e168cE+0x98>

00012218 <_ZN18complex_no_dynamic3app17h3afc2bc8be8b405bE>:
   12218:	7119                	addi	sp,sp,-128
   1221a:	de86                	sw	ra,124(sp)
   1221c:	dca2                	sw	s0,120(sp)
   1221e:	daa6                	sw	s1,116(sp)
   12220:	842a                	mv	s0,a0
   12222:	850a                	mv	a0,sp
   12224:	03500613          	li	a2,53
   12228:	00009097          	auipc	ra,0x9
   1222c:	9ee080e7          	jalr	-1554(ra) # 1ac16 <memcpy>
   12230:	03510513          	addi	a0,sp,53
   12234:	03f00613          	li	a2,63
   12238:	4581                	li	a1,0
   1223a:	00009097          	auipc	ra,0x9
   1223e:	970080e7          	jalr	-1680(ra) # 1abaa <memset>
   12242:	6505                	lui	a0,0x1
   12244:	860a                	mv	a2,sp
   12246:	03500693          	li	a3,53
   1224a:	e5750793          	addi	a5,a0,-425 # e57 <.Lline_table_start1+0xc2c>
   1224e:	4711                	li	a4,4
   12250:	4489                	li	s1,2
   12252:	853e                	mv	a0,a5
   12254:	4581                	li	a1,0
   12256:	00000073          	ecall
   1225a:	02950b63          	beq	a0,s1,12290 <_ZN18complex_no_dynamic3app17h3afc2bc8be8b405bE+0x78>
   1225e:	458d                	li	a1,3
   12260:	03510613          	addi	a2,sp,53
   12264:	03f00693          	li	a3,63
   12268:	470d                	li	a4,3
   1226a:	853e                	mv	a0,a5
   1226c:	00000073          	ecall
   12270:	02950063          	beq	a0,s1,12290 <_ZN18complex_no_dynamic3app17h3afc2bc8be8b405bE+0x78>
   12274:	6505                	lui	a0,0x1
   12276:	460d                	li	a2,3
   12278:	e5750493          	addi	s1,a0,-425 # e57 <.Lline_table_start1+0xc2c>
   1227c:	4709                	li	a4,2
   1227e:	07f00793          	li	a5,127
   12282:	8526                	mv	a0,s1
   12284:	4581                	li	a1,0
   12286:	4681                	li	a3,0
   12288:	00000073          	ecall
   1228c:	02a7ec63          	bltu	a5,a0,122c4 <_ZN18complex_no_dynamic3app17h3afc2bc8be8b405bE+0xac>
   12290:	4505                	li	a0,1
   12292:	6605                	lui	a2,0x1
   12294:	00a40023          	sb	a0,0(s0)
   12298:	c04c                	sw	a1,4(s0)
   1229a:	e5760793          	addi	a5,a2,-425 # e57 <.Lline_table_start1+0xc2c>
   1229e:	458d                	li	a1,3
   122a0:	470d                	li	a4,3
   122a2:	853e                	mv	a0,a5
   122a4:	4601                	li	a2,0
   122a6:	4681                	li	a3,0
   122a8:	00000073          	ecall
   122ac:	4711                	li	a4,4
   122ae:	853e                	mv	a0,a5
   122b0:	4581                	li	a1,0
   122b2:	4601                	li	a2,0
   122b4:	4681                	li	a3,0
   122b6:	00000073          	ecall
   122ba:	50f6                	lw	ra,124(sp)
   122bc:	5466                	lw	s0,120(sp)
   122be:	54d6                	lw	s1,116(sp)
   122c0:	6109                	addi	sp,sp,128
   122c2:	8082                	ret
   122c4:	8526                	mv	a0,s1
   122c6:	4601                	li	a2,0
   122c8:	4681                	li	a3,0
   122ca:	458d                	li	a1,3
   122cc:	470d                	li	a4,3
   122ce:	00000073          	ecall
   122d2:	458d                	li	a1,3
   122d4:	470d                	li	a4,3
   122d6:	8526                	mv	a0,s1
   122d8:	4601                	li	a2,0
   122da:	4681                	li	a3,0
   122dc:	00000073          	ecall
   122e0:	00140513          	addi	a0,s0,1
   122e4:	03510593          	addi	a1,sp,53
   122e8:	03f00613          	li	a2,63
   122ec:	00009097          	auipc	ra,0x9
   122f0:	92a080e7          	jalr	-1750(ra) # 1ac16 <memcpy>
   122f4:	00040023          	sb	zero,0(s0)
   122f8:	458d                	li	a1,3
   122fa:	470d                	li	a4,3
   122fc:	8526                	mv	a0,s1
   122fe:	4601                	li	a2,0
   12300:	4681                	li	a3,0
   12302:	00000073          	ecall
   12306:	4711                	li	a4,4
   12308:	8526                	mv	a0,s1
   1230a:	4581                	li	a1,0
   1230c:	4601                	li	a2,0
   1230e:	4681                	li	a3,0
   12310:	00000073          	ecall
   12314:	b75d                	j	122ba <_ZN18complex_no_dynamic3app17h3afc2bc8be8b405bE+0xa2>

00012316 <_ZN18complex_no_dynamic3app17h3b9810a4da66c51cE>:
   12316:	711d                	addi	sp,sp,-96
   12318:	ce86                	sw	ra,92(sp)
   1231a:	cca2                	sw	s0,88(sp)
   1231c:	caa6                	sw	s1,84(sp)
   1231e:	842a                	mv	s0,a0
   12320:	0048                	addi	a0,sp,4
   12322:	4645                	li	a2,17
   12324:	00009097          	auipc	ra,0x9
   12328:	8f2080e7          	jalr	-1806(ra) # 1ac16 <memcpy>
   1232c:	01510513          	addi	a0,sp,21
   12330:	03f00613          	li	a2,63
   12334:	4581                	li	a1,0
   12336:	00009097          	auipc	ra,0x9
   1233a:	874080e7          	jalr	-1932(ra) # 1abaa <memset>
   1233e:	6505                	lui	a0,0x1
   12340:	459d                	li	a1,7
   12342:	0050                	addi	a2,sp,4
   12344:	46c5                	li	a3,17
   12346:	cb050793          	addi	a5,a0,-848 # cb0 <.Lline_table_start1+0xa85>
   1234a:	4711                	li	a4,4
   1234c:	4489                	li	s1,2
   1234e:	853e                	mv	a0,a5
   12350:	00000073          	ecall
   12354:	02950b63          	beq	a0,s1,1238a <_ZN18complex_no_dynamic3app17h3b9810a4da66c51cE+0x74>
   12358:	4591                	li	a1,4
   1235a:	01510613          	addi	a2,sp,21
   1235e:	03f00693          	li	a3,63
   12362:	470d                	li	a4,3
   12364:	853e                	mv	a0,a5
   12366:	00000073          	ecall
   1236a:	02950063          	beq	a0,s1,1238a <_ZN18complex_no_dynamic3app17h3b9810a4da66c51cE+0x74>
   1236e:	6505                	lui	a0,0x1
   12370:	459d                	li	a1,7
   12372:	4611                	li	a2,4
   12374:	cb050493          	addi	s1,a0,-848 # cb0 <.Lline_table_start1+0xa85>
   12378:	4709                	li	a4,2
   1237a:	07f00793          	li	a5,127
   1237e:	8526                	mv	a0,s1
   12380:	4681                	li	a3,0
   12382:	00000073          	ecall
   12386:	02a7ed63          	bltu	a5,a0,123c0 <_ZN18complex_no_dynamic3app17h3b9810a4da66c51cE+0xaa>
   1238a:	872e                	mv	a4,a1
   1238c:	4601                	li	a2,0
   1238e:	4681                	li	a3,0
   12390:	4505                	li	a0,1
   12392:	6785                	lui	a5,0x1
   12394:	4591                	li	a1,4
   12396:	00a40023          	sb	a0,0(s0)
   1239a:	c058                	sw	a4,4(s0)
   1239c:	cb078793          	addi	a5,a5,-848 # cb0 <.Lline_table_start1+0xa85>
   123a0:	470d                	li	a4,3
   123a2:	853e                	mv	a0,a5
   123a4:	00000073          	ecall
   123a8:	459d                	li	a1,7
   123aa:	4711                	li	a4,4
   123ac:	853e                	mv	a0,a5
   123ae:	4601                	li	a2,0
   123b0:	4681                	li	a3,0
   123b2:	00000073          	ecall
   123b6:	40f6                	lw	ra,92(sp)
   123b8:	4466                	lw	s0,88(sp)
   123ba:	44d6                	lw	s1,84(sp)
   123bc:	6125                	addi	sp,sp,96
   123be:	8082                	ret
   123c0:	8526                	mv	a0,s1
   123c2:	4601                	li	a2,0
   123c4:	4681                	li	a3,0
   123c6:	4591                	li	a1,4
   123c8:	470d                	li	a4,3
   123ca:	00000073          	ecall
   123ce:	4591                	li	a1,4
   123d0:	470d                	li	a4,3
   123d2:	8526                	mv	a0,s1
   123d4:	4601                	li	a2,0
   123d6:	4681                	li	a3,0
   123d8:	00000073          	ecall
   123dc:	00140513          	addi	a0,s0,1
   123e0:	01510593          	addi	a1,sp,21
   123e4:	03f00613          	li	a2,63
   123e8:	00009097          	auipc	ra,0x9
   123ec:	82e080e7          	jalr	-2002(ra) # 1ac16 <memcpy>
   123f0:	8526                	mv	a0,s1
   123f2:	4601                	li	a2,0
   123f4:	4681                	li	a3,0
   123f6:	00040023          	sb	zero,0(s0)
   123fa:	4591                	li	a1,4
   123fc:	470d                	li	a4,3
   123fe:	00000073          	ecall
   12402:	459d                	li	a1,7
   12404:	4711                	li	a4,4
   12406:	8526                	mv	a0,s1
   12408:	4601                	li	a2,0
   1240a:	4681                	li	a3,0
   1240c:	00000073          	ecall
   12410:	b75d                	j	123b6 <_ZN18complex_no_dynamic3app17h3b9810a4da66c51cE+0xa0>

00012412 <_ZN18complex_no_dynamic3app17h3b9cea392b5931beE>:
   12412:	715d                	addi	sp,sp,-80
   12414:	c686                	sw	ra,76(sp)
   12416:	c4a2                	sw	s0,72(sp)
   12418:	c2a6                	sw	s1,68(sp)
   1241a:	842a                	mv	s0,a0
   1241c:	00910513          	addi	a0,sp,9
   12420:	02700613          	li	a2,39
   12424:	00008097          	auipc	ra,0x8
   12428:	7f2080e7          	jalr	2034(ra) # 1ac16 <memcpy>
   1242c:	1808                	addi	a0,sp,48
   1242e:	4651                	li	a2,20
   12430:	4581                	li	a1,0
   12432:	00008097          	auipc	ra,0x8
   12436:	778080e7          	jalr	1912(ra) # 1abaa <memset>
   1243a:	6509                	lui	a0,0x2
   1243c:	4599                	li	a1,6
   1243e:	00910613          	addi	a2,sp,9
   12442:	02700693          	li	a3,39
   12446:	2c950793          	addi	a5,a0,713 # 22c9 <.Lline_table_start1+0x209e>
   1244a:	4711                	li	a4,4
   1244c:	4489                	li	s1,2
   1244e:	853e                	mv	a0,a5
   12450:	00000073          	ecall
   12454:	02950963          	beq	a0,s1,12486 <_ZN18complex_no_dynamic3app17h3b9cea392b5931beE+0x74>
   12458:	4595                	li	a1,5
   1245a:	1810                	addi	a2,sp,48
   1245c:	46d1                	li	a3,20
   1245e:	470d                	li	a4,3
   12460:	853e                	mv	a0,a5
   12462:	00000073          	ecall
   12466:	02950063          	beq	a0,s1,12486 <_ZN18complex_no_dynamic3app17h3b9cea392b5931beE+0x74>
   1246a:	6509                	lui	a0,0x2
   1246c:	4599                	li	a1,6
   1246e:	4615                	li	a2,5
   12470:	2c950493          	addi	s1,a0,713 # 22c9 <.Lline_table_start1+0x209e>
   12474:	4709                	li	a4,2
   12476:	07f00793          	li	a5,127
   1247a:	8526                	mv	a0,s1
   1247c:	4681                	li	a3,0
   1247e:	00000073          	ecall
   12482:	02a7ed63          	bltu	a5,a0,124bc <_ZN18complex_no_dynamic3app17h3b9cea392b5931beE+0xaa>
   12486:	872e                	mv	a4,a1
   12488:	4601                	li	a2,0
   1248a:	4681                	li	a3,0
   1248c:	4505                	li	a0,1
   1248e:	6789                	lui	a5,0x2
   12490:	4595                	li	a1,5
   12492:	00a40023          	sb	a0,0(s0)
   12496:	c058                	sw	a4,4(s0)
   12498:	2c978793          	addi	a5,a5,713 # 22c9 <.Lline_table_start1+0x209e>
   1249c:	470d                	li	a4,3
   1249e:	853e                	mv	a0,a5
   124a0:	00000073          	ecall
   124a4:	4599                	li	a1,6
   124a6:	4711                	li	a4,4
   124a8:	853e                	mv	a0,a5
   124aa:	4601                	li	a2,0
   124ac:	4681                	li	a3,0
   124ae:	00000073          	ecall
   124b2:	40b6                	lw	ra,76(sp)
   124b4:	4426                	lw	s0,72(sp)
   124b6:	4496                	lw	s1,68(sp)
   124b8:	6161                	addi	sp,sp,80
   124ba:	8082                	ret
   124bc:	8526                	mv	a0,s1
   124be:	4601                	li	a2,0
   124c0:	4681                	li	a3,0
   124c2:	4595                	li	a1,5
   124c4:	470d                	li	a4,3
   124c6:	00000073          	ecall
   124ca:	4595                	li	a1,5
   124cc:	470d                	li	a4,3
   124ce:	8526                	mv	a0,s1
   124d0:	4601                	li	a2,0
   124d2:	4681                	li	a3,0
   124d4:	00000073          	ecall
   124d8:	00140513          	addi	a0,s0,1
   124dc:	180c                	addi	a1,sp,48
   124de:	4651                	li	a2,20
   124e0:	00008097          	auipc	ra,0x8
   124e4:	736080e7          	jalr	1846(ra) # 1ac16 <memcpy>
   124e8:	8526                	mv	a0,s1
   124ea:	4601                	li	a2,0
   124ec:	4681                	li	a3,0
   124ee:	00040023          	sb	zero,0(s0)
   124f2:	4595                	li	a1,5
   124f4:	470d                	li	a4,3
   124f6:	00000073          	ecall
   124fa:	4599                	li	a1,6
   124fc:	4711                	li	a4,4
   124fe:	8526                	mv	a0,s1
   12500:	4601                	li	a2,0
   12502:	4681                	li	a3,0
   12504:	00000073          	ecall
   12508:	b76d                	j	124b2 <_ZN18complex_no_dynamic3app17h3b9cea392b5931beE+0xa0>

0001250a <_ZN18complex_no_dynamic3app17h3d1b400e0ee58146E>:
   1250a:	7171                	addi	sp,sp,-176
   1250c:	d706                	sw	ra,172(sp)
   1250e:	d522                	sw	s0,168(sp)
   12510:	d326                	sw	s1,164(sp)
   12512:	842a                	mv	s0,a0
   12514:	0048                	addi	a0,sp,4
   12516:	05100613          	li	a2,81
   1251a:	00008097          	auipc	ra,0x8
   1251e:	6fc080e7          	jalr	1788(ra) # 1ac16 <memcpy>
   12522:	05510513          	addi	a0,sp,85
   12526:	04f00613          	li	a2,79
   1252a:	4581                	li	a1,0
   1252c:	00008097          	auipc	ra,0x8
   12530:	67e080e7          	jalr	1662(ra) # 1abaa <memset>
   12534:	6509                	lui	a0,0x2
   12536:	4591                	li	a1,4
   12538:	0050                	addi	a2,sp,4
   1253a:	05100693          	li	a3,81
   1253e:	0ee50793          	addi	a5,a0,238 # 20ee <.Lline_table_start1+0x1ec3>
   12542:	4711                	li	a4,4
   12544:	4489                	li	s1,2
   12546:	853e                	mv	a0,a5
   12548:	00000073          	ecall
   1254c:	02950b63          	beq	a0,s1,12582 <_ZN18complex_no_dynamic3app17h3d1b400e0ee58146E+0x78>
   12550:	45a5                	li	a1,9
   12552:	05510613          	addi	a2,sp,85
   12556:	04f00693          	li	a3,79
   1255a:	470d                	li	a4,3
   1255c:	853e                	mv	a0,a5
   1255e:	00000073          	ecall
   12562:	02950063          	beq	a0,s1,12582 <_ZN18complex_no_dynamic3app17h3d1b400e0ee58146E+0x78>
   12566:	6509                	lui	a0,0x2
   12568:	4591                	li	a1,4
   1256a:	4625                	li	a2,9
   1256c:	0ee50493          	addi	s1,a0,238 # 20ee <.Lline_table_start1+0x1ec3>
   12570:	4709                	li	a4,2
   12572:	07f00793          	li	a5,127
   12576:	8526                	mv	a0,s1
   12578:	4681                	li	a3,0
   1257a:	00000073          	ecall
   1257e:	02a7ed63          	bltu	a5,a0,125b8 <_ZN18complex_no_dynamic3app17h3d1b400e0ee58146E+0xae>
   12582:	872e                	mv	a4,a1
   12584:	4601                	li	a2,0
   12586:	4681                	li	a3,0
   12588:	4505                	li	a0,1
   1258a:	6789                	lui	a5,0x2
   1258c:	45a5                	li	a1,9
   1258e:	00a40023          	sb	a0,0(s0)
   12592:	c058                	sw	a4,4(s0)
   12594:	0ee78793          	addi	a5,a5,238 # 20ee <.Lline_table_start1+0x1ec3>
   12598:	470d                	li	a4,3
   1259a:	853e                	mv	a0,a5
   1259c:	00000073          	ecall
   125a0:	4591                	li	a1,4
   125a2:	4711                	li	a4,4
   125a4:	853e                	mv	a0,a5
   125a6:	4601                	li	a2,0
   125a8:	4681                	li	a3,0
   125aa:	00000073          	ecall
   125ae:	50ba                	lw	ra,172(sp)
   125b0:	542a                	lw	s0,168(sp)
   125b2:	549a                	lw	s1,164(sp)
   125b4:	614d                	addi	sp,sp,176
   125b6:	8082                	ret
   125b8:	8526                	mv	a0,s1
   125ba:	4601                	li	a2,0
   125bc:	4681                	li	a3,0
   125be:	45a5                	li	a1,9
   125c0:	470d                	li	a4,3
   125c2:	00000073          	ecall
   125c6:	45a5                	li	a1,9
   125c8:	470d                	li	a4,3
   125ca:	8526                	mv	a0,s1
   125cc:	4601                	li	a2,0
   125ce:	4681                	li	a3,0
   125d0:	00000073          	ecall
   125d4:	00140513          	addi	a0,s0,1
   125d8:	05510593          	addi	a1,sp,85
   125dc:	04f00613          	li	a2,79
   125e0:	00008097          	auipc	ra,0x8
   125e4:	636080e7          	jalr	1590(ra) # 1ac16 <memcpy>
   125e8:	8526                	mv	a0,s1
   125ea:	4601                	li	a2,0
   125ec:	4681                	li	a3,0
   125ee:	00040023          	sb	zero,0(s0)
   125f2:	45a5                	li	a1,9
   125f4:	470d                	li	a4,3
   125f6:	00000073          	ecall
   125fa:	4591                	li	a1,4
   125fc:	4711                	li	a4,4
   125fe:	8526                	mv	a0,s1
   12600:	4601                	li	a2,0
   12602:	4681                	li	a3,0
   12604:	00000073          	ecall
   12608:	b75d                	j	125ae <_ZN18complex_no_dynamic3app17h3d1b400e0ee58146E+0xa4>

0001260a <_ZN18complex_no_dynamic3app17h3d985e0af5eeb3fdE>:
   1260a:	7119                	addi	sp,sp,-128
   1260c:	de86                	sw	ra,124(sp)
   1260e:	dca2                	sw	s0,120(sp)
   12610:	daa6                	sw	s1,116(sp)
   12612:	842a                	mv	s0,a0
   12614:	00e10513          	addi	a0,sp,14
   12618:	05500613          	li	a2,85
   1261c:	00008097          	auipc	ra,0x8
   12620:	5fa080e7          	jalr	1530(ra) # 1ac16 <memcpy>
   12624:	06310513          	addi	a0,sp,99
   12628:	4645                	li	a2,17
   1262a:	4581                	li	a1,0
   1262c:	00008097          	auipc	ra,0x8
   12630:	57e080e7          	jalr	1406(ra) # 1abaa <memset>
   12634:	6505                	lui	a0,0x1
   12636:	4489                	li	s1,2
   12638:	4589                	li	a1,2
   1263a:	00e10613          	addi	a2,sp,14
   1263e:	c8950793          	addi	a5,a0,-887 # c89 <.Lline_table_start1+0xa5e>
   12642:	05500693          	li	a3,85
   12646:	4711                	li	a4,4
   12648:	853e                	mv	a0,a5
   1264a:	00000073          	ecall
   1264e:	02950a63          	beq	a0,s1,12682 <_ZN18complex_no_dynamic3app17h3d985e0af5eeb3fdE+0x78>
   12652:	4589                	li	a1,2
   12654:	06310613          	addi	a2,sp,99
   12658:	46c5                	li	a3,17
   1265a:	470d                	li	a4,3
   1265c:	853e                	mv	a0,a5
   1265e:	00000073          	ecall
   12662:	02950063          	beq	a0,s1,12682 <_ZN18complex_no_dynamic3app17h3d985e0af5eeb3fdE+0x78>
   12666:	6505                	lui	a0,0x1
   12668:	4589                	li	a1,2
   1266a:	4609                	li	a2,2
   1266c:	c8950493          	addi	s1,a0,-887 # c89 <.Lline_table_start1+0xa5e>
   12670:	4709                	li	a4,2
   12672:	07f00793          	li	a5,127
   12676:	8526                	mv	a0,s1
   12678:	4681                	li	a3,0
   1267a:	00000073          	ecall
   1267e:	02a7ed63          	bltu	a5,a0,126b8 <_ZN18complex_no_dynamic3app17h3d985e0af5eeb3fdE+0xae>
   12682:	872e                	mv	a4,a1
   12684:	4601                	li	a2,0
   12686:	4681                	li	a3,0
   12688:	4505                	li	a0,1
   1268a:	6785                	lui	a5,0x1
   1268c:	4589                	li	a1,2
   1268e:	00a40023          	sb	a0,0(s0)
   12692:	c058                	sw	a4,4(s0)
   12694:	c8978793          	addi	a5,a5,-887 # c89 <.Lline_table_start1+0xa5e>
   12698:	470d                	li	a4,3
   1269a:	853e                	mv	a0,a5
   1269c:	00000073          	ecall
   126a0:	4589                	li	a1,2
   126a2:	4711                	li	a4,4
   126a4:	853e                	mv	a0,a5
   126a6:	4601                	li	a2,0
   126a8:	4681                	li	a3,0
   126aa:	00000073          	ecall
   126ae:	50f6                	lw	ra,124(sp)
   126b0:	5466                	lw	s0,120(sp)
   126b2:	54d6                	lw	s1,116(sp)
   126b4:	6109                	addi	sp,sp,128
   126b6:	8082                	ret
   126b8:	8526                	mv	a0,s1
   126ba:	4601                	li	a2,0
   126bc:	4681                	li	a3,0
   126be:	4589                	li	a1,2
   126c0:	470d                	li	a4,3
   126c2:	00000073          	ecall
   126c6:	4589                	li	a1,2
   126c8:	470d                	li	a4,3
   126ca:	8526                	mv	a0,s1
   126cc:	4601                	li	a2,0
   126ce:	4681                	li	a3,0
   126d0:	00000073          	ecall
   126d4:	00140513          	addi	a0,s0,1
   126d8:	06310593          	addi	a1,sp,99
   126dc:	4645                	li	a2,17
   126de:	00008097          	auipc	ra,0x8
   126e2:	538080e7          	jalr	1336(ra) # 1ac16 <memcpy>
   126e6:	8526                	mv	a0,s1
   126e8:	4601                	li	a2,0
   126ea:	4681                	li	a3,0
   126ec:	00040023          	sb	zero,0(s0)
   126f0:	4589                	li	a1,2
   126f2:	470d                	li	a4,3
   126f4:	00000073          	ecall
   126f8:	4589                	li	a1,2
   126fa:	4711                	li	a4,4
   126fc:	8526                	mv	a0,s1
   126fe:	4601                	li	a2,0
   12700:	4681                	li	a3,0
   12702:	00000073          	ecall
   12706:	b765                	j	126ae <_ZN18complex_no_dynamic3app17h3d985e0af5eeb3fdE+0xa4>

00012708 <_ZN18complex_no_dynamic3app17h43d746b89937a694E>:
   12708:	711d                	addi	sp,sp,-96
   1270a:	ce86                	sw	ra,92(sp)
   1270c:	cca2                	sw	s0,88(sp)
   1270e:	caa6                	sw	s1,84(sp)
   12710:	842a                	mv	s0,a0
   12712:	0048                	addi	a0,sp,4
   12714:	03f00613          	li	a2,63
   12718:	00008097          	auipc	ra,0x8
   1271c:	4fe080e7          	jalr	1278(ra) # 1ac16 <memcpy>
   12720:	04310513          	addi	a0,sp,67
   12724:	4645                	li	a2,17
   12726:	4581                	li	a1,0
   12728:	00008097          	auipc	ra,0x8
   1272c:	482080e7          	jalr	1154(ra) # 1abaa <memset>
   12730:	6505                	lui	a0,0x1
   12732:	4591                	li	a1,4
   12734:	0050                	addi	a2,sp,4
   12736:	03f00693          	li	a3,63
   1273a:	4d750793          	addi	a5,a0,1239 # 14d7 <.Lline_table_start1+0x12ac>
   1273e:	4711                	li	a4,4
   12740:	4489                	li	s1,2
   12742:	853e                	mv	a0,a5
   12744:	00000073          	ecall
   12748:	02950a63          	beq	a0,s1,1277c <_ZN18complex_no_dynamic3app17h43d746b89937a694E+0x74>
   1274c:	458d                	li	a1,3
   1274e:	04310613          	addi	a2,sp,67
   12752:	46c5                	li	a3,17
   12754:	470d                	li	a4,3
   12756:	853e                	mv	a0,a5
   12758:	00000073          	ecall
   1275c:	02950063          	beq	a0,s1,1277c <_ZN18complex_no_dynamic3app17h43d746b89937a694E+0x74>
   12760:	6505                	lui	a0,0x1
   12762:	4591                	li	a1,4
   12764:	460d                	li	a2,3
   12766:	4d750493          	addi	s1,a0,1239 # 14d7 <.Lline_table_start1+0x12ac>
   1276a:	4709                	li	a4,2
   1276c:	07f00793          	li	a5,127
   12770:	8526                	mv	a0,s1
   12772:	4681                	li	a3,0
   12774:	00000073          	ecall
   12778:	02a7ed63          	bltu	a5,a0,127b2 <_ZN18complex_no_dynamic3app17h43d746b89937a694E+0xaa>
   1277c:	872e                	mv	a4,a1
   1277e:	4601                	li	a2,0
   12780:	4681                	li	a3,0
   12782:	4505                	li	a0,1
   12784:	6785                	lui	a5,0x1
   12786:	458d                	li	a1,3
   12788:	00a40023          	sb	a0,0(s0)
   1278c:	c058                	sw	a4,4(s0)
   1278e:	4d778793          	addi	a5,a5,1239 # 14d7 <.Lline_table_start1+0x12ac>
   12792:	470d                	li	a4,3
   12794:	853e                	mv	a0,a5
   12796:	00000073          	ecall
   1279a:	4591                	li	a1,4
   1279c:	4711                	li	a4,4
   1279e:	853e                	mv	a0,a5
   127a0:	4601                	li	a2,0
   127a2:	4681                	li	a3,0
   127a4:	00000073          	ecall
   127a8:	40f6                	lw	ra,92(sp)
   127aa:	4466                	lw	s0,88(sp)
   127ac:	44d6                	lw	s1,84(sp)
   127ae:	6125                	addi	sp,sp,96
   127b0:	8082                	ret
   127b2:	8526                	mv	a0,s1
   127b4:	4601                	li	a2,0
   127b6:	4681                	li	a3,0
   127b8:	458d                	li	a1,3
   127ba:	470d                	li	a4,3
   127bc:	00000073          	ecall
   127c0:	458d                	li	a1,3
   127c2:	470d                	li	a4,3
   127c4:	8526                	mv	a0,s1
   127c6:	4601                	li	a2,0
   127c8:	4681                	li	a3,0
   127ca:	00000073          	ecall
   127ce:	00140513          	addi	a0,s0,1
   127d2:	04310593          	addi	a1,sp,67
   127d6:	4645                	li	a2,17
   127d8:	00008097          	auipc	ra,0x8
   127dc:	43e080e7          	jalr	1086(ra) # 1ac16 <memcpy>
   127e0:	8526                	mv	a0,s1
   127e2:	4601                	li	a2,0
   127e4:	4681                	li	a3,0
   127e6:	00040023          	sb	zero,0(s0)
   127ea:	458d                	li	a1,3
   127ec:	470d                	li	a4,3
   127ee:	00000073          	ecall
   127f2:	4591                	li	a1,4
   127f4:	4711                	li	a4,4
   127f6:	8526                	mv	a0,s1
   127f8:	4601                	li	a2,0
   127fa:	4681                	li	a3,0
   127fc:	00000073          	ecall
   12800:	b765                	j	127a8 <_ZN18complex_no_dynamic3app17h43d746b89937a694E+0xa0>

00012802 <_ZN18complex_no_dynamic3app17h44816b7fb1ae1141E>:
   12802:	7119                	addi	sp,sp,-128
   12804:	de86                	sw	ra,124(sp)
   12806:	dca2                	sw	s0,120(sp)
   12808:	daa6                	sw	s1,116(sp)
   1280a:	842a                	mv	s0,a0
   1280c:	00610513          	addi	a0,sp,6
   12810:	03c00613          	li	a2,60
   12814:	00008097          	auipc	ra,0x8
   12818:	402080e7          	jalr	1026(ra) # 1ac16 <memcpy>
   1281c:	04210513          	addi	a0,sp,66
   12820:	03200613          	li	a2,50
   12824:	4581                	li	a1,0
   12826:	00008097          	auipc	ra,0x8
   1282a:	384080e7          	jalr	900(ra) # 1abaa <memset>
   1282e:	6509                	lui	a0,0x2
   12830:	4599                	li	a1,6
   12832:	00610613          	addi	a2,sp,6
   12836:	03c00693          	li	a3,60
   1283a:	b1e50793          	addi	a5,a0,-1250 # 1b1e <.Lline_table_start1+0x18f3>
   1283e:	4711                	li	a4,4
   12840:	4489                	li	s1,2
   12842:	853e                	mv	a0,a5
   12844:	00000073          	ecall
   12848:	02950b63          	beq	a0,s1,1287e <_ZN18complex_no_dynamic3app17h44816b7fb1ae1141E+0x7c>
   1284c:	45a1                	li	a1,8
   1284e:	04210613          	addi	a2,sp,66
   12852:	03200693          	li	a3,50
   12856:	470d                	li	a4,3
   12858:	853e                	mv	a0,a5
   1285a:	00000073          	ecall
   1285e:	02950063          	beq	a0,s1,1287e <_ZN18complex_no_dynamic3app17h44816b7fb1ae1141E+0x7c>
   12862:	6509                	lui	a0,0x2
   12864:	4599                	li	a1,6
   12866:	4621                	li	a2,8
   12868:	b1e50493          	addi	s1,a0,-1250 # 1b1e <.Lline_table_start1+0x18f3>
   1286c:	4709                	li	a4,2
   1286e:	07f00793          	li	a5,127
   12872:	8526                	mv	a0,s1
   12874:	4681                	li	a3,0
   12876:	00000073          	ecall
   1287a:	02a7ed63          	bltu	a5,a0,128b4 <_ZN18complex_no_dynamic3app17h44816b7fb1ae1141E+0xb2>
   1287e:	872e                	mv	a4,a1
   12880:	4601                	li	a2,0
   12882:	4681                	li	a3,0
   12884:	4505                	li	a0,1
   12886:	6789                	lui	a5,0x2
   12888:	45a1                	li	a1,8
   1288a:	00a40023          	sb	a0,0(s0)
   1288e:	c058                	sw	a4,4(s0)
   12890:	b1e78793          	addi	a5,a5,-1250 # 1b1e <.Lline_table_start1+0x18f3>
   12894:	470d                	li	a4,3
   12896:	853e                	mv	a0,a5
   12898:	00000073          	ecall
   1289c:	4599                	li	a1,6
   1289e:	4711                	li	a4,4
   128a0:	853e                	mv	a0,a5
   128a2:	4601                	li	a2,0
   128a4:	4681                	li	a3,0
   128a6:	00000073          	ecall
   128aa:	50f6                	lw	ra,124(sp)
   128ac:	5466                	lw	s0,120(sp)
   128ae:	54d6                	lw	s1,116(sp)
   128b0:	6109                	addi	sp,sp,128
   128b2:	8082                	ret
   128b4:	8526                	mv	a0,s1
   128b6:	4601                	li	a2,0
   128b8:	4681                	li	a3,0
   128ba:	45a1                	li	a1,8
   128bc:	470d                	li	a4,3
   128be:	00000073          	ecall
   128c2:	45a1                	li	a1,8
   128c4:	470d                	li	a4,3
   128c6:	8526                	mv	a0,s1
   128c8:	4601                	li	a2,0
   128ca:	4681                	li	a3,0
   128cc:	00000073          	ecall
   128d0:	00140513          	addi	a0,s0,1
   128d4:	04210593          	addi	a1,sp,66
   128d8:	03200613          	li	a2,50
   128dc:	00008097          	auipc	ra,0x8
   128e0:	33a080e7          	jalr	826(ra) # 1ac16 <memcpy>
   128e4:	8526                	mv	a0,s1
   128e6:	4601                	li	a2,0
   128e8:	4681                	li	a3,0
   128ea:	00040023          	sb	zero,0(s0)
   128ee:	45a1                	li	a1,8
   128f0:	470d                	li	a4,3
   128f2:	00000073          	ecall
   128f6:	4599                	li	a1,6
   128f8:	4711                	li	a4,4
   128fa:	8526                	mv	a0,s1
   128fc:	4601                	li	a2,0
   128fe:	4681                	li	a3,0
   12900:	00000073          	ecall
   12904:	b75d                	j	128aa <_ZN18complex_no_dynamic3app17h44816b7fb1ae1141E+0xa8>

00012906 <_ZN18complex_no_dynamic3app17h451322b1659a23e6E>:
   12906:	7135                	addi	sp,sp,-160
   12908:	cf06                	sw	ra,156(sp)
   1290a:	cd22                	sw	s0,152(sp)
   1290c:	cb26                	sw	s1,148(sp)
   1290e:	842a                	mv	s0,a0
   12910:	00b10513          	addi	a0,sp,11
   12914:	04d00613          	li	a2,77
   12918:	00008097          	auipc	ra,0x8
   1291c:	2fe080e7          	jalr	766(ra) # 1ac16 <memcpy>
   12920:	08a8                	addi	a0,sp,88
   12922:	03c00613          	li	a2,60
   12926:	4581                	li	a1,0
   12928:	00008097          	auipc	ra,0x8
   1292c:	282080e7          	jalr	642(ra) # 1abaa <memset>
   12930:	6509                	lui	a0,0x2
   12932:	4591                	li	a1,4
   12934:	00b10613          	addi	a2,sp,11
   12938:	04d00693          	li	a3,77
   1293c:	1ab50793          	addi	a5,a0,427 # 21ab <.Lline_table_start1+0x1f80>
   12940:	4711                	li	a4,4
   12942:	4489                	li	s1,2
   12944:	853e                	mv	a0,a5
   12946:	00000073          	ecall
   1294a:	02950a63          	beq	a0,s1,1297e <_ZN18complex_no_dynamic3app17h451322b1659a23e6E+0x78>
   1294e:	45a5                	li	a1,9
   12950:	08b0                	addi	a2,sp,88
   12952:	03c00693          	li	a3,60
   12956:	470d                	li	a4,3
   12958:	853e                	mv	a0,a5
   1295a:	00000073          	ecall
   1295e:	02950063          	beq	a0,s1,1297e <_ZN18complex_no_dynamic3app17h451322b1659a23e6E+0x78>
   12962:	6509                	lui	a0,0x2
   12964:	4591                	li	a1,4
   12966:	4625                	li	a2,9
   12968:	1ab50493          	addi	s1,a0,427 # 21ab <.Lline_table_start1+0x1f80>
   1296c:	4709                	li	a4,2
   1296e:	07f00793          	li	a5,127
   12972:	8526                	mv	a0,s1
   12974:	4681                	li	a3,0
   12976:	00000073          	ecall
   1297a:	02a7ed63          	bltu	a5,a0,129b4 <_ZN18complex_no_dynamic3app17h451322b1659a23e6E+0xae>
   1297e:	872e                	mv	a4,a1
   12980:	4601                	li	a2,0
   12982:	4681                	li	a3,0
   12984:	4505                	li	a0,1
   12986:	6789                	lui	a5,0x2
   12988:	45a5                	li	a1,9
   1298a:	00a40023          	sb	a0,0(s0)
   1298e:	c058                	sw	a4,4(s0)
   12990:	1ab78793          	addi	a5,a5,427 # 21ab <.Lline_table_start1+0x1f80>
   12994:	470d                	li	a4,3
   12996:	853e                	mv	a0,a5
   12998:	00000073          	ecall
   1299c:	4591                	li	a1,4
   1299e:	4711                	li	a4,4
   129a0:	853e                	mv	a0,a5
   129a2:	4601                	li	a2,0
   129a4:	4681                	li	a3,0
   129a6:	00000073          	ecall
   129aa:	40fa                	lw	ra,156(sp)
   129ac:	446a                	lw	s0,152(sp)
   129ae:	44da                	lw	s1,148(sp)
   129b0:	610d                	addi	sp,sp,160
   129b2:	8082                	ret
   129b4:	8526                	mv	a0,s1
   129b6:	4601                	li	a2,0
   129b8:	4681                	li	a3,0
   129ba:	45a5                	li	a1,9
   129bc:	470d                	li	a4,3
   129be:	00000073          	ecall
   129c2:	45a5                	li	a1,9
   129c4:	470d                	li	a4,3
   129c6:	8526                	mv	a0,s1
   129c8:	4601                	li	a2,0
   129ca:	4681                	li	a3,0
   129cc:	00000073          	ecall
   129d0:	00140513          	addi	a0,s0,1
   129d4:	08ac                	addi	a1,sp,88
   129d6:	03c00613          	li	a2,60
   129da:	00008097          	auipc	ra,0x8
   129de:	23c080e7          	jalr	572(ra) # 1ac16 <memcpy>
   129e2:	8526                	mv	a0,s1
   129e4:	4601                	li	a2,0
   129e6:	4681                	li	a3,0
   129e8:	00040023          	sb	zero,0(s0)
   129ec:	45a5                	li	a1,9
   129ee:	470d                	li	a4,3
   129f0:	00000073          	ecall
   129f4:	4591                	li	a1,4
   129f6:	4711                	li	a4,4
   129f8:	8526                	mv	a0,s1
   129fa:	4601                	li	a2,0
   129fc:	4681                	li	a3,0
   129fe:	00000073          	ecall
   12a02:	b765                	j	129aa <_ZN18complex_no_dynamic3app17h451322b1659a23e6E+0xa4>

00012a04 <_ZN18complex_no_dynamic3app17h479bcdd5ae9acb90E>:
   12a04:	7159                	addi	sp,sp,-112
   12a06:	d686                	sw	ra,108(sp)
   12a08:	d4a2                	sw	s0,104(sp)
   12a0a:	842a                	mv	s0,a0
   12a0c:	850a                	mv	a0,sp
   12a0e:	464d                	li	a2,19
   12a10:	00008097          	auipc	ra,0x8
   12a14:	206080e7          	jalr	518(ra) # 1ac16 <memcpy>
   12a18:	01310513          	addi	a0,sp,19
   12a1c:	05500613          	li	a2,85
   12a20:	4581                	li	a1,0
   12a22:	00008097          	auipc	ra,0x8
   12a26:	188080e7          	jalr	392(ra) # 1abaa <memset>
   12a2a:	32e00513          	li	a0,814
   12a2e:	45a5                	li	a1,9
   12a30:	860a                	mv	a2,sp
   12a32:	46cd                	li	a3,19
   12a34:	4711                	li	a4,4
   12a36:	4789                	li	a5,2
   12a38:	00000073          	ecall
   12a3c:	02f50a63          	beq	a0,a5,12a70 <_ZN18complex_no_dynamic3app17h479bcdd5ae9acb90E+0x6c>
   12a40:	32e00513          	li	a0,814
   12a44:	459d                	li	a1,7
   12a46:	01310613          	addi	a2,sp,19
   12a4a:	05500693          	li	a3,85
   12a4e:	470d                	li	a4,3
   12a50:	00000073          	ecall
   12a54:	00f50e63          	beq	a0,a5,12a70 <_ZN18complex_no_dynamic3app17h479bcdd5ae9acb90E+0x6c>
   12a58:	32e00513          	li	a0,814
   12a5c:	45a5                	li	a1,9
   12a5e:	461d                	li	a2,7
   12a60:	4709                	li	a4,2
   12a62:	07f00793          	li	a5,127
   12a66:	4681                	li	a3,0
   12a68:	00000073          	ecall
   12a6c:	02a7ea63          	bltu	a5,a0,12aa0 <_ZN18complex_no_dynamic3app17h479bcdd5ae9acb90E+0x9c>
   12a70:	4601                	li	a2,0
   12a72:	4681                	li	a3,0
   12a74:	4705                	li	a4,1
   12a76:	32e00513          	li	a0,814
   12a7a:	00e40023          	sb	a4,0(s0)
   12a7e:	c04c                	sw	a1,4(s0)
   12a80:	459d                	li	a1,7
   12a82:	470d                	li	a4,3
   12a84:	00000073          	ecall
   12a88:	32e00513          	li	a0,814
   12a8c:	45a5                	li	a1,9
   12a8e:	4711                	li	a4,4
   12a90:	4601                	li	a2,0
   12a92:	4681                	li	a3,0
   12a94:	00000073          	ecall
   12a98:	50b6                	lw	ra,108(sp)
   12a9a:	5426                	lw	s0,104(sp)
   12a9c:	6165                	addi	sp,sp,112
   12a9e:	8082                	ret
   12aa0:	4601                	li	a2,0
   12aa2:	4681                	li	a3,0
   12aa4:	32e00513          	li	a0,814
   12aa8:	459d                	li	a1,7
   12aaa:	470d                	li	a4,3
   12aac:	00000073          	ecall
   12ab0:	32e00513          	li	a0,814
   12ab4:	459d                	li	a1,7
   12ab6:	470d                	li	a4,3
   12ab8:	4601                	li	a2,0
   12aba:	4681                	li	a3,0
   12abc:	00000073          	ecall
   12ac0:	00140513          	addi	a0,s0,1
   12ac4:	01310593          	addi	a1,sp,19
   12ac8:	05500613          	li	a2,85
   12acc:	00008097          	auipc	ra,0x8
   12ad0:	14a080e7          	jalr	330(ra) # 1ac16 <memcpy>
   12ad4:	4601                	li	a2,0
   12ad6:	4681                	li	a3,0
   12ad8:	00040023          	sb	zero,0(s0)
   12adc:	32e00513          	li	a0,814
   12ae0:	459d                	li	a1,7
   12ae2:	470d                	li	a4,3
   12ae4:	00000073          	ecall
   12ae8:	32e00513          	li	a0,814
   12aec:	45a5                	li	a1,9
   12aee:	4711                	li	a4,4
   12af0:	4601                	li	a2,0
   12af2:	4681                	li	a3,0
   12af4:	00000073          	ecall
   12af8:	b745                	j	12a98 <_ZN18complex_no_dynamic3app17h479bcdd5ae9acb90E+0x94>

00012afa <_ZN18complex_no_dynamic3app17h47d6088eee075fc9E>:
   12afa:	7119                	addi	sp,sp,-128
   12afc:	de86                	sw	ra,124(sp)
   12afe:	dca2                	sw	s0,120(sp)
   12b00:	daa6                	sw	s1,116(sp)
   12b02:	842a                	mv	s0,a0
   12b04:	00310513          	addi	a0,sp,3
   12b08:	04800613          	li	a2,72
   12b0c:	00008097          	auipc	ra,0x8
   12b10:	10a080e7          	jalr	266(ra) # 1ac16 <memcpy>
   12b14:	04b10513          	addi	a0,sp,75
   12b18:	02900613          	li	a2,41
   12b1c:	4581                	li	a1,0
   12b1e:	00008097          	auipc	ra,0x8
   12b22:	08c080e7          	jalr	140(ra) # 1abaa <memset>
   12b26:	6509                	lui	a0,0x2
   12b28:	458d                	li	a1,3
   12b2a:	00310613          	addi	a2,sp,3
   12b2e:	04800693          	li	a3,72
   12b32:	6a450793          	addi	a5,a0,1700 # 26a4 <.Lline_table_start1+0x2479>
   12b36:	4711                	li	a4,4
   12b38:	4489                	li	s1,2
   12b3a:	853e                	mv	a0,a5
   12b3c:	00000073          	ecall
   12b40:	02950b63          	beq	a0,s1,12b76 <_ZN18complex_no_dynamic3app17h47d6088eee075fc9E+0x7c>
   12b44:	4591                	li	a1,4
   12b46:	04b10613          	addi	a2,sp,75
   12b4a:	02900693          	li	a3,41
   12b4e:	470d                	li	a4,3
   12b50:	853e                	mv	a0,a5
   12b52:	00000073          	ecall
   12b56:	02950063          	beq	a0,s1,12b76 <_ZN18complex_no_dynamic3app17h47d6088eee075fc9E+0x7c>
   12b5a:	6509                	lui	a0,0x2
   12b5c:	458d                	li	a1,3
   12b5e:	4611                	li	a2,4
   12b60:	6a450493          	addi	s1,a0,1700 # 26a4 <.Lline_table_start1+0x2479>
   12b64:	4709                	li	a4,2
   12b66:	07f00793          	li	a5,127
   12b6a:	8526                	mv	a0,s1
   12b6c:	4681                	li	a3,0
   12b6e:	00000073          	ecall
   12b72:	02a7ed63          	bltu	a5,a0,12bac <_ZN18complex_no_dynamic3app17h47d6088eee075fc9E+0xb2>
   12b76:	872e                	mv	a4,a1
   12b78:	4601                	li	a2,0
   12b7a:	4681                	li	a3,0
   12b7c:	4505                	li	a0,1
   12b7e:	6789                	lui	a5,0x2
   12b80:	4591                	li	a1,4
   12b82:	00a40023          	sb	a0,0(s0)
   12b86:	c058                	sw	a4,4(s0)
   12b88:	6a478793          	addi	a5,a5,1700 # 26a4 <.Lline_table_start1+0x2479>
   12b8c:	470d                	li	a4,3
   12b8e:	853e                	mv	a0,a5
   12b90:	00000073          	ecall
   12b94:	458d                	li	a1,3
   12b96:	4711                	li	a4,4
   12b98:	853e                	mv	a0,a5
   12b9a:	4601                	li	a2,0
   12b9c:	4681                	li	a3,0
   12b9e:	00000073          	ecall
   12ba2:	50f6                	lw	ra,124(sp)
   12ba4:	5466                	lw	s0,120(sp)
   12ba6:	54d6                	lw	s1,116(sp)
   12ba8:	6109                	addi	sp,sp,128
   12baa:	8082                	ret
   12bac:	8526                	mv	a0,s1
   12bae:	4601                	li	a2,0
   12bb0:	4681                	li	a3,0
   12bb2:	4591                	li	a1,4
   12bb4:	470d                	li	a4,3
   12bb6:	00000073          	ecall
   12bba:	4591                	li	a1,4
   12bbc:	470d                	li	a4,3
   12bbe:	8526                	mv	a0,s1
   12bc0:	4601                	li	a2,0
   12bc2:	4681                	li	a3,0
   12bc4:	00000073          	ecall
   12bc8:	00140513          	addi	a0,s0,1
   12bcc:	04b10593          	addi	a1,sp,75
   12bd0:	02900613          	li	a2,41
   12bd4:	00008097          	auipc	ra,0x8
   12bd8:	042080e7          	jalr	66(ra) # 1ac16 <memcpy>
   12bdc:	8526                	mv	a0,s1
   12bde:	4601                	li	a2,0
   12be0:	4681                	li	a3,0
   12be2:	00040023          	sb	zero,0(s0)
   12be6:	4591                	li	a1,4
   12be8:	470d                	li	a4,3
   12bea:	00000073          	ecall
   12bee:	458d                	li	a1,3
   12bf0:	4711                	li	a4,4
   12bf2:	8526                	mv	a0,s1
   12bf4:	4601                	li	a2,0
   12bf6:	4681                	li	a3,0
   12bf8:	00000073          	ecall
   12bfc:	b75d                	j	12ba2 <_ZN18complex_no_dynamic3app17h47d6088eee075fc9E+0xa8>

00012bfe <_ZN18complex_no_dynamic3app17h529f4a93375869daE>:
   12bfe:	7131                	addi	sp,sp,-192
   12c00:	df06                	sw	ra,188(sp)
   12c02:	dd22                	sw	s0,184(sp)
   12c04:	db26                	sw	s1,180(sp)
   12c06:	842a                	mv	s0,a0
   12c08:	00110513          	addi	a0,sp,1
   12c0c:	05e00613          	li	a2,94
   12c10:	00008097          	auipc	ra,0x8
   12c14:	006080e7          	jalr	6(ra) # 1ac16 <memcpy>
   12c18:	05f10513          	addi	a0,sp,95
   12c1c:	05500613          	li	a2,85
   12c20:	4581                	li	a1,0
   12c22:	00008097          	auipc	ra,0x8
   12c26:	f88080e7          	jalr	-120(ra) # 1abaa <memset>
   12c2a:	6505                	lui	a0,0x1
   12c2c:	459d                	li	a1,7
   12c2e:	00110613          	addi	a2,sp,1
   12c32:	05e00693          	li	a3,94
   12c36:	78a50793          	addi	a5,a0,1930 # 178a <.Lline_table_start1+0x155f>
   12c3a:	4711                	li	a4,4
   12c3c:	4489                	li	s1,2
   12c3e:	853e                	mv	a0,a5
   12c40:	00000073          	ecall
   12c44:	02950b63          	beq	a0,s1,12c7a <_ZN18complex_no_dynamic3app17h529f4a93375869daE+0x7c>
   12c48:	458d                	li	a1,3
   12c4a:	05f10613          	addi	a2,sp,95
   12c4e:	05500693          	li	a3,85
   12c52:	470d                	li	a4,3
   12c54:	853e                	mv	a0,a5
   12c56:	00000073          	ecall
   12c5a:	02950063          	beq	a0,s1,12c7a <_ZN18complex_no_dynamic3app17h529f4a93375869daE+0x7c>
   12c5e:	6505                	lui	a0,0x1
   12c60:	459d                	li	a1,7
   12c62:	460d                	li	a2,3
   12c64:	78a50493          	addi	s1,a0,1930 # 178a <.Lline_table_start1+0x155f>
   12c68:	4709                	li	a4,2
   12c6a:	07f00793          	li	a5,127
   12c6e:	8526                	mv	a0,s1
   12c70:	4681                	li	a3,0
   12c72:	00000073          	ecall
   12c76:	02a7ed63          	bltu	a5,a0,12cb0 <_ZN18complex_no_dynamic3app17h529f4a93375869daE+0xb2>
   12c7a:	872e                	mv	a4,a1
   12c7c:	4601                	li	a2,0
   12c7e:	4681                	li	a3,0
   12c80:	4505                	li	a0,1
   12c82:	6785                	lui	a5,0x1
   12c84:	458d                	li	a1,3
   12c86:	00a40023          	sb	a0,0(s0)
   12c8a:	c058                	sw	a4,4(s0)
   12c8c:	78a78793          	addi	a5,a5,1930 # 178a <.Lline_table_start1+0x155f>
   12c90:	470d                	li	a4,3
   12c92:	853e                	mv	a0,a5
   12c94:	00000073          	ecall
   12c98:	459d                	li	a1,7
   12c9a:	4711                	li	a4,4
   12c9c:	853e                	mv	a0,a5
   12c9e:	4601                	li	a2,0
   12ca0:	4681                	li	a3,0
   12ca2:	00000073          	ecall
   12ca6:	50fa                	lw	ra,188(sp)
   12ca8:	546a                	lw	s0,184(sp)
   12caa:	54da                	lw	s1,180(sp)
   12cac:	6129                	addi	sp,sp,192
   12cae:	8082                	ret
   12cb0:	8526                	mv	a0,s1
   12cb2:	4601                	li	a2,0
   12cb4:	4681                	li	a3,0
   12cb6:	458d                	li	a1,3
   12cb8:	470d                	li	a4,3
   12cba:	00000073          	ecall
   12cbe:	458d                	li	a1,3
   12cc0:	470d                	li	a4,3
   12cc2:	8526                	mv	a0,s1
   12cc4:	4601                	li	a2,0
   12cc6:	4681                	li	a3,0
   12cc8:	00000073          	ecall
   12ccc:	00140513          	addi	a0,s0,1
   12cd0:	05f10593          	addi	a1,sp,95
   12cd4:	05500613          	li	a2,85
   12cd8:	00008097          	auipc	ra,0x8
   12cdc:	f3e080e7          	jalr	-194(ra) # 1ac16 <memcpy>
   12ce0:	8526                	mv	a0,s1
   12ce2:	4601                	li	a2,0
   12ce4:	4681                	li	a3,0
   12ce6:	00040023          	sb	zero,0(s0)
   12cea:	458d                	li	a1,3
   12cec:	470d                	li	a4,3
   12cee:	00000073          	ecall
   12cf2:	459d                	li	a1,7
   12cf4:	4711                	li	a4,4
   12cf6:	8526                	mv	a0,s1
   12cf8:	4601                	li	a2,0
   12cfa:	4681                	li	a3,0
   12cfc:	00000073          	ecall
   12d00:	b75d                	j	12ca6 <_ZN18complex_no_dynamic3app17h529f4a93375869daE+0xa8>

00012d02 <_ZN18complex_no_dynamic3app17h55256a709c0d3e26E>:
   12d02:	7175                	addi	sp,sp,-144
   12d04:	c706                	sw	ra,140(sp)
   12d06:	c522                	sw	s0,136(sp)
   12d08:	c326                	sw	s1,132(sp)
   12d0a:	842a                	mv	s0,a0
   12d0c:	00d10513          	addi	a0,sp,13
   12d10:	04a00613          	li	a2,74
   12d14:	00008097          	auipc	ra,0x8
   12d18:	f02080e7          	jalr	-254(ra) # 1ac16 <memcpy>
   12d1c:	05710513          	addi	a0,sp,87
   12d20:	02d00613          	li	a2,45
   12d24:	4581                	li	a1,0
   12d26:	00008097          	auipc	ra,0x8
   12d2a:	e84080e7          	jalr	-380(ra) # 1abaa <memset>
   12d2e:	6505                	lui	a0,0x1
   12d30:	4489                	li	s1,2
   12d32:	4589                	li	a1,2
   12d34:	00d10613          	addi	a2,sp,13
   12d38:	e3d50793          	addi	a5,a0,-451 # e3d <.Lline_table_start1+0xc12>
   12d3c:	04a00693          	li	a3,74
   12d40:	4711                	li	a4,4
   12d42:	853e                	mv	a0,a5
   12d44:	00000073          	ecall
   12d48:	02950b63          	beq	a0,s1,12d7e <_ZN18complex_no_dynamic3app17h55256a709c0d3e26E+0x7c>
   12d4c:	458d                	li	a1,3
   12d4e:	05710613          	addi	a2,sp,87
   12d52:	02d00693          	li	a3,45
   12d56:	470d                	li	a4,3
   12d58:	853e                	mv	a0,a5
   12d5a:	00000073          	ecall
   12d5e:	02950063          	beq	a0,s1,12d7e <_ZN18complex_no_dynamic3app17h55256a709c0d3e26E+0x7c>
   12d62:	6505                	lui	a0,0x1
   12d64:	4589                	li	a1,2
   12d66:	460d                	li	a2,3
   12d68:	e3d50493          	addi	s1,a0,-451 # e3d <.Lline_table_start1+0xc12>
   12d6c:	4709                	li	a4,2
   12d6e:	07f00793          	li	a5,127
   12d72:	8526                	mv	a0,s1
   12d74:	4681                	li	a3,0
   12d76:	00000073          	ecall
   12d7a:	02a7ed63          	bltu	a5,a0,12db4 <_ZN18complex_no_dynamic3app17h55256a709c0d3e26E+0xb2>
   12d7e:	872e                	mv	a4,a1
   12d80:	4601                	li	a2,0
   12d82:	4681                	li	a3,0
   12d84:	4505                	li	a0,1
   12d86:	6785                	lui	a5,0x1
   12d88:	458d                	li	a1,3
   12d8a:	00a40023          	sb	a0,0(s0)
   12d8e:	c058                	sw	a4,4(s0)
   12d90:	e3d78793          	addi	a5,a5,-451 # e3d <.Lline_table_start1+0xc12>
   12d94:	470d                	li	a4,3
   12d96:	853e                	mv	a0,a5
   12d98:	00000073          	ecall
   12d9c:	4589                	li	a1,2
   12d9e:	4711                	li	a4,4
   12da0:	853e                	mv	a0,a5
   12da2:	4601                	li	a2,0
   12da4:	4681                	li	a3,0
   12da6:	00000073          	ecall
   12daa:	40ba                	lw	ra,140(sp)
   12dac:	442a                	lw	s0,136(sp)
   12dae:	449a                	lw	s1,132(sp)
   12db0:	6149                	addi	sp,sp,144
   12db2:	8082                	ret
   12db4:	8526                	mv	a0,s1
   12db6:	4601                	li	a2,0
   12db8:	4681                	li	a3,0
   12dba:	458d                	li	a1,3
   12dbc:	470d                	li	a4,3
   12dbe:	00000073          	ecall
   12dc2:	458d                	li	a1,3
   12dc4:	470d                	li	a4,3
   12dc6:	8526                	mv	a0,s1
   12dc8:	4601                	li	a2,0
   12dca:	4681                	li	a3,0
   12dcc:	00000073          	ecall
   12dd0:	00140513          	addi	a0,s0,1
   12dd4:	05710593          	addi	a1,sp,87
   12dd8:	02d00613          	li	a2,45
   12ddc:	00008097          	auipc	ra,0x8
   12de0:	e3a080e7          	jalr	-454(ra) # 1ac16 <memcpy>
   12de4:	8526                	mv	a0,s1
   12de6:	4601                	li	a2,0
   12de8:	4681                	li	a3,0
   12dea:	00040023          	sb	zero,0(s0)
   12dee:	458d                	li	a1,3
   12df0:	470d                	li	a4,3
   12df2:	00000073          	ecall
   12df6:	4589                	li	a1,2
   12df8:	4711                	li	a4,4
   12dfa:	8526                	mv	a0,s1
   12dfc:	4601                	li	a2,0
   12dfe:	4681                	li	a3,0
   12e00:	00000073          	ecall
   12e04:	b75d                	j	12daa <_ZN18complex_no_dynamic3app17h55256a709c0d3e26E+0xa8>

00012e06 <_ZN18complex_no_dynamic3app17h558802c216338d9dE>:
   12e06:	7171                	addi	sp,sp,-176
   12e08:	d706                	sw	ra,172(sp)
   12e0a:	d522                	sw	s0,168(sp)
   12e0c:	d326                	sw	s1,164(sp)
   12e0e:	842a                	mv	s0,a0
   12e10:	0048                	addi	a0,sp,4
   12e12:	05100613          	li	a2,81
   12e16:	00008097          	auipc	ra,0x8
   12e1a:	e00080e7          	jalr	-512(ra) # 1ac16 <memcpy>
   12e1e:	05510513          	addi	a0,sp,85
   12e22:	04f00613          	li	a2,79
   12e26:	4581                	li	a1,0
   12e28:	00008097          	auipc	ra,0x8
   12e2c:	d82080e7          	jalr	-638(ra) # 1abaa <memset>
   12e30:	6505                	lui	a0,0x1
   12e32:	4489                	li	s1,2
   12e34:	4589                	li	a1,2
   12e36:	0050                	addi	a2,sp,4
   12e38:	e1650793          	addi	a5,a0,-490 # e16 <.Lline_table_start1+0xbeb>
   12e3c:	05100693          	li	a3,81
   12e40:	4711                	li	a4,4
   12e42:	853e                	mv	a0,a5
   12e44:	00000073          	ecall
   12e48:	02950b63          	beq	a0,s1,12e7e <_ZN18complex_no_dynamic3app17h558802c216338d9dE+0x78>
   12e4c:	4591                	li	a1,4
   12e4e:	05510613          	addi	a2,sp,85
   12e52:	04f00693          	li	a3,79
   12e56:	470d                	li	a4,3
   12e58:	853e                	mv	a0,a5
   12e5a:	00000073          	ecall
   12e5e:	02950063          	beq	a0,s1,12e7e <_ZN18complex_no_dynamic3app17h558802c216338d9dE+0x78>
   12e62:	6505                	lui	a0,0x1
   12e64:	4589                	li	a1,2
   12e66:	4611                	li	a2,4
   12e68:	e1650493          	addi	s1,a0,-490 # e16 <.Lline_table_start1+0xbeb>
   12e6c:	4709                	li	a4,2
   12e6e:	07f00793          	li	a5,127
   12e72:	8526                	mv	a0,s1
   12e74:	4681                	li	a3,0
   12e76:	00000073          	ecall
   12e7a:	02a7ed63          	bltu	a5,a0,12eb4 <_ZN18complex_no_dynamic3app17h558802c216338d9dE+0xae>
   12e7e:	872e                	mv	a4,a1
   12e80:	4601                	li	a2,0
   12e82:	4681                	li	a3,0
   12e84:	4505                	li	a0,1
   12e86:	6785                	lui	a5,0x1
   12e88:	4591                	li	a1,4
   12e8a:	00a40023          	sb	a0,0(s0)
   12e8e:	c058                	sw	a4,4(s0)
   12e90:	e1678793          	addi	a5,a5,-490 # e16 <.Lline_table_start1+0xbeb>
   12e94:	470d                	li	a4,3
   12e96:	853e                	mv	a0,a5
   12e98:	00000073          	ecall
   12e9c:	4589                	li	a1,2
   12e9e:	4711                	li	a4,4
   12ea0:	853e                	mv	a0,a5
   12ea2:	4601                	li	a2,0
   12ea4:	4681                	li	a3,0
   12ea6:	00000073          	ecall
   12eaa:	50ba                	lw	ra,172(sp)
   12eac:	542a                	lw	s0,168(sp)
   12eae:	549a                	lw	s1,164(sp)
   12eb0:	614d                	addi	sp,sp,176
   12eb2:	8082                	ret
   12eb4:	8526                	mv	a0,s1
   12eb6:	4601                	li	a2,0
   12eb8:	4681                	li	a3,0
   12eba:	4591                	li	a1,4
   12ebc:	470d                	li	a4,3
   12ebe:	00000073          	ecall
   12ec2:	4591                	li	a1,4
   12ec4:	470d                	li	a4,3
   12ec6:	8526                	mv	a0,s1
   12ec8:	4601                	li	a2,0
   12eca:	4681                	li	a3,0
   12ecc:	00000073          	ecall
   12ed0:	00140513          	addi	a0,s0,1
   12ed4:	05510593          	addi	a1,sp,85
   12ed8:	04f00613          	li	a2,79
   12edc:	00008097          	auipc	ra,0x8
   12ee0:	d3a080e7          	jalr	-710(ra) # 1ac16 <memcpy>
   12ee4:	8526                	mv	a0,s1
   12ee6:	4601                	li	a2,0
   12ee8:	4681                	li	a3,0
   12eea:	00040023          	sb	zero,0(s0)
   12eee:	4591                	li	a1,4
   12ef0:	470d                	li	a4,3
   12ef2:	00000073          	ecall
   12ef6:	4589                	li	a1,2
   12ef8:	4711                	li	a4,4
   12efa:	8526                	mv	a0,s1
   12efc:	4601                	li	a2,0
   12efe:	4681                	li	a3,0
   12f00:	00000073          	ecall
   12f04:	b75d                	j	12eaa <_ZN18complex_no_dynamic3app17h558802c216338d9dE+0xa4>

00012f06 <_ZN18complex_no_dynamic3app17h55dd53cd615f487aE>:
   12f06:	7135                	addi	sp,sp,-160
   12f08:	cf06                	sw	ra,156(sp)
   12f0a:	cd22                	sw	s0,152(sp)
   12f0c:	cb26                	sw	s1,148(sp)
   12f0e:	842a                	mv	s0,a0
   12f10:	00710513          	addi	a0,sp,7
   12f14:	05300613          	li	a2,83
   12f18:	00008097          	auipc	ra,0x8
   12f1c:	cfe080e7          	jalr	-770(ra) # 1ac16 <memcpy>
   12f20:	05a10513          	addi	a0,sp,90
   12f24:	03a00613          	li	a2,58
   12f28:	4581                	li	a1,0
   12f2a:	00008097          	auipc	ra,0x8
   12f2e:	c80080e7          	jalr	-896(ra) # 1abaa <memset>
   12f32:	6509                	lui	a0,0x2
   12f34:	4599                	li	a1,6
   12f36:	00710613          	addi	a2,sp,7
   12f3a:	05300693          	li	a3,83
   12f3e:	64550793          	addi	a5,a0,1605 # 2645 <.Lline_table_start1+0x241a>
   12f42:	4711                	li	a4,4
   12f44:	4489                	li	s1,2
   12f46:	853e                	mv	a0,a5
   12f48:	00000073          	ecall
   12f4c:	02950b63          	beq	a0,s1,12f82 <_ZN18complex_no_dynamic3app17h55dd53cd615f487aE+0x7c>
   12f50:	459d                	li	a1,7
   12f52:	05a10613          	addi	a2,sp,90
   12f56:	03a00693          	li	a3,58
   12f5a:	470d                	li	a4,3
   12f5c:	853e                	mv	a0,a5
   12f5e:	00000073          	ecall
   12f62:	02950063          	beq	a0,s1,12f82 <_ZN18complex_no_dynamic3app17h55dd53cd615f487aE+0x7c>
   12f66:	6509                	lui	a0,0x2
   12f68:	4599                	li	a1,6
   12f6a:	461d                	li	a2,7
   12f6c:	64550493          	addi	s1,a0,1605 # 2645 <.Lline_table_start1+0x241a>
   12f70:	4709                	li	a4,2
   12f72:	07f00793          	li	a5,127
   12f76:	8526                	mv	a0,s1
   12f78:	4681                	li	a3,0
   12f7a:	00000073          	ecall
   12f7e:	02a7ed63          	bltu	a5,a0,12fb8 <_ZN18complex_no_dynamic3app17h55dd53cd615f487aE+0xb2>
   12f82:	872e                	mv	a4,a1
   12f84:	4601                	li	a2,0
   12f86:	4681                	li	a3,0
   12f88:	4505                	li	a0,1
   12f8a:	6789                	lui	a5,0x2
   12f8c:	459d                	li	a1,7
   12f8e:	00a40023          	sb	a0,0(s0)
   12f92:	c058                	sw	a4,4(s0)
   12f94:	64578793          	addi	a5,a5,1605 # 2645 <.Lline_table_start1+0x241a>
   12f98:	470d                	li	a4,3
   12f9a:	853e                	mv	a0,a5
   12f9c:	00000073          	ecall
   12fa0:	4599                	li	a1,6
   12fa2:	4711                	li	a4,4
   12fa4:	853e                	mv	a0,a5
   12fa6:	4601                	li	a2,0
   12fa8:	4681                	li	a3,0
   12faa:	00000073          	ecall
   12fae:	40fa                	lw	ra,156(sp)
   12fb0:	446a                	lw	s0,152(sp)
   12fb2:	44da                	lw	s1,148(sp)
   12fb4:	610d                	addi	sp,sp,160
   12fb6:	8082                	ret
   12fb8:	8526                	mv	a0,s1
   12fba:	4601                	li	a2,0
   12fbc:	4681                	li	a3,0
   12fbe:	459d                	li	a1,7
   12fc0:	470d                	li	a4,3
   12fc2:	00000073          	ecall
   12fc6:	459d                	li	a1,7
   12fc8:	470d                	li	a4,3
   12fca:	8526                	mv	a0,s1
   12fcc:	4601                	li	a2,0
   12fce:	4681                	li	a3,0
   12fd0:	00000073          	ecall
   12fd4:	00140513          	addi	a0,s0,1
   12fd8:	05a10593          	addi	a1,sp,90
   12fdc:	03a00613          	li	a2,58
   12fe0:	00008097          	auipc	ra,0x8
   12fe4:	c36080e7          	jalr	-970(ra) # 1ac16 <memcpy>
   12fe8:	8526                	mv	a0,s1
   12fea:	4601                	li	a2,0
   12fec:	4681                	li	a3,0
   12fee:	00040023          	sb	zero,0(s0)
   12ff2:	459d                	li	a1,7
   12ff4:	470d                	li	a4,3
   12ff6:	00000073          	ecall
   12ffa:	4599                	li	a1,6
   12ffc:	4711                	li	a4,4
   12ffe:	8526                	mv	a0,s1
   13000:	4601                	li	a2,0
   13002:	4681                	li	a3,0
   13004:	00000073          	ecall
   13008:	b75d                	j	12fae <_ZN18complex_no_dynamic3app17h55dd53cd615f487aE+0xa8>

0001300a <_ZN18complex_no_dynamic3app17h5aa1b9cfe6c24f8fE>:
   1300a:	7159                	addi	sp,sp,-112
   1300c:	d686                	sw	ra,108(sp)
   1300e:	d4a2                	sw	s0,104(sp)
   13010:	d2a6                	sw	s1,100(sp)
   13012:	842a                	mv	s0,a0
   13014:	0048                	addi	a0,sp,4
   13016:	05100613          	li	a2,81
   1301a:	00008097          	auipc	ra,0x8
   1301e:	bfc080e7          	jalr	-1028(ra) # 1ac16 <memcpy>
   13022:	05510513          	addi	a0,sp,85
   13026:	463d                	li	a2,15
   13028:	4581                	li	a1,0
   1302a:	00008097          	auipc	ra,0x8
   1302e:	b80080e7          	jalr	-1152(ra) # 1abaa <memset>
   13032:	6505                	lui	a0,0x1
   13034:	0050                	addi	a2,sp,4
   13036:	05100693          	li	a3,81
   1303a:	3bf50793          	addi	a5,a0,959 # 13bf <.Lline_table_start1+0x1194>
   1303e:	4711                	li	a4,4
   13040:	4489                	li	s1,2
   13042:	853e                	mv	a0,a5
   13044:	4581                	li	a1,0
   13046:	00000073          	ecall
   1304a:	02950a63          	beq	a0,s1,1307e <_ZN18complex_no_dynamic3app17h5aa1b9cfe6c24f8fE+0x74>
   1304e:	458d                	li	a1,3
   13050:	05510613          	addi	a2,sp,85
   13054:	46bd                	li	a3,15
   13056:	470d                	li	a4,3
   13058:	853e                	mv	a0,a5
   1305a:	00000073          	ecall
   1305e:	02950063          	beq	a0,s1,1307e <_ZN18complex_no_dynamic3app17h5aa1b9cfe6c24f8fE+0x74>
   13062:	6505                	lui	a0,0x1
   13064:	460d                	li	a2,3
   13066:	3bf50493          	addi	s1,a0,959 # 13bf <.Lline_table_start1+0x1194>
   1306a:	4709                	li	a4,2
   1306c:	07f00793          	li	a5,127
   13070:	8526                	mv	a0,s1
   13072:	4581                	li	a1,0
   13074:	4681                	li	a3,0
   13076:	00000073          	ecall
   1307a:	02a7ec63          	bltu	a5,a0,130b2 <_ZN18complex_no_dynamic3app17h5aa1b9cfe6c24f8fE+0xa8>
   1307e:	4505                	li	a0,1
   13080:	6605                	lui	a2,0x1
   13082:	00a40023          	sb	a0,0(s0)
   13086:	c04c                	sw	a1,4(s0)
   13088:	3bf60793          	addi	a5,a2,959 # 13bf <.Lline_table_start1+0x1194>
   1308c:	458d                	li	a1,3
   1308e:	470d                	li	a4,3
   13090:	853e                	mv	a0,a5
   13092:	4601                	li	a2,0
   13094:	4681                	li	a3,0
   13096:	00000073          	ecall
   1309a:	4711                	li	a4,4
   1309c:	853e                	mv	a0,a5
   1309e:	4581                	li	a1,0
   130a0:	4601                	li	a2,0
   130a2:	4681                	li	a3,0
   130a4:	00000073          	ecall
   130a8:	50b6                	lw	ra,108(sp)
   130aa:	5426                	lw	s0,104(sp)
   130ac:	5496                	lw	s1,100(sp)
   130ae:	6165                	addi	sp,sp,112
   130b0:	8082                	ret
   130b2:	8526                	mv	a0,s1
   130b4:	4601                	li	a2,0
   130b6:	4681                	li	a3,0
   130b8:	458d                	li	a1,3
   130ba:	470d                	li	a4,3
   130bc:	00000073          	ecall
   130c0:	458d                	li	a1,3
   130c2:	470d                	li	a4,3
   130c4:	8526                	mv	a0,s1
   130c6:	4601                	li	a2,0
   130c8:	4681                	li	a3,0
   130ca:	00000073          	ecall
   130ce:	00140513          	addi	a0,s0,1
   130d2:	05510593          	addi	a1,sp,85
   130d6:	463d                	li	a2,15
   130d8:	00008097          	auipc	ra,0x8
   130dc:	b3e080e7          	jalr	-1218(ra) # 1ac16 <memcpy>
   130e0:	00040023          	sb	zero,0(s0)
   130e4:	458d                	li	a1,3
   130e6:	470d                	li	a4,3
   130e8:	8526                	mv	a0,s1
   130ea:	4601                	li	a2,0
   130ec:	4681                	li	a3,0
   130ee:	00000073          	ecall
   130f2:	4711                	li	a4,4
   130f4:	8526                	mv	a0,s1
   130f6:	4581                	li	a1,0
   130f8:	4601                	li	a2,0
   130fa:	4681                	li	a3,0
   130fc:	00000073          	ecall
   13100:	b765                	j	130a8 <_ZN18complex_no_dynamic3app17h5aa1b9cfe6c24f8fE+0x9e>

00013102 <_ZN18complex_no_dynamic3app17h5ea909839124508eE>:
   13102:	715d                	addi	sp,sp,-80
   13104:	c686                	sw	ra,76(sp)
   13106:	c4a2                	sw	s0,72(sp)
   13108:	c2a6                	sw	s1,68(sp)
   1310a:	842a                	mv	s0,a0
   1310c:	00710513          	addi	a0,sp,7
   13110:	02500613          	li	a2,37
   13114:	00008097          	auipc	ra,0x8
   13118:	b02080e7          	jalr	-1278(ra) # 1ac16 <memcpy>
   1311c:	1068                	addi	a0,sp,44
   1311e:	4661                	li	a2,24
   13120:	4581                	li	a1,0
   13122:	00008097          	auipc	ra,0x8
   13126:	a88080e7          	jalr	-1400(ra) # 1abaa <memset>
   1312a:	6505                	lui	a0,0x1
   1312c:	45a5                	li	a1,9
   1312e:	00710613          	addi	a2,sp,7
   13132:	02500693          	li	a3,37
   13136:	a7050793          	addi	a5,a0,-1424 # a70 <.Lline_table_start1+0x845>
   1313a:	4711                	li	a4,4
   1313c:	4489                	li	s1,2
   1313e:	853e                	mv	a0,a5
   13140:	00000073          	ecall
   13144:	02950963          	beq	a0,s1,13176 <_ZN18complex_no_dynamic3app17h5ea909839124508eE+0x74>
   13148:	45a1                	li	a1,8
   1314a:	1070                	addi	a2,sp,44
   1314c:	46e1                	li	a3,24
   1314e:	470d                	li	a4,3
   13150:	853e                	mv	a0,a5
   13152:	00000073          	ecall
   13156:	02950063          	beq	a0,s1,13176 <_ZN18complex_no_dynamic3app17h5ea909839124508eE+0x74>
   1315a:	6505                	lui	a0,0x1
   1315c:	45a5                	li	a1,9
   1315e:	4621                	li	a2,8
   13160:	a7050493          	addi	s1,a0,-1424 # a70 <.Lline_table_start1+0x845>
   13164:	4709                	li	a4,2
   13166:	07f00793          	li	a5,127
   1316a:	8526                	mv	a0,s1
   1316c:	4681                	li	a3,0
   1316e:	00000073          	ecall
   13172:	02a7ed63          	bltu	a5,a0,131ac <_ZN18complex_no_dynamic3app17h5ea909839124508eE+0xaa>
   13176:	872e                	mv	a4,a1
   13178:	4601                	li	a2,0
   1317a:	4681                	li	a3,0
   1317c:	4505                	li	a0,1
   1317e:	6785                	lui	a5,0x1
   13180:	45a1                	li	a1,8
   13182:	00a40023          	sb	a0,0(s0)
   13186:	c058                	sw	a4,4(s0)
   13188:	a7078793          	addi	a5,a5,-1424 # a70 <.Lline_table_start1+0x845>
   1318c:	470d                	li	a4,3
   1318e:	853e                	mv	a0,a5
   13190:	00000073          	ecall
   13194:	45a5                	li	a1,9
   13196:	4711                	li	a4,4
   13198:	853e                	mv	a0,a5
   1319a:	4601                	li	a2,0
   1319c:	4681                	li	a3,0
   1319e:	00000073          	ecall
   131a2:	40b6                	lw	ra,76(sp)
   131a4:	4426                	lw	s0,72(sp)
   131a6:	4496                	lw	s1,68(sp)
   131a8:	6161                	addi	sp,sp,80
   131aa:	8082                	ret
   131ac:	8526                	mv	a0,s1
   131ae:	4601                	li	a2,0
   131b0:	4681                	li	a3,0
   131b2:	45a1                	li	a1,8
   131b4:	470d                	li	a4,3
   131b6:	00000073          	ecall
   131ba:	45a1                	li	a1,8
   131bc:	470d                	li	a4,3
   131be:	8526                	mv	a0,s1
   131c0:	4601                	li	a2,0
   131c2:	4681                	li	a3,0
   131c4:	00000073          	ecall
   131c8:	00140513          	addi	a0,s0,1
   131cc:	106c                	addi	a1,sp,44
   131ce:	4661                	li	a2,24
   131d0:	00008097          	auipc	ra,0x8
   131d4:	a46080e7          	jalr	-1466(ra) # 1ac16 <memcpy>
   131d8:	8526                	mv	a0,s1
   131da:	4601                	li	a2,0
   131dc:	4681                	li	a3,0
   131de:	00040023          	sb	zero,0(s0)
   131e2:	45a1                	li	a1,8
   131e4:	470d                	li	a4,3
   131e6:	00000073          	ecall
   131ea:	45a5                	li	a1,9
   131ec:	4711                	li	a4,4
   131ee:	8526                	mv	a0,s1
   131f0:	4601                	li	a2,0
   131f2:	4681                	li	a3,0
   131f4:	00000073          	ecall
   131f8:	b76d                	j	131a2 <_ZN18complex_no_dynamic3app17h5ea909839124508eE+0xa0>

000131fa <_ZN18complex_no_dynamic3app17h6122e677e79743e2E>:
   131fa:	711d                	addi	sp,sp,-96
   131fc:	ce86                	sw	ra,92(sp)
   131fe:	cca2                	sw	s0,88(sp)
   13200:	caa6                	sw	s1,84(sp)
   13202:	842a                	mv	s0,a0
   13204:	00510513          	addi	a0,sp,5
   13208:	02500613          	li	a2,37
   1320c:	00008097          	auipc	ra,0x8
   13210:	a0a080e7          	jalr	-1526(ra) # 1ac16 <memcpy>
   13214:	02a10513          	addi	a0,sp,42
   13218:	02a00613          	li	a2,42
   1321c:	4581                	li	a1,0
   1321e:	00008097          	auipc	ra,0x8
   13222:	98c080e7          	jalr	-1652(ra) # 1abaa <memset>
   13226:	6505                	lui	a0,0x1
   13228:	00510613          	addi	a2,sp,5
   1322c:	02500693          	li	a3,37
   13230:	93c50793          	addi	a5,a0,-1732 # 93c <.Lline_table_start1+0x711>
   13234:	4711                	li	a4,4
   13236:	4489                	li	s1,2
   13238:	853e                	mv	a0,a5
   1323a:	4581                	li	a1,0
   1323c:	00000073          	ecall
   13240:	02950b63          	beq	a0,s1,13276 <_ZN18complex_no_dynamic3app17h6122e677e79743e2E+0x7c>
   13244:	458d                	li	a1,3
   13246:	02a10613          	addi	a2,sp,42
   1324a:	02a00693          	li	a3,42
   1324e:	470d                	li	a4,3
   13250:	853e                	mv	a0,a5
   13252:	00000073          	ecall
   13256:	02950063          	beq	a0,s1,13276 <_ZN18complex_no_dynamic3app17h6122e677e79743e2E+0x7c>
   1325a:	6505                	lui	a0,0x1
   1325c:	460d                	li	a2,3
   1325e:	93c50493          	addi	s1,a0,-1732 # 93c <.Lline_table_start1+0x711>
   13262:	4709                	li	a4,2
   13264:	07f00793          	li	a5,127
   13268:	8526                	mv	a0,s1
   1326a:	4581                	li	a1,0
   1326c:	4681                	li	a3,0
   1326e:	00000073          	ecall
   13272:	02a7ec63          	bltu	a5,a0,132aa <_ZN18complex_no_dynamic3app17h6122e677e79743e2E+0xb0>
   13276:	4505                	li	a0,1
   13278:	6605                	lui	a2,0x1
   1327a:	00a40023          	sb	a0,0(s0)
   1327e:	c04c                	sw	a1,4(s0)
   13280:	93c60793          	addi	a5,a2,-1732 # 93c <.Lline_table_start1+0x711>
   13284:	458d                	li	a1,3
   13286:	470d                	li	a4,3
   13288:	853e                	mv	a0,a5
   1328a:	4601                	li	a2,0
   1328c:	4681                	li	a3,0
   1328e:	00000073          	ecall
   13292:	4711                	li	a4,4
   13294:	853e                	mv	a0,a5
   13296:	4581                	li	a1,0
   13298:	4601                	li	a2,0
   1329a:	4681                	li	a3,0
   1329c:	00000073          	ecall
   132a0:	40f6                	lw	ra,92(sp)
   132a2:	4466                	lw	s0,88(sp)
   132a4:	44d6                	lw	s1,84(sp)
   132a6:	6125                	addi	sp,sp,96
   132a8:	8082                	ret
   132aa:	8526                	mv	a0,s1
   132ac:	4601                	li	a2,0
   132ae:	4681                	li	a3,0
   132b0:	458d                	li	a1,3
   132b2:	470d                	li	a4,3
   132b4:	00000073          	ecall
   132b8:	458d                	li	a1,3
   132ba:	470d                	li	a4,3
   132bc:	8526                	mv	a0,s1
   132be:	4601                	li	a2,0
   132c0:	4681                	li	a3,0
   132c2:	00000073          	ecall
   132c6:	00140513          	addi	a0,s0,1
   132ca:	02a10593          	addi	a1,sp,42
   132ce:	02a00613          	li	a2,42
   132d2:	00008097          	auipc	ra,0x8
   132d6:	944080e7          	jalr	-1724(ra) # 1ac16 <memcpy>
   132da:	00040023          	sb	zero,0(s0)
   132de:	458d                	li	a1,3
   132e0:	470d                	li	a4,3
   132e2:	8526                	mv	a0,s1
   132e4:	4601                	li	a2,0
   132e6:	4681                	li	a3,0
   132e8:	00000073          	ecall
   132ec:	4711                	li	a4,4
   132ee:	8526                	mv	a0,s1
   132f0:	4581                	li	a1,0
   132f2:	4601                	li	a2,0
   132f4:	4681                	li	a3,0
   132f6:	00000073          	ecall
   132fa:	b75d                	j	132a0 <_ZN18complex_no_dynamic3app17h6122e677e79743e2E+0xa6>

000132fc <_ZN18complex_no_dynamic3app17h64b6373af08d2485E>:
   132fc:	7159                	addi	sp,sp,-112
   132fe:	d686                	sw	ra,108(sp)
   13300:	d4a2                	sw	s0,104(sp)
   13302:	842a                	mv	s0,a0
   13304:	0068                	addi	a0,sp,12
   13306:	466d                	li	a2,27
   13308:	00008097          	auipc	ra,0x8
   1330c:	90e080e7          	jalr	-1778(ra) # 1ac16 <memcpy>
   13310:	02710513          	addi	a0,sp,39
   13314:	04100613          	li	a2,65
   13318:	4581                	li	a1,0
   1331a:	00008097          	auipc	ra,0x8
   1331e:	890080e7          	jalr	-1904(ra) # 1abaa <memset>
   13322:	14000513          	li	a0,320
   13326:	45a1                	li	a1,8
   13328:	0070                	addi	a2,sp,12
   1332a:	46ed                	li	a3,27
   1332c:	4711                	li	a4,4
   1332e:	4789                	li	a5,2
   13330:	00000073          	ecall
   13334:	02f50a63          	beq	a0,a5,13368 <_ZN18complex_no_dynamic3app17h64b6373af08d2485E+0x6c>
   13338:	14000513          	li	a0,320
   1333c:	45a5                	li	a1,9
   1333e:	02710613          	addi	a2,sp,39
   13342:	04100693          	li	a3,65
   13346:	470d                	li	a4,3
   13348:	00000073          	ecall
   1334c:	00f50e63          	beq	a0,a5,13368 <_ZN18complex_no_dynamic3app17h64b6373af08d2485E+0x6c>
   13350:	14000513          	li	a0,320
   13354:	45a1                	li	a1,8
   13356:	4625                	li	a2,9
   13358:	4709                	li	a4,2
   1335a:	07f00793          	li	a5,127
   1335e:	4681                	li	a3,0
   13360:	00000073          	ecall
   13364:	02a7ea63          	bltu	a5,a0,13398 <_ZN18complex_no_dynamic3app17h64b6373af08d2485E+0x9c>
   13368:	4601                	li	a2,0
   1336a:	4681                	li	a3,0
   1336c:	4705                	li	a4,1
   1336e:	14000513          	li	a0,320
   13372:	00e40023          	sb	a4,0(s0)
   13376:	c04c                	sw	a1,4(s0)
   13378:	45a5                	li	a1,9
   1337a:	470d                	li	a4,3
   1337c:	00000073          	ecall
   13380:	14000513          	li	a0,320
   13384:	45a1                	li	a1,8
   13386:	4711                	li	a4,4
   13388:	4601                	li	a2,0
   1338a:	4681                	li	a3,0
   1338c:	00000073          	ecall
   13390:	50b6                	lw	ra,108(sp)
   13392:	5426                	lw	s0,104(sp)
   13394:	6165                	addi	sp,sp,112
   13396:	8082                	ret
   13398:	4601                	li	a2,0
   1339a:	4681                	li	a3,0
   1339c:	14000513          	li	a0,320
   133a0:	45a5                	li	a1,9
   133a2:	470d                	li	a4,3
   133a4:	00000073          	ecall
   133a8:	14000513          	li	a0,320
   133ac:	45a5                	li	a1,9
   133ae:	470d                	li	a4,3
   133b0:	4601                	li	a2,0
   133b2:	4681                	li	a3,0
   133b4:	00000073          	ecall
   133b8:	00140513          	addi	a0,s0,1
   133bc:	02710593          	addi	a1,sp,39
   133c0:	04100613          	li	a2,65
   133c4:	00008097          	auipc	ra,0x8
   133c8:	852080e7          	jalr	-1966(ra) # 1ac16 <memcpy>
   133cc:	4601                	li	a2,0
   133ce:	4681                	li	a3,0
   133d0:	00040023          	sb	zero,0(s0)
   133d4:	14000513          	li	a0,320
   133d8:	45a5                	li	a1,9
   133da:	470d                	li	a4,3
   133dc:	00000073          	ecall
   133e0:	14000513          	li	a0,320
   133e4:	45a1                	li	a1,8
   133e6:	4711                	li	a4,4
   133e8:	4601                	li	a2,0
   133ea:	4681                	li	a3,0
   133ec:	00000073          	ecall
   133f0:	b745                	j	13390 <_ZN18complex_no_dynamic3app17h64b6373af08d2485E+0x94>

000133f2 <_ZN18complex_no_dynamic3app17h6579188692c92587E>:
   133f2:	711d                	addi	sp,sp,-96
   133f4:	ce86                	sw	ra,92(sp)
   133f6:	cca2                	sw	s0,88(sp)
   133f8:	caa6                	sw	s1,84(sp)
   133fa:	842a                	mv	s0,a0
   133fc:	00110513          	addi	a0,sp,1
   13400:	02400613          	li	a2,36
   13404:	00008097          	auipc	ra,0x8
   13408:	812080e7          	jalr	-2030(ra) # 1ac16 <memcpy>
   1340c:	02510513          	addi	a0,sp,37
   13410:	02f00613          	li	a2,47
   13414:	4581                	li	a1,0
   13416:	00007097          	auipc	ra,0x7
   1341a:	794080e7          	jalr	1940(ra) # 1abaa <memset>
   1341e:	6505                	lui	a0,0x1
   13420:	4599                	li	a1,6
   13422:	00110613          	addi	a2,sp,1
   13426:	02400693          	li	a3,36
   1342a:	27350793          	addi	a5,a0,627 # 1273 <.Lline_table_start1+0x1048>
   1342e:	4711                	li	a4,4
   13430:	4489                	li	s1,2
   13432:	853e                	mv	a0,a5
   13434:	00000073          	ecall
   13438:	02950b63          	beq	a0,s1,1346e <_ZN18complex_no_dynamic3app17h6579188692c92587E+0x7c>
   1343c:	45a5                	li	a1,9
   1343e:	02510613          	addi	a2,sp,37
   13442:	02f00693          	li	a3,47
   13446:	470d                	li	a4,3
   13448:	853e                	mv	a0,a5
   1344a:	00000073          	ecall
   1344e:	02950063          	beq	a0,s1,1346e <_ZN18complex_no_dynamic3app17h6579188692c92587E+0x7c>
   13452:	6505                	lui	a0,0x1
   13454:	4599                	li	a1,6
   13456:	4625                	li	a2,9
   13458:	27350493          	addi	s1,a0,627 # 1273 <.Lline_table_start1+0x1048>
   1345c:	4709                	li	a4,2
   1345e:	07f00793          	li	a5,127
   13462:	8526                	mv	a0,s1
   13464:	4681                	li	a3,0
   13466:	00000073          	ecall
   1346a:	02a7ed63          	bltu	a5,a0,134a4 <_ZN18complex_no_dynamic3app17h6579188692c92587E+0xb2>
   1346e:	872e                	mv	a4,a1
   13470:	4601                	li	a2,0
   13472:	4681                	li	a3,0
   13474:	4505                	li	a0,1
   13476:	6785                	lui	a5,0x1
   13478:	45a5                	li	a1,9
   1347a:	00a40023          	sb	a0,0(s0)
   1347e:	c058                	sw	a4,4(s0)
   13480:	27378793          	addi	a5,a5,627 # 1273 <.Lline_table_start1+0x1048>
   13484:	470d                	li	a4,3
   13486:	853e                	mv	a0,a5
   13488:	00000073          	ecall
   1348c:	4599                	li	a1,6
   1348e:	4711                	li	a4,4
   13490:	853e                	mv	a0,a5
   13492:	4601                	li	a2,0
   13494:	4681                	li	a3,0
   13496:	00000073          	ecall
   1349a:	40f6                	lw	ra,92(sp)
   1349c:	4466                	lw	s0,88(sp)
   1349e:	44d6                	lw	s1,84(sp)
   134a0:	6125                	addi	sp,sp,96
   134a2:	8082                	ret
   134a4:	8526                	mv	a0,s1
   134a6:	4601                	li	a2,0
   134a8:	4681                	li	a3,0
   134aa:	45a5                	li	a1,9
   134ac:	470d                	li	a4,3
   134ae:	00000073          	ecall
   134b2:	45a5                	li	a1,9
   134b4:	470d                	li	a4,3
   134b6:	8526                	mv	a0,s1
   134b8:	4601                	li	a2,0
   134ba:	4681                	li	a3,0
   134bc:	00000073          	ecall
   134c0:	00140513          	addi	a0,s0,1
   134c4:	02510593          	addi	a1,sp,37
   134c8:	02f00613          	li	a2,47
   134cc:	00007097          	auipc	ra,0x7
   134d0:	74a080e7          	jalr	1866(ra) # 1ac16 <memcpy>
   134d4:	8526                	mv	a0,s1
   134d6:	4601                	li	a2,0
   134d8:	4681                	li	a3,0
   134da:	00040023          	sb	zero,0(s0)
   134de:	45a5                	li	a1,9
   134e0:	470d                	li	a4,3
   134e2:	00000073          	ecall
   134e6:	4599                	li	a1,6
   134e8:	4711                	li	a4,4
   134ea:	8526                	mv	a0,s1
   134ec:	4601                	li	a2,0
   134ee:	4681                	li	a3,0
   134f0:	00000073          	ecall
   134f4:	b75d                	j	1349a <_ZN18complex_no_dynamic3app17h6579188692c92587E+0xa8>

000134f6 <_ZN18complex_no_dynamic3app17h677aac36fc04709eE>:
   134f6:	7159                	addi	sp,sp,-112
   134f8:	d686                	sw	ra,108(sp)
   134fa:	d4a2                	sw	s0,104(sp)
   134fc:	d2a6                	sw	s1,100(sp)
   134fe:	842a                	mv	s0,a0
   13500:	00b10513          	addi	a0,sp,11
   13504:	04100613          	li	a2,65
   13508:	00007097          	auipc	ra,0x7
   1350c:	70e080e7          	jalr	1806(ra) # 1ac16 <memcpy>
   13510:	00e8                	addi	a0,sp,76
   13512:	4661                	li	a2,24
   13514:	4581                	li	a1,0
   13516:	00007097          	auipc	ra,0x7
   1351a:	694080e7          	jalr	1684(ra) # 1abaa <memset>
   1351e:	6509                	lui	a0,0x2
   13520:	4585                	li	a1,1
   13522:	00b10613          	addi	a2,sp,11
   13526:	04100693          	li	a3,65
   1352a:	15650793          	addi	a5,a0,342 # 2156 <.Lline_table_start1+0x1f2b>
   1352e:	4711                	li	a4,4
   13530:	4489                	li	s1,2
   13532:	853e                	mv	a0,a5
   13534:	00000073          	ecall
   13538:	02950963          	beq	a0,s1,1356a <_ZN18complex_no_dynamic3app17h677aac36fc04709eE+0x74>
   1353c:	45a5                	li	a1,9
   1353e:	00f0                	addi	a2,sp,76
   13540:	46e1                	li	a3,24
   13542:	470d                	li	a4,3
   13544:	853e                	mv	a0,a5
   13546:	00000073          	ecall
   1354a:	02950063          	beq	a0,s1,1356a <_ZN18complex_no_dynamic3app17h677aac36fc04709eE+0x74>
   1354e:	6509                	lui	a0,0x2
   13550:	4585                	li	a1,1
   13552:	4625                	li	a2,9
   13554:	15650493          	addi	s1,a0,342 # 2156 <.Lline_table_start1+0x1f2b>
   13558:	4709                	li	a4,2
   1355a:	07f00793          	li	a5,127
   1355e:	8526                	mv	a0,s1
   13560:	4681                	li	a3,0
   13562:	00000073          	ecall
   13566:	02a7ed63          	bltu	a5,a0,135a0 <_ZN18complex_no_dynamic3app17h677aac36fc04709eE+0xaa>
   1356a:	872e                	mv	a4,a1
   1356c:	4601                	li	a2,0
   1356e:	4681                	li	a3,0
   13570:	4505                	li	a0,1
   13572:	6789                	lui	a5,0x2
   13574:	45a5                	li	a1,9
   13576:	00a40023          	sb	a0,0(s0)
   1357a:	c058                	sw	a4,4(s0)
   1357c:	15678793          	addi	a5,a5,342 # 2156 <.Lline_table_start1+0x1f2b>
   13580:	470d                	li	a4,3
   13582:	853e                	mv	a0,a5
   13584:	00000073          	ecall
   13588:	4585                	li	a1,1
   1358a:	4711                	li	a4,4
   1358c:	853e                	mv	a0,a5
   1358e:	4601                	li	a2,0
   13590:	4681                	li	a3,0
   13592:	00000073          	ecall
   13596:	50b6                	lw	ra,108(sp)
   13598:	5426                	lw	s0,104(sp)
   1359a:	5496                	lw	s1,100(sp)
   1359c:	6165                	addi	sp,sp,112
   1359e:	8082                	ret
   135a0:	8526                	mv	a0,s1
   135a2:	4601                	li	a2,0
   135a4:	4681                	li	a3,0
   135a6:	45a5                	li	a1,9
   135a8:	470d                	li	a4,3
   135aa:	00000073          	ecall
   135ae:	45a5                	li	a1,9
   135b0:	470d                	li	a4,3
   135b2:	8526                	mv	a0,s1
   135b4:	4601                	li	a2,0
   135b6:	4681                	li	a3,0
   135b8:	00000073          	ecall
   135bc:	00140513          	addi	a0,s0,1
   135c0:	00ec                	addi	a1,sp,76
   135c2:	4661                	li	a2,24
   135c4:	00007097          	auipc	ra,0x7
   135c8:	652080e7          	jalr	1618(ra) # 1ac16 <memcpy>
   135cc:	8526                	mv	a0,s1
   135ce:	4601                	li	a2,0
   135d0:	4681                	li	a3,0
   135d2:	00040023          	sb	zero,0(s0)
   135d6:	45a5                	li	a1,9
   135d8:	470d                	li	a4,3
   135da:	00000073          	ecall
   135de:	4585                	li	a1,1
   135e0:	4711                	li	a4,4
   135e2:	8526                	mv	a0,s1
   135e4:	4601                	li	a2,0
   135e6:	4681                	li	a3,0
   135e8:	00000073          	ecall
   135ec:	b76d                	j	13596 <_ZN18complex_no_dynamic3app17h677aac36fc04709eE+0xa0>

000135ee <_ZN18complex_no_dynamic3app17h68bec11e47260f75E>:
   135ee:	7171                	addi	sp,sp,-176
   135f0:	d706                	sw	ra,172(sp)
   135f2:	d522                	sw	s0,168(sp)
   135f4:	d326                	sw	s1,164(sp)
   135f6:	842a                	mv	s0,a0
   135f8:	0048                	addi	a0,sp,4
   135fa:	05300613          	li	a2,83
   135fe:	00007097          	auipc	ra,0x7
   13602:	618080e7          	jalr	1560(ra) # 1ac16 <memcpy>
   13606:	05710513          	addi	a0,sp,87
   1360a:	04d00613          	li	a2,77
   1360e:	4581                	li	a1,0
   13610:	00007097          	auipc	ra,0x7
   13614:	59a080e7          	jalr	1434(ra) # 1abaa <memset>
   13618:	6505                	lui	a0,0x1
   1361a:	45a5                	li	a1,9
   1361c:	0050                	addi	a2,sp,4
   1361e:	05300693          	li	a3,83
   13622:	6ba50793          	addi	a5,a0,1722 # 16ba <.Lline_table_start1+0x148f>
   13626:	4711                	li	a4,4
   13628:	4489                	li	s1,2
   1362a:	853e                	mv	a0,a5
   1362c:	00000073          	ecall
   13630:	02950b63          	beq	a0,s1,13666 <_ZN18complex_no_dynamic3app17h68bec11e47260f75E+0x78>
   13634:	4591                	li	a1,4
   13636:	05710613          	addi	a2,sp,87
   1363a:	04d00693          	li	a3,77
   1363e:	470d                	li	a4,3
   13640:	853e                	mv	a0,a5
   13642:	00000073          	ecall
   13646:	02950063          	beq	a0,s1,13666 <_ZN18complex_no_dynamic3app17h68bec11e47260f75E+0x78>
   1364a:	6505                	lui	a0,0x1
   1364c:	45a5                	li	a1,9
   1364e:	4611                	li	a2,4
   13650:	6ba50493          	addi	s1,a0,1722 # 16ba <.Lline_table_start1+0x148f>
   13654:	4709                	li	a4,2
   13656:	07f00793          	li	a5,127
   1365a:	8526                	mv	a0,s1
   1365c:	4681                	li	a3,0
   1365e:	00000073          	ecall
   13662:	02a7ed63          	bltu	a5,a0,1369c <_ZN18complex_no_dynamic3app17h68bec11e47260f75E+0xae>
   13666:	872e                	mv	a4,a1
   13668:	4601                	li	a2,0
   1366a:	4681                	li	a3,0
   1366c:	4505                	li	a0,1
   1366e:	6785                	lui	a5,0x1
   13670:	4591                	li	a1,4
   13672:	00a40023          	sb	a0,0(s0)
   13676:	c058                	sw	a4,4(s0)
   13678:	6ba78793          	addi	a5,a5,1722 # 16ba <.Lline_table_start1+0x148f>
   1367c:	470d                	li	a4,3
   1367e:	853e                	mv	a0,a5
   13680:	00000073          	ecall
   13684:	45a5                	li	a1,9
   13686:	4711                	li	a4,4
   13688:	853e                	mv	a0,a5
   1368a:	4601                	li	a2,0
   1368c:	4681                	li	a3,0
   1368e:	00000073          	ecall
   13692:	50ba                	lw	ra,172(sp)
   13694:	542a                	lw	s0,168(sp)
   13696:	549a                	lw	s1,164(sp)
   13698:	614d                	addi	sp,sp,176
   1369a:	8082                	ret
   1369c:	8526                	mv	a0,s1
   1369e:	4601                	li	a2,0
   136a0:	4681                	li	a3,0
   136a2:	4591                	li	a1,4
   136a4:	470d                	li	a4,3
   136a6:	00000073          	ecall
   136aa:	4591                	li	a1,4
   136ac:	470d                	li	a4,3
   136ae:	8526                	mv	a0,s1
   136b0:	4601                	li	a2,0
   136b2:	4681                	li	a3,0
   136b4:	00000073          	ecall
   136b8:	00140513          	addi	a0,s0,1
   136bc:	05710593          	addi	a1,sp,87
   136c0:	04d00613          	li	a2,77
   136c4:	00007097          	auipc	ra,0x7
   136c8:	552080e7          	jalr	1362(ra) # 1ac16 <memcpy>
   136cc:	8526                	mv	a0,s1
   136ce:	4601                	li	a2,0
   136d0:	4681                	li	a3,0
   136d2:	00040023          	sb	zero,0(s0)
   136d6:	4591                	li	a1,4
   136d8:	470d                	li	a4,3
   136da:	00000073          	ecall
   136de:	45a5                	li	a1,9
   136e0:	4711                	li	a4,4
   136e2:	8526                	mv	a0,s1
   136e4:	4601                	li	a2,0
   136e6:	4681                	li	a3,0
   136e8:	00000073          	ecall
   136ec:	b75d                	j	13692 <_ZN18complex_no_dynamic3app17h68bec11e47260f75E+0xa4>

000136ee <_ZN18complex_no_dynamic3app17h6b38e5cf3bb1e8c0E>:
   136ee:	7179                	addi	sp,sp,-48
   136f0:	d606                	sw	ra,44(sp)
   136f2:	d422                	sw	s0,40(sp)
   136f4:	d226                	sw	s1,36(sp)
   136f6:	842a                	mv	s0,a0
   136f8:	00210513          	addi	a0,sp,2
   136fc:	463d                	li	a2,15
   136fe:	00007097          	auipc	ra,0x7
   13702:	518080e7          	jalr	1304(ra) # 1ac16 <memcpy>
   13706:	01110513          	addi	a0,sp,17
   1370a:	464d                	li	a2,19
   1370c:	4581                	li	a1,0
   1370e:	00007097          	auipc	ra,0x7
   13712:	49c080e7          	jalr	1180(ra) # 1abaa <memset>
   13716:	6509                	lui	a0,0x2
   13718:	458d                	li	a1,3
   1371a:	00210613          	addi	a2,sp,2
   1371e:	46bd                	li	a3,15
   13720:	e4b50793          	addi	a5,a0,-437 # 1e4b <.Lline_table_start1+0x1c20>
   13724:	4711                	li	a4,4
   13726:	4489                	li	s1,2
   13728:	853e                	mv	a0,a5
   1372a:	00000073          	ecall
   1372e:	02950a63          	beq	a0,s1,13762 <_ZN18complex_no_dynamic3app17h6b38e5cf3bb1e8c0E+0x74>
   13732:	01110613          	addi	a2,sp,17
   13736:	46cd                	li	a3,19
   13738:	470d                	li	a4,3
   1373a:	853e                	mv	a0,a5
   1373c:	4581                	li	a1,0
   1373e:	00000073          	ecall
   13742:	02950063          	beq	a0,s1,13762 <_ZN18complex_no_dynamic3app17h6b38e5cf3bb1e8c0E+0x74>
   13746:	6509                	lui	a0,0x2
   13748:	458d                	li	a1,3
   1374a:	e4b50493          	addi	s1,a0,-437 # 1e4b <.Lline_table_start1+0x1c20>
   1374e:	4709                	li	a4,2
   13750:	07f00793          	li	a5,127
   13754:	8526                	mv	a0,s1
   13756:	4601                	li	a2,0
   13758:	4681                	li	a3,0
   1375a:	00000073          	ecall
   1375e:	02a7ed63          	bltu	a5,a0,13798 <_ZN18complex_no_dynamic3app17h6b38e5cf3bb1e8c0E+0xaa>
   13762:	872e                	mv	a4,a1
   13764:	4581                	li	a1,0
   13766:	4601                	li	a2,0
   13768:	4681                	li	a3,0
   1376a:	4505                	li	a0,1
   1376c:	6789                	lui	a5,0x2
   1376e:	00a40023          	sb	a0,0(s0)
   13772:	c058                	sw	a4,4(s0)
   13774:	e4b78793          	addi	a5,a5,-437 # 1e4b <.Lline_table_start1+0x1c20>
   13778:	470d                	li	a4,3
   1377a:	853e                	mv	a0,a5
   1377c:	00000073          	ecall
   13780:	458d                	li	a1,3
   13782:	4711                	li	a4,4
   13784:	853e                	mv	a0,a5
   13786:	4601                	li	a2,0
   13788:	4681                	li	a3,0
   1378a:	00000073          	ecall
   1378e:	50b2                	lw	ra,44(sp)
   13790:	5422                	lw	s0,40(sp)
   13792:	5492                	lw	s1,36(sp)
   13794:	6145                	addi	sp,sp,48
   13796:	8082                	ret
   13798:	470d                	li	a4,3
   1379a:	8526                	mv	a0,s1
   1379c:	4581                	li	a1,0
   1379e:	4601                	li	a2,0
   137a0:	4681                	li	a3,0
   137a2:	00000073          	ecall
   137a6:	470d                	li	a4,3
   137a8:	8526                	mv	a0,s1
   137aa:	4581                	li	a1,0
   137ac:	4601                	li	a2,0
   137ae:	4681                	li	a3,0
   137b0:	00000073          	ecall
   137b4:	00140513          	addi	a0,s0,1
   137b8:	01110593          	addi	a1,sp,17
   137bc:	464d                	li	a2,19
   137be:	00007097          	auipc	ra,0x7
   137c2:	458080e7          	jalr	1112(ra) # 1ac16 <memcpy>
   137c6:	8526                	mv	a0,s1
   137c8:	4581                	li	a1,0
   137ca:	4601                	li	a2,0
   137cc:	4681                	li	a3,0
   137ce:	00040023          	sb	zero,0(s0)
   137d2:	470d                	li	a4,3
   137d4:	00000073          	ecall
   137d8:	458d                	li	a1,3
   137da:	4711                	li	a4,4
   137dc:	8526                	mv	a0,s1
   137de:	4601                	li	a2,0
   137e0:	4681                	li	a3,0
   137e2:	00000073          	ecall
   137e6:	b765                	j	1378e <_ZN18complex_no_dynamic3app17h6b38e5cf3bb1e8c0E+0xa0>

000137e8 <_ZN18complex_no_dynamic3app17h72bed9d58dd54710E>:
   137e8:	7175                	addi	sp,sp,-144
   137ea:	c706                	sw	ra,140(sp)
   137ec:	c522                	sw	s0,136(sp)
   137ee:	c326                	sw	s1,132(sp)
   137f0:	842a                	mv	s0,a0
   137f2:	00b10513          	addi	a0,sp,11
   137f6:	03100613          	li	a2,49
   137fa:	00007097          	auipc	ra,0x7
   137fe:	41c080e7          	jalr	1052(ra) # 1ac16 <memcpy>
   13802:	1868                	addi	a0,sp,60
   13804:	04800613          	li	a2,72
   13808:	4581                	li	a1,0
   1380a:	00007097          	auipc	ra,0x7
   1380e:	3a0080e7          	jalr	928(ra) # 1abaa <memset>
   13812:	6509                	lui	a0,0x2
   13814:	4591                	li	a1,4
   13816:	00b10613          	addi	a2,sp,11
   1381a:	03100693          	li	a3,49
   1381e:	80e50793          	addi	a5,a0,-2034 # 180e <.Lline_table_start1+0x15e3>
   13822:	4711                	li	a4,4
   13824:	4489                	li	s1,2
   13826:	853e                	mv	a0,a5
   13828:	00000073          	ecall
   1382c:	02950a63          	beq	a0,s1,13860 <_ZN18complex_no_dynamic3app17h72bed9d58dd54710E+0x78>
   13830:	458d                	li	a1,3
   13832:	1870                	addi	a2,sp,60
   13834:	04800693          	li	a3,72
   13838:	470d                	li	a4,3
   1383a:	853e                	mv	a0,a5
   1383c:	00000073          	ecall
   13840:	02950063          	beq	a0,s1,13860 <_ZN18complex_no_dynamic3app17h72bed9d58dd54710E+0x78>
   13844:	6509                	lui	a0,0x2
   13846:	4591                	li	a1,4
   13848:	460d                	li	a2,3
   1384a:	80e50493          	addi	s1,a0,-2034 # 180e <.Lline_table_start1+0x15e3>
   1384e:	4709                	li	a4,2
   13850:	07f00793          	li	a5,127
   13854:	8526                	mv	a0,s1
   13856:	4681                	li	a3,0
   13858:	00000073          	ecall
   1385c:	02a7ed63          	bltu	a5,a0,13896 <_ZN18complex_no_dynamic3app17h72bed9d58dd54710E+0xae>
   13860:	872e                	mv	a4,a1
   13862:	4601                	li	a2,0
   13864:	4681                	li	a3,0
   13866:	4505                	li	a0,1
   13868:	6789                	lui	a5,0x2
   1386a:	458d                	li	a1,3
   1386c:	00a40023          	sb	a0,0(s0)
   13870:	c058                	sw	a4,4(s0)
   13872:	80e78793          	addi	a5,a5,-2034 # 180e <.Lline_table_start1+0x15e3>
   13876:	470d                	li	a4,3
   13878:	853e                	mv	a0,a5
   1387a:	00000073          	ecall
   1387e:	4591                	li	a1,4
   13880:	4711                	li	a4,4
   13882:	853e                	mv	a0,a5
   13884:	4601                	li	a2,0
   13886:	4681                	li	a3,0
   13888:	00000073          	ecall
   1388c:	40ba                	lw	ra,140(sp)
   1388e:	442a                	lw	s0,136(sp)
   13890:	449a                	lw	s1,132(sp)
   13892:	6149                	addi	sp,sp,144
   13894:	8082                	ret
   13896:	8526                	mv	a0,s1
   13898:	4601                	li	a2,0
   1389a:	4681                	li	a3,0
   1389c:	458d                	li	a1,3
   1389e:	470d                	li	a4,3
   138a0:	00000073          	ecall
   138a4:	458d                	li	a1,3
   138a6:	470d                	li	a4,3
   138a8:	8526                	mv	a0,s1
   138aa:	4601                	li	a2,0
   138ac:	4681                	li	a3,0
   138ae:	00000073          	ecall
   138b2:	00140513          	addi	a0,s0,1
   138b6:	186c                	addi	a1,sp,60
   138b8:	04800613          	li	a2,72
   138bc:	00007097          	auipc	ra,0x7
   138c0:	35a080e7          	jalr	858(ra) # 1ac16 <memcpy>
   138c4:	8526                	mv	a0,s1
   138c6:	4601                	li	a2,0
   138c8:	4681                	li	a3,0
   138ca:	00040023          	sb	zero,0(s0)
   138ce:	458d                	li	a1,3
   138d0:	470d                	li	a4,3
   138d2:	00000073          	ecall
   138d6:	4591                	li	a1,4
   138d8:	4711                	li	a4,4
   138da:	8526                	mv	a0,s1
   138dc:	4601                	li	a2,0
   138de:	4681                	li	a3,0
   138e0:	00000073          	ecall
   138e4:	b765                	j	1388c <_ZN18complex_no_dynamic3app17h72bed9d58dd54710E+0xa4>

000138e6 <_ZN18complex_no_dynamic3app17h7393b881c67ceae8E>:
   138e6:	7159                	addi	sp,sp,-112
   138e8:	d686                	sw	ra,108(sp)
   138ea:	d4a2                	sw	s0,104(sp)
   138ec:	d2a6                	sw	s1,100(sp)
   138ee:	842a                	mv	s0,a0
   138f0:	00d10513          	addi	a0,sp,13
   138f4:	04800613          	li	a2,72
   138f8:	00007097          	auipc	ra,0x7
   138fc:	31e080e7          	jalr	798(ra) # 1ac16 <memcpy>
   13900:	05510513          	addi	a0,sp,85
   13904:	463d                	li	a2,15
   13906:	4581                	li	a1,0
   13908:	00007097          	auipc	ra,0x7
   1390c:	2a2080e7          	jalr	674(ra) # 1abaa <memset>
   13910:	6505                	lui	a0,0x1
   13912:	45a1                	li	a1,8
   13914:	00d10613          	addi	a2,sp,13
   13918:	04800693          	li	a3,72
   1391c:	11d50793          	addi	a5,a0,285 # 111d <.Lline_table_start1+0xef2>
   13920:	4711                	li	a4,4
   13922:	4489                	li	s1,2
   13924:	853e                	mv	a0,a5
   13926:	00000073          	ecall
   1392a:	02950a63          	beq	a0,s1,1395e <_ZN18complex_no_dynamic3app17h7393b881c67ceae8E+0x78>
   1392e:	45a5                	li	a1,9
   13930:	05510613          	addi	a2,sp,85
   13934:	46bd                	li	a3,15
   13936:	470d                	li	a4,3
   13938:	853e                	mv	a0,a5
   1393a:	00000073          	ecall
   1393e:	02950063          	beq	a0,s1,1395e <_ZN18complex_no_dynamic3app17h7393b881c67ceae8E+0x78>
   13942:	6505                	lui	a0,0x1
   13944:	45a1                	li	a1,8
   13946:	4625                	li	a2,9
   13948:	11d50493          	addi	s1,a0,285 # 111d <.Lline_table_start1+0xef2>
   1394c:	4709                	li	a4,2
   1394e:	07f00793          	li	a5,127
   13952:	8526                	mv	a0,s1
   13954:	4681                	li	a3,0
   13956:	00000073          	ecall
   1395a:	02a7ed63          	bltu	a5,a0,13994 <_ZN18complex_no_dynamic3app17h7393b881c67ceae8E+0xae>
   1395e:	872e                	mv	a4,a1
   13960:	4601                	li	a2,0
   13962:	4681                	li	a3,0
   13964:	4505                	li	a0,1
   13966:	6785                	lui	a5,0x1
   13968:	45a5                	li	a1,9
   1396a:	00a40023          	sb	a0,0(s0)
   1396e:	c058                	sw	a4,4(s0)
   13970:	11d78793          	addi	a5,a5,285 # 111d <.Lline_table_start1+0xef2>
   13974:	470d                	li	a4,3
   13976:	853e                	mv	a0,a5
   13978:	00000073          	ecall
   1397c:	45a1                	li	a1,8
   1397e:	4711                	li	a4,4
   13980:	853e                	mv	a0,a5
   13982:	4601                	li	a2,0
   13984:	4681                	li	a3,0
   13986:	00000073          	ecall
   1398a:	50b6                	lw	ra,108(sp)
   1398c:	5426                	lw	s0,104(sp)
   1398e:	5496                	lw	s1,100(sp)
   13990:	6165                	addi	sp,sp,112
   13992:	8082                	ret
   13994:	8526                	mv	a0,s1
   13996:	4601                	li	a2,0
   13998:	4681                	li	a3,0
   1399a:	45a5                	li	a1,9
   1399c:	470d                	li	a4,3
   1399e:	00000073          	ecall
   139a2:	45a5                	li	a1,9
   139a4:	470d                	li	a4,3
   139a6:	8526                	mv	a0,s1
   139a8:	4601                	li	a2,0
   139aa:	4681                	li	a3,0
   139ac:	00000073          	ecall
   139b0:	00140513          	addi	a0,s0,1
   139b4:	05510593          	addi	a1,sp,85
   139b8:	463d                	li	a2,15
   139ba:	00007097          	auipc	ra,0x7
   139be:	25c080e7          	jalr	604(ra) # 1ac16 <memcpy>
   139c2:	8526                	mv	a0,s1
   139c4:	4601                	li	a2,0
   139c6:	4681                	li	a3,0
   139c8:	00040023          	sb	zero,0(s0)
   139cc:	45a5                	li	a1,9
   139ce:	470d                	li	a4,3
   139d0:	00000073          	ecall
   139d4:	45a1                	li	a1,8
   139d6:	4711                	li	a4,4
   139d8:	8526                	mv	a0,s1
   139da:	4601                	li	a2,0
   139dc:	4681                	li	a3,0
   139de:	00000073          	ecall
   139e2:	b765                	j	1398a <_ZN18complex_no_dynamic3app17h7393b881c67ceae8E+0xa4>

000139e4 <_ZN18complex_no_dynamic3app17h754b133ae692b191E>:
   139e4:	711d                	addi	sp,sp,-96
   139e6:	ce86                	sw	ra,92(sp)
   139e8:	cca2                	sw	s0,88(sp)
   139ea:	842a                	mv	s0,a0
   139ec:	00710513          	addi	a0,sp,7
   139f0:	02c00613          	li	a2,44
   139f4:	00007097          	auipc	ra,0x7
   139f8:	222080e7          	jalr	546(ra) # 1ac16 <memcpy>
   139fc:	03310513          	addi	a0,sp,51
   13a00:	02500613          	li	a2,37
   13a04:	4581                	li	a1,0
   13a06:	00007097          	auipc	ra,0x7
   13a0a:	1a4080e7          	jalr	420(ra) # 1abaa <memset>
   13a0e:	77f00513          	li	a0,1919
   13a12:	458d                	li	a1,3
   13a14:	00710613          	addi	a2,sp,7
   13a18:	02c00693          	li	a3,44
   13a1c:	4711                	li	a4,4
   13a1e:	4789                	li	a5,2
   13a20:	00000073          	ecall
   13a24:	02f50a63          	beq	a0,a5,13a58 <_ZN18complex_no_dynamic3app17h754b133ae692b191E+0x74>
   13a28:	77f00513          	li	a0,1919
   13a2c:	03310613          	addi	a2,sp,51
   13a30:	02500693          	li	a3,37
   13a34:	470d                	li	a4,3
   13a36:	4581                	li	a1,0
   13a38:	00000073          	ecall
   13a3c:	00f50e63          	beq	a0,a5,13a58 <_ZN18complex_no_dynamic3app17h754b133ae692b191E+0x74>
   13a40:	77f00513          	li	a0,1919
   13a44:	458d                	li	a1,3
   13a46:	4709                	li	a4,2
   13a48:	07f00793          	li	a5,127
   13a4c:	4601                	li	a2,0
   13a4e:	4681                	li	a3,0
   13a50:	00000073          	ecall
   13a54:	02a7eb63          	bltu	a5,a0,13a8a <_ZN18complex_no_dynamic3app17h754b133ae692b191E+0xa6>
   13a58:	872e                	mv	a4,a1
   13a5a:	4581                	li	a1,0
   13a5c:	4601                	li	a2,0
   13a5e:	4681                	li	a3,0
   13a60:	4505                	li	a0,1
   13a62:	00a40023          	sb	a0,0(s0)
   13a66:	c058                	sw	a4,4(s0)
   13a68:	77f00513          	li	a0,1919
   13a6c:	470d                	li	a4,3
   13a6e:	00000073          	ecall
   13a72:	77f00513          	li	a0,1919
   13a76:	458d                	li	a1,3
   13a78:	4711                	li	a4,4
   13a7a:	4601                	li	a2,0
   13a7c:	4681                	li	a3,0
   13a7e:	00000073          	ecall
   13a82:	40f6                	lw	ra,92(sp)
   13a84:	4466                	lw	s0,88(sp)
   13a86:	6125                	addi	sp,sp,96
   13a88:	8082                	ret
   13a8a:	4581                	li	a1,0
   13a8c:	4601                	li	a2,0
   13a8e:	4681                	li	a3,0
   13a90:	77f00513          	li	a0,1919
   13a94:	470d                	li	a4,3
   13a96:	00000073          	ecall
   13a9a:	77f00513          	li	a0,1919
   13a9e:	470d                	li	a4,3
   13aa0:	4581                	li	a1,0
   13aa2:	4601                	li	a2,0
   13aa4:	4681                	li	a3,0
   13aa6:	00000073          	ecall
   13aaa:	00140513          	addi	a0,s0,1
   13aae:	03310593          	addi	a1,sp,51
   13ab2:	02500613          	li	a2,37
   13ab6:	00007097          	auipc	ra,0x7
   13aba:	160080e7          	jalr	352(ra) # 1ac16 <memcpy>
   13abe:	4581                	li	a1,0
   13ac0:	4601                	li	a2,0
   13ac2:	4681                	li	a3,0
   13ac4:	00040023          	sb	zero,0(s0)
   13ac8:	77f00513          	li	a0,1919
   13acc:	470d                	li	a4,3
   13ace:	00000073          	ecall
   13ad2:	77f00513          	li	a0,1919
   13ad6:	458d                	li	a1,3
   13ad8:	4711                	li	a4,4
   13ada:	4601                	li	a2,0
   13adc:	4681                	li	a3,0
   13ade:	00000073          	ecall
   13ae2:	b745                	j	13a82 <_ZN18complex_no_dynamic3app17h754b133ae692b191E+0x9e>

00013ae4 <_ZN18complex_no_dynamic3app17h7645fe863b4f41b2E>:
   13ae4:	7171                	addi	sp,sp,-176
   13ae6:	d706                	sw	ra,172(sp)
   13ae8:	d522                	sw	s0,168(sp)
   13aea:	d326                	sw	s1,164(sp)
   13aec:	842a                	mv	s0,a0
   13aee:	0028                	addi	a0,sp,8
   13af0:	04600613          	li	a2,70
   13af4:	00007097          	auipc	ra,0x7
   13af8:	122080e7          	jalr	290(ra) # 1ac16 <memcpy>
   13afc:	04e10513          	addi	a0,sp,78
   13b00:	05600613          	li	a2,86
   13b04:	4581                	li	a1,0
   13b06:	00007097          	auipc	ra,0x7
   13b0a:	0a4080e7          	jalr	164(ra) # 1abaa <memset>
   13b0e:	6509                	lui	a0,0x2
   13b10:	459d                	li	a1,7
   13b12:	0030                	addi	a2,sp,8
   13b14:	04600693          	li	a3,70
   13b18:	e5050793          	addi	a5,a0,-432 # 1e50 <.Lline_table_start1+0x1c25>
   13b1c:	4711                	li	a4,4
   13b1e:	4489                	li	s1,2
   13b20:	853e                	mv	a0,a5
   13b22:	00000073          	ecall
   13b26:	02950b63          	beq	a0,s1,13b5c <_ZN18complex_no_dynamic3app17h7645fe863b4f41b2E+0x78>
   13b2a:	458d                	li	a1,3
   13b2c:	04e10613          	addi	a2,sp,78
   13b30:	05600693          	li	a3,86
   13b34:	470d                	li	a4,3
   13b36:	853e                	mv	a0,a5
   13b38:	00000073          	ecall
   13b3c:	02950063          	beq	a0,s1,13b5c <_ZN18complex_no_dynamic3app17h7645fe863b4f41b2E+0x78>
   13b40:	6509                	lui	a0,0x2
   13b42:	459d                	li	a1,7
   13b44:	460d                	li	a2,3
   13b46:	e5050493          	addi	s1,a0,-432 # 1e50 <.Lline_table_start1+0x1c25>
   13b4a:	4709                	li	a4,2
   13b4c:	07f00793          	li	a5,127
   13b50:	8526                	mv	a0,s1
   13b52:	4681                	li	a3,0
   13b54:	00000073          	ecall
   13b58:	02a7ed63          	bltu	a5,a0,13b92 <_ZN18complex_no_dynamic3app17h7645fe863b4f41b2E+0xae>
   13b5c:	872e                	mv	a4,a1
   13b5e:	4601                	li	a2,0
   13b60:	4681                	li	a3,0
   13b62:	4505                	li	a0,1
   13b64:	6789                	lui	a5,0x2
   13b66:	458d                	li	a1,3
   13b68:	00a40023          	sb	a0,0(s0)
   13b6c:	c058                	sw	a4,4(s0)
   13b6e:	e5078793          	addi	a5,a5,-432 # 1e50 <.Lline_table_start1+0x1c25>
   13b72:	470d                	li	a4,3
   13b74:	853e                	mv	a0,a5
   13b76:	00000073          	ecall
   13b7a:	459d                	li	a1,7
   13b7c:	4711                	li	a4,4
   13b7e:	853e                	mv	a0,a5
   13b80:	4601                	li	a2,0
   13b82:	4681                	li	a3,0
   13b84:	00000073          	ecall
   13b88:	50ba                	lw	ra,172(sp)
   13b8a:	542a                	lw	s0,168(sp)
   13b8c:	549a                	lw	s1,164(sp)
   13b8e:	614d                	addi	sp,sp,176
   13b90:	8082                	ret
   13b92:	8526                	mv	a0,s1
   13b94:	4601                	li	a2,0
   13b96:	4681                	li	a3,0
   13b98:	458d                	li	a1,3
   13b9a:	470d                	li	a4,3
   13b9c:	00000073          	ecall
   13ba0:	458d                	li	a1,3
   13ba2:	470d                	li	a4,3
   13ba4:	8526                	mv	a0,s1
   13ba6:	4601                	li	a2,0
   13ba8:	4681                	li	a3,0
   13baa:	00000073          	ecall
   13bae:	00140513          	addi	a0,s0,1
   13bb2:	04e10593          	addi	a1,sp,78
   13bb6:	05600613          	li	a2,86
   13bba:	00007097          	auipc	ra,0x7
   13bbe:	05c080e7          	jalr	92(ra) # 1ac16 <memcpy>
   13bc2:	8526                	mv	a0,s1
   13bc4:	4601                	li	a2,0
   13bc6:	4681                	li	a3,0
   13bc8:	00040023          	sb	zero,0(s0)
   13bcc:	458d                	li	a1,3
   13bce:	470d                	li	a4,3
   13bd0:	00000073          	ecall
   13bd4:	459d                	li	a1,7
   13bd6:	4711                	li	a4,4
   13bd8:	8526                	mv	a0,s1
   13bda:	4601                	li	a2,0
   13bdc:	4681                	li	a3,0
   13bde:	00000073          	ecall
   13be2:	b75d                	j	13b88 <_ZN18complex_no_dynamic3app17h7645fe863b4f41b2E+0xa4>

00013be4 <_ZN18complex_no_dynamic3app17h7877375af41c45f3E>:
   13be4:	7135                	addi	sp,sp,-160
   13be6:	cf06                	sw	ra,156(sp)
   13be8:	cd22                	sw	s0,152(sp)
   13bea:	cb26                	sw	s1,148(sp)
   13bec:	842a                	mv	s0,a0
   13bee:	00710513          	addi	a0,sp,7
   13bf2:	02a00613          	li	a2,42
   13bf6:	00007097          	auipc	ra,0x7
   13bfa:	020080e7          	jalr	32(ra) # 1ac16 <memcpy>
   13bfe:	03110513          	addi	a0,sp,49
   13c02:	06300613          	li	a2,99
   13c06:	4581                	li	a1,0
   13c08:	00007097          	auipc	ra,0x7
   13c0c:	fa2080e7          	jalr	-94(ra) # 1abaa <memset>
   13c10:	6509                	lui	a0,0x2
   13c12:	4591                	li	a1,4
   13c14:	00710613          	addi	a2,sp,7
   13c18:	02a00693          	li	a3,42
   13c1c:	c7c50793          	addi	a5,a0,-900 # 1c7c <.Lline_table_start1+0x1a51>
   13c20:	4711                	li	a4,4
   13c22:	4489                	li	s1,2
   13c24:	853e                	mv	a0,a5
   13c26:	00000073          	ecall
   13c2a:	02950b63          	beq	a0,s1,13c60 <_ZN18complex_no_dynamic3app17h7877375af41c45f3E+0x7c>
   13c2e:	03110613          	addi	a2,sp,49
   13c32:	06300693          	li	a3,99
   13c36:	470d                	li	a4,3
   13c38:	853e                	mv	a0,a5
   13c3a:	4581                	li	a1,0
   13c3c:	00000073          	ecall
   13c40:	02950063          	beq	a0,s1,13c60 <_ZN18complex_no_dynamic3app17h7877375af41c45f3E+0x7c>
   13c44:	6509                	lui	a0,0x2
   13c46:	4591                	li	a1,4
   13c48:	c7c50493          	addi	s1,a0,-900 # 1c7c <.Lline_table_start1+0x1a51>
   13c4c:	4709                	li	a4,2
   13c4e:	07f00793          	li	a5,127
   13c52:	8526                	mv	a0,s1
   13c54:	4601                	li	a2,0
   13c56:	4681                	li	a3,0
   13c58:	00000073          	ecall
   13c5c:	02a7ed63          	bltu	a5,a0,13c96 <_ZN18complex_no_dynamic3app17h7877375af41c45f3E+0xb2>
   13c60:	872e                	mv	a4,a1
   13c62:	4581                	li	a1,0
   13c64:	4601                	li	a2,0
   13c66:	4681                	li	a3,0
   13c68:	4505                	li	a0,1
   13c6a:	6789                	lui	a5,0x2
   13c6c:	00a40023          	sb	a0,0(s0)
   13c70:	c058                	sw	a4,4(s0)
   13c72:	c7c78793          	addi	a5,a5,-900 # 1c7c <.Lline_table_start1+0x1a51>
   13c76:	470d                	li	a4,3
   13c78:	853e                	mv	a0,a5
   13c7a:	00000073          	ecall
   13c7e:	4591                	li	a1,4
   13c80:	4711                	li	a4,4
   13c82:	853e                	mv	a0,a5
   13c84:	4601                	li	a2,0
   13c86:	4681                	li	a3,0
   13c88:	00000073          	ecall
   13c8c:	40fa                	lw	ra,156(sp)
   13c8e:	446a                	lw	s0,152(sp)
   13c90:	44da                	lw	s1,148(sp)
   13c92:	610d                	addi	sp,sp,160
   13c94:	8082                	ret
   13c96:	470d                	li	a4,3
   13c98:	8526                	mv	a0,s1
   13c9a:	4581                	li	a1,0
   13c9c:	4601                	li	a2,0
   13c9e:	4681                	li	a3,0
   13ca0:	00000073          	ecall
   13ca4:	470d                	li	a4,3
   13ca6:	8526                	mv	a0,s1
   13ca8:	4581                	li	a1,0
   13caa:	4601                	li	a2,0
   13cac:	4681                	li	a3,0
   13cae:	00000073          	ecall
   13cb2:	00140513          	addi	a0,s0,1
   13cb6:	03110593          	addi	a1,sp,49
   13cba:	06300613          	li	a2,99
   13cbe:	00007097          	auipc	ra,0x7
   13cc2:	f58080e7          	jalr	-168(ra) # 1ac16 <memcpy>
   13cc6:	8526                	mv	a0,s1
   13cc8:	4581                	li	a1,0
   13cca:	4601                	li	a2,0
   13ccc:	4681                	li	a3,0
   13cce:	00040023          	sb	zero,0(s0)
   13cd2:	470d                	li	a4,3
   13cd4:	00000073          	ecall
   13cd8:	4591                	li	a1,4
   13cda:	4711                	li	a4,4
   13cdc:	8526                	mv	a0,s1
   13cde:	4601                	li	a2,0
   13ce0:	4681                	li	a3,0
   13ce2:	00000073          	ecall
   13ce6:	b75d                	j	13c8c <_ZN18complex_no_dynamic3app17h7877375af41c45f3E+0xa8>

00013ce8 <_ZN18complex_no_dynamic3app17h7982315d8f3f755aE>:
   13ce8:	7159                	addi	sp,sp,-112
   13cea:	d686                	sw	ra,108(sp)
   13cec:	d4a2                	sw	s0,104(sp)
   13cee:	d2a6                	sw	s1,100(sp)
   13cf0:	842a                	mv	s0,a0
   13cf2:	00210513          	addi	a0,sp,2
   13cf6:	03b00613          	li	a2,59
   13cfa:	00007097          	auipc	ra,0x7
   13cfe:	f1c080e7          	jalr	-228(ra) # 1ac16 <memcpy>
   13d02:	03d10513          	addi	a0,sp,61
   13d06:	02700613          	li	a2,39
   13d0a:	4581                	li	a1,0
   13d0c:	00007097          	auipc	ra,0x7
   13d10:	e9e080e7          	jalr	-354(ra) # 1abaa <memset>
   13d14:	6505                	lui	a0,0x1
   13d16:	4595                	li	a1,5
   13d18:	00210613          	addi	a2,sp,2
   13d1c:	03b00693          	li	a3,59
   13d20:	bd350793          	addi	a5,a0,-1069 # bd3 <.Lline_table_start1+0x9a8>
   13d24:	4711                	li	a4,4
   13d26:	4489                	li	s1,2
   13d28:	853e                	mv	a0,a5
   13d2a:	00000073          	ecall
   13d2e:	02950b63          	beq	a0,s1,13d64 <_ZN18complex_no_dynamic3app17h7982315d8f3f755aE+0x7c>
   13d32:	458d                	li	a1,3
   13d34:	03d10613          	addi	a2,sp,61
   13d38:	02700693          	li	a3,39
   13d3c:	470d                	li	a4,3
   13d3e:	853e                	mv	a0,a5
   13d40:	00000073          	ecall
   13d44:	02950063          	beq	a0,s1,13d64 <_ZN18complex_no_dynamic3app17h7982315d8f3f755aE+0x7c>
   13d48:	6505                	lui	a0,0x1
   13d4a:	4595                	li	a1,5
   13d4c:	460d                	li	a2,3
   13d4e:	bd350493          	addi	s1,a0,-1069 # bd3 <.Lline_table_start1+0x9a8>
   13d52:	4709                	li	a4,2
   13d54:	07f00793          	li	a5,127
   13d58:	8526                	mv	a0,s1
   13d5a:	4681                	li	a3,0
   13d5c:	00000073          	ecall
   13d60:	02a7ed63          	bltu	a5,a0,13d9a <_ZN18complex_no_dynamic3app17h7982315d8f3f755aE+0xb2>
   13d64:	872e                	mv	a4,a1
   13d66:	4601                	li	a2,0
   13d68:	4681                	li	a3,0
   13d6a:	4505                	li	a0,1
   13d6c:	6785                	lui	a5,0x1
   13d6e:	458d                	li	a1,3
   13d70:	00a40023          	sb	a0,0(s0)
   13d74:	c058                	sw	a4,4(s0)
   13d76:	bd378793          	addi	a5,a5,-1069 # bd3 <.Lline_table_start1+0x9a8>
   13d7a:	470d                	li	a4,3
   13d7c:	853e                	mv	a0,a5
   13d7e:	00000073          	ecall
   13d82:	4595                	li	a1,5
   13d84:	4711                	li	a4,4
   13d86:	853e                	mv	a0,a5
   13d88:	4601                	li	a2,0
   13d8a:	4681                	li	a3,0
   13d8c:	00000073          	ecall
   13d90:	50b6                	lw	ra,108(sp)
   13d92:	5426                	lw	s0,104(sp)
   13d94:	5496                	lw	s1,100(sp)
   13d96:	6165                	addi	sp,sp,112
   13d98:	8082                	ret
   13d9a:	8526                	mv	a0,s1
   13d9c:	4601                	li	a2,0
   13d9e:	4681                	li	a3,0
   13da0:	458d                	li	a1,3
   13da2:	470d                	li	a4,3
   13da4:	00000073          	ecall
   13da8:	458d                	li	a1,3
   13daa:	470d                	li	a4,3
   13dac:	8526                	mv	a0,s1
   13dae:	4601                	li	a2,0
   13db0:	4681                	li	a3,0
   13db2:	00000073          	ecall
   13db6:	00140513          	addi	a0,s0,1
   13dba:	03d10593          	addi	a1,sp,61
   13dbe:	02700613          	li	a2,39
   13dc2:	00007097          	auipc	ra,0x7
   13dc6:	e54080e7          	jalr	-428(ra) # 1ac16 <memcpy>
   13dca:	8526                	mv	a0,s1
   13dcc:	4601                	li	a2,0
   13dce:	4681                	li	a3,0
   13dd0:	00040023          	sb	zero,0(s0)
   13dd4:	458d                	li	a1,3
   13dd6:	470d                	li	a4,3
   13dd8:	00000073          	ecall
   13ddc:	4595                	li	a1,5
   13dde:	4711                	li	a4,4
   13de0:	8526                	mv	a0,s1
   13de2:	4601                	li	a2,0
   13de4:	4681                	li	a3,0
   13de6:	00000073          	ecall
   13dea:	b75d                	j	13d90 <_ZN18complex_no_dynamic3app17h7982315d8f3f755aE+0xa8>

00013dec <_ZN18complex_no_dynamic3app17h798c4bd2e7ebfc43E>:
   13dec:	7119                	addi	sp,sp,-128
   13dee:	de86                	sw	ra,124(sp)
   13df0:	dca2                	sw	s0,120(sp)
   13df2:	daa6                	sw	s1,116(sp)
   13df4:	842a                	mv	s0,a0
   13df6:	00e10513          	addi	a0,sp,14
   13dfa:	02e00613          	li	a2,46
   13dfe:	00007097          	auipc	ra,0x7
   13e02:	e18080e7          	jalr	-488(ra) # 1ac16 <memcpy>
   13e06:	1868                	addi	a0,sp,60
   13e08:	03800613          	li	a2,56
   13e0c:	4581                	li	a1,0
   13e0e:	00007097          	auipc	ra,0x7
   13e12:	d9c080e7          	jalr	-612(ra) # 1abaa <memset>
   13e16:	6505                	lui	a0,0x1
   13e18:	45a5                	li	a1,9
   13e1a:	00e10613          	addi	a2,sp,14
   13e1e:	02e00693          	li	a3,46
   13e22:	a9d50793          	addi	a5,a0,-1379 # a9d <.Lline_table_start1+0x872>
   13e26:	4711                	li	a4,4
   13e28:	4489                	li	s1,2
   13e2a:	853e                	mv	a0,a5
   13e2c:	00000073          	ecall
   13e30:	02950a63          	beq	a0,s1,13e64 <_ZN18complex_no_dynamic3app17h798c4bd2e7ebfc43E+0x78>
   13e34:	45a5                	li	a1,9
   13e36:	1870                	addi	a2,sp,60
   13e38:	03800693          	li	a3,56
   13e3c:	470d                	li	a4,3
   13e3e:	853e                	mv	a0,a5
   13e40:	00000073          	ecall
   13e44:	02950063          	beq	a0,s1,13e64 <_ZN18complex_no_dynamic3app17h798c4bd2e7ebfc43E+0x78>
   13e48:	6505                	lui	a0,0x1
   13e4a:	45a5                	li	a1,9
   13e4c:	4625                	li	a2,9
   13e4e:	a9d50493          	addi	s1,a0,-1379 # a9d <.Lline_table_start1+0x872>
   13e52:	4709                	li	a4,2
   13e54:	07f00793          	li	a5,127
   13e58:	8526                	mv	a0,s1
   13e5a:	4681                	li	a3,0
   13e5c:	00000073          	ecall
   13e60:	02a7ed63          	bltu	a5,a0,13e9a <_ZN18complex_no_dynamic3app17h798c4bd2e7ebfc43E+0xae>
   13e64:	872e                	mv	a4,a1
   13e66:	4601                	li	a2,0
   13e68:	4681                	li	a3,0
   13e6a:	4505                	li	a0,1
   13e6c:	6785                	lui	a5,0x1
   13e6e:	45a5                	li	a1,9
   13e70:	00a40023          	sb	a0,0(s0)
   13e74:	c058                	sw	a4,4(s0)
   13e76:	a9d78793          	addi	a5,a5,-1379 # a9d <.Lline_table_start1+0x872>
   13e7a:	470d                	li	a4,3
   13e7c:	853e                	mv	a0,a5
   13e7e:	00000073          	ecall
   13e82:	45a5                	li	a1,9
   13e84:	4711                	li	a4,4
   13e86:	853e                	mv	a0,a5
   13e88:	4601                	li	a2,0
   13e8a:	4681                	li	a3,0
   13e8c:	00000073          	ecall
   13e90:	50f6                	lw	ra,124(sp)
   13e92:	5466                	lw	s0,120(sp)
   13e94:	54d6                	lw	s1,116(sp)
   13e96:	6109                	addi	sp,sp,128
   13e98:	8082                	ret
   13e9a:	8526                	mv	a0,s1
   13e9c:	4601                	li	a2,0
   13e9e:	4681                	li	a3,0
   13ea0:	45a5                	li	a1,9
   13ea2:	470d                	li	a4,3
   13ea4:	00000073          	ecall
   13ea8:	45a5                	li	a1,9
   13eaa:	470d                	li	a4,3
   13eac:	8526                	mv	a0,s1
   13eae:	4601                	li	a2,0
   13eb0:	4681                	li	a3,0
   13eb2:	00000073          	ecall
   13eb6:	00140513          	addi	a0,s0,1
   13eba:	186c                	addi	a1,sp,60
   13ebc:	03800613          	li	a2,56
   13ec0:	00007097          	auipc	ra,0x7
   13ec4:	d56080e7          	jalr	-682(ra) # 1ac16 <memcpy>
   13ec8:	8526                	mv	a0,s1
   13eca:	4601                	li	a2,0
   13ecc:	4681                	li	a3,0
   13ece:	00040023          	sb	zero,0(s0)
   13ed2:	45a5                	li	a1,9
   13ed4:	470d                	li	a4,3
   13ed6:	00000073          	ecall
   13eda:	45a5                	li	a1,9
   13edc:	4711                	li	a4,4
   13ede:	8526                	mv	a0,s1
   13ee0:	4601                	li	a2,0
   13ee2:	4681                	li	a3,0
   13ee4:	00000073          	ecall
   13ee8:	b765                	j	13e90 <_ZN18complex_no_dynamic3app17h798c4bd2e7ebfc43E+0xa4>

00013eea <_ZN18complex_no_dynamic3app17h79f352f359a3d433E>:
   13eea:	7139                	addi	sp,sp,-64
   13eec:	de06                	sw	ra,60(sp)
   13eee:	dc22                	sw	s0,56(sp)
   13ef0:	da26                	sw	s1,52(sp)
   13ef2:	d84a                	sw	s2,48(sp)
   13ef4:	892a                	mv	s2,a0
   13ef6:	0085c803          	lbu	a6,8(a1)
   13efa:	0095c603          	lbu	a2,9(a1)
   13efe:	00a5c683          	lbu	a3,10(a1)
   13f02:	00b5c703          	lbu	a4,11(a1)
   13f06:	0045c783          	lbu	a5,4(a1)
   13f0a:	0055c483          	lbu	s1,5(a1)
   13f0e:	0065c403          	lbu	s0,6(a1)
   13f12:	0075c503          	lbu	a0,7(a1)
   13f16:	0622                	slli	a2,a2,0x8
   13f18:	06c2                	slli	a3,a3,0x10
   13f1a:	0762                	slli	a4,a4,0x18
   13f1c:	04a2                	slli	s1,s1,0x8
   13f1e:	0442                	slli	s0,s0,0x10
   13f20:	0562                	slli	a0,a0,0x18
   13f22:	01066833          	or	a6,a2,a6
   13f26:	8ed9                	or	a3,a3,a4
   13f28:	8fc5                	or	a5,a5,s1
   13f2a:	0005c703          	lbu	a4,0(a1)
   13f2e:	0015c483          	lbu	s1,1(a1)
   13f32:	8d41                	or	a0,a0,s0
   13f34:	0025c403          	lbu	s0,2(a1)
   13f38:	0035c603          	lbu	a2,3(a1)
   13f3c:	04a2                	slli	s1,s1,0x8
   13f3e:	8f45                	or	a4,a4,s1
   13f40:	0442                	slli	s0,s0,0x10
   13f42:	0662                	slli	a2,a2,0x18
   13f44:	8e41                	or	a2,a2,s0
   13f46:	0106e6b3          	or	a3,a3,a6
   13f4a:	8d5d                	or	a0,a0,a5
   13f4c:	8e59                	or	a2,a2,a4
   13f4e:	00c5c583          	lbu	a1,12(a1)
   13f52:	c032                	sw	a2,0(sp)
   13f54:	c22a                	sw	a0,4(sp)
   13f56:	c436                	sw	a3,8(sp)
   13f58:	00b10623          	sb	a1,12(sp)
   13f5c:	00f10513          	addi	a0,sp,15
   13f60:	02100613          	li	a2,33
   13f64:	4581                	li	a1,0
   13f66:	00007097          	auipc	ra,0x7
   13f6a:	c44080e7          	jalr	-956(ra) # 1abaa <memset>
   13f6e:	6505                	lui	a0,0x1
   13f70:	860a                	mv	a2,sp
   13f72:	46b5                	li	a3,13
   13f74:	6b050793          	addi	a5,a0,1712 # 16b0 <.Lline_table_start1+0x1485>
   13f78:	4711                	li	a4,4
   13f7a:	4489                	li	s1,2
   13f7c:	853e                	mv	a0,a5
   13f7e:	4581                	li	a1,0
   13f80:	00000073          	ecall
   13f84:	02950b63          	beq	a0,s1,13fba <_ZN18complex_no_dynamic3app17h79f352f359a3d433E+0xd0>
   13f88:	00f10613          	addi	a2,sp,15
   13f8c:	02100693          	li	a3,33
   13f90:	470d                	li	a4,3
   13f92:	853e                	mv	a0,a5
   13f94:	4581                	li	a1,0
   13f96:	00000073          	ecall
   13f9a:	02950063          	beq	a0,s1,13fba <_ZN18complex_no_dynamic3app17h79f352f359a3d433E+0xd0>
   13f9e:	6505                	lui	a0,0x1
   13fa0:	6b050493          	addi	s1,a0,1712 # 16b0 <.Lline_table_start1+0x1485>
   13fa4:	4709                	li	a4,2
   13fa6:	07f00793          	li	a5,127
   13faa:	8526                	mv	a0,s1
   13fac:	4581                	li	a1,0
   13fae:	4601                	li	a2,0
   13fb0:	4681                	li	a3,0
   13fb2:	00000073          	ecall
   13fb6:	02a7ee63          	bltu	a5,a0,13ff2 <_ZN18complex_no_dynamic3app17h79f352f359a3d433E+0x108>
   13fba:	4505                	li	a0,1
   13fbc:	6605                	lui	a2,0x1
   13fbe:	00a90023          	sb	a0,0(s2)
   13fc2:	00b92223          	sw	a1,4(s2)
   13fc6:	6b060793          	addi	a5,a2,1712 # 16b0 <.Lline_table_start1+0x1485>
   13fca:	470d                	li	a4,3
   13fcc:	853e                	mv	a0,a5
   13fce:	4581                	li	a1,0
   13fd0:	4601                	li	a2,0
   13fd2:	4681                	li	a3,0
   13fd4:	00000073          	ecall
   13fd8:	4711                	li	a4,4
   13fda:	853e                	mv	a0,a5
   13fdc:	4581                	li	a1,0
   13fde:	4601                	li	a2,0
   13fe0:	4681                	li	a3,0
   13fe2:	00000073          	ecall
   13fe6:	50f2                	lw	ra,60(sp)
   13fe8:	5462                	lw	s0,56(sp)
   13fea:	54d2                	lw	s1,52(sp)
   13fec:	5942                	lw	s2,48(sp)
   13fee:	6121                	addi	sp,sp,64
   13ff0:	8082                	ret
   13ff2:	470d                	li	a4,3
   13ff4:	8526                	mv	a0,s1
   13ff6:	4581                	li	a1,0
   13ff8:	4601                	li	a2,0
   13ffa:	4681                	li	a3,0
   13ffc:	00000073          	ecall
   14000:	470d                	li	a4,3
   14002:	8526                	mv	a0,s1
   14004:	4581                	li	a1,0
   14006:	4601                	li	a2,0
   14008:	4681                	li	a3,0
   1400a:	00000073          	ecall
   1400e:	00190513          	addi	a0,s2,1
   14012:	00f10593          	addi	a1,sp,15
   14016:	02100613          	li	a2,33
   1401a:	00007097          	auipc	ra,0x7
   1401e:	bfc080e7          	jalr	-1028(ra) # 1ac16 <memcpy>
   14022:	00090023          	sb	zero,0(s2)
   14026:	470d                	li	a4,3
   14028:	8526                	mv	a0,s1
   1402a:	4581                	li	a1,0
   1402c:	4601                	li	a2,0
   1402e:	4681                	li	a3,0
   14030:	00000073          	ecall
   14034:	4711                	li	a4,4
   14036:	8526                	mv	a0,s1
   14038:	4581                	li	a1,0
   1403a:	4601                	li	a2,0
   1403c:	4681                	li	a3,0
   1403e:	00000073          	ecall
   14042:	b755                	j	13fe6 <_ZN18complex_no_dynamic3app17h79f352f359a3d433E+0xfc>

00014044 <_ZN18complex_no_dynamic3app17h7a0339b5c5695392E>:
   14044:	7159                	addi	sp,sp,-112
   14046:	d686                	sw	ra,108(sp)
   14048:	d4a2                	sw	s0,104(sp)
   1404a:	d2a6                	sw	s1,100(sp)
   1404c:	842a                	mv	s0,a0
   1404e:	00910513          	addi	a0,sp,9
   14052:	03f00613          	li	a2,63
   14056:	00007097          	auipc	ra,0x7
   1405a:	bc0080e7          	jalr	-1088(ra) # 1ac16 <memcpy>
   1405e:	00a8                	addi	a0,sp,72
   14060:	4671                	li	a2,28
   14062:	4581                	li	a1,0
   14064:	00007097          	auipc	ra,0x7
   14068:	b46080e7          	jalr	-1210(ra) # 1abaa <memset>
   1406c:	6505                	lui	a0,0x1
   1406e:	4595                	li	a1,5
   14070:	00910613          	addi	a2,sp,9
   14074:	03f00693          	li	a3,63
   14078:	69450793          	addi	a5,a0,1684 # 1694 <.Lline_table_start1+0x1469>
   1407c:	4711                	li	a4,4
   1407e:	4489                	li	s1,2
   14080:	853e                	mv	a0,a5
   14082:	00000073          	ecall
   14086:	02950963          	beq	a0,s1,140b8 <_ZN18complex_no_dynamic3app17h7a0339b5c5695392E+0x74>
   1408a:	45a5                	li	a1,9
   1408c:	00b0                	addi	a2,sp,72
   1408e:	46f1                	li	a3,28
   14090:	470d                	li	a4,3
   14092:	853e                	mv	a0,a5
   14094:	00000073          	ecall
   14098:	02950063          	beq	a0,s1,140b8 <_ZN18complex_no_dynamic3app17h7a0339b5c5695392E+0x74>
   1409c:	6505                	lui	a0,0x1
   1409e:	4595                	li	a1,5
   140a0:	4625                	li	a2,9
   140a2:	69450493          	addi	s1,a0,1684 # 1694 <.Lline_table_start1+0x1469>
   140a6:	4709                	li	a4,2
   140a8:	07f00793          	li	a5,127
   140ac:	8526                	mv	a0,s1
   140ae:	4681                	li	a3,0
   140b0:	00000073          	ecall
   140b4:	02a7ed63          	bltu	a5,a0,140ee <_ZN18complex_no_dynamic3app17h7a0339b5c5695392E+0xaa>
   140b8:	872e                	mv	a4,a1
   140ba:	4601                	li	a2,0
   140bc:	4681                	li	a3,0
   140be:	4505                	li	a0,1
   140c0:	6785                	lui	a5,0x1
   140c2:	45a5                	li	a1,9
   140c4:	00a40023          	sb	a0,0(s0)
   140c8:	c058                	sw	a4,4(s0)
   140ca:	69478793          	addi	a5,a5,1684 # 1694 <.Lline_table_start1+0x1469>
   140ce:	470d                	li	a4,3
   140d0:	853e                	mv	a0,a5
   140d2:	00000073          	ecall
   140d6:	4595                	li	a1,5
   140d8:	4711                	li	a4,4
   140da:	853e                	mv	a0,a5
   140dc:	4601                	li	a2,0
   140de:	4681                	li	a3,0
   140e0:	00000073          	ecall
   140e4:	50b6                	lw	ra,108(sp)
   140e6:	5426                	lw	s0,104(sp)
   140e8:	5496                	lw	s1,100(sp)
   140ea:	6165                	addi	sp,sp,112
   140ec:	8082                	ret
   140ee:	8526                	mv	a0,s1
   140f0:	4601                	li	a2,0
   140f2:	4681                	li	a3,0
   140f4:	45a5                	li	a1,9
   140f6:	470d                	li	a4,3
   140f8:	00000073          	ecall
   140fc:	45a5                	li	a1,9
   140fe:	470d                	li	a4,3
   14100:	8526                	mv	a0,s1
   14102:	4601                	li	a2,0
   14104:	4681                	li	a3,0
   14106:	00000073          	ecall
   1410a:	00140513          	addi	a0,s0,1
   1410e:	00ac                	addi	a1,sp,72
   14110:	4671                	li	a2,28
   14112:	00007097          	auipc	ra,0x7
   14116:	b04080e7          	jalr	-1276(ra) # 1ac16 <memcpy>
   1411a:	8526                	mv	a0,s1
   1411c:	4601                	li	a2,0
   1411e:	4681                	li	a3,0
   14120:	00040023          	sb	zero,0(s0)
   14124:	45a5                	li	a1,9
   14126:	470d                	li	a4,3
   14128:	00000073          	ecall
   1412c:	4595                	li	a1,5
   1412e:	4711                	li	a4,4
   14130:	8526                	mv	a0,s1
   14132:	4601                	li	a2,0
   14134:	4681                	li	a3,0
   14136:	00000073          	ecall
   1413a:	b76d                	j	140e4 <_ZN18complex_no_dynamic3app17h7a0339b5c5695392E+0xa0>

0001413c <_ZN18complex_no_dynamic3app17h7d580489b5e37387E>:
   1413c:	7119                	addi	sp,sp,-128
   1413e:	de86                	sw	ra,124(sp)
   14140:	dca2                	sw	s0,120(sp)
   14142:	842a                	mv	s0,a0
   14144:	00510513          	addi	a0,sp,5
   14148:	02200613          	li	a2,34
   1414c:	00007097          	auipc	ra,0x7
   14150:	aca080e7          	jalr	-1334(ra) # 1ac16 <memcpy>
   14154:	02710513          	addi	a0,sp,39
   14158:	05100613          	li	a2,81
   1415c:	4581                	li	a1,0
   1415e:	00007097          	auipc	ra,0x7
   14162:	a4c080e7          	jalr	-1460(ra) # 1abaa <memset>
   14166:	55e00513          	li	a0,1374
   1416a:	45a5                	li	a1,9
   1416c:	00510613          	addi	a2,sp,5
   14170:	02200693          	li	a3,34
   14174:	4711                	li	a4,4
   14176:	4789                	li	a5,2
   14178:	00000073          	ecall
   1417c:	02f50a63          	beq	a0,a5,141b0 <_ZN18complex_no_dynamic3app17h7d580489b5e37387E+0x74>
   14180:	55e00513          	li	a0,1374
   14184:	45a5                	li	a1,9
   14186:	02710613          	addi	a2,sp,39
   1418a:	05100693          	li	a3,81
   1418e:	470d                	li	a4,3
   14190:	00000073          	ecall
   14194:	00f50e63          	beq	a0,a5,141b0 <_ZN18complex_no_dynamic3app17h7d580489b5e37387E+0x74>
   14198:	55e00513          	li	a0,1374
   1419c:	45a5                	li	a1,9
   1419e:	4625                	li	a2,9
   141a0:	4709                	li	a4,2
   141a2:	07f00793          	li	a5,127
   141a6:	4681                	li	a3,0
   141a8:	00000073          	ecall
   141ac:	02a7ea63          	bltu	a5,a0,141e0 <_ZN18complex_no_dynamic3app17h7d580489b5e37387E+0xa4>
   141b0:	4601                	li	a2,0
   141b2:	4681                	li	a3,0
   141b4:	4705                	li	a4,1
   141b6:	55e00513          	li	a0,1374
   141ba:	00e40023          	sb	a4,0(s0)
   141be:	c04c                	sw	a1,4(s0)
   141c0:	45a5                	li	a1,9
   141c2:	470d                	li	a4,3
   141c4:	00000073          	ecall
   141c8:	55e00513          	li	a0,1374
   141cc:	45a5                	li	a1,9
   141ce:	4711                	li	a4,4
   141d0:	4601                	li	a2,0
   141d2:	4681                	li	a3,0
   141d4:	00000073          	ecall
   141d8:	50f6                	lw	ra,124(sp)
   141da:	5466                	lw	s0,120(sp)
   141dc:	6109                	addi	sp,sp,128
   141de:	8082                	ret
   141e0:	4601                	li	a2,0
   141e2:	4681                	li	a3,0
   141e4:	55e00513          	li	a0,1374
   141e8:	45a5                	li	a1,9
   141ea:	470d                	li	a4,3
   141ec:	00000073          	ecall
   141f0:	55e00513          	li	a0,1374
   141f4:	45a5                	li	a1,9
   141f6:	470d                	li	a4,3
   141f8:	4601                	li	a2,0
   141fa:	4681                	li	a3,0
   141fc:	00000073          	ecall
   14200:	00140513          	addi	a0,s0,1
   14204:	02710593          	addi	a1,sp,39
   14208:	05100613          	li	a2,81
   1420c:	00007097          	auipc	ra,0x7
   14210:	a0a080e7          	jalr	-1526(ra) # 1ac16 <memcpy>
   14214:	4601                	li	a2,0
   14216:	4681                	li	a3,0
   14218:	00040023          	sb	zero,0(s0)
   1421c:	55e00513          	li	a0,1374
   14220:	45a5                	li	a1,9
   14222:	470d                	li	a4,3
   14224:	00000073          	ecall
   14228:	55e00513          	li	a0,1374
   1422c:	45a5                	li	a1,9
   1422e:	4711                	li	a4,4
   14230:	4601                	li	a2,0
   14232:	4681                	li	a3,0
   14234:	00000073          	ecall
   14238:	b745                	j	141d8 <_ZN18complex_no_dynamic3app17h7d580489b5e37387E+0x9c>

0001423a <_ZN18complex_no_dynamic3app17h801ec0681009ab05E>:
   1423a:	7175                	addi	sp,sp,-144
   1423c:	c706                	sw	ra,140(sp)
   1423e:	c522                	sw	s0,136(sp)
   14240:	c326                	sw	s1,132(sp)
   14242:	842a                	mv	s0,a0
   14244:	0068                	addi	a0,sp,12
   14246:	02700613          	li	a2,39
   1424a:	00007097          	auipc	ra,0x7
   1424e:	9cc080e7          	jalr	-1588(ra) # 1ac16 <memcpy>
   14252:	03310513          	addi	a0,sp,51
   14256:	05100613          	li	a2,81
   1425a:	4581                	li	a1,0
   1425c:	00007097          	auipc	ra,0x7
   14260:	94e080e7          	jalr	-1714(ra) # 1abaa <memset>
   14264:	6505                	lui	a0,0x1
   14266:	0070                	addi	a2,sp,12
   14268:	02700693          	li	a3,39
   1426c:	a3650793          	addi	a5,a0,-1482 # a36 <.Lline_table_start1+0x80b>
   14270:	4711                	li	a4,4
   14272:	4489                	li	s1,2
   14274:	853e                	mv	a0,a5
   14276:	4581                	li	a1,0
   14278:	00000073          	ecall
   1427c:	02950b63          	beq	a0,s1,142b2 <_ZN18complex_no_dynamic3app17h801ec0681009ab05E+0x78>
   14280:	4591                	li	a1,4
   14282:	03310613          	addi	a2,sp,51
   14286:	05100693          	li	a3,81
   1428a:	470d                	li	a4,3
   1428c:	853e                	mv	a0,a5
   1428e:	00000073          	ecall
   14292:	02950063          	beq	a0,s1,142b2 <_ZN18complex_no_dynamic3app17h801ec0681009ab05E+0x78>
   14296:	6505                	lui	a0,0x1
   14298:	4611                	li	a2,4
   1429a:	a3650493          	addi	s1,a0,-1482 # a36 <.Lline_table_start1+0x80b>
   1429e:	4709                	li	a4,2
   142a0:	07f00793          	li	a5,127
   142a4:	8526                	mv	a0,s1
   142a6:	4581                	li	a1,0
   142a8:	4681                	li	a3,0
   142aa:	00000073          	ecall
   142ae:	02a7ec63          	bltu	a5,a0,142e6 <_ZN18complex_no_dynamic3app17h801ec0681009ab05E+0xac>
   142b2:	4505                	li	a0,1
   142b4:	6605                	lui	a2,0x1
   142b6:	00a40023          	sb	a0,0(s0)
   142ba:	c04c                	sw	a1,4(s0)
   142bc:	a3660793          	addi	a5,a2,-1482 # a36 <.Lline_table_start1+0x80b>
   142c0:	4591                	li	a1,4
   142c2:	470d                	li	a4,3
   142c4:	853e                	mv	a0,a5
   142c6:	4601                	li	a2,0
   142c8:	4681                	li	a3,0
   142ca:	00000073          	ecall
   142ce:	4711                	li	a4,4
   142d0:	853e                	mv	a0,a5
   142d2:	4581                	li	a1,0
   142d4:	4601                	li	a2,0
   142d6:	4681                	li	a3,0
   142d8:	00000073          	ecall
   142dc:	40ba                	lw	ra,140(sp)
   142de:	442a                	lw	s0,136(sp)
   142e0:	449a                	lw	s1,132(sp)
   142e2:	6149                	addi	sp,sp,144
   142e4:	8082                	ret
   142e6:	8526                	mv	a0,s1
   142e8:	4601                	li	a2,0
   142ea:	4681                	li	a3,0
   142ec:	4591                	li	a1,4
   142ee:	470d                	li	a4,3
   142f0:	00000073          	ecall
   142f4:	4591                	li	a1,4
   142f6:	470d                	li	a4,3
   142f8:	8526                	mv	a0,s1
   142fa:	4601                	li	a2,0
   142fc:	4681                	li	a3,0
   142fe:	00000073          	ecall
   14302:	00140513          	addi	a0,s0,1
   14306:	03310593          	addi	a1,sp,51
   1430a:	05100613          	li	a2,81
   1430e:	00007097          	auipc	ra,0x7
   14312:	908080e7          	jalr	-1784(ra) # 1ac16 <memcpy>
   14316:	00040023          	sb	zero,0(s0)
   1431a:	4591                	li	a1,4
   1431c:	470d                	li	a4,3
   1431e:	8526                	mv	a0,s1
   14320:	4601                	li	a2,0
   14322:	4681                	li	a3,0
   14324:	00000073          	ecall
   14328:	4711                	li	a4,4
   1432a:	8526                	mv	a0,s1
   1432c:	4581                	li	a1,0
   1432e:	4601                	li	a2,0
   14330:	4681                	li	a3,0
   14332:	00000073          	ecall
   14336:	b75d                	j	142dc <_ZN18complex_no_dynamic3app17h801ec0681009ab05E+0xa2>

00014338 <_ZN18complex_no_dynamic3app17h80fe7be5313e2e58E>:
   14338:	711d                	addi	sp,sp,-96
   1433a:	ce86                	sw	ra,92(sp)
   1433c:	cca2                	sw	s0,88(sp)
   1433e:	caa6                	sw	s1,84(sp)
   14340:	c8ca                	sw	s2,80(sp)
   14342:	892a                	mv	s2,a0
   14344:	00c5c803          	lbu	a6,12(a1)
   14348:	00d5c603          	lbu	a2,13(a1)
   1434c:	00e5c683          	lbu	a3,14(a1)
   14350:	00f5c703          	lbu	a4,15(a1)
   14354:	0085c783          	lbu	a5,8(a1)
   14358:	0095c483          	lbu	s1,9(a1)
   1435c:	00a5c403          	lbu	s0,10(a1)
   14360:	00b5c503          	lbu	a0,11(a1)
   14364:	0622                	slli	a2,a2,0x8
   14366:	06c2                	slli	a3,a3,0x10
   14368:	0762                	slli	a4,a4,0x18
   1436a:	04a2                	slli	s1,s1,0x8
   1436c:	01066833          	or	a6,a2,a6
   14370:	00d768b3          	or	a7,a4,a3
   14374:	8fc5                	or	a5,a5,s1
   14376:	0045c703          	lbu	a4,4(a1)
   1437a:	0055c483          	lbu	s1,5(a1)
   1437e:	0065c603          	lbu	a2,6(a1)
   14382:	0075c683          	lbu	a3,7(a1)
   14386:	0442                	slli	s0,s0,0x10
   14388:	0562                	slli	a0,a0,0x18
   1438a:	04a2                	slli	s1,s1,0x8
   1438c:	0642                	slli	a2,a2,0x10
   1438e:	06e2                	slli	a3,a3,0x18
   14390:	8d41                	or	a0,a0,s0
   14392:	8f45                	or	a4,a4,s1
   14394:	0005c483          	lbu	s1,0(a1)
   14398:	0015c403          	lbu	s0,1(a1)
   1439c:	8e55                	or	a2,a2,a3
   1439e:	0025c683          	lbu	a3,2(a1)
   143a2:	0035c583          	lbu	a1,3(a1)
   143a6:	0422                	slli	s0,s0,0x8
   143a8:	8c45                	or	s0,s0,s1
   143aa:	06c2                	slli	a3,a3,0x10
   143ac:	05e2                	slli	a1,a1,0x18
   143ae:	8dd5                	or	a1,a1,a3
   143b0:	0108e6b3          	or	a3,a7,a6
   143b4:	8d5d                	or	a0,a0,a5
   143b6:	8e59                	or	a2,a2,a4
   143b8:	8dc1                	or	a1,a1,s0
   143ba:	c42e                	sw	a1,8(sp)
   143bc:	c632                	sw	a2,12(sp)
   143be:	c82a                	sw	a0,16(sp)
   143c0:	ca36                	sw	a3,20(sp)
   143c2:	01a10513          	addi	a0,sp,26
   143c6:	03600613          	li	a2,54
   143ca:	4581                	li	a1,0
   143cc:	00006097          	auipc	ra,0x6
   143d0:	7de080e7          	jalr	2014(ra) # 1abaa <memset>
   143d4:	6509                	lui	a0,0x2
   143d6:	4585                	li	a1,1
   143d8:	0030                	addi	a2,sp,8
   143da:	46c1                	li	a3,16
   143dc:	98950793          	addi	a5,a0,-1655 # 1989 <.Lline_table_start1+0x175e>
   143e0:	4711                	li	a4,4
   143e2:	4489                	li	s1,2
   143e4:	853e                	mv	a0,a5
   143e6:	00000073          	ecall
   143ea:	02950b63          	beq	a0,s1,14420 <_ZN18complex_no_dynamic3app17h80fe7be5313e2e58E+0xe8>
   143ee:	459d                	li	a1,7
   143f0:	01a10613          	addi	a2,sp,26
   143f4:	03600693          	li	a3,54
   143f8:	470d                	li	a4,3
   143fa:	853e                	mv	a0,a5
   143fc:	00000073          	ecall
   14400:	02950063          	beq	a0,s1,14420 <_ZN18complex_no_dynamic3app17h80fe7be5313e2e58E+0xe8>
   14404:	6509                	lui	a0,0x2
   14406:	4585                	li	a1,1
   14408:	461d                	li	a2,7
   1440a:	98950493          	addi	s1,a0,-1655 # 1989 <.Lline_table_start1+0x175e>
   1440e:	4709                	li	a4,2
   14410:	07f00793          	li	a5,127
   14414:	8526                	mv	a0,s1
   14416:	4681                	li	a3,0
   14418:	00000073          	ecall
   1441c:	02a7ef63          	bltu	a5,a0,1445a <_ZN18complex_no_dynamic3app17h80fe7be5313e2e58E+0x122>
   14420:	872e                	mv	a4,a1
   14422:	4601                	li	a2,0
   14424:	4681                	li	a3,0
   14426:	4505                	li	a0,1
   14428:	6789                	lui	a5,0x2
   1442a:	459d                	li	a1,7
   1442c:	00a90023          	sb	a0,0(s2)
   14430:	00e92223          	sw	a4,4(s2)
   14434:	98978793          	addi	a5,a5,-1655 # 1989 <.Lline_table_start1+0x175e>
   14438:	470d                	li	a4,3
   1443a:	853e                	mv	a0,a5
   1443c:	00000073          	ecall
   14440:	4585                	li	a1,1
   14442:	4711                	li	a4,4
   14444:	853e                	mv	a0,a5
   14446:	4601                	li	a2,0
   14448:	4681                	li	a3,0
   1444a:	00000073          	ecall
   1444e:	40f6                	lw	ra,92(sp)
   14450:	4466                	lw	s0,88(sp)
   14452:	44d6                	lw	s1,84(sp)
   14454:	4946                	lw	s2,80(sp)
   14456:	6125                	addi	sp,sp,96
   14458:	8082                	ret
   1445a:	8526                	mv	a0,s1
   1445c:	4601                	li	a2,0
   1445e:	4681                	li	a3,0
   14460:	459d                	li	a1,7
   14462:	470d                	li	a4,3
   14464:	00000073          	ecall
   14468:	459d                	li	a1,7
   1446a:	470d                	li	a4,3
   1446c:	8526                	mv	a0,s1
   1446e:	4601                	li	a2,0
   14470:	4681                	li	a3,0
   14472:	00000073          	ecall
   14476:	00190513          	addi	a0,s2,1
   1447a:	01a10593          	addi	a1,sp,26
   1447e:	03600613          	li	a2,54
   14482:	00006097          	auipc	ra,0x6
   14486:	794080e7          	jalr	1940(ra) # 1ac16 <memcpy>
   1448a:	8526                	mv	a0,s1
   1448c:	4601                	li	a2,0
   1448e:	4681                	li	a3,0
   14490:	00090023          	sb	zero,0(s2)
   14494:	459d                	li	a1,7
   14496:	470d                	li	a4,3
   14498:	00000073          	ecall
   1449c:	4585                	li	a1,1
   1449e:	4711                	li	a4,4
   144a0:	8526                	mv	a0,s1
   144a2:	4601                	li	a2,0
   144a4:	4681                	li	a3,0
   144a6:	00000073          	ecall
   144aa:	b755                	j	1444e <_ZN18complex_no_dynamic3app17h80fe7be5313e2e58E+0x116>

000144ac <_ZN18complex_no_dynamic3app17h83afe3e7cf75d802E>:
   144ac:	7135                	addi	sp,sp,-160
   144ae:	cf06                	sw	ra,156(sp)
   144b0:	cd22                	sw	s0,152(sp)
   144b2:	cb26                	sw	s1,148(sp)
   144b4:	842a                	mv	s0,a0
   144b6:	00d10513          	addi	a0,sp,13
   144ba:	05500613          	li	a2,85
   144be:	00006097          	auipc	ra,0x6
   144c2:	758080e7          	jalr	1880(ra) # 1ac16 <memcpy>
   144c6:	06210513          	addi	a0,sp,98
   144ca:	03200613          	li	a2,50
   144ce:	4581                	li	a1,0
   144d0:	00006097          	auipc	ra,0x6
   144d4:	6da080e7          	jalr	1754(ra) # 1abaa <memset>
   144d8:	6509                	lui	a0,0x2
   144da:	45a1                	li	a1,8
   144dc:	00d10613          	addi	a2,sp,13
   144e0:	05500693          	li	a3,85
   144e4:	09550793          	addi	a5,a0,149 # 2095 <.Lline_table_start1+0x1e6a>
   144e8:	4711                	li	a4,4
   144ea:	4489                	li	s1,2
   144ec:	853e                	mv	a0,a5
   144ee:	00000073          	ecall
   144f2:	02950b63          	beq	a0,s1,14528 <_ZN18complex_no_dynamic3app17h83afe3e7cf75d802E+0x7c>
   144f6:	45a1                	li	a1,8
   144f8:	06210613          	addi	a2,sp,98
   144fc:	03200693          	li	a3,50
   14500:	470d                	li	a4,3
   14502:	853e                	mv	a0,a5
   14504:	00000073          	ecall
   14508:	02950063          	beq	a0,s1,14528 <_ZN18complex_no_dynamic3app17h83afe3e7cf75d802E+0x7c>
   1450c:	6509                	lui	a0,0x2
   1450e:	45a1                	li	a1,8
   14510:	4621                	li	a2,8
   14512:	09550493          	addi	s1,a0,149 # 2095 <.Lline_table_start1+0x1e6a>
   14516:	4709                	li	a4,2
   14518:	07f00793          	li	a5,127
   1451c:	8526                	mv	a0,s1
   1451e:	4681                	li	a3,0
   14520:	00000073          	ecall
   14524:	02a7ed63          	bltu	a5,a0,1455e <_ZN18complex_no_dynamic3app17h83afe3e7cf75d802E+0xb2>
   14528:	872e                	mv	a4,a1
   1452a:	4601                	li	a2,0
   1452c:	4681                	li	a3,0
   1452e:	4505                	li	a0,1
   14530:	6789                	lui	a5,0x2
   14532:	45a1                	li	a1,8
   14534:	00a40023          	sb	a0,0(s0)
   14538:	c058                	sw	a4,4(s0)
   1453a:	09578793          	addi	a5,a5,149 # 2095 <.Lline_table_start1+0x1e6a>
   1453e:	470d                	li	a4,3
   14540:	853e                	mv	a0,a5
   14542:	00000073          	ecall
   14546:	45a1                	li	a1,8
   14548:	4711                	li	a4,4
   1454a:	853e                	mv	a0,a5
   1454c:	4601                	li	a2,0
   1454e:	4681                	li	a3,0
   14550:	00000073          	ecall
   14554:	40fa                	lw	ra,156(sp)
   14556:	446a                	lw	s0,152(sp)
   14558:	44da                	lw	s1,148(sp)
   1455a:	610d                	addi	sp,sp,160
   1455c:	8082                	ret
   1455e:	8526                	mv	a0,s1
   14560:	4601                	li	a2,0
   14562:	4681                	li	a3,0
   14564:	45a1                	li	a1,8
   14566:	470d                	li	a4,3
   14568:	00000073          	ecall
   1456c:	45a1                	li	a1,8
   1456e:	470d                	li	a4,3
   14570:	8526                	mv	a0,s1
   14572:	4601                	li	a2,0
   14574:	4681                	li	a3,0
   14576:	00000073          	ecall
   1457a:	00140513          	addi	a0,s0,1
   1457e:	06210593          	addi	a1,sp,98
   14582:	03200613          	li	a2,50
   14586:	00006097          	auipc	ra,0x6
   1458a:	690080e7          	jalr	1680(ra) # 1ac16 <memcpy>
   1458e:	8526                	mv	a0,s1
   14590:	4601                	li	a2,0
   14592:	4681                	li	a3,0
   14594:	00040023          	sb	zero,0(s0)
   14598:	45a1                	li	a1,8
   1459a:	470d                	li	a4,3
   1459c:	00000073          	ecall
   145a0:	45a1                	li	a1,8
   145a2:	4711                	li	a4,4
   145a4:	8526                	mv	a0,s1
   145a6:	4601                	li	a2,0
   145a8:	4681                	li	a3,0
   145aa:	00000073          	ecall
   145ae:	b75d                	j	14554 <_ZN18complex_no_dynamic3app17h83afe3e7cf75d802E+0xa8>

000145b0 <_ZN18complex_no_dynamic3app17h886b3e88a48ea7e9E>:
   145b0:	7175                	addi	sp,sp,-144
   145b2:	c706                	sw	ra,140(sp)
   145b4:	c522                	sw	s0,136(sp)
   145b6:	c326                	sw	s1,132(sp)
   145b8:	842a                	mv	s0,a0
   145ba:	00610513          	addi	a0,sp,6
   145be:	466d                	li	a2,27
   145c0:	00006097          	auipc	ra,0x6
   145c4:	656080e7          	jalr	1622(ra) # 1ac16 <memcpy>
   145c8:	02110513          	addi	a0,sp,33
   145cc:	06300613          	li	a2,99
   145d0:	4581                	li	a1,0
   145d2:	00006097          	auipc	ra,0x6
   145d6:	5d8080e7          	jalr	1496(ra) # 1abaa <memset>
   145da:	6509                	lui	a0,0x2
   145dc:	458d                	li	a1,3
   145de:	00610613          	addi	a2,sp,6
   145e2:	46ed                	li	a3,27
   145e4:	54850793          	addi	a5,a0,1352 # 2548 <.Lline_table_start1+0x231d>
   145e8:	4711                	li	a4,4
   145ea:	4489                	li	s1,2
   145ec:	853e                	mv	a0,a5
   145ee:	00000073          	ecall
   145f2:	02950b63          	beq	a0,s1,14628 <_ZN18complex_no_dynamic3app17h886b3e88a48ea7e9E+0x78>
   145f6:	458d                	li	a1,3
   145f8:	02110613          	addi	a2,sp,33
   145fc:	06300693          	li	a3,99
   14600:	470d                	li	a4,3
   14602:	853e                	mv	a0,a5
   14604:	00000073          	ecall
   14608:	02950063          	beq	a0,s1,14628 <_ZN18complex_no_dynamic3app17h886b3e88a48ea7e9E+0x78>
   1460c:	6509                	lui	a0,0x2
   1460e:	458d                	li	a1,3
   14610:	460d                	li	a2,3
   14612:	54850493          	addi	s1,a0,1352 # 2548 <.Lline_table_start1+0x231d>
   14616:	4709                	li	a4,2
   14618:	07f00793          	li	a5,127
   1461c:	8526                	mv	a0,s1
   1461e:	4681                	li	a3,0
   14620:	00000073          	ecall
   14624:	02a7ed63          	bltu	a5,a0,1465e <_ZN18complex_no_dynamic3app17h886b3e88a48ea7e9E+0xae>
   14628:	872e                	mv	a4,a1
   1462a:	4601                	li	a2,0
   1462c:	4681                	li	a3,0
   1462e:	4505                	li	a0,1
   14630:	6789                	lui	a5,0x2
   14632:	458d                	li	a1,3
   14634:	00a40023          	sb	a0,0(s0)
   14638:	c058                	sw	a4,4(s0)
   1463a:	54878793          	addi	a5,a5,1352 # 2548 <.Lline_table_start1+0x231d>
   1463e:	470d                	li	a4,3
   14640:	853e                	mv	a0,a5
   14642:	00000073          	ecall
   14646:	458d                	li	a1,3
   14648:	4711                	li	a4,4
   1464a:	853e                	mv	a0,a5
   1464c:	4601                	li	a2,0
   1464e:	4681                	li	a3,0
   14650:	00000073          	ecall
   14654:	40ba                	lw	ra,140(sp)
   14656:	442a                	lw	s0,136(sp)
   14658:	449a                	lw	s1,132(sp)
   1465a:	6149                	addi	sp,sp,144
   1465c:	8082                	ret
   1465e:	8526                	mv	a0,s1
   14660:	4601                	li	a2,0
   14662:	4681                	li	a3,0
   14664:	458d                	li	a1,3
   14666:	470d                	li	a4,3
   14668:	00000073          	ecall
   1466c:	458d                	li	a1,3
   1466e:	470d                	li	a4,3
   14670:	8526                	mv	a0,s1
   14672:	4601                	li	a2,0
   14674:	4681                	li	a3,0
   14676:	00000073          	ecall
   1467a:	00140513          	addi	a0,s0,1
   1467e:	02110593          	addi	a1,sp,33
   14682:	06300613          	li	a2,99
   14686:	00006097          	auipc	ra,0x6
   1468a:	590080e7          	jalr	1424(ra) # 1ac16 <memcpy>
   1468e:	8526                	mv	a0,s1
   14690:	4601                	li	a2,0
   14692:	4681                	li	a3,0
   14694:	00040023          	sb	zero,0(s0)
   14698:	458d                	li	a1,3
   1469a:	470d                	li	a4,3
   1469c:	00000073          	ecall
   146a0:	458d                	li	a1,3
   146a2:	4711                	li	a4,4
   146a4:	8526                	mv	a0,s1
   146a6:	4601                	li	a2,0
   146a8:	4681                	li	a3,0
   146aa:	00000073          	ecall
   146ae:	b75d                	j	14654 <_ZN18complex_no_dynamic3app17h886b3e88a48ea7e9E+0xa4>

000146b0 <_ZN18complex_no_dynamic3app17h8a8f4abd19b86ea6E>:
   146b0:	715d                	addi	sp,sp,-80
   146b2:	c686                	sw	ra,76(sp)
   146b4:	c4a2                	sw	s0,72(sp)
   146b6:	c2a6                	sw	s1,68(sp)
   146b8:	842a                	mv	s0,a0
   146ba:	00910513          	addi	a0,sp,9
   146be:	02b00613          	li	a2,43
   146c2:	00006097          	auipc	ra,0x6
   146c6:	554080e7          	jalr	1364(ra) # 1ac16 <memcpy>
   146ca:	da02                	sw	zero,52(sp)
   146cc:	dc02                	sw	zero,56(sp)
   146ce:	de02                	sw	zero,60(sp)
   146d0:	04010023          	sb	zero,64(sp)
   146d4:	6505                	lui	a0,0x1
   146d6:	4599                	li	a1,6
   146d8:	00910613          	addi	a2,sp,9
   146dc:	02b00693          	li	a3,43
   146e0:	46550793          	addi	a5,a0,1125 # 1465 <.Lline_table_start1+0x123a>
   146e4:	4711                	li	a4,4
   146e6:	4489                	li	s1,2
   146e8:	853e                	mv	a0,a5
   146ea:	00000073          	ecall
   146ee:	02950963          	beq	a0,s1,14720 <_ZN18complex_no_dynamic3app17h8a8f4abd19b86ea6E+0x70>
   146f2:	1850                	addi	a2,sp,52
   146f4:	46b5                	li	a3,13
   146f6:	470d                	li	a4,3
   146f8:	853e                	mv	a0,a5
   146fa:	4581                	li	a1,0
   146fc:	00000073          	ecall
   14700:	02950063          	beq	a0,s1,14720 <_ZN18complex_no_dynamic3app17h8a8f4abd19b86ea6E+0x70>
   14704:	6505                	lui	a0,0x1
   14706:	4599                	li	a1,6
   14708:	46550493          	addi	s1,a0,1125 # 1465 <.Lline_table_start1+0x123a>
   1470c:	4709                	li	a4,2
   1470e:	07f00793          	li	a5,127
   14712:	8526                	mv	a0,s1
   14714:	4601                	li	a2,0
   14716:	4681                	li	a3,0
   14718:	00000073          	ecall
   1471c:	02a7ed63          	bltu	a5,a0,14756 <_ZN18complex_no_dynamic3app17h8a8f4abd19b86ea6E+0xa6>
   14720:	872e                	mv	a4,a1
   14722:	4581                	li	a1,0
   14724:	4601                	li	a2,0
   14726:	4681                	li	a3,0
   14728:	4505                	li	a0,1
   1472a:	6785                	lui	a5,0x1
   1472c:	00a40023          	sb	a0,0(s0)
   14730:	c058                	sw	a4,4(s0)
   14732:	46578793          	addi	a5,a5,1125 # 1465 <.Lline_table_start1+0x123a>
   14736:	470d                	li	a4,3
   14738:	853e                	mv	a0,a5
   1473a:	00000073          	ecall
   1473e:	4599                	li	a1,6
   14740:	4711                	li	a4,4
   14742:	853e                	mv	a0,a5
   14744:	4601                	li	a2,0
   14746:	4681                	li	a3,0
   14748:	00000073          	ecall
   1474c:	40b6                	lw	ra,76(sp)
   1474e:	4426                	lw	s0,72(sp)
   14750:	4496                	lw	s1,68(sp)
   14752:	6161                	addi	sp,sp,80
   14754:	8082                	ret
   14756:	470d                	li	a4,3
   14758:	8526                	mv	a0,s1
   1475a:	4581                	li	a1,0
   1475c:	4601                	li	a2,0
   1475e:	4681                	li	a3,0
   14760:	00000073          	ecall
   14764:	470d                	li	a4,3
   14766:	8526                	mv	a0,s1
   14768:	4581                	li	a1,0
   1476a:	4601                	li	a2,0
   1476c:	4681                	li	a3,0
   1476e:	00000073          	ecall
   14772:	00140513          	addi	a0,s0,1
   14776:	184c                	addi	a1,sp,52
   14778:	4635                	li	a2,13
   1477a:	00006097          	auipc	ra,0x6
   1477e:	49c080e7          	jalr	1180(ra) # 1ac16 <memcpy>
   14782:	8526                	mv	a0,s1
   14784:	4581                	li	a1,0
   14786:	4601                	li	a2,0
   14788:	4681                	li	a3,0
   1478a:	00040023          	sb	zero,0(s0)
   1478e:	470d                	li	a4,3
   14790:	00000073          	ecall
   14794:	4599                	li	a1,6
   14796:	4711                	li	a4,4
   14798:	8526                	mv	a0,s1
   1479a:	4601                	li	a2,0
   1479c:	4681                	li	a3,0
   1479e:	00000073          	ecall
   147a2:	b76d                	j	1474c <_ZN18complex_no_dynamic3app17h8a8f4abd19b86ea6E+0x9c>

000147a4 <_ZN18complex_no_dynamic3app17h8aa025b3420b5554E>:
   147a4:	7159                	addi	sp,sp,-112
   147a6:	d686                	sw	ra,108(sp)
   147a8:	d4a2                	sw	s0,104(sp)
   147aa:	d2a6                	sw	s1,100(sp)
   147ac:	d0ca                	sw	s2,96(sp)
   147ae:	892a                	mv	s2,a0
   147b0:	00c5c503          	lbu	a0,12(a1)
   147b4:	00d5c603          	lbu	a2,13(a1)
   147b8:	0085c683          	lbu	a3,8(a1)
   147bc:	0095c703          	lbu	a4,9(a1)
   147c0:	00a5c783          	lbu	a5,10(a1)
   147c4:	00b5c483          	lbu	s1,11(a1)
   147c8:	0622                	slli	a2,a2,0x8
   147ca:	0722                	slli	a4,a4,0x8
   147cc:	00a66833          	or	a6,a2,a0
   147d0:	8ed9                	or	a3,a3,a4
   147d2:	0045c603          	lbu	a2,4(a1)
   147d6:	0055c703          	lbu	a4,5(a1)
   147da:	0065c403          	lbu	s0,6(a1)
   147de:	0075c503          	lbu	a0,7(a1)
   147e2:	07c2                	slli	a5,a5,0x10
   147e4:	04e2                	slli	s1,s1,0x18
   147e6:	0722                	slli	a4,a4,0x8
   147e8:	0442                	slli	s0,s0,0x10
   147ea:	0562                	slli	a0,a0,0x18
   147ec:	8fc5                	or	a5,a5,s1
   147ee:	8e59                	or	a2,a2,a4
   147f0:	0005c703          	lbu	a4,0(a1)
   147f4:	0015c483          	lbu	s1,1(a1)
   147f8:	8d41                	or	a0,a0,s0
   147fa:	0025c403          	lbu	s0,2(a1)
   147fe:	0035c583          	lbu	a1,3(a1)
   14802:	04a2                	slli	s1,s1,0x8
   14804:	8f45                	or	a4,a4,s1
   14806:	0442                	slli	s0,s0,0x10
   14808:	05e2                	slli	a1,a1,0x18
   1480a:	8dc1                	or	a1,a1,s0
   1480c:	8edd                	or	a3,a3,a5
   1480e:	8d51                	or	a0,a0,a2
   14810:	8dd9                	or	a1,a1,a4
   14812:	c42e                	sw	a1,8(sp)
   14814:	c62a                	sw	a0,12(sp)
   14816:	c836                	sw	a3,16(sp)
   14818:	01011a23          	sh	a6,20(sp)
   1481c:	0828                	addi	a0,sp,24
   1481e:	04800613          	li	a2,72
   14822:	4581                	li	a1,0
   14824:	00006097          	auipc	ra,0x6
   14828:	386080e7          	jalr	902(ra) # 1abaa <memset>
   1482c:	6505                	lui	a0,0x1
   1482e:	458d                	li	a1,3
   14830:	0030                	addi	a2,sp,8
   14832:	46b9                	li	a3,14
   14834:	2d150793          	addi	a5,a0,721 # 12d1 <.Lline_table_start1+0x10a6>
   14838:	4711                	li	a4,4
   1483a:	4489                	li	s1,2
   1483c:	853e                	mv	a0,a5
   1483e:	00000073          	ecall
   14842:	02950a63          	beq	a0,s1,14876 <_ZN18complex_no_dynamic3app17h8aa025b3420b5554E+0xd2>
   14846:	45a1                	li	a1,8
   14848:	0830                	addi	a2,sp,24
   1484a:	04800693          	li	a3,72
   1484e:	470d                	li	a4,3
   14850:	853e                	mv	a0,a5
   14852:	00000073          	ecall
   14856:	02950063          	beq	a0,s1,14876 <_ZN18complex_no_dynamic3app17h8aa025b3420b5554E+0xd2>
   1485a:	6505                	lui	a0,0x1
   1485c:	458d                	li	a1,3
   1485e:	4621                	li	a2,8
   14860:	2d150493          	addi	s1,a0,721 # 12d1 <.Lline_table_start1+0x10a6>
   14864:	4709                	li	a4,2
   14866:	07f00793          	li	a5,127
   1486a:	8526                	mv	a0,s1
   1486c:	4681                	li	a3,0
   1486e:	00000073          	ecall
   14872:	02a7ef63          	bltu	a5,a0,148b0 <_ZN18complex_no_dynamic3app17h8aa025b3420b5554E+0x10c>
   14876:	872e                	mv	a4,a1
   14878:	4601                	li	a2,0
   1487a:	4681                	li	a3,0
   1487c:	4505                	li	a0,1
   1487e:	6785                	lui	a5,0x1
   14880:	45a1                	li	a1,8
   14882:	00a90023          	sb	a0,0(s2)
   14886:	00e92223          	sw	a4,4(s2)
   1488a:	2d178793          	addi	a5,a5,721 # 12d1 <.Lline_table_start1+0x10a6>
   1488e:	470d                	li	a4,3
   14890:	853e                	mv	a0,a5
   14892:	00000073          	ecall
   14896:	458d                	li	a1,3
   14898:	4711                	li	a4,4
   1489a:	853e                	mv	a0,a5
   1489c:	4601                	li	a2,0
   1489e:	4681                	li	a3,0
   148a0:	00000073          	ecall
   148a4:	50b6                	lw	ra,108(sp)
   148a6:	5426                	lw	s0,104(sp)
   148a8:	5496                	lw	s1,100(sp)
   148aa:	5906                	lw	s2,96(sp)
   148ac:	6165                	addi	sp,sp,112
   148ae:	8082                	ret
   148b0:	8526                	mv	a0,s1
   148b2:	4601                	li	a2,0
   148b4:	4681                	li	a3,0
   148b6:	45a1                	li	a1,8
   148b8:	470d                	li	a4,3
   148ba:	00000073          	ecall
   148be:	45a1                	li	a1,8
   148c0:	470d                	li	a4,3
   148c2:	8526                	mv	a0,s1
   148c4:	4601                	li	a2,0
   148c6:	4681                	li	a3,0
   148c8:	00000073          	ecall
   148cc:	00190513          	addi	a0,s2,1
   148d0:	082c                	addi	a1,sp,24
   148d2:	04800613          	li	a2,72
   148d6:	00006097          	auipc	ra,0x6
   148da:	340080e7          	jalr	832(ra) # 1ac16 <memcpy>
   148de:	8526                	mv	a0,s1
   148e0:	4601                	li	a2,0
   148e2:	4681                	li	a3,0
   148e4:	00090023          	sb	zero,0(s2)
   148e8:	45a1                	li	a1,8
   148ea:	470d                	li	a4,3
   148ec:	00000073          	ecall
   148f0:	458d                	li	a1,3
   148f2:	4711                	li	a4,4
   148f4:	8526                	mv	a0,s1
   148f6:	4601                	li	a2,0
   148f8:	4681                	li	a3,0
   148fa:	00000073          	ecall
   148fe:	b75d                	j	148a4 <_ZN18complex_no_dynamic3app17h8aa025b3420b5554E+0x100>

00014900 <_ZN18complex_no_dynamic3app17h8df8bce76a6dfb53E>:
   14900:	7119                	addi	sp,sp,-128
   14902:	de86                	sw	ra,124(sp)
   14904:	dca2                	sw	s0,120(sp)
   14906:	842a                	mv	s0,a0
   14908:	0068                	addi	a0,sp,12
   1490a:	03800613          	li	a2,56
   1490e:	00006097          	auipc	ra,0x6
   14912:	308080e7          	jalr	776(ra) # 1ac16 <memcpy>
   14916:	00c8                	addi	a0,sp,68
   14918:	03400613          	li	a2,52
   1491c:	4581                	li	a1,0
   1491e:	00006097          	auipc	ra,0x6
   14922:	28c080e7          	jalr	652(ra) # 1abaa <memset>
   14926:	12e00513          	li	a0,302
   1492a:	45a1                	li	a1,8
   1492c:	0070                	addi	a2,sp,12
   1492e:	03800693          	li	a3,56
   14932:	4711                	li	a4,4
   14934:	4789                	li	a5,2
   14936:	00000073          	ecall
   1493a:	02f50963          	beq	a0,a5,1496c <_ZN18complex_no_dynamic3app17h8df8bce76a6dfb53E+0x6c>
   1493e:	12e00513          	li	a0,302
   14942:	458d                	li	a1,3
   14944:	00d0                	addi	a2,sp,68
   14946:	03400693          	li	a3,52
   1494a:	470d                	li	a4,3
   1494c:	00000073          	ecall
   14950:	00f50e63          	beq	a0,a5,1496c <_ZN18complex_no_dynamic3app17h8df8bce76a6dfb53E+0x6c>
   14954:	12e00513          	li	a0,302
   14958:	45a1                	li	a1,8
   1495a:	460d                	li	a2,3
   1495c:	4709                	li	a4,2
   1495e:	07f00793          	li	a5,127
   14962:	4681                	li	a3,0
   14964:	00000073          	ecall
   14968:	02a7ea63          	bltu	a5,a0,1499c <_ZN18complex_no_dynamic3app17h8df8bce76a6dfb53E+0x9c>
   1496c:	4601                	li	a2,0
   1496e:	4681                	li	a3,0
   14970:	4705                	li	a4,1
   14972:	12e00513          	li	a0,302
   14976:	00e40023          	sb	a4,0(s0)
   1497a:	c04c                	sw	a1,4(s0)
   1497c:	458d                	li	a1,3
   1497e:	470d                	li	a4,3
   14980:	00000073          	ecall
   14984:	12e00513          	li	a0,302
   14988:	45a1                	li	a1,8
   1498a:	4711                	li	a4,4
   1498c:	4601                	li	a2,0
   1498e:	4681                	li	a3,0
   14990:	00000073          	ecall
   14994:	50f6                	lw	ra,124(sp)
   14996:	5466                	lw	s0,120(sp)
   14998:	6109                	addi	sp,sp,128
   1499a:	8082                	ret
   1499c:	4601                	li	a2,0
   1499e:	4681                	li	a3,0
   149a0:	12e00513          	li	a0,302
   149a4:	458d                	li	a1,3
   149a6:	470d                	li	a4,3
   149a8:	00000073          	ecall
   149ac:	12e00513          	li	a0,302
   149b0:	458d                	li	a1,3
   149b2:	470d                	li	a4,3
   149b4:	4601                	li	a2,0
   149b6:	4681                	li	a3,0
   149b8:	00000073          	ecall
   149bc:	00140513          	addi	a0,s0,1
   149c0:	00cc                	addi	a1,sp,68
   149c2:	03400613          	li	a2,52
   149c6:	00006097          	auipc	ra,0x6
   149ca:	250080e7          	jalr	592(ra) # 1ac16 <memcpy>
   149ce:	4601                	li	a2,0
   149d0:	4681                	li	a3,0
   149d2:	00040023          	sb	zero,0(s0)
   149d6:	12e00513          	li	a0,302
   149da:	458d                	li	a1,3
   149dc:	470d                	li	a4,3
   149de:	00000073          	ecall
   149e2:	12e00513          	li	a0,302
   149e6:	45a1                	li	a1,8
   149e8:	4711                	li	a4,4
   149ea:	4601                	li	a2,0
   149ec:	4681                	li	a3,0
   149ee:	00000073          	ecall
   149f2:	b74d                	j	14994 <_ZN18complex_no_dynamic3app17h8df8bce76a6dfb53E+0x94>

000149f4 <_ZN18complex_no_dynamic3app17h93cfdb0c64012212E>:
   149f4:	7159                	addi	sp,sp,-112
   149f6:	d686                	sw	ra,108(sp)
   149f8:	d4a2                	sw	s0,104(sp)
   149fa:	d2a6                	sw	s1,100(sp)
   149fc:	842a                	mv	s0,a0
   149fe:	00e10513          	addi	a0,sp,14
   14a02:	4649                	li	a2,18
   14a04:	00006097          	auipc	ra,0x6
   14a08:	212080e7          	jalr	530(ra) # 1ac16 <memcpy>
   14a0c:	1008                	addi	a0,sp,32
   14a0e:	04400613          	li	a2,68
   14a12:	4581                	li	a1,0
   14a14:	00006097          	auipc	ra,0x6
   14a18:	196080e7          	jalr	406(ra) # 1abaa <memset>
   14a1c:	6509                	lui	a0,0x2
   14a1e:	4489                	li	s1,2
   14a20:	4589                	li	a1,2
   14a22:	00e10613          	addi	a2,sp,14
   14a26:	43250793          	addi	a5,a0,1074 # 2432 <.Lline_table_start1+0x2207>
   14a2a:	46c9                	li	a3,18
   14a2c:	4711                	li	a4,4
   14a2e:	853e                	mv	a0,a5
   14a30:	00000073          	ecall
   14a34:	02950a63          	beq	a0,s1,14a68 <_ZN18complex_no_dynamic3app17h93cfdb0c64012212E+0x74>
   14a38:	45a5                	li	a1,9
   14a3a:	1010                	addi	a2,sp,32
   14a3c:	04400693          	li	a3,68
   14a40:	470d                	li	a4,3
   14a42:	853e                	mv	a0,a5
   14a44:	00000073          	ecall
   14a48:	02950063          	beq	a0,s1,14a68 <_ZN18complex_no_dynamic3app17h93cfdb0c64012212E+0x74>
   14a4c:	6509                	lui	a0,0x2
   14a4e:	4589                	li	a1,2
   14a50:	4625                	li	a2,9
   14a52:	43250493          	addi	s1,a0,1074 # 2432 <.Lline_table_start1+0x2207>
   14a56:	4709                	li	a4,2
   14a58:	07f00793          	li	a5,127
   14a5c:	8526                	mv	a0,s1
   14a5e:	4681                	li	a3,0
   14a60:	00000073          	ecall
   14a64:	02a7ed63          	bltu	a5,a0,14a9e <_ZN18complex_no_dynamic3app17h93cfdb0c64012212E+0xaa>
   14a68:	872e                	mv	a4,a1
   14a6a:	4601                	li	a2,0
   14a6c:	4681                	li	a3,0
   14a6e:	4505                	li	a0,1
   14a70:	6789                	lui	a5,0x2
   14a72:	45a5                	li	a1,9
   14a74:	00a40023          	sb	a0,0(s0)
   14a78:	c058                	sw	a4,4(s0)
   14a7a:	43278793          	addi	a5,a5,1074 # 2432 <.Lline_table_start1+0x2207>
   14a7e:	470d                	li	a4,3
   14a80:	853e                	mv	a0,a5
   14a82:	00000073          	ecall
   14a86:	4589                	li	a1,2
   14a88:	4711                	li	a4,4
   14a8a:	853e                	mv	a0,a5
   14a8c:	4601                	li	a2,0
   14a8e:	4681                	li	a3,0
   14a90:	00000073          	ecall
   14a94:	50b6                	lw	ra,108(sp)
   14a96:	5426                	lw	s0,104(sp)
   14a98:	5496                	lw	s1,100(sp)
   14a9a:	6165                	addi	sp,sp,112
   14a9c:	8082                	ret
   14a9e:	8526                	mv	a0,s1
   14aa0:	4601                	li	a2,0
   14aa2:	4681                	li	a3,0
   14aa4:	45a5                	li	a1,9
   14aa6:	470d                	li	a4,3
   14aa8:	00000073          	ecall
   14aac:	45a5                	li	a1,9
   14aae:	470d                	li	a4,3
   14ab0:	8526                	mv	a0,s1
   14ab2:	4601                	li	a2,0
   14ab4:	4681                	li	a3,0
   14ab6:	00000073          	ecall
   14aba:	00140513          	addi	a0,s0,1
   14abe:	100c                	addi	a1,sp,32
   14ac0:	04400613          	li	a2,68
   14ac4:	00006097          	auipc	ra,0x6
   14ac8:	152080e7          	jalr	338(ra) # 1ac16 <memcpy>
   14acc:	8526                	mv	a0,s1
   14ace:	4601                	li	a2,0
   14ad0:	4681                	li	a3,0
   14ad2:	00040023          	sb	zero,0(s0)
   14ad6:	45a5                	li	a1,9
   14ad8:	470d                	li	a4,3
   14ada:	00000073          	ecall
   14ade:	4589                	li	a1,2
   14ae0:	4711                	li	a4,4
   14ae2:	8526                	mv	a0,s1
   14ae4:	4601                	li	a2,0
   14ae6:	4681                	li	a3,0
   14ae8:	00000073          	ecall
   14aec:	b765                	j	14a94 <_ZN18complex_no_dynamic3app17h93cfdb0c64012212E+0xa0>

00014aee <_ZN18complex_no_dynamic3app17h94a76f4b78e21030E>:
   14aee:	7131                	addi	sp,sp,-192
   14af0:	df06                	sw	ra,188(sp)
   14af2:	dd22                	sw	s0,184(sp)
   14af4:	842a                	mv	s0,a0
   14af6:	0028                	addi	a0,sp,8
   14af8:	04f00613          	li	a2,79
   14afc:	00006097          	auipc	ra,0x6
   14b00:	11a080e7          	jalr	282(ra) # 1ac16 <memcpy>
   14b04:	05710513          	addi	a0,sp,87
   14b08:	06100613          	li	a2,97
   14b0c:	4581                	li	a1,0
   14b0e:	00006097          	auipc	ra,0x6
   14b12:	09c080e7          	jalr	156(ra) # 1abaa <memset>
   14b16:	4789                	li	a5,2
   14b18:	1b600513          	li	a0,438
   14b1c:	4589                	li	a1,2
   14b1e:	0030                	addi	a2,sp,8
   14b20:	04f00693          	li	a3,79
   14b24:	4711                	li	a4,4
   14b26:	00000073          	ecall
   14b2a:	02f50a63          	beq	a0,a5,14b5e <_ZN18complex_no_dynamic3app17h94a76f4b78e21030E+0x70>
   14b2e:	1b600513          	li	a0,438
   14b32:	45a1                	li	a1,8
   14b34:	05710613          	addi	a2,sp,87
   14b38:	06100693          	li	a3,97
   14b3c:	470d                	li	a4,3
   14b3e:	00000073          	ecall
   14b42:	00f50e63          	beq	a0,a5,14b5e <_ZN18complex_no_dynamic3app17h94a76f4b78e21030E+0x70>
   14b46:	1b600513          	li	a0,438
   14b4a:	4589                	li	a1,2
   14b4c:	4621                	li	a2,8
   14b4e:	4709                	li	a4,2
   14b50:	07f00793          	li	a5,127
   14b54:	4681                	li	a3,0
   14b56:	00000073          	ecall
   14b5a:	02a7ea63          	bltu	a5,a0,14b8e <_ZN18complex_no_dynamic3app17h94a76f4b78e21030E+0xa0>
   14b5e:	4601                	li	a2,0
   14b60:	4681                	li	a3,0
   14b62:	4705                	li	a4,1
   14b64:	1b600513          	li	a0,438
   14b68:	00e40023          	sb	a4,0(s0)
   14b6c:	c04c                	sw	a1,4(s0)
   14b6e:	45a1                	li	a1,8
   14b70:	470d                	li	a4,3
   14b72:	00000073          	ecall
   14b76:	1b600513          	li	a0,438
   14b7a:	4589                	li	a1,2
   14b7c:	4711                	li	a4,4
   14b7e:	4601                	li	a2,0
   14b80:	4681                	li	a3,0
   14b82:	00000073          	ecall
   14b86:	50fa                	lw	ra,188(sp)
   14b88:	546a                	lw	s0,184(sp)
   14b8a:	6129                	addi	sp,sp,192
   14b8c:	8082                	ret
   14b8e:	4601                	li	a2,0
   14b90:	4681                	li	a3,0
   14b92:	1b600513          	li	a0,438
   14b96:	45a1                	li	a1,8
   14b98:	470d                	li	a4,3
   14b9a:	00000073          	ecall
   14b9e:	1b600513          	li	a0,438
   14ba2:	45a1                	li	a1,8
   14ba4:	470d                	li	a4,3
   14ba6:	4601                	li	a2,0
   14ba8:	4681                	li	a3,0
   14baa:	00000073          	ecall
   14bae:	00140513          	addi	a0,s0,1
   14bb2:	05710593          	addi	a1,sp,87
   14bb6:	06100613          	li	a2,97
   14bba:	00006097          	auipc	ra,0x6
   14bbe:	05c080e7          	jalr	92(ra) # 1ac16 <memcpy>
   14bc2:	4601                	li	a2,0
   14bc4:	4681                	li	a3,0
   14bc6:	00040023          	sb	zero,0(s0)
   14bca:	1b600513          	li	a0,438
   14bce:	45a1                	li	a1,8
   14bd0:	470d                	li	a4,3
   14bd2:	00000073          	ecall
   14bd6:	1b600513          	li	a0,438
   14bda:	4589                	li	a1,2
   14bdc:	4711                	li	a4,4
   14bde:	4601                	li	a2,0
   14be0:	4681                	li	a3,0
   14be2:	00000073          	ecall
   14be6:	b745                	j	14b86 <_ZN18complex_no_dynamic3app17h94a76f4b78e21030E+0x98>

00014be8 <_ZN18complex_no_dynamic3app17h957b9c823977c188E>:
   14be8:	7159                	addi	sp,sp,-112
   14bea:	d686                	sw	ra,108(sp)
   14bec:	d4a2                	sw	s0,104(sp)
   14bee:	d2a6                	sw	s1,100(sp)
   14bf0:	842a                	mv	s0,a0
   14bf2:	00510513          	addi	a0,sp,5
   14bf6:	03800613          	li	a2,56
   14bfa:	00006097          	auipc	ra,0x6
   14bfe:	01c080e7          	jalr	28(ra) # 1ac16 <memcpy>
   14c02:	03d10513          	addi	a0,sp,61
   14c06:	02700613          	li	a2,39
   14c0a:	4581                	li	a1,0
   14c0c:	00006097          	auipc	ra,0x6
   14c10:	f9e080e7          	jalr	-98(ra) # 1abaa <memset>
   14c14:	6505                	lui	a0,0x1
   14c16:	4489                	li	s1,2
   14c18:	4589                	li	a1,2
   14c1a:	00510613          	addi	a2,sp,5
   14c1e:	e2b50793          	addi	a5,a0,-469 # e2b <.Lline_table_start1+0xc00>
   14c22:	03800693          	li	a3,56
   14c26:	4711                	li	a4,4
   14c28:	853e                	mv	a0,a5
   14c2a:	00000073          	ecall
   14c2e:	02950b63          	beq	a0,s1,14c64 <_ZN18complex_no_dynamic3app17h957b9c823977c188E+0x7c>
   14c32:	45a1                	li	a1,8
   14c34:	03d10613          	addi	a2,sp,61
   14c38:	02700693          	li	a3,39
   14c3c:	470d                	li	a4,3
   14c3e:	853e                	mv	a0,a5
   14c40:	00000073          	ecall
   14c44:	02950063          	beq	a0,s1,14c64 <_ZN18complex_no_dynamic3app17h957b9c823977c188E+0x7c>
   14c48:	6505                	lui	a0,0x1
   14c4a:	4589                	li	a1,2
   14c4c:	4621                	li	a2,8
   14c4e:	e2b50493          	addi	s1,a0,-469 # e2b <.Lline_table_start1+0xc00>
   14c52:	4709                	li	a4,2
   14c54:	07f00793          	li	a5,127
   14c58:	8526                	mv	a0,s1
   14c5a:	4681                	li	a3,0
   14c5c:	00000073          	ecall
   14c60:	02a7ed63          	bltu	a5,a0,14c9a <_ZN18complex_no_dynamic3app17h957b9c823977c188E+0xb2>
   14c64:	872e                	mv	a4,a1
   14c66:	4601                	li	a2,0
   14c68:	4681                	li	a3,0
   14c6a:	4505                	li	a0,1
   14c6c:	6785                	lui	a5,0x1
   14c6e:	45a1                	li	a1,8
   14c70:	00a40023          	sb	a0,0(s0)
   14c74:	c058                	sw	a4,4(s0)
   14c76:	e2b78793          	addi	a5,a5,-469 # e2b <.Lline_table_start1+0xc00>
   14c7a:	470d                	li	a4,3
   14c7c:	853e                	mv	a0,a5
   14c7e:	00000073          	ecall
   14c82:	4589                	li	a1,2
   14c84:	4711                	li	a4,4
   14c86:	853e                	mv	a0,a5
   14c88:	4601                	li	a2,0
   14c8a:	4681                	li	a3,0
   14c8c:	00000073          	ecall
   14c90:	50b6                	lw	ra,108(sp)
   14c92:	5426                	lw	s0,104(sp)
   14c94:	5496                	lw	s1,100(sp)
   14c96:	6165                	addi	sp,sp,112
   14c98:	8082                	ret
   14c9a:	8526                	mv	a0,s1
   14c9c:	4601                	li	a2,0
   14c9e:	4681                	li	a3,0
   14ca0:	45a1                	li	a1,8
   14ca2:	470d                	li	a4,3
   14ca4:	00000073          	ecall
   14ca8:	45a1                	li	a1,8
   14caa:	470d                	li	a4,3
   14cac:	8526                	mv	a0,s1
   14cae:	4601                	li	a2,0
   14cb0:	4681                	li	a3,0
   14cb2:	00000073          	ecall
   14cb6:	00140513          	addi	a0,s0,1
   14cba:	03d10593          	addi	a1,sp,61
   14cbe:	02700613          	li	a2,39
   14cc2:	00006097          	auipc	ra,0x6
   14cc6:	f54080e7          	jalr	-172(ra) # 1ac16 <memcpy>
   14cca:	8526                	mv	a0,s1
   14ccc:	4601                	li	a2,0
   14cce:	4681                	li	a3,0
   14cd0:	00040023          	sb	zero,0(s0)
   14cd4:	45a1                	li	a1,8
   14cd6:	470d                	li	a4,3
   14cd8:	00000073          	ecall
   14cdc:	4589                	li	a1,2
   14cde:	4711                	li	a4,4
   14ce0:	8526                	mv	a0,s1
   14ce2:	4601                	li	a2,0
   14ce4:	4681                	li	a3,0
   14ce6:	00000073          	ecall
   14cea:	b75d                	j	14c90 <_ZN18complex_no_dynamic3app17h957b9c823977c188E+0xa8>

00014cec <_ZN18complex_no_dynamic3app17h95d23148fa728fabE>:
   14cec:	711d                	addi	sp,sp,-96
   14cee:	ce86                	sw	ra,92(sp)
   14cf0:	cca2                	sw	s0,88(sp)
   14cf2:	caa6                	sw	s1,84(sp)
   14cf4:	842a                	mv	s0,a0
   14cf6:	00d10513          	addi	a0,sp,13
   14cfa:	02300613          	li	a2,35
   14cfe:	00006097          	auipc	ra,0x6
   14d02:	f18080e7          	jalr	-232(ra) # 1ac16 <memcpy>
   14d06:	1808                	addi	a0,sp,48
   14d08:	02400613          	li	a2,36
   14d0c:	4581                	li	a1,0
   14d0e:	00006097          	auipc	ra,0x6
   14d12:	e9c080e7          	jalr	-356(ra) # 1abaa <memset>
   14d16:	6509                	lui	a0,0x2
   14d18:	4591                	li	a1,4
   14d1a:	00d10613          	addi	a2,sp,13
   14d1e:	02300693          	li	a3,35
   14d22:	bd650793          	addi	a5,a0,-1066 # 1bd6 <.Lline_table_start1+0x19ab>
   14d26:	4711                	li	a4,4
   14d28:	4489                	li	s1,2
   14d2a:	853e                	mv	a0,a5
   14d2c:	00000073          	ecall
   14d30:	02950a63          	beq	a0,s1,14d64 <_ZN18complex_no_dynamic3app17h95d23148fa728fabE+0x78>
   14d34:	45a1                	li	a1,8
   14d36:	1810                	addi	a2,sp,48
   14d38:	02400693          	li	a3,36
   14d3c:	470d                	li	a4,3
   14d3e:	853e                	mv	a0,a5
   14d40:	00000073          	ecall
   14d44:	02950063          	beq	a0,s1,14d64 <_ZN18complex_no_dynamic3app17h95d23148fa728fabE+0x78>
   14d48:	6509                	lui	a0,0x2
   14d4a:	4591                	li	a1,4
   14d4c:	4621                	li	a2,8
   14d4e:	bd650493          	addi	s1,a0,-1066 # 1bd6 <.Lline_table_start1+0x19ab>
   14d52:	4709                	li	a4,2
   14d54:	07f00793          	li	a5,127
   14d58:	8526                	mv	a0,s1
   14d5a:	4681                	li	a3,0
   14d5c:	00000073          	ecall
   14d60:	02a7ed63          	bltu	a5,a0,14d9a <_ZN18complex_no_dynamic3app17h95d23148fa728fabE+0xae>
   14d64:	872e                	mv	a4,a1
   14d66:	4601                	li	a2,0
   14d68:	4681                	li	a3,0
   14d6a:	4505                	li	a0,1
   14d6c:	6789                	lui	a5,0x2
   14d6e:	45a1                	li	a1,8
   14d70:	00a40023          	sb	a0,0(s0)
   14d74:	c058                	sw	a4,4(s0)
   14d76:	bd678793          	addi	a5,a5,-1066 # 1bd6 <.Lline_table_start1+0x19ab>
   14d7a:	470d                	li	a4,3
   14d7c:	853e                	mv	a0,a5
   14d7e:	00000073          	ecall
   14d82:	4591                	li	a1,4
   14d84:	4711                	li	a4,4
   14d86:	853e                	mv	a0,a5
   14d88:	4601                	li	a2,0
   14d8a:	4681                	li	a3,0
   14d8c:	00000073          	ecall
   14d90:	40f6                	lw	ra,92(sp)
   14d92:	4466                	lw	s0,88(sp)
   14d94:	44d6                	lw	s1,84(sp)
   14d96:	6125                	addi	sp,sp,96
   14d98:	8082                	ret
   14d9a:	8526                	mv	a0,s1
   14d9c:	4601                	li	a2,0
   14d9e:	4681                	li	a3,0
   14da0:	45a1                	li	a1,8
   14da2:	470d                	li	a4,3
   14da4:	00000073          	ecall
   14da8:	45a1                	li	a1,8
   14daa:	470d                	li	a4,3
   14dac:	8526                	mv	a0,s1
   14dae:	4601                	li	a2,0
   14db0:	4681                	li	a3,0
   14db2:	00000073          	ecall
   14db6:	00140513          	addi	a0,s0,1
   14dba:	180c                	addi	a1,sp,48
   14dbc:	02400613          	li	a2,36
   14dc0:	00006097          	auipc	ra,0x6
   14dc4:	e56080e7          	jalr	-426(ra) # 1ac16 <memcpy>
   14dc8:	8526                	mv	a0,s1
   14dca:	4601                	li	a2,0
   14dcc:	4681                	li	a3,0
   14dce:	00040023          	sb	zero,0(s0)
   14dd2:	45a1                	li	a1,8
   14dd4:	470d                	li	a4,3
   14dd6:	00000073          	ecall
   14dda:	4591                	li	a1,4
   14ddc:	4711                	li	a4,4
   14dde:	8526                	mv	a0,s1
   14de0:	4601                	li	a2,0
   14de2:	4681                	li	a3,0
   14de4:	00000073          	ecall
   14de8:	b765                	j	14d90 <_ZN18complex_no_dynamic3app17h95d23148fa728fabE+0xa4>

00014dea <_ZN18complex_no_dynamic3app17h986cd9bf7d0c1c17E>:
   14dea:	7175                	addi	sp,sp,-144
   14dec:	c706                	sw	ra,140(sp)
   14dee:	c522                	sw	s0,136(sp)
   14df0:	c326                	sw	s1,132(sp)
   14df2:	842a                	mv	s0,a0
   14df4:	00b10513          	addi	a0,sp,11
   14df8:	4671                	li	a2,28
   14dfa:	00006097          	auipc	ra,0x6
   14dfe:	e1c080e7          	jalr	-484(ra) # 1ac16 <memcpy>
   14e02:	02710513          	addi	a0,sp,39
   14e06:	05d00613          	li	a2,93
   14e0a:	4581                	li	a1,0
   14e0c:	00006097          	auipc	ra,0x6
   14e10:	d9e080e7          	jalr	-610(ra) # 1abaa <memset>
   14e14:	6505                	lui	a0,0x1
   14e16:	45a1                	li	a1,8
   14e18:	00b10613          	addi	a2,sp,11
   14e1c:	46f1                	li	a3,28
   14e1e:	c3e50793          	addi	a5,a0,-962 # c3e <.Lline_table_start1+0xa13>
   14e22:	4711                	li	a4,4
   14e24:	4489                	li	s1,2
   14e26:	853e                	mv	a0,a5
   14e28:	00000073          	ecall
   14e2c:	02950b63          	beq	a0,s1,14e62 <_ZN18complex_no_dynamic3app17h986cd9bf7d0c1c17E+0x78>
   14e30:	4595                	li	a1,5
   14e32:	02710613          	addi	a2,sp,39
   14e36:	05d00693          	li	a3,93
   14e3a:	470d                	li	a4,3
   14e3c:	853e                	mv	a0,a5
   14e3e:	00000073          	ecall
   14e42:	02950063          	beq	a0,s1,14e62 <_ZN18complex_no_dynamic3app17h986cd9bf7d0c1c17E+0x78>
   14e46:	6505                	lui	a0,0x1
   14e48:	45a1                	li	a1,8
   14e4a:	4615                	li	a2,5
   14e4c:	c3e50493          	addi	s1,a0,-962 # c3e <.Lline_table_start1+0xa13>
   14e50:	4709                	li	a4,2
   14e52:	07f00793          	li	a5,127
   14e56:	8526                	mv	a0,s1
   14e58:	4681                	li	a3,0
   14e5a:	00000073          	ecall
   14e5e:	02a7ed63          	bltu	a5,a0,14e98 <_ZN18complex_no_dynamic3app17h986cd9bf7d0c1c17E+0xae>
   14e62:	872e                	mv	a4,a1
   14e64:	4601                	li	a2,0
   14e66:	4681                	li	a3,0
   14e68:	4505                	li	a0,1
   14e6a:	6785                	lui	a5,0x1
   14e6c:	4595                	li	a1,5
   14e6e:	00a40023          	sb	a0,0(s0)
   14e72:	c058                	sw	a4,4(s0)
   14e74:	c3e78793          	addi	a5,a5,-962 # c3e <.Lline_table_start1+0xa13>
   14e78:	470d                	li	a4,3
   14e7a:	853e                	mv	a0,a5
   14e7c:	00000073          	ecall
   14e80:	45a1                	li	a1,8
   14e82:	4711                	li	a4,4
   14e84:	853e                	mv	a0,a5
   14e86:	4601                	li	a2,0
   14e88:	4681                	li	a3,0
   14e8a:	00000073          	ecall
   14e8e:	40ba                	lw	ra,140(sp)
   14e90:	442a                	lw	s0,136(sp)
   14e92:	449a                	lw	s1,132(sp)
   14e94:	6149                	addi	sp,sp,144
   14e96:	8082                	ret
   14e98:	8526                	mv	a0,s1
   14e9a:	4601                	li	a2,0
   14e9c:	4681                	li	a3,0
   14e9e:	4595                	li	a1,5
   14ea0:	470d                	li	a4,3
   14ea2:	00000073          	ecall
   14ea6:	4595                	li	a1,5
   14ea8:	470d                	li	a4,3
   14eaa:	8526                	mv	a0,s1
   14eac:	4601                	li	a2,0
   14eae:	4681                	li	a3,0
   14eb0:	00000073          	ecall
   14eb4:	00140513          	addi	a0,s0,1
   14eb8:	02710593          	addi	a1,sp,39
   14ebc:	05d00613          	li	a2,93
   14ec0:	00006097          	auipc	ra,0x6
   14ec4:	d56080e7          	jalr	-682(ra) # 1ac16 <memcpy>
   14ec8:	8526                	mv	a0,s1
   14eca:	4601                	li	a2,0
   14ecc:	4681                	li	a3,0
   14ece:	00040023          	sb	zero,0(s0)
   14ed2:	4595                	li	a1,5
   14ed4:	470d                	li	a4,3
   14ed6:	00000073          	ecall
   14eda:	45a1                	li	a1,8
   14edc:	4711                	li	a4,4
   14ede:	8526                	mv	a0,s1
   14ee0:	4601                	li	a2,0
   14ee2:	4681                	li	a3,0
   14ee4:	00000073          	ecall
   14ee8:	b75d                	j	14e8e <_ZN18complex_no_dynamic3app17h986cd9bf7d0c1c17E+0xa4>

00014eea <_ZN18complex_no_dynamic3app17h9a1a68d8a53a812cE>:
   14eea:	7119                	addi	sp,sp,-128
   14eec:	de86                	sw	ra,124(sp)
   14eee:	dca2                	sw	s0,120(sp)
   14ef0:	daa6                	sw	s1,116(sp)
   14ef2:	842a                	mv	s0,a0
   14ef4:	00110513          	addi	a0,sp,1
   14ef8:	03200613          	li	a2,50
   14efc:	00006097          	auipc	ra,0x6
   14f00:	d1a080e7          	jalr	-742(ra) # 1ac16 <memcpy>
   14f04:	03310513          	addi	a0,sp,51
   14f08:	04100613          	li	a2,65
   14f0c:	4581                	li	a1,0
   14f0e:	00006097          	auipc	ra,0x6
   14f12:	c9c080e7          	jalr	-868(ra) # 1abaa <memset>
   14f16:	6505                	lui	a0,0x1
   14f18:	459d                	li	a1,7
   14f1a:	00110613          	addi	a2,sp,1
   14f1e:	03200693          	li	a3,50
   14f22:	91d50793          	addi	a5,a0,-1763 # 91d <.Lline_table_start1+0x6f2>
   14f26:	4711                	li	a4,4
   14f28:	4489                	li	s1,2
   14f2a:	853e                	mv	a0,a5
   14f2c:	00000073          	ecall
   14f30:	02950b63          	beq	a0,s1,14f66 <_ZN18complex_no_dynamic3app17h9a1a68d8a53a812cE+0x7c>
   14f34:	4595                	li	a1,5
   14f36:	03310613          	addi	a2,sp,51
   14f3a:	04100693          	li	a3,65
   14f3e:	470d                	li	a4,3
   14f40:	853e                	mv	a0,a5
   14f42:	00000073          	ecall
   14f46:	02950063          	beq	a0,s1,14f66 <_ZN18complex_no_dynamic3app17h9a1a68d8a53a812cE+0x7c>
   14f4a:	6505                	lui	a0,0x1
   14f4c:	459d                	li	a1,7
   14f4e:	4615                	li	a2,5
   14f50:	91d50493          	addi	s1,a0,-1763 # 91d <.Lline_table_start1+0x6f2>
   14f54:	4709                	li	a4,2
   14f56:	07f00793          	li	a5,127
   14f5a:	8526                	mv	a0,s1
   14f5c:	4681                	li	a3,0
   14f5e:	00000073          	ecall
   14f62:	02a7ed63          	bltu	a5,a0,14f9c <_ZN18complex_no_dynamic3app17h9a1a68d8a53a812cE+0xb2>
   14f66:	872e                	mv	a4,a1
   14f68:	4601                	li	a2,0
   14f6a:	4681                	li	a3,0
   14f6c:	4505                	li	a0,1
   14f6e:	6785                	lui	a5,0x1
   14f70:	4595                	li	a1,5
   14f72:	00a40023          	sb	a0,0(s0)
   14f76:	c058                	sw	a4,4(s0)
   14f78:	91d78793          	addi	a5,a5,-1763 # 91d <.Lline_table_start1+0x6f2>
   14f7c:	470d                	li	a4,3
   14f7e:	853e                	mv	a0,a5
   14f80:	00000073          	ecall
   14f84:	459d                	li	a1,7
   14f86:	4711                	li	a4,4
   14f88:	853e                	mv	a0,a5
   14f8a:	4601                	li	a2,0
   14f8c:	4681                	li	a3,0
   14f8e:	00000073          	ecall
   14f92:	50f6                	lw	ra,124(sp)
   14f94:	5466                	lw	s0,120(sp)
   14f96:	54d6                	lw	s1,116(sp)
   14f98:	6109                	addi	sp,sp,128
   14f9a:	8082                	ret
   14f9c:	8526                	mv	a0,s1
   14f9e:	4601                	li	a2,0
   14fa0:	4681                	li	a3,0
   14fa2:	4595                	li	a1,5
   14fa4:	470d                	li	a4,3
   14fa6:	00000073          	ecall
   14faa:	4595                	li	a1,5
   14fac:	470d                	li	a4,3
   14fae:	8526                	mv	a0,s1
   14fb0:	4601                	li	a2,0
   14fb2:	4681                	li	a3,0
   14fb4:	00000073          	ecall
   14fb8:	00140513          	addi	a0,s0,1
   14fbc:	03310593          	addi	a1,sp,51
   14fc0:	04100613          	li	a2,65
   14fc4:	00006097          	auipc	ra,0x6
   14fc8:	c52080e7          	jalr	-942(ra) # 1ac16 <memcpy>
   14fcc:	8526                	mv	a0,s1
   14fce:	4601                	li	a2,0
   14fd0:	4681                	li	a3,0
   14fd2:	00040023          	sb	zero,0(s0)
   14fd6:	4595                	li	a1,5
   14fd8:	470d                	li	a4,3
   14fda:	00000073          	ecall
   14fde:	459d                	li	a1,7
   14fe0:	4711                	li	a4,4
   14fe2:	8526                	mv	a0,s1
   14fe4:	4601                	li	a2,0
   14fe6:	4681                	li	a3,0
   14fe8:	00000073          	ecall
   14fec:	b75d                	j	14f92 <_ZN18complex_no_dynamic3app17h9a1a68d8a53a812cE+0xa8>

00014fee <_ZN18complex_no_dynamic3app17h9c14383bf262fff6E>:
   14fee:	7119                	addi	sp,sp,-128
   14ff0:	de86                	sw	ra,124(sp)
   14ff2:	dca2                	sw	s0,120(sp)
   14ff4:	daa6                	sw	s1,116(sp)
   14ff6:	842a                	mv	s0,a0
   14ff8:	0068                	addi	a0,sp,12
   14ffa:	03c00613          	li	a2,60
   14ffe:	00006097          	auipc	ra,0x6
   15002:	c18080e7          	jalr	-1000(ra) # 1ac16 <memcpy>
   15006:	00a8                	addi	a0,sp,72
   15008:	02c00613          	li	a2,44
   1500c:	4581                	li	a1,0
   1500e:	00006097          	auipc	ra,0x6
   15012:	b9c080e7          	jalr	-1124(ra) # 1abaa <memset>
   15016:	6509                	lui	a0,0x2
   15018:	4595                	li	a1,5
   1501a:	0070                	addi	a2,sp,12
   1501c:	03c00693          	li	a3,60
   15020:	eac50793          	addi	a5,a0,-340 # 1eac <.Lline_table_start1+0x1c81>
   15024:	4711                	li	a4,4
   15026:	4489                	li	s1,2
   15028:	853e                	mv	a0,a5
   1502a:	00000073          	ecall
   1502e:	02950a63          	beq	a0,s1,15062 <_ZN18complex_no_dynamic3app17h9c14383bf262fff6E+0x74>
   15032:	459d                	li	a1,7
   15034:	00b0                	addi	a2,sp,72
   15036:	02c00693          	li	a3,44
   1503a:	470d                	li	a4,3
   1503c:	853e                	mv	a0,a5
   1503e:	00000073          	ecall
   15042:	02950063          	beq	a0,s1,15062 <_ZN18complex_no_dynamic3app17h9c14383bf262fff6E+0x74>
   15046:	6509                	lui	a0,0x2
   15048:	4595                	li	a1,5
   1504a:	461d                	li	a2,7
   1504c:	eac50493          	addi	s1,a0,-340 # 1eac <.Lline_table_start1+0x1c81>
   15050:	4709                	li	a4,2
   15052:	07f00793          	li	a5,127
   15056:	8526                	mv	a0,s1
   15058:	4681                	li	a3,0
   1505a:	00000073          	ecall
   1505e:	02a7ed63          	bltu	a5,a0,15098 <_ZN18complex_no_dynamic3app17h9c14383bf262fff6E+0xaa>
   15062:	872e                	mv	a4,a1
   15064:	4601                	li	a2,0
   15066:	4681                	li	a3,0
   15068:	4505                	li	a0,1
   1506a:	6789                	lui	a5,0x2
   1506c:	459d                	li	a1,7
   1506e:	00a40023          	sb	a0,0(s0)
   15072:	c058                	sw	a4,4(s0)
   15074:	eac78793          	addi	a5,a5,-340 # 1eac <.Lline_table_start1+0x1c81>
   15078:	470d                	li	a4,3
   1507a:	853e                	mv	a0,a5
   1507c:	00000073          	ecall
   15080:	4595                	li	a1,5
   15082:	4711                	li	a4,4
   15084:	853e                	mv	a0,a5
   15086:	4601                	li	a2,0
   15088:	4681                	li	a3,0
   1508a:	00000073          	ecall
   1508e:	50f6                	lw	ra,124(sp)
   15090:	5466                	lw	s0,120(sp)
   15092:	54d6                	lw	s1,116(sp)
   15094:	6109                	addi	sp,sp,128
   15096:	8082                	ret
   15098:	8526                	mv	a0,s1
   1509a:	4601                	li	a2,0
   1509c:	4681                	li	a3,0
   1509e:	459d                	li	a1,7
   150a0:	470d                	li	a4,3
   150a2:	00000073          	ecall
   150a6:	459d                	li	a1,7
   150a8:	470d                	li	a4,3
   150aa:	8526                	mv	a0,s1
   150ac:	4601                	li	a2,0
   150ae:	4681                	li	a3,0
   150b0:	00000073          	ecall
   150b4:	00140513          	addi	a0,s0,1
   150b8:	00ac                	addi	a1,sp,72
   150ba:	02c00613          	li	a2,44
   150be:	00006097          	auipc	ra,0x6
   150c2:	b58080e7          	jalr	-1192(ra) # 1ac16 <memcpy>
   150c6:	8526                	mv	a0,s1
   150c8:	4601                	li	a2,0
   150ca:	4681                	li	a3,0
   150cc:	00040023          	sb	zero,0(s0)
   150d0:	459d                	li	a1,7
   150d2:	470d                	li	a4,3
   150d4:	00000073          	ecall
   150d8:	4595                	li	a1,5
   150da:	4711                	li	a4,4
   150dc:	8526                	mv	a0,s1
   150de:	4601                	li	a2,0
   150e0:	4681                	li	a3,0
   150e2:	00000073          	ecall
   150e6:	b765                	j	1508e <_ZN18complex_no_dynamic3app17h9c14383bf262fff6E+0xa0>

000150e8 <_ZN18complex_no_dynamic3app17h9e68dbe176834c0cE>:
   150e8:	711d                	addi	sp,sp,-96
   150ea:	ce86                	sw	ra,92(sp)
   150ec:	cca2                	sw	s0,88(sp)
   150ee:	caa6                	sw	s1,84(sp)
   150f0:	842a                	mv	s0,a0
   150f2:	00210513          	addi	a0,sp,2
   150f6:	02a00613          	li	a2,42
   150fa:	00006097          	auipc	ra,0x6
   150fe:	b1c080e7          	jalr	-1252(ra) # 1ac16 <memcpy>
   15102:	1068                	addi	a0,sp,44
   15104:	02800613          	li	a2,40
   15108:	4581                	li	a1,0
   1510a:	00006097          	auipc	ra,0x6
   1510e:	aa0080e7          	jalr	-1376(ra) # 1abaa <memset>
   15112:	6509                	lui	a0,0x2
   15114:	4591                	li	a1,4
   15116:	00210613          	addi	a2,sp,2
   1511a:	02a00693          	li	a3,42
   1511e:	efa50793          	addi	a5,a0,-262 # 1efa <.Lline_table_start1+0x1ccf>
   15122:	4711                	li	a4,4
   15124:	4489                	li	s1,2
   15126:	853e                	mv	a0,a5
   15128:	00000073          	ecall
   1512c:	02950a63          	beq	a0,s1,15160 <_ZN18complex_no_dynamic3app17h9e68dbe176834c0cE+0x78>
   15130:	45a1                	li	a1,8
   15132:	1070                	addi	a2,sp,44
   15134:	02800693          	li	a3,40
   15138:	470d                	li	a4,3
   1513a:	853e                	mv	a0,a5
   1513c:	00000073          	ecall
   15140:	02950063          	beq	a0,s1,15160 <_ZN18complex_no_dynamic3app17h9e68dbe176834c0cE+0x78>
   15144:	6509                	lui	a0,0x2
   15146:	4591                	li	a1,4
   15148:	4621                	li	a2,8
   1514a:	efa50493          	addi	s1,a0,-262 # 1efa <.Lline_table_start1+0x1ccf>
   1514e:	4709                	li	a4,2
   15150:	07f00793          	li	a5,127
   15154:	8526                	mv	a0,s1
   15156:	4681                	li	a3,0
   15158:	00000073          	ecall
   1515c:	02a7ed63          	bltu	a5,a0,15196 <_ZN18complex_no_dynamic3app17h9e68dbe176834c0cE+0xae>
   15160:	872e                	mv	a4,a1
   15162:	4601                	li	a2,0
   15164:	4681                	li	a3,0
   15166:	4505                	li	a0,1
   15168:	6789                	lui	a5,0x2
   1516a:	45a1                	li	a1,8
   1516c:	00a40023          	sb	a0,0(s0)
   15170:	c058                	sw	a4,4(s0)
   15172:	efa78793          	addi	a5,a5,-262 # 1efa <.Lline_table_start1+0x1ccf>
   15176:	470d                	li	a4,3
   15178:	853e                	mv	a0,a5
   1517a:	00000073          	ecall
   1517e:	4591                	li	a1,4
   15180:	4711                	li	a4,4
   15182:	853e                	mv	a0,a5
   15184:	4601                	li	a2,0
   15186:	4681                	li	a3,0
   15188:	00000073          	ecall
   1518c:	40f6                	lw	ra,92(sp)
   1518e:	4466                	lw	s0,88(sp)
   15190:	44d6                	lw	s1,84(sp)
   15192:	6125                	addi	sp,sp,96
   15194:	8082                	ret
   15196:	8526                	mv	a0,s1
   15198:	4601                	li	a2,0
   1519a:	4681                	li	a3,0
   1519c:	45a1                	li	a1,8
   1519e:	470d                	li	a4,3
   151a0:	00000073          	ecall
   151a4:	45a1                	li	a1,8
   151a6:	470d                	li	a4,3
   151a8:	8526                	mv	a0,s1
   151aa:	4601                	li	a2,0
   151ac:	4681                	li	a3,0
   151ae:	00000073          	ecall
   151b2:	00140513          	addi	a0,s0,1
   151b6:	106c                	addi	a1,sp,44
   151b8:	02800613          	li	a2,40
   151bc:	00006097          	auipc	ra,0x6
   151c0:	a5a080e7          	jalr	-1446(ra) # 1ac16 <memcpy>
   151c4:	8526                	mv	a0,s1
   151c6:	4601                	li	a2,0
   151c8:	4681                	li	a3,0
   151ca:	00040023          	sb	zero,0(s0)
   151ce:	45a1                	li	a1,8
   151d0:	470d                	li	a4,3
   151d2:	00000073          	ecall
   151d6:	4591                	li	a1,4
   151d8:	4711                	li	a4,4
   151da:	8526                	mv	a0,s1
   151dc:	4601                	li	a2,0
   151de:	4681                	li	a3,0
   151e0:	00000073          	ecall
   151e4:	b765                	j	1518c <_ZN18complex_no_dynamic3app17h9e68dbe176834c0cE+0xa4>

000151e6 <_ZN18complex_no_dynamic3app17ha879d5a5c12fda00E>:
   151e6:	7135                	addi	sp,sp,-160
   151e8:	cf06                	sw	ra,156(sp)
   151ea:	cd22                	sw	s0,152(sp)
   151ec:	842a                	mv	s0,a0
   151ee:	00910513          	addi	a0,sp,9
   151f2:	06300613          	li	a2,99
   151f6:	00006097          	auipc	ra,0x6
   151fa:	a20080e7          	jalr	-1504(ra) # 1ac16 <memcpy>
   151fe:	10e8                	addi	a0,sp,108
   15200:	02c00613          	li	a2,44
   15204:	4581                	li	a1,0
   15206:	00006097          	auipc	ra,0x6
   1520a:	9a4080e7          	jalr	-1628(ra) # 1abaa <memset>
   1520e:	4561                	li	a0,24
   15210:	4595                	li	a1,5
   15212:	00910613          	addi	a2,sp,9
   15216:	06300693          	li	a3,99
   1521a:	4711                	li	a4,4
   1521c:	4789                	li	a5,2
   1521e:	00000073          	ecall
   15222:	02f50763          	beq	a0,a5,15250 <_ZN18complex_no_dynamic3app17ha879d5a5c12fda00E+0x6a>
   15226:	4561                	li	a0,24
   15228:	458d                	li	a1,3
   1522a:	10f0                	addi	a2,sp,108
   1522c:	02c00693          	li	a3,44
   15230:	470d                	li	a4,3
   15232:	00000073          	ecall
   15236:	00f50d63          	beq	a0,a5,15250 <_ZN18complex_no_dynamic3app17ha879d5a5c12fda00E+0x6a>
   1523a:	4561                	li	a0,24
   1523c:	4595                	li	a1,5
   1523e:	460d                	li	a2,3
   15240:	4709                	li	a4,2
   15242:	07f00793          	li	a5,127
   15246:	4681                	li	a3,0
   15248:	00000073          	ecall
   1524c:	02a7e863          	bltu	a5,a0,1527c <_ZN18complex_no_dynamic3app17ha879d5a5c12fda00E+0x96>
   15250:	4601                	li	a2,0
   15252:	4681                	li	a3,0
   15254:	4705                	li	a4,1
   15256:	4561                	li	a0,24
   15258:	00e40023          	sb	a4,0(s0)
   1525c:	c04c                	sw	a1,4(s0)
   1525e:	458d                	li	a1,3
   15260:	470d                	li	a4,3
   15262:	00000073          	ecall
   15266:	4561                	li	a0,24
   15268:	4595                	li	a1,5
   1526a:	4711                	li	a4,4
   1526c:	4601                	li	a2,0
   1526e:	4681                	li	a3,0
   15270:	00000073          	ecall
   15274:	40fa                	lw	ra,156(sp)
   15276:	446a                	lw	s0,152(sp)
   15278:	610d                	addi	sp,sp,160
   1527a:	8082                	ret
   1527c:	4601                	li	a2,0
   1527e:	4681                	li	a3,0
   15280:	4561                	li	a0,24
   15282:	458d                	li	a1,3
   15284:	470d                	li	a4,3
   15286:	00000073          	ecall
   1528a:	4561                	li	a0,24
   1528c:	458d                	li	a1,3
   1528e:	470d                	li	a4,3
   15290:	4601                	li	a2,0
   15292:	4681                	li	a3,0
   15294:	00000073          	ecall
   15298:	00140513          	addi	a0,s0,1
   1529c:	10ec                	addi	a1,sp,108
   1529e:	02c00613          	li	a2,44
   152a2:	00006097          	auipc	ra,0x6
   152a6:	974080e7          	jalr	-1676(ra) # 1ac16 <memcpy>
   152aa:	4601                	li	a2,0
   152ac:	4681                	li	a3,0
   152ae:	00040023          	sb	zero,0(s0)
   152b2:	4561                	li	a0,24
   152b4:	458d                	li	a1,3
   152b6:	470d                	li	a4,3
   152b8:	00000073          	ecall
   152bc:	4561                	li	a0,24
   152be:	4595                	li	a1,5
   152c0:	4711                	li	a4,4
   152c2:	4601                	li	a2,0
   152c4:	4681                	li	a3,0
   152c6:	00000073          	ecall
   152ca:	b76d                	j	15274 <_ZN18complex_no_dynamic3app17ha879d5a5c12fda00E+0x8e>

000152cc <_ZN18complex_no_dynamic3app17ha9391c67ed900644E>:
   152cc:	711d                	addi	sp,sp,-96
   152ce:	ce86                	sw	ra,92(sp)
   152d0:	cca2                	sw	s0,88(sp)
   152d2:	caa6                	sw	s1,84(sp)
   152d4:	842a                	mv	s0,a0
   152d6:	00610513          	addi	a0,sp,6
   152da:	03400613          	li	a2,52
   152de:	00006097          	auipc	ra,0x6
   152e2:	938080e7          	jalr	-1736(ra) # 1ac16 <memcpy>
   152e6:	03a10513          	addi	a0,sp,58
   152ea:	4669                	li	a2,26
   152ec:	4581                	li	a1,0
   152ee:	00006097          	auipc	ra,0x6
   152f2:	8bc080e7          	jalr	-1860(ra) # 1abaa <memset>
   152f6:	6505                	lui	a0,0x1
   152f8:	00610613          	addi	a2,sp,6
   152fc:	03400693          	li	a3,52
   15300:	2cc50793          	addi	a5,a0,716 # 12cc <.Lline_table_start1+0x10a1>
   15304:	4711                	li	a4,4
   15306:	4489                	li	s1,2
   15308:	853e                	mv	a0,a5
   1530a:	4581                	li	a1,0
   1530c:	00000073          	ecall
   15310:	02950a63          	beq	a0,s1,15344 <_ZN18complex_no_dynamic3app17ha9391c67ed900644E+0x78>
   15314:	4595                	li	a1,5
   15316:	03a10613          	addi	a2,sp,58
   1531a:	46e9                	li	a3,26
   1531c:	470d                	li	a4,3
   1531e:	853e                	mv	a0,a5
   15320:	00000073          	ecall
   15324:	02950063          	beq	a0,s1,15344 <_ZN18complex_no_dynamic3app17ha9391c67ed900644E+0x78>
   15328:	6505                	lui	a0,0x1
   1532a:	4615                	li	a2,5
   1532c:	2cc50493          	addi	s1,a0,716 # 12cc <.Lline_table_start1+0x10a1>
   15330:	4709                	li	a4,2
   15332:	07f00793          	li	a5,127
   15336:	8526                	mv	a0,s1
   15338:	4581                	li	a1,0
   1533a:	4681                	li	a3,0
   1533c:	00000073          	ecall
   15340:	02a7ec63          	bltu	a5,a0,15378 <_ZN18complex_no_dynamic3app17ha9391c67ed900644E+0xac>
   15344:	4505                	li	a0,1
   15346:	6605                	lui	a2,0x1
   15348:	00a40023          	sb	a0,0(s0)
   1534c:	c04c                	sw	a1,4(s0)
   1534e:	2cc60793          	addi	a5,a2,716 # 12cc <.Lline_table_start1+0x10a1>
   15352:	4595                	li	a1,5
   15354:	470d                	li	a4,3
   15356:	853e                	mv	a0,a5
   15358:	4601                	li	a2,0
   1535a:	4681                	li	a3,0
   1535c:	00000073          	ecall
   15360:	4711                	li	a4,4
   15362:	853e                	mv	a0,a5
   15364:	4581                	li	a1,0
   15366:	4601                	li	a2,0
   15368:	4681                	li	a3,0
   1536a:	00000073          	ecall
   1536e:	40f6                	lw	ra,92(sp)
   15370:	4466                	lw	s0,88(sp)
   15372:	44d6                	lw	s1,84(sp)
   15374:	6125                	addi	sp,sp,96
   15376:	8082                	ret
   15378:	8526                	mv	a0,s1
   1537a:	4601                	li	a2,0
   1537c:	4681                	li	a3,0
   1537e:	4595                	li	a1,5
   15380:	470d                	li	a4,3
   15382:	00000073          	ecall
   15386:	4595                	li	a1,5
   15388:	470d                	li	a4,3
   1538a:	8526                	mv	a0,s1
   1538c:	4601                	li	a2,0
   1538e:	4681                	li	a3,0
   15390:	00000073          	ecall
   15394:	00140513          	addi	a0,s0,1
   15398:	03a10593          	addi	a1,sp,58
   1539c:	4669                	li	a2,26
   1539e:	00006097          	auipc	ra,0x6
   153a2:	878080e7          	jalr	-1928(ra) # 1ac16 <memcpy>
   153a6:	00040023          	sb	zero,0(s0)
   153aa:	4595                	li	a1,5
   153ac:	470d                	li	a4,3
   153ae:	8526                	mv	a0,s1
   153b0:	4601                	li	a2,0
   153b2:	4681                	li	a3,0
   153b4:	00000073          	ecall
   153b8:	4711                	li	a4,4
   153ba:	8526                	mv	a0,s1
   153bc:	4581                	li	a1,0
   153be:	4601                	li	a2,0
   153c0:	4681                	li	a3,0
   153c2:	00000073          	ecall
   153c6:	b765                	j	1536e <_ZN18complex_no_dynamic3app17ha9391c67ed900644E+0xa2>

000153c8 <_ZN18complex_no_dynamic3app17hab0bb253de2d52efE>:
   153c8:	7171                	addi	sp,sp,-176
   153ca:	d706                	sw	ra,172(sp)
   153cc:	d522                	sw	s0,168(sp)
   153ce:	d326                	sw	s1,164(sp)
   153d0:	842a                	mv	s0,a0
   153d2:	00510513          	addi	a0,sp,5
   153d6:	05600613          	li	a2,86
   153da:	00006097          	auipc	ra,0x6
   153de:	83c080e7          	jalr	-1988(ra) # 1ac16 <memcpy>
   153e2:	05b10513          	addi	a0,sp,91
   153e6:	04900613          	li	a2,73
   153ea:	4581                	li	a1,0
   153ec:	00005097          	auipc	ra,0x5
   153f0:	7be080e7          	jalr	1982(ra) # 1abaa <memset>
   153f4:	6509                	lui	a0,0x2
   153f6:	4599                	li	a1,6
   153f8:	00510613          	addi	a2,sp,5
   153fc:	05600693          	li	a3,86
   15400:	c6b50793          	addi	a5,a0,-917 # 1c6b <.Lline_table_start1+0x1a40>
   15404:	4711                	li	a4,4
   15406:	4489                	li	s1,2
   15408:	853e                	mv	a0,a5
   1540a:	00000073          	ecall
   1540e:	02950b63          	beq	a0,s1,15444 <_ZN18complex_no_dynamic3app17hab0bb253de2d52efE+0x7c>
   15412:	4599                	li	a1,6
   15414:	05b10613          	addi	a2,sp,91
   15418:	04900693          	li	a3,73
   1541c:	470d                	li	a4,3
   1541e:	853e                	mv	a0,a5
   15420:	00000073          	ecall
   15424:	02950063          	beq	a0,s1,15444 <_ZN18complex_no_dynamic3app17hab0bb253de2d52efE+0x7c>
   15428:	6509                	lui	a0,0x2
   1542a:	4599                	li	a1,6
   1542c:	4619                	li	a2,6
   1542e:	c6b50493          	addi	s1,a0,-917 # 1c6b <.Lline_table_start1+0x1a40>
   15432:	4709                	li	a4,2
   15434:	07f00793          	li	a5,127
   15438:	8526                	mv	a0,s1
   1543a:	4681                	li	a3,0
   1543c:	00000073          	ecall
   15440:	02a7ed63          	bltu	a5,a0,1547a <_ZN18complex_no_dynamic3app17hab0bb253de2d52efE+0xb2>
   15444:	872e                	mv	a4,a1
   15446:	4601                	li	a2,0
   15448:	4681                	li	a3,0
   1544a:	4505                	li	a0,1
   1544c:	6789                	lui	a5,0x2
   1544e:	4599                	li	a1,6
   15450:	00a40023          	sb	a0,0(s0)
   15454:	c058                	sw	a4,4(s0)
   15456:	c6b78793          	addi	a5,a5,-917 # 1c6b <.Lline_table_start1+0x1a40>
   1545a:	470d                	li	a4,3
   1545c:	853e                	mv	a0,a5
   1545e:	00000073          	ecall
   15462:	4599                	li	a1,6
   15464:	4711                	li	a4,4
   15466:	853e                	mv	a0,a5
   15468:	4601                	li	a2,0
   1546a:	4681                	li	a3,0
   1546c:	00000073          	ecall
   15470:	50ba                	lw	ra,172(sp)
   15472:	542a                	lw	s0,168(sp)
   15474:	549a                	lw	s1,164(sp)
   15476:	614d                	addi	sp,sp,176
   15478:	8082                	ret
   1547a:	8526                	mv	a0,s1
   1547c:	4601                	li	a2,0
   1547e:	4681                	li	a3,0
   15480:	4599                	li	a1,6
   15482:	470d                	li	a4,3
   15484:	00000073          	ecall
   15488:	4599                	li	a1,6
   1548a:	470d                	li	a4,3
   1548c:	8526                	mv	a0,s1
   1548e:	4601                	li	a2,0
   15490:	4681                	li	a3,0
   15492:	00000073          	ecall
   15496:	00140513          	addi	a0,s0,1
   1549a:	05b10593          	addi	a1,sp,91
   1549e:	04900613          	li	a2,73
   154a2:	00005097          	auipc	ra,0x5
   154a6:	774080e7          	jalr	1908(ra) # 1ac16 <memcpy>
   154aa:	8526                	mv	a0,s1
   154ac:	4601                	li	a2,0
   154ae:	4681                	li	a3,0
   154b0:	00040023          	sb	zero,0(s0)
   154b4:	4599                	li	a1,6
   154b6:	470d                	li	a4,3
   154b8:	00000073          	ecall
   154bc:	4599                	li	a1,6
   154be:	4711                	li	a4,4
   154c0:	8526                	mv	a0,s1
   154c2:	4601                	li	a2,0
   154c4:	4681                	li	a3,0
   154c6:	00000073          	ecall
   154ca:	b75d                	j	15470 <_ZN18complex_no_dynamic3app17hab0bb253de2d52efE+0xa8>

000154cc <_ZN18complex_no_dynamic3app17haf9e69833fc6d8eaE>:
   154cc:	7119                	addi	sp,sp,-128
   154ce:	de86                	sw	ra,124(sp)
   154d0:	dca2                	sw	s0,120(sp)
   154d2:	daa6                	sw	s1,116(sp)
   154d4:	842a                	mv	s0,a0
   154d6:	00510513          	addi	a0,sp,5
   154da:	4679                	li	a2,30
   154dc:	00005097          	auipc	ra,0x5
   154e0:	73a080e7          	jalr	1850(ra) # 1ac16 <memcpy>
   154e4:	02310513          	addi	a0,sp,35
   154e8:	05100613          	li	a2,81
   154ec:	4581                	li	a1,0
   154ee:	00005097          	auipc	ra,0x5
   154f2:	6bc080e7          	jalr	1724(ra) # 1abaa <memset>
   154f6:	6509                	lui	a0,0x2
   154f8:	4489                	li	s1,2
   154fa:	4589                	li	a1,2
   154fc:	00510613          	addi	a2,sp,5
   15500:	96b50793          	addi	a5,a0,-1685 # 196b <.Lline_table_start1+0x1740>
   15504:	46f9                	li	a3,30
   15506:	4711                	li	a4,4
   15508:	853e                	mv	a0,a5
   1550a:	00000073          	ecall
   1550e:	02950b63          	beq	a0,s1,15544 <_ZN18complex_no_dynamic3app17haf9e69833fc6d8eaE+0x78>
   15512:	02310613          	addi	a2,sp,35
   15516:	05100693          	li	a3,81
   1551a:	470d                	li	a4,3
   1551c:	853e                	mv	a0,a5
   1551e:	4581                	li	a1,0
   15520:	00000073          	ecall
   15524:	02950063          	beq	a0,s1,15544 <_ZN18complex_no_dynamic3app17haf9e69833fc6d8eaE+0x78>
   15528:	6509                	lui	a0,0x2
   1552a:	4589                	li	a1,2
   1552c:	96b50493          	addi	s1,a0,-1685 # 196b <.Lline_table_start1+0x1740>
   15530:	4709                	li	a4,2
   15532:	07f00793          	li	a5,127
   15536:	8526                	mv	a0,s1
   15538:	4601                	li	a2,0
   1553a:	4681                	li	a3,0
   1553c:	00000073          	ecall
   15540:	02a7ed63          	bltu	a5,a0,1557a <_ZN18complex_no_dynamic3app17haf9e69833fc6d8eaE+0xae>
   15544:	872e                	mv	a4,a1
   15546:	4581                	li	a1,0
   15548:	4601                	li	a2,0
   1554a:	4681                	li	a3,0
   1554c:	4505                	li	a0,1
   1554e:	6789                	lui	a5,0x2
   15550:	00a40023          	sb	a0,0(s0)
   15554:	c058                	sw	a4,4(s0)
   15556:	96b78793          	addi	a5,a5,-1685 # 196b <.Lline_table_start1+0x1740>
   1555a:	470d                	li	a4,3
   1555c:	853e                	mv	a0,a5
   1555e:	00000073          	ecall
   15562:	4589                	li	a1,2
   15564:	4711                	li	a4,4
   15566:	853e                	mv	a0,a5
   15568:	4601                	li	a2,0
   1556a:	4681                	li	a3,0
   1556c:	00000073          	ecall
   15570:	50f6                	lw	ra,124(sp)
   15572:	5466                	lw	s0,120(sp)
   15574:	54d6                	lw	s1,116(sp)
   15576:	6109                	addi	sp,sp,128
   15578:	8082                	ret
   1557a:	470d                	li	a4,3
   1557c:	8526                	mv	a0,s1
   1557e:	4581                	li	a1,0
   15580:	4601                	li	a2,0
   15582:	4681                	li	a3,0
   15584:	00000073          	ecall
   15588:	470d                	li	a4,3
   1558a:	8526                	mv	a0,s1
   1558c:	4581                	li	a1,0
   1558e:	4601                	li	a2,0
   15590:	4681                	li	a3,0
   15592:	00000073          	ecall
   15596:	00140513          	addi	a0,s0,1
   1559a:	02310593          	addi	a1,sp,35
   1559e:	05100613          	li	a2,81
   155a2:	00005097          	auipc	ra,0x5
   155a6:	674080e7          	jalr	1652(ra) # 1ac16 <memcpy>
   155aa:	8526                	mv	a0,s1
   155ac:	4581                	li	a1,0
   155ae:	4601                	li	a2,0
   155b0:	4681                	li	a3,0
   155b2:	00040023          	sb	zero,0(s0)
   155b6:	470d                	li	a4,3
   155b8:	00000073          	ecall
   155bc:	4589                	li	a1,2
   155be:	4711                	li	a4,4
   155c0:	8526                	mv	a0,s1
   155c2:	4601                	li	a2,0
   155c4:	4681                	li	a3,0
   155c6:	00000073          	ecall
   155ca:	b75d                	j	15570 <_ZN18complex_no_dynamic3app17haf9e69833fc6d8eaE+0xa4>

000155cc <_ZN18complex_no_dynamic3app17haff89b87b9244897E>:
   155cc:	7159                	addi	sp,sp,-112
   155ce:	d686                	sw	ra,108(sp)
   155d0:	d4a2                	sw	s0,104(sp)
   155d2:	d2a6                	sw	s1,100(sp)
   155d4:	842a                	mv	s0,a0
   155d6:	00a10513          	addi	a0,sp,10
   155da:	4679                	li	a2,30
   155dc:	00005097          	auipc	ra,0x5
   155e0:	63a080e7          	jalr	1594(ra) # 1ac16 <memcpy>
   155e4:	1028                	addi	a0,sp,40
   155e6:	03c00613          	li	a2,60
   155ea:	4581                	li	a1,0
   155ec:	00005097          	auipc	ra,0x5
   155f0:	5be080e7          	jalr	1470(ra) # 1abaa <memset>
   155f4:	6505                	lui	a0,0x1
   155f6:	4489                	li	s1,2
   155f8:	4589                	li	a1,2
   155fa:	00a10613          	addi	a2,sp,10
   155fe:	b3c50793          	addi	a5,a0,-1220 # b3c <.Lline_table_start1+0x911>
   15602:	46f9                	li	a3,30
   15604:	4711                	li	a4,4
   15606:	853e                	mv	a0,a5
   15608:	00000073          	ecall
   1560c:	02950a63          	beq	a0,s1,15640 <_ZN18complex_no_dynamic3app17haff89b87b9244897E+0x74>
   15610:	458d                	li	a1,3
   15612:	1030                	addi	a2,sp,40
   15614:	03c00693          	li	a3,60
   15618:	470d                	li	a4,3
   1561a:	853e                	mv	a0,a5
   1561c:	00000073          	ecall
   15620:	02950063          	beq	a0,s1,15640 <_ZN18complex_no_dynamic3app17haff89b87b9244897E+0x74>
   15624:	6505                	lui	a0,0x1
   15626:	4589                	li	a1,2
   15628:	460d                	li	a2,3
   1562a:	b3c50493          	addi	s1,a0,-1220 # b3c <.Lline_table_start1+0x911>
   1562e:	4709                	li	a4,2
   15630:	07f00793          	li	a5,127
   15634:	8526                	mv	a0,s1
   15636:	4681                	li	a3,0
   15638:	00000073          	ecall
   1563c:	02a7ed63          	bltu	a5,a0,15676 <_ZN18complex_no_dynamic3app17haff89b87b9244897E+0xaa>
   15640:	872e                	mv	a4,a1
   15642:	4601                	li	a2,0
   15644:	4681                	li	a3,0
   15646:	4505                	li	a0,1
   15648:	6785                	lui	a5,0x1
   1564a:	458d                	li	a1,3
   1564c:	00a40023          	sb	a0,0(s0)
   15650:	c058                	sw	a4,4(s0)
   15652:	b3c78793          	addi	a5,a5,-1220 # b3c <.Lline_table_start1+0x911>
   15656:	470d                	li	a4,3
   15658:	853e                	mv	a0,a5
   1565a:	00000073          	ecall
   1565e:	4589                	li	a1,2
   15660:	4711                	li	a4,4
   15662:	853e                	mv	a0,a5
   15664:	4601                	li	a2,0
   15666:	4681                	li	a3,0
   15668:	00000073          	ecall
   1566c:	50b6                	lw	ra,108(sp)
   1566e:	5426                	lw	s0,104(sp)
   15670:	5496                	lw	s1,100(sp)
   15672:	6165                	addi	sp,sp,112
   15674:	8082                	ret
   15676:	8526                	mv	a0,s1
   15678:	4601                	li	a2,0
   1567a:	4681                	li	a3,0
   1567c:	458d                	li	a1,3
   1567e:	470d                	li	a4,3
   15680:	00000073          	ecall
   15684:	458d                	li	a1,3
   15686:	470d                	li	a4,3
   15688:	8526                	mv	a0,s1
   1568a:	4601                	li	a2,0
   1568c:	4681                	li	a3,0
   1568e:	00000073          	ecall
   15692:	00140513          	addi	a0,s0,1
   15696:	102c                	addi	a1,sp,40
   15698:	03c00613          	li	a2,60
   1569c:	00005097          	auipc	ra,0x5
   156a0:	57a080e7          	jalr	1402(ra) # 1ac16 <memcpy>
   156a4:	8526                	mv	a0,s1
   156a6:	4601                	li	a2,0
   156a8:	4681                	li	a3,0
   156aa:	00040023          	sb	zero,0(s0)
   156ae:	458d                	li	a1,3
   156b0:	470d                	li	a4,3
   156b2:	00000073          	ecall
   156b6:	4589                	li	a1,2
   156b8:	4711                	li	a4,4
   156ba:	8526                	mv	a0,s1
   156bc:	4601                	li	a2,0
   156be:	4681                	li	a3,0
   156c0:	00000073          	ecall
   156c4:	b765                	j	1566c <_ZN18complex_no_dynamic3app17haff89b87b9244897E+0xa0>

000156c6 <_ZN18complex_no_dynamic3app17hb420ae334d9584c2E>:
   156c6:	7171                	addi	sp,sp,-176
   156c8:	d706                	sw	ra,172(sp)
   156ca:	d522                	sw	s0,168(sp)
   156cc:	d326                	sw	s1,164(sp)
   156ce:	842a                	mv	s0,a0
   156d0:	00710513          	addi	a0,sp,7
   156d4:	05d00613          	li	a2,93
   156d8:	00005097          	auipc	ra,0x5
   156dc:	53e080e7          	jalr	1342(ra) # 1ac16 <memcpy>
   156e0:	10c8                	addi	a0,sp,100
   156e2:	04000613          	li	a2,64
   156e6:	4581                	li	a1,0
   156e8:	00005097          	auipc	ra,0x5
   156ec:	4c2080e7          	jalr	1218(ra) # 1abaa <memset>
   156f0:	6505                	lui	a0,0x1
   156f2:	45a1                	li	a1,8
   156f4:	00710613          	addi	a2,sp,7
   156f8:	05d00693          	li	a3,93
   156fc:	02850793          	addi	a5,a0,40 # 1028 <.Lline_table_start1+0xdfd>
   15700:	4711                	li	a4,4
   15702:	4489                	li	s1,2
   15704:	853e                	mv	a0,a5
   15706:	00000073          	ecall
   1570a:	02950a63          	beq	a0,s1,1573e <_ZN18complex_no_dynamic3app17hb420ae334d9584c2E+0x78>
   1570e:	4591                	li	a1,4
   15710:	10d0                	addi	a2,sp,100
   15712:	04000693          	li	a3,64
   15716:	470d                	li	a4,3
   15718:	853e                	mv	a0,a5
   1571a:	00000073          	ecall
   1571e:	02950063          	beq	a0,s1,1573e <_ZN18complex_no_dynamic3app17hb420ae334d9584c2E+0x78>
   15722:	6505                	lui	a0,0x1
   15724:	45a1                	li	a1,8
   15726:	4611                	li	a2,4
   15728:	02850493          	addi	s1,a0,40 # 1028 <.Lline_table_start1+0xdfd>
   1572c:	4709                	li	a4,2
   1572e:	07f00793          	li	a5,127
   15732:	8526                	mv	a0,s1
   15734:	4681                	li	a3,0
   15736:	00000073          	ecall
   1573a:	02a7ed63          	bltu	a5,a0,15774 <_ZN18complex_no_dynamic3app17hb420ae334d9584c2E+0xae>
   1573e:	872e                	mv	a4,a1
   15740:	4601                	li	a2,0
   15742:	4681                	li	a3,0
   15744:	4505                	li	a0,1
   15746:	6785                	lui	a5,0x1
   15748:	4591                	li	a1,4
   1574a:	00a40023          	sb	a0,0(s0)
   1574e:	c058                	sw	a4,4(s0)
   15750:	02878793          	addi	a5,a5,40 # 1028 <.Lline_table_start1+0xdfd>
   15754:	470d                	li	a4,3
   15756:	853e                	mv	a0,a5
   15758:	00000073          	ecall
   1575c:	45a1                	li	a1,8
   1575e:	4711                	li	a4,4
   15760:	853e                	mv	a0,a5
   15762:	4601                	li	a2,0
   15764:	4681                	li	a3,0
   15766:	00000073          	ecall
   1576a:	50ba                	lw	ra,172(sp)
   1576c:	542a                	lw	s0,168(sp)
   1576e:	549a                	lw	s1,164(sp)
   15770:	614d                	addi	sp,sp,176
   15772:	8082                	ret
   15774:	8526                	mv	a0,s1
   15776:	4601                	li	a2,0
   15778:	4681                	li	a3,0
   1577a:	4591                	li	a1,4
   1577c:	470d                	li	a4,3
   1577e:	00000073          	ecall
   15782:	4591                	li	a1,4
   15784:	470d                	li	a4,3
   15786:	8526                	mv	a0,s1
   15788:	4601                	li	a2,0
   1578a:	4681                	li	a3,0
   1578c:	00000073          	ecall
   15790:	00140513          	addi	a0,s0,1
   15794:	10cc                	addi	a1,sp,100
   15796:	04000613          	li	a2,64
   1579a:	00005097          	auipc	ra,0x5
   1579e:	47c080e7          	jalr	1148(ra) # 1ac16 <memcpy>
   157a2:	8526                	mv	a0,s1
   157a4:	4601                	li	a2,0
   157a6:	4681                	li	a3,0
   157a8:	00040023          	sb	zero,0(s0)
   157ac:	4591                	li	a1,4
   157ae:	470d                	li	a4,3
   157b0:	00000073          	ecall
   157b4:	45a1                	li	a1,8
   157b6:	4711                	li	a4,4
   157b8:	8526                	mv	a0,s1
   157ba:	4601                	li	a2,0
   157bc:	4681                	li	a3,0
   157be:	00000073          	ecall
   157c2:	b765                	j	1576a <_ZN18complex_no_dynamic3app17hb420ae334d9584c2E+0xa4>

000157c4 <_ZN18complex_no_dynamic3app17hb69cc72cf005743eE>:
   157c4:	7135                	addi	sp,sp,-160
   157c6:	cf06                	sw	ra,156(sp)
   157c8:	cd22                	sw	s0,152(sp)
   157ca:	cb26                	sw	s1,148(sp)
   157cc:	842a                	mv	s0,a0
   157ce:	0028                	addi	a0,sp,8
   157d0:	05000613          	li	a2,80
   157d4:	00005097          	auipc	ra,0x5
   157d8:	442080e7          	jalr	1090(ra) # 1ac16 <memcpy>
   157dc:	08a8                	addi	a0,sp,88
   157de:	03c00613          	li	a2,60
   157e2:	4581                	li	a1,0
   157e4:	00005097          	auipc	ra,0x5
   157e8:	3c6080e7          	jalr	966(ra) # 1abaa <memset>
   157ec:	6505                	lui	a0,0x1
   157ee:	458d                	li	a1,3
   157f0:	0030                	addi	a2,sp,8
   157f2:	05000693          	li	a3,80
   157f6:	d7a50793          	addi	a5,a0,-646 # d7a <.Lline_table_start1+0xb4f>
   157fa:	4711                	li	a4,4
   157fc:	4489                	li	s1,2
   157fe:	853e                	mv	a0,a5
   15800:	00000073          	ecall
   15804:	02950a63          	beq	a0,s1,15838 <_ZN18complex_no_dynamic3app17hb69cc72cf005743eE+0x74>
   15808:	45a5                	li	a1,9
   1580a:	08b0                	addi	a2,sp,88
   1580c:	03c00693          	li	a3,60
   15810:	470d                	li	a4,3
   15812:	853e                	mv	a0,a5
   15814:	00000073          	ecall
   15818:	02950063          	beq	a0,s1,15838 <_ZN18complex_no_dynamic3app17hb69cc72cf005743eE+0x74>
   1581c:	6505                	lui	a0,0x1
   1581e:	458d                	li	a1,3
   15820:	4625                	li	a2,9
   15822:	d7a50493          	addi	s1,a0,-646 # d7a <.Lline_table_start1+0xb4f>
   15826:	4709                	li	a4,2
   15828:	07f00793          	li	a5,127
   1582c:	8526                	mv	a0,s1
   1582e:	4681                	li	a3,0
   15830:	00000073          	ecall
   15834:	02a7ed63          	bltu	a5,a0,1586e <_ZN18complex_no_dynamic3app17hb69cc72cf005743eE+0xaa>
   15838:	872e                	mv	a4,a1
   1583a:	4601                	li	a2,0
   1583c:	4681                	li	a3,0
   1583e:	4505                	li	a0,1
   15840:	6785                	lui	a5,0x1
   15842:	45a5                	li	a1,9
   15844:	00a40023          	sb	a0,0(s0)
   15848:	c058                	sw	a4,4(s0)
   1584a:	d7a78793          	addi	a5,a5,-646 # d7a <.Lline_table_start1+0xb4f>
   1584e:	470d                	li	a4,3
   15850:	853e                	mv	a0,a5
   15852:	00000073          	ecall
   15856:	458d                	li	a1,3
   15858:	4711                	li	a4,4
   1585a:	853e                	mv	a0,a5
   1585c:	4601                	li	a2,0
   1585e:	4681                	li	a3,0
   15860:	00000073          	ecall
   15864:	40fa                	lw	ra,156(sp)
   15866:	446a                	lw	s0,152(sp)
   15868:	44da                	lw	s1,148(sp)
   1586a:	610d                	addi	sp,sp,160
   1586c:	8082                	ret
   1586e:	8526                	mv	a0,s1
   15870:	4601                	li	a2,0
   15872:	4681                	li	a3,0
   15874:	45a5                	li	a1,9
   15876:	470d                	li	a4,3
   15878:	00000073          	ecall
   1587c:	45a5                	li	a1,9
   1587e:	470d                	li	a4,3
   15880:	8526                	mv	a0,s1
   15882:	4601                	li	a2,0
   15884:	4681                	li	a3,0
   15886:	00000073          	ecall
   1588a:	00140513          	addi	a0,s0,1
   1588e:	08ac                	addi	a1,sp,88
   15890:	03c00613          	li	a2,60
   15894:	00005097          	auipc	ra,0x5
   15898:	382080e7          	jalr	898(ra) # 1ac16 <memcpy>
   1589c:	8526                	mv	a0,s1
   1589e:	4601                	li	a2,0
   158a0:	4681                	li	a3,0
   158a2:	00040023          	sb	zero,0(s0)
   158a6:	45a5                	li	a1,9
   158a8:	470d                	li	a4,3
   158aa:	00000073          	ecall
   158ae:	458d                	li	a1,3
   158b0:	4711                	li	a4,4
   158b2:	8526                	mv	a0,s1
   158b4:	4601                	li	a2,0
   158b6:	4681                	li	a3,0
   158b8:	00000073          	ecall
   158bc:	b765                	j	15864 <_ZN18complex_no_dynamic3app17hb69cc72cf005743eE+0xa0>

000158be <_ZN18complex_no_dynamic3app17hba2a6d61020e1a0bE>:
   158be:	715d                	addi	sp,sp,-80
   158c0:	c686                	sw	ra,76(sp)
   158c2:	c4a2                	sw	s0,72(sp)
   158c4:	c2a6                	sw	s1,68(sp)
   158c6:	842a                	mv	s0,a0
   158c8:	00f10513          	addi	a0,sp,15
   158cc:	4669                	li	a2,26
   158ce:	00005097          	auipc	ra,0x5
   158d2:	348080e7          	jalr	840(ra) # 1ac16 <memcpy>
   158d6:	02910513          	addi	a0,sp,41
   158da:	466d                	li	a2,27
   158dc:	4581                	li	a1,0
   158de:	00005097          	auipc	ra,0x5
   158e2:	2cc080e7          	jalr	716(ra) # 1abaa <memset>
   158e6:	6509                	lui	a0,0x2
   158e8:	4595                	li	a1,5
   158ea:	00f10613          	addi	a2,sp,15
   158ee:	46e9                	li	a3,26
   158f0:	cce50793          	addi	a5,a0,-818 # 1cce <.Lline_table_start1+0x1aa3>
   158f4:	4711                	li	a4,4
   158f6:	4489                	li	s1,2
   158f8:	853e                	mv	a0,a5
   158fa:	00000073          	ecall
   158fe:	02950a63          	beq	a0,s1,15932 <_ZN18complex_no_dynamic3app17hba2a6d61020e1a0bE+0x74>
   15902:	4589                	li	a1,2
   15904:	02910613          	addi	a2,sp,41
   15908:	46ed                	li	a3,27
   1590a:	470d                	li	a4,3
   1590c:	853e                	mv	a0,a5
   1590e:	00000073          	ecall
   15912:	02950063          	beq	a0,s1,15932 <_ZN18complex_no_dynamic3app17hba2a6d61020e1a0bE+0x74>
   15916:	6509                	lui	a0,0x2
   15918:	4595                	li	a1,5
   1591a:	4609                	li	a2,2
   1591c:	cce50493          	addi	s1,a0,-818 # 1cce <.Lline_table_start1+0x1aa3>
   15920:	4709                	li	a4,2
   15922:	07f00793          	li	a5,127
   15926:	8526                	mv	a0,s1
   15928:	4681                	li	a3,0
   1592a:	00000073          	ecall
   1592e:	02a7ed63          	bltu	a5,a0,15968 <_ZN18complex_no_dynamic3app17hba2a6d61020e1a0bE+0xaa>
   15932:	872e                	mv	a4,a1
   15934:	4601                	li	a2,0
   15936:	4681                	li	a3,0
   15938:	4505                	li	a0,1
   1593a:	6789                	lui	a5,0x2
   1593c:	4589                	li	a1,2
   1593e:	00a40023          	sb	a0,0(s0)
   15942:	c058                	sw	a4,4(s0)
   15944:	cce78793          	addi	a5,a5,-818 # 1cce <.Lline_table_start1+0x1aa3>
   15948:	470d                	li	a4,3
   1594a:	853e                	mv	a0,a5
   1594c:	00000073          	ecall
   15950:	4595                	li	a1,5
   15952:	4711                	li	a4,4
   15954:	853e                	mv	a0,a5
   15956:	4601                	li	a2,0
   15958:	4681                	li	a3,0
   1595a:	00000073          	ecall
   1595e:	40b6                	lw	ra,76(sp)
   15960:	4426                	lw	s0,72(sp)
   15962:	4496                	lw	s1,68(sp)
   15964:	6161                	addi	sp,sp,80
   15966:	8082                	ret
   15968:	8526                	mv	a0,s1
   1596a:	4601                	li	a2,0
   1596c:	4681                	li	a3,0
   1596e:	4589                	li	a1,2
   15970:	470d                	li	a4,3
   15972:	00000073          	ecall
   15976:	4589                	li	a1,2
   15978:	470d                	li	a4,3
   1597a:	8526                	mv	a0,s1
   1597c:	4601                	li	a2,0
   1597e:	4681                	li	a3,0
   15980:	00000073          	ecall
   15984:	00140513          	addi	a0,s0,1
   15988:	02910593          	addi	a1,sp,41
   1598c:	466d                	li	a2,27
   1598e:	00005097          	auipc	ra,0x5
   15992:	288080e7          	jalr	648(ra) # 1ac16 <memcpy>
   15996:	8526                	mv	a0,s1
   15998:	4601                	li	a2,0
   1599a:	4681                	li	a3,0
   1599c:	00040023          	sb	zero,0(s0)
   159a0:	4589                	li	a1,2
   159a2:	470d                	li	a4,3
   159a4:	00000073          	ecall
   159a8:	4595                	li	a1,5
   159aa:	4711                	li	a4,4
   159ac:	8526                	mv	a0,s1
   159ae:	4601                	li	a2,0
   159b0:	4681                	li	a3,0
   159b2:	00000073          	ecall
   159b6:	b765                	j	1595e <_ZN18complex_no_dynamic3app17hba2a6d61020e1a0bE+0xa0>

000159b8 <_ZN18complex_no_dynamic3app17hbc9f9cb8ad78fbc9E>:
   159b8:	7175                	addi	sp,sp,-144
   159ba:	c706                	sw	ra,140(sp)
   159bc:	c522                	sw	s0,136(sp)
   159be:	c326                	sw	s1,132(sp)
   159c0:	842a                	mv	s0,a0
   159c2:	850a                	mv	a0,sp
   159c4:	04f00613          	li	a2,79
   159c8:	00005097          	auipc	ra,0x5
   159cc:	24e080e7          	jalr	590(ra) # 1ac16 <memcpy>
   159d0:	04f10513          	addi	a0,sp,79
   159d4:	03500613          	li	a2,53
   159d8:	4581                	li	a1,0
   159da:	00005097          	auipc	ra,0x5
   159de:	1d0080e7          	jalr	464(ra) # 1abaa <memset>
   159e2:	6505                	lui	a0,0x1
   159e4:	459d                	li	a1,7
   159e6:	860a                	mv	a2,sp
   159e8:	04f00693          	li	a3,79
   159ec:	6d750793          	addi	a5,a0,1751 # 16d7 <.Lline_table_start1+0x14ac>
   159f0:	4711                	li	a4,4
   159f2:	4489                	li	s1,2
   159f4:	853e                	mv	a0,a5
   159f6:	00000073          	ecall
   159fa:	02950b63          	beq	a0,s1,15a30 <_ZN18complex_no_dynamic3app17hbc9f9cb8ad78fbc9E+0x78>
   159fe:	4585                	li	a1,1
   15a00:	04f10613          	addi	a2,sp,79
   15a04:	03500693          	li	a3,53
   15a08:	470d                	li	a4,3
   15a0a:	853e                	mv	a0,a5
   15a0c:	00000073          	ecall
   15a10:	02950063          	beq	a0,s1,15a30 <_ZN18complex_no_dynamic3app17hbc9f9cb8ad78fbc9E+0x78>
   15a14:	6505                	lui	a0,0x1
   15a16:	459d                	li	a1,7
   15a18:	4605                	li	a2,1
   15a1a:	6d750493          	addi	s1,a0,1751 # 16d7 <.Lline_table_start1+0x14ac>
   15a1e:	4709                	li	a4,2
   15a20:	07f00793          	li	a5,127
   15a24:	8526                	mv	a0,s1
   15a26:	4681                	li	a3,0
   15a28:	00000073          	ecall
   15a2c:	02a7ed63          	bltu	a5,a0,15a66 <_ZN18complex_no_dynamic3app17hbc9f9cb8ad78fbc9E+0xae>
   15a30:	872e                	mv	a4,a1
   15a32:	4601                	li	a2,0
   15a34:	4681                	li	a3,0
   15a36:	4505                	li	a0,1
   15a38:	6785                	lui	a5,0x1
   15a3a:	4585                	li	a1,1
   15a3c:	00a40023          	sb	a0,0(s0)
   15a40:	c058                	sw	a4,4(s0)
   15a42:	6d778793          	addi	a5,a5,1751 # 16d7 <.Lline_table_start1+0x14ac>
   15a46:	470d                	li	a4,3
   15a48:	853e                	mv	a0,a5
   15a4a:	00000073          	ecall
   15a4e:	459d                	li	a1,7
   15a50:	4711                	li	a4,4
   15a52:	853e                	mv	a0,a5
   15a54:	4601                	li	a2,0
   15a56:	4681                	li	a3,0
   15a58:	00000073          	ecall
   15a5c:	40ba                	lw	ra,140(sp)
   15a5e:	442a                	lw	s0,136(sp)
   15a60:	449a                	lw	s1,132(sp)
   15a62:	6149                	addi	sp,sp,144
   15a64:	8082                	ret
   15a66:	8526                	mv	a0,s1
   15a68:	4601                	li	a2,0
   15a6a:	4681                	li	a3,0
   15a6c:	4585                	li	a1,1
   15a6e:	470d                	li	a4,3
   15a70:	00000073          	ecall
   15a74:	4585                	li	a1,1
   15a76:	470d                	li	a4,3
   15a78:	8526                	mv	a0,s1
   15a7a:	4601                	li	a2,0
   15a7c:	4681                	li	a3,0
   15a7e:	00000073          	ecall
   15a82:	00140513          	addi	a0,s0,1
   15a86:	04f10593          	addi	a1,sp,79
   15a8a:	03500613          	li	a2,53
   15a8e:	00005097          	auipc	ra,0x5
   15a92:	188080e7          	jalr	392(ra) # 1ac16 <memcpy>
   15a96:	8526                	mv	a0,s1
   15a98:	4601                	li	a2,0
   15a9a:	4681                	li	a3,0
   15a9c:	00040023          	sb	zero,0(s0)
   15aa0:	4585                	li	a1,1
   15aa2:	470d                	li	a4,3
   15aa4:	00000073          	ecall
   15aa8:	459d                	li	a1,7
   15aaa:	4711                	li	a4,4
   15aac:	8526                	mv	a0,s1
   15aae:	4601                	li	a2,0
   15ab0:	4681                	li	a3,0
   15ab2:	00000073          	ecall
   15ab6:	b75d                	j	15a5c <_ZN18complex_no_dynamic3app17hbc9f9cb8ad78fbc9E+0xa4>

00015ab8 <_ZN18complex_no_dynamic3app17hc0b3f312462e46f5E>:
   15ab8:	711d                	addi	sp,sp,-96
   15aba:	ce86                	sw	ra,92(sp)
   15abc:	cca2                	sw	s0,88(sp)
   15abe:	caa6                	sw	s1,84(sp)
   15ac0:	842a                	mv	s0,a0
   15ac2:	00910513          	addi	a0,sp,9
   15ac6:	02100613          	li	a2,33
   15aca:	00005097          	auipc	ra,0x5
   15ace:	14c080e7          	jalr	332(ra) # 1ac16 <memcpy>
   15ad2:	02a10513          	addi	a0,sp,42
   15ad6:	02a00613          	li	a2,42
   15ada:	4581                	li	a1,0
   15adc:	00005097          	auipc	ra,0x5
   15ae0:	0ce080e7          	jalr	206(ra) # 1abaa <memset>
   15ae4:	6505                	lui	a0,0x1
   15ae6:	4585                	li	a1,1
   15ae8:	00910613          	addi	a2,sp,9
   15aec:	02100693          	li	a3,33
   15af0:	5f350793          	addi	a5,a0,1523 # 15f3 <.Lline_table_start1+0x13c8>
   15af4:	4711                	li	a4,4
   15af6:	4489                	li	s1,2
   15af8:	853e                	mv	a0,a5
   15afa:	00000073          	ecall
   15afe:	02950b63          	beq	a0,s1,15b34 <_ZN18complex_no_dynamic3app17hc0b3f312462e46f5E+0x7c>
   15b02:	458d                	li	a1,3
   15b04:	02a10613          	addi	a2,sp,42
   15b08:	02a00693          	li	a3,42
   15b0c:	470d                	li	a4,3
   15b0e:	853e                	mv	a0,a5
   15b10:	00000073          	ecall
   15b14:	02950063          	beq	a0,s1,15b34 <_ZN18complex_no_dynamic3app17hc0b3f312462e46f5E+0x7c>
   15b18:	6505                	lui	a0,0x1
   15b1a:	4585                	li	a1,1
   15b1c:	460d                	li	a2,3
   15b1e:	5f350493          	addi	s1,a0,1523 # 15f3 <.Lline_table_start1+0x13c8>
   15b22:	4709                	li	a4,2
   15b24:	07f00793          	li	a5,127
   15b28:	8526                	mv	a0,s1
   15b2a:	4681                	li	a3,0
   15b2c:	00000073          	ecall
   15b30:	02a7ed63          	bltu	a5,a0,15b6a <_ZN18complex_no_dynamic3app17hc0b3f312462e46f5E+0xb2>
   15b34:	872e                	mv	a4,a1
   15b36:	4601                	li	a2,0
   15b38:	4681                	li	a3,0
   15b3a:	4505                	li	a0,1
   15b3c:	6785                	lui	a5,0x1
   15b3e:	458d                	li	a1,3
   15b40:	00a40023          	sb	a0,0(s0)
   15b44:	c058                	sw	a4,4(s0)
   15b46:	5f378793          	addi	a5,a5,1523 # 15f3 <.Lline_table_start1+0x13c8>
   15b4a:	470d                	li	a4,3
   15b4c:	853e                	mv	a0,a5
   15b4e:	00000073          	ecall
   15b52:	4585                	li	a1,1
   15b54:	4711                	li	a4,4
   15b56:	853e                	mv	a0,a5
   15b58:	4601                	li	a2,0
   15b5a:	4681                	li	a3,0
   15b5c:	00000073          	ecall
   15b60:	40f6                	lw	ra,92(sp)
   15b62:	4466                	lw	s0,88(sp)
   15b64:	44d6                	lw	s1,84(sp)
   15b66:	6125                	addi	sp,sp,96
   15b68:	8082                	ret
   15b6a:	8526                	mv	a0,s1
   15b6c:	4601                	li	a2,0
   15b6e:	4681                	li	a3,0
   15b70:	458d                	li	a1,3
   15b72:	470d                	li	a4,3
   15b74:	00000073          	ecall
   15b78:	458d                	li	a1,3
   15b7a:	470d                	li	a4,3
   15b7c:	8526                	mv	a0,s1
   15b7e:	4601                	li	a2,0
   15b80:	4681                	li	a3,0
   15b82:	00000073          	ecall
   15b86:	00140513          	addi	a0,s0,1
   15b8a:	02a10593          	addi	a1,sp,42
   15b8e:	02a00613          	li	a2,42
   15b92:	00005097          	auipc	ra,0x5
   15b96:	084080e7          	jalr	132(ra) # 1ac16 <memcpy>
   15b9a:	8526                	mv	a0,s1
   15b9c:	4601                	li	a2,0
   15b9e:	4681                	li	a3,0
   15ba0:	00040023          	sb	zero,0(s0)
   15ba4:	458d                	li	a1,3
   15ba6:	470d                	li	a4,3
   15ba8:	00000073          	ecall
   15bac:	4585                	li	a1,1
   15bae:	4711                	li	a4,4
   15bb0:	8526                	mv	a0,s1
   15bb2:	4601                	li	a2,0
   15bb4:	4681                	li	a3,0
   15bb6:	00000073          	ecall
   15bba:	b75d                	j	15b60 <_ZN18complex_no_dynamic3app17hc0b3f312462e46f5E+0xa8>

00015bbc <_ZN18complex_no_dynamic3app17hc6ae53acbe3e3ff9E>:
   15bbc:	7135                	addi	sp,sp,-160
   15bbe:	cf06                	sw	ra,156(sp)
   15bc0:	cd22                	sw	s0,152(sp)
   15bc2:	842a                	mv	s0,a0
   15bc4:	00b10513          	addi	a0,sp,11
   15bc8:	02f00613          	li	a2,47
   15bcc:	00005097          	auipc	ra,0x5
   15bd0:	04a080e7          	jalr	74(ra) # 1ac16 <memcpy>
   15bd4:	03a10513          	addi	a0,sp,58
   15bd8:	05e00613          	li	a2,94
   15bdc:	4581                	li	a1,0
   15bde:	00005097          	auipc	ra,0x5
   15be2:	fcc080e7          	jalr	-52(ra) # 1abaa <memset>
   15be6:	22b00513          	li	a0,555
   15bea:	4595                	li	a1,5
   15bec:	00b10613          	addi	a2,sp,11
   15bf0:	02f00693          	li	a3,47
   15bf4:	4711                	li	a4,4
   15bf6:	4789                	li	a5,2
   15bf8:	00000073          	ecall
   15bfc:	02f50a63          	beq	a0,a5,15c30 <_ZN18complex_no_dynamic3app17hc6ae53acbe3e3ff9E+0x74>
   15c00:	22b00513          	li	a0,555
   15c04:	4589                	li	a1,2
   15c06:	03a10613          	addi	a2,sp,58
   15c0a:	05e00693          	li	a3,94
   15c0e:	470d                	li	a4,3
   15c10:	00000073          	ecall
   15c14:	00f50e63          	beq	a0,a5,15c30 <_ZN18complex_no_dynamic3app17hc6ae53acbe3e3ff9E+0x74>
   15c18:	22b00513          	li	a0,555
   15c1c:	4595                	li	a1,5
   15c1e:	4609                	li	a2,2
   15c20:	4709                	li	a4,2
   15c22:	07f00793          	li	a5,127
   15c26:	4681                	li	a3,0
   15c28:	00000073          	ecall
   15c2c:	02a7ea63          	bltu	a5,a0,15c60 <_ZN18complex_no_dynamic3app17hc6ae53acbe3e3ff9E+0xa4>
   15c30:	4601                	li	a2,0
   15c32:	4681                	li	a3,0
   15c34:	4705                	li	a4,1
   15c36:	22b00513          	li	a0,555
   15c3a:	00e40023          	sb	a4,0(s0)
   15c3e:	c04c                	sw	a1,4(s0)
   15c40:	4589                	li	a1,2
   15c42:	470d                	li	a4,3
   15c44:	00000073          	ecall
   15c48:	22b00513          	li	a0,555
   15c4c:	4595                	li	a1,5
   15c4e:	4711                	li	a4,4
   15c50:	4601                	li	a2,0
   15c52:	4681                	li	a3,0
   15c54:	00000073          	ecall
   15c58:	40fa                	lw	ra,156(sp)
   15c5a:	446a                	lw	s0,152(sp)
   15c5c:	610d                	addi	sp,sp,160
   15c5e:	8082                	ret
   15c60:	4601                	li	a2,0
   15c62:	4681                	li	a3,0
   15c64:	22b00513          	li	a0,555
   15c68:	4589                	li	a1,2
   15c6a:	470d                	li	a4,3
   15c6c:	00000073          	ecall
   15c70:	22b00513          	li	a0,555
   15c74:	4589                	li	a1,2
   15c76:	470d                	li	a4,3
   15c78:	4601                	li	a2,0
   15c7a:	4681                	li	a3,0
   15c7c:	00000073          	ecall
   15c80:	00140513          	addi	a0,s0,1
   15c84:	03a10593          	addi	a1,sp,58
   15c88:	05e00613          	li	a2,94
   15c8c:	00005097          	auipc	ra,0x5
   15c90:	f8a080e7          	jalr	-118(ra) # 1ac16 <memcpy>
   15c94:	4601                	li	a2,0
   15c96:	4681                	li	a3,0
   15c98:	00040023          	sb	zero,0(s0)
   15c9c:	22b00513          	li	a0,555
   15ca0:	4589                	li	a1,2
   15ca2:	470d                	li	a4,3
   15ca4:	00000073          	ecall
   15ca8:	22b00513          	li	a0,555
   15cac:	4595                	li	a1,5
   15cae:	4711                	li	a4,4
   15cb0:	4601                	li	a2,0
   15cb2:	4681                	li	a3,0
   15cb4:	00000073          	ecall
   15cb8:	b745                	j	15c58 <_ZN18complex_no_dynamic3app17hc6ae53acbe3e3ff9E+0x9c>

00015cba <_ZN18complex_no_dynamic3app17hc714c6ab445c53c2E>:
   15cba:	7159                	addi	sp,sp,-112
   15cbc:	d686                	sw	ra,108(sp)
   15cbe:	d4a2                	sw	s0,104(sp)
   15cc0:	d2a6                	sw	s1,100(sp)
   15cc2:	842a                	mv	s0,a0
   15cc4:	00310513          	addi	a0,sp,3
   15cc8:	4645                	li	a2,17
   15cca:	00005097          	auipc	ra,0x5
   15cce:	f4c080e7          	jalr	-180(ra) # 1ac16 <memcpy>
   15cd2:	0848                	addi	a0,sp,20
   15cd4:	05000613          	li	a2,80
   15cd8:	4581                	li	a1,0
   15cda:	00005097          	auipc	ra,0x5
   15cde:	ed0080e7          	jalr	-304(ra) # 1abaa <memset>
   15ce2:	6509                	lui	a0,0x2
   15ce4:	4599                	li	a1,6
   15ce6:	00310613          	addi	a2,sp,3
   15cea:	46c5                	li	a3,17
   15cec:	aa950793          	addi	a5,a0,-1367 # 1aa9 <.Lline_table_start1+0x187e>
   15cf0:	4711                	li	a4,4
   15cf2:	4489                	li	s1,2
   15cf4:	853e                	mv	a0,a5
   15cf6:	00000073          	ecall
   15cfa:	02950a63          	beq	a0,s1,15d2e <_ZN18complex_no_dynamic3app17hc714c6ab445c53c2E+0x74>
   15cfe:	4595                	li	a1,5
   15d00:	0850                	addi	a2,sp,20
   15d02:	05000693          	li	a3,80
   15d06:	470d                	li	a4,3
   15d08:	853e                	mv	a0,a5
   15d0a:	00000073          	ecall
   15d0e:	02950063          	beq	a0,s1,15d2e <_ZN18complex_no_dynamic3app17hc714c6ab445c53c2E+0x74>
   15d12:	6509                	lui	a0,0x2
   15d14:	4599                	li	a1,6
   15d16:	4615                	li	a2,5
   15d18:	aa950493          	addi	s1,a0,-1367 # 1aa9 <.Lline_table_start1+0x187e>
   15d1c:	4709                	li	a4,2
   15d1e:	07f00793          	li	a5,127
   15d22:	8526                	mv	a0,s1
   15d24:	4681                	li	a3,0
   15d26:	00000073          	ecall
   15d2a:	02a7ed63          	bltu	a5,a0,15d64 <_ZN18complex_no_dynamic3app17hc714c6ab445c53c2E+0xaa>
   15d2e:	872e                	mv	a4,a1
   15d30:	4601                	li	a2,0
   15d32:	4681                	li	a3,0
   15d34:	4505                	li	a0,1
   15d36:	6789                	lui	a5,0x2
   15d38:	4595                	li	a1,5
   15d3a:	00a40023          	sb	a0,0(s0)
   15d3e:	c058                	sw	a4,4(s0)
   15d40:	aa978793          	addi	a5,a5,-1367 # 1aa9 <.Lline_table_start1+0x187e>
   15d44:	470d                	li	a4,3
   15d46:	853e                	mv	a0,a5
   15d48:	00000073          	ecall
   15d4c:	4599                	li	a1,6
   15d4e:	4711                	li	a4,4
   15d50:	853e                	mv	a0,a5
   15d52:	4601                	li	a2,0
   15d54:	4681                	li	a3,0
   15d56:	00000073          	ecall
   15d5a:	50b6                	lw	ra,108(sp)
   15d5c:	5426                	lw	s0,104(sp)
   15d5e:	5496                	lw	s1,100(sp)
   15d60:	6165                	addi	sp,sp,112
   15d62:	8082                	ret
   15d64:	8526                	mv	a0,s1
   15d66:	4601                	li	a2,0
   15d68:	4681                	li	a3,0
   15d6a:	4595                	li	a1,5
   15d6c:	470d                	li	a4,3
   15d6e:	00000073          	ecall
   15d72:	4595                	li	a1,5
   15d74:	470d                	li	a4,3
   15d76:	8526                	mv	a0,s1
   15d78:	4601                	li	a2,0
   15d7a:	4681                	li	a3,0
   15d7c:	00000073          	ecall
   15d80:	00140513          	addi	a0,s0,1
   15d84:	084c                	addi	a1,sp,20
   15d86:	05000613          	li	a2,80
   15d8a:	00005097          	auipc	ra,0x5
   15d8e:	e8c080e7          	jalr	-372(ra) # 1ac16 <memcpy>
   15d92:	8526                	mv	a0,s1
   15d94:	4601                	li	a2,0
   15d96:	4681                	li	a3,0
   15d98:	00040023          	sb	zero,0(s0)
   15d9c:	4595                	li	a1,5
   15d9e:	470d                	li	a4,3
   15da0:	00000073          	ecall
   15da4:	4599                	li	a1,6
   15da6:	4711                	li	a4,4
   15da8:	8526                	mv	a0,s1
   15daa:	4601                	li	a2,0
   15dac:	4681                	li	a3,0
   15dae:	00000073          	ecall
   15db2:	b765                	j	15d5a <_ZN18complex_no_dynamic3app17hc714c6ab445c53c2E+0xa0>

00015db4 <_ZN18complex_no_dynamic3app17hc8273a35b732717bE>:
   15db4:	7171                	addi	sp,sp,-176
   15db6:	d706                	sw	ra,172(sp)
   15db8:	d522                	sw	s0,168(sp)
   15dba:	d326                	sw	s1,164(sp)
   15dbc:	842a                	mv	s0,a0
   15dbe:	00d10513          	addi	a0,sp,13
   15dc2:	03a00613          	li	a2,58
   15dc6:	00005097          	auipc	ra,0x5
   15dca:	e50080e7          	jalr	-432(ra) # 1ac16 <memcpy>
   15dce:	04710513          	addi	a0,sp,71
   15dd2:	05d00613          	li	a2,93
   15dd6:	4581                	li	a1,0
   15dd8:	00005097          	auipc	ra,0x5
   15ddc:	dd2080e7          	jalr	-558(ra) # 1abaa <memset>
   15de0:	6505                	lui	a0,0x1
   15de2:	00d10613          	addi	a2,sp,13
   15de6:	03a00693          	li	a3,58
   15dea:	4a450793          	addi	a5,a0,1188 # 14a4 <.Lline_table_start1+0x1279>
   15dee:	4711                	li	a4,4
   15df0:	4489                	li	s1,2
   15df2:	853e                	mv	a0,a5
   15df4:	4581                	li	a1,0
   15df6:	00000073          	ecall
   15dfa:	02950b63          	beq	a0,s1,15e30 <_ZN18complex_no_dynamic3app17hc8273a35b732717bE+0x7c>
   15dfe:	4595                	li	a1,5
   15e00:	04710613          	addi	a2,sp,71
   15e04:	05d00693          	li	a3,93
   15e08:	470d                	li	a4,3
   15e0a:	853e                	mv	a0,a5
   15e0c:	00000073          	ecall
   15e10:	02950063          	beq	a0,s1,15e30 <_ZN18complex_no_dynamic3app17hc8273a35b732717bE+0x7c>
   15e14:	6505                	lui	a0,0x1
   15e16:	4615                	li	a2,5
   15e18:	4a450493          	addi	s1,a0,1188 # 14a4 <.Lline_table_start1+0x1279>
   15e1c:	4709                	li	a4,2
   15e1e:	07f00793          	li	a5,127
   15e22:	8526                	mv	a0,s1
   15e24:	4581                	li	a1,0
   15e26:	4681                	li	a3,0
   15e28:	00000073          	ecall
   15e2c:	02a7ec63          	bltu	a5,a0,15e64 <_ZN18complex_no_dynamic3app17hc8273a35b732717bE+0xb0>
   15e30:	4505                	li	a0,1
   15e32:	6605                	lui	a2,0x1
   15e34:	00a40023          	sb	a0,0(s0)
   15e38:	c04c                	sw	a1,4(s0)
   15e3a:	4a460793          	addi	a5,a2,1188 # 14a4 <.Lline_table_start1+0x1279>
   15e3e:	4595                	li	a1,5
   15e40:	470d                	li	a4,3
   15e42:	853e                	mv	a0,a5
   15e44:	4601                	li	a2,0
   15e46:	4681                	li	a3,0
   15e48:	00000073          	ecall
   15e4c:	4711                	li	a4,4
   15e4e:	853e                	mv	a0,a5
   15e50:	4581                	li	a1,0
   15e52:	4601                	li	a2,0
   15e54:	4681                	li	a3,0
   15e56:	00000073          	ecall
   15e5a:	50ba                	lw	ra,172(sp)
   15e5c:	542a                	lw	s0,168(sp)
   15e5e:	549a                	lw	s1,164(sp)
   15e60:	614d                	addi	sp,sp,176
   15e62:	8082                	ret
   15e64:	8526                	mv	a0,s1
   15e66:	4601                	li	a2,0
   15e68:	4681                	li	a3,0
   15e6a:	4595                	li	a1,5
   15e6c:	470d                	li	a4,3
   15e6e:	00000073          	ecall
   15e72:	4595                	li	a1,5
   15e74:	470d                	li	a4,3
   15e76:	8526                	mv	a0,s1
   15e78:	4601                	li	a2,0
   15e7a:	4681                	li	a3,0
   15e7c:	00000073          	ecall
   15e80:	00140513          	addi	a0,s0,1
   15e84:	04710593          	addi	a1,sp,71
   15e88:	05d00613          	li	a2,93
   15e8c:	00005097          	auipc	ra,0x5
   15e90:	d8a080e7          	jalr	-630(ra) # 1ac16 <memcpy>
   15e94:	00040023          	sb	zero,0(s0)
   15e98:	4595                	li	a1,5
   15e9a:	470d                	li	a4,3
   15e9c:	8526                	mv	a0,s1
   15e9e:	4601                	li	a2,0
   15ea0:	4681                	li	a3,0
   15ea2:	00000073          	ecall
   15ea6:	4711                	li	a4,4
   15ea8:	8526                	mv	a0,s1
   15eaa:	4581                	li	a1,0
   15eac:	4601                	li	a2,0
   15eae:	4681                	li	a3,0
   15eb0:	00000073          	ecall
   15eb4:	b75d                	j	15e5a <_ZN18complex_no_dynamic3app17hc8273a35b732717bE+0xa6>

00015eb6 <_ZN18complex_no_dynamic3app17hc8d1224560a0980cE>:
   15eb6:	7119                	addi	sp,sp,-128
   15eb8:	de86                	sw	ra,124(sp)
   15eba:	dca2                	sw	s0,120(sp)
   15ebc:	daa6                	sw	s1,116(sp)
   15ebe:	842a                	mv	s0,a0
   15ec0:	850a                	mv	a0,sp
   15ec2:	03c00613          	li	a2,60
   15ec6:	00005097          	auipc	ra,0x5
   15eca:	d50080e7          	jalr	-688(ra) # 1ac16 <memcpy>
   15ece:	1868                	addi	a0,sp,60
   15ed0:	03800613          	li	a2,56
   15ed4:	4581                	li	a1,0
   15ed6:	00005097          	auipc	ra,0x5
   15eda:	cd4080e7          	jalr	-812(ra) # 1abaa <memset>
   15ede:	6509                	lui	a0,0x2
   15ee0:	458d                	li	a1,3
   15ee2:	860a                	mv	a2,sp
   15ee4:	03c00693          	li	a3,60
   15ee8:	d1950793          	addi	a5,a0,-743 # 1d19 <.Lline_table_start1+0x1aee>
   15eec:	4711                	li	a4,4
   15eee:	4489                	li	s1,2
   15ef0:	853e                	mv	a0,a5
   15ef2:	00000073          	ecall
   15ef6:	02950a63          	beq	a0,s1,15f2a <_ZN18complex_no_dynamic3app17hc8d1224560a0980cE+0x74>
   15efa:	458d                	li	a1,3
   15efc:	1870                	addi	a2,sp,60
   15efe:	03800693          	li	a3,56
   15f02:	470d                	li	a4,3
   15f04:	853e                	mv	a0,a5
   15f06:	00000073          	ecall
   15f0a:	02950063          	beq	a0,s1,15f2a <_ZN18complex_no_dynamic3app17hc8d1224560a0980cE+0x74>
   15f0e:	6509                	lui	a0,0x2
   15f10:	458d                	li	a1,3
   15f12:	460d                	li	a2,3
   15f14:	d1950493          	addi	s1,a0,-743 # 1d19 <.Lline_table_start1+0x1aee>
   15f18:	4709                	li	a4,2
   15f1a:	07f00793          	li	a5,127
   15f1e:	8526                	mv	a0,s1
   15f20:	4681                	li	a3,0
   15f22:	00000073          	ecall
   15f26:	02a7ed63          	bltu	a5,a0,15f60 <_ZN18complex_no_dynamic3app17hc8d1224560a0980cE+0xaa>
   15f2a:	872e                	mv	a4,a1
   15f2c:	4601                	li	a2,0
   15f2e:	4681                	li	a3,0
   15f30:	4505                	li	a0,1
   15f32:	6789                	lui	a5,0x2
   15f34:	458d                	li	a1,3
   15f36:	00a40023          	sb	a0,0(s0)
   15f3a:	c058                	sw	a4,4(s0)
   15f3c:	d1978793          	addi	a5,a5,-743 # 1d19 <.Lline_table_start1+0x1aee>
   15f40:	470d                	li	a4,3
   15f42:	853e                	mv	a0,a5
   15f44:	00000073          	ecall
   15f48:	458d                	li	a1,3
   15f4a:	4711                	li	a4,4
   15f4c:	853e                	mv	a0,a5
   15f4e:	4601                	li	a2,0
   15f50:	4681                	li	a3,0
   15f52:	00000073          	ecall
   15f56:	50f6                	lw	ra,124(sp)
   15f58:	5466                	lw	s0,120(sp)
   15f5a:	54d6                	lw	s1,116(sp)
   15f5c:	6109                	addi	sp,sp,128
   15f5e:	8082                	ret
   15f60:	8526                	mv	a0,s1
   15f62:	4601                	li	a2,0
   15f64:	4681                	li	a3,0
   15f66:	458d                	li	a1,3
   15f68:	470d                	li	a4,3
   15f6a:	00000073          	ecall
   15f6e:	458d                	li	a1,3
   15f70:	470d                	li	a4,3
   15f72:	8526                	mv	a0,s1
   15f74:	4601                	li	a2,0
   15f76:	4681                	li	a3,0
   15f78:	00000073          	ecall
   15f7c:	00140513          	addi	a0,s0,1
   15f80:	186c                	addi	a1,sp,60
   15f82:	03800613          	li	a2,56
   15f86:	00005097          	auipc	ra,0x5
   15f8a:	c90080e7          	jalr	-880(ra) # 1ac16 <memcpy>
   15f8e:	8526                	mv	a0,s1
   15f90:	4601                	li	a2,0
   15f92:	4681                	li	a3,0
   15f94:	00040023          	sb	zero,0(s0)
   15f98:	458d                	li	a1,3
   15f9a:	470d                	li	a4,3
   15f9c:	00000073          	ecall
   15fa0:	458d                	li	a1,3
   15fa2:	4711                	li	a4,4
   15fa4:	8526                	mv	a0,s1
   15fa6:	4601                	li	a2,0
   15fa8:	4681                	li	a3,0
   15faa:	00000073          	ecall
   15fae:	b765                	j	15f56 <_ZN18complex_no_dynamic3app17hc8d1224560a0980cE+0xa0>

00015fb0 <_ZN18complex_no_dynamic3app17hc8e5a686c8414377E>:
   15fb0:	715d                	addi	sp,sp,-80
   15fb2:	c686                	sw	ra,76(sp)
   15fb4:	c4a2                	sw	s0,72(sp)
   15fb6:	c2a6                	sw	s1,68(sp)
   15fb8:	842a                	mv	s0,a0
   15fba:	00e10513          	addi	a0,sp,14
   15fbe:	4661                	li	a2,24
   15fc0:	00005097          	auipc	ra,0x5
   15fc4:	c56080e7          	jalr	-938(ra) # 1ac16 <memcpy>
   15fc8:	02610513          	addi	a0,sp,38
   15fcc:	4679                	li	a2,30
   15fce:	4581                	li	a1,0
   15fd0:	00005097          	auipc	ra,0x5
   15fd4:	bda080e7          	jalr	-1062(ra) # 1abaa <memset>
   15fd8:	6505                	lui	a0,0x1
   15fda:	45a5                	li	a1,9
   15fdc:	00e10613          	addi	a2,sp,14
   15fe0:	46e1                	li	a3,24
   15fe2:	cbb50793          	addi	a5,a0,-837 # cbb <.Lline_table_start1+0xa90>
   15fe6:	4711                	li	a4,4
   15fe8:	4489                	li	s1,2
   15fea:	853e                	mv	a0,a5
   15fec:	00000073          	ecall
   15ff0:	02950a63          	beq	a0,s1,16024 <_ZN18complex_no_dynamic3app17hc8e5a686c8414377E+0x74>
   15ff4:	4595                	li	a1,5
   15ff6:	02610613          	addi	a2,sp,38
   15ffa:	46f9                	li	a3,30
   15ffc:	470d                	li	a4,3
   15ffe:	853e                	mv	a0,a5
   16000:	00000073          	ecall
   16004:	02950063          	beq	a0,s1,16024 <_ZN18complex_no_dynamic3app17hc8e5a686c8414377E+0x74>
   16008:	6505                	lui	a0,0x1
   1600a:	45a5                	li	a1,9
   1600c:	4615                	li	a2,5
   1600e:	cbb50493          	addi	s1,a0,-837 # cbb <.Lline_table_start1+0xa90>
   16012:	4709                	li	a4,2
   16014:	07f00793          	li	a5,127
   16018:	8526                	mv	a0,s1
   1601a:	4681                	li	a3,0
   1601c:	00000073          	ecall
   16020:	02a7ed63          	bltu	a5,a0,1605a <_ZN18complex_no_dynamic3app17hc8e5a686c8414377E+0xaa>
   16024:	872e                	mv	a4,a1
   16026:	4601                	li	a2,0
   16028:	4681                	li	a3,0
   1602a:	4505                	li	a0,1
   1602c:	6785                	lui	a5,0x1
   1602e:	4595                	li	a1,5
   16030:	00a40023          	sb	a0,0(s0)
   16034:	c058                	sw	a4,4(s0)
   16036:	cbb78793          	addi	a5,a5,-837 # cbb <.Lline_table_start1+0xa90>
   1603a:	470d                	li	a4,3
   1603c:	853e                	mv	a0,a5
   1603e:	00000073          	ecall
   16042:	45a5                	li	a1,9
   16044:	4711                	li	a4,4
   16046:	853e                	mv	a0,a5
   16048:	4601                	li	a2,0
   1604a:	4681                	li	a3,0
   1604c:	00000073          	ecall
   16050:	40b6                	lw	ra,76(sp)
   16052:	4426                	lw	s0,72(sp)
   16054:	4496                	lw	s1,68(sp)
   16056:	6161                	addi	sp,sp,80
   16058:	8082                	ret
   1605a:	8526                	mv	a0,s1
   1605c:	4601                	li	a2,0
   1605e:	4681                	li	a3,0
   16060:	4595                	li	a1,5
   16062:	470d                	li	a4,3
   16064:	00000073          	ecall
   16068:	4595                	li	a1,5
   1606a:	470d                	li	a4,3
   1606c:	8526                	mv	a0,s1
   1606e:	4601                	li	a2,0
   16070:	4681                	li	a3,0
   16072:	00000073          	ecall
   16076:	00140513          	addi	a0,s0,1
   1607a:	02610593          	addi	a1,sp,38
   1607e:	4679                	li	a2,30
   16080:	00005097          	auipc	ra,0x5
   16084:	b96080e7          	jalr	-1130(ra) # 1ac16 <memcpy>
   16088:	8526                	mv	a0,s1
   1608a:	4601                	li	a2,0
   1608c:	4681                	li	a3,0
   1608e:	00040023          	sb	zero,0(s0)
   16092:	4595                	li	a1,5
   16094:	470d                	li	a4,3
   16096:	00000073          	ecall
   1609a:	45a5                	li	a1,9
   1609c:	4711                	li	a4,4
   1609e:	8526                	mv	a0,s1
   160a0:	4601                	li	a2,0
   160a2:	4681                	li	a3,0
   160a4:	00000073          	ecall
   160a8:	b765                	j	16050 <_ZN18complex_no_dynamic3app17hc8e5a686c8414377E+0xa0>

000160aa <_ZN18complex_no_dynamic3app17hcd2c258cbd956adaE>:
   160aa:	7119                	addi	sp,sp,-128
   160ac:	de86                	sw	ra,124(sp)
   160ae:	dca2                	sw	s0,120(sp)
   160b0:	daa6                	sw	s1,116(sp)
   160b2:	842a                	mv	s0,a0
   160b4:	850a                	mv	a0,sp
   160b6:	02100613          	li	a2,33
   160ba:	00005097          	auipc	ra,0x5
   160be:	b5c080e7          	jalr	-1188(ra) # 1ac16 <memcpy>
   160c2:	02110513          	addi	a0,sp,33
   160c6:	05300613          	li	a2,83
   160ca:	4581                	li	a1,0
   160cc:	00005097          	auipc	ra,0x5
   160d0:	ade080e7          	jalr	-1314(ra) # 1abaa <memset>
   160d4:	6509                	lui	a0,0x2
   160d6:	4489                	li	s1,2
   160d8:	4589                	li	a1,2
   160da:	860a                	mv	a2,sp
   160dc:	53e50793          	addi	a5,a0,1342 # 253e <.Lline_table_start1+0x2313>
   160e0:	02100693          	li	a3,33
   160e4:	4711                	li	a4,4
   160e6:	853e                	mv	a0,a5
   160e8:	00000073          	ecall
   160ec:	02950b63          	beq	a0,s1,16122 <_ZN18complex_no_dynamic3app17hcd2c258cbd956adaE+0x78>
   160f0:	45a1                	li	a1,8
   160f2:	02110613          	addi	a2,sp,33
   160f6:	05300693          	li	a3,83
   160fa:	470d                	li	a4,3
   160fc:	853e                	mv	a0,a5
   160fe:	00000073          	ecall
   16102:	02950063          	beq	a0,s1,16122 <_ZN18complex_no_dynamic3app17hcd2c258cbd956adaE+0x78>
   16106:	6509                	lui	a0,0x2
   16108:	4589                	li	a1,2
   1610a:	4621                	li	a2,8
   1610c:	53e50493          	addi	s1,a0,1342 # 253e <.Lline_table_start1+0x2313>
   16110:	4709                	li	a4,2
   16112:	07f00793          	li	a5,127
   16116:	8526                	mv	a0,s1
   16118:	4681                	li	a3,0
   1611a:	00000073          	ecall
   1611e:	02a7ed63          	bltu	a5,a0,16158 <_ZN18complex_no_dynamic3app17hcd2c258cbd956adaE+0xae>
   16122:	872e                	mv	a4,a1
   16124:	4601                	li	a2,0
   16126:	4681                	li	a3,0
   16128:	4505                	li	a0,1
   1612a:	6789                	lui	a5,0x2
   1612c:	45a1                	li	a1,8
   1612e:	00a40023          	sb	a0,0(s0)
   16132:	c058                	sw	a4,4(s0)
   16134:	53e78793          	addi	a5,a5,1342 # 253e <.Lline_table_start1+0x2313>
   16138:	470d                	li	a4,3
   1613a:	853e                	mv	a0,a5
   1613c:	00000073          	ecall
   16140:	4589                	li	a1,2
   16142:	4711                	li	a4,4
   16144:	853e                	mv	a0,a5
   16146:	4601                	li	a2,0
   16148:	4681                	li	a3,0
   1614a:	00000073          	ecall
   1614e:	50f6                	lw	ra,124(sp)
   16150:	5466                	lw	s0,120(sp)
   16152:	54d6                	lw	s1,116(sp)
   16154:	6109                	addi	sp,sp,128
   16156:	8082                	ret
   16158:	8526                	mv	a0,s1
   1615a:	4601                	li	a2,0
   1615c:	4681                	li	a3,0
   1615e:	45a1                	li	a1,8
   16160:	470d                	li	a4,3
   16162:	00000073          	ecall
   16166:	45a1                	li	a1,8
   16168:	470d                	li	a4,3
   1616a:	8526                	mv	a0,s1
   1616c:	4601                	li	a2,0
   1616e:	4681                	li	a3,0
   16170:	00000073          	ecall
   16174:	00140513          	addi	a0,s0,1
   16178:	02110593          	addi	a1,sp,33
   1617c:	05300613          	li	a2,83
   16180:	00005097          	auipc	ra,0x5
   16184:	a96080e7          	jalr	-1386(ra) # 1ac16 <memcpy>
   16188:	8526                	mv	a0,s1
   1618a:	4601                	li	a2,0
   1618c:	4681                	li	a3,0
   1618e:	00040023          	sb	zero,0(s0)
   16192:	45a1                	li	a1,8
   16194:	470d                	li	a4,3
   16196:	00000073          	ecall
   1619a:	4589                	li	a1,2
   1619c:	4711                	li	a4,4
   1619e:	8526                	mv	a0,s1
   161a0:	4601                	li	a2,0
   161a2:	4681                	li	a3,0
   161a4:	00000073          	ecall
   161a8:	b75d                	j	1614e <_ZN18complex_no_dynamic3app17hcd2c258cbd956adaE+0xa4>

000161aa <_ZN18complex_no_dynamic3app17hcd76aebf00aa0341E>:
   161aa:	7175                	addi	sp,sp,-144
   161ac:	c706                	sw	ra,140(sp)
   161ae:	c522                	sw	s0,136(sp)
   161b0:	c326                	sw	s1,132(sp)
   161b2:	842a                	mv	s0,a0
   161b4:	00e10513          	addi	a0,sp,14
   161b8:	02700613          	li	a2,39
   161bc:	00005097          	auipc	ra,0x5
   161c0:	a5a080e7          	jalr	-1446(ra) # 1ac16 <memcpy>
   161c4:	03510513          	addi	a0,sp,53
   161c8:	04f00613          	li	a2,79
   161cc:	4581                	li	a1,0
   161ce:	00005097          	auipc	ra,0x5
   161d2:	9dc080e7          	jalr	-1572(ra) # 1abaa <memset>
   161d6:	6505                	lui	a0,0x1
   161d8:	45a5                	li	a1,9
   161da:	00e10613          	addi	a2,sp,14
   161de:	02700693          	li	a3,39
   161e2:	b4c50793          	addi	a5,a0,-1204 # b4c <.Lline_table_start1+0x921>
   161e6:	4711                	li	a4,4
   161e8:	4489                	li	s1,2
   161ea:	853e                	mv	a0,a5
   161ec:	00000073          	ecall
   161f0:	02950b63          	beq	a0,s1,16226 <_ZN18complex_no_dynamic3app17hcd76aebf00aa0341E+0x7c>
   161f4:	03510613          	addi	a2,sp,53
   161f8:	04f00693          	li	a3,79
   161fc:	470d                	li	a4,3
   161fe:	853e                	mv	a0,a5
   16200:	4581                	li	a1,0
   16202:	00000073          	ecall
   16206:	02950063          	beq	a0,s1,16226 <_ZN18complex_no_dynamic3app17hcd76aebf00aa0341E+0x7c>
   1620a:	6505                	lui	a0,0x1
   1620c:	45a5                	li	a1,9
   1620e:	b4c50493          	addi	s1,a0,-1204 # b4c <.Lline_table_start1+0x921>
   16212:	4709                	li	a4,2
   16214:	07f00793          	li	a5,127
   16218:	8526                	mv	a0,s1
   1621a:	4601                	li	a2,0
   1621c:	4681                	li	a3,0
   1621e:	00000073          	ecall
   16222:	02a7ed63          	bltu	a5,a0,1625c <_ZN18complex_no_dynamic3app17hcd76aebf00aa0341E+0xb2>
   16226:	872e                	mv	a4,a1
   16228:	4581                	li	a1,0
   1622a:	4601                	li	a2,0
   1622c:	4681                	li	a3,0
   1622e:	4505                	li	a0,1
   16230:	6785                	lui	a5,0x1
   16232:	00a40023          	sb	a0,0(s0)
   16236:	c058                	sw	a4,4(s0)
   16238:	b4c78793          	addi	a5,a5,-1204 # b4c <.Lline_table_start1+0x921>
   1623c:	470d                	li	a4,3
   1623e:	853e                	mv	a0,a5
   16240:	00000073          	ecall
   16244:	45a5                	li	a1,9
   16246:	4711                	li	a4,4
   16248:	853e                	mv	a0,a5
   1624a:	4601                	li	a2,0
   1624c:	4681                	li	a3,0
   1624e:	00000073          	ecall
   16252:	40ba                	lw	ra,140(sp)
   16254:	442a                	lw	s0,136(sp)
   16256:	449a                	lw	s1,132(sp)
   16258:	6149                	addi	sp,sp,144
   1625a:	8082                	ret
   1625c:	470d                	li	a4,3
   1625e:	8526                	mv	a0,s1
   16260:	4581                	li	a1,0
   16262:	4601                	li	a2,0
   16264:	4681                	li	a3,0
   16266:	00000073          	ecall
   1626a:	470d                	li	a4,3
   1626c:	8526                	mv	a0,s1
   1626e:	4581                	li	a1,0
   16270:	4601                	li	a2,0
   16272:	4681                	li	a3,0
   16274:	00000073          	ecall
   16278:	00140513          	addi	a0,s0,1
   1627c:	03510593          	addi	a1,sp,53
   16280:	04f00613          	li	a2,79
   16284:	00005097          	auipc	ra,0x5
   16288:	992080e7          	jalr	-1646(ra) # 1ac16 <memcpy>
   1628c:	8526                	mv	a0,s1
   1628e:	4581                	li	a1,0
   16290:	4601                	li	a2,0
   16292:	4681                	li	a3,0
   16294:	00040023          	sb	zero,0(s0)
   16298:	470d                	li	a4,3
   1629a:	00000073          	ecall
   1629e:	45a5                	li	a1,9
   162a0:	4711                	li	a4,4
   162a2:	8526                	mv	a0,s1
   162a4:	4601                	li	a2,0
   162a6:	4681                	li	a3,0
   162a8:	00000073          	ecall
   162ac:	b75d                	j	16252 <_ZN18complex_no_dynamic3app17hcd76aebf00aa0341E+0xa8>

000162ae <_ZN18complex_no_dynamic3app17hd17d5ca9bd845388E>:
   162ae:	7119                	addi	sp,sp,-128
   162b0:	de86                	sw	ra,124(sp)
   162b2:	dca2                	sw	s0,120(sp)
   162b4:	daa6                	sw	s1,116(sp)
   162b6:	842a                	mv	s0,a0
   162b8:	00510513          	addi	a0,sp,5
   162bc:	05d00613          	li	a2,93
   162c0:	00005097          	auipc	ra,0x5
   162c4:	956080e7          	jalr	-1706(ra) # 1ac16 <memcpy>
   162c8:	06210513          	addi	a0,sp,98
   162cc:	4649                	li	a2,18
   162ce:	4581                	li	a1,0
   162d0:	00005097          	auipc	ra,0x5
   162d4:	8da080e7          	jalr	-1830(ra) # 1abaa <memset>
   162d8:	6505                	lui	a0,0x1
   162da:	00510613          	addi	a2,sp,5
   162de:	05d00693          	li	a3,93
   162e2:	5f150793          	addi	a5,a0,1521 # 15f1 <.Lline_table_start1+0x13c6>
   162e6:	4711                	li	a4,4
   162e8:	4489                	li	s1,2
   162ea:	853e                	mv	a0,a5
   162ec:	4581                	li	a1,0
   162ee:	00000073          	ecall
   162f2:	02950a63          	beq	a0,s1,16326 <_ZN18complex_no_dynamic3app17hd17d5ca9bd845388E+0x78>
   162f6:	4589                	li	a1,2
   162f8:	06210613          	addi	a2,sp,98
   162fc:	46c9                	li	a3,18
   162fe:	470d                	li	a4,3
   16300:	853e                	mv	a0,a5
   16302:	00000073          	ecall
   16306:	02950063          	beq	a0,s1,16326 <_ZN18complex_no_dynamic3app17hd17d5ca9bd845388E+0x78>
   1630a:	6505                	lui	a0,0x1
   1630c:	4609                	li	a2,2
   1630e:	5f150493          	addi	s1,a0,1521 # 15f1 <.Lline_table_start1+0x13c6>
   16312:	4709                	li	a4,2
   16314:	07f00793          	li	a5,127
   16318:	8526                	mv	a0,s1
   1631a:	4581                	li	a1,0
   1631c:	4681                	li	a3,0
   1631e:	00000073          	ecall
   16322:	02a7ec63          	bltu	a5,a0,1635a <_ZN18complex_no_dynamic3app17hd17d5ca9bd845388E+0xac>
   16326:	4505                	li	a0,1
   16328:	6605                	lui	a2,0x1
   1632a:	00a40023          	sb	a0,0(s0)
   1632e:	c04c                	sw	a1,4(s0)
   16330:	5f160793          	addi	a5,a2,1521 # 15f1 <.Lline_table_start1+0x13c6>
   16334:	4589                	li	a1,2
   16336:	470d                	li	a4,3
   16338:	853e                	mv	a0,a5
   1633a:	4601                	li	a2,0
   1633c:	4681                	li	a3,0
   1633e:	00000073          	ecall
   16342:	4711                	li	a4,4
   16344:	853e                	mv	a0,a5
   16346:	4581                	li	a1,0
   16348:	4601                	li	a2,0
   1634a:	4681                	li	a3,0
   1634c:	00000073          	ecall
   16350:	50f6                	lw	ra,124(sp)
   16352:	5466                	lw	s0,120(sp)
   16354:	54d6                	lw	s1,116(sp)
   16356:	6109                	addi	sp,sp,128
   16358:	8082                	ret
   1635a:	8526                	mv	a0,s1
   1635c:	4601                	li	a2,0
   1635e:	4681                	li	a3,0
   16360:	4589                	li	a1,2
   16362:	470d                	li	a4,3
   16364:	00000073          	ecall
   16368:	4589                	li	a1,2
   1636a:	470d                	li	a4,3
   1636c:	8526                	mv	a0,s1
   1636e:	4601                	li	a2,0
   16370:	4681                	li	a3,0
   16372:	00000073          	ecall
   16376:	00140513          	addi	a0,s0,1
   1637a:	06210593          	addi	a1,sp,98
   1637e:	4649                	li	a2,18
   16380:	00005097          	auipc	ra,0x5
   16384:	896080e7          	jalr	-1898(ra) # 1ac16 <memcpy>
   16388:	00040023          	sb	zero,0(s0)
   1638c:	4589                	li	a1,2
   1638e:	470d                	li	a4,3
   16390:	8526                	mv	a0,s1
   16392:	4601                	li	a2,0
   16394:	4681                	li	a3,0
   16396:	00000073          	ecall
   1639a:	4711                	li	a4,4
   1639c:	8526                	mv	a0,s1
   1639e:	4581                	li	a1,0
   163a0:	4601                	li	a2,0
   163a2:	4681                	li	a3,0
   163a4:	00000073          	ecall
   163a8:	b765                	j	16350 <_ZN18complex_no_dynamic3app17hd17d5ca9bd845388E+0xa2>

000163aa <_ZN18complex_no_dynamic3app17hd3bf5136964ae291E>:
   163aa:	7159                	addi	sp,sp,-112
   163ac:	d686                	sw	ra,108(sp)
   163ae:	d4a2                	sw	s0,104(sp)
   163b0:	842a                	mv	s0,a0
   163b2:	00610513          	addi	a0,sp,6
   163b6:	03400613          	li	a2,52
   163ba:	00005097          	auipc	ra,0x5
   163be:	85c080e7          	jalr	-1956(ra) # 1ac16 <memcpy>
   163c2:	03a10513          	addi	a0,sp,58
   163c6:	02e00613          	li	a2,46
   163ca:	4581                	li	a1,0
   163cc:	00004097          	auipc	ra,0x4
   163d0:	7de080e7          	jalr	2014(ra) # 1abaa <memset>
   163d4:	4789                	li	a5,2
   163d6:	20900513          	li	a0,521
   163da:	4589                	li	a1,2
   163dc:	00610613          	addi	a2,sp,6
   163e0:	03400693          	li	a3,52
   163e4:	4711                	li	a4,4
   163e6:	00000073          	ecall
   163ea:	02f50a63          	beq	a0,a5,1641e <_ZN18complex_no_dynamic3app17hd3bf5136964ae291E+0x74>
   163ee:	20900513          	li	a0,521
   163f2:	45a1                	li	a1,8
   163f4:	03a10613          	addi	a2,sp,58
   163f8:	02e00693          	li	a3,46
   163fc:	470d                	li	a4,3
   163fe:	00000073          	ecall
   16402:	00f50e63          	beq	a0,a5,1641e <_ZN18complex_no_dynamic3app17hd3bf5136964ae291E+0x74>
   16406:	20900513          	li	a0,521
   1640a:	4589                	li	a1,2
   1640c:	4621                	li	a2,8
   1640e:	4709                	li	a4,2
   16410:	07f00793          	li	a5,127
   16414:	4681                	li	a3,0
   16416:	00000073          	ecall
   1641a:	02a7ea63          	bltu	a5,a0,1644e <_ZN18complex_no_dynamic3app17hd3bf5136964ae291E+0xa4>
   1641e:	4601                	li	a2,0
   16420:	4681                	li	a3,0
   16422:	4705                	li	a4,1
   16424:	20900513          	li	a0,521
   16428:	00e40023          	sb	a4,0(s0)
   1642c:	c04c                	sw	a1,4(s0)
   1642e:	45a1                	li	a1,8
   16430:	470d                	li	a4,3
   16432:	00000073          	ecall
   16436:	20900513          	li	a0,521
   1643a:	4589                	li	a1,2
   1643c:	4711                	li	a4,4
   1643e:	4601                	li	a2,0
   16440:	4681                	li	a3,0
   16442:	00000073          	ecall
   16446:	50b6                	lw	ra,108(sp)
   16448:	5426                	lw	s0,104(sp)
   1644a:	6165                	addi	sp,sp,112
   1644c:	8082                	ret
   1644e:	4601                	li	a2,0
   16450:	4681                	li	a3,0
   16452:	20900513          	li	a0,521
   16456:	45a1                	li	a1,8
   16458:	470d                	li	a4,3
   1645a:	00000073          	ecall
   1645e:	20900513          	li	a0,521
   16462:	45a1                	li	a1,8
   16464:	470d                	li	a4,3
   16466:	4601                	li	a2,0
   16468:	4681                	li	a3,0
   1646a:	00000073          	ecall
   1646e:	00140513          	addi	a0,s0,1
   16472:	03a10593          	addi	a1,sp,58
   16476:	02e00613          	li	a2,46
   1647a:	00004097          	auipc	ra,0x4
   1647e:	79c080e7          	jalr	1948(ra) # 1ac16 <memcpy>
   16482:	4601                	li	a2,0
   16484:	4681                	li	a3,0
   16486:	00040023          	sb	zero,0(s0)
   1648a:	20900513          	li	a0,521
   1648e:	45a1                	li	a1,8
   16490:	470d                	li	a4,3
   16492:	00000073          	ecall
   16496:	20900513          	li	a0,521
   1649a:	4589                	li	a1,2
   1649c:	4711                	li	a4,4
   1649e:	4601                	li	a2,0
   164a0:	4681                	li	a3,0
   164a2:	00000073          	ecall
   164a6:	b745                	j	16446 <_ZN18complex_no_dynamic3app17hd3bf5136964ae291E+0x9c>

000164a8 <_ZN18complex_no_dynamic3app17hd676bfadd7171613E>:
   164a8:	7139                	addi	sp,sp,-64
   164aa:	de06                	sw	ra,60(sp)
   164ac:	dc22                	sw	s0,56(sp)
   164ae:	842a                	mv	s0,a0
   164b0:	0048                	addi	a0,sp,4
   164b2:	463d                	li	a2,15
   164b4:	00004097          	auipc	ra,0x4
   164b8:	762080e7          	jalr	1890(ra) # 1ac16 <memcpy>
   164bc:	01310513          	addi	a0,sp,19
   164c0:	02500613          	li	a2,37
   164c4:	4581                	li	a1,0
   164c6:	00004097          	auipc	ra,0x4
   164ca:	6e4080e7          	jalr	1764(ra) # 1abaa <memset>
   164ce:	0a200513          	li	a0,162
   164d2:	45a1                	li	a1,8
   164d4:	0050                	addi	a2,sp,4
   164d6:	46bd                	li	a3,15
   164d8:	4711                	li	a4,4
   164da:	4789                	li	a5,2
   164dc:	00000073          	ecall
   164e0:	02f50a63          	beq	a0,a5,16514 <_ZN18complex_no_dynamic3app17hd676bfadd7171613E+0x6c>
   164e4:	0a200513          	li	a0,162
   164e8:	01310613          	addi	a2,sp,19
   164ec:	02500693          	li	a3,37
   164f0:	470d                	li	a4,3
   164f2:	4581                	li	a1,0
   164f4:	00000073          	ecall
   164f8:	00f50e63          	beq	a0,a5,16514 <_ZN18complex_no_dynamic3app17hd676bfadd7171613E+0x6c>
   164fc:	0a200513          	li	a0,162
   16500:	45a1                	li	a1,8
   16502:	4709                	li	a4,2
   16504:	07f00793          	li	a5,127
   16508:	4601                	li	a2,0
   1650a:	4681                	li	a3,0
   1650c:	00000073          	ecall
   16510:	02a7eb63          	bltu	a5,a0,16546 <_ZN18complex_no_dynamic3app17hd676bfadd7171613E+0x9e>
   16514:	872e                	mv	a4,a1
   16516:	4581                	li	a1,0
   16518:	4601                	li	a2,0
   1651a:	4681                	li	a3,0
   1651c:	4505                	li	a0,1
   1651e:	00a40023          	sb	a0,0(s0)
   16522:	c058                	sw	a4,4(s0)
   16524:	0a200513          	li	a0,162
   16528:	470d                	li	a4,3
   1652a:	00000073          	ecall
   1652e:	0a200513          	li	a0,162
   16532:	45a1                	li	a1,8
   16534:	4711                	li	a4,4
   16536:	4601                	li	a2,0
   16538:	4681                	li	a3,0
   1653a:	00000073          	ecall
   1653e:	50f2                	lw	ra,60(sp)
   16540:	5462                	lw	s0,56(sp)
   16542:	6121                	addi	sp,sp,64
   16544:	8082                	ret
   16546:	4581                	li	a1,0
   16548:	4601                	li	a2,0
   1654a:	4681                	li	a3,0
   1654c:	0a200513          	li	a0,162
   16550:	470d                	li	a4,3
   16552:	00000073          	ecall
   16556:	0a200513          	li	a0,162
   1655a:	470d                	li	a4,3
   1655c:	4581                	li	a1,0
   1655e:	4601                	li	a2,0
   16560:	4681                	li	a3,0
   16562:	00000073          	ecall
   16566:	00140513          	addi	a0,s0,1
   1656a:	01310593          	addi	a1,sp,19
   1656e:	02500613          	li	a2,37
   16572:	00004097          	auipc	ra,0x4
   16576:	6a4080e7          	jalr	1700(ra) # 1ac16 <memcpy>
   1657a:	4581                	li	a1,0
   1657c:	4601                	li	a2,0
   1657e:	4681                	li	a3,0
   16580:	00040023          	sb	zero,0(s0)
   16584:	0a200513          	li	a0,162
   16588:	470d                	li	a4,3
   1658a:	00000073          	ecall
   1658e:	0a200513          	li	a0,162
   16592:	45a1                	li	a1,8
   16594:	4711                	li	a4,4
   16596:	4601                	li	a2,0
   16598:	4681                	li	a3,0
   1659a:	00000073          	ecall
   1659e:	b745                	j	1653e <_ZN18complex_no_dynamic3app17hd676bfadd7171613E+0x96>

000165a0 <_ZN18complex_no_dynamic3app17hd69d522ec2a88831E>:
   165a0:	7135                	addi	sp,sp,-160
   165a2:	cf06                	sw	ra,156(sp)
   165a4:	cd22                	sw	s0,152(sp)
   165a6:	cb26                	sw	s1,148(sp)
   165a8:	842a                	mv	s0,a0
   165aa:	00a10513          	addi	a0,sp,10
   165ae:	04f00613          	li	a2,79
   165b2:	00004097          	auipc	ra,0x4
   165b6:	664080e7          	jalr	1636(ra) # 1ac16 <memcpy>
   165ba:	05910513          	addi	a0,sp,89
   165be:	03b00613          	li	a2,59
   165c2:	4581                	li	a1,0
   165c4:	00004097          	auipc	ra,0x4
   165c8:	5e6080e7          	jalr	1510(ra) # 1abaa <memset>
   165cc:	6505                	lui	a0,0x1
   165ce:	45a1                	li	a1,8
   165d0:	00a10613          	addi	a2,sp,10
   165d4:	04f00693          	li	a3,79
   165d8:	a0650793          	addi	a5,a0,-1530 # a06 <.Lline_table_start1+0x7db>
   165dc:	4711                	li	a4,4
   165de:	4489                	li	s1,2
   165e0:	853e                	mv	a0,a5
   165e2:	00000073          	ecall
   165e6:	02950b63          	beq	a0,s1,1661c <_ZN18complex_no_dynamic3app17hd69d522ec2a88831E+0x7c>
   165ea:	4595                	li	a1,5
   165ec:	05910613          	addi	a2,sp,89
   165f0:	03b00693          	li	a3,59
   165f4:	470d                	li	a4,3
   165f6:	853e                	mv	a0,a5
   165f8:	00000073          	ecall
   165fc:	02950063          	beq	a0,s1,1661c <_ZN18complex_no_dynamic3app17hd69d522ec2a88831E+0x7c>
   16600:	6505                	lui	a0,0x1
   16602:	45a1                	li	a1,8
   16604:	4615                	li	a2,5
   16606:	a0650493          	addi	s1,a0,-1530 # a06 <.Lline_table_start1+0x7db>
   1660a:	4709                	li	a4,2
   1660c:	07f00793          	li	a5,127
   16610:	8526                	mv	a0,s1
   16612:	4681                	li	a3,0
   16614:	00000073          	ecall
   16618:	02a7ed63          	bltu	a5,a0,16652 <_ZN18complex_no_dynamic3app17hd69d522ec2a88831E+0xb2>
   1661c:	872e                	mv	a4,a1
   1661e:	4601                	li	a2,0
   16620:	4681                	li	a3,0
   16622:	4505                	li	a0,1
   16624:	6785                	lui	a5,0x1
   16626:	4595                	li	a1,5
   16628:	00a40023          	sb	a0,0(s0)
   1662c:	c058                	sw	a4,4(s0)
   1662e:	a0678793          	addi	a5,a5,-1530 # a06 <.Lline_table_start1+0x7db>
   16632:	470d                	li	a4,3
   16634:	853e                	mv	a0,a5
   16636:	00000073          	ecall
   1663a:	45a1                	li	a1,8
   1663c:	4711                	li	a4,4
   1663e:	853e                	mv	a0,a5
   16640:	4601                	li	a2,0
   16642:	4681                	li	a3,0
   16644:	00000073          	ecall
   16648:	40fa                	lw	ra,156(sp)
   1664a:	446a                	lw	s0,152(sp)
   1664c:	44da                	lw	s1,148(sp)
   1664e:	610d                	addi	sp,sp,160
   16650:	8082                	ret
   16652:	8526                	mv	a0,s1
   16654:	4601                	li	a2,0
   16656:	4681                	li	a3,0
   16658:	4595                	li	a1,5
   1665a:	470d                	li	a4,3
   1665c:	00000073          	ecall
   16660:	4595                	li	a1,5
   16662:	470d                	li	a4,3
   16664:	8526                	mv	a0,s1
   16666:	4601                	li	a2,0
   16668:	4681                	li	a3,0
   1666a:	00000073          	ecall
   1666e:	00140513          	addi	a0,s0,1
   16672:	05910593          	addi	a1,sp,89
   16676:	03b00613          	li	a2,59
   1667a:	00004097          	auipc	ra,0x4
   1667e:	59c080e7          	jalr	1436(ra) # 1ac16 <memcpy>
   16682:	8526                	mv	a0,s1
   16684:	4601                	li	a2,0
   16686:	4681                	li	a3,0
   16688:	00040023          	sb	zero,0(s0)
   1668c:	4595                	li	a1,5
   1668e:	470d                	li	a4,3
   16690:	00000073          	ecall
   16694:	45a1                	li	a1,8
   16696:	4711                	li	a4,4
   16698:	8526                	mv	a0,s1
   1669a:	4601                	li	a2,0
   1669c:	4681                	li	a3,0
   1669e:	00000073          	ecall
   166a2:	b75d                	j	16648 <_ZN18complex_no_dynamic3app17hd69d522ec2a88831E+0xa8>

000166a4 <_ZN18complex_no_dynamic3app17hd99ce712c5763450E>:
   166a4:	7175                	addi	sp,sp,-144
   166a6:	c706                	sw	ra,140(sp)
   166a8:	c522                	sw	s0,136(sp)
   166aa:	c326                	sw	s1,132(sp)
   166ac:	842a                	mv	s0,a0
   166ae:	0048                	addi	a0,sp,4
   166b0:	02d00613          	li	a2,45
   166b4:	00004097          	auipc	ra,0x4
   166b8:	562080e7          	jalr	1378(ra) # 1ac16 <memcpy>
   166bc:	03110513          	addi	a0,sp,49
   166c0:	05300613          	li	a2,83
   166c4:	4581                	li	a1,0
   166c6:	00004097          	auipc	ra,0x4
   166ca:	4e4080e7          	jalr	1252(ra) # 1abaa <memset>
   166ce:	6505                	lui	a0,0x1
   166d0:	4489                	li	s1,2
   166d2:	4589                	li	a1,2
   166d4:	0050                	addi	a2,sp,4
   166d6:	ec350793          	addi	a5,a0,-317 # ec3 <.Lline_table_start1+0xc98>
   166da:	02d00693          	li	a3,45
   166de:	4711                	li	a4,4
   166e0:	853e                	mv	a0,a5
   166e2:	00000073          	ecall
   166e6:	02950b63          	beq	a0,s1,1671c <_ZN18complex_no_dynamic3app17hd99ce712c5763450E+0x78>
   166ea:	459d                	li	a1,7
   166ec:	03110613          	addi	a2,sp,49
   166f0:	05300693          	li	a3,83
   166f4:	470d                	li	a4,3
   166f6:	853e                	mv	a0,a5
   166f8:	00000073          	ecall
   166fc:	02950063          	beq	a0,s1,1671c <_ZN18complex_no_dynamic3app17hd99ce712c5763450E+0x78>
   16700:	6505                	lui	a0,0x1
   16702:	4589                	li	a1,2
   16704:	461d                	li	a2,7
   16706:	ec350493          	addi	s1,a0,-317 # ec3 <.Lline_table_start1+0xc98>
   1670a:	4709                	li	a4,2
   1670c:	07f00793          	li	a5,127
   16710:	8526                	mv	a0,s1
   16712:	4681                	li	a3,0
   16714:	00000073          	ecall
   16718:	02a7ed63          	bltu	a5,a0,16752 <_ZN18complex_no_dynamic3app17hd99ce712c5763450E+0xae>
   1671c:	872e                	mv	a4,a1
   1671e:	4601                	li	a2,0
   16720:	4681                	li	a3,0
   16722:	4505                	li	a0,1
   16724:	6785                	lui	a5,0x1
   16726:	459d                	li	a1,7
   16728:	00a40023          	sb	a0,0(s0)
   1672c:	c058                	sw	a4,4(s0)
   1672e:	ec378793          	addi	a5,a5,-317 # ec3 <.Lline_table_start1+0xc98>
   16732:	470d                	li	a4,3
   16734:	853e                	mv	a0,a5
   16736:	00000073          	ecall
   1673a:	4589                	li	a1,2
   1673c:	4711                	li	a4,4
   1673e:	853e                	mv	a0,a5
   16740:	4601                	li	a2,0
   16742:	4681                	li	a3,0
   16744:	00000073          	ecall
   16748:	40ba                	lw	ra,140(sp)
   1674a:	442a                	lw	s0,136(sp)
   1674c:	449a                	lw	s1,132(sp)
   1674e:	6149                	addi	sp,sp,144
   16750:	8082                	ret
   16752:	8526                	mv	a0,s1
   16754:	4601                	li	a2,0
   16756:	4681                	li	a3,0
   16758:	459d                	li	a1,7
   1675a:	470d                	li	a4,3
   1675c:	00000073          	ecall
   16760:	459d                	li	a1,7
   16762:	470d                	li	a4,3
   16764:	8526                	mv	a0,s1
   16766:	4601                	li	a2,0
   16768:	4681                	li	a3,0
   1676a:	00000073          	ecall
   1676e:	00140513          	addi	a0,s0,1
   16772:	03110593          	addi	a1,sp,49
   16776:	05300613          	li	a2,83
   1677a:	00004097          	auipc	ra,0x4
   1677e:	49c080e7          	jalr	1180(ra) # 1ac16 <memcpy>
   16782:	8526                	mv	a0,s1
   16784:	4601                	li	a2,0
   16786:	4681                	li	a3,0
   16788:	00040023          	sb	zero,0(s0)
   1678c:	459d                	li	a1,7
   1678e:	470d                	li	a4,3
   16790:	00000073          	ecall
   16794:	4589                	li	a1,2
   16796:	4711                	li	a4,4
   16798:	8526                	mv	a0,s1
   1679a:	4601                	li	a2,0
   1679c:	4681                	li	a3,0
   1679e:	00000073          	ecall
   167a2:	b75d                	j	16748 <_ZN18complex_no_dynamic3app17hd99ce712c5763450E+0xa4>

000167a4 <_ZN18complex_no_dynamic3app17hdd75c2c24ecf4764E>:
   167a4:	711d                	addi	sp,sp,-96
   167a6:	ce86                	sw	ra,92(sp)
   167a8:	cca2                	sw	s0,88(sp)
   167aa:	caa6                	sw	s1,84(sp)
   167ac:	842a                	mv	s0,a0
   167ae:	00f10513          	addi	a0,sp,15
   167b2:	02700613          	li	a2,39
   167b6:	00004097          	auipc	ra,0x4
   167ba:	460080e7          	jalr	1120(ra) # 1ac16 <memcpy>
   167be:	03610513          	addi	a0,sp,54
   167c2:	4679                	li	a2,30
   167c4:	4581                	li	a1,0
   167c6:	00004097          	auipc	ra,0x4
   167ca:	3e4080e7          	jalr	996(ra) # 1abaa <memset>
   167ce:	6505                	lui	a0,0x1
   167d0:	458d                	li	a1,3
   167d2:	00f10613          	addi	a2,sp,15
   167d6:	02700693          	li	a3,39
   167da:	0e250793          	addi	a5,a0,226 # 10e2 <.Lline_table_start1+0xeb7>
   167de:	4711                	li	a4,4
   167e0:	4489                	li	s1,2
   167e2:	853e                	mv	a0,a5
   167e4:	00000073          	ecall
   167e8:	02950a63          	beq	a0,s1,1681c <_ZN18complex_no_dynamic3app17hdd75c2c24ecf4764E+0x78>
   167ec:	458d                	li	a1,3
   167ee:	03610613          	addi	a2,sp,54
   167f2:	46f9                	li	a3,30
   167f4:	470d                	li	a4,3
   167f6:	853e                	mv	a0,a5
   167f8:	00000073          	ecall
   167fc:	02950063          	beq	a0,s1,1681c <_ZN18complex_no_dynamic3app17hdd75c2c24ecf4764E+0x78>
   16800:	6505                	lui	a0,0x1
   16802:	458d                	li	a1,3
   16804:	460d                	li	a2,3
   16806:	0e250493          	addi	s1,a0,226 # 10e2 <.Lline_table_start1+0xeb7>
   1680a:	4709                	li	a4,2
   1680c:	07f00793          	li	a5,127
   16810:	8526                	mv	a0,s1
   16812:	4681                	li	a3,0
   16814:	00000073          	ecall
   16818:	02a7ed63          	bltu	a5,a0,16852 <_ZN18complex_no_dynamic3app17hdd75c2c24ecf4764E+0xae>
   1681c:	872e                	mv	a4,a1
   1681e:	4601                	li	a2,0
   16820:	4681                	li	a3,0
   16822:	4505                	li	a0,1
   16824:	6785                	lui	a5,0x1
   16826:	458d                	li	a1,3
   16828:	00a40023          	sb	a0,0(s0)
   1682c:	c058                	sw	a4,4(s0)
   1682e:	0e278793          	addi	a5,a5,226 # 10e2 <.Lline_table_start1+0xeb7>
   16832:	470d                	li	a4,3
   16834:	853e                	mv	a0,a5
   16836:	00000073          	ecall
   1683a:	458d                	li	a1,3
   1683c:	4711                	li	a4,4
   1683e:	853e                	mv	a0,a5
   16840:	4601                	li	a2,0
   16842:	4681                	li	a3,0
   16844:	00000073          	ecall
   16848:	40f6                	lw	ra,92(sp)
   1684a:	4466                	lw	s0,88(sp)
   1684c:	44d6                	lw	s1,84(sp)
   1684e:	6125                	addi	sp,sp,96
   16850:	8082                	ret
   16852:	8526                	mv	a0,s1
   16854:	4601                	li	a2,0
   16856:	4681                	li	a3,0
   16858:	458d                	li	a1,3
   1685a:	470d                	li	a4,3
   1685c:	00000073          	ecall
   16860:	458d                	li	a1,3
   16862:	470d                	li	a4,3
   16864:	8526                	mv	a0,s1
   16866:	4601                	li	a2,0
   16868:	4681                	li	a3,0
   1686a:	00000073          	ecall
   1686e:	00140513          	addi	a0,s0,1
   16872:	03610593          	addi	a1,sp,54
   16876:	4679                	li	a2,30
   16878:	00004097          	auipc	ra,0x4
   1687c:	39e080e7          	jalr	926(ra) # 1ac16 <memcpy>
   16880:	8526                	mv	a0,s1
   16882:	4601                	li	a2,0
   16884:	4681                	li	a3,0
   16886:	00040023          	sb	zero,0(s0)
   1688a:	458d                	li	a1,3
   1688c:	470d                	li	a4,3
   1688e:	00000073          	ecall
   16892:	458d                	li	a1,3
   16894:	4711                	li	a4,4
   16896:	8526                	mv	a0,s1
   16898:	4601                	li	a2,0
   1689a:	4681                	li	a3,0
   1689c:	00000073          	ecall
   168a0:	b765                	j	16848 <_ZN18complex_no_dynamic3app17hdd75c2c24ecf4764E+0xa4>

000168a2 <_ZN18complex_no_dynamic3app17hdefb7565d269d8f0E>:
   168a2:	7175                	addi	sp,sp,-144
   168a4:	c706                	sw	ra,140(sp)
   168a6:	c522                	sw	s0,136(sp)
   168a8:	c326                	sw	s1,132(sp)
   168aa:	842a                	mv	s0,a0
   168ac:	00110513          	addi	a0,sp,1
   168b0:	02a00613          	li	a2,42
   168b4:	00004097          	auipc	ra,0x4
   168b8:	362080e7          	jalr	866(ra) # 1ac16 <memcpy>
   168bc:	02b10513          	addi	a0,sp,43
   168c0:	05900613          	li	a2,89
   168c4:	4581                	li	a1,0
   168c6:	00004097          	auipc	ra,0x4
   168ca:	2e4080e7          	jalr	740(ra) # 1abaa <memset>
   168ce:	6505                	lui	a0,0x1
   168d0:	4585                	li	a1,1
   168d2:	00110613          	addi	a2,sp,1
   168d6:	02a00693          	li	a3,42
   168da:	ed250793          	addi	a5,a0,-302 # ed2 <.Lline_table_start1+0xca7>
   168de:	4711                	li	a4,4
   168e0:	4489                	li	s1,2
   168e2:	853e                	mv	a0,a5
   168e4:	00000073          	ecall
   168e8:	02950b63          	beq	a0,s1,1691e <_ZN18complex_no_dynamic3app17hdefb7565d269d8f0E+0x7c>
   168ec:	458d                	li	a1,3
   168ee:	02b10613          	addi	a2,sp,43
   168f2:	05900693          	li	a3,89
   168f6:	470d                	li	a4,3
   168f8:	853e                	mv	a0,a5
   168fa:	00000073          	ecall
   168fe:	02950063          	beq	a0,s1,1691e <_ZN18complex_no_dynamic3app17hdefb7565d269d8f0E+0x7c>
   16902:	6505                	lui	a0,0x1
   16904:	4585                	li	a1,1
   16906:	460d                	li	a2,3
   16908:	ed250493          	addi	s1,a0,-302 # ed2 <.Lline_table_start1+0xca7>
   1690c:	4709                	li	a4,2
   1690e:	07f00793          	li	a5,127
   16912:	8526                	mv	a0,s1
   16914:	4681                	li	a3,0
   16916:	00000073          	ecall
   1691a:	02a7ed63          	bltu	a5,a0,16954 <_ZN18complex_no_dynamic3app17hdefb7565d269d8f0E+0xb2>
   1691e:	872e                	mv	a4,a1
   16920:	4601                	li	a2,0
   16922:	4681                	li	a3,0
   16924:	4505                	li	a0,1
   16926:	6785                	lui	a5,0x1
   16928:	458d                	li	a1,3
   1692a:	00a40023          	sb	a0,0(s0)
   1692e:	c058                	sw	a4,4(s0)
   16930:	ed278793          	addi	a5,a5,-302 # ed2 <.Lline_table_start1+0xca7>
   16934:	470d                	li	a4,3
   16936:	853e                	mv	a0,a5
   16938:	00000073          	ecall
   1693c:	4585                	li	a1,1
   1693e:	4711                	li	a4,4
   16940:	853e                	mv	a0,a5
   16942:	4601                	li	a2,0
   16944:	4681                	li	a3,0
   16946:	00000073          	ecall
   1694a:	40ba                	lw	ra,140(sp)
   1694c:	442a                	lw	s0,136(sp)
   1694e:	449a                	lw	s1,132(sp)
   16950:	6149                	addi	sp,sp,144
   16952:	8082                	ret
   16954:	8526                	mv	a0,s1
   16956:	4601                	li	a2,0
   16958:	4681                	li	a3,0
   1695a:	458d                	li	a1,3
   1695c:	470d                	li	a4,3
   1695e:	00000073          	ecall
   16962:	458d                	li	a1,3
   16964:	470d                	li	a4,3
   16966:	8526                	mv	a0,s1
   16968:	4601                	li	a2,0
   1696a:	4681                	li	a3,0
   1696c:	00000073          	ecall
   16970:	00140513          	addi	a0,s0,1
   16974:	02b10593          	addi	a1,sp,43
   16978:	05900613          	li	a2,89
   1697c:	00004097          	auipc	ra,0x4
   16980:	29a080e7          	jalr	666(ra) # 1ac16 <memcpy>
   16984:	8526                	mv	a0,s1
   16986:	4601                	li	a2,0
   16988:	4681                	li	a3,0
   1698a:	00040023          	sb	zero,0(s0)
   1698e:	458d                	li	a1,3
   16990:	470d                	li	a4,3
   16992:	00000073          	ecall
   16996:	4585                	li	a1,1
   16998:	4711                	li	a4,4
   1699a:	8526                	mv	a0,s1
   1699c:	4601                	li	a2,0
   1699e:	4681                	li	a3,0
   169a0:	00000073          	ecall
   169a4:	b75d                	j	1694a <_ZN18complex_no_dynamic3app17hdefb7565d269d8f0E+0xa8>

000169a6 <_ZN18complex_no_dynamic3app17hdf674c79f57d675aE>:
   169a6:	711d                	addi	sp,sp,-96
   169a8:	ce86                	sw	ra,92(sp)
   169aa:	cca2                	sw	s0,88(sp)
   169ac:	842a                	mv	s0,a0
   169ae:	00e10513          	addi	a0,sp,14
   169b2:	4679                	li	a2,30
   169b4:	00004097          	auipc	ra,0x4
   169b8:	262080e7          	jalr	610(ra) # 1ac16 <memcpy>
   169bc:	1068                	addi	a0,sp,44
   169be:	02c00613          	li	a2,44
   169c2:	4581                	li	a1,0
   169c4:	00004097          	auipc	ra,0x4
   169c8:	1e6080e7          	jalr	486(ra) # 1abaa <memset>
   169cc:	3fb00513          	li	a0,1019
   169d0:	459d                	li	a1,7
   169d2:	00e10613          	addi	a2,sp,14
   169d6:	46f9                	li	a3,30
   169d8:	4711                	li	a4,4
   169da:	4789                	li	a5,2
   169dc:	00000073          	ecall
   169e0:	02f50963          	beq	a0,a5,16a12 <_ZN18complex_no_dynamic3app17hdf674c79f57d675aE+0x6c>
   169e4:	3fb00513          	li	a0,1019
   169e8:	1070                	addi	a2,sp,44
   169ea:	02c00693          	li	a3,44
   169ee:	470d                	li	a4,3
   169f0:	4581                	li	a1,0
   169f2:	00000073          	ecall
   169f6:	00f50e63          	beq	a0,a5,16a12 <_ZN18complex_no_dynamic3app17hdf674c79f57d675aE+0x6c>
   169fa:	3fb00513          	li	a0,1019
   169fe:	459d                	li	a1,7
   16a00:	4709                	li	a4,2
   16a02:	07f00793          	li	a5,127
   16a06:	4601                	li	a2,0
   16a08:	4681                	li	a3,0
   16a0a:	00000073          	ecall
   16a0e:	02a7eb63          	bltu	a5,a0,16a44 <_ZN18complex_no_dynamic3app17hdf674c79f57d675aE+0x9e>
   16a12:	872e                	mv	a4,a1
   16a14:	4581                	li	a1,0
   16a16:	4601                	li	a2,0
   16a18:	4681                	li	a3,0
   16a1a:	4505                	li	a0,1
   16a1c:	00a40023          	sb	a0,0(s0)
   16a20:	c058                	sw	a4,4(s0)
   16a22:	3fb00513          	li	a0,1019
   16a26:	470d                	li	a4,3
   16a28:	00000073          	ecall
   16a2c:	3fb00513          	li	a0,1019
   16a30:	459d                	li	a1,7
   16a32:	4711                	li	a4,4
   16a34:	4601                	li	a2,0
   16a36:	4681                	li	a3,0
   16a38:	00000073          	ecall
   16a3c:	40f6                	lw	ra,92(sp)
   16a3e:	4466                	lw	s0,88(sp)
   16a40:	6125                	addi	sp,sp,96
   16a42:	8082                	ret
   16a44:	4581                	li	a1,0
   16a46:	4601                	li	a2,0
   16a48:	4681                	li	a3,0
   16a4a:	3fb00513          	li	a0,1019
   16a4e:	470d                	li	a4,3
   16a50:	00000073          	ecall
   16a54:	3fb00513          	li	a0,1019
   16a58:	470d                	li	a4,3
   16a5a:	4581                	li	a1,0
   16a5c:	4601                	li	a2,0
   16a5e:	4681                	li	a3,0
   16a60:	00000073          	ecall
   16a64:	00140513          	addi	a0,s0,1
   16a68:	106c                	addi	a1,sp,44
   16a6a:	02c00613          	li	a2,44
   16a6e:	00004097          	auipc	ra,0x4
   16a72:	1a8080e7          	jalr	424(ra) # 1ac16 <memcpy>
   16a76:	4581                	li	a1,0
   16a78:	4601                	li	a2,0
   16a7a:	4681                	li	a3,0
   16a7c:	00040023          	sb	zero,0(s0)
   16a80:	3fb00513          	li	a0,1019
   16a84:	470d                	li	a4,3
   16a86:	00000073          	ecall
   16a8a:	3fb00513          	li	a0,1019
   16a8e:	459d                	li	a1,7
   16a90:	4711                	li	a4,4
   16a92:	4601                	li	a2,0
   16a94:	4681                	li	a3,0
   16a96:	00000073          	ecall
   16a9a:	b74d                	j	16a3c <_ZN18complex_no_dynamic3app17hdf674c79f57d675aE+0x96>

00016a9c <_ZN18complex_no_dynamic3app17he243bd8a66314184E>:
   16a9c:	7171                	addi	sp,sp,-176
   16a9e:	d706                	sw	ra,172(sp)
   16aa0:	d522                	sw	s0,168(sp)
   16aa2:	d326                	sw	s1,164(sp)
   16aa4:	842a                	mv	s0,a0
   16aa6:	00110513          	addi	a0,sp,1
   16aaa:	05900613          	li	a2,89
   16aae:	00004097          	auipc	ra,0x4
   16ab2:	168080e7          	jalr	360(ra) # 1ac16 <memcpy>
   16ab6:	05a10513          	addi	a0,sp,90
   16aba:	04a00613          	li	a2,74
   16abe:	4581                	li	a1,0
   16ac0:	00004097          	auipc	ra,0x4
   16ac4:	0ea080e7          	jalr	234(ra) # 1abaa <memset>
   16ac8:	6505                	lui	a0,0x1
   16aca:	00110613          	addi	a2,sp,1
   16ace:	05900693          	li	a3,89
   16ad2:	48450793          	addi	a5,a0,1156 # 1484 <.Lline_table_start1+0x1259>
   16ad6:	4711                	li	a4,4
   16ad8:	4489                	li	s1,2
   16ada:	853e                	mv	a0,a5
   16adc:	4581                	li	a1,0
   16ade:	00000073          	ecall
   16ae2:	02950b63          	beq	a0,s1,16b18 <_ZN18complex_no_dynamic3app17he243bd8a66314184E+0x7c>
   16ae6:	4591                	li	a1,4
   16ae8:	05a10613          	addi	a2,sp,90
   16aec:	04a00693          	li	a3,74
   16af0:	470d                	li	a4,3
   16af2:	853e                	mv	a0,a5
   16af4:	00000073          	ecall
   16af8:	02950063          	beq	a0,s1,16b18 <_ZN18complex_no_dynamic3app17he243bd8a66314184E+0x7c>
   16afc:	6505                	lui	a0,0x1
   16afe:	4611                	li	a2,4
   16b00:	48450493          	addi	s1,a0,1156 # 1484 <.Lline_table_start1+0x1259>
   16b04:	4709                	li	a4,2
   16b06:	07f00793          	li	a5,127
   16b0a:	8526                	mv	a0,s1
   16b0c:	4581                	li	a1,0
   16b0e:	4681                	li	a3,0
   16b10:	00000073          	ecall
   16b14:	02a7ec63          	bltu	a5,a0,16b4c <_ZN18complex_no_dynamic3app17he243bd8a66314184E+0xb0>
   16b18:	4505                	li	a0,1
   16b1a:	6605                	lui	a2,0x1
   16b1c:	00a40023          	sb	a0,0(s0)
   16b20:	c04c                	sw	a1,4(s0)
   16b22:	48460793          	addi	a5,a2,1156 # 1484 <.Lline_table_start1+0x1259>
   16b26:	4591                	li	a1,4
   16b28:	470d                	li	a4,3
   16b2a:	853e                	mv	a0,a5
   16b2c:	4601                	li	a2,0
   16b2e:	4681                	li	a3,0
   16b30:	00000073          	ecall
   16b34:	4711                	li	a4,4
   16b36:	853e                	mv	a0,a5
   16b38:	4581                	li	a1,0
   16b3a:	4601                	li	a2,0
   16b3c:	4681                	li	a3,0
   16b3e:	00000073          	ecall
   16b42:	50ba                	lw	ra,172(sp)
   16b44:	542a                	lw	s0,168(sp)
   16b46:	549a                	lw	s1,164(sp)
   16b48:	614d                	addi	sp,sp,176
   16b4a:	8082                	ret
   16b4c:	8526                	mv	a0,s1
   16b4e:	4601                	li	a2,0
   16b50:	4681                	li	a3,0
   16b52:	4591                	li	a1,4
   16b54:	470d                	li	a4,3
   16b56:	00000073          	ecall
   16b5a:	4591                	li	a1,4
   16b5c:	470d                	li	a4,3
   16b5e:	8526                	mv	a0,s1
   16b60:	4601                	li	a2,0
   16b62:	4681                	li	a3,0
   16b64:	00000073          	ecall
   16b68:	00140513          	addi	a0,s0,1
   16b6c:	05a10593          	addi	a1,sp,90
   16b70:	04a00613          	li	a2,74
   16b74:	00004097          	auipc	ra,0x4
   16b78:	0a2080e7          	jalr	162(ra) # 1ac16 <memcpy>
   16b7c:	00040023          	sb	zero,0(s0)
   16b80:	4591                	li	a1,4
   16b82:	470d                	li	a4,3
   16b84:	8526                	mv	a0,s1
   16b86:	4601                	li	a2,0
   16b88:	4681                	li	a3,0
   16b8a:	00000073          	ecall
   16b8e:	4711                	li	a4,4
   16b90:	8526                	mv	a0,s1
   16b92:	4581                	li	a1,0
   16b94:	4601                	li	a2,0
   16b96:	4681                	li	a3,0
   16b98:	00000073          	ecall
   16b9c:	b75d                	j	16b42 <_ZN18complex_no_dynamic3app17he243bd8a66314184E+0xa6>

00016b9e <_ZN18complex_no_dynamic3app17he9f518c9f391cf56E>:
   16b9e:	7119                	addi	sp,sp,-128
   16ba0:	de86                	sw	ra,124(sp)
   16ba2:	dca2                	sw	s0,120(sp)
   16ba4:	daa6                	sw	s1,116(sp)
   16ba6:	842a                	mv	s0,a0
   16ba8:	00a10513          	addi	a0,sp,10
   16bac:	03600613          	li	a2,54
   16bb0:	00004097          	auipc	ra,0x4
   16bb4:	066080e7          	jalr	102(ra) # 1ac16 <memcpy>
   16bb8:	0088                	addi	a0,sp,64
   16bba:	03400613          	li	a2,52
   16bbe:	4581                	li	a1,0
   16bc0:	00004097          	auipc	ra,0x4
   16bc4:	fea080e7          	jalr	-22(ra) # 1abaa <memset>
   16bc8:	6509                	lui	a0,0x2
   16bca:	4591                	li	a1,4
   16bcc:	00a10613          	addi	a2,sp,10
   16bd0:	03600693          	li	a3,54
   16bd4:	3c650793          	addi	a5,a0,966 # 23c6 <.Lline_table_start1+0x219b>
   16bd8:	4711                	li	a4,4
   16bda:	4489                	li	s1,2
   16bdc:	853e                	mv	a0,a5
   16bde:	00000073          	ecall
   16be2:	02950a63          	beq	a0,s1,16c16 <_ZN18complex_no_dynamic3app17he9f518c9f391cf56E+0x78>
   16be6:	4589                	li	a1,2
   16be8:	0090                	addi	a2,sp,64
   16bea:	03400693          	li	a3,52
   16bee:	470d                	li	a4,3
   16bf0:	853e                	mv	a0,a5
   16bf2:	00000073          	ecall
   16bf6:	02950063          	beq	a0,s1,16c16 <_ZN18complex_no_dynamic3app17he9f518c9f391cf56E+0x78>
   16bfa:	6509                	lui	a0,0x2
   16bfc:	4591                	li	a1,4
   16bfe:	4609                	li	a2,2
   16c00:	3c650493          	addi	s1,a0,966 # 23c6 <.Lline_table_start1+0x219b>
   16c04:	4709                	li	a4,2
   16c06:	07f00793          	li	a5,127
   16c0a:	8526                	mv	a0,s1
   16c0c:	4681                	li	a3,0
   16c0e:	00000073          	ecall
   16c12:	02a7ed63          	bltu	a5,a0,16c4c <_ZN18complex_no_dynamic3app17he9f518c9f391cf56E+0xae>
   16c16:	872e                	mv	a4,a1
   16c18:	4601                	li	a2,0
   16c1a:	4681                	li	a3,0
   16c1c:	4505                	li	a0,1
   16c1e:	6789                	lui	a5,0x2
   16c20:	4589                	li	a1,2
   16c22:	00a40023          	sb	a0,0(s0)
   16c26:	c058                	sw	a4,4(s0)
   16c28:	3c678793          	addi	a5,a5,966 # 23c6 <.Lline_table_start1+0x219b>
   16c2c:	470d                	li	a4,3
   16c2e:	853e                	mv	a0,a5
   16c30:	00000073          	ecall
   16c34:	4591                	li	a1,4
   16c36:	4711                	li	a4,4
   16c38:	853e                	mv	a0,a5
   16c3a:	4601                	li	a2,0
   16c3c:	4681                	li	a3,0
   16c3e:	00000073          	ecall
   16c42:	50f6                	lw	ra,124(sp)
   16c44:	5466                	lw	s0,120(sp)
   16c46:	54d6                	lw	s1,116(sp)
   16c48:	6109                	addi	sp,sp,128
   16c4a:	8082                	ret
   16c4c:	8526                	mv	a0,s1
   16c4e:	4601                	li	a2,0
   16c50:	4681                	li	a3,0
   16c52:	4589                	li	a1,2
   16c54:	470d                	li	a4,3
   16c56:	00000073          	ecall
   16c5a:	4589                	li	a1,2
   16c5c:	470d                	li	a4,3
   16c5e:	8526                	mv	a0,s1
   16c60:	4601                	li	a2,0
   16c62:	4681                	li	a3,0
   16c64:	00000073          	ecall
   16c68:	00140513          	addi	a0,s0,1
   16c6c:	008c                	addi	a1,sp,64
   16c6e:	03400613          	li	a2,52
   16c72:	00004097          	auipc	ra,0x4
   16c76:	fa4080e7          	jalr	-92(ra) # 1ac16 <memcpy>
   16c7a:	8526                	mv	a0,s1
   16c7c:	4601                	li	a2,0
   16c7e:	4681                	li	a3,0
   16c80:	00040023          	sb	zero,0(s0)
   16c84:	4589                	li	a1,2
   16c86:	470d                	li	a4,3
   16c88:	00000073          	ecall
   16c8c:	4591                	li	a1,4
   16c8e:	4711                	li	a4,4
   16c90:	8526                	mv	a0,s1
   16c92:	4601                	li	a2,0
   16c94:	4681                	li	a3,0
   16c96:	00000073          	ecall
   16c9a:	b765                	j	16c42 <_ZN18complex_no_dynamic3app17he9f518c9f391cf56E+0xa4>

00016c9c <_ZN18complex_no_dynamic3app17hf0e3709259bd31ebE>:
   16c9c:	7159                	addi	sp,sp,-112
   16c9e:	d686                	sw	ra,108(sp)
   16ca0:	d4a2                	sw	s0,104(sp)
   16ca2:	d2a6                	sw	s1,100(sp)
   16ca4:	842a                	mv	s0,a0
   16ca6:	00110513          	addi	a0,sp,1
   16caa:	04100613          	li	a2,65
   16cae:	00004097          	auipc	ra,0x4
   16cb2:	f68080e7          	jalr	-152(ra) # 1ac16 <memcpy>
   16cb6:	04210513          	addi	a0,sp,66
   16cba:	02200613          	li	a2,34
   16cbe:	4581                	li	a1,0
   16cc0:	00004097          	auipc	ra,0x4
   16cc4:	eea080e7          	jalr	-278(ra) # 1abaa <memset>
   16cc8:	6509                	lui	a0,0x2
   16cca:	4585                	li	a1,1
   16ccc:	00110613          	addi	a2,sp,1
   16cd0:	04100693          	li	a3,65
   16cd4:	47c50793          	addi	a5,a0,1148 # 247c <.Lline_table_start1+0x2251>
   16cd8:	4711                	li	a4,4
   16cda:	4489                	li	s1,2
   16cdc:	853e                	mv	a0,a5
   16cde:	00000073          	ecall
   16ce2:	02950b63          	beq	a0,s1,16d18 <_ZN18complex_no_dynamic3app17hf0e3709259bd31ebE+0x7c>
   16ce6:	04210613          	addi	a2,sp,66
   16cea:	02200693          	li	a3,34
   16cee:	470d                	li	a4,3
   16cf0:	853e                	mv	a0,a5
   16cf2:	4581                	li	a1,0
   16cf4:	00000073          	ecall
   16cf8:	02950063          	beq	a0,s1,16d18 <_ZN18complex_no_dynamic3app17hf0e3709259bd31ebE+0x7c>
   16cfc:	6509                	lui	a0,0x2
   16cfe:	4585                	li	a1,1
   16d00:	47c50493          	addi	s1,a0,1148 # 247c <.Lline_table_start1+0x2251>
   16d04:	4709                	li	a4,2
   16d06:	07f00793          	li	a5,127
   16d0a:	8526                	mv	a0,s1
   16d0c:	4601                	li	a2,0
   16d0e:	4681                	li	a3,0
   16d10:	00000073          	ecall
   16d14:	02a7ed63          	bltu	a5,a0,16d4e <_ZN18complex_no_dynamic3app17hf0e3709259bd31ebE+0xb2>
   16d18:	872e                	mv	a4,a1
   16d1a:	4581                	li	a1,0
   16d1c:	4601                	li	a2,0
   16d1e:	4681                	li	a3,0
   16d20:	4505                	li	a0,1
   16d22:	6789                	lui	a5,0x2
   16d24:	00a40023          	sb	a0,0(s0)
   16d28:	c058                	sw	a4,4(s0)
   16d2a:	47c78793          	addi	a5,a5,1148 # 247c <.Lline_table_start1+0x2251>
   16d2e:	470d                	li	a4,3
   16d30:	853e                	mv	a0,a5
   16d32:	00000073          	ecall
   16d36:	4585                	li	a1,1
   16d38:	4711                	li	a4,4
   16d3a:	853e                	mv	a0,a5
   16d3c:	4601                	li	a2,0
   16d3e:	4681                	li	a3,0
   16d40:	00000073          	ecall
   16d44:	50b6                	lw	ra,108(sp)
   16d46:	5426                	lw	s0,104(sp)
   16d48:	5496                	lw	s1,100(sp)
   16d4a:	6165                	addi	sp,sp,112
   16d4c:	8082                	ret
   16d4e:	470d                	li	a4,3
   16d50:	8526                	mv	a0,s1
   16d52:	4581                	li	a1,0
   16d54:	4601                	li	a2,0
   16d56:	4681                	li	a3,0
   16d58:	00000073          	ecall
   16d5c:	470d                	li	a4,3
   16d5e:	8526                	mv	a0,s1
   16d60:	4581                	li	a1,0
   16d62:	4601                	li	a2,0
   16d64:	4681                	li	a3,0
   16d66:	00000073          	ecall
   16d6a:	00140513          	addi	a0,s0,1
   16d6e:	04210593          	addi	a1,sp,66
   16d72:	02200613          	li	a2,34
   16d76:	00004097          	auipc	ra,0x4
   16d7a:	ea0080e7          	jalr	-352(ra) # 1ac16 <memcpy>
   16d7e:	8526                	mv	a0,s1
   16d80:	4581                	li	a1,0
   16d82:	4601                	li	a2,0
   16d84:	4681                	li	a3,0
   16d86:	00040023          	sb	zero,0(s0)
   16d8a:	470d                	li	a4,3
   16d8c:	00000073          	ecall
   16d90:	4585                	li	a1,1
   16d92:	4711                	li	a4,4
   16d94:	8526                	mv	a0,s1
   16d96:	4601                	li	a2,0
   16d98:	4681                	li	a3,0
   16d9a:	00000073          	ecall
   16d9e:	b75d                	j	16d44 <_ZN18complex_no_dynamic3app17hf0e3709259bd31ebE+0xa8>

00016da0 <_ZN18complex_no_dynamic3app17hf3700a7264363c47E>:
   16da0:	7119                	addi	sp,sp,-128
   16da2:	de86                	sw	ra,124(sp)
   16da4:	dca2                	sw	s0,120(sp)
   16da6:	842a                	mv	s0,a0
   16da8:	00d10513          	addi	a0,sp,13
   16dac:	05000613          	li	a2,80
   16db0:	00004097          	auipc	ra,0x4
   16db4:	e66080e7          	jalr	-410(ra) # 1ac16 <memcpy>
   16db8:	05d10513          	addi	a0,sp,93
   16dbc:	466d                	li	a2,27
   16dbe:	4581                	li	a1,0
   16dc0:	00004097          	auipc	ra,0x4
   16dc4:	dea080e7          	jalr	-534(ra) # 1abaa <memset>
   16dc8:	3d900513          	li	a0,985
   16dcc:	4585                	li	a1,1
   16dce:	00d10613          	addi	a2,sp,13
   16dd2:	05000693          	li	a3,80
   16dd6:	4711                	li	a4,4
   16dd8:	4789                	li	a5,2
   16dda:	00000073          	ecall
   16dde:	02f50963          	beq	a0,a5,16e10 <_ZN18complex_no_dynamic3app17hf3700a7264363c47E+0x70>
   16de2:	3d900513          	li	a0,985
   16de6:	4589                	li	a1,2
   16de8:	05d10613          	addi	a2,sp,93
   16dec:	46ed                	li	a3,27
   16dee:	470d                	li	a4,3
   16df0:	00000073          	ecall
   16df4:	00f50e63          	beq	a0,a5,16e10 <_ZN18complex_no_dynamic3app17hf3700a7264363c47E+0x70>
   16df8:	3d900513          	li	a0,985
   16dfc:	4585                	li	a1,1
   16dfe:	4609                	li	a2,2
   16e00:	4709                	li	a4,2
   16e02:	07f00793          	li	a5,127
   16e06:	4681                	li	a3,0
   16e08:	00000073          	ecall
   16e0c:	02a7ea63          	bltu	a5,a0,16e40 <_ZN18complex_no_dynamic3app17hf3700a7264363c47E+0xa0>
   16e10:	4601                	li	a2,0
   16e12:	4681                	li	a3,0
   16e14:	4705                	li	a4,1
   16e16:	3d900513          	li	a0,985
   16e1a:	00e40023          	sb	a4,0(s0)
   16e1e:	c04c                	sw	a1,4(s0)
   16e20:	4589                	li	a1,2
   16e22:	470d                	li	a4,3
   16e24:	00000073          	ecall
   16e28:	3d900513          	li	a0,985
   16e2c:	4585                	li	a1,1
   16e2e:	4711                	li	a4,4
   16e30:	4601                	li	a2,0
   16e32:	4681                	li	a3,0
   16e34:	00000073          	ecall
   16e38:	50f6                	lw	ra,124(sp)
   16e3a:	5466                	lw	s0,120(sp)
   16e3c:	6109                	addi	sp,sp,128
   16e3e:	8082                	ret
   16e40:	4601                	li	a2,0
   16e42:	4681                	li	a3,0
   16e44:	3d900513          	li	a0,985
   16e48:	4589                	li	a1,2
   16e4a:	470d                	li	a4,3
   16e4c:	00000073          	ecall
   16e50:	3d900513          	li	a0,985
   16e54:	4589                	li	a1,2
   16e56:	470d                	li	a4,3
   16e58:	4601                	li	a2,0
   16e5a:	4681                	li	a3,0
   16e5c:	00000073          	ecall
   16e60:	00140513          	addi	a0,s0,1
   16e64:	05d10593          	addi	a1,sp,93
   16e68:	466d                	li	a2,27
   16e6a:	00004097          	auipc	ra,0x4
   16e6e:	dac080e7          	jalr	-596(ra) # 1ac16 <memcpy>
   16e72:	4601                	li	a2,0
   16e74:	4681                	li	a3,0
   16e76:	00040023          	sb	zero,0(s0)
   16e7a:	3d900513          	li	a0,985
   16e7e:	4589                	li	a1,2
   16e80:	470d                	li	a4,3
   16e82:	00000073          	ecall
   16e86:	3d900513          	li	a0,985
   16e8a:	4585                	li	a1,1
   16e8c:	4711                	li	a4,4
   16e8e:	4601                	li	a2,0
   16e90:	4681                	li	a3,0
   16e92:	00000073          	ecall
   16e96:	b74d                	j	16e38 <_ZN18complex_no_dynamic3app17hf3700a7264363c47E+0x98>

00016e98 <_ZN18complex_no_dynamic3app17hf45e248d8d6d8e4cE>:
   16e98:	7159                	addi	sp,sp,-112
   16e9a:	d686                	sw	ra,108(sp)
   16e9c:	d4a2                	sw	s0,104(sp)
   16e9e:	d2a6                	sw	s1,100(sp)
   16ea0:	842a                	mv	s0,a0
   16ea2:	850a                	mv	a0,sp
   16ea4:	03200613          	li	a2,50
   16ea8:	00004097          	auipc	ra,0x4
   16eac:	d6e080e7          	jalr	-658(ra) # 1ac16 <memcpy>
   16eb0:	03210513          	addi	a0,sp,50
   16eb4:	03200613          	li	a2,50
   16eb8:	4581                	li	a1,0
   16eba:	00004097          	auipc	ra,0x4
   16ebe:	cf0080e7          	jalr	-784(ra) # 1abaa <memset>
   16ec2:	6509                	lui	a0,0x2
   16ec4:	458d                	li	a1,3
   16ec6:	860a                	mv	a2,sp
   16ec8:	03200693          	li	a3,50
   16ecc:	f0750793          	addi	a5,a0,-249 # 1f07 <.Lline_table_start1+0x1cdc>
   16ed0:	4711                	li	a4,4
   16ed2:	4489                	li	s1,2
   16ed4:	853e                	mv	a0,a5
   16ed6:	00000073          	ecall
   16eda:	02950b63          	beq	a0,s1,16f10 <_ZN18complex_no_dynamic3app17hf45e248d8d6d8e4cE+0x78>
   16ede:	4585                	li	a1,1
   16ee0:	03210613          	addi	a2,sp,50
   16ee4:	03200693          	li	a3,50
   16ee8:	470d                	li	a4,3
   16eea:	853e                	mv	a0,a5
   16eec:	00000073          	ecall
   16ef0:	02950063          	beq	a0,s1,16f10 <_ZN18complex_no_dynamic3app17hf45e248d8d6d8e4cE+0x78>
   16ef4:	6509                	lui	a0,0x2
   16ef6:	458d                	li	a1,3
   16ef8:	4605                	li	a2,1
   16efa:	f0750493          	addi	s1,a0,-249 # 1f07 <.Lline_table_start1+0x1cdc>
   16efe:	4709                	li	a4,2
   16f00:	07f00793          	li	a5,127
   16f04:	8526                	mv	a0,s1
   16f06:	4681                	li	a3,0
   16f08:	00000073          	ecall
   16f0c:	02a7ed63          	bltu	a5,a0,16f46 <_ZN18complex_no_dynamic3app17hf45e248d8d6d8e4cE+0xae>
   16f10:	872e                	mv	a4,a1
   16f12:	4601                	li	a2,0
   16f14:	4681                	li	a3,0
   16f16:	4505                	li	a0,1
   16f18:	6789                	lui	a5,0x2
   16f1a:	4585                	li	a1,1
   16f1c:	00a40023          	sb	a0,0(s0)
   16f20:	c058                	sw	a4,4(s0)
   16f22:	f0778793          	addi	a5,a5,-249 # 1f07 <.Lline_table_start1+0x1cdc>
   16f26:	470d                	li	a4,3
   16f28:	853e                	mv	a0,a5
   16f2a:	00000073          	ecall
   16f2e:	458d                	li	a1,3
   16f30:	4711                	li	a4,4
   16f32:	853e                	mv	a0,a5
   16f34:	4601                	li	a2,0
   16f36:	4681                	li	a3,0
   16f38:	00000073          	ecall
   16f3c:	50b6                	lw	ra,108(sp)
   16f3e:	5426                	lw	s0,104(sp)
   16f40:	5496                	lw	s1,100(sp)
   16f42:	6165                	addi	sp,sp,112
   16f44:	8082                	ret
   16f46:	8526                	mv	a0,s1
   16f48:	4601                	li	a2,0
   16f4a:	4681                	li	a3,0
   16f4c:	4585                	li	a1,1
   16f4e:	470d                	li	a4,3
   16f50:	00000073          	ecall
   16f54:	4585                	li	a1,1
   16f56:	470d                	li	a4,3
   16f58:	8526                	mv	a0,s1
   16f5a:	4601                	li	a2,0
   16f5c:	4681                	li	a3,0
   16f5e:	00000073          	ecall
   16f62:	00140513          	addi	a0,s0,1
   16f66:	03210593          	addi	a1,sp,50
   16f6a:	03200613          	li	a2,50
   16f6e:	00004097          	auipc	ra,0x4
   16f72:	ca8080e7          	jalr	-856(ra) # 1ac16 <memcpy>
   16f76:	8526                	mv	a0,s1
   16f78:	4601                	li	a2,0
   16f7a:	4681                	li	a3,0
   16f7c:	00040023          	sb	zero,0(s0)
   16f80:	4585                	li	a1,1
   16f82:	470d                	li	a4,3
   16f84:	00000073          	ecall
   16f88:	458d                	li	a1,3
   16f8a:	4711                	li	a4,4
   16f8c:	8526                	mv	a0,s1
   16f8e:	4601                	li	a2,0
   16f90:	4681                	li	a3,0
   16f92:	00000073          	ecall
   16f96:	b75d                	j	16f3c <_ZN18complex_no_dynamic3app17hf45e248d8d6d8e4cE+0xa4>

00016f98 <_start>:
   16f98:	81010113          	addi	sp,sp,-2032
   16f9c:	7e112623          	sw	ra,2028(sp)
   16fa0:	7e812423          	sw	s0,2024(sp)
   16fa4:	7e912223          	sw	s1,2020(sp)
   16fa8:	7f212023          	sw	s2,2016(sp)
   16fac:	7d312e23          	sw	s3,2012(sp)
   16fb0:	7d412c23          	sw	s4,2008(sp)
   16fb4:	7d512a23          	sw	s5,2004(sp)
   16fb8:	7d612823          	sw	s6,2000(sp)
   16fbc:	7d712623          	sw	s7,1996(sp)
   16fc0:	80010113          	addi	sp,sp,-2048
   16fc4:	b6010113          	addi	sp,sp,-1184
   16fc8:	0848                	addi	a0,sp,20
   16fca:	02800613          	li	a2,40
   16fce:	4581                	li	a1,0
   16fd0:	00004097          	auipc	ra,0x4
   16fd4:	bda080e7          	jalr	-1062(ra) # 1abaa <memset>
   16fd8:	6505                	lui	a0,0x1
   16fda:	34c50513          	addi	a0,a0,844 # 134c <.Lline_table_start1+0x1121>
   16fde:	950a                	add	a0,a0,sp
   16fe0:	05100613          	li	a2,81
   16fe4:	4581                	li	a1,0
   16fe6:	00004097          	auipc	ra,0x4
   16fea:	bc4080e7          	jalr	-1084(ra) # 1abaa <memset>
   16fee:	6409                	lui	s0,0x2
   16ff0:	45a5                	li	a1,9
   16ff2:	0850                	addi	a2,sp,20
   16ff4:	02800693          	li	a3,40
   16ff8:	0419                	addi	s0,s0,6 # 2006 <.Lline_table_start1+0x1ddb>
   16ffa:	4711                	li	a4,4
   16ffc:	4489                	li	s1,2
   16ffe:	8522                	mv	a0,s0
   17000:	00000073          	ecall
   17004:	02950f63          	beq	a0,s1,17042 <_start+0xaa>
   17008:	45a5                	li	a1,9
   1700a:	6505                	lui	a0,0x1
   1700c:	34c50513          	addi	a0,a0,844 # 134c <.Lline_table_start1+0x1121>
   17010:	00a10633          	add	a2,sp,a0
   17014:	05100693          	li	a3,81
   17018:	470d                	li	a4,3
   1701a:	8522                	mv	a0,s0
   1701c:	00000073          	ecall
   17020:	02950163          	beq	a0,s1,17042 <_start+0xaa>
   17024:	4681                	li	a3,0
   17026:	6a09                	lui	s4,0x2
   17028:	45a5                	li	a1,9
   1702a:	4625                	li	a2,9
   1702c:	4709                	li	a4,2
   1702e:	006a0413          	addi	s0,s4,6 # 2006 <.Lline_table_start1+0x1ddb>
   17032:	07f00493          	li	s1,127
   17036:	8522                	mv	a0,s0
   17038:	00000073          	ecall
   1703c:	4989                	li	s3,2
   1703e:	04a4ee63          	bltu	s1,a0,1709a <_start+0x102>
   17042:	87ae                	mv	a5,a1
   17044:	4601                	li	a2,0
   17046:	4681                	li	a3,0
   17048:	6409                	lui	s0,0x2
   1704a:	45a5                	li	a1,9
   1704c:	0419                	addi	s0,s0,6 # 2006 <.Lline_table_start1+0x1ddb>
   1704e:	470d                	li	a4,3
   17050:	8522                	mv	a0,s0
   17052:	00000073          	ecall
   17056:	45a5                	li	a1,9
   17058:	4711                	li	a4,4
   1705a:	8522                	mv	a0,s0
   1705c:	4601                	li	a2,0
   1705e:	4681                	li	a3,0
   17060:	00000073          	ecall
   17064:	4505                	li	a0,1
   17066:	85be                	mv	a1,a5
   17068:	7f010113          	addi	sp,sp,2032
   1706c:	4b010113          	addi	sp,sp,1200
   17070:	7ec12083          	lw	ra,2028(sp)
   17074:	7e812403          	lw	s0,2024(sp)
   17078:	7e412483          	lw	s1,2020(sp)
   1707c:	7e012903          	lw	s2,2016(sp)
   17080:	7dc12983          	lw	s3,2012(sp)
   17084:	7d812a03          	lw	s4,2008(sp)
   17088:	7d412a83          	lw	s5,2004(sp)
   1708c:	7d012b03          	lw	s6,2000(sp)
   17090:	7cc12b83          	lw	s7,1996(sp)
   17094:	7f010113          	addi	sp,sp,2032
   17098:	8082                	ret
   1709a:	8522                	mv	a0,s0
   1709c:	4601                	li	a2,0
   1709e:	4681                	li	a3,0
   170a0:	7ff10913          	addi	s2,sp,2047
   170a4:	7b590913          	addi	s2,s2,1973
   170a8:	45a5                	li	a1,9
   170aa:	470d                	li	a4,3
   170ac:	00000073          	ecall
   170b0:	470d                	li	a4,3
   170b2:	45a5                	li	a1,9
   170b4:	8522                	mv	a0,s0
   170b6:	4601                	li	a2,0
   170b8:	4681                	li	a3,0
   170ba:	00000073          	ecall
   170be:	39994503          	lbu	a0,921(s2)
   170c2:	39894583          	lbu	a1,920(s2)
   170c6:	39a94603          	lbu	a2,922(s2)
   170ca:	39b94a83          	lbu	s5,923(s2)
   170ce:	0522                	slli	a0,a0,0x8
   170d0:	8d4d                	or	a0,a0,a1
   170d2:	39c94b03          	lbu	s6,924(s2)
   170d6:	39d94483          	lbu	s1,925(s2)
   170da:	39e94b83          	lbu	s7,926(s2)
   170de:	00a11823          	sh	a0,16(sp)
   170e2:	00c10923          	sb	a2,18(sp)
   170e6:	6505                	lui	a0,0x1
   170e8:	35350513          	addi	a0,a0,851 # 1353 <.Lline_table_start1+0x1128>
   170ec:	00a105b3          	add	a1,sp,a0
   170f0:	6505                	lui	a0,0x1
   170f2:	2f050513          	addi	a0,a0,752 # 12f0 <.Lline_table_start1+0x10c5>
   170f6:	950a                	add	a0,a0,sp
   170f8:	04a00613          	li	a2,74
   170fc:	00004097          	auipc	ra,0x4
   17100:	b1a080e7          	jalr	-1254(ra) # 1ac16 <memcpy>
   17104:	8522                	mv	a0,s0
   17106:	4601                	li	a2,0
   17108:	4681                	li	a3,0
   1710a:	45a5                	li	a1,9
   1710c:	470d                	li	a4,3
   1710e:	00000073          	ecall
   17112:	45a5                	li	a1,9
   17114:	4711                	li	a4,4
   17116:	8522                	mv	a0,s0
   17118:	4601                	li	a2,0
   1711a:	4681                	li	a3,0
   1711c:	00000073          	ecall
   17120:	6505                	lui	a0,0x1
   17122:	35350513          	addi	a0,a0,851 # 1353 <.Lline_table_start1+0x1128>
   17126:	950a                	add	a0,a0,sp
   17128:	6585                	lui	a1,0x1
   1712a:	2f058593          	addi	a1,a1,752 # 12f0 <.Lline_table_start1+0x10c5>
   1712e:	958a                	add	a1,a1,sp
   17130:	04a00613          	li	a2,74
   17134:	00004097          	auipc	ra,0x4
   17138:	ae2080e7          	jalr	-1310(ra) # 1ac16 <memcpy>
   1713c:	01011503          	lh	a0,16(sp)
   17140:	01214583          	lbu	a1,18(sp)
   17144:	38990ea3          	sb	s1,925(s2)
   17148:	39790f23          	sb	s7,926(s2)
   1714c:	38a91c23          	sh	a0,920(s2)
   17150:	38b90d23          	sb	a1,922(s2)
   17154:	39590da3          	sb	s5,923(s2)
   17158:	39690e23          	sb	s6,924(s2)
   1715c:	6505                	lui	a0,0x1
   1715e:	2f050513          	addi	a0,a0,752 # 12f0 <.Lline_table_start1+0x10c5>
   17162:	950a                	add	a0,a0,sp
   17164:	04600613          	li	a2,70
   17168:	4581                	li	a1,0
   1716a:	00004097          	auipc	ra,0x4
   1716e:	a40080e7          	jalr	-1472(ra) # 1abaa <memset>
   17172:	0c4a0513          	addi	a0,s4,196
   17176:	459d                	li	a1,7
   17178:	6605                	lui	a2,0x1
   1717a:	34c60613          	addi	a2,a2,844 # 134c <.Lline_table_start1+0x1121>
   1717e:	960a                	add	a2,a2,sp
   17180:	05100693          	li	a3,81
   17184:	4711                	li	a4,4
   17186:	00000073          	ecall
   1718a:	05350063          	beq	a0,s3,171ca <_start+0x232>
   1718e:	6509                	lui	a0,0x2
   17190:	6585                	lui	a1,0x1
   17192:	2f058593          	addi	a1,a1,752 # 12f0 <.Lline_table_start1+0x10c5>
   17196:	00b10633          	add	a2,sp,a1
   1719a:	04600693          	li	a3,70
   1719e:	0c450413          	addi	s0,a0,196 # 20c4 <.Lline_table_start1+0x1e99>
   171a2:	470d                	li	a4,3
   171a4:	4489                	li	s1,2
   171a6:	8522                	mv	a0,s0
   171a8:	4581                	li	a1,0
   171aa:	00000073          	ecall
   171ae:	00950e63          	beq	a0,s1,171ca <_start+0x232>
   171b2:	8522                	mv	a0,s0
   171b4:	4601                	li	a2,0
   171b6:	4681                	li	a3,0
   171b8:	459d                	li	a1,7
   171ba:	4709                	li	a4,2
   171bc:	07f00493          	li	s1,127
   171c0:	00000073          	ecall
   171c4:	4989                	li	s3,2
   171c6:	02a4e563          	bltu	s1,a0,171f0 <_start+0x258>
   171ca:	87ae                	mv	a5,a1
   171cc:	4581                	li	a1,0
   171ce:	4601                	li	a2,0
   171d0:	4681                	li	a3,0
   171d2:	6509                	lui	a0,0x2
   171d4:	0c450413          	addi	s0,a0,196 # 20c4 <.Lline_table_start1+0x1e99>
   171d8:	470d                	li	a4,3
   171da:	8522                	mv	a0,s0
   171dc:	00000073          	ecall
   171e0:	459d                	li	a1,7
   171e2:	4711                	li	a4,4
   171e4:	8522                	mv	a0,s0
   171e6:	4601                	li	a2,0
   171e8:	4681                	li	a3,0
   171ea:	00000073          	ecall
   171ee:	bd9d                	j	17064 <_start+0xcc>
   171f0:	4581                	li	a1,0
   171f2:	4601                	li	a2,0
   171f4:	4681                	li	a3,0
   171f6:	6a09                	lui	s4,0x2
   171f8:	0c4a0413          	addi	s0,s4,196 # 20c4 <.Lline_table_start1+0x1e99>
   171fc:	470d                	li	a4,3
   171fe:	8522                	mv	a0,s0
   17200:	00000073          	ecall
   17204:	470d                	li	a4,3
   17206:	8522                	mv	a0,s0
   17208:	4581                	li	a1,0
   1720a:	4601                	li	a2,0
   1720c:	4681                	li	a3,0
   1720e:	00000073          	ecall
   17212:	33d94503          	lbu	a0,829(s2)
   17216:	33c94583          	lbu	a1,828(s2)
   1721a:	33e94603          	lbu	a2,830(s2)
   1721e:	33f94a83          	lbu	s5,831(s2)
   17222:	0522                	slli	a0,a0,0x8
   17224:	8d4d                	or	a0,a0,a1
   17226:	34094b03          	lbu	s6,832(s2)
   1722a:	34194483          	lbu	s1,833(s2)
   1722e:	34294b83          	lbu	s7,834(s2)
   17232:	04a11a23          	sh	a0,84(sp)
   17236:	04c10b23          	sb	a2,86(sp)
   1723a:	6505                	lui	a0,0x1
   1723c:	2f750513          	addi	a0,a0,759 # 12f7 <.Lline_table_start1+0x10cc>
   17240:	00a105b3          	add	a1,sp,a0
   17244:	0848                	addi	a0,sp,20
   17246:	03f00613          	li	a2,63
   1724a:	00004097          	auipc	ra,0x4
   1724e:	9cc080e7          	jalr	-1588(ra) # 1ac16 <memcpy>
   17252:	8522                	mv	a0,s0
   17254:	4581                	li	a1,0
   17256:	4601                	li	a2,0
   17258:	4681                	li	a3,0
   1725a:	470d                	li	a4,3
   1725c:	00000073          	ecall
   17260:	459d                	li	a1,7
   17262:	4711                	li	a4,4
   17264:	8522                	mv	a0,s0
   17266:	4601                	li	a2,0
   17268:	4681                	li	a3,0
   1726a:	00000073          	ecall
   1726e:	6505                	lui	a0,0x1
   17270:	35350513          	addi	a0,a0,851 # 1353 <.Lline_table_start1+0x1128>
   17274:	950a                	add	a0,a0,sp
   17276:	084c                	addi	a1,sp,20
   17278:	03f00613          	li	a2,63
   1727c:	00004097          	auipc	ra,0x4
   17280:	99a080e7          	jalr	-1638(ra) # 1ac16 <memcpy>
   17284:	05411503          	lh	a0,84(sp)
   17288:	05614583          	lbu	a1,86(sp)
   1728c:	38990ea3          	sb	s1,925(s2)
   17290:	39790f23          	sb	s7,926(s2)
   17294:	38a91c23          	sh	a0,920(s2)
   17298:	38b90d23          	sb	a1,922(s2)
   1729c:	39590da3          	sb	s5,923(s2)
   172a0:	39690e23          	sb	s6,924(s2)
   172a4:	6505                	lui	a0,0x1
   172a6:	2f050513          	addi	a0,a0,752 # 12f0 <.Lline_table_start1+0x10c5>
   172aa:	950a                	add	a0,a0,sp
   172ac:	4661                	li	a2,24
   172ae:	4581                	li	a1,0
   172b0:	00004097          	auipc	ra,0x4
   172b4:	8fa080e7          	jalr	-1798(ra) # 1abaa <memset>
   172b8:	3cfa0413          	addi	s0,s4,975
   172bc:	458d                	li	a1,3
   172be:	6505                	lui	a0,0x1
   172c0:	34c50513          	addi	a0,a0,844 # 134c <.Lline_table_start1+0x1121>
   172c4:	00a10633          	add	a2,sp,a0
   172c8:	04600693          	li	a3,70
   172cc:	4711                	li	a4,4
   172ce:	8522                	mv	a0,s0
   172d0:	00000073          	ecall
   172d4:	03350f63          	beq	a0,s3,17312 <_start+0x37a>
   172d8:	4489                	li	s1,2
   172da:	4589                	li	a1,2
   172dc:	6505                	lui	a0,0x1
   172de:	2f050513          	addi	a0,a0,752 # 12f0 <.Lline_table_start1+0x10c5>
   172e2:	00a10633          	add	a2,sp,a0
   172e6:	46e1                	li	a3,24
   172e8:	470d                	li	a4,3
   172ea:	8522                	mv	a0,s0
   172ec:	00000073          	ecall
   172f0:	02950163          	beq	a0,s1,17312 <_start+0x37a>
   172f4:	4681                	li	a3,0
   172f6:	6509                	lui	a0,0x2
   172f8:	458d                	li	a1,3
   172fa:	4609                	li	a2,2
   172fc:	4709                	li	a4,2
   172fe:	3cf50413          	addi	s0,a0,975 # 23cf <.Lline_table_start1+0x21a4>
   17302:	07f00493          	li	s1,127
   17306:	8522                	mv	a0,s0
   17308:	00000073          	ecall
   1730c:	4989                	li	s3,2
   1730e:	02a4e563          	bltu	s1,a0,17338 <_start+0x3a0>
   17312:	87ae                	mv	a5,a1
   17314:	4601                	li	a2,0
   17316:	4681                	li	a3,0
   17318:	6509                	lui	a0,0x2
   1731a:	4589                	li	a1,2
   1731c:	3cf50413          	addi	s0,a0,975 # 23cf <.Lline_table_start1+0x21a4>
   17320:	470d                	li	a4,3
   17322:	8522                	mv	a0,s0
   17324:	00000073          	ecall
   17328:	458d                	li	a1,3
   1732a:	4711                	li	a4,4
   1732c:	8522                	mv	a0,s0
   1732e:	4601                	li	a2,0
   17330:	4681                	li	a3,0
   17332:	00000073          	ecall
   17336:	b33d                	j	17064 <_start+0xcc>
   17338:	8522                	mv	a0,s0
   1733a:	4601                	li	a2,0
   1733c:	4681                	li	a3,0
   1733e:	4589                	li	a1,2
   17340:	470d                	li	a4,3
   17342:	00000073          	ecall
   17346:	470d                	li	a4,3
   17348:	4589                	li	a1,2
   1734a:	8522                	mv	a0,s0
   1734c:	4601                	li	a2,0
   1734e:	4681                	li	a3,0
   17350:	00000073          	ecall
   17354:	33d94503          	lbu	a0,829(s2)
   17358:	33c94583          	lbu	a1,828(s2)
   1735c:	33e94603          	lbu	a2,830(s2)
   17360:	33f94a03          	lbu	s4,831(s2)
   17364:	0522                	slli	a0,a0,0x8
   17366:	8d4d                	or	a0,a0,a1
   17368:	34094a83          	lbu	s5,832(s2)
   1736c:	34194483          	lbu	s1,833(s2)
   17370:	34294b03          	lbu	s6,834(s2)
   17374:	06a11623          	sh	a0,108(sp)
   17378:	06c10723          	sb	a2,110(sp)
   1737c:	6505                	lui	a0,0x1
   1737e:	2f750513          	addi	a0,a0,759 # 12f7 <.Lline_table_start1+0x10cc>
   17382:	00a105b3          	add	a1,sp,a0
   17386:	08a8                	addi	a0,sp,88
   17388:	4645                	li	a2,17
   1738a:	00004097          	auipc	ra,0x4
   1738e:	88c080e7          	jalr	-1908(ra) # 1ac16 <memcpy>
   17392:	8522                	mv	a0,s0
   17394:	4601                	li	a2,0
   17396:	4681                	li	a3,0
   17398:	4589                	li	a1,2
   1739a:	470d                	li	a4,3
   1739c:	00000073          	ecall
   173a0:	458d                	li	a1,3
   173a2:	4711                	li	a4,4
   173a4:	8522                	mv	a0,s0
   173a6:	4601                	li	a2,0
   173a8:	4681                	li	a3,0
   173aa:	00000073          	ecall
   173ae:	01b10513          	addi	a0,sp,27
   173b2:	08ac                	addi	a1,sp,88
   173b4:	4645                	li	a2,17
   173b6:	00004097          	auipc	ra,0x4
   173ba:	860080e7          	jalr	-1952(ra) # 1ac16 <memcpy>
   173be:	06c11503          	lh	a0,108(sp)
   173c2:	06e14583          	lbu	a1,110(sp)
   173c6:	00910ca3          	sb	s1,25(sp)
   173ca:	01610d23          	sb	s6,26(sp)
   173ce:	00a11a23          	sh	a0,20(sp)
   173d2:	00b10b23          	sb	a1,22(sp)
   173d6:	01410ba3          	sb	s4,23(sp)
   173da:	01510c23          	sb	s5,24(sp)
   173de:	6505                	lui	a0,0x1
   173e0:	34c50513          	addi	a0,a0,844 # 134c <.Lline_table_start1+0x1121>
   173e4:	950a                	add	a0,a0,sp
   173e6:	03600613          	li	a2,54
   173ea:	4581                	li	a1,0
   173ec:	00003097          	auipc	ra,0x3
   173f0:	7be080e7          	jalr	1982(ra) # 1abaa <memset>
   173f4:	21f00513          	li	a0,543
   173f8:	0850                	addi	a2,sp,20
   173fa:	46e1                	li	a3,24
   173fc:	4711                	li	a4,4
   173fe:	4581                	li	a1,0
   17400:	00000073          	ecall
   17404:	03350e63          	beq	a0,s3,17440 <_start+0x4a8>
   17408:	21f00513          	li	a0,543
   1740c:	459d                	li	a1,7
   1740e:	6605                	lui	a2,0x1
   17410:	34c60613          	addi	a2,a2,844 # 134c <.Lline_table_start1+0x1121>
   17414:	960a                	add	a2,a2,sp
   17416:	03600693          	li	a3,54
   1741a:	470d                	li	a4,3
   1741c:	4489                	li	s1,2
   1741e:	00000073          	ecall
   17422:	00950f63          	beq	a0,s1,17440 <_start+0x4a8>
   17426:	4581                	li	a1,0
   17428:	4681                	li	a3,0
   1742a:	21f00513          	li	a0,543
   1742e:	461d                	li	a2,7
   17430:	4709                	li	a4,2
   17432:	07f00413          	li	s0,127
   17436:	00000073          	ecall
   1743a:	4989                	li	s3,2
   1743c:	02a46463          	bltu	s0,a0,17464 <_start+0x4cc>
   17440:	87ae                	mv	a5,a1
   17442:	4601                	li	a2,0
   17444:	4681                	li	a3,0
   17446:	21f00513          	li	a0,543
   1744a:	459d                	li	a1,7
   1744c:	470d                	li	a4,3
   1744e:	00000073          	ecall
   17452:	21f00513          	li	a0,543
   17456:	4711                	li	a4,4
   17458:	4581                	li	a1,0
   1745a:	4601                	li	a2,0
   1745c:	4681                	li	a3,0
   1745e:	00000073          	ecall
   17462:	b109                	j	17064 <_start+0xcc>
   17464:	4601                	li	a2,0
   17466:	4681                	li	a3,0
   17468:	21f00513          	li	a0,543
   1746c:	459d                	li	a1,7
   1746e:	470d                	li	a4,3
   17470:	00000073          	ecall
   17474:	470d                	li	a4,3
   17476:	21f00513          	li	a0,543
   1747a:	459d                	li	a1,7
   1747c:	4601                	li	a2,0
   1747e:	4681                	li	a3,0
   17480:	00000073          	ecall
   17484:	39994503          	lbu	a0,921(s2)
   17488:	39894583          	lbu	a1,920(s2)
   1748c:	39a94603          	lbu	a2,922(s2)
   17490:	39b94a03          	lbu	s4,923(s2)
   17494:	0522                	slli	a0,a0,0x8
   17496:	8d4d                	or	a0,a0,a1
   17498:	39c94a83          	lbu	s5,924(s2)
   1749c:	39d94403          	lbu	s0,925(s2)
   174a0:	39e94483          	lbu	s1,926(s2)
   174a4:	06a11823          	sh	a0,112(sp)
   174a8:	06c10923          	sb	a2,114(sp)
   174ac:	6505                	lui	a0,0x1
   174ae:	35350513          	addi	a0,a0,851 # 1353 <.Lline_table_start1+0x1128>
   174b2:	00a105b3          	add	a1,sp,a0
   174b6:	6505                	lui	a0,0x1
   174b8:	2f050513          	addi	a0,a0,752 # 12f0 <.Lline_table_start1+0x10c5>
   174bc:	950a                	add	a0,a0,sp
   174be:	02f00613          	li	a2,47
   174c2:	00003097          	auipc	ra,0x3
   174c6:	754080e7          	jalr	1876(ra) # 1ac16 <memcpy>
   174ca:	4601                	li	a2,0
   174cc:	4681                	li	a3,0
   174ce:	21f00513          	li	a0,543
   174d2:	459d                	li	a1,7
   174d4:	470d                	li	a4,3
   174d6:	00000073          	ecall
   174da:	21f00513          	li	a0,543
   174de:	4711                	li	a4,4
   174e0:	4581                	li	a1,0
   174e2:	4601                	li	a2,0
   174e4:	4681                	li	a3,0
   174e6:	00000073          	ecall
   174ea:	6505                	lui	a0,0x1
   174ec:	35350513          	addi	a0,a0,851 # 1353 <.Lline_table_start1+0x1128>
   174f0:	950a                	add	a0,a0,sp
   174f2:	6585                	lui	a1,0x1
   174f4:	2f058593          	addi	a1,a1,752 # 12f0 <.Lline_table_start1+0x10c5>
   174f8:	958a                	add	a1,a1,sp
   174fa:	02f00613          	li	a2,47
   174fe:	00003097          	auipc	ra,0x3
   17502:	718080e7          	jalr	1816(ra) # 1ac16 <memcpy>
   17506:	07011503          	lh	a0,112(sp)
   1750a:	07214583          	lbu	a1,114(sp)
   1750e:	38890ea3          	sb	s0,925(s2)
   17512:	38990f23          	sb	s1,926(s2)
   17516:	38a91c23          	sh	a0,920(s2)
   1751a:	38b90d23          	sb	a1,922(s2)
   1751e:	39490da3          	sb	s4,923(s2)
   17522:	39590e23          	sb	s5,924(s2)
   17526:	6505                	lui	a0,0x1
   17528:	2f050513          	addi	a0,a0,752 # 12f0 <.Lline_table_start1+0x10c5>
   1752c:	950a                	add	a0,a0,sp
   1752e:	02500613          	li	a2,37
   17532:	4581                	li	a1,0
   17534:	00003097          	auipc	ra,0x3
   17538:	676080e7          	jalr	1654(ra) # 1abaa <memset>
   1753c:	6505                	lui	a0,0x1
   1753e:	459d                	li	a1,7
   17540:	6605                	lui	a2,0x1
   17542:	34c60613          	addi	a2,a2,844 # 134c <.Lline_table_start1+0x1121>
   17546:	960a                	add	a2,a2,sp
   17548:	59750413          	addi	s0,a0,1431 # 1597 <.Lline_table_start1+0x136c>
   1754c:	03600693          	li	a3,54
   17550:	4711                	li	a4,4
   17552:	8522                	mv	a0,s0
   17554:	00000073          	ecall
   17558:	05350063          	beq	a0,s3,17598 <_start+0x600>
   1755c:	6505                	lui	a0,0x1
   1755e:	2f050513          	addi	a0,a0,752 # 12f0 <.Lline_table_start1+0x10c5>
   17562:	00a10633          	add	a2,sp,a0
   17566:	02500693          	li	a3,37
   1756a:	470d                	li	a4,3
   1756c:	4489                	li	s1,2
   1756e:	8522                	mv	a0,s0
   17570:	4581                	li	a1,0
   17572:	00000073          	ecall
   17576:	02950163          	beq	a0,s1,17598 <_start+0x600>
   1757a:	4601                	li	a2,0
   1757c:	4681                	li	a3,0
   1757e:	6505                	lui	a0,0x1
   17580:	459d                	li	a1,7
   17582:	4709                	li	a4,2
   17584:	59750413          	addi	s0,a0,1431 # 1597 <.Lline_table_start1+0x136c>
   17588:	07f00493          	li	s1,127
   1758c:	8522                	mv	a0,s0
   1758e:	00000073          	ecall
   17592:	4989                	li	s3,2
   17594:	02a4e563          	bltu	s1,a0,175be <_start+0x626>
   17598:	87ae                	mv	a5,a1
   1759a:	4581                	li	a1,0
   1759c:	4601                	li	a2,0
   1759e:	4681                	li	a3,0
   175a0:	6505                	lui	a0,0x1
   175a2:	59750413          	addi	s0,a0,1431 # 1597 <.Lline_table_start1+0x136c>
   175a6:	470d                	li	a4,3
   175a8:	8522                	mv	a0,s0
   175aa:	00000073          	ecall
   175ae:	459d                	li	a1,7
   175b0:	4711                	li	a4,4
   175b2:	8522                	mv	a0,s0
   175b4:	4601                	li	a2,0
   175b6:	4681                	li	a3,0
   175b8:	00000073          	ecall
   175bc:	b465                	j	17064 <_start+0xcc>
   175be:	8522                	mv	a0,s0
   175c0:	4581                	li	a1,0
   175c2:	4601                	li	a2,0
   175c4:	4681                	li	a3,0
   175c6:	470d                	li	a4,3
   175c8:	00000073          	ecall
   175cc:	8522                	mv	a0,s0
   175ce:	4581                	li	a1,0
   175d0:	4601                	li	a2,0
   175d2:	4681                	li	a3,0
   175d4:	470d                	li	a4,3
   175d6:	00000073          	ecall
   175da:	33d94503          	lbu	a0,829(s2)
   175de:	33c94583          	lbu	a1,828(s2)
   175e2:	33e94603          	lbu	a2,830(s2)
   175e6:	33f94a03          	lbu	s4,831(s2)
   175ea:	0522                	slli	a0,a0,0x8
   175ec:	8d4d                	or	a0,a0,a1
   175ee:	34094a83          	lbu	s5,832(s2)
   175f2:	34194483          	lbu	s1,833(s2)
   175f6:	34294b03          	lbu	s6,834(s2)
   175fa:	06a11a23          	sh	a0,116(sp)
   175fe:	06c10b23          	sb	a2,118(sp)
   17602:	6505                	lui	a0,0x1
   17604:	2f750513          	addi	a0,a0,759 # 12f7 <.Lline_table_start1+0x10cc>
   17608:	00a105b3          	add	a1,sp,a0
   1760c:	0848                	addi	a0,sp,20
   1760e:	4679                	li	a2,30
   17610:	00003097          	auipc	ra,0x3
   17614:	606080e7          	jalr	1542(ra) # 1ac16 <memcpy>
   17618:	8522                	mv	a0,s0
   1761a:	4581                	li	a1,0
   1761c:	4601                	li	a2,0
   1761e:	4681                	li	a3,0
   17620:	470d                	li	a4,3
   17622:	00000073          	ecall
   17626:	459d                	li	a1,7
   17628:	4711                	li	a4,4
   1762a:	8522                	mv	a0,s0
   1762c:	4601                	li	a2,0
   1762e:	4681                	li	a3,0
   17630:	00000073          	ecall
   17634:	6505                	lui	a0,0x1
   17636:	35350513          	addi	a0,a0,851 # 1353 <.Lline_table_start1+0x1128>
   1763a:	950a                	add	a0,a0,sp
   1763c:	084c                	addi	a1,sp,20
   1763e:	4679                	li	a2,30
   17640:	00003097          	auipc	ra,0x3
   17644:	5d6080e7          	jalr	1494(ra) # 1ac16 <memcpy>
   17648:	07411703          	lh	a4,116(sp)
   1764c:	07614783          	lbu	a5,118(sp)
   17650:	38990ea3          	sb	s1,925(s2)
   17654:	39690f23          	sb	s6,926(s2)
   17658:	32092e23          	sw	zero,828(s2)
   1765c:	34092023          	sw	zero,832(s2)
   17660:	34092223          	sw	zero,836(s2)
   17664:	34091423          	sh	zero,840(s2)
   17668:	66700513          	li	a0,1639
   1766c:	4589                	li	a1,2
   1766e:	6605                	lui	a2,0x1
   17670:	34c60613          	addi	a2,a2,844 # 134c <.Lline_table_start1+0x1121>
   17674:	960a                	add	a2,a2,sp
   17676:	02500693          	li	a3,37
   1767a:	38e91c23          	sh	a4,920(s2)
   1767e:	38f90d23          	sb	a5,922(s2)
   17682:	39490da3          	sb	s4,923(s2)
   17686:	39590e23          	sb	s5,924(s2)
   1768a:	4711                	li	a4,4
   1768c:	00000073          	ecall
   17690:	03350c63          	beq	a0,s3,176c8 <_start+0x730>
   17694:	66700513          	li	a0,1639
   17698:	45a1                	li	a1,8
   1769a:	6605                	lui	a2,0x1
   1769c:	2f060613          	addi	a2,a2,752 # 12f0 <.Lline_table_start1+0x10c5>
   176a0:	960a                	add	a2,a2,sp
   176a2:	46b9                	li	a3,14
   176a4:	470d                	li	a4,3
   176a6:	4489                	li	s1,2
   176a8:	00000073          	ecall
   176ac:	00950e63          	beq	a0,s1,176c8 <_start+0x730>
   176b0:	66700513          	li	a0,1639
   176b4:	4589                	li	a1,2
   176b6:	4621                	li	a2,8
   176b8:	4709                	li	a4,2
   176ba:	07f00493          	li	s1,127
   176be:	4681                	li	a3,0
   176c0:	00000073          	ecall
   176c4:	02a4e463          	bltu	s1,a0,176ec <_start+0x754>
   176c8:	87ae                	mv	a5,a1
   176ca:	4601                	li	a2,0
   176cc:	4681                	li	a3,0
   176ce:	66700513          	li	a0,1639
   176d2:	45a1                	li	a1,8
   176d4:	470d                	li	a4,3
   176d6:	00000073          	ecall
   176da:	66700513          	li	a0,1639
   176de:	4589                	li	a1,2
   176e0:	4711                	li	a4,4
   176e2:	4601                	li	a2,0
   176e4:	4681                	li	a3,0
   176e6:	00000073          	ecall
   176ea:	baad                	j	17064 <_start+0xcc>
   176ec:	4601                	li	a2,0
   176ee:	4681                	li	a3,0
   176f0:	66700513          	li	a0,1639
   176f4:	45a1                	li	a1,8
   176f6:	470d                	li	a4,3
   176f8:	00000073          	ecall
   176fc:	470d                	li	a4,3
   176fe:	66700513          	li	a0,1639
   17702:	45a1                	li	a1,8
   17704:	4601                	li	a2,0
   17706:	4681                	li	a3,0
   17708:	00000073          	ecall
   1770c:	33c91503          	lh	a0,828(s2)
   17710:	33e94583          	lbu	a1,830(s2)
   17714:	33f94803          	lbu	a6,831(s2)
   17718:	34094883          	lbu	a7,832(s2)
   1771c:	34594603          	lbu	a2,837(s2)
   17720:	34694683          	lbu	a3,838(s2)
   17724:	34794703          	lbu	a4,839(s2)
   17728:	34894403          	lbu	s0,840(s2)
   1772c:	06a11c23          	sh	a0,120(sp)
   17730:	06b10d23          	sb	a1,122(sp)
   17734:	34194283          	lbu	t0,833(s2)
   17738:	34294483          	lbu	s1,834(s2)
   1773c:	34394503          	lbu	a0,835(s2)
   17740:	34494583          	lbu	a1,836(s2)
   17744:	0422                	slli	s0,s0,0x8
   17746:	8c59                	or	s0,s0,a4
   17748:	470d                	li	a4,3
   1774a:	05a2                	slli	a1,a1,0x8
   1774c:	8dc9                	or	a1,a1,a0
   1774e:	34994783          	lbu	a5,841(s2)
   17752:	0642                	slli	a2,a2,0x10
   17754:	06e2                	slli	a3,a3,0x18
   17756:	8e55                	or	a2,a2,a3
   17758:	66700513          	li	a0,1639
   1775c:	8e4d                	or	a2,a2,a1
   1775e:	45a1                	li	a1,8
   17760:	ca32                	sw	a2,20(sp)
   17762:	00811c23          	sh	s0,24(sp)
   17766:	00f10d23          	sb	a5,26(sp)
   1776a:	4601                	li	a2,0
   1776c:	4681                	li	a3,0
   1776e:	00000073          	ecall
   17772:	4711                	li	a4,4
   17774:	66700513          	li	a0,1639
   17778:	4589                	li	a1,2
   1777a:	4601                	li	a2,0
   1777c:	4681                	li	a3,0
   1777e:	00000073          	ecall
   17782:	07010da3          	sb	a6,123(sp)
   17786:	07110e23          	sb	a7,124(sp)
   1778a:	06510ea3          	sb	t0,125(sp)
   1778e:	06910f23          	sb	s1,126(sp)
   17792:	07f10513          	addi	a0,sp,127
   17796:	084c                	addi	a1,sp,20
   17798:	461d                	li	a2,7
   1779a:	00003097          	auipc	ra,0x3
   1779e:	47c080e7          	jalr	1148(ra) # 1ac16 <memcpy>
   177a2:	6505                	lui	a0,0x1
   177a4:	34c50513          	addi	a0,a0,844 # 134c <.Lline_table_start1+0x1121>
   177a8:	950a                	add	a0,a0,sp
   177aa:	18ac                	addi	a1,sp,120
   177ac:	ffffd097          	auipc	ra,0xffffd
   177b0:	ff8080e7          	jalr	-8(ra) # 147a4 <_ZN18complex_no_dynamic3app17h8aa025b3420b5554E>
   177b4:	39894503          	lbu	a0,920(s2)
   177b8:	c119                	beqz	a0,177be <_start+0x826>
   177ba:	3e40306f          	j	1ab9e <_start+0x3c06>
   177be:	39a94503          	lbu	a0,922(s2)
   177c2:	39994583          	lbu	a1,921(s2)
   177c6:	39b94603          	lbu	a2,923(s2)
   177ca:	39c92403          	lw	s0,924(s2)
   177ce:	0522                	slli	a0,a0,0x8
   177d0:	8d4d                	or	a0,a0,a1
   177d2:	08a11323          	sh	a0,134(sp)
   177d6:	08c10423          	sb	a2,136(sp)
   177da:	6505                	lui	a0,0x1
   177dc:	35450513          	addi	a0,a0,852 # 1354 <.Lline_table_start1+0x1129>
   177e0:	00a105b3          	add	a1,sp,a0
   177e4:	6505                	lui	a0,0x1
   177e6:	2f050513          	addi	a0,a0,752 # 12f0 <.Lline_table_start1+0x10c5>
   177ea:	950a                	add	a0,a0,sp
   177ec:	04100613          	li	a2,65
   177f0:	00003097          	auipc	ra,0x3
   177f4:	426080e7          	jalr	1062(ra) # 1ac16 <memcpy>
   177f8:	01845513          	srli	a0,s0,0x18
   177fc:	01045593          	srli	a1,s0,0x10
   17800:	00845613          	srli	a2,s0,0x8
   17804:	088104a3          	sb	s0,137(sp)
   17808:	08c10523          	sb	a2,138(sp)
   1780c:	08b105a3          	sb	a1,139(sp)
   17810:	08a10623          	sb	a0,140(sp)
   17814:	08d10513          	addi	a0,sp,141
   17818:	6585                	lui	a1,0x1
   1781a:	2f058593          	addi	a1,a1,752 # 12f0 <.Lline_table_start1+0x10c5>
   1781e:	958a                	add	a1,a1,sp
   17820:	04100613          	li	a2,65
   17824:	00003097          	auipc	ra,0x3
   17828:	3f2080e7          	jalr	1010(ra) # 1ac16 <memcpy>
   1782c:	6505                	lui	a0,0x1
   1782e:	34c50513          	addi	a0,a0,844 # 134c <.Lline_table_start1+0x1121>
   17832:	950a                	add	a0,a0,sp
   17834:	08610593          	addi	a1,sp,134
   17838:	ffffc097          	auipc	ra,0xffffc
   1783c:	0ae080e7          	jalr	174(ra) # 138e6 <_ZN18complex_no_dynamic3app17h7393b881c67ceae8E>
   17840:	39894503          	lbu	a0,920(s2)
   17844:	c119                	beqz	a0,1784a <_start+0x8b2>
   17846:	3580306f          	j	1ab9e <_start+0x3c06>
   1784a:	39994503          	lbu	a0,921(s2)
   1784e:	39a94583          	lbu	a1,922(s2)
   17852:	39b94803          	lbu	a6,923(s2)
   17856:	39c92683          	lw	a3,924(s2)
   1785a:	3a092703          	lw	a4,928(s2)
   1785e:	3a492783          	lw	a5,932(s2)
   17862:	05a2                	slli	a1,a1,0x8
   17864:	0186d893          	srli	a7,a3,0x18
   17868:	0106d293          	srli	t0,a3,0x10
   1786c:	0187d613          	srli	a2,a5,0x18
   17870:	0107d493          	srli	s1,a5,0x10
   17874:	0087d413          	srli	s0,a5,0x8
   17878:	8d4d                	or	a0,a0,a1
   1787a:	01875593          	srli	a1,a4,0x18
   1787e:	0c910da3          	sb	s1,219(sp)
   17882:	0cc10e23          	sb	a2,220(sp)
   17886:	01075613          	srli	a2,a4,0x10
   1788a:	0cc10ba3          	sb	a2,215(sp)
   1788e:	0cb10c23          	sb	a1,216(sp)
   17892:	0cf10ca3          	sb	a5,217(sp)
   17896:	0c810d23          	sb	s0,218(sp)
   1789a:	0086d593          	srli	a1,a3,0x8
   1789e:	0ca11723          	sh	a0,206(sp)
   178a2:	0d010823          	sb	a6,208(sp)
   178a6:	0cd108a3          	sb	a3,209(sp)
   178aa:	0cb10923          	sb	a1,210(sp)
   178ae:	00875513          	srli	a0,a4,0x8
   178b2:	0c5109a3          	sb	t0,211(sp)
   178b6:	0d110a23          	sb	a7,212(sp)
   178ba:	0ce10aa3          	sb	a4,213(sp)
   178be:	0ca10b23          	sb	a0,214(sp)
   178c2:	6505                	lui	a0,0x1
   178c4:	34c50513          	addi	a0,a0,844 # 134c <.Lline_table_start1+0x1121>
   178c8:	950a                	add	a0,a0,sp
   178ca:	0ce10593          	addi	a1,sp,206
   178ce:	fffff097          	auipc	ra,0xfffff
   178d2:	bda080e7          	jalr	-1062(ra) # 164a8 <_ZN18complex_no_dynamic3app17hd676bfadd7171613E>
   178d6:	39894503          	lbu	a0,920(s2)
   178da:	c119                	beqz	a0,178e0 <_start+0x948>
   178dc:	2c20306f          	j	1ab9e <_start+0x3c06>
   178e0:	39a94503          	lbu	a0,922(s2)
   178e4:	39994583          	lbu	a1,921(s2)
   178e8:	39b94603          	lbu	a2,923(s2)
   178ec:	39c92403          	lw	s0,924(s2)
   178f0:	0522                	slli	a0,a0,0x8
   178f2:	8d4d                	or	a0,a0,a1
   178f4:	0ca11f23          	sh	a0,222(sp)
   178f8:	0ec10023          	sb	a2,224(sp)
   178fc:	6505                	lui	a0,0x1
   178fe:	35450513          	addi	a0,a0,852 # 1354 <.Lline_table_start1+0x1129>
   17902:	00a105b3          	add	a1,sp,a0
   17906:	6505                	lui	a0,0x1
   17908:	2f050513          	addi	a0,a0,752 # 12f0 <.Lline_table_start1+0x10c5>
   1790c:	950a                	add	a0,a0,sp
   1790e:	4679                	li	a2,30
   17910:	00003097          	auipc	ra,0x3
   17914:	306080e7          	jalr	774(ra) # 1ac16 <memcpy>
   17918:	01845513          	srli	a0,s0,0x18
   1791c:	01045593          	srli	a1,s0,0x10
   17920:	00845613          	srli	a2,s0,0x8
   17924:	0e8100a3          	sb	s0,225(sp)
   17928:	0ec10123          	sb	a2,226(sp)
   1792c:	0eb101a3          	sb	a1,227(sp)
   17930:	0ea10223          	sb	a0,228(sp)
   17934:	0e510513          	addi	a0,sp,229
   17938:	6585                	lui	a1,0x1
   1793a:	2f058593          	addi	a1,a1,752 # 12f0 <.Lline_table_start1+0x10c5>
   1793e:	958a                	add	a1,a1,sp
   17940:	4679                	li	a2,30
   17942:	00003097          	auipc	ra,0x3
   17946:	2d4080e7          	jalr	724(ra) # 1ac16 <memcpy>
   1794a:	6505                	lui	a0,0x1
   1794c:	34c50513          	addi	a0,a0,844 # 134c <.Lline_table_start1+0x1121>
   17950:	950a                	add	a0,a0,sp
   17952:	0de10593          	addi	a1,sp,222
   17956:	ffffc097          	auipc	ra,0xffffc
   1795a:	8a4080e7          	jalr	-1884(ra) # 131fa <_ZN18complex_no_dynamic3app17h6122e677e79743e2E>
   1795e:	39894503          	lbu	a0,920(s2)
   17962:	c119                	beqz	a0,17968 <_start+0x9d0>
   17964:	23a0306f          	j	1ab9e <_start+0x3c06>
   17968:	39a94503          	lbu	a0,922(s2)
   1796c:	39994583          	lbu	a1,921(s2)
   17970:	39b94603          	lbu	a2,923(s2)
   17974:	39c92403          	lw	s0,924(s2)
   17978:	0522                	slli	a0,a0,0x8
   1797a:	8d4d                	or	a0,a0,a1
   1797c:	10a11223          	sh	a0,260(sp)
   17980:	10c10323          	sb	a2,262(sp)
   17984:	6505                	lui	a0,0x1
   17986:	35450513          	addi	a0,a0,852 # 1354 <.Lline_table_start1+0x1129>
   1798a:	00a105b3          	add	a1,sp,a0
   1798e:	6505                	lui	a0,0x1
   17990:	2f050513          	addi	a0,a0,752 # 12f0 <.Lline_table_start1+0x10c5>
   17994:	950a                	add	a0,a0,sp
   17996:	02300613          	li	a2,35
   1799a:	00003097          	auipc	ra,0x3
   1799e:	27c080e7          	jalr	636(ra) # 1ac16 <memcpy>
   179a2:	01845513          	srli	a0,s0,0x18
   179a6:	01045593          	srli	a1,s0,0x10
   179aa:	00845613          	srli	a2,s0,0x8
   179ae:	108103a3          	sb	s0,263(sp)
   179b2:	10c10423          	sb	a2,264(sp)
   179b6:	10b104a3          	sb	a1,265(sp)
   179ba:	10a10523          	sb	a0,266(sp)
   179be:	10b10513          	addi	a0,sp,267
   179c2:	6585                	lui	a1,0x1
   179c4:	2f058593          	addi	a1,a1,752 # 12f0 <.Lline_table_start1+0x10c5>
   179c8:	958a                	add	a1,a1,sp
   179ca:	02300613          	li	a2,35
   179ce:	00003097          	auipc	ra,0x3
   179d2:	248080e7          	jalr	584(ra) # 1ac16 <memcpy>
   179d6:	6505                	lui	a0,0x1
   179d8:	34c50513          	addi	a0,a0,844 # 134c <.Lline_table_start1+0x1121>
   179dc:	950a                	add	a0,a0,sp
   179de:	024c                	addi	a1,sp,260
   179e0:	ffffc097          	auipc	ra,0xffffc
   179e4:	204080e7          	jalr	516(ra) # 13be4 <_ZN18complex_no_dynamic3app17h7877375af41c45f3E>
   179e8:	39894503          	lbu	a0,920(s2)
   179ec:	c119                	beqz	a0,179f2 <_start+0xa5a>
   179ee:	1b00306f          	j	1ab9e <_start+0x3c06>
   179f2:	39a94503          	lbu	a0,922(s2)
   179f6:	39994583          	lbu	a1,921(s2)
   179fa:	39b94603          	lbu	a2,923(s2)
   179fe:	39c92403          	lw	s0,924(s2)
   17a02:	0522                	slli	a0,a0,0x8
   17a04:	8d4d                	or	a0,a0,a1
   17a06:	12a11723          	sh	a0,302(sp)
   17a0a:	12c10823          	sb	a2,304(sp)
   17a0e:	6505                	lui	a0,0x1
   17a10:	35450513          	addi	a0,a0,852 # 1354 <.Lline_table_start1+0x1129>
   17a14:	00a105b3          	add	a1,sp,a0
   17a18:	6505                	lui	a0,0x1
   17a1a:	2f050513          	addi	a0,a0,752 # 12f0 <.Lline_table_start1+0x10c5>
   17a1e:	950a                	add	a0,a0,sp
   17a20:	05c00613          	li	a2,92
   17a24:	00003097          	auipc	ra,0x3
   17a28:	1f2080e7          	jalr	498(ra) # 1ac16 <memcpy>
   17a2c:	01845513          	srli	a0,s0,0x18
   17a30:	01045593          	srli	a1,s0,0x10
   17a34:	00845613          	srli	a2,s0,0x8
   17a38:	128108a3          	sb	s0,305(sp)
   17a3c:	12c10923          	sb	a2,306(sp)
   17a40:	12b109a3          	sb	a1,307(sp)
   17a44:	12a10a23          	sb	a0,308(sp)
   17a48:	13510513          	addi	a0,sp,309
   17a4c:	6585                	lui	a1,0x1
   17a4e:	2f058593          	addi	a1,a1,752 # 12f0 <.Lline_table_start1+0x10c5>
   17a52:	958a                	add	a1,a1,sp
   17a54:	05c00613          	li	a2,92
   17a58:	00003097          	auipc	ra,0x3
   17a5c:	1be080e7          	jalr	446(ra) # 1ac16 <memcpy>
   17a60:	6505                	lui	a0,0x1
   17a62:	34c50513          	addi	a0,a0,844 # 134c <.Lline_table_start1+0x1121>
   17a66:	950a                	add	a0,a0,sp
   17a68:	12e10593          	addi	a1,sp,302
   17a6c:	ffffa097          	auipc	ra,0xffffa
   17a70:	2a8080e7          	jalr	680(ra) # 11d14 <_ZN18complex_no_dynamic3app17h2f1db3589d491c05E>
   17a74:	39894503          	lbu	a0,920(s2)
   17a78:	c119                	beqz	a0,17a7e <_start+0xae6>
   17a7a:	1240306f          	j	1ab9e <_start+0x3c06>
   17a7e:	39a94503          	lbu	a0,922(s2)
   17a82:	39994583          	lbu	a1,921(s2)
   17a86:	39b94603          	lbu	a2,923(s2)
   17a8a:	39c92403          	lw	s0,924(s2)
   17a8e:	0522                	slli	a0,a0,0x8
   17a90:	8d4d                	or	a0,a0,a1
   17a92:	18a11923          	sh	a0,402(sp)
   17a96:	18c10a23          	sb	a2,404(sp)
   17a9a:	6505                	lui	a0,0x1
   17a9c:	35450513          	addi	a0,a0,852 # 1354 <.Lline_table_start1+0x1129>
   17aa0:	00a105b3          	add	a1,sp,a0
   17aa4:	6505                	lui	a0,0x1
   17aa6:	2f050513          	addi	a0,a0,752 # 12f0 <.Lline_table_start1+0x10c5>
   17aaa:	950a                	add	a0,a0,sp
   17aac:	02000613          	li	a2,32
   17ab0:	00003097          	auipc	ra,0x3
   17ab4:	166080e7          	jalr	358(ra) # 1ac16 <memcpy>
   17ab8:	01845513          	srli	a0,s0,0x18
   17abc:	01045593          	srli	a1,s0,0x10
   17ac0:	00845613          	srli	a2,s0,0x8
   17ac4:	18810aa3          	sb	s0,405(sp)
   17ac8:	18c10b23          	sb	a2,406(sp)
   17acc:	18b10ba3          	sb	a1,407(sp)
   17ad0:	18a10c23          	sb	a0,408(sp)
   17ad4:	19910513          	addi	a0,sp,409
   17ad8:	6585                	lui	a1,0x1
   17ada:	2f058593          	addi	a1,a1,752 # 12f0 <.Lline_table_start1+0x10c5>
   17ade:	958a                	add	a1,a1,sp
   17ae0:	02000613          	li	a2,32
   17ae4:	00003097          	auipc	ra,0x3
   17ae8:	132080e7          	jalr	306(ra) # 1ac16 <memcpy>
   17aec:	6505                	lui	a0,0x1
   17aee:	34c50513          	addi	a0,a0,844 # 134c <.Lline_table_start1+0x1121>
   17af2:	950a                	add	a0,a0,sp
   17af4:	19210593          	addi	a1,sp,402
   17af8:	fffff097          	auipc	ra,0xfffff
   17afc:	cac080e7          	jalr	-852(ra) # 167a4 <_ZN18complex_no_dynamic3app17hdd75c2c24ecf4764E>
   17b00:	39894503          	lbu	a0,920(s2)
   17b04:	c119                	beqz	a0,17b0a <_start+0xb72>
   17b06:	0980306f          	j	1ab9e <_start+0x3c06>
   17b0a:	39a94503          	lbu	a0,922(s2)
   17b0e:	39994583          	lbu	a1,921(s2)
   17b12:	39b94603          	lbu	a2,923(s2)
   17b16:	39c92403          	lw	s0,924(s2)
   17b1a:	0522                	slli	a0,a0,0x8
   17b1c:	8d4d                	or	a0,a0,a1
   17b1e:	1aa11d23          	sh	a0,442(sp)
   17b22:	1ac10e23          	sb	a2,444(sp)
   17b26:	6505                	lui	a0,0x1
   17b28:	35450513          	addi	a0,a0,852 # 1354 <.Lline_table_start1+0x1129>
   17b2c:	00a105b3          	add	a1,sp,a0
   17b30:	6505                	lui	a0,0x1
   17b32:	2f050513          	addi	a0,a0,752 # 12f0 <.Lline_table_start1+0x10c5>
   17b36:	950a                	add	a0,a0,sp
   17b38:	465d                	li	a2,23
   17b3a:	00003097          	auipc	ra,0x3
   17b3e:	0dc080e7          	jalr	220(ra) # 1ac16 <memcpy>
   17b42:	01845513          	srli	a0,s0,0x18
   17b46:	01045593          	srli	a1,s0,0x10
   17b4a:	00845613          	srli	a2,s0,0x8
   17b4e:	1a810ea3          	sb	s0,445(sp)
   17b52:	1ac10f23          	sb	a2,446(sp)
   17b56:	1ab10fa3          	sb	a1,447(sp)
   17b5a:	1ca10023          	sb	a0,448(sp)
   17b5e:	1c110513          	addi	a0,sp,449
   17b62:	6585                	lui	a1,0x1
   17b64:	2f058593          	addi	a1,a1,752 # 12f0 <.Lline_table_start1+0x10c5>
   17b68:	958a                	add	a1,a1,sp
   17b6a:	465d                	li	a2,23
   17b6c:	00003097          	auipc	ra,0x3
   17b70:	0aa080e7          	jalr	170(ra) # 1ac16 <memcpy>
   17b74:	6505                	lui	a0,0x1
   17b76:	34c50513          	addi	a0,a0,844 # 134c <.Lline_table_start1+0x1121>
   17b7a:	950a                	add	a0,a0,sp
   17b7c:	1ba10593          	addi	a1,sp,442
   17b80:	fffff097          	auipc	ra,0xfffff
   17b84:	e26080e7          	jalr	-474(ra) # 169a6 <_ZN18complex_no_dynamic3app17hdf674c79f57d675aE>
   17b88:	39894503          	lbu	a0,920(s2)
   17b8c:	c119                	beqz	a0,17b92 <_start+0xbfa>
   17b8e:	0100306f          	j	1ab9e <_start+0x3c06>
   17b92:	39a94503          	lbu	a0,922(s2)
   17b96:	39994583          	lbu	a1,921(s2)
   17b9a:	39b94603          	lbu	a2,923(s2)
   17b9e:	39c92403          	lw	s0,924(s2)
   17ba2:	0522                	slli	a0,a0,0x8
   17ba4:	8d4d                	or	a0,a0,a1
   17ba6:	1ca11c23          	sh	a0,472(sp)
   17baa:	1cc10d23          	sb	a2,474(sp)
   17bae:	6505                	lui	a0,0x1
   17bb0:	35450513          	addi	a0,a0,852 # 1354 <.Lline_table_start1+0x1129>
   17bb4:	00a105b3          	add	a1,sp,a0
   17bb8:	6505                	lui	a0,0x1
   17bba:	2f050513          	addi	a0,a0,752 # 12f0 <.Lline_table_start1+0x10c5>
   17bbe:	950a                	add	a0,a0,sp
   17bc0:	02500613          	li	a2,37
   17bc4:	00003097          	auipc	ra,0x3
   17bc8:	052080e7          	jalr	82(ra) # 1ac16 <memcpy>
   17bcc:	01845513          	srli	a0,s0,0x18
   17bd0:	01045593          	srli	a1,s0,0x10
   17bd4:	00845613          	srli	a2,s0,0x8
   17bd8:	1c810da3          	sb	s0,475(sp)
   17bdc:	1cc10e23          	sb	a2,476(sp)
   17be0:	1cb10ea3          	sb	a1,477(sp)
   17be4:	1ca10f23          	sb	a0,478(sp)
   17be8:	1df10513          	addi	a0,sp,479
   17bec:	6585                	lui	a1,0x1
   17bee:	2f058593          	addi	a1,a1,752 # 12f0 <.Lline_table_start1+0x10c5>
   17bf2:	958a                	add	a1,a1,sp
   17bf4:	02500613          	li	a2,37
   17bf8:	00003097          	auipc	ra,0x3
   17bfc:	01e080e7          	jalr	30(ra) # 1ac16 <memcpy>
   17c00:	6505                	lui	a0,0x1
   17c02:	34c50513          	addi	a0,a0,844 # 134c <.Lline_table_start1+0x1121>
   17c06:	950a                	add	a0,a0,sp
   17c08:	0bac                	addi	a1,sp,472
   17c0a:	ffffc097          	auipc	ra,0xffffc
   17c0e:	dda080e7          	jalr	-550(ra) # 139e4 <_ZN18complex_no_dynamic3app17h754b133ae692b191E>
   17c12:	39894503          	lbu	a0,920(s2)
   17c16:	c119                	beqz	a0,17c1c <_start+0xc84>
   17c18:	7870206f          	j	1ab9e <_start+0x3c06>
   17c1c:	39a94503          	lbu	a0,922(s2)
   17c20:	39994583          	lbu	a1,921(s2)
   17c24:	39b94603          	lbu	a2,923(s2)
   17c28:	39c92403          	lw	s0,924(s2)
   17c2c:	0522                	slli	a0,a0,0x8
   17c2e:	8d4d                	or	a0,a0,a1
   17c30:	20a11223          	sh	a0,516(sp)
   17c34:	20c10323          	sb	a2,518(sp)
   17c38:	6505                	lui	a0,0x1
   17c3a:	35450513          	addi	a0,a0,852 # 1354 <.Lline_table_start1+0x1129>
   17c3e:	00a105b3          	add	a1,sp,a0
   17c42:	6505                	lui	a0,0x1
   17c44:	2f050513          	addi	a0,a0,752 # 12f0 <.Lline_table_start1+0x10c5>
   17c48:	950a                	add	a0,a0,sp
   17c4a:	4679                	li	a2,30
   17c4c:	00003097          	auipc	ra,0x3
   17c50:	fca080e7          	jalr	-54(ra) # 1ac16 <memcpy>
   17c54:	01845513          	srli	a0,s0,0x18
   17c58:	01045593          	srli	a1,s0,0x10
   17c5c:	00845613          	srli	a2,s0,0x8
   17c60:	208103a3          	sb	s0,519(sp)
   17c64:	20c10423          	sb	a2,520(sp)
   17c68:	20b104a3          	sb	a1,521(sp)
   17c6c:	20a10523          	sb	a0,522(sp)
   17c70:	20b10513          	addi	a0,sp,523
   17c74:	6585                	lui	a1,0x1
   17c76:	2f058593          	addi	a1,a1,752 # 12f0 <.Lline_table_start1+0x10c5>
   17c7a:	958a                	add	a1,a1,sp
   17c7c:	4679                	li	a2,30
   17c7e:	00003097          	auipc	ra,0x3
   17c82:	f98080e7          	jalr	-104(ra) # 1ac16 <memcpy>
   17c86:	6505                	lui	a0,0x1
   17c88:	34c50513          	addi	a0,a0,844 # 134c <.Lline_table_start1+0x1121>
   17c8c:	950a                	add	a0,a0,sp
   17c8e:	044c                	addi	a1,sp,516
   17c90:	ffffb097          	auipc	ra,0xffffb
   17c94:	472080e7          	jalr	1138(ra) # 13102 <_ZN18complex_no_dynamic3app17h5ea909839124508eE>
   17c98:	39894503          	lbu	a0,920(s2)
   17c9c:	c119                	beqz	a0,17ca2 <_start+0xd0a>
   17c9e:	7010206f          	j	1ab9e <_start+0x3c06>
   17ca2:	39a94503          	lbu	a0,922(s2)
   17ca6:	39994583          	lbu	a1,921(s2)
   17caa:	39b94603          	lbu	a2,923(s2)
   17cae:	39c92403          	lw	s0,924(s2)
   17cb2:	0522                	slli	a0,a0,0x8
   17cb4:	8d4d                	or	a0,a0,a1
   17cb6:	22a11523          	sh	a0,554(sp)
   17cba:	22c10623          	sb	a2,556(sp)
   17cbe:	6505                	lui	a0,0x1
   17cc0:	35450513          	addi	a0,a0,852 # 1354 <.Lline_table_start1+0x1129>
   17cc4:	00a105b3          	add	a1,sp,a0
   17cc8:	6505                	lui	a0,0x1
   17cca:	2f050513          	addi	a0,a0,752 # 12f0 <.Lline_table_start1+0x10c5>
   17cce:	950a                	add	a0,a0,sp
   17cd0:	4645                	li	a2,17
   17cd2:	00003097          	auipc	ra,0x3
   17cd6:	f44080e7          	jalr	-188(ra) # 1ac16 <memcpy>
   17cda:	01845513          	srli	a0,s0,0x18
   17cde:	01045593          	srli	a1,s0,0x10
   17ce2:	00845613          	srli	a2,s0,0x8
   17ce6:	228106a3          	sb	s0,557(sp)
   17cea:	22c10723          	sb	a2,558(sp)
   17cee:	22b107a3          	sb	a1,559(sp)
   17cf2:	22a10823          	sb	a0,560(sp)
   17cf6:	23110513          	addi	a0,sp,561
   17cfa:	6585                	lui	a1,0x1
   17cfc:	2f058593          	addi	a1,a1,752 # 12f0 <.Lline_table_start1+0x10c5>
   17d00:	958a                	add	a1,a1,sp
   17d02:	4645                	li	a2,17
   17d04:	00003097          	auipc	ra,0x3
   17d08:	f12080e7          	jalr	-238(ra) # 1ac16 <memcpy>
   17d0c:	6505                	lui	a0,0x1
   17d0e:	34c50513          	addi	a0,a0,844 # 134c <.Lline_table_start1+0x1121>
   17d12:	950a                	add	a0,a0,sp
   17d14:	22a10593          	addi	a1,sp,554
   17d18:	ffff9097          	auipc	ra,0xffff9
   17d1c:	520080e7          	jalr	1312(ra) # 11238 <_ZN18complex_no_dynamic3app17h08708a12094af326E>
   17d20:	39894503          	lbu	a0,920(s2)
   17d24:	c119                	beqz	a0,17d2a <_start+0xd92>
   17d26:	6790206f          	j	1ab9e <_start+0x3c06>
   17d2a:	39a94503          	lbu	a0,922(s2)
   17d2e:	39994583          	lbu	a1,921(s2)
   17d32:	39b94603          	lbu	a2,923(s2)
   17d36:	39c92403          	lw	s0,924(s2)
   17d3a:	0522                	slli	a0,a0,0x8
   17d3c:	8d4d                	or	a0,a0,a1
   17d3e:	24a11123          	sh	a0,578(sp)
   17d42:	24c10223          	sb	a2,580(sp)
   17d46:	6505                	lui	a0,0x1
   17d48:	35450513          	addi	a0,a0,852 # 1354 <.Lline_table_start1+0x1129>
   17d4c:	00a105b3          	add	a1,sp,a0
   17d50:	6505                	lui	a0,0x1
   17d52:	2f050513          	addi	a0,a0,752 # 12f0 <.Lline_table_start1+0x10c5>
   17d56:	950a                	add	a0,a0,sp
   17d58:	02f00613          	li	a2,47
   17d5c:	00003097          	auipc	ra,0x3
   17d60:	eba080e7          	jalr	-326(ra) # 1ac16 <memcpy>
   17d64:	01845513          	srli	a0,s0,0x18
   17d68:	01045593          	srli	a1,s0,0x10
   17d6c:	00845613          	srli	a2,s0,0x8
   17d70:	248102a3          	sb	s0,581(sp)
   17d74:	24c10323          	sb	a2,582(sp)
   17d78:	24b103a3          	sb	a1,583(sp)
   17d7c:	24a10423          	sb	a0,584(sp)
   17d80:	24910513          	addi	a0,sp,585
   17d84:	6585                	lui	a1,0x1
   17d86:	2f058593          	addi	a1,a1,752 # 12f0 <.Lline_table_start1+0x10c5>
   17d8a:	958a                	add	a1,a1,sp
   17d8c:	02f00613          	li	a2,47
   17d90:	00003097          	auipc	ra,0x3
   17d94:	e86080e7          	jalr	-378(ra) # 1ac16 <memcpy>
   17d98:	6505                	lui	a0,0x1
   17d9a:	34c50513          	addi	a0,a0,844 # 134c <.Lline_table_start1+0x1121>
   17d9e:	950a                	add	a0,a0,sp
   17da0:	24210593          	addi	a1,sp,578
   17da4:	fffff097          	auipc	ra,0xfffff
   17da8:	dfa080e7          	jalr	-518(ra) # 16b9e <_ZN18complex_no_dynamic3app17he9f518c9f391cf56E>
   17dac:	39894503          	lbu	a0,920(s2)
   17db0:	c119                	beqz	a0,17db6 <_start+0xe1e>
   17db2:	5ed0206f          	j	1ab9e <_start+0x3c06>
   17db6:	39a94503          	lbu	a0,922(s2)
   17dba:	39994583          	lbu	a1,921(s2)
   17dbe:	39b94603          	lbu	a2,923(s2)
   17dc2:	39c92403          	lw	s0,924(s2)
   17dc6:	0522                	slli	a0,a0,0x8
   17dc8:	8d4d                	or	a0,a0,a1
   17dca:	26a11c23          	sh	a0,632(sp)
   17dce:	26c10d23          	sb	a2,634(sp)
   17dd2:	6505                	lui	a0,0x1
   17dd4:	35450513          	addi	a0,a0,852 # 1354 <.Lline_table_start1+0x1129>
   17dd8:	00a105b3          	add	a1,sp,a0
   17ddc:	6505                	lui	a0,0x1
   17dde:	2f050513          	addi	a0,a0,752 # 12f0 <.Lline_table_start1+0x10c5>
   17de2:	950a                	add	a0,a0,sp
   17de4:	02d00613          	li	a2,45
   17de8:	00003097          	auipc	ra,0x3
   17dec:	e2e080e7          	jalr	-466(ra) # 1ac16 <memcpy>
   17df0:	01845513          	srli	a0,s0,0x18
   17df4:	01045593          	srli	a1,s0,0x10
   17df8:	00845613          	srli	a2,s0,0x8
   17dfc:	26810da3          	sb	s0,635(sp)
   17e00:	26c10e23          	sb	a2,636(sp)
   17e04:	26b10ea3          	sb	a1,637(sp)
   17e08:	26a10f23          	sb	a0,638(sp)
   17e0c:	27f10513          	addi	a0,sp,639
   17e10:	6585                	lui	a1,0x1
   17e12:	2f058593          	addi	a1,a1,752 # 12f0 <.Lline_table_start1+0x10c5>
   17e16:	958a                	add	a1,a1,sp
   17e18:	02d00613          	li	a2,45
   17e1c:	00003097          	auipc	ra,0x3
   17e20:	dfa080e7          	jalr	-518(ra) # 1ac16 <memcpy>
   17e24:	6505                	lui	a0,0x1
   17e26:	34c50513          	addi	a0,a0,844 # 134c <.Lline_table_start1+0x1121>
   17e2a:	950a                	add	a0,a0,sp
   17e2c:	1cac                	addi	a1,sp,632
   17e2e:	ffffe097          	auipc	ra,0xffffe
   17e32:	57c080e7          	jalr	1404(ra) # 163aa <_ZN18complex_no_dynamic3app17hd3bf5136964ae291E>
   17e36:	39894503          	lbu	a0,920(s2)
   17e3a:	c119                	beqz	a0,17e40 <_start+0xea8>
   17e3c:	5630206f          	j	1ab9e <_start+0x3c06>
   17e40:	39a94503          	lbu	a0,922(s2)
   17e44:	39994583          	lbu	a1,921(s2)
   17e48:	39b94603          	lbu	a2,923(s2)
   17e4c:	39c92403          	lw	s0,924(s2)
   17e50:	0522                	slli	a0,a0,0x8
   17e52:	8d4d                	or	a0,a0,a1
   17e54:	2aa11623          	sh	a0,684(sp)
   17e58:	2ac10723          	sb	a2,686(sp)
   17e5c:	6505                	lui	a0,0x1
   17e5e:	35450513          	addi	a0,a0,852 # 1354 <.Lline_table_start1+0x1129>
   17e62:	00a105b3          	add	a1,sp,a0
   17e66:	6505                	lui	a0,0x1
   17e68:	2f050513          	addi	a0,a0,752 # 12f0 <.Lline_table_start1+0x10c5>
   17e6c:	950a                	add	a0,a0,sp
   17e6e:	02700613          	li	a2,39
   17e72:	00003097          	auipc	ra,0x3
   17e76:	da4080e7          	jalr	-604(ra) # 1ac16 <memcpy>
   17e7a:	01845513          	srli	a0,s0,0x18
   17e7e:	01045593          	srli	a1,s0,0x10
   17e82:	00845613          	srli	a2,s0,0x8
   17e86:	2a8107a3          	sb	s0,687(sp)
   17e8a:	2ac10823          	sb	a2,688(sp)
   17e8e:	2ab108a3          	sb	a1,689(sp)
   17e92:	2aa10923          	sb	a0,690(sp)
   17e96:	2b310513          	addi	a0,sp,691
   17e9a:	6585                	lui	a1,0x1
   17e9c:	2f058593          	addi	a1,a1,752 # 12f0 <.Lline_table_start1+0x10c5>
   17ea0:	958a                	add	a1,a1,sp
   17ea2:	02700613          	li	a2,39
   17ea6:	00003097          	auipc	ra,0x3
   17eaa:	d70080e7          	jalr	-656(ra) # 1ac16 <memcpy>
   17eae:	6505                	lui	a0,0x1
   17eb0:	34c50513          	addi	a0,a0,844 # 134c <.Lline_table_start1+0x1121>
   17eb4:	950a                	add	a0,a0,sp
   17eb6:	156c                	addi	a1,sp,684
   17eb8:	ffffc097          	auipc	ra,0xffffc
   17ebc:	f34080e7          	jalr	-204(ra) # 13dec <_ZN18complex_no_dynamic3app17h798c4bd2e7ebfc43E>
   17ec0:	39894503          	lbu	a0,920(s2)
   17ec4:	c119                	beqz	a0,17eca <_start+0xf32>
   17ec6:	4d90206f          	j	1ab9e <_start+0x3c06>
   17eca:	39a94503          	lbu	a0,922(s2)
   17ece:	39994583          	lbu	a1,921(s2)
   17ed2:	39b94603          	lbu	a2,923(s2)
   17ed6:	39c92403          	lw	s0,924(s2)
   17eda:	0522                	slli	a0,a0,0x8
   17edc:	8d4d                	or	a0,a0,a1
   17ede:	2ca11d23          	sh	a0,730(sp)
   17ee2:	2cc10e23          	sb	a2,732(sp)
   17ee6:	6505                	lui	a0,0x1
   17ee8:	35450513          	addi	a0,a0,852 # 1354 <.Lline_table_start1+0x1129>
   17eec:	00a105b3          	add	a1,sp,a0
   17ef0:	6505                	lui	a0,0x1
   17ef2:	2f050513          	addi	a0,a0,752 # 12f0 <.Lline_table_start1+0x10c5>
   17ef6:	950a                	add	a0,a0,sp
   17ef8:	03100613          	li	a2,49
   17efc:	00003097          	auipc	ra,0x3
   17f00:	d1a080e7          	jalr	-742(ra) # 1ac16 <memcpy>
   17f04:	01845513          	srli	a0,s0,0x18
   17f08:	01045593          	srli	a1,s0,0x10
   17f0c:	00845613          	srli	a2,s0,0x8
   17f10:	2c810ea3          	sb	s0,733(sp)
   17f14:	2cc10f23          	sb	a2,734(sp)
   17f18:	2cb10fa3          	sb	a1,735(sp)
   17f1c:	2ea10023          	sb	a0,736(sp)
   17f20:	2e110513          	addi	a0,sp,737
   17f24:	6585                	lui	a1,0x1
   17f26:	2f058593          	addi	a1,a1,752 # 12f0 <.Lline_table_start1+0x10c5>
   17f2a:	958a                	add	a1,a1,sp
   17f2c:	03100613          	li	a2,49
   17f30:	00003097          	auipc	ra,0x3
   17f34:	ce6080e7          	jalr	-794(ra) # 1ac16 <memcpy>
   17f38:	6505                	lui	a0,0x1
   17f3a:	34c50513          	addi	a0,a0,844 # 134c <.Lline_table_start1+0x1121>
   17f3e:	950a                	add	a0,a0,sp
   17f40:	2da10593          	addi	a1,sp,730
   17f44:	ffffd097          	auipc	ra,0xffffd
   17f48:	9bc080e7          	jalr	-1604(ra) # 14900 <_ZN18complex_no_dynamic3app17h8df8bce76a6dfb53E>
   17f4c:	39894503          	lbu	a0,920(s2)
   17f50:	c119                	beqz	a0,17f56 <_start+0xfbe>
   17f52:	44d0206f          	j	1ab9e <_start+0x3c06>
   17f56:	39a94503          	lbu	a0,922(s2)
   17f5a:	39994583          	lbu	a1,921(s2)
   17f5e:	39b94603          	lbu	a2,923(s2)
   17f62:	39c92403          	lw	s0,924(s2)
   17f66:	0522                	slli	a0,a0,0x8
   17f68:	8d4d                	or	a0,a0,a1
   17f6a:	30a11923          	sh	a0,786(sp)
   17f6e:	30c10a23          	sb	a2,788(sp)
   17f72:	6505                	lui	a0,0x1
   17f74:	35450513          	addi	a0,a0,852 # 1354 <.Lline_table_start1+0x1129>
   17f78:	00a105b3          	add	a1,sp,a0
   17f7c:	6505                	lui	a0,0x1
   17f7e:	2f050513          	addi	a0,a0,752 # 12f0 <.Lline_table_start1+0x10c5>
   17f82:	950a                	add	a0,a0,sp
   17f84:	02d00613          	li	a2,45
   17f88:	00003097          	auipc	ra,0x3
   17f8c:	c8e080e7          	jalr	-882(ra) # 1ac16 <memcpy>
   17f90:	01845513          	srli	a0,s0,0x18
   17f94:	01045593          	srli	a1,s0,0x10
   17f98:	00845613          	srli	a2,s0,0x8
   17f9c:	30810aa3          	sb	s0,789(sp)
   17fa0:	30c10b23          	sb	a2,790(sp)
   17fa4:	30b10ba3          	sb	a1,791(sp)
   17fa8:	30a10c23          	sb	a0,792(sp)
   17fac:	31910513          	addi	a0,sp,793
   17fb0:	6585                	lui	a1,0x1
   17fb2:	2f058593          	addi	a1,a1,752 # 12f0 <.Lline_table_start1+0x10c5>
   17fb6:	958a                	add	a1,a1,sp
   17fb8:	02d00613          	li	a2,45
   17fbc:	00003097          	auipc	ra,0x3
   17fc0:	c5a080e7          	jalr	-934(ra) # 1ac16 <memcpy>
   17fc4:	6505                	lui	a0,0x1
   17fc6:	34c50513          	addi	a0,a0,844 # 134c <.Lline_table_start1+0x1121>
   17fca:	950a                	add	a0,a0,sp
   17fcc:	31210593          	addi	a1,sp,786
   17fd0:	ffffd097          	auipc	ra,0xffffd
   17fd4:	2fc080e7          	jalr	764(ra) # 152cc <_ZN18complex_no_dynamic3app17ha9391c67ed900644E>
   17fd8:	39894503          	lbu	a0,920(s2)
   17fdc:	c119                	beqz	a0,17fe2 <_start+0x104a>
   17fde:	3c10206f          	j	1ab9e <_start+0x3c06>
   17fe2:	39a94503          	lbu	a0,922(s2)
   17fe6:	39994583          	lbu	a1,921(s2)
   17fea:	39b94603          	lbu	a2,923(s2)
   17fee:	39c92403          	lw	s0,924(s2)
   17ff2:	0522                	slli	a0,a0,0x8
   17ff4:	8d4d                	or	a0,a0,a1
   17ff6:	34a11323          	sh	a0,838(sp)
   17ffa:	34c10423          	sb	a2,840(sp)
   17ffe:	6505                	lui	a0,0x1
   18000:	35450513          	addi	a0,a0,852 # 1354 <.Lline_table_start1+0x1129>
   18004:	00a105b3          	add	a1,sp,a0
   18008:	6505                	lui	a0,0x1
   1800a:	2f050513          	addi	a0,a0,752 # 12f0 <.Lline_table_start1+0x10c5>
   1800e:	950a                	add	a0,a0,sp
   18010:	464d                	li	a2,19
   18012:	00003097          	auipc	ra,0x3
   18016:	c04080e7          	jalr	-1020(ra) # 1ac16 <memcpy>
   1801a:	01845513          	srli	a0,s0,0x18
   1801e:	01045593          	srli	a1,s0,0x10
   18022:	00845613          	srli	a2,s0,0x8
   18026:	348104a3          	sb	s0,841(sp)
   1802a:	34c10523          	sb	a2,842(sp)
   1802e:	34b105a3          	sb	a1,843(sp)
   18032:	34a10623          	sb	a0,844(sp)
   18036:	34d10513          	addi	a0,sp,845
   1803a:	6585                	lui	a1,0x1
   1803c:	2f058593          	addi	a1,a1,752 # 12f0 <.Lline_table_start1+0x10c5>
   18040:	958a                	add	a1,a1,sp
   18042:	464d                	li	a2,19
   18044:	00003097          	auipc	ra,0x3
   18048:	bd2080e7          	jalr	-1070(ra) # 1ac16 <memcpy>
   1804c:	6505                	lui	a0,0x1
   1804e:	34c50513          	addi	a0,a0,844 # 134c <.Lline_table_start1+0x1121>
   18052:	950a                	add	a0,a0,sp
   18054:	34610593          	addi	a1,sp,838
   18058:	ffffa097          	auipc	ra,0xffffa
   1805c:	9d0080e7          	jalr	-1584(ra) # 11a28 <_ZN18complex_no_dynamic3app17h219fab0baaa65843E>
   18060:	39894503          	lbu	a0,920(s2)
   18064:	c119                	beqz	a0,1806a <_start+0x10d2>
   18066:	3390206f          	j	1ab9e <_start+0x3c06>
   1806a:	39a94503          	lbu	a0,922(s2)
   1806e:	39994583          	lbu	a1,921(s2)
   18072:	39b94603          	lbu	a2,923(s2)
   18076:	39c92403          	lw	s0,924(s2)
   1807a:	0522                	slli	a0,a0,0x8
   1807c:	8d4d                	or	a0,a0,a1
   1807e:	36a11023          	sh	a0,864(sp)
   18082:	36c10123          	sb	a2,866(sp)
   18086:	6505                	lui	a0,0x1
   18088:	35450513          	addi	a0,a0,852 # 1354 <.Lline_table_start1+0x1129>
   1808c:	00a105b3          	add	a1,sp,a0
   18090:	6505                	lui	a0,0x1
   18092:	2f050513          	addi	a0,a0,752 # 12f0 <.Lline_table_start1+0x10c5>
   18096:	950a                	add	a0,a0,sp
   18098:	04900613          	li	a2,73
   1809c:	00003097          	auipc	ra,0x3
   180a0:	b7a080e7          	jalr	-1158(ra) # 1ac16 <memcpy>
   180a4:	01845513          	srli	a0,s0,0x18
   180a8:	01045593          	srli	a1,s0,0x10
   180ac:	00845613          	srli	a2,s0,0x8
   180b0:	368101a3          	sb	s0,867(sp)
   180b4:	36c10223          	sb	a2,868(sp)
   180b8:	36b102a3          	sb	a1,869(sp)
   180bc:	36a10323          	sb	a0,870(sp)
   180c0:	36710513          	addi	a0,sp,871
   180c4:	6585                	lui	a1,0x1
   180c6:	2f058593          	addi	a1,a1,752 # 12f0 <.Lline_table_start1+0x10c5>
   180ca:	958a                	add	a1,a1,sp
   180cc:	04900613          	li	a2,73
   180d0:	00003097          	auipc	ra,0x3
   180d4:	b46080e7          	jalr	-1210(ra) # 1ac16 <memcpy>
   180d8:	6505                	lui	a0,0x1
   180da:	34c50513          	addi	a0,a0,844 # 134c <.Lline_table_start1+0x1121>
   180de:	950a                	add	a0,a0,sp
   180e0:	168c                	addi	a1,sp,864
   180e2:	ffffd097          	auipc	ra,0xffffd
   180e6:	6e2080e7          	jalr	1762(ra) # 157c4 <_ZN18complex_no_dynamic3app17hb69cc72cf005743eE>
   180ea:	39894503          	lbu	a0,920(s2)
   180ee:	c119                	beqz	a0,180f4 <_start+0x115c>
   180f0:	2af0206f          	j	1ab9e <_start+0x3c06>
   180f4:	39a94503          	lbu	a0,922(s2)
   180f8:	39994583          	lbu	a1,921(s2)
   180fc:	39b94603          	lbu	a2,923(s2)
   18100:	39c92403          	lw	s0,924(s2)
   18104:	0522                	slli	a0,a0,0x8
   18106:	8d4d                	or	a0,a0,a1
   18108:	3aa11823          	sh	a0,944(sp)
   1810c:	3ac10923          	sb	a2,946(sp)
   18110:	6505                	lui	a0,0x1
   18112:	35450513          	addi	a0,a0,852 # 1354 <.Lline_table_start1+0x1129>
   18116:	00a105b3          	add	a1,sp,a0
   1811a:	6505                	lui	a0,0x1
   1811c:	2f050513          	addi	a0,a0,752 # 12f0 <.Lline_table_start1+0x10c5>
   18120:	950a                	add	a0,a0,sp
   18122:	03500613          	li	a2,53
   18126:	00003097          	auipc	ra,0x3
   1812a:	af0080e7          	jalr	-1296(ra) # 1ac16 <memcpy>
   1812e:	01845513          	srli	a0,s0,0x18
   18132:	01045593          	srli	a1,s0,0x10
   18136:	00845613          	srli	a2,s0,0x8
   1813a:	3a8109a3          	sb	s0,947(sp)
   1813e:	3ac10a23          	sb	a2,948(sp)
   18142:	3ab10aa3          	sb	a1,949(sp)
   18146:	3aa10b23          	sb	a0,950(sp)
   1814a:	3b710513          	addi	a0,sp,951
   1814e:	6585                	lui	a1,0x1
   18150:	2f058593          	addi	a1,a1,752 # 12f0 <.Lline_table_start1+0x10c5>
   18154:	958a                	add	a1,a1,sp
   18156:	03500613          	li	a2,53
   1815a:	00003097          	auipc	ra,0x3
   1815e:	abc080e7          	jalr	-1348(ra) # 1ac16 <memcpy>
   18162:	6505                	lui	a0,0x1
   18164:	34c50513          	addi	a0,a0,844 # 134c <.Lline_table_start1+0x1121>
   18168:	950a                	add	a0,a0,sp
   1816a:	1f0c                	addi	a1,sp,944
   1816c:	ffffa097          	auipc	ra,0xffffa
   18170:	696080e7          	jalr	1686(ra) # 12802 <_ZN18complex_no_dynamic3app17h44816b7fb1ae1141E>
   18174:	39894503          	lbu	a0,920(s2)
   18178:	c119                	beqz	a0,1817e <_start+0x11e6>
   1817a:	2250206f          	j	1ab9e <_start+0x3c06>
   1817e:	39a94503          	lbu	a0,922(s2)
   18182:	39994583          	lbu	a1,921(s2)
   18186:	39b94603          	lbu	a2,923(s2)
   1818a:	39c92403          	lw	s0,924(s2)
   1818e:	0522                	slli	a0,a0,0x8
   18190:	8d4d                	or	a0,a0,a1
   18192:	3ea11623          	sh	a0,1004(sp)
   18196:	3ec10723          	sb	a2,1006(sp)
   1819a:	6505                	lui	a0,0x1
   1819c:	35450513          	addi	a0,a0,852 # 1354 <.Lline_table_start1+0x1129>
   181a0:	00a105b3          	add	a1,sp,a0
   181a4:	6505                	lui	a0,0x1
   181a6:	2f050513          	addi	a0,a0,752 # 12f0 <.Lline_table_start1+0x10c5>
   181aa:	950a                	add	a0,a0,sp
   181ac:	02b00613          	li	a2,43
   181b0:	00003097          	auipc	ra,0x3
   181b4:	a66080e7          	jalr	-1434(ra) # 1ac16 <memcpy>
   181b8:	01845513          	srli	a0,s0,0x18
   181bc:	01045593          	srli	a1,s0,0x10
   181c0:	00845613          	srli	a2,s0,0x8
   181c4:	3e8107a3          	sb	s0,1007(sp)
   181c8:	3ec10823          	sb	a2,1008(sp)
   181cc:	3eb108a3          	sb	a1,1009(sp)
   181d0:	3ea10923          	sb	a0,1010(sp)
   181d4:	3f310513          	addi	a0,sp,1011
   181d8:	6585                	lui	a1,0x1
   181da:	2f058593          	addi	a1,a1,752 # 12f0 <.Lline_table_start1+0x10c5>
   181de:	958a                	add	a1,a1,sp
   181e0:	02b00613          	li	a2,43
   181e4:	00003097          	auipc	ra,0x3
   181e8:	a32080e7          	jalr	-1486(ra) # 1ac16 <memcpy>
   181ec:	6505                	lui	a0,0x1
   181ee:	34c50513          	addi	a0,a0,844 # 134c <.Lline_table_start1+0x1121>
   181f2:	950a                	add	a0,a0,sp
   181f4:	17ec                	addi	a1,sp,1004
   181f6:	fffff097          	auipc	ra,0xfffff
   181fa:	ca2080e7          	jalr	-862(ra) # 16e98 <_ZN18complex_no_dynamic3app17hf45e248d8d6d8e4cE>
   181fe:	39894503          	lbu	a0,920(s2)
   18202:	c119                	beqz	a0,18208 <_start+0x1270>
   18204:	19b0206f          	j	1ab9e <_start+0x3c06>
   18208:	39a94503          	lbu	a0,922(s2)
   1820c:	39994583          	lbu	a1,921(s2)
   18210:	39b94603          	lbu	a2,923(s2)
   18214:	39c92403          	lw	s0,924(s2)
   18218:	0522                	slli	a0,a0,0x8
   1821a:	8d4d                	or	a0,a0,a1
   1821c:	40a11f23          	sh	a0,1054(sp)
   18220:	42c10023          	sb	a2,1056(sp)
   18224:	6505                	lui	a0,0x1
   18226:	35450513          	addi	a0,a0,852 # 1354 <.Lline_table_start1+0x1129>
   1822a:	00a105b3          	add	a1,sp,a0
   1822e:	6505                	lui	a0,0x1
   18230:	2f050513          	addi	a0,a0,752 # 12f0 <.Lline_table_start1+0x10c5>
   18234:	950a                	add	a0,a0,sp
   18236:	02b00613          	li	a2,43
   1823a:	00003097          	auipc	ra,0x3
   1823e:	9dc080e7          	jalr	-1572(ra) # 1ac16 <memcpy>
   18242:	01845513          	srli	a0,s0,0x18
   18246:	01045593          	srli	a1,s0,0x10
   1824a:	00845613          	srli	a2,s0,0x8
   1824e:	428100a3          	sb	s0,1057(sp)
   18252:	42c10123          	sb	a2,1058(sp)
   18256:	42b101a3          	sb	a1,1059(sp)
   1825a:	42a10223          	sb	a0,1060(sp)
   1825e:	42510513          	addi	a0,sp,1061
   18262:	6585                	lui	a1,0x1
   18264:	2f058593          	addi	a1,a1,752 # 12f0 <.Lline_table_start1+0x10c5>
   18268:	958a                	add	a1,a1,sp
   1826a:	02b00613          	li	a2,43
   1826e:	00003097          	auipc	ra,0x3
   18272:	9a8080e7          	jalr	-1624(ra) # 1ac16 <memcpy>
   18276:	6505                	lui	a0,0x1
   18278:	34c50513          	addi	a0,a0,844 # 134c <.Lline_table_start1+0x1121>
   1827c:	950a                	add	a0,a0,sp
   1827e:	41e10593          	addi	a1,sp,1054
   18282:	ffffa097          	auipc	ra,0xffffa
   18286:	8a0080e7          	jalr	-1888(ra) # 11b22 <_ZN18complex_no_dynamic3app17h26c0cf7ad759b382E>
   1828a:	39894503          	lbu	a0,920(s2)
   1828e:	c119                	beqz	a0,18294 <_start+0x12fc>
   18290:	10f0206f          	j	1ab9e <_start+0x3c06>
   18294:	39994503          	lbu	a0,921(s2)
   18298:	39a94583          	lbu	a1,922(s2)
   1829c:	39b94603          	lbu	a2,923(s2)
   182a0:	39c92683          	lw	a3,924(s2)
   182a4:	3a092703          	lw	a4,928(s2)
   182a8:	3a492783          	lw	a5,932(s2)
   182ac:	3a894483          	lbu	s1,936(s2)
   182b0:	05a2                	slli	a1,a1,0x8
   182b2:	32e92e23          	sw	a4,828(s2)
   182b6:	34f92023          	sw	a5,832(s2)
   182ba:	34990223          	sb	s1,836(s2)
   182be:	0186d713          	srli	a4,a3,0x18
   182c2:	8d4d                	or	a0,a0,a1
   182c4:	0106d593          	srli	a1,a3,0x10
   182c8:	44b10aa3          	sb	a1,1109(sp)
   182cc:	44e10b23          	sb	a4,1110(sp)
   182d0:	0086d593          	srli	a1,a3,0x8
   182d4:	44a11823          	sh	a0,1104(sp)
   182d8:	44c10923          	sb	a2,1106(sp)
   182dc:	44d109a3          	sb	a3,1107(sp)
   182e0:	44b10a23          	sb	a1,1108(sp)
   182e4:	45710513          	addi	a0,sp,1111
   182e8:	6585                	lui	a1,0x1
   182ea:	2f058593          	addi	a1,a1,752 # 12f0 <.Lline_table_start1+0x10c5>
   182ee:	958a                	add	a1,a1,sp
   182f0:	4625                	li	a2,9
   182f2:	00003097          	auipc	ra,0x3
   182f6:	924080e7          	jalr	-1756(ra) # 1ac16 <memcpy>
   182fa:	6505                	lui	a0,0x1
   182fc:	34c50513          	addi	a0,a0,844 # 134c <.Lline_table_start1+0x1121>
   18300:	950a                	add	a0,a0,sp
   18302:	45010593          	addi	a1,sp,1104
   18306:	ffffc097          	auipc	ra,0xffffc
   1830a:	032080e7          	jalr	50(ra) # 14338 <_ZN18complex_no_dynamic3app17h80fe7be5313e2e58E>
   1830e:	39894503          	lbu	a0,920(s2)
   18312:	c119                	beqz	a0,18318 <_start+0x1380>
   18314:	08b0206f          	j	1ab9e <_start+0x3c06>
   18318:	39a94503          	lbu	a0,922(s2)
   1831c:	39994583          	lbu	a1,921(s2)
   18320:	39b94603          	lbu	a2,923(s2)
   18324:	39c92403          	lw	s0,924(s2)
   18328:	0522                	slli	a0,a0,0x8
   1832a:	8d4d                	or	a0,a0,a1
   1832c:	46a11023          	sh	a0,1120(sp)
   18330:	46c10123          	sb	a2,1122(sp)
   18334:	6505                	lui	a0,0x1
   18336:	35450513          	addi	a0,a0,852 # 1354 <.Lline_table_start1+0x1129>
   1833a:	00a105b3          	add	a1,sp,a0
   1833e:	6505                	lui	a0,0x1
   18340:	2f050513          	addi	a0,a0,752 # 12f0 <.Lline_table_start1+0x10c5>
   18344:	950a                	add	a0,a0,sp
   18346:	02f00613          	li	a2,47
   1834a:	00003097          	auipc	ra,0x3
   1834e:	8cc080e7          	jalr	-1844(ra) # 1ac16 <memcpy>
   18352:	01845513          	srli	a0,s0,0x18
   18356:	01045593          	srli	a1,s0,0x10
   1835a:	00845613          	srli	a2,s0,0x8
   1835e:	468101a3          	sb	s0,1123(sp)
   18362:	46c10223          	sb	a2,1124(sp)
   18366:	46b102a3          	sb	a1,1125(sp)
   1836a:	46a10323          	sb	a0,1126(sp)
   1836e:	46710513          	addi	a0,sp,1127
   18372:	6585                	lui	a1,0x1
   18374:	2f058593          	addi	a1,a1,752 # 12f0 <.Lline_table_start1+0x10c5>
   18378:	958a                	add	a1,a1,sp
   1837a:	02f00613          	li	a2,47
   1837e:	00003097          	auipc	ra,0x3
   18382:	898080e7          	jalr	-1896(ra) # 1ac16 <memcpy>
   18386:	6505                	lui	a0,0x1
   18388:	34c50513          	addi	a0,a0,844 # 134c <.Lline_table_start1+0x1121>
   1838c:	950a                	add	a0,a0,sp
   1838e:	46010593          	addi	a1,sp,1120
   18392:	ffff9097          	auipc	ra,0xffff9
   18396:	fa0080e7          	jalr	-96(ra) # 11332 <_ZN18complex_no_dynamic3app17h0efb490f5ea430d3E>
   1839a:	39894503          	lbu	a0,920(s2)
   1839e:	c119                	beqz	a0,183a4 <_start+0x140c>
   183a0:	7fe0206f          	j	1ab9e <_start+0x3c06>
   183a4:	39994503          	lbu	a0,921(s2)
   183a8:	39a94583          	lbu	a1,922(s2)
   183ac:	39b94803          	lbu	a6,923(s2)
   183b0:	39c92683          	lw	a3,924(s2)
   183b4:	3a092703          	lw	a4,928(s2)
   183b8:	3a492783          	lw	a5,932(s2)
   183bc:	05a2                	slli	a1,a1,0x8
   183be:	0186d893          	srli	a7,a3,0x18
   183c2:	0106d293          	srli	t0,a3,0x10
   183c6:	0187d613          	srli	a2,a5,0x18
   183ca:	0107d493          	srli	s1,a5,0x10
   183ce:	0087d413          	srli	s0,a5,0x8
   183d2:	8d4d                	or	a0,a0,a1
   183d4:	01875593          	srli	a1,a4,0x18
   183d8:	4a9101a3          	sb	s1,1187(sp)
   183dc:	4ac10223          	sb	a2,1188(sp)
   183e0:	01075613          	srli	a2,a4,0x10
   183e4:	48c10fa3          	sb	a2,1183(sp)
   183e8:	4ab10023          	sb	a1,1184(sp)
   183ec:	4af100a3          	sb	a5,1185(sp)
   183f0:	4a810123          	sb	s0,1186(sp)
   183f4:	0086d593          	srli	a1,a3,0x8
   183f8:	48a11b23          	sh	a0,1174(sp)
   183fc:	49010c23          	sb	a6,1176(sp)
   18400:	48d10ca3          	sb	a3,1177(sp)
   18404:	48b10d23          	sb	a1,1178(sp)
   18408:	00875513          	srli	a0,a4,0x8
   1840c:	48510da3          	sb	t0,1179(sp)
   18410:	49110e23          	sb	a7,1180(sp)
   18414:	48e10ea3          	sb	a4,1181(sp)
   18418:	48a10f23          	sb	a0,1182(sp)
   1841c:	6505                	lui	a0,0x1
   1841e:	34c50513          	addi	a0,a0,844 # 134c <.Lline_table_start1+0x1121>
   18422:	950a                	add	a0,a0,sp
   18424:	49610593          	addi	a1,sp,1174
   18428:	ffffb097          	auipc	ra,0xffffb
   1842c:	2c6080e7          	jalr	710(ra) # 136ee <_ZN18complex_no_dynamic3app17h6b38e5cf3bb1e8c0E>
   18430:	39894503          	lbu	a0,920(s2)
   18434:	c119                	beqz	a0,1843a <_start+0x14a2>
   18436:	7680206f          	j	1ab9e <_start+0x3c06>
   1843a:	39994503          	lbu	a0,921(s2)
   1843e:	39a94583          	lbu	a1,922(s2)
   18442:	39b94603          	lbu	a2,923(s2)
   18446:	39c92683          	lw	a3,924(s2)
   1844a:	3a092703          	lw	a4,928(s2)
   1844e:	3a492783          	lw	a5,932(s2)
   18452:	3a892483          	lw	s1,936(s2)
   18456:	05a2                	slli	a1,a1,0x8
   18458:	32e92e23          	sw	a4,828(s2)
   1845c:	34f92023          	sw	a5,832(s2)
   18460:	34992223          	sw	s1,836(s2)
   18464:	0186d713          	srli	a4,a3,0x18
   18468:	8d4d                	or	a0,a0,a1
   1846a:	0106d593          	srli	a1,a3,0x10
   1846e:	4ab105a3          	sb	a1,1195(sp)
   18472:	4ae10623          	sb	a4,1196(sp)
   18476:	0086d593          	srli	a1,a3,0x8
   1847a:	4aa11323          	sh	a0,1190(sp)
   1847e:	4ac10423          	sb	a2,1192(sp)
   18482:	4ad104a3          	sb	a3,1193(sp)
   18486:	4ab10523          	sb	a1,1194(sp)
   1848a:	4ad10513          	addi	a0,sp,1197
   1848e:	6585                	lui	a1,0x1
   18490:	2f058593          	addi	a1,a1,752 # 12f0 <.Lline_table_start1+0x10c5>
   18494:	958a                	add	a1,a1,sp
   18496:	4631                	li	a2,12
   18498:	00002097          	auipc	ra,0x2
   1849c:	77e080e7          	jalr	1918(ra) # 1ac16 <memcpy>
   184a0:	6505                	lui	a0,0x1
   184a2:	34c50513          	addi	a0,a0,844 # 134c <.Lline_table_start1+0x1121>
   184a6:	950a                	add	a0,a0,sp
   184a8:	4a610593          	addi	a1,sp,1190
   184ac:	ffffa097          	auipc	ra,0xffffa
   184b0:	558080e7          	jalr	1368(ra) # 12a04 <_ZN18complex_no_dynamic3app17h479bcdd5ae9acb90E>
   184b4:	39894503          	lbu	a0,920(s2)
   184b8:	c119                	beqz	a0,184be <_start+0x1526>
   184ba:	6e40206f          	j	1ab9e <_start+0x3c06>
   184be:	39a94503          	lbu	a0,922(s2)
   184c2:	39994583          	lbu	a1,921(s2)
   184c6:	39b94603          	lbu	a2,923(s2)
   184ca:	39c92403          	lw	s0,924(s2)
   184ce:	0522                	slli	a0,a0,0x8
   184d0:	8d4d                	or	a0,a0,a1
   184d2:	4aa11d23          	sh	a0,1210(sp)
   184d6:	4ac10e23          	sb	a2,1212(sp)
   184da:	6505                	lui	a0,0x1
   184dc:	35450513          	addi	a0,a0,852 # 1354 <.Lline_table_start1+0x1129>
   184e0:	00a105b3          	add	a1,sp,a0
   184e4:	6505                	lui	a0,0x1
   184e6:	2f050513          	addi	a0,a0,752 # 12f0 <.Lline_table_start1+0x10c5>
   184ea:	950a                	add	a0,a0,sp
   184ec:	04e00613          	li	a2,78
   184f0:	00002097          	auipc	ra,0x2
   184f4:	726080e7          	jalr	1830(ra) # 1ac16 <memcpy>
   184f8:	01845513          	srli	a0,s0,0x18
   184fc:	01045593          	srli	a1,s0,0x10
   18500:	00845613          	srli	a2,s0,0x8
   18504:	4a810ea3          	sb	s0,1213(sp)
   18508:	4ac10f23          	sb	a2,1214(sp)
   1850c:	4ab10fa3          	sb	a1,1215(sp)
   18510:	4ca10023          	sb	a0,1216(sp)
   18514:	4c110513          	addi	a0,sp,1217
   18518:	6585                	lui	a1,0x1
   1851a:	2f058593          	addi	a1,a1,752 # 12f0 <.Lline_table_start1+0x10c5>
   1851e:	958a                	add	a1,a1,sp
   18520:	04e00613          	li	a2,78
   18524:	00002097          	auipc	ra,0x2
   18528:	6f2080e7          	jalr	1778(ra) # 1ac16 <memcpy>
   1852c:	6505                	lui	a0,0x1
   1852e:	34c50513          	addi	a0,a0,844 # 134c <.Lline_table_start1+0x1121>
   18532:	950a                	add	a0,a0,sp
   18534:	4ba10593          	addi	a1,sp,1210
   18538:	ffffc097          	auipc	ra,0xffffc
   1853c:	f74080e7          	jalr	-140(ra) # 144ac <_ZN18complex_no_dynamic3app17h83afe3e7cf75d802E>
   18540:	39894503          	lbu	a0,920(s2)
   18544:	c119                	beqz	a0,1854a <_start+0x15b2>
   18546:	6580206f          	j	1ab9e <_start+0x3c06>
   1854a:	39a94503          	lbu	a0,922(s2)
   1854e:	39994583          	lbu	a1,921(s2)
   18552:	39b94603          	lbu	a2,923(s2)
   18556:	39c92403          	lw	s0,924(s2)
   1855a:	0522                	slli	a0,a0,0x8
   1855c:	8d4d                	or	a0,a0,a1
   1855e:	50a11823          	sh	a0,1296(sp)
   18562:	50c10923          	sb	a2,1298(sp)
   18566:	6505                	lui	a0,0x1
   18568:	35450513          	addi	a0,a0,852 # 1354 <.Lline_table_start1+0x1129>
   1856c:	00a105b3          	add	a1,sp,a0
   18570:	6505                	lui	a0,0x1
   18572:	2f050513          	addi	a0,a0,752 # 12f0 <.Lline_table_start1+0x10c5>
   18576:	950a                	add	a0,a0,sp
   18578:	02b00613          	li	a2,43
   1857c:	00002097          	auipc	ra,0x2
   18580:	69a080e7          	jalr	1690(ra) # 1ac16 <memcpy>
   18584:	01845513          	srli	a0,s0,0x18
   18588:	01045593          	srli	a1,s0,0x10
   1858c:	00845613          	srli	a2,s0,0x8
   18590:	508109a3          	sb	s0,1299(sp)
   18594:	50c10a23          	sb	a2,1300(sp)
   18598:	50b10aa3          	sb	a1,1301(sp)
   1859c:	50a10b23          	sb	a0,1302(sp)
   185a0:	51710513          	addi	a0,sp,1303
   185a4:	6585                	lui	a1,0x1
   185a6:	2f058593          	addi	a1,a1,752 # 12f0 <.Lline_table_start1+0x10c5>
   185aa:	958a                	add	a1,a1,sp
   185ac:	02b00613          	li	a2,43
   185b0:	00002097          	auipc	ra,0x2
   185b4:	666080e7          	jalr	1638(ra) # 1ac16 <memcpy>
   185b8:	6505                	lui	a0,0x1
   185ba:	34c50513          	addi	a0,a0,844 # 134c <.Lline_table_start1+0x1121>
   185be:	950a                	add	a0,a0,sp
   185c0:	51010593          	addi	a1,sp,1296
   185c4:	ffffd097          	auipc	ra,0xffffd
   185c8:	926080e7          	jalr	-1754(ra) # 14eea <_ZN18complex_no_dynamic3app17h9a1a68d8a53a812cE>
   185cc:	39894503          	lbu	a0,920(s2)
   185d0:	c119                	beqz	a0,185d6 <_start+0x163e>
   185d2:	5cc0206f          	j	1ab9e <_start+0x3c06>
   185d6:	39a94503          	lbu	a0,922(s2)
   185da:	39994583          	lbu	a1,921(s2)
   185de:	39b94603          	lbu	a2,923(s2)
   185e2:	39c92403          	lw	s0,924(s2)
   185e6:	0522                	slli	a0,a0,0x8
   185e8:	8d4d                	or	a0,a0,a1
   185ea:	54a11123          	sh	a0,1346(sp)
   185ee:	54c10223          	sb	a2,1348(sp)
   185f2:	6505                	lui	a0,0x1
   185f4:	35450513          	addi	a0,a0,852 # 1354 <.Lline_table_start1+0x1129>
   185f8:	00a105b3          	add	a1,sp,a0
   185fc:	6505                	lui	a0,0x1
   185fe:	2f050513          	addi	a0,a0,752 # 12f0 <.Lline_table_start1+0x10c5>
   18602:	950a                	add	a0,a0,sp
   18604:	03a00613          	li	a2,58
   18608:	00002097          	auipc	ra,0x2
   1860c:	60e080e7          	jalr	1550(ra) # 1ac16 <memcpy>
   18610:	01845513          	srli	a0,s0,0x18
   18614:	01045593          	srli	a1,s0,0x10
   18618:	00845613          	srli	a2,s0,0x8
   1861c:	548102a3          	sb	s0,1349(sp)
   18620:	54c10323          	sb	a2,1350(sp)
   18624:	54b103a3          	sb	a1,1351(sp)
   18628:	54a10423          	sb	a0,1352(sp)
   1862c:	54910513          	addi	a0,sp,1353
   18630:	6585                	lui	a1,0x1
   18632:	2f058593          	addi	a1,a1,752 # 12f0 <.Lline_table_start1+0x10c5>
   18636:	958a                	add	a1,a1,sp
   18638:	03a00613          	li	a2,58
   1863c:	00002097          	auipc	ra,0x2
   18640:	5da080e7          	jalr	1498(ra) # 1ac16 <memcpy>
   18644:	6505                	lui	a0,0x1
   18646:	34c50513          	addi	a0,a0,844 # 134c <.Lline_table_start1+0x1121>
   1864a:	950a                	add	a0,a0,sp
   1864c:	54210593          	addi	a1,sp,1346
   18650:	ffffe097          	auipc	ra,0xffffe
   18654:	64c080e7          	jalr	1612(ra) # 16c9c <_ZN18complex_no_dynamic3app17hf0e3709259bd31ebE>
   18658:	39894503          	lbu	a0,920(s2)
   1865c:	c119                	beqz	a0,18662 <_start+0x16ca>
   1865e:	5400206f          	j	1ab9e <_start+0x3c06>
   18662:	39a94503          	lbu	a0,922(s2)
   18666:	39994583          	lbu	a1,921(s2)
   1866a:	39b94603          	lbu	a2,923(s2)
   1866e:	39c92403          	lw	s0,924(s2)
   18672:	0522                	slli	a0,a0,0x8
   18674:	8d4d                	or	a0,a0,a1
   18676:	58a11223          	sh	a0,1412(sp)
   1867a:	58c10323          	sb	a2,1414(sp)
   1867e:	6505                	lui	a0,0x1
   18680:	35450513          	addi	a0,a0,852 # 1354 <.Lline_table_start1+0x1129>
   18684:	00a105b3          	add	a1,sp,a0
   18688:	6505                	lui	a0,0x1
   1868a:	2f050513          	addi	a0,a0,752 # 12f0 <.Lline_table_start1+0x10c5>
   1868e:	950a                	add	a0,a0,sp
   18690:	466d                	li	a2,27
   18692:	00002097          	auipc	ra,0x2
   18696:	584080e7          	jalr	1412(ra) # 1ac16 <memcpy>
   1869a:	01845513          	srli	a0,s0,0x18
   1869e:	01045593          	srli	a1,s0,0x10
   186a2:	00845613          	srli	a2,s0,0x8
   186a6:	588103a3          	sb	s0,1415(sp)
   186aa:	58c10423          	sb	a2,1416(sp)
   186ae:	58b104a3          	sb	a1,1417(sp)
   186b2:	58a10523          	sb	a0,1418(sp)
   186b6:	58b10513          	addi	a0,sp,1419
   186ba:	6585                	lui	a1,0x1
   186bc:	2f058593          	addi	a1,a1,752 # 12f0 <.Lline_table_start1+0x10c5>
   186c0:	958a                	add	a1,a1,sp
   186c2:	466d                	li	a2,27
   186c4:	00002097          	auipc	ra,0x2
   186c8:	552080e7          	jalr	1362(ra) # 1ac16 <memcpy>
   186cc:	6505                	lui	a0,0x1
   186ce:	34c50513          	addi	a0,a0,844 # 134c <.Lline_table_start1+0x1121>
   186d2:	950a                	add	a0,a0,sp
   186d4:	58410593          	addi	a1,sp,1412
   186d8:	ffffc097          	auipc	ra,0xffffc
   186dc:	a64080e7          	jalr	-1436(ra) # 1413c <_ZN18complex_no_dynamic3app17h7d580489b5e37387E>
   186e0:	39894503          	lbu	a0,920(s2)
   186e4:	c119                	beqz	a0,186ea <_start+0x1752>
   186e6:	4b80206f          	j	1ab9e <_start+0x3c06>
   186ea:	39a94503          	lbu	a0,922(s2)
   186ee:	39994583          	lbu	a1,921(s2)
   186f2:	39b94603          	lbu	a2,923(s2)
   186f6:	39c92403          	lw	s0,924(s2)
   186fa:	0522                	slli	a0,a0,0x8
   186fc:	8d4d                	or	a0,a0,a1
   186fe:	5aa11323          	sh	a0,1446(sp)
   18702:	5ac10423          	sb	a2,1448(sp)
   18706:	6505                	lui	a0,0x1
   18708:	35450513          	addi	a0,a0,852 # 1354 <.Lline_table_start1+0x1129>
   1870c:	00a105b3          	add	a1,sp,a0
   18710:	6505                	lui	a0,0x1
   18712:	2f050513          	addi	a0,a0,752 # 12f0 <.Lline_table_start1+0x10c5>
   18716:	950a                	add	a0,a0,sp
   18718:	04a00613          	li	a2,74
   1871c:	00002097          	auipc	ra,0x2
   18720:	4fa080e7          	jalr	1274(ra) # 1ac16 <memcpy>
   18724:	01845513          	srli	a0,s0,0x18
   18728:	01045593          	srli	a1,s0,0x10
   1872c:	00845613          	srli	a2,s0,0x8
   18730:	5a8104a3          	sb	s0,1449(sp)
   18734:	5ac10523          	sb	a2,1450(sp)
   18738:	5ab105a3          	sb	a1,1451(sp)
   1873c:	5aa10623          	sb	a0,1452(sp)
   18740:	5ad10513          	addi	a0,sp,1453
   18744:	6585                	lui	a1,0x1
   18746:	2f058593          	addi	a1,a1,752 # 12f0 <.Lline_table_start1+0x10c5>
   1874a:	958a                	add	a1,a1,sp
   1874c:	04a00613          	li	a2,74
   18750:	00002097          	auipc	ra,0x2
   18754:	4c6080e7          	jalr	1222(ra) # 1ac16 <memcpy>
   18758:	6505                	lui	a0,0x1
   1875a:	34c50513          	addi	a0,a0,844 # 134c <.Lline_table_start1+0x1121>
   1875e:	950a                	add	a0,a0,sp
   18760:	5a610593          	addi	a1,sp,1446
   18764:	ffffa097          	auipc	ra,0xffffa
   18768:	6a2080e7          	jalr	1698(ra) # 12e06 <_ZN18complex_no_dynamic3app17h558802c216338d9dE>
   1876c:	39894503          	lbu	a0,920(s2)
   18770:	c119                	beqz	a0,18776 <_start+0x17de>
   18772:	42c0206f          	j	1ab9e <_start+0x3c06>
   18776:	39a94503          	lbu	a0,922(s2)
   1877a:	39994583          	lbu	a1,921(s2)
   1877e:	39b94603          	lbu	a2,923(s2)
   18782:	39c92403          	lw	s0,924(s2)
   18786:	0522                	slli	a0,a0,0x8
   18788:	8d4d                	or	a0,a0,a1
   1878a:	5ea11c23          	sh	a0,1528(sp)
   1878e:	5ec10d23          	sb	a2,1530(sp)
   18792:	6505                	lui	a0,0x1
   18794:	35450513          	addi	a0,a0,852 # 1354 <.Lline_table_start1+0x1129>
   18798:	00a105b3          	add	a1,sp,a0
   1879c:	6505                	lui	a0,0x1
   1879e:	2f050513          	addi	a0,a0,752 # 12f0 <.Lline_table_start1+0x10c5>
   187a2:	950a                	add	a0,a0,sp
   187a4:	04800613          	li	a2,72
   187a8:	00002097          	auipc	ra,0x2
   187ac:	46e080e7          	jalr	1134(ra) # 1ac16 <memcpy>
   187b0:	01845513          	srli	a0,s0,0x18
   187b4:	01045593          	srli	a1,s0,0x10
   187b8:	00845613          	srli	a2,s0,0x8
   187bc:	5e810da3          	sb	s0,1531(sp)
   187c0:	5ec10e23          	sb	a2,1532(sp)
   187c4:	5eb10ea3          	sb	a1,1533(sp)
   187c8:	5ea10f23          	sb	a0,1534(sp)
   187cc:	5ff10513          	addi	a0,sp,1535
   187d0:	6585                	lui	a1,0x1
   187d2:	2f058593          	addi	a1,a1,752 # 12f0 <.Lline_table_start1+0x10c5>
   187d6:	958a                	add	a1,a1,sp
   187d8:	04800613          	li	a2,72
   187dc:	00002097          	auipc	ra,0x2
   187e0:	43a080e7          	jalr	1082(ra) # 1ac16 <memcpy>
   187e4:	6505                	lui	a0,0x1
   187e6:	34c50513          	addi	a0,a0,844 # 134c <.Lline_table_start1+0x1121>
   187ea:	950a                	add	a0,a0,sp
   187ec:	5f810593          	addi	a1,sp,1528
   187f0:	ffffe097          	auipc	ra,0xffffe
   187f4:	db0080e7          	jalr	-592(ra) # 165a0 <_ZN18complex_no_dynamic3app17hd69d522ec2a88831E>
   187f8:	39894503          	lbu	a0,920(s2)
   187fc:	c119                	beqz	a0,18802 <_start+0x186a>
   187fe:	3a00206f          	j	1ab9e <_start+0x3c06>
   18802:	39a94503          	lbu	a0,922(s2)
   18806:	39994583          	lbu	a1,921(s2)
   1880a:	39b94603          	lbu	a2,923(s2)
   1880e:	39c92403          	lw	s0,924(s2)
   18812:	0522                	slli	a0,a0,0x8
   18814:	8d4d                	or	a0,a0,a1
   18816:	64a11423          	sh	a0,1608(sp)
   1881a:	64c10523          	sb	a2,1610(sp)
   1881e:	6505                	lui	a0,0x1
   18820:	35450513          	addi	a0,a0,852 # 1354 <.Lline_table_start1+0x1129>
   18824:	00a105b3          	add	a1,sp,a0
   18828:	6505                	lui	a0,0x1
   1882a:	2f050513          	addi	a0,a0,752 # 12f0 <.Lline_table_start1+0x10c5>
   1882e:	950a                	add	a0,a0,sp
   18830:	03400613          	li	a2,52
   18834:	00002097          	auipc	ra,0x2
   18838:	3e2080e7          	jalr	994(ra) # 1ac16 <memcpy>
   1883c:	01845513          	srli	a0,s0,0x18
   18840:	01045593          	srli	a1,s0,0x10
   18844:	00845613          	srli	a2,s0,0x8
   18848:	648105a3          	sb	s0,1611(sp)
   1884c:	64c10623          	sb	a2,1612(sp)
   18850:	64b106a3          	sb	a1,1613(sp)
   18854:	64a10723          	sb	a0,1614(sp)
   18858:	64f10513          	addi	a0,sp,1615
   1885c:	6585                	lui	a1,0x1
   1885e:	2f058593          	addi	a1,a1,752 # 12f0 <.Lline_table_start1+0x10c5>
   18862:	958a                	add	a1,a1,sp
   18864:	03400613          	li	a2,52
   18868:	00002097          	auipc	ra,0x2
   1886c:	3ae080e7          	jalr	942(ra) # 1ac16 <memcpy>
   18870:	6505                	lui	a0,0x1
   18872:	34c50513          	addi	a0,a0,844 # 134c <.Lline_table_start1+0x1121>
   18876:	950a                	add	a0,a0,sp
   18878:	64810593          	addi	a1,sp,1608
   1887c:	ffffb097          	auipc	ra,0xffffb
   18880:	46c080e7          	jalr	1132(ra) # 13ce8 <_ZN18complex_no_dynamic3app17h7982315d8f3f755aE>
   18884:	39894503          	lbu	a0,920(s2)
   18888:	c119                	beqz	a0,1888e <_start+0x18f6>
   1888a:	3140206f          	j	1ab9e <_start+0x3c06>
   1888e:	39a94503          	lbu	a0,922(s2)
   18892:	39994583          	lbu	a1,921(s2)
   18896:	39b94603          	lbu	a2,923(s2)
   1889a:	39c92403          	lw	s0,924(s2)
   1889e:	0522                	slli	a0,a0,0x8
   188a0:	8d4d                	or	a0,a0,a1
   188a2:	68a11223          	sh	a0,1668(sp)
   188a6:	68c10323          	sb	a2,1670(sp)
   188aa:	6505                	lui	a0,0x1
   188ac:	35450513          	addi	a0,a0,852 # 1354 <.Lline_table_start1+0x1129>
   188b0:	00a105b3          	add	a1,sp,a0
   188b4:	6505                	lui	a0,0x1
   188b6:	2f050513          	addi	a0,a0,752 # 12f0 <.Lline_table_start1+0x10c5>
   188ba:	950a                	add	a0,a0,sp
   188bc:	02000613          	li	a2,32
   188c0:	00002097          	auipc	ra,0x2
   188c4:	356080e7          	jalr	854(ra) # 1ac16 <memcpy>
   188c8:	01845513          	srli	a0,s0,0x18
   188cc:	01045593          	srli	a1,s0,0x10
   188d0:	00845613          	srli	a2,s0,0x8
   188d4:	688103a3          	sb	s0,1671(sp)
   188d8:	68c10423          	sb	a2,1672(sp)
   188dc:	68b104a3          	sb	a1,1673(sp)
   188e0:	68a10523          	sb	a0,1674(sp)
   188e4:	68b10513          	addi	a0,sp,1675
   188e8:	6585                	lui	a1,0x1
   188ea:	2f058593          	addi	a1,a1,752 # 12f0 <.Lline_table_start1+0x10c5>
   188ee:	958a                	add	a1,a1,sp
   188f0:	02000613          	li	a2,32
   188f4:	00002097          	auipc	ra,0x2
   188f8:	322080e7          	jalr	802(ra) # 1ac16 <memcpy>
   188fc:	6505                	lui	a0,0x1
   188fe:	34c50513          	addi	a0,a0,844 # 134c <.Lline_table_start1+0x1121>
   18902:	950a                	add	a0,a0,sp
   18904:	68410593          	addi	a1,sp,1668
   18908:	ffffa097          	auipc	ra,0xffffa
   1890c:	b0a080e7          	jalr	-1270(ra) # 12412 <_ZN18complex_no_dynamic3app17h3b9cea392b5931beE>
   18910:	39894503          	lbu	a0,920(s2)
   18914:	c119                	beqz	a0,1891a <_start+0x1982>
   18916:	2880206f          	j	1ab9e <_start+0x3c06>
   1891a:	39994503          	lbu	a0,921(s2)
   1891e:	39a94583          	lbu	a1,922(s2)
   18922:	39b94603          	lbu	a2,923(s2)
   18926:	39c92683          	lw	a3,924(s2)
   1892a:	3a092703          	lw	a4,928(s2)
   1892e:	3a492783          	lw	a5,932(s2)
   18932:	3a892483          	lw	s1,936(s2)
   18936:	3ac94403          	lbu	s0,940(s2)
   1893a:	05a2                	slli	a1,a1,0x8
   1893c:	32e92e23          	sw	a4,828(s2)
   18940:	34f92023          	sw	a5,832(s2)
   18944:	34992223          	sw	s1,836(s2)
   18948:	34890423          	sb	s0,840(s2)
   1894c:	0186d713          	srli	a4,a3,0x18
   18950:	8d4d                	or	a0,a0,a1
   18952:	0106d593          	srli	a1,a3,0x10
   18956:	6ab108a3          	sb	a1,1713(sp)
   1895a:	6ae10923          	sb	a4,1714(sp)
   1895e:	0086d593          	srli	a1,a3,0x8
   18962:	6aa11623          	sh	a0,1708(sp)
   18966:	6ac10723          	sb	a2,1710(sp)
   1896a:	6ad107a3          	sb	a3,1711(sp)
   1896e:	6ab10823          	sb	a1,1712(sp)
   18972:	6b310513          	addi	a0,sp,1715
   18976:	6585                	lui	a1,0x1
   18978:	2f058593          	addi	a1,a1,752 # 12f0 <.Lline_table_start1+0x10c5>
   1897c:	958a                	add	a1,a1,sp
   1897e:	4635                	li	a2,13
   18980:	00002097          	auipc	ra,0x2
   18984:	296080e7          	jalr	662(ra) # 1ac16 <memcpy>
   18988:	6505                	lui	a0,0x1
   1898a:	34c50513          	addi	a0,a0,844 # 134c <.Lline_table_start1+0x1121>
   1898e:	950a                	add	a0,a0,sp
   18990:	6ac10593          	addi	a1,sp,1708
   18994:	ffff9097          	auipc	ra,0xffff9
   18998:	d92080e7          	jalr	-622(ra) # 11726 <_ZN18complex_no_dynamic3app17h1abc879e02fac4e5E>
   1899c:	39894503          	lbu	a0,920(s2)
   189a0:	c119                	beqz	a0,189a6 <_start+0x1a0e>
   189a2:	1fc0206f          	j	1ab9e <_start+0x3c06>
   189a6:	39a94503          	lbu	a0,922(s2)
   189aa:	39994583          	lbu	a1,921(s2)
   189ae:	39b94603          	lbu	a2,923(s2)
   189b2:	39c92403          	lw	s0,924(s2)
   189b6:	0522                	slli	a0,a0,0x8
   189b8:	8d4d                	or	a0,a0,a1
   189ba:	6ca11023          	sh	a0,1728(sp)
   189be:	6cc10123          	sb	a2,1730(sp)
   189c2:	6505                	lui	a0,0x1
   189c4:	35450513          	addi	a0,a0,852 # 1354 <.Lline_table_start1+0x1129>
   189c8:	00a105b3          	add	a1,sp,a0
   189cc:	6505                	lui	a0,0x1
   189ce:	2f050513          	addi	a0,a0,752 # 12f0 <.Lline_table_start1+0x10c5>
   189d2:	950a                	add	a0,a0,sp
   189d4:	02400613          	li	a2,36
   189d8:	00002097          	auipc	ra,0x2
   189dc:	23e080e7          	jalr	574(ra) # 1ac16 <memcpy>
   189e0:	01845513          	srli	a0,s0,0x18
   189e4:	01045593          	srli	a1,s0,0x10
   189e8:	00845613          	srli	a2,s0,0x8
   189ec:	6c8101a3          	sb	s0,1731(sp)
   189f0:	6cc10223          	sb	a2,1732(sp)
   189f4:	6cb102a3          	sb	a1,1733(sp)
   189f8:	6ca10323          	sb	a0,1734(sp)
   189fc:	6c710513          	addi	a0,sp,1735
   18a00:	6585                	lui	a1,0x1
   18a02:	2f058593          	addi	a1,a1,752 # 12f0 <.Lline_table_start1+0x10c5>
   18a06:	958a                	add	a1,a1,sp
   18a08:	02400613          	li	a2,36
   18a0c:	00002097          	auipc	ra,0x2
   18a10:	20a080e7          	jalr	522(ra) # 1ac16 <memcpy>
   18a14:	6505                	lui	a0,0x1
   18a16:	34c50513          	addi	a0,a0,844 # 134c <.Lline_table_start1+0x1121>
   18a1a:	950a                	add	a0,a0,sp
   18a1c:	6c010593          	addi	a1,sp,1728
   18a20:	ffff9097          	auipc	ra,0xffff9
   18a24:	700080e7          	jalr	1792(ra) # 12120 <_ZN18complex_no_dynamic3app17h3ab01e72685e168cE>
   18a28:	39894503          	lbu	a0,920(s2)
   18a2c:	c119                	beqz	a0,18a32 <_start+0x1a9a>
   18a2e:	1700206f          	j	1ab9e <_start+0x3c06>
   18a32:	39a94503          	lbu	a0,922(s2)
   18a36:	39994583          	lbu	a1,921(s2)
   18a3a:	39b94603          	lbu	a2,923(s2)
   18a3e:	39c92403          	lw	s0,924(s2)
   18a42:	0522                	slli	a0,a0,0x8
   18a44:	8d4d                	or	a0,a0,a1
   18a46:	6ea11623          	sh	a0,1772(sp)
   18a4a:	6ec10723          	sb	a2,1774(sp)
   18a4e:	6505                	lui	a0,0x1
   18a50:	35450513          	addi	a0,a0,852 # 1354 <.Lline_table_start1+0x1129>
   18a54:	00a105b3          	add	a1,sp,a0
   18a58:	6505                	lui	a0,0x1
   18a5a:	2f050513          	addi	a0,a0,752 # 12f0 <.Lline_table_start1+0x10c5>
   18a5e:	950a                	add	a0,a0,sp
   18a60:	465d                	li	a2,23
   18a62:	00002097          	auipc	ra,0x2
   18a66:	1b4080e7          	jalr	436(ra) # 1ac16 <memcpy>
   18a6a:	01845513          	srli	a0,s0,0x18
   18a6e:	01045593          	srli	a1,s0,0x10
   18a72:	00845613          	srli	a2,s0,0x8
   18a76:	6e8107a3          	sb	s0,1775(sp)
   18a7a:	6ec10823          	sb	a2,1776(sp)
   18a7e:	6eb108a3          	sb	a1,1777(sp)
   18a82:	6ea10923          	sb	a0,1778(sp)
   18a86:	6f310513          	addi	a0,sp,1779
   18a8a:	6585                	lui	a1,0x1
   18a8c:	2f058593          	addi	a1,a1,752 # 12f0 <.Lline_table_start1+0x10c5>
   18a90:	958a                	add	a1,a1,sp
   18a92:	465d                	li	a2,23
   18a94:	00002097          	auipc	ra,0x2
   18a98:	182080e7          	jalr	386(ra) # 1ac16 <memcpy>
   18a9c:	6505                	lui	a0,0x1
   18a9e:	34c50513          	addi	a0,a0,844 # 134c <.Lline_table_start1+0x1121>
   18aa2:	950a                	add	a0,a0,sp
   18aa4:	6ec10593          	addi	a1,sp,1772
   18aa8:	ffffd097          	auipc	ra,0xffffd
   18aac:	a24080e7          	jalr	-1500(ra) # 154cc <_ZN18complex_no_dynamic3app17haf9e69833fc6d8eaE>
   18ab0:	39894503          	lbu	a0,920(s2)
   18ab4:	c119                	beqz	a0,18aba <_start+0x1b22>
   18ab6:	0e80206f          	j	1ab9e <_start+0x3c06>
   18aba:	39a94503          	lbu	a0,922(s2)
   18abe:	39994583          	lbu	a1,921(s2)
   18ac2:	39b94603          	lbu	a2,923(s2)
   18ac6:	39c92403          	lw	s0,924(s2)
   18aca:	0522                	slli	a0,a0,0x8
   18acc:	8d4d                	or	a0,a0,a1
   18ace:	70a11523          	sh	a0,1802(sp)
   18ad2:	70c10623          	sb	a2,1804(sp)
   18ad6:	6505                	lui	a0,0x1
   18ad8:	35450513          	addi	a0,a0,852 # 1354 <.Lline_table_start1+0x1129>
   18adc:	00a105b3          	add	a1,sp,a0
   18ae0:	6505                	lui	a0,0x1
   18ae2:	2f050513          	addi	a0,a0,752 # 12f0 <.Lline_table_start1+0x10c5>
   18ae6:	950a                	add	a0,a0,sp
   18ae8:	04a00613          	li	a2,74
   18aec:	00002097          	auipc	ra,0x2
   18af0:	12a080e7          	jalr	298(ra) # 1ac16 <memcpy>
   18af4:	01845513          	srli	a0,s0,0x18
   18af8:	01045593          	srli	a1,s0,0x10
   18afc:	00845613          	srli	a2,s0,0x8
   18b00:	708106a3          	sb	s0,1805(sp)
   18b04:	70c10723          	sb	a2,1806(sp)
   18b08:	70b107a3          	sb	a1,1807(sp)
   18b0c:	70a10823          	sb	a0,1808(sp)
   18b10:	71110513          	addi	a0,sp,1809
   18b14:	6585                	lui	a1,0x1
   18b16:	2f058593          	addi	a1,a1,752 # 12f0 <.Lline_table_start1+0x10c5>
   18b1a:	958a                	add	a1,a1,sp
   18b1c:	04a00613          	li	a2,74
   18b20:	00002097          	auipc	ra,0x2
   18b24:	0f6080e7          	jalr	246(ra) # 1ac16 <memcpy>
   18b28:	6505                	lui	a0,0x1
   18b2a:	34c50513          	addi	a0,a0,844 # 134c <.Lline_table_start1+0x1121>
   18b2e:	950a                	add	a0,a0,sp
   18b30:	70a10593          	addi	a1,sp,1802
   18b34:	ffffa097          	auipc	ra,0xffffa
   18b38:	4d6080e7          	jalr	1238(ra) # 1300a <_ZN18complex_no_dynamic3app17h5aa1b9cfe6c24f8fE>
   18b3c:	39894503          	lbu	a0,920(s2)
   18b40:	c119                	beqz	a0,18b46 <_start+0x1bae>
   18b42:	05c0206f          	j	1ab9e <_start+0x3c06>
   18b46:	39994503          	lbu	a0,921(s2)
   18b4a:	39a94583          	lbu	a1,922(s2)
   18b4e:	39b94803          	lbu	a6,923(s2)
   18b52:	39c92683          	lw	a3,924(s2)
   18b56:	3a092703          	lw	a4,928(s2)
   18b5a:	3a492783          	lw	a5,932(s2)
   18b5e:	05a2                	slli	a1,a1,0x8
   18b60:	0186d893          	srli	a7,a3,0x18
   18b64:	0106d293          	srli	t0,a3,0x10
   18b68:	0187d613          	srli	a2,a5,0x18
   18b6c:	0107d493          	srli	s1,a5,0x10
   18b70:	0087d413          	srli	s0,a5,0x8
   18b74:	8d4d                	or	a0,a0,a1
   18b76:	01875593          	srli	a1,a4,0x18
   18b7a:	769104a3          	sb	s1,1897(sp)
   18b7e:	76c10523          	sb	a2,1898(sp)
   18b82:	01075613          	srli	a2,a4,0x10
   18b86:	76c102a3          	sb	a2,1893(sp)
   18b8a:	76b10323          	sb	a1,1894(sp)
   18b8e:	76f103a3          	sb	a5,1895(sp)
   18b92:	76810423          	sb	s0,1896(sp)
   18b96:	0086d593          	srli	a1,a3,0x8
   18b9a:	74a11e23          	sh	a0,1884(sp)
   18b9e:	75010f23          	sb	a6,1886(sp)
   18ba2:	74d10fa3          	sb	a3,1887(sp)
   18ba6:	76b10023          	sb	a1,1888(sp)
   18baa:	00875513          	srli	a0,a4,0x8
   18bae:	765100a3          	sb	t0,1889(sp)
   18bb2:	77110123          	sb	a7,1890(sp)
   18bb6:	76e101a3          	sb	a4,1891(sp)
   18bba:	76a10223          	sb	a0,1892(sp)
   18bbe:	6505                	lui	a0,0x1
   18bc0:	34c50513          	addi	a0,a0,844 # 134c <.Lline_table_start1+0x1121>
   18bc4:	950a                	add	a0,a0,sp
   18bc6:	75c10593          	addi	a1,sp,1884
   18bca:	ffff9097          	auipc	ra,0xffff9
   18bce:	964080e7          	jalr	-1692(ra) # 1152e <_ZN18complex_no_dynamic3app17h0fe6ac1bf6eab8d1E>
   18bd2:	39894503          	lbu	a0,920(s2)
   18bd6:	c119                	beqz	a0,18bdc <_start+0x1c44>
   18bd8:	7c70106f          	j	1ab9e <_start+0x3c06>
   18bdc:	39a94503          	lbu	a0,922(s2)
   18be0:	39994583          	lbu	a1,921(s2)
   18be4:	39b94603          	lbu	a2,923(s2)
   18be8:	39c92403          	lw	s0,924(s2)
   18bec:	0522                	slli	a0,a0,0x8
   18bee:	8d4d                	or	a0,a0,a1
   18bf0:	76a11623          	sh	a0,1900(sp)
   18bf4:	76c10723          	sb	a2,1902(sp)
   18bf8:	6505                	lui	a0,0x1
   18bfa:	35450513          	addi	a0,a0,852 # 1354 <.Lline_table_start1+0x1129>
   18bfe:	00a105b3          	add	a1,sp,a0
   18c02:	6505                	lui	a0,0x1
   18c04:	2f050513          	addi	a0,a0,752 # 12f0 <.Lline_table_start1+0x10c5>
   18c08:	950a                	add	a0,a0,sp
   18c0a:	03f00613          	li	a2,63
   18c0e:	00002097          	auipc	ra,0x2
   18c12:	008080e7          	jalr	8(ra) # 1ac16 <memcpy>
   18c16:	01845513          	srli	a0,s0,0x18
   18c1a:	01045593          	srli	a1,s0,0x10
   18c1e:	00845613          	srli	a2,s0,0x8
   18c22:	768107a3          	sb	s0,1903(sp)
   18c26:	76c10823          	sb	a2,1904(sp)
   18c2a:	76b108a3          	sb	a1,1905(sp)
   18c2e:	76a10923          	sb	a0,1906(sp)
   18c32:	77310513          	addi	a0,sp,1907
   18c36:	6585                	lui	a1,0x1
   18c38:	2f058593          	addi	a1,a1,752 # 12f0 <.Lline_table_start1+0x10c5>
   18c3c:	958a                	add	a1,a1,sp
   18c3e:	03f00613          	li	a2,63
   18c42:	00002097          	auipc	ra,0x2
   18c46:	fd4080e7          	jalr	-44(ra) # 1ac16 <memcpy>
   18c4a:	6505                	lui	a0,0x1
   18c4c:	34c50513          	addi	a0,a0,844 # 134c <.Lline_table_start1+0x1121>
   18c50:	950a                	add	a0,a0,sp
   18c52:	76c10593          	addi	a1,sp,1900
   18c56:	ffffb097          	auipc	ra,0xffffb
   18c5a:	e8e080e7          	jalr	-370(ra) # 13ae4 <_ZN18complex_no_dynamic3app17h7645fe863b4f41b2E>
   18c5e:	39894503          	lbu	a0,920(s2)
   18c62:	c119                	beqz	a0,18c68 <_start+0x1cd0>
   18c64:	73b0106f          	j	1ab9e <_start+0x3c06>
   18c68:	39a94503          	lbu	a0,922(s2)
   18c6c:	39994583          	lbu	a1,921(s2)
   18c70:	39b94603          	lbu	a2,923(s2)
   18c74:	39c92483          	lw	s1,924(s2)
   18c78:	0522                	slli	a0,a0,0x8
   18c7a:	8d4d                	or	a0,a0,a1
   18c7c:	7b410413          	addi	s0,sp,1972
   18c80:	fea41f23          	sh	a0,-2(s0)
   18c84:	00c40023          	sb	a2,0(s0)
   18c88:	6505                	lui	a0,0x1
   18c8a:	35450513          	addi	a0,a0,852 # 1354 <.Lline_table_start1+0x1129>
   18c8e:	00a105b3          	add	a1,sp,a0
   18c92:	6505                	lui	a0,0x1
   18c94:	2f050513          	addi	a0,a0,752 # 12f0 <.Lline_table_start1+0x10c5>
   18c98:	950a                	add	a0,a0,sp
   18c9a:	04f00613          	li	a2,79
   18c9e:	00002097          	auipc	ra,0x2
   18ca2:	f78080e7          	jalr	-136(ra) # 1ac16 <memcpy>
   18ca6:	0184d513          	srli	a0,s1,0x18
   18caa:	0104d593          	srli	a1,s1,0x10
   18cae:	0084d613          	srli	a2,s1,0x8
   18cb2:	009400a3          	sb	s1,1(s0)
   18cb6:	00c40123          	sb	a2,2(s0)
   18cba:	00b401a3          	sb	a1,3(s0)
   18cbe:	00a40223          	sb	a0,4(s0)
   18cc2:	7b910513          	addi	a0,sp,1977
   18cc6:	6585                	lui	a1,0x1
   18cc8:	2f058593          	addi	a1,a1,752 # 12f0 <.Lline_table_start1+0x10c5>
   18ccc:	958a                	add	a1,a1,sp
   18cce:	04f00613          	li	a2,79
   18cd2:	00002097          	auipc	ra,0x2
   18cd6:	f44080e7          	jalr	-188(ra) # 1ac16 <memcpy>
   18cda:	6505                	lui	a0,0x1
   18cdc:	34c50513          	addi	a0,a0,844 # 134c <.Lline_table_start1+0x1121>
   18ce0:	950a                	add	a0,a0,sp
   18ce2:	7b210593          	addi	a1,sp,1970
   18ce6:	ffffc097          	auipc	ra,0xffffc
   18cea:	6e2080e7          	jalr	1762(ra) # 153c8 <_ZN18complex_no_dynamic3app17hab0bb253de2d52efE>
   18cee:	39894503          	lbu	a0,920(s2)
   18cf2:	c119                	beqz	a0,18cf8 <_start+0x1d60>
   18cf4:	6ab0106f          	j	1ab9e <_start+0x3c06>
   18cf8:	39a94503          	lbu	a0,922(s2)
   18cfc:	39994583          	lbu	a1,921(s2)
   18d00:	39b94603          	lbu	a2,923(s2)
   18d04:	39c92483          	lw	s1,924(s2)
   18d08:	0522                	slli	a0,a0,0x8
   18d0a:	8d4d                	or	a0,a0,a1
   18d0c:	04a41a23          	sh	a0,84(s0)
   18d10:	04c40b23          	sb	a2,86(s0)
   18d14:	6505                	lui	a0,0x1
   18d16:	35450513          	addi	a0,a0,852 # 1354 <.Lline_table_start1+0x1129>
   18d1a:	00a105b3          	add	a1,sp,a0
   18d1e:	6505                	lui	a0,0x1
   18d20:	2f050513          	addi	a0,a0,752 # 12f0 <.Lline_table_start1+0x10c5>
   18d24:	950a                	add	a0,a0,sp
   18d26:	04200613          	li	a2,66
   18d2a:	00002097          	auipc	ra,0x2
   18d2e:	eec080e7          	jalr	-276(ra) # 1ac16 <memcpy>
   18d32:	0184d513          	srli	a0,s1,0x18
   18d36:	0104d593          	srli	a1,s1,0x10
   18d3a:	0084d613          	srli	a2,s1,0x8
   18d3e:	04940ba3          	sb	s1,87(s0)
   18d42:	04c40c23          	sb	a2,88(s0)
   18d46:	04b40ca3          	sb	a1,89(s0)
   18d4a:	04a40d23          	sb	a0,90(s0)
   18d4e:	7ff10513          	addi	a0,sp,2047
   18d52:	0541                	addi	a0,a0,16
   18d54:	6585                	lui	a1,0x1
   18d56:	2f058593          	addi	a1,a1,752 # 12f0 <.Lline_table_start1+0x10c5>
   18d5a:	958a                	add	a1,a1,sp
   18d5c:	04200613          	li	a2,66
   18d60:	00002097          	auipc	ra,0x2
   18d64:	eb6080e7          	jalr	-330(ra) # 1ac16 <memcpy>
   18d68:	6505                	lui	a0,0x1
   18d6a:	34c50513          	addi	a0,a0,844 # 134c <.Lline_table_start1+0x1121>
   18d6e:	950a                	add	a0,a0,sp
   18d70:	7ff10593          	addi	a1,sp,2047
   18d74:	05a5                	addi	a1,a1,9
   18d76:	ffff9097          	auipc	ra,0xffff9
   18d7a:	e9e080e7          	jalr	-354(ra) # 11c14 <_ZN18complex_no_dynamic3app17h2999d907ddc46e4eE>
   18d7e:	39894503          	lbu	a0,920(s2)
   18d82:	c119                	beqz	a0,18d88 <_start+0x1df0>
   18d84:	61b0106f          	j	1ab9e <_start+0x3c06>
   18d88:	39a94503          	lbu	a0,922(s2)
   18d8c:	39994583          	lbu	a1,921(s2)
   18d90:	39b94603          	lbu	a2,923(s2)
   18d94:	39c92483          	lw	s1,924(s2)
   18d98:	0522                	slli	a0,a0,0x8
   18d9a:	8d4d                	or	a0,a0,a1
   18d9c:	08a41f23          	sh	a0,158(s0)
   18da0:	0ac40023          	sb	a2,160(s0)
   18da4:	6505                	lui	a0,0x1
   18da6:	35450513          	addi	a0,a0,852 # 1354 <.Lline_table_start1+0x1129>
   18daa:	00a105b3          	add	a1,sp,a0
   18dae:	6505                	lui	a0,0x1
   18db0:	2f050513          	addi	a0,a0,752 # 12f0 <.Lline_table_start1+0x10c5>
   18db4:	950a                	add	a0,a0,sp
   18db6:	4671                	li	a2,28
   18db8:	00002097          	auipc	ra,0x2
   18dbc:	e5e080e7          	jalr	-418(ra) # 1ac16 <memcpy>
   18dc0:	0184d513          	srli	a0,s1,0x18
   18dc4:	0104d593          	srli	a1,s1,0x10
   18dc8:	0084d613          	srli	a2,s1,0x8
   18dcc:	0a9400a3          	sb	s1,161(s0)
   18dd0:	0ac40123          	sb	a2,162(s0)
   18dd4:	0ab401a3          	sb	a1,163(s0)
   18dd8:	0aa40223          	sb	a0,164(s0)
   18ddc:	7ff10513          	addi	a0,sp,2047
   18de0:	05a50513          	addi	a0,a0,90
   18de4:	6585                	lui	a1,0x1
   18de6:	2f058593          	addi	a1,a1,752 # 12f0 <.Lline_table_start1+0x10c5>
   18dea:	958a                	add	a1,a1,sp
   18dec:	4671                	li	a2,28
   18dee:	00002097          	auipc	ra,0x2
   18df2:	e28080e7          	jalr	-472(ra) # 1ac16 <memcpy>
   18df6:	6505                	lui	a0,0x1
   18df8:	34c50513          	addi	a0,a0,844 # 134c <.Lline_table_start1+0x1121>
   18dfc:	950a                	add	a0,a0,sp
   18dfe:	7ff10593          	addi	a1,sp,2047
   18e02:	05358593          	addi	a1,a1,83
   18e06:	ffff9097          	auipc	ra,0xffff9
   18e0a:	012080e7          	jalr	18(ra) # 11e18 <_ZN18complex_no_dynamic3app17h33e9949c35e854beE>
   18e0e:	39894503          	lbu	a0,920(s2)
   18e12:	c119                	beqz	a0,18e18 <_start+0x1e80>
   18e14:	58b0106f          	j	1ab9e <_start+0x3c06>
   18e18:	39a94503          	lbu	a0,922(s2)
   18e1c:	39994583          	lbu	a1,921(s2)
   18e20:	39b94603          	lbu	a2,923(s2)
   18e24:	39c92483          	lw	s1,924(s2)
   18e28:	0522                	slli	a0,a0,0x8
   18e2a:	8d4d                	or	a0,a0,a1
   18e2c:	0ca41123          	sh	a0,194(s0)
   18e30:	0cc40223          	sb	a2,196(s0)
   18e34:	6505                	lui	a0,0x1
   18e36:	35450513          	addi	a0,a0,852 # 1354 <.Lline_table_start1+0x1129>
   18e3a:	00a105b3          	add	a1,sp,a0
   18e3e:	6505                	lui	a0,0x1
   18e40:	2f050513          	addi	a0,a0,752 # 12f0 <.Lline_table_start1+0x10c5>
   18e44:	950a                	add	a0,a0,sp
   18e46:	02400613          	li	a2,36
   18e4a:	00002097          	auipc	ra,0x2
   18e4e:	dcc080e7          	jalr	-564(ra) # 1ac16 <memcpy>
   18e52:	0184d513          	srli	a0,s1,0x18
   18e56:	0104d593          	srli	a1,s1,0x10
   18e5a:	0084d613          	srli	a2,s1,0x8
   18e5e:	0c9402a3          	sb	s1,197(s0)
   18e62:	0cc40323          	sb	a2,198(s0)
   18e66:	0cb403a3          	sb	a1,199(s0)
   18e6a:	0ca40423          	sb	a0,200(s0)
   18e6e:	7ff10513          	addi	a0,sp,2047
   18e72:	07e50513          	addi	a0,a0,126
   18e76:	6585                	lui	a1,0x1
   18e78:	2f058593          	addi	a1,a1,752 # 12f0 <.Lline_table_start1+0x10c5>
   18e7c:	958a                	add	a1,a1,sp
   18e7e:	02400613          	li	a2,36
   18e82:	00002097          	auipc	ra,0x2
   18e86:	d94080e7          	jalr	-620(ra) # 1ac16 <memcpy>
   18e8a:	6505                	lui	a0,0x1
   18e8c:	34c50513          	addi	a0,a0,844 # 134c <.Lline_table_start1+0x1121>
   18e90:	950a                	add	a0,a0,sp
   18e92:	7ff10593          	addi	a1,sp,2047
   18e96:	07758593          	addi	a1,a1,119
   18e9a:	ffffc097          	auipc	ra,0xffffc
   18e9e:	816080e7          	jalr	-2026(ra) # 146b0 <_ZN18complex_no_dynamic3app17h8a8f4abd19b86ea6E>
   18ea2:	39894503          	lbu	a0,920(s2)
   18ea6:	c119                	beqz	a0,18eac <_start+0x1f14>
   18ea8:	4f70106f          	j	1ab9e <_start+0x3c06>
   18eac:	39994503          	lbu	a0,921(s2)
   18eb0:	39a94583          	lbu	a1,922(s2)
   18eb4:	3a092603          	lw	a2,928(s2)
   18eb8:	3a491683          	lh	a3,932(s2)
   18ebc:	39b94703          	lbu	a4,923(s2)
   18ec0:	39c92783          	lw	a5,924(s2)
   18ec4:	05a2                	slli	a1,a1,0x8
   18ec6:	32c92e23          	sw	a2,828(s2)
   18eca:	34d91023          	sh	a3,832(s2)
   18ece:	0187d613          	srli	a2,a5,0x18
   18ed2:	8d4d                	or	a0,a0,a1
   18ed4:	0107d593          	srli	a1,a5,0x10
   18ed8:	0eb409a3          	sb	a1,243(s0)
   18edc:	0ec40a23          	sb	a2,244(s0)
   18ee0:	0087d593          	srli	a1,a5,0x8
   18ee4:	0ea41723          	sh	a0,238(s0)
   18ee8:	0ee40823          	sb	a4,240(s0)
   18eec:	0ef408a3          	sb	a5,241(s0)
   18ef0:	0eb40923          	sb	a1,242(s0)
   18ef4:	7ff10513          	addi	a0,sp,2047
   18ef8:	0aa50513          	addi	a0,a0,170
   18efc:	6585                	lui	a1,0x1
   18efe:	2f058593          	addi	a1,a1,752 # 12f0 <.Lline_table_start1+0x10c5>
   18f02:	958a                	add	a1,a1,sp
   18f04:	4619                	li	a2,6
   18f06:	00002097          	auipc	ra,0x2
   18f0a:	d10080e7          	jalr	-752(ra) # 1ac16 <memcpy>
   18f0e:	6505                	lui	a0,0x1
   18f10:	34c50513          	addi	a0,a0,844 # 134c <.Lline_table_start1+0x1121>
   18f14:	950a                	add	a0,a0,sp
   18f16:	7ff10593          	addi	a1,sp,2047
   18f1a:	0a358593          	addi	a1,a1,163
   18f1e:	ffffb097          	auipc	ra,0xffffb
   18f22:	fcc080e7          	jalr	-52(ra) # 13eea <_ZN18complex_no_dynamic3app17h79f352f359a3d433E>
   18f26:	39894503          	lbu	a0,920(s2)
   18f2a:	c119                	beqz	a0,18f30 <_start+0x1f98>
   18f2c:	4730106f          	j	1ab9e <_start+0x3c06>
   18f30:	39a94503          	lbu	a0,922(s2)
   18f34:	39994583          	lbu	a1,921(s2)
   18f38:	39b94603          	lbu	a2,923(s2)
   18f3c:	39c92483          	lw	s1,924(s2)
   18f40:	0522                	slli	a0,a0,0x8
   18f42:	8d4d                	or	a0,a0,a1
   18f44:	0ea41e23          	sh	a0,252(s0)
   18f48:	0ec40f23          	sb	a2,254(s0)
   18f4c:	6505                	lui	a0,0x1
   18f4e:	35450513          	addi	a0,a0,852 # 1354 <.Lline_table_start1+0x1129>
   18f52:	00a105b3          	add	a1,sp,a0
   18f56:	6505                	lui	a0,0x1
   18f58:	2f050513          	addi	a0,a0,752 # 12f0 <.Lline_table_start1+0x10c5>
   18f5c:	950a                	add	a0,a0,sp
   18f5e:	4669                	li	a2,26
   18f60:	00002097          	auipc	ra,0x2
   18f64:	cb6080e7          	jalr	-842(ra) # 1ac16 <memcpy>
   18f68:	0184d513          	srli	a0,s1,0x18
   18f6c:	0104d593          	srli	a1,s1,0x10
   18f70:	0084d613          	srli	a2,s1,0x8
   18f74:	0e940fa3          	sb	s1,255(s0)
   18f78:	10c40023          	sb	a2,256(s0)
   18f7c:	10b400a3          	sb	a1,257(s0)
   18f80:	10a40123          	sb	a0,258(s0)
   18f84:	7ff10513          	addi	a0,sp,2047
   18f88:	0b850513          	addi	a0,a0,184
   18f8c:	6585                	lui	a1,0x1
   18f8e:	2f058593          	addi	a1,a1,752 # 12f0 <.Lline_table_start1+0x10c5>
   18f92:	958a                	add	a1,a1,sp
   18f94:	4669                	li	a2,26
   18f96:	00002097          	auipc	ra,0x2
   18f9a:	c80080e7          	jalr	-896(ra) # 1ac16 <memcpy>
   18f9e:	6505                	lui	a0,0x1
   18fa0:	34c50513          	addi	a0,a0,844 # 134c <.Lline_table_start1+0x1121>
   18fa4:	950a                	add	a0,a0,sp
   18fa6:	7ff10593          	addi	a1,sp,2047
   18faa:	0b158593          	addi	a1,a1,177
   18fae:	ffffd097          	auipc	ra,0xffffd
   18fb2:	0fc080e7          	jalr	252(ra) # 160aa <_ZN18complex_no_dynamic3app17hcd2c258cbd956adaE>
   18fb6:	39894503          	lbu	a0,920(s2)
   18fba:	c119                	beqz	a0,18fc0 <_start+0x2028>
   18fbc:	3e30106f          	j	1ab9e <_start+0x3c06>
   18fc0:	39a94503          	lbu	a0,922(s2)
   18fc4:	39994583          	lbu	a1,921(s2)
   18fc8:	39b94603          	lbu	a2,923(s2)
   18fcc:	39c92483          	lw	s1,924(s2)
   18fd0:	0522                	slli	a0,a0,0x8
   18fd2:	8d4d                	or	a0,a0,a1
   18fd4:	10a41f23          	sh	a0,286(s0)
   18fd8:	12c40023          	sb	a2,288(s0)
   18fdc:	6505                	lui	a0,0x1
   18fde:	35450513          	addi	a0,a0,852 # 1354 <.Lline_table_start1+0x1129>
   18fe2:	00a105b3          	add	a1,sp,a0
   18fe6:	6505                	lui	a0,0x1
   18fe8:	2f050513          	addi	a0,a0,752 # 12f0 <.Lline_table_start1+0x10c5>
   18fec:	950a                	add	a0,a0,sp
   18fee:	04c00613          	li	a2,76
   18ff2:	00002097          	auipc	ra,0x2
   18ff6:	c24080e7          	jalr	-988(ra) # 1ac16 <memcpy>
   18ffa:	0184d513          	srli	a0,s1,0x18
   18ffe:	0104d593          	srli	a1,s1,0x10
   19002:	0084d613          	srli	a2,s1,0x8
   19006:	129400a3          	sb	s1,289(s0)
   1900a:	12c40123          	sb	a2,290(s0)
   1900e:	12b401a3          	sb	a1,291(s0)
   19012:	12a40223          	sb	a0,292(s0)
   19016:	7ff10513          	addi	a0,sp,2047
   1901a:	0da50513          	addi	a0,a0,218
   1901e:	6585                	lui	a1,0x1
   19020:	2f058593          	addi	a1,a1,752 # 12f0 <.Lline_table_start1+0x10c5>
   19024:	958a                	add	a1,a1,sp
   19026:	04c00613          	li	a2,76
   1902a:	00002097          	auipc	ra,0x2
   1902e:	bec080e7          	jalr	-1044(ra) # 1ac16 <memcpy>
   19032:	6505                	lui	a0,0x1
   19034:	34c50513          	addi	a0,a0,844 # 134c <.Lline_table_start1+0x1121>
   19038:	950a                	add	a0,a0,sp
   1903a:	7ff10593          	addi	a1,sp,2047
   1903e:	0d358593          	addi	a1,a1,211
   19042:	ffffa097          	auipc	ra,0xffffa
   19046:	5ac080e7          	jalr	1452(ra) # 135ee <_ZN18complex_no_dynamic3app17h68bec11e47260f75E>
   1904a:	39894503          	lbu	a0,920(s2)
   1904e:	c119                	beqz	a0,19054 <_start+0x20bc>
   19050:	34f0106f          	j	1ab9e <_start+0x3c06>
   19054:	39a94503          	lbu	a0,922(s2)
   19058:	39994583          	lbu	a1,921(s2)
   1905c:	39b94603          	lbu	a2,923(s2)
   19060:	39c92483          	lw	s1,924(s2)
   19064:	0522                	slli	a0,a0,0x8
   19066:	8d4d                	or	a0,a0,a1
   19068:	16a41923          	sh	a0,370(s0)
   1906c:	16c40a23          	sb	a2,372(s0)
   19070:	6505                	lui	a0,0x1
   19072:	35450513          	addi	a0,a0,852 # 1354 <.Lline_table_start1+0x1129>
   19076:	00a105b3          	add	a1,sp,a0
   1907a:	6505                	lui	a0,0x1
   1907c:	2f050513          	addi	a0,a0,752 # 12f0 <.Lline_table_start1+0x10c5>
   19080:	950a                	add	a0,a0,sp
   19082:	04600613          	li	a2,70
   19086:	00002097          	auipc	ra,0x2
   1908a:	b90080e7          	jalr	-1136(ra) # 1ac16 <memcpy>
   1908e:	0184d513          	srli	a0,s1,0x18
   19092:	0104d593          	srli	a1,s1,0x10
   19096:	0084d613          	srli	a2,s1,0x8
   1909a:	16940aa3          	sb	s1,373(s0)
   1909e:	16c40b23          	sb	a2,374(s0)
   190a2:	16b40ba3          	sb	a1,375(s0)
   190a6:	16a40c23          	sb	a0,376(s0)
   190aa:	7ff10513          	addi	a0,sp,2047
   190ae:	12e50513          	addi	a0,a0,302
   190b2:	6585                	lui	a1,0x1
   190b4:	2f058593          	addi	a1,a1,752 # 12f0 <.Lline_table_start1+0x10c5>
   190b8:	958a                	add	a1,a1,sp
   190ba:	04600613          	li	a2,70
   190be:	00002097          	auipc	ra,0x2
   190c2:	b58080e7          	jalr	-1192(ra) # 1ac16 <memcpy>
   190c6:	6505                	lui	a0,0x1
   190c8:	34c50513          	addi	a0,a0,844 # 134c <.Lline_table_start1+0x1121>
   190cc:	950a                	add	a0,a0,sp
   190ce:	7ff10593          	addi	a1,sp,2047
   190d2:	12758593          	addi	a1,a1,295
   190d6:	ffffa097          	auipc	ra,0xffffa
   190da:	830080e7          	jalr	-2000(ra) # 12906 <_ZN18complex_no_dynamic3app17h451322b1659a23e6E>
   190de:	39894503          	lbu	a0,920(s2)
   190e2:	c119                	beqz	a0,190e8 <_start+0x2150>
   190e4:	2bb0106f          	j	1ab9e <_start+0x3c06>
   190e8:	39a94503          	lbu	a0,922(s2)
   190ec:	39994583          	lbu	a1,921(s2)
   190f0:	39b94603          	lbu	a2,923(s2)
   190f4:	39c92483          	lw	s1,924(s2)
   190f8:	0522                	slli	a0,a0,0x8
   190fa:	8d4d                	or	a0,a0,a1
   190fc:	1ca41023          	sh	a0,448(s0)
   19100:	1cc40123          	sb	a2,450(s0)
   19104:	6505                	lui	a0,0x1
   19106:	35450513          	addi	a0,a0,852 # 1354 <.Lline_table_start1+0x1129>
   1910a:	00a105b3          	add	a1,sp,a0
   1910e:	6505                	lui	a0,0x1
   19110:	2f050513          	addi	a0,a0,752 # 12f0 <.Lline_table_start1+0x10c5>
   19114:	950a                	add	a0,a0,sp
   19116:	03500613          	li	a2,53
   1911a:	00002097          	auipc	ra,0x2
   1911e:	afc080e7          	jalr	-1284(ra) # 1ac16 <memcpy>
   19122:	0184d513          	srli	a0,s1,0x18
   19126:	0104d593          	srli	a1,s1,0x10
   1912a:	0084d613          	srli	a2,s1,0x8
   1912e:	1c9401a3          	sb	s1,451(s0)
   19132:	1cc40223          	sb	a2,452(s0)
   19136:	1cb402a3          	sb	a1,453(s0)
   1913a:	1ca40323          	sb	a0,454(s0)
   1913e:	7ff10513          	addi	a0,sp,2047
   19142:	17c50513          	addi	a0,a0,380
   19146:	6585                	lui	a1,0x1
   19148:	2f058593          	addi	a1,a1,752 # 12f0 <.Lline_table_start1+0x10c5>
   1914c:	958a                	add	a1,a1,sp
   1914e:	03500613          	li	a2,53
   19152:	00002097          	auipc	ra,0x2
   19156:	ac4080e7          	jalr	-1340(ra) # 1ac16 <memcpy>
   1915a:	6505                	lui	a0,0x1
   1915c:	34c50513          	addi	a0,a0,844 # 134c <.Lline_table_start1+0x1121>
   19160:	950a                	add	a0,a0,sp
   19162:	7ff10593          	addi	a1,sp,2047
   19166:	17558593          	addi	a1,a1,373
   1916a:	ffffd097          	auipc	ra,0xffffd
   1916e:	d4c080e7          	jalr	-692(ra) # 15eb6 <_ZN18complex_no_dynamic3app17hc8d1224560a0980cE>
   19172:	39894503          	lbu	a0,920(s2)
   19176:	c119                	beqz	a0,1917c <_start+0x21e4>
   19178:	2270106f          	j	1ab9e <_start+0x3c06>
   1917c:	39a94503          	lbu	a0,922(s2)
   19180:	39994583          	lbu	a1,921(s2)
   19184:	39b94603          	lbu	a2,923(s2)
   19188:	39c92483          	lw	s1,924(s2)
   1918c:	0522                	slli	a0,a0,0x8
   1918e:	8d4d                	or	a0,a0,a1
   19190:	1ea41e23          	sh	a0,508(s0)
   19194:	1ec40f23          	sb	a2,510(s0)
   19198:	6505                	lui	a0,0x1
   1919a:	35450513          	addi	a0,a0,852 # 1354 <.Lline_table_start1+0x1129>
   1919e:	00a105b3          	add	a1,sp,a0
   191a2:	6505                	lui	a0,0x1
   191a4:	2f050513          	addi	a0,a0,752 # 12f0 <.Lline_table_start1+0x10c5>
   191a8:	950a                	add	a0,a0,sp
   191aa:	03100613          	li	a2,49
   191ae:	00002097          	auipc	ra,0x2
   191b2:	a68080e7          	jalr	-1432(ra) # 1ac16 <memcpy>
   191b6:	0184d513          	srli	a0,s1,0x18
   191ba:	0104d593          	srli	a1,s1,0x10
   191be:	0084d613          	srli	a2,s1,0x8
   191c2:	1e940fa3          	sb	s1,511(s0)
   191c6:	20c40023          	sb	a2,512(s0)
   191ca:	20b400a3          	sb	a1,513(s0)
   191ce:	20a40123          	sb	a0,514(s0)
   191d2:	7ff10513          	addi	a0,sp,2047
   191d6:	1b850513          	addi	a0,a0,440
   191da:	6585                	lui	a1,0x1
   191dc:	2f058593          	addi	a1,a1,752 # 12f0 <.Lline_table_start1+0x10c5>
   191e0:	958a                	add	a1,a1,sp
   191e2:	03100613          	li	a2,49
   191e6:	00002097          	auipc	ra,0x2
   191ea:	a30080e7          	jalr	-1488(ra) # 1ac16 <memcpy>
   191ee:	6505                	lui	a0,0x1
   191f0:	34c50513          	addi	a0,a0,844 # 134c <.Lline_table_start1+0x1121>
   191f4:	950a                	add	a0,a0,sp
   191f6:	7ff10593          	addi	a1,sp,2047
   191fa:	1b158593          	addi	a1,a1,433
   191fe:	ffffc097          	auipc	ra,0xffffc
   19202:	9ea080e7          	jalr	-1558(ra) # 14be8 <_ZN18complex_no_dynamic3app17h957b9c823977c188E>
   19206:	39894503          	lbu	a0,920(s2)
   1920a:	c119                	beqz	a0,19210 <_start+0x2278>
   1920c:	1930106f          	j	1ab9e <_start+0x3c06>
   19210:	39a94503          	lbu	a0,922(s2)
   19214:	39994583          	lbu	a1,921(s2)
   19218:	39b94603          	lbu	a2,923(s2)
   1921c:	39c92483          	lw	s1,924(s2)
   19220:	0522                	slli	a0,a0,0x8
   19222:	8d4d                	or	a0,a0,a1
   19224:	22a41a23          	sh	a0,564(s0)
   19228:	22c40b23          	sb	a2,566(s0)
   1922c:	6505                	lui	a0,0x1
   1922e:	35450513          	addi	a0,a0,852 # 1354 <.Lline_table_start1+0x1129>
   19232:	00a105b3          	add	a1,sp,a0
   19236:	6505                	lui	a0,0x1
   19238:	2f050513          	addi	a0,a0,752 # 12f0 <.Lline_table_start1+0x10c5>
   1923c:	950a                	add	a0,a0,sp
   1923e:	02000613          	li	a2,32
   19242:	00002097          	auipc	ra,0x2
   19246:	9d4080e7          	jalr	-1580(ra) # 1ac16 <memcpy>
   1924a:	0184d513          	srli	a0,s1,0x18
   1924e:	0104d593          	srli	a1,s1,0x10
   19252:	0084d613          	srli	a2,s1,0x8
   19256:	22940ba3          	sb	s1,567(s0)
   1925a:	22c40c23          	sb	a2,568(s0)
   1925e:	22b40ca3          	sb	a1,569(s0)
   19262:	22a40d23          	sb	a0,570(s0)
   19266:	7ff10513          	addi	a0,sp,2047
   1926a:	1f050513          	addi	a0,a0,496
   1926e:	6585                	lui	a1,0x1
   19270:	2f058593          	addi	a1,a1,752 # 12f0 <.Lline_table_start1+0x10c5>
   19274:	958a                	add	a1,a1,sp
   19276:	02000613          	li	a2,32
   1927a:	00002097          	auipc	ra,0x2
   1927e:	99c080e7          	jalr	-1636(ra) # 1ac16 <memcpy>
   19282:	6505                	lui	a0,0x1
   19284:	34c50513          	addi	a0,a0,844 # 134c <.Lline_table_start1+0x1121>
   19288:	950a                	add	a0,a0,sp
   1928a:	7ff10593          	addi	a1,sp,2047
   1928e:	1e958593          	addi	a1,a1,489
   19292:	ffffb097          	auipc	ra,0xffffb
   19296:	fa8080e7          	jalr	-88(ra) # 1423a <_ZN18complex_no_dynamic3app17h801ec0681009ab05E>
   1929a:	39894503          	lbu	a0,920(s2)
   1929e:	c119                	beqz	a0,192a4 <_start+0x230c>
   192a0:	0ff0106f          	j	1ab9e <_start+0x3c06>
   192a4:	39a94503          	lbu	a0,922(s2)
   192a8:	39994583          	lbu	a1,921(s2)
   192ac:	39b94603          	lbu	a2,923(s2)
   192b0:	39c92483          	lw	s1,924(s2)
   192b4:	0522                	slli	a0,a0,0x8
   192b6:	8d4d                	or	a0,a0,a1
   192b8:	24a41e23          	sh	a0,604(s0)
   192bc:	24c40f23          	sb	a2,606(s0)
   192c0:	6505                	lui	a0,0x1
   192c2:	35450513          	addi	a0,a0,852 # 1354 <.Lline_table_start1+0x1129>
   192c6:	00a105b3          	add	a1,sp,a0
   192ca:	6505                	lui	a0,0x1
   192cc:	2f050513          	addi	a0,a0,752 # 12f0 <.Lline_table_start1+0x10c5>
   192d0:	950a                	add	a0,a0,sp
   192d2:	04a00613          	li	a2,74
   192d6:	00002097          	auipc	ra,0x2
   192da:	940080e7          	jalr	-1728(ra) # 1ac16 <memcpy>
   192de:	0184d513          	srli	a0,s1,0x18
   192e2:	0104d593          	srli	a1,s1,0x10
   192e6:	0084d613          	srli	a2,s1,0x8
   192ea:	24940fa3          	sb	s1,607(s0)
   192ee:	26c40023          	sb	a2,608(s0)
   192f2:	26b400a3          	sb	a1,609(s0)
   192f6:	26a40123          	sb	a0,610(s0)
   192fa:	7ff10513          	addi	a0,sp,2047
   192fe:	21850513          	addi	a0,a0,536
   19302:	6585                	lui	a1,0x1
   19304:	2f058593          	addi	a1,a1,752 # 12f0 <.Lline_table_start1+0x10c5>
   19308:	958a                	add	a1,a1,sp
   1930a:	04a00613          	li	a2,74
   1930e:	00002097          	auipc	ra,0x2
   19312:	908080e7          	jalr	-1784(ra) # 1ac16 <memcpy>
   19316:	6505                	lui	a0,0x1
   19318:	34c50513          	addi	a0,a0,844 # 134c <.Lline_table_start1+0x1121>
   1931c:	950a                	add	a0,a0,sp
   1931e:	7ff10593          	addi	a1,sp,2047
   19322:	21158593          	addi	a1,a1,529
   19326:	ffff9097          	auipc	ra,0xffff9
   1932a:	1e4080e7          	jalr	484(ra) # 1250a <_ZN18complex_no_dynamic3app17h3d1b400e0ee58146E>
   1932e:	39894503          	lbu	a0,920(s2)
   19332:	c119                	beqz	a0,19338 <_start+0x23a0>
   19334:	06b0106f          	j	1ab9e <_start+0x3c06>
   19338:	39a94503          	lbu	a0,922(s2)
   1933c:	39994583          	lbu	a1,921(s2)
   19340:	39b94603          	lbu	a2,923(s2)
   19344:	39c92483          	lw	s1,924(s2)
   19348:	0522                	slli	a0,a0,0x8
   1934a:	8d4d                	or	a0,a0,a1
   1934c:	2aa41723          	sh	a0,686(s0)
   19350:	2ac40823          	sb	a2,688(s0)
   19354:	6505                	lui	a0,0x1
   19356:	35450513          	addi	a0,a0,852 # 1354 <.Lline_table_start1+0x1129>
   1935a:	00a105b3          	add	a1,sp,a0
   1935e:	6505                	lui	a0,0x1
   19360:	2f050513          	addi	a0,a0,752 # 12f0 <.Lline_table_start1+0x10c5>
   19364:	950a                	add	a0,a0,sp
   19366:	04800613          	li	a2,72
   1936a:	00002097          	auipc	ra,0x2
   1936e:	8ac080e7          	jalr	-1876(ra) # 1ac16 <memcpy>
   19372:	0184d513          	srli	a0,s1,0x18
   19376:	0104d593          	srli	a1,s1,0x10
   1937a:	0084d613          	srli	a2,s1,0x8
   1937e:	2a9408a3          	sb	s1,689(s0)
   19382:	2ac40923          	sb	a2,690(s0)
   19386:	2ab409a3          	sb	a1,691(s0)
   1938a:	2aa40a23          	sb	a0,692(s0)
   1938e:	7ff10513          	addi	a0,sp,2047
   19392:	26a50513          	addi	a0,a0,618
   19396:	6585                	lui	a1,0x1
   19398:	2f058593          	addi	a1,a1,752 # 12f0 <.Lline_table_start1+0x10c5>
   1939c:	958a                	add	a1,a1,sp
   1939e:	04800613          	li	a2,72
   193a2:	00002097          	auipc	ra,0x2
   193a6:	874080e7          	jalr	-1932(ra) # 1ac16 <memcpy>
   193aa:	6505                	lui	a0,0x1
   193ac:	34c50513          	addi	a0,a0,844 # 134c <.Lline_table_start1+0x1121>
   193b0:	950a                	add	a0,a0,sp
   193b2:	7ff10593          	addi	a1,sp,2047
   193b6:	26358593          	addi	a1,a1,611
   193ba:	ffffb097          	auipc	ra,0xffffb
   193be:	734080e7          	jalr	1844(ra) # 14aee <_ZN18complex_no_dynamic3app17h94a76f4b78e21030E>
   193c2:	39894503          	lbu	a0,920(s2)
   193c6:	c119                	beqz	a0,193cc <_start+0x2434>
   193c8:	7d60106f          	j	1ab9e <_start+0x3c06>
   193cc:	39a94503          	lbu	a0,922(s2)
   193d0:	39994583          	lbu	a1,921(s2)
   193d4:	39b94603          	lbu	a2,923(s2)
   193d8:	39c92483          	lw	s1,924(s2)
   193dc:	0522                	slli	a0,a0,0x8
   193de:	8d4d                	or	a0,a0,a1
   193e0:	2ea41f23          	sh	a0,766(s0)
   193e4:	30c40023          	sb	a2,768(s0)
   193e8:	6505                	lui	a0,0x1
   193ea:	35450513          	addi	a0,a0,852 # 1354 <.Lline_table_start1+0x1129>
   193ee:	00a105b3          	add	a1,sp,a0
   193f2:	6505                	lui	a0,0x1
   193f4:	2f050513          	addi	a0,a0,752 # 12f0 <.Lline_table_start1+0x10c5>
   193f8:	950a                	add	a0,a0,sp
   193fa:	05a00613          	li	a2,90
   193fe:	00002097          	auipc	ra,0x2
   19402:	818080e7          	jalr	-2024(ra) # 1ac16 <memcpy>
   19406:	0184d513          	srli	a0,s1,0x18
   1940a:	0104d593          	srli	a1,s1,0x10
   1940e:	0084d613          	srli	a2,s1,0x8
   19412:	309400a3          	sb	s1,769(s0)
   19416:	30c40123          	sb	a2,770(s0)
   1941a:	30b401a3          	sb	a1,771(s0)
   1941e:	30a40223          	sb	a0,772(s0)
   19422:	7ff10513          	addi	a0,sp,2047
   19426:	2ba50513          	addi	a0,a0,698
   1942a:	6585                	lui	a1,0x1
   1942c:	2f058593          	addi	a1,a1,752 # 12f0 <.Lline_table_start1+0x10c5>
   19430:	958a                	add	a1,a1,sp
   19432:	05a00613          	li	a2,90
   19436:	00001097          	auipc	ra,0x1
   1943a:	7e0080e7          	jalr	2016(ra) # 1ac16 <memcpy>
   1943e:	6505                	lui	a0,0x1
   19440:	34c50513          	addi	a0,a0,844 # 134c <.Lline_table_start1+0x1121>
   19444:	950a                	add	a0,a0,sp
   19446:	7ff10593          	addi	a1,sp,2047
   1944a:	2b358593          	addi	a1,a1,691
   1944e:	ffff8097          	auipc	ra,0xffff8
   19452:	1e0080e7          	jalr	480(ra) # 1162e <_ZN18complex_no_dynamic3app17h11a0a1b6e07a2cecE>
   19456:	39894503          	lbu	a0,920(s2)
   1945a:	c119                	beqz	a0,19460 <_start+0x24c8>
   1945c:	7420106f          	j	1ab9e <_start+0x3c06>
   19460:	39a94503          	lbu	a0,922(s2)
   19464:	39994583          	lbu	a1,921(s2)
   19468:	39b94603          	lbu	a2,923(s2)
   1946c:	39c92483          	lw	s1,924(s2)
   19470:	0522                	slli	a0,a0,0x8
   19472:	8d4d                	or	a0,a0,a1
   19474:	36a41023          	sh	a0,864(s0)
   19478:	36c40123          	sb	a2,866(s0)
   1947c:	6505                	lui	a0,0x1
   1947e:	35450513          	addi	a0,a0,852 # 1354 <.Lline_table_start1+0x1129>
   19482:	00a105b3          	add	a1,sp,a0
   19486:	6505                	lui	a0,0x1
   19488:	2f050513          	addi	a0,a0,752 # 12f0 <.Lline_table_start1+0x10c5>
   1948c:	950a                	add	a0,a0,sp
   1948e:	465d                	li	a2,23
   19490:	00001097          	auipc	ra,0x1
   19494:	786080e7          	jalr	1926(ra) # 1ac16 <memcpy>
   19498:	0184d513          	srli	a0,s1,0x18
   1949c:	0104d593          	srli	a1,s1,0x10
   194a0:	0084d613          	srli	a2,s1,0x8
   194a4:	369401a3          	sb	s1,867(s0)
   194a8:	36c40223          	sb	a2,868(s0)
   194ac:	36b402a3          	sb	a1,869(s0)
   194b0:	36a40323          	sb	a0,870(s0)
   194b4:	7ff10513          	addi	a0,sp,2047
   194b8:	31c50513          	addi	a0,a0,796
   194bc:	6585                	lui	a1,0x1
   194be:	2f058593          	addi	a1,a1,752 # 12f0 <.Lline_table_start1+0x10c5>
   194c2:	958a                	add	a1,a1,sp
   194c4:	465d                	li	a2,23
   194c6:	00001097          	auipc	ra,0x1
   194ca:	750080e7          	jalr	1872(ra) # 1ac16 <memcpy>
   194ce:	6505                	lui	a0,0x1
   194d0:	34c50513          	addi	a0,a0,844 # 134c <.Lline_table_start1+0x1121>
   194d4:	950a                	add	a0,a0,sp
   194d6:	7ff10593          	addi	a1,sp,2047
   194da:	31558593          	addi	a1,a1,789
   194de:	ffff9097          	auipc	ra,0xffff9
   194e2:	a3e080e7          	jalr	-1474(ra) # 11f1c <_ZN18complex_no_dynamic3app17h377755564a445d98E>
   194e6:	39894503          	lbu	a0,920(s2)
   194ea:	c119                	beqz	a0,194f0 <_start+0x2558>
   194ec:	6b20106f          	j	1ab9e <_start+0x3c06>
   194f0:	39a94503          	lbu	a0,922(s2)
   194f4:	39994583          	lbu	a1,921(s2)
   194f8:	39b94603          	lbu	a2,923(s2)
   194fc:	39c92483          	lw	s1,924(s2)
   19500:	0522                	slli	a0,a0,0x8
   19502:	8d4d                	or	a0,a0,a1
   19504:	36a41f23          	sh	a0,894(s0)
   19508:	38c40023          	sb	a2,896(s0)
   1950c:	6505                	lui	a0,0x1
   1950e:	35450513          	addi	a0,a0,852 # 1354 <.Lline_table_start1+0x1129>
   19512:	00a105b3          	add	a1,sp,a0
   19516:	6505                	lui	a0,0x1
   19518:	2f050513          	addi	a0,a0,752 # 12f0 <.Lline_table_start1+0x10c5>
   1951c:	950a                	add	a0,a0,sp
   1951e:	4669                	li	a2,26
   19520:	00001097          	auipc	ra,0x1
   19524:	6f6080e7          	jalr	1782(ra) # 1ac16 <memcpy>
   19528:	0184d513          	srli	a0,s1,0x18
   1952c:	0104d593          	srli	a1,s1,0x10
   19530:	0084d613          	srli	a2,s1,0x8
   19534:	389400a3          	sb	s1,897(s0)
   19538:	38c40123          	sb	a2,898(s0)
   1953c:	38b401a3          	sb	a1,899(s0)
   19540:	38a40223          	sb	a0,900(s0)
   19544:	7ff10513          	addi	a0,sp,2047
   19548:	33a50513          	addi	a0,a0,826
   1954c:	6585                	lui	a1,0x1
   1954e:	2f058593          	addi	a1,a1,752 # 12f0 <.Lline_table_start1+0x10c5>
   19552:	958a                	add	a1,a1,sp
   19554:	4669                	li	a2,26
   19556:	00001097          	auipc	ra,0x1
   1955a:	6c0080e7          	jalr	1728(ra) # 1ac16 <memcpy>
   1955e:	6505                	lui	a0,0x1
   19560:	34c50513          	addi	a0,a0,844 # 134c <.Lline_table_start1+0x1121>
   19564:	950a                	add	a0,a0,sp
   19566:	7ff10593          	addi	a1,sp,2047
   1956a:	33358593          	addi	a1,a1,819
   1956e:	ffffc097          	auipc	ra,0xffffc
   19572:	54a080e7          	jalr	1354(ra) # 15ab8 <_ZN18complex_no_dynamic3app17hc0b3f312462e46f5E>
   19576:	39894503          	lbu	a0,920(s2)
   1957a:	c119                	beqz	a0,19580 <_start+0x25e8>
   1957c:	6220106f          	j	1ab9e <_start+0x3c06>
   19580:	39a94503          	lbu	a0,922(s2)
   19584:	39994583          	lbu	a1,921(s2)
   19588:	39b94603          	lbu	a2,923(s2)
   1958c:	39c92483          	lw	s1,924(s2)
   19590:	0522                	slli	a0,a0,0x8
   19592:	8d4d                	or	a0,a0,a1
   19594:	3aa41023          	sh	a0,928(s0)
   19598:	3ac40123          	sb	a2,930(s0)
   1959c:	6505                	lui	a0,0x1
   1959e:	35450513          	addi	a0,a0,852 # 1354 <.Lline_table_start1+0x1129>
   195a2:	00a105b3          	add	a1,sp,a0
   195a6:	6505                	lui	a0,0x1
   195a8:	2f050513          	addi	a0,a0,752 # 12f0 <.Lline_table_start1+0x10c5>
   195ac:	950a                	add	a0,a0,sp
   195ae:	02300613          	li	a2,35
   195b2:	00001097          	auipc	ra,0x1
   195b6:	664080e7          	jalr	1636(ra) # 1ac16 <memcpy>
   195ba:	0184d513          	srli	a0,s1,0x18
   195be:	0104d593          	srli	a1,s1,0x10
   195c2:	0084d613          	srli	a2,s1,0x8
   195c6:	3a9401a3          	sb	s1,931(s0)
   195ca:	3ac40223          	sb	a2,932(s0)
   195ce:	3ab402a3          	sb	a1,933(s0)
   195d2:	3aa40323          	sb	a0,934(s0)
   195d6:	7ff10513          	addi	a0,sp,2047
   195da:	35c50513          	addi	a0,a0,860
   195de:	6585                	lui	a1,0x1
   195e0:	2f058593          	addi	a1,a1,752 # 12f0 <.Lline_table_start1+0x10c5>
   195e4:	958a                	add	a1,a1,sp
   195e6:	02300613          	li	a2,35
   195ea:	00001097          	auipc	ra,0x1
   195ee:	62c080e7          	jalr	1580(ra) # 1ac16 <memcpy>
   195f2:	6505                	lui	a0,0x1
   195f4:	34c50513          	addi	a0,a0,844 # 134c <.Lline_table_start1+0x1121>
   195f8:	950a                	add	a0,a0,sp
   195fa:	7ff10593          	addi	a1,sp,2047
   195fe:	35558593          	addi	a1,a1,853
   19602:	ffffd097          	auipc	ra,0xffffd
   19606:	2a0080e7          	jalr	672(ra) # 168a2 <_ZN18complex_no_dynamic3app17hdefb7565d269d8f0E>
   1960a:	39894503          	lbu	a0,920(s2)
   1960e:	c119                	beqz	a0,19614 <_start+0x267c>
   19610:	58e0106f          	j	1ab9e <_start+0x3c06>
   19614:	39a94503          	lbu	a0,922(s2)
   19618:	39994583          	lbu	a1,921(s2)
   1961c:	39b94603          	lbu	a2,923(s2)
   19620:	39c92483          	lw	s1,924(s2)
   19624:	0522                	slli	a0,a0,0x8
   19626:	8d4d                	or	a0,a0,a1
   19628:	3ca41523          	sh	a0,970(s0)
   1962c:	3cc40623          	sb	a2,972(s0)
   19630:	6505                	lui	a0,0x1
   19632:	35450513          	addi	a0,a0,852 # 1354 <.Lline_table_start1+0x1129>
   19636:	00a105b3          	add	a1,sp,a0
   1963a:	6505                	lui	a0,0x1
   1963c:	2f050513          	addi	a0,a0,752 # 12f0 <.Lline_table_start1+0x10c5>
   19640:	950a                	add	a0,a0,sp
   19642:	05200613          	li	a2,82
   19646:	00001097          	auipc	ra,0x1
   1964a:	5d0080e7          	jalr	1488(ra) # 1ac16 <memcpy>
   1964e:	0184d513          	srli	a0,s1,0x18
   19652:	0104d593          	srli	a1,s1,0x10
   19656:	0084d613          	srli	a2,s1,0x8
   1965a:	3c9406a3          	sb	s1,973(s0)
   1965e:	3cc40723          	sb	a2,974(s0)
   19662:	3cb407a3          	sb	a1,975(s0)
   19666:	3ca40823          	sb	a0,976(s0)
   1966a:	7ff10513          	addi	a0,sp,2047
   1966e:	38650513          	addi	a0,a0,902
   19672:	6585                	lui	a1,0x1
   19674:	2f058593          	addi	a1,a1,752 # 12f0 <.Lline_table_start1+0x10c5>
   19678:	958a                	add	a1,a1,sp
   1967a:	05200613          	li	a2,82
   1967e:	00001097          	auipc	ra,0x1
   19682:	598080e7          	jalr	1432(ra) # 1ac16 <memcpy>
   19686:	6505                	lui	a0,0x1
   19688:	34c50513          	addi	a0,a0,844 # 134c <.Lline_table_start1+0x1121>
   1968c:	950a                	add	a0,a0,sp
   1968e:	7ff10593          	addi	a1,sp,2047
   19692:	37f58593          	addi	a1,a1,895
   19696:	ffffd097          	auipc	ra,0xffffd
   1969a:	406080e7          	jalr	1030(ra) # 16a9c <_ZN18complex_no_dynamic3app17he243bd8a66314184E>
   1969e:	39894503          	lbu	a0,920(s2)
   196a2:	c119                	beqz	a0,196a8 <_start+0x2710>
   196a4:	4fa0106f          	j	1ab9e <_start+0x3c06>
   196a8:	39a94503          	lbu	a0,922(s2)
   196ac:	39994583          	lbu	a1,921(s2)
   196b0:	39b94603          	lbu	a2,923(s2)
   196b4:	39c92483          	lw	s1,924(s2)
   196b8:	0522                	slli	a0,a0,0x8
   196ba:	8d4d                	or	a0,a0,a1
   196bc:	42a41223          	sh	a0,1060(s0)
   196c0:	42c40323          	sb	a2,1062(s0)
   196c4:	6505                	lui	a0,0x1
   196c6:	35450513          	addi	a0,a0,852 # 1354 <.Lline_table_start1+0x1129>
   196ca:	00a105b3          	add	a1,sp,a0
   196ce:	6505                	lui	a0,0x1
   196d0:	2f050513          	addi	a0,a0,752 # 12f0 <.Lline_table_start1+0x10c5>
   196d4:	950a                	add	a0,a0,sp
   196d6:	04300613          	li	a2,67
   196da:	00001097          	auipc	ra,0x1
   196de:	53c080e7          	jalr	1340(ra) # 1ac16 <memcpy>
   196e2:	0184d513          	srli	a0,s1,0x18
   196e6:	0104d593          	srli	a1,s1,0x10
   196ea:	0084d613          	srli	a2,s1,0x8
   196ee:	429403a3          	sb	s1,1063(s0)
   196f2:	42c40423          	sb	a2,1064(s0)
   196f6:	42b404a3          	sb	a1,1065(s0)
   196fa:	42a40523          	sb	a0,1066(s0)
   196fe:	7ff10513          	addi	a0,sp,2047
   19702:	3e050513          	addi	a0,a0,992
   19706:	6585                	lui	a1,0x1
   19708:	2f058593          	addi	a1,a1,752 # 12f0 <.Lline_table_start1+0x10c5>
   1970c:	958a                	add	a1,a1,sp
   1970e:	04300613          	li	a2,67
   19712:	00001097          	auipc	ra,0x1
   19716:	504080e7          	jalr	1284(ra) # 1ac16 <memcpy>
   1971a:	6505                	lui	a0,0x1
   1971c:	34c50513          	addi	a0,a0,844 # 134c <.Lline_table_start1+0x1121>
   19720:	950a                	add	a0,a0,sp
   19722:	7ff10593          	addi	a1,sp,2047
   19726:	3d958593          	addi	a1,a1,985
   1972a:	ffff9097          	auipc	ra,0xffff9
   1972e:	5d8080e7          	jalr	1496(ra) # 12d02 <_ZN18complex_no_dynamic3app17h55256a709c0d3e26E>
   19732:	39894503          	lbu	a0,920(s2)
   19736:	c119                	beqz	a0,1973c <_start+0x27a4>
   19738:	4660106f          	j	1ab9e <_start+0x3c06>
   1973c:	39a94503          	lbu	a0,922(s2)
   19740:	39994583          	lbu	a1,921(s2)
   19744:	39b94603          	lbu	a2,923(s2)
   19748:	39c92483          	lw	s1,924(s2)
   1974c:	0522                	slli	a0,a0,0x8
   1974e:	8d4d                	or	a0,a0,a1
   19750:	46a41723          	sh	a0,1134(s0)
   19754:	46c40823          	sb	a2,1136(s0)
   19758:	6505                	lui	a0,0x1
   1975a:	35450513          	addi	a0,a0,852 # 1354 <.Lline_table_start1+0x1129>
   1975e:	00a105b3          	add	a1,sp,a0
   19762:	6505                	lui	a0,0x1
   19764:	2f050513          	addi	a0,a0,752 # 12f0 <.Lline_table_start1+0x10c5>
   19768:	950a                	add	a0,a0,sp
   1976a:	02600613          	li	a2,38
   1976e:	00001097          	auipc	ra,0x1
   19772:	4a8080e7          	jalr	1192(ra) # 1ac16 <memcpy>
   19776:	0184d513          	srli	a0,s1,0x18
   1977a:	0104d593          	srli	a1,s1,0x10
   1977e:	0084d613          	srli	a2,s1,0x8
   19782:	469408a3          	sb	s1,1137(s0)
   19786:	46c40923          	sb	a2,1138(s0)
   1978a:	46b409a3          	sb	a1,1139(s0)
   1978e:	46a40a23          	sb	a0,1140(s0)
   19792:	7ff10513          	addi	a0,sp,2047
   19796:	42a50513          	addi	a0,a0,1066
   1979a:	6585                	lui	a1,0x1
   1979c:	2f058593          	addi	a1,a1,752 # 12f0 <.Lline_table_start1+0x10c5>
   197a0:	958a                	add	a1,a1,sp
   197a2:	02600613          	li	a2,38
   197a6:	00001097          	auipc	ra,0x1
   197aa:	470080e7          	jalr	1136(ra) # 1ac16 <memcpy>
   197ae:	6505                	lui	a0,0x1
   197b0:	34c50513          	addi	a0,a0,844 # 134c <.Lline_table_start1+0x1121>
   197b4:	950a                	add	a0,a0,sp
   197b6:	7ff10593          	addi	a1,sp,2047
   197ba:	42358593          	addi	a1,a1,1059
   197be:	ffffd097          	auipc	ra,0xffffd
   197c2:	ee6080e7          	jalr	-282(ra) # 166a4 <_ZN18complex_no_dynamic3app17hd99ce712c5763450E>
   197c6:	39894503          	lbu	a0,920(s2)
   197ca:	c119                	beqz	a0,197d0 <_start+0x2838>
   197cc:	3d20106f          	j	1ab9e <_start+0x3c06>
   197d0:	39a94503          	lbu	a0,922(s2)
   197d4:	39994583          	lbu	a1,921(s2)
   197d8:	39b94603          	lbu	a2,923(s2)
   197dc:	39c92483          	lw	s1,924(s2)
   197e0:	0522                	slli	a0,a0,0x8
   197e2:	8d4d                	or	a0,a0,a1
   197e4:	48a41e23          	sh	a0,1180(s0)
   197e8:	48c40f23          	sb	a2,1182(s0)
   197ec:	6505                	lui	a0,0x1
   197ee:	35450513          	addi	a0,a0,852 # 1354 <.Lline_table_start1+0x1129>
   197f2:	00a105b3          	add	a1,sp,a0
   197f6:	6505                	lui	a0,0x1
   197f8:	2f050513          	addi	a0,a0,752 # 12f0 <.Lline_table_start1+0x10c5>
   197fc:	950a                	add	a0,a0,sp
   197fe:	04c00613          	li	a2,76
   19802:	00001097          	auipc	ra,0x1
   19806:	414080e7          	jalr	1044(ra) # 1ac16 <memcpy>
   1980a:	0184d513          	srli	a0,s1,0x18
   1980e:	0104d593          	srli	a1,s1,0x10
   19812:	0084d613          	srli	a2,s1,0x8
   19816:	48940fa3          	sb	s1,1183(s0)
   1981a:	4ac40023          	sb	a2,1184(s0)
   1981e:	4ab400a3          	sb	a1,1185(s0)
   19822:	4aa40123          	sb	a0,1186(s0)
   19826:	7ff10513          	addi	a0,sp,2047
   1982a:	45850513          	addi	a0,a0,1112
   1982e:	6585                	lui	a1,0x1
   19830:	2f058593          	addi	a1,a1,752 # 12f0 <.Lline_table_start1+0x10c5>
   19834:	958a                	add	a1,a1,sp
   19836:	04c00613          	li	a2,76
   1983a:	00001097          	auipc	ra,0x1
   1983e:	3dc080e7          	jalr	988(ra) # 1ac16 <memcpy>
   19842:	6505                	lui	a0,0x1
   19844:	34c50513          	addi	a0,a0,844 # 134c <.Lline_table_start1+0x1121>
   19848:	950a                	add	a0,a0,sp
   1984a:	7ff10593          	addi	a1,sp,2047
   1984e:	45158593          	addi	a1,a1,1105
   19852:	ffff9097          	auipc	ra,0xffff9
   19856:	6b4080e7          	jalr	1716(ra) # 12f06 <_ZN18complex_no_dynamic3app17h55dd53cd615f487aE>
   1985a:	39894503          	lbu	a0,920(s2)
   1985e:	c119                	beqz	a0,19864 <_start+0x28cc>
   19860:	33e0106f          	j	1ab9e <_start+0x3c06>
   19864:	39a94503          	lbu	a0,922(s2)
   19868:	39994583          	lbu	a1,921(s2)
   1986c:	39b94603          	lbu	a2,923(s2)
   19870:	39c92483          	lw	s1,924(s2)
   19874:	0522                	slli	a0,a0,0x8
   19876:	8d4d                	or	a0,a0,a1
   19878:	4ea41823          	sh	a0,1264(s0)
   1987c:	4ec40923          	sb	a2,1266(s0)
   19880:	6505                	lui	a0,0x1
   19882:	35450513          	addi	a0,a0,852 # 1354 <.Lline_table_start1+0x1129>
   19886:	00a105b3          	add	a1,sp,a0
   1988a:	6505                	lui	a0,0x1
   1988c:	2f050513          	addi	a0,a0,752 # 12f0 <.Lline_table_start1+0x10c5>
   19890:	950a                	add	a0,a0,sp
   19892:	03300613          	li	a2,51
   19896:	00001097          	auipc	ra,0x1
   1989a:	380080e7          	jalr	896(ra) # 1ac16 <memcpy>
   1989e:	0184d513          	srli	a0,s1,0x18
   198a2:	0104d593          	srli	a1,s1,0x10
   198a6:	0084d613          	srli	a2,s1,0x8
   198aa:	4e9409a3          	sb	s1,1267(s0)
   198ae:	4ec40a23          	sb	a2,1268(s0)
   198b2:	4eb40aa3          	sb	a1,1269(s0)
   198b6:	4ea40b23          	sb	a0,1270(s0)
   198ba:	7ff10513          	addi	a0,sp,2047
   198be:	4ac50513          	addi	a0,a0,1196
   198c2:	6585                	lui	a1,0x1
   198c4:	2f058593          	addi	a1,a1,752 # 12f0 <.Lline_table_start1+0x10c5>
   198c8:	958a                	add	a1,a1,sp
   198ca:	03300613          	li	a2,51
   198ce:	00001097          	auipc	ra,0x1
   198d2:	348080e7          	jalr	840(ra) # 1ac16 <memcpy>
   198d6:	6505                	lui	a0,0x1
   198d8:	34c50513          	addi	a0,a0,844 # 134c <.Lline_table_start1+0x1121>
   198dc:	950a                	add	a0,a0,sp
   198de:	7ff10593          	addi	a1,sp,2047
   198e2:	4a558593          	addi	a1,a1,1189
   198e6:	ffffc097          	auipc	ra,0xffffc
   198ea:	4ce080e7          	jalr	1230(ra) # 15db4 <_ZN18complex_no_dynamic3app17hc8273a35b732717bE>
   198ee:	39894503          	lbu	a0,920(s2)
   198f2:	c119                	beqz	a0,198f8 <_start+0x2960>
   198f4:	2aa0106f          	j	1ab9e <_start+0x3c06>
   198f8:	39a94503          	lbu	a0,922(s2)
   198fc:	39994583          	lbu	a1,921(s2)
   19900:	39b94603          	lbu	a2,923(s2)
   19904:	39c92483          	lw	s1,924(s2)
   19908:	0522                	slli	a0,a0,0x8
   1990a:	8d4d                	or	a0,a0,a1
   1990c:	52a41523          	sh	a0,1322(s0)
   19910:	52c40623          	sb	a2,1324(s0)
   19914:	6505                	lui	a0,0x1
   19916:	35450513          	addi	a0,a0,852 # 1354 <.Lline_table_start1+0x1129>
   1991a:	00a105b3          	add	a1,sp,a0
   1991e:	6505                	lui	a0,0x1
   19920:	2f050513          	addi	a0,a0,752 # 12f0 <.Lline_table_start1+0x10c5>
   19924:	950a                	add	a0,a0,sp
   19926:	05600613          	li	a2,86
   1992a:	00001097          	auipc	ra,0x1
   1992e:	2ec080e7          	jalr	748(ra) # 1ac16 <memcpy>
   19932:	0184d513          	srli	a0,s1,0x18
   19936:	0104d593          	srli	a1,s1,0x10
   1993a:	0084d613          	srli	a2,s1,0x8
   1993e:	529406a3          	sb	s1,1325(s0)
   19942:	52c40723          	sb	a2,1326(s0)
   19946:	52b407a3          	sb	a1,1327(s0)
   1994a:	52a40823          	sb	a0,1328(s0)
   1994e:	7ff10513          	addi	a0,sp,2047
   19952:	4e650513          	addi	a0,a0,1254
   19956:	6585                	lui	a1,0x1
   19958:	2f058593          	addi	a1,a1,752 # 12f0 <.Lline_table_start1+0x10c5>
   1995c:	958a                	add	a1,a1,sp
   1995e:	05600613          	li	a2,86
   19962:	00001097          	auipc	ra,0x1
   19966:	2b4080e7          	jalr	692(ra) # 1ac16 <memcpy>
   1996a:	6505                	lui	a0,0x1
   1996c:	34c50513          	addi	a0,a0,844 # 134c <.Lline_table_start1+0x1121>
   19970:	950a                	add	a0,a0,sp
   19972:	7ff10593          	addi	a1,sp,2047
   19976:	4df58593          	addi	a1,a1,1247
   1997a:	ffffc097          	auipc	ra,0xffffc
   1997e:	d4c080e7          	jalr	-692(ra) # 156c6 <_ZN18complex_no_dynamic3app17hb420ae334d9584c2E>
   19982:	39894503          	lbu	a0,920(s2)
   19986:	c119                	beqz	a0,1998c <_start+0x29f4>
   19988:	2160106f          	j	1ab9e <_start+0x3c06>
   1998c:	39a94503          	lbu	a0,922(s2)
   19990:	39994583          	lbu	a1,921(s2)
   19994:	39b94603          	lbu	a2,923(s2)
   19998:	39c92483          	lw	s1,924(s2)
   1999c:	0522                	slli	a0,a0,0x8
   1999e:	8d4d                	or	a0,a0,a1
   199a0:	58a41423          	sh	a0,1416(s0)
   199a4:	58c40523          	sb	a2,1418(s0)
   199a8:	6505                	lui	a0,0x1
   199aa:	35450513          	addi	a0,a0,852 # 1354 <.Lline_table_start1+0x1129>
   199ae:	00a105b3          	add	a1,sp,a0
   199b2:	6505                	lui	a0,0x1
   199b4:	2f050513          	addi	a0,a0,752 # 12f0 <.Lline_table_start1+0x10c5>
   199b8:	950a                	add	a0,a0,sp
   199ba:	03900613          	li	a2,57
   199be:	00001097          	auipc	ra,0x1
   199c2:	258080e7          	jalr	600(ra) # 1ac16 <memcpy>
   199c6:	0184d513          	srli	a0,s1,0x18
   199ca:	0104d593          	srli	a1,s1,0x10
   199ce:	0084d613          	srli	a2,s1,0x8
   199d2:	589405a3          	sb	s1,1419(s0)
   199d6:	58c40623          	sb	a2,1420(s0)
   199da:	58b406a3          	sb	a1,1421(s0)
   199de:	58a40723          	sb	a0,1422(s0)
   199e2:	7ff10513          	addi	a0,sp,2047
   199e6:	54450513          	addi	a0,a0,1348
   199ea:	6585                	lui	a1,0x1
   199ec:	2f058593          	addi	a1,a1,752 # 12f0 <.Lline_table_start1+0x10c5>
   199f0:	958a                	add	a1,a1,sp
   199f2:	03900613          	li	a2,57
   199f6:	00001097          	auipc	ra,0x1
   199fa:	220080e7          	jalr	544(ra) # 1ac16 <memcpy>
   199fe:	6505                	lui	a0,0x1
   19a00:	34c50513          	addi	a0,a0,844 # 134c <.Lline_table_start1+0x1121>
   19a04:	950a                	add	a0,a0,sp
   19a06:	7ff10593          	addi	a1,sp,2047
   19a0a:	53d58593          	addi	a1,a1,1341
   19a0e:	ffff8097          	auipc	ra,0xffff8
   19a12:	a1c080e7          	jalr	-1508(ra) # 1142a <_ZN18complex_no_dynamic3app17h0f1b37f180aa4e4dE>
   19a16:	39894503          	lbu	a0,920(s2)
   19a1a:	c119                	beqz	a0,19a20 <_start+0x2a88>
   19a1c:	1820106f          	j	1ab9e <_start+0x3c06>
   19a20:	39a94503          	lbu	a0,922(s2)
   19a24:	39994583          	lbu	a1,921(s2)
   19a28:	39b94603          	lbu	a2,923(s2)
   19a2c:	39c92483          	lw	s1,924(s2)
   19a30:	0522                	slli	a0,a0,0x8
   19a32:	8d4d                	or	a0,a0,a1
   19a34:	5ca41423          	sh	a0,1480(s0)
   19a38:	5cc40523          	sb	a2,1482(s0)
   19a3c:	6505                	lui	a0,0x1
   19a3e:	35450513          	addi	a0,a0,852 # 1354 <.Lline_table_start1+0x1129>
   19a42:	00a105b3          	add	a1,sp,a0
   19a46:	6505                	lui	a0,0x1
   19a48:	2f050513          	addi	a0,a0,752 # 12f0 <.Lline_table_start1+0x10c5>
   19a4c:	950a                	add	a0,a0,sp
   19a4e:	02a00613          	li	a2,42
   19a52:	00001097          	auipc	ra,0x1
   19a56:	1c4080e7          	jalr	452(ra) # 1ac16 <memcpy>
   19a5a:	0184d513          	srli	a0,s1,0x18
   19a5e:	0104d593          	srli	a1,s1,0x10
   19a62:	0084d613          	srli	a2,s1,0x8
   19a66:	5c9405a3          	sb	s1,1483(s0)
   19a6a:	5cc40623          	sb	a2,1484(s0)
   19a6e:	5cb406a3          	sb	a1,1485(s0)
   19a72:	5ca40723          	sb	a0,1486(s0)
   19a76:	7ff10513          	addi	a0,sp,2047
   19a7a:	58450513          	addi	a0,a0,1412
   19a7e:	6585                	lui	a1,0x1
   19a80:	2f058593          	addi	a1,a1,752 # 12f0 <.Lline_table_start1+0x10c5>
   19a84:	958a                	add	a1,a1,sp
   19a86:	02a00613          	li	a2,42
   19a8a:	00001097          	auipc	ra,0x1
   19a8e:	18c080e7          	jalr	396(ra) # 1ac16 <memcpy>
   19a92:	6505                	lui	a0,0x1
   19a94:	34c50513          	addi	a0,a0,844 # 134c <.Lline_table_start1+0x1121>
   19a98:	950a                	add	a0,a0,sp
   19a9a:	7ff10593          	addi	a1,sp,2047
   19a9e:	57d58593          	addi	a1,a1,1405
   19aa2:	ffffa097          	auipc	ra,0xffffa
   19aa6:	d46080e7          	jalr	-698(ra) # 137e8 <_ZN18complex_no_dynamic3app17h72bed9d58dd54710E>
   19aaa:	39894503          	lbu	a0,920(s2)
   19aae:	c119                	beqz	a0,19ab4 <_start+0x2b1c>
   19ab0:	0ee0106f          	j	1ab9e <_start+0x3c06>
   19ab4:	39a94503          	lbu	a0,922(s2)
   19ab8:	39994583          	lbu	a1,921(s2)
   19abc:	39b94603          	lbu	a2,923(s2)
   19ac0:	39c92483          	lw	s1,924(s2)
   19ac4:	0522                	slli	a0,a0,0x8
   19ac6:	8d4d                	or	a0,a0,a1
   19ac8:	5ea41d23          	sh	a0,1530(s0)
   19acc:	5ec40e23          	sb	a2,1532(s0)
   19ad0:	6505                	lui	a0,0x1
   19ad2:	35450513          	addi	a0,a0,852 # 1354 <.Lline_table_start1+0x1129>
   19ad6:	00a105b3          	add	a1,sp,a0
   19ada:	6505                	lui	a0,0x1
   19adc:	2f050513          	addi	a0,a0,752 # 12f0 <.Lline_table_start1+0x10c5>
   19ae0:	950a                	add	a0,a0,sp
   19ae2:	04100613          	li	a2,65
   19ae6:	00001097          	auipc	ra,0x1
   19aea:	130080e7          	jalr	304(ra) # 1ac16 <memcpy>
   19aee:	0184d513          	srli	a0,s1,0x18
   19af2:	0104d593          	srli	a1,s1,0x10
   19af6:	0084d613          	srli	a2,s1,0x8
   19afa:	5e940ea3          	sb	s1,1533(s0)
   19afe:	5ec40f23          	sb	a2,1534(s0)
   19b02:	5eb40fa3          	sb	a1,1535(s0)
   19b06:	60a40023          	sb	a0,1536(s0)
   19b0a:	7ff10513          	addi	a0,sp,2047
   19b0e:	5b650513          	addi	a0,a0,1462
   19b12:	6585                	lui	a1,0x1
   19b14:	2f058593          	addi	a1,a1,752 # 12f0 <.Lline_table_start1+0x10c5>
   19b18:	958a                	add	a1,a1,sp
   19b1a:	04100613          	li	a2,65
   19b1e:	00001097          	auipc	ra,0x1
   19b22:	0f8080e7          	jalr	248(ra) # 1ac16 <memcpy>
   19b26:	6505                	lui	a0,0x1
   19b28:	34c50513          	addi	a0,a0,844 # 134c <.Lline_table_start1+0x1121>
   19b2c:	950a                	add	a0,a0,sp
   19b2e:	7ff10593          	addi	a1,sp,2047
   19b32:	5af58593          	addi	a1,a1,1455
   19b36:	ffff9097          	auipc	ra,0xffff9
   19b3a:	fc4080e7          	jalr	-60(ra) # 12afa <_ZN18complex_no_dynamic3app17h47d6088eee075fc9E>
   19b3e:	39894503          	lbu	a0,920(s2)
   19b42:	c119                	beqz	a0,19b48 <_start+0x2bb0>
   19b44:	05a0106f          	j	1ab9e <_start+0x3c06>
   19b48:	39a94503          	lbu	a0,922(s2)
   19b4c:	39994583          	lbu	a1,921(s2)
   19b50:	39b94603          	lbu	a2,923(s2)
   19b54:	39c92483          	lw	s1,924(s2)
   19b58:	0522                	slli	a0,a0,0x8
   19b5a:	8d4d                	or	a0,a0,a1
   19b5c:	64a41123          	sh	a0,1602(s0)
   19b60:	64c40223          	sb	a2,1604(s0)
   19b64:	6505                	lui	a0,0x1
   19b66:	35450513          	addi	a0,a0,852 # 1354 <.Lline_table_start1+0x1129>
   19b6a:	00a105b3          	add	a1,sp,a0
   19b6e:	6505                	lui	a0,0x1
   19b70:	2f050513          	addi	a0,a0,752 # 12f0 <.Lline_table_start1+0x10c5>
   19b74:	950a                	add	a0,a0,sp
   19b76:	02200613          	li	a2,34
   19b7a:	00001097          	auipc	ra,0x1
   19b7e:	09c080e7          	jalr	156(ra) # 1ac16 <memcpy>
   19b82:	0184d513          	srli	a0,s1,0x18
   19b86:	0104d593          	srli	a1,s1,0x10
   19b8a:	0084d613          	srli	a2,s1,0x8
   19b8e:	649402a3          	sb	s1,1605(s0)
   19b92:	64c40323          	sb	a2,1606(s0)
   19b96:	64b403a3          	sb	a1,1607(s0)
   19b9a:	64a40423          	sb	a0,1608(s0)
   19b9e:	7ff10513          	addi	a0,sp,2047
   19ba2:	5fe50513          	addi	a0,a0,1534
   19ba6:	6585                	lui	a1,0x1
   19ba8:	2f058593          	addi	a1,a1,752 # 12f0 <.Lline_table_start1+0x10c5>
   19bac:	958a                	add	a1,a1,sp
   19bae:	02200613          	li	a2,34
   19bb2:	00001097          	auipc	ra,0x1
   19bb6:	064080e7          	jalr	100(ra) # 1ac16 <memcpy>
   19bba:	6505                	lui	a0,0x1
   19bbc:	34c50513          	addi	a0,a0,844 # 134c <.Lline_table_start1+0x1121>
   19bc0:	950a                	add	a0,a0,sp
   19bc2:	7ff10593          	addi	a1,sp,2047
   19bc6:	5f758593          	addi	a1,a1,1527
   19bca:	ffff8097          	auipc	ra,0xffff8
   19bce:	d60080e7          	jalr	-672(ra) # 1192a <_ZN18complex_no_dynamic3app17h1da4c26b6e221c1eE>
   19bd2:	39894503          	lbu	a0,920(s2)
   19bd6:	7c0514e3          	bnez	a0,1ab9e <_start+0x3c06>
   19bda:	39a94503          	lbu	a0,922(s2)
   19bde:	39994583          	lbu	a1,921(s2)
   19be2:	39b94603          	lbu	a2,923(s2)
   19be6:	39c92483          	lw	s1,924(s2)
   19bea:	0522                	slli	a0,a0,0x8
   19bec:	8d4d                	or	a0,a0,a1
   19bee:	66a41623          	sh	a0,1644(s0)
   19bf2:	66c40723          	sb	a2,1646(s0)
   19bf6:	6505                	lui	a0,0x1
   19bf8:	35450513          	addi	a0,a0,852 # 1354 <.Lline_table_start1+0x1129>
   19bfc:	00a105b3          	add	a1,sp,a0
   19c00:	6505                	lui	a0,0x1
   19c02:	2f050513          	addi	a0,a0,752 # 12f0 <.Lline_table_start1+0x10c5>
   19c06:	950a                	add	a0,a0,sp
   19c08:	464d                	li	a2,19
   19c0a:	00001097          	auipc	ra,0x1
   19c0e:	00c080e7          	jalr	12(ra) # 1ac16 <memcpy>
   19c12:	0184d513          	srli	a0,s1,0x18
   19c16:	0104d593          	srli	a1,s1,0x10
   19c1a:	0084d613          	srli	a2,s1,0x8
   19c1e:	669407a3          	sb	s1,1647(s0)
   19c22:	66c40823          	sb	a2,1648(s0)
   19c26:	66b408a3          	sb	a1,1649(s0)
   19c2a:	66a40923          	sb	a0,1650(s0)
   19c2e:	7ff10513          	addi	a0,sp,2047
   19c32:	62850513          	addi	a0,a0,1576
   19c36:	6585                	lui	a1,0x1
   19c38:	2f058593          	addi	a1,a1,752 # 12f0 <.Lline_table_start1+0x10c5>
   19c3c:	958a                	add	a1,a1,sp
   19c3e:	464d                	li	a2,19
   19c40:	00001097          	auipc	ra,0x1
   19c44:	fd6080e7          	jalr	-42(ra) # 1ac16 <memcpy>
   19c48:	6505                	lui	a0,0x1
   19c4a:	34c50513          	addi	a0,a0,844 # 134c <.Lline_table_start1+0x1121>
   19c4e:	950a                	add	a0,a0,sp
   19c50:	7ff10593          	addi	a1,sp,2047
   19c54:	62158593          	addi	a1,a1,1569
   19c58:	ffffc097          	auipc	ra,0xffffc
   19c5c:	c66080e7          	jalr	-922(ra) # 158be <_ZN18complex_no_dynamic3app17hba2a6d61020e1a0bE>
   19c60:	39894503          	lbu	a0,920(s2)
   19c64:	72051de3          	bnez	a0,1ab9e <_start+0x3c06>
   19c68:	39a94503          	lbu	a0,922(s2)
   19c6c:	39994583          	lbu	a1,921(s2)
   19c70:	39b94603          	lbu	a2,923(s2)
   19c74:	39c92483          	lw	s1,924(s2)
   19c78:	0522                	slli	a0,a0,0x8
   19c7a:	8d4d                	or	a0,a0,a1
   19c7c:	68a41323          	sh	a0,1670(s0)
   19c80:	68c40423          	sb	a2,1672(s0)
   19c84:	6505                	lui	a0,0x1
   19c86:	35450513          	addi	a0,a0,852 # 1354 <.Lline_table_start1+0x1129>
   19c8a:	00a105b3          	add	a1,sp,a0
   19c8e:	6505                	lui	a0,0x1
   19c90:	2f050513          	addi	a0,a0,752 # 12f0 <.Lline_table_start1+0x10c5>
   19c94:	950a                	add	a0,a0,sp
   19c96:	4651                	li	a2,20
   19c98:	00001097          	auipc	ra,0x1
   19c9c:	f7e080e7          	jalr	-130(ra) # 1ac16 <memcpy>
   19ca0:	0184d513          	srli	a0,s1,0x18
   19ca4:	0104d593          	srli	a1,s1,0x10
   19ca8:	0084d613          	srli	a2,s1,0x8
   19cac:	689404a3          	sb	s1,1673(s0)
   19cb0:	68c40523          	sb	a2,1674(s0)
   19cb4:	68b405a3          	sb	a1,1675(s0)
   19cb8:	68a40623          	sb	a0,1676(s0)
   19cbc:	7ff10513          	addi	a0,sp,2047
   19cc0:	64250513          	addi	a0,a0,1602
   19cc4:	6585                	lui	a1,0x1
   19cc6:	2f058593          	addi	a1,a1,752 # 12f0 <.Lline_table_start1+0x10c5>
   19cca:	958a                	add	a1,a1,sp
   19ccc:	4651                	li	a2,20
   19cce:	00001097          	auipc	ra,0x1
   19cd2:	f48080e7          	jalr	-184(ra) # 1ac16 <memcpy>
   19cd6:	6505                	lui	a0,0x1
   19cd8:	34c50513          	addi	a0,a0,844 # 134c <.Lline_table_start1+0x1121>
   19cdc:	950a                	add	a0,a0,sp
   19cde:	7ff10593          	addi	a1,sp,2047
   19ce2:	63b58593          	addi	a1,a1,1595
   19ce6:	ffff9097          	auipc	ra,0xffff9
   19cea:	616080e7          	jalr	1558(ra) # 132fc <_ZN18complex_no_dynamic3app17h64b6373af08d2485E>
   19cee:	39894503          	lbu	a0,920(s2)
   19cf2:	6a0516e3          	bnez	a0,1ab9e <_start+0x3c06>
   19cf6:	39a94503          	lbu	a0,922(s2)
   19cfa:	39994583          	lbu	a1,921(s2)
   19cfe:	39b94603          	lbu	a2,923(s2)
   19d02:	39c92483          	lw	s1,924(s2)
   19d06:	0522                	slli	a0,a0,0x8
   19d08:	8d4d                	or	a0,a0,a1
   19d0a:	6aa41123          	sh	a0,1698(s0)
   19d0e:	6ac40223          	sb	a2,1700(s0)
   19d12:	6505                	lui	a0,0x1
   19d14:	35450513          	addi	a0,a0,852 # 1354 <.Lline_table_start1+0x1129>
   19d18:	00a105b3          	add	a1,sp,a0
   19d1c:	6505                	lui	a0,0x1
   19d1e:	2f050513          	addi	a0,a0,752 # 12f0 <.Lline_table_start1+0x10c5>
   19d22:	950a                	add	a0,a0,sp
   19d24:	03a00613          	li	a2,58
   19d28:	00001097          	auipc	ra,0x1
   19d2c:	eee080e7          	jalr	-274(ra) # 1ac16 <memcpy>
   19d30:	0184d513          	srli	a0,s1,0x18
   19d34:	0104d593          	srli	a1,s1,0x10
   19d38:	0084d613          	srli	a2,s1,0x8
   19d3c:	6a9402a3          	sb	s1,1701(s0)
   19d40:	6ac40323          	sb	a2,1702(s0)
   19d44:	6ab403a3          	sb	a1,1703(s0)
   19d48:	6aa40423          	sb	a0,1704(s0)
   19d4c:	7ff10513          	addi	a0,sp,2047
   19d50:	65e50513          	addi	a0,a0,1630
   19d54:	6585                	lui	a1,0x1
   19d56:	2f058593          	addi	a1,a1,752 # 12f0 <.Lline_table_start1+0x10c5>
   19d5a:	958a                	add	a1,a1,sp
   19d5c:	03a00613          	li	a2,58
   19d60:	00001097          	auipc	ra,0x1
   19d64:	eb6080e7          	jalr	-330(ra) # 1ac16 <memcpy>
   19d68:	6505                	lui	a0,0x1
   19d6a:	34c50513          	addi	a0,a0,844 # 134c <.Lline_table_start1+0x1121>
   19d6e:	950a                	add	a0,a0,sp
   19d70:	7ff10593          	addi	a1,sp,2047
   19d74:	65758593          	addi	a1,a1,1623
   19d78:	ffff9097          	auipc	ra,0xffff9
   19d7c:	77e080e7          	jalr	1918(ra) # 134f6 <_ZN18complex_no_dynamic3app17h677aac36fc04709eE>
   19d80:	39894503          	lbu	a0,920(s2)
   19d84:	60051de3          	bnez	a0,1ab9e <_start+0x3c06>
   19d88:	39a94503          	lbu	a0,922(s2)
   19d8c:	39994583          	lbu	a1,921(s2)
   19d90:	39b94603          	lbu	a2,923(s2)
   19d94:	39c92483          	lw	s1,924(s2)
   19d98:	0522                	slli	a0,a0,0x8
   19d9a:	8d4d                	or	a0,a0,a1
   19d9c:	6ea41223          	sh	a0,1764(s0)
   19da0:	6ec40323          	sb	a2,1766(s0)
   19da4:	6505                	lui	a0,0x1
   19da6:	35450513          	addi	a0,a0,852 # 1354 <.Lline_table_start1+0x1129>
   19daa:	00a105b3          	add	a1,sp,a0
   19dae:	6505                	lui	a0,0x1
   19db0:	2f050513          	addi	a0,a0,752 # 12f0 <.Lline_table_start1+0x10c5>
   19db4:	950a                	add	a0,a0,sp
   19db6:	4645                	li	a2,17
   19db8:	00001097          	auipc	ra,0x1
   19dbc:	e5e080e7          	jalr	-418(ra) # 1ac16 <memcpy>
   19dc0:	0184d513          	srli	a0,s1,0x18
   19dc4:	0104d593          	srli	a1,s1,0x10
   19dc8:	0084d613          	srli	a2,s1,0x8
   19dcc:	6e9403a3          	sb	s1,1767(s0)
   19dd0:	6ec40423          	sb	a2,1768(s0)
   19dd4:	6eb404a3          	sb	a1,1769(s0)
   19dd8:	6ea40523          	sb	a0,1770(s0)
   19ddc:	7ff10513          	addi	a0,sp,2047
   19de0:	6a050513          	addi	a0,a0,1696
   19de4:	6585                	lui	a1,0x1
   19de6:	2f058593          	addi	a1,a1,752 # 12f0 <.Lline_table_start1+0x10c5>
   19dea:	958a                	add	a1,a1,sp
   19dec:	4645                	li	a2,17
   19dee:	00001097          	auipc	ra,0x1
   19df2:	e28080e7          	jalr	-472(ra) # 1ac16 <memcpy>
   19df6:	6505                	lui	a0,0x1
   19df8:	34c50513          	addi	a0,a0,844 # 134c <.Lline_table_start1+0x1121>
   19dfc:	950a                	add	a0,a0,sp
   19dfe:	7ff10593          	addi	a1,sp,2047
   19e02:	69958593          	addi	a1,a1,1689
   19e06:	ffffc097          	auipc	ra,0xffffc
   19e0a:	1aa080e7          	jalr	426(ra) # 15fb0 <_ZN18complex_no_dynamic3app17hc8e5a686c8414377E>
   19e0e:	39894503          	lbu	a0,920(s2)
   19e12:	580516e3          	bnez	a0,1ab9e <_start+0x3c06>
   19e16:	39a94503          	lbu	a0,922(s2)
   19e1a:	39994583          	lbu	a1,921(s2)
   19e1e:	39b94603          	lbu	a2,923(s2)
   19e22:	39c92483          	lw	s1,924(s2)
   19e26:	0522                	slli	a0,a0,0x8
   19e28:	8d4d                	or	a0,a0,a1
   19e2a:	6ea41e23          	sh	a0,1788(s0)
   19e2e:	6ec40f23          	sb	a2,1790(s0)
   19e32:	6505                	lui	a0,0x1
   19e34:	35450513          	addi	a0,a0,852 # 1354 <.Lline_table_start1+0x1129>
   19e38:	00a105b3          	add	a1,sp,a0
   19e3c:	6505                	lui	a0,0x1
   19e3e:	2f050513          	addi	a0,a0,752 # 12f0 <.Lline_table_start1+0x10c5>
   19e42:	950a                	add	a0,a0,sp
   19e44:	465d                	li	a2,23
   19e46:	00001097          	auipc	ra,0x1
   19e4a:	dd0080e7          	jalr	-560(ra) # 1ac16 <memcpy>
   19e4e:	0184d513          	srli	a0,s1,0x18
   19e52:	0104d593          	srli	a1,s1,0x10
   19e56:	0084d613          	srli	a2,s1,0x8
   19e5a:	6e940fa3          	sb	s1,1791(s0)
   19e5e:	70c40023          	sb	a2,1792(s0)
   19e62:	70b400a3          	sb	a1,1793(s0)
   19e66:	70a40123          	sb	a0,1794(s0)
   19e6a:	7ff10513          	addi	a0,sp,2047
   19e6e:	6b850513          	addi	a0,a0,1720
   19e72:	6585                	lui	a1,0x1
   19e74:	2f058593          	addi	a1,a1,752 # 12f0 <.Lline_table_start1+0x10c5>
   19e78:	958a                	add	a1,a1,sp
   19e7a:	465d                	li	a2,23
   19e7c:	00001097          	auipc	ra,0x1
   19e80:	d9a080e7          	jalr	-614(ra) # 1ac16 <memcpy>
   19e84:	6505                	lui	a0,0x1
   19e86:	34c50513          	addi	a0,a0,844 # 134c <.Lline_table_start1+0x1121>
   19e8a:	950a                	add	a0,a0,sp
   19e8c:	7ff10593          	addi	a1,sp,2047
   19e90:	6b158593          	addi	a1,a1,1713
   19e94:	ffffb097          	auipc	ra,0xffffb
   19e98:	738080e7          	jalr	1848(ra) # 155cc <_ZN18complex_no_dynamic3app17haff89b87b9244897E>
   19e9c:	39894503          	lbu	a0,920(s2)
   19ea0:	4e051fe3          	bnez	a0,1ab9e <_start+0x3c06>
   19ea4:	39a94503          	lbu	a0,922(s2)
   19ea8:	39994583          	lbu	a1,921(s2)
   19eac:	39b94603          	lbu	a2,923(s2)
   19eb0:	39c92483          	lw	s1,924(s2)
   19eb4:	0522                	slli	a0,a0,0x8
   19eb6:	8d4d                	or	a0,a0,a1
   19eb8:	70a41d23          	sh	a0,1818(s0)
   19ebc:	70c40e23          	sb	a2,1820(s0)
   19ec0:	6505                	lui	a0,0x1
   19ec2:	35450513          	addi	a0,a0,852 # 1354 <.Lline_table_start1+0x1129>
   19ec6:	00a105b3          	add	a1,sp,a0
   19eca:	6505                	lui	a0,0x1
   19ecc:	2f050513          	addi	a0,a0,752 # 12f0 <.Lline_table_start1+0x10c5>
   19ed0:	950a                	add	a0,a0,sp
   19ed2:	03500613          	li	a2,53
   19ed6:	00001097          	auipc	ra,0x1
   19eda:	d40080e7          	jalr	-704(ra) # 1ac16 <memcpy>
   19ede:	0184d513          	srli	a0,s1,0x18
   19ee2:	0104d593          	srli	a1,s1,0x10
   19ee6:	0084d613          	srli	a2,s1,0x8
   19eea:	70940ea3          	sb	s1,1821(s0)
   19eee:	70c40f23          	sb	a2,1822(s0)
   19ef2:	70b40fa3          	sb	a1,1823(s0)
   19ef6:	72a40023          	sb	a0,1824(s0)
   19efa:	7ff10513          	addi	a0,sp,2047
   19efe:	6d650513          	addi	a0,a0,1750
   19f02:	6585                	lui	a1,0x1
   19f04:	2f058593          	addi	a1,a1,752 # 12f0 <.Lline_table_start1+0x10c5>
   19f08:	958a                	add	a1,a1,sp
   19f0a:	03500613          	li	a2,53
   19f0e:	00001097          	auipc	ra,0x1
   19f12:	d08080e7          	jalr	-760(ra) # 1ac16 <memcpy>
   19f16:	6505                	lui	a0,0x1
   19f18:	34c50513          	addi	a0,a0,844 # 134c <.Lline_table_start1+0x1121>
   19f1c:	950a                	add	a0,a0,sp
   19f1e:	7ff10593          	addi	a1,sp,2047
   19f22:	6cf58593          	addi	a1,a1,1743
   19f26:	ffffb097          	auipc	ra,0xffffb
   19f2a:	0c8080e7          	jalr	200(ra) # 14fee <_ZN18complex_no_dynamic3app17h9c14383bf262fff6E>
   19f2e:	39894503          	lbu	a0,920(s2)
   19f32:	460516e3          	bnez	a0,1ab9e <_start+0x3c06>
   19f36:	39a94503          	lbu	a0,922(s2)
   19f3a:	39994583          	lbu	a1,921(s2)
   19f3e:	39b94603          	lbu	a2,923(s2)
   19f42:	39c92483          	lw	s1,924(s2)
   19f46:	0522                	slli	a0,a0,0x8
   19f48:	8d4d                	or	a0,a0,a1
   19f4a:	74a41b23          	sh	a0,1878(s0)
   19f4e:	74c40c23          	sb	a2,1880(s0)
   19f52:	6505                	lui	a0,0x1
   19f54:	35450513          	addi	a0,a0,852 # 1354 <.Lline_table_start1+0x1129>
   19f58:	00a105b3          	add	a1,sp,a0
   19f5c:	6505                	lui	a0,0x1
   19f5e:	2f050513          	addi	a0,a0,752 # 12f0 <.Lline_table_start1+0x10c5>
   19f62:	950a                	add	a0,a0,sp
   19f64:	02500613          	li	a2,37
   19f68:	00001097          	auipc	ra,0x1
   19f6c:	cae080e7          	jalr	-850(ra) # 1ac16 <memcpy>
   19f70:	0184d513          	srli	a0,s1,0x18
   19f74:	0104d593          	srli	a1,s1,0x10
   19f78:	0084d613          	srli	a2,s1,0x8
   19f7c:	74940ca3          	sb	s1,1881(s0)
   19f80:	74c40d23          	sb	a2,1882(s0)
   19f84:	74b40da3          	sb	a1,1883(s0)
   19f88:	74a40e23          	sb	a0,1884(s0)
   19f8c:	7ff10513          	addi	a0,sp,2047
   19f90:	71250513          	addi	a0,a0,1810
   19f94:	6585                	lui	a1,0x1
   19f96:	2f058593          	addi	a1,a1,752 # 12f0 <.Lline_table_start1+0x10c5>
   19f9a:	958a                	add	a1,a1,sp
   19f9c:	02500613          	li	a2,37
   19fa0:	00001097          	auipc	ra,0x1
   19fa4:	c76080e7          	jalr	-906(ra) # 1ac16 <memcpy>
   19fa8:	6505                	lui	a0,0x1
   19faa:	34c50513          	addi	a0,a0,844 # 134c <.Lline_table_start1+0x1121>
   19fae:	950a                	add	a0,a0,sp
   19fb0:	7ff10593          	addi	a1,sp,2047
   19fb4:	70b58593          	addi	a1,a1,1803
   19fb8:	ffff8097          	auipc	ra,0xffff8
   19fbc:	86e080e7          	jalr	-1938(ra) # 11826 <_ZN18complex_no_dynamic3app17h1d1a29e491944c11E>
   19fc0:	39894503          	lbu	a0,920(s2)
   19fc4:	3c051de3          	bnez	a0,1ab9e <_start+0x3c06>
   19fc8:	39a94503          	lbu	a0,922(s2)
   19fcc:	39994583          	lbu	a1,921(s2)
   19fd0:	39b94603          	lbu	a2,923(s2)
   19fd4:	39c92483          	lw	s1,924(s2)
   19fd8:	0522                	slli	a0,a0,0x8
   19fda:	8d4d                	or	a0,a0,a1
   19fdc:	78a41123          	sh	a0,1922(s0)
   19fe0:	78c40223          	sb	a2,1924(s0)
   19fe4:	6505                	lui	a0,0x1
   19fe6:	35450513          	addi	a0,a0,852 # 1354 <.Lline_table_start1+0x1129>
   19fea:	00a105b3          	add	a1,sp,a0
   19fee:	6505                	lui	a0,0x1
   19ff0:	2f050513          	addi	a0,a0,752 # 12f0 <.Lline_table_start1+0x10c5>
   19ff4:	950a                	add	a0,a0,sp
   19ff6:	02000613          	li	a2,32
   19ffa:	00001097          	auipc	ra,0x1
   19ffe:	c1c080e7          	jalr	-996(ra) # 1ac16 <memcpy>
   1a002:	0184d513          	srli	a0,s1,0x18
   1a006:	0104d593          	srli	a1,s1,0x10
   1a00a:	0084d613          	srli	a2,s1,0x8
   1a00e:	789402a3          	sb	s1,1925(s0)
   1a012:	78c40323          	sb	a2,1926(s0)
   1a016:	78b403a3          	sb	a1,1927(s0)
   1a01a:	78a40423          	sb	a0,1928(s0)
   1a01e:	7ff10513          	addi	a0,sp,2047
   1a022:	73e50513          	addi	a0,a0,1854
   1a026:	6585                	lui	a1,0x1
   1a028:	2f058593          	addi	a1,a1,752 # 12f0 <.Lline_table_start1+0x10c5>
   1a02c:	958a                	add	a1,a1,sp
   1a02e:	02000613          	li	a2,32
   1a032:	00001097          	auipc	ra,0x1
   1a036:	be4080e7          	jalr	-1052(ra) # 1ac16 <memcpy>
   1a03a:	6505                	lui	a0,0x1
   1a03c:	34c50513          	addi	a0,a0,844 # 134c <.Lline_table_start1+0x1121>
   1a040:	950a                	add	a0,a0,sp
   1a042:	7ff10593          	addi	a1,sp,2047
   1a046:	73758593          	addi	a1,a1,1847
   1a04a:	ffffc097          	auipc	ra,0xffffc
   1a04e:	160080e7          	jalr	352(ra) # 161aa <_ZN18complex_no_dynamic3app17hcd76aebf00aa0341E>
   1a052:	39894503          	lbu	a0,920(s2)
   1a056:	340514e3          	bnez	a0,1ab9e <_start+0x3c06>
   1a05a:	39a94503          	lbu	a0,922(s2)
   1a05e:	39994583          	lbu	a1,921(s2)
   1a062:	39b94603          	lbu	a2,923(s2)
   1a066:	39c92483          	lw	s1,924(s2)
   1a06a:	0522                	slli	a0,a0,0x8
   1a06c:	8d4d                	or	a0,a0,a1
   1a06e:	7aa41523          	sh	a0,1962(s0)
   1a072:	7ac40623          	sb	a2,1964(s0)
   1a076:	6505                	lui	a0,0x1
   1a078:	35450513          	addi	a0,a0,852 # 1354 <.Lline_table_start1+0x1129>
   1a07c:	00a105b3          	add	a1,sp,a0
   1a080:	6505                	lui	a0,0x1
   1a082:	2f050513          	addi	a0,a0,752 # 12f0 <.Lline_table_start1+0x10c5>
   1a086:	950a                	add	a0,a0,sp
   1a088:	04800613          	li	a2,72
   1a08c:	00001097          	auipc	ra,0x1
   1a090:	b8a080e7          	jalr	-1142(ra) # 1ac16 <memcpy>
   1a094:	0184d513          	srli	a0,s1,0x18
   1a098:	0104d593          	srli	a1,s1,0x10
   1a09c:	0084d613          	srli	a2,s1,0x8
   1a0a0:	7a9406a3          	sb	s1,1965(s0)
   1a0a4:	7ac40723          	sb	a2,1966(s0)
   1a0a8:	7ab407a3          	sb	a1,1967(s0)
   1a0ac:	7aa40823          	sb	a0,1968(s0)
   1a0b0:	7ff10513          	addi	a0,sp,2047
   1a0b4:	76650513          	addi	a0,a0,1894
   1a0b8:	6585                	lui	a1,0x1
   1a0ba:	2f058593          	addi	a1,a1,752 # 12f0 <.Lline_table_start1+0x10c5>
   1a0be:	958a                	add	a1,a1,sp
   1a0c0:	04800613          	li	a2,72
   1a0c4:	00001097          	auipc	ra,0x1
   1a0c8:	b52080e7          	jalr	-1198(ra) # 1ac16 <memcpy>
   1a0cc:	6505                	lui	a0,0x1
   1a0ce:	34c50513          	addi	a0,a0,844 # 134c <.Lline_table_start1+0x1121>
   1a0d2:	950a                	add	a0,a0,sp
   1a0d4:	7ff10593          	addi	a1,sp,2047
   1a0d8:	75f58593          	addi	a1,a1,1887
   1a0dc:	ffffc097          	auipc	ra,0xffffc
   1a0e0:	8dc080e7          	jalr	-1828(ra) # 159b8 <_ZN18complex_no_dynamic3app17hbc9f9cb8ad78fbc9E>
   1a0e4:	39894503          	lbu	a0,920(s2)
   1a0e8:	2a051be3          	bnez	a0,1ab9e <_start+0x3c06>
   1a0ec:	39a94503          	lbu	a0,922(s2)
   1a0f0:	39994583          	lbu	a1,921(s2)
   1a0f4:	39b94603          	lbu	a2,923(s2)
   1a0f8:	39c92483          	lw	s1,924(s2)
   1a0fc:	0522                	slli	a0,a0,0x8
   1a0fe:	8d4d                	or	a0,a0,a1
   1a100:	7ea41d23          	sh	a0,2042(s0)
   1a104:	7ec40e23          	sb	a2,2044(s0)
   1a108:	6505                	lui	a0,0x1
   1a10a:	35450513          	addi	a0,a0,852 # 1354 <.Lline_table_start1+0x1129>
   1a10e:	00a105b3          	add	a1,sp,a0
   1a112:	6505                	lui	a0,0x1
   1a114:	2f050513          	addi	a0,a0,752 # 12f0 <.Lline_table_start1+0x10c5>
   1a118:	950a                	add	a0,a0,sp
   1a11a:	02e00613          	li	a2,46
   1a11e:	00001097          	auipc	ra,0x1
   1a122:	af8080e7          	jalr	-1288(ra) # 1ac16 <memcpy>
   1a126:	0184d513          	srli	a0,s1,0x18
   1a12a:	0104d593          	srli	a1,s1,0x10
   1a12e:	0084d613          	srli	a2,s1,0x8
   1a132:	fe990ea3          	sb	s1,-3(s2)
   1a136:	fec90f23          	sb	a2,-2(s2)
   1a13a:	feb90fa3          	sb	a1,-1(s2)
   1a13e:	00a90023          	sb	a0,0(s2)
   1a142:	7ff10513          	addi	a0,sp,2047
   1a146:	7b650513          	addi	a0,a0,1974
   1a14a:	6585                	lui	a1,0x1
   1a14c:	2f058593          	addi	a1,a1,752 # 12f0 <.Lline_table_start1+0x10c5>
   1a150:	958a                	add	a1,a1,sp
   1a152:	02e00613          	li	a2,46
   1a156:	00001097          	auipc	ra,0x1
   1a15a:	ac0080e7          	jalr	-1344(ra) # 1ac16 <memcpy>
   1a15e:	6505                	lui	a0,0x1
   1a160:	34c50513          	addi	a0,a0,844 # 134c <.Lline_table_start1+0x1121>
   1a164:	950a                	add	a0,a0,sp
   1a166:	7ff10593          	addi	a1,sp,2047
   1a16a:	7af58593          	addi	a1,a1,1967
   1a16e:	ffff8097          	auipc	ra,0xffff8
   1a172:	0aa080e7          	jalr	170(ra) # 12218 <_ZN18complex_no_dynamic3app17h3afc2bc8be8b405bE>
   1a176:	39894503          	lbu	a0,920(s2)
   1a17a:	220512e3          	bnez	a0,1ab9e <_start+0x3c06>
   1a17e:	39a94503          	lbu	a0,922(s2)
   1a182:	39994583          	lbu	a1,921(s2)
   1a186:	39b94603          	lbu	a2,923(s2)
   1a18a:	39c92403          	lw	s0,924(s2)
   1a18e:	0522                	slli	a0,a0,0x8
   1a190:	8d4d                	or	a0,a0,a1
   1a192:	02a91823          	sh	a0,48(s2)
   1a196:	02c90923          	sb	a2,50(s2)
   1a19a:	6505                	lui	a0,0x1
   1a19c:	35450513          	addi	a0,a0,852 # 1354 <.Lline_table_start1+0x1129>
   1a1a0:	00a105b3          	add	a1,sp,a0
   1a1a4:	6505                	lui	a0,0x1
   1a1a6:	2f050513          	addi	a0,a0,752 # 12f0 <.Lline_table_start1+0x10c5>
   1a1aa:	950a                	add	a0,a0,sp
   1a1ac:	03800613          	li	a2,56
   1a1b0:	00001097          	auipc	ra,0x1
   1a1b4:	a66080e7          	jalr	-1434(ra) # 1ac16 <memcpy>
   1a1b8:	01845513          	srli	a0,s0,0x18
   1a1bc:	01045593          	srli	a1,s0,0x10
   1a1c0:	00845613          	srli	a2,s0,0x8
   1a1c4:	028909a3          	sb	s0,51(s2)
   1a1c8:	02c90a23          	sb	a2,52(s2)
   1a1cc:	02b90aa3          	sb	a1,53(s2)
   1a1d0:	02a90b23          	sb	a0,54(s2)
   1a1d4:	7ff10513          	addi	a0,sp,2047
   1a1d8:	7ec50513          	addi	a0,a0,2028
   1a1dc:	6585                	lui	a1,0x1
   1a1de:	2f058593          	addi	a1,a1,752 # 12f0 <.Lline_table_start1+0x10c5>
   1a1e2:	958a                	add	a1,a1,sp
   1a1e4:	03800613          	li	a2,56
   1a1e8:	00001097          	auipc	ra,0x1
   1a1ec:	a2e080e7          	jalr	-1490(ra) # 1ac16 <memcpy>
   1a1f0:	6505                	lui	a0,0x1
   1a1f2:	34c50513          	addi	a0,a0,844 # 134c <.Lline_table_start1+0x1121>
   1a1f6:	950a                	add	a0,a0,sp
   1a1f8:	7ff10593          	addi	a1,sp,2047
   1a1fc:	7e558593          	addi	a1,a1,2021
   1a200:	ffff8097          	auipc	ra,0xffff8
   1a204:	508080e7          	jalr	1288(ra) # 12708 <_ZN18complex_no_dynamic3app17h43d746b89937a694E>
   1a208:	39894503          	lbu	a0,920(s2)
   1a20c:	180519e3          	bnez	a0,1ab9e <_start+0x3c06>
   1a210:	39994503          	lbu	a0,921(s2)
   1a214:	39a94583          	lbu	a1,922(s2)
   1a218:	39b94603          	lbu	a2,923(s2)
   1a21c:	39c92683          	lw	a3,924(s2)
   1a220:	3a092703          	lw	a4,928(s2)
   1a224:	3a492783          	lw	a5,932(s2)
   1a228:	3a891483          	lh	s1,936(s2)
   1a22c:	05a2                	slli	a1,a1,0x8
   1a22e:	32e92e23          	sw	a4,828(s2)
   1a232:	34f92023          	sw	a5,832(s2)
   1a236:	34991223          	sh	s1,836(s2)
   1a23a:	0186d713          	srli	a4,a3,0x18
   1a23e:	8d4d                	or	a0,a0,a1
   1a240:	0106d593          	srli	a1,a3,0x10
   1a244:	06b90aa3          	sb	a1,117(s2)
   1a248:	06e90b23          	sb	a4,118(s2)
   1a24c:	0086d593          	srli	a1,a3,0x8
   1a250:	06a91823          	sh	a0,112(s2)
   1a254:	06c90923          	sb	a2,114(s2)
   1a258:	06d909a3          	sb	a3,115(s2)
   1a25c:	06b90a23          	sb	a1,116(s2)
   1a260:	6505                	lui	a0,0x1
   1a262:	02b50513          	addi	a0,a0,43 # 102b <.Lline_table_start1+0xe00>
   1a266:	950a                	add	a0,a0,sp
   1a268:	6585                	lui	a1,0x1
   1a26a:	2f058593          	addi	a1,a1,752 # 12f0 <.Lline_table_start1+0x10c5>
   1a26e:	958a                	add	a1,a1,sp
   1a270:	4629                	li	a2,10
   1a272:	00001097          	auipc	ra,0x1
   1a276:	9a4080e7          	jalr	-1628(ra) # 1ac16 <memcpy>
   1a27a:	6505                	lui	a0,0x1
   1a27c:	34c50513          	addi	a0,a0,844 # 134c <.Lline_table_start1+0x1121>
   1a280:	950a                	add	a0,a0,sp
   1a282:	6585                	lui	a1,0x1
   1a284:	02458593          	addi	a1,a1,36 # 1024 <.Lline_table_start1+0xdf9>
   1a288:	958a                	add	a1,a1,sp
   1a28a:	ffff8097          	auipc	ra,0xffff8
   1a28e:	08c080e7          	jalr	140(ra) # 12316 <_ZN18complex_no_dynamic3app17h3b9810a4da66c51cE>
   1a292:	39894503          	lbu	a0,920(s2)
   1a296:	100514e3          	bnez	a0,1ab9e <_start+0x3c06>
   1a29a:	39a94503          	lbu	a0,922(s2)
   1a29e:	39994583          	lbu	a1,921(s2)
   1a2a2:	39b94603          	lbu	a2,923(s2)
   1a2a6:	39c92403          	lw	s0,924(s2)
   1a2aa:	0522                	slli	a0,a0,0x8
   1a2ac:	8d4d                	or	a0,a0,a1
   1a2ae:	08a91123          	sh	a0,130(s2)
   1a2b2:	08c90223          	sb	a2,132(s2)
   1a2b6:	6505                	lui	a0,0x1
   1a2b8:	35450513          	addi	a0,a0,852 # 1354 <.Lline_table_start1+0x1129>
   1a2bc:	00a105b3          	add	a1,sp,a0
   1a2c0:	6505                	lui	a0,0x1
   1a2c2:	2f050513          	addi	a0,a0,752 # 12f0 <.Lline_table_start1+0x10c5>
   1a2c6:	950a                	add	a0,a0,sp
   1a2c8:	03800613          	li	a2,56
   1a2cc:	00001097          	auipc	ra,0x1
   1a2d0:	94a080e7          	jalr	-1718(ra) # 1ac16 <memcpy>
   1a2d4:	01845513          	srli	a0,s0,0x18
   1a2d8:	01045593          	srli	a1,s0,0x10
   1a2dc:	00845613          	srli	a2,s0,0x8
   1a2e0:	088902a3          	sb	s0,133(s2)
   1a2e4:	08c90323          	sb	a2,134(s2)
   1a2e8:	08b903a3          	sb	a1,135(s2)
   1a2ec:	08a90423          	sb	a0,136(s2)
   1a2f0:	6505                	lui	a0,0x1
   1a2f2:	03d50513          	addi	a0,a0,61 # 103d <.Lline_table_start1+0xe12>
   1a2f6:	950a                	add	a0,a0,sp
   1a2f8:	6585                	lui	a1,0x1
   1a2fa:	2f058593          	addi	a1,a1,752 # 12f0 <.Lline_table_start1+0x10c5>
   1a2fe:	958a                	add	a1,a1,sp
   1a300:	03800613          	li	a2,56
   1a304:	00001097          	auipc	ra,0x1
   1a308:	912080e7          	jalr	-1774(ra) # 1ac16 <memcpy>
   1a30c:	6505                	lui	a0,0x1
   1a30e:	34c50513          	addi	a0,a0,844 # 134c <.Lline_table_start1+0x1121>
   1a312:	950a                	add	a0,a0,sp
   1a314:	6585                	lui	a1,0x1
   1a316:	03658593          	addi	a1,a1,54 # 1036 <.Lline_table_start1+0xe0b>
   1a31a:	958a                	add	a1,a1,sp
   1a31c:	ffffa097          	auipc	ra,0xffffa
   1a320:	d28080e7          	jalr	-728(ra) # 14044 <_ZN18complex_no_dynamic3app17h7a0339b5c5695392E>
   1a324:	39894503          	lbu	a0,920(s2)
   1a328:	06051be3          	bnez	a0,1ab9e <_start+0x3c06>
   1a32c:	39a94503          	lbu	a0,922(s2)
   1a330:	39994583          	lbu	a1,921(s2)
   1a334:	39b94603          	lbu	a2,923(s2)
   1a338:	39c92403          	lw	s0,924(s2)
   1a33c:	0522                	slli	a0,a0,0x8
   1a33e:	8d4d                	or	a0,a0,a1
   1a340:	0ca91123          	sh	a0,194(s2)
   1a344:	0cc90223          	sb	a2,196(s2)
   1a348:	6505                	lui	a0,0x1
   1a34a:	35450513          	addi	a0,a0,852 # 1354 <.Lline_table_start1+0x1129>
   1a34e:	00a105b3          	add	a1,sp,a0
   1a352:	6505                	lui	a0,0x1
   1a354:	2f050513          	addi	a0,a0,752 # 12f0 <.Lline_table_start1+0x10c5>
   1a358:	950a                	add	a0,a0,sp
   1a35a:	4655                	li	a2,21
   1a35c:	00001097          	auipc	ra,0x1
   1a360:	8ba080e7          	jalr	-1862(ra) # 1ac16 <memcpy>
   1a364:	01845513          	srli	a0,s0,0x18
   1a368:	01045593          	srli	a1,s0,0x10
   1a36c:	00845613          	srli	a2,s0,0x8
   1a370:	0c8902a3          	sb	s0,197(s2)
   1a374:	0cc90323          	sb	a2,198(s2)
   1a378:	0cb903a3          	sb	a1,199(s2)
   1a37c:	0ca90423          	sb	a0,200(s2)
   1a380:	6505                	lui	a0,0x1
   1a382:	07d50513          	addi	a0,a0,125 # 107d <.Lline_table_start1+0xe52>
   1a386:	950a                	add	a0,a0,sp
   1a388:	6585                	lui	a1,0x1
   1a38a:	2f058593          	addi	a1,a1,752 # 12f0 <.Lline_table_start1+0x10c5>
   1a38e:	958a                	add	a1,a1,sp
   1a390:	4655                	li	a2,21
   1a392:	00001097          	auipc	ra,0x1
   1a396:	884080e7          	jalr	-1916(ra) # 1ac16 <memcpy>
   1a39a:	6505                	lui	a0,0x1
   1a39c:	34c50513          	addi	a0,a0,844 # 134c <.Lline_table_start1+0x1121>
   1a3a0:	950a                	add	a0,a0,sp
   1a3a2:	6585                	lui	a1,0x1
   1a3a4:	07658593          	addi	a1,a1,118 # 1076 <.Lline_table_start1+0xe4b>
   1a3a8:	958a                	add	a1,a1,sp
   1a3aa:	ffffb097          	auipc	ra,0xffffb
   1a3ae:	a40080e7          	jalr	-1472(ra) # 14dea <_ZN18complex_no_dynamic3app17h986cd9bf7d0c1c17E>
   1a3b2:	39894503          	lbu	a0,920(s2)
   1a3b6:	7e051463          	bnez	a0,1ab9e <_start+0x3c06>
   1a3ba:	39a94503          	lbu	a0,922(s2)
   1a3be:	39994583          	lbu	a1,921(s2)
   1a3c2:	39b94603          	lbu	a2,923(s2)
   1a3c6:	39c92403          	lw	s0,924(s2)
   1a3ca:	0522                	slli	a0,a0,0x8
   1a3cc:	8d4d                	or	a0,a0,a1
   1a3ce:	0ca91f23          	sh	a0,222(s2)
   1a3d2:	0ec90023          	sb	a2,224(s2)
   1a3d6:	6505                	lui	a0,0x1
   1a3d8:	35450513          	addi	a0,a0,852 # 1354 <.Lline_table_start1+0x1129>
   1a3dc:	00a105b3          	add	a1,sp,a0
   1a3e0:	6505                	lui	a0,0x1
   1a3e2:	2f050513          	addi	a0,a0,752 # 12f0 <.Lline_table_start1+0x10c5>
   1a3e6:	950a                	add	a0,a0,sp
   1a3e8:	05600613          	li	a2,86
   1a3ec:	00001097          	auipc	ra,0x1
   1a3f0:	82a080e7          	jalr	-2006(ra) # 1ac16 <memcpy>
   1a3f4:	01845513          	srli	a0,s0,0x18
   1a3f8:	01045593          	srli	a1,s0,0x10
   1a3fc:	00845613          	srli	a2,s0,0x8
   1a400:	0e8900a3          	sb	s0,225(s2)
   1a404:	0ec90123          	sb	a2,226(s2)
   1a408:	0eb901a3          	sb	a1,227(s2)
   1a40c:	0ea90223          	sb	a0,228(s2)
   1a410:	6505                	lui	a0,0x1
   1a412:	09950513          	addi	a0,a0,153 # 1099 <.Lline_table_start1+0xe6e>
   1a416:	950a                	add	a0,a0,sp
   1a418:	6585                	lui	a1,0x1
   1a41a:	2f058593          	addi	a1,a1,752 # 12f0 <.Lline_table_start1+0x10c5>
   1a41e:	958a                	add	a1,a1,sp
   1a420:	05600613          	li	a2,86
   1a424:	00000097          	auipc	ra,0x0
   1a428:	7f2080e7          	jalr	2034(ra) # 1ac16 <memcpy>
   1a42c:	6505                	lui	a0,0x1
   1a42e:	34c50513          	addi	a0,a0,844 # 134c <.Lline_table_start1+0x1121>
   1a432:	950a                	add	a0,a0,sp
   1a434:	6585                	lui	a1,0x1
   1a436:	09258593          	addi	a1,a1,146 # 1092 <.Lline_table_start1+0xe67>
   1a43a:	958a                	add	a1,a1,sp
   1a43c:	ffffc097          	auipc	ra,0xffffc
   1a440:	e72080e7          	jalr	-398(ra) # 162ae <_ZN18complex_no_dynamic3app17hd17d5ca9bd845388E>
   1a444:	39894503          	lbu	a0,920(s2)
   1a448:	74051b63          	bnez	a0,1ab9e <_start+0x3c06>
   1a44c:	39994503          	lbu	a0,921(s2)
   1a450:	39a94583          	lbu	a1,922(s2)
   1a454:	39b94603          	lbu	a2,923(s2)
   1a458:	39c92683          	lw	a3,924(s2)
   1a45c:	3a092703          	lw	a4,928(s2)
   1a460:	3a492783          	lw	a5,932(s2)
   1a464:	3a891483          	lh	s1,936(s2)
   1a468:	3aa94403          	lbu	s0,938(s2)
   1a46c:	05a2                	slli	a1,a1,0x8
   1a46e:	32e92e23          	sw	a4,828(s2)
   1a472:	34f92023          	sw	a5,832(s2)
   1a476:	34991223          	sh	s1,836(s2)
   1a47a:	34890323          	sb	s0,838(s2)
   1a47e:	0186d713          	srli	a4,a3,0x18
   1a482:	8d4d                	or	a0,a0,a1
   1a484:	0106d593          	srli	a1,a3,0x10
   1a488:	14b900a3          	sb	a1,321(s2)
   1a48c:	14e90123          	sb	a4,322(s2)
   1a490:	0086d593          	srli	a1,a3,0x8
   1a494:	12a91e23          	sh	a0,316(s2)
   1a498:	12c90f23          	sb	a2,318(s2)
   1a49c:	12d90fa3          	sb	a3,319(s2)
   1a4a0:	14b90023          	sb	a1,320(s2)
   1a4a4:	6505                	lui	a0,0x1
   1a4a6:	0f750513          	addi	a0,a0,247 # 10f7 <.Lline_table_start1+0xecc>
   1a4aa:	950a                	add	a0,a0,sp
   1a4ac:	6585                	lui	a1,0x1
   1a4ae:	2f058593          	addi	a1,a1,752 # 12f0 <.Lline_table_start1+0x10c5>
   1a4b2:	958a                	add	a1,a1,sp
   1a4b4:	462d                	li	a2,11
   1a4b6:	00000097          	auipc	ra,0x0
   1a4ba:	760080e7          	jalr	1888(ra) # 1ac16 <memcpy>
   1a4be:	6505                	lui	a0,0x1
   1a4c0:	34c50513          	addi	a0,a0,844 # 134c <.Lline_table_start1+0x1121>
   1a4c4:	950a                	add	a0,a0,sp
   1a4c6:	6585                	lui	a1,0x1
   1a4c8:	0f058593          	addi	a1,a1,240 # 10f0 <.Lline_table_start1+0xec5>
   1a4cc:	958a                	add	a1,a1,sp
   1a4ce:	ffffa097          	auipc	ra,0xffffa
   1a4d2:	526080e7          	jalr	1318(ra) # 149f4 <_ZN18complex_no_dynamic3app17h93cfdb0c64012212E>
   1a4d6:	39894503          	lbu	a0,920(s2)
   1a4da:	6c051263          	bnez	a0,1ab9e <_start+0x3c06>
   1a4de:	39a94503          	lbu	a0,922(s2)
   1a4e2:	39994583          	lbu	a1,921(s2)
   1a4e6:	39b94603          	lbu	a2,923(s2)
   1a4ea:	39c92403          	lw	s0,924(s2)
   1a4ee:	0522                	slli	a0,a0,0x8
   1a4f0:	8d4d                	or	a0,a0,a1
   1a4f2:	14a91723          	sh	a0,334(s2)
   1a4f6:	14c90823          	sb	a2,336(s2)
   1a4fa:	6505                	lui	a0,0x1
   1a4fc:	35450513          	addi	a0,a0,852 # 1354 <.Lline_table_start1+0x1129>
   1a500:	00a105b3          	add	a1,sp,a0
   1a504:	6505                	lui	a0,0x1
   1a506:	2f050513          	addi	a0,a0,752 # 12f0 <.Lline_table_start1+0x10c5>
   1a50a:	950a                	add	a0,a0,sp
   1a50c:	03d00613          	li	a2,61
   1a510:	00000097          	auipc	ra,0x0
   1a514:	706080e7          	jalr	1798(ra) # 1ac16 <memcpy>
   1a518:	01845513          	srli	a0,s0,0x18
   1a51c:	01045593          	srli	a1,s0,0x10
   1a520:	00845613          	srli	a2,s0,0x8
   1a524:	148908a3          	sb	s0,337(s2)
   1a528:	14c90923          	sb	a2,338(s2)
   1a52c:	14b909a3          	sb	a1,339(s2)
   1a530:	14a90a23          	sb	a0,340(s2)
   1a534:	6505                	lui	a0,0x1
   1a536:	10950513          	addi	a0,a0,265 # 1109 <.Lline_table_start1+0xede>
   1a53a:	950a                	add	a0,a0,sp
   1a53c:	6585                	lui	a1,0x1
   1a53e:	2f058593          	addi	a1,a1,752 # 12f0 <.Lline_table_start1+0x10c5>
   1a542:	958a                	add	a1,a1,sp
   1a544:	03d00613          	li	a2,61
   1a548:	00000097          	auipc	ra,0x0
   1a54c:	6ce080e7          	jalr	1742(ra) # 1ac16 <memcpy>
   1a550:	6505                	lui	a0,0x1
   1a552:	34c50513          	addi	a0,a0,844 # 134c <.Lline_table_start1+0x1121>
   1a556:	950a                	add	a0,a0,sp
   1a558:	6585                	lui	a1,0x1
   1a55a:	10258593          	addi	a1,a1,258 # 1102 <.Lline_table_start1+0xed7>
   1a55e:	958a                	add	a1,a1,sp
   1a560:	ffff7097          	auipc	ra,0xffff7
   1a564:	bd4080e7          	jalr	-1068(ra) # 11134 <_ZN18complex_no_dynamic3app17h041a5cb411e44033E>
   1a568:	39894503          	lbu	a0,920(s2)
   1a56c:	62051963          	bnez	a0,1ab9e <_start+0x3c06>
   1a570:	39a94503          	lbu	a0,922(s2)
   1a574:	39994583          	lbu	a1,921(s2)
   1a578:	39b94603          	lbu	a2,923(s2)
   1a57c:	39c92403          	lw	s0,924(s2)
   1a580:	0522                	slli	a0,a0,0x8
   1a582:	8d4d                	or	a0,a0,a1
   1a584:	18a91923          	sh	a0,402(s2)
   1a588:	18c90a23          	sb	a2,404(s2)
   1a58c:	6505                	lui	a0,0x1
   1a58e:	35450513          	addi	a0,a0,852 # 1354 <.Lline_table_start1+0x1129>
   1a592:	00a105b3          	add	a1,sp,a0
   1a596:	6505                	lui	a0,0x1
   1a598:	2f050513          	addi	a0,a0,752 # 12f0 <.Lline_table_start1+0x10c5>
   1a59c:	950a                	add	a0,a0,sp
   1a59e:	4671                	li	a2,28
   1a5a0:	00000097          	auipc	ra,0x0
   1a5a4:	676080e7          	jalr	1654(ra) # 1ac16 <memcpy>
   1a5a8:	01845513          	srli	a0,s0,0x18
   1a5ac:	01045593          	srli	a1,s0,0x10
   1a5b0:	00845613          	srli	a2,s0,0x8
   1a5b4:	18890aa3          	sb	s0,405(s2)
   1a5b8:	18c90b23          	sb	a2,406(s2)
   1a5bc:	18b90ba3          	sb	a1,407(s2)
   1a5c0:	18a90c23          	sb	a0,408(s2)
   1a5c4:	6505                	lui	a0,0x1
   1a5c6:	14d50513          	addi	a0,a0,333 # 114d <.Lline_table_start1+0xf22>
   1a5ca:	950a                	add	a0,a0,sp
   1a5cc:	6585                	lui	a1,0x1
   1a5ce:	2f058593          	addi	a1,a1,752 # 12f0 <.Lline_table_start1+0x10c5>
   1a5d2:	958a                	add	a1,a1,sp
   1a5d4:	4671                	li	a2,28
   1a5d6:	00000097          	auipc	ra,0x0
   1a5da:	640080e7          	jalr	1600(ra) # 1ac16 <memcpy>
   1a5de:	6505                	lui	a0,0x1
   1a5e0:	34c50513          	addi	a0,a0,844 # 134c <.Lline_table_start1+0x1121>
   1a5e4:	950a                	add	a0,a0,sp
   1a5e6:	6585                	lui	a1,0x1
   1a5e8:	14658593          	addi	a1,a1,326 # 1146 <.Lline_table_start1+0xf1b>
   1a5ec:	958a                	add	a1,a1,sp
   1a5ee:	ffffa097          	auipc	ra,0xffffa
   1a5f2:	6fe080e7          	jalr	1790(ra) # 14cec <_ZN18complex_no_dynamic3app17h95d23148fa728fabE>
   1a5f6:	39894503          	lbu	a0,920(s2)
   1a5fa:	5a051263          	bnez	a0,1ab9e <_start+0x3c06>
   1a5fe:	39a94503          	lbu	a0,922(s2)
   1a602:	39994583          	lbu	a1,921(s2)
   1a606:	39b94603          	lbu	a2,923(s2)
   1a60a:	39c92403          	lw	s0,924(s2)
   1a60e:	0522                	slli	a0,a0,0x8
   1a610:	8d4d                	or	a0,a0,a1
   1a612:	1aa91b23          	sh	a0,438(s2)
   1a616:	1ac90c23          	sb	a2,440(s2)
   1a61a:	6505                	lui	a0,0x1
   1a61c:	35450513          	addi	a0,a0,852 # 1354 <.Lline_table_start1+0x1129>
   1a620:	00a105b3          	add	a1,sp,a0
   1a624:	6505                	lui	a0,0x1
   1a626:	2f050513          	addi	a0,a0,752 # 12f0 <.Lline_table_start1+0x10c5>
   1a62a:	950a                	add	a0,a0,sp
   1a62c:	4675                	li	a2,29
   1a62e:	00000097          	auipc	ra,0x0
   1a632:	5e8080e7          	jalr	1512(ra) # 1ac16 <memcpy>
   1a636:	01845513          	srli	a0,s0,0x18
   1a63a:	01045593          	srli	a1,s0,0x10
   1a63e:	00845613          	srli	a2,s0,0x8
   1a642:	1a890ca3          	sb	s0,441(s2)
   1a646:	1ac90d23          	sb	a2,442(s2)
   1a64a:	1ab90da3          	sb	a1,443(s2)
   1a64e:	1aa90e23          	sb	a0,444(s2)
   1a652:	6505                	lui	a0,0x1
   1a654:	17150513          	addi	a0,a0,369 # 1171 <.Lline_table_start1+0xf46>
   1a658:	950a                	add	a0,a0,sp
   1a65a:	6585                	lui	a1,0x1
   1a65c:	2f058593          	addi	a1,a1,752 # 12f0 <.Lline_table_start1+0x10c5>
   1a660:	958a                	add	a1,a1,sp
   1a662:	4675                	li	a2,29
   1a664:	00000097          	auipc	ra,0x0
   1a668:	5b2080e7          	jalr	1458(ra) # 1ac16 <memcpy>
   1a66c:	6505                	lui	a0,0x1
   1a66e:	34c50513          	addi	a0,a0,844 # 134c <.Lline_table_start1+0x1121>
   1a672:	950a                	add	a0,a0,sp
   1a674:	6585                	lui	a1,0x1
   1a676:	16a58593          	addi	a1,a1,362 # 116a <.Lline_table_start1+0xf3f>
   1a67a:	958a                	add	a1,a1,sp
   1a67c:	ffff9097          	auipc	ra,0xffff9
   1a680:	d76080e7          	jalr	-650(ra) # 133f2 <_ZN18complex_no_dynamic3app17h6579188692c92587E>
   1a684:	39894503          	lbu	a0,920(s2)
   1a688:	50051b63          	bnez	a0,1ab9e <_start+0x3c06>
   1a68c:	39a94503          	lbu	a0,922(s2)
   1a690:	39994583          	lbu	a1,921(s2)
   1a694:	39b94603          	lbu	a2,923(s2)
   1a698:	39c92403          	lw	s0,924(s2)
   1a69c:	0522                	slli	a0,a0,0x8
   1a69e:	8d4d                	or	a0,a0,a1
   1a6a0:	1ca91d23          	sh	a0,474(s2)
   1a6a4:	1cc90e23          	sb	a2,476(s2)
   1a6a8:	6505                	lui	a0,0x1
   1a6aa:	35450513          	addi	a0,a0,852 # 1354 <.Lline_table_start1+0x1129>
   1a6ae:	00a105b3          	add	a1,sp,a0
   1a6b2:	6505                	lui	a0,0x1
   1a6b4:	2f050513          	addi	a0,a0,752 # 12f0 <.Lline_table_start1+0x10c5>
   1a6b8:	950a                	add	a0,a0,sp
   1a6ba:	02800613          	li	a2,40
   1a6be:	00000097          	auipc	ra,0x0
   1a6c2:	558080e7          	jalr	1368(ra) # 1ac16 <memcpy>
   1a6c6:	01845513          	srli	a0,s0,0x18
   1a6ca:	01045593          	srli	a1,s0,0x10
   1a6ce:	00845613          	srli	a2,s0,0x8
   1a6d2:	1c890ea3          	sb	s0,477(s2)
   1a6d6:	1cc90f23          	sb	a2,478(s2)
   1a6da:	1cb90fa3          	sb	a1,479(s2)
   1a6de:	1ea90023          	sb	a0,480(s2)
   1a6e2:	6505                	lui	a0,0x1
   1a6e4:	19550513          	addi	a0,a0,405 # 1195 <.Lline_table_start1+0xf6a>
   1a6e8:	950a                	add	a0,a0,sp
   1a6ea:	6585                	lui	a1,0x1
   1a6ec:	2f058593          	addi	a1,a1,752 # 12f0 <.Lline_table_start1+0x10c5>
   1a6f0:	958a                	add	a1,a1,sp
   1a6f2:	02800613          	li	a2,40
   1a6f6:	00000097          	auipc	ra,0x0
   1a6fa:	520080e7          	jalr	1312(ra) # 1ac16 <memcpy>
   1a6fe:	6505                	lui	a0,0x1
   1a700:	34c50513          	addi	a0,a0,844 # 134c <.Lline_table_start1+0x1121>
   1a704:	950a                	add	a0,a0,sp
   1a706:	6585                	lui	a1,0x1
   1a708:	18e58593          	addi	a1,a1,398 # 118e <.Lline_table_start1+0xf63>
   1a70c:	958a                	add	a1,a1,sp
   1a70e:	ffffb097          	auipc	ra,0xffffb
   1a712:	4ae080e7          	jalr	1198(ra) # 15bbc <_ZN18complex_no_dynamic3app17hc6ae53acbe3e3ff9E>
   1a716:	39894503          	lbu	a0,920(s2)
   1a71a:	48051263          	bnez	a0,1ab9e <_start+0x3c06>
   1a71e:	39a94503          	lbu	a0,922(s2)
   1a722:	39994583          	lbu	a1,921(s2)
   1a726:	39b94603          	lbu	a2,923(s2)
   1a72a:	39c92403          	lw	s0,924(s2)
   1a72e:	0522                	slli	a0,a0,0x8
   1a730:	8d4d                	or	a0,a0,a1
   1a732:	20a91523          	sh	a0,522(s2)
   1a736:	20c90623          	sb	a2,524(s2)
   1a73a:	6505                	lui	a0,0x1
   1a73c:	35450513          	addi	a0,a0,852 # 1354 <.Lline_table_start1+0x1129>
   1a740:	00a105b3          	add	a1,sp,a0
   1a744:	6505                	lui	a0,0x1
   1a746:	2f050513          	addi	a0,a0,752 # 12f0 <.Lline_table_start1+0x10c5>
   1a74a:	950a                	add	a0,a0,sp
   1a74c:	05700613          	li	a2,87
   1a750:	00000097          	auipc	ra,0x0
   1a754:	4c6080e7          	jalr	1222(ra) # 1ac16 <memcpy>
   1a758:	01845513          	srli	a0,s0,0x18
   1a75c:	01045593          	srli	a1,s0,0x10
   1a760:	00845613          	srli	a2,s0,0x8
   1a764:	208906a3          	sb	s0,525(s2)
   1a768:	20c90723          	sb	a2,526(s2)
   1a76c:	20b907a3          	sb	a1,527(s2)
   1a770:	20a90823          	sb	a0,528(s2)
   1a774:	6505                	lui	a0,0x1
   1a776:	1c550513          	addi	a0,a0,453 # 11c5 <.Lline_table_start1+0xf9a>
   1a77a:	950a                	add	a0,a0,sp
   1a77c:	6585                	lui	a1,0x1
   1a77e:	2f058593          	addi	a1,a1,752 # 12f0 <.Lline_table_start1+0x10c5>
   1a782:	958a                	add	a1,a1,sp
   1a784:	05700613          	li	a2,87
   1a788:	00000097          	auipc	ra,0x0
   1a78c:	48e080e7          	jalr	1166(ra) # 1ac16 <memcpy>
   1a790:	6505                	lui	a0,0x1
   1a792:	34c50513          	addi	a0,a0,844 # 134c <.Lline_table_start1+0x1121>
   1a796:	950a                	add	a0,a0,sp
   1a798:	6585                	lui	a1,0x1
   1a79a:	1be58593          	addi	a1,a1,446 # 11be <.Lline_table_start1+0xf93>
   1a79e:	958a                	add	a1,a1,sp
   1a7a0:	ffff8097          	auipc	ra,0xffff8
   1a7a4:	45e080e7          	jalr	1118(ra) # 12bfe <_ZN18complex_no_dynamic3app17h529f4a93375869daE>
   1a7a8:	39894503          	lbu	a0,920(s2)
   1a7ac:	3e051963          	bnez	a0,1ab9e <_start+0x3c06>
   1a7b0:	39a94503          	lbu	a0,922(s2)
   1a7b4:	39994583          	lbu	a1,921(s2)
   1a7b8:	39b94603          	lbu	a2,923(s2)
   1a7bc:	39c92403          	lw	s0,924(s2)
   1a7c0:	0522                	slli	a0,a0,0x8
   1a7c2:	8d4d                	or	a0,a0,a1
   1a7c4:	26a91423          	sh	a0,616(s2)
   1a7c8:	26c90523          	sb	a2,618(s2)
   1a7cc:	6505                	lui	a0,0x1
   1a7ce:	35450513          	addi	a0,a0,852 # 1354 <.Lline_table_start1+0x1129>
   1a7d2:	00a105b3          	add	a1,sp,a0
   1a7d6:	6505                	lui	a0,0x1
   1a7d8:	2f050513          	addi	a0,a0,752 # 12f0 <.Lline_table_start1+0x10c5>
   1a7dc:	950a                	add	a0,a0,sp
   1a7de:	04e00613          	li	a2,78
   1a7e2:	00000097          	auipc	ra,0x0
   1a7e6:	434080e7          	jalr	1076(ra) # 1ac16 <memcpy>
   1a7ea:	01845513          	srli	a0,s0,0x18
   1a7ee:	01045593          	srli	a1,s0,0x10
   1a7f2:	00845613          	srli	a2,s0,0x8
   1a7f6:	268905a3          	sb	s0,619(s2)
   1a7fa:	26c90623          	sb	a2,620(s2)
   1a7fe:	26b906a3          	sb	a1,621(s2)
   1a802:	26a90723          	sb	a0,622(s2)
   1a806:	6505                	lui	a0,0x1
   1a808:	22350513          	addi	a0,a0,547 # 1223 <.Lline_table_start1+0xff8>
   1a80c:	950a                	add	a0,a0,sp
   1a80e:	6585                	lui	a1,0x1
   1a810:	2f058593          	addi	a1,a1,752 # 12f0 <.Lline_table_start1+0x10c5>
   1a814:	958a                	add	a1,a1,sp
   1a816:	04e00613          	li	a2,78
   1a81a:	00000097          	auipc	ra,0x0
   1a81e:	3fc080e7          	jalr	1020(ra) # 1ac16 <memcpy>
   1a822:	6505                	lui	a0,0x1
   1a824:	34c50513          	addi	a0,a0,844 # 134c <.Lline_table_start1+0x1121>
   1a828:	950a                	add	a0,a0,sp
   1a82a:	6585                	lui	a1,0x1
   1a82c:	21c58593          	addi	a1,a1,540 # 121c <.Lline_table_start1+0xff1>
   1a830:	958a                	add	a1,a1,sp
   1a832:	ffff8097          	auipc	ra,0xffff8
   1a836:	dd8080e7          	jalr	-552(ra) # 1260a <_ZN18complex_no_dynamic3app17h3d985e0af5eeb3fdE>
   1a83a:	39894503          	lbu	a0,920(s2)
   1a83e:	36051063          	bnez	a0,1ab9e <_start+0x3c06>
   1a842:	39994503          	lbu	a0,921(s2)
   1a846:	39a94583          	lbu	a1,922(s2)
   1a84a:	39b94603          	lbu	a2,923(s2)
   1a84e:	39c92683          	lw	a3,924(s2)
   1a852:	3a092703          	lw	a4,928(s2)
   1a856:	3a492783          	lw	a5,932(s2)
   1a85a:	3a891483          	lh	s1,936(s2)
   1a85e:	05a2                	slli	a1,a1,0x8
   1a860:	32e92e23          	sw	a4,828(s2)
   1a864:	34f92023          	sw	a5,832(s2)
   1a868:	34991223          	sh	s1,836(s2)
   1a86c:	0186d713          	srli	a4,a3,0x18
   1a870:	8d4d                	or	a0,a0,a1
   1a872:	0106d593          	srli	a1,a3,0x10
   1a876:	2cb901a3          	sb	a1,707(s2)
   1a87a:	2ce90223          	sb	a4,708(s2)
   1a87e:	0086d593          	srli	a1,a3,0x8
   1a882:	2aa91f23          	sh	a0,702(s2)
   1a886:	2cc90023          	sb	a2,704(s2)
   1a88a:	2cd900a3          	sb	a3,705(s2)
   1a88e:	2cb90123          	sb	a1,706(s2)
   1a892:	6505                	lui	a0,0x1
   1a894:	27950513          	addi	a0,a0,633 # 1279 <.Lline_table_start1+0x104e>
   1a898:	950a                	add	a0,a0,sp
   1a89a:	6585                	lui	a1,0x1
   1a89c:	2f058593          	addi	a1,a1,752 # 12f0 <.Lline_table_start1+0x10c5>
   1a8a0:	958a                	add	a1,a1,sp
   1a8a2:	4629                	li	a2,10
   1a8a4:	00000097          	auipc	ra,0x0
   1a8a8:	372080e7          	jalr	882(ra) # 1ac16 <memcpy>
   1a8ac:	6505                	lui	a0,0x1
   1a8ae:	34c50513          	addi	a0,a0,844 # 134c <.Lline_table_start1+0x1121>
   1a8b2:	950a                	add	a0,a0,sp
   1a8b4:	6585                	lui	a1,0x1
   1a8b6:	27258593          	addi	a1,a1,626 # 1272 <.Lline_table_start1+0x1047>
   1a8ba:	958a                	add	a1,a1,sp
   1a8bc:	ffffb097          	auipc	ra,0xffffb
   1a8c0:	3fe080e7          	jalr	1022(ra) # 15cba <_ZN18complex_no_dynamic3app17hc714c6ab445c53c2E>
   1a8c4:	39894503          	lbu	a0,920(s2)
   1a8c8:	2c051b63          	bnez	a0,1ab9e <_start+0x3c06>
   1a8cc:	39a94503          	lbu	a0,922(s2)
   1a8d0:	39994583          	lbu	a1,921(s2)
   1a8d4:	39b94603          	lbu	a2,923(s2)
   1a8d8:	39c92403          	lw	s0,924(s2)
   1a8dc:	0522                	slli	a0,a0,0x8
   1a8de:	8d4d                	or	a0,a0,a1
   1a8e0:	2ca91823          	sh	a0,720(s2)
   1a8e4:	2cc90923          	sb	a2,722(s2)
   1a8e8:	6505                	lui	a0,0x1
   1a8ea:	35450513          	addi	a0,a0,852 # 1354 <.Lline_table_start1+0x1129>
   1a8ee:	00a105b3          	add	a1,sp,a0
   1a8f2:	6505                	lui	a0,0x1
   1a8f4:	2f050513          	addi	a0,a0,752 # 12f0 <.Lline_table_start1+0x10c5>
   1a8f8:	950a                	add	a0,a0,sp
   1a8fa:	04900613          	li	a2,73
   1a8fe:	00000097          	auipc	ra,0x0
   1a902:	318080e7          	jalr	792(ra) # 1ac16 <memcpy>
   1a906:	01845513          	srli	a0,s0,0x18
   1a90a:	01045593          	srli	a1,s0,0x10
   1a90e:	00845613          	srli	a2,s0,0x8
   1a912:	2c8909a3          	sb	s0,723(s2)
   1a916:	2cc90a23          	sb	a2,724(s2)
   1a91a:	2cb90aa3          	sb	a1,725(s2)
   1a91e:	2ca90b23          	sb	a0,726(s2)
   1a922:	6505                	lui	a0,0x1
   1a924:	28b50513          	addi	a0,a0,651 # 128b <.Lline_table_start1+0x1060>
   1a928:	950a                	add	a0,a0,sp
   1a92a:	6585                	lui	a1,0x1
   1a92c:	2f058593          	addi	a1,a1,752 # 12f0 <.Lline_table_start1+0x10c5>
   1a930:	958a                	add	a1,a1,sp
   1a932:	04900613          	li	a2,73
   1a936:	00000097          	auipc	ra,0x0
   1a93a:	2e0080e7          	jalr	736(ra) # 1ac16 <memcpy>
   1a93e:	6505                	lui	a0,0x1
   1a940:	34c50513          	addi	a0,a0,844 # 134c <.Lline_table_start1+0x1121>
   1a944:	950a                	add	a0,a0,sp
   1a946:	6585                	lui	a1,0x1
   1a948:	28458593          	addi	a1,a1,644 # 1284 <.Lline_table_start1+0x1059>
   1a94c:	958a                	add	a1,a1,sp
   1a94e:	ffffc097          	auipc	ra,0xffffc
   1a952:	452080e7          	jalr	1106(ra) # 16da0 <_ZN18complex_no_dynamic3app17hf3700a7264363c47E>
   1a956:	39894503          	lbu	a0,920(s2)
   1a95a:	24051263          	bnez	a0,1ab9e <_start+0x3c06>
   1a95e:	39a94503          	lbu	a0,922(s2)
   1a962:	39994583          	lbu	a1,921(s2)
   1a966:	39b94603          	lbu	a2,923(s2)
   1a96a:	39c92403          	lw	s0,924(s2)
   1a96e:	0522                	slli	a0,a0,0x8
   1a970:	8d4d                	or	a0,a0,a1
   1a972:	32a91023          	sh	a0,800(s2)
   1a976:	32c90123          	sb	a2,802(s2)
   1a97a:	6505                	lui	a0,0x1
   1a97c:	35450513          	addi	a0,a0,852 # 1354 <.Lline_table_start1+0x1129>
   1a980:	00a105b3          	add	a1,sp,a0
   1a984:	6505                	lui	a0,0x1
   1a986:	2f050513          	addi	a0,a0,752 # 12f0 <.Lline_table_start1+0x10c5>
   1a98a:	950a                	add	a0,a0,sp
   1a98c:	4651                	li	a2,20
   1a98e:	00000097          	auipc	ra,0x0
   1a992:	288080e7          	jalr	648(ra) # 1ac16 <memcpy>
   1a996:	01845513          	srli	a0,s0,0x18
   1a99a:	01045593          	srli	a1,s0,0x10
   1a99e:	00845613          	srli	a2,s0,0x8
   1a9a2:	328901a3          	sb	s0,803(s2)
   1a9a6:	32c90223          	sb	a2,804(s2)
   1a9aa:	32b902a3          	sb	a1,805(s2)
   1a9ae:	32a90323          	sb	a0,806(s2)
   1a9b2:	6505                	lui	a0,0x1
   1a9b4:	2db50513          	addi	a0,a0,731 # 12db <.Lline_table_start1+0x10b0>
   1a9b8:	950a                	add	a0,a0,sp
   1a9ba:	6585                	lui	a1,0x1
   1a9bc:	2f058593          	addi	a1,a1,752 # 12f0 <.Lline_table_start1+0x10c5>
   1a9c0:	958a                	add	a1,a1,sp
   1a9c2:	4651                	li	a2,20
   1a9c4:	00000097          	auipc	ra,0x0
   1a9c8:	252080e7          	jalr	594(ra) # 1ac16 <memcpy>
   1a9cc:	6505                	lui	a0,0x1
   1a9ce:	34c50513          	addi	a0,a0,844 # 134c <.Lline_table_start1+0x1121>
   1a9d2:	950a                	add	a0,a0,sp
   1a9d4:	6585                	lui	a1,0x1
   1a9d6:	2d458593          	addi	a1,a1,724 # 12d4 <.Lline_table_start1+0x10a9>
   1a9da:	958a                	add	a1,a1,sp
   1a9dc:	ffffa097          	auipc	ra,0xffffa
   1a9e0:	bd4080e7          	jalr	-1068(ra) # 145b0 <_ZN18complex_no_dynamic3app17h886b3e88a48ea7e9E>
   1a9e4:	39894503          	lbu	a0,920(s2)
   1a9e8:	1a051b63          	bnez	a0,1ab9e <_start+0x3c06>
   1a9ec:	39a94503          	lbu	a0,922(s2)
   1a9f0:	39994583          	lbu	a1,921(s2)
   1a9f4:	39b94603          	lbu	a2,923(s2)
   1a9f8:	39c92403          	lw	s0,924(s2)
   1a9fc:	0522                	slli	a0,a0,0x8
   1a9fe:	8d4d                	or	a0,a0,a1
   1aa00:	3ea91f23          	sh	a0,1022(s2)
   1aa04:	40c90023          	sb	a2,1024(s2)
   1aa08:	6505                	lui	a0,0x1
   1aa0a:	35450513          	addi	a0,a0,852 # 1354 <.Lline_table_start1+0x1129>
   1aa0e:	00a105b3          	add	a1,sp,a0
   1aa12:	6505                	lui	a0,0x1
   1aa14:	2f050513          	addi	a0,a0,752 # 12f0 <.Lline_table_start1+0x10c5>
   1aa18:	950a                	add	a0,a0,sp
   1aa1a:	05c00613          	li	a2,92
   1aa1e:	00000097          	auipc	ra,0x0
   1aa22:	1f8080e7          	jalr	504(ra) # 1ac16 <memcpy>
   1aa26:	01845513          	srli	a0,s0,0x18
   1aa2a:	01045593          	srli	a1,s0,0x10
   1aa2e:	00845613          	srli	a2,s0,0x8
   1aa32:	408900a3          	sb	s0,1025(s2)
   1aa36:	40c90123          	sb	a2,1026(s2)
   1aa3a:	40b901a3          	sb	a1,1027(s2)
   1aa3e:	40a90223          	sb	a0,1028(s2)
   1aa42:	6505                	lui	a0,0x1
   1aa44:	3b950513          	addi	a0,a0,953 # 13b9 <.Lline_table_start1+0x118e>
   1aa48:	950a                	add	a0,a0,sp
   1aa4a:	6585                	lui	a1,0x1
   1aa4c:	2f058593          	addi	a1,a1,752 # 12f0 <.Lline_table_start1+0x10c5>
   1aa50:	958a                	add	a1,a1,sp
   1aa52:	05c00613          	li	a2,92
   1aa56:	00000097          	auipc	ra,0x0
   1aa5a:	1c0080e7          	jalr	448(ra) # 1ac16 <memcpy>
   1aa5e:	6505                	lui	a0,0x1
   1aa60:	34c50513          	addi	a0,a0,844 # 134c <.Lline_table_start1+0x1121>
   1aa64:	950a                	add	a0,a0,sp
   1aa66:	6585                	lui	a1,0x1
   1aa68:	3b258593          	addi	a1,a1,946 # 13b2 <.Lline_table_start1+0x1187>
   1aa6c:	958a                	add	a1,a1,sp
   1aa6e:	ffffa097          	auipc	ra,0xffffa
   1aa72:	778080e7          	jalr	1912(ra) # 151e6 <_ZN18complex_no_dynamic3app17ha879d5a5c12fda00E>
   1aa76:	39894503          	lbu	a0,920(s2)
   1aa7a:	12051263          	bnez	a0,1ab9e <_start+0x3c06>
   1aa7e:	39a94503          	lbu	a0,922(s2)
   1aa82:	39994583          	lbu	a1,921(s2)
   1aa86:	39b94603          	lbu	a2,923(s2)
   1aa8a:	39c92403          	lw	s0,924(s2)
   1aa8e:	0522                	slli	a0,a0,0x8
   1aa90:	8d4d                	or	a0,a0,a1
   1aa92:	46a91123          	sh	a0,1122(s2)
   1aa96:	46c90223          	sb	a2,1124(s2)
   1aa9a:	6505                	lui	a0,0x1
   1aa9c:	35450513          	addi	a0,a0,852 # 1354 <.Lline_table_start1+0x1129>
   1aaa0:	00a105b3          	add	a1,sp,a0
   1aaa4:	6505                	lui	a0,0x1
   1aaa6:	2f050513          	addi	a0,a0,752 # 12f0 <.Lline_table_start1+0x10c5>
   1aaaa:	950a                	add	a0,a0,sp
   1aaac:	02500613          	li	a2,37
   1aab0:	00000097          	auipc	ra,0x0
   1aab4:	166080e7          	jalr	358(ra) # 1ac16 <memcpy>
   1aab8:	01845513          	srli	a0,s0,0x18
   1aabc:	01045593          	srli	a1,s0,0x10
   1aac0:	00845613          	srli	a2,s0,0x8
   1aac4:	468902a3          	sb	s0,1125(s2)
   1aac8:	46c90323          	sb	a2,1126(s2)
   1aacc:	46b903a3          	sb	a1,1127(s2)
   1aad0:	46a90423          	sb	a0,1128(s2)
   1aad4:	6505                	lui	a0,0x1
   1aad6:	41d50513          	addi	a0,a0,1053 # 141d <.Lline_table_start1+0x11f2>
   1aada:	950a                	add	a0,a0,sp
   1aadc:	6585                	lui	a1,0x1
   1aade:	2f058593          	addi	a1,a1,752 # 12f0 <.Lline_table_start1+0x10c5>
   1aae2:	958a                	add	a1,a1,sp
   1aae4:	02500613          	li	a2,37
   1aae8:	00000097          	auipc	ra,0x0
   1aaec:	12e080e7          	jalr	302(ra) # 1ac16 <memcpy>
   1aaf0:	6505                	lui	a0,0x1
   1aaf2:	34c50513          	addi	a0,a0,844 # 134c <.Lline_table_start1+0x1121>
   1aaf6:	950a                	add	a0,a0,sp
   1aaf8:	6585                	lui	a1,0x1
   1aafa:	41658593          	addi	a1,a1,1046 # 1416 <.Lline_table_start1+0x11eb>
   1aafe:	958a                	add	a1,a1,sp
   1ab00:	ffff7097          	auipc	ra,0xffff7
   1ab04:	51c080e7          	jalr	1308(ra) # 1201c <_ZN18complex_no_dynamic3app17h399714d1ab7b73bcE>
   1ab08:	39894503          	lbu	a0,920(s2)
   1ab0c:	e949                	bnez	a0,1ab9e <_start+0x3c06>
   1ab0e:	39a94503          	lbu	a0,922(s2)
   1ab12:	39994583          	lbu	a1,921(s2)
   1ab16:	39b94603          	lbu	a2,923(s2)
   1ab1a:	39c92403          	lw	s0,924(s2)
   1ab1e:	0522                	slli	a0,a0,0x8
   1ab20:	8d4d                	or	a0,a0,a1
   1ab22:	48a91723          	sh	a0,1166(s2)
   1ab26:	48c90823          	sb	a2,1168(s2)
   1ab2a:	6505                	lui	a0,0x1
   1ab2c:	35450513          	addi	a0,a0,852 # 1354 <.Lline_table_start1+0x1129>
   1ab30:	00a105b3          	add	a1,sp,a0
   1ab34:	6505                	lui	a0,0x1
   1ab36:	2f050513          	addi	a0,a0,752 # 12f0 <.Lline_table_start1+0x10c5>
   1ab3a:	950a                	add	a0,a0,sp
   1ab3c:	02300613          	li	a2,35
   1ab40:	00000097          	auipc	ra,0x0
   1ab44:	0d6080e7          	jalr	214(ra) # 1ac16 <memcpy>
   1ab48:	01845513          	srli	a0,s0,0x18
   1ab4c:	01045593          	srli	a1,s0,0x10
   1ab50:	00845613          	srli	a2,s0,0x8
   1ab54:	488908a3          	sb	s0,1169(s2)
   1ab58:	48c90923          	sb	a2,1170(s2)
   1ab5c:	48b909a3          	sb	a1,1171(s2)
   1ab60:	48a90a23          	sb	a0,1172(s2)
   1ab64:	6505                	lui	a0,0x1
   1ab66:	44950513          	addi	a0,a0,1097 # 1449 <.Lline_table_start1+0x121e>
   1ab6a:	950a                	add	a0,a0,sp
   1ab6c:	6585                	lui	a1,0x1
   1ab6e:	2f058593          	addi	a1,a1,752 # 12f0 <.Lline_table_start1+0x10c5>
   1ab72:	958a                	add	a1,a1,sp
   1ab74:	02300613          	li	a2,35
   1ab78:	00000097          	auipc	ra,0x0
   1ab7c:	09e080e7          	jalr	158(ra) # 1ac16 <memcpy>
   1ab80:	6505                	lui	a0,0x1
   1ab82:	34c50513          	addi	a0,a0,844 # 134c <.Lline_table_start1+0x1121>
   1ab86:	950a                	add	a0,a0,sp
   1ab88:	6585                	lui	a1,0x1
   1ab8a:	44258593          	addi	a1,a1,1090 # 1442 <.Lline_table_start1+0x1217>
   1ab8e:	958a                	add	a1,a1,sp
   1ab90:	ffffa097          	auipc	ra,0xffffa
   1ab94:	558080e7          	jalr	1368(ra) # 150e8 <_ZN18complex_no_dynamic3app17h9e68dbe176834c0cE>
   1ab98:	39894503          	lbu	a0,920(s2)
   1ab9c:	c509                	beqz	a0,1aba6 <_start+0x3c0e>
   1ab9e:	39c92783          	lw	a5,924(s2)
   1aba2:	cc2fc06f          	j	17064 <_start+0xcc>
   1aba6:	cc0fc06f          	j	17066 <_start+0xce>

0001abaa <memset>:
   1abaa:	46c1                	li	a3,16
   1abac:	04d66f63          	bltu	a2,a3,1ac0a <memset+0x60>
   1abb0:	40a006b3          	neg	a3,a0
   1abb4:	0036f813          	andi	a6,a3,3
   1abb8:	01050733          	add	a4,a0,a6
   1abbc:	00e57963          	bgeu	a0,a4,1abce <memset+0x24>
   1abc0:	87c2                	mv	a5,a6
   1abc2:	86aa                	mv	a3,a0
   1abc4:	00b68023          	sb	a1,0(a3)
   1abc8:	17fd                	addi	a5,a5,-1
   1abca:	0685                	addi	a3,a3,1
   1abcc:	ffe5                	bnez	a5,1abc4 <memset+0x1a>
   1abce:	41060633          	sub	a2,a2,a6
   1abd2:	ffc67693          	andi	a3,a2,-4
   1abd6:	96ba                	add	a3,a3,a4
   1abd8:	00d77e63          	bgeu	a4,a3,1abf4 <memset+0x4a>
   1abdc:	0ff5f813          	zext.b	a6,a1
   1abe0:	010107b7          	lui	a5,0x1010
   1abe4:	10178793          	addi	a5,a5,257 # 1010101 <_ZN17compiler_builtins3mem6memcpy17h90d0c987d2ef5a79E+0xff54e3>
   1abe8:	02f807b3          	mul	a5,a6,a5
   1abec:	c31c                	sw	a5,0(a4)
   1abee:	0711                	addi	a4,a4,4
   1abf0:	fed76ee3          	bltu	a4,a3,1abec <memset+0x42>
   1abf4:	8a0d                	andi	a2,a2,3
   1abf6:	00c68733          	add	a4,a3,a2
   1abfa:	00e6f763          	bgeu	a3,a4,1ac08 <memset+0x5e>
   1abfe:	00b68023          	sb	a1,0(a3)
   1ac02:	167d                	addi	a2,a2,-1
   1ac04:	0685                	addi	a3,a3,1
   1ac06:	fe65                	bnez	a2,1abfe <memset+0x54>
   1ac08:	8082                	ret
   1ac0a:	86aa                	mv	a3,a0
   1ac0c:	00c50733          	add	a4,a0,a2
   1ac10:	fee567e3          	bltu	a0,a4,1abfe <memset+0x54>
   1ac14:	bfd5                	j	1ac08 <memset+0x5e>

0001ac16 <memcpy>:
   1ac16:	00000317          	auipc	t1,0x0
   1ac1a:	00830067          	jr	8(t1) # 1ac1e <_ZN17compiler_builtins3mem6memcpy17h90d0c987d2ef5a79E>

0001ac1e <_ZN17compiler_builtins3mem6memcpy17h90d0c987d2ef5a79E>:
   1ac1e:	1141                	addi	sp,sp,-16
   1ac20:	c622                	sw	s0,12(sp)
   1ac22:	46c1                	li	a3,16
   1ac24:	06d66363          	bltu	a2,a3,1ac8a <_ZN17compiler_builtins3mem6memcpy17h90d0c987d2ef5a79E+0x6c>
   1ac28:	40a006b3          	neg	a3,a0
   1ac2c:	0036f813          	andi	a6,a3,3
   1ac30:	01050fb3          	add	t6,a0,a6
   1ac34:	01f57d63          	bgeu	a0,t6,1ac4e <_ZN17compiler_builtins3mem6memcpy17h90d0c987d2ef5a79E+0x30>
   1ac38:	8742                	mv	a4,a6
   1ac3a:	86aa                	mv	a3,a0
   1ac3c:	87ae                	mv	a5,a1
   1ac3e:	0007c883          	lbu	a7,0(a5)
   1ac42:	177d                	addi	a4,a4,-1
   1ac44:	01168023          	sb	a7,0(a3)
   1ac48:	0685                	addi	a3,a3,1
   1ac4a:	0785                	addi	a5,a5,1
   1ac4c:	fb6d                	bnez	a4,1ac3e <_ZN17compiler_builtins3mem6memcpy17h90d0c987d2ef5a79E+0x20>
   1ac4e:	01058433          	add	s0,a1,a6
   1ac52:	410608b3          	sub	a7,a2,a6
   1ac56:	ffc8f713          	andi	a4,a7,-4
   1ac5a:	00347613          	andi	a2,s0,3
   1ac5e:	00ef86b3          	add	a3,t6,a4
   1ac62:	e621                	bnez	a2,1acaa <_ZN17compiler_builtins3mem6memcpy17h90d0c987d2ef5a79E+0x8c>
   1ac64:	00dffa63          	bgeu	t6,a3,1ac78 <_ZN17compiler_builtins3mem6memcpy17h90d0c987d2ef5a79E+0x5a>
   1ac68:	8622                	mv	a2,s0
   1ac6a:	421c                	lw	a5,0(a2)
   1ac6c:	00ffa023          	sw	a5,0(t6)
   1ac70:	0f91                	addi	t6,t6,4
   1ac72:	0611                	addi	a2,a2,4
   1ac74:	fedfebe3          	bltu	t6,a3,1ac6a <_ZN17compiler_builtins3mem6memcpy17h90d0c987d2ef5a79E+0x4c>
   1ac78:	00e405b3          	add	a1,s0,a4
   1ac7c:	0038f613          	andi	a2,a7,3
   1ac80:	00c68733          	add	a4,a3,a2
   1ac84:	00e6e863          	bltu	a3,a4,1ac94 <_ZN17compiler_builtins3mem6memcpy17h90d0c987d2ef5a79E+0x76>
   1ac88:	a831                	j	1aca4 <_ZN17compiler_builtins3mem6memcpy17h90d0c987d2ef5a79E+0x86>
   1ac8a:	86aa                	mv	a3,a0
   1ac8c:	00c50733          	add	a4,a0,a2
   1ac90:	00e57a63          	bgeu	a0,a4,1aca4 <_ZN17compiler_builtins3mem6memcpy17h90d0c987d2ef5a79E+0x86>
   1ac94:	0005c703          	lbu	a4,0(a1)
   1ac98:	167d                	addi	a2,a2,-1
   1ac9a:	00e68023          	sb	a4,0(a3)
   1ac9e:	0685                	addi	a3,a3,1
   1aca0:	0585                	addi	a1,a1,1
   1aca2:	fa6d                	bnez	a2,1ac94 <_ZN17compiler_builtins3mem6memcpy17h90d0c987d2ef5a79E+0x76>
   1aca4:	4432                	lw	s0,12(sp)
   1aca6:	0141                	addi	sp,sp,16
   1aca8:	8082                	ret
   1acaa:	4801                	li	a6,0
   1acac:	4791                	li	a5,4
   1acae:	c402                	sw	zero,8(sp)
   1acb0:	40c783b3          	sub	t2,a5,a2
   1acb4:	00810293          	addi	t0,sp,8
   1acb8:	0013f313          	andi	t1,t2,1
   1acbc:	00c2e2b3          	or	t0,t0,a2
   1acc0:	04031763          	bnez	t1,1ad0e <_ZN17compiler_builtins3mem6memcpy17h90d0c987d2ef5a79E+0xf0>
   1acc4:	0023f793          	andi	a5,t2,2
   1acc8:	ebb9                	bnez	a5,1ad1e <_ZN17compiler_builtins3mem6memcpy17h90d0c987d2ef5a79E+0x100>
   1acca:	4ea2                	lw	t4,8(sp)
   1accc:	00361813          	slli	a6,a2,0x3
   1acd0:	004f8793          	addi	a5,t6,4
   1acd4:	40c40f33          	sub	t5,s0,a2
   1acd8:	06d7f363          	bgeu	a5,a3,1ad3e <_ZN17compiler_builtins3mem6memcpy17h90d0c987d2ef5a79E+0x120>
   1acdc:	410007b3          	neg	a5,a6
   1ace0:	0187fe13          	andi	t3,a5,24
   1ace4:	004f2283          	lw	t0,4(t5)
   1ace8:	004f0393          	addi	t2,t5,4
   1acec:	010ed5b3          	srl	a1,t4,a6
   1acf0:	004f8313          	addi	t1,t6,4
   1acf4:	01c297b3          	sll	a5,t0,t3
   1acf8:	8ddd                	or	a1,a1,a5
   1acfa:	008f8793          	addi	a5,t6,8
   1acfe:	00bfa023          	sw	a1,0(t6)
   1ad02:	8f9a                	mv	t6,t1
   1ad04:	8f1e                	mv	t5,t2
   1ad06:	8e96                	mv	t4,t0
   1ad08:	fcd7eee3          	bltu	a5,a3,1ace4 <_ZN17compiler_builtins3mem6memcpy17h90d0c987d2ef5a79E+0xc6>
   1ad0c:	a825                	j	1ad44 <_ZN17compiler_builtins3mem6memcpy17h90d0c987d2ef5a79E+0x126>
   1ad0e:	00044783          	lbu	a5,0(s0)
   1ad12:	00f28023          	sb	a5,0(t0)
   1ad16:	4805                	li	a6,1
   1ad18:	0023f793          	andi	a5,t2,2
   1ad1c:	d7dd                	beqz	a5,1acca <_ZN17compiler_builtins3mem6memcpy17h90d0c987d2ef5a79E+0xac>
   1ad1e:	010407b3          	add	a5,s0,a6
   1ad22:	00079783          	lh	a5,0(a5)
   1ad26:	9816                	add	a6,a6,t0
   1ad28:	00f81023          	sh	a5,0(a6)
   1ad2c:	4ea2                	lw	t4,8(sp)
   1ad2e:	00361813          	slli	a6,a2,0x3
   1ad32:	004f8793          	addi	a5,t6,4
   1ad36:	40c40f33          	sub	t5,s0,a2
   1ad3a:	fad7e1e3          	bltu	a5,a3,1acdc <_ZN17compiler_builtins3mem6memcpy17h90d0c987d2ef5a79E+0xbe>
   1ad3e:	82f6                	mv	t0,t4
   1ad40:	83fa                	mv	t2,t5
   1ad42:	837e                	mv	t1,t6
   1ad44:	00010223          	sb	zero,4(sp)
   1ad48:	4785                	li	a5,1
   1ad4a:	00010123          	sb	zero,2(sp)
   1ad4e:	00f61763          	bne	a2,a5,1ad5c <_ZN17compiler_builtins3mem6memcpy17h90d0c987d2ef5a79E+0x13e>
   1ad52:	4781                	li	a5,0
   1ad54:	4e01                	li	t3,0
   1ad56:	4e81                	li	t4,0
   1ad58:	0050                	addi	a2,sp,4
   1ad5a:	a819                	j	1ad70 <_ZN17compiler_builtins3mem6memcpy17h90d0c987d2ef5a79E+0x152>
   1ad5c:	0043c783          	lbu	a5,4(t2)
   1ad60:	0053ce03          	lbu	t3,5(t2)
   1ad64:	4e89                	li	t4,2
   1ad66:	00f10223          	sb	a5,4(sp)
   1ad6a:	0e22                	slli	t3,t3,0x8
   1ad6c:	00210613          	addi	a2,sp,2
   1ad70:	00147593          	andi	a1,s0,1
   1ad74:	e199                	bnez	a1,1ad7a <_ZN17compiler_builtins3mem6memcpy17h90d0c987d2ef5a79E+0x15c>
   1ad76:	4601                	li	a2,0
   1ad78:	a821                	j	1ad90 <_ZN17compiler_builtins3mem6memcpy17h90d0c987d2ef5a79E+0x172>
   1ad7a:	0391                	addi	t2,t2,4
   1ad7c:	93f6                	add	t2,t2,t4
   1ad7e:	0003c583          	lbu	a1,0(t2)
   1ad82:	00b60023          	sb	a1,0(a2)
   1ad86:	00214603          	lbu	a2,2(sp)
   1ad8a:	00414783          	lbu	a5,4(sp)
   1ad8e:	0642                	slli	a2,a2,0x10
   1ad90:	8e5d                	or	a2,a2,a5
   1ad92:	0102d5b3          	srl	a1,t0,a6
   1ad96:	410007b3          	neg	a5,a6
   1ad9a:	00ce6633          	or	a2,t3,a2
   1ad9e:	8be1                	andi	a5,a5,24
   1ada0:	00f61633          	sll	a2,a2,a5
   1ada4:	8dd1                	or	a1,a1,a2
   1ada6:	00b32023          	sw	a1,0(t1)
   1adaa:	00e405b3          	add	a1,s0,a4
   1adae:	0038f613          	andi	a2,a7,3
   1adb2:	00c68733          	add	a4,a3,a2
   1adb6:	ece6efe3          	bltu	a3,a4,1ac94 <_ZN17compiler_builtins3mem6memcpy17h90d0c987d2ef5a79E+0x76>
   1adba:	b5ed                	j	1aca4 <_ZN17compiler_builtins3mem6memcpy17h90d0c987d2ef5a79E+0x86>
