
target/riscv32imc-unknown-none-elf/opt-3/examples/complex_full_dynamic:     file format elf32-littleriscv

Sections:
Idx Name          Size      VMA       LMA       File off  Algn
  0 .eh_frame     00000060  000100d4  000100d4  000000d4  2**2
                  CONTENTS, ALLOC, LOAD, READONLY, DATA
  1 .text         00009fe4  00011134  00011134  00000134  2**1
                  CONTENTS, ALLOC, LOAD, READONLY, CODE
  2 .comment      00000099  00000000  00000000  0000a118  2**0
                  CONTENTS, READONLY
  3 .riscv.attributes 0000002f  00000000  00000000  0000a1b1  2**0
                  CONTENTS, READONLY

Disassembly of section .text:

00011134 <_ZN20complex_full_dynamic3app17h02d44494b91e14d0E>:
   11134:	715d                	addi	sp,sp,-80
   11136:	c686                	sw	ra,76(sp)
   11138:	c4a2                	sw	s0,72(sp)
   1113a:	c2a6                	sw	s1,68(sp)
   1113c:	c0ca                	sw	s2,64(sp)
   1113e:	de4e                	sw	s3,60(sp)
   11140:	892a                	mv	s2,a0
   11142:	4409                	li	s0,2
   11144:	00810423          	sb	s0,8(sp)
   11148:	0064                	addi	s1,sp,12
   1114a:	463d                	li	a2,15
   1114c:	8526                	mv	a0,s1
   1114e:	0000a097          	auipc	ra,0xa
   11152:	e24080e7          	jalr	-476(ra) # 1af72 <memcpy>
   11156:	8626                	mv	a2,s1
   11158:	da02                	sw	zero,52(sp)
   1115a:	02011c23          	sh	zero,56(sp)
   1115e:	02010d23          	sb	zero,58(sp)
   11162:	02810223          	sb	s0,36(sp)
   11166:	d402                	sw	zero,40(sp)
   11168:	d602                	sw	zero,44(sp)
   1116a:	d802                	sw	zero,48(sp)
   1116c:	6509                	lui	a0,0x2
   1116e:	448d                	li	s1,3
   11170:	4811                	li	a6,4
   11172:	458d                	li	a1,3
   11174:	e4b50793          	addi	a5,a0,-437 # 1e4b <.Lline_table_start1+0x1c20>
   11178:	46bd                	li	a3,15
   1117a:	4711                	li	a4,4
   1117c:	853e                	mv	a0,a5
   1117e:	00000073          	ecall
   11182:	04850363          	beq	a0,s0,111c8 <_ZN20complex_full_dynamic3app17h02d44494b91e14d0E+0x94>
   11186:	02810993          	addi	s3,sp,40
   1118a:	c03e                	sw	a5,0(sp)
   1118c:	c226                	sw	s1,4(sp)
   1118e:	01010423          	sb	a6,8(sp)
   11192:	46cd                	li	a3,19
   11194:	470d                	li	a4,3
   11196:	853e                	mv	a0,a5
   11198:	4581                	li	a1,0
   1119a:	864e                	mv	a2,s3
   1119c:	00000073          	ecall
   111a0:	02850463          	beq	a0,s0,111c8 <_ZN20complex_full_dynamic3app17h02d44494b91e14d0E+0x94>
   111a4:	450d                	li	a0,3
   111a6:	6609                	lui	a2,0x2
   111a8:	458d                	li	a1,3
   111aa:	ce3e                	sw	a5,28(sp)
   111ac:	d002                	sw	zero,32(sp)
   111ae:	02a10223          	sb	a0,36(sp)
   111b2:	e4b60513          	addi	a0,a2,-437 # 1e4b <.Lline_table_start1+0x1c20>
   111b6:	4709                	li	a4,2
   111b8:	07f00793          	li	a5,127
   111bc:	4601                	li	a2,0
   111be:	4681                	li	a3,0
   111c0:	00000073          	ecall
   111c4:	02a7e863          	bltu	a5,a0,111f4 <_ZN20complex_full_dynamic3app17h02d44494b91e14d0E+0xc0>
   111c8:	00b92223          	sw	a1,4(s2)
   111cc:	4505                	li	a0,1
   111ce:	00a90023          	sb	a0,0(s2)
   111d2:	0868                	addi	a0,sp,28
   111d4:	0000a097          	auipc	ra,0xa
   111d8:	d12080e7          	jalr	-750(ra) # 1aee6 <_ZN9allow_pin12full_dynamic17unshare_if_shared17h3494b15e905518bcE>
   111dc:	850a                	mv	a0,sp
   111de:	0000a097          	auipc	ra,0xa
   111e2:	d08080e7          	jalr	-760(ra) # 1aee6 <_ZN9allow_pin12full_dynamic17unshare_if_shared17h3494b15e905518bcE>
   111e6:	40b6                	lw	ra,76(sp)
   111e8:	4426                	lw	s0,72(sp)
   111ea:	4496                	lw	s1,68(sp)
   111ec:	4906                	lw	s2,64(sp)
   111ee:	59f2                	lw	s3,60(sp)
   111f0:	6161                	addi	sp,sp,80
   111f2:	8082                	ret
   111f4:	850a                	mv	a0,sp
   111f6:	0000a097          	auipc	ra,0xa
   111fa:	cf0080e7          	jalr	-784(ra) # 1aee6 <_ZN9allow_pin12full_dynamic17unshare_if_shared17h3494b15e905518bcE>
   111fe:	0868                	addi	a0,sp,28
   11200:	0000a097          	auipc	ra,0xa
   11204:	ce6080e7          	jalr	-794(ra) # 1aee6 <_ZN9allow_pin12full_dynamic17unshare_if_shared17h3494b15e905518bcE>
   11208:	0868                	addi	a0,sp,28
   1120a:	0000a097          	auipc	ra,0xa
   1120e:	cdc080e7          	jalr	-804(ra) # 1aee6 <_ZN9allow_pin12full_dynamic17unshare_if_shared17h3494b15e905518bcE>
   11212:	00190513          	addi	a0,s2,1
   11216:	464d                	li	a2,19
   11218:	85ce                	mv	a1,s3
   1121a:	0000a097          	auipc	ra,0xa
   1121e:	d58080e7          	jalr	-680(ra) # 1af72 <memcpy>
   11222:	4501                	li	a0,0
   11224:	b76d                	j	111ce <_ZN20complex_full_dynamic3app17h02d44494b91e14d0E+0x9a>

00011226 <_ZN20complex_full_dynamic3app17h0638337d2fac37c0E>:
   11226:	7171                	addi	sp,sp,-176
   11228:	d706                	sw	ra,172(sp)
   1122a:	d522                	sw	s0,168(sp)
   1122c:	d326                	sw	s1,164(sp)
   1122e:	d14a                	sw	s2,160(sp)
   11230:	cf4e                	sw	s3,156(sp)
   11232:	89aa                	mv	s3,a0
   11234:	4409                	li	s0,2
   11236:	00810423          	sb	s0,8(sp)
   1123a:	0064                	addi	s1,sp,12
   1123c:	02d00613          	li	a2,45
   11240:	8526                	mv	a0,s1
   11242:	0000a097          	auipc	ra,0xa
   11246:	d30080e7          	jalr	-720(ra) # 1af72 <memcpy>
   1124a:	04810913          	addi	s2,sp,72
   1124e:	05300613          	li	a2,83
   11252:	854a                	mv	a0,s2
   11254:	4581                	li	a1,0
   11256:	0000a097          	auipc	ra,0xa
   1125a:	cb0080e7          	jalr	-848(ra) # 1af06 <memset>
   1125e:	8626                	mv	a2,s1
   11260:	04810223          	sb	s0,68(sp)
   11264:	6505                	lui	a0,0x1
   11266:	4491                	li	s1,4
   11268:	4589                	li	a1,2
   1126a:	ec350793          	addi	a5,a0,-317 # ec3 <.Lline_table_start1+0xc98>
   1126e:	02d00693          	li	a3,45
   11272:	4711                	li	a4,4
   11274:	853e                	mv	a0,a5
   11276:	00000073          	ecall
   1127a:	04850363          	beq	a0,s0,112c0 <_ZN20complex_full_dynamic3app17h0638337d2fac37c0E+0x9a>
   1127e:	853e                	mv	a0,a5
   11280:	864a                	mv	a2,s2
   11282:	c03e                	sw	a5,0(sp)
   11284:	c222                	sw	s0,4(sp)
   11286:	00910423          	sb	s1,8(sp)
   1128a:	449d                	li	s1,7
   1128c:	480d                	li	a6,3
   1128e:	459d                	li	a1,7
   11290:	05300693          	li	a3,83
   11294:	470d                	li	a4,3
   11296:	00000073          	ecall
   1129a:	02850363          	beq	a0,s0,112c0 <_ZN20complex_full_dynamic3app17h0638337d2fac37c0E+0x9a>
   1129e:	de3e                	sw	a5,60(sp)
   112a0:	c0a6                	sw	s1,64(sp)
   112a2:	05010223          	sb	a6,68(sp)
   112a6:	6505                	lui	a0,0x1
   112a8:	4589                	li	a1,2
   112aa:	461d                	li	a2,7
   112ac:	ec350513          	addi	a0,a0,-317 # ec3 <.Lline_table_start1+0xc98>
   112b0:	4709                	li	a4,2
   112b2:	07f00793          	li	a5,127
   112b6:	4681                	li	a3,0
   112b8:	00000073          	ecall
   112bc:	02a7e863          	bltu	a5,a0,112ec <_ZN20complex_full_dynamic3app17h0638337d2fac37c0E+0xc6>
   112c0:	00b9a223          	sw	a1,4(s3)
   112c4:	4505                	li	a0,1
   112c6:	00a98023          	sb	a0,0(s3)
   112ca:	1868                	addi	a0,sp,60
   112cc:	0000a097          	auipc	ra,0xa
   112d0:	c1a080e7          	jalr	-998(ra) # 1aee6 <_ZN9allow_pin12full_dynamic17unshare_if_shared17h3494b15e905518bcE>
   112d4:	850a                	mv	a0,sp
   112d6:	0000a097          	auipc	ra,0xa
   112da:	c10080e7          	jalr	-1008(ra) # 1aee6 <_ZN9allow_pin12full_dynamic17unshare_if_shared17h3494b15e905518bcE>
   112de:	50ba                	lw	ra,172(sp)
   112e0:	542a                	lw	s0,168(sp)
   112e2:	549a                	lw	s1,164(sp)
   112e4:	590a                	lw	s2,160(sp)
   112e6:	49fa                	lw	s3,156(sp)
   112e8:	614d                	addi	sp,sp,176
   112ea:	8082                	ret
   112ec:	850a                	mv	a0,sp
   112ee:	0000a097          	auipc	ra,0xa
   112f2:	bf8080e7          	jalr	-1032(ra) # 1aee6 <_ZN9allow_pin12full_dynamic17unshare_if_shared17h3494b15e905518bcE>
   112f6:	1868                	addi	a0,sp,60
   112f8:	0000a097          	auipc	ra,0xa
   112fc:	bee080e7          	jalr	-1042(ra) # 1aee6 <_ZN9allow_pin12full_dynamic17unshare_if_shared17h3494b15e905518bcE>
   11300:	1868                	addi	a0,sp,60
   11302:	0000a097          	auipc	ra,0xa
   11306:	be4080e7          	jalr	-1052(ra) # 1aee6 <_ZN9allow_pin12full_dynamic17unshare_if_shared17h3494b15e905518bcE>
   1130a:	00198513          	addi	a0,s3,1
   1130e:	05300613          	li	a2,83
   11312:	85ca                	mv	a1,s2
   11314:	0000a097          	auipc	ra,0xa
   11318:	c5e080e7          	jalr	-930(ra) # 1af72 <memcpy>
   1131c:	4501                	li	a0,0
   1131e:	b765                	j	112c6 <_ZN20complex_full_dynamic3app17h0638337d2fac37c0E+0xa0>

00011320 <_ZN20complex_full_dynamic3app17h0868c50a5847a365E>:
   11320:	7175                	addi	sp,sp,-144
   11322:	c706                	sw	ra,140(sp)
   11324:	c522                	sw	s0,136(sp)
   11326:	c326                	sw	s1,132(sp)
   11328:	c14a                	sw	s2,128(sp)
   1132a:	dece                	sw	s3,124(sp)
   1132c:	89aa                	mv	s3,a0
   1132e:	4409                	li	s0,2
   11330:	00810423          	sb	s0,8(sp)
   11334:	0064                	addi	s1,sp,12
   11336:	03b00613          	li	a2,59
   1133a:	8526                	mv	a0,s1
   1133c:	0000a097          	auipc	ra,0xa
   11340:	c36080e7          	jalr	-970(ra) # 1af72 <memcpy>
   11344:	05410913          	addi	s2,sp,84
   11348:	02700613          	li	a2,39
   1134c:	854a                	mv	a0,s2
   1134e:	4581                	li	a1,0
   11350:	0000a097          	auipc	ra,0xa
   11354:	bb6080e7          	jalr	-1098(ra) # 1af06 <memset>
   11358:	8626                	mv	a2,s1
   1135a:	04810823          	sb	s0,80(sp)
   1135e:	6505                	lui	a0,0x1
   11360:	4495                	li	s1,5
   11362:	4811                	li	a6,4
   11364:	4595                	li	a1,5
   11366:	bd350793          	addi	a5,a0,-1069 # bd3 <.Lline_table_start1+0x9a8>
   1136a:	03b00693          	li	a3,59
   1136e:	4711                	li	a4,4
   11370:	853e                	mv	a0,a5
   11372:	00000073          	ecall
   11376:	04850263          	beq	a0,s0,113ba <_ZN20complex_full_dynamic3app17h0868c50a5847a365E+0x9a>
   1137a:	853e                	mv	a0,a5
   1137c:	864a                	mv	a2,s2
   1137e:	c03e                	sw	a5,0(sp)
   11380:	c226                	sw	s1,4(sp)
   11382:	01010423          	sb	a6,8(sp)
   11386:	448d                	li	s1,3
   11388:	458d                	li	a1,3
   1138a:	02700693          	li	a3,39
   1138e:	470d                	li	a4,3
   11390:	00000073          	ecall
   11394:	02850363          	beq	a0,s0,113ba <_ZN20complex_full_dynamic3app17h0868c50a5847a365E+0x9a>
   11398:	c4be                	sw	a5,72(sp)
   1139a:	c6a6                	sw	s1,76(sp)
   1139c:	04910823          	sb	s1,80(sp)
   113a0:	6505                	lui	a0,0x1
   113a2:	4595                	li	a1,5
   113a4:	460d                	li	a2,3
   113a6:	bd350513          	addi	a0,a0,-1069 # bd3 <.Lline_table_start1+0x9a8>
   113aa:	4709                	li	a4,2
   113ac:	07f00793          	li	a5,127
   113b0:	4681                	li	a3,0
   113b2:	00000073          	ecall
   113b6:	02a7e863          	bltu	a5,a0,113e6 <_ZN20complex_full_dynamic3app17h0868c50a5847a365E+0xc6>
   113ba:	00b9a223          	sw	a1,4(s3)
   113be:	4505                	li	a0,1
   113c0:	00a98023          	sb	a0,0(s3)
   113c4:	00a8                	addi	a0,sp,72
   113c6:	0000a097          	auipc	ra,0xa
   113ca:	b20080e7          	jalr	-1248(ra) # 1aee6 <_ZN9allow_pin12full_dynamic17unshare_if_shared17h3494b15e905518bcE>
   113ce:	850a                	mv	a0,sp
   113d0:	0000a097          	auipc	ra,0xa
   113d4:	b16080e7          	jalr	-1258(ra) # 1aee6 <_ZN9allow_pin12full_dynamic17unshare_if_shared17h3494b15e905518bcE>
   113d8:	40ba                	lw	ra,140(sp)
   113da:	442a                	lw	s0,136(sp)
   113dc:	449a                	lw	s1,132(sp)
   113de:	490a                	lw	s2,128(sp)
   113e0:	59f6                	lw	s3,124(sp)
   113e2:	6149                	addi	sp,sp,144
   113e4:	8082                	ret
   113e6:	850a                	mv	a0,sp
   113e8:	0000a097          	auipc	ra,0xa
   113ec:	afe080e7          	jalr	-1282(ra) # 1aee6 <_ZN9allow_pin12full_dynamic17unshare_if_shared17h3494b15e905518bcE>
   113f0:	00a8                	addi	a0,sp,72
   113f2:	0000a097          	auipc	ra,0xa
   113f6:	af4080e7          	jalr	-1292(ra) # 1aee6 <_ZN9allow_pin12full_dynamic17unshare_if_shared17h3494b15e905518bcE>
   113fa:	00a8                	addi	a0,sp,72
   113fc:	0000a097          	auipc	ra,0xa
   11400:	aea080e7          	jalr	-1302(ra) # 1aee6 <_ZN9allow_pin12full_dynamic17unshare_if_shared17h3494b15e905518bcE>
   11404:	00198513          	addi	a0,s3,1
   11408:	02700613          	li	a2,39
   1140c:	85ca                	mv	a1,s2
   1140e:	0000a097          	auipc	ra,0xa
   11412:	b64080e7          	jalr	-1180(ra) # 1af72 <memcpy>
   11416:	4501                	li	a0,0
   11418:	b765                	j	113c0 <_ZN20complex_full_dynamic3app17h0868c50a5847a365E+0xa0>

0001141a <_ZN20complex_full_dynamic3app17h0b3daa92aec121d2E>:
   1141a:	7119                	addi	sp,sp,-128
   1141c:	de86                	sw	ra,124(sp)
   1141e:	dca2                	sw	s0,120(sp)
   11420:	daa6                	sw	s1,116(sp)
   11422:	d8ca                	sw	s2,112(sp)
   11424:	d6ce                	sw	s3,108(sp)
   11426:	89aa                	mv	s3,a0
   11428:	4409                	li	s0,2
   1142a:	00810423          	sb	s0,8(sp)
   1142e:	0064                	addi	s1,sp,12
   11430:	02500613          	li	a2,37
   11434:	8526                	mv	a0,s1
   11436:	0000a097          	auipc	ra,0xa
   1143a:	b3c080e7          	jalr	-1220(ra) # 1af72 <memcpy>
   1143e:	04010913          	addi	s2,sp,64
   11442:	02a00613          	li	a2,42
   11446:	854a                	mv	a0,s2
   11448:	4581                	li	a1,0
   1144a:	0000a097          	auipc	ra,0xa
   1144e:	abc080e7          	jalr	-1348(ra) # 1af06 <memset>
   11452:	4581                	li	a1,0
   11454:	8626                	mv	a2,s1
   11456:	02810e23          	sb	s0,60(sp)
   1145a:	6505                	lui	a0,0x1
   1145c:	4491                	li	s1,4
   1145e:	93c50793          	addi	a5,a0,-1732 # 93c <.Lline_table_start1+0x711>
   11462:	02500693          	li	a3,37
   11466:	4711                	li	a4,4
   11468:	853e                	mv	a0,a5
   1146a:	00000073          	ecall
   1146e:	04850263          	beq	a0,s0,114b2 <_ZN20complex_full_dynamic3app17h0b3daa92aec121d2E+0x98>
   11472:	853e                	mv	a0,a5
   11474:	864a                	mv	a2,s2
   11476:	c03e                	sw	a5,0(sp)
   11478:	c202                	sw	zero,4(sp)
   1147a:	00910423          	sb	s1,8(sp)
   1147e:	448d                	li	s1,3
   11480:	458d                	li	a1,3
   11482:	02a00693          	li	a3,42
   11486:	470d                	li	a4,3
   11488:	00000073          	ecall
   1148c:	02850363          	beq	a0,s0,114b2 <_ZN20complex_full_dynamic3app17h0b3daa92aec121d2E+0x98>
   11490:	da3e                	sw	a5,52(sp)
   11492:	dc26                	sw	s1,56(sp)
   11494:	02910e23          	sb	s1,60(sp)
   11498:	6505                	lui	a0,0x1
   1149a:	460d                	li	a2,3
   1149c:	93c50513          	addi	a0,a0,-1732 # 93c <.Lline_table_start1+0x711>
   114a0:	4709                	li	a4,2
   114a2:	07f00793          	li	a5,127
   114a6:	4581                	li	a1,0
   114a8:	4681                	li	a3,0
   114aa:	00000073          	ecall
   114ae:	02a7e863          	bltu	a5,a0,114de <_ZN20complex_full_dynamic3app17h0b3daa92aec121d2E+0xc4>
   114b2:	00b9a223          	sw	a1,4(s3)
   114b6:	4505                	li	a0,1
   114b8:	00a98023          	sb	a0,0(s3)
   114bc:	1848                	addi	a0,sp,52
   114be:	0000a097          	auipc	ra,0xa
   114c2:	a28080e7          	jalr	-1496(ra) # 1aee6 <_ZN9allow_pin12full_dynamic17unshare_if_shared17h3494b15e905518bcE>
   114c6:	850a                	mv	a0,sp
   114c8:	0000a097          	auipc	ra,0xa
   114cc:	a1e080e7          	jalr	-1506(ra) # 1aee6 <_ZN9allow_pin12full_dynamic17unshare_if_shared17h3494b15e905518bcE>
   114d0:	50f6                	lw	ra,124(sp)
   114d2:	5466                	lw	s0,120(sp)
   114d4:	54d6                	lw	s1,116(sp)
   114d6:	5946                	lw	s2,112(sp)
   114d8:	59b6                	lw	s3,108(sp)
   114da:	6109                	addi	sp,sp,128
   114dc:	8082                	ret
   114de:	850a                	mv	a0,sp
   114e0:	0000a097          	auipc	ra,0xa
   114e4:	a06080e7          	jalr	-1530(ra) # 1aee6 <_ZN9allow_pin12full_dynamic17unshare_if_shared17h3494b15e905518bcE>
   114e8:	1848                	addi	a0,sp,52
   114ea:	0000a097          	auipc	ra,0xa
   114ee:	9fc080e7          	jalr	-1540(ra) # 1aee6 <_ZN9allow_pin12full_dynamic17unshare_if_shared17h3494b15e905518bcE>
   114f2:	1848                	addi	a0,sp,52
   114f4:	0000a097          	auipc	ra,0xa
   114f8:	9f2080e7          	jalr	-1550(ra) # 1aee6 <_ZN9allow_pin12full_dynamic17unshare_if_shared17h3494b15e905518bcE>
   114fc:	00198513          	addi	a0,s3,1
   11500:	02a00613          	li	a2,42
   11504:	85ca                	mv	a1,s2
   11506:	0000a097          	auipc	ra,0xa
   1150a:	a6c080e7          	jalr	-1428(ra) # 1af72 <memcpy>
   1150e:	4501                	li	a0,0
   11510:	b765                	j	114b8 <_ZN20complex_full_dynamic3app17h0b3daa92aec121d2E+0x9e>

00011512 <_ZN20complex_full_dynamic3app17h106f08f30809caaaE>:
   11512:	7155                	addi	sp,sp,-208
   11514:	c786                	sw	ra,204(sp)
   11516:	c5a2                	sw	s0,200(sp)
   11518:	c3a6                	sw	s1,196(sp)
   1151a:	c1ca                	sw	s2,192(sp)
   1151c:	df4e                	sw	s3,188(sp)
   1151e:	89aa                	mv	s3,a0
   11520:	4409                	li	s0,2
   11522:	00810423          	sb	s0,8(sp)
   11526:	0064                	addi	s1,sp,12
   11528:	05100613          	li	a2,81
   1152c:	8526                	mv	a0,s1
   1152e:	0000a097          	auipc	ra,0xa
   11532:	a44080e7          	jalr	-1468(ra) # 1af72 <memcpy>
   11536:	06c10913          	addi	s2,sp,108
   1153a:	04f00613          	li	a2,79
   1153e:	854a                	mv	a0,s2
   11540:	4581                	li	a1,0
   11542:	0000a097          	auipc	ra,0xa
   11546:	9c4080e7          	jalr	-1596(ra) # 1af06 <memset>
   1154a:	8626                	mv	a2,s1
   1154c:	06810423          	sb	s0,104(sp)
   11550:	6509                	lui	a0,0x2
   11552:	4491                	li	s1,4
   11554:	4591                	li	a1,4
   11556:	0ee50793          	addi	a5,a0,238 # 20ee <.Lline_table_start1+0x1ec3>
   1155a:	05100693          	li	a3,81
   1155e:	4711                	li	a4,4
   11560:	853e                	mv	a0,a5
   11562:	00000073          	ecall
   11566:	04850363          	beq	a0,s0,115ac <_ZN20complex_full_dynamic3app17h106f08f30809caaaE+0x9a>
   1156a:	853e                	mv	a0,a5
   1156c:	864a                	mv	a2,s2
   1156e:	c03e                	sw	a5,0(sp)
   11570:	c226                	sw	s1,4(sp)
   11572:	00910423          	sb	s1,8(sp)
   11576:	44a5                	li	s1,9
   11578:	480d                	li	a6,3
   1157a:	45a5                	li	a1,9
   1157c:	04f00693          	li	a3,79
   11580:	470d                	li	a4,3
   11582:	00000073          	ecall
   11586:	02850363          	beq	a0,s0,115ac <_ZN20complex_full_dynamic3app17h106f08f30809caaaE+0x9a>
   1158a:	d0be                	sw	a5,96(sp)
   1158c:	d2a6                	sw	s1,100(sp)
   1158e:	07010423          	sb	a6,104(sp)
   11592:	6509                	lui	a0,0x2
   11594:	4591                	li	a1,4
   11596:	4625                	li	a2,9
   11598:	0ee50513          	addi	a0,a0,238 # 20ee <.Lline_table_start1+0x1ec3>
   1159c:	4709                	li	a4,2
   1159e:	07f00793          	li	a5,127
   115a2:	4681                	li	a3,0
   115a4:	00000073          	ecall
   115a8:	02a7e863          	bltu	a5,a0,115d8 <_ZN20complex_full_dynamic3app17h106f08f30809caaaE+0xc6>
   115ac:	00b9a223          	sw	a1,4(s3)
   115b0:	4505                	li	a0,1
   115b2:	00a98023          	sb	a0,0(s3)
   115b6:	1088                	addi	a0,sp,96
   115b8:	0000a097          	auipc	ra,0xa
   115bc:	92e080e7          	jalr	-1746(ra) # 1aee6 <_ZN9allow_pin12full_dynamic17unshare_if_shared17h3494b15e905518bcE>
   115c0:	850a                	mv	a0,sp
   115c2:	0000a097          	auipc	ra,0xa
   115c6:	924080e7          	jalr	-1756(ra) # 1aee6 <_ZN9allow_pin12full_dynamic17unshare_if_shared17h3494b15e905518bcE>
   115ca:	40be                	lw	ra,204(sp)
   115cc:	442e                	lw	s0,200(sp)
   115ce:	449e                	lw	s1,196(sp)
   115d0:	490e                	lw	s2,192(sp)
   115d2:	59fa                	lw	s3,188(sp)
   115d4:	6169                	addi	sp,sp,208
   115d6:	8082                	ret
   115d8:	850a                	mv	a0,sp
   115da:	0000a097          	auipc	ra,0xa
   115de:	90c080e7          	jalr	-1780(ra) # 1aee6 <_ZN9allow_pin12full_dynamic17unshare_if_shared17h3494b15e905518bcE>
   115e2:	1088                	addi	a0,sp,96
   115e4:	0000a097          	auipc	ra,0xa
   115e8:	902080e7          	jalr	-1790(ra) # 1aee6 <_ZN9allow_pin12full_dynamic17unshare_if_shared17h3494b15e905518bcE>
   115ec:	1088                	addi	a0,sp,96
   115ee:	0000a097          	auipc	ra,0xa
   115f2:	8f8080e7          	jalr	-1800(ra) # 1aee6 <_ZN9allow_pin12full_dynamic17unshare_if_shared17h3494b15e905518bcE>
   115f6:	00198513          	addi	a0,s3,1
   115fa:	04f00613          	li	a2,79
   115fe:	85ca                	mv	a1,s2
   11600:	0000a097          	auipc	ra,0xa
   11604:	972080e7          	jalr	-1678(ra) # 1af72 <memcpy>
   11608:	4501                	li	a0,0
   1160a:	b765                	j	115b2 <_ZN20complex_full_dynamic3app17h106f08f30809caaaE+0xa0>

0001160c <_ZN20complex_full_dynamic3app17h15b7bf043d31ff82E>:
   1160c:	7175                	addi	sp,sp,-144
   1160e:	c706                	sw	ra,140(sp)
   11610:	c522                	sw	s0,136(sp)
   11612:	c326                	sw	s1,132(sp)
   11614:	c14a                	sw	s2,128(sp)
   11616:	dece                	sw	s3,124(sp)
   11618:	892a                	mv	s2,a0
   1161a:	4409                	li	s0,2
   1161c:	00810a23          	sb	s0,20(sp)
   11620:	0824                	addi	s1,sp,24
   11622:	04800613          	li	a2,72
   11626:	8526                	mv	a0,s1
   11628:	0000a097          	auipc	ra,0xa
   1162c:	94a080e7          	jalr	-1718(ra) # 1af72 <memcpy>
   11630:	8626                	mv	a2,s1
   11632:	06011c23          	sh	zero,120(sp)
   11636:	06010d23          	sb	zero,122(sp)
   1163a:	06810423          	sb	s0,104(sp)
   1163e:	d682                	sw	zero,108(sp)
   11640:	d882                	sw	zero,112(sp)
   11642:	da82                	sw	zero,116(sp)
   11644:	6505                	lui	a0,0x1
   11646:	44a1                	li	s1,8
   11648:	4811                	li	a6,4
   1164a:	45a1                	li	a1,8
   1164c:	11d50793          	addi	a5,a0,285 # 111d <.Lline_table_start1+0xef2>
   11650:	04800693          	li	a3,72
   11654:	4711                	li	a4,4
   11656:	853e                	mv	a0,a5
   11658:	00000073          	ecall
   1165c:	04850463          	beq	a0,s0,116a4 <_ZN20complex_full_dynamic3app17h15b7bf043d31ff82E+0x98>
   11660:	853e                	mv	a0,a5
   11662:	06c10993          	addi	s3,sp,108
   11666:	c63e                	sw	a5,12(sp)
   11668:	c826                	sw	s1,16(sp)
   1166a:	01010a23          	sb	a6,20(sp)
   1166e:	44a5                	li	s1,9
   11670:	480d                	li	a6,3
   11672:	45a5                	li	a1,9
   11674:	46bd                	li	a3,15
   11676:	470d                	li	a4,3
   11678:	864e                	mv	a2,s3
   1167a:	00000073          	ecall
   1167e:	02850363          	beq	a0,s0,116a4 <_ZN20complex_full_dynamic3app17h15b7bf043d31ff82E+0x98>
   11682:	d0be                	sw	a5,96(sp)
   11684:	d2a6                	sw	s1,100(sp)
   11686:	07010423          	sb	a6,104(sp)
   1168a:	6505                	lui	a0,0x1
   1168c:	45a1                	li	a1,8
   1168e:	4625                	li	a2,9
   11690:	11d50513          	addi	a0,a0,285 # 111d <.Lline_table_start1+0xef2>
   11694:	4709                	li	a4,2
   11696:	07f00793          	li	a5,127
   1169a:	4681                	li	a3,0
   1169c:	00000073          	ecall
   116a0:	02a7e863          	bltu	a5,a0,116d0 <_ZN20complex_full_dynamic3app17h15b7bf043d31ff82E+0xc4>
   116a4:	00b92223          	sw	a1,4(s2)
   116a8:	4505                	li	a0,1
   116aa:	00a90023          	sb	a0,0(s2)
   116ae:	1088                	addi	a0,sp,96
   116b0:	0000a097          	auipc	ra,0xa
   116b4:	836080e7          	jalr	-1994(ra) # 1aee6 <_ZN9allow_pin12full_dynamic17unshare_if_shared17h3494b15e905518bcE>
   116b8:	0068                	addi	a0,sp,12
   116ba:	0000a097          	auipc	ra,0xa
   116be:	82c080e7          	jalr	-2004(ra) # 1aee6 <_ZN9allow_pin12full_dynamic17unshare_if_shared17h3494b15e905518bcE>
   116c2:	40ba                	lw	ra,140(sp)
   116c4:	442a                	lw	s0,136(sp)
   116c6:	449a                	lw	s1,132(sp)
   116c8:	490a                	lw	s2,128(sp)
   116ca:	59f6                	lw	s3,124(sp)
   116cc:	6149                	addi	sp,sp,144
   116ce:	8082                	ret
   116d0:	0068                	addi	a0,sp,12
   116d2:	0000a097          	auipc	ra,0xa
   116d6:	814080e7          	jalr	-2028(ra) # 1aee6 <_ZN9allow_pin12full_dynamic17unshare_if_shared17h3494b15e905518bcE>
   116da:	1088                	addi	a0,sp,96
   116dc:	0000a097          	auipc	ra,0xa
   116e0:	80a080e7          	jalr	-2038(ra) # 1aee6 <_ZN9allow_pin12full_dynamic17unshare_if_shared17h3494b15e905518bcE>
   116e4:	1088                	addi	a0,sp,96
   116e6:	0000a097          	auipc	ra,0xa
   116ea:	800080e7          	jalr	-2048(ra) # 1aee6 <_ZN9allow_pin12full_dynamic17unshare_if_shared17h3494b15e905518bcE>
   116ee:	00190513          	addi	a0,s2,1
   116f2:	463d                	li	a2,15
   116f4:	85ce                	mv	a1,s3
   116f6:	0000a097          	auipc	ra,0xa
   116fa:	87c080e7          	jalr	-1924(ra) # 1af72 <memcpy>
   116fe:	4501                	li	a0,0
   11700:	b76d                	j	116aa <_ZN20complex_full_dynamic3app17h15b7bf043d31ff82E+0x9e>

00011702 <_ZN20complex_full_dynamic3app17h1e5b5e7fbe194958E>:
   11702:	711d                	addi	sp,sp,-96
   11704:	ce86                	sw	ra,92(sp)
   11706:	cca2                	sw	s0,88(sp)
   11708:	caa6                	sw	s1,84(sp)
   1170a:	c8ca                	sw	s2,80(sp)
   1170c:	c6ce                	sw	s3,76(sp)
   1170e:	89aa                	mv	s3,a0
   11710:	4409                	li	s0,2
   11712:	00810423          	sb	s0,8(sp)
   11716:	0064                	addi	s1,sp,12
   11718:	4635                	li	a2,13
   1171a:	8526                	mv	a0,s1
   1171c:	0000a097          	auipc	ra,0xa
   11720:	856080e7          	jalr	-1962(ra) # 1af72 <memcpy>
   11724:	02810913          	addi	s2,sp,40
   11728:	02100613          	li	a2,33
   1172c:	854a                	mv	a0,s2
   1172e:	4581                	li	a1,0
   11730:	00009097          	auipc	ra,0x9
   11734:	7d6080e7          	jalr	2006(ra) # 1af06 <memset>
   11738:	4581                	li	a1,0
   1173a:	8626                	mv	a2,s1
   1173c:	02810223          	sb	s0,36(sp)
   11740:	6505                	lui	a0,0x1
   11742:	4491                	li	s1,4
   11744:	6b050793          	addi	a5,a0,1712 # 16b0 <.Lline_table_start1+0x1485>
   11748:	46b5                	li	a3,13
   1174a:	4711                	li	a4,4
   1174c:	853e                	mv	a0,a5
   1174e:	00000073          	ecall
   11752:	04850263          	beq	a0,s0,11796 <_ZN20complex_full_dynamic3app17h1e5b5e7fbe194958E+0x94>
   11756:	853e                	mv	a0,a5
   11758:	4581                	li	a1,0
   1175a:	864a                	mv	a2,s2
   1175c:	c03e                	sw	a5,0(sp)
   1175e:	c202                	sw	zero,4(sp)
   11760:	00910423          	sb	s1,8(sp)
   11764:	448d                	li	s1,3
   11766:	02100693          	li	a3,33
   1176a:	470d                	li	a4,3
   1176c:	00000073          	ecall
   11770:	02850363          	beq	a0,s0,11796 <_ZN20complex_full_dynamic3app17h1e5b5e7fbe194958E+0x94>
   11774:	ce3e                	sw	a5,28(sp)
   11776:	d002                	sw	zero,32(sp)
   11778:	02910223          	sb	s1,36(sp)
   1177c:	6505                	lui	a0,0x1
   1177e:	6b050513          	addi	a0,a0,1712 # 16b0 <.Lline_table_start1+0x1485>
   11782:	4709                	li	a4,2
   11784:	07f00793          	li	a5,127
   11788:	4581                	li	a1,0
   1178a:	4601                	li	a2,0
   1178c:	4681                	li	a3,0
   1178e:	00000073          	ecall
   11792:	02a7e863          	bltu	a5,a0,117c2 <_ZN20complex_full_dynamic3app17h1e5b5e7fbe194958E+0xc0>
   11796:	00b9a223          	sw	a1,4(s3)
   1179a:	4505                	li	a0,1
   1179c:	00a98023          	sb	a0,0(s3)
   117a0:	0868                	addi	a0,sp,28
   117a2:	00009097          	auipc	ra,0x9
   117a6:	744080e7          	jalr	1860(ra) # 1aee6 <_ZN9allow_pin12full_dynamic17unshare_if_shared17h3494b15e905518bcE>
   117aa:	850a                	mv	a0,sp
   117ac:	00009097          	auipc	ra,0x9
   117b0:	73a080e7          	jalr	1850(ra) # 1aee6 <_ZN9allow_pin12full_dynamic17unshare_if_shared17h3494b15e905518bcE>
   117b4:	40f6                	lw	ra,92(sp)
   117b6:	4466                	lw	s0,88(sp)
   117b8:	44d6                	lw	s1,84(sp)
   117ba:	4946                	lw	s2,80(sp)
   117bc:	49b6                	lw	s3,76(sp)
   117be:	6125                	addi	sp,sp,96
   117c0:	8082                	ret
   117c2:	850a                	mv	a0,sp
   117c4:	00009097          	auipc	ra,0x9
   117c8:	722080e7          	jalr	1826(ra) # 1aee6 <_ZN9allow_pin12full_dynamic17unshare_if_shared17h3494b15e905518bcE>
   117cc:	0868                	addi	a0,sp,28
   117ce:	00009097          	auipc	ra,0x9
   117d2:	718080e7          	jalr	1816(ra) # 1aee6 <_ZN9allow_pin12full_dynamic17unshare_if_shared17h3494b15e905518bcE>
   117d6:	0868                	addi	a0,sp,28
   117d8:	00009097          	auipc	ra,0x9
   117dc:	70e080e7          	jalr	1806(ra) # 1aee6 <_ZN9allow_pin12full_dynamic17unshare_if_shared17h3494b15e905518bcE>
   117e0:	00198513          	addi	a0,s3,1
   117e4:	02100613          	li	a2,33
   117e8:	85ca                	mv	a1,s2
   117ea:	00009097          	auipc	ra,0x9
   117ee:	788080e7          	jalr	1928(ra) # 1af72 <memcpy>
   117f2:	4501                	li	a0,0
   117f4:	b765                	j	1179c <_ZN20complex_full_dynamic3app17h1e5b5e7fbe194958E+0x9a>

000117f6 <_ZN20complex_full_dynamic3app17h1e86846e0153b8a2E>:
   117f6:	7119                	addi	sp,sp,-128
   117f8:	de86                	sw	ra,124(sp)
   117fa:	dca2                	sw	s0,120(sp)
   117fc:	daa6                	sw	s1,116(sp)
   117fe:	d8ca                	sw	s2,112(sp)
   11800:	d6ce                	sw	s3,108(sp)
   11802:	89aa                	mv	s3,a0
   11804:	4409                	li	s0,2
   11806:	00810823          	sb	s0,16(sp)
   1180a:	0844                	addi	s1,sp,20
   1180c:	4679                	li	a2,30
   1180e:	8526                	mv	a0,s1
   11810:	00009097          	auipc	ra,0x9
   11814:	762080e7          	jalr	1890(ra) # 1af72 <memcpy>
   11818:	04010913          	addi	s2,sp,64
   1181c:	02c00613          	li	a2,44
   11820:	854a                	mv	a0,s2
   11822:	4581                	li	a1,0
   11824:	00009097          	auipc	ra,0x9
   11828:	6e2080e7          	jalr	1762(ra) # 1af06 <memset>
   1182c:	8626                	mv	a2,s1
   1182e:	02810e23          	sb	s0,60(sp)
   11832:	3fb00793          	li	a5,1019
   11836:	449d                	li	s1,7
   11838:	4811                	li	a6,4
   1183a:	3fb00513          	li	a0,1019
   1183e:	459d                	li	a1,7
   11840:	46f9                	li	a3,30
   11842:	4711                	li	a4,4
   11844:	00000073          	ecall
   11848:	04850463          	beq	a0,s0,11890 <_ZN20complex_full_dynamic3app17h1e86846e0153b8a2E+0x9a>
   1184c:	4581                	li	a1,0
   1184e:	864a                	mv	a2,s2
   11850:	c43e                	sw	a5,8(sp)
   11852:	c626                	sw	s1,12(sp)
   11854:	01010823          	sb	a6,16(sp)
   11858:	478d                	li	a5,3
   1185a:	3fb00513          	li	a0,1019
   1185e:	02c00693          	li	a3,44
   11862:	470d                	li	a4,3
   11864:	00000073          	ecall
   11868:	02850463          	beq	a0,s0,11890 <_ZN20complex_full_dynamic3app17h1e86846e0153b8a2E+0x9a>
   1186c:	3fb00613          	li	a2,1019
   11870:	3fb00513          	li	a0,1019
   11874:	459d                	li	a1,7
   11876:	4709                	li	a4,2
   11878:	07f00493          	li	s1,127
   1187c:	da32                	sw	a2,52(sp)
   1187e:	dc02                	sw	zero,56(sp)
   11880:	02f10e23          	sb	a5,60(sp)
   11884:	4601                	li	a2,0
   11886:	4681                	li	a3,0
   11888:	00000073          	ecall
   1188c:	02a4e863          	bltu	s1,a0,118bc <_ZN20complex_full_dynamic3app17h1e86846e0153b8a2E+0xc6>
   11890:	00b9a223          	sw	a1,4(s3)
   11894:	4505                	li	a0,1
   11896:	00a98023          	sb	a0,0(s3)
   1189a:	1848                	addi	a0,sp,52
   1189c:	00009097          	auipc	ra,0x9
   118a0:	64a080e7          	jalr	1610(ra) # 1aee6 <_ZN9allow_pin12full_dynamic17unshare_if_shared17h3494b15e905518bcE>
   118a4:	0028                	addi	a0,sp,8
   118a6:	00009097          	auipc	ra,0x9
   118aa:	640080e7          	jalr	1600(ra) # 1aee6 <_ZN9allow_pin12full_dynamic17unshare_if_shared17h3494b15e905518bcE>
   118ae:	50f6                	lw	ra,124(sp)
   118b0:	5466                	lw	s0,120(sp)
   118b2:	54d6                	lw	s1,116(sp)
   118b4:	5946                	lw	s2,112(sp)
   118b6:	59b6                	lw	s3,108(sp)
   118b8:	6109                	addi	sp,sp,128
   118ba:	8082                	ret
   118bc:	0028                	addi	a0,sp,8
   118be:	00009097          	auipc	ra,0x9
   118c2:	628080e7          	jalr	1576(ra) # 1aee6 <_ZN9allow_pin12full_dynamic17unshare_if_shared17h3494b15e905518bcE>
   118c6:	1848                	addi	a0,sp,52
   118c8:	00009097          	auipc	ra,0x9
   118cc:	61e080e7          	jalr	1566(ra) # 1aee6 <_ZN9allow_pin12full_dynamic17unshare_if_shared17h3494b15e905518bcE>
   118d0:	1848                	addi	a0,sp,52
   118d2:	00009097          	auipc	ra,0x9
   118d6:	614080e7          	jalr	1556(ra) # 1aee6 <_ZN9allow_pin12full_dynamic17unshare_if_shared17h3494b15e905518bcE>
   118da:	00198513          	addi	a0,s3,1
   118de:	02c00613          	li	a2,44
   118e2:	85ca                	mv	a1,s2
   118e4:	00009097          	auipc	ra,0x9
   118e8:	68e080e7          	jalr	1678(ra) # 1af72 <memcpy>
   118ec:	4501                	li	a0,0
   118ee:	b765                	j	11896 <_ZN20complex_full_dynamic3app17h1e86846e0153b8a2E+0xa0>

000118f0 <_ZN20complex_full_dynamic3app17h1ef66af3bd8e4969E>:
   118f0:	7175                	addi	sp,sp,-144
   118f2:	c706                	sw	ra,140(sp)
   118f4:	c522                	sw	s0,136(sp)
   118f6:	c326                	sw	s1,132(sp)
   118f8:	c14a                	sw	s2,128(sp)
   118fa:	dece                	sw	s3,124(sp)
   118fc:	89aa                	mv	s3,a0
   118fe:	4409                	li	s0,2
   11900:	00810423          	sb	s0,8(sp)
   11904:	0064                	addi	s1,sp,12
   11906:	4645                	li	a2,17
   11908:	8526                	mv	a0,s1
   1190a:	00009097          	auipc	ra,0x9
   1190e:	668080e7          	jalr	1640(ra) # 1af72 <memcpy>
   11912:	02c10913          	addi	s2,sp,44
   11916:	05000613          	li	a2,80
   1191a:	854a                	mv	a0,s2
   1191c:	4581                	li	a1,0
   1191e:	00009097          	auipc	ra,0x9
   11922:	5e8080e7          	jalr	1512(ra) # 1af06 <memset>
   11926:	8626                	mv	a2,s1
   11928:	02810423          	sb	s0,40(sp)
   1192c:	6509                	lui	a0,0x2
   1192e:	4499                	li	s1,6
   11930:	4811                	li	a6,4
   11932:	4599                	li	a1,6
   11934:	aa950793          	addi	a5,a0,-1367 # 1aa9 <.Lline_table_start1+0x187e>
   11938:	46c5                	li	a3,17
   1193a:	4711                	li	a4,4
   1193c:	853e                	mv	a0,a5
   1193e:	00000073          	ecall
   11942:	04850363          	beq	a0,s0,11988 <_ZN20complex_full_dynamic3app17h1ef66af3bd8e4969E+0x98>
   11946:	853e                	mv	a0,a5
   11948:	864a                	mv	a2,s2
   1194a:	c03e                	sw	a5,0(sp)
   1194c:	c226                	sw	s1,4(sp)
   1194e:	01010423          	sb	a6,8(sp)
   11952:	4495                	li	s1,5
   11954:	480d                	li	a6,3
   11956:	4595                	li	a1,5
   11958:	05000693          	li	a3,80
   1195c:	470d                	li	a4,3
   1195e:	00000073          	ecall
   11962:	02850363          	beq	a0,s0,11988 <_ZN20complex_full_dynamic3app17h1ef66af3bd8e4969E+0x98>
   11966:	d03e                	sw	a5,32(sp)
   11968:	d226                	sw	s1,36(sp)
   1196a:	03010423          	sb	a6,40(sp)
   1196e:	6509                	lui	a0,0x2
   11970:	4599                	li	a1,6
   11972:	4615                	li	a2,5
   11974:	aa950513          	addi	a0,a0,-1367 # 1aa9 <.Lline_table_start1+0x187e>
   11978:	4709                	li	a4,2
   1197a:	07f00793          	li	a5,127
   1197e:	4681                	li	a3,0
   11980:	00000073          	ecall
   11984:	02a7e863          	bltu	a5,a0,119b4 <_ZN20complex_full_dynamic3app17h1ef66af3bd8e4969E+0xc4>
   11988:	00b9a223          	sw	a1,4(s3)
   1198c:	4505                	li	a0,1
   1198e:	00a98023          	sb	a0,0(s3)
   11992:	1008                	addi	a0,sp,32
   11994:	00009097          	auipc	ra,0x9
   11998:	552080e7          	jalr	1362(ra) # 1aee6 <_ZN9allow_pin12full_dynamic17unshare_if_shared17h3494b15e905518bcE>
   1199c:	850a                	mv	a0,sp
   1199e:	00009097          	auipc	ra,0x9
   119a2:	548080e7          	jalr	1352(ra) # 1aee6 <_ZN9allow_pin12full_dynamic17unshare_if_shared17h3494b15e905518bcE>
   119a6:	40ba                	lw	ra,140(sp)
   119a8:	442a                	lw	s0,136(sp)
   119aa:	449a                	lw	s1,132(sp)
   119ac:	490a                	lw	s2,128(sp)
   119ae:	59f6                	lw	s3,124(sp)
   119b0:	6149                	addi	sp,sp,144
   119b2:	8082                	ret
   119b4:	850a                	mv	a0,sp
   119b6:	00009097          	auipc	ra,0x9
   119ba:	530080e7          	jalr	1328(ra) # 1aee6 <_ZN9allow_pin12full_dynamic17unshare_if_shared17h3494b15e905518bcE>
   119be:	1008                	addi	a0,sp,32
   119c0:	00009097          	auipc	ra,0x9
   119c4:	526080e7          	jalr	1318(ra) # 1aee6 <_ZN9allow_pin12full_dynamic17unshare_if_shared17h3494b15e905518bcE>
   119c8:	1008                	addi	a0,sp,32
   119ca:	00009097          	auipc	ra,0x9
   119ce:	51c080e7          	jalr	1308(ra) # 1aee6 <_ZN9allow_pin12full_dynamic17unshare_if_shared17h3494b15e905518bcE>
   119d2:	00198513          	addi	a0,s3,1
   119d6:	05000613          	li	a2,80
   119da:	85ca                	mv	a1,s2
   119dc:	00009097          	auipc	ra,0x9
   119e0:	596080e7          	jalr	1430(ra) # 1af72 <memcpy>
   119e4:	4501                	li	a0,0
   119e6:	b765                	j	1198e <_ZN20complex_full_dynamic3app17h1ef66af3bd8e4969E+0x9e>

000119e8 <_ZN20complex_full_dynamic3app17h2202f1fd25500210E>:
   119e8:	7171                	addi	sp,sp,-176
   119ea:	d706                	sw	ra,172(sp)
   119ec:	d522                	sw	s0,168(sp)
   119ee:	d326                	sw	s1,164(sp)
   119f0:	d14a                	sw	s2,160(sp)
   119f2:	cf4e                	sw	s3,156(sp)
   119f4:	89aa                	mv	s3,a0
   119f6:	4409                	li	s0,2
   119f8:	00810623          	sb	s0,12(sp)
   119fc:	0804                	addi	s1,sp,16
   119fe:	466d                	li	a2,27
   11a00:	8526                	mv	a0,s1
   11a02:	00009097          	auipc	ra,0x9
   11a06:	570080e7          	jalr	1392(ra) # 1af72 <memcpy>
   11a0a:	03810913          	addi	s2,sp,56
   11a0e:	06300613          	li	a2,99
   11a12:	854a                	mv	a0,s2
   11a14:	4581                	li	a1,0
   11a16:	00009097          	auipc	ra,0x9
   11a1a:	4f0080e7          	jalr	1264(ra) # 1af06 <memset>
   11a1e:	8626                	mv	a2,s1
   11a20:	02810a23          	sb	s0,52(sp)
   11a24:	6509                	lui	a0,0x2
   11a26:	448d                	li	s1,3
   11a28:	4811                	li	a6,4
   11a2a:	458d                	li	a1,3
   11a2c:	54850793          	addi	a5,a0,1352 # 2548 <.Lline_table_start1+0x231d>
   11a30:	46ed                	li	a3,27
   11a32:	4711                	li	a4,4
   11a34:	853e                	mv	a0,a5
   11a36:	00000073          	ecall
   11a3a:	04850263          	beq	a0,s0,11a7e <_ZN20complex_full_dynamic3app17h2202f1fd25500210E+0x96>
   11a3e:	c23e                	sw	a5,4(sp)
   11a40:	c426                	sw	s1,8(sp)
   11a42:	01010623          	sb	a6,12(sp)
   11a46:	458d                	li	a1,3
   11a48:	06300693          	li	a3,99
   11a4c:	470d                	li	a4,3
   11a4e:	853e                	mv	a0,a5
   11a50:	864a                	mv	a2,s2
   11a52:	00000073          	ecall
   11a56:	02850463          	beq	a0,s0,11a7e <_ZN20complex_full_dynamic3app17h2202f1fd25500210E+0x96>
   11a5a:	450d                	li	a0,3
   11a5c:	6689                	lui	a3,0x2
   11a5e:	458d                	li	a1,3
   11a60:	460d                	li	a2,3
   11a62:	d63e                	sw	a5,44(sp)
   11a64:	d82a                	sw	a0,48(sp)
   11a66:	02a10a23          	sb	a0,52(sp)
   11a6a:	54868513          	addi	a0,a3,1352 # 2548 <.Lline_table_start1+0x231d>
   11a6e:	4709                	li	a4,2
   11a70:	07f00793          	li	a5,127
   11a74:	4681                	li	a3,0
   11a76:	00000073          	ecall
   11a7a:	02a7e863          	bltu	a5,a0,11aaa <_ZN20complex_full_dynamic3app17h2202f1fd25500210E+0xc2>
   11a7e:	00b9a223          	sw	a1,4(s3)
   11a82:	4505                	li	a0,1
   11a84:	00a98023          	sb	a0,0(s3)
   11a88:	1068                	addi	a0,sp,44
   11a8a:	00009097          	auipc	ra,0x9
   11a8e:	45c080e7          	jalr	1116(ra) # 1aee6 <_ZN9allow_pin12full_dynamic17unshare_if_shared17h3494b15e905518bcE>
   11a92:	0048                	addi	a0,sp,4
   11a94:	00009097          	auipc	ra,0x9
   11a98:	452080e7          	jalr	1106(ra) # 1aee6 <_ZN9allow_pin12full_dynamic17unshare_if_shared17h3494b15e905518bcE>
   11a9c:	50ba                	lw	ra,172(sp)
   11a9e:	542a                	lw	s0,168(sp)
   11aa0:	549a                	lw	s1,164(sp)
   11aa2:	590a                	lw	s2,160(sp)
   11aa4:	49fa                	lw	s3,156(sp)
   11aa6:	614d                	addi	sp,sp,176
   11aa8:	8082                	ret
   11aaa:	0048                	addi	a0,sp,4
   11aac:	00009097          	auipc	ra,0x9
   11ab0:	43a080e7          	jalr	1082(ra) # 1aee6 <_ZN9allow_pin12full_dynamic17unshare_if_shared17h3494b15e905518bcE>
   11ab4:	1068                	addi	a0,sp,44
   11ab6:	00009097          	auipc	ra,0x9
   11aba:	430080e7          	jalr	1072(ra) # 1aee6 <_ZN9allow_pin12full_dynamic17unshare_if_shared17h3494b15e905518bcE>
   11abe:	1068                	addi	a0,sp,44
   11ac0:	00009097          	auipc	ra,0x9
   11ac4:	426080e7          	jalr	1062(ra) # 1aee6 <_ZN9allow_pin12full_dynamic17unshare_if_shared17h3494b15e905518bcE>
   11ac8:	00198513          	addi	a0,s3,1
   11acc:	06300613          	li	a2,99
   11ad0:	85ca                	mv	a1,s2
   11ad2:	00009097          	auipc	ra,0x9
   11ad6:	4a0080e7          	jalr	1184(ra) # 1af72 <memcpy>
   11ada:	4501                	li	a0,0
   11adc:	b765                	j	11a84 <_ZN20complex_full_dynamic3app17h2202f1fd25500210E+0x9c>

00011ade <_ZN20complex_full_dynamic3app17h2341df15bdc5cb8cE>:
   11ade:	7131                	addi	sp,sp,-192
   11ae0:	df06                	sw	ra,188(sp)
   11ae2:	dd22                	sw	s0,184(sp)
   11ae4:	db26                	sw	s1,180(sp)
   11ae6:	d94a                	sw	s2,176(sp)
   11ae8:	d74e                	sw	s3,172(sp)
   11aea:	89aa                	mv	s3,a0
   11aec:	4409                	li	s0,2
   11aee:	00810623          	sb	s0,12(sp)
   11af2:	0804                	addi	s1,sp,16
   11af4:	02f00613          	li	a2,47
   11af8:	8526                	mv	a0,s1
   11afa:	00009097          	auipc	ra,0x9
   11afe:	478080e7          	jalr	1144(ra) # 1af72 <memcpy>
   11b02:	04c10913          	addi	s2,sp,76
   11b06:	05e00613          	li	a2,94
   11b0a:	854a                	mv	a0,s2
   11b0c:	4581                	li	a1,0
   11b0e:	00009097          	auipc	ra,0x9
   11b12:	3f8080e7          	jalr	1016(ra) # 1af06 <memset>
   11b16:	8626                	mv	a2,s1
   11b18:	04810423          	sb	s0,72(sp)
   11b1c:	22b00793          	li	a5,555
   11b20:	4495                	li	s1,5
   11b22:	4811                	li	a6,4
   11b24:	22b00513          	li	a0,555
   11b28:	4595                	li	a1,5
   11b2a:	02f00693          	li	a3,47
   11b2e:	4711                	li	a4,4
   11b30:	00000073          	ecall
   11b34:	04850563          	beq	a0,s0,11b7e <_ZN20complex_full_dynamic3app17h2341df15bdc5cb8cE+0xa0>
   11b38:	864a                	mv	a2,s2
   11b3a:	c23e                	sw	a5,4(sp)
   11b3c:	c426                	sw	s1,8(sp)
   11b3e:	01010623          	sb	a6,12(sp)
   11b42:	478d                	li	a5,3
   11b44:	22b00513          	li	a0,555
   11b48:	4589                	li	a1,2
   11b4a:	05e00693          	li	a3,94
   11b4e:	470d                	li	a4,3
   11b50:	00000073          	ecall
   11b54:	02850563          	beq	a0,s0,11b7e <_ZN20complex_full_dynamic3app17h2341df15bdc5cb8cE+0xa0>
   11b58:	22b00693          	li	a3,555
   11b5c:	4489                	li	s1,2
   11b5e:	22b00513          	li	a0,555
   11b62:	4595                	li	a1,5
   11b64:	4609                	li	a2,2
   11b66:	4709                	li	a4,2
   11b68:	07f00413          	li	s0,127
   11b6c:	c0b6                	sw	a3,64(sp)
   11b6e:	c2a6                	sw	s1,68(sp)
   11b70:	04f10423          	sb	a5,72(sp)
   11b74:	4681                	li	a3,0
   11b76:	00000073          	ecall
   11b7a:	02a46863          	bltu	s0,a0,11baa <_ZN20complex_full_dynamic3app17h2341df15bdc5cb8cE+0xcc>
   11b7e:	00b9a223          	sw	a1,4(s3)
   11b82:	4505                	li	a0,1
   11b84:	00a98023          	sb	a0,0(s3)
   11b88:	0088                	addi	a0,sp,64
   11b8a:	00009097          	auipc	ra,0x9
   11b8e:	35c080e7          	jalr	860(ra) # 1aee6 <_ZN9allow_pin12full_dynamic17unshare_if_shared17h3494b15e905518bcE>
   11b92:	0048                	addi	a0,sp,4
   11b94:	00009097          	auipc	ra,0x9
   11b98:	352080e7          	jalr	850(ra) # 1aee6 <_ZN9allow_pin12full_dynamic17unshare_if_shared17h3494b15e905518bcE>
   11b9c:	50fa                	lw	ra,188(sp)
   11b9e:	546a                	lw	s0,184(sp)
   11ba0:	54da                	lw	s1,180(sp)
   11ba2:	594a                	lw	s2,176(sp)
   11ba4:	59ba                	lw	s3,172(sp)
   11ba6:	6129                	addi	sp,sp,192
   11ba8:	8082                	ret
   11baa:	0048                	addi	a0,sp,4
   11bac:	00009097          	auipc	ra,0x9
   11bb0:	33a080e7          	jalr	826(ra) # 1aee6 <_ZN9allow_pin12full_dynamic17unshare_if_shared17h3494b15e905518bcE>
   11bb4:	0088                	addi	a0,sp,64
   11bb6:	00009097          	auipc	ra,0x9
   11bba:	330080e7          	jalr	816(ra) # 1aee6 <_ZN9allow_pin12full_dynamic17unshare_if_shared17h3494b15e905518bcE>
   11bbe:	0088                	addi	a0,sp,64
   11bc0:	00009097          	auipc	ra,0x9
   11bc4:	326080e7          	jalr	806(ra) # 1aee6 <_ZN9allow_pin12full_dynamic17unshare_if_shared17h3494b15e905518bcE>
   11bc8:	00198513          	addi	a0,s3,1
   11bcc:	05e00613          	li	a2,94
   11bd0:	85ca                	mv	a1,s2
   11bd2:	00009097          	auipc	ra,0x9
   11bd6:	3a0080e7          	jalr	928(ra) # 1af72 <memcpy>
   11bda:	4501                	li	a0,0
   11bdc:	b765                	j	11b84 <_ZN20complex_full_dynamic3app17h2341df15bdc5cb8cE+0xa6>

00011bde <_ZN20complex_full_dynamic3app17h23d60241138e25eaE>:
   11bde:	7131                	addi	sp,sp,-192
   11be0:	df06                	sw	ra,188(sp)
   11be2:	dd22                	sw	s0,184(sp)
   11be4:	db26                	sw	s1,180(sp)
   11be6:	d94a                	sw	s2,176(sp)
   11be8:	d74e                	sw	s3,172(sp)
   11bea:	89aa                	mv	s3,a0
   11bec:	4409                	li	s0,2
   11bee:	00810823          	sb	s0,16(sp)
   11bf2:	0844                	addi	s1,sp,20
   11bf4:	06300613          	li	a2,99
   11bf8:	8526                	mv	a0,s1
   11bfa:	00009097          	auipc	ra,0x9
   11bfe:	378080e7          	jalr	888(ra) # 1af72 <memcpy>
   11c02:	08410913          	addi	s2,sp,132
   11c06:	02700613          	li	a2,39
   11c0a:	854a                	mv	a0,s2
   11c0c:	4581                	li	a1,0
   11c0e:	00009097          	auipc	ra,0x9
   11c12:	2f8080e7          	jalr	760(ra) # 1af06 <memset>
   11c16:	8626                	mv	a2,s1
   11c18:	08810023          	sb	s0,128(sp)
   11c1c:	6509                	lui	a0,0x2
   11c1e:	449d                	li	s1,7
   11c20:	4811                	li	a6,4
   11c22:	459d                	li	a1,7
   11c24:	e5450793          	addi	a5,a0,-428 # 1e54 <.Lline_table_start1+0x1c29>
   11c28:	06300693          	li	a3,99
   11c2c:	4711                	li	a4,4
   11c2e:	853e                	mv	a0,a5
   11c30:	00000073          	ecall
   11c34:	04850263          	beq	a0,s0,11c78 <_ZN20complex_full_dynamic3app17h23d60241138e25eaE+0x9a>
   11c38:	853e                	mv	a0,a5
   11c3a:	4581                	li	a1,0
   11c3c:	864a                	mv	a2,s2
   11c3e:	c43e                	sw	a5,8(sp)
   11c40:	c626                	sw	s1,12(sp)
   11c42:	01010823          	sb	a6,16(sp)
   11c46:	448d                	li	s1,3
   11c48:	02700693          	li	a3,39
   11c4c:	470d                	li	a4,3
   11c4e:	00000073          	ecall
   11c52:	02850363          	beq	a0,s0,11c78 <_ZN20complex_full_dynamic3app17h23d60241138e25eaE+0x9a>
   11c56:	dcbe                	sw	a5,120(sp)
   11c58:	de82                	sw	zero,124(sp)
   11c5a:	08910023          	sb	s1,128(sp)
   11c5e:	6509                	lui	a0,0x2
   11c60:	459d                	li	a1,7
   11c62:	e5450513          	addi	a0,a0,-428 # 1e54 <.Lline_table_start1+0x1c29>
   11c66:	4709                	li	a4,2
   11c68:	07f00793          	li	a5,127
   11c6c:	4601                	li	a2,0
   11c6e:	4681                	li	a3,0
   11c70:	00000073          	ecall
   11c74:	02a7e863          	bltu	a5,a0,11ca4 <_ZN20complex_full_dynamic3app17h23d60241138e25eaE+0xc6>
   11c78:	00b9a223          	sw	a1,4(s3)
   11c7c:	4505                	li	a0,1
   11c7e:	00a98023          	sb	a0,0(s3)
   11c82:	18a8                	addi	a0,sp,120
   11c84:	00009097          	auipc	ra,0x9
   11c88:	262080e7          	jalr	610(ra) # 1aee6 <_ZN9allow_pin12full_dynamic17unshare_if_shared17h3494b15e905518bcE>
   11c8c:	0028                	addi	a0,sp,8
   11c8e:	00009097          	auipc	ra,0x9
   11c92:	258080e7          	jalr	600(ra) # 1aee6 <_ZN9allow_pin12full_dynamic17unshare_if_shared17h3494b15e905518bcE>
   11c96:	50fa                	lw	ra,188(sp)
   11c98:	546a                	lw	s0,184(sp)
   11c9a:	54da                	lw	s1,180(sp)
   11c9c:	594a                	lw	s2,176(sp)
   11c9e:	59ba                	lw	s3,172(sp)
   11ca0:	6129                	addi	sp,sp,192
   11ca2:	8082                	ret
   11ca4:	0028                	addi	a0,sp,8
   11ca6:	00009097          	auipc	ra,0x9
   11caa:	240080e7          	jalr	576(ra) # 1aee6 <_ZN9allow_pin12full_dynamic17unshare_if_shared17h3494b15e905518bcE>
   11cae:	18a8                	addi	a0,sp,120
   11cb0:	00009097          	auipc	ra,0x9
   11cb4:	236080e7          	jalr	566(ra) # 1aee6 <_ZN9allow_pin12full_dynamic17unshare_if_shared17h3494b15e905518bcE>
   11cb8:	18a8                	addi	a0,sp,120
   11cba:	00009097          	auipc	ra,0x9
   11cbe:	22c080e7          	jalr	556(ra) # 1aee6 <_ZN9allow_pin12full_dynamic17unshare_if_shared17h3494b15e905518bcE>
   11cc2:	00198513          	addi	a0,s3,1
   11cc6:	02700613          	li	a2,39
   11cca:	85ca                	mv	a1,s2
   11ccc:	00009097          	auipc	ra,0x9
   11cd0:	2a6080e7          	jalr	678(ra) # 1af72 <memcpy>
   11cd4:	4501                	li	a0,0
   11cd6:	b765                	j	11c7e <_ZN20complex_full_dynamic3app17h23d60241138e25eaE+0xa0>

00011cd8 <_ZN20complex_full_dynamic3app17h2bd0d25be7565a35E>:
   11cd8:	7119                	addi	sp,sp,-128
   11cda:	de86                	sw	ra,124(sp)
   11cdc:	dca2                	sw	s0,120(sp)
   11cde:	daa6                	sw	s1,116(sp)
   11ce0:	d8ca                	sw	s2,112(sp)
   11ce2:	d6ce                	sw	s3,108(sp)
   11ce4:	89aa                	mv	s3,a0
   11ce6:	4409                	li	s0,2
   11ce8:	00810423          	sb	s0,8(sp)
   11cec:	0064                	addi	s1,sp,12
   11cee:	02c00613          	li	a2,44
   11cf2:	8526                	mv	a0,s1
   11cf4:	00009097          	auipc	ra,0x9
   11cf8:	27e080e7          	jalr	638(ra) # 1af72 <memcpy>
   11cfc:	04410913          	addi	s2,sp,68
   11d00:	02500613          	li	a2,37
   11d04:	854a                	mv	a0,s2
   11d06:	4581                	li	a1,0
   11d08:	00009097          	auipc	ra,0x9
   11d0c:	1fe080e7          	jalr	510(ra) # 1af06 <memset>
   11d10:	8626                	mv	a2,s1
   11d12:	04810023          	sb	s0,64(sp)
   11d16:	77f00793          	li	a5,1919
   11d1a:	448d                	li	s1,3
   11d1c:	4811                	li	a6,4
   11d1e:	77f00513          	li	a0,1919
   11d22:	458d                	li	a1,3
   11d24:	02c00693          	li	a3,44
   11d28:	4711                	li	a4,4
   11d2a:	00000073          	ecall
   11d2e:	04850463          	beq	a0,s0,11d76 <_ZN20complex_full_dynamic3app17h2bd0d25be7565a35E+0x9e>
   11d32:	c03e                	sw	a5,0(sp)
   11d34:	c226                	sw	s1,4(sp)
   11d36:	01010423          	sb	a6,8(sp)
   11d3a:	77f00513          	li	a0,1919
   11d3e:	02500693          	li	a3,37
   11d42:	470d                	li	a4,3
   11d44:	4581                	li	a1,0
   11d46:	864a                	mv	a2,s2
   11d48:	00000073          	ecall
   11d4c:	02850563          	beq	a0,s0,11d76 <_ZN20complex_full_dynamic3app17h2bd0d25be7565a35E+0x9e>
   11d50:	77f00613          	li	a2,1919
   11d54:	468d                	li	a3,3
   11d56:	77f00513          	li	a0,1919
   11d5a:	458d                	li	a1,3
   11d5c:	4709                	li	a4,2
   11d5e:	07f00793          	li	a5,127
   11d62:	dc32                	sw	a2,56(sp)
   11d64:	de02                	sw	zero,60(sp)
   11d66:	04d10023          	sb	a3,64(sp)
   11d6a:	4601                	li	a2,0
   11d6c:	4681                	li	a3,0
   11d6e:	00000073          	ecall
   11d72:	02a7e863          	bltu	a5,a0,11da2 <_ZN20complex_full_dynamic3app17h2bd0d25be7565a35E+0xca>
   11d76:	00b9a223          	sw	a1,4(s3)
   11d7a:	4505                	li	a0,1
   11d7c:	00a98023          	sb	a0,0(s3)
   11d80:	1828                	addi	a0,sp,56
   11d82:	00009097          	auipc	ra,0x9
   11d86:	164080e7          	jalr	356(ra) # 1aee6 <_ZN9allow_pin12full_dynamic17unshare_if_shared17h3494b15e905518bcE>
   11d8a:	850a                	mv	a0,sp
   11d8c:	00009097          	auipc	ra,0x9
   11d90:	15a080e7          	jalr	346(ra) # 1aee6 <_ZN9allow_pin12full_dynamic17unshare_if_shared17h3494b15e905518bcE>
   11d94:	50f6                	lw	ra,124(sp)
   11d96:	5466                	lw	s0,120(sp)
   11d98:	54d6                	lw	s1,116(sp)
   11d9a:	5946                	lw	s2,112(sp)
   11d9c:	59b6                	lw	s3,108(sp)
   11d9e:	6109                	addi	sp,sp,128
   11da0:	8082                	ret
   11da2:	850a                	mv	a0,sp
   11da4:	00009097          	auipc	ra,0x9
   11da8:	142080e7          	jalr	322(ra) # 1aee6 <_ZN9allow_pin12full_dynamic17unshare_if_shared17h3494b15e905518bcE>
   11dac:	1828                	addi	a0,sp,56
   11dae:	00009097          	auipc	ra,0x9
   11db2:	138080e7          	jalr	312(ra) # 1aee6 <_ZN9allow_pin12full_dynamic17unshare_if_shared17h3494b15e905518bcE>
   11db6:	1828                	addi	a0,sp,56
   11db8:	00009097          	auipc	ra,0x9
   11dbc:	12e080e7          	jalr	302(ra) # 1aee6 <_ZN9allow_pin12full_dynamic17unshare_if_shared17h3494b15e905518bcE>
   11dc0:	00198513          	addi	a0,s3,1
   11dc4:	02500613          	li	a2,37
   11dc8:	85ca                	mv	a1,s2
   11dca:	00009097          	auipc	ra,0x9
   11dce:	1a8080e7          	jalr	424(ra) # 1af72 <memcpy>
   11dd2:	4501                	li	a0,0
   11dd4:	b765                	j	11d7c <_ZN20complex_full_dynamic3app17h2bd0d25be7565a35E+0xa4>

00011dd6 <_ZN20complex_full_dynamic3app17h2f04090f91e9988eE>:
   11dd6:	7155                	addi	sp,sp,-208
   11dd8:	c786                	sw	ra,204(sp)
   11dda:	c5a2                	sw	s0,200(sp)
   11ddc:	c3a6                	sw	s1,196(sp)
   11dde:	c1ca                	sw	s2,192(sp)
   11de0:	df4e                	sw	s3,188(sp)
   11de2:	89aa                	mv	s3,a0
   11de4:	4409                	li	s0,2
   11de6:	00810423          	sb	s0,8(sp)
   11dea:	0064                	addi	s1,sp,12
   11dec:	05600613          	li	a2,86
   11df0:	8526                	mv	a0,s1
   11df2:	00009097          	auipc	ra,0x9
   11df6:	180080e7          	jalr	384(ra) # 1af72 <memcpy>
   11dfa:	07010913          	addi	s2,sp,112
   11dfe:	04900613          	li	a2,73
   11e02:	854a                	mv	a0,s2
   11e04:	4581                	li	a1,0
   11e06:	00009097          	auipc	ra,0x9
   11e0a:	100080e7          	jalr	256(ra) # 1af06 <memset>
   11e0e:	8626                	mv	a2,s1
   11e10:	06810623          	sb	s0,108(sp)
   11e14:	6509                	lui	a0,0x2
   11e16:	4499                	li	s1,6
   11e18:	4811                	li	a6,4
   11e1a:	4599                	li	a1,6
   11e1c:	c6b50793          	addi	a5,a0,-917 # 1c6b <.Lline_table_start1+0x1a40>
   11e20:	05600693          	li	a3,86
   11e24:	4711                	li	a4,4
   11e26:	853e                	mv	a0,a5
   11e28:	00000073          	ecall
   11e2c:	04850363          	beq	a0,s0,11e72 <_ZN20complex_full_dynamic3app17h2f04090f91e9988eE+0x9c>
   11e30:	853e                	mv	a0,a5
   11e32:	864a                	mv	a2,s2
   11e34:	c03e                	sw	a5,0(sp)
   11e36:	c226                	sw	s1,4(sp)
   11e38:	01010423          	sb	a6,8(sp)
   11e3c:	448d                	li	s1,3
   11e3e:	4599                	li	a1,6
   11e40:	04900693          	li	a3,73
   11e44:	470d                	li	a4,3
   11e46:	00000073          	ecall
   11e4a:	02850463          	beq	a0,s0,11e72 <_ZN20complex_full_dynamic3app17h2f04090f91e9988eE+0x9c>
   11e4e:	4519                	li	a0,6
   11e50:	6689                	lui	a3,0x2
   11e52:	4599                	li	a1,6
   11e54:	4619                	li	a2,6
   11e56:	d2be                	sw	a5,100(sp)
   11e58:	d4aa                	sw	a0,104(sp)
   11e5a:	06910623          	sb	s1,108(sp)
   11e5e:	c6b68513          	addi	a0,a3,-917 # 1c6b <.Lline_table_start1+0x1a40>
   11e62:	4709                	li	a4,2
   11e64:	07f00793          	li	a5,127
   11e68:	4681                	li	a3,0
   11e6a:	00000073          	ecall
   11e6e:	02a7e863          	bltu	a5,a0,11e9e <_ZN20complex_full_dynamic3app17h2f04090f91e9988eE+0xc8>
   11e72:	00b9a223          	sw	a1,4(s3)
   11e76:	4505                	li	a0,1
   11e78:	00a98023          	sb	a0,0(s3)
   11e7c:	10c8                	addi	a0,sp,100
   11e7e:	00009097          	auipc	ra,0x9
   11e82:	068080e7          	jalr	104(ra) # 1aee6 <_ZN9allow_pin12full_dynamic17unshare_if_shared17h3494b15e905518bcE>
   11e86:	850a                	mv	a0,sp
   11e88:	00009097          	auipc	ra,0x9
   11e8c:	05e080e7          	jalr	94(ra) # 1aee6 <_ZN9allow_pin12full_dynamic17unshare_if_shared17h3494b15e905518bcE>
   11e90:	40be                	lw	ra,204(sp)
   11e92:	442e                	lw	s0,200(sp)
   11e94:	449e                	lw	s1,196(sp)
   11e96:	490e                	lw	s2,192(sp)
   11e98:	59fa                	lw	s3,188(sp)
   11e9a:	6169                	addi	sp,sp,208
   11e9c:	8082                	ret
   11e9e:	850a                	mv	a0,sp
   11ea0:	00009097          	auipc	ra,0x9
   11ea4:	046080e7          	jalr	70(ra) # 1aee6 <_ZN9allow_pin12full_dynamic17unshare_if_shared17h3494b15e905518bcE>
   11ea8:	10c8                	addi	a0,sp,100
   11eaa:	00009097          	auipc	ra,0x9
   11eae:	03c080e7          	jalr	60(ra) # 1aee6 <_ZN9allow_pin12full_dynamic17unshare_if_shared17h3494b15e905518bcE>
   11eb2:	10c8                	addi	a0,sp,100
   11eb4:	00009097          	auipc	ra,0x9
   11eb8:	032080e7          	jalr	50(ra) # 1aee6 <_ZN9allow_pin12full_dynamic17unshare_if_shared17h3494b15e905518bcE>
   11ebc:	00198513          	addi	a0,s3,1
   11ec0:	04900613          	li	a2,73
   11ec4:	85ca                	mv	a1,s2
   11ec6:	00009097          	auipc	ra,0x9
   11eca:	0ac080e7          	jalr	172(ra) # 1af72 <memcpy>
   11ece:	4501                	li	a0,0
   11ed0:	b765                	j	11e78 <_ZN20complex_full_dynamic3app17h2f04090f91e9988eE+0xa2>

00011ed2 <_ZN20complex_full_dynamic3app17h3072817c0c18bb2dE>:
   11ed2:	7151                	addi	sp,sp,-240
   11ed4:	d786                	sw	ra,236(sp)
   11ed6:	d5a2                	sw	s0,232(sp)
   11ed8:	d3a6                	sw	s1,228(sp)
   11eda:	d1ca                	sw	s2,224(sp)
   11edc:	cfce                	sw	s3,220(sp)
   11ede:	89aa                	mv	s3,a0
   11ee0:	4409                	li	s0,2
   11ee2:	00810a23          	sb	s0,20(sp)
   11ee6:	0824                	addi	s1,sp,24
   11ee8:	05e00613          	li	a2,94
   11eec:	8526                	mv	a0,s1
   11eee:	00009097          	auipc	ra,0x9
   11ef2:	084080e7          	jalr	132(ra) # 1af72 <memcpy>
   11ef6:	08410913          	addi	s2,sp,132
   11efa:	05500613          	li	a2,85
   11efe:	854a                	mv	a0,s2
   11f00:	4581                	li	a1,0
   11f02:	00009097          	auipc	ra,0x9
   11f06:	004080e7          	jalr	4(ra) # 1af06 <memset>
   11f0a:	8626                	mv	a2,s1
   11f0c:	08810023          	sb	s0,128(sp)
   11f10:	6505                	lui	a0,0x1
   11f12:	449d                	li	s1,7
   11f14:	4811                	li	a6,4
   11f16:	459d                	li	a1,7
   11f18:	78a50793          	addi	a5,a0,1930 # 178a <.Lline_table_start1+0x155f>
   11f1c:	05e00693          	li	a3,94
   11f20:	4711                	li	a4,4
   11f22:	853e                	mv	a0,a5
   11f24:	00000073          	ecall
   11f28:	04850263          	beq	a0,s0,11f6c <_ZN20complex_full_dynamic3app17h3072817c0c18bb2dE+0x9a>
   11f2c:	853e                	mv	a0,a5
   11f2e:	864a                	mv	a2,s2
   11f30:	c63e                	sw	a5,12(sp)
   11f32:	c826                	sw	s1,16(sp)
   11f34:	01010a23          	sb	a6,20(sp)
   11f38:	448d                	li	s1,3
   11f3a:	458d                	li	a1,3
   11f3c:	05500693          	li	a3,85
   11f40:	470d                	li	a4,3
   11f42:	00000073          	ecall
   11f46:	02850363          	beq	a0,s0,11f6c <_ZN20complex_full_dynamic3app17h3072817c0c18bb2dE+0x9a>
   11f4a:	dcbe                	sw	a5,120(sp)
   11f4c:	dea6                	sw	s1,124(sp)
   11f4e:	08910023          	sb	s1,128(sp)
   11f52:	6505                	lui	a0,0x1
   11f54:	459d                	li	a1,7
   11f56:	460d                	li	a2,3
   11f58:	78a50513          	addi	a0,a0,1930 # 178a <.Lline_table_start1+0x155f>
   11f5c:	4709                	li	a4,2
   11f5e:	07f00793          	li	a5,127
   11f62:	4681                	li	a3,0
   11f64:	00000073          	ecall
   11f68:	02a7e863          	bltu	a5,a0,11f98 <_ZN20complex_full_dynamic3app17h3072817c0c18bb2dE+0xc6>
   11f6c:	00b9a223          	sw	a1,4(s3)
   11f70:	4505                	li	a0,1
   11f72:	00a98023          	sb	a0,0(s3)
   11f76:	18a8                	addi	a0,sp,120
   11f78:	00009097          	auipc	ra,0x9
   11f7c:	f6e080e7          	jalr	-146(ra) # 1aee6 <_ZN9allow_pin12full_dynamic17unshare_if_shared17h3494b15e905518bcE>
   11f80:	0068                	addi	a0,sp,12
   11f82:	00009097          	auipc	ra,0x9
   11f86:	f64080e7          	jalr	-156(ra) # 1aee6 <_ZN9allow_pin12full_dynamic17unshare_if_shared17h3494b15e905518bcE>
   11f8a:	50be                	lw	ra,236(sp)
   11f8c:	542e                	lw	s0,232(sp)
   11f8e:	549e                	lw	s1,228(sp)
   11f90:	590e                	lw	s2,224(sp)
   11f92:	49fe                	lw	s3,220(sp)
   11f94:	616d                	addi	sp,sp,240
   11f96:	8082                	ret
   11f98:	0068                	addi	a0,sp,12
   11f9a:	00009097          	auipc	ra,0x9
   11f9e:	f4c080e7          	jalr	-180(ra) # 1aee6 <_ZN9allow_pin12full_dynamic17unshare_if_shared17h3494b15e905518bcE>
   11fa2:	18a8                	addi	a0,sp,120
   11fa4:	00009097          	auipc	ra,0x9
   11fa8:	f42080e7          	jalr	-190(ra) # 1aee6 <_ZN9allow_pin12full_dynamic17unshare_if_shared17h3494b15e905518bcE>
   11fac:	18a8                	addi	a0,sp,120
   11fae:	00009097          	auipc	ra,0x9
   11fb2:	f38080e7          	jalr	-200(ra) # 1aee6 <_ZN9allow_pin12full_dynamic17unshare_if_shared17h3494b15e905518bcE>
   11fb6:	00198513          	addi	a0,s3,1
   11fba:	05500613          	li	a2,85
   11fbe:	85ca                	mv	a1,s2
   11fc0:	00009097          	auipc	ra,0x9
   11fc4:	fb2080e7          	jalr	-78(ra) # 1af72 <memcpy>
   11fc8:	4501                	li	a0,0
   11fca:	b765                	j	11f72 <_ZN20complex_full_dynamic3app17h3072817c0c18bb2dE+0xa0>

00011fcc <_ZN20complex_full_dynamic3app17h358eb17a145ebb7cE>:
   11fcc:	7175                	addi	sp,sp,-144
   11fce:	c706                	sw	ra,140(sp)
   11fd0:	c522                	sw	s0,136(sp)
   11fd2:	c326                	sw	s1,132(sp)
   11fd4:	c14a                	sw	s2,128(sp)
   11fd6:	dece                	sw	s3,124(sp)
   11fd8:	892a                	mv	s2,a0
   11fda:	4409                	li	s0,2
   11fdc:	00810423          	sb	s0,8(sp)
   11fe0:	0064                	addi	s1,sp,12
   11fe2:	05100613          	li	a2,81
   11fe6:	8526                	mv	a0,s1
   11fe8:	00009097          	auipc	ra,0x9
   11fec:	f8a080e7          	jalr	-118(ra) # 1af72 <memcpy>
   11ff0:	4581                	li	a1,0
   11ff2:	8626                	mv	a2,s1
   11ff4:	06011c23          	sh	zero,120(sp)
   11ff8:	06010d23          	sb	zero,122(sp)
   11ffc:	06810423          	sb	s0,104(sp)
   12000:	d682                	sw	zero,108(sp)
   12002:	d882                	sw	zero,112(sp)
   12004:	da82                	sw	zero,116(sp)
   12006:	6505                	lui	a0,0x1
   12008:	4491                	li	s1,4
   1200a:	3bf50793          	addi	a5,a0,959 # 13bf <.Lline_table_start1+0x1194>
   1200e:	05100693          	li	a3,81
   12012:	4711                	li	a4,4
   12014:	853e                	mv	a0,a5
   12016:	00000073          	ecall
   1201a:	04850363          	beq	a0,s0,12060 <_ZN20complex_full_dynamic3app17h358eb17a145ebb7cE+0x94>
   1201e:	853e                	mv	a0,a5
   12020:	06c10993          	addi	s3,sp,108
   12024:	c03e                	sw	a5,0(sp)
   12026:	c202                	sw	zero,4(sp)
   12028:	00910423          	sb	s1,8(sp)
   1202c:	448d                	li	s1,3
   1202e:	458d                	li	a1,3
   12030:	46bd                	li	a3,15
   12032:	470d                	li	a4,3
   12034:	864e                	mv	a2,s3
   12036:	00000073          	ecall
   1203a:	02850363          	beq	a0,s0,12060 <_ZN20complex_full_dynamic3app17h358eb17a145ebb7cE+0x94>
   1203e:	d0be                	sw	a5,96(sp)
   12040:	d2a6                	sw	s1,100(sp)
   12042:	06910423          	sb	s1,104(sp)
   12046:	6505                	lui	a0,0x1
   12048:	460d                	li	a2,3
   1204a:	3bf50513          	addi	a0,a0,959 # 13bf <.Lline_table_start1+0x1194>
   1204e:	4709                	li	a4,2
   12050:	07f00793          	li	a5,127
   12054:	4581                	li	a1,0
   12056:	4681                	li	a3,0
   12058:	00000073          	ecall
   1205c:	02a7e863          	bltu	a5,a0,1208c <_ZN20complex_full_dynamic3app17h358eb17a145ebb7cE+0xc0>
   12060:	00b92223          	sw	a1,4(s2)
   12064:	4505                	li	a0,1
   12066:	00a90023          	sb	a0,0(s2)
   1206a:	1088                	addi	a0,sp,96
   1206c:	00009097          	auipc	ra,0x9
   12070:	e7a080e7          	jalr	-390(ra) # 1aee6 <_ZN9allow_pin12full_dynamic17unshare_if_shared17h3494b15e905518bcE>
   12074:	850a                	mv	a0,sp
   12076:	00009097          	auipc	ra,0x9
   1207a:	e70080e7          	jalr	-400(ra) # 1aee6 <_ZN9allow_pin12full_dynamic17unshare_if_shared17h3494b15e905518bcE>
   1207e:	40ba                	lw	ra,140(sp)
   12080:	442a                	lw	s0,136(sp)
   12082:	449a                	lw	s1,132(sp)
   12084:	490a                	lw	s2,128(sp)
   12086:	59f6                	lw	s3,124(sp)
   12088:	6149                	addi	sp,sp,144
   1208a:	8082                	ret
   1208c:	850a                	mv	a0,sp
   1208e:	00009097          	auipc	ra,0x9
   12092:	e58080e7          	jalr	-424(ra) # 1aee6 <_ZN9allow_pin12full_dynamic17unshare_if_shared17h3494b15e905518bcE>
   12096:	1088                	addi	a0,sp,96
   12098:	00009097          	auipc	ra,0x9
   1209c:	e4e080e7          	jalr	-434(ra) # 1aee6 <_ZN9allow_pin12full_dynamic17unshare_if_shared17h3494b15e905518bcE>
   120a0:	1088                	addi	a0,sp,96
   120a2:	00009097          	auipc	ra,0x9
   120a6:	e44080e7          	jalr	-444(ra) # 1aee6 <_ZN9allow_pin12full_dynamic17unshare_if_shared17h3494b15e905518bcE>
   120aa:	00190513          	addi	a0,s2,1
   120ae:	463d                	li	a2,15
   120b0:	85ce                	mv	a1,s3
   120b2:	00009097          	auipc	ra,0x9
   120b6:	ec0080e7          	jalr	-320(ra) # 1af72 <memcpy>
   120ba:	4501                	li	a0,0
   120bc:	b76d                	j	12066 <_ZN20complex_full_dynamic3app17h358eb17a145ebb7cE+0x9a>

000120be <_ZN20complex_full_dynamic3app17h3b159bc3f1a47dedE>:
   120be:	7119                	addi	sp,sp,-128
   120c0:	de86                	sw	ra,124(sp)
   120c2:	dca2                	sw	s0,120(sp)
   120c4:	daa6                	sw	s1,116(sp)
   120c6:	d8ca                	sw	s2,112(sp)
   120c8:	d6ce                	sw	s3,108(sp)
   120ca:	89aa                	mv	s3,a0
   120cc:	4409                	li	s0,2
   120ce:	00810a23          	sb	s0,20(sp)
   120d2:	0824                	addi	s1,sp,24
   120d4:	02300613          	li	a2,35
   120d8:	8526                	mv	a0,s1
   120da:	00009097          	auipc	ra,0x9
   120de:	e98080e7          	jalr	-360(ra) # 1af72 <memcpy>
   120e2:	04810913          	addi	s2,sp,72
   120e6:	02400613          	li	a2,36
   120ea:	854a                	mv	a0,s2
   120ec:	4581                	li	a1,0
   120ee:	00009097          	auipc	ra,0x9
   120f2:	e18080e7          	jalr	-488(ra) # 1af06 <memset>
   120f6:	8626                	mv	a2,s1
   120f8:	04810223          	sb	s0,68(sp)
   120fc:	6509                	lui	a0,0x2
   120fe:	4491                	li	s1,4
   12100:	4591                	li	a1,4
   12102:	bd650793          	addi	a5,a0,-1066 # 1bd6 <.Lline_table_start1+0x19ab>
   12106:	02300693          	li	a3,35
   1210a:	4711                	li	a4,4
   1210c:	853e                	mv	a0,a5
   1210e:	00000073          	ecall
   12112:	04850363          	beq	a0,s0,12158 <_ZN20complex_full_dynamic3app17h3b159bc3f1a47dedE+0x9a>
   12116:	853e                	mv	a0,a5
   12118:	864a                	mv	a2,s2
   1211a:	c63e                	sw	a5,12(sp)
   1211c:	c826                	sw	s1,16(sp)
   1211e:	00910a23          	sb	s1,20(sp)
   12122:	44a1                	li	s1,8
   12124:	480d                	li	a6,3
   12126:	45a1                	li	a1,8
   12128:	02400693          	li	a3,36
   1212c:	470d                	li	a4,3
   1212e:	00000073          	ecall
   12132:	02850363          	beq	a0,s0,12158 <_ZN20complex_full_dynamic3app17h3b159bc3f1a47dedE+0x9a>
   12136:	de3e                	sw	a5,60(sp)
   12138:	c0a6                	sw	s1,64(sp)
   1213a:	05010223          	sb	a6,68(sp)
   1213e:	6509                	lui	a0,0x2
   12140:	4591                	li	a1,4
   12142:	4621                	li	a2,8
   12144:	bd650513          	addi	a0,a0,-1066 # 1bd6 <.Lline_table_start1+0x19ab>
   12148:	4709                	li	a4,2
   1214a:	07f00793          	li	a5,127
   1214e:	4681                	li	a3,0
   12150:	00000073          	ecall
   12154:	02a7e863          	bltu	a5,a0,12184 <_ZN20complex_full_dynamic3app17h3b159bc3f1a47dedE+0xc6>
   12158:	00b9a223          	sw	a1,4(s3)
   1215c:	4505                	li	a0,1
   1215e:	00a98023          	sb	a0,0(s3)
   12162:	1868                	addi	a0,sp,60
   12164:	00009097          	auipc	ra,0x9
   12168:	d82080e7          	jalr	-638(ra) # 1aee6 <_ZN9allow_pin12full_dynamic17unshare_if_shared17h3494b15e905518bcE>
   1216c:	0068                	addi	a0,sp,12
   1216e:	00009097          	auipc	ra,0x9
   12172:	d78080e7          	jalr	-648(ra) # 1aee6 <_ZN9allow_pin12full_dynamic17unshare_if_shared17h3494b15e905518bcE>
   12176:	50f6                	lw	ra,124(sp)
   12178:	5466                	lw	s0,120(sp)
   1217a:	54d6                	lw	s1,116(sp)
   1217c:	5946                	lw	s2,112(sp)
   1217e:	59b6                	lw	s3,108(sp)
   12180:	6109                	addi	sp,sp,128
   12182:	8082                	ret
   12184:	0068                	addi	a0,sp,12
   12186:	00009097          	auipc	ra,0x9
   1218a:	d60080e7          	jalr	-672(ra) # 1aee6 <_ZN9allow_pin12full_dynamic17unshare_if_shared17h3494b15e905518bcE>
   1218e:	1868                	addi	a0,sp,60
   12190:	00009097          	auipc	ra,0x9
   12194:	d56080e7          	jalr	-682(ra) # 1aee6 <_ZN9allow_pin12full_dynamic17unshare_if_shared17h3494b15e905518bcE>
   12198:	1868                	addi	a0,sp,60
   1219a:	00009097          	auipc	ra,0x9
   1219e:	d4c080e7          	jalr	-692(ra) # 1aee6 <_ZN9allow_pin12full_dynamic17unshare_if_shared17h3494b15e905518bcE>
   121a2:	00198513          	addi	a0,s3,1
   121a6:	02400613          	li	a2,36
   121aa:	85ca                	mv	a1,s2
   121ac:	00009097          	auipc	ra,0x9
   121b0:	dc6080e7          	jalr	-570(ra) # 1af72 <memcpy>
   121b4:	4501                	li	a0,0
   121b6:	b765                	j	1215e <_ZN20complex_full_dynamic3app17h3b159bc3f1a47dedE+0xa0>

000121b8 <_ZN20complex_full_dynamic3app17h3edecaf4ebbeb499E>:
   121b8:	7159                	addi	sp,sp,-112
   121ba:	d686                	sw	ra,108(sp)
   121bc:	d4a2                	sw	s0,104(sp)
   121be:	d2a6                	sw	s1,100(sp)
   121c0:	d0ca                	sw	s2,96(sp)
   121c2:	cece                	sw	s3,92(sp)
   121c4:	892a                	mv	s2,a0
   121c6:	4409                	li	s0,2
   121c8:	00810423          	sb	s0,8(sp)
   121cc:	0064                	addi	s1,sp,12
   121ce:	03200613          	li	a2,50
   121d2:	8526                	mv	a0,s1
   121d4:	00009097          	auipc	ra,0x9
   121d8:	d9e080e7          	jalr	-610(ra) # 1af72 <memcpy>
   121dc:	8626                	mv	a2,s1
   121de:	cc82                	sw	zero,88(sp)
   121e0:	04810423          	sb	s0,72(sp)
   121e4:	c682                	sw	zero,76(sp)
   121e6:	c882                	sw	zero,80(sp)
   121e8:	ca82                	sw	zero,84(sp)
   121ea:	6509                	lui	a0,0x2
   121ec:	4491                	li	s1,4
   121ee:	4591                	li	a1,4
   121f0:	9d650793          	addi	a5,a0,-1578 # 19d6 <.Lline_table_start1+0x17ab>
   121f4:	03200693          	li	a3,50
   121f8:	4711                	li	a4,4
   121fa:	853e                	mv	a0,a5
   121fc:	00000073          	ecall
   12200:	04850463          	beq	a0,s0,12248 <_ZN20complex_full_dynamic3app17h3edecaf4ebbeb499E+0x90>
   12204:	853e                	mv	a0,a5
   12206:	04c10993          	addi	s3,sp,76
   1220a:	c03e                	sw	a5,0(sp)
   1220c:	c226                	sw	s1,4(sp)
   1220e:	00910423          	sb	s1,8(sp)
   12212:	44a5                	li	s1,9
   12214:	480d                	li	a6,3
   12216:	45a5                	li	a1,9
   12218:	46c1                	li	a3,16
   1221a:	470d                	li	a4,3
   1221c:	864e                	mv	a2,s3
   1221e:	00000073          	ecall
   12222:	02850363          	beq	a0,s0,12248 <_ZN20complex_full_dynamic3app17h3edecaf4ebbeb499E+0x90>
   12226:	c0be                	sw	a5,64(sp)
   12228:	c2a6                	sw	s1,68(sp)
   1222a:	05010423          	sb	a6,72(sp)
   1222e:	6509                	lui	a0,0x2
   12230:	4591                	li	a1,4
   12232:	4625                	li	a2,9
   12234:	9d650513          	addi	a0,a0,-1578 # 19d6 <.Lline_table_start1+0x17ab>
   12238:	4709                	li	a4,2
   1223a:	07f00793          	li	a5,127
   1223e:	4681                	li	a3,0
   12240:	00000073          	ecall
   12244:	02a7e863          	bltu	a5,a0,12274 <_ZN20complex_full_dynamic3app17h3edecaf4ebbeb499E+0xbc>
   12248:	00b92223          	sw	a1,4(s2)
   1224c:	4505                	li	a0,1
   1224e:	00a90023          	sb	a0,0(s2)
   12252:	0088                	addi	a0,sp,64
   12254:	00009097          	auipc	ra,0x9
   12258:	c92080e7          	jalr	-878(ra) # 1aee6 <_ZN9allow_pin12full_dynamic17unshare_if_shared17h3494b15e905518bcE>
   1225c:	850a                	mv	a0,sp
   1225e:	00009097          	auipc	ra,0x9
   12262:	c88080e7          	jalr	-888(ra) # 1aee6 <_ZN9allow_pin12full_dynamic17unshare_if_shared17h3494b15e905518bcE>
   12266:	50b6                	lw	ra,108(sp)
   12268:	5426                	lw	s0,104(sp)
   1226a:	5496                	lw	s1,100(sp)
   1226c:	5906                	lw	s2,96(sp)
   1226e:	49f6                	lw	s3,92(sp)
   12270:	6165                	addi	sp,sp,112
   12272:	8082                	ret
   12274:	850a                	mv	a0,sp
   12276:	00009097          	auipc	ra,0x9
   1227a:	c70080e7          	jalr	-912(ra) # 1aee6 <_ZN9allow_pin12full_dynamic17unshare_if_shared17h3494b15e905518bcE>
   1227e:	0088                	addi	a0,sp,64
   12280:	00009097          	auipc	ra,0x9
   12284:	c66080e7          	jalr	-922(ra) # 1aee6 <_ZN9allow_pin12full_dynamic17unshare_if_shared17h3494b15e905518bcE>
   12288:	0088                	addi	a0,sp,64
   1228a:	00009097          	auipc	ra,0x9
   1228e:	c5c080e7          	jalr	-932(ra) # 1aee6 <_ZN9allow_pin12full_dynamic17unshare_if_shared17h3494b15e905518bcE>
   12292:	00190513          	addi	a0,s2,1
   12296:	4641                	li	a2,16
   12298:	85ce                	mv	a1,s3
   1229a:	00009097          	auipc	ra,0x9
   1229e:	cd8080e7          	jalr	-808(ra) # 1af72 <memcpy>
   122a2:	4501                	li	a0,0
   122a4:	b76d                	j	1224e <_ZN20complex_full_dynamic3app17h3edecaf4ebbeb499E+0x96>

000122a6 <_ZN20complex_full_dynamic3app17h4023f83728cafaafE>:
   122a6:	7175                	addi	sp,sp,-144
   122a8:	c706                	sw	ra,140(sp)
   122aa:	c522                	sw	s0,136(sp)
   122ac:	c326                	sw	s1,132(sp)
   122ae:	c14a                	sw	s2,128(sp)
   122b0:	dece                	sw	s3,124(sp)
   122b2:	89aa                	mv	s3,a0
   122b4:	4409                	li	s0,2
   122b6:	00810623          	sb	s0,12(sp)
   122ba:	0804                	addi	s1,sp,16
   122bc:	03800613          	li	a2,56
   122c0:	8526                	mv	a0,s1
   122c2:	00009097          	auipc	ra,0x9
   122c6:	cb0080e7          	jalr	-848(ra) # 1af72 <memcpy>
   122ca:	05410913          	addi	s2,sp,84
   122ce:	02700613          	li	a2,39
   122d2:	854a                	mv	a0,s2
   122d4:	4581                	li	a1,0
   122d6:	00009097          	auipc	ra,0x9
   122da:	c30080e7          	jalr	-976(ra) # 1af06 <memset>
   122de:	8626                	mv	a2,s1
   122e0:	04810823          	sb	s0,80(sp)
   122e4:	6505                	lui	a0,0x1
   122e6:	4491                	li	s1,4
   122e8:	4589                	li	a1,2
   122ea:	e2b50793          	addi	a5,a0,-469 # e2b <.Lline_table_start1+0xc00>
   122ee:	03800693          	li	a3,56
   122f2:	4711                	li	a4,4
   122f4:	853e                	mv	a0,a5
   122f6:	00000073          	ecall
   122fa:	04850363          	beq	a0,s0,12340 <_ZN20complex_full_dynamic3app17h4023f83728cafaafE+0x9a>
   122fe:	853e                	mv	a0,a5
   12300:	864a                	mv	a2,s2
   12302:	c23e                	sw	a5,4(sp)
   12304:	c422                	sw	s0,8(sp)
   12306:	00910623          	sb	s1,12(sp)
   1230a:	44a1                	li	s1,8
   1230c:	480d                	li	a6,3
   1230e:	45a1                	li	a1,8
   12310:	02700693          	li	a3,39
   12314:	470d                	li	a4,3
   12316:	00000073          	ecall
   1231a:	02850363          	beq	a0,s0,12340 <_ZN20complex_full_dynamic3app17h4023f83728cafaafE+0x9a>
   1231e:	c4be                	sw	a5,72(sp)
   12320:	c6a6                	sw	s1,76(sp)
   12322:	05010823          	sb	a6,80(sp)
   12326:	6505                	lui	a0,0x1
   12328:	4589                	li	a1,2
   1232a:	4621                	li	a2,8
   1232c:	e2b50513          	addi	a0,a0,-469 # e2b <.Lline_table_start1+0xc00>
   12330:	4709                	li	a4,2
   12332:	07f00793          	li	a5,127
   12336:	4681                	li	a3,0
   12338:	00000073          	ecall
   1233c:	02a7e863          	bltu	a5,a0,1236c <_ZN20complex_full_dynamic3app17h4023f83728cafaafE+0xc6>
   12340:	00b9a223          	sw	a1,4(s3)
   12344:	4505                	li	a0,1
   12346:	00a98023          	sb	a0,0(s3)
   1234a:	00a8                	addi	a0,sp,72
   1234c:	00009097          	auipc	ra,0x9
   12350:	b9a080e7          	jalr	-1126(ra) # 1aee6 <_ZN9allow_pin12full_dynamic17unshare_if_shared17h3494b15e905518bcE>
   12354:	0048                	addi	a0,sp,4
   12356:	00009097          	auipc	ra,0x9
   1235a:	b90080e7          	jalr	-1136(ra) # 1aee6 <_ZN9allow_pin12full_dynamic17unshare_if_shared17h3494b15e905518bcE>
   1235e:	40ba                	lw	ra,140(sp)
   12360:	442a                	lw	s0,136(sp)
   12362:	449a                	lw	s1,132(sp)
   12364:	490a                	lw	s2,128(sp)
   12366:	59f6                	lw	s3,124(sp)
   12368:	6149                	addi	sp,sp,144
   1236a:	8082                	ret
   1236c:	0048                	addi	a0,sp,4
   1236e:	00009097          	auipc	ra,0x9
   12372:	b78080e7          	jalr	-1160(ra) # 1aee6 <_ZN9allow_pin12full_dynamic17unshare_if_shared17h3494b15e905518bcE>
   12376:	00a8                	addi	a0,sp,72
   12378:	00009097          	auipc	ra,0x9
   1237c:	b6e080e7          	jalr	-1170(ra) # 1aee6 <_ZN9allow_pin12full_dynamic17unshare_if_shared17h3494b15e905518bcE>
   12380:	00a8                	addi	a0,sp,72
   12382:	00009097          	auipc	ra,0x9
   12386:	b64080e7          	jalr	-1180(ra) # 1aee6 <_ZN9allow_pin12full_dynamic17unshare_if_shared17h3494b15e905518bcE>
   1238a:	00198513          	addi	a0,s3,1
   1238e:	02700613          	li	a2,39
   12392:	85ca                	mv	a1,s2
   12394:	00009097          	auipc	ra,0x9
   12398:	bde080e7          	jalr	-1058(ra) # 1af72 <memcpy>
   1239c:	4501                	li	a0,0
   1239e:	b765                	j	12346 <_ZN20complex_full_dynamic3app17h4023f83728cafaafE+0xa0>

000123a0 <_ZN20complex_full_dynamic3app17h411f5830297a0671E>:
   123a0:	7135                	addi	sp,sp,-160
   123a2:	cf06                	sw	ra,156(sp)
   123a4:	cd22                	sw	s0,152(sp)
   123a6:	cb26                	sw	s1,148(sp)
   123a8:	c94a                	sw	s2,144(sp)
   123aa:	c74e                	sw	s3,140(sp)
   123ac:	892a                	mv	s2,a0
   123ae:	4409                	li	s0,2
   123b0:	00810423          	sb	s0,8(sp)
   123b4:	0064                	addi	s1,sp,12
   123b6:	05d00613          	li	a2,93
   123ba:	8526                	mv	a0,s1
   123bc:	00009097          	auipc	ra,0x9
   123c0:	bb6080e7          	jalr	-1098(ra) # 1af72 <memcpy>
   123c4:	4581                	li	a1,0
   123c6:	8626                	mv	a2,s1
   123c8:	c302                	sw	zero,132(sp)
   123ca:	08011423          	sh	zero,136(sp)
   123ce:	06810a23          	sb	s0,116(sp)
   123d2:	dc82                	sw	zero,120(sp)
   123d4:	de82                	sw	zero,124(sp)
   123d6:	c102                	sw	zero,128(sp)
   123d8:	6505                	lui	a0,0x1
   123da:	4491                	li	s1,4
   123dc:	5f150793          	addi	a5,a0,1521 # 15f1 <.Lline_table_start1+0x13c6>
   123e0:	05d00693          	li	a3,93
   123e4:	4711                	li	a4,4
   123e6:	853e                	mv	a0,a5
   123e8:	00000073          	ecall
   123ec:	04850463          	beq	a0,s0,12434 <_ZN20complex_full_dynamic3app17h411f5830297a0671E+0x94>
   123f0:	853e                	mv	a0,a5
   123f2:	07810993          	addi	s3,sp,120
   123f6:	c03e                	sw	a5,0(sp)
   123f8:	c202                	sw	zero,4(sp)
   123fa:	00910423          	sb	s1,8(sp)
   123fe:	448d                	li	s1,3
   12400:	4589                	li	a1,2
   12402:	46c9                	li	a3,18
   12404:	470d                	li	a4,3
   12406:	864e                	mv	a2,s3
   12408:	00000073          	ecall
   1240c:	02850463          	beq	a0,s0,12434 <_ZN20complex_full_dynamic3app17h411f5830297a0671E+0x94>
   12410:	4509                	li	a0,2
   12412:	6585                	lui	a1,0x1
   12414:	4609                	li	a2,2
   12416:	d6be                	sw	a5,108(sp)
   12418:	d8aa                	sw	a0,112(sp)
   1241a:	06910a23          	sb	s1,116(sp)
   1241e:	5f158513          	addi	a0,a1,1521 # 15f1 <.Lline_table_start1+0x13c6>
   12422:	4709                	li	a4,2
   12424:	07f00793          	li	a5,127
   12428:	4581                	li	a1,0
   1242a:	4681                	li	a3,0
   1242c:	00000073          	ecall
   12430:	02a7e863          	bltu	a5,a0,12460 <_ZN20complex_full_dynamic3app17h411f5830297a0671E+0xc0>
   12434:	00b92223          	sw	a1,4(s2)
   12438:	4505                	li	a0,1
   1243a:	00a90023          	sb	a0,0(s2)
   1243e:	10e8                	addi	a0,sp,108
   12440:	00009097          	auipc	ra,0x9
   12444:	aa6080e7          	jalr	-1370(ra) # 1aee6 <_ZN9allow_pin12full_dynamic17unshare_if_shared17h3494b15e905518bcE>
   12448:	850a                	mv	a0,sp
   1244a:	00009097          	auipc	ra,0x9
   1244e:	a9c080e7          	jalr	-1380(ra) # 1aee6 <_ZN9allow_pin12full_dynamic17unshare_if_shared17h3494b15e905518bcE>
   12452:	40fa                	lw	ra,156(sp)
   12454:	446a                	lw	s0,152(sp)
   12456:	44da                	lw	s1,148(sp)
   12458:	494a                	lw	s2,144(sp)
   1245a:	49ba                	lw	s3,140(sp)
   1245c:	610d                	addi	sp,sp,160
   1245e:	8082                	ret
   12460:	850a                	mv	a0,sp
   12462:	00009097          	auipc	ra,0x9
   12466:	a84080e7          	jalr	-1404(ra) # 1aee6 <_ZN9allow_pin12full_dynamic17unshare_if_shared17h3494b15e905518bcE>
   1246a:	10e8                	addi	a0,sp,108
   1246c:	00009097          	auipc	ra,0x9
   12470:	a7a080e7          	jalr	-1414(ra) # 1aee6 <_ZN9allow_pin12full_dynamic17unshare_if_shared17h3494b15e905518bcE>
   12474:	10e8                	addi	a0,sp,108
   12476:	00009097          	auipc	ra,0x9
   1247a:	a70080e7          	jalr	-1424(ra) # 1aee6 <_ZN9allow_pin12full_dynamic17unshare_if_shared17h3494b15e905518bcE>
   1247e:	00190513          	addi	a0,s2,1
   12482:	4649                	li	a2,18
   12484:	85ce                	mv	a1,s3
   12486:	00009097          	auipc	ra,0x9
   1248a:	aec080e7          	jalr	-1300(ra) # 1af72 <memcpy>
   1248e:	4501                	li	a0,0
   12490:	b76d                	j	1243a <_ZN20complex_full_dynamic3app17h411f5830297a0671E+0x9a>

00012492 <_ZN20complex_full_dynamic3app17h41560c565fedd2aeE>:
   12492:	7119                	addi	sp,sp,-128
   12494:	de86                	sw	ra,124(sp)
   12496:	dca2                	sw	s0,120(sp)
   12498:	daa6                	sw	s1,116(sp)
   1249a:	d8ca                	sw	s2,112(sp)
   1249c:	d6ce                	sw	s3,108(sp)
   1249e:	892a                	mv	s2,a0
   124a0:	4409                	li	s0,2
   124a2:	00810a23          	sb	s0,20(sp)
   124a6:	0824                	addi	s1,sp,24
   124a8:	03600613          	li	a2,54
   124ac:	8526                	mv	a0,s1
   124ae:	00009097          	auipc	ra,0x9
   124b2:	ac4080e7          	jalr	-1340(ra) # 1af72 <memcpy>
   124b6:	8626                	mv	a2,s1
   124b8:	06011423          	sh	zero,104(sp)
   124bc:	06010523          	sb	zero,106(sp)
   124c0:	04810c23          	sb	s0,88(sp)
   124c4:	ce82                	sw	zero,92(sp)
   124c6:	d082                	sw	zero,96(sp)
   124c8:	d282                	sw	zero,100(sp)
   124ca:	65300793          	li	a5,1619
   124ce:	4495                	li	s1,5
   124d0:	4811                	li	a6,4
   124d2:	65300513          	li	a0,1619
   124d6:	4595                	li	a1,5
   124d8:	03600693          	li	a3,54
   124dc:	4711                	li	a4,4
   124de:	00000073          	ecall
   124e2:	04850563          	beq	a0,s0,1252c <_ZN20complex_full_dynamic3app17h41560c565fedd2aeE+0x9a>
   124e6:	05c10993          	addi	s3,sp,92
   124ea:	c63e                	sw	a5,12(sp)
   124ec:	c826                	sw	s1,16(sp)
   124ee:	01010a23          	sb	a6,20(sp)
   124f2:	478d                	li	a5,3
   124f4:	65300513          	li	a0,1619
   124f8:	458d                	li	a1,3
   124fa:	46bd                	li	a3,15
   124fc:	470d                	li	a4,3
   124fe:	864e                	mv	a2,s3
   12500:	00000073          	ecall
   12504:	02850463          	beq	a0,s0,1252c <_ZN20complex_full_dynamic3app17h41560c565fedd2aeE+0x9a>
   12508:	65300693          	li	a3,1619
   1250c:	65300513          	li	a0,1619
   12510:	4595                	li	a1,5
   12512:	460d                	li	a2,3
   12514:	4709                	li	a4,2
   12516:	07f00493          	li	s1,127
   1251a:	c8b6                	sw	a3,80(sp)
   1251c:	cabe                	sw	a5,84(sp)
   1251e:	04f10c23          	sb	a5,88(sp)
   12522:	4681                	li	a3,0
   12524:	00000073          	ecall
   12528:	02a4e863          	bltu	s1,a0,12558 <_ZN20complex_full_dynamic3app17h41560c565fedd2aeE+0xc6>
   1252c:	00b92223          	sw	a1,4(s2)
   12530:	4505                	li	a0,1
   12532:	00a90023          	sb	a0,0(s2)
   12536:	0888                	addi	a0,sp,80
   12538:	00009097          	auipc	ra,0x9
   1253c:	9ae080e7          	jalr	-1618(ra) # 1aee6 <_ZN9allow_pin12full_dynamic17unshare_if_shared17h3494b15e905518bcE>
   12540:	0068                	addi	a0,sp,12
   12542:	00009097          	auipc	ra,0x9
   12546:	9a4080e7          	jalr	-1628(ra) # 1aee6 <_ZN9allow_pin12full_dynamic17unshare_if_shared17h3494b15e905518bcE>
   1254a:	50f6                	lw	ra,124(sp)
   1254c:	5466                	lw	s0,120(sp)
   1254e:	54d6                	lw	s1,116(sp)
   12550:	5946                	lw	s2,112(sp)
   12552:	59b6                	lw	s3,108(sp)
   12554:	6109                	addi	sp,sp,128
   12556:	8082                	ret
   12558:	0068                	addi	a0,sp,12
   1255a:	00009097          	auipc	ra,0x9
   1255e:	98c080e7          	jalr	-1652(ra) # 1aee6 <_ZN9allow_pin12full_dynamic17unshare_if_shared17h3494b15e905518bcE>
   12562:	0888                	addi	a0,sp,80
   12564:	00009097          	auipc	ra,0x9
   12568:	982080e7          	jalr	-1662(ra) # 1aee6 <_ZN9allow_pin12full_dynamic17unshare_if_shared17h3494b15e905518bcE>
   1256c:	0888                	addi	a0,sp,80
   1256e:	00009097          	auipc	ra,0x9
   12572:	978080e7          	jalr	-1672(ra) # 1aee6 <_ZN9allow_pin12full_dynamic17unshare_if_shared17h3494b15e905518bcE>
   12576:	00190513          	addi	a0,s2,1
   1257a:	463d                	li	a2,15
   1257c:	85ce                	mv	a1,s3
   1257e:	00009097          	auipc	ra,0x9
   12582:	9f4080e7          	jalr	-1548(ra) # 1af72 <memcpy>
   12586:	4501                	li	a0,0
   12588:	b76d                	j	12532 <_ZN20complex_full_dynamic3app17h41560c565fedd2aeE+0xa0>

0001258a <_ZN20complex_full_dynamic3app17h43c6f3d10aebddaaE>:
   1258a:	7175                	addi	sp,sp,-144
   1258c:	c706                	sw	ra,140(sp)
   1258e:	c522                	sw	s0,136(sp)
   12590:	c326                	sw	s1,132(sp)
   12592:	c14a                	sw	s2,128(sp)
   12594:	dece                	sw	s3,124(sp)
   12596:	89aa                	mv	s3,a0
   12598:	4409                	li	s0,2
   1259a:	00810423          	sb	s0,8(sp)
   1259e:	0064                	addi	s1,sp,12
   125a0:	03400613          	li	a2,52
   125a4:	8526                	mv	a0,s1
   125a6:	00009097          	auipc	ra,0x9
   125aa:	9cc080e7          	jalr	-1588(ra) # 1af72 <memcpy>
   125ae:	04c10913          	addi	s2,sp,76
   125b2:	02e00613          	li	a2,46
   125b6:	854a                	mv	a0,s2
   125b8:	4581                	li	a1,0
   125ba:	00009097          	auipc	ra,0x9
   125be:	94c080e7          	jalr	-1716(ra) # 1af06 <memset>
   125c2:	8626                	mv	a2,s1
   125c4:	04810423          	sb	s0,72(sp)
   125c8:	20900493          	li	s1,521
   125cc:	4791                	li	a5,4
   125ce:	20900513          	li	a0,521
   125d2:	4589                	li	a1,2
   125d4:	03400693          	li	a3,52
   125d8:	4711                	li	a4,4
   125da:	00000073          	ecall
   125de:	04850563          	beq	a0,s0,12628 <_ZN20complex_full_dynamic3app17h43c6f3d10aebddaaE+0x9e>
   125e2:	864a                	mv	a2,s2
   125e4:	c026                	sw	s1,0(sp)
   125e6:	c222                	sw	s0,4(sp)
   125e8:	00f10423          	sb	a5,8(sp)
   125ec:	47a1                	li	a5,8
   125ee:	448d                	li	s1,3
   125f0:	20900513          	li	a0,521
   125f4:	45a1                	li	a1,8
   125f6:	02e00693          	li	a3,46
   125fa:	470d                	li	a4,3
   125fc:	00000073          	ecall
   12600:	02850463          	beq	a0,s0,12628 <_ZN20complex_full_dynamic3app17h43c6f3d10aebddaaE+0x9e>
   12604:	20900693          	li	a3,521
   12608:	20900513          	li	a0,521
   1260c:	4589                	li	a1,2
   1260e:	4621                	li	a2,8
   12610:	4709                	li	a4,2
   12612:	07f00413          	li	s0,127
   12616:	c0b6                	sw	a3,64(sp)
   12618:	c2be                	sw	a5,68(sp)
   1261a:	04910423          	sb	s1,72(sp)
   1261e:	4681                	li	a3,0
   12620:	00000073          	ecall
   12624:	02a46863          	bltu	s0,a0,12654 <_ZN20complex_full_dynamic3app17h43c6f3d10aebddaaE+0xca>
   12628:	00b9a223          	sw	a1,4(s3)
   1262c:	4505                	li	a0,1
   1262e:	00a98023          	sb	a0,0(s3)
   12632:	0088                	addi	a0,sp,64
   12634:	00009097          	auipc	ra,0x9
   12638:	8b2080e7          	jalr	-1870(ra) # 1aee6 <_ZN9allow_pin12full_dynamic17unshare_if_shared17h3494b15e905518bcE>
   1263c:	850a                	mv	a0,sp
   1263e:	00009097          	auipc	ra,0x9
   12642:	8a8080e7          	jalr	-1880(ra) # 1aee6 <_ZN9allow_pin12full_dynamic17unshare_if_shared17h3494b15e905518bcE>
   12646:	40ba                	lw	ra,140(sp)
   12648:	442a                	lw	s0,136(sp)
   1264a:	449a                	lw	s1,132(sp)
   1264c:	490a                	lw	s2,128(sp)
   1264e:	59f6                	lw	s3,124(sp)
   12650:	6149                	addi	sp,sp,144
   12652:	8082                	ret
   12654:	850a                	mv	a0,sp
   12656:	00009097          	auipc	ra,0x9
   1265a:	890080e7          	jalr	-1904(ra) # 1aee6 <_ZN9allow_pin12full_dynamic17unshare_if_shared17h3494b15e905518bcE>
   1265e:	0088                	addi	a0,sp,64
   12660:	00009097          	auipc	ra,0x9
   12664:	886080e7          	jalr	-1914(ra) # 1aee6 <_ZN9allow_pin12full_dynamic17unshare_if_shared17h3494b15e905518bcE>
   12668:	0088                	addi	a0,sp,64
   1266a:	00009097          	auipc	ra,0x9
   1266e:	87c080e7          	jalr	-1924(ra) # 1aee6 <_ZN9allow_pin12full_dynamic17unshare_if_shared17h3494b15e905518bcE>
   12672:	00198513          	addi	a0,s3,1
   12676:	02e00613          	li	a2,46
   1267a:	85ca                	mv	a1,s2
   1267c:	00009097          	auipc	ra,0x9
   12680:	8f6080e7          	jalr	-1802(ra) # 1af72 <memcpy>
   12684:	4501                	li	a0,0
   12686:	b765                	j	1262e <_ZN20complex_full_dynamic3app17h43c6f3d10aebddaaE+0xa4>

00012688 <_ZN20complex_full_dynamic3app17h46b331484c9396d5E>:
   12688:	7119                	addi	sp,sp,-128
   1268a:	de86                	sw	ra,124(sp)
   1268c:	dca2                	sw	s0,120(sp)
   1268e:	daa6                	sw	s1,116(sp)
   12690:	d8ca                	sw	s2,112(sp)
   12692:	d6ce                	sw	s3,108(sp)
   12694:	89aa                	mv	s3,a0
   12696:	4409                	li	s0,2
   12698:	00810a23          	sb	s0,20(sp)
   1269c:	0824                	addi	s1,sp,24
   1269e:	4641                	li	a2,16
   126a0:	8526                	mv	a0,s1
   126a2:	00009097          	auipc	ra,0x9
   126a6:	8d0080e7          	jalr	-1840(ra) # 1af72 <memcpy>
   126aa:	03410913          	addi	s2,sp,52
   126ae:	03600613          	li	a2,54
   126b2:	854a                	mv	a0,s2
   126b4:	4581                	li	a1,0
   126b6:	00009097          	auipc	ra,0x9
   126ba:	850080e7          	jalr	-1968(ra) # 1af06 <memset>
   126be:	8626                	mv	a2,s1
   126c0:	02810823          	sb	s0,48(sp)
   126c4:	6509                	lui	a0,0x2
   126c6:	4485                	li	s1,1
   126c8:	4811                	li	a6,4
   126ca:	4585                	li	a1,1
   126cc:	98950793          	addi	a5,a0,-1655 # 1989 <.Lline_table_start1+0x175e>
   126d0:	46c1                	li	a3,16
   126d2:	4711                	li	a4,4
   126d4:	853e                	mv	a0,a5
   126d6:	00000073          	ecall
   126da:	04850363          	beq	a0,s0,12720 <_ZN20complex_full_dynamic3app17h46b331484c9396d5E+0x98>
   126de:	853e                	mv	a0,a5
   126e0:	864a                	mv	a2,s2
   126e2:	c63e                	sw	a5,12(sp)
   126e4:	c826                	sw	s1,16(sp)
   126e6:	01010a23          	sb	a6,20(sp)
   126ea:	449d                	li	s1,7
   126ec:	480d                	li	a6,3
   126ee:	459d                	li	a1,7
   126f0:	03600693          	li	a3,54
   126f4:	470d                	li	a4,3
   126f6:	00000073          	ecall
   126fa:	02850363          	beq	a0,s0,12720 <_ZN20complex_full_dynamic3app17h46b331484c9396d5E+0x98>
   126fe:	d43e                	sw	a5,40(sp)
   12700:	d626                	sw	s1,44(sp)
   12702:	03010823          	sb	a6,48(sp)
   12706:	6509                	lui	a0,0x2
   12708:	4585                	li	a1,1
   1270a:	461d                	li	a2,7
   1270c:	98950513          	addi	a0,a0,-1655 # 1989 <.Lline_table_start1+0x175e>
   12710:	4709                	li	a4,2
   12712:	07f00793          	li	a5,127
   12716:	4681                	li	a3,0
   12718:	00000073          	ecall
   1271c:	02a7e863          	bltu	a5,a0,1274c <_ZN20complex_full_dynamic3app17h46b331484c9396d5E+0xc4>
   12720:	00b9a223          	sw	a1,4(s3)
   12724:	4505                	li	a0,1
   12726:	00a98023          	sb	a0,0(s3)
   1272a:	1028                	addi	a0,sp,40
   1272c:	00008097          	auipc	ra,0x8
   12730:	7ba080e7          	jalr	1978(ra) # 1aee6 <_ZN9allow_pin12full_dynamic17unshare_if_shared17h3494b15e905518bcE>
   12734:	0068                	addi	a0,sp,12
   12736:	00008097          	auipc	ra,0x8
   1273a:	7b0080e7          	jalr	1968(ra) # 1aee6 <_ZN9allow_pin12full_dynamic17unshare_if_shared17h3494b15e905518bcE>
   1273e:	50f6                	lw	ra,124(sp)
   12740:	5466                	lw	s0,120(sp)
   12742:	54d6                	lw	s1,116(sp)
   12744:	5946                	lw	s2,112(sp)
   12746:	59b6                	lw	s3,108(sp)
   12748:	6109                	addi	sp,sp,128
   1274a:	8082                	ret
   1274c:	0068                	addi	a0,sp,12
   1274e:	00008097          	auipc	ra,0x8
   12752:	798080e7          	jalr	1944(ra) # 1aee6 <_ZN9allow_pin12full_dynamic17unshare_if_shared17h3494b15e905518bcE>
   12756:	1028                	addi	a0,sp,40
   12758:	00008097          	auipc	ra,0x8
   1275c:	78e080e7          	jalr	1934(ra) # 1aee6 <_ZN9allow_pin12full_dynamic17unshare_if_shared17h3494b15e905518bcE>
   12760:	1028                	addi	a0,sp,40
   12762:	00008097          	auipc	ra,0x8
   12766:	784080e7          	jalr	1924(ra) # 1aee6 <_ZN9allow_pin12full_dynamic17unshare_if_shared17h3494b15e905518bcE>
   1276a:	00198513          	addi	a0,s3,1
   1276e:	03600613          	li	a2,54
   12772:	85ca                	mv	a1,s2
   12774:	00008097          	auipc	ra,0x8
   12778:	7fe080e7          	jalr	2046(ra) # 1af72 <memcpy>
   1277c:	4501                	li	a0,0
   1277e:	b765                	j	12726 <_ZN20complex_full_dynamic3app17h46b331484c9396d5E+0x9e>

00012780 <_ZN20complex_full_dynamic3app17h4c389e7df843e8c3E>:
   12780:	7135                	addi	sp,sp,-160
   12782:	cf06                	sw	ra,156(sp)
   12784:	cd22                	sw	s0,152(sp)
   12786:	cb26                	sw	s1,148(sp)
   12788:	c94a                	sw	s2,144(sp)
   1278a:	c74e                	sw	s3,140(sp)
   1278c:	89aa                	mv	s3,a0
   1278e:	4409                	li	s0,2
   12790:	00810423          	sb	s0,8(sp)
   12794:	0064                	addi	s1,sp,12
   12796:	03c00613          	li	a2,60
   1279a:	8526                	mv	a0,s1
   1279c:	00008097          	auipc	ra,0x8
   127a0:	7d6080e7          	jalr	2006(ra) # 1af72 <memcpy>
   127a4:	05410913          	addi	s2,sp,84
   127a8:	03800613          	li	a2,56
   127ac:	854a                	mv	a0,s2
   127ae:	4581                	li	a1,0
   127b0:	00008097          	auipc	ra,0x8
   127b4:	756080e7          	jalr	1878(ra) # 1af06 <memset>
   127b8:	8626                	mv	a2,s1
   127ba:	04810823          	sb	s0,80(sp)
   127be:	6509                	lui	a0,0x2
   127c0:	448d                	li	s1,3
   127c2:	4811                	li	a6,4
   127c4:	458d                	li	a1,3
   127c6:	d1950793          	addi	a5,a0,-743 # 1d19 <.Lline_table_start1+0x1aee>
   127ca:	03c00693          	li	a3,60
   127ce:	4711                	li	a4,4
   127d0:	853e                	mv	a0,a5
   127d2:	00000073          	ecall
   127d6:	04850263          	beq	a0,s0,1281a <_ZN20complex_full_dynamic3app17h4c389e7df843e8c3E+0x9a>
   127da:	c03e                	sw	a5,0(sp)
   127dc:	c226                	sw	s1,4(sp)
   127de:	01010423          	sb	a6,8(sp)
   127e2:	458d                	li	a1,3
   127e4:	03800693          	li	a3,56
   127e8:	470d                	li	a4,3
   127ea:	853e                	mv	a0,a5
   127ec:	864a                	mv	a2,s2
   127ee:	00000073          	ecall
   127f2:	02850463          	beq	a0,s0,1281a <_ZN20complex_full_dynamic3app17h4c389e7df843e8c3E+0x9a>
   127f6:	450d                	li	a0,3
   127f8:	6689                	lui	a3,0x2
   127fa:	458d                	li	a1,3
   127fc:	460d                	li	a2,3
   127fe:	c4be                	sw	a5,72(sp)
   12800:	c6aa                	sw	a0,76(sp)
   12802:	04a10823          	sb	a0,80(sp)
   12806:	d1968513          	addi	a0,a3,-743 # 1d19 <.Lline_table_start1+0x1aee>
   1280a:	4709                	li	a4,2
   1280c:	07f00793          	li	a5,127
   12810:	4681                	li	a3,0
   12812:	00000073          	ecall
   12816:	02a7e863          	bltu	a5,a0,12846 <_ZN20complex_full_dynamic3app17h4c389e7df843e8c3E+0xc6>
   1281a:	00b9a223          	sw	a1,4(s3)
   1281e:	4505                	li	a0,1
   12820:	00a98023          	sb	a0,0(s3)
   12824:	00a8                	addi	a0,sp,72
   12826:	00008097          	auipc	ra,0x8
   1282a:	6c0080e7          	jalr	1728(ra) # 1aee6 <_ZN9allow_pin12full_dynamic17unshare_if_shared17h3494b15e905518bcE>
   1282e:	850a                	mv	a0,sp
   12830:	00008097          	auipc	ra,0x8
   12834:	6b6080e7          	jalr	1718(ra) # 1aee6 <_ZN9allow_pin12full_dynamic17unshare_if_shared17h3494b15e905518bcE>
   12838:	40fa                	lw	ra,156(sp)
   1283a:	446a                	lw	s0,152(sp)
   1283c:	44da                	lw	s1,148(sp)
   1283e:	494a                	lw	s2,144(sp)
   12840:	49ba                	lw	s3,140(sp)
   12842:	610d                	addi	sp,sp,160
   12844:	8082                	ret
   12846:	850a                	mv	a0,sp
   12848:	00008097          	auipc	ra,0x8
   1284c:	69e080e7          	jalr	1694(ra) # 1aee6 <_ZN9allow_pin12full_dynamic17unshare_if_shared17h3494b15e905518bcE>
   12850:	00a8                	addi	a0,sp,72
   12852:	00008097          	auipc	ra,0x8
   12856:	694080e7          	jalr	1684(ra) # 1aee6 <_ZN9allow_pin12full_dynamic17unshare_if_shared17h3494b15e905518bcE>
   1285a:	00a8                	addi	a0,sp,72
   1285c:	00008097          	auipc	ra,0x8
   12860:	68a080e7          	jalr	1674(ra) # 1aee6 <_ZN9allow_pin12full_dynamic17unshare_if_shared17h3494b15e905518bcE>
   12864:	00198513          	addi	a0,s3,1
   12868:	03800613          	li	a2,56
   1286c:	85ca                	mv	a1,s2
   1286e:	00008097          	auipc	ra,0x8
   12872:	704080e7          	jalr	1796(ra) # 1af72 <memcpy>
   12876:	4501                	li	a0,0
   12878:	b765                	j	12820 <_ZN20complex_full_dynamic3app17h4c389e7df843e8c3E+0xa0>

0001287a <_ZN20complex_full_dynamic3app17h4e09aa8fbdb41baeE>:
   1287a:	7159                	addi	sp,sp,-112
   1287c:	d686                	sw	ra,108(sp)
   1287e:	d4a2                	sw	s0,104(sp)
   12880:	d2a6                	sw	s1,100(sp)
   12882:	d0ca                	sw	s2,96(sp)
   12884:	cece                	sw	s3,92(sp)
   12886:	892a                	mv	s2,a0
   12888:	4409                	li	s0,2
   1288a:	00810823          	sb	s0,16(sp)
   1288e:	0844                	addi	s1,sp,20
   12890:	02700613          	li	a2,39
   12894:	8526                	mv	a0,s1
   12896:	00008097          	auipc	ra,0x8
   1289a:	6dc080e7          	jalr	1756(ra) # 1af72 <memcpy>
   1289e:	8626                	mv	a2,s1
   128a0:	ca82                	sw	zero,84(sp)
   128a2:	cc82                	sw	zero,88(sp)
   128a4:	04810223          	sb	s0,68(sp)
   128a8:	c482                	sw	zero,72(sp)
   128aa:	c682                	sw	zero,76(sp)
   128ac:	c882                	sw	zero,80(sp)
   128ae:	6509                	lui	a0,0x2
   128b0:	4499                	li	s1,6
   128b2:	4811                	li	a6,4
   128b4:	4599                	li	a1,6
   128b6:	2c950793          	addi	a5,a0,713 # 22c9 <.Lline_table_start1+0x209e>
   128ba:	02700693          	li	a3,39
   128be:	4711                	li	a4,4
   128c0:	853e                	mv	a0,a5
   128c2:	00000073          	ecall
   128c6:	04850463          	beq	a0,s0,1290e <_ZN20complex_full_dynamic3app17h4e09aa8fbdb41baeE+0x94>
   128ca:	853e                	mv	a0,a5
   128cc:	04810993          	addi	s3,sp,72
   128d0:	c43e                	sw	a5,8(sp)
   128d2:	c626                	sw	s1,12(sp)
   128d4:	01010823          	sb	a6,16(sp)
   128d8:	4495                	li	s1,5
   128da:	480d                	li	a6,3
   128dc:	4595                	li	a1,5
   128de:	46d1                	li	a3,20
   128e0:	470d                	li	a4,3
   128e2:	864e                	mv	a2,s3
   128e4:	00000073          	ecall
   128e8:	02850363          	beq	a0,s0,1290e <_ZN20complex_full_dynamic3app17h4e09aa8fbdb41baeE+0x94>
   128ec:	de3e                	sw	a5,60(sp)
   128ee:	c0a6                	sw	s1,64(sp)
   128f0:	05010223          	sb	a6,68(sp)
   128f4:	6509                	lui	a0,0x2
   128f6:	4599                	li	a1,6
   128f8:	4615                	li	a2,5
   128fa:	2c950513          	addi	a0,a0,713 # 22c9 <.Lline_table_start1+0x209e>
   128fe:	4709                	li	a4,2
   12900:	07f00793          	li	a5,127
   12904:	4681                	li	a3,0
   12906:	00000073          	ecall
   1290a:	02a7e863          	bltu	a5,a0,1293a <_ZN20complex_full_dynamic3app17h4e09aa8fbdb41baeE+0xc0>
   1290e:	00b92223          	sw	a1,4(s2)
   12912:	4505                	li	a0,1
   12914:	00a90023          	sb	a0,0(s2)
   12918:	1868                	addi	a0,sp,60
   1291a:	00008097          	auipc	ra,0x8
   1291e:	5cc080e7          	jalr	1484(ra) # 1aee6 <_ZN9allow_pin12full_dynamic17unshare_if_shared17h3494b15e905518bcE>
   12922:	0028                	addi	a0,sp,8
   12924:	00008097          	auipc	ra,0x8
   12928:	5c2080e7          	jalr	1474(ra) # 1aee6 <_ZN9allow_pin12full_dynamic17unshare_if_shared17h3494b15e905518bcE>
   1292c:	50b6                	lw	ra,108(sp)
   1292e:	5426                	lw	s0,104(sp)
   12930:	5496                	lw	s1,100(sp)
   12932:	5906                	lw	s2,96(sp)
   12934:	49f6                	lw	s3,92(sp)
   12936:	6165                	addi	sp,sp,112
   12938:	8082                	ret
   1293a:	0028                	addi	a0,sp,8
   1293c:	00008097          	auipc	ra,0x8
   12940:	5aa080e7          	jalr	1450(ra) # 1aee6 <_ZN9allow_pin12full_dynamic17unshare_if_shared17h3494b15e905518bcE>
   12944:	1868                	addi	a0,sp,60
   12946:	00008097          	auipc	ra,0x8
   1294a:	5a0080e7          	jalr	1440(ra) # 1aee6 <_ZN9allow_pin12full_dynamic17unshare_if_shared17h3494b15e905518bcE>
   1294e:	1868                	addi	a0,sp,60
   12950:	00008097          	auipc	ra,0x8
   12954:	596080e7          	jalr	1430(ra) # 1aee6 <_ZN9allow_pin12full_dynamic17unshare_if_shared17h3494b15e905518bcE>
   12958:	00190513          	addi	a0,s2,1
   1295c:	4651                	li	a2,20
   1295e:	85ce                	mv	a1,s3
   12960:	00008097          	auipc	ra,0x8
   12964:	612080e7          	jalr	1554(ra) # 1af72 <memcpy>
   12968:	4501                	li	a0,0
   1296a:	b76d                	j	12914 <_ZN20complex_full_dynamic3app17h4e09aa8fbdb41baeE+0x9a>

0001296c <_ZN20complex_full_dynamic3app17h544051a7e68086d9E>:
   1296c:	7175                	addi	sp,sp,-144
   1296e:	c706                	sw	ra,140(sp)
   12970:	c522                	sw	s0,136(sp)
   12972:	c326                	sw	s1,132(sp)
   12974:	c14a                	sw	s2,128(sp)
   12976:	dece                	sw	s3,124(sp)
   12978:	89aa                	mv	s3,a0
   1297a:	4409                	li	s0,2
   1297c:	00810a23          	sb	s0,20(sp)
   12980:	0824                	addi	s1,sp,24
   12982:	4639                	li	a2,14
   12984:	8526                	mv	a0,s1
   12986:	00008097          	auipc	ra,0x8
   1298a:	5ec080e7          	jalr	1516(ra) # 1af72 <memcpy>
   1298e:	03410913          	addi	s2,sp,52
   12992:	04800613          	li	a2,72
   12996:	854a                	mv	a0,s2
   12998:	4581                	li	a1,0
   1299a:	00008097          	auipc	ra,0x8
   1299e:	56c080e7          	jalr	1388(ra) # 1af06 <memset>
   129a2:	8626                	mv	a2,s1
   129a4:	02810823          	sb	s0,48(sp)
   129a8:	6505                	lui	a0,0x1
   129aa:	448d                	li	s1,3
   129ac:	4811                	li	a6,4
   129ae:	458d                	li	a1,3
   129b0:	2d150793          	addi	a5,a0,721 # 12d1 <.Lline_table_start1+0x10a6>
   129b4:	46b9                	li	a3,14
   129b6:	4711                	li	a4,4
   129b8:	853e                	mv	a0,a5
   129ba:	00000073          	ecall
   129be:	04850363          	beq	a0,s0,12a04 <_ZN20complex_full_dynamic3app17h544051a7e68086d9E+0x98>
   129c2:	853e                	mv	a0,a5
   129c4:	864a                	mv	a2,s2
   129c6:	c63e                	sw	a5,12(sp)
   129c8:	c826                	sw	s1,16(sp)
   129ca:	01010a23          	sb	a6,20(sp)
   129ce:	44a1                	li	s1,8
   129d0:	45a1                	li	a1,8
   129d2:	04800693          	li	a3,72
   129d6:	470d                	li	a4,3
   129d8:	00000073          	ecall
   129dc:	02850463          	beq	a0,s0,12a04 <_ZN20complex_full_dynamic3app17h544051a7e68086d9E+0x98>
   129e0:	450d                	li	a0,3
   129e2:	6685                	lui	a3,0x1
   129e4:	458d                	li	a1,3
   129e6:	4621                	li	a2,8
   129e8:	d43e                	sw	a5,40(sp)
   129ea:	d626                	sw	s1,44(sp)
   129ec:	02a10823          	sb	a0,48(sp)
   129f0:	2d168513          	addi	a0,a3,721 # 12d1 <.Lline_table_start1+0x10a6>
   129f4:	4709                	li	a4,2
   129f6:	07f00793          	li	a5,127
   129fa:	4681                	li	a3,0
   129fc:	00000073          	ecall
   12a00:	02a7e863          	bltu	a5,a0,12a30 <_ZN20complex_full_dynamic3app17h544051a7e68086d9E+0xc4>
   12a04:	00b9a223          	sw	a1,4(s3)
   12a08:	4505                	li	a0,1
   12a0a:	00a98023          	sb	a0,0(s3)
   12a0e:	1028                	addi	a0,sp,40
   12a10:	00008097          	auipc	ra,0x8
   12a14:	4d6080e7          	jalr	1238(ra) # 1aee6 <_ZN9allow_pin12full_dynamic17unshare_if_shared17h3494b15e905518bcE>
   12a18:	0068                	addi	a0,sp,12
   12a1a:	00008097          	auipc	ra,0x8
   12a1e:	4cc080e7          	jalr	1228(ra) # 1aee6 <_ZN9allow_pin12full_dynamic17unshare_if_shared17h3494b15e905518bcE>
   12a22:	40ba                	lw	ra,140(sp)
   12a24:	442a                	lw	s0,136(sp)
   12a26:	449a                	lw	s1,132(sp)
   12a28:	490a                	lw	s2,128(sp)
   12a2a:	59f6                	lw	s3,124(sp)
   12a2c:	6149                	addi	sp,sp,144
   12a2e:	8082                	ret
   12a30:	0068                	addi	a0,sp,12
   12a32:	00008097          	auipc	ra,0x8
   12a36:	4b4080e7          	jalr	1204(ra) # 1aee6 <_ZN9allow_pin12full_dynamic17unshare_if_shared17h3494b15e905518bcE>
   12a3a:	1028                	addi	a0,sp,40
   12a3c:	00008097          	auipc	ra,0x8
   12a40:	4aa080e7          	jalr	1194(ra) # 1aee6 <_ZN9allow_pin12full_dynamic17unshare_if_shared17h3494b15e905518bcE>
   12a44:	1028                	addi	a0,sp,40
   12a46:	00008097          	auipc	ra,0x8
   12a4a:	4a0080e7          	jalr	1184(ra) # 1aee6 <_ZN9allow_pin12full_dynamic17unshare_if_shared17h3494b15e905518bcE>
   12a4e:	00198513          	addi	a0,s3,1
   12a52:	04800613          	li	a2,72
   12a56:	85ca                	mv	a1,s2
   12a58:	00008097          	auipc	ra,0x8
   12a5c:	51a080e7          	jalr	1306(ra) # 1af72 <memcpy>
   12a60:	4501                	li	a0,0
   12a62:	b765                	j	12a0a <_ZN20complex_full_dynamic3app17h544051a7e68086d9E+0x9e>

00012a64 <_ZN20complex_full_dynamic3app17h574b60f86fb02459E>:
   12a64:	7171                	addi	sp,sp,-176
   12a66:	d706                	sw	ra,172(sp)
   12a68:	d522                	sw	s0,168(sp)
   12a6a:	d326                	sw	s1,164(sp)
   12a6c:	d14a                	sw	s2,160(sp)
   12a6e:	cf4e                	sw	s3,156(sp)
   12a70:	89aa                	mv	s3,a0
   12a72:	4409                	li	s0,2
   12a74:	00810a23          	sb	s0,20(sp)
   12a78:	0824                	addi	s1,sp,24
   12a7a:	03500613          	li	a2,53
   12a7e:	8526                	mv	a0,s1
   12a80:	00008097          	auipc	ra,0x8
   12a84:	4f2080e7          	jalr	1266(ra) # 1af72 <memcpy>
   12a88:	05c10913          	addi	s2,sp,92
   12a8c:	03f00613          	li	a2,63
   12a90:	854a                	mv	a0,s2
   12a92:	4581                	li	a1,0
   12a94:	00008097          	auipc	ra,0x8
   12a98:	472080e7          	jalr	1138(ra) # 1af06 <memset>
   12a9c:	4581                	li	a1,0
   12a9e:	8626                	mv	a2,s1
   12aa0:	04810c23          	sb	s0,88(sp)
   12aa4:	6505                	lui	a0,0x1
   12aa6:	4491                	li	s1,4
   12aa8:	e5750793          	addi	a5,a0,-425 # e57 <.Lline_table_start1+0xc2c>
   12aac:	03500693          	li	a3,53
   12ab0:	4711                	li	a4,4
   12ab2:	853e                	mv	a0,a5
   12ab4:	00000073          	ecall
   12ab8:	04850263          	beq	a0,s0,12afc <_ZN20complex_full_dynamic3app17h574b60f86fb02459E+0x98>
   12abc:	853e                	mv	a0,a5
   12abe:	864a                	mv	a2,s2
   12ac0:	c63e                	sw	a5,12(sp)
   12ac2:	c802                	sw	zero,16(sp)
   12ac4:	00910a23          	sb	s1,20(sp)
   12ac8:	448d                	li	s1,3
   12aca:	458d                	li	a1,3
   12acc:	03f00693          	li	a3,63
   12ad0:	470d                	li	a4,3
   12ad2:	00000073          	ecall
   12ad6:	02850363          	beq	a0,s0,12afc <_ZN20complex_full_dynamic3app17h574b60f86fb02459E+0x98>
   12ada:	c8be                	sw	a5,80(sp)
   12adc:	caa6                	sw	s1,84(sp)
   12ade:	04910c23          	sb	s1,88(sp)
   12ae2:	6505                	lui	a0,0x1
   12ae4:	460d                	li	a2,3
   12ae6:	e5750513          	addi	a0,a0,-425 # e57 <.Lline_table_start1+0xc2c>
   12aea:	4709                	li	a4,2
   12aec:	07f00793          	li	a5,127
   12af0:	4581                	li	a1,0
   12af2:	4681                	li	a3,0
   12af4:	00000073          	ecall
   12af8:	02a7e863          	bltu	a5,a0,12b28 <_ZN20complex_full_dynamic3app17h574b60f86fb02459E+0xc4>
   12afc:	00b9a223          	sw	a1,4(s3)
   12b00:	4505                	li	a0,1
   12b02:	00a98023          	sb	a0,0(s3)
   12b06:	0888                	addi	a0,sp,80
   12b08:	00008097          	auipc	ra,0x8
   12b0c:	3de080e7          	jalr	990(ra) # 1aee6 <_ZN9allow_pin12full_dynamic17unshare_if_shared17h3494b15e905518bcE>
   12b10:	0068                	addi	a0,sp,12
   12b12:	00008097          	auipc	ra,0x8
   12b16:	3d4080e7          	jalr	980(ra) # 1aee6 <_ZN9allow_pin12full_dynamic17unshare_if_shared17h3494b15e905518bcE>
   12b1a:	50ba                	lw	ra,172(sp)
   12b1c:	542a                	lw	s0,168(sp)
   12b1e:	549a                	lw	s1,164(sp)
   12b20:	590a                	lw	s2,160(sp)
   12b22:	49fa                	lw	s3,156(sp)
   12b24:	614d                	addi	sp,sp,176
   12b26:	8082                	ret
   12b28:	0068                	addi	a0,sp,12
   12b2a:	00008097          	auipc	ra,0x8
   12b2e:	3bc080e7          	jalr	956(ra) # 1aee6 <_ZN9allow_pin12full_dynamic17unshare_if_shared17h3494b15e905518bcE>
   12b32:	0888                	addi	a0,sp,80
   12b34:	00008097          	auipc	ra,0x8
   12b38:	3b2080e7          	jalr	946(ra) # 1aee6 <_ZN9allow_pin12full_dynamic17unshare_if_shared17h3494b15e905518bcE>
   12b3c:	0888                	addi	a0,sp,80
   12b3e:	00008097          	auipc	ra,0x8
   12b42:	3a8080e7          	jalr	936(ra) # 1aee6 <_ZN9allow_pin12full_dynamic17unshare_if_shared17h3494b15e905518bcE>
   12b46:	00198513          	addi	a0,s3,1
   12b4a:	03f00613          	li	a2,63
   12b4e:	85ca                	mv	a1,s2
   12b50:	00008097          	auipc	ra,0x8
   12b54:	422080e7          	jalr	1058(ra) # 1af72 <memcpy>
   12b58:	4501                	li	a0,0
   12b5a:	b765                	j	12b02 <_ZN20complex_full_dynamic3app17h574b60f86fb02459E+0x9e>

00012b5c <_ZN20complex_full_dynamic3app17h5a4795d4f1855acbE>:
   12b5c:	7171                	addi	sp,sp,-176
   12b5e:	d706                	sw	ra,172(sp)
   12b60:	d522                	sw	s0,168(sp)
   12b62:	d326                	sw	s1,164(sp)
   12b64:	d14a                	sw	s2,160(sp)
   12b66:	cf4e                	sw	s3,156(sp)
   12b68:	89aa                	mv	s3,a0
   12b6a:	4409                	li	s0,2
   12b6c:	00810a23          	sb	s0,20(sp)
   12b70:	0824                	addi	s1,sp,24
   12b72:	02100613          	li	a2,33
   12b76:	8526                	mv	a0,s1
   12b78:	00008097          	auipc	ra,0x8
   12b7c:	3fa080e7          	jalr	1018(ra) # 1af72 <memcpy>
   12b80:	04810913          	addi	s2,sp,72
   12b84:	05300613          	li	a2,83
   12b88:	854a                	mv	a0,s2
   12b8a:	4581                	li	a1,0
   12b8c:	00008097          	auipc	ra,0x8
   12b90:	37a080e7          	jalr	890(ra) # 1af06 <memset>
   12b94:	8626                	mv	a2,s1
   12b96:	04810223          	sb	s0,68(sp)
   12b9a:	6509                	lui	a0,0x2
   12b9c:	4491                	li	s1,4
   12b9e:	4589                	li	a1,2
   12ba0:	53e50793          	addi	a5,a0,1342 # 253e <.Lline_table_start1+0x2313>
   12ba4:	02100693          	li	a3,33
   12ba8:	4711                	li	a4,4
   12baa:	853e                	mv	a0,a5
   12bac:	00000073          	ecall
   12bb0:	04850363          	beq	a0,s0,12bf6 <_ZN20complex_full_dynamic3app17h5a4795d4f1855acbE+0x9a>
   12bb4:	853e                	mv	a0,a5
   12bb6:	864a                	mv	a2,s2
   12bb8:	c63e                	sw	a5,12(sp)
   12bba:	c822                	sw	s0,16(sp)
   12bbc:	00910a23          	sb	s1,20(sp)
   12bc0:	44a1                	li	s1,8
   12bc2:	480d                	li	a6,3
   12bc4:	45a1                	li	a1,8
   12bc6:	05300693          	li	a3,83
   12bca:	470d                	li	a4,3
   12bcc:	00000073          	ecall
   12bd0:	02850363          	beq	a0,s0,12bf6 <_ZN20complex_full_dynamic3app17h5a4795d4f1855acbE+0x9a>
   12bd4:	de3e                	sw	a5,60(sp)
   12bd6:	c0a6                	sw	s1,64(sp)
   12bd8:	05010223          	sb	a6,68(sp)
   12bdc:	6509                	lui	a0,0x2
   12bde:	4589                	li	a1,2
   12be0:	4621                	li	a2,8
   12be2:	53e50513          	addi	a0,a0,1342 # 253e <.Lline_table_start1+0x2313>
   12be6:	4709                	li	a4,2
   12be8:	07f00793          	li	a5,127
   12bec:	4681                	li	a3,0
   12bee:	00000073          	ecall
   12bf2:	02a7e863          	bltu	a5,a0,12c22 <_ZN20complex_full_dynamic3app17h5a4795d4f1855acbE+0xc6>
   12bf6:	00b9a223          	sw	a1,4(s3)
   12bfa:	4505                	li	a0,1
   12bfc:	00a98023          	sb	a0,0(s3)
   12c00:	1868                	addi	a0,sp,60
   12c02:	00008097          	auipc	ra,0x8
   12c06:	2e4080e7          	jalr	740(ra) # 1aee6 <_ZN9allow_pin12full_dynamic17unshare_if_shared17h3494b15e905518bcE>
   12c0a:	0068                	addi	a0,sp,12
   12c0c:	00008097          	auipc	ra,0x8
   12c10:	2da080e7          	jalr	730(ra) # 1aee6 <_ZN9allow_pin12full_dynamic17unshare_if_shared17h3494b15e905518bcE>
   12c14:	50ba                	lw	ra,172(sp)
   12c16:	542a                	lw	s0,168(sp)
   12c18:	549a                	lw	s1,164(sp)
   12c1a:	590a                	lw	s2,160(sp)
   12c1c:	49fa                	lw	s3,156(sp)
   12c1e:	614d                	addi	sp,sp,176
   12c20:	8082                	ret
   12c22:	0068                	addi	a0,sp,12
   12c24:	00008097          	auipc	ra,0x8
   12c28:	2c2080e7          	jalr	706(ra) # 1aee6 <_ZN9allow_pin12full_dynamic17unshare_if_shared17h3494b15e905518bcE>
   12c2c:	1868                	addi	a0,sp,60
   12c2e:	00008097          	auipc	ra,0x8
   12c32:	2b8080e7          	jalr	696(ra) # 1aee6 <_ZN9allow_pin12full_dynamic17unshare_if_shared17h3494b15e905518bcE>
   12c36:	1868                	addi	a0,sp,60
   12c38:	00008097          	auipc	ra,0x8
   12c3c:	2ae080e7          	jalr	686(ra) # 1aee6 <_ZN9allow_pin12full_dynamic17unshare_if_shared17h3494b15e905518bcE>
   12c40:	00198513          	addi	a0,s3,1
   12c44:	05300613          	li	a2,83
   12c48:	85ca                	mv	a1,s2
   12c4a:	00008097          	auipc	ra,0x8
   12c4e:	328080e7          	jalr	808(ra) # 1af72 <memcpy>
   12c52:	4501                	li	a0,0
   12c54:	b765                	j	12bfc <_ZN20complex_full_dynamic3app17h5a4795d4f1855acbE+0xa0>

00012c56 <_ZN20complex_full_dynamic3app17h5c3f2e79474eb04eE>:
   12c56:	7135                	addi	sp,sp,-160
   12c58:	cf06                	sw	ra,156(sp)
   12c5a:	cd22                	sw	s0,152(sp)
   12c5c:	cb26                	sw	s1,148(sp)
   12c5e:	c94a                	sw	s2,144(sp)
   12c60:	c74e                	sw	s3,140(sp)
   12c62:	892a                	mv	s2,a0
   12c64:	4409                	li	s0,2
   12c66:	00810823          	sb	s0,16(sp)
   12c6a:	0844                	addi	s1,sp,20
   12c6c:	05000613          	li	a2,80
   12c70:	8526                	mv	a0,s1
   12c72:	00008097          	auipc	ra,0x8
   12c76:	300080e7          	jalr	768(ra) # 1af72 <memcpy>
   12c7a:	8626                	mv	a2,s1
   12c7c:	08010523          	sb	zero,138(sp)
   12c80:	de82                	sw	zero,124(sp)
   12c82:	c102                	sw	zero,128(sp)
   12c84:	c302                	sw	zero,132(sp)
   12c86:	08011423          	sh	zero,136(sp)
   12c8a:	06810623          	sb	s0,108(sp)
   12c8e:	d882                	sw	zero,112(sp)
   12c90:	da82                	sw	zero,116(sp)
   12c92:	dc82                	sw	zero,120(sp)
   12c94:	3d900793          	li	a5,985
   12c98:	4485                	li	s1,1
   12c9a:	4811                	li	a6,4
   12c9c:	3d900513          	li	a0,985
   12ca0:	4585                	li	a1,1
   12ca2:	05000693          	li	a3,80
   12ca6:	4711                	li	a4,4
   12ca8:	00000073          	ecall
   12cac:	04850663          	beq	a0,s0,12cf8 <_ZN20complex_full_dynamic3app17h5c3f2e79474eb04eE+0xa2>
   12cb0:	07010993          	addi	s3,sp,112
   12cb4:	c43e                	sw	a5,8(sp)
   12cb6:	c626                	sw	s1,12(sp)
   12cb8:	01010823          	sb	a6,16(sp)
   12cbc:	478d                	li	a5,3
   12cbe:	3d900513          	li	a0,985
   12cc2:	4589                	li	a1,2
   12cc4:	46ed                	li	a3,27
   12cc6:	470d                	li	a4,3
   12cc8:	864e                	mv	a2,s3
   12cca:	00000073          	ecall
   12cce:	02850563          	beq	a0,s0,12cf8 <_ZN20complex_full_dynamic3app17h5c3f2e79474eb04eE+0xa2>
   12cd2:	3d900693          	li	a3,985
   12cd6:	4489                	li	s1,2
   12cd8:	3d900513          	li	a0,985
   12cdc:	4585                	li	a1,1
   12cde:	4609                	li	a2,2
   12ce0:	4709                	li	a4,2
   12ce2:	07f00413          	li	s0,127
   12ce6:	d2b6                	sw	a3,100(sp)
   12ce8:	d4a6                	sw	s1,104(sp)
   12cea:	06f10623          	sb	a5,108(sp)
   12cee:	4681                	li	a3,0
   12cf0:	00000073          	ecall
   12cf4:	02a46863          	bltu	s0,a0,12d24 <_ZN20complex_full_dynamic3app17h5c3f2e79474eb04eE+0xce>
   12cf8:	00b92223          	sw	a1,4(s2)
   12cfc:	4505                	li	a0,1
   12cfe:	00a90023          	sb	a0,0(s2)
   12d02:	10c8                	addi	a0,sp,100
   12d04:	00008097          	auipc	ra,0x8
   12d08:	1e2080e7          	jalr	482(ra) # 1aee6 <_ZN9allow_pin12full_dynamic17unshare_if_shared17h3494b15e905518bcE>
   12d0c:	0028                	addi	a0,sp,8
   12d0e:	00008097          	auipc	ra,0x8
   12d12:	1d8080e7          	jalr	472(ra) # 1aee6 <_ZN9allow_pin12full_dynamic17unshare_if_shared17h3494b15e905518bcE>
   12d16:	40fa                	lw	ra,156(sp)
   12d18:	446a                	lw	s0,152(sp)
   12d1a:	44da                	lw	s1,148(sp)
   12d1c:	494a                	lw	s2,144(sp)
   12d1e:	49ba                	lw	s3,140(sp)
   12d20:	610d                	addi	sp,sp,160
   12d22:	8082                	ret
   12d24:	0028                	addi	a0,sp,8
   12d26:	00008097          	auipc	ra,0x8
   12d2a:	1c0080e7          	jalr	448(ra) # 1aee6 <_ZN9allow_pin12full_dynamic17unshare_if_shared17h3494b15e905518bcE>
   12d2e:	10c8                	addi	a0,sp,100
   12d30:	00008097          	auipc	ra,0x8
   12d34:	1b6080e7          	jalr	438(ra) # 1aee6 <_ZN9allow_pin12full_dynamic17unshare_if_shared17h3494b15e905518bcE>
   12d38:	10c8                	addi	a0,sp,100
   12d3a:	00008097          	auipc	ra,0x8
   12d3e:	1ac080e7          	jalr	428(ra) # 1aee6 <_ZN9allow_pin12full_dynamic17unshare_if_shared17h3494b15e905518bcE>
   12d42:	00190513          	addi	a0,s2,1
   12d46:	466d                	li	a2,27
   12d48:	85ce                	mv	a1,s3
   12d4a:	00008097          	auipc	ra,0x8
   12d4e:	228080e7          	jalr	552(ra) # 1af72 <memcpy>
   12d52:	4501                	li	a0,0
   12d54:	b76d                	j	12cfe <_ZN20complex_full_dynamic3app17h5c3f2e79474eb04eE+0xa8>

00012d56 <_ZN20complex_full_dynamic3app17h5e606640a32283b5E>:
   12d56:	7159                	addi	sp,sp,-112
   12d58:	d686                	sw	ra,108(sp)
   12d5a:	d4a2                	sw	s0,104(sp)
   12d5c:	d2a6                	sw	s1,100(sp)
   12d5e:	d0ca                	sw	s2,96(sp)
   12d60:	cece                	sw	s3,92(sp)
   12d62:	89aa                	mv	s3,a0
   12d64:	4409                	li	s0,2
   12d66:	00810423          	sb	s0,8(sp)
   12d6a:	0064                	addi	s1,sp,12
   12d6c:	4679                	li	a2,30
   12d6e:	8526                	mv	a0,s1
   12d70:	00008097          	auipc	ra,0x8
   12d74:	202080e7          	jalr	514(ra) # 1af72 <memcpy>
   12d78:	03810913          	addi	s2,sp,56
   12d7c:	02100613          	li	a2,33
   12d80:	854a                	mv	a0,s2
   12d82:	4581                	li	a1,0
   12d84:	00008097          	auipc	ra,0x8
   12d88:	182080e7          	jalr	386(ra) # 1af06 <memset>
   12d8c:	8626                	mv	a2,s1
   12d8e:	02810a23          	sb	s0,52(sp)
   12d92:	6509                	lui	a0,0x2
   12d94:	4499                	li	s1,6
   12d96:	4811                	li	a6,4
   12d98:	4599                	li	a1,6
   12d9a:	9b550793          	addi	a5,a0,-1611 # 19b5 <.Lline_table_start1+0x178a>
   12d9e:	46f9                	li	a3,30
   12da0:	4711                	li	a4,4
   12da2:	853e                	mv	a0,a5
   12da4:	00000073          	ecall
   12da8:	04850363          	beq	a0,s0,12dee <_ZN20complex_full_dynamic3app17h5e606640a32283b5E+0x98>
   12dac:	853e                	mv	a0,a5
   12dae:	864a                	mv	a2,s2
   12db0:	c03e                	sw	a5,0(sp)
   12db2:	c226                	sw	s1,4(sp)
   12db4:	01010423          	sb	a6,8(sp)
   12db8:	44a5                	li	s1,9
   12dba:	480d                	li	a6,3
   12dbc:	45a5                	li	a1,9
   12dbe:	02100693          	li	a3,33
   12dc2:	470d                	li	a4,3
   12dc4:	00000073          	ecall
   12dc8:	02850363          	beq	a0,s0,12dee <_ZN20complex_full_dynamic3app17h5e606640a32283b5E+0x98>
   12dcc:	d63e                	sw	a5,44(sp)
   12dce:	d826                	sw	s1,48(sp)
   12dd0:	03010a23          	sb	a6,52(sp)
   12dd4:	6509                	lui	a0,0x2
   12dd6:	4599                	li	a1,6
   12dd8:	4625                	li	a2,9
   12dda:	9b550513          	addi	a0,a0,-1611 # 19b5 <.Lline_table_start1+0x178a>
   12dde:	4709                	li	a4,2
   12de0:	07f00793          	li	a5,127
   12de4:	4681                	li	a3,0
   12de6:	00000073          	ecall
   12dea:	02a7e863          	bltu	a5,a0,12e1a <_ZN20complex_full_dynamic3app17h5e606640a32283b5E+0xc4>
   12dee:	00b9a223          	sw	a1,4(s3)
   12df2:	4505                	li	a0,1
   12df4:	00a98023          	sb	a0,0(s3)
   12df8:	1068                	addi	a0,sp,44
   12dfa:	00008097          	auipc	ra,0x8
   12dfe:	0ec080e7          	jalr	236(ra) # 1aee6 <_ZN9allow_pin12full_dynamic17unshare_if_shared17h3494b15e905518bcE>
   12e02:	850a                	mv	a0,sp
   12e04:	00008097          	auipc	ra,0x8
   12e08:	0e2080e7          	jalr	226(ra) # 1aee6 <_ZN9allow_pin12full_dynamic17unshare_if_shared17h3494b15e905518bcE>
   12e0c:	50b6                	lw	ra,108(sp)
   12e0e:	5426                	lw	s0,104(sp)
   12e10:	5496                	lw	s1,100(sp)
   12e12:	5906                	lw	s2,96(sp)
   12e14:	49f6                	lw	s3,92(sp)
   12e16:	6165                	addi	sp,sp,112
   12e18:	8082                	ret
   12e1a:	850a                	mv	a0,sp
   12e1c:	00008097          	auipc	ra,0x8
   12e20:	0ca080e7          	jalr	202(ra) # 1aee6 <_ZN9allow_pin12full_dynamic17unshare_if_shared17h3494b15e905518bcE>
   12e24:	1068                	addi	a0,sp,44
   12e26:	00008097          	auipc	ra,0x8
   12e2a:	0c0080e7          	jalr	192(ra) # 1aee6 <_ZN9allow_pin12full_dynamic17unshare_if_shared17h3494b15e905518bcE>
   12e2e:	1068                	addi	a0,sp,44
   12e30:	00008097          	auipc	ra,0x8
   12e34:	0b6080e7          	jalr	182(ra) # 1aee6 <_ZN9allow_pin12full_dynamic17unshare_if_shared17h3494b15e905518bcE>
   12e38:	00198513          	addi	a0,s3,1
   12e3c:	02100613          	li	a2,33
   12e40:	85ca                	mv	a1,s2
   12e42:	00008097          	auipc	ra,0x8
   12e46:	130080e7          	jalr	304(ra) # 1af72 <memcpy>
   12e4a:	4501                	li	a0,0
   12e4c:	b765                	j	12df4 <_ZN20complex_full_dynamic3app17h5e606640a32283b5E+0x9e>

00012e4e <_ZN20complex_full_dynamic3app17h5f30e3c508b600eeE>:
   12e4e:	7135                	addi	sp,sp,-160
   12e50:	cf06                	sw	ra,156(sp)
   12e52:	cd22                	sw	s0,152(sp)
   12e54:	cb26                	sw	s1,148(sp)
   12e56:	c94a                	sw	s2,144(sp)
   12e58:	c74e                	sw	s3,140(sp)
   12e5a:	89aa                	mv	s3,a0
   12e5c:	4409                	li	s0,2
   12e5e:	00810a23          	sb	s0,20(sp)
   12e62:	0824                	addi	s1,sp,24
   12e64:	04400613          	li	a2,68
   12e68:	8526                	mv	a0,s1
   12e6a:	00008097          	auipc	ra,0x8
   12e6e:	108080e7          	jalr	264(ra) # 1af72 <memcpy>
   12e72:	06810913          	addi	s2,sp,104
   12e76:	02300613          	li	a2,35
   12e7a:	854a                	mv	a0,s2
   12e7c:	4581                	li	a1,0
   12e7e:	00008097          	auipc	ra,0x8
   12e82:	088080e7          	jalr	136(ra) # 1af06 <memset>
   12e86:	8626                	mv	a2,s1
   12e88:	06810223          	sb	s0,100(sp)
   12e8c:	6505                	lui	a0,0x1
   12e8e:	4499                	li	s1,6
   12e90:	4811                	li	a6,4
   12e92:	4599                	li	a1,6
   12e94:	9bf50793          	addi	a5,a0,-1601 # 9bf <.Lline_table_start1+0x794>
   12e98:	04400693          	li	a3,68
   12e9c:	4711                	li	a4,4
   12e9e:	853e                	mv	a0,a5
   12ea0:	00000073          	ecall
   12ea4:	04850263          	beq	a0,s0,12ee8 <_ZN20complex_full_dynamic3app17h5f30e3c508b600eeE+0x9a>
   12ea8:	853e                	mv	a0,a5
   12eaa:	864a                	mv	a2,s2
   12eac:	c63e                	sw	a5,12(sp)
   12eae:	c826                	sw	s1,16(sp)
   12eb0:	01010a23          	sb	a6,20(sp)
   12eb4:	448d                	li	s1,3
   12eb6:	458d                	li	a1,3
   12eb8:	02300693          	li	a3,35
   12ebc:	470d                	li	a4,3
   12ebe:	00000073          	ecall
   12ec2:	02850363          	beq	a0,s0,12ee8 <_ZN20complex_full_dynamic3app17h5f30e3c508b600eeE+0x9a>
   12ec6:	cebe                	sw	a5,92(sp)
   12ec8:	d0a6                	sw	s1,96(sp)
   12eca:	06910223          	sb	s1,100(sp)
   12ece:	6505                	lui	a0,0x1
   12ed0:	4599                	li	a1,6
   12ed2:	460d                	li	a2,3
   12ed4:	9bf50513          	addi	a0,a0,-1601 # 9bf <.Lline_table_start1+0x794>
   12ed8:	4709                	li	a4,2
   12eda:	07f00793          	li	a5,127
   12ede:	4681                	li	a3,0
   12ee0:	00000073          	ecall
   12ee4:	02a7e863          	bltu	a5,a0,12f14 <_ZN20complex_full_dynamic3app17h5f30e3c508b600eeE+0xc6>
   12ee8:	00b9a223          	sw	a1,4(s3)
   12eec:	4505                	li	a0,1
   12eee:	00a98023          	sb	a0,0(s3)
   12ef2:	08e8                	addi	a0,sp,92
   12ef4:	00008097          	auipc	ra,0x8
   12ef8:	ff2080e7          	jalr	-14(ra) # 1aee6 <_ZN9allow_pin12full_dynamic17unshare_if_shared17h3494b15e905518bcE>
   12efc:	0068                	addi	a0,sp,12
   12efe:	00008097          	auipc	ra,0x8
   12f02:	fe8080e7          	jalr	-24(ra) # 1aee6 <_ZN9allow_pin12full_dynamic17unshare_if_shared17h3494b15e905518bcE>
   12f06:	40fa                	lw	ra,156(sp)
   12f08:	446a                	lw	s0,152(sp)
   12f0a:	44da                	lw	s1,148(sp)
   12f0c:	494a                	lw	s2,144(sp)
   12f0e:	49ba                	lw	s3,140(sp)
   12f10:	610d                	addi	sp,sp,160
   12f12:	8082                	ret
   12f14:	0068                	addi	a0,sp,12
   12f16:	00008097          	auipc	ra,0x8
   12f1a:	fd0080e7          	jalr	-48(ra) # 1aee6 <_ZN9allow_pin12full_dynamic17unshare_if_shared17h3494b15e905518bcE>
   12f1e:	08e8                	addi	a0,sp,92
   12f20:	00008097          	auipc	ra,0x8
   12f24:	fc6080e7          	jalr	-58(ra) # 1aee6 <_ZN9allow_pin12full_dynamic17unshare_if_shared17h3494b15e905518bcE>
   12f28:	08e8                	addi	a0,sp,92
   12f2a:	00008097          	auipc	ra,0x8
   12f2e:	fbc080e7          	jalr	-68(ra) # 1aee6 <_ZN9allow_pin12full_dynamic17unshare_if_shared17h3494b15e905518bcE>
   12f32:	00198513          	addi	a0,s3,1
   12f36:	02300613          	li	a2,35
   12f3a:	85ca                	mv	a1,s2
   12f3c:	00008097          	auipc	ra,0x8
   12f40:	036080e7          	jalr	54(ra) # 1af72 <memcpy>
   12f44:	4501                	li	a0,0
   12f46:	b765                	j	12eee <_ZN20complex_full_dynamic3app17h5f30e3c508b600eeE+0xa0>

00012f48 <_ZN20complex_full_dynamic3app17h662a368a22b275eeE>:
   12f48:	7131                	addi	sp,sp,-192
   12f4a:	df06                	sw	ra,188(sp)
   12f4c:	dd22                	sw	s0,184(sp)
   12f4e:	db26                	sw	s1,180(sp)
   12f50:	d94a                	sw	s2,176(sp)
   12f52:	d74e                	sw	s3,172(sp)
   12f54:	89aa                	mv	s3,a0
   12f56:	4409                	li	s0,2
   12f58:	00810623          	sb	s0,12(sp)
   12f5c:	0804                	addi	s1,sp,16
   12f5e:	05300613          	li	a2,83
   12f62:	8526                	mv	a0,s1
   12f64:	00008097          	auipc	ra,0x8
   12f68:	00e080e7          	jalr	14(ra) # 1af72 <memcpy>
   12f6c:	07010913          	addi	s2,sp,112
   12f70:	03a00613          	li	a2,58
   12f74:	854a                	mv	a0,s2
   12f76:	4581                	li	a1,0
   12f78:	00008097          	auipc	ra,0x8
   12f7c:	f8e080e7          	jalr	-114(ra) # 1af06 <memset>
   12f80:	8626                	mv	a2,s1
   12f82:	06810623          	sb	s0,108(sp)
   12f86:	6509                	lui	a0,0x2
   12f88:	4499                	li	s1,6
   12f8a:	4811                	li	a6,4
   12f8c:	4599                	li	a1,6
   12f8e:	64550793          	addi	a5,a0,1605 # 2645 <.Lline_table_start1+0x241a>
   12f92:	05300693          	li	a3,83
   12f96:	4711                	li	a4,4
   12f98:	853e                	mv	a0,a5
   12f9a:	00000073          	ecall
   12f9e:	04850363          	beq	a0,s0,12fe4 <_ZN20complex_full_dynamic3app17h662a368a22b275eeE+0x9c>
   12fa2:	853e                	mv	a0,a5
   12fa4:	864a                	mv	a2,s2
   12fa6:	c23e                	sw	a5,4(sp)
   12fa8:	c426                	sw	s1,8(sp)
   12faa:	01010623          	sb	a6,12(sp)
   12fae:	449d                	li	s1,7
   12fb0:	480d                	li	a6,3
   12fb2:	459d                	li	a1,7
   12fb4:	03a00693          	li	a3,58
   12fb8:	470d                	li	a4,3
   12fba:	00000073          	ecall
   12fbe:	02850363          	beq	a0,s0,12fe4 <_ZN20complex_full_dynamic3app17h662a368a22b275eeE+0x9c>
   12fc2:	d2be                	sw	a5,100(sp)
   12fc4:	d4a6                	sw	s1,104(sp)
   12fc6:	07010623          	sb	a6,108(sp)
   12fca:	6509                	lui	a0,0x2
   12fcc:	4599                	li	a1,6
   12fce:	461d                	li	a2,7
   12fd0:	64550513          	addi	a0,a0,1605 # 2645 <.Lline_table_start1+0x241a>
   12fd4:	4709                	li	a4,2
   12fd6:	07f00793          	li	a5,127
   12fda:	4681                	li	a3,0
   12fdc:	00000073          	ecall
   12fe0:	02a7e863          	bltu	a5,a0,13010 <_ZN20complex_full_dynamic3app17h662a368a22b275eeE+0xc8>
   12fe4:	00b9a223          	sw	a1,4(s3)
   12fe8:	4505                	li	a0,1
   12fea:	00a98023          	sb	a0,0(s3)
   12fee:	10c8                	addi	a0,sp,100
   12ff0:	00008097          	auipc	ra,0x8
   12ff4:	ef6080e7          	jalr	-266(ra) # 1aee6 <_ZN9allow_pin12full_dynamic17unshare_if_shared17h3494b15e905518bcE>
   12ff8:	0048                	addi	a0,sp,4
   12ffa:	00008097          	auipc	ra,0x8
   12ffe:	eec080e7          	jalr	-276(ra) # 1aee6 <_ZN9allow_pin12full_dynamic17unshare_if_shared17h3494b15e905518bcE>
   13002:	50fa                	lw	ra,188(sp)
   13004:	546a                	lw	s0,184(sp)
   13006:	54da                	lw	s1,180(sp)
   13008:	594a                	lw	s2,176(sp)
   1300a:	59ba                	lw	s3,172(sp)
   1300c:	6129                	addi	sp,sp,192
   1300e:	8082                	ret
   13010:	0048                	addi	a0,sp,4
   13012:	00008097          	auipc	ra,0x8
   13016:	ed4080e7          	jalr	-300(ra) # 1aee6 <_ZN9allow_pin12full_dynamic17unshare_if_shared17h3494b15e905518bcE>
   1301a:	10c8                	addi	a0,sp,100
   1301c:	00008097          	auipc	ra,0x8
   13020:	eca080e7          	jalr	-310(ra) # 1aee6 <_ZN9allow_pin12full_dynamic17unshare_if_shared17h3494b15e905518bcE>
   13024:	10c8                	addi	a0,sp,100
   13026:	00008097          	auipc	ra,0x8
   1302a:	ec0080e7          	jalr	-320(ra) # 1aee6 <_ZN9allow_pin12full_dynamic17unshare_if_shared17h3494b15e905518bcE>
   1302e:	00198513          	addi	a0,s3,1
   13032:	03a00613          	li	a2,58
   13036:	85ca                	mv	a1,s2
   13038:	00008097          	auipc	ra,0x8
   1303c:	f3a080e7          	jalr	-198(ra) # 1af72 <memcpy>
   13040:	4501                	li	a0,0
   13042:	b765                	j	12fea <_ZN20complex_full_dynamic3app17h662a368a22b275eeE+0xa2>

00013044 <_ZN20complex_full_dynamic3app17h69f594c09bebe3fdE>:
   13044:	7135                	addi	sp,sp,-160
   13046:	cf06                	sw	ra,156(sp)
   13048:	cd22                	sw	s0,152(sp)
   1304a:	cb26                	sw	s1,148(sp)
   1304c:	c94a                	sw	s2,144(sp)
   1304e:	c74e                	sw	s3,140(sp)
   13050:	89aa                	mv	s3,a0
   13052:	4409                	li	s0,2
   13054:	00810a23          	sb	s0,20(sp)
   13058:	0824                	addi	s1,sp,24
   1305a:	03200613          	li	a2,50
   1305e:	8526                	mv	a0,s1
   13060:	00008097          	auipc	ra,0x8
   13064:	f12080e7          	jalr	-238(ra) # 1af72 <memcpy>
   13068:	05810913          	addi	s2,sp,88
   1306c:	03200613          	li	a2,50
   13070:	854a                	mv	a0,s2
   13072:	4581                	li	a1,0
   13074:	00008097          	auipc	ra,0x8
   13078:	e92080e7          	jalr	-366(ra) # 1af06 <memset>
   1307c:	8626                	mv	a2,s1
   1307e:	04810a23          	sb	s0,84(sp)
   13082:	6509                	lui	a0,0x2
   13084:	448d                	li	s1,3
   13086:	4811                	li	a6,4
   13088:	458d                	li	a1,3
   1308a:	f0750793          	addi	a5,a0,-249 # 1f07 <.Lline_table_start1+0x1cdc>
   1308e:	03200693          	li	a3,50
   13092:	4711                	li	a4,4
   13094:	853e                	mv	a0,a5
   13096:	00000073          	ecall
   1309a:	04850363          	beq	a0,s0,130e0 <_ZN20complex_full_dynamic3app17h69f594c09bebe3fdE+0x9c>
   1309e:	853e                	mv	a0,a5
   130a0:	864a                	mv	a2,s2
   130a2:	c63e                	sw	a5,12(sp)
   130a4:	c826                	sw	s1,16(sp)
   130a6:	01010a23          	sb	a6,20(sp)
   130aa:	4485                	li	s1,1
   130ac:	4585                	li	a1,1
   130ae:	03200693          	li	a3,50
   130b2:	470d                	li	a4,3
   130b4:	00000073          	ecall
   130b8:	02850463          	beq	a0,s0,130e0 <_ZN20complex_full_dynamic3app17h69f594c09bebe3fdE+0x9c>
   130bc:	450d                	li	a0,3
   130be:	6689                	lui	a3,0x2
   130c0:	458d                	li	a1,3
   130c2:	4605                	li	a2,1
   130c4:	c6be                	sw	a5,76(sp)
   130c6:	c8a6                	sw	s1,80(sp)
   130c8:	04a10a23          	sb	a0,84(sp)
   130cc:	f0768513          	addi	a0,a3,-249 # 1f07 <.Lline_table_start1+0x1cdc>
   130d0:	4709                	li	a4,2
   130d2:	07f00793          	li	a5,127
   130d6:	4681                	li	a3,0
   130d8:	00000073          	ecall
   130dc:	02a7e863          	bltu	a5,a0,1310c <_ZN20complex_full_dynamic3app17h69f594c09bebe3fdE+0xc8>
   130e0:	00b9a223          	sw	a1,4(s3)
   130e4:	4505                	li	a0,1
   130e6:	00a98023          	sb	a0,0(s3)
   130ea:	00e8                	addi	a0,sp,76
   130ec:	00008097          	auipc	ra,0x8
   130f0:	dfa080e7          	jalr	-518(ra) # 1aee6 <_ZN9allow_pin12full_dynamic17unshare_if_shared17h3494b15e905518bcE>
   130f4:	0068                	addi	a0,sp,12
   130f6:	00008097          	auipc	ra,0x8
   130fa:	df0080e7          	jalr	-528(ra) # 1aee6 <_ZN9allow_pin12full_dynamic17unshare_if_shared17h3494b15e905518bcE>
   130fe:	40fa                	lw	ra,156(sp)
   13100:	446a                	lw	s0,152(sp)
   13102:	44da                	lw	s1,148(sp)
   13104:	494a                	lw	s2,144(sp)
   13106:	49ba                	lw	s3,140(sp)
   13108:	610d                	addi	sp,sp,160
   1310a:	8082                	ret
   1310c:	0068                	addi	a0,sp,12
   1310e:	00008097          	auipc	ra,0x8
   13112:	dd8080e7          	jalr	-552(ra) # 1aee6 <_ZN9allow_pin12full_dynamic17unshare_if_shared17h3494b15e905518bcE>
   13116:	00e8                	addi	a0,sp,76
   13118:	00008097          	auipc	ra,0x8
   1311c:	dce080e7          	jalr	-562(ra) # 1aee6 <_ZN9allow_pin12full_dynamic17unshare_if_shared17h3494b15e905518bcE>
   13120:	00e8                	addi	a0,sp,76
   13122:	00008097          	auipc	ra,0x8
   13126:	dc4080e7          	jalr	-572(ra) # 1aee6 <_ZN9allow_pin12full_dynamic17unshare_if_shared17h3494b15e905518bcE>
   1312a:	00198513          	addi	a0,s3,1
   1312e:	03200613          	li	a2,50
   13132:	85ca                	mv	a1,s2
   13134:	00008097          	auipc	ra,0x8
   13138:	e3e080e7          	jalr	-450(ra) # 1af72 <memcpy>
   1313c:	4501                	li	a0,0
   1313e:	b765                	j	130e6 <_ZN20complex_full_dynamic3app17h69f594c09bebe3fdE+0xa2>

00013140 <_ZN20complex_full_dynamic3app17h6b7373c14878eaf6E>:
   13140:	7171                	addi	sp,sp,-176
   13142:	d706                	sw	ra,172(sp)
   13144:	d522                	sw	s0,168(sp)
   13146:	d326                	sw	s1,164(sp)
   13148:	d14a                	sw	s2,160(sp)
   1314a:	cf4e                	sw	s3,156(sp)
   1314c:	892a                	mv	s2,a0
   1314e:	4409                	li	s0,2
   13150:	00810423          	sb	s0,8(sp)
   13154:	0064                	addi	s1,sp,12
   13156:	06100613          	li	a2,97
   1315a:	8526                	mv	a0,s1
   1315c:	00008097          	auipc	ra,0x8
   13160:	e16080e7          	jalr	-490(ra) # 1af72 <memcpy>
   13164:	8626                	mv	a2,s1
   13166:	08011c23          	sh	zero,152(sp)
   1316a:	c502                	sw	zero,136(sp)
   1316c:	c702                	sw	zero,140(sp)
   1316e:	c902                	sw	zero,144(sp)
   13170:	cb02                	sw	zero,148(sp)
   13172:	06810c23          	sb	s0,120(sp)
   13176:	de82                	sw	zero,124(sp)
   13178:	c102                	sw	zero,128(sp)
   1317a:	c302                	sw	zero,132(sp)
   1317c:	18800493          	li	s1,392
   13180:	4791                	li	a5,4
   13182:	18800513          	li	a0,392
   13186:	4591                	li	a1,4
   13188:	06100693          	li	a3,97
   1318c:	4711                	li	a4,4
   1318e:	00000073          	ecall
   13192:	04850663          	beq	a0,s0,131de <_ZN20complex_full_dynamic3app17h6b7373c14878eaf6E+0x9e>
   13196:	07c10993          	addi	s3,sp,124
   1319a:	c026                	sw	s1,0(sp)
   1319c:	c23e                	sw	a5,4(sp)
   1319e:	00f10423          	sb	a5,8(sp)
   131a2:	4799                	li	a5,6
   131a4:	448d                	li	s1,3
   131a6:	18800513          	li	a0,392
   131aa:	4599                	li	a1,6
   131ac:	46f9                	li	a3,30
   131ae:	470d                	li	a4,3
   131b0:	864e                	mv	a2,s3
   131b2:	00000073          	ecall
   131b6:	02850463          	beq	a0,s0,131de <_ZN20complex_full_dynamic3app17h6b7373c14878eaf6E+0x9e>
   131ba:	18800693          	li	a3,392
   131be:	18800513          	li	a0,392
   131c2:	4591                	li	a1,4
   131c4:	4619                	li	a2,6
   131c6:	4709                	li	a4,2
   131c8:	07f00413          	li	s0,127
   131cc:	d8b6                	sw	a3,112(sp)
   131ce:	dabe                	sw	a5,116(sp)
   131d0:	06910c23          	sb	s1,120(sp)
   131d4:	4681                	li	a3,0
   131d6:	00000073          	ecall
   131da:	02a46863          	bltu	s0,a0,1320a <_ZN20complex_full_dynamic3app17h6b7373c14878eaf6E+0xca>
   131de:	00b92223          	sw	a1,4(s2)
   131e2:	4505                	li	a0,1
   131e4:	00a90023          	sb	a0,0(s2)
   131e8:	1888                	addi	a0,sp,112
   131ea:	00008097          	auipc	ra,0x8
   131ee:	cfc080e7          	jalr	-772(ra) # 1aee6 <_ZN9allow_pin12full_dynamic17unshare_if_shared17h3494b15e905518bcE>
   131f2:	850a                	mv	a0,sp
   131f4:	00008097          	auipc	ra,0x8
   131f8:	cf2080e7          	jalr	-782(ra) # 1aee6 <_ZN9allow_pin12full_dynamic17unshare_if_shared17h3494b15e905518bcE>
   131fc:	50ba                	lw	ra,172(sp)
   131fe:	542a                	lw	s0,168(sp)
   13200:	549a                	lw	s1,164(sp)
   13202:	590a                	lw	s2,160(sp)
   13204:	49fa                	lw	s3,156(sp)
   13206:	614d                	addi	sp,sp,176
   13208:	8082                	ret
   1320a:	850a                	mv	a0,sp
   1320c:	00008097          	auipc	ra,0x8
   13210:	cda080e7          	jalr	-806(ra) # 1aee6 <_ZN9allow_pin12full_dynamic17unshare_if_shared17h3494b15e905518bcE>
   13214:	1888                	addi	a0,sp,112
   13216:	00008097          	auipc	ra,0x8
   1321a:	cd0080e7          	jalr	-816(ra) # 1aee6 <_ZN9allow_pin12full_dynamic17unshare_if_shared17h3494b15e905518bcE>
   1321e:	1888                	addi	a0,sp,112
   13220:	00008097          	auipc	ra,0x8
   13224:	cc6080e7          	jalr	-826(ra) # 1aee6 <_ZN9allow_pin12full_dynamic17unshare_if_shared17h3494b15e905518bcE>
   13228:	00190513          	addi	a0,s2,1
   1322c:	4679                	li	a2,30
   1322e:	85ce                	mv	a1,s3
   13230:	00008097          	auipc	ra,0x8
   13234:	d42080e7          	jalr	-702(ra) # 1af72 <memcpy>
   13238:	4501                	li	a0,0
   1323a:	b76d                	j	131e4 <_ZN20complex_full_dynamic3app17h6b7373c14878eaf6E+0xa4>

0001323c <_ZN20complex_full_dynamic3app17h6e0ae8db1084dd4dE>:
   1323c:	7159                	addi	sp,sp,-112
   1323e:	d686                	sw	ra,108(sp)
   13240:	d4a2                	sw	s0,104(sp)
   13242:	d2a6                	sw	s1,100(sp)
   13244:	d0ca                	sw	s2,96(sp)
   13246:	cece                	sw	s3,92(sp)
   13248:	892a                	mv	s2,a0
   1324a:	4409                	li	s0,2
   1324c:	00810a23          	sb	s0,20(sp)
   13250:	0824                	addi	s1,sp,24
   13252:	4661                	li	a2,24
   13254:	8526                	mv	a0,s1
   13256:	00008097          	auipc	ra,0x8
   1325a:	d1c080e7          	jalr	-740(ra) # 1af72 <memcpy>
   1325e:	8626                	mv	a2,s1
   13260:	04011c23          	sh	zero,88(sp)
   13264:	c482                	sw	zero,72(sp)
   13266:	c682                	sw	zero,76(sp)
   13268:	c882                	sw	zero,80(sp)
   1326a:	ca82                	sw	zero,84(sp)
   1326c:	02810c23          	sb	s0,56(sp)
   13270:	de02                	sw	zero,60(sp)
   13272:	c082                	sw	zero,64(sp)
   13274:	c282                	sw	zero,68(sp)
   13276:	6505                	lui	a0,0x1
   13278:	44a5                	li	s1,9
   1327a:	4811                	li	a6,4
   1327c:	45a5                	li	a1,9
   1327e:	cbb50793          	addi	a5,a0,-837 # cbb <.Lline_table_start1+0xa90>
   13282:	46e1                	li	a3,24
   13284:	4711                	li	a4,4
   13286:	853e                	mv	a0,a5
   13288:	00000073          	ecall
   1328c:	04850463          	beq	a0,s0,132d4 <_ZN20complex_full_dynamic3app17h6e0ae8db1084dd4dE+0x98>
   13290:	853e                	mv	a0,a5
   13292:	03c10993          	addi	s3,sp,60
   13296:	c63e                	sw	a5,12(sp)
   13298:	c826                	sw	s1,16(sp)
   1329a:	01010a23          	sb	a6,20(sp)
   1329e:	4495                	li	s1,5
   132a0:	480d                	li	a6,3
   132a2:	4595                	li	a1,5
   132a4:	46f9                	li	a3,30
   132a6:	470d                	li	a4,3
   132a8:	864e                	mv	a2,s3
   132aa:	00000073          	ecall
   132ae:	02850363          	beq	a0,s0,132d4 <_ZN20complex_full_dynamic3app17h6e0ae8db1084dd4dE+0x98>
   132b2:	d83e                	sw	a5,48(sp)
   132b4:	da26                	sw	s1,52(sp)
   132b6:	03010c23          	sb	a6,56(sp)
   132ba:	6505                	lui	a0,0x1
   132bc:	45a5                	li	a1,9
   132be:	4615                	li	a2,5
   132c0:	cbb50513          	addi	a0,a0,-837 # cbb <.Lline_table_start1+0xa90>
   132c4:	4709                	li	a4,2
   132c6:	07f00793          	li	a5,127
   132ca:	4681                	li	a3,0
   132cc:	00000073          	ecall
   132d0:	02a7e863          	bltu	a5,a0,13300 <_ZN20complex_full_dynamic3app17h6e0ae8db1084dd4dE+0xc4>
   132d4:	00b92223          	sw	a1,4(s2)
   132d8:	4505                	li	a0,1
   132da:	00a90023          	sb	a0,0(s2)
   132de:	1808                	addi	a0,sp,48
   132e0:	00008097          	auipc	ra,0x8
   132e4:	c06080e7          	jalr	-1018(ra) # 1aee6 <_ZN9allow_pin12full_dynamic17unshare_if_shared17h3494b15e905518bcE>
   132e8:	0068                	addi	a0,sp,12
   132ea:	00008097          	auipc	ra,0x8
   132ee:	bfc080e7          	jalr	-1028(ra) # 1aee6 <_ZN9allow_pin12full_dynamic17unshare_if_shared17h3494b15e905518bcE>
   132f2:	50b6                	lw	ra,108(sp)
   132f4:	5426                	lw	s0,104(sp)
   132f6:	5496                	lw	s1,100(sp)
   132f8:	5906                	lw	s2,96(sp)
   132fa:	49f6                	lw	s3,92(sp)
   132fc:	6165                	addi	sp,sp,112
   132fe:	8082                	ret
   13300:	0068                	addi	a0,sp,12
   13302:	00008097          	auipc	ra,0x8
   13306:	be4080e7          	jalr	-1052(ra) # 1aee6 <_ZN9allow_pin12full_dynamic17unshare_if_shared17h3494b15e905518bcE>
   1330a:	1808                	addi	a0,sp,48
   1330c:	00008097          	auipc	ra,0x8
   13310:	bda080e7          	jalr	-1062(ra) # 1aee6 <_ZN9allow_pin12full_dynamic17unshare_if_shared17h3494b15e905518bcE>
   13314:	1808                	addi	a0,sp,48
   13316:	00008097          	auipc	ra,0x8
   1331a:	bd0080e7          	jalr	-1072(ra) # 1aee6 <_ZN9allow_pin12full_dynamic17unshare_if_shared17h3494b15e905518bcE>
   1331e:	00190513          	addi	a0,s2,1
   13322:	4679                	li	a2,30
   13324:	85ce                	mv	a1,s3
   13326:	00008097          	auipc	ra,0x8
   1332a:	c4c080e7          	jalr	-948(ra) # 1af72 <memcpy>
   1332e:	4501                	li	a0,0
   13330:	b76d                	j	132da <_ZN20complex_full_dynamic3app17h6e0ae8db1084dd4dE+0x9e>

00013332 <_ZN20complex_full_dynamic3app17h70e18d4c915a6d3eE>:
   13332:	7175                	addi	sp,sp,-144
   13334:	c706                	sw	ra,140(sp)
   13336:	c522                	sw	s0,136(sp)
   13338:	c326                	sw	s1,132(sp)
   1333a:	c14a                	sw	s2,128(sp)
   1333c:	dece                	sw	s3,124(sp)
   1333e:	892a                	mv	s2,a0
   13340:	4409                	li	s0,2
   13342:	00810823          	sb	s0,16(sp)
   13346:	0844                	addi	s1,sp,20
   13348:	04100613          	li	a2,65
   1334c:	8526                	mv	a0,s1
   1334e:	00008097          	auipc	ra,0x8
   13352:	c24080e7          	jalr	-988(ra) # 1af72 <memcpy>
   13356:	8626                	mv	a2,s1
   13358:	d882                	sw	zero,112(sp)
   1335a:	da82                	sw	zero,116(sp)
   1335c:	dc82                	sw	zero,120(sp)
   1335e:	06810023          	sb	s0,96(sp)
   13362:	d282                	sw	zero,100(sp)
   13364:	d482                	sw	zero,104(sp)
   13366:	d682                	sw	zero,108(sp)
   13368:	6509                	lui	a0,0x2
   1336a:	4485                	li	s1,1
   1336c:	4811                	li	a6,4
   1336e:	4585                	li	a1,1
   13370:	15650793          	addi	a5,a0,342 # 2156 <.Lline_table_start1+0x1f2b>
   13374:	04100693          	li	a3,65
   13378:	4711                	li	a4,4
   1337a:	853e                	mv	a0,a5
   1337c:	00000073          	ecall
   13380:	04850463          	beq	a0,s0,133c8 <_ZN20complex_full_dynamic3app17h70e18d4c915a6d3eE+0x96>
   13384:	853e                	mv	a0,a5
   13386:	06410993          	addi	s3,sp,100
   1338a:	c43e                	sw	a5,8(sp)
   1338c:	c626                	sw	s1,12(sp)
   1338e:	01010823          	sb	a6,16(sp)
   13392:	44a5                	li	s1,9
   13394:	480d                	li	a6,3
   13396:	45a5                	li	a1,9
   13398:	46e1                	li	a3,24
   1339a:	470d                	li	a4,3
   1339c:	864e                	mv	a2,s3
   1339e:	00000073          	ecall
   133a2:	02850363          	beq	a0,s0,133c8 <_ZN20complex_full_dynamic3app17h70e18d4c915a6d3eE+0x96>
   133a6:	ccbe                	sw	a5,88(sp)
   133a8:	cea6                	sw	s1,92(sp)
   133aa:	07010023          	sb	a6,96(sp)
   133ae:	6509                	lui	a0,0x2
   133b0:	4585                	li	a1,1
   133b2:	4625                	li	a2,9
   133b4:	15650513          	addi	a0,a0,342 # 2156 <.Lline_table_start1+0x1f2b>
   133b8:	4709                	li	a4,2
   133ba:	07f00793          	li	a5,127
   133be:	4681                	li	a3,0
   133c0:	00000073          	ecall
   133c4:	02a7e863          	bltu	a5,a0,133f4 <_ZN20complex_full_dynamic3app17h70e18d4c915a6d3eE+0xc2>
   133c8:	00b92223          	sw	a1,4(s2)
   133cc:	4505                	li	a0,1
   133ce:	00a90023          	sb	a0,0(s2)
   133d2:	08a8                	addi	a0,sp,88
   133d4:	00008097          	auipc	ra,0x8
   133d8:	b12080e7          	jalr	-1262(ra) # 1aee6 <_ZN9allow_pin12full_dynamic17unshare_if_shared17h3494b15e905518bcE>
   133dc:	0028                	addi	a0,sp,8
   133de:	00008097          	auipc	ra,0x8
   133e2:	b08080e7          	jalr	-1272(ra) # 1aee6 <_ZN9allow_pin12full_dynamic17unshare_if_shared17h3494b15e905518bcE>
   133e6:	40ba                	lw	ra,140(sp)
   133e8:	442a                	lw	s0,136(sp)
   133ea:	449a                	lw	s1,132(sp)
   133ec:	490a                	lw	s2,128(sp)
   133ee:	59f6                	lw	s3,124(sp)
   133f0:	6149                	addi	sp,sp,144
   133f2:	8082                	ret
   133f4:	0028                	addi	a0,sp,8
   133f6:	00008097          	auipc	ra,0x8
   133fa:	af0080e7          	jalr	-1296(ra) # 1aee6 <_ZN9allow_pin12full_dynamic17unshare_if_shared17h3494b15e905518bcE>
   133fe:	08a8                	addi	a0,sp,88
   13400:	00008097          	auipc	ra,0x8
   13404:	ae6080e7          	jalr	-1306(ra) # 1aee6 <_ZN9allow_pin12full_dynamic17unshare_if_shared17h3494b15e905518bcE>
   13408:	08a8                	addi	a0,sp,88
   1340a:	00008097          	auipc	ra,0x8
   1340e:	adc080e7          	jalr	-1316(ra) # 1aee6 <_ZN9allow_pin12full_dynamic17unshare_if_shared17h3494b15e905518bcE>
   13412:	00190513          	addi	a0,s2,1
   13416:	4661                	li	a2,24
   13418:	85ce                	mv	a1,s3
   1341a:	00008097          	auipc	ra,0x8
   1341e:	b58080e7          	jalr	-1192(ra) # 1af72 <memcpy>
   13422:	4501                	li	a0,0
   13424:	b76d                	j	133ce <_ZN20complex_full_dynamic3app17h70e18d4c915a6d3eE+0x9c>

00013426 <_ZN20complex_full_dynamic3app17h77c319c2ca315720E>:
   13426:	7135                	addi	sp,sp,-160
   13428:	cf06                	sw	ra,156(sp)
   1342a:	cd22                	sw	s0,152(sp)
   1342c:	cb26                	sw	s1,148(sp)
   1342e:	c94a                	sw	s2,144(sp)
   13430:	c74e                	sw	s3,140(sp)
   13432:	89aa                	mv	s3,a0
   13434:	4409                	li	s0,2
   13436:	00810623          	sb	s0,12(sp)
   1343a:	0804                	addi	s1,sp,16
   1343c:	04900613          	li	a2,73
   13440:	8526                	mv	a0,s1
   13442:	00008097          	auipc	ra,0x8
   13446:	b30080e7          	jalr	-1232(ra) # 1af72 <memcpy>
   1344a:	06810913          	addi	s2,sp,104
   1344e:	02300613          	li	a2,35
   13452:	854a                	mv	a0,s2
   13454:	4581                	li	a1,0
   13456:	00008097          	auipc	ra,0x8
   1345a:	ab0080e7          	jalr	-1360(ra) # 1af06 <memset>
   1345e:	8626                	mv	a2,s1
   13460:	06810223          	sb	s0,100(sp)
   13464:	6505                	lui	a0,0x1
   13466:	449d                	li	s1,7
   13468:	4811                	li	a6,4
   1346a:	459d                	li	a1,7
   1346c:	55150793          	addi	a5,a0,1361 # 1551 <.Lline_table_start1+0x1326>
   13470:	04900693          	li	a3,73
   13474:	4711                	li	a4,4
   13476:	853e                	mv	a0,a5
   13478:	00000073          	ecall
   1347c:	04850363          	beq	a0,s0,134c2 <_ZN20complex_full_dynamic3app17h77c319c2ca315720E+0x9c>
   13480:	853e                	mv	a0,a5
   13482:	864a                	mv	a2,s2
   13484:	c23e                	sw	a5,4(sp)
   13486:	c426                	sw	s1,8(sp)
   13488:	01010623          	sb	a6,12(sp)
   1348c:	4485                	li	s1,1
   1348e:	480d                	li	a6,3
   13490:	4585                	li	a1,1
   13492:	02300693          	li	a3,35
   13496:	470d                	li	a4,3
   13498:	00000073          	ecall
   1349c:	02850363          	beq	a0,s0,134c2 <_ZN20complex_full_dynamic3app17h77c319c2ca315720E+0x9c>
   134a0:	cebe                	sw	a5,92(sp)
   134a2:	d0a6                	sw	s1,96(sp)
   134a4:	07010223          	sb	a6,100(sp)
   134a8:	6505                	lui	a0,0x1
   134aa:	459d                	li	a1,7
   134ac:	4605                	li	a2,1
   134ae:	55150513          	addi	a0,a0,1361 # 1551 <.Lline_table_start1+0x1326>
   134b2:	4709                	li	a4,2
   134b4:	07f00793          	li	a5,127
   134b8:	4681                	li	a3,0
   134ba:	00000073          	ecall
   134be:	02a7e863          	bltu	a5,a0,134ee <_ZN20complex_full_dynamic3app17h77c319c2ca315720E+0xc8>
   134c2:	00b9a223          	sw	a1,4(s3)
   134c6:	4505                	li	a0,1
   134c8:	00a98023          	sb	a0,0(s3)
   134cc:	08e8                	addi	a0,sp,92
   134ce:	00008097          	auipc	ra,0x8
   134d2:	a18080e7          	jalr	-1512(ra) # 1aee6 <_ZN9allow_pin12full_dynamic17unshare_if_shared17h3494b15e905518bcE>
   134d6:	0048                	addi	a0,sp,4
   134d8:	00008097          	auipc	ra,0x8
   134dc:	a0e080e7          	jalr	-1522(ra) # 1aee6 <_ZN9allow_pin12full_dynamic17unshare_if_shared17h3494b15e905518bcE>
   134e0:	40fa                	lw	ra,156(sp)
   134e2:	446a                	lw	s0,152(sp)
   134e4:	44da                	lw	s1,148(sp)
   134e6:	494a                	lw	s2,144(sp)
   134e8:	49ba                	lw	s3,140(sp)
   134ea:	610d                	addi	sp,sp,160
   134ec:	8082                	ret
   134ee:	0048                	addi	a0,sp,4
   134f0:	00008097          	auipc	ra,0x8
   134f4:	9f6080e7          	jalr	-1546(ra) # 1aee6 <_ZN9allow_pin12full_dynamic17unshare_if_shared17h3494b15e905518bcE>
   134f8:	08e8                	addi	a0,sp,92
   134fa:	00008097          	auipc	ra,0x8
   134fe:	9ec080e7          	jalr	-1556(ra) # 1aee6 <_ZN9allow_pin12full_dynamic17unshare_if_shared17h3494b15e905518bcE>
   13502:	08e8                	addi	a0,sp,92
   13504:	00008097          	auipc	ra,0x8
   13508:	9e2080e7          	jalr	-1566(ra) # 1aee6 <_ZN9allow_pin12full_dynamic17unshare_if_shared17h3494b15e905518bcE>
   1350c:	00198513          	addi	a0,s3,1
   13510:	02300613          	li	a2,35
   13514:	85ca                	mv	a1,s2
   13516:	00008097          	auipc	ra,0x8
   1351a:	a5c080e7          	jalr	-1444(ra) # 1af72 <memcpy>
   1351e:	4501                	li	a0,0
   13520:	b765                	j	134c8 <_ZN20complex_full_dynamic3app17h77c319c2ca315720E+0xa2>

00013522 <_ZN20complex_full_dynamic3app17h77d7bede5142b363E>:
   13522:	7135                	addi	sp,sp,-160
   13524:	cf06                	sw	ra,156(sp)
   13526:	cd22                	sw	s0,152(sp)
   13528:	cb26                	sw	s1,148(sp)
   1352a:	c94a                	sw	s2,144(sp)
   1352c:	c74e                	sw	s3,140(sp)
   1352e:	892a                	mv	s2,a0
   13530:	4409                	li	s0,2
   13532:	00810823          	sb	s0,16(sp)
   13536:	0844                	addi	s1,sp,20
   13538:	05500613          	li	a2,85
   1353c:	8526                	mv	a0,s1
   1353e:	00008097          	auipc	ra,0x8
   13542:	a34080e7          	jalr	-1484(ra) # 1af72 <memcpy>
   13546:	8626                	mv	a2,s1
   13548:	c302                	sw	zero,132(sp)
   1354a:	08010423          	sb	zero,136(sp)
   1354e:	06810a23          	sb	s0,116(sp)
   13552:	dc82                	sw	zero,120(sp)
   13554:	de82                	sw	zero,124(sp)
   13556:	c102                	sw	zero,128(sp)
   13558:	6505                	lui	a0,0x1
   1355a:	4491                	li	s1,4
   1355c:	4589                	li	a1,2
   1355e:	c8950793          	addi	a5,a0,-887 # c89 <.Lline_table_start1+0xa5e>
   13562:	05500693          	li	a3,85
   13566:	4711                	li	a4,4
   13568:	853e                	mv	a0,a5
   1356a:	00000073          	ecall
   1356e:	04850463          	beq	a0,s0,135b6 <_ZN20complex_full_dynamic3app17h77d7bede5142b363E+0x94>
   13572:	853e                	mv	a0,a5
   13574:	07810993          	addi	s3,sp,120
   13578:	c43e                	sw	a5,8(sp)
   1357a:	c622                	sw	s0,12(sp)
   1357c:	00910823          	sb	s1,16(sp)
   13580:	448d                	li	s1,3
   13582:	4589                	li	a1,2
   13584:	46c5                	li	a3,17
   13586:	470d                	li	a4,3
   13588:	864e                	mv	a2,s3
   1358a:	00000073          	ecall
   1358e:	02850463          	beq	a0,s0,135b6 <_ZN20complex_full_dynamic3app17h77d7bede5142b363E+0x94>
   13592:	4509                	li	a0,2
   13594:	6685                	lui	a3,0x1
   13596:	4589                	li	a1,2
   13598:	4609                	li	a2,2
   1359a:	d6be                	sw	a5,108(sp)
   1359c:	d8aa                	sw	a0,112(sp)
   1359e:	06910a23          	sb	s1,116(sp)
   135a2:	c8968513          	addi	a0,a3,-887 # c89 <.Lline_table_start1+0xa5e>
   135a6:	4709                	li	a4,2
   135a8:	07f00793          	li	a5,127
   135ac:	4681                	li	a3,0
   135ae:	00000073          	ecall
   135b2:	02a7e863          	bltu	a5,a0,135e2 <_ZN20complex_full_dynamic3app17h77d7bede5142b363E+0xc0>
   135b6:	00b92223          	sw	a1,4(s2)
   135ba:	4505                	li	a0,1
   135bc:	00a90023          	sb	a0,0(s2)
   135c0:	10e8                	addi	a0,sp,108
   135c2:	00008097          	auipc	ra,0x8
   135c6:	924080e7          	jalr	-1756(ra) # 1aee6 <_ZN9allow_pin12full_dynamic17unshare_if_shared17h3494b15e905518bcE>
   135ca:	0028                	addi	a0,sp,8
   135cc:	00008097          	auipc	ra,0x8
   135d0:	91a080e7          	jalr	-1766(ra) # 1aee6 <_ZN9allow_pin12full_dynamic17unshare_if_shared17h3494b15e905518bcE>
   135d4:	40fa                	lw	ra,156(sp)
   135d6:	446a                	lw	s0,152(sp)
   135d8:	44da                	lw	s1,148(sp)
   135da:	494a                	lw	s2,144(sp)
   135dc:	49ba                	lw	s3,140(sp)
   135de:	610d                	addi	sp,sp,160
   135e0:	8082                	ret
   135e2:	0028                	addi	a0,sp,8
   135e4:	00008097          	auipc	ra,0x8
   135e8:	902080e7          	jalr	-1790(ra) # 1aee6 <_ZN9allow_pin12full_dynamic17unshare_if_shared17h3494b15e905518bcE>
   135ec:	10e8                	addi	a0,sp,108
   135ee:	00008097          	auipc	ra,0x8
   135f2:	8f8080e7          	jalr	-1800(ra) # 1aee6 <_ZN9allow_pin12full_dynamic17unshare_if_shared17h3494b15e905518bcE>
   135f6:	10e8                	addi	a0,sp,108
   135f8:	00008097          	auipc	ra,0x8
   135fc:	8ee080e7          	jalr	-1810(ra) # 1aee6 <_ZN9allow_pin12full_dynamic17unshare_if_shared17h3494b15e905518bcE>
   13600:	00190513          	addi	a0,s2,1
   13604:	4645                	li	a2,17
   13606:	85ce                	mv	a1,s3
   13608:	00008097          	auipc	ra,0x8
   1360c:	96a080e7          	jalr	-1686(ra) # 1af72 <memcpy>
   13610:	4501                	li	a0,0
   13612:	b76d                	j	135bc <_ZN20complex_full_dynamic3app17h77d7bede5142b363E+0x9a>

00013614 <_ZN20complex_full_dynamic3app17h7a80bd77f6bce103E>:
   13614:	7119                	addi	sp,sp,-128
   13616:	de86                	sw	ra,124(sp)
   13618:	dca2                	sw	s0,120(sp)
   1361a:	daa6                	sw	s1,116(sp)
   1361c:	d8ca                	sw	s2,112(sp)
   1361e:	d6ce                	sw	s3,108(sp)
   13620:	89aa                	mv	s3,a0
   13622:	4409                	li	s0,2
   13624:	00810423          	sb	s0,8(sp)
   13628:	0064                	addi	s1,sp,12
   1362a:	02c00613          	li	a2,44
   1362e:	8526                	mv	a0,s1
   13630:	00008097          	auipc	ra,0x8
   13634:	942080e7          	jalr	-1726(ra) # 1af72 <memcpy>
   13638:	04410913          	addi	s2,sp,68
   1363c:	02700613          	li	a2,39
   13640:	854a                	mv	a0,s2
   13642:	4581                	li	a1,0
   13644:	00008097          	auipc	ra,0x8
   13648:	8c2080e7          	jalr	-1854(ra) # 1af06 <memset>
   1364c:	8626                	mv	a2,s1
   1364e:	04810023          	sb	s0,64(sp)
   13652:	6505                	lui	a0,0x1
   13654:	4491                	li	s1,4
   13656:	4591                	li	a1,4
   13658:	1b550793          	addi	a5,a0,437 # 11b5 <.Lline_table_start1+0xf8a>
   1365c:	02c00693          	li	a3,44
   13660:	4711                	li	a4,4
   13662:	853e                	mv	a0,a5
   13664:	00000073          	ecall
   13668:	04850263          	beq	a0,s0,136ac <_ZN20complex_full_dynamic3app17h7a80bd77f6bce103E+0x98>
   1366c:	853e                	mv	a0,a5
   1366e:	864a                	mv	a2,s2
   13670:	c03e                	sw	a5,0(sp)
   13672:	c226                	sw	s1,4(sp)
   13674:	00910423          	sb	s1,8(sp)
   13678:	448d                	li	s1,3
   1367a:	458d                	li	a1,3
   1367c:	02700693          	li	a3,39
   13680:	470d                	li	a4,3
   13682:	00000073          	ecall
   13686:	02850363          	beq	a0,s0,136ac <_ZN20complex_full_dynamic3app17h7a80bd77f6bce103E+0x98>
   1368a:	dc3e                	sw	a5,56(sp)
   1368c:	de26                	sw	s1,60(sp)
   1368e:	04910023          	sb	s1,64(sp)
   13692:	6505                	lui	a0,0x1
   13694:	4591                	li	a1,4
   13696:	460d                	li	a2,3
   13698:	1b550513          	addi	a0,a0,437 # 11b5 <.Lline_table_start1+0xf8a>
   1369c:	4709                	li	a4,2
   1369e:	07f00793          	li	a5,127
   136a2:	4681                	li	a3,0
   136a4:	00000073          	ecall
   136a8:	02a7e863          	bltu	a5,a0,136d8 <_ZN20complex_full_dynamic3app17h7a80bd77f6bce103E+0xc4>
   136ac:	00b9a223          	sw	a1,4(s3)
   136b0:	4505                	li	a0,1
   136b2:	00a98023          	sb	a0,0(s3)
   136b6:	1828                	addi	a0,sp,56
   136b8:	00008097          	auipc	ra,0x8
   136bc:	82e080e7          	jalr	-2002(ra) # 1aee6 <_ZN9allow_pin12full_dynamic17unshare_if_shared17h3494b15e905518bcE>
   136c0:	850a                	mv	a0,sp
   136c2:	00008097          	auipc	ra,0x8
   136c6:	824080e7          	jalr	-2012(ra) # 1aee6 <_ZN9allow_pin12full_dynamic17unshare_if_shared17h3494b15e905518bcE>
   136ca:	50f6                	lw	ra,124(sp)
   136cc:	5466                	lw	s0,120(sp)
   136ce:	54d6                	lw	s1,116(sp)
   136d0:	5946                	lw	s2,112(sp)
   136d2:	59b6                	lw	s3,108(sp)
   136d4:	6109                	addi	sp,sp,128
   136d6:	8082                	ret
   136d8:	850a                	mv	a0,sp
   136da:	00008097          	auipc	ra,0x8
   136de:	80c080e7          	jalr	-2036(ra) # 1aee6 <_ZN9allow_pin12full_dynamic17unshare_if_shared17h3494b15e905518bcE>
   136e2:	1828                	addi	a0,sp,56
   136e4:	00008097          	auipc	ra,0x8
   136e8:	802080e7          	jalr	-2046(ra) # 1aee6 <_ZN9allow_pin12full_dynamic17unshare_if_shared17h3494b15e905518bcE>
   136ec:	1828                	addi	a0,sp,56
   136ee:	00007097          	auipc	ra,0x7
   136f2:	7f8080e7          	jalr	2040(ra) # 1aee6 <_ZN9allow_pin12full_dynamic17unshare_if_shared17h3494b15e905518bcE>
   136f6:	00198513          	addi	a0,s3,1
   136fa:	02700613          	li	a2,39
   136fe:	85ca                	mv	a1,s2
   13700:	00008097          	auipc	ra,0x8
   13704:	872080e7          	jalr	-1934(ra) # 1af72 <memcpy>
   13708:	4501                	li	a0,0
   1370a:	b765                	j	136b2 <_ZN20complex_full_dynamic3app17h7a80bd77f6bce103E+0x9e>

0001370c <_ZN20complex_full_dynamic3app17h7b7260b289fc16b9E>:
   1370c:	7159                	addi	sp,sp,-112
   1370e:	d686                	sw	ra,108(sp)
   13710:	d4a2                	sw	s0,104(sp)
   13712:	d2a6                	sw	s1,100(sp)
   13714:	d0ca                	sw	s2,96(sp)
   13716:	cece                	sw	s3,92(sp)
   13718:	89aa                	mv	s3,a0
   1371a:	4409                	li	s0,2
   1371c:	00810a23          	sb	s0,20(sp)
   13720:	0824                	addi	s1,sp,24
   13722:	463d                	li	a2,15
   13724:	8526                	mv	a0,s1
   13726:	00008097          	auipc	ra,0x8
   1372a:	84c080e7          	jalr	-1972(ra) # 1af72 <memcpy>
   1372e:	03410913          	addi	s2,sp,52
   13732:	02500613          	li	a2,37
   13736:	854a                	mv	a0,s2
   13738:	4581                	li	a1,0
   1373a:	00007097          	auipc	ra,0x7
   1373e:	7cc080e7          	jalr	1996(ra) # 1af06 <memset>
   13742:	8626                	mv	a2,s1
   13744:	02810823          	sb	s0,48(sp)
   13748:	0a200793          	li	a5,162
   1374c:	44a1                	li	s1,8
   1374e:	4811                	li	a6,4
   13750:	0a200513          	li	a0,162
   13754:	45a1                	li	a1,8
   13756:	46bd                	li	a3,15
   13758:	4711                	li	a4,4
   1375a:	00000073          	ecall
   1375e:	04850463          	beq	a0,s0,137a6 <_ZN20complex_full_dynamic3app17h7b7260b289fc16b9E+0x9a>
   13762:	4581                	li	a1,0
   13764:	864a                	mv	a2,s2
   13766:	c63e                	sw	a5,12(sp)
   13768:	c826                	sw	s1,16(sp)
   1376a:	01010a23          	sb	a6,20(sp)
   1376e:	478d                	li	a5,3
   13770:	0a200513          	li	a0,162
   13774:	02500693          	li	a3,37
   13778:	470d                	li	a4,3
   1377a:	00000073          	ecall
   1377e:	02850463          	beq	a0,s0,137a6 <_ZN20complex_full_dynamic3app17h7b7260b289fc16b9E+0x9a>
   13782:	0a200613          	li	a2,162
   13786:	0a200513          	li	a0,162
   1378a:	45a1                	li	a1,8
   1378c:	4709                	li	a4,2
   1378e:	07f00493          	li	s1,127
   13792:	d432                	sw	a2,40(sp)
   13794:	d602                	sw	zero,44(sp)
   13796:	02f10823          	sb	a5,48(sp)
   1379a:	4601                	li	a2,0
   1379c:	4681                	li	a3,0
   1379e:	00000073          	ecall
   137a2:	02a4e863          	bltu	s1,a0,137d2 <_ZN20complex_full_dynamic3app17h7b7260b289fc16b9E+0xc6>
   137a6:	00b9a223          	sw	a1,4(s3)
   137aa:	4505                	li	a0,1
   137ac:	00a98023          	sb	a0,0(s3)
   137b0:	1028                	addi	a0,sp,40
   137b2:	00007097          	auipc	ra,0x7
   137b6:	734080e7          	jalr	1844(ra) # 1aee6 <_ZN9allow_pin12full_dynamic17unshare_if_shared17h3494b15e905518bcE>
   137ba:	0068                	addi	a0,sp,12
   137bc:	00007097          	auipc	ra,0x7
   137c0:	72a080e7          	jalr	1834(ra) # 1aee6 <_ZN9allow_pin12full_dynamic17unshare_if_shared17h3494b15e905518bcE>
   137c4:	50b6                	lw	ra,108(sp)
   137c6:	5426                	lw	s0,104(sp)
   137c8:	5496                	lw	s1,100(sp)
   137ca:	5906                	lw	s2,96(sp)
   137cc:	49f6                	lw	s3,92(sp)
   137ce:	6165                	addi	sp,sp,112
   137d0:	8082                	ret
   137d2:	0068                	addi	a0,sp,12
   137d4:	00007097          	auipc	ra,0x7
   137d8:	712080e7          	jalr	1810(ra) # 1aee6 <_ZN9allow_pin12full_dynamic17unshare_if_shared17h3494b15e905518bcE>
   137dc:	1028                	addi	a0,sp,40
   137de:	00007097          	auipc	ra,0x7
   137e2:	708080e7          	jalr	1800(ra) # 1aee6 <_ZN9allow_pin12full_dynamic17unshare_if_shared17h3494b15e905518bcE>
   137e6:	1028                	addi	a0,sp,40
   137e8:	00007097          	auipc	ra,0x7
   137ec:	6fe080e7          	jalr	1790(ra) # 1aee6 <_ZN9allow_pin12full_dynamic17unshare_if_shared17h3494b15e905518bcE>
   137f0:	00198513          	addi	a0,s3,1
   137f4:	02500613          	li	a2,37
   137f8:	85ca                	mv	a1,s2
   137fa:	00007097          	auipc	ra,0x7
   137fe:	778080e7          	jalr	1912(ra) # 1af72 <memcpy>
   13802:	4501                	li	a0,0
   13804:	b765                	j	137ac <_ZN20complex_full_dynamic3app17h7b7260b289fc16b9E+0xa0>

00013806 <_ZN20complex_full_dynamic3app17h7bac604566d94cb7E>:
   13806:	7131                	addi	sp,sp,-192
   13808:	df06                	sw	ra,188(sp)
   1380a:	dd22                	sw	s0,184(sp)
   1380c:	db26                	sw	s1,180(sp)
   1380e:	d94a                	sw	s2,176(sp)
   13810:	d74e                	sw	s3,172(sp)
   13812:	89aa                	mv	s3,a0
   13814:	4409                	li	s0,2
   13816:	00810a23          	sb	s0,20(sp)
   1381a:	0824                	addi	s1,sp,24
   1381c:	04f00613          	li	a2,79
   13820:	8526                	mv	a0,s1
   13822:	00007097          	auipc	ra,0x7
   13826:	750080e7          	jalr	1872(ra) # 1af72 <memcpy>
   1382a:	07410913          	addi	s2,sp,116
   1382e:	03500613          	li	a2,53
   13832:	854a                	mv	a0,s2
   13834:	4581                	li	a1,0
   13836:	00007097          	auipc	ra,0x7
   1383a:	6d0080e7          	jalr	1744(ra) # 1af06 <memset>
   1383e:	8626                	mv	a2,s1
   13840:	06810823          	sb	s0,112(sp)
   13844:	6505                	lui	a0,0x1
   13846:	449d                	li	s1,7
   13848:	4811                	li	a6,4
   1384a:	459d                	li	a1,7
   1384c:	6d750793          	addi	a5,a0,1751 # 16d7 <.Lline_table_start1+0x14ac>
   13850:	04f00693          	li	a3,79
   13854:	4711                	li	a4,4
   13856:	853e                	mv	a0,a5
   13858:	00000073          	ecall
   1385c:	04850363          	beq	a0,s0,138a2 <_ZN20complex_full_dynamic3app17h7bac604566d94cb7E+0x9c>
   13860:	853e                	mv	a0,a5
   13862:	864a                	mv	a2,s2
   13864:	c63e                	sw	a5,12(sp)
   13866:	c826                	sw	s1,16(sp)
   13868:	01010a23          	sb	a6,20(sp)
   1386c:	4485                	li	s1,1
   1386e:	480d                	li	a6,3
   13870:	4585                	li	a1,1
   13872:	03500693          	li	a3,53
   13876:	470d                	li	a4,3
   13878:	00000073          	ecall
   1387c:	02850363          	beq	a0,s0,138a2 <_ZN20complex_full_dynamic3app17h7bac604566d94cb7E+0x9c>
   13880:	d4be                	sw	a5,104(sp)
   13882:	d6a6                	sw	s1,108(sp)
   13884:	07010823          	sb	a6,112(sp)
   13888:	6505                	lui	a0,0x1
   1388a:	459d                	li	a1,7
   1388c:	4605                	li	a2,1
   1388e:	6d750513          	addi	a0,a0,1751 # 16d7 <.Lline_table_start1+0x14ac>
   13892:	4709                	li	a4,2
   13894:	07f00793          	li	a5,127
   13898:	4681                	li	a3,0
   1389a:	00000073          	ecall
   1389e:	02a7e863          	bltu	a5,a0,138ce <_ZN20complex_full_dynamic3app17h7bac604566d94cb7E+0xc8>
   138a2:	00b9a223          	sw	a1,4(s3)
   138a6:	4505                	li	a0,1
   138a8:	00a98023          	sb	a0,0(s3)
   138ac:	10a8                	addi	a0,sp,104
   138ae:	00007097          	auipc	ra,0x7
   138b2:	638080e7          	jalr	1592(ra) # 1aee6 <_ZN9allow_pin12full_dynamic17unshare_if_shared17h3494b15e905518bcE>
   138b6:	0068                	addi	a0,sp,12
   138b8:	00007097          	auipc	ra,0x7
   138bc:	62e080e7          	jalr	1582(ra) # 1aee6 <_ZN9allow_pin12full_dynamic17unshare_if_shared17h3494b15e905518bcE>
   138c0:	50fa                	lw	ra,188(sp)
   138c2:	546a                	lw	s0,184(sp)
   138c4:	54da                	lw	s1,180(sp)
   138c6:	594a                	lw	s2,176(sp)
   138c8:	59ba                	lw	s3,172(sp)
   138ca:	6129                	addi	sp,sp,192
   138cc:	8082                	ret
   138ce:	0068                	addi	a0,sp,12
   138d0:	00007097          	auipc	ra,0x7
   138d4:	616080e7          	jalr	1558(ra) # 1aee6 <_ZN9allow_pin12full_dynamic17unshare_if_shared17h3494b15e905518bcE>
   138d8:	10a8                	addi	a0,sp,104
   138da:	00007097          	auipc	ra,0x7
   138de:	60c080e7          	jalr	1548(ra) # 1aee6 <_ZN9allow_pin12full_dynamic17unshare_if_shared17h3494b15e905518bcE>
   138e2:	10a8                	addi	a0,sp,104
   138e4:	00007097          	auipc	ra,0x7
   138e8:	602080e7          	jalr	1538(ra) # 1aee6 <_ZN9allow_pin12full_dynamic17unshare_if_shared17h3494b15e905518bcE>
   138ec:	00198513          	addi	a0,s3,1
   138f0:	03500613          	li	a2,53
   138f4:	85ca                	mv	a1,s2
   138f6:	00007097          	auipc	ra,0x7
   138fa:	67c080e7          	jalr	1660(ra) # 1af72 <memcpy>
   138fe:	4501                	li	a0,0
   13900:	b765                	j	138a8 <_ZN20complex_full_dynamic3app17h7bac604566d94cb7E+0xa2>

00013902 <_ZN20complex_full_dynamic3app17h7bf89c3bc68f3de5E>:
   13902:	7119                	addi	sp,sp,-128
   13904:	de86                	sw	ra,124(sp)
   13906:	dca2                	sw	s0,120(sp)
   13908:	daa6                	sw	s1,116(sp)
   1390a:	d8ca                	sw	s2,112(sp)
   1390c:	d6ce                	sw	s3,108(sp)
   1390e:	89aa                	mv	s3,a0
   13910:	4409                	li	s0,2
   13912:	00810623          	sb	s0,12(sp)
   13916:	0804                	addi	s1,sp,16
   13918:	02300613          	li	a2,35
   1391c:	8526                	mv	a0,s1
   1391e:	00007097          	auipc	ra,0x7
   13922:	654080e7          	jalr	1620(ra) # 1af72 <memcpy>
   13926:	04010913          	addi	s2,sp,64
   1392a:	02b00613          	li	a2,43
   1392e:	854a                	mv	a0,s2
   13930:	4581                	li	a1,0
   13932:	00007097          	auipc	ra,0x7
   13936:	5d4080e7          	jalr	1492(ra) # 1af06 <memset>
   1393a:	8626                	mv	a2,s1
   1393c:	02810e23          	sb	s0,60(sp)
   13940:	6505                	lui	a0,0x1
   13942:	4491                	li	s1,4
   13944:	4589                	li	a1,2
   13946:	d5d50793          	addi	a5,a0,-675 # d5d <.Lline_table_start1+0xb32>
   1394a:	02300693          	li	a3,35
   1394e:	4711                	li	a4,4
   13950:	853e                	mv	a0,a5
   13952:	00000073          	ecall
   13956:	04850263          	beq	a0,s0,1399a <_ZN20complex_full_dynamic3app17h7bf89c3bc68f3de5E+0x98>
   1395a:	853e                	mv	a0,a5
   1395c:	4581                	li	a1,0
   1395e:	864a                	mv	a2,s2
   13960:	c23e                	sw	a5,4(sp)
   13962:	c422                	sw	s0,8(sp)
   13964:	00910623          	sb	s1,12(sp)
   13968:	448d                	li	s1,3
   1396a:	02b00693          	li	a3,43
   1396e:	470d                	li	a4,3
   13970:	00000073          	ecall
   13974:	02850363          	beq	a0,s0,1399a <_ZN20complex_full_dynamic3app17h7bf89c3bc68f3de5E+0x98>
   13978:	da3e                	sw	a5,52(sp)
   1397a:	dc02                	sw	zero,56(sp)
   1397c:	02910e23          	sb	s1,60(sp)
   13980:	6505                	lui	a0,0x1
   13982:	4589                	li	a1,2
   13984:	d5d50513          	addi	a0,a0,-675 # d5d <.Lline_table_start1+0xb32>
   13988:	4709                	li	a4,2
   1398a:	07f00793          	li	a5,127
   1398e:	4601                	li	a2,0
   13990:	4681                	li	a3,0
   13992:	00000073          	ecall
   13996:	02a7e863          	bltu	a5,a0,139c6 <_ZN20complex_full_dynamic3app17h7bf89c3bc68f3de5E+0xc4>
   1399a:	00b9a223          	sw	a1,4(s3)
   1399e:	4505                	li	a0,1
   139a0:	00a98023          	sb	a0,0(s3)
   139a4:	1848                	addi	a0,sp,52
   139a6:	00007097          	auipc	ra,0x7
   139aa:	540080e7          	jalr	1344(ra) # 1aee6 <_ZN9allow_pin12full_dynamic17unshare_if_shared17h3494b15e905518bcE>
   139ae:	0048                	addi	a0,sp,4
   139b0:	00007097          	auipc	ra,0x7
   139b4:	536080e7          	jalr	1334(ra) # 1aee6 <_ZN9allow_pin12full_dynamic17unshare_if_shared17h3494b15e905518bcE>
   139b8:	50f6                	lw	ra,124(sp)
   139ba:	5466                	lw	s0,120(sp)
   139bc:	54d6                	lw	s1,116(sp)
   139be:	5946                	lw	s2,112(sp)
   139c0:	59b6                	lw	s3,108(sp)
   139c2:	6109                	addi	sp,sp,128
   139c4:	8082                	ret
   139c6:	0048                	addi	a0,sp,4
   139c8:	00007097          	auipc	ra,0x7
   139cc:	51e080e7          	jalr	1310(ra) # 1aee6 <_ZN9allow_pin12full_dynamic17unshare_if_shared17h3494b15e905518bcE>
   139d0:	1848                	addi	a0,sp,52
   139d2:	00007097          	auipc	ra,0x7
   139d6:	514080e7          	jalr	1300(ra) # 1aee6 <_ZN9allow_pin12full_dynamic17unshare_if_shared17h3494b15e905518bcE>
   139da:	1848                	addi	a0,sp,52
   139dc:	00007097          	auipc	ra,0x7
   139e0:	50a080e7          	jalr	1290(ra) # 1aee6 <_ZN9allow_pin12full_dynamic17unshare_if_shared17h3494b15e905518bcE>
   139e4:	00198513          	addi	a0,s3,1
   139e8:	02b00613          	li	a2,43
   139ec:	85ca                	mv	a1,s2
   139ee:	00007097          	auipc	ra,0x7
   139f2:	584080e7          	jalr	1412(ra) # 1af72 <memcpy>
   139f6:	4501                	li	a0,0
   139f8:	b765                	j	139a0 <_ZN20complex_full_dynamic3app17h7bf89c3bc68f3de5E+0x9e>

000139fa <_ZN20complex_full_dynamic3app17h7c18ef7124b5c82aE>:
   139fa:	7119                	addi	sp,sp,-128
   139fc:	de86                	sw	ra,124(sp)
   139fe:	dca2                	sw	s0,120(sp)
   13a00:	daa6                	sw	s1,116(sp)
   13a02:	d8ca                	sw	s2,112(sp)
   13a04:	d6ce                	sw	s3,108(sp)
   13a06:	892a                	mv	s2,a0
   13a08:	4409                	li	s0,2
   13a0a:	00810423          	sb	s0,8(sp)
   13a0e:	0064                	addi	s1,sp,12
   13a10:	03f00613          	li	a2,63
   13a14:	8526                	mv	a0,s1
   13a16:	00007097          	auipc	ra,0x7
   13a1a:	55c080e7          	jalr	1372(ra) # 1af72 <memcpy>
   13a1e:	8626                	mv	a2,s1
   13a20:	d282                	sw	zero,100(sp)
   13a22:	06010423          	sb	zero,104(sp)
   13a26:	04810a23          	sb	s0,84(sp)
   13a2a:	cc82                	sw	zero,88(sp)
   13a2c:	ce82                	sw	zero,92(sp)
   13a2e:	d082                	sw	zero,96(sp)
   13a30:	6505                	lui	a0,0x1
   13a32:	4491                	li	s1,4
   13a34:	4591                	li	a1,4
   13a36:	4d750793          	addi	a5,a0,1239 # 14d7 <.Lline_table_start1+0x12ac>
   13a3a:	03f00693          	li	a3,63
   13a3e:	4711                	li	a4,4
   13a40:	853e                	mv	a0,a5
   13a42:	00000073          	ecall
   13a46:	04850363          	beq	a0,s0,13a8c <_ZN20complex_full_dynamic3app17h7c18ef7124b5c82aE+0x92>
   13a4a:	853e                	mv	a0,a5
   13a4c:	05810993          	addi	s3,sp,88
   13a50:	c03e                	sw	a5,0(sp)
   13a52:	c226                	sw	s1,4(sp)
   13a54:	00910423          	sb	s1,8(sp)
   13a58:	448d                	li	s1,3
   13a5a:	458d                	li	a1,3
   13a5c:	46c5                	li	a3,17
   13a5e:	470d                	li	a4,3
   13a60:	864e                	mv	a2,s3
   13a62:	00000073          	ecall
   13a66:	02850363          	beq	a0,s0,13a8c <_ZN20complex_full_dynamic3app17h7c18ef7124b5c82aE+0x92>
   13a6a:	c6be                	sw	a5,76(sp)
   13a6c:	c8a6                	sw	s1,80(sp)
   13a6e:	04910a23          	sb	s1,84(sp)
   13a72:	6505                	lui	a0,0x1
   13a74:	4591                	li	a1,4
   13a76:	460d                	li	a2,3
   13a78:	4d750513          	addi	a0,a0,1239 # 14d7 <.Lline_table_start1+0x12ac>
   13a7c:	4709                	li	a4,2
   13a7e:	07f00793          	li	a5,127
   13a82:	4681                	li	a3,0
   13a84:	00000073          	ecall
   13a88:	02a7e863          	bltu	a5,a0,13ab8 <_ZN20complex_full_dynamic3app17h7c18ef7124b5c82aE+0xbe>
   13a8c:	00b92223          	sw	a1,4(s2)
   13a90:	4505                	li	a0,1
   13a92:	00a90023          	sb	a0,0(s2)
   13a96:	00e8                	addi	a0,sp,76
   13a98:	00007097          	auipc	ra,0x7
   13a9c:	44e080e7          	jalr	1102(ra) # 1aee6 <_ZN9allow_pin12full_dynamic17unshare_if_shared17h3494b15e905518bcE>
   13aa0:	850a                	mv	a0,sp
   13aa2:	00007097          	auipc	ra,0x7
   13aa6:	444080e7          	jalr	1092(ra) # 1aee6 <_ZN9allow_pin12full_dynamic17unshare_if_shared17h3494b15e905518bcE>
   13aaa:	50f6                	lw	ra,124(sp)
   13aac:	5466                	lw	s0,120(sp)
   13aae:	54d6                	lw	s1,116(sp)
   13ab0:	5946                	lw	s2,112(sp)
   13ab2:	59b6                	lw	s3,108(sp)
   13ab4:	6109                	addi	sp,sp,128
   13ab6:	8082                	ret
   13ab8:	850a                	mv	a0,sp
   13aba:	00007097          	auipc	ra,0x7
   13abe:	42c080e7          	jalr	1068(ra) # 1aee6 <_ZN9allow_pin12full_dynamic17unshare_if_shared17h3494b15e905518bcE>
   13ac2:	00e8                	addi	a0,sp,76
   13ac4:	00007097          	auipc	ra,0x7
   13ac8:	422080e7          	jalr	1058(ra) # 1aee6 <_ZN9allow_pin12full_dynamic17unshare_if_shared17h3494b15e905518bcE>
   13acc:	00e8                	addi	a0,sp,76
   13ace:	00007097          	auipc	ra,0x7
   13ad2:	418080e7          	jalr	1048(ra) # 1aee6 <_ZN9allow_pin12full_dynamic17unshare_if_shared17h3494b15e905518bcE>
   13ad6:	00190513          	addi	a0,s2,1
   13ada:	4645                	li	a2,17
   13adc:	85ce                	mv	a1,s3
   13ade:	00007097          	auipc	ra,0x7
   13ae2:	494080e7          	jalr	1172(ra) # 1af72 <memcpy>
   13ae6:	4501                	li	a0,0
   13ae8:	b76d                	j	13a92 <_ZN20complex_full_dynamic3app17h7c18ef7124b5c82aE+0x98>

00013aea <_ZN20complex_full_dynamic3app17h7d12ed26c64c76ccE>:
   13aea:	7155                	addi	sp,sp,-208
   13aec:	c786                	sw	ra,204(sp)
   13aee:	c5a2                	sw	s0,200(sp)
   13af0:	c3a6                	sw	s1,196(sp)
   13af2:	c1ca                	sw	s2,192(sp)
   13af4:	df4e                	sw	s3,188(sp)
   13af6:	89aa                	mv	s3,a0
   13af8:	4409                	li	s0,2
   13afa:	00810823          	sb	s0,16(sp)
   13afe:	0844                	addi	s1,sp,20
   13b00:	03a00613          	li	a2,58
   13b04:	8526                	mv	a0,s1
   13b06:	00007097          	auipc	ra,0x7
   13b0a:	46c080e7          	jalr	1132(ra) # 1af72 <memcpy>
   13b0e:	05c10913          	addi	s2,sp,92
   13b12:	05d00613          	li	a2,93
   13b16:	854a                	mv	a0,s2
   13b18:	4581                	li	a1,0
   13b1a:	00007097          	auipc	ra,0x7
   13b1e:	3ec080e7          	jalr	1004(ra) # 1af06 <memset>
   13b22:	4581                	li	a1,0
   13b24:	8626                	mv	a2,s1
   13b26:	04810c23          	sb	s0,88(sp)
   13b2a:	6505                	lui	a0,0x1
   13b2c:	4491                	li	s1,4
   13b2e:	4a450793          	addi	a5,a0,1188 # 14a4 <.Lline_table_start1+0x1279>
   13b32:	03a00693          	li	a3,58
   13b36:	4711                	li	a4,4
   13b38:	853e                	mv	a0,a5
   13b3a:	00000073          	ecall
   13b3e:	04850363          	beq	a0,s0,13b84 <_ZN20complex_full_dynamic3app17h7d12ed26c64c76ccE+0x9a>
   13b42:	853e                	mv	a0,a5
   13b44:	864a                	mv	a2,s2
   13b46:	c43e                	sw	a5,8(sp)
   13b48:	c602                	sw	zero,12(sp)
   13b4a:	00910823          	sb	s1,16(sp)
   13b4e:	4495                	li	s1,5
   13b50:	480d                	li	a6,3
   13b52:	4595                	li	a1,5
   13b54:	05d00693          	li	a3,93
   13b58:	470d                	li	a4,3
   13b5a:	00000073          	ecall
   13b5e:	02850363          	beq	a0,s0,13b84 <_ZN20complex_full_dynamic3app17h7d12ed26c64c76ccE+0x9a>
   13b62:	c8be                	sw	a5,80(sp)
   13b64:	caa6                	sw	s1,84(sp)
   13b66:	05010c23          	sb	a6,88(sp)
   13b6a:	6505                	lui	a0,0x1
   13b6c:	4615                	li	a2,5
   13b6e:	4a450513          	addi	a0,a0,1188 # 14a4 <.Lline_table_start1+0x1279>
   13b72:	4709                	li	a4,2
   13b74:	07f00793          	li	a5,127
   13b78:	4581                	li	a1,0
   13b7a:	4681                	li	a3,0
   13b7c:	00000073          	ecall
   13b80:	02a7e863          	bltu	a5,a0,13bb0 <_ZN20complex_full_dynamic3app17h7d12ed26c64c76ccE+0xc6>
   13b84:	00b9a223          	sw	a1,4(s3)
   13b88:	4505                	li	a0,1
   13b8a:	00a98023          	sb	a0,0(s3)
   13b8e:	0888                	addi	a0,sp,80
   13b90:	00007097          	auipc	ra,0x7
   13b94:	356080e7          	jalr	854(ra) # 1aee6 <_ZN9allow_pin12full_dynamic17unshare_if_shared17h3494b15e905518bcE>
   13b98:	0028                	addi	a0,sp,8
   13b9a:	00007097          	auipc	ra,0x7
   13b9e:	34c080e7          	jalr	844(ra) # 1aee6 <_ZN9allow_pin12full_dynamic17unshare_if_shared17h3494b15e905518bcE>
   13ba2:	40be                	lw	ra,204(sp)
   13ba4:	442e                	lw	s0,200(sp)
   13ba6:	449e                	lw	s1,196(sp)
   13ba8:	490e                	lw	s2,192(sp)
   13baa:	59fa                	lw	s3,188(sp)
   13bac:	6169                	addi	sp,sp,208
   13bae:	8082                	ret
   13bb0:	0028                	addi	a0,sp,8
   13bb2:	00007097          	auipc	ra,0x7
   13bb6:	334080e7          	jalr	820(ra) # 1aee6 <_ZN9allow_pin12full_dynamic17unshare_if_shared17h3494b15e905518bcE>
   13bba:	0888                	addi	a0,sp,80
   13bbc:	00007097          	auipc	ra,0x7
   13bc0:	32a080e7          	jalr	810(ra) # 1aee6 <_ZN9allow_pin12full_dynamic17unshare_if_shared17h3494b15e905518bcE>
   13bc4:	0888                	addi	a0,sp,80
   13bc6:	00007097          	auipc	ra,0x7
   13bca:	320080e7          	jalr	800(ra) # 1aee6 <_ZN9allow_pin12full_dynamic17unshare_if_shared17h3494b15e905518bcE>
   13bce:	00198513          	addi	a0,s3,1
   13bd2:	05d00613          	li	a2,93
   13bd6:	85ca                	mv	a1,s2
   13bd8:	00007097          	auipc	ra,0x7
   13bdc:	39a080e7          	jalr	922(ra) # 1af72 <memcpy>
   13be0:	4501                	li	a0,0
   13be2:	b765                	j	13b8a <_ZN20complex_full_dynamic3app17h7d12ed26c64c76ccE+0xa0>

00013be4 <_ZN20complex_full_dynamic3app17h80c0191d200fb102E>:
   13be4:	7171                	addi	sp,sp,-176
   13be6:	d706                	sw	ra,172(sp)
   13be8:	d522                	sw	s0,168(sp)
   13bea:	d326                	sw	s1,164(sp)
   13bec:	d14a                	sw	s2,160(sp)
   13bee:	cf4e                	sw	s3,156(sp)
   13bf0:	89aa                	mv	s3,a0
   13bf2:	4409                	li	s0,2
   13bf4:	00810823          	sb	s0,16(sp)
   13bf8:	0844                	addi	s1,sp,20
   13bfa:	04a00613          	li	a2,74
   13bfe:	8526                	mv	a0,s1
   13c00:	00007097          	auipc	ra,0x7
   13c04:	372080e7          	jalr	882(ra) # 1af72 <memcpy>
   13c08:	06c10913          	addi	s2,sp,108
   13c0c:	02d00613          	li	a2,45
   13c10:	854a                	mv	a0,s2
   13c12:	4581                	li	a1,0
   13c14:	00007097          	auipc	ra,0x7
   13c18:	2f2080e7          	jalr	754(ra) # 1af06 <memset>
   13c1c:	8626                	mv	a2,s1
   13c1e:	06810423          	sb	s0,104(sp)
   13c22:	6505                	lui	a0,0x1
   13c24:	4491                	li	s1,4
   13c26:	4589                	li	a1,2
   13c28:	e3d50793          	addi	a5,a0,-451 # e3d <.Lline_table_start1+0xc12>
   13c2c:	04a00693          	li	a3,74
   13c30:	4711                	li	a4,4
   13c32:	853e                	mv	a0,a5
   13c34:	00000073          	ecall
   13c38:	04850263          	beq	a0,s0,13c7c <_ZN20complex_full_dynamic3app17h80c0191d200fb102E+0x98>
   13c3c:	853e                	mv	a0,a5
   13c3e:	864a                	mv	a2,s2
   13c40:	c43e                	sw	a5,8(sp)
   13c42:	c622                	sw	s0,12(sp)
   13c44:	00910823          	sb	s1,16(sp)
   13c48:	448d                	li	s1,3
   13c4a:	458d                	li	a1,3
   13c4c:	02d00693          	li	a3,45
   13c50:	470d                	li	a4,3
   13c52:	00000073          	ecall
   13c56:	02850363          	beq	a0,s0,13c7c <_ZN20complex_full_dynamic3app17h80c0191d200fb102E+0x98>
   13c5a:	d0be                	sw	a5,96(sp)
   13c5c:	d2a6                	sw	s1,100(sp)
   13c5e:	06910423          	sb	s1,104(sp)
   13c62:	6505                	lui	a0,0x1
   13c64:	4589                	li	a1,2
   13c66:	460d                	li	a2,3
   13c68:	e3d50513          	addi	a0,a0,-451 # e3d <.Lline_table_start1+0xc12>
   13c6c:	4709                	li	a4,2
   13c6e:	07f00793          	li	a5,127
   13c72:	4681                	li	a3,0
   13c74:	00000073          	ecall
   13c78:	02a7e863          	bltu	a5,a0,13ca8 <_ZN20complex_full_dynamic3app17h80c0191d200fb102E+0xc4>
   13c7c:	00b9a223          	sw	a1,4(s3)
   13c80:	4505                	li	a0,1
   13c82:	00a98023          	sb	a0,0(s3)
   13c86:	1088                	addi	a0,sp,96
   13c88:	00007097          	auipc	ra,0x7
   13c8c:	25e080e7          	jalr	606(ra) # 1aee6 <_ZN9allow_pin12full_dynamic17unshare_if_shared17h3494b15e905518bcE>
   13c90:	0028                	addi	a0,sp,8
   13c92:	00007097          	auipc	ra,0x7
   13c96:	254080e7          	jalr	596(ra) # 1aee6 <_ZN9allow_pin12full_dynamic17unshare_if_shared17h3494b15e905518bcE>
   13c9a:	50ba                	lw	ra,172(sp)
   13c9c:	542a                	lw	s0,168(sp)
   13c9e:	549a                	lw	s1,164(sp)
   13ca0:	590a                	lw	s2,160(sp)
   13ca2:	49fa                	lw	s3,156(sp)
   13ca4:	614d                	addi	sp,sp,176
   13ca6:	8082                	ret
   13ca8:	0028                	addi	a0,sp,8
   13caa:	00007097          	auipc	ra,0x7
   13cae:	23c080e7          	jalr	572(ra) # 1aee6 <_ZN9allow_pin12full_dynamic17unshare_if_shared17h3494b15e905518bcE>
   13cb2:	1088                	addi	a0,sp,96
   13cb4:	00007097          	auipc	ra,0x7
   13cb8:	232080e7          	jalr	562(ra) # 1aee6 <_ZN9allow_pin12full_dynamic17unshare_if_shared17h3494b15e905518bcE>
   13cbc:	1088                	addi	a0,sp,96
   13cbe:	00007097          	auipc	ra,0x7
   13cc2:	228080e7          	jalr	552(ra) # 1aee6 <_ZN9allow_pin12full_dynamic17unshare_if_shared17h3494b15e905518bcE>
   13cc6:	00198513          	addi	a0,s3,1
   13cca:	02d00613          	li	a2,45
   13cce:	85ca                	mv	a1,s2
   13cd0:	00007097          	auipc	ra,0x7
   13cd4:	2a2080e7          	jalr	674(ra) # 1af72 <memcpy>
   13cd8:	4501                	li	a0,0
   13cda:	b765                	j	13c82 <_ZN20complex_full_dynamic3app17h80c0191d200fb102E+0x9e>

00013cdc <_ZN20complex_full_dynamic3app17h82a30232e19ce412E>:
   13cdc:	7159                	addi	sp,sp,-112
   13cde:	d686                	sw	ra,108(sp)
   13ce0:	d4a2                	sw	s0,104(sp)
   13ce2:	d2a6                	sw	s1,100(sp)
   13ce4:	d0ca                	sw	s2,96(sp)
   13ce6:	cece                	sw	s3,92(sp)
   13ce8:	892a                	mv	s2,a0
   13cea:	4409                	li	s0,2
   13cec:	00810623          	sb	s0,12(sp)
   13cf0:	0804                	addi	s1,sp,16
   13cf2:	02500613          	li	a2,37
   13cf6:	8526                	mv	a0,s1
   13cf8:	00007097          	auipc	ra,0x7
   13cfc:	27a080e7          	jalr	634(ra) # 1af72 <memcpy>
   13d00:	8626                	mv	a2,s1
   13d02:	c882                	sw	zero,80(sp)
   13d04:	ca82                	sw	zero,84(sp)
   13d06:	cc82                	sw	zero,88(sp)
   13d08:	04810023          	sb	s0,64(sp)
   13d0c:	c282                	sw	zero,68(sp)
   13d0e:	c482                	sw	zero,72(sp)
   13d10:	c682                	sw	zero,76(sp)
   13d12:	6505                	lui	a0,0x1
   13d14:	44a5                	li	s1,9
   13d16:	4811                	li	a6,4
   13d18:	45a5                	li	a1,9
   13d1a:	a7050793          	addi	a5,a0,-1424 # a70 <.Lline_table_start1+0x845>
   13d1e:	02500693          	li	a3,37
   13d22:	4711                	li	a4,4
   13d24:	853e                	mv	a0,a5
   13d26:	00000073          	ecall
   13d2a:	04850463          	beq	a0,s0,13d72 <_ZN20complex_full_dynamic3app17h82a30232e19ce412E+0x96>
   13d2e:	853e                	mv	a0,a5
   13d30:	04410993          	addi	s3,sp,68
   13d34:	c23e                	sw	a5,4(sp)
   13d36:	c426                	sw	s1,8(sp)
   13d38:	01010623          	sb	a6,12(sp)
   13d3c:	44a1                	li	s1,8
   13d3e:	480d                	li	a6,3
   13d40:	45a1                	li	a1,8
   13d42:	46e1                	li	a3,24
   13d44:	470d                	li	a4,3
   13d46:	864e                	mv	a2,s3
   13d48:	00000073          	ecall
   13d4c:	02850363          	beq	a0,s0,13d72 <_ZN20complex_full_dynamic3app17h82a30232e19ce412E+0x96>
   13d50:	dc3e                	sw	a5,56(sp)
   13d52:	de26                	sw	s1,60(sp)
   13d54:	05010023          	sb	a6,64(sp)
   13d58:	6505                	lui	a0,0x1
   13d5a:	45a5                	li	a1,9
   13d5c:	4621                	li	a2,8
   13d5e:	a7050513          	addi	a0,a0,-1424 # a70 <.Lline_table_start1+0x845>
   13d62:	4709                	li	a4,2
   13d64:	07f00793          	li	a5,127
   13d68:	4681                	li	a3,0
   13d6a:	00000073          	ecall
   13d6e:	02a7e863          	bltu	a5,a0,13d9e <_ZN20complex_full_dynamic3app17h82a30232e19ce412E+0xc2>
   13d72:	00b92223          	sw	a1,4(s2)
   13d76:	4505                	li	a0,1
   13d78:	00a90023          	sb	a0,0(s2)
   13d7c:	1828                	addi	a0,sp,56
   13d7e:	00007097          	auipc	ra,0x7
   13d82:	168080e7          	jalr	360(ra) # 1aee6 <_ZN9allow_pin12full_dynamic17unshare_if_shared17h3494b15e905518bcE>
   13d86:	0048                	addi	a0,sp,4
   13d88:	00007097          	auipc	ra,0x7
   13d8c:	15e080e7          	jalr	350(ra) # 1aee6 <_ZN9allow_pin12full_dynamic17unshare_if_shared17h3494b15e905518bcE>
   13d90:	50b6                	lw	ra,108(sp)
   13d92:	5426                	lw	s0,104(sp)
   13d94:	5496                	lw	s1,100(sp)
   13d96:	5906                	lw	s2,96(sp)
   13d98:	49f6                	lw	s3,92(sp)
   13d9a:	6165                	addi	sp,sp,112
   13d9c:	8082                	ret
   13d9e:	0048                	addi	a0,sp,4
   13da0:	00007097          	auipc	ra,0x7
   13da4:	146080e7          	jalr	326(ra) # 1aee6 <_ZN9allow_pin12full_dynamic17unshare_if_shared17h3494b15e905518bcE>
   13da8:	1828                	addi	a0,sp,56
   13daa:	00007097          	auipc	ra,0x7
   13dae:	13c080e7          	jalr	316(ra) # 1aee6 <_ZN9allow_pin12full_dynamic17unshare_if_shared17h3494b15e905518bcE>
   13db2:	1828                	addi	a0,sp,56
   13db4:	00007097          	auipc	ra,0x7
   13db8:	132080e7          	jalr	306(ra) # 1aee6 <_ZN9allow_pin12full_dynamic17unshare_if_shared17h3494b15e905518bcE>
   13dbc:	00190513          	addi	a0,s2,1
   13dc0:	4661                	li	a2,24
   13dc2:	85ce                	mv	a1,s3
   13dc4:	00007097          	auipc	ra,0x7
   13dc8:	1ae080e7          	jalr	430(ra) # 1af72 <memcpy>
   13dcc:	4501                	li	a0,0
   13dce:	b76d                	j	13d78 <_ZN20complex_full_dynamic3app17h82a30232e19ce412E+0x9c>

00013dd0 <_ZN20complex_full_dynamic3app17h845818e2e2de2158E>:
   13dd0:	7135                	addi	sp,sp,-160
   13dd2:	cf06                	sw	ra,156(sp)
   13dd4:	cd22                	sw	s0,152(sp)
   13dd6:	cb26                	sw	s1,148(sp)
   13dd8:	c94a                	sw	s2,144(sp)
   13dda:	c74e                	sw	s3,140(sp)
   13ddc:	89aa                	mv	s3,a0
   13dde:	4409                	li	s0,2
   13de0:	00810823          	sb	s0,16(sp)
   13de4:	0844                	addi	s1,sp,20
   13de6:	4669                	li	a2,26
   13de8:	8526                	mv	a0,s1
   13dea:	00007097          	auipc	ra,0x7
   13dee:	188080e7          	jalr	392(ra) # 1af72 <memcpy>
   13df2:	03c10913          	addi	s2,sp,60
   13df6:	05000613          	li	a2,80
   13dfa:	854a                	mv	a0,s2
   13dfc:	4581                	li	a1,0
   13dfe:	00007097          	auipc	ra,0x7
   13e02:	108080e7          	jalr	264(ra) # 1af06 <memset>
   13e06:	8626                	mv	a2,s1
   13e08:	02810c23          	sb	s0,56(sp)
   13e0c:	6505                	lui	a0,0x1
   13e0e:	449d                	li	s1,7
   13e10:	4811                	li	a6,4
   13e12:	459d                	li	a1,7
   13e14:	aee50793          	addi	a5,a0,-1298 # aee <.Lline_table_start1+0x8c3>
   13e18:	46e9                	li	a3,26
   13e1a:	4711                	li	a4,4
   13e1c:	853e                	mv	a0,a5
   13e1e:	00000073          	ecall
   13e22:	04850363          	beq	a0,s0,13e68 <_ZN20complex_full_dynamic3app17h845818e2e2de2158E+0x98>
   13e26:	853e                	mv	a0,a5
   13e28:	864a                	mv	a2,s2
   13e2a:	c43e                	sw	a5,8(sp)
   13e2c:	c626                	sw	s1,12(sp)
   13e2e:	01010823          	sb	a6,16(sp)
   13e32:	448d                	li	s1,3
   13e34:	4591                	li	a1,4
   13e36:	05000693          	li	a3,80
   13e3a:	470d                	li	a4,3
   13e3c:	00000073          	ecall
   13e40:	02850463          	beq	a0,s0,13e68 <_ZN20complex_full_dynamic3app17h845818e2e2de2158E+0x98>
   13e44:	4511                	li	a0,4
   13e46:	6685                	lui	a3,0x1
   13e48:	459d                	li	a1,7
   13e4a:	4611                	li	a2,4
   13e4c:	d83e                	sw	a5,48(sp)
   13e4e:	da2a                	sw	a0,52(sp)
   13e50:	02910c23          	sb	s1,56(sp)
   13e54:	aee68513          	addi	a0,a3,-1298 # aee <.Lline_table_start1+0x8c3>
   13e58:	4709                	li	a4,2
   13e5a:	07f00793          	li	a5,127
   13e5e:	4681                	li	a3,0
   13e60:	00000073          	ecall
   13e64:	02a7e863          	bltu	a5,a0,13e94 <_ZN20complex_full_dynamic3app17h845818e2e2de2158E+0xc4>
   13e68:	00b9a223          	sw	a1,4(s3)
   13e6c:	4505                	li	a0,1
   13e6e:	00a98023          	sb	a0,0(s3)
   13e72:	1808                	addi	a0,sp,48
   13e74:	00007097          	auipc	ra,0x7
   13e78:	072080e7          	jalr	114(ra) # 1aee6 <_ZN9allow_pin12full_dynamic17unshare_if_shared17h3494b15e905518bcE>
   13e7c:	0028                	addi	a0,sp,8
   13e7e:	00007097          	auipc	ra,0x7
   13e82:	068080e7          	jalr	104(ra) # 1aee6 <_ZN9allow_pin12full_dynamic17unshare_if_shared17h3494b15e905518bcE>
   13e86:	40fa                	lw	ra,156(sp)
   13e88:	446a                	lw	s0,152(sp)
   13e8a:	44da                	lw	s1,148(sp)
   13e8c:	494a                	lw	s2,144(sp)
   13e8e:	49ba                	lw	s3,140(sp)
   13e90:	610d                	addi	sp,sp,160
   13e92:	8082                	ret
   13e94:	0028                	addi	a0,sp,8
   13e96:	00007097          	auipc	ra,0x7
   13e9a:	050080e7          	jalr	80(ra) # 1aee6 <_ZN9allow_pin12full_dynamic17unshare_if_shared17h3494b15e905518bcE>
   13e9e:	1808                	addi	a0,sp,48
   13ea0:	00007097          	auipc	ra,0x7
   13ea4:	046080e7          	jalr	70(ra) # 1aee6 <_ZN9allow_pin12full_dynamic17unshare_if_shared17h3494b15e905518bcE>
   13ea8:	1808                	addi	a0,sp,48
   13eaa:	00007097          	auipc	ra,0x7
   13eae:	03c080e7          	jalr	60(ra) # 1aee6 <_ZN9allow_pin12full_dynamic17unshare_if_shared17h3494b15e905518bcE>
   13eb2:	00198513          	addi	a0,s3,1
   13eb6:	05000613          	li	a2,80
   13eba:	85ca                	mv	a1,s2
   13ebc:	00007097          	auipc	ra,0x7
   13ec0:	0b6080e7          	jalr	182(ra) # 1af72 <memcpy>
   13ec4:	4501                	li	a0,0
   13ec6:	b765                	j	13e6e <_ZN20complex_full_dynamic3app17h845818e2e2de2158E+0x9e>

00013ec8 <_ZN20complex_full_dynamic3app17h85cd85db7ead5ce6E>:
   13ec8:	7135                	addi	sp,sp,-160
   13eca:	cf06                	sw	ra,156(sp)
   13ecc:	cd22                	sw	s0,152(sp)
   13ece:	cb26                	sw	s1,148(sp)
   13ed0:	c94a                	sw	s2,144(sp)
   13ed2:	c74e                	sw	s3,140(sp)
   13ed4:	89aa                	mv	s3,a0
   13ed6:	4409                	li	s0,2
   13ed8:	00810423          	sb	s0,8(sp)
   13edc:	0064                	addi	s1,sp,12
   13ede:	4679                	li	a2,30
   13ee0:	8526                	mv	a0,s1
   13ee2:	00007097          	auipc	ra,0x7
   13ee6:	090080e7          	jalr	144(ra) # 1af72 <memcpy>
   13eea:	03810913          	addi	s2,sp,56
   13eee:	05100613          	li	a2,81
   13ef2:	854a                	mv	a0,s2
   13ef4:	4581                	li	a1,0
   13ef6:	00007097          	auipc	ra,0x7
   13efa:	010080e7          	jalr	16(ra) # 1af06 <memset>
   13efe:	8626                	mv	a2,s1
   13f00:	02810a23          	sb	s0,52(sp)
   13f04:	6509                	lui	a0,0x2
   13f06:	4491                	li	s1,4
   13f08:	4589                	li	a1,2
   13f0a:	96b50793          	addi	a5,a0,-1685 # 196b <.Lline_table_start1+0x1740>
   13f0e:	46f9                	li	a3,30
   13f10:	4711                	li	a4,4
   13f12:	853e                	mv	a0,a5
   13f14:	00000073          	ecall
   13f18:	04850263          	beq	a0,s0,13f5c <_ZN20complex_full_dynamic3app17h85cd85db7ead5ce6E+0x94>
   13f1c:	853e                	mv	a0,a5
   13f1e:	4581                	li	a1,0
   13f20:	864a                	mv	a2,s2
   13f22:	c03e                	sw	a5,0(sp)
   13f24:	c222                	sw	s0,4(sp)
   13f26:	00910423          	sb	s1,8(sp)
   13f2a:	448d                	li	s1,3
   13f2c:	05100693          	li	a3,81
   13f30:	470d                	li	a4,3
   13f32:	00000073          	ecall
   13f36:	02850363          	beq	a0,s0,13f5c <_ZN20complex_full_dynamic3app17h85cd85db7ead5ce6E+0x94>
   13f3a:	d63e                	sw	a5,44(sp)
   13f3c:	d802                	sw	zero,48(sp)
   13f3e:	02910a23          	sb	s1,52(sp)
   13f42:	6509                	lui	a0,0x2
   13f44:	4589                	li	a1,2
   13f46:	96b50513          	addi	a0,a0,-1685 # 196b <.Lline_table_start1+0x1740>
   13f4a:	4709                	li	a4,2
   13f4c:	07f00793          	li	a5,127
   13f50:	4601                	li	a2,0
   13f52:	4681                	li	a3,0
   13f54:	00000073          	ecall
   13f58:	02a7e863          	bltu	a5,a0,13f88 <_ZN20complex_full_dynamic3app17h85cd85db7ead5ce6E+0xc0>
   13f5c:	00b9a223          	sw	a1,4(s3)
   13f60:	4505                	li	a0,1
   13f62:	00a98023          	sb	a0,0(s3)
   13f66:	1068                	addi	a0,sp,44
   13f68:	00007097          	auipc	ra,0x7
   13f6c:	f7e080e7          	jalr	-130(ra) # 1aee6 <_ZN9allow_pin12full_dynamic17unshare_if_shared17h3494b15e905518bcE>
   13f70:	850a                	mv	a0,sp
   13f72:	00007097          	auipc	ra,0x7
   13f76:	f74080e7          	jalr	-140(ra) # 1aee6 <_ZN9allow_pin12full_dynamic17unshare_if_shared17h3494b15e905518bcE>
   13f7a:	40fa                	lw	ra,156(sp)
   13f7c:	446a                	lw	s0,152(sp)
   13f7e:	44da                	lw	s1,148(sp)
   13f80:	494a                	lw	s2,144(sp)
   13f82:	49ba                	lw	s3,140(sp)
   13f84:	610d                	addi	sp,sp,160
   13f86:	8082                	ret
   13f88:	850a                	mv	a0,sp
   13f8a:	00007097          	auipc	ra,0x7
   13f8e:	f5c080e7          	jalr	-164(ra) # 1aee6 <_ZN9allow_pin12full_dynamic17unshare_if_shared17h3494b15e905518bcE>
   13f92:	1068                	addi	a0,sp,44
   13f94:	00007097          	auipc	ra,0x7
   13f98:	f52080e7          	jalr	-174(ra) # 1aee6 <_ZN9allow_pin12full_dynamic17unshare_if_shared17h3494b15e905518bcE>
   13f9c:	1068                	addi	a0,sp,44
   13f9e:	00007097          	auipc	ra,0x7
   13fa2:	f48080e7          	jalr	-184(ra) # 1aee6 <_ZN9allow_pin12full_dynamic17unshare_if_shared17h3494b15e905518bcE>
   13fa6:	00198513          	addi	a0,s3,1
   13faa:	05100613          	li	a2,81
   13fae:	85ca                	mv	a1,s2
   13fb0:	00007097          	auipc	ra,0x7
   13fb4:	fc2080e7          	jalr	-62(ra) # 1af72 <memcpy>
   13fb8:	4501                	li	a0,0
   13fba:	b765                	j	13f62 <_ZN20complex_full_dynamic3app17h85cd85db7ead5ce6E+0x9a>

00013fbc <_ZN20complex_full_dynamic3app17h8b4f07930eae7273E>:
   13fbc:	7135                	addi	sp,sp,-160
   13fbe:	cf06                	sw	ra,156(sp)
   13fc0:	cd22                	sw	s0,152(sp)
   13fc2:	cb26                	sw	s1,148(sp)
   13fc4:	c94a                	sw	s2,144(sp)
   13fc6:	c74e                	sw	s3,140(sp)
   13fc8:	89aa                	mv	s3,a0
   13fca:	4409                	li	s0,2
   13fcc:	00810823          	sb	s0,16(sp)
   13fd0:	0844                	addi	s1,sp,20
   13fd2:	464d                	li	a2,19
   13fd4:	8526                	mv	a0,s1
   13fd6:	00007097          	auipc	ra,0x7
   13fda:	f9c080e7          	jalr	-100(ra) # 1af72 <memcpy>
   13fde:	03410913          	addi	s2,sp,52
   13fe2:	05500613          	li	a2,85
   13fe6:	854a                	mv	a0,s2
   13fe8:	4581                	li	a1,0
   13fea:	00007097          	auipc	ra,0x7
   13fee:	f1c080e7          	jalr	-228(ra) # 1af06 <memset>
   13ff2:	8626                	mv	a2,s1
   13ff4:	02810823          	sb	s0,48(sp)
   13ff8:	32e00793          	li	a5,814
   13ffc:	44a5                	li	s1,9
   13ffe:	4811                	li	a6,4
   14000:	32e00513          	li	a0,814
   14004:	45a5                	li	a1,9
   14006:	46cd                	li	a3,19
   14008:	4711                	li	a4,4
   1400a:	00000073          	ecall
   1400e:	04850563          	beq	a0,s0,14058 <_ZN20complex_full_dynamic3app17h8b4f07930eae7273E+0x9c>
   14012:	864a                	mv	a2,s2
   14014:	c43e                	sw	a5,8(sp)
   14016:	c626                	sw	s1,12(sp)
   14018:	01010823          	sb	a6,16(sp)
   1401c:	479d                	li	a5,7
   1401e:	448d                	li	s1,3
   14020:	32e00513          	li	a0,814
   14024:	459d                	li	a1,7
   14026:	05500693          	li	a3,85
   1402a:	470d                	li	a4,3
   1402c:	00000073          	ecall
   14030:	02850463          	beq	a0,s0,14058 <_ZN20complex_full_dynamic3app17h8b4f07930eae7273E+0x9c>
   14034:	32e00693          	li	a3,814
   14038:	32e00513          	li	a0,814
   1403c:	45a5                	li	a1,9
   1403e:	461d                	li	a2,7
   14040:	4709                	li	a4,2
   14042:	07f00413          	li	s0,127
   14046:	d436                	sw	a3,40(sp)
   14048:	d63e                	sw	a5,44(sp)
   1404a:	02910823          	sb	s1,48(sp)
   1404e:	4681                	li	a3,0
   14050:	00000073          	ecall
   14054:	02a46863          	bltu	s0,a0,14084 <_ZN20complex_full_dynamic3app17h8b4f07930eae7273E+0xc8>
   14058:	00b9a223          	sw	a1,4(s3)
   1405c:	4505                	li	a0,1
   1405e:	00a98023          	sb	a0,0(s3)
   14062:	1028                	addi	a0,sp,40
   14064:	00007097          	auipc	ra,0x7
   14068:	e82080e7          	jalr	-382(ra) # 1aee6 <_ZN9allow_pin12full_dynamic17unshare_if_shared17h3494b15e905518bcE>
   1406c:	0028                	addi	a0,sp,8
   1406e:	00007097          	auipc	ra,0x7
   14072:	e78080e7          	jalr	-392(ra) # 1aee6 <_ZN9allow_pin12full_dynamic17unshare_if_shared17h3494b15e905518bcE>
   14076:	40fa                	lw	ra,156(sp)
   14078:	446a                	lw	s0,152(sp)
   1407a:	44da                	lw	s1,148(sp)
   1407c:	494a                	lw	s2,144(sp)
   1407e:	49ba                	lw	s3,140(sp)
   14080:	610d                	addi	sp,sp,160
   14082:	8082                	ret
   14084:	0028                	addi	a0,sp,8
   14086:	00007097          	auipc	ra,0x7
   1408a:	e60080e7          	jalr	-416(ra) # 1aee6 <_ZN9allow_pin12full_dynamic17unshare_if_shared17h3494b15e905518bcE>
   1408e:	1028                	addi	a0,sp,40
   14090:	00007097          	auipc	ra,0x7
   14094:	e56080e7          	jalr	-426(ra) # 1aee6 <_ZN9allow_pin12full_dynamic17unshare_if_shared17h3494b15e905518bcE>
   14098:	1028                	addi	a0,sp,40
   1409a:	00007097          	auipc	ra,0x7
   1409e:	e4c080e7          	jalr	-436(ra) # 1aee6 <_ZN9allow_pin12full_dynamic17unshare_if_shared17h3494b15e905518bcE>
   140a2:	00198513          	addi	a0,s3,1
   140a6:	05500613          	li	a2,85
   140aa:	85ca                	mv	a1,s2
   140ac:	00007097          	auipc	ra,0x7
   140b0:	ec6080e7          	jalr	-314(ra) # 1af72 <memcpy>
   140b4:	4501                	li	a0,0
   140b6:	b765                	j	1405e <_ZN20complex_full_dynamic3app17h8b4f07930eae7273E+0xa2>

000140b8 <_ZN20complex_full_dynamic3app17h8cf6cdaee9bb8570E>:
   140b8:	7115                	addi	sp,sp,-224
   140ba:	cf86                	sw	ra,220(sp)
   140bc:	cda2                	sw	s0,216(sp)
   140be:	cba6                	sw	s1,212(sp)
   140c0:	c9ca                	sw	s2,208(sp)
   140c2:	c7ce                	sw	s3,204(sp)
   140c4:	89aa                	mv	s3,a0
   140c6:	4409                	li	s0,2
   140c8:	00810423          	sb	s0,8(sp)
   140cc:	0064                	addi	s1,sp,12
   140ce:	04f00613          	li	a2,79
   140d2:	8526                	mv	a0,s1
   140d4:	00007097          	auipc	ra,0x7
   140d8:	e9e080e7          	jalr	-354(ra) # 1af72 <memcpy>
   140dc:	06810913          	addi	s2,sp,104
   140e0:	06100613          	li	a2,97
   140e4:	854a                	mv	a0,s2
   140e6:	4581                	li	a1,0
   140e8:	00007097          	auipc	ra,0x7
   140ec:	e1e080e7          	jalr	-482(ra) # 1af06 <memset>
   140f0:	8626                	mv	a2,s1
   140f2:	06810223          	sb	s0,100(sp)
   140f6:	1b600493          	li	s1,438
   140fa:	4791                	li	a5,4
   140fc:	1b600513          	li	a0,438
   14100:	4589                	li	a1,2
   14102:	04f00693          	li	a3,79
   14106:	4711                	li	a4,4
   14108:	00000073          	ecall
   1410c:	04850563          	beq	a0,s0,14156 <_ZN20complex_full_dynamic3app17h8cf6cdaee9bb8570E+0x9e>
   14110:	864a                	mv	a2,s2
   14112:	c026                	sw	s1,0(sp)
   14114:	c222                	sw	s0,4(sp)
   14116:	00f10423          	sb	a5,8(sp)
   1411a:	47a1                	li	a5,8
   1411c:	448d                	li	s1,3
   1411e:	1b600513          	li	a0,438
   14122:	45a1                	li	a1,8
   14124:	06100693          	li	a3,97
   14128:	470d                	li	a4,3
   1412a:	00000073          	ecall
   1412e:	02850463          	beq	a0,s0,14156 <_ZN20complex_full_dynamic3app17h8cf6cdaee9bb8570E+0x9e>
   14132:	1b600693          	li	a3,438
   14136:	1b600513          	li	a0,438
   1413a:	4589                	li	a1,2
   1413c:	4621                	li	a2,8
   1413e:	4709                	li	a4,2
   14140:	07f00413          	li	s0,127
   14144:	ceb6                	sw	a3,92(sp)
   14146:	d0be                	sw	a5,96(sp)
   14148:	06910223          	sb	s1,100(sp)
   1414c:	4681                	li	a3,0
   1414e:	00000073          	ecall
   14152:	02a46863          	bltu	s0,a0,14182 <_ZN20complex_full_dynamic3app17h8cf6cdaee9bb8570E+0xca>
   14156:	00b9a223          	sw	a1,4(s3)
   1415a:	4505                	li	a0,1
   1415c:	00a98023          	sb	a0,0(s3)
   14160:	08e8                	addi	a0,sp,92
   14162:	00007097          	auipc	ra,0x7
   14166:	d84080e7          	jalr	-636(ra) # 1aee6 <_ZN9allow_pin12full_dynamic17unshare_if_shared17h3494b15e905518bcE>
   1416a:	850a                	mv	a0,sp
   1416c:	00007097          	auipc	ra,0x7
   14170:	d7a080e7          	jalr	-646(ra) # 1aee6 <_ZN9allow_pin12full_dynamic17unshare_if_shared17h3494b15e905518bcE>
   14174:	40fe                	lw	ra,220(sp)
   14176:	446e                	lw	s0,216(sp)
   14178:	44de                	lw	s1,212(sp)
   1417a:	494e                	lw	s2,208(sp)
   1417c:	49be                	lw	s3,204(sp)
   1417e:	612d                	addi	sp,sp,224
   14180:	8082                	ret
   14182:	850a                	mv	a0,sp
   14184:	00007097          	auipc	ra,0x7
   14188:	d62080e7          	jalr	-670(ra) # 1aee6 <_ZN9allow_pin12full_dynamic17unshare_if_shared17h3494b15e905518bcE>
   1418c:	08e8                	addi	a0,sp,92
   1418e:	00007097          	auipc	ra,0x7
   14192:	d58080e7          	jalr	-680(ra) # 1aee6 <_ZN9allow_pin12full_dynamic17unshare_if_shared17h3494b15e905518bcE>
   14196:	08e8                	addi	a0,sp,92
   14198:	00007097          	auipc	ra,0x7
   1419c:	d4e080e7          	jalr	-690(ra) # 1aee6 <_ZN9allow_pin12full_dynamic17unshare_if_shared17h3494b15e905518bcE>
   141a0:	00198513          	addi	a0,s3,1
   141a4:	06100613          	li	a2,97
   141a8:	85ca                	mv	a1,s2
   141aa:	00007097          	auipc	ra,0x7
   141ae:	dc8080e7          	jalr	-568(ra) # 1af72 <memcpy>
   141b2:	4501                	li	a0,0
   141b4:	b765                	j	1415c <_ZN20complex_full_dynamic3app17h8cf6cdaee9bb8570E+0xa4>

000141b6 <_ZN20complex_full_dynamic3app17h903dca5eab8b0ecdE>:
   141b6:	7175                	addi	sp,sp,-144
   141b8:	c706                	sw	ra,140(sp)
   141ba:	c522                	sw	s0,136(sp)
   141bc:	c326                	sw	s1,132(sp)
   141be:	c14a                	sw	s2,128(sp)
   141c0:	dece                	sw	s3,124(sp)
   141c2:	89aa                	mv	s3,a0
   141c4:	4409                	li	s0,2
   141c6:	00810a23          	sb	s0,20(sp)
   141ca:	0824                	addi	s1,sp,24
   141cc:	463d                	li	a2,15
   141ce:	8526                	mv	a0,s1
   141d0:	00007097          	auipc	ra,0x7
   141d4:	da2080e7          	jalr	-606(ra) # 1af72 <memcpy>
   141d8:	03410913          	addi	s2,sp,52
   141dc:	04600613          	li	a2,70
   141e0:	854a                	mv	a0,s2
   141e2:	4581                	li	a1,0
   141e4:	00007097          	auipc	ra,0x7
   141e8:	d22080e7          	jalr	-734(ra) # 1af06 <memset>
   141ec:	8626                	mv	a2,s1
   141ee:	02810823          	sb	s0,48(sp)
   141f2:	6509                	lui	a0,0x2
   141f4:	44a5                	li	s1,9
   141f6:	4811                	li	a6,4
   141f8:	45a5                	li	a1,9
   141fa:	d7e50793          	addi	a5,a0,-642 # 1d7e <.Lline_table_start1+0x1b53>
   141fe:	46bd                	li	a3,15
   14200:	4711                	li	a4,4
   14202:	853e                	mv	a0,a5
   14204:	00000073          	ecall
   14208:	04850363          	beq	a0,s0,1424e <_ZN20complex_full_dynamic3app17h903dca5eab8b0ecdE+0x98>
   1420c:	853e                	mv	a0,a5
   1420e:	864a                	mv	a2,s2
   14210:	c63e                	sw	a5,12(sp)
   14212:	c826                	sw	s1,16(sp)
   14214:	01010a23          	sb	a6,20(sp)
   14218:	448d                	li	s1,3
   1421a:	4589                	li	a1,2
   1421c:	04600693          	li	a3,70
   14220:	470d                	li	a4,3
   14222:	00000073          	ecall
   14226:	02850463          	beq	a0,s0,1424e <_ZN20complex_full_dynamic3app17h903dca5eab8b0ecdE+0x98>
   1422a:	4509                	li	a0,2
   1422c:	6689                	lui	a3,0x2
   1422e:	45a5                	li	a1,9
   14230:	4609                	li	a2,2
   14232:	d43e                	sw	a5,40(sp)
   14234:	d62a                	sw	a0,44(sp)
   14236:	02910823          	sb	s1,48(sp)
   1423a:	d7e68513          	addi	a0,a3,-642 # 1d7e <.Lline_table_start1+0x1b53>
   1423e:	4709                	li	a4,2
   14240:	07f00793          	li	a5,127
   14244:	4681                	li	a3,0
   14246:	00000073          	ecall
   1424a:	02a7e863          	bltu	a5,a0,1427a <_ZN20complex_full_dynamic3app17h903dca5eab8b0ecdE+0xc4>
   1424e:	00b9a223          	sw	a1,4(s3)
   14252:	4505                	li	a0,1
   14254:	00a98023          	sb	a0,0(s3)
   14258:	1028                	addi	a0,sp,40
   1425a:	00007097          	auipc	ra,0x7
   1425e:	c8c080e7          	jalr	-884(ra) # 1aee6 <_ZN9allow_pin12full_dynamic17unshare_if_shared17h3494b15e905518bcE>
   14262:	0068                	addi	a0,sp,12
   14264:	00007097          	auipc	ra,0x7
   14268:	c82080e7          	jalr	-894(ra) # 1aee6 <_ZN9allow_pin12full_dynamic17unshare_if_shared17h3494b15e905518bcE>
   1426c:	40ba                	lw	ra,140(sp)
   1426e:	442a                	lw	s0,136(sp)
   14270:	449a                	lw	s1,132(sp)
   14272:	490a                	lw	s2,128(sp)
   14274:	59f6                	lw	s3,124(sp)
   14276:	6149                	addi	sp,sp,144
   14278:	8082                	ret
   1427a:	0068                	addi	a0,sp,12
   1427c:	00007097          	auipc	ra,0x7
   14280:	c6a080e7          	jalr	-918(ra) # 1aee6 <_ZN9allow_pin12full_dynamic17unshare_if_shared17h3494b15e905518bcE>
   14284:	1028                	addi	a0,sp,40
   14286:	00007097          	auipc	ra,0x7
   1428a:	c60080e7          	jalr	-928(ra) # 1aee6 <_ZN9allow_pin12full_dynamic17unshare_if_shared17h3494b15e905518bcE>
   1428e:	1028                	addi	a0,sp,40
   14290:	00007097          	auipc	ra,0x7
   14294:	c56080e7          	jalr	-938(ra) # 1aee6 <_ZN9allow_pin12full_dynamic17unshare_if_shared17h3494b15e905518bcE>
   14298:	00198513          	addi	a0,s3,1
   1429c:	04600613          	li	a2,70
   142a0:	85ca                	mv	a1,s2
   142a2:	00007097          	auipc	ra,0x7
   142a6:	cd0080e7          	jalr	-816(ra) # 1af72 <memcpy>
   142aa:	4501                	li	a0,0
   142ac:	b765                	j	14254 <_ZN20complex_full_dynamic3app17h903dca5eab8b0ecdE+0x9e>

000142ae <_ZN20complex_full_dynamic3app17h913ac0cca7475328E>:
   142ae:	7175                	addi	sp,sp,-144
   142b0:	c706                	sw	ra,140(sp)
   142b2:	c522                	sw	s0,136(sp)
   142b4:	c326                	sw	s1,132(sp)
   142b6:	c14a                	sw	s2,128(sp)
   142b8:	dece                	sw	s3,124(sp)
   142ba:	89aa                	mv	s3,a0
   142bc:	4409                	li	s0,2
   142be:	00810a23          	sb	s0,20(sp)
   142c2:	0824                	addi	s1,sp,24
   142c4:	02c00613          	li	a2,44
   142c8:	8526                	mv	a0,s1
   142ca:	00007097          	auipc	ra,0x7
   142ce:	ca8080e7          	jalr	-856(ra) # 1af72 <memcpy>
   142d2:	05010913          	addi	s2,sp,80
   142d6:	02a00613          	li	a2,42
   142da:	854a                	mv	a0,s2
   142dc:	4581                	li	a1,0
   142de:	00007097          	auipc	ra,0x7
   142e2:	c28080e7          	jalr	-984(ra) # 1af06 <memset>
   142e6:	8626                	mv	a2,s1
   142e8:	04810623          	sb	s0,76(sp)
   142ec:	6509                	lui	a0,0x2
   142ee:	448d                	li	s1,3
   142f0:	4811                	li	a6,4
   142f2:	458d                	li	a1,3
   142f4:	4f050793          	addi	a5,a0,1264 # 24f0 <.Lline_table_start1+0x22c5>
   142f8:	02c00693          	li	a3,44
   142fc:	4711                	li	a4,4
   142fe:	853e                	mv	a0,a5
   14300:	00000073          	ecall
   14304:	04850263          	beq	a0,s0,14348 <_ZN20complex_full_dynamic3app17h913ac0cca7475328E+0x9a>
   14308:	c63e                	sw	a5,12(sp)
   1430a:	c826                	sw	s1,16(sp)
   1430c:	01010a23          	sb	a6,20(sp)
   14310:	02a00693          	li	a3,42
   14314:	470d                	li	a4,3
   14316:	853e                	mv	a0,a5
   14318:	4581                	li	a1,0
   1431a:	864a                	mv	a2,s2
   1431c:	00000073          	ecall
   14320:	02850463          	beq	a0,s0,14348 <_ZN20complex_full_dynamic3app17h913ac0cca7475328E+0x9a>
   14324:	450d                	li	a0,3
   14326:	6609                	lui	a2,0x2
   14328:	458d                	li	a1,3
   1432a:	c2be                	sw	a5,68(sp)
   1432c:	c482                	sw	zero,72(sp)
   1432e:	04a10623          	sb	a0,76(sp)
   14332:	4f060513          	addi	a0,a2,1264 # 24f0 <.Lline_table_start1+0x22c5>
   14336:	4709                	li	a4,2
   14338:	07f00793          	li	a5,127
   1433c:	4601                	li	a2,0
   1433e:	4681                	li	a3,0
   14340:	00000073          	ecall
   14344:	02a7e863          	bltu	a5,a0,14374 <_ZN20complex_full_dynamic3app17h913ac0cca7475328E+0xc6>
   14348:	00b9a223          	sw	a1,4(s3)
   1434c:	4505                	li	a0,1
   1434e:	00a98023          	sb	a0,0(s3)
   14352:	00c8                	addi	a0,sp,68
   14354:	00007097          	auipc	ra,0x7
   14358:	b92080e7          	jalr	-1134(ra) # 1aee6 <_ZN9allow_pin12full_dynamic17unshare_if_shared17h3494b15e905518bcE>
   1435c:	0068                	addi	a0,sp,12
   1435e:	00007097          	auipc	ra,0x7
   14362:	b88080e7          	jalr	-1144(ra) # 1aee6 <_ZN9allow_pin12full_dynamic17unshare_if_shared17h3494b15e905518bcE>
   14366:	40ba                	lw	ra,140(sp)
   14368:	442a                	lw	s0,136(sp)
   1436a:	449a                	lw	s1,132(sp)
   1436c:	490a                	lw	s2,128(sp)
   1436e:	59f6                	lw	s3,124(sp)
   14370:	6149                	addi	sp,sp,144
   14372:	8082                	ret
   14374:	0068                	addi	a0,sp,12
   14376:	00007097          	auipc	ra,0x7
   1437a:	b70080e7          	jalr	-1168(ra) # 1aee6 <_ZN9allow_pin12full_dynamic17unshare_if_shared17h3494b15e905518bcE>
   1437e:	00c8                	addi	a0,sp,68
   14380:	00007097          	auipc	ra,0x7
   14384:	b66080e7          	jalr	-1178(ra) # 1aee6 <_ZN9allow_pin12full_dynamic17unshare_if_shared17h3494b15e905518bcE>
   14388:	00c8                	addi	a0,sp,68
   1438a:	00007097          	auipc	ra,0x7
   1438e:	b5c080e7          	jalr	-1188(ra) # 1aee6 <_ZN9allow_pin12full_dynamic17unshare_if_shared17h3494b15e905518bcE>
   14392:	00198513          	addi	a0,s3,1
   14396:	02a00613          	li	a2,42
   1439a:	85ca                	mv	a1,s2
   1439c:	00007097          	auipc	ra,0x7
   143a0:	bd6080e7          	jalr	-1066(ra) # 1af72 <memcpy>
   143a4:	4501                	li	a0,0
   143a6:	b765                	j	1434e <_ZN20complex_full_dynamic3app17h913ac0cca7475328E+0xa0>

000143a8 <_ZN20complex_full_dynamic3app17h93019456e5149740E>:
   143a8:	7135                	addi	sp,sp,-160
   143aa:	cf06                	sw	ra,156(sp)
   143ac:	cd22                	sw	s0,152(sp)
   143ae:	cb26                	sw	s1,148(sp)
   143b0:	c94a                	sw	s2,144(sp)
   143b2:	c74e                	sw	s3,140(sp)
   143b4:	89aa                	mv	s3,a0
   143b6:	4409                	li	s0,2
   143b8:	00810823          	sb	s0,16(sp)
   143bc:	0844                	addi	s1,sp,20
   143be:	03600613          	li	a2,54
   143c2:	8526                	mv	a0,s1
   143c4:	00007097          	auipc	ra,0x7
   143c8:	bae080e7          	jalr	-1106(ra) # 1af72 <memcpy>
   143cc:	05810913          	addi	s2,sp,88
   143d0:	03400613          	li	a2,52
   143d4:	854a                	mv	a0,s2
   143d6:	4581                	li	a1,0
   143d8:	00007097          	auipc	ra,0x7
   143dc:	b2e080e7          	jalr	-1234(ra) # 1af06 <memset>
   143e0:	8626                	mv	a2,s1
   143e2:	04810a23          	sb	s0,84(sp)
   143e6:	6509                	lui	a0,0x2
   143e8:	4491                	li	s1,4
   143ea:	4591                	li	a1,4
   143ec:	3c650793          	addi	a5,a0,966 # 23c6 <.Lline_table_start1+0x219b>
   143f0:	03600693          	li	a3,54
   143f4:	4711                	li	a4,4
   143f6:	853e                	mv	a0,a5
   143f8:	00000073          	ecall
   143fc:	04850363          	beq	a0,s0,14442 <_ZN20complex_full_dynamic3app17h93019456e5149740E+0x9a>
   14400:	853e                	mv	a0,a5
   14402:	864a                	mv	a2,s2
   14404:	c43e                	sw	a5,8(sp)
   14406:	c626                	sw	s1,12(sp)
   14408:	00910823          	sb	s1,16(sp)
   1440c:	448d                	li	s1,3
   1440e:	4589                	li	a1,2
   14410:	03400693          	li	a3,52
   14414:	470d                	li	a4,3
   14416:	00000073          	ecall
   1441a:	02850463          	beq	a0,s0,14442 <_ZN20complex_full_dynamic3app17h93019456e5149740E+0x9a>
   1441e:	4509                	li	a0,2
   14420:	6689                	lui	a3,0x2
   14422:	4591                	li	a1,4
   14424:	4609                	li	a2,2
   14426:	c6be                	sw	a5,76(sp)
   14428:	c8aa                	sw	a0,80(sp)
   1442a:	04910a23          	sb	s1,84(sp)
   1442e:	3c668513          	addi	a0,a3,966 # 23c6 <.Lline_table_start1+0x219b>
   14432:	4709                	li	a4,2
   14434:	07f00793          	li	a5,127
   14438:	4681                	li	a3,0
   1443a:	00000073          	ecall
   1443e:	02a7e863          	bltu	a5,a0,1446e <_ZN20complex_full_dynamic3app17h93019456e5149740E+0xc6>
   14442:	00b9a223          	sw	a1,4(s3)
   14446:	4505                	li	a0,1
   14448:	00a98023          	sb	a0,0(s3)
   1444c:	00e8                	addi	a0,sp,76
   1444e:	00007097          	auipc	ra,0x7
   14452:	a98080e7          	jalr	-1384(ra) # 1aee6 <_ZN9allow_pin12full_dynamic17unshare_if_shared17h3494b15e905518bcE>
   14456:	0028                	addi	a0,sp,8
   14458:	00007097          	auipc	ra,0x7
   1445c:	a8e080e7          	jalr	-1394(ra) # 1aee6 <_ZN9allow_pin12full_dynamic17unshare_if_shared17h3494b15e905518bcE>
   14460:	40fa                	lw	ra,156(sp)
   14462:	446a                	lw	s0,152(sp)
   14464:	44da                	lw	s1,148(sp)
   14466:	494a                	lw	s2,144(sp)
   14468:	49ba                	lw	s3,140(sp)
   1446a:	610d                	addi	sp,sp,160
   1446c:	8082                	ret
   1446e:	0028                	addi	a0,sp,8
   14470:	00007097          	auipc	ra,0x7
   14474:	a76080e7          	jalr	-1418(ra) # 1aee6 <_ZN9allow_pin12full_dynamic17unshare_if_shared17h3494b15e905518bcE>
   14478:	00e8                	addi	a0,sp,76
   1447a:	00007097          	auipc	ra,0x7
   1447e:	a6c080e7          	jalr	-1428(ra) # 1aee6 <_ZN9allow_pin12full_dynamic17unshare_if_shared17h3494b15e905518bcE>
   14482:	00e8                	addi	a0,sp,76
   14484:	00007097          	auipc	ra,0x7
   14488:	a62080e7          	jalr	-1438(ra) # 1aee6 <_ZN9allow_pin12full_dynamic17unshare_if_shared17h3494b15e905518bcE>
   1448c:	00198513          	addi	a0,s3,1
   14490:	03400613          	li	a2,52
   14494:	85ca                	mv	a1,s2
   14496:	00007097          	auipc	ra,0x7
   1449a:	adc080e7          	jalr	-1316(ra) # 1af72 <memcpy>
   1449e:	4501                	li	a0,0
   144a0:	b765                	j	14448 <_ZN20complex_full_dynamic3app17h93019456e5149740E+0xa0>

000144a2 <_ZN20complex_full_dynamic3app17h933ca594e438b865E>:
   144a2:	7155                	addi	sp,sp,-208
   144a4:	c786                	sw	ra,204(sp)
   144a6:	c5a2                	sw	s0,200(sp)
   144a8:	c3a6                	sw	s1,196(sp)
   144aa:	c1ca                	sw	s2,192(sp)
   144ac:	df4e                	sw	s3,188(sp)
   144ae:	89aa                	mv	s3,a0
   144b0:	4409                	li	s0,2
   144b2:	00810623          	sb	s0,12(sp)
   144b6:	0804                	addi	s1,sp,16
   144b8:	04600613          	li	a2,70
   144bc:	8526                	mv	a0,s1
   144be:	00007097          	auipc	ra,0x7
   144c2:	ab4080e7          	jalr	-1356(ra) # 1af72 <memcpy>
   144c6:	06410913          	addi	s2,sp,100
   144ca:	05600613          	li	a2,86
   144ce:	854a                	mv	a0,s2
   144d0:	4581                	li	a1,0
   144d2:	00007097          	auipc	ra,0x7
   144d6:	a34080e7          	jalr	-1484(ra) # 1af06 <memset>
   144da:	8626                	mv	a2,s1
   144dc:	06810023          	sb	s0,96(sp)
   144e0:	6509                	lui	a0,0x2
   144e2:	449d                	li	s1,7
   144e4:	4811                	li	a6,4
   144e6:	459d                	li	a1,7
   144e8:	e5050793          	addi	a5,a0,-432 # 1e50 <.Lline_table_start1+0x1c25>
   144ec:	04600693          	li	a3,70
   144f0:	4711                	li	a4,4
   144f2:	853e                	mv	a0,a5
   144f4:	00000073          	ecall
   144f8:	04850263          	beq	a0,s0,1453c <_ZN20complex_full_dynamic3app17h933ca594e438b865E+0x9a>
   144fc:	853e                	mv	a0,a5
   144fe:	864a                	mv	a2,s2
   14500:	c23e                	sw	a5,4(sp)
   14502:	c426                	sw	s1,8(sp)
   14504:	01010623          	sb	a6,12(sp)
   14508:	448d                	li	s1,3
   1450a:	458d                	li	a1,3
   1450c:	05600693          	li	a3,86
   14510:	470d                	li	a4,3
   14512:	00000073          	ecall
   14516:	02850363          	beq	a0,s0,1453c <_ZN20complex_full_dynamic3app17h933ca594e438b865E+0x9a>
   1451a:	ccbe                	sw	a5,88(sp)
   1451c:	cea6                	sw	s1,92(sp)
   1451e:	06910023          	sb	s1,96(sp)
   14522:	6509                	lui	a0,0x2
   14524:	459d                	li	a1,7
   14526:	460d                	li	a2,3
   14528:	e5050513          	addi	a0,a0,-432 # 1e50 <.Lline_table_start1+0x1c25>
   1452c:	4709                	li	a4,2
   1452e:	07f00793          	li	a5,127
   14532:	4681                	li	a3,0
   14534:	00000073          	ecall
   14538:	02a7e863          	bltu	a5,a0,14568 <_ZN20complex_full_dynamic3app17h933ca594e438b865E+0xc6>
   1453c:	00b9a223          	sw	a1,4(s3)
   14540:	4505                	li	a0,1
   14542:	00a98023          	sb	a0,0(s3)
   14546:	08a8                	addi	a0,sp,88
   14548:	00007097          	auipc	ra,0x7
   1454c:	99e080e7          	jalr	-1634(ra) # 1aee6 <_ZN9allow_pin12full_dynamic17unshare_if_shared17h3494b15e905518bcE>
   14550:	0048                	addi	a0,sp,4
   14552:	00007097          	auipc	ra,0x7
   14556:	994080e7          	jalr	-1644(ra) # 1aee6 <_ZN9allow_pin12full_dynamic17unshare_if_shared17h3494b15e905518bcE>
   1455a:	40be                	lw	ra,204(sp)
   1455c:	442e                	lw	s0,200(sp)
   1455e:	449e                	lw	s1,196(sp)
   14560:	490e                	lw	s2,192(sp)
   14562:	59fa                	lw	s3,188(sp)
   14564:	6169                	addi	sp,sp,208
   14566:	8082                	ret
   14568:	0048                	addi	a0,sp,4
   1456a:	00007097          	auipc	ra,0x7
   1456e:	97c080e7          	jalr	-1668(ra) # 1aee6 <_ZN9allow_pin12full_dynamic17unshare_if_shared17h3494b15e905518bcE>
   14572:	08a8                	addi	a0,sp,88
   14574:	00007097          	auipc	ra,0x7
   14578:	972080e7          	jalr	-1678(ra) # 1aee6 <_ZN9allow_pin12full_dynamic17unshare_if_shared17h3494b15e905518bcE>
   1457c:	08a8                	addi	a0,sp,88
   1457e:	00007097          	auipc	ra,0x7
   14582:	968080e7          	jalr	-1688(ra) # 1aee6 <_ZN9allow_pin12full_dynamic17unshare_if_shared17h3494b15e905518bcE>
   14586:	00198513          	addi	a0,s3,1
   1458a:	05600613          	li	a2,86
   1458e:	85ca                	mv	a1,s2
   14590:	00007097          	auipc	ra,0x7
   14594:	9e2080e7          	jalr	-1566(ra) # 1af72 <memcpy>
   14598:	4501                	li	a0,0
   1459a:	b765                	j	14542 <_ZN20complex_full_dynamic3app17h933ca594e438b865E+0xa0>

0001459c <_ZN20complex_full_dynamic3app17h949722f68114d2a4E>:
   1459c:	7155                	addi	sp,sp,-208
   1459e:	c786                	sw	ra,204(sp)
   145a0:	c5a2                	sw	s0,200(sp)
   145a2:	c3a6                	sw	s1,196(sp)
   145a4:	c1ca                	sw	s2,192(sp)
   145a6:	df4e                	sw	s3,188(sp)
   145a8:	89aa                	mv	s3,a0
   145aa:	4409                	li	s0,2
   145ac:	00810623          	sb	s0,12(sp)
   145b0:	0804                	addi	s1,sp,16
   145b2:	05d00613          	li	a2,93
   145b6:	8526                	mv	a0,s1
   145b8:	00007097          	auipc	ra,0x7
   145bc:	9ba080e7          	jalr	-1606(ra) # 1af72 <memcpy>
   145c0:	07c10913          	addi	s2,sp,124
   145c4:	04000613          	li	a2,64
   145c8:	854a                	mv	a0,s2
   145ca:	4581                	li	a1,0
   145cc:	00007097          	auipc	ra,0x7
   145d0:	93a080e7          	jalr	-1734(ra) # 1af06 <memset>
   145d4:	8626                	mv	a2,s1
   145d6:	06810c23          	sb	s0,120(sp)
   145da:	6505                	lui	a0,0x1
   145dc:	44a1                	li	s1,8
   145de:	4811                	li	a6,4
   145e0:	45a1                	li	a1,8
   145e2:	02850793          	addi	a5,a0,40 # 1028 <.Lline_table_start1+0xdfd>
   145e6:	05d00693          	li	a3,93
   145ea:	4711                	li	a4,4
   145ec:	853e                	mv	a0,a5
   145ee:	00000073          	ecall
   145f2:	04850363          	beq	a0,s0,14638 <_ZN20complex_full_dynamic3app17h949722f68114d2a4E+0x9c>
   145f6:	853e                	mv	a0,a5
   145f8:	864a                	mv	a2,s2
   145fa:	c23e                	sw	a5,4(sp)
   145fc:	c426                	sw	s1,8(sp)
   145fe:	01010623          	sb	a6,12(sp)
   14602:	448d                	li	s1,3
   14604:	4591                	li	a1,4
   14606:	04000693          	li	a3,64
   1460a:	470d                	li	a4,3
   1460c:	00000073          	ecall
   14610:	02850463          	beq	a0,s0,14638 <_ZN20complex_full_dynamic3app17h949722f68114d2a4E+0x9c>
   14614:	4511                	li	a0,4
   14616:	6685                	lui	a3,0x1
   14618:	45a1                	li	a1,8
   1461a:	4611                	li	a2,4
   1461c:	d8be                	sw	a5,112(sp)
   1461e:	daaa                	sw	a0,116(sp)
   14620:	06910c23          	sb	s1,120(sp)
   14624:	02868513          	addi	a0,a3,40 # 1028 <.Lline_table_start1+0xdfd>
   14628:	4709                	li	a4,2
   1462a:	07f00793          	li	a5,127
   1462e:	4681                	li	a3,0
   14630:	00000073          	ecall
   14634:	02a7e863          	bltu	a5,a0,14664 <_ZN20complex_full_dynamic3app17h949722f68114d2a4E+0xc8>
   14638:	00b9a223          	sw	a1,4(s3)
   1463c:	4505                	li	a0,1
   1463e:	00a98023          	sb	a0,0(s3)
   14642:	1888                	addi	a0,sp,112
   14644:	00007097          	auipc	ra,0x7
   14648:	8a2080e7          	jalr	-1886(ra) # 1aee6 <_ZN9allow_pin12full_dynamic17unshare_if_shared17h3494b15e905518bcE>
   1464c:	0048                	addi	a0,sp,4
   1464e:	00007097          	auipc	ra,0x7
   14652:	898080e7          	jalr	-1896(ra) # 1aee6 <_ZN9allow_pin12full_dynamic17unshare_if_shared17h3494b15e905518bcE>
   14656:	40be                	lw	ra,204(sp)
   14658:	442e                	lw	s0,200(sp)
   1465a:	449e                	lw	s1,196(sp)
   1465c:	490e                	lw	s2,192(sp)
   1465e:	59fa                	lw	s3,188(sp)
   14660:	6169                	addi	sp,sp,208
   14662:	8082                	ret
   14664:	0048                	addi	a0,sp,4
   14666:	00007097          	auipc	ra,0x7
   1466a:	880080e7          	jalr	-1920(ra) # 1aee6 <_ZN9allow_pin12full_dynamic17unshare_if_shared17h3494b15e905518bcE>
   1466e:	1888                	addi	a0,sp,112
   14670:	00007097          	auipc	ra,0x7
   14674:	876080e7          	jalr	-1930(ra) # 1aee6 <_ZN9allow_pin12full_dynamic17unshare_if_shared17h3494b15e905518bcE>
   14678:	1888                	addi	a0,sp,112
   1467a:	00007097          	auipc	ra,0x7
   1467e:	86c080e7          	jalr	-1940(ra) # 1aee6 <_ZN9allow_pin12full_dynamic17unshare_if_shared17h3494b15e905518bcE>
   14682:	00198513          	addi	a0,s3,1
   14686:	04000613          	li	a2,64
   1468a:	85ca                	mv	a1,s2
   1468c:	00007097          	auipc	ra,0x7
   14690:	8e6080e7          	jalr	-1818(ra) # 1af72 <memcpy>
   14694:	4501                	li	a0,0
   14696:	b765                	j	1463e <_ZN20complex_full_dynamic3app17h949722f68114d2a4E+0xa2>

00014698 <_ZN20complex_full_dynamic3app17ha10b4df63dedc493E>:
   14698:	7171                	addi	sp,sp,-176
   1469a:	d706                	sw	ra,172(sp)
   1469c:	d522                	sw	s0,168(sp)
   1469e:	d326                	sw	s1,164(sp)
   146a0:	d14a                	sw	s2,160(sp)
   146a2:	cf4e                	sw	s3,156(sp)
   146a4:	89aa                	mv	s3,a0
   146a6:	4409                	li	s0,2
   146a8:	00810823          	sb	s0,16(sp)
   146ac:	0844                	addi	s1,sp,20
   146ae:	4671                	li	a2,28
   146b0:	8526                	mv	a0,s1
   146b2:	00007097          	auipc	ra,0x7
   146b6:	8c0080e7          	jalr	-1856(ra) # 1af72 <memcpy>
   146ba:	03c10913          	addi	s2,sp,60
   146be:	05d00613          	li	a2,93
   146c2:	854a                	mv	a0,s2
   146c4:	4581                	li	a1,0
   146c6:	00007097          	auipc	ra,0x7
   146ca:	840080e7          	jalr	-1984(ra) # 1af06 <memset>
   146ce:	8626                	mv	a2,s1
   146d0:	02810c23          	sb	s0,56(sp)
   146d4:	6505                	lui	a0,0x1
   146d6:	44a1                	li	s1,8
   146d8:	4811                	li	a6,4
   146da:	45a1                	li	a1,8
   146dc:	c3e50793          	addi	a5,a0,-962 # c3e <.Lline_table_start1+0xa13>
   146e0:	46f1                	li	a3,28
   146e2:	4711                	li	a4,4
   146e4:	853e                	mv	a0,a5
   146e6:	00000073          	ecall
   146ea:	04850363          	beq	a0,s0,14730 <_ZN20complex_full_dynamic3app17ha10b4df63dedc493E+0x98>
   146ee:	853e                	mv	a0,a5
   146f0:	864a                	mv	a2,s2
   146f2:	c43e                	sw	a5,8(sp)
   146f4:	c626                	sw	s1,12(sp)
   146f6:	01010823          	sb	a6,16(sp)
   146fa:	4495                	li	s1,5
   146fc:	480d                	li	a6,3
   146fe:	4595                	li	a1,5
   14700:	05d00693          	li	a3,93
   14704:	470d                	li	a4,3
   14706:	00000073          	ecall
   1470a:	02850363          	beq	a0,s0,14730 <_ZN20complex_full_dynamic3app17ha10b4df63dedc493E+0x98>
   1470e:	d83e                	sw	a5,48(sp)
   14710:	da26                	sw	s1,52(sp)
   14712:	03010c23          	sb	a6,56(sp)
   14716:	6505                	lui	a0,0x1
   14718:	45a1                	li	a1,8
   1471a:	4615                	li	a2,5
   1471c:	c3e50513          	addi	a0,a0,-962 # c3e <.Lline_table_start1+0xa13>
   14720:	4709                	li	a4,2
   14722:	07f00793          	li	a5,127
   14726:	4681                	li	a3,0
   14728:	00000073          	ecall
   1472c:	02a7e863          	bltu	a5,a0,1475c <_ZN20complex_full_dynamic3app17ha10b4df63dedc493E+0xc4>
   14730:	00b9a223          	sw	a1,4(s3)
   14734:	4505                	li	a0,1
   14736:	00a98023          	sb	a0,0(s3)
   1473a:	1808                	addi	a0,sp,48
   1473c:	00006097          	auipc	ra,0x6
   14740:	7aa080e7          	jalr	1962(ra) # 1aee6 <_ZN9allow_pin12full_dynamic17unshare_if_shared17h3494b15e905518bcE>
   14744:	0028                	addi	a0,sp,8
   14746:	00006097          	auipc	ra,0x6
   1474a:	7a0080e7          	jalr	1952(ra) # 1aee6 <_ZN9allow_pin12full_dynamic17unshare_if_shared17h3494b15e905518bcE>
   1474e:	50ba                	lw	ra,172(sp)
   14750:	542a                	lw	s0,168(sp)
   14752:	549a                	lw	s1,164(sp)
   14754:	590a                	lw	s2,160(sp)
   14756:	49fa                	lw	s3,156(sp)
   14758:	614d                	addi	sp,sp,176
   1475a:	8082                	ret
   1475c:	0028                	addi	a0,sp,8
   1475e:	00006097          	auipc	ra,0x6
   14762:	788080e7          	jalr	1928(ra) # 1aee6 <_ZN9allow_pin12full_dynamic17unshare_if_shared17h3494b15e905518bcE>
   14766:	1808                	addi	a0,sp,48
   14768:	00006097          	auipc	ra,0x6
   1476c:	77e080e7          	jalr	1918(ra) # 1aee6 <_ZN9allow_pin12full_dynamic17unshare_if_shared17h3494b15e905518bcE>
   14770:	1808                	addi	a0,sp,48
   14772:	00006097          	auipc	ra,0x6
   14776:	774080e7          	jalr	1908(ra) # 1aee6 <_ZN9allow_pin12full_dynamic17unshare_if_shared17h3494b15e905518bcE>
   1477a:	00198513          	addi	a0,s3,1
   1477e:	05d00613          	li	a2,93
   14782:	85ca                	mv	a1,s2
   14784:	00006097          	auipc	ra,0x6
   14788:	7ee080e7          	jalr	2030(ra) # 1af72 <memcpy>
   1478c:	4501                	li	a0,0
   1478e:	b765                	j	14736 <_ZN20complex_full_dynamic3app17ha10b4df63dedc493E+0x9e>

00014790 <_ZN20complex_full_dynamic3app17ha1521c259fa3c495E>:
   14790:	7119                	addi	sp,sp,-128
   14792:	de86                	sw	ra,124(sp)
   14794:	dca2                	sw	s0,120(sp)
   14796:	daa6                	sw	s1,116(sp)
   14798:	d8ca                	sw	s2,112(sp)
   1479a:	d6ce                	sw	s3,108(sp)
   1479c:	892a                	mv	s2,a0
   1479e:	4409                	li	s0,2
   147a0:	00810623          	sb	s0,12(sp)
   147a4:	0804                	addi	s1,sp,16
   147a6:	03400613          	li	a2,52
   147aa:	8526                	mv	a0,s1
   147ac:	00006097          	auipc	ra,0x6
   147b0:	7c6080e7          	jalr	1990(ra) # 1af72 <memcpy>
   147b4:	4581                	li	a1,0
   147b6:	8626                	mv	a2,s1
   147b8:	ce82                	sw	zero,92(sp)
   147ba:	d082                	sw	zero,96(sp)
   147bc:	d282                	sw	zero,100(sp)
   147be:	06011423          	sh	zero,104(sp)
   147c2:	04810623          	sb	s0,76(sp)
   147c6:	c882                	sw	zero,80(sp)
   147c8:	ca82                	sw	zero,84(sp)
   147ca:	cc82                	sw	zero,88(sp)
   147cc:	6505                	lui	a0,0x1
   147ce:	4491                	li	s1,4
   147d0:	2cc50793          	addi	a5,a0,716 # 12cc <.Lline_table_start1+0x10a1>
   147d4:	03400693          	li	a3,52
   147d8:	4711                	li	a4,4
   147da:	853e                	mv	a0,a5
   147dc:	00000073          	ecall
   147e0:	04850463          	beq	a0,s0,14828 <_ZN20complex_full_dynamic3app17ha1521c259fa3c495E+0x98>
   147e4:	853e                	mv	a0,a5
   147e6:	05010993          	addi	s3,sp,80
   147ea:	c23e                	sw	a5,4(sp)
   147ec:	c402                	sw	zero,8(sp)
   147ee:	00910623          	sb	s1,12(sp)
   147f2:	4495                	li	s1,5
   147f4:	480d                	li	a6,3
   147f6:	4595                	li	a1,5
   147f8:	46e9                	li	a3,26
   147fa:	470d                	li	a4,3
   147fc:	864e                	mv	a2,s3
   147fe:	00000073          	ecall
   14802:	02850363          	beq	a0,s0,14828 <_ZN20complex_full_dynamic3app17ha1521c259fa3c495E+0x98>
   14806:	c2be                	sw	a5,68(sp)
   14808:	c4a6                	sw	s1,72(sp)
   1480a:	05010623          	sb	a6,76(sp)
   1480e:	6505                	lui	a0,0x1
   14810:	4615                	li	a2,5
   14812:	2cc50513          	addi	a0,a0,716 # 12cc <.Lline_table_start1+0x10a1>
   14816:	4709                	li	a4,2
   14818:	07f00793          	li	a5,127
   1481c:	4581                	li	a1,0
   1481e:	4681                	li	a3,0
   14820:	00000073          	ecall
   14824:	02a7e863          	bltu	a5,a0,14854 <_ZN20complex_full_dynamic3app17ha1521c259fa3c495E+0xc4>
   14828:	00b92223          	sw	a1,4(s2)
   1482c:	4505                	li	a0,1
   1482e:	00a90023          	sb	a0,0(s2)
   14832:	00c8                	addi	a0,sp,68
   14834:	00006097          	auipc	ra,0x6
   14838:	6b2080e7          	jalr	1714(ra) # 1aee6 <_ZN9allow_pin12full_dynamic17unshare_if_shared17h3494b15e905518bcE>
   1483c:	0048                	addi	a0,sp,4
   1483e:	00006097          	auipc	ra,0x6
   14842:	6a8080e7          	jalr	1704(ra) # 1aee6 <_ZN9allow_pin12full_dynamic17unshare_if_shared17h3494b15e905518bcE>
   14846:	50f6                	lw	ra,124(sp)
   14848:	5466                	lw	s0,120(sp)
   1484a:	54d6                	lw	s1,116(sp)
   1484c:	5946                	lw	s2,112(sp)
   1484e:	59b6                	lw	s3,108(sp)
   14850:	6109                	addi	sp,sp,128
   14852:	8082                	ret
   14854:	0048                	addi	a0,sp,4
   14856:	00006097          	auipc	ra,0x6
   1485a:	690080e7          	jalr	1680(ra) # 1aee6 <_ZN9allow_pin12full_dynamic17unshare_if_shared17h3494b15e905518bcE>
   1485e:	00c8                	addi	a0,sp,68
   14860:	00006097          	auipc	ra,0x6
   14864:	686080e7          	jalr	1670(ra) # 1aee6 <_ZN9allow_pin12full_dynamic17unshare_if_shared17h3494b15e905518bcE>
   14868:	00c8                	addi	a0,sp,68
   1486a:	00006097          	auipc	ra,0x6
   1486e:	67c080e7          	jalr	1660(ra) # 1aee6 <_ZN9allow_pin12full_dynamic17unshare_if_shared17h3494b15e905518bcE>
   14872:	00190513          	addi	a0,s2,1
   14876:	4669                	li	a2,26
   14878:	85ce                	mv	a1,s3
   1487a:	00006097          	auipc	ra,0x6
   1487e:	6f8080e7          	jalr	1784(ra) # 1af72 <memcpy>
   14882:	4501                	li	a0,0
   14884:	b76d                	j	1482e <_ZN20complex_full_dynamic3app17ha1521c259fa3c495E+0x9e>

00014886 <_ZN20complex_full_dynamic3app17ha654b96a764fa51dE>:
   14886:	7115                	addi	sp,sp,-224
   14888:	cf86                	sw	ra,220(sp)
   1488a:	cda2                	sw	s0,216(sp)
   1488c:	cba6                	sw	s1,212(sp)
   1488e:	c9ca                	sw	s2,208(sp)
   14890:	c7ce                	sw	s3,204(sp)
   14892:	89aa                	mv	s3,a0
   14894:	4409                	li	s0,2
   14896:	00810a23          	sb	s0,20(sp)
   1489a:	0824                	addi	s1,sp,24
   1489c:	05900613          	li	a2,89
   148a0:	8526                	mv	a0,s1
   148a2:	00006097          	auipc	ra,0x6
   148a6:	6d0080e7          	jalr	1744(ra) # 1af72 <memcpy>
   148aa:	08010913          	addi	s2,sp,128
   148ae:	04a00613          	li	a2,74
   148b2:	854a                	mv	a0,s2
   148b4:	4581                	li	a1,0
   148b6:	00006097          	auipc	ra,0x6
   148ba:	650080e7          	jalr	1616(ra) # 1af06 <memset>
   148be:	4581                	li	a1,0
   148c0:	8626                	mv	a2,s1
   148c2:	06810e23          	sb	s0,124(sp)
   148c6:	6505                	lui	a0,0x1
   148c8:	4491                	li	s1,4
   148ca:	48450793          	addi	a5,a0,1156 # 1484 <.Lline_table_start1+0x1259>
   148ce:	05900693          	li	a3,89
   148d2:	4711                	li	a4,4
   148d4:	853e                	mv	a0,a5
   148d6:	00000073          	ecall
   148da:	04850363          	beq	a0,s0,14920 <_ZN20complex_full_dynamic3app17ha654b96a764fa51dE+0x9a>
   148de:	853e                	mv	a0,a5
   148e0:	864a                	mv	a2,s2
   148e2:	c63e                	sw	a5,12(sp)
   148e4:	c802                	sw	zero,16(sp)
   148e6:	00910a23          	sb	s1,20(sp)
   148ea:	448d                	li	s1,3
   148ec:	4591                	li	a1,4
   148ee:	04a00693          	li	a3,74
   148f2:	470d                	li	a4,3
   148f4:	00000073          	ecall
   148f8:	02850463          	beq	a0,s0,14920 <_ZN20complex_full_dynamic3app17ha654b96a764fa51dE+0x9a>
   148fc:	4511                	li	a0,4
   148fe:	6585                	lui	a1,0x1
   14900:	4611                	li	a2,4
   14902:	dabe                	sw	a5,116(sp)
   14904:	dcaa                	sw	a0,120(sp)
   14906:	06910e23          	sb	s1,124(sp)
   1490a:	48458513          	addi	a0,a1,1156 # 1484 <.Lline_table_start1+0x1259>
   1490e:	4709                	li	a4,2
   14910:	07f00793          	li	a5,127
   14914:	4581                	li	a1,0
   14916:	4681                	li	a3,0
   14918:	00000073          	ecall
   1491c:	02a7e863          	bltu	a5,a0,1494c <_ZN20complex_full_dynamic3app17ha654b96a764fa51dE+0xc6>
   14920:	00b9a223          	sw	a1,4(s3)
   14924:	4505                	li	a0,1
   14926:	00a98023          	sb	a0,0(s3)
   1492a:	18c8                	addi	a0,sp,116
   1492c:	00006097          	auipc	ra,0x6
   14930:	5ba080e7          	jalr	1466(ra) # 1aee6 <_ZN9allow_pin12full_dynamic17unshare_if_shared17h3494b15e905518bcE>
   14934:	0068                	addi	a0,sp,12
   14936:	00006097          	auipc	ra,0x6
   1493a:	5b0080e7          	jalr	1456(ra) # 1aee6 <_ZN9allow_pin12full_dynamic17unshare_if_shared17h3494b15e905518bcE>
   1493e:	40fe                	lw	ra,220(sp)
   14940:	446e                	lw	s0,216(sp)
   14942:	44de                	lw	s1,212(sp)
   14944:	494e                	lw	s2,208(sp)
   14946:	49be                	lw	s3,204(sp)
   14948:	612d                	addi	sp,sp,224
   1494a:	8082                	ret
   1494c:	0068                	addi	a0,sp,12
   1494e:	00006097          	auipc	ra,0x6
   14952:	598080e7          	jalr	1432(ra) # 1aee6 <_ZN9allow_pin12full_dynamic17unshare_if_shared17h3494b15e905518bcE>
   14956:	18c8                	addi	a0,sp,116
   14958:	00006097          	auipc	ra,0x6
   1495c:	58e080e7          	jalr	1422(ra) # 1aee6 <_ZN9allow_pin12full_dynamic17unshare_if_shared17h3494b15e905518bcE>
   14960:	18c8                	addi	a0,sp,116
   14962:	00006097          	auipc	ra,0x6
   14966:	584080e7          	jalr	1412(ra) # 1aee6 <_ZN9allow_pin12full_dynamic17unshare_if_shared17h3494b15e905518bcE>
   1496a:	00198513          	addi	a0,s3,1
   1496e:	04a00613          	li	a2,74
   14972:	85ca                	mv	a1,s2
   14974:	00006097          	auipc	ra,0x6
   14978:	5fe080e7          	jalr	1534(ra) # 1af72 <memcpy>
   1497c:	4501                	li	a0,0
   1497e:	b765                	j	14926 <_ZN20complex_full_dynamic3app17ha654b96a764fa51dE+0xa0>

00014980 <_ZN20complex_full_dynamic3app17ha66ed765ebfcab31E>:
   14980:	7131                	addi	sp,sp,-192
   14982:	df06                	sw	ra,188(sp)
   14984:	dd22                	sw	s0,184(sp)
   14986:	db26                	sw	s1,180(sp)
   14988:	d94a                	sw	s2,176(sp)
   1498a:	d74e                	sw	s3,172(sp)
   1498c:	89aa                	mv	s3,a0
   1498e:	4409                	li	s0,2
   14990:	00810823          	sb	s0,16(sp)
   14994:	0844                	addi	s1,sp,20
   14996:	05000613          	li	a2,80
   1499a:	8526                	mv	a0,s1
   1499c:	00006097          	auipc	ra,0x6
   149a0:	5d6080e7          	jalr	1494(ra) # 1af72 <memcpy>
   149a4:	07010913          	addi	s2,sp,112
   149a8:	03c00613          	li	a2,60
   149ac:	854a                	mv	a0,s2
   149ae:	4581                	li	a1,0
   149b0:	00006097          	auipc	ra,0x6
   149b4:	556080e7          	jalr	1366(ra) # 1af06 <memset>
   149b8:	8626                	mv	a2,s1
   149ba:	06810623          	sb	s0,108(sp)
   149be:	6505                	lui	a0,0x1
   149c0:	448d                	li	s1,3
   149c2:	4811                	li	a6,4
   149c4:	458d                	li	a1,3
   149c6:	d7a50793          	addi	a5,a0,-646 # d7a <.Lline_table_start1+0xb4f>
   149ca:	05000693          	li	a3,80
   149ce:	4711                	li	a4,4
   149d0:	853e                	mv	a0,a5
   149d2:	00000073          	ecall
   149d6:	04850363          	beq	a0,s0,14a1c <_ZN20complex_full_dynamic3app17ha66ed765ebfcab31E+0x9c>
   149da:	853e                	mv	a0,a5
   149dc:	864a                	mv	a2,s2
   149de:	c43e                	sw	a5,8(sp)
   149e0:	c626                	sw	s1,12(sp)
   149e2:	01010823          	sb	a6,16(sp)
   149e6:	44a5                	li	s1,9
   149e8:	45a5                	li	a1,9
   149ea:	03c00693          	li	a3,60
   149ee:	470d                	li	a4,3
   149f0:	00000073          	ecall
   149f4:	02850463          	beq	a0,s0,14a1c <_ZN20complex_full_dynamic3app17ha66ed765ebfcab31E+0x9c>
   149f8:	450d                	li	a0,3
   149fa:	6685                	lui	a3,0x1
   149fc:	458d                	li	a1,3
   149fe:	4625                	li	a2,9
   14a00:	d2be                	sw	a5,100(sp)
   14a02:	d4a6                	sw	s1,104(sp)
   14a04:	06a10623          	sb	a0,108(sp)
   14a08:	d7a68513          	addi	a0,a3,-646 # d7a <.Lline_table_start1+0xb4f>
   14a0c:	4709                	li	a4,2
   14a0e:	07f00793          	li	a5,127
   14a12:	4681                	li	a3,0
   14a14:	00000073          	ecall
   14a18:	02a7e863          	bltu	a5,a0,14a48 <_ZN20complex_full_dynamic3app17ha66ed765ebfcab31E+0xc8>
   14a1c:	00b9a223          	sw	a1,4(s3)
   14a20:	4505                	li	a0,1
   14a22:	00a98023          	sb	a0,0(s3)
   14a26:	10c8                	addi	a0,sp,100
   14a28:	00006097          	auipc	ra,0x6
   14a2c:	4be080e7          	jalr	1214(ra) # 1aee6 <_ZN9allow_pin12full_dynamic17unshare_if_shared17h3494b15e905518bcE>
   14a30:	0028                	addi	a0,sp,8
   14a32:	00006097          	auipc	ra,0x6
   14a36:	4b4080e7          	jalr	1204(ra) # 1aee6 <_ZN9allow_pin12full_dynamic17unshare_if_shared17h3494b15e905518bcE>
   14a3a:	50fa                	lw	ra,188(sp)
   14a3c:	546a                	lw	s0,184(sp)
   14a3e:	54da                	lw	s1,180(sp)
   14a40:	594a                	lw	s2,176(sp)
   14a42:	59ba                	lw	s3,172(sp)
   14a44:	6129                	addi	sp,sp,192
   14a46:	8082                	ret
   14a48:	0028                	addi	a0,sp,8
   14a4a:	00006097          	auipc	ra,0x6
   14a4e:	49c080e7          	jalr	1180(ra) # 1aee6 <_ZN9allow_pin12full_dynamic17unshare_if_shared17h3494b15e905518bcE>
   14a52:	10c8                	addi	a0,sp,100
   14a54:	00006097          	auipc	ra,0x6
   14a58:	492080e7          	jalr	1170(ra) # 1aee6 <_ZN9allow_pin12full_dynamic17unshare_if_shared17h3494b15e905518bcE>
   14a5c:	10c8                	addi	a0,sp,100
   14a5e:	00006097          	auipc	ra,0x6
   14a62:	488080e7          	jalr	1160(ra) # 1aee6 <_ZN9allow_pin12full_dynamic17unshare_if_shared17h3494b15e905518bcE>
   14a66:	00198513          	addi	a0,s3,1
   14a6a:	03c00613          	li	a2,60
   14a6e:	85ca                	mv	a1,s2
   14a70:	00006097          	auipc	ra,0x6
   14a74:	502080e7          	jalr	1282(ra) # 1af72 <memcpy>
   14a78:	4501                	li	a0,0
   14a7a:	b765                	j	14a22 <_ZN20complex_full_dynamic3app17ha66ed765ebfcab31E+0xa2>

00014a7c <_ZN20complex_full_dynamic3app17hae927e1beab91e40E>:
   14a7c:	7171                	addi	sp,sp,-176
   14a7e:	d706                	sw	ra,172(sp)
   14a80:	d522                	sw	s0,168(sp)
   14a82:	d326                	sw	s1,164(sp)
   14a84:	d14a                	sw	s2,160(sp)
   14a86:	cf4e                	sw	s3,156(sp)
   14a88:	89aa                	mv	s3,a0
   14a8a:	4409                	li	s0,2
   14a8c:	00810823          	sb	s0,16(sp)
   14a90:	0844                	addi	s1,sp,20
   14a92:	03100613          	li	a2,49
   14a96:	8526                	mv	a0,s1
   14a98:	00006097          	auipc	ra,0x6
   14a9c:	4da080e7          	jalr	1242(ra) # 1af72 <memcpy>
   14aa0:	05410913          	addi	s2,sp,84
   14aa4:	04800613          	li	a2,72
   14aa8:	854a                	mv	a0,s2
   14aaa:	4581                	li	a1,0
   14aac:	00006097          	auipc	ra,0x6
   14ab0:	45a080e7          	jalr	1114(ra) # 1af06 <memset>
   14ab4:	8626                	mv	a2,s1
   14ab6:	04810823          	sb	s0,80(sp)
   14aba:	6509                	lui	a0,0x2
   14abc:	4491                	li	s1,4
   14abe:	4591                	li	a1,4
   14ac0:	80e50793          	addi	a5,a0,-2034 # 180e <.Lline_table_start1+0x15e3>
   14ac4:	03100693          	li	a3,49
   14ac8:	4711                	li	a4,4
   14aca:	853e                	mv	a0,a5
   14acc:	00000073          	ecall
   14ad0:	04850263          	beq	a0,s0,14b14 <_ZN20complex_full_dynamic3app17hae927e1beab91e40E+0x98>
   14ad4:	853e                	mv	a0,a5
   14ad6:	864a                	mv	a2,s2
   14ad8:	c43e                	sw	a5,8(sp)
   14ada:	c626                	sw	s1,12(sp)
   14adc:	00910823          	sb	s1,16(sp)
   14ae0:	448d                	li	s1,3
   14ae2:	458d                	li	a1,3
   14ae4:	04800693          	li	a3,72
   14ae8:	470d                	li	a4,3
   14aea:	00000073          	ecall
   14aee:	02850363          	beq	a0,s0,14b14 <_ZN20complex_full_dynamic3app17hae927e1beab91e40E+0x98>
   14af2:	c4be                	sw	a5,72(sp)
   14af4:	c6a6                	sw	s1,76(sp)
   14af6:	04910823          	sb	s1,80(sp)
   14afa:	6509                	lui	a0,0x2
   14afc:	4591                	li	a1,4
   14afe:	460d                	li	a2,3
   14b00:	80e50513          	addi	a0,a0,-2034 # 180e <.Lline_table_start1+0x15e3>
   14b04:	4709                	li	a4,2
   14b06:	07f00793          	li	a5,127
   14b0a:	4681                	li	a3,0
   14b0c:	00000073          	ecall
   14b10:	02a7e863          	bltu	a5,a0,14b40 <_ZN20complex_full_dynamic3app17hae927e1beab91e40E+0xc4>
   14b14:	00b9a223          	sw	a1,4(s3)
   14b18:	4505                	li	a0,1
   14b1a:	00a98023          	sb	a0,0(s3)
   14b1e:	00a8                	addi	a0,sp,72
   14b20:	00006097          	auipc	ra,0x6
   14b24:	3c6080e7          	jalr	966(ra) # 1aee6 <_ZN9allow_pin12full_dynamic17unshare_if_shared17h3494b15e905518bcE>
   14b28:	0028                	addi	a0,sp,8
   14b2a:	00006097          	auipc	ra,0x6
   14b2e:	3bc080e7          	jalr	956(ra) # 1aee6 <_ZN9allow_pin12full_dynamic17unshare_if_shared17h3494b15e905518bcE>
   14b32:	50ba                	lw	ra,172(sp)
   14b34:	542a                	lw	s0,168(sp)
   14b36:	549a                	lw	s1,164(sp)
   14b38:	590a                	lw	s2,160(sp)
   14b3a:	49fa                	lw	s3,156(sp)
   14b3c:	614d                	addi	sp,sp,176
   14b3e:	8082                	ret
   14b40:	0028                	addi	a0,sp,8
   14b42:	00006097          	auipc	ra,0x6
   14b46:	3a4080e7          	jalr	932(ra) # 1aee6 <_ZN9allow_pin12full_dynamic17unshare_if_shared17h3494b15e905518bcE>
   14b4a:	00a8                	addi	a0,sp,72
   14b4c:	00006097          	auipc	ra,0x6
   14b50:	39a080e7          	jalr	922(ra) # 1aee6 <_ZN9allow_pin12full_dynamic17unshare_if_shared17h3494b15e905518bcE>
   14b54:	00a8                	addi	a0,sp,72
   14b56:	00006097          	auipc	ra,0x6
   14b5a:	390080e7          	jalr	912(ra) # 1aee6 <_ZN9allow_pin12full_dynamic17unshare_if_shared17h3494b15e905518bcE>
   14b5e:	00198513          	addi	a0,s3,1
   14b62:	04800613          	li	a2,72
   14b66:	85ca                	mv	a1,s2
   14b68:	00006097          	auipc	ra,0x6
   14b6c:	40a080e7          	jalr	1034(ra) # 1af72 <memcpy>
   14b70:	4501                	li	a0,0
   14b72:	b765                	j	14b1a <_ZN20complex_full_dynamic3app17hae927e1beab91e40E+0x9e>

00014b74 <_ZN20complex_full_dynamic3app17hb1b132ddf935d753E>:
   14b74:	7131                	addi	sp,sp,-192
   14b76:	df06                	sw	ra,188(sp)
   14b78:	dd22                	sw	s0,184(sp)
   14b7a:	db26                	sw	s1,180(sp)
   14b7c:	d94a                	sw	s2,176(sp)
   14b7e:	d74e                	sw	s3,172(sp)
   14b80:	89aa                	mv	s3,a0
   14b82:	4409                	li	s0,2
   14b84:	00810823          	sb	s0,16(sp)
   14b88:	0844                	addi	s1,sp,20
   14b8a:	05500613          	li	a2,85
   14b8e:	8526                	mv	a0,s1
   14b90:	00006097          	auipc	ra,0x6
   14b94:	3e2080e7          	jalr	994(ra) # 1af72 <memcpy>
   14b98:	07810913          	addi	s2,sp,120
   14b9c:	03200613          	li	a2,50
   14ba0:	854a                	mv	a0,s2
   14ba2:	4581                	li	a1,0
   14ba4:	00006097          	auipc	ra,0x6
   14ba8:	362080e7          	jalr	866(ra) # 1af06 <memset>
   14bac:	8626                	mv	a2,s1
   14bae:	06810a23          	sb	s0,116(sp)
   14bb2:	6509                	lui	a0,0x2
   14bb4:	44a1                	li	s1,8
   14bb6:	4811                	li	a6,4
   14bb8:	45a1                	li	a1,8
   14bba:	09550793          	addi	a5,a0,149 # 2095 <.Lline_table_start1+0x1e6a>
   14bbe:	05500693          	li	a3,85
   14bc2:	4711                	li	a4,4
   14bc4:	853e                	mv	a0,a5
   14bc6:	00000073          	ecall
   14bca:	04850363          	beq	a0,s0,14c10 <_ZN20complex_full_dynamic3app17hb1b132ddf935d753E+0x9c>
   14bce:	853e                	mv	a0,a5
   14bd0:	864a                	mv	a2,s2
   14bd2:	c43e                	sw	a5,8(sp)
   14bd4:	c626                	sw	s1,12(sp)
   14bd6:	01010823          	sb	a6,16(sp)
   14bda:	448d                	li	s1,3
   14bdc:	45a1                	li	a1,8
   14bde:	03200693          	li	a3,50
   14be2:	470d                	li	a4,3
   14be4:	00000073          	ecall
   14be8:	02850463          	beq	a0,s0,14c10 <_ZN20complex_full_dynamic3app17hb1b132ddf935d753E+0x9c>
   14bec:	4521                	li	a0,8
   14bee:	6689                	lui	a3,0x2
   14bf0:	45a1                	li	a1,8
   14bf2:	4621                	li	a2,8
   14bf4:	d6be                	sw	a5,108(sp)
   14bf6:	d8aa                	sw	a0,112(sp)
   14bf8:	06910a23          	sb	s1,116(sp)
   14bfc:	09568513          	addi	a0,a3,149 # 2095 <.Lline_table_start1+0x1e6a>
   14c00:	4709                	li	a4,2
   14c02:	07f00793          	li	a5,127
   14c06:	4681                	li	a3,0
   14c08:	00000073          	ecall
   14c0c:	02a7e863          	bltu	a5,a0,14c3c <_ZN20complex_full_dynamic3app17hb1b132ddf935d753E+0xc8>
   14c10:	00b9a223          	sw	a1,4(s3)
   14c14:	4505                	li	a0,1
   14c16:	00a98023          	sb	a0,0(s3)
   14c1a:	10e8                	addi	a0,sp,108
   14c1c:	00006097          	auipc	ra,0x6
   14c20:	2ca080e7          	jalr	714(ra) # 1aee6 <_ZN9allow_pin12full_dynamic17unshare_if_shared17h3494b15e905518bcE>
   14c24:	0028                	addi	a0,sp,8
   14c26:	00006097          	auipc	ra,0x6
   14c2a:	2c0080e7          	jalr	704(ra) # 1aee6 <_ZN9allow_pin12full_dynamic17unshare_if_shared17h3494b15e905518bcE>
   14c2e:	50fa                	lw	ra,188(sp)
   14c30:	546a                	lw	s0,184(sp)
   14c32:	54da                	lw	s1,180(sp)
   14c34:	594a                	lw	s2,176(sp)
   14c36:	59ba                	lw	s3,172(sp)
   14c38:	6129                	addi	sp,sp,192
   14c3a:	8082                	ret
   14c3c:	0028                	addi	a0,sp,8
   14c3e:	00006097          	auipc	ra,0x6
   14c42:	2a8080e7          	jalr	680(ra) # 1aee6 <_ZN9allow_pin12full_dynamic17unshare_if_shared17h3494b15e905518bcE>
   14c46:	10e8                	addi	a0,sp,108
   14c48:	00006097          	auipc	ra,0x6
   14c4c:	29e080e7          	jalr	670(ra) # 1aee6 <_ZN9allow_pin12full_dynamic17unshare_if_shared17h3494b15e905518bcE>
   14c50:	10e8                	addi	a0,sp,108
   14c52:	00006097          	auipc	ra,0x6
   14c56:	294080e7          	jalr	660(ra) # 1aee6 <_ZN9allow_pin12full_dynamic17unshare_if_shared17h3494b15e905518bcE>
   14c5a:	00198513          	addi	a0,s3,1
   14c5e:	03200613          	li	a2,50
   14c62:	85ca                	mv	a1,s2
   14c64:	00006097          	auipc	ra,0x6
   14c68:	30e080e7          	jalr	782(ra) # 1af72 <memcpy>
   14c6c:	4501                	li	a0,0
   14c6e:	b765                	j	14c16 <_ZN20complex_full_dynamic3app17hb1b132ddf935d753E+0xa2>

00014c70 <_ZN20complex_full_dynamic3app17hb39bd325e65a7745E>:
   14c70:	7175                	addi	sp,sp,-144
   14c72:	c706                	sw	ra,140(sp)
   14c74:	c522                	sw	s0,136(sp)
   14c76:	c326                	sw	s1,132(sp)
   14c78:	c14a                	sw	s2,128(sp)
   14c7a:	dece                	sw	s3,124(sp)
   14c7c:	89aa                	mv	s3,a0
   14c7e:	4409                	li	s0,2
   14c80:	00810623          	sb	s0,12(sp)
   14c84:	0804                	addi	s1,sp,16
   14c86:	466d                	li	a2,27
   14c88:	8526                	mv	a0,s1
   14c8a:	00006097          	auipc	ra,0x6
   14c8e:	2e8080e7          	jalr	744(ra) # 1af72 <memcpy>
   14c92:	03810913          	addi	s2,sp,56
   14c96:	04100613          	li	a2,65
   14c9a:	854a                	mv	a0,s2
   14c9c:	4581                	li	a1,0
   14c9e:	00006097          	auipc	ra,0x6
   14ca2:	268080e7          	jalr	616(ra) # 1af06 <memset>
   14ca6:	8626                	mv	a2,s1
   14ca8:	02810a23          	sb	s0,52(sp)
   14cac:	14000793          	li	a5,320
   14cb0:	44a1                	li	s1,8
   14cb2:	4811                	li	a6,4
   14cb4:	14000513          	li	a0,320
   14cb8:	45a1                	li	a1,8
   14cba:	46ed                	li	a3,27
   14cbc:	4711                	li	a4,4
   14cbe:	00000073          	ecall
   14cc2:	04850563          	beq	a0,s0,14d0c <_ZN20complex_full_dynamic3app17hb39bd325e65a7745E+0x9c>
   14cc6:	864a                	mv	a2,s2
   14cc8:	c23e                	sw	a5,4(sp)
   14cca:	c426                	sw	s1,8(sp)
   14ccc:	01010623          	sb	a6,12(sp)
   14cd0:	47a5                	li	a5,9
   14cd2:	448d                	li	s1,3
   14cd4:	14000513          	li	a0,320
   14cd8:	45a5                	li	a1,9
   14cda:	04100693          	li	a3,65
   14cde:	470d                	li	a4,3
   14ce0:	00000073          	ecall
   14ce4:	02850463          	beq	a0,s0,14d0c <_ZN20complex_full_dynamic3app17hb39bd325e65a7745E+0x9c>
   14ce8:	14000693          	li	a3,320
   14cec:	14000513          	li	a0,320
   14cf0:	45a1                	li	a1,8
   14cf2:	4625                	li	a2,9
   14cf4:	4709                	li	a4,2
   14cf6:	07f00413          	li	s0,127
   14cfa:	d636                	sw	a3,44(sp)
   14cfc:	d83e                	sw	a5,48(sp)
   14cfe:	02910a23          	sb	s1,52(sp)
   14d02:	4681                	li	a3,0
   14d04:	00000073          	ecall
   14d08:	02a46863          	bltu	s0,a0,14d38 <_ZN20complex_full_dynamic3app17hb39bd325e65a7745E+0xc8>
   14d0c:	00b9a223          	sw	a1,4(s3)
   14d10:	4505                	li	a0,1
   14d12:	00a98023          	sb	a0,0(s3)
   14d16:	1068                	addi	a0,sp,44
   14d18:	00006097          	auipc	ra,0x6
   14d1c:	1ce080e7          	jalr	462(ra) # 1aee6 <_ZN9allow_pin12full_dynamic17unshare_if_shared17h3494b15e905518bcE>
   14d20:	0048                	addi	a0,sp,4
   14d22:	00006097          	auipc	ra,0x6
   14d26:	1c4080e7          	jalr	452(ra) # 1aee6 <_ZN9allow_pin12full_dynamic17unshare_if_shared17h3494b15e905518bcE>
   14d2a:	40ba                	lw	ra,140(sp)
   14d2c:	442a                	lw	s0,136(sp)
   14d2e:	449a                	lw	s1,132(sp)
   14d30:	490a                	lw	s2,128(sp)
   14d32:	59f6                	lw	s3,124(sp)
   14d34:	6149                	addi	sp,sp,144
   14d36:	8082                	ret
   14d38:	0048                	addi	a0,sp,4
   14d3a:	00006097          	auipc	ra,0x6
   14d3e:	1ac080e7          	jalr	428(ra) # 1aee6 <_ZN9allow_pin12full_dynamic17unshare_if_shared17h3494b15e905518bcE>
   14d42:	1068                	addi	a0,sp,44
   14d44:	00006097          	auipc	ra,0x6
   14d48:	1a2080e7          	jalr	418(ra) # 1aee6 <_ZN9allow_pin12full_dynamic17unshare_if_shared17h3494b15e905518bcE>
   14d4c:	1068                	addi	a0,sp,44
   14d4e:	00006097          	auipc	ra,0x6
   14d52:	198080e7          	jalr	408(ra) # 1aee6 <_ZN9allow_pin12full_dynamic17unshare_if_shared17h3494b15e905518bcE>
   14d56:	00198513          	addi	a0,s3,1
   14d5a:	04100613          	li	a2,65
   14d5e:	85ca                	mv	a1,s2
   14d60:	00006097          	auipc	ra,0x6
   14d64:	212080e7          	jalr	530(ra) # 1af72 <memcpy>
   14d68:	4501                	li	a0,0
   14d6a:	b765                	j	14d12 <_ZN20complex_full_dynamic3app17hb39bd325e65a7745E+0xa2>

00014d6c <_ZN20complex_full_dynamic3app17hb4b26aa46c904bd4E>:
   14d6c:	7171                	addi	sp,sp,-176
   14d6e:	d706                	sw	ra,172(sp)
   14d70:	d522                	sw	s0,168(sp)
   14d72:	d326                	sw	s1,164(sp)
   14d74:	d14a                	sw	s2,160(sp)
   14d76:	cf4e                	sw	s3,156(sp)
   14d78:	89aa                	mv	s3,a0
   14d7a:	4409                	li	s0,2
   14d7c:	00810823          	sb	s0,16(sp)
   14d80:	0844                	addi	s1,sp,20
   14d82:	02700613          	li	a2,39
   14d86:	8526                	mv	a0,s1
   14d88:	00006097          	auipc	ra,0x6
   14d8c:	1ea080e7          	jalr	490(ra) # 1af72 <memcpy>
   14d90:	04810913          	addi	s2,sp,72
   14d94:	05100613          	li	a2,81
   14d98:	854a                	mv	a0,s2
   14d9a:	4581                	li	a1,0
   14d9c:	00006097          	auipc	ra,0x6
   14da0:	16a080e7          	jalr	362(ra) # 1af06 <memset>
   14da4:	4581                	li	a1,0
   14da6:	8626                	mv	a2,s1
   14da8:	04810223          	sb	s0,68(sp)
   14dac:	6505                	lui	a0,0x1
   14dae:	4491                	li	s1,4
   14db0:	a3650793          	addi	a5,a0,-1482 # a36 <.Lline_table_start1+0x80b>
   14db4:	02700693          	li	a3,39
   14db8:	4711                	li	a4,4
   14dba:	853e                	mv	a0,a5
   14dbc:	00000073          	ecall
   14dc0:	04850363          	beq	a0,s0,14e06 <_ZN20complex_full_dynamic3app17hb4b26aa46c904bd4E+0x9a>
   14dc4:	853e                	mv	a0,a5
   14dc6:	864a                	mv	a2,s2
   14dc8:	c43e                	sw	a5,8(sp)
   14dca:	c602                	sw	zero,12(sp)
   14dcc:	00910823          	sb	s1,16(sp)
   14dd0:	448d                	li	s1,3
   14dd2:	4591                	li	a1,4
   14dd4:	05100693          	li	a3,81
   14dd8:	470d                	li	a4,3
   14dda:	00000073          	ecall
   14dde:	02850463          	beq	a0,s0,14e06 <_ZN20complex_full_dynamic3app17hb4b26aa46c904bd4E+0x9a>
   14de2:	4511                	li	a0,4
   14de4:	6585                	lui	a1,0x1
   14de6:	4611                	li	a2,4
   14de8:	de3e                	sw	a5,60(sp)
   14dea:	c0aa                	sw	a0,64(sp)
   14dec:	04910223          	sb	s1,68(sp)
   14df0:	a3658513          	addi	a0,a1,-1482 # a36 <.Lline_table_start1+0x80b>
   14df4:	4709                	li	a4,2
   14df6:	07f00793          	li	a5,127
   14dfa:	4581                	li	a1,0
   14dfc:	4681                	li	a3,0
   14dfe:	00000073          	ecall
   14e02:	02a7e863          	bltu	a5,a0,14e32 <_ZN20complex_full_dynamic3app17hb4b26aa46c904bd4E+0xc6>
   14e06:	00b9a223          	sw	a1,4(s3)
   14e0a:	4505                	li	a0,1
   14e0c:	00a98023          	sb	a0,0(s3)
   14e10:	1868                	addi	a0,sp,60
   14e12:	00006097          	auipc	ra,0x6
   14e16:	0d4080e7          	jalr	212(ra) # 1aee6 <_ZN9allow_pin12full_dynamic17unshare_if_shared17h3494b15e905518bcE>
   14e1a:	0028                	addi	a0,sp,8
   14e1c:	00006097          	auipc	ra,0x6
   14e20:	0ca080e7          	jalr	202(ra) # 1aee6 <_ZN9allow_pin12full_dynamic17unshare_if_shared17h3494b15e905518bcE>
   14e24:	50ba                	lw	ra,172(sp)
   14e26:	542a                	lw	s0,168(sp)
   14e28:	549a                	lw	s1,164(sp)
   14e2a:	590a                	lw	s2,160(sp)
   14e2c:	49fa                	lw	s3,156(sp)
   14e2e:	614d                	addi	sp,sp,176
   14e30:	8082                	ret
   14e32:	0028                	addi	a0,sp,8
   14e34:	00006097          	auipc	ra,0x6
   14e38:	0b2080e7          	jalr	178(ra) # 1aee6 <_ZN9allow_pin12full_dynamic17unshare_if_shared17h3494b15e905518bcE>
   14e3c:	1868                	addi	a0,sp,60
   14e3e:	00006097          	auipc	ra,0x6
   14e42:	0a8080e7          	jalr	168(ra) # 1aee6 <_ZN9allow_pin12full_dynamic17unshare_if_shared17h3494b15e905518bcE>
   14e46:	1868                	addi	a0,sp,60
   14e48:	00006097          	auipc	ra,0x6
   14e4c:	09e080e7          	jalr	158(ra) # 1aee6 <_ZN9allow_pin12full_dynamic17unshare_if_shared17h3494b15e905518bcE>
   14e50:	00198513          	addi	a0,s3,1
   14e54:	05100613          	li	a2,81
   14e58:	85ca                	mv	a1,s2
   14e5a:	00006097          	auipc	ra,0x6
   14e5e:	118080e7          	jalr	280(ra) # 1af72 <memcpy>
   14e62:	4501                	li	a0,0
   14e64:	b765                	j	14e0c <_ZN20complex_full_dynamic3app17hb4b26aa46c904bd4E+0xa0>

00014e66 <_ZN20complex_full_dynamic3app17hb56ac48de344c6ebE>:
   14e66:	7175                	addi	sp,sp,-144
   14e68:	c706                	sw	ra,140(sp)
   14e6a:	c522                	sw	s0,136(sp)
   14e6c:	c326                	sw	s1,132(sp)
   14e6e:	c14a                	sw	s2,128(sp)
   14e70:	dece                	sw	s3,124(sp)
   14e72:	892a                	mv	s2,a0
   14e74:	4409                	li	s0,2
   14e76:	00810823          	sb	s0,16(sp)
   14e7a:	0844                	addi	s1,sp,20
   14e7c:	03f00613          	li	a2,63
   14e80:	8526                	mv	a0,s1
   14e82:	00006097          	auipc	ra,0x6
   14e86:	0f0080e7          	jalr	240(ra) # 1af72 <memcpy>
   14e8a:	8626                	mv	a2,s1
   14e8c:	d682                	sw	zero,108(sp)
   14e8e:	d882                	sw	zero,112(sp)
   14e90:	da82                	sw	zero,116(sp)
   14e92:	dc82                	sw	zero,120(sp)
   14e94:	04810e23          	sb	s0,92(sp)
   14e98:	d082                	sw	zero,96(sp)
   14e9a:	d282                	sw	zero,100(sp)
   14e9c:	d482                	sw	zero,104(sp)
   14e9e:	6505                	lui	a0,0x1
   14ea0:	4495                	li	s1,5
   14ea2:	4811                	li	a6,4
   14ea4:	4595                	li	a1,5
   14ea6:	69450793          	addi	a5,a0,1684 # 1694 <.Lline_table_start1+0x1469>
   14eaa:	03f00693          	li	a3,63
   14eae:	4711                	li	a4,4
   14eb0:	853e                	mv	a0,a5
   14eb2:	00000073          	ecall
   14eb6:	04850463          	beq	a0,s0,14efe <_ZN20complex_full_dynamic3app17hb56ac48de344c6ebE+0x98>
   14eba:	853e                	mv	a0,a5
   14ebc:	06010993          	addi	s3,sp,96
   14ec0:	c43e                	sw	a5,8(sp)
   14ec2:	c626                	sw	s1,12(sp)
   14ec4:	01010823          	sb	a6,16(sp)
   14ec8:	44a5                	li	s1,9
   14eca:	480d                	li	a6,3
   14ecc:	45a5                	li	a1,9
   14ece:	46f1                	li	a3,28
   14ed0:	470d                	li	a4,3
   14ed2:	864e                	mv	a2,s3
   14ed4:	00000073          	ecall
   14ed8:	02850363          	beq	a0,s0,14efe <_ZN20complex_full_dynamic3app17hb56ac48de344c6ebE+0x98>
   14edc:	cabe                	sw	a5,84(sp)
   14ede:	cca6                	sw	s1,88(sp)
   14ee0:	05010e23          	sb	a6,92(sp)
   14ee4:	6505                	lui	a0,0x1
   14ee6:	4595                	li	a1,5
   14ee8:	4625                	li	a2,9
   14eea:	69450513          	addi	a0,a0,1684 # 1694 <.Lline_table_start1+0x1469>
   14eee:	4709                	li	a4,2
   14ef0:	07f00793          	li	a5,127
   14ef4:	4681                	li	a3,0
   14ef6:	00000073          	ecall
   14efa:	02a7e863          	bltu	a5,a0,14f2a <_ZN20complex_full_dynamic3app17hb56ac48de344c6ebE+0xc4>
   14efe:	00b92223          	sw	a1,4(s2)
   14f02:	4505                	li	a0,1
   14f04:	00a90023          	sb	a0,0(s2)
   14f08:	08c8                	addi	a0,sp,84
   14f0a:	00006097          	auipc	ra,0x6
   14f0e:	fdc080e7          	jalr	-36(ra) # 1aee6 <_ZN9allow_pin12full_dynamic17unshare_if_shared17h3494b15e905518bcE>
   14f12:	0028                	addi	a0,sp,8
   14f14:	00006097          	auipc	ra,0x6
   14f18:	fd2080e7          	jalr	-46(ra) # 1aee6 <_ZN9allow_pin12full_dynamic17unshare_if_shared17h3494b15e905518bcE>
   14f1c:	40ba                	lw	ra,140(sp)
   14f1e:	442a                	lw	s0,136(sp)
   14f20:	449a                	lw	s1,132(sp)
   14f22:	490a                	lw	s2,128(sp)
   14f24:	59f6                	lw	s3,124(sp)
   14f26:	6149                	addi	sp,sp,144
   14f28:	8082                	ret
   14f2a:	0028                	addi	a0,sp,8
   14f2c:	00006097          	auipc	ra,0x6
   14f30:	fba080e7          	jalr	-70(ra) # 1aee6 <_ZN9allow_pin12full_dynamic17unshare_if_shared17h3494b15e905518bcE>
   14f34:	08c8                	addi	a0,sp,84
   14f36:	00006097          	auipc	ra,0x6
   14f3a:	fb0080e7          	jalr	-80(ra) # 1aee6 <_ZN9allow_pin12full_dynamic17unshare_if_shared17h3494b15e905518bcE>
   14f3e:	08c8                	addi	a0,sp,84
   14f40:	00006097          	auipc	ra,0x6
   14f44:	fa6080e7          	jalr	-90(ra) # 1aee6 <_ZN9allow_pin12full_dynamic17unshare_if_shared17h3494b15e905518bcE>
   14f48:	00190513          	addi	a0,s2,1
   14f4c:	4671                	li	a2,28
   14f4e:	85ce                	mv	a1,s3
   14f50:	00006097          	auipc	ra,0x6
   14f54:	022080e7          	jalr	34(ra) # 1af72 <memcpy>
   14f58:	4501                	li	a0,0
   14f5a:	b76d                	j	14f04 <_ZN20complex_full_dynamic3app17hb56ac48de344c6ebE+0x9e>

00014f5c <_ZN20complex_full_dynamic3app17hb59946c0ede12700E>:
   14f5c:	7159                	addi	sp,sp,-112
   14f5e:	d686                	sw	ra,108(sp)
   14f60:	d4a2                	sw	s0,104(sp)
   14f62:	d2a6                	sw	s1,100(sp)
   14f64:	d0ca                	sw	s2,96(sp)
   14f66:	cece                	sw	s3,92(sp)
   14f68:	89aa                	mv	s3,a0
   14f6a:	4409                	li	s0,2
   14f6c:	00810623          	sb	s0,12(sp)
   14f70:	0804                	addi	s1,sp,16
   14f72:	4651                	li	a2,20
   14f74:	8526                	mv	a0,s1
   14f76:	00006097          	auipc	ra,0x6
   14f7a:	ffc080e7          	jalr	-4(ra) # 1af72 <memcpy>
   14f7e:	03010913          	addi	s2,sp,48
   14f82:	02b00613          	li	a2,43
   14f86:	854a                	mv	a0,s2
   14f88:	4581                	li	a1,0
   14f8a:	00006097          	auipc	ra,0x6
   14f8e:	f7c080e7          	jalr	-132(ra) # 1af06 <memset>
   14f92:	8626                	mv	a2,s1
   14f94:	02810623          	sb	s0,44(sp)
   14f98:	6509                	lui	a0,0x2
   14f9a:	44a1                	li	s1,8
   14f9c:	4811                	li	a6,4
   14f9e:	45a1                	li	a1,8
   14fa0:	39f50793          	addi	a5,a0,927 # 239f <.Lline_table_start1+0x2174>
   14fa4:	46d1                	li	a3,20
   14fa6:	4711                	li	a4,4
   14fa8:	853e                	mv	a0,a5
   14faa:	00000073          	ecall
   14fae:	04850363          	beq	a0,s0,14ff4 <_ZN20complex_full_dynamic3app17hb59946c0ede12700E+0x98>
   14fb2:	853e                	mv	a0,a5
   14fb4:	864a                	mv	a2,s2
   14fb6:	c23e                	sw	a5,4(sp)
   14fb8:	c426                	sw	s1,8(sp)
   14fba:	01010623          	sb	a6,12(sp)
   14fbe:	448d                	li	s1,3
   14fc0:	4591                	li	a1,4
   14fc2:	02b00693          	li	a3,43
   14fc6:	470d                	li	a4,3
   14fc8:	00000073          	ecall
   14fcc:	02850463          	beq	a0,s0,14ff4 <_ZN20complex_full_dynamic3app17hb59946c0ede12700E+0x98>
   14fd0:	4511                	li	a0,4
   14fd2:	6689                	lui	a3,0x2
   14fd4:	45a1                	li	a1,8
   14fd6:	4611                	li	a2,4
   14fd8:	d23e                	sw	a5,36(sp)
   14fda:	d42a                	sw	a0,40(sp)
   14fdc:	02910623          	sb	s1,44(sp)
   14fe0:	39f68513          	addi	a0,a3,927 # 239f <.Lline_table_start1+0x2174>
   14fe4:	4709                	li	a4,2
   14fe6:	07f00793          	li	a5,127
   14fea:	4681                	li	a3,0
   14fec:	00000073          	ecall
   14ff0:	02a7e863          	bltu	a5,a0,15020 <_ZN20complex_full_dynamic3app17hb59946c0ede12700E+0xc4>
   14ff4:	00b9a223          	sw	a1,4(s3)
   14ff8:	4505                	li	a0,1
   14ffa:	00a98023          	sb	a0,0(s3)
   14ffe:	1048                	addi	a0,sp,36
   15000:	00006097          	auipc	ra,0x6
   15004:	ee6080e7          	jalr	-282(ra) # 1aee6 <_ZN9allow_pin12full_dynamic17unshare_if_shared17h3494b15e905518bcE>
   15008:	0048                	addi	a0,sp,4
   1500a:	00006097          	auipc	ra,0x6
   1500e:	edc080e7          	jalr	-292(ra) # 1aee6 <_ZN9allow_pin12full_dynamic17unshare_if_shared17h3494b15e905518bcE>
   15012:	50b6                	lw	ra,108(sp)
   15014:	5426                	lw	s0,104(sp)
   15016:	5496                	lw	s1,100(sp)
   15018:	5906                	lw	s2,96(sp)
   1501a:	49f6                	lw	s3,92(sp)
   1501c:	6165                	addi	sp,sp,112
   1501e:	8082                	ret
   15020:	0048                	addi	a0,sp,4
   15022:	00006097          	auipc	ra,0x6
   15026:	ec4080e7          	jalr	-316(ra) # 1aee6 <_ZN9allow_pin12full_dynamic17unshare_if_shared17h3494b15e905518bcE>
   1502a:	1048                	addi	a0,sp,36
   1502c:	00006097          	auipc	ra,0x6
   15030:	eba080e7          	jalr	-326(ra) # 1aee6 <_ZN9allow_pin12full_dynamic17unshare_if_shared17h3494b15e905518bcE>
   15034:	1048                	addi	a0,sp,36
   15036:	00006097          	auipc	ra,0x6
   1503a:	eb0080e7          	jalr	-336(ra) # 1aee6 <_ZN9allow_pin12full_dynamic17unshare_if_shared17h3494b15e905518bcE>
   1503e:	00198513          	addi	a0,s3,1
   15042:	02b00613          	li	a2,43
   15046:	85ca                	mv	a1,s2
   15048:	00006097          	auipc	ra,0x6
   1504c:	f2a080e7          	jalr	-214(ra) # 1af72 <memcpy>
   15050:	4501                	li	a0,0
   15052:	b765                	j	14ffa <_ZN20complex_full_dynamic3app17hb59946c0ede12700E+0x9e>

00015054 <_ZN20complex_full_dynamic3app17hb62cb6e2d579fd71E>:
   15054:	7135                	addi	sp,sp,-160
   15056:	cf06                	sw	ra,156(sp)
   15058:	cd22                	sw	s0,152(sp)
   1505a:	cb26                	sw	s1,148(sp)
   1505c:	c94a                	sw	s2,144(sp)
   1505e:	c74e                	sw	s3,140(sp)
   15060:	89aa                	mv	s3,a0
   15062:	4409                	li	s0,2
   15064:	00810a23          	sb	s0,20(sp)
   15068:	0824                	addi	s1,sp,24
   1506a:	02e00613          	li	a2,46
   1506e:	8526                	mv	a0,s1
   15070:	00006097          	auipc	ra,0x6
   15074:	f02080e7          	jalr	-254(ra) # 1af72 <memcpy>
   15078:	05410913          	addi	s2,sp,84
   1507c:	03800613          	li	a2,56
   15080:	854a                	mv	a0,s2
   15082:	4581                	li	a1,0
   15084:	00006097          	auipc	ra,0x6
   15088:	e82080e7          	jalr	-382(ra) # 1af06 <memset>
   1508c:	8626                	mv	a2,s1
   1508e:	04810823          	sb	s0,80(sp)
   15092:	6505                	lui	a0,0x1
   15094:	44a5                	li	s1,9
   15096:	4811                	li	a6,4
   15098:	45a5                	li	a1,9
   1509a:	a9d50793          	addi	a5,a0,-1379 # a9d <.Lline_table_start1+0x872>
   1509e:	02e00693          	li	a3,46
   150a2:	4711                	li	a4,4
   150a4:	853e                	mv	a0,a5
   150a6:	00000073          	ecall
   150aa:	04850363          	beq	a0,s0,150f0 <_ZN20complex_full_dynamic3app17hb62cb6e2d579fd71E+0x9c>
   150ae:	853e                	mv	a0,a5
   150b0:	864a                	mv	a2,s2
   150b2:	c63e                	sw	a5,12(sp)
   150b4:	c826                	sw	s1,16(sp)
   150b6:	01010a23          	sb	a6,20(sp)
   150ba:	448d                	li	s1,3
   150bc:	45a5                	li	a1,9
   150be:	03800693          	li	a3,56
   150c2:	470d                	li	a4,3
   150c4:	00000073          	ecall
   150c8:	02850463          	beq	a0,s0,150f0 <_ZN20complex_full_dynamic3app17hb62cb6e2d579fd71E+0x9c>
   150cc:	4525                	li	a0,9
   150ce:	6685                	lui	a3,0x1
   150d0:	45a5                	li	a1,9
   150d2:	4625                	li	a2,9
   150d4:	c4be                	sw	a5,72(sp)
   150d6:	c6aa                	sw	a0,76(sp)
   150d8:	04910823          	sb	s1,80(sp)
   150dc:	a9d68513          	addi	a0,a3,-1379 # a9d <.Lline_table_start1+0x872>
   150e0:	4709                	li	a4,2
   150e2:	07f00793          	li	a5,127
   150e6:	4681                	li	a3,0
   150e8:	00000073          	ecall
   150ec:	02a7e863          	bltu	a5,a0,1511c <_ZN20complex_full_dynamic3app17hb62cb6e2d579fd71E+0xc8>
   150f0:	00b9a223          	sw	a1,4(s3)
   150f4:	4505                	li	a0,1
   150f6:	00a98023          	sb	a0,0(s3)
   150fa:	00a8                	addi	a0,sp,72
   150fc:	00006097          	auipc	ra,0x6
   15100:	dea080e7          	jalr	-534(ra) # 1aee6 <_ZN9allow_pin12full_dynamic17unshare_if_shared17h3494b15e905518bcE>
   15104:	0068                	addi	a0,sp,12
   15106:	00006097          	auipc	ra,0x6
   1510a:	de0080e7          	jalr	-544(ra) # 1aee6 <_ZN9allow_pin12full_dynamic17unshare_if_shared17h3494b15e905518bcE>
   1510e:	40fa                	lw	ra,156(sp)
   15110:	446a                	lw	s0,152(sp)
   15112:	44da                	lw	s1,148(sp)
   15114:	494a                	lw	s2,144(sp)
   15116:	49ba                	lw	s3,140(sp)
   15118:	610d                	addi	sp,sp,160
   1511a:	8082                	ret
   1511c:	0068                	addi	a0,sp,12
   1511e:	00006097          	auipc	ra,0x6
   15122:	dc8080e7          	jalr	-568(ra) # 1aee6 <_ZN9allow_pin12full_dynamic17unshare_if_shared17h3494b15e905518bcE>
   15126:	00a8                	addi	a0,sp,72
   15128:	00006097          	auipc	ra,0x6
   1512c:	dbe080e7          	jalr	-578(ra) # 1aee6 <_ZN9allow_pin12full_dynamic17unshare_if_shared17h3494b15e905518bcE>
   15130:	00a8                	addi	a0,sp,72
   15132:	00006097          	auipc	ra,0x6
   15136:	db4080e7          	jalr	-588(ra) # 1aee6 <_ZN9allow_pin12full_dynamic17unshare_if_shared17h3494b15e905518bcE>
   1513a:	00198513          	addi	a0,s3,1
   1513e:	03800613          	li	a2,56
   15142:	85ca                	mv	a1,s2
   15144:	00006097          	auipc	ra,0x6
   15148:	e2e080e7          	jalr	-466(ra) # 1af72 <memcpy>
   1514c:	4501                	li	a0,0
   1514e:	b765                	j	150f6 <_ZN20complex_full_dynamic3app17hb62cb6e2d579fd71E+0xa2>

00015150 <_ZN20complex_full_dynamic3app17hc048a32d1114eb8cE>:
   15150:	7171                	addi	sp,sp,-176
   15152:	d706                	sw	ra,172(sp)
   15154:	d522                	sw	s0,168(sp)
   15156:	d326                	sw	s1,164(sp)
   15158:	d14a                	sw	s2,160(sp)
   1515a:	cf4e                	sw	s3,156(sp)
   1515c:	89aa                	mv	s3,a0
   1515e:	4409                	li	s0,2
   15160:	00810a23          	sb	s0,20(sp)
   15164:	0824                	addi	s1,sp,24
   15166:	02700613          	li	a2,39
   1516a:	8526                	mv	a0,s1
   1516c:	00006097          	auipc	ra,0x6
   15170:	e06080e7          	jalr	-506(ra) # 1af72 <memcpy>
   15174:	04c10913          	addi	s2,sp,76
   15178:	04f00613          	li	a2,79
   1517c:	854a                	mv	a0,s2
   1517e:	4581                	li	a1,0
   15180:	00006097          	auipc	ra,0x6
   15184:	d86080e7          	jalr	-634(ra) # 1af06 <memset>
   15188:	8626                	mv	a2,s1
   1518a:	04810423          	sb	s0,72(sp)
   1518e:	6505                	lui	a0,0x1
   15190:	44a5                	li	s1,9
   15192:	4811                	li	a6,4
   15194:	45a5                	li	a1,9
   15196:	b4c50793          	addi	a5,a0,-1204 # b4c <.Lline_table_start1+0x921>
   1519a:	02700693          	li	a3,39
   1519e:	4711                	li	a4,4
   151a0:	853e                	mv	a0,a5
   151a2:	00000073          	ecall
   151a6:	04850263          	beq	a0,s0,151ea <_ZN20complex_full_dynamic3app17hc048a32d1114eb8cE+0x9a>
   151aa:	853e                	mv	a0,a5
   151ac:	4581                	li	a1,0
   151ae:	864a                	mv	a2,s2
   151b0:	c63e                	sw	a5,12(sp)
   151b2:	c826                	sw	s1,16(sp)
   151b4:	01010a23          	sb	a6,20(sp)
   151b8:	448d                	li	s1,3
   151ba:	04f00693          	li	a3,79
   151be:	470d                	li	a4,3
   151c0:	00000073          	ecall
   151c4:	02850363          	beq	a0,s0,151ea <_ZN20complex_full_dynamic3app17hc048a32d1114eb8cE+0x9a>
   151c8:	c0be                	sw	a5,64(sp)
   151ca:	c282                	sw	zero,68(sp)
   151cc:	04910423          	sb	s1,72(sp)
   151d0:	6505                	lui	a0,0x1
   151d2:	45a5                	li	a1,9
   151d4:	b4c50513          	addi	a0,a0,-1204 # b4c <.Lline_table_start1+0x921>
   151d8:	4709                	li	a4,2
   151da:	07f00793          	li	a5,127
   151de:	4601                	li	a2,0
   151e0:	4681                	li	a3,0
   151e2:	00000073          	ecall
   151e6:	02a7e863          	bltu	a5,a0,15216 <_ZN20complex_full_dynamic3app17hc048a32d1114eb8cE+0xc6>
   151ea:	00b9a223          	sw	a1,4(s3)
   151ee:	4505                	li	a0,1
   151f0:	00a98023          	sb	a0,0(s3)
   151f4:	0088                	addi	a0,sp,64
   151f6:	00006097          	auipc	ra,0x6
   151fa:	cf0080e7          	jalr	-784(ra) # 1aee6 <_ZN9allow_pin12full_dynamic17unshare_if_shared17h3494b15e905518bcE>
   151fe:	0068                	addi	a0,sp,12
   15200:	00006097          	auipc	ra,0x6
   15204:	ce6080e7          	jalr	-794(ra) # 1aee6 <_ZN9allow_pin12full_dynamic17unshare_if_shared17h3494b15e905518bcE>
   15208:	50ba                	lw	ra,172(sp)
   1520a:	542a                	lw	s0,168(sp)
   1520c:	549a                	lw	s1,164(sp)
   1520e:	590a                	lw	s2,160(sp)
   15210:	49fa                	lw	s3,156(sp)
   15212:	614d                	addi	sp,sp,176
   15214:	8082                	ret
   15216:	0068                	addi	a0,sp,12
   15218:	00006097          	auipc	ra,0x6
   1521c:	cce080e7          	jalr	-818(ra) # 1aee6 <_ZN9allow_pin12full_dynamic17unshare_if_shared17h3494b15e905518bcE>
   15220:	0088                	addi	a0,sp,64
   15222:	00006097          	auipc	ra,0x6
   15226:	cc4080e7          	jalr	-828(ra) # 1aee6 <_ZN9allow_pin12full_dynamic17unshare_if_shared17h3494b15e905518bcE>
   1522a:	0088                	addi	a0,sp,64
   1522c:	00006097          	auipc	ra,0x6
   15230:	cba080e7          	jalr	-838(ra) # 1aee6 <_ZN9allow_pin12full_dynamic17unshare_if_shared17h3494b15e905518bcE>
   15234:	00198513          	addi	a0,s3,1
   15238:	04f00613          	li	a2,79
   1523c:	85ca                	mv	a1,s2
   1523e:	00006097          	auipc	ra,0x6
   15242:	d34080e7          	jalr	-716(ra) # 1af72 <memcpy>
   15246:	4501                	li	a0,0
   15248:	b765                	j	151f0 <_ZN20complex_full_dynamic3app17hc048a32d1114eb8cE+0xa0>

0001524a <_ZN20complex_full_dynamic3app17hc5b2e19a0cfa248eE>:
   1524a:	7131                	addi	sp,sp,-192
   1524c:	df06                	sw	ra,188(sp)
   1524e:	dd22                	sw	s0,184(sp)
   15250:	db26                	sw	s1,180(sp)
   15252:	d94a                	sw	s2,176(sp)
   15254:	d74e                	sw	s3,172(sp)
   15256:	89aa                	mv	s3,a0
   15258:	4409                	li	s0,2
   1525a:	00810623          	sb	s0,12(sp)
   1525e:	0804                	addi	s1,sp,16
   15260:	02a00613          	li	a2,42
   15264:	8526                	mv	a0,s1
   15266:	00006097          	auipc	ra,0x6
   1526a:	d0c080e7          	jalr	-756(ra) # 1af72 <memcpy>
   1526e:	04810913          	addi	s2,sp,72
   15272:	06300613          	li	a2,99
   15276:	854a                	mv	a0,s2
   15278:	4581                	li	a1,0
   1527a:	00006097          	auipc	ra,0x6
   1527e:	c8c080e7          	jalr	-884(ra) # 1af06 <memset>
   15282:	8626                	mv	a2,s1
   15284:	04810223          	sb	s0,68(sp)
   15288:	6509                	lui	a0,0x2
   1528a:	4491                	li	s1,4
   1528c:	4591                	li	a1,4
   1528e:	c7c50793          	addi	a5,a0,-900 # 1c7c <.Lline_table_start1+0x1a51>
   15292:	02a00693          	li	a3,42
   15296:	4711                	li	a4,4
   15298:	853e                	mv	a0,a5
   1529a:	00000073          	ecall
   1529e:	04850263          	beq	a0,s0,152e2 <_ZN20complex_full_dynamic3app17hc5b2e19a0cfa248eE+0x98>
   152a2:	853e                	mv	a0,a5
   152a4:	4581                	li	a1,0
   152a6:	864a                	mv	a2,s2
   152a8:	c23e                	sw	a5,4(sp)
   152aa:	c426                	sw	s1,8(sp)
   152ac:	00910623          	sb	s1,12(sp)
   152b0:	448d                	li	s1,3
   152b2:	06300693          	li	a3,99
   152b6:	470d                	li	a4,3
   152b8:	00000073          	ecall
   152bc:	02850363          	beq	a0,s0,152e2 <_ZN20complex_full_dynamic3app17hc5b2e19a0cfa248eE+0x98>
   152c0:	de3e                	sw	a5,60(sp)
   152c2:	c082                	sw	zero,64(sp)
   152c4:	04910223          	sb	s1,68(sp)
   152c8:	6509                	lui	a0,0x2
   152ca:	4591                	li	a1,4
   152cc:	c7c50513          	addi	a0,a0,-900 # 1c7c <.Lline_table_start1+0x1a51>
   152d0:	4709                	li	a4,2
   152d2:	07f00793          	li	a5,127
   152d6:	4601                	li	a2,0
   152d8:	4681                	li	a3,0
   152da:	00000073          	ecall
   152de:	02a7e863          	bltu	a5,a0,1530e <_ZN20complex_full_dynamic3app17hc5b2e19a0cfa248eE+0xc4>
   152e2:	00b9a223          	sw	a1,4(s3)
   152e6:	4505                	li	a0,1
   152e8:	00a98023          	sb	a0,0(s3)
   152ec:	1868                	addi	a0,sp,60
   152ee:	00006097          	auipc	ra,0x6
   152f2:	bf8080e7          	jalr	-1032(ra) # 1aee6 <_ZN9allow_pin12full_dynamic17unshare_if_shared17h3494b15e905518bcE>
   152f6:	0048                	addi	a0,sp,4
   152f8:	00006097          	auipc	ra,0x6
   152fc:	bee080e7          	jalr	-1042(ra) # 1aee6 <_ZN9allow_pin12full_dynamic17unshare_if_shared17h3494b15e905518bcE>
   15300:	50fa                	lw	ra,188(sp)
   15302:	546a                	lw	s0,184(sp)
   15304:	54da                	lw	s1,180(sp)
   15306:	594a                	lw	s2,176(sp)
   15308:	59ba                	lw	s3,172(sp)
   1530a:	6129                	addi	sp,sp,192
   1530c:	8082                	ret
   1530e:	0048                	addi	a0,sp,4
   15310:	00006097          	auipc	ra,0x6
   15314:	bd6080e7          	jalr	-1066(ra) # 1aee6 <_ZN9allow_pin12full_dynamic17unshare_if_shared17h3494b15e905518bcE>
   15318:	1868                	addi	a0,sp,60
   1531a:	00006097          	auipc	ra,0x6
   1531e:	bcc080e7          	jalr	-1076(ra) # 1aee6 <_ZN9allow_pin12full_dynamic17unshare_if_shared17h3494b15e905518bcE>
   15322:	1868                	addi	a0,sp,60
   15324:	00006097          	auipc	ra,0x6
   15328:	bc2080e7          	jalr	-1086(ra) # 1aee6 <_ZN9allow_pin12full_dynamic17unshare_if_shared17h3494b15e905518bcE>
   1532c:	00198513          	addi	a0,s3,1
   15330:	06300613          	li	a2,99
   15334:	85ca                	mv	a1,s2
   15336:	00006097          	auipc	ra,0x6
   1533a:	c3c080e7          	jalr	-964(ra) # 1af72 <memcpy>
   1533e:	4501                	li	a0,0
   15340:	b765                	j	152e8 <_ZN20complex_full_dynamic3app17hc5b2e19a0cfa248eE+0x9e>

00015342 <_ZN20complex_full_dynamic3app17hc8f637f5e71cf833E>:
   15342:	7119                	addi	sp,sp,-128
   15344:	de86                	sw	ra,124(sp)
   15346:	dca2                	sw	s0,120(sp)
   15348:	daa6                	sw	s1,116(sp)
   1534a:	d8ca                	sw	s2,112(sp)
   1534c:	d6ce                	sw	s3,108(sp)
   1534e:	89aa                	mv	s3,a0
   15350:	4409                	li	s0,2
   15352:	00810623          	sb	s0,12(sp)
   15356:	0804                	addi	s1,sp,16
   15358:	4661                	li	a2,24
   1535a:	8526                	mv	a0,s1
   1535c:	00006097          	auipc	ra,0x6
   15360:	c16080e7          	jalr	-1002(ra) # 1af72 <memcpy>
   15364:	03410913          	addi	s2,sp,52
   15368:	03600613          	li	a2,54
   1536c:	854a                	mv	a0,s2
   1536e:	4581                	li	a1,0
   15370:	00006097          	auipc	ra,0x6
   15374:	b96080e7          	jalr	-1130(ra) # 1af06 <memset>
   15378:	8626                	mv	a2,s1
   1537a:	02810823          	sb	s0,48(sp)
   1537e:	0f300793          	li	a5,243
   15382:	44a1                	li	s1,8
   15384:	4811                	li	a6,4
   15386:	0f300513          	li	a0,243
   1538a:	45a1                	li	a1,8
   1538c:	46e1                	li	a3,24
   1538e:	4711                	li	a4,4
   15390:	00000073          	ecall
   15394:	04850563          	beq	a0,s0,153de <_ZN20complex_full_dynamic3app17hc8f637f5e71cf833E+0x9c>
   15398:	864a                	mv	a2,s2
   1539a:	c23e                	sw	a5,4(sp)
   1539c:	c426                	sw	s1,8(sp)
   1539e:	01010623          	sb	a6,12(sp)
   153a2:	478d                	li	a5,3
   153a4:	0f300513          	li	a0,243
   153a8:	4591                	li	a1,4
   153aa:	03600693          	li	a3,54
   153ae:	470d                	li	a4,3
   153b0:	00000073          	ecall
   153b4:	02850563          	beq	a0,s0,153de <_ZN20complex_full_dynamic3app17hc8f637f5e71cf833E+0x9c>
   153b8:	0f300693          	li	a3,243
   153bc:	4491                	li	s1,4
   153be:	0f300513          	li	a0,243
   153c2:	45a1                	li	a1,8
   153c4:	4611                	li	a2,4
   153c6:	4709                	li	a4,2
   153c8:	07f00413          	li	s0,127
   153cc:	d436                	sw	a3,40(sp)
   153ce:	d626                	sw	s1,44(sp)
   153d0:	02f10823          	sb	a5,48(sp)
   153d4:	4681                	li	a3,0
   153d6:	00000073          	ecall
   153da:	02a46863          	bltu	s0,a0,1540a <_ZN20complex_full_dynamic3app17hc8f637f5e71cf833E+0xc8>
   153de:	00b9a223          	sw	a1,4(s3)
   153e2:	4505                	li	a0,1
   153e4:	00a98023          	sb	a0,0(s3)
   153e8:	1028                	addi	a0,sp,40
   153ea:	00006097          	auipc	ra,0x6
   153ee:	afc080e7          	jalr	-1284(ra) # 1aee6 <_ZN9allow_pin12full_dynamic17unshare_if_shared17h3494b15e905518bcE>
   153f2:	0048                	addi	a0,sp,4
   153f4:	00006097          	auipc	ra,0x6
   153f8:	af2080e7          	jalr	-1294(ra) # 1aee6 <_ZN9allow_pin12full_dynamic17unshare_if_shared17h3494b15e905518bcE>
   153fc:	50f6                	lw	ra,124(sp)
   153fe:	5466                	lw	s0,120(sp)
   15400:	54d6                	lw	s1,116(sp)
   15402:	5946                	lw	s2,112(sp)
   15404:	59b6                	lw	s3,108(sp)
   15406:	6109                	addi	sp,sp,128
   15408:	8082                	ret
   1540a:	0048                	addi	a0,sp,4
   1540c:	00006097          	auipc	ra,0x6
   15410:	ada080e7          	jalr	-1318(ra) # 1aee6 <_ZN9allow_pin12full_dynamic17unshare_if_shared17h3494b15e905518bcE>
   15414:	1028                	addi	a0,sp,40
   15416:	00006097          	auipc	ra,0x6
   1541a:	ad0080e7          	jalr	-1328(ra) # 1aee6 <_ZN9allow_pin12full_dynamic17unshare_if_shared17h3494b15e905518bcE>
   1541e:	1028                	addi	a0,sp,40
   15420:	00006097          	auipc	ra,0x6
   15424:	ac6080e7          	jalr	-1338(ra) # 1aee6 <_ZN9allow_pin12full_dynamic17unshare_if_shared17h3494b15e905518bcE>
   15428:	00198513          	addi	a0,s3,1
   1542c:	03600613          	li	a2,54
   15430:	85ca                	mv	a1,s2
   15432:	00006097          	auipc	ra,0x6
   15436:	b40080e7          	jalr	-1216(ra) # 1af72 <memcpy>
   1543a:	4501                	li	a0,0
   1543c:	b765                	j	153e4 <_ZN20complex_full_dynamic3app17hc8f637f5e71cf833E+0xa2>

0001543e <_ZN20complex_full_dynamic3app17hca5c4b4ad0683e3dE>:
   1543e:	7171                	addi	sp,sp,-176
   15440:	d706                	sw	ra,172(sp)
   15442:	d522                	sw	s0,168(sp)
   15444:	d326                	sw	s1,164(sp)
   15446:	d14a                	sw	s2,160(sp)
   15448:	cf4e                	sw	s3,156(sp)
   1544a:	89aa                	mv	s3,a0
   1544c:	4409                	li	s0,2
   1544e:	00810a23          	sb	s0,20(sp)
   15452:	0824                	addi	s1,sp,24
   15454:	02200613          	li	a2,34
   15458:	8526                	mv	a0,s1
   1545a:	00006097          	auipc	ra,0x6
   1545e:	b18080e7          	jalr	-1256(ra) # 1af72 <memcpy>
   15462:	04810913          	addi	s2,sp,72
   15466:	05100613          	li	a2,81
   1546a:	854a                	mv	a0,s2
   1546c:	4581                	li	a1,0
   1546e:	00006097          	auipc	ra,0x6
   15472:	a98080e7          	jalr	-1384(ra) # 1af06 <memset>
   15476:	8626                	mv	a2,s1
   15478:	04810223          	sb	s0,68(sp)
   1547c:	55e00793          	li	a5,1374
   15480:	44a5                	li	s1,9
   15482:	4811                	li	a6,4
   15484:	55e00513          	li	a0,1374
   15488:	45a5                	li	a1,9
   1548a:	02200693          	li	a3,34
   1548e:	4711                	li	a4,4
   15490:	00000073          	ecall
   15494:	04850563          	beq	a0,s0,154de <_ZN20complex_full_dynamic3app17hca5c4b4ad0683e3dE+0xa0>
   15498:	864a                	mv	a2,s2
   1549a:	c63e                	sw	a5,12(sp)
   1549c:	c826                	sw	s1,16(sp)
   1549e:	01010a23          	sb	a6,20(sp)
   154a2:	478d                	li	a5,3
   154a4:	55e00513          	li	a0,1374
   154a8:	45a5                	li	a1,9
   154aa:	05100693          	li	a3,81
   154ae:	470d                	li	a4,3
   154b0:	00000073          	ecall
   154b4:	02850563          	beq	a0,s0,154de <_ZN20complex_full_dynamic3app17hca5c4b4ad0683e3dE+0xa0>
   154b8:	55e00693          	li	a3,1374
   154bc:	44a5                	li	s1,9
   154be:	55e00513          	li	a0,1374
   154c2:	45a5                	li	a1,9
   154c4:	4625                	li	a2,9
   154c6:	4709                	li	a4,2
   154c8:	07f00413          	li	s0,127
   154cc:	de36                	sw	a3,60(sp)
   154ce:	c0a6                	sw	s1,64(sp)
   154d0:	04f10223          	sb	a5,68(sp)
   154d4:	4681                	li	a3,0
   154d6:	00000073          	ecall
   154da:	02a46863          	bltu	s0,a0,1550a <_ZN20complex_full_dynamic3app17hca5c4b4ad0683e3dE+0xcc>
   154de:	00b9a223          	sw	a1,4(s3)
   154e2:	4505                	li	a0,1
   154e4:	00a98023          	sb	a0,0(s3)
   154e8:	1868                	addi	a0,sp,60
   154ea:	00006097          	auipc	ra,0x6
   154ee:	9fc080e7          	jalr	-1540(ra) # 1aee6 <_ZN9allow_pin12full_dynamic17unshare_if_shared17h3494b15e905518bcE>
   154f2:	0068                	addi	a0,sp,12
   154f4:	00006097          	auipc	ra,0x6
   154f8:	9f2080e7          	jalr	-1550(ra) # 1aee6 <_ZN9allow_pin12full_dynamic17unshare_if_shared17h3494b15e905518bcE>
   154fc:	50ba                	lw	ra,172(sp)
   154fe:	542a                	lw	s0,168(sp)
   15500:	549a                	lw	s1,164(sp)
   15502:	590a                	lw	s2,160(sp)
   15504:	49fa                	lw	s3,156(sp)
   15506:	614d                	addi	sp,sp,176
   15508:	8082                	ret
   1550a:	0068                	addi	a0,sp,12
   1550c:	00006097          	auipc	ra,0x6
   15510:	9da080e7          	jalr	-1574(ra) # 1aee6 <_ZN9allow_pin12full_dynamic17unshare_if_shared17h3494b15e905518bcE>
   15514:	1868                	addi	a0,sp,60
   15516:	00006097          	auipc	ra,0x6
   1551a:	9d0080e7          	jalr	-1584(ra) # 1aee6 <_ZN9allow_pin12full_dynamic17unshare_if_shared17h3494b15e905518bcE>
   1551e:	1868                	addi	a0,sp,60
   15520:	00006097          	auipc	ra,0x6
   15524:	9c6080e7          	jalr	-1594(ra) # 1aee6 <_ZN9allow_pin12full_dynamic17unshare_if_shared17h3494b15e905518bcE>
   15528:	00198513          	addi	a0,s3,1
   1552c:	05100613          	li	a2,81
   15530:	85ca                	mv	a1,s2
   15532:	00006097          	auipc	ra,0x6
   15536:	a40080e7          	jalr	-1472(ra) # 1af72 <memcpy>
   1553a:	4501                	li	a0,0
   1553c:	b765                	j	154e4 <_ZN20complex_full_dynamic3app17hca5c4b4ad0683e3dE+0xa6>

0001553e <_ZN20complex_full_dynamic3app17hca8a2c0a41156738E>:
   1553e:	7155                	addi	sp,sp,-208
   15540:	c786                	sw	ra,204(sp)
   15542:	c5a2                	sw	s0,200(sp)
   15544:	c3a6                	sw	s1,196(sp)
   15546:	c1ca                	sw	s2,192(sp)
   15548:	df4e                	sw	s3,188(sp)
   1554a:	89aa                	mv	s3,a0
   1554c:	4409                	li	s0,2
   1554e:	00810423          	sb	s0,8(sp)
   15552:	0064                	addi	s1,sp,12
   15554:	05100613          	li	a2,81
   15558:	8526                	mv	a0,s1
   1555a:	00006097          	auipc	ra,0x6
   1555e:	a18080e7          	jalr	-1512(ra) # 1af72 <memcpy>
   15562:	06c10913          	addi	s2,sp,108
   15566:	04f00613          	li	a2,79
   1556a:	854a                	mv	a0,s2
   1556c:	4581                	li	a1,0
   1556e:	00006097          	auipc	ra,0x6
   15572:	998080e7          	jalr	-1640(ra) # 1af06 <memset>
   15576:	8626                	mv	a2,s1
   15578:	06810423          	sb	s0,104(sp)
   1557c:	6505                	lui	a0,0x1
   1557e:	4491                	li	s1,4
   15580:	4589                	li	a1,2
   15582:	e1650793          	addi	a5,a0,-490 # e16 <.Lline_table_start1+0xbeb>
   15586:	05100693          	li	a3,81
   1558a:	4711                	li	a4,4
   1558c:	853e                	mv	a0,a5
   1558e:	00000073          	ecall
   15592:	04850363          	beq	a0,s0,155d8 <_ZN20complex_full_dynamic3app17hca8a2c0a41156738E+0x9a>
   15596:	853e                	mv	a0,a5
   15598:	864a                	mv	a2,s2
   1559a:	c03e                	sw	a5,0(sp)
   1559c:	c222                	sw	s0,4(sp)
   1559e:	00910423          	sb	s1,8(sp)
   155a2:	448d                	li	s1,3
   155a4:	4591                	li	a1,4
   155a6:	04f00693          	li	a3,79
   155aa:	470d                	li	a4,3
   155ac:	00000073          	ecall
   155b0:	02850463          	beq	a0,s0,155d8 <_ZN20complex_full_dynamic3app17hca8a2c0a41156738E+0x9a>
   155b4:	4511                	li	a0,4
   155b6:	6685                	lui	a3,0x1
   155b8:	4589                	li	a1,2
   155ba:	4611                	li	a2,4
   155bc:	d0be                	sw	a5,96(sp)
   155be:	d2aa                	sw	a0,100(sp)
   155c0:	06910423          	sb	s1,104(sp)
   155c4:	e1668513          	addi	a0,a3,-490 # e16 <.Lline_table_start1+0xbeb>
   155c8:	4709                	li	a4,2
   155ca:	07f00793          	li	a5,127
   155ce:	4681                	li	a3,0
   155d0:	00000073          	ecall
   155d4:	02a7e863          	bltu	a5,a0,15604 <_ZN20complex_full_dynamic3app17hca8a2c0a41156738E+0xc6>
   155d8:	00b9a223          	sw	a1,4(s3)
   155dc:	4505                	li	a0,1
   155de:	00a98023          	sb	a0,0(s3)
   155e2:	1088                	addi	a0,sp,96
   155e4:	00006097          	auipc	ra,0x6
   155e8:	902080e7          	jalr	-1790(ra) # 1aee6 <_ZN9allow_pin12full_dynamic17unshare_if_shared17h3494b15e905518bcE>
   155ec:	850a                	mv	a0,sp
   155ee:	00006097          	auipc	ra,0x6
   155f2:	8f8080e7          	jalr	-1800(ra) # 1aee6 <_ZN9allow_pin12full_dynamic17unshare_if_shared17h3494b15e905518bcE>
   155f6:	40be                	lw	ra,204(sp)
   155f8:	442e                	lw	s0,200(sp)
   155fa:	449e                	lw	s1,196(sp)
   155fc:	490e                	lw	s2,192(sp)
   155fe:	59fa                	lw	s3,188(sp)
   15600:	6169                	addi	sp,sp,208
   15602:	8082                	ret
   15604:	850a                	mv	a0,sp
   15606:	00006097          	auipc	ra,0x6
   1560a:	8e0080e7          	jalr	-1824(ra) # 1aee6 <_ZN9allow_pin12full_dynamic17unshare_if_shared17h3494b15e905518bcE>
   1560e:	1088                	addi	a0,sp,96
   15610:	00006097          	auipc	ra,0x6
   15614:	8d6080e7          	jalr	-1834(ra) # 1aee6 <_ZN9allow_pin12full_dynamic17unshare_if_shared17h3494b15e905518bcE>
   15618:	1088                	addi	a0,sp,96
   1561a:	00006097          	auipc	ra,0x6
   1561e:	8cc080e7          	jalr	-1844(ra) # 1aee6 <_ZN9allow_pin12full_dynamic17unshare_if_shared17h3494b15e905518bcE>
   15622:	00198513          	addi	a0,s3,1
   15626:	04f00613          	li	a2,79
   1562a:	85ca                	mv	a1,s2
   1562c:	00006097          	auipc	ra,0x6
   15630:	946080e7          	jalr	-1722(ra) # 1af72 <memcpy>
   15634:	4501                	li	a0,0
   15636:	b765                	j	155de <_ZN20complex_full_dynamic3app17hca8a2c0a41156738E+0xa0>

00015638 <_ZN20complex_full_dynamic3app17hcac46308f9ee0341E>:
   15638:	7131                	addi	sp,sp,-192
   1563a:	df06                	sw	ra,188(sp)
   1563c:	dd22                	sw	s0,184(sp)
   1563e:	db26                	sw	s1,180(sp)
   15640:	d94a                	sw	s2,176(sp)
   15642:	d74e                	sw	s3,172(sp)
   15644:	89aa                	mv	s3,a0
   15646:	4409                	li	s0,2
   15648:	00810a23          	sb	s0,20(sp)
   1564c:	0824                	addi	s1,sp,24
   1564e:	02a00613          	li	a2,42
   15652:	8526                	mv	a0,s1
   15654:	00006097          	auipc	ra,0x6
   15658:	91e080e7          	jalr	-1762(ra) # 1af72 <memcpy>
   1565c:	05010913          	addi	s2,sp,80
   15660:	05900613          	li	a2,89
   15664:	854a                	mv	a0,s2
   15666:	4581                	li	a1,0
   15668:	00006097          	auipc	ra,0x6
   1566c:	89e080e7          	jalr	-1890(ra) # 1af06 <memset>
   15670:	8626                	mv	a2,s1
   15672:	04810623          	sb	s0,76(sp)
   15676:	6505                	lui	a0,0x1
   15678:	4485                	li	s1,1
   1567a:	4811                	li	a6,4
   1567c:	4585                	li	a1,1
   1567e:	ed250793          	addi	a5,a0,-302 # ed2 <.Lline_table_start1+0xca7>
   15682:	02a00693          	li	a3,42
   15686:	4711                	li	a4,4
   15688:	853e                	mv	a0,a5
   1568a:	00000073          	ecall
   1568e:	04850263          	beq	a0,s0,156d2 <_ZN20complex_full_dynamic3app17hcac46308f9ee0341E+0x9a>
   15692:	853e                	mv	a0,a5
   15694:	864a                	mv	a2,s2
   15696:	c63e                	sw	a5,12(sp)
   15698:	c826                	sw	s1,16(sp)
   1569a:	01010a23          	sb	a6,20(sp)
   1569e:	448d                	li	s1,3
   156a0:	458d                	li	a1,3
   156a2:	05900693          	li	a3,89
   156a6:	470d                	li	a4,3
   156a8:	00000073          	ecall
   156ac:	02850363          	beq	a0,s0,156d2 <_ZN20complex_full_dynamic3app17hcac46308f9ee0341E+0x9a>
   156b0:	c2be                	sw	a5,68(sp)
   156b2:	c4a6                	sw	s1,72(sp)
   156b4:	04910623          	sb	s1,76(sp)
   156b8:	6505                	lui	a0,0x1
   156ba:	4585                	li	a1,1
   156bc:	460d                	li	a2,3
   156be:	ed250513          	addi	a0,a0,-302 # ed2 <.Lline_table_start1+0xca7>
   156c2:	4709                	li	a4,2
   156c4:	07f00793          	li	a5,127
   156c8:	4681                	li	a3,0
   156ca:	00000073          	ecall
   156ce:	02a7e863          	bltu	a5,a0,156fe <_ZN20complex_full_dynamic3app17hcac46308f9ee0341E+0xc6>
   156d2:	00b9a223          	sw	a1,4(s3)
   156d6:	4505                	li	a0,1
   156d8:	00a98023          	sb	a0,0(s3)
   156dc:	00c8                	addi	a0,sp,68
   156de:	00006097          	auipc	ra,0x6
   156e2:	808080e7          	jalr	-2040(ra) # 1aee6 <_ZN9allow_pin12full_dynamic17unshare_if_shared17h3494b15e905518bcE>
   156e6:	0068                	addi	a0,sp,12
   156e8:	00005097          	auipc	ra,0x5
   156ec:	7fe080e7          	jalr	2046(ra) # 1aee6 <_ZN9allow_pin12full_dynamic17unshare_if_shared17h3494b15e905518bcE>
   156f0:	50fa                	lw	ra,188(sp)
   156f2:	546a                	lw	s0,184(sp)
   156f4:	54da                	lw	s1,180(sp)
   156f6:	594a                	lw	s2,176(sp)
   156f8:	59ba                	lw	s3,172(sp)
   156fa:	6129                	addi	sp,sp,192
   156fc:	8082                	ret
   156fe:	0068                	addi	a0,sp,12
   15700:	00005097          	auipc	ra,0x5
   15704:	7e6080e7          	jalr	2022(ra) # 1aee6 <_ZN9allow_pin12full_dynamic17unshare_if_shared17h3494b15e905518bcE>
   15708:	00c8                	addi	a0,sp,68
   1570a:	00005097          	auipc	ra,0x5
   1570e:	7dc080e7          	jalr	2012(ra) # 1aee6 <_ZN9allow_pin12full_dynamic17unshare_if_shared17h3494b15e905518bcE>
   15712:	00c8                	addi	a0,sp,68
   15714:	00005097          	auipc	ra,0x5
   15718:	7d2080e7          	jalr	2002(ra) # 1aee6 <_ZN9allow_pin12full_dynamic17unshare_if_shared17h3494b15e905518bcE>
   1571c:	00198513          	addi	a0,s3,1
   15720:	05900613          	li	a2,89
   15724:	85ca                	mv	a1,s2
   15726:	00006097          	auipc	ra,0x6
   1572a:	84c080e7          	jalr	-1972(ra) # 1af72 <memcpy>
   1572e:	4501                	li	a0,0
   15730:	b765                	j	156d8 <_ZN20complex_full_dynamic3app17hcac46308f9ee0341E+0xa0>

00015732 <_ZN20complex_full_dynamic3app17hcbb60f95a0af9897E>:
   15732:	7175                	addi	sp,sp,-144
   15734:	c706                	sw	ra,140(sp)
   15736:	c522                	sw	s0,136(sp)
   15738:	c326                	sw	s1,132(sp)
   1573a:	c14a                	sw	s2,128(sp)
   1573c:	dece                	sw	s3,124(sp)
   1573e:	89aa                	mv	s3,a0
   15740:	4409                	li	s0,2
   15742:	00810823          	sb	s0,16(sp)
   15746:	0844                	addi	s1,sp,20
   15748:	4679                	li	a2,30
   1574a:	8526                	mv	a0,s1
   1574c:	00006097          	auipc	ra,0x6
   15750:	826080e7          	jalr	-2010(ra) # 1af72 <memcpy>
   15754:	04010913          	addi	s2,sp,64
   15758:	03c00613          	li	a2,60
   1575c:	854a                	mv	a0,s2
   1575e:	4581                	li	a1,0
   15760:	00005097          	auipc	ra,0x5
   15764:	7a6080e7          	jalr	1958(ra) # 1af06 <memset>
   15768:	8626                	mv	a2,s1
   1576a:	02810e23          	sb	s0,60(sp)
   1576e:	6505                	lui	a0,0x1
   15770:	4491                	li	s1,4
   15772:	4589                	li	a1,2
   15774:	b3c50793          	addi	a5,a0,-1220 # b3c <.Lline_table_start1+0x911>
   15778:	46f9                	li	a3,30
   1577a:	4711                	li	a4,4
   1577c:	853e                	mv	a0,a5
   1577e:	00000073          	ecall
   15782:	04850263          	beq	a0,s0,157c6 <_ZN20complex_full_dynamic3app17hcbb60f95a0af9897E+0x94>
   15786:	853e                	mv	a0,a5
   15788:	864a                	mv	a2,s2
   1578a:	c43e                	sw	a5,8(sp)
   1578c:	c622                	sw	s0,12(sp)
   1578e:	00910823          	sb	s1,16(sp)
   15792:	448d                	li	s1,3
   15794:	458d                	li	a1,3
   15796:	03c00693          	li	a3,60
   1579a:	470d                	li	a4,3
   1579c:	00000073          	ecall
   157a0:	02850363          	beq	a0,s0,157c6 <_ZN20complex_full_dynamic3app17hcbb60f95a0af9897E+0x94>
   157a4:	da3e                	sw	a5,52(sp)
   157a6:	dc26                	sw	s1,56(sp)
   157a8:	02910e23          	sb	s1,60(sp)
   157ac:	6505                	lui	a0,0x1
   157ae:	4589                	li	a1,2
   157b0:	460d                	li	a2,3
   157b2:	b3c50513          	addi	a0,a0,-1220 # b3c <.Lline_table_start1+0x911>
   157b6:	4709                	li	a4,2
   157b8:	07f00793          	li	a5,127
   157bc:	4681                	li	a3,0
   157be:	00000073          	ecall
   157c2:	02a7e863          	bltu	a5,a0,157f2 <_ZN20complex_full_dynamic3app17hcbb60f95a0af9897E+0xc0>
   157c6:	00b9a223          	sw	a1,4(s3)
   157ca:	4505                	li	a0,1
   157cc:	00a98023          	sb	a0,0(s3)
   157d0:	1848                	addi	a0,sp,52
   157d2:	00005097          	auipc	ra,0x5
   157d6:	714080e7          	jalr	1812(ra) # 1aee6 <_ZN9allow_pin12full_dynamic17unshare_if_shared17h3494b15e905518bcE>
   157da:	0028                	addi	a0,sp,8
   157dc:	00005097          	auipc	ra,0x5
   157e0:	70a080e7          	jalr	1802(ra) # 1aee6 <_ZN9allow_pin12full_dynamic17unshare_if_shared17h3494b15e905518bcE>
   157e4:	40ba                	lw	ra,140(sp)
   157e6:	442a                	lw	s0,136(sp)
   157e8:	449a                	lw	s1,132(sp)
   157ea:	490a                	lw	s2,128(sp)
   157ec:	59f6                	lw	s3,124(sp)
   157ee:	6149                	addi	sp,sp,144
   157f0:	8082                	ret
   157f2:	0028                	addi	a0,sp,8
   157f4:	00005097          	auipc	ra,0x5
   157f8:	6f2080e7          	jalr	1778(ra) # 1aee6 <_ZN9allow_pin12full_dynamic17unshare_if_shared17h3494b15e905518bcE>
   157fc:	1848                	addi	a0,sp,52
   157fe:	00005097          	auipc	ra,0x5
   15802:	6e8080e7          	jalr	1768(ra) # 1aee6 <_ZN9allow_pin12full_dynamic17unshare_if_shared17h3494b15e905518bcE>
   15806:	1848                	addi	a0,sp,52
   15808:	00005097          	auipc	ra,0x5
   1580c:	6de080e7          	jalr	1758(ra) # 1aee6 <_ZN9allow_pin12full_dynamic17unshare_if_shared17h3494b15e905518bcE>
   15810:	00198513          	addi	a0,s3,1
   15814:	03c00613          	li	a2,60
   15818:	85ca                	mv	a1,s2
   1581a:	00005097          	auipc	ra,0x5
   1581e:	758080e7          	jalr	1880(ra) # 1af72 <memcpy>
   15822:	4501                	li	a0,0
   15824:	b765                	j	157cc <_ZN20complex_full_dynamic3app17hcbb60f95a0af9897E+0x9a>

00015826 <_ZN20complex_full_dynamic3app17hcc7f0f207cc872ceE>:
   15826:	7135                	addi	sp,sp,-160
   15828:	cf06                	sw	ra,156(sp)
   1582a:	cd22                	sw	s0,152(sp)
   1582c:	cb26                	sw	s1,148(sp)
   1582e:	c94a                	sw	s2,144(sp)
   15830:	c74e                	sw	s3,140(sp)
   15832:	89aa                	mv	s3,a0
   15834:	4409                	li	s0,2
   15836:	00810623          	sb	s0,12(sp)
   1583a:	0804                	addi	s1,sp,16
   1583c:	03c00613          	li	a2,60
   15840:	8526                	mv	a0,s1
   15842:	00005097          	auipc	ra,0x5
   15846:	730080e7          	jalr	1840(ra) # 1af72 <memcpy>
   1584a:	05810913          	addi	s2,sp,88
   1584e:	03200613          	li	a2,50
   15852:	854a                	mv	a0,s2
   15854:	4581                	li	a1,0
   15856:	00005097          	auipc	ra,0x5
   1585a:	6b0080e7          	jalr	1712(ra) # 1af06 <memset>
   1585e:	8626                	mv	a2,s1
   15860:	04810a23          	sb	s0,84(sp)
   15864:	6509                	lui	a0,0x2
   15866:	4499                	li	s1,6
   15868:	4811                	li	a6,4
   1586a:	4599                	li	a1,6
   1586c:	b1e50793          	addi	a5,a0,-1250 # 1b1e <.Lline_table_start1+0x18f3>
   15870:	03c00693          	li	a3,60
   15874:	4711                	li	a4,4
   15876:	853e                	mv	a0,a5
   15878:	00000073          	ecall
   1587c:	04850363          	beq	a0,s0,158c2 <_ZN20complex_full_dynamic3app17hcc7f0f207cc872ceE+0x9c>
   15880:	853e                	mv	a0,a5
   15882:	864a                	mv	a2,s2
   15884:	c23e                	sw	a5,4(sp)
   15886:	c426                	sw	s1,8(sp)
   15888:	01010623          	sb	a6,12(sp)
   1588c:	44a1                	li	s1,8
   1588e:	480d                	li	a6,3
   15890:	45a1                	li	a1,8
   15892:	03200693          	li	a3,50
   15896:	470d                	li	a4,3
   15898:	00000073          	ecall
   1589c:	02850363          	beq	a0,s0,158c2 <_ZN20complex_full_dynamic3app17hcc7f0f207cc872ceE+0x9c>
   158a0:	c6be                	sw	a5,76(sp)
   158a2:	c8a6                	sw	s1,80(sp)
   158a4:	05010a23          	sb	a6,84(sp)
   158a8:	6509                	lui	a0,0x2
   158aa:	4599                	li	a1,6
   158ac:	4621                	li	a2,8
   158ae:	b1e50513          	addi	a0,a0,-1250 # 1b1e <.Lline_table_start1+0x18f3>
   158b2:	4709                	li	a4,2
   158b4:	07f00793          	li	a5,127
   158b8:	4681                	li	a3,0
   158ba:	00000073          	ecall
   158be:	02a7e863          	bltu	a5,a0,158ee <_ZN20complex_full_dynamic3app17hcc7f0f207cc872ceE+0xc8>
   158c2:	00b9a223          	sw	a1,4(s3)
   158c6:	4505                	li	a0,1
   158c8:	00a98023          	sb	a0,0(s3)
   158cc:	00e8                	addi	a0,sp,76
   158ce:	00005097          	auipc	ra,0x5
   158d2:	618080e7          	jalr	1560(ra) # 1aee6 <_ZN9allow_pin12full_dynamic17unshare_if_shared17h3494b15e905518bcE>
   158d6:	0048                	addi	a0,sp,4
   158d8:	00005097          	auipc	ra,0x5
   158dc:	60e080e7          	jalr	1550(ra) # 1aee6 <_ZN9allow_pin12full_dynamic17unshare_if_shared17h3494b15e905518bcE>
   158e0:	40fa                	lw	ra,156(sp)
   158e2:	446a                	lw	s0,152(sp)
   158e4:	44da                	lw	s1,148(sp)
   158e6:	494a                	lw	s2,144(sp)
   158e8:	49ba                	lw	s3,140(sp)
   158ea:	610d                	addi	sp,sp,160
   158ec:	8082                	ret
   158ee:	0048                	addi	a0,sp,4
   158f0:	00005097          	auipc	ra,0x5
   158f4:	5f6080e7          	jalr	1526(ra) # 1aee6 <_ZN9allow_pin12full_dynamic17unshare_if_shared17h3494b15e905518bcE>
   158f8:	00e8                	addi	a0,sp,76
   158fa:	00005097          	auipc	ra,0x5
   158fe:	5ec080e7          	jalr	1516(ra) # 1aee6 <_ZN9allow_pin12full_dynamic17unshare_if_shared17h3494b15e905518bcE>
   15902:	00e8                	addi	a0,sp,76
   15904:	00005097          	auipc	ra,0x5
   15908:	5e2080e7          	jalr	1506(ra) # 1aee6 <_ZN9allow_pin12full_dynamic17unshare_if_shared17h3494b15e905518bcE>
   1590c:	00198513          	addi	a0,s3,1
   15910:	03200613          	li	a2,50
   15914:	85ca                	mv	a1,s2
   15916:	00005097          	auipc	ra,0x5
   1591a:	65c080e7          	jalr	1628(ra) # 1af72 <memcpy>
   1591e:	4501                	li	a0,0
   15920:	b765                	j	158c8 <_ZN20complex_full_dynamic3app17hcc7f0f207cc872ceE+0xa2>

00015922 <_ZN20complex_full_dynamic3app17hd209b81c67ba65afE>:
   15922:	7131                	addi	sp,sp,-192
   15924:	df06                	sw	ra,188(sp)
   15926:	dd22                	sw	s0,184(sp)
   15928:	db26                	sw	s1,180(sp)
   1592a:	d94a                	sw	s2,176(sp)
   1592c:	d74e                	sw	s3,172(sp)
   1592e:	89aa                	mv	s3,a0
   15930:	4409                	li	s0,2
   15932:	00810823          	sb	s0,16(sp)
   15936:	0844                	addi	s1,sp,20
   15938:	04d00613          	li	a2,77
   1593c:	8526                	mv	a0,s1
   1593e:	00005097          	auipc	ra,0x5
   15942:	634080e7          	jalr	1588(ra) # 1af72 <memcpy>
   15946:	07010913          	addi	s2,sp,112
   1594a:	03c00613          	li	a2,60
   1594e:	854a                	mv	a0,s2
   15950:	4581                	li	a1,0
   15952:	00005097          	auipc	ra,0x5
   15956:	5b4080e7          	jalr	1460(ra) # 1af06 <memset>
   1595a:	8626                	mv	a2,s1
   1595c:	06810623          	sb	s0,108(sp)
   15960:	6509                	lui	a0,0x2
   15962:	4491                	li	s1,4
   15964:	4591                	li	a1,4
   15966:	1ab50793          	addi	a5,a0,427 # 21ab <.Lline_table_start1+0x1f80>
   1596a:	04d00693          	li	a3,77
   1596e:	4711                	li	a4,4
   15970:	853e                	mv	a0,a5
   15972:	00000073          	ecall
   15976:	04850363          	beq	a0,s0,159bc <_ZN20complex_full_dynamic3app17hd209b81c67ba65afE+0x9a>
   1597a:	853e                	mv	a0,a5
   1597c:	864a                	mv	a2,s2
   1597e:	c43e                	sw	a5,8(sp)
   15980:	c626                	sw	s1,12(sp)
   15982:	00910823          	sb	s1,16(sp)
   15986:	44a5                	li	s1,9
   15988:	480d                	li	a6,3
   1598a:	45a5                	li	a1,9
   1598c:	03c00693          	li	a3,60
   15990:	470d                	li	a4,3
   15992:	00000073          	ecall
   15996:	02850363          	beq	a0,s0,159bc <_ZN20complex_full_dynamic3app17hd209b81c67ba65afE+0x9a>
   1599a:	d2be                	sw	a5,100(sp)
   1599c:	d4a6                	sw	s1,104(sp)
   1599e:	07010623          	sb	a6,108(sp)
   159a2:	6509                	lui	a0,0x2
   159a4:	4591                	li	a1,4
   159a6:	4625                	li	a2,9
   159a8:	1ab50513          	addi	a0,a0,427 # 21ab <.Lline_table_start1+0x1f80>
   159ac:	4709                	li	a4,2
   159ae:	07f00793          	li	a5,127
   159b2:	4681                	li	a3,0
   159b4:	00000073          	ecall
   159b8:	02a7e863          	bltu	a5,a0,159e8 <_ZN20complex_full_dynamic3app17hd209b81c67ba65afE+0xc6>
   159bc:	00b9a223          	sw	a1,4(s3)
   159c0:	4505                	li	a0,1
   159c2:	00a98023          	sb	a0,0(s3)
   159c6:	10c8                	addi	a0,sp,100
   159c8:	00005097          	auipc	ra,0x5
   159cc:	51e080e7          	jalr	1310(ra) # 1aee6 <_ZN9allow_pin12full_dynamic17unshare_if_shared17h3494b15e905518bcE>
   159d0:	0028                	addi	a0,sp,8
   159d2:	00005097          	auipc	ra,0x5
   159d6:	514080e7          	jalr	1300(ra) # 1aee6 <_ZN9allow_pin12full_dynamic17unshare_if_shared17h3494b15e905518bcE>
   159da:	50fa                	lw	ra,188(sp)
   159dc:	546a                	lw	s0,184(sp)
   159de:	54da                	lw	s1,180(sp)
   159e0:	594a                	lw	s2,176(sp)
   159e2:	59ba                	lw	s3,172(sp)
   159e4:	6129                	addi	sp,sp,192
   159e6:	8082                	ret
   159e8:	0028                	addi	a0,sp,8
   159ea:	00005097          	auipc	ra,0x5
   159ee:	4fc080e7          	jalr	1276(ra) # 1aee6 <_ZN9allow_pin12full_dynamic17unshare_if_shared17h3494b15e905518bcE>
   159f2:	10c8                	addi	a0,sp,100
   159f4:	00005097          	auipc	ra,0x5
   159f8:	4f2080e7          	jalr	1266(ra) # 1aee6 <_ZN9allow_pin12full_dynamic17unshare_if_shared17h3494b15e905518bcE>
   159fc:	10c8                	addi	a0,sp,100
   159fe:	00005097          	auipc	ra,0x5
   15a02:	4e8080e7          	jalr	1256(ra) # 1aee6 <_ZN9allow_pin12full_dynamic17unshare_if_shared17h3494b15e905518bcE>
   15a06:	00198513          	addi	a0,s3,1
   15a0a:	03c00613          	li	a2,60
   15a0e:	85ca                	mv	a1,s2
   15a10:	00005097          	auipc	ra,0x5
   15a14:	562080e7          	jalr	1378(ra) # 1af72 <memcpy>
   15a18:	4501                	li	a0,0
   15a1a:	b765                	j	159c2 <_ZN20complex_full_dynamic3app17hd209b81c67ba65afE+0xa0>

00015a1c <_ZN20complex_full_dynamic3app17hd3f154c1a4a73519E>:
   15a1c:	7159                	addi	sp,sp,-112
   15a1e:	d686                	sw	ra,108(sp)
   15a20:	d4a2                	sw	s0,104(sp)
   15a22:	d2a6                	sw	s1,100(sp)
   15a24:	d0ca                	sw	s2,96(sp)
   15a26:	cece                	sw	s3,92(sp)
   15a28:	892a                	mv	s2,a0
   15a2a:	4409                	li	s0,2
   15a2c:	00810823          	sb	s0,16(sp)
   15a30:	0844                	addi	s1,sp,20
   15a32:	02b00613          	li	a2,43
   15a36:	8526                	mv	a0,s1
   15a38:	00005097          	auipc	ra,0x5
   15a3c:	53a080e7          	jalr	1338(ra) # 1af72 <memcpy>
   15a40:	8626                	mv	a2,s1
   15a42:	04010c23          	sb	zero,88(sp)
   15a46:	04810423          	sb	s0,72(sp)
   15a4a:	c682                	sw	zero,76(sp)
   15a4c:	c882                	sw	zero,80(sp)
   15a4e:	ca82                	sw	zero,84(sp)
   15a50:	6505                	lui	a0,0x1
   15a52:	4499                	li	s1,6
   15a54:	4811                	li	a6,4
   15a56:	4599                	li	a1,6
   15a58:	46550793          	addi	a5,a0,1125 # 1465 <.Lline_table_start1+0x123a>
   15a5c:	02b00693          	li	a3,43
   15a60:	4711                	li	a4,4
   15a62:	853e                	mv	a0,a5
   15a64:	00000073          	ecall
   15a68:	04850363          	beq	a0,s0,15aae <_ZN20complex_full_dynamic3app17hd3f154c1a4a73519E+0x92>
   15a6c:	853e                	mv	a0,a5
   15a6e:	4581                	li	a1,0
   15a70:	04c10993          	addi	s3,sp,76
   15a74:	c43e                	sw	a5,8(sp)
   15a76:	c626                	sw	s1,12(sp)
   15a78:	01010823          	sb	a6,16(sp)
   15a7c:	448d                	li	s1,3
   15a7e:	46b5                	li	a3,13
   15a80:	470d                	li	a4,3
   15a82:	864e                	mv	a2,s3
   15a84:	00000073          	ecall
   15a88:	02850363          	beq	a0,s0,15aae <_ZN20complex_full_dynamic3app17hd3f154c1a4a73519E+0x92>
   15a8c:	c0be                	sw	a5,64(sp)
   15a8e:	c282                	sw	zero,68(sp)
   15a90:	04910423          	sb	s1,72(sp)
   15a94:	6505                	lui	a0,0x1
   15a96:	4599                	li	a1,6
   15a98:	46550513          	addi	a0,a0,1125 # 1465 <.Lline_table_start1+0x123a>
   15a9c:	4709                	li	a4,2
   15a9e:	07f00793          	li	a5,127
   15aa2:	4601                	li	a2,0
   15aa4:	4681                	li	a3,0
   15aa6:	00000073          	ecall
   15aaa:	02a7e863          	bltu	a5,a0,15ada <_ZN20complex_full_dynamic3app17hd3f154c1a4a73519E+0xbe>
   15aae:	00b92223          	sw	a1,4(s2)
   15ab2:	4505                	li	a0,1
   15ab4:	00a90023          	sb	a0,0(s2)
   15ab8:	0088                	addi	a0,sp,64
   15aba:	00005097          	auipc	ra,0x5
   15abe:	42c080e7          	jalr	1068(ra) # 1aee6 <_ZN9allow_pin12full_dynamic17unshare_if_shared17h3494b15e905518bcE>
   15ac2:	0028                	addi	a0,sp,8
   15ac4:	00005097          	auipc	ra,0x5
   15ac8:	422080e7          	jalr	1058(ra) # 1aee6 <_ZN9allow_pin12full_dynamic17unshare_if_shared17h3494b15e905518bcE>
   15acc:	50b6                	lw	ra,108(sp)
   15ace:	5426                	lw	s0,104(sp)
   15ad0:	5496                	lw	s1,100(sp)
   15ad2:	5906                	lw	s2,96(sp)
   15ad4:	49f6                	lw	s3,92(sp)
   15ad6:	6165                	addi	sp,sp,112
   15ad8:	8082                	ret
   15ada:	0028                	addi	a0,sp,8
   15adc:	00005097          	auipc	ra,0x5
   15ae0:	40a080e7          	jalr	1034(ra) # 1aee6 <_ZN9allow_pin12full_dynamic17unshare_if_shared17h3494b15e905518bcE>
   15ae4:	0088                	addi	a0,sp,64
   15ae6:	00005097          	auipc	ra,0x5
   15aea:	400080e7          	jalr	1024(ra) # 1aee6 <_ZN9allow_pin12full_dynamic17unshare_if_shared17h3494b15e905518bcE>
   15aee:	0088                	addi	a0,sp,64
   15af0:	00005097          	auipc	ra,0x5
   15af4:	3f6080e7          	jalr	1014(ra) # 1aee6 <_ZN9allow_pin12full_dynamic17unshare_if_shared17h3494b15e905518bcE>
   15af8:	00190513          	addi	a0,s2,1
   15afc:	4635                	li	a2,13
   15afe:	85ce                	mv	a1,s3
   15b00:	00005097          	auipc	ra,0x5
   15b04:	472080e7          	jalr	1138(ra) # 1af72 <memcpy>
   15b08:	4501                	li	a0,0
   15b0a:	b76d                	j	15ab4 <_ZN20complex_full_dynamic3app17hd3f154c1a4a73519E+0x98>

00015b0c <_ZN20complex_full_dynamic3app17hd59e5250507b1533E>:
   15b0c:	7119                	addi	sp,sp,-128
   15b0e:	de86                	sw	ra,124(sp)
   15b10:	dca2                	sw	s0,120(sp)
   15b12:	daa6                	sw	s1,116(sp)
   15b14:	d8ca                	sw	s2,112(sp)
   15b16:	d6ce                	sw	s3,108(sp)
   15b18:	89aa                	mv	s3,a0
   15b1a:	4409                	li	s0,2
   15b1c:	00810423          	sb	s0,8(sp)
   15b20:	0064                	addi	s1,sp,12
   15b22:	02400613          	li	a2,36
   15b26:	8526                	mv	a0,s1
   15b28:	00005097          	auipc	ra,0x5
   15b2c:	44a080e7          	jalr	1098(ra) # 1af72 <memcpy>
   15b30:	03c10913          	addi	s2,sp,60
   15b34:	02f00613          	li	a2,47
   15b38:	854a                	mv	a0,s2
   15b3a:	4581                	li	a1,0
   15b3c:	00005097          	auipc	ra,0x5
   15b40:	3ca080e7          	jalr	970(ra) # 1af06 <memset>
   15b44:	8626                	mv	a2,s1
   15b46:	02810c23          	sb	s0,56(sp)
   15b4a:	6505                	lui	a0,0x1
   15b4c:	4499                	li	s1,6
   15b4e:	4811                	li	a6,4
   15b50:	4599                	li	a1,6
   15b52:	27350793          	addi	a5,a0,627 # 1273 <.Lline_table_start1+0x1048>
   15b56:	02400693          	li	a3,36
   15b5a:	4711                	li	a4,4
   15b5c:	853e                	mv	a0,a5
   15b5e:	00000073          	ecall
   15b62:	04850363          	beq	a0,s0,15ba8 <_ZN20complex_full_dynamic3app17hd59e5250507b1533E+0x9c>
   15b66:	853e                	mv	a0,a5
   15b68:	864a                	mv	a2,s2
   15b6a:	c03e                	sw	a5,0(sp)
   15b6c:	c226                	sw	s1,4(sp)
   15b6e:	01010423          	sb	a6,8(sp)
   15b72:	44a5                	li	s1,9
   15b74:	480d                	li	a6,3
   15b76:	45a5                	li	a1,9
   15b78:	02f00693          	li	a3,47
   15b7c:	470d                	li	a4,3
   15b7e:	00000073          	ecall
   15b82:	02850363          	beq	a0,s0,15ba8 <_ZN20complex_full_dynamic3app17hd59e5250507b1533E+0x9c>
   15b86:	d83e                	sw	a5,48(sp)
   15b88:	da26                	sw	s1,52(sp)
   15b8a:	03010c23          	sb	a6,56(sp)
   15b8e:	6505                	lui	a0,0x1
   15b90:	4599                	li	a1,6
   15b92:	4625                	li	a2,9
   15b94:	27350513          	addi	a0,a0,627 # 1273 <.Lline_table_start1+0x1048>
   15b98:	4709                	li	a4,2
   15b9a:	07f00793          	li	a5,127
   15b9e:	4681                	li	a3,0
   15ba0:	00000073          	ecall
   15ba4:	02a7e863          	bltu	a5,a0,15bd4 <_ZN20complex_full_dynamic3app17hd59e5250507b1533E+0xc8>
   15ba8:	00b9a223          	sw	a1,4(s3)
   15bac:	4505                	li	a0,1
   15bae:	00a98023          	sb	a0,0(s3)
   15bb2:	1808                	addi	a0,sp,48
   15bb4:	00005097          	auipc	ra,0x5
   15bb8:	332080e7          	jalr	818(ra) # 1aee6 <_ZN9allow_pin12full_dynamic17unshare_if_shared17h3494b15e905518bcE>
   15bbc:	850a                	mv	a0,sp
   15bbe:	00005097          	auipc	ra,0x5
   15bc2:	328080e7          	jalr	808(ra) # 1aee6 <_ZN9allow_pin12full_dynamic17unshare_if_shared17h3494b15e905518bcE>
   15bc6:	50f6                	lw	ra,124(sp)
   15bc8:	5466                	lw	s0,120(sp)
   15bca:	54d6                	lw	s1,116(sp)
   15bcc:	5946                	lw	s2,112(sp)
   15bce:	59b6                	lw	s3,108(sp)
   15bd0:	6109                	addi	sp,sp,128
   15bd2:	8082                	ret
   15bd4:	850a                	mv	a0,sp
   15bd6:	00005097          	auipc	ra,0x5
   15bda:	310080e7          	jalr	784(ra) # 1aee6 <_ZN9allow_pin12full_dynamic17unshare_if_shared17h3494b15e905518bcE>
   15bde:	1808                	addi	a0,sp,48
   15be0:	00005097          	auipc	ra,0x5
   15be4:	306080e7          	jalr	774(ra) # 1aee6 <_ZN9allow_pin12full_dynamic17unshare_if_shared17h3494b15e905518bcE>
   15be8:	1808                	addi	a0,sp,48
   15bea:	00005097          	auipc	ra,0x5
   15bee:	2fc080e7          	jalr	764(ra) # 1aee6 <_ZN9allow_pin12full_dynamic17unshare_if_shared17h3494b15e905518bcE>
   15bf2:	00198513          	addi	a0,s3,1
   15bf6:	02f00613          	li	a2,47
   15bfa:	85ca                	mv	a1,s2
   15bfc:	00005097          	auipc	ra,0x5
   15c00:	376080e7          	jalr	886(ra) # 1af72 <memcpy>
   15c04:	4501                	li	a0,0
   15c06:	b765                	j	15bae <_ZN20complex_full_dynamic3app17hd59e5250507b1533E+0xa2>

00015c08 <_ZN20complex_full_dynamic3app17hd71f3b402f3b46b6E>:
   15c08:	7171                	addi	sp,sp,-176
   15c0a:	d706                	sw	ra,172(sp)
   15c0c:	d522                	sw	s0,168(sp)
   15c0e:	d326                	sw	s1,164(sp)
   15c10:	d14a                	sw	s2,160(sp)
   15c12:	cf4e                	sw	s3,156(sp)
   15c14:	89aa                	mv	s3,a0
   15c16:	4409                	li	s0,2
   15c18:	00810a23          	sb	s0,20(sp)
   15c1c:	0824                	addi	s1,sp,24
   15c1e:	03200613          	li	a2,50
   15c22:	8526                	mv	a0,s1
   15c24:	00005097          	auipc	ra,0x5
   15c28:	34e080e7          	jalr	846(ra) # 1af72 <memcpy>
   15c2c:	05810913          	addi	s2,sp,88
   15c30:	04100613          	li	a2,65
   15c34:	854a                	mv	a0,s2
   15c36:	4581                	li	a1,0
   15c38:	00005097          	auipc	ra,0x5
   15c3c:	2ce080e7          	jalr	718(ra) # 1af06 <memset>
   15c40:	8626                	mv	a2,s1
   15c42:	04810a23          	sb	s0,84(sp)
   15c46:	6505                	lui	a0,0x1
   15c48:	449d                	li	s1,7
   15c4a:	4811                	li	a6,4
   15c4c:	459d                	li	a1,7
   15c4e:	91d50793          	addi	a5,a0,-1763 # 91d <.Lline_table_start1+0x6f2>
   15c52:	03200693          	li	a3,50
   15c56:	4711                	li	a4,4
   15c58:	853e                	mv	a0,a5
   15c5a:	00000073          	ecall
   15c5e:	04850363          	beq	a0,s0,15ca4 <_ZN20complex_full_dynamic3app17hd71f3b402f3b46b6E+0x9c>
   15c62:	853e                	mv	a0,a5
   15c64:	864a                	mv	a2,s2
   15c66:	c63e                	sw	a5,12(sp)
   15c68:	c826                	sw	s1,16(sp)
   15c6a:	01010a23          	sb	a6,20(sp)
   15c6e:	4495                	li	s1,5
   15c70:	480d                	li	a6,3
   15c72:	4595                	li	a1,5
   15c74:	04100693          	li	a3,65
   15c78:	470d                	li	a4,3
   15c7a:	00000073          	ecall
   15c7e:	02850363          	beq	a0,s0,15ca4 <_ZN20complex_full_dynamic3app17hd71f3b402f3b46b6E+0x9c>
   15c82:	c6be                	sw	a5,76(sp)
   15c84:	c8a6                	sw	s1,80(sp)
   15c86:	05010a23          	sb	a6,84(sp)
   15c8a:	6505                	lui	a0,0x1
   15c8c:	459d                	li	a1,7
   15c8e:	4615                	li	a2,5
   15c90:	91d50513          	addi	a0,a0,-1763 # 91d <.Lline_table_start1+0x6f2>
   15c94:	4709                	li	a4,2
   15c96:	07f00793          	li	a5,127
   15c9a:	4681                	li	a3,0
   15c9c:	00000073          	ecall
   15ca0:	02a7e863          	bltu	a5,a0,15cd0 <_ZN20complex_full_dynamic3app17hd71f3b402f3b46b6E+0xc8>
   15ca4:	00b9a223          	sw	a1,4(s3)
   15ca8:	4505                	li	a0,1
   15caa:	00a98023          	sb	a0,0(s3)
   15cae:	00e8                	addi	a0,sp,76
   15cb0:	00005097          	auipc	ra,0x5
   15cb4:	236080e7          	jalr	566(ra) # 1aee6 <_ZN9allow_pin12full_dynamic17unshare_if_shared17h3494b15e905518bcE>
   15cb8:	0068                	addi	a0,sp,12
   15cba:	00005097          	auipc	ra,0x5
   15cbe:	22c080e7          	jalr	556(ra) # 1aee6 <_ZN9allow_pin12full_dynamic17unshare_if_shared17h3494b15e905518bcE>
   15cc2:	50ba                	lw	ra,172(sp)
   15cc4:	542a                	lw	s0,168(sp)
   15cc6:	549a                	lw	s1,164(sp)
   15cc8:	590a                	lw	s2,160(sp)
   15cca:	49fa                	lw	s3,156(sp)
   15ccc:	614d                	addi	sp,sp,176
   15cce:	8082                	ret
   15cd0:	0068                	addi	a0,sp,12
   15cd2:	00005097          	auipc	ra,0x5
   15cd6:	214080e7          	jalr	532(ra) # 1aee6 <_ZN9allow_pin12full_dynamic17unshare_if_shared17h3494b15e905518bcE>
   15cda:	00e8                	addi	a0,sp,76
   15cdc:	00005097          	auipc	ra,0x5
   15ce0:	20a080e7          	jalr	522(ra) # 1aee6 <_ZN9allow_pin12full_dynamic17unshare_if_shared17h3494b15e905518bcE>
   15ce4:	00e8                	addi	a0,sp,76
   15ce6:	00005097          	auipc	ra,0x5
   15cea:	200080e7          	jalr	512(ra) # 1aee6 <_ZN9allow_pin12full_dynamic17unshare_if_shared17h3494b15e905518bcE>
   15cee:	00198513          	addi	a0,s3,1
   15cf2:	04100613          	li	a2,65
   15cf6:	85ca                	mv	a1,s2
   15cf8:	00005097          	auipc	ra,0x5
   15cfc:	27a080e7          	jalr	634(ra) # 1af72 <memcpy>
   15d00:	4501                	li	a0,0
   15d02:	b765                	j	15caa <_ZN20complex_full_dynamic3app17hd71f3b402f3b46b6E+0xa2>

00015d04 <_ZN20complex_full_dynamic3app17hd92f27b0fdb056b3E>:
   15d04:	7119                	addi	sp,sp,-128
   15d06:	de86                	sw	ra,124(sp)
   15d08:	dca2                	sw	s0,120(sp)
   15d0a:	daa6                	sw	s1,116(sp)
   15d0c:	d8ca                	sw	s2,112(sp)
   15d0e:	d6ce                	sw	s3,108(sp)
   15d10:	89aa                	mv	s3,a0
   15d12:	4409                	li	s0,2
   15d14:	00810623          	sb	s0,12(sp)
   15d18:	0804                	addi	s1,sp,16
   15d1a:	02100613          	li	a2,33
   15d1e:	8526                	mv	a0,s1
   15d20:	00005097          	auipc	ra,0x5
   15d24:	252080e7          	jalr	594(ra) # 1af72 <memcpy>
   15d28:	04010913          	addi	s2,sp,64
   15d2c:	02a00613          	li	a2,42
   15d30:	854a                	mv	a0,s2
   15d32:	4581                	li	a1,0
   15d34:	00005097          	auipc	ra,0x5
   15d38:	1d2080e7          	jalr	466(ra) # 1af06 <memset>
   15d3c:	8626                	mv	a2,s1
   15d3e:	02810e23          	sb	s0,60(sp)
   15d42:	6505                	lui	a0,0x1
   15d44:	4485                	li	s1,1
   15d46:	4811                	li	a6,4
   15d48:	4585                	li	a1,1
   15d4a:	5f350793          	addi	a5,a0,1523 # 15f3 <.Lline_table_start1+0x13c8>
   15d4e:	02100693          	li	a3,33
   15d52:	4711                	li	a4,4
   15d54:	853e                	mv	a0,a5
   15d56:	00000073          	ecall
   15d5a:	04850263          	beq	a0,s0,15d9e <_ZN20complex_full_dynamic3app17hd92f27b0fdb056b3E+0x9a>
   15d5e:	853e                	mv	a0,a5
   15d60:	864a                	mv	a2,s2
   15d62:	c23e                	sw	a5,4(sp)
   15d64:	c426                	sw	s1,8(sp)
   15d66:	01010623          	sb	a6,12(sp)
   15d6a:	448d                	li	s1,3
   15d6c:	458d                	li	a1,3
   15d6e:	02a00693          	li	a3,42
   15d72:	470d                	li	a4,3
   15d74:	00000073          	ecall
   15d78:	02850363          	beq	a0,s0,15d9e <_ZN20complex_full_dynamic3app17hd92f27b0fdb056b3E+0x9a>
   15d7c:	da3e                	sw	a5,52(sp)
   15d7e:	dc26                	sw	s1,56(sp)
   15d80:	02910e23          	sb	s1,60(sp)
   15d84:	6505                	lui	a0,0x1
   15d86:	4585                	li	a1,1
   15d88:	460d                	li	a2,3
   15d8a:	5f350513          	addi	a0,a0,1523 # 15f3 <.Lline_table_start1+0x13c8>
   15d8e:	4709                	li	a4,2
   15d90:	07f00793          	li	a5,127
   15d94:	4681                	li	a3,0
   15d96:	00000073          	ecall
   15d9a:	02a7e863          	bltu	a5,a0,15dca <_ZN20complex_full_dynamic3app17hd92f27b0fdb056b3E+0xc6>
   15d9e:	00b9a223          	sw	a1,4(s3)
   15da2:	4505                	li	a0,1
   15da4:	00a98023          	sb	a0,0(s3)
   15da8:	1848                	addi	a0,sp,52
   15daa:	00005097          	auipc	ra,0x5
   15dae:	13c080e7          	jalr	316(ra) # 1aee6 <_ZN9allow_pin12full_dynamic17unshare_if_shared17h3494b15e905518bcE>
   15db2:	0048                	addi	a0,sp,4
   15db4:	00005097          	auipc	ra,0x5
   15db8:	132080e7          	jalr	306(ra) # 1aee6 <_ZN9allow_pin12full_dynamic17unshare_if_shared17h3494b15e905518bcE>
   15dbc:	50f6                	lw	ra,124(sp)
   15dbe:	5466                	lw	s0,120(sp)
   15dc0:	54d6                	lw	s1,116(sp)
   15dc2:	5946                	lw	s2,112(sp)
   15dc4:	59b6                	lw	s3,108(sp)
   15dc6:	6109                	addi	sp,sp,128
   15dc8:	8082                	ret
   15dca:	0048                	addi	a0,sp,4
   15dcc:	00005097          	auipc	ra,0x5
   15dd0:	11a080e7          	jalr	282(ra) # 1aee6 <_ZN9allow_pin12full_dynamic17unshare_if_shared17h3494b15e905518bcE>
   15dd4:	1848                	addi	a0,sp,52
   15dd6:	00005097          	auipc	ra,0x5
   15dda:	110080e7          	jalr	272(ra) # 1aee6 <_ZN9allow_pin12full_dynamic17unshare_if_shared17h3494b15e905518bcE>
   15dde:	1848                	addi	a0,sp,52
   15de0:	00005097          	auipc	ra,0x5
   15de4:	106080e7          	jalr	262(ra) # 1aee6 <_ZN9allow_pin12full_dynamic17unshare_if_shared17h3494b15e905518bcE>
   15de8:	00198513          	addi	a0,s3,1
   15dec:	02a00613          	li	a2,42
   15df0:	85ca                	mv	a1,s2
   15df2:	00005097          	auipc	ra,0x5
   15df6:	180080e7          	jalr	384(ra) # 1af72 <memcpy>
   15dfa:	4501                	li	a0,0
   15dfc:	b765                	j	15da4 <_ZN20complex_full_dynamic3app17hd92f27b0fdb056b3E+0xa0>

00015dfe <_ZN20complex_full_dynamic3app17hdbd4f845757e883cE>:
   15dfe:	7119                	addi	sp,sp,-128
   15e00:	de86                	sw	ra,124(sp)
   15e02:	dca2                	sw	s0,120(sp)
   15e04:	daa6                	sw	s1,116(sp)
   15e06:	d8ca                	sw	s2,112(sp)
   15e08:	d6ce                	sw	s3,108(sp)
   15e0a:	892a                	mv	s2,a0
   15e0c:	4409                	li	s0,2
   15e0e:	00810a23          	sb	s0,20(sp)
   15e12:	0824                	addi	s1,sp,24
   15e14:	02900613          	li	a2,41
   15e18:	8526                	mv	a0,s1
   15e1a:	00005097          	auipc	ra,0x5
   15e1e:	158080e7          	jalr	344(ra) # 1af72 <memcpy>
   15e22:	8626                	mv	a2,s1
   15e24:	ce82                	sw	zero,92(sp)
   15e26:	d082                	sw	zero,96(sp)
   15e28:	d282                	sw	zero,100(sp)
   15e2a:	06011423          	sh	zero,104(sp)
   15e2e:	04810623          	sb	s0,76(sp)
   15e32:	c882                	sw	zero,80(sp)
   15e34:	ca82                	sw	zero,84(sp)
   15e36:	cc82                	sw	zero,88(sp)
   15e38:	6509                	lui	a0,0x2
   15e3a:	4495                	li	s1,5
   15e3c:	4811                	li	a6,4
   15e3e:	4595                	li	a1,5
   15e40:	04850793          	addi	a5,a0,72 # 2048 <.Lline_table_start1+0x1e1d>
   15e44:	02900693          	li	a3,41
   15e48:	4711                	li	a4,4
   15e4a:	853e                	mv	a0,a5
   15e4c:	00000073          	ecall
   15e50:	04850363          	beq	a0,s0,15e96 <_ZN20complex_full_dynamic3app17hdbd4f845757e883cE+0x98>
   15e54:	853e                	mv	a0,a5
   15e56:	05010993          	addi	s3,sp,80
   15e5a:	c63e                	sw	a5,12(sp)
   15e5c:	c826                	sw	s1,16(sp)
   15e5e:	01010a23          	sb	a6,20(sp)
   15e62:	448d                	li	s1,3
   15e64:	458d                	li	a1,3
   15e66:	46e9                	li	a3,26
   15e68:	470d                	li	a4,3
   15e6a:	864e                	mv	a2,s3
   15e6c:	00000073          	ecall
   15e70:	02850363          	beq	a0,s0,15e96 <_ZN20complex_full_dynamic3app17hdbd4f845757e883cE+0x98>
   15e74:	c2be                	sw	a5,68(sp)
   15e76:	c4a6                	sw	s1,72(sp)
   15e78:	04910623          	sb	s1,76(sp)
   15e7c:	6509                	lui	a0,0x2
   15e7e:	4595                	li	a1,5
   15e80:	460d                	li	a2,3
   15e82:	04850513          	addi	a0,a0,72 # 2048 <.Lline_table_start1+0x1e1d>
   15e86:	4709                	li	a4,2
   15e88:	07f00793          	li	a5,127
   15e8c:	4681                	li	a3,0
   15e8e:	00000073          	ecall
   15e92:	02a7e863          	bltu	a5,a0,15ec2 <_ZN20complex_full_dynamic3app17hdbd4f845757e883cE+0xc4>
   15e96:	00b92223          	sw	a1,4(s2)
   15e9a:	4505                	li	a0,1
   15e9c:	00a90023          	sb	a0,0(s2)
   15ea0:	00c8                	addi	a0,sp,68
   15ea2:	00005097          	auipc	ra,0x5
   15ea6:	044080e7          	jalr	68(ra) # 1aee6 <_ZN9allow_pin12full_dynamic17unshare_if_shared17h3494b15e905518bcE>
   15eaa:	0068                	addi	a0,sp,12
   15eac:	00005097          	auipc	ra,0x5
   15eb0:	03a080e7          	jalr	58(ra) # 1aee6 <_ZN9allow_pin12full_dynamic17unshare_if_shared17h3494b15e905518bcE>
   15eb4:	50f6                	lw	ra,124(sp)
   15eb6:	5466                	lw	s0,120(sp)
   15eb8:	54d6                	lw	s1,116(sp)
   15eba:	5946                	lw	s2,112(sp)
   15ebc:	59b6                	lw	s3,108(sp)
   15ebe:	6109                	addi	sp,sp,128
   15ec0:	8082                	ret
   15ec2:	0068                	addi	a0,sp,12
   15ec4:	00005097          	auipc	ra,0x5
   15ec8:	022080e7          	jalr	34(ra) # 1aee6 <_ZN9allow_pin12full_dynamic17unshare_if_shared17h3494b15e905518bcE>
   15ecc:	00c8                	addi	a0,sp,68
   15ece:	00005097          	auipc	ra,0x5
   15ed2:	018080e7          	jalr	24(ra) # 1aee6 <_ZN9allow_pin12full_dynamic17unshare_if_shared17h3494b15e905518bcE>
   15ed6:	00c8                	addi	a0,sp,68
   15ed8:	00005097          	auipc	ra,0x5
   15edc:	00e080e7          	jalr	14(ra) # 1aee6 <_ZN9allow_pin12full_dynamic17unshare_if_shared17h3494b15e905518bcE>
   15ee0:	00190513          	addi	a0,s2,1
   15ee4:	4669                	li	a2,26
   15ee6:	85ce                	mv	a1,s3
   15ee8:	00005097          	auipc	ra,0x5
   15eec:	08a080e7          	jalr	138(ra) # 1af72 <memcpy>
   15ef0:	4501                	li	a0,0
   15ef2:	b76d                	j	15e9c <_ZN20complex_full_dynamic3app17hdbd4f845757e883cE+0x9e>

00015ef4 <_ZN20complex_full_dynamic3app17hde56323af6ccb5deE>:
   15ef4:	7135                	addi	sp,sp,-160
   15ef6:	cf06                	sw	ra,156(sp)
   15ef8:	cd22                	sw	s0,152(sp)
   15efa:	cb26                	sw	s1,148(sp)
   15efc:	c94a                	sw	s2,144(sp)
   15efe:	c74e                	sw	s3,140(sp)
   15f00:	89aa                	mv	s3,a0
   15f02:	4409                	li	s0,2
   15f04:	00810a23          	sb	s0,20(sp)
   15f08:	0824                	addi	s1,sp,24
   15f0a:	04100613          	li	a2,65
   15f0e:	8526                	mv	a0,s1
   15f10:	00005097          	auipc	ra,0x5
   15f14:	062080e7          	jalr	98(ra) # 1af72 <memcpy>
   15f18:	06810913          	addi	s2,sp,104
   15f1c:	02200613          	li	a2,34
   15f20:	854a                	mv	a0,s2
   15f22:	4581                	li	a1,0
   15f24:	00005097          	auipc	ra,0x5
   15f28:	fe2080e7          	jalr	-30(ra) # 1af06 <memset>
   15f2c:	8626                	mv	a2,s1
   15f2e:	06810223          	sb	s0,100(sp)
   15f32:	6509                	lui	a0,0x2
   15f34:	4485                	li	s1,1
   15f36:	4811                	li	a6,4
   15f38:	4585                	li	a1,1
   15f3a:	47c50793          	addi	a5,a0,1148 # 247c <.Lline_table_start1+0x2251>
   15f3e:	04100693          	li	a3,65
   15f42:	4711                	li	a4,4
   15f44:	853e                	mv	a0,a5
   15f46:	00000073          	ecall
   15f4a:	04850263          	beq	a0,s0,15f8e <_ZN20complex_full_dynamic3app17hde56323af6ccb5deE+0x9a>
   15f4e:	853e                	mv	a0,a5
   15f50:	4581                	li	a1,0
   15f52:	864a                	mv	a2,s2
   15f54:	c63e                	sw	a5,12(sp)
   15f56:	c826                	sw	s1,16(sp)
   15f58:	01010a23          	sb	a6,20(sp)
   15f5c:	448d                	li	s1,3
   15f5e:	02200693          	li	a3,34
   15f62:	470d                	li	a4,3
   15f64:	00000073          	ecall
   15f68:	02850363          	beq	a0,s0,15f8e <_ZN20complex_full_dynamic3app17hde56323af6ccb5deE+0x9a>
   15f6c:	cebe                	sw	a5,92(sp)
   15f6e:	d082                	sw	zero,96(sp)
   15f70:	06910223          	sb	s1,100(sp)
   15f74:	6509                	lui	a0,0x2
   15f76:	4585                	li	a1,1
   15f78:	47c50513          	addi	a0,a0,1148 # 247c <.Lline_table_start1+0x2251>
   15f7c:	4709                	li	a4,2
   15f7e:	07f00793          	li	a5,127
   15f82:	4601                	li	a2,0
   15f84:	4681                	li	a3,0
   15f86:	00000073          	ecall
   15f8a:	02a7e863          	bltu	a5,a0,15fba <_ZN20complex_full_dynamic3app17hde56323af6ccb5deE+0xc6>
   15f8e:	00b9a223          	sw	a1,4(s3)
   15f92:	4505                	li	a0,1
   15f94:	00a98023          	sb	a0,0(s3)
   15f98:	08e8                	addi	a0,sp,92
   15f9a:	00005097          	auipc	ra,0x5
   15f9e:	f4c080e7          	jalr	-180(ra) # 1aee6 <_ZN9allow_pin12full_dynamic17unshare_if_shared17h3494b15e905518bcE>
   15fa2:	0068                	addi	a0,sp,12
   15fa4:	00005097          	auipc	ra,0x5
   15fa8:	f42080e7          	jalr	-190(ra) # 1aee6 <_ZN9allow_pin12full_dynamic17unshare_if_shared17h3494b15e905518bcE>
   15fac:	40fa                	lw	ra,156(sp)
   15fae:	446a                	lw	s0,152(sp)
   15fb0:	44da                	lw	s1,148(sp)
   15fb2:	494a                	lw	s2,144(sp)
   15fb4:	49ba                	lw	s3,140(sp)
   15fb6:	610d                	addi	sp,sp,160
   15fb8:	8082                	ret
   15fba:	0068                	addi	a0,sp,12
   15fbc:	00005097          	auipc	ra,0x5
   15fc0:	f2a080e7          	jalr	-214(ra) # 1aee6 <_ZN9allow_pin12full_dynamic17unshare_if_shared17h3494b15e905518bcE>
   15fc4:	08e8                	addi	a0,sp,92
   15fc6:	00005097          	auipc	ra,0x5
   15fca:	f20080e7          	jalr	-224(ra) # 1aee6 <_ZN9allow_pin12full_dynamic17unshare_if_shared17h3494b15e905518bcE>
   15fce:	08e8                	addi	a0,sp,92
   15fd0:	00005097          	auipc	ra,0x5
   15fd4:	f16080e7          	jalr	-234(ra) # 1aee6 <_ZN9allow_pin12full_dynamic17unshare_if_shared17h3494b15e905518bcE>
   15fd8:	00198513          	addi	a0,s3,1
   15fdc:	02200613          	li	a2,34
   15fe0:	85ca                	mv	a1,s2
   15fe2:	00005097          	auipc	ra,0x5
   15fe6:	f90080e7          	jalr	-112(ra) # 1af72 <memcpy>
   15fea:	4501                	li	a0,0
   15fec:	b765                	j	15f94 <_ZN20complex_full_dynamic3app17hde56323af6ccb5deE+0xa0>

00015fee <_ZN20complex_full_dynamic3app17he33e00a66a130db6E>:
   15fee:	7175                	addi	sp,sp,-144
   15ff0:	c706                	sw	ra,140(sp)
   15ff2:	c522                	sw	s0,136(sp)
   15ff4:	c326                	sw	s1,132(sp)
   15ff6:	c14a                	sw	s2,128(sp)
   15ff8:	dece                	sw	s3,124(sp)
   15ffa:	89aa                	mv	s3,a0
   15ffc:	4409                	li	s0,2
   15ffe:	00810a23          	sb	s0,20(sp)
   16002:	0824                	addi	s1,sp,24
   16004:	4649                	li	a2,18
   16006:	8526                	mv	a0,s1
   16008:	00005097          	auipc	ra,0x5
   1600c:	f6a080e7          	jalr	-150(ra) # 1af72 <memcpy>
   16010:	03810913          	addi	s2,sp,56
   16014:	04400613          	li	a2,68
   16018:	854a                	mv	a0,s2
   1601a:	4581                	li	a1,0
   1601c:	00005097          	auipc	ra,0x5
   16020:	eea080e7          	jalr	-278(ra) # 1af06 <memset>
   16024:	8626                	mv	a2,s1
   16026:	02810a23          	sb	s0,52(sp)
   1602a:	6509                	lui	a0,0x2
   1602c:	4491                	li	s1,4
   1602e:	4589                	li	a1,2
   16030:	43250793          	addi	a5,a0,1074 # 2432 <.Lline_table_start1+0x2207>
   16034:	46c9                	li	a3,18
   16036:	4711                	li	a4,4
   16038:	853e                	mv	a0,a5
   1603a:	00000073          	ecall
   1603e:	04850363          	beq	a0,s0,16084 <_ZN20complex_full_dynamic3app17he33e00a66a130db6E+0x96>
   16042:	853e                	mv	a0,a5
   16044:	864a                	mv	a2,s2
   16046:	c63e                	sw	a5,12(sp)
   16048:	c822                	sw	s0,16(sp)
   1604a:	00910a23          	sb	s1,20(sp)
   1604e:	44a5                	li	s1,9
   16050:	480d                	li	a6,3
   16052:	45a5                	li	a1,9
   16054:	04400693          	li	a3,68
   16058:	470d                	li	a4,3
   1605a:	00000073          	ecall
   1605e:	02850363          	beq	a0,s0,16084 <_ZN20complex_full_dynamic3app17he33e00a66a130db6E+0x96>
   16062:	d63e                	sw	a5,44(sp)
   16064:	d826                	sw	s1,48(sp)
   16066:	03010a23          	sb	a6,52(sp)
   1606a:	6509                	lui	a0,0x2
   1606c:	4589                	li	a1,2
   1606e:	4625                	li	a2,9
   16070:	43250513          	addi	a0,a0,1074 # 2432 <.Lline_table_start1+0x2207>
   16074:	4709                	li	a4,2
   16076:	07f00793          	li	a5,127
   1607a:	4681                	li	a3,0
   1607c:	00000073          	ecall
   16080:	02a7e863          	bltu	a5,a0,160b0 <_ZN20complex_full_dynamic3app17he33e00a66a130db6E+0xc2>
   16084:	00b9a223          	sw	a1,4(s3)
   16088:	4505                	li	a0,1
   1608a:	00a98023          	sb	a0,0(s3)
   1608e:	1068                	addi	a0,sp,44
   16090:	00005097          	auipc	ra,0x5
   16094:	e56080e7          	jalr	-426(ra) # 1aee6 <_ZN9allow_pin12full_dynamic17unshare_if_shared17h3494b15e905518bcE>
   16098:	0068                	addi	a0,sp,12
   1609a:	00005097          	auipc	ra,0x5
   1609e:	e4c080e7          	jalr	-436(ra) # 1aee6 <_ZN9allow_pin12full_dynamic17unshare_if_shared17h3494b15e905518bcE>
   160a2:	40ba                	lw	ra,140(sp)
   160a4:	442a                	lw	s0,136(sp)
   160a6:	449a                	lw	s1,132(sp)
   160a8:	490a                	lw	s2,128(sp)
   160aa:	59f6                	lw	s3,124(sp)
   160ac:	6149                	addi	sp,sp,144
   160ae:	8082                	ret
   160b0:	0068                	addi	a0,sp,12
   160b2:	00005097          	auipc	ra,0x5
   160b6:	e34080e7          	jalr	-460(ra) # 1aee6 <_ZN9allow_pin12full_dynamic17unshare_if_shared17h3494b15e905518bcE>
   160ba:	1068                	addi	a0,sp,44
   160bc:	00005097          	auipc	ra,0x5
   160c0:	e2a080e7          	jalr	-470(ra) # 1aee6 <_ZN9allow_pin12full_dynamic17unshare_if_shared17h3494b15e905518bcE>
   160c4:	1068                	addi	a0,sp,44
   160c6:	00005097          	auipc	ra,0x5
   160ca:	e20080e7          	jalr	-480(ra) # 1aee6 <_ZN9allow_pin12full_dynamic17unshare_if_shared17h3494b15e905518bcE>
   160ce:	00198513          	addi	a0,s3,1
   160d2:	04400613          	li	a2,68
   160d6:	85ca                	mv	a1,s2
   160d8:	00005097          	auipc	ra,0x5
   160dc:	e9a080e7          	jalr	-358(ra) # 1af72 <memcpy>
   160e0:	4501                	li	a0,0
   160e2:	b765                	j	1608a <_ZN20complex_full_dynamic3app17he33e00a66a130db6E+0x9c>

000160e4 <_ZN20complex_full_dynamic3app17he43da2a95339caaeE>:
   160e4:	7135                	addi	sp,sp,-160
   160e6:	cf06                	sw	ra,156(sp)
   160e8:	cd22                	sw	s0,152(sp)
   160ea:	cb26                	sw	s1,148(sp)
   160ec:	c94a                	sw	s2,144(sp)
   160ee:	c74e                	sw	s3,140(sp)
   160f0:	89aa                	mv	s3,a0
   160f2:	4409                	li	s0,2
   160f4:	00810a23          	sb	s0,20(sp)
   160f8:	0824                	addi	s1,sp,24
   160fa:	03c00613          	li	a2,60
   160fe:	8526                	mv	a0,s1
   16100:	00005097          	auipc	ra,0x5
   16104:	e72080e7          	jalr	-398(ra) # 1af72 <memcpy>
   16108:	06010913          	addi	s2,sp,96
   1610c:	02c00613          	li	a2,44
   16110:	854a                	mv	a0,s2
   16112:	4581                	li	a1,0
   16114:	00005097          	auipc	ra,0x5
   16118:	df2080e7          	jalr	-526(ra) # 1af06 <memset>
   1611c:	8626                	mv	a2,s1
   1611e:	04810e23          	sb	s0,92(sp)
   16122:	6509                	lui	a0,0x2
   16124:	4495                	li	s1,5
   16126:	4811                	li	a6,4
   16128:	4595                	li	a1,5
   1612a:	eac50793          	addi	a5,a0,-340 # 1eac <.Lline_table_start1+0x1c81>
   1612e:	03c00693          	li	a3,60
   16132:	4711                	li	a4,4
   16134:	853e                	mv	a0,a5
   16136:	00000073          	ecall
   1613a:	04850363          	beq	a0,s0,16180 <_ZN20complex_full_dynamic3app17he43da2a95339caaeE+0x9c>
   1613e:	853e                	mv	a0,a5
   16140:	864a                	mv	a2,s2
   16142:	c63e                	sw	a5,12(sp)
   16144:	c826                	sw	s1,16(sp)
   16146:	01010a23          	sb	a6,20(sp)
   1614a:	449d                	li	s1,7
   1614c:	480d                	li	a6,3
   1614e:	459d                	li	a1,7
   16150:	02c00693          	li	a3,44
   16154:	470d                	li	a4,3
   16156:	00000073          	ecall
   1615a:	02850363          	beq	a0,s0,16180 <_ZN20complex_full_dynamic3app17he43da2a95339caaeE+0x9c>
   1615e:	cabe                	sw	a5,84(sp)
   16160:	cca6                	sw	s1,88(sp)
   16162:	05010e23          	sb	a6,92(sp)
   16166:	6509                	lui	a0,0x2
   16168:	4595                	li	a1,5
   1616a:	461d                	li	a2,7
   1616c:	eac50513          	addi	a0,a0,-340 # 1eac <.Lline_table_start1+0x1c81>
   16170:	4709                	li	a4,2
   16172:	07f00793          	li	a5,127
   16176:	4681                	li	a3,0
   16178:	00000073          	ecall
   1617c:	02a7e863          	bltu	a5,a0,161ac <_ZN20complex_full_dynamic3app17he43da2a95339caaeE+0xc8>
   16180:	00b9a223          	sw	a1,4(s3)
   16184:	4505                	li	a0,1
   16186:	00a98023          	sb	a0,0(s3)
   1618a:	08c8                	addi	a0,sp,84
   1618c:	00005097          	auipc	ra,0x5
   16190:	d5a080e7          	jalr	-678(ra) # 1aee6 <_ZN9allow_pin12full_dynamic17unshare_if_shared17h3494b15e905518bcE>
   16194:	0068                	addi	a0,sp,12
   16196:	00005097          	auipc	ra,0x5
   1619a:	d50080e7          	jalr	-688(ra) # 1aee6 <_ZN9allow_pin12full_dynamic17unshare_if_shared17h3494b15e905518bcE>
   1619e:	40fa                	lw	ra,156(sp)
   161a0:	446a                	lw	s0,152(sp)
   161a2:	44da                	lw	s1,148(sp)
   161a4:	494a                	lw	s2,144(sp)
   161a6:	49ba                	lw	s3,140(sp)
   161a8:	610d                	addi	sp,sp,160
   161aa:	8082                	ret
   161ac:	0068                	addi	a0,sp,12
   161ae:	00005097          	auipc	ra,0x5
   161b2:	d38080e7          	jalr	-712(ra) # 1aee6 <_ZN9allow_pin12full_dynamic17unshare_if_shared17h3494b15e905518bcE>
   161b6:	08c8                	addi	a0,sp,84
   161b8:	00005097          	auipc	ra,0x5
   161bc:	d2e080e7          	jalr	-722(ra) # 1aee6 <_ZN9allow_pin12full_dynamic17unshare_if_shared17h3494b15e905518bcE>
   161c0:	08c8                	addi	a0,sp,84
   161c2:	00005097          	auipc	ra,0x5
   161c6:	d24080e7          	jalr	-732(ra) # 1aee6 <_ZN9allow_pin12full_dynamic17unshare_if_shared17h3494b15e905518bcE>
   161ca:	00198513          	addi	a0,s3,1
   161ce:	02c00613          	li	a2,44
   161d2:	85ca                	mv	a1,s2
   161d4:	00005097          	auipc	ra,0x5
   161d8:	d9e080e7          	jalr	-610(ra) # 1af72 <memcpy>
   161dc:	4501                	li	a0,0
   161de:	b765                	j	16186 <_ZN20complex_full_dynamic3app17he43da2a95339caaeE+0xa2>

000161e0 <_ZN20complex_full_dynamic3app17he87e30e272470456E>:
   161e0:	7131                	addi	sp,sp,-192
   161e2:	df06                	sw	ra,188(sp)
   161e4:	dd22                	sw	s0,184(sp)
   161e6:	db26                	sw	s1,180(sp)
   161e8:	d94a                	sw	s2,176(sp)
   161ea:	d74e                	sw	s3,172(sp)
   161ec:	89aa                	mv	s3,a0
   161ee:	4409                	li	s0,2
   161f0:	00810623          	sb	s0,12(sp)
   161f4:	0804                	addi	s1,sp,16
   161f6:	06300613          	li	a2,99
   161fa:	8526                	mv	a0,s1
   161fc:	00005097          	auipc	ra,0x5
   16200:	d76080e7          	jalr	-650(ra) # 1af72 <memcpy>
   16204:	08010913          	addi	s2,sp,128
   16208:	02c00613          	li	a2,44
   1620c:	854a                	mv	a0,s2
   1620e:	4581                	li	a1,0
   16210:	00005097          	auipc	ra,0x5
   16214:	cf6080e7          	jalr	-778(ra) # 1af06 <memset>
   16218:	8626                	mv	a2,s1
   1621a:	06810e23          	sb	s0,124(sp)
   1621e:	47e1                	li	a5,24
   16220:	4495                	li	s1,5
   16222:	4811                	li	a6,4
   16224:	4561                	li	a0,24
   16226:	4595                	li	a1,5
   16228:	06300693          	li	a3,99
   1622c:	4711                	li	a4,4
   1622e:	00000073          	ecall
   16232:	04850163          	beq	a0,s0,16274 <_ZN20complex_full_dynamic3app17he87e30e272470456E+0x94>
   16236:	864a                	mv	a2,s2
   16238:	c23e                	sw	a5,4(sp)
   1623a:	c426                	sw	s1,8(sp)
   1623c:	01010623          	sb	a6,12(sp)
   16240:	478d                	li	a5,3
   16242:	4561                	li	a0,24
   16244:	458d                	li	a1,3
   16246:	02c00693          	li	a3,44
   1624a:	470d                	li	a4,3
   1624c:	00000073          	ecall
   16250:	02850263          	beq	a0,s0,16274 <_ZN20complex_full_dynamic3app17he87e30e272470456E+0x94>
   16254:	46e1                	li	a3,24
   16256:	4561                	li	a0,24
   16258:	4595                	li	a1,5
   1625a:	460d                	li	a2,3
   1625c:	4709                	li	a4,2
   1625e:	07f00493          	li	s1,127
   16262:	dab6                	sw	a3,116(sp)
   16264:	dcbe                	sw	a5,120(sp)
   16266:	06f10e23          	sb	a5,124(sp)
   1626a:	4681                	li	a3,0
   1626c:	00000073          	ecall
   16270:	02a4e863          	bltu	s1,a0,162a0 <_ZN20complex_full_dynamic3app17he87e30e272470456E+0xc0>
   16274:	00b9a223          	sw	a1,4(s3)
   16278:	4505                	li	a0,1
   1627a:	00a98023          	sb	a0,0(s3)
   1627e:	18c8                	addi	a0,sp,116
   16280:	00005097          	auipc	ra,0x5
   16284:	c66080e7          	jalr	-922(ra) # 1aee6 <_ZN9allow_pin12full_dynamic17unshare_if_shared17h3494b15e905518bcE>
   16288:	0048                	addi	a0,sp,4
   1628a:	00005097          	auipc	ra,0x5
   1628e:	c5c080e7          	jalr	-932(ra) # 1aee6 <_ZN9allow_pin12full_dynamic17unshare_if_shared17h3494b15e905518bcE>
   16292:	50fa                	lw	ra,188(sp)
   16294:	546a                	lw	s0,184(sp)
   16296:	54da                	lw	s1,180(sp)
   16298:	594a                	lw	s2,176(sp)
   1629a:	59ba                	lw	s3,172(sp)
   1629c:	6129                	addi	sp,sp,192
   1629e:	8082                	ret
   162a0:	0048                	addi	a0,sp,4
   162a2:	00005097          	auipc	ra,0x5
   162a6:	c44080e7          	jalr	-956(ra) # 1aee6 <_ZN9allow_pin12full_dynamic17unshare_if_shared17h3494b15e905518bcE>
   162aa:	18c8                	addi	a0,sp,116
   162ac:	00005097          	auipc	ra,0x5
   162b0:	c3a080e7          	jalr	-966(ra) # 1aee6 <_ZN9allow_pin12full_dynamic17unshare_if_shared17h3494b15e905518bcE>
   162b4:	18c8                	addi	a0,sp,116
   162b6:	00005097          	auipc	ra,0x5
   162ba:	c30080e7          	jalr	-976(ra) # 1aee6 <_ZN9allow_pin12full_dynamic17unshare_if_shared17h3494b15e905518bcE>
   162be:	00198513          	addi	a0,s3,1
   162c2:	02c00613          	li	a2,44
   162c6:	85ca                	mv	a1,s2
   162c8:	00005097          	auipc	ra,0x5
   162cc:	caa080e7          	jalr	-854(ra) # 1af72 <memcpy>
   162d0:	4501                	li	a0,0
   162d2:	b765                	j	1627a <_ZN20complex_full_dynamic3app17he87e30e272470456E+0x9a>

000162d4 <_ZN20complex_full_dynamic3app17he9afd536c594dc66E>:
   162d4:	7159                	addi	sp,sp,-112
   162d6:	d686                	sw	ra,108(sp)
   162d8:	d4a2                	sw	s0,104(sp)
   162da:	d2a6                	sw	s1,100(sp)
   162dc:	d0ca                	sw	s2,96(sp)
   162de:	cece                	sw	s3,92(sp)
   162e0:	892a                	mv	s2,a0
   162e2:	4409                	li	s0,2
   162e4:	00810a23          	sb	s0,20(sp)
   162e8:	0824                	addi	s1,sp,24
   162ea:	4669                	li	a2,26
   162ec:	8526                	mv	a0,s1
   162ee:	00005097          	auipc	ra,0x5
   162f2:	c84080e7          	jalr	-892(ra) # 1af72 <memcpy>
   162f6:	8626                	mv	a2,s1
   162f8:	04010d23          	sb	zero,90(sp)
   162fc:	c682                	sw	zero,76(sp)
   162fe:	c882                	sw	zero,80(sp)
   16300:	ca82                	sw	zero,84(sp)
   16302:	04011c23          	sh	zero,88(sp)
   16306:	02810e23          	sb	s0,60(sp)
   1630a:	c082                	sw	zero,64(sp)
   1630c:	c282                	sw	zero,68(sp)
   1630e:	c482                	sw	zero,72(sp)
   16310:	6509                	lui	a0,0x2
   16312:	4495                	li	s1,5
   16314:	4811                	li	a6,4
   16316:	4595                	li	a1,5
   16318:	cce50793          	addi	a5,a0,-818 # 1cce <.Lline_table_start1+0x1aa3>
   1631c:	46e9                	li	a3,26
   1631e:	4711                	li	a4,4
   16320:	853e                	mv	a0,a5
   16322:	00000073          	ecall
   16326:	04850463          	beq	a0,s0,1636e <_ZN20complex_full_dynamic3app17he9afd536c594dc66E+0x9a>
   1632a:	853e                	mv	a0,a5
   1632c:	04010993          	addi	s3,sp,64
   16330:	c63e                	sw	a5,12(sp)
   16332:	c826                	sw	s1,16(sp)
   16334:	01010a23          	sb	a6,20(sp)
   16338:	448d                	li	s1,3
   1633a:	4589                	li	a1,2
   1633c:	46ed                	li	a3,27
   1633e:	470d                	li	a4,3
   16340:	864e                	mv	a2,s3
   16342:	00000073          	ecall
   16346:	02850463          	beq	a0,s0,1636e <_ZN20complex_full_dynamic3app17he9afd536c594dc66E+0x9a>
   1634a:	4509                	li	a0,2
   1634c:	6689                	lui	a3,0x2
   1634e:	4595                	li	a1,5
   16350:	4609                	li	a2,2
   16352:	da3e                	sw	a5,52(sp)
   16354:	dc2a                	sw	a0,56(sp)
   16356:	02910e23          	sb	s1,60(sp)
   1635a:	cce68513          	addi	a0,a3,-818 # 1cce <.Lline_table_start1+0x1aa3>
   1635e:	4709                	li	a4,2
   16360:	07f00793          	li	a5,127
   16364:	4681                	li	a3,0
   16366:	00000073          	ecall
   1636a:	02a7e863          	bltu	a5,a0,1639a <_ZN20complex_full_dynamic3app17he9afd536c594dc66E+0xc6>
   1636e:	00b92223          	sw	a1,4(s2)
   16372:	4505                	li	a0,1
   16374:	00a90023          	sb	a0,0(s2)
   16378:	1848                	addi	a0,sp,52
   1637a:	00005097          	auipc	ra,0x5
   1637e:	b6c080e7          	jalr	-1172(ra) # 1aee6 <_ZN9allow_pin12full_dynamic17unshare_if_shared17h3494b15e905518bcE>
   16382:	0068                	addi	a0,sp,12
   16384:	00005097          	auipc	ra,0x5
   16388:	b62080e7          	jalr	-1182(ra) # 1aee6 <_ZN9allow_pin12full_dynamic17unshare_if_shared17h3494b15e905518bcE>
   1638c:	50b6                	lw	ra,108(sp)
   1638e:	5426                	lw	s0,104(sp)
   16390:	5496                	lw	s1,100(sp)
   16392:	5906                	lw	s2,96(sp)
   16394:	49f6                	lw	s3,92(sp)
   16396:	6165                	addi	sp,sp,112
   16398:	8082                	ret
   1639a:	0068                	addi	a0,sp,12
   1639c:	00005097          	auipc	ra,0x5
   163a0:	b4a080e7          	jalr	-1206(ra) # 1aee6 <_ZN9allow_pin12full_dynamic17unshare_if_shared17h3494b15e905518bcE>
   163a4:	1848                	addi	a0,sp,52
   163a6:	00005097          	auipc	ra,0x5
   163aa:	b40080e7          	jalr	-1216(ra) # 1aee6 <_ZN9allow_pin12full_dynamic17unshare_if_shared17h3494b15e905518bcE>
   163ae:	1848                	addi	a0,sp,52
   163b0:	00005097          	auipc	ra,0x5
   163b4:	b36080e7          	jalr	-1226(ra) # 1aee6 <_ZN9allow_pin12full_dynamic17unshare_if_shared17h3494b15e905518bcE>
   163b8:	00190513          	addi	a0,s2,1
   163bc:	466d                	li	a2,27
   163be:	85ce                	mv	a1,s3
   163c0:	00005097          	auipc	ra,0x5
   163c4:	bb2080e7          	jalr	-1102(ra) # 1af72 <memcpy>
   163c8:	4501                	li	a0,0
   163ca:	b76d                	j	16374 <_ZN20complex_full_dynamic3app17he9afd536c594dc66E+0xa0>

000163cc <_ZN20complex_full_dynamic3app17heb2d9d80c393382bE>:
   163cc:	7135                	addi	sp,sp,-160
   163ce:	cf06                	sw	ra,156(sp)
   163d0:	cd22                	sw	s0,152(sp)
   163d2:	cb26                	sw	s1,148(sp)
   163d4:	c94a                	sw	s2,144(sp)
   163d6:	c74e                	sw	s3,140(sp)
   163d8:	89aa                	mv	s3,a0
   163da:	4409                	li	s0,2
   163dc:	00810423          	sb	s0,8(sp)
   163e0:	0064                	addi	s1,sp,12
   163e2:	04800613          	li	a2,72
   163e6:	8526                	mv	a0,s1
   163e8:	00005097          	auipc	ra,0x5
   163ec:	b8a080e7          	jalr	-1142(ra) # 1af72 <memcpy>
   163f0:	06010913          	addi	s2,sp,96
   163f4:	02900613          	li	a2,41
   163f8:	854a                	mv	a0,s2
   163fa:	4581                	li	a1,0
   163fc:	00005097          	auipc	ra,0x5
   16400:	b0a080e7          	jalr	-1270(ra) # 1af06 <memset>
   16404:	8626                	mv	a2,s1
   16406:	04810e23          	sb	s0,92(sp)
   1640a:	6509                	lui	a0,0x2
   1640c:	448d                	li	s1,3
   1640e:	4811                	li	a6,4
   16410:	458d                	li	a1,3
   16412:	6a450793          	addi	a5,a0,1700 # 26a4 <.Lline_table_start1+0x2479>
   16416:	04800693          	li	a3,72
   1641a:	4711                	li	a4,4
   1641c:	853e                	mv	a0,a5
   1641e:	00000073          	ecall
   16422:	04850363          	beq	a0,s0,16468 <_ZN20complex_full_dynamic3app17heb2d9d80c393382bE+0x9c>
   16426:	c03e                	sw	a5,0(sp)
   16428:	c226                	sw	s1,4(sp)
   1642a:	01010423          	sb	a6,8(sp)
   1642e:	4591                	li	a1,4
   16430:	02900693          	li	a3,41
   16434:	470d                	li	a4,3
   16436:	853e                	mv	a0,a5
   16438:	864a                	mv	a2,s2
   1643a:	00000073          	ecall
   1643e:	02850563          	beq	a0,s0,16468 <_ZN20complex_full_dynamic3app17heb2d9d80c393382bE+0x9c>
   16442:	4511                	li	a0,4
   16444:	468d                	li	a3,3
   16446:	6709                	lui	a4,0x2
   16448:	458d                	li	a1,3
   1644a:	4611                	li	a2,4
   1644c:	cabe                	sw	a5,84(sp)
   1644e:	ccaa                	sw	a0,88(sp)
   16450:	04d10e23          	sb	a3,92(sp)
   16454:	6a470513          	addi	a0,a4,1700 # 26a4 <.Lline_table_start1+0x2479>
   16458:	4709                	li	a4,2
   1645a:	07f00793          	li	a5,127
   1645e:	4681                	li	a3,0
   16460:	00000073          	ecall
   16464:	02a7e863          	bltu	a5,a0,16494 <_ZN20complex_full_dynamic3app17heb2d9d80c393382bE+0xc8>
   16468:	00b9a223          	sw	a1,4(s3)
   1646c:	4505                	li	a0,1
   1646e:	00a98023          	sb	a0,0(s3)
   16472:	08c8                	addi	a0,sp,84
   16474:	00005097          	auipc	ra,0x5
   16478:	a72080e7          	jalr	-1422(ra) # 1aee6 <_ZN9allow_pin12full_dynamic17unshare_if_shared17h3494b15e905518bcE>
   1647c:	850a                	mv	a0,sp
   1647e:	00005097          	auipc	ra,0x5
   16482:	a68080e7          	jalr	-1432(ra) # 1aee6 <_ZN9allow_pin12full_dynamic17unshare_if_shared17h3494b15e905518bcE>
   16486:	40fa                	lw	ra,156(sp)
   16488:	446a                	lw	s0,152(sp)
   1648a:	44da                	lw	s1,148(sp)
   1648c:	494a                	lw	s2,144(sp)
   1648e:	49ba                	lw	s3,140(sp)
   16490:	610d                	addi	sp,sp,160
   16492:	8082                	ret
   16494:	850a                	mv	a0,sp
   16496:	00005097          	auipc	ra,0x5
   1649a:	a50080e7          	jalr	-1456(ra) # 1aee6 <_ZN9allow_pin12full_dynamic17unshare_if_shared17h3494b15e905518bcE>
   1649e:	08c8                	addi	a0,sp,84
   164a0:	00005097          	auipc	ra,0x5
   164a4:	a46080e7          	jalr	-1466(ra) # 1aee6 <_ZN9allow_pin12full_dynamic17unshare_if_shared17h3494b15e905518bcE>
   164a8:	08c8                	addi	a0,sp,84
   164aa:	00005097          	auipc	ra,0x5
   164ae:	a3c080e7          	jalr	-1476(ra) # 1aee6 <_ZN9allow_pin12full_dynamic17unshare_if_shared17h3494b15e905518bcE>
   164b2:	00198513          	addi	a0,s3,1
   164b6:	02900613          	li	a2,41
   164ba:	85ca                	mv	a1,s2
   164bc:	00005097          	auipc	ra,0x5
   164c0:	ab6080e7          	jalr	-1354(ra) # 1af72 <memcpy>
   164c4:	4501                	li	a0,0
   164c6:	b765                	j	1646e <_ZN20complex_full_dynamic3app17heb2d9d80c393382bE+0xa2>

000164c8 <_ZN20complex_full_dynamic3app17hef4b92512d7bb602E>:
   164c8:	7119                	addi	sp,sp,-128
   164ca:	de86                	sw	ra,124(sp)
   164cc:	dca2                	sw	s0,120(sp)
   164ce:	daa6                	sw	s1,116(sp)
   164d0:	d8ca                	sw	s2,112(sp)
   164d2:	d6ce                	sw	s3,108(sp)
   164d4:	89aa                	mv	s3,a0
   164d6:	4409                	li	s0,2
   164d8:	00810423          	sb	s0,8(sp)
   164dc:	0064                	addi	s1,sp,12
   164de:	4645                	li	a2,17
   164e0:	8526                	mv	a0,s1
   164e2:	00005097          	auipc	ra,0x5
   164e6:	a90080e7          	jalr	-1392(ra) # 1af72 <memcpy>
   164ea:	02c10913          	addi	s2,sp,44
   164ee:	03f00613          	li	a2,63
   164f2:	854a                	mv	a0,s2
   164f4:	4581                	li	a1,0
   164f6:	00005097          	auipc	ra,0x5
   164fa:	a10080e7          	jalr	-1520(ra) # 1af06 <memset>
   164fe:	8626                	mv	a2,s1
   16500:	02810423          	sb	s0,40(sp)
   16504:	6505                	lui	a0,0x1
   16506:	449d                	li	s1,7
   16508:	4811                	li	a6,4
   1650a:	459d                	li	a1,7
   1650c:	cb050793          	addi	a5,a0,-848 # cb0 <.Lline_table_start1+0xa85>
   16510:	46c5                	li	a3,17
   16512:	4711                	li	a4,4
   16514:	853e                	mv	a0,a5
   16516:	00000073          	ecall
   1651a:	04850363          	beq	a0,s0,16560 <_ZN20complex_full_dynamic3app17hef4b92512d7bb602E+0x98>
   1651e:	853e                	mv	a0,a5
   16520:	864a                	mv	a2,s2
   16522:	c03e                	sw	a5,0(sp)
   16524:	c226                	sw	s1,4(sp)
   16526:	01010423          	sb	a6,8(sp)
   1652a:	448d                	li	s1,3
   1652c:	4591                	li	a1,4
   1652e:	03f00693          	li	a3,63
   16532:	470d                	li	a4,3
   16534:	00000073          	ecall
   16538:	02850463          	beq	a0,s0,16560 <_ZN20complex_full_dynamic3app17hef4b92512d7bb602E+0x98>
   1653c:	4511                	li	a0,4
   1653e:	6685                	lui	a3,0x1
   16540:	459d                	li	a1,7
   16542:	4611                	li	a2,4
   16544:	d03e                	sw	a5,32(sp)
   16546:	d22a                	sw	a0,36(sp)
   16548:	02910423          	sb	s1,40(sp)
   1654c:	cb068513          	addi	a0,a3,-848 # cb0 <.Lline_table_start1+0xa85>
   16550:	4709                	li	a4,2
   16552:	07f00793          	li	a5,127
   16556:	4681                	li	a3,0
   16558:	00000073          	ecall
   1655c:	02a7e863          	bltu	a5,a0,1658c <_ZN20complex_full_dynamic3app17hef4b92512d7bb602E+0xc4>
   16560:	00b9a223          	sw	a1,4(s3)
   16564:	4505                	li	a0,1
   16566:	00a98023          	sb	a0,0(s3)
   1656a:	1008                	addi	a0,sp,32
   1656c:	00005097          	auipc	ra,0x5
   16570:	97a080e7          	jalr	-1670(ra) # 1aee6 <_ZN9allow_pin12full_dynamic17unshare_if_shared17h3494b15e905518bcE>
   16574:	850a                	mv	a0,sp
   16576:	00005097          	auipc	ra,0x5
   1657a:	970080e7          	jalr	-1680(ra) # 1aee6 <_ZN9allow_pin12full_dynamic17unshare_if_shared17h3494b15e905518bcE>
   1657e:	50f6                	lw	ra,124(sp)
   16580:	5466                	lw	s0,120(sp)
   16582:	54d6                	lw	s1,116(sp)
   16584:	5946                	lw	s2,112(sp)
   16586:	59b6                	lw	s3,108(sp)
   16588:	6109                	addi	sp,sp,128
   1658a:	8082                	ret
   1658c:	850a                	mv	a0,sp
   1658e:	00005097          	auipc	ra,0x5
   16592:	958080e7          	jalr	-1704(ra) # 1aee6 <_ZN9allow_pin12full_dynamic17unshare_if_shared17h3494b15e905518bcE>
   16596:	1008                	addi	a0,sp,32
   16598:	00005097          	auipc	ra,0x5
   1659c:	94e080e7          	jalr	-1714(ra) # 1aee6 <_ZN9allow_pin12full_dynamic17unshare_if_shared17h3494b15e905518bcE>
   165a0:	1008                	addi	a0,sp,32
   165a2:	00005097          	auipc	ra,0x5
   165a6:	944080e7          	jalr	-1724(ra) # 1aee6 <_ZN9allow_pin12full_dynamic17unshare_if_shared17h3494b15e905518bcE>
   165aa:	00198513          	addi	a0,s3,1
   165ae:	03f00613          	li	a2,63
   165b2:	85ca                	mv	a1,s2
   165b4:	00005097          	auipc	ra,0x5
   165b8:	9be080e7          	jalr	-1602(ra) # 1af72 <memcpy>
   165bc:	4501                	li	a0,0
   165be:	b765                	j	16566 <_ZN20complex_full_dynamic3app17hef4b92512d7bb602E+0x9e>

000165c0 <_ZN20complex_full_dynamic3app17hefd16b387fe7bf81E>:
   165c0:	7135                	addi	sp,sp,-160
   165c2:	cf06                	sw	ra,156(sp)
   165c4:	cd22                	sw	s0,152(sp)
   165c6:	cb26                	sw	s1,148(sp)
   165c8:	c94a                	sw	s2,144(sp)
   165ca:	c74e                	sw	s3,140(sp)
   165cc:	89aa                	mv	s3,a0
   165ce:	4409                	li	s0,2
   165d0:	00810823          	sb	s0,16(sp)
   165d4:	0844                	addi	s1,sp,20
   165d6:	03800613          	li	a2,56
   165da:	8526                	mv	a0,s1
   165dc:	00005097          	auipc	ra,0x5
   165e0:	996080e7          	jalr	-1642(ra) # 1af72 <memcpy>
   165e4:	05810913          	addi	s2,sp,88
   165e8:	03400613          	li	a2,52
   165ec:	854a                	mv	a0,s2
   165ee:	4581                	li	a1,0
   165f0:	00005097          	auipc	ra,0x5
   165f4:	916080e7          	jalr	-1770(ra) # 1af06 <memset>
   165f8:	8626                	mv	a2,s1
   165fa:	04810a23          	sb	s0,84(sp)
   165fe:	12e00793          	li	a5,302
   16602:	44a1                	li	s1,8
   16604:	4811                	li	a6,4
   16606:	12e00513          	li	a0,302
   1660a:	45a1                	li	a1,8
   1660c:	03800693          	li	a3,56
   16610:	4711                	li	a4,4
   16612:	00000073          	ecall
   16616:	04850463          	beq	a0,s0,1665e <_ZN20complex_full_dynamic3app17hefd16b387fe7bf81E+0x9e>
   1661a:	864a                	mv	a2,s2
   1661c:	c43e                	sw	a5,8(sp)
   1661e:	c626                	sw	s1,12(sp)
   16620:	01010823          	sb	a6,16(sp)
   16624:	478d                	li	a5,3
   16626:	12e00513          	li	a0,302
   1662a:	458d                	li	a1,3
   1662c:	03400693          	li	a3,52
   16630:	470d                	li	a4,3
   16632:	00000073          	ecall
   16636:	02850463          	beq	a0,s0,1665e <_ZN20complex_full_dynamic3app17hefd16b387fe7bf81E+0x9e>
   1663a:	12e00693          	li	a3,302
   1663e:	12e00513          	li	a0,302
   16642:	45a1                	li	a1,8
   16644:	460d                	li	a2,3
   16646:	4709                	li	a4,2
   16648:	07f00493          	li	s1,127
   1664c:	c6b6                	sw	a3,76(sp)
   1664e:	c8be                	sw	a5,80(sp)
   16650:	04f10a23          	sb	a5,84(sp)
   16654:	4681                	li	a3,0
   16656:	00000073          	ecall
   1665a:	02a4e863          	bltu	s1,a0,1668a <_ZN20complex_full_dynamic3app17hefd16b387fe7bf81E+0xca>
   1665e:	00b9a223          	sw	a1,4(s3)
   16662:	4505                	li	a0,1
   16664:	00a98023          	sb	a0,0(s3)
   16668:	00e8                	addi	a0,sp,76
   1666a:	00005097          	auipc	ra,0x5
   1666e:	87c080e7          	jalr	-1924(ra) # 1aee6 <_ZN9allow_pin12full_dynamic17unshare_if_shared17h3494b15e905518bcE>
   16672:	0028                	addi	a0,sp,8
   16674:	00005097          	auipc	ra,0x5
   16678:	872080e7          	jalr	-1934(ra) # 1aee6 <_ZN9allow_pin12full_dynamic17unshare_if_shared17h3494b15e905518bcE>
   1667c:	40fa                	lw	ra,156(sp)
   1667e:	446a                	lw	s0,152(sp)
   16680:	44da                	lw	s1,148(sp)
   16682:	494a                	lw	s2,144(sp)
   16684:	49ba                	lw	s3,140(sp)
   16686:	610d                	addi	sp,sp,160
   16688:	8082                	ret
   1668a:	0028                	addi	a0,sp,8
   1668c:	00005097          	auipc	ra,0x5
   16690:	85a080e7          	jalr	-1958(ra) # 1aee6 <_ZN9allow_pin12full_dynamic17unshare_if_shared17h3494b15e905518bcE>
   16694:	00e8                	addi	a0,sp,76
   16696:	00005097          	auipc	ra,0x5
   1669a:	850080e7          	jalr	-1968(ra) # 1aee6 <_ZN9allow_pin12full_dynamic17unshare_if_shared17h3494b15e905518bcE>
   1669e:	00e8                	addi	a0,sp,76
   166a0:	00005097          	auipc	ra,0x5
   166a4:	846080e7          	jalr	-1978(ra) # 1aee6 <_ZN9allow_pin12full_dynamic17unshare_if_shared17h3494b15e905518bcE>
   166a8:	00198513          	addi	a0,s3,1
   166ac:	03400613          	li	a2,52
   166b0:	85ca                	mv	a1,s2
   166b2:	00005097          	auipc	ra,0x5
   166b6:	8c0080e7          	jalr	-1856(ra) # 1af72 <memcpy>
   166ba:	4501                	li	a0,0
   166bc:	b765                	j	16664 <_ZN20complex_full_dynamic3app17hefd16b387fe7bf81E+0xa4>

000166be <_ZN20complex_full_dynamic3app17hf24ae99a7d4de32cE>:
   166be:	7119                	addi	sp,sp,-128
   166c0:	de86                	sw	ra,124(sp)
   166c2:	dca2                	sw	s0,120(sp)
   166c4:	daa6                	sw	s1,116(sp)
   166c6:	d8ca                	sw	s2,112(sp)
   166c8:	d6ce                	sw	s3,108(sp)
   166ca:	892a                	mv	s2,a0
   166cc:	4409                	li	s0,2
   166ce:	00810a23          	sb	s0,20(sp)
   166d2:	0824                	addi	s1,sp,24
   166d4:	02700613          	li	a2,39
   166d8:	8526                	mv	a0,s1
   166da:	00005097          	auipc	ra,0x5
   166de:	898080e7          	jalr	-1896(ra) # 1af72 <memcpy>
   166e2:	8626                	mv	a2,s1
   166e4:	06011423          	sh	zero,104(sp)
   166e8:	cc82                	sw	zero,88(sp)
   166ea:	ce82                	sw	zero,92(sp)
   166ec:	d082                	sw	zero,96(sp)
   166ee:	d282                	sw	zero,100(sp)
   166f0:	04810423          	sb	s0,72(sp)
   166f4:	c682                	sw	zero,76(sp)
   166f6:	c882                	sw	zero,80(sp)
   166f8:	ca82                	sw	zero,84(sp)
   166fa:	6505                	lui	a0,0x1
   166fc:	448d                	li	s1,3
   166fe:	4811                	li	a6,4
   16700:	458d                	li	a1,3
   16702:	0e250793          	addi	a5,a0,226 # 10e2 <.Lline_table_start1+0xeb7>
   16706:	02700693          	li	a3,39
   1670a:	4711                	li	a4,4
   1670c:	853e                	mv	a0,a5
   1670e:	00000073          	ecall
   16712:	04850363          	beq	a0,s0,16758 <_ZN20complex_full_dynamic3app17hf24ae99a7d4de32cE+0x9a>
   16716:	04c10993          	addi	s3,sp,76
   1671a:	c63e                	sw	a5,12(sp)
   1671c:	c826                	sw	s1,16(sp)
   1671e:	01010a23          	sb	a6,20(sp)
   16722:	458d                	li	a1,3
   16724:	46f9                	li	a3,30
   16726:	470d                	li	a4,3
   16728:	853e                	mv	a0,a5
   1672a:	864e                	mv	a2,s3
   1672c:	00000073          	ecall
   16730:	02850463          	beq	a0,s0,16758 <_ZN20complex_full_dynamic3app17hf24ae99a7d4de32cE+0x9a>
   16734:	450d                	li	a0,3
   16736:	6685                	lui	a3,0x1
   16738:	458d                	li	a1,3
   1673a:	460d                	li	a2,3
   1673c:	c0be                	sw	a5,64(sp)
   1673e:	c2aa                	sw	a0,68(sp)
   16740:	04a10423          	sb	a0,72(sp)
   16744:	0e268513          	addi	a0,a3,226 # 10e2 <.Lline_table_start1+0xeb7>
   16748:	4709                	li	a4,2
   1674a:	07f00793          	li	a5,127
   1674e:	4681                	li	a3,0
   16750:	00000073          	ecall
   16754:	02a7e863          	bltu	a5,a0,16784 <_ZN20complex_full_dynamic3app17hf24ae99a7d4de32cE+0xc6>
   16758:	00b92223          	sw	a1,4(s2)
   1675c:	4505                	li	a0,1
   1675e:	00a90023          	sb	a0,0(s2)
   16762:	0088                	addi	a0,sp,64
   16764:	00004097          	auipc	ra,0x4
   16768:	782080e7          	jalr	1922(ra) # 1aee6 <_ZN9allow_pin12full_dynamic17unshare_if_shared17h3494b15e905518bcE>
   1676c:	0068                	addi	a0,sp,12
   1676e:	00004097          	auipc	ra,0x4
   16772:	778080e7          	jalr	1912(ra) # 1aee6 <_ZN9allow_pin12full_dynamic17unshare_if_shared17h3494b15e905518bcE>
   16776:	50f6                	lw	ra,124(sp)
   16778:	5466                	lw	s0,120(sp)
   1677a:	54d6                	lw	s1,116(sp)
   1677c:	5946                	lw	s2,112(sp)
   1677e:	59b6                	lw	s3,108(sp)
   16780:	6109                	addi	sp,sp,128
   16782:	8082                	ret
   16784:	0068                	addi	a0,sp,12
   16786:	00004097          	auipc	ra,0x4
   1678a:	760080e7          	jalr	1888(ra) # 1aee6 <_ZN9allow_pin12full_dynamic17unshare_if_shared17h3494b15e905518bcE>
   1678e:	0088                	addi	a0,sp,64
   16790:	00004097          	auipc	ra,0x4
   16794:	756080e7          	jalr	1878(ra) # 1aee6 <_ZN9allow_pin12full_dynamic17unshare_if_shared17h3494b15e905518bcE>
   16798:	0088                	addi	a0,sp,64
   1679a:	00004097          	auipc	ra,0x4
   1679e:	74c080e7          	jalr	1868(ra) # 1aee6 <_ZN9allow_pin12full_dynamic17unshare_if_shared17h3494b15e905518bcE>
   167a2:	00190513          	addi	a0,s2,1
   167a6:	4679                	li	a2,30
   167a8:	85ce                	mv	a1,s3
   167aa:	00004097          	auipc	ra,0x4
   167ae:	7c8080e7          	jalr	1992(ra) # 1af72 <memcpy>
   167b2:	4501                	li	a0,0
   167b4:	b76d                	j	1675e <_ZN20complex_full_dynamic3app17hf24ae99a7d4de32cE+0xa0>

000167b6 <_ZN20complex_full_dynamic3app17hf49bc582c7295d3fE>:
   167b6:	7155                	addi	sp,sp,-208
   167b8:	c786                	sw	ra,204(sp)
   167ba:	c5a2                	sw	s0,200(sp)
   167bc:	c3a6                	sw	s1,196(sp)
   167be:	c1ca                	sw	s2,192(sp)
   167c0:	df4e                	sw	s3,188(sp)
   167c2:	89aa                	mv	s3,a0
   167c4:	4409                	li	s0,2
   167c6:	00810423          	sb	s0,8(sp)
   167ca:	0064                	addi	s1,sp,12
   167cc:	05300613          	li	a2,83
   167d0:	8526                	mv	a0,s1
   167d2:	00004097          	auipc	ra,0x4
   167d6:	7a0080e7          	jalr	1952(ra) # 1af72 <memcpy>
   167da:	06c10913          	addi	s2,sp,108
   167de:	04d00613          	li	a2,77
   167e2:	854a                	mv	a0,s2
   167e4:	4581                	li	a1,0
   167e6:	00004097          	auipc	ra,0x4
   167ea:	720080e7          	jalr	1824(ra) # 1af06 <memset>
   167ee:	8626                	mv	a2,s1
   167f0:	06810423          	sb	s0,104(sp)
   167f4:	6505                	lui	a0,0x1
   167f6:	44a5                	li	s1,9
   167f8:	4811                	li	a6,4
   167fa:	45a5                	li	a1,9
   167fc:	6ba50793          	addi	a5,a0,1722 # 16ba <.Lline_table_start1+0x148f>
   16800:	05300693          	li	a3,83
   16804:	4711                	li	a4,4
   16806:	853e                	mv	a0,a5
   16808:	00000073          	ecall
   1680c:	04850363          	beq	a0,s0,16852 <_ZN20complex_full_dynamic3app17hf49bc582c7295d3fE+0x9c>
   16810:	853e                	mv	a0,a5
   16812:	864a                	mv	a2,s2
   16814:	c03e                	sw	a5,0(sp)
   16816:	c226                	sw	s1,4(sp)
   16818:	01010423          	sb	a6,8(sp)
   1681c:	448d                	li	s1,3
   1681e:	4591                	li	a1,4
   16820:	04d00693          	li	a3,77
   16824:	470d                	li	a4,3
   16826:	00000073          	ecall
   1682a:	02850463          	beq	a0,s0,16852 <_ZN20complex_full_dynamic3app17hf49bc582c7295d3fE+0x9c>
   1682e:	4511                	li	a0,4
   16830:	6685                	lui	a3,0x1
   16832:	45a5                	li	a1,9
   16834:	4611                	li	a2,4
   16836:	d0be                	sw	a5,96(sp)
   16838:	d2aa                	sw	a0,100(sp)
   1683a:	06910423          	sb	s1,104(sp)
   1683e:	6ba68513          	addi	a0,a3,1722 # 16ba <.Lline_table_start1+0x148f>
   16842:	4709                	li	a4,2
   16844:	07f00793          	li	a5,127
   16848:	4681                	li	a3,0
   1684a:	00000073          	ecall
   1684e:	02a7e863          	bltu	a5,a0,1687e <_ZN20complex_full_dynamic3app17hf49bc582c7295d3fE+0xc8>
   16852:	00b9a223          	sw	a1,4(s3)
   16856:	4505                	li	a0,1
   16858:	00a98023          	sb	a0,0(s3)
   1685c:	1088                	addi	a0,sp,96
   1685e:	00004097          	auipc	ra,0x4
   16862:	688080e7          	jalr	1672(ra) # 1aee6 <_ZN9allow_pin12full_dynamic17unshare_if_shared17h3494b15e905518bcE>
   16866:	850a                	mv	a0,sp
   16868:	00004097          	auipc	ra,0x4
   1686c:	67e080e7          	jalr	1662(ra) # 1aee6 <_ZN9allow_pin12full_dynamic17unshare_if_shared17h3494b15e905518bcE>
   16870:	40be                	lw	ra,204(sp)
   16872:	442e                	lw	s0,200(sp)
   16874:	449e                	lw	s1,196(sp)
   16876:	490e                	lw	s2,192(sp)
   16878:	59fa                	lw	s3,188(sp)
   1687a:	6169                	addi	sp,sp,208
   1687c:	8082                	ret
   1687e:	850a                	mv	a0,sp
   16880:	00004097          	auipc	ra,0x4
   16884:	666080e7          	jalr	1638(ra) # 1aee6 <_ZN9allow_pin12full_dynamic17unshare_if_shared17h3494b15e905518bcE>
   16888:	1088                	addi	a0,sp,96
   1688a:	00004097          	auipc	ra,0x4
   1688e:	65c080e7          	jalr	1628(ra) # 1aee6 <_ZN9allow_pin12full_dynamic17unshare_if_shared17h3494b15e905518bcE>
   16892:	1088                	addi	a0,sp,96
   16894:	00004097          	auipc	ra,0x4
   16898:	652080e7          	jalr	1618(ra) # 1aee6 <_ZN9allow_pin12full_dynamic17unshare_if_shared17h3494b15e905518bcE>
   1689c:	00198513          	addi	a0,s3,1
   168a0:	04d00613          	li	a2,77
   168a4:	85ca                	mv	a1,s2
   168a6:	00004097          	auipc	ra,0x4
   168aa:	6cc080e7          	jalr	1740(ra) # 1af72 <memcpy>
   168ae:	4501                	li	a0,0
   168b0:	b765                	j	16858 <_ZN20complex_full_dynamic3app17hf49bc582c7295d3fE+0xa2>

000168b2 <_ZN20complex_full_dynamic3app17hf9815b447b76bc72E>:
   168b2:	7135                	addi	sp,sp,-160
   168b4:	cf06                	sw	ra,156(sp)
   168b6:	cd22                	sw	s0,152(sp)
   168b8:	cb26                	sw	s1,148(sp)
   168ba:	c94a                	sw	s2,144(sp)
   168bc:	c74e                	sw	s3,140(sp)
   168be:	89aa                	mv	s3,a0
   168c0:	4409                	li	s0,2
   168c2:	00810423          	sb	s0,8(sp)
   168c6:	0064                	addi	s1,sp,12
   168c8:	04000613          	li	a2,64
   168cc:	8526                	mv	a0,s1
   168ce:	00004097          	auipc	ra,0x4
   168d2:	6a4080e7          	jalr	1700(ra) # 1af72 <memcpy>
   168d6:	05810913          	addi	s2,sp,88
   168da:	03100613          	li	a2,49
   168de:	854a                	mv	a0,s2
   168e0:	4581                	li	a1,0
   168e2:	00004097          	auipc	ra,0x4
   168e6:	624080e7          	jalr	1572(ra) # 1af06 <memset>
   168ea:	8626                	mv	a2,s1
   168ec:	04810a23          	sb	s0,84(sp)
   168f0:	6505                	lui	a0,0x1
   168f2:	44a1                	li	s1,8
   168f4:	4811                	li	a6,4
   168f6:	45a1                	li	a1,8
   168f8:	fce50793          	addi	a5,a0,-50 # fce <.Lline_table_start1+0xda3>
   168fc:	04000693          	li	a3,64
   16900:	4711                	li	a4,4
   16902:	853e                	mv	a0,a5
   16904:	00000073          	ecall
   16908:	04850363          	beq	a0,s0,1694e <_ZN20complex_full_dynamic3app17hf9815b447b76bc72E+0x9c>
   1690c:	853e                	mv	a0,a5
   1690e:	864a                	mv	a2,s2
   16910:	c03e                	sw	a5,0(sp)
   16912:	c226                	sw	s1,4(sp)
   16914:	01010423          	sb	a6,8(sp)
   16918:	4495                	li	s1,5
   1691a:	480d                	li	a6,3
   1691c:	4595                	li	a1,5
   1691e:	03100693          	li	a3,49
   16922:	470d                	li	a4,3
   16924:	00000073          	ecall
   16928:	02850363          	beq	a0,s0,1694e <_ZN20complex_full_dynamic3app17hf9815b447b76bc72E+0x9c>
   1692c:	c6be                	sw	a5,76(sp)
   1692e:	c8a6                	sw	s1,80(sp)
   16930:	05010a23          	sb	a6,84(sp)
   16934:	6505                	lui	a0,0x1
   16936:	45a1                	li	a1,8
   16938:	4615                	li	a2,5
   1693a:	fce50513          	addi	a0,a0,-50 # fce <.Lline_table_start1+0xda3>
   1693e:	4709                	li	a4,2
   16940:	07f00793          	li	a5,127
   16944:	4681                	li	a3,0
   16946:	00000073          	ecall
   1694a:	02a7e863          	bltu	a5,a0,1697a <_ZN20complex_full_dynamic3app17hf9815b447b76bc72E+0xc8>
   1694e:	00b9a223          	sw	a1,4(s3)
   16952:	4505                	li	a0,1
   16954:	00a98023          	sb	a0,0(s3)
   16958:	00e8                	addi	a0,sp,76
   1695a:	00004097          	auipc	ra,0x4
   1695e:	58c080e7          	jalr	1420(ra) # 1aee6 <_ZN9allow_pin12full_dynamic17unshare_if_shared17h3494b15e905518bcE>
   16962:	850a                	mv	a0,sp
   16964:	00004097          	auipc	ra,0x4
   16968:	582080e7          	jalr	1410(ra) # 1aee6 <_ZN9allow_pin12full_dynamic17unshare_if_shared17h3494b15e905518bcE>
   1696c:	40fa                	lw	ra,156(sp)
   1696e:	446a                	lw	s0,152(sp)
   16970:	44da                	lw	s1,148(sp)
   16972:	494a                	lw	s2,144(sp)
   16974:	49ba                	lw	s3,140(sp)
   16976:	610d                	addi	sp,sp,160
   16978:	8082                	ret
   1697a:	850a                	mv	a0,sp
   1697c:	00004097          	auipc	ra,0x4
   16980:	56a080e7          	jalr	1386(ra) # 1aee6 <_ZN9allow_pin12full_dynamic17unshare_if_shared17h3494b15e905518bcE>
   16984:	00e8                	addi	a0,sp,76
   16986:	00004097          	auipc	ra,0x4
   1698a:	560080e7          	jalr	1376(ra) # 1aee6 <_ZN9allow_pin12full_dynamic17unshare_if_shared17h3494b15e905518bcE>
   1698e:	00e8                	addi	a0,sp,76
   16990:	00004097          	auipc	ra,0x4
   16994:	556080e7          	jalr	1366(ra) # 1aee6 <_ZN9allow_pin12full_dynamic17unshare_if_shared17h3494b15e905518bcE>
   16998:	00198513          	addi	a0,s3,1
   1699c:	03100613          	li	a2,49
   169a0:	85ca                	mv	a1,s2
   169a2:	00004097          	auipc	ra,0x4
   169a6:	5d0080e7          	jalr	1488(ra) # 1af72 <memcpy>
   169aa:	4501                	li	a0,0
   169ac:	b765                	j	16954 <_ZN20complex_full_dynamic3app17hf9815b447b76bc72E+0xa2>

000169ae <_ZN20complex_full_dynamic3app17hfa27737c2af6d234E>:
   169ae:	7131                	addi	sp,sp,-192
   169b0:	df06                	sw	ra,188(sp)
   169b2:	dd22                	sw	s0,184(sp)
   169b4:	db26                	sw	s1,180(sp)
   169b6:	d94a                	sw	s2,176(sp)
   169b8:	d74e                	sw	s3,172(sp)
   169ba:	89aa                	mv	s3,a0
   169bc:	4409                	li	s0,2
   169be:	00810823          	sb	s0,16(sp)
   169c2:	0844                	addi	s1,sp,20
   169c4:	04f00613          	li	a2,79
   169c8:	8526                	mv	a0,s1
   169ca:	00004097          	auipc	ra,0x4
   169ce:	5a8080e7          	jalr	1448(ra) # 1af72 <memcpy>
   169d2:	07010913          	addi	s2,sp,112
   169d6:	03b00613          	li	a2,59
   169da:	854a                	mv	a0,s2
   169dc:	4581                	li	a1,0
   169de:	00004097          	auipc	ra,0x4
   169e2:	528080e7          	jalr	1320(ra) # 1af06 <memset>
   169e6:	8626                	mv	a2,s1
   169e8:	06810623          	sb	s0,108(sp)
   169ec:	6505                	lui	a0,0x1
   169ee:	44a1                	li	s1,8
   169f0:	4811                	li	a6,4
   169f2:	45a1                	li	a1,8
   169f4:	a0650793          	addi	a5,a0,-1530 # a06 <.Lline_table_start1+0x7db>
   169f8:	04f00693          	li	a3,79
   169fc:	4711                	li	a4,4
   169fe:	853e                	mv	a0,a5
   16a00:	00000073          	ecall
   16a04:	04850363          	beq	a0,s0,16a4a <_ZN20complex_full_dynamic3app17hfa27737c2af6d234E+0x9c>
   16a08:	853e                	mv	a0,a5
   16a0a:	864a                	mv	a2,s2
   16a0c:	c43e                	sw	a5,8(sp)
   16a0e:	c626                	sw	s1,12(sp)
   16a10:	01010823          	sb	a6,16(sp)
   16a14:	4495                	li	s1,5
   16a16:	480d                	li	a6,3
   16a18:	4595                	li	a1,5
   16a1a:	03b00693          	li	a3,59
   16a1e:	470d                	li	a4,3
   16a20:	00000073          	ecall
   16a24:	02850363          	beq	a0,s0,16a4a <_ZN20complex_full_dynamic3app17hfa27737c2af6d234E+0x9c>
   16a28:	d2be                	sw	a5,100(sp)
   16a2a:	d4a6                	sw	s1,104(sp)
   16a2c:	07010623          	sb	a6,108(sp)
   16a30:	6505                	lui	a0,0x1
   16a32:	45a1                	li	a1,8
   16a34:	4615                	li	a2,5
   16a36:	a0650513          	addi	a0,a0,-1530 # a06 <.Lline_table_start1+0x7db>
   16a3a:	4709                	li	a4,2
   16a3c:	07f00793          	li	a5,127
   16a40:	4681                	li	a3,0
   16a42:	00000073          	ecall
   16a46:	02a7e863          	bltu	a5,a0,16a76 <_ZN20complex_full_dynamic3app17hfa27737c2af6d234E+0xc8>
   16a4a:	00b9a223          	sw	a1,4(s3)
   16a4e:	4505                	li	a0,1
   16a50:	00a98023          	sb	a0,0(s3)
   16a54:	10c8                	addi	a0,sp,100
   16a56:	00004097          	auipc	ra,0x4
   16a5a:	490080e7          	jalr	1168(ra) # 1aee6 <_ZN9allow_pin12full_dynamic17unshare_if_shared17h3494b15e905518bcE>
   16a5e:	0028                	addi	a0,sp,8
   16a60:	00004097          	auipc	ra,0x4
   16a64:	486080e7          	jalr	1158(ra) # 1aee6 <_ZN9allow_pin12full_dynamic17unshare_if_shared17h3494b15e905518bcE>
   16a68:	50fa                	lw	ra,188(sp)
   16a6a:	546a                	lw	s0,184(sp)
   16a6c:	54da                	lw	s1,180(sp)
   16a6e:	594a                	lw	s2,176(sp)
   16a70:	59ba                	lw	s3,172(sp)
   16a72:	6129                	addi	sp,sp,192
   16a74:	8082                	ret
   16a76:	0028                	addi	a0,sp,8
   16a78:	00004097          	auipc	ra,0x4
   16a7c:	46e080e7          	jalr	1134(ra) # 1aee6 <_ZN9allow_pin12full_dynamic17unshare_if_shared17h3494b15e905518bcE>
   16a80:	10c8                	addi	a0,sp,100
   16a82:	00004097          	auipc	ra,0x4
   16a86:	464080e7          	jalr	1124(ra) # 1aee6 <_ZN9allow_pin12full_dynamic17unshare_if_shared17h3494b15e905518bcE>
   16a8a:	10c8                	addi	a0,sp,100
   16a8c:	00004097          	auipc	ra,0x4
   16a90:	45a080e7          	jalr	1114(ra) # 1aee6 <_ZN9allow_pin12full_dynamic17unshare_if_shared17h3494b15e905518bcE>
   16a94:	00198513          	addi	a0,s3,1
   16a98:	03b00613          	li	a2,59
   16a9c:	85ca                	mv	a1,s2
   16a9e:	00004097          	auipc	ra,0x4
   16aa2:	4d4080e7          	jalr	1236(ra) # 1af72 <memcpy>
   16aa6:	4501                	li	a0,0
   16aa8:	b765                	j	16a50 <_ZN20complex_full_dynamic3app17hfa27737c2af6d234E+0xa2>

00016aaa <_ZN20complex_full_dynamic3app17hfb75ee2f3ec269b3E>:
   16aaa:	7119                	addi	sp,sp,-128
   16aac:	de86                	sw	ra,124(sp)
   16aae:	dca2                	sw	s0,120(sp)
   16ab0:	daa6                	sw	s1,116(sp)
   16ab2:	d8ca                	sw	s2,112(sp)
   16ab4:	d6ce                	sw	s3,108(sp)
   16ab6:	892a                	mv	s2,a0
   16ab8:	4409                	li	s0,2
   16aba:	00810823          	sb	s0,16(sp)
   16abe:	0844                	addi	s1,sp,20
   16ac0:	02b00613          	li	a2,43
   16ac4:	8526                	mv	a0,s1
   16ac6:	00004097          	auipc	ra,0x4
   16aca:	4ac080e7          	jalr	1196(ra) # 1af72 <memcpy>
   16ace:	8626                	mv	a2,s1
   16ad0:	06011423          	sh	zero,104(sp)
   16ad4:	cc82                	sw	zero,88(sp)
   16ad6:	ce82                	sw	zero,92(sp)
   16ad8:	d082                	sw	zero,96(sp)
   16ada:	d282                	sw	zero,100(sp)
   16adc:	04810423          	sb	s0,72(sp)
   16ae0:	c682                	sw	zero,76(sp)
   16ae2:	c882                	sw	zero,80(sp)
   16ae4:	ca82                	sw	zero,84(sp)
   16ae6:	7e300793          	li	a5,2019
   16aea:	449d                	li	s1,7
   16aec:	4811                	li	a6,4
   16aee:	7e300513          	li	a0,2019
   16af2:	459d                	li	a1,7
   16af4:	02b00693          	li	a3,43
   16af8:	4711                	li	a4,4
   16afa:	00000073          	ecall
   16afe:	04850663          	beq	a0,s0,16b4a <_ZN20complex_full_dynamic3app17hfb75ee2f3ec269b3E+0xa0>
   16b02:	04c10993          	addi	s3,sp,76
   16b06:	c43e                	sw	a5,8(sp)
   16b08:	c626                	sw	s1,12(sp)
   16b0a:	01010823          	sb	a6,16(sp)
   16b0e:	47a1                	li	a5,8
   16b10:	448d                	li	s1,3
   16b12:	7e300513          	li	a0,2019
   16b16:	45a1                	li	a1,8
   16b18:	46f9                	li	a3,30
   16b1a:	470d                	li	a4,3
   16b1c:	864e                	mv	a2,s3
   16b1e:	00000073          	ecall
   16b22:	02850463          	beq	a0,s0,16b4a <_ZN20complex_full_dynamic3app17hfb75ee2f3ec269b3E+0xa0>
   16b26:	7e300693          	li	a3,2019
   16b2a:	7e300513          	li	a0,2019
   16b2e:	459d                	li	a1,7
   16b30:	4621                	li	a2,8
   16b32:	4709                	li	a4,2
   16b34:	07f00413          	li	s0,127
   16b38:	c0b6                	sw	a3,64(sp)
   16b3a:	c2be                	sw	a5,68(sp)
   16b3c:	04910423          	sb	s1,72(sp)
   16b40:	4681                	li	a3,0
   16b42:	00000073          	ecall
   16b46:	02a46863          	bltu	s0,a0,16b76 <_ZN20complex_full_dynamic3app17hfb75ee2f3ec269b3E+0xcc>
   16b4a:	00b92223          	sw	a1,4(s2)
   16b4e:	4505                	li	a0,1
   16b50:	00a90023          	sb	a0,0(s2)
   16b54:	0088                	addi	a0,sp,64
   16b56:	00004097          	auipc	ra,0x4
   16b5a:	390080e7          	jalr	912(ra) # 1aee6 <_ZN9allow_pin12full_dynamic17unshare_if_shared17h3494b15e905518bcE>
   16b5e:	0028                	addi	a0,sp,8
   16b60:	00004097          	auipc	ra,0x4
   16b64:	386080e7          	jalr	902(ra) # 1aee6 <_ZN9allow_pin12full_dynamic17unshare_if_shared17h3494b15e905518bcE>
   16b68:	50f6                	lw	ra,124(sp)
   16b6a:	5466                	lw	s0,120(sp)
   16b6c:	54d6                	lw	s1,116(sp)
   16b6e:	5946                	lw	s2,112(sp)
   16b70:	59b6                	lw	s3,108(sp)
   16b72:	6109                	addi	sp,sp,128
   16b74:	8082                	ret
   16b76:	0028                	addi	a0,sp,8
   16b78:	00004097          	auipc	ra,0x4
   16b7c:	36e080e7          	jalr	878(ra) # 1aee6 <_ZN9allow_pin12full_dynamic17unshare_if_shared17h3494b15e905518bcE>
   16b80:	0088                	addi	a0,sp,64
   16b82:	00004097          	auipc	ra,0x4
   16b86:	364080e7          	jalr	868(ra) # 1aee6 <_ZN9allow_pin12full_dynamic17unshare_if_shared17h3494b15e905518bcE>
   16b8a:	0088                	addi	a0,sp,64
   16b8c:	00004097          	auipc	ra,0x4
   16b90:	35a080e7          	jalr	858(ra) # 1aee6 <_ZN9allow_pin12full_dynamic17unshare_if_shared17h3494b15e905518bcE>
   16b94:	00190513          	addi	a0,s2,1
   16b98:	4679                	li	a2,30
   16b9a:	85ce                	mv	a1,s3
   16b9c:	00004097          	auipc	ra,0x4
   16ba0:	3d6080e7          	jalr	982(ra) # 1af72 <memcpy>
   16ba4:	4501                	li	a0,0
   16ba6:	b76d                	j	16b50 <_ZN20complex_full_dynamic3app17hfb75ee2f3ec269b3E+0xa6>

00016ba8 <_ZN20complex_full_dynamic3app17hfcbbaa7fc33a4f53E>:
   16ba8:	7119                	addi	sp,sp,-128
   16baa:	de86                	sw	ra,124(sp)
   16bac:	dca2                	sw	s0,120(sp)
   16bae:	daa6                	sw	s1,116(sp)
   16bb0:	d8ca                	sw	s2,112(sp)
   16bb2:	d6ce                	sw	s3,108(sp)
   16bb4:	89aa                	mv	s3,a0
   16bb6:	4409                	li	s0,2
   16bb8:	00810423          	sb	s0,8(sp)
   16bbc:	0064                	addi	s1,sp,12
   16bbe:	02a00613          	li	a2,42
   16bc2:	8526                	mv	a0,s1
   16bc4:	00004097          	auipc	ra,0x4
   16bc8:	3ae080e7          	jalr	942(ra) # 1af72 <memcpy>
   16bcc:	04410913          	addi	s2,sp,68
   16bd0:	02800613          	li	a2,40
   16bd4:	854a                	mv	a0,s2
   16bd6:	4581                	li	a1,0
   16bd8:	00004097          	auipc	ra,0x4
   16bdc:	32e080e7          	jalr	814(ra) # 1af06 <memset>
   16be0:	8626                	mv	a2,s1
   16be2:	04810023          	sb	s0,64(sp)
   16be6:	6509                	lui	a0,0x2
   16be8:	4491                	li	s1,4
   16bea:	4591                	li	a1,4
   16bec:	efa50793          	addi	a5,a0,-262 # 1efa <.Lline_table_start1+0x1ccf>
   16bf0:	02a00693          	li	a3,42
   16bf4:	4711                	li	a4,4
   16bf6:	853e                	mv	a0,a5
   16bf8:	00000073          	ecall
   16bfc:	04850363          	beq	a0,s0,16c42 <_ZN20complex_full_dynamic3app17hfcbbaa7fc33a4f53E+0x9a>
   16c00:	853e                	mv	a0,a5
   16c02:	864a                	mv	a2,s2
   16c04:	c03e                	sw	a5,0(sp)
   16c06:	c226                	sw	s1,4(sp)
   16c08:	00910423          	sb	s1,8(sp)
   16c0c:	44a1                	li	s1,8
   16c0e:	480d                	li	a6,3
   16c10:	45a1                	li	a1,8
   16c12:	02800693          	li	a3,40
   16c16:	470d                	li	a4,3
   16c18:	00000073          	ecall
   16c1c:	02850363          	beq	a0,s0,16c42 <_ZN20complex_full_dynamic3app17hfcbbaa7fc33a4f53E+0x9a>
   16c20:	dc3e                	sw	a5,56(sp)
   16c22:	de26                	sw	s1,60(sp)
   16c24:	05010023          	sb	a6,64(sp)
   16c28:	6509                	lui	a0,0x2
   16c2a:	4591                	li	a1,4
   16c2c:	4621                	li	a2,8
   16c2e:	efa50513          	addi	a0,a0,-262 # 1efa <.Lline_table_start1+0x1ccf>
   16c32:	4709                	li	a4,2
   16c34:	07f00793          	li	a5,127
   16c38:	4681                	li	a3,0
   16c3a:	00000073          	ecall
   16c3e:	02a7e863          	bltu	a5,a0,16c6e <_ZN20complex_full_dynamic3app17hfcbbaa7fc33a4f53E+0xc6>
   16c42:	00b9a223          	sw	a1,4(s3)
   16c46:	4505                	li	a0,1
   16c48:	00a98023          	sb	a0,0(s3)
   16c4c:	1828                	addi	a0,sp,56
   16c4e:	00004097          	auipc	ra,0x4
   16c52:	298080e7          	jalr	664(ra) # 1aee6 <_ZN9allow_pin12full_dynamic17unshare_if_shared17h3494b15e905518bcE>
   16c56:	850a                	mv	a0,sp
   16c58:	00004097          	auipc	ra,0x4
   16c5c:	28e080e7          	jalr	654(ra) # 1aee6 <_ZN9allow_pin12full_dynamic17unshare_if_shared17h3494b15e905518bcE>
   16c60:	50f6                	lw	ra,124(sp)
   16c62:	5466                	lw	s0,120(sp)
   16c64:	54d6                	lw	s1,116(sp)
   16c66:	5946                	lw	s2,112(sp)
   16c68:	59b6                	lw	s3,108(sp)
   16c6a:	6109                	addi	sp,sp,128
   16c6c:	8082                	ret
   16c6e:	850a                	mv	a0,sp
   16c70:	00004097          	auipc	ra,0x4
   16c74:	276080e7          	jalr	630(ra) # 1aee6 <_ZN9allow_pin12full_dynamic17unshare_if_shared17h3494b15e905518bcE>
   16c78:	1828                	addi	a0,sp,56
   16c7a:	00004097          	auipc	ra,0x4
   16c7e:	26c080e7          	jalr	620(ra) # 1aee6 <_ZN9allow_pin12full_dynamic17unshare_if_shared17h3494b15e905518bcE>
   16c82:	1828                	addi	a0,sp,56
   16c84:	00004097          	auipc	ra,0x4
   16c88:	262080e7          	jalr	610(ra) # 1aee6 <_ZN9allow_pin12full_dynamic17unshare_if_shared17h3494b15e905518bcE>
   16c8c:	00198513          	addi	a0,s3,1
   16c90:	02800613          	li	a2,40
   16c94:	85ca                	mv	a1,s2
   16c96:	00004097          	auipc	ra,0x4
   16c9a:	2dc080e7          	jalr	732(ra) # 1af72 <memcpy>
   16c9e:	4501                	li	a0,0
   16ca0:	b765                	j	16c48 <_ZN20complex_full_dynamic3app17hfcbbaa7fc33a4f53E+0xa0>

00016ca2 <_start>:
   16ca2:	81010113          	addi	sp,sp,-2032
   16ca6:	7e112623          	sw	ra,2028(sp)
   16caa:	7e812423          	sw	s0,2024(sp)
   16cae:	7e912223          	sw	s1,2020(sp)
   16cb2:	7f212023          	sw	s2,2016(sp)
   16cb6:	7d312e23          	sw	s3,2012(sp)
   16cba:	7d412c23          	sw	s4,2008(sp)
   16cbe:	7d512a23          	sw	s5,2004(sp)
   16cc2:	7d612823          	sw	s6,2000(sp)
   16cc6:	7d712623          	sw	s7,1996(sp)
   16cca:	7d812423          	sw	s8,1992(sp)
   16cce:	7d912223          	sw	s9,1988(sp)
   16cd2:	7da12023          	sw	s10,1984(sp)
   16cd6:	7bb12e23          	sw	s11,1980(sp)
   16cda:	80010113          	addi	sp,sp,-2048
   16cde:	b2010113          	addi	sp,sp,-1248
   16ce2:	7ff10a13          	addi	s4,sp,2047
   16ce6:	791a0a13          	addi	s4,s4,1937
   16cea:	08e4                	addi	s1,sp,92
   16cec:	02800613          	li	a2,40
   16cf0:	8526                	mv	a0,s1
   16cf2:	4581                	li	a1,0
   16cf4:	00004097          	auipc	ra,0x4
   16cf8:	212080e7          	jalr	530(ra) # 1af06 <memset>
   16cfc:	4409                	li	s0,2
   16cfe:	04810c23          	sb	s0,88(sp)
   16d02:	6505                	lui	a0,0x1
   16d04:	38850513          	addi	a0,a0,904 # 1388 <.Lline_table_start1+0x115d>
   16d08:	00a10933          	add	s2,sp,a0
   16d0c:	05100613          	li	a2,81
   16d10:	854a                	mv	a0,s2
   16d12:	4581                	li	a1,0
   16d14:	00004097          	auipc	ra,0x4
   16d18:	1f2080e7          	jalr	498(ra) # 1af06 <memset>
   16d1c:	8626                	mv	a2,s1
   16d1e:	3e8a0a23          	sb	s0,1012(s4)
   16d22:	6789                	lui	a5,0x2
   16d24:	44a5                	li	s1,9
   16d26:	4811                	li	a6,4
   16d28:	45a5                	li	a1,9
   16d2a:	0799                	addi	a5,a5,6 # 2006 <.Lline_table_start1+0x1ddb>
   16d2c:	02800693          	li	a3,40
   16d30:	4711                	li	a4,4
   16d32:	853e                	mv	a0,a5
   16d34:	00000073          	ecall
   16d38:	04850763          	beq	a0,s0,16d86 <_start+0xe4>
   16d3c:	853e                	mv	a0,a5
   16d3e:	864a                	mv	a2,s2
   16d40:	c8be                	sw	a5,80(sp)
   16d42:	caa6                	sw	s1,84(sp)
   16d44:	05010c23          	sb	a6,88(sp)
   16d48:	448d                	li	s1,3
   16d4a:	45a5                	li	a1,9
   16d4c:	05100693          	li	a3,81
   16d50:	470d                	li	a4,3
   16d52:	00000073          	ecall
   16d56:	02850863          	beq	a0,s0,16d86 <_start+0xe4>
   16d5a:	4525                	li	a0,9
   16d5c:	6689                	lui	a3,0x2
   16d5e:	45a5                	li	a1,9
   16d60:	4625                	li	a2,9
   16d62:	3efa2623          	sw	a5,1004(s4)
   16d66:	3eaa2823          	sw	a0,1008(s4)
   16d6a:	3e9a0a23          	sb	s1,1012(s4)
   16d6e:	00668513          	addi	a0,a3,6 # 2006 <.Lline_table_start1+0x1ddb>
   16d72:	4709                	li	a4,2
   16d74:	07f00793          	li	a5,127
   16d78:	4681                	li	a3,0
   16d7a:	00000073          	ecall
   16d7e:	00a7f463          	bgeu	a5,a0,16d86 <_start+0xe4>
   16d82:	4330306f          	j	1a9b4 <_start+0x3d12>
   16d86:	8aae                	mv	s5,a1
   16d88:	4405                	li	s0,1
   16d8a:	6505                	lui	a0,0x1
   16d8c:	37c50513          	addi	a0,a0,892 # 137c <.Lline_table_start1+0x1151>
   16d90:	950a                	add	a0,a0,sp
   16d92:	00004097          	auipc	ra,0x4
   16d96:	154080e7          	jalr	340(ra) # 1aee6 <_ZN9allow_pin12full_dynamic17unshare_if_shared17h3494b15e905518bcE>
   16d9a:	0888                	addi	a0,sp,80
   16d9c:	00004097          	auipc	ra,0x4
   16da0:	14a080e7          	jalr	330(ra) # 1aee6 <_ZN9allow_pin12full_dynamic17unshare_if_shared17h3494b15e905518bcE>
   16da4:	c019                	beqz	s0,16daa <_start+0x108>
   16da6:	3c90306f          	j	1a96e <_start+0x3ccc>
   16daa:	09011503          	lh	a0,144(sp)
   16dae:	09214583          	lbu	a1,146(sp)
   16db2:	6605                	lui	a2,0x1
   16db4:	38860613          	addi	a2,a2,904 # 1388 <.Lline_table_start1+0x115d>
   16db8:	00c10433          	add	s0,sp,a2
   16dbc:	3eaa1c23          	sh	a0,1016(s4)
   16dc0:	3eba0d23          	sb	a1,1018(s4)
   16dc4:	6505                	lui	a0,0x1
   16dc6:	32050513          	addi	a0,a0,800 # 1320 <.Lline_table_start1+0x10f5>
   16dca:	950a                	add	a0,a0,sp
   16dcc:	004c                	addi	a1,sp,4
   16dce:	04a00613          	li	a2,74
   16dd2:	00004097          	auipc	ra,0x4
   16dd6:	1a0080e7          	jalr	416(ra) # 1af72 <memcpy>
   16dda:	6505                	lui	a0,0x1
   16ddc:	38f50513          	addi	a0,a0,911 # 138f <.Lline_table_start1+0x1164>
   16de0:	950a                	add	a0,a0,sp
   16de2:	6585                	lui	a1,0x1
   16de4:	32058593          	addi	a1,a1,800 # 1320 <.Lline_table_start1+0x10f5>
   16de8:	958a                	add	a1,a1,sp
   16dea:	04a00613          	li	a2,74
   16dee:	00004097          	auipc	ra,0x4
   16df2:	184080e7          	jalr	388(ra) # 1af72 <memcpy>
   16df6:	4489                	li	s1,2
   16df8:	018ad513          	srli	a0,s5,0x18
   16dfc:	010ad593          	srli	a1,s5,0x10
   16e00:	3eaa0f23          	sb	a0,1022(s4)
   16e04:	008ad513          	srli	a0,s5,0x8
   16e08:	3e9a0a23          	sb	s1,1012(s4)
   16e0c:	3f5a0da3          	sb	s5,1019(s4)
   16e10:	3eaa0e23          	sb	a0,1020(s4)
   16e14:	3eba0ea3          	sb	a1,1021(s4)
   16e18:	6505                	lui	a0,0x1
   16e1a:	32c50513          	addi	a0,a0,812 # 132c <.Lline_table_start1+0x1101>
   16e1e:	00a10933          	add	s2,sp,a0
   16e22:	04600613          	li	a2,70
   16e26:	854a                	mv	a0,s2
   16e28:	4581                	li	a1,0
   16e2a:	00004097          	auipc	ra,0x4
   16e2e:	0dc080e7          	jalr	220(ra) # 1af06 <memset>
   16e32:	8622                	mv	a2,s0
   16e34:	389a0c23          	sb	s1,920(s4)
   16e38:	6409                	lui	s0,0x2
   16e3a:	489d                	li	a7,7
   16e3c:	4811                	li	a6,4
   16e3e:	459d                	li	a1,7
   16e40:	0c440793          	addi	a5,s0,196 # 20c4 <.Lline_table_start1+0x1e99>
   16e44:	05100693          	li	a3,81
   16e48:	4711                	li	a4,4
   16e4a:	853e                	mv	a0,a5
   16e4c:	00000073          	ecall
   16e50:	04950b63          	beq	a0,s1,16ea6 <_start+0x204>
   16e54:	853e                	mv	a0,a5
   16e56:	4581                	li	a1,0
   16e58:	864a                	mv	a2,s2
   16e5a:	0419                	addi	s0,s0,6
   16e5c:	478d                	li	a5,3
   16e5e:	04600693          	li	a3,70
   16e62:	0be40413          	addi	s0,s0,190
   16e66:	3e8a2623          	sw	s0,1004(s4)
   16e6a:	3f1a2823          	sw	a7,1008(s4)
   16e6e:	3f0a0a23          	sb	a6,1012(s4)
   16e72:	470d                	li	a4,3
   16e74:	00000073          	ecall
   16e78:	02950763          	beq	a0,s1,16ea6 <_start+0x204>
   16e7c:	388a2823          	sw	s0,912(s4)
   16e80:	380a2a23          	sw	zero,916(s4)
   16e84:	38fa0c23          	sb	a5,920(s4)
   16e88:	6509                	lui	a0,0x2
   16e8a:	459d                	li	a1,7
   16e8c:	0c450513          	addi	a0,a0,196 # 20c4 <.Lline_table_start1+0x1e99>
   16e90:	4709                	li	a4,2
   16e92:	07f00793          	li	a5,127
   16e96:	4601                	li	a2,0
   16e98:	4681                	li	a3,0
   16e9a:	00000073          	ecall
   16e9e:	00a7f463          	bgeu	a5,a0,16ea6 <_start+0x204>
   16ea2:	3910306f          	j	1aa32 <_start+0x3d90>
   16ea6:	8aae                	mv	s5,a1
   16ea8:	4405                	li	s0,1
   16eaa:	6505                	lui	a0,0x1
   16eac:	32050513          	addi	a0,a0,800 # 1320 <.Lline_table_start1+0x10f5>
   16eb0:	950a                	add	a0,a0,sp
   16eb2:	00004097          	auipc	ra,0x4
   16eb6:	034080e7          	jalr	52(ra) # 1aee6 <_ZN9allow_pin12full_dynamic17unshare_if_shared17h3494b15e905518bcE>
   16eba:	6505                	lui	a0,0x1
   16ebc:	37c50513          	addi	a0,a0,892 # 137c <.Lline_table_start1+0x1151>
   16ec0:	950a                	add	a0,a0,sp
   16ec2:	00004097          	auipc	ra,0x4
   16ec6:	024080e7          	jalr	36(ra) # 1aee6 <_ZN9allow_pin12full_dynamic17unshare_if_shared17h3494b15e905518bcE>
   16eca:	c019                	beqz	s0,16ed0 <_start+0x22e>
   16ecc:	2a30306f          	j	1a96e <_start+0x3ccc>
   16ed0:	09011503          	lh	a0,144(sp)
   16ed4:	09214583          	lbu	a1,146(sp)
   16ed8:	6605                	lui	a2,0x1
   16eda:	38860613          	addi	a2,a2,904 # 1388 <.Lline_table_start1+0x115d>
   16ede:	00c109b3          	add	s3,sp,a2
   16ee2:	3eaa1c23          	sh	a0,1016(s4)
   16ee6:	3eba0d23          	sb	a1,1018(s4)
   16eea:	0048                	addi	a0,sp,4
   16eec:	088c                	addi	a1,sp,80
   16eee:	03f00613          	li	a2,63
   16ef2:	00004097          	auipc	ra,0x4
   16ef6:	080080e7          	jalr	128(ra) # 1af72 <memcpy>
   16efa:	6505                	lui	a0,0x1
   16efc:	38f50513          	addi	a0,a0,911 # 138f <.Lline_table_start1+0x1164>
   16f00:	950a                	add	a0,a0,sp
   16f02:	004c                	addi	a1,sp,4
   16f04:	03f00613          	li	a2,63
   16f08:	00004097          	auipc	ra,0x4
   16f0c:	06a080e7          	jalr	106(ra) # 1af72 <memcpy>
   16f10:	864e                	mv	a2,s3
   16f12:	4489                	li	s1,2
   16f14:	018ad513          	srli	a0,s5,0x18
   16f18:	010ad693          	srli	a3,s5,0x10
   16f1c:	008ad713          	srli	a4,s5,0x8
   16f20:	3a0a2423          	sw	zero,936(s4)
   16f24:	3a0a2623          	sw	zero,940(s4)
   16f28:	3a0a2823          	sw	zero,944(s4)
   16f2c:	6409                	lui	s0,0x2
   16f2e:	488d                	li	a7,3
   16f30:	4811                	li	a6,4
   16f32:	458d                	li	a1,3
   16f34:	3eaa0f23          	sb	a0,1022(s4)
   16f38:	3e9a0a23          	sb	s1,1012(s4)
   16f3c:	3f5a0da3          	sb	s5,1019(s4)
   16f40:	3eea0e23          	sb	a4,1020(s4)
   16f44:	3eda0ea3          	sb	a3,1021(s4)
   16f48:	389a0c23          	sb	s1,920(s4)
   16f4c:	380a2e23          	sw	zero,924(s4)
   16f50:	3a0a2023          	sw	zero,928(s4)
   16f54:	3a0a2223          	sw	zero,932(s4)
   16f58:	3cf40793          	addi	a5,s0,975 # 23cf <.Lline_table_start1+0x21a4>
   16f5c:	04600693          	li	a3,70
   16f60:	4711                	li	a4,4
   16f62:	853e                	mv	a0,a5
   16f64:	00000073          	ecall
   16f68:	04950b63          	beq	a0,s1,16fbe <_start+0x31c>
   16f6c:	0419                	addi	s0,s0,6
   16f6e:	4589                	li	a1,2
   16f70:	46e1                	li	a3,24
   16f72:	3c940413          	addi	s0,s0,969
   16f76:	3e8a2623          	sw	s0,1004(s4)
   16f7a:	3f1a2823          	sw	a7,1008(s4)
   16f7e:	3f0a0a23          	sb	a6,1012(s4)
   16f82:	470d                	li	a4,3
   16f84:	853e                	mv	a0,a5
   16f86:	864a                	mv	a2,s2
   16f88:	00000073          	ecall
   16f8c:	02950963          	beq	a0,s1,16fbe <_start+0x31c>
   16f90:	4509                	li	a0,2
   16f92:	468d                	li	a3,3
   16f94:	6709                	lui	a4,0x2
   16f96:	458d                	li	a1,3
   16f98:	4609                	li	a2,2
   16f9a:	388a2823          	sw	s0,912(s4)
   16f9e:	38aa2a23          	sw	a0,916(s4)
   16fa2:	38da0c23          	sb	a3,920(s4)
   16fa6:	3cf70513          	addi	a0,a4,975 # 23cf <.Lline_table_start1+0x21a4>
   16faa:	4709                	li	a4,2
   16fac:	07f00793          	li	a5,127
   16fb0:	4681                	li	a3,0
   16fb2:	00000073          	ecall
   16fb6:	00a7f463          	bgeu	a5,a0,16fbe <_start+0x31c>
   16fba:	2fd0306f          	j	1aab6 <_start+0x3e14>
   16fbe:	8aae                	mv	s5,a1
   16fc0:	4405                	li	s0,1
   16fc2:	6505                	lui	a0,0x1
   16fc4:	32050513          	addi	a0,a0,800 # 1320 <.Lline_table_start1+0x10f5>
   16fc8:	950a                	add	a0,a0,sp
   16fca:	00004097          	auipc	ra,0x4
   16fce:	f1c080e7          	jalr	-228(ra) # 1aee6 <_ZN9allow_pin12full_dynamic17unshare_if_shared17h3494b15e905518bcE>
   16fd2:	6505                	lui	a0,0x1
   16fd4:	37c50513          	addi	a0,a0,892 # 137c <.Lline_table_start1+0x1151>
   16fd8:	950a                	add	a0,a0,sp
   16fda:	00004097          	auipc	ra,0x4
   16fde:	f0c080e7          	jalr	-244(ra) # 1aee6 <_ZN9allow_pin12full_dynamic17unshare_if_shared17h3494b15e905518bcE>
   16fe2:	c019                	beqz	s0,16fe8 <_start+0x346>
   16fe4:	18b0306f          	j	1a96e <_start+0x3ccc>
   16fe8:	0a411503          	lh	a0,164(sp)
   16fec:	0a614583          	lbu	a1,166(sp)
   16ff0:	464a                	lw	a2,144(sp)
   16ff2:	46da                	lw	a3,148(sp)
   16ff4:	476a                	lw	a4,152(sp)
   16ff6:	47fa                	lw	a5,156(sp)
   16ff8:	04a11e23          	sh	a0,92(sp)
   16ffc:	04b10f23          	sb	a1,94(sp)
   17000:	0a014503          	lbu	a0,160(sp)
   17004:	c232                	sw	a2,4(sp)
   17006:	c436                	sw	a3,8(sp)
   17008:	c63a                	sw	a4,12(sp)
   1700a:	c83e                	sw	a5,16(sp)
   1700c:	08e0                	addi	s0,sp,92
   1700e:	00a10a23          	sb	a0,20(sp)
   17012:	06310513          	addi	a0,sp,99
   17016:	004c                	addi	a1,sp,4
   17018:	4645                	li	a2,17
   1701a:	00004097          	auipc	ra,0x4
   1701e:	f58080e7          	jalr	-168(ra) # 1af72 <memcpy>
   17022:	4489                	li	s1,2
   17024:	018ad513          	srli	a0,s5,0x18
   17028:	010ad593          	srli	a1,s5,0x10
   1702c:	06a10123          	sb	a0,98(sp)
   17030:	008ad513          	srli	a0,s5,0x8
   17034:	04910c23          	sb	s1,88(sp)
   17038:	05510fa3          	sb	s5,95(sp)
   1703c:	06a10023          	sb	a0,96(sp)
   17040:	06b100a3          	sb	a1,97(sp)
   17044:	03600613          	li	a2,54
   17048:	854e                	mv	a0,s3
   1704a:	4581                	li	a1,0
   1704c:	00004097          	auipc	ra,0x4
   17050:	eba080e7          	jalr	-326(ra) # 1af06 <memset>
   17054:	4581                	li	a1,0
   17056:	8622                	mv	a2,s0
   17058:	3e9a0a23          	sb	s1,1012(s4)
   1705c:	21f00413          	li	s0,543
   17060:	4791                	li	a5,4
   17062:	21f00513          	li	a0,543
   17066:	46e1                	li	a3,24
   17068:	4711                	li	a4,4
   1706a:	00000073          	ecall
   1706e:	04950963          	beq	a0,s1,170c0 <_start+0x41e>
   17072:	864e                	mv	a2,s3
   17074:	c8a2                	sw	s0,80(sp)
   17076:	ca82                	sw	zero,84(sp)
   17078:	04f10c23          	sb	a5,88(sp)
   1707c:	479d                	li	a5,7
   1707e:	440d                	li	s0,3
   17080:	21f00513          	li	a0,543
   17084:	459d                	li	a1,7
   17086:	03600693          	li	a3,54
   1708a:	470d                	li	a4,3
   1708c:	00000073          	ecall
   17090:	02950863          	beq	a0,s1,170c0 <_start+0x41e>
   17094:	21f00593          	li	a1,543
   17098:	21f00513          	li	a0,543
   1709c:	461d                	li	a2,7
   1709e:	4709                	li	a4,2
   170a0:	07f00493          	li	s1,127
   170a4:	3eba2623          	sw	a1,1004(s4)
   170a8:	3efa2823          	sw	a5,1008(s4)
   170ac:	3e8a0a23          	sb	s0,1012(s4)
   170b0:	4581                	li	a1,0
   170b2:	4681                	li	a3,0
   170b4:	00000073          	ecall
   170b8:	00a4f463          	bgeu	s1,a0,170c0 <_start+0x41e>
   170bc:	2f70306f          	j	1abb2 <_start+0x3f10>
   170c0:	8aae                	mv	s5,a1
   170c2:	4405                	li	s0,1
   170c4:	6505                	lui	a0,0x1
   170c6:	37c50513          	addi	a0,a0,892 # 137c <.Lline_table_start1+0x1151>
   170ca:	950a                	add	a0,a0,sp
   170cc:	00004097          	auipc	ra,0x4
   170d0:	e1a080e7          	jalr	-486(ra) # 1aee6 <_ZN9allow_pin12full_dynamic17unshare_if_shared17h3494b15e905518bcE>
   170d4:	0888                	addi	a0,sp,80
   170d6:	00004097          	auipc	ra,0x4
   170da:	e10080e7          	jalr	-496(ra) # 1aee6 <_ZN9allow_pin12full_dynamic17unshare_if_shared17h3494b15e905518bcE>
   170de:	c019                	beqz	s0,170e4 <_start+0x442>
   170e0:	08f0306f          	j	1a96e <_start+0x3ccc>
   170e4:	09011503          	lh	a0,144(sp)
   170e8:	09214583          	lbu	a1,146(sp)
   170ec:	6605                	lui	a2,0x1
   170ee:	38860613          	addi	a2,a2,904 # 1388 <.Lline_table_start1+0x115d>
   170f2:	00c10433          	add	s0,sp,a2
   170f6:	3eaa1c23          	sh	a0,1016(s4)
   170fa:	3eba0d23          	sb	a1,1018(s4)
   170fe:	6505                	lui	a0,0x1
   17100:	32050513          	addi	a0,a0,800 # 1320 <.Lline_table_start1+0x10f5>
   17104:	950a                	add	a0,a0,sp
   17106:	004c                	addi	a1,sp,4
   17108:	02f00613          	li	a2,47
   1710c:	00004097          	auipc	ra,0x4
   17110:	e66080e7          	jalr	-410(ra) # 1af72 <memcpy>
   17114:	6505                	lui	a0,0x1
   17116:	38f50513          	addi	a0,a0,911 # 138f <.Lline_table_start1+0x1164>
   1711a:	950a                	add	a0,a0,sp
   1711c:	6585                	lui	a1,0x1
   1711e:	32058593          	addi	a1,a1,800 # 1320 <.Lline_table_start1+0x10f5>
   17122:	958a                	add	a1,a1,sp
   17124:	02f00613          	li	a2,47
   17128:	00004097          	auipc	ra,0x4
   1712c:	e4a080e7          	jalr	-438(ra) # 1af72 <memcpy>
   17130:	4489                	li	s1,2
   17132:	018ad513          	srli	a0,s5,0x18
   17136:	010ad593          	srli	a1,s5,0x10
   1713a:	3eaa0f23          	sb	a0,1022(s4)
   1713e:	008ad513          	srli	a0,s5,0x8
   17142:	3e9a0a23          	sb	s1,1012(s4)
   17146:	3f5a0da3          	sb	s5,1019(s4)
   1714a:	3eaa0e23          	sb	a0,1020(s4)
   1714e:	3eba0ea3          	sb	a1,1021(s4)
   17152:	02500613          	li	a2,37
   17156:	854a                	mv	a0,s2
   17158:	4581                	li	a1,0
   1715a:	00004097          	auipc	ra,0x4
   1715e:	dac080e7          	jalr	-596(ra) # 1af06 <memset>
   17162:	8622                	mv	a2,s0
   17164:	389a0c23          	sb	s1,920(s4)
   17168:	6505                	lui	a0,0x1
   1716a:	441d                	li	s0,7
   1716c:	4811                	li	a6,4
   1716e:	459d                	li	a1,7
   17170:	59750793          	addi	a5,a0,1431 # 1597 <.Lline_table_start1+0x136c>
   17174:	03600693          	li	a3,54
   17178:	4711                	li	a4,4
   1717a:	853e                	mv	a0,a5
   1717c:	00000073          	ecall
   17180:	04950863          	beq	a0,s1,171d0 <_start+0x52e>
   17184:	853e                	mv	a0,a5
   17186:	4581                	li	a1,0
   17188:	864a                	mv	a2,s2
   1718a:	3efa2623          	sw	a5,1004(s4)
   1718e:	3e8a2823          	sw	s0,1008(s4)
   17192:	3f0a0a23          	sb	a6,1012(s4)
   17196:	440d                	li	s0,3
   17198:	02500693          	li	a3,37
   1719c:	470d                	li	a4,3
   1719e:	00000073          	ecall
   171a2:	02950763          	beq	a0,s1,171d0 <_start+0x52e>
   171a6:	38fa2823          	sw	a5,912(s4)
   171aa:	380a2a23          	sw	zero,916(s4)
   171ae:	388a0c23          	sb	s0,920(s4)
   171b2:	6505                	lui	a0,0x1
   171b4:	459d                	li	a1,7
   171b6:	59750513          	addi	a0,a0,1431 # 1597 <.Lline_table_start1+0x136c>
   171ba:	4709                	li	a4,2
   171bc:	07f00793          	li	a5,127
   171c0:	4601                	li	a2,0
   171c2:	4681                	li	a3,0
   171c4:	00000073          	ecall
   171c8:	00a7f463          	bgeu	a5,a0,171d0 <_start+0x52e>
   171cc:	2650306f          	j	1ac30 <_start+0x3f8e>
   171d0:	8aae                	mv	s5,a1
   171d2:	4405                	li	s0,1
   171d4:	6505                	lui	a0,0x1
   171d6:	32050513          	addi	a0,a0,800 # 1320 <.Lline_table_start1+0x10f5>
   171da:	950a                	add	a0,a0,sp
   171dc:	00004097          	auipc	ra,0x4
   171e0:	d0a080e7          	jalr	-758(ra) # 1aee6 <_ZN9allow_pin12full_dynamic17unshare_if_shared17h3494b15e905518bcE>
   171e4:	6505                	lui	a0,0x1
   171e6:	37c50513          	addi	a0,a0,892 # 137c <.Lline_table_start1+0x1151>
   171ea:	950a                	add	a0,a0,sp
   171ec:	00004097          	auipc	ra,0x4
   171f0:	cfa080e7          	jalr	-774(ra) # 1aee6 <_ZN9allow_pin12full_dynamic17unshare_if_shared17h3494b15e905518bcE>
   171f4:	c019                	beqz	s0,171fa <_start+0x558>
   171f6:	7780306f          	j	1a96e <_start+0x3ccc>
   171fa:	09011503          	lh	a0,144(sp)
   171fe:	09214583          	lbu	a1,146(sp)
   17202:	6605                	lui	a2,0x1
   17204:	38860613          	addi	a2,a2,904 # 1388 <.Lline_table_start1+0x115d>
   17208:	00c10433          	add	s0,sp,a2
   1720c:	3eaa1c23          	sh	a0,1016(s4)
   17210:	3eba0d23          	sb	a1,1018(s4)
   17214:	4546                	lw	a0,80(sp)
   17216:	45d6                	lw	a1,84(sp)
   17218:	4666                	lw	a2,88(sp)
   1721a:	46f6                	lw	a3,92(sp)
   1721c:	c22a                	sw	a0,4(sp)
   1721e:	c42e                	sw	a1,8(sp)
   17220:	c632                	sw	a2,12(sp)
   17222:	c836                	sw	a3,16(sp)
   17224:	5506                	lw	a0,96(sp)
   17226:	5596                	lw	a1,100(sp)
   17228:	5626                	lw	a2,104(sp)
   1722a:	06c11683          	lh	a3,108(sp)
   1722e:	ca2a                	sw	a0,20(sp)
   17230:	cc2e                	sw	a1,24(sp)
   17232:	ce32                	sw	a2,28(sp)
   17234:	02d11023          	sh	a3,32(sp)
   17238:	6505                	lui	a0,0x1
   1723a:	38f50513          	addi	a0,a0,911 # 138f <.Lline_table_start1+0x1164>
   1723e:	950a                	add	a0,a0,sp
   17240:	004c                	addi	a1,sp,4
   17242:	4679                	li	a2,30
   17244:	00004097          	auipc	ra,0x4
   17248:	d2e080e7          	jalr	-722(ra) # 1af72 <memcpy>
   1724c:	8622                	mv	a2,s0
   1724e:	4789                	li	a5,2
   17250:	018ad693          	srli	a3,s5,0x18
   17254:	010ad713          	srli	a4,s5,0x10
   17258:	008ad493          	srli	s1,s5,0x8
   1725c:	3a0a1423          	sh	zero,936(s4)
   17260:	66700413          	li	s0,1639
   17264:	4811                	li	a6,4
   17266:	66700513          	li	a0,1639
   1726a:	4589                	li	a1,2
   1726c:	3eda0f23          	sb	a3,1022(s4)
   17270:	02500693          	li	a3,37
   17274:	3efa0a23          	sb	a5,1012(s4)
   17278:	3f5a0da3          	sb	s5,1019(s4)
   1727c:	3e9a0e23          	sb	s1,1020(s4)
   17280:	3eea0ea3          	sb	a4,1021(s4)
   17284:	38fa0c23          	sb	a5,920(s4)
   17288:	380a2e23          	sw	zero,924(s4)
   1728c:	3a0a2023          	sw	zero,928(s4)
   17290:	3a0a2223          	sw	zero,932(s4)
   17294:	4711                	li	a4,4
   17296:	00000073          	ecall
   1729a:	04f50a63          	beq	a0,a5,172ee <_start+0x64c>
   1729e:	864a                	mv	a2,s2
   172a0:	3e8a2623          	sw	s0,1004(s4)
   172a4:	3efa2823          	sw	a5,1008(s4)
   172a8:	3f0a0a23          	sb	a6,1012(s4)
   172ac:	44a1                	li	s1,8
   172ae:	440d                	li	s0,3
   172b0:	66700513          	li	a0,1639
   172b4:	45a1                	li	a1,8
   172b6:	46b9                	li	a3,14
   172b8:	470d                	li	a4,3
   172ba:	00000073          	ecall
   172be:	02f50863          	beq	a0,a5,172ee <_start+0x64c>
   172c2:	66700693          	li	a3,1639
   172c6:	66700513          	li	a0,1639
   172ca:	4589                	li	a1,2
   172cc:	4621                	li	a2,8
   172ce:	4709                	li	a4,2
   172d0:	07f00793          	li	a5,127
   172d4:	38da2823          	sw	a3,912(s4)
   172d8:	389a2a23          	sw	s1,916(s4)
   172dc:	388a0c23          	sb	s0,920(s4)
   172e0:	4681                	li	a3,0
   172e2:	00000073          	ecall
   172e6:	00a7f463          	bgeu	a5,a0,172ee <_start+0x64c>
   172ea:	2c30306f          	j	1adac <_start+0x410a>
   172ee:	8aae                	mv	s5,a1
   172f0:	4405                	li	s0,1
   172f2:	6505                	lui	a0,0x1
   172f4:	32050513          	addi	a0,a0,800 # 1320 <.Lline_table_start1+0x10f5>
   172f8:	950a                	add	a0,a0,sp
   172fa:	00004097          	auipc	ra,0x4
   172fe:	bec080e7          	jalr	-1044(ra) # 1aee6 <_ZN9allow_pin12full_dynamic17unshare_if_shared17h3494b15e905518bcE>
   17302:	6505                	lui	a0,0x1
   17304:	37c50513          	addi	a0,a0,892 # 137c <.Lline_table_start1+0x1151>
   17308:	950a                	add	a0,a0,sp
   1730a:	00004097          	auipc	ra,0x4
   1730e:	bdc080e7          	jalr	-1060(ra) # 1aee6 <_ZN9allow_pin12full_dynamic17unshare_if_shared17h3494b15e905518bcE>
   17312:	c019                	beqz	s0,17318 <_start+0x676>
   17314:	65a0306f          	j	1a96e <_start+0x3ccc>
   17318:	09011503          	lh	a0,144(sp)
   1731c:	09214583          	lbu	a1,146(sp)
   17320:	4646                	lw	a2,80(sp)
   17322:	05411683          	lh	a3,84(sp)
   17326:	05614703          	lbu	a4,86(sp)
   1732a:	018ad793          	srli	a5,s5,0x18
   1732e:	010ad493          	srli	s1,s5,0x10
   17332:	c232                	sw	a2,4(sp)
   17334:	00d11423          	sh	a3,8(sp)
   17338:	008ad693          	srli	a3,s5,0x8
   1733c:	0aa11423          	sh	a0,168(sp)
   17340:	0ab10523          	sb	a1,170(sp)
   17344:	0b5105a3          	sb	s5,171(sp)
   17348:	0ad10623          	sb	a3,172(sp)
   1734c:	0ae10aa3          	sb	a4,181(sp)
   17350:	00514503          	lbu	a0,5(sp)
   17354:	00614583          	lbu	a1,6(sp)
   17358:	00714683          	lbu	a3,7(sp)
   1735c:	00814703          	lbu	a4,8(sp)
   17360:	0a9106a3          	sb	s1,173(sp)
   17364:	0af10723          	sb	a5,174(sp)
   17368:	0ac107a3          	sb	a2,175(sp)
   1736c:	0aa10823          	sb	a0,176(sp)
   17370:	00914503          	lbu	a0,9(sp)
   17374:	0ab108a3          	sb	a1,177(sp)
   17378:	0ad10923          	sb	a3,178(sp)
   1737c:	0ae109a3          	sb	a4,179(sp)
   17380:	0aa10a23          	sb	a0,180(sp)
   17384:	6505                	lui	a0,0x1
   17386:	37c50513          	addi	a0,a0,892 # 137c <.Lline_table_start1+0x1151>
   1738a:	950a                	add	a0,a0,sp
   1738c:	112c                	addi	a1,sp,168
   1738e:	ffffb097          	auipc	ra,0xffffb
   17392:	5de080e7          	jalr	1502(ra) # 1296c <_ZN20complex_full_dynamic3app17h544051a7e68086d9E>
   17396:	3eca4503          	lbu	a0,1004(s4)
   1739a:	c119                	beqz	a0,173a0 <_start+0x6fe>
   1739c:	5ce0306f          	j	1a96a <_start+0x3cc8>
   173a0:	3eea4503          	lbu	a0,1006(s4)
   173a4:	3eda4583          	lbu	a1,1005(s4)
   173a8:	3efa4603          	lbu	a2,1007(s4)
   173ac:	3f0a2403          	lw	s0,1008(s4)
   173b0:	0522                	slli	a0,a0,0x8
   173b2:	8d4d                	or	a0,a0,a1
   173b4:	0aa11b23          	sh	a0,182(sp)
   173b8:	0ac10c23          	sb	a2,184(sp)
   173bc:	6505                	lui	a0,0x1
   173be:	38450513          	addi	a0,a0,900 # 1384 <.Lline_table_start1+0x1159>
   173c2:	00a105b3          	add	a1,sp,a0
   173c6:	6505                	lui	a0,0x1
   173c8:	32050513          	addi	a0,a0,800 # 1320 <.Lline_table_start1+0x10f5>
   173cc:	950a                	add	a0,a0,sp
   173ce:	04100613          	li	a2,65
   173d2:	00004097          	auipc	ra,0x4
   173d6:	ba0080e7          	jalr	-1120(ra) # 1af72 <memcpy>
   173da:	01845513          	srli	a0,s0,0x18
   173de:	01045593          	srli	a1,s0,0x10
   173e2:	00845613          	srli	a2,s0,0x8
   173e6:	0a810ca3          	sb	s0,185(sp)
   173ea:	0ac10d23          	sb	a2,186(sp)
   173ee:	0ab10da3          	sb	a1,187(sp)
   173f2:	0aa10e23          	sb	a0,188(sp)
   173f6:	0bd10513          	addi	a0,sp,189
   173fa:	6585                	lui	a1,0x1
   173fc:	32058593          	addi	a1,a1,800 # 1320 <.Lline_table_start1+0x10f5>
   17400:	958a                	add	a1,a1,sp
   17402:	04100613          	li	a2,65
   17406:	00004097          	auipc	ra,0x4
   1740a:	b6c080e7          	jalr	-1172(ra) # 1af72 <memcpy>
   1740e:	6505                	lui	a0,0x1
   17410:	37c50513          	addi	a0,a0,892 # 137c <.Lline_table_start1+0x1151>
   17414:	950a                	add	a0,a0,sp
   17416:	0b610593          	addi	a1,sp,182
   1741a:	ffffa097          	auipc	ra,0xffffa
   1741e:	1f2080e7          	jalr	498(ra) # 1160c <_ZN20complex_full_dynamic3app17h15b7bf043d31ff82E>
   17422:	3eca4503          	lbu	a0,1004(s4)
   17426:	c119                	beqz	a0,1742c <_start+0x78a>
   17428:	5420306f          	j	1a96a <_start+0x3cc8>
   1742c:	3eda4503          	lbu	a0,1005(s4)
   17430:	3eea4583          	lbu	a1,1006(s4)
   17434:	3efa4803          	lbu	a6,1007(s4)
   17438:	3f0a2683          	lw	a3,1008(s4)
   1743c:	3f4a2703          	lw	a4,1012(s4)
   17440:	3f8a2783          	lw	a5,1016(s4)
   17444:	05a2                	slli	a1,a1,0x8
   17446:	0186d893          	srli	a7,a3,0x18
   1744a:	0106d293          	srli	t0,a3,0x10
   1744e:	0187d613          	srli	a2,a5,0x18
   17452:	0107d493          	srli	s1,a5,0x10
   17456:	0087d413          	srli	s0,a5,0x8
   1745a:	8d4d                	or	a0,a0,a1
   1745c:	01875593          	srli	a1,a4,0x18
   17460:	109105a3          	sb	s1,267(sp)
   17464:	10c10623          	sb	a2,268(sp)
   17468:	01075613          	srli	a2,a4,0x10
   1746c:	10c103a3          	sb	a2,263(sp)
   17470:	10b10423          	sb	a1,264(sp)
   17474:	10f104a3          	sb	a5,265(sp)
   17478:	10810523          	sb	s0,266(sp)
   1747c:	0086d593          	srli	a1,a3,0x8
   17480:	0ea11f23          	sh	a0,254(sp)
   17484:	11010023          	sb	a6,256(sp)
   17488:	10d100a3          	sb	a3,257(sp)
   1748c:	10b10123          	sb	a1,258(sp)
   17490:	00875513          	srli	a0,a4,0x8
   17494:	105101a3          	sb	t0,259(sp)
   17498:	11110223          	sb	a7,260(sp)
   1749c:	10e102a3          	sb	a4,261(sp)
   174a0:	10a10323          	sb	a0,262(sp)
   174a4:	6505                	lui	a0,0x1
   174a6:	37c50513          	addi	a0,a0,892 # 137c <.Lline_table_start1+0x1151>
   174aa:	950a                	add	a0,a0,sp
   174ac:	0fe10593          	addi	a1,sp,254
   174b0:	ffffc097          	auipc	ra,0xffffc
   174b4:	25c080e7          	jalr	604(ra) # 1370c <_ZN20complex_full_dynamic3app17h7b7260b289fc16b9E>
   174b8:	3eca4503          	lbu	a0,1004(s4)
   174bc:	c119                	beqz	a0,174c2 <_start+0x820>
   174be:	4ac0306f          	j	1a96a <_start+0x3cc8>
   174c2:	3eda4503          	lbu	a0,1005(s4)
   174c6:	3eea4583          	lbu	a1,1006(s4)
   174ca:	3efa4603          	lbu	a2,1007(s4)
   174ce:	3f0a2683          	lw	a3,1008(s4)
   174d2:	3f4a2703          	lw	a4,1012(s4)
   174d6:	3f8a2783          	lw	a5,1016(s4)
   174da:	3fca2483          	lw	s1,1020(s4)
   174de:	400a2403          	lw	s0,1024(s4)
   174e2:	38ea2823          	sw	a4,912(s4)
   174e6:	38fa2a23          	sw	a5,916(s4)
   174ea:	389a2c23          	sw	s1,920(s4)
   174ee:	388a2e23          	sw	s0,924(s4)
   174f2:	404a2703          	lw	a4,1028(s4)
   174f6:	408a2783          	lw	a5,1032(s4)
   174fa:	40ca2483          	lw	s1,1036(s4)
   174fe:	410a1403          	lh	s0,1040(s4)
   17502:	05a2                	slli	a1,a1,0x8
   17504:	3aea2023          	sw	a4,928(s4)
   17508:	3afa2223          	sw	a5,932(s4)
   1750c:	3a9a2423          	sw	s1,936(s4)
   17510:	3a8a1623          	sh	s0,940(s4)
   17514:	0186d713          	srli	a4,a3,0x18
   17518:	8d4d                	or	a0,a0,a1
   1751a:	0106d593          	srli	a1,a3,0x10
   1751e:	10b109a3          	sb	a1,275(sp)
   17522:	10e10a23          	sb	a4,276(sp)
   17526:	0086d593          	srli	a1,a3,0x8
   1752a:	10a11723          	sh	a0,270(sp)
   1752e:	10c10823          	sb	a2,272(sp)
   17532:	10d108a3          	sb	a3,273(sp)
   17536:	10b10923          	sb	a1,274(sp)
   1753a:	11510513          	addi	a0,sp,277
   1753e:	6585                	lui	a1,0x1
   17540:	32058593          	addi	a1,a1,800 # 1320 <.Lline_table_start1+0x10f5>
   17544:	958a                	add	a1,a1,sp
   17546:	4679                	li	a2,30
   17548:	00004097          	auipc	ra,0x4
   1754c:	a2a080e7          	jalr	-1494(ra) # 1af72 <memcpy>
   17550:	6505                	lui	a0,0x1
   17552:	37c50513          	addi	a0,a0,892 # 137c <.Lline_table_start1+0x1151>
   17556:	950a                	add	a0,a0,sp
   17558:	10e10593          	addi	a1,sp,270
   1755c:	ffffa097          	auipc	ra,0xffffa
   17560:	ebe080e7          	jalr	-322(ra) # 1141a <_ZN20complex_full_dynamic3app17h0b3daa92aec121d2E>
   17564:	3eca4503          	lbu	a0,1004(s4)
   17568:	c119                	beqz	a0,1756e <_start+0x8cc>
   1756a:	4000306f          	j	1a96a <_start+0x3cc8>
   1756e:	3eea4503          	lbu	a0,1006(s4)
   17572:	3eda4583          	lbu	a1,1005(s4)
   17576:	3efa4603          	lbu	a2,1007(s4)
   1757a:	3f0a2403          	lw	s0,1008(s4)
   1757e:	0522                	slli	a0,a0,0x8
   17580:	8d4d                	or	a0,a0,a1
   17582:	12a11a23          	sh	a0,308(sp)
   17586:	12c10b23          	sb	a2,310(sp)
   1758a:	6505                	lui	a0,0x1
   1758c:	38450513          	addi	a0,a0,900 # 1384 <.Lline_table_start1+0x1159>
   17590:	00a105b3          	add	a1,sp,a0
   17594:	6505                	lui	a0,0x1
   17596:	32050513          	addi	a0,a0,800 # 1320 <.Lline_table_start1+0x10f5>
   1759a:	950a                	add	a0,a0,sp
   1759c:	02300613          	li	a2,35
   175a0:	00004097          	auipc	ra,0x4
   175a4:	9d2080e7          	jalr	-1582(ra) # 1af72 <memcpy>
   175a8:	01845513          	srli	a0,s0,0x18
   175ac:	01045593          	srli	a1,s0,0x10
   175b0:	00845613          	srli	a2,s0,0x8
   175b4:	12810ba3          	sb	s0,311(sp)
   175b8:	12c10c23          	sb	a2,312(sp)
   175bc:	12b10ca3          	sb	a1,313(sp)
   175c0:	12a10d23          	sb	a0,314(sp)
   175c4:	13b10513          	addi	a0,sp,315
   175c8:	6585                	lui	a1,0x1
   175ca:	32058593          	addi	a1,a1,800 # 1320 <.Lline_table_start1+0x10f5>
   175ce:	958a                	add	a1,a1,sp
   175d0:	02300613          	li	a2,35
   175d4:	00004097          	auipc	ra,0x4
   175d8:	99e080e7          	jalr	-1634(ra) # 1af72 <memcpy>
   175dc:	6505                	lui	a0,0x1
   175de:	37c50513          	addi	a0,a0,892 # 137c <.Lline_table_start1+0x1151>
   175e2:	950a                	add	a0,a0,sp
   175e4:	1a4c                	addi	a1,sp,308
   175e6:	ffffe097          	auipc	ra,0xffffe
   175ea:	c64080e7          	jalr	-924(ra) # 1524a <_ZN20complex_full_dynamic3app17hc5b2e19a0cfa248eE>
   175ee:	3eca4503          	lbu	a0,1004(s4)
   175f2:	c119                	beqz	a0,175f8 <_start+0x956>
   175f4:	3760306f          	j	1a96a <_start+0x3cc8>
   175f8:	3eea4503          	lbu	a0,1006(s4)
   175fc:	3eda4583          	lbu	a1,1005(s4)
   17600:	3efa4603          	lbu	a2,1007(s4)
   17604:	3f0a2403          	lw	s0,1008(s4)
   17608:	0522                	slli	a0,a0,0x8
   1760a:	8d4d                	or	a0,a0,a1
   1760c:	14a11f23          	sh	a0,350(sp)
   17610:	16c10023          	sb	a2,352(sp)
   17614:	6505                	lui	a0,0x1
   17616:	38450513          	addi	a0,a0,900 # 1384 <.Lline_table_start1+0x1159>
   1761a:	00a105b3          	add	a1,sp,a0
   1761e:	6505                	lui	a0,0x1
   17620:	32050513          	addi	a0,a0,800 # 1320 <.Lline_table_start1+0x10f5>
   17624:	950a                	add	a0,a0,sp
   17626:	05c00613          	li	a2,92
   1762a:	00004097          	auipc	ra,0x4
   1762e:	948080e7          	jalr	-1720(ra) # 1af72 <memcpy>
   17632:	01845513          	srli	a0,s0,0x18
   17636:	01045593          	srli	a1,s0,0x10
   1763a:	00845613          	srli	a2,s0,0x8
   1763e:	168100a3          	sb	s0,353(sp)
   17642:	16c10123          	sb	a2,354(sp)
   17646:	16b101a3          	sb	a1,355(sp)
   1764a:	16a10223          	sb	a0,356(sp)
   1764e:	16510513          	addi	a0,sp,357
   17652:	6585                	lui	a1,0x1
   17654:	32058593          	addi	a1,a1,800 # 1320 <.Lline_table_start1+0x10f5>
   17658:	958a                	add	a1,a1,sp
   1765a:	05c00613          	li	a2,92
   1765e:	00004097          	auipc	ra,0x4
   17662:	914080e7          	jalr	-1772(ra) # 1af72 <memcpy>
   17666:	6505                	lui	a0,0x1
   17668:	37c50513          	addi	a0,a0,892 # 137c <.Lline_table_start1+0x1151>
   1766c:	950a                	add	a0,a0,sp
   1766e:	15e10593          	addi	a1,sp,350
   17672:	ffffa097          	auipc	ra,0xffffa
   17676:	56c080e7          	jalr	1388(ra) # 11bde <_ZN20complex_full_dynamic3app17h23d60241138e25eaE>
   1767a:	3eca4503          	lbu	a0,1004(s4)
   1767e:	c119                	beqz	a0,17684 <_start+0x9e2>
   17680:	2ea0306f          	j	1a96a <_start+0x3cc8>
   17684:	3eda4503          	lbu	a0,1005(s4)
   17688:	3eea4583          	lbu	a1,1006(s4)
   1768c:	3efa4603          	lbu	a2,1007(s4)
   17690:	3f0a2683          	lw	a3,1008(s4)
   17694:	3f4a2703          	lw	a4,1012(s4)
   17698:	3f8a2783          	lw	a5,1016(s4)
   1769c:	3fca2483          	lw	s1,1020(s4)
   176a0:	400a2403          	lw	s0,1024(s4)
   176a4:	38ea2823          	sw	a4,912(s4)
   176a8:	38fa2a23          	sw	a5,916(s4)
   176ac:	389a2c23          	sw	s1,920(s4)
   176b0:	388a2e23          	sw	s0,924(s4)
   176b4:	404a2703          	lw	a4,1028(s4)
   176b8:	408a2783          	lw	a5,1032(s4)
   176bc:	40ca2483          	lw	s1,1036(s4)
   176c0:	410a2403          	lw	s0,1040(s4)
   176c4:	05a2                	slli	a1,a1,0x8
   176c6:	3aea2023          	sw	a4,928(s4)
   176ca:	3afa2223          	sw	a5,932(s4)
   176ce:	3a9a2423          	sw	s1,936(s4)
   176d2:	3a8a2623          	sw	s0,940(s4)
   176d6:	0186d713          	srli	a4,a3,0x18
   176da:	8d4d                	or	a0,a0,a1
   176dc:	0106d593          	srli	a1,a3,0x10
   176e0:	1cb103a3          	sb	a1,455(sp)
   176e4:	1ce10423          	sb	a4,456(sp)
   176e8:	0086d593          	srli	a1,a3,0x8
   176ec:	1ca11123          	sh	a0,450(sp)
   176f0:	1cc10223          	sb	a2,452(sp)
   176f4:	1cd102a3          	sb	a3,453(sp)
   176f8:	1cb10323          	sb	a1,454(sp)
   176fc:	1c910513          	addi	a0,sp,457
   17700:	6585                	lui	a1,0x1
   17702:	32058593          	addi	a1,a1,800 # 1320 <.Lline_table_start1+0x10f5>
   17706:	958a                	add	a1,a1,sp
   17708:	02000613          	li	a2,32
   1770c:	00004097          	auipc	ra,0x4
   17710:	866080e7          	jalr	-1946(ra) # 1af72 <memcpy>
   17714:	6505                	lui	a0,0x1
   17716:	37c50513          	addi	a0,a0,892 # 137c <.Lline_table_start1+0x1151>
   1771a:	950a                	add	a0,a0,sp
   1771c:	1c210593          	addi	a1,sp,450
   17720:	fffff097          	auipc	ra,0xfffff
   17724:	f9e080e7          	jalr	-98(ra) # 166be <_ZN20complex_full_dynamic3app17hf24ae99a7d4de32cE>
   17728:	3eca4503          	lbu	a0,1004(s4)
   1772c:	c119                	beqz	a0,17732 <_start+0xa90>
   1772e:	23c0306f          	j	1a96a <_start+0x3cc8>
   17732:	3eda4503          	lbu	a0,1005(s4)
   17736:	3eea4583          	lbu	a1,1006(s4)
   1773a:	3efa4603          	lbu	a2,1007(s4)
   1773e:	3f0a2683          	lw	a3,1008(s4)
   17742:	3f4a2703          	lw	a4,1012(s4)
   17746:	3f8a2783          	lw	a5,1016(s4)
   1774a:	3fca2483          	lw	s1,1020(s4)
   1774e:	400a2403          	lw	s0,1024(s4)
   17752:	38ea2823          	sw	a4,912(s4)
   17756:	38fa2a23          	sw	a5,916(s4)
   1775a:	389a2c23          	sw	s1,920(s4)
   1775e:	388a2e23          	sw	s0,924(s4)
   17762:	404a2703          	lw	a4,1028(s4)
   17766:	408a1783          	lh	a5,1032(s4)
   1776a:	40aa4483          	lbu	s1,1034(s4)
   1776e:	05a2                	slli	a1,a1,0x8
   17770:	3aea2023          	sw	a4,928(s4)
   17774:	3afa1223          	sh	a5,932(s4)
   17778:	3a9a0323          	sb	s1,934(s4)
   1777c:	0186d713          	srli	a4,a3,0x18
   17780:	8d4d                	or	a0,a0,a1
   17782:	0106d593          	srli	a1,a3,0x10
   17786:	1eb107a3          	sb	a1,495(sp)
   1778a:	1ee10823          	sb	a4,496(sp)
   1778e:	0086d593          	srli	a1,a3,0x8
   17792:	1ea11523          	sh	a0,490(sp)
   17796:	1ec10623          	sb	a2,492(sp)
   1779a:	1ed106a3          	sb	a3,493(sp)
   1779e:	1eb10723          	sb	a1,494(sp)
   177a2:	1f110513          	addi	a0,sp,497
   177a6:	6585                	lui	a1,0x1
   177a8:	32058593          	addi	a1,a1,800 # 1320 <.Lline_table_start1+0x10f5>
   177ac:	958a                	add	a1,a1,sp
   177ae:	465d                	li	a2,23
   177b0:	00003097          	auipc	ra,0x3
   177b4:	7c2080e7          	jalr	1986(ra) # 1af72 <memcpy>
   177b8:	6505                	lui	a0,0x1
   177ba:	37c50513          	addi	a0,a0,892 # 137c <.Lline_table_start1+0x1151>
   177be:	950a                	add	a0,a0,sp
   177c0:	1ea10593          	addi	a1,sp,490
   177c4:	ffffa097          	auipc	ra,0xffffa
   177c8:	032080e7          	jalr	50(ra) # 117f6 <_ZN20complex_full_dynamic3app17h1e86846e0153b8a2E>
   177cc:	3eca4503          	lbu	a0,1004(s4)
   177d0:	c119                	beqz	a0,177d6 <_start+0xb34>
   177d2:	1980306f          	j	1a96a <_start+0x3cc8>
   177d6:	3eea4503          	lbu	a0,1006(s4)
   177da:	3eda4583          	lbu	a1,1005(s4)
   177de:	3efa4603          	lbu	a2,1007(s4)
   177e2:	3f0a2403          	lw	s0,1008(s4)
   177e6:	0522                	slli	a0,a0,0x8
   177e8:	8d4d                	or	a0,a0,a1
   177ea:	20a11423          	sh	a0,520(sp)
   177ee:	20c10523          	sb	a2,522(sp)
   177f2:	6505                	lui	a0,0x1
   177f4:	38450513          	addi	a0,a0,900 # 1384 <.Lline_table_start1+0x1159>
   177f8:	00a105b3          	add	a1,sp,a0
   177fc:	6505                	lui	a0,0x1
   177fe:	32050513          	addi	a0,a0,800 # 1320 <.Lline_table_start1+0x10f5>
   17802:	950a                	add	a0,a0,sp
   17804:	02500613          	li	a2,37
   17808:	00003097          	auipc	ra,0x3
   1780c:	76a080e7          	jalr	1898(ra) # 1af72 <memcpy>
   17810:	01845513          	srli	a0,s0,0x18
   17814:	01045593          	srli	a1,s0,0x10
   17818:	00845613          	srli	a2,s0,0x8
   1781c:	208105a3          	sb	s0,523(sp)
   17820:	20c10623          	sb	a2,524(sp)
   17824:	20b106a3          	sb	a1,525(sp)
   17828:	20a10723          	sb	a0,526(sp)
   1782c:	20f10513          	addi	a0,sp,527
   17830:	6585                	lui	a1,0x1
   17832:	32058593          	addi	a1,a1,800 # 1320 <.Lline_table_start1+0x10f5>
   17836:	958a                	add	a1,a1,sp
   17838:	02500613          	li	a2,37
   1783c:	00003097          	auipc	ra,0x3
   17840:	736080e7          	jalr	1846(ra) # 1af72 <memcpy>
   17844:	6505                	lui	a0,0x1
   17846:	37c50513          	addi	a0,a0,892 # 137c <.Lline_table_start1+0x1151>
   1784a:	950a                	add	a0,a0,sp
   1784c:	042c                	addi	a1,sp,520
   1784e:	ffffa097          	auipc	ra,0xffffa
   17852:	48a080e7          	jalr	1162(ra) # 11cd8 <_ZN20complex_full_dynamic3app17h2bd0d25be7565a35E>
   17856:	3eca4503          	lbu	a0,1004(s4)
   1785a:	c119                	beqz	a0,17860 <_start+0xbbe>
   1785c:	10e0306f          	j	1a96a <_start+0x3cc8>
   17860:	3eda4503          	lbu	a0,1005(s4)
   17864:	3eea4583          	lbu	a1,1006(s4)
   17868:	3efa4603          	lbu	a2,1007(s4)
   1786c:	3f0a2683          	lw	a3,1008(s4)
   17870:	3f4a2703          	lw	a4,1012(s4)
   17874:	3f8a2783          	lw	a5,1016(s4)
   17878:	3fca2483          	lw	s1,1020(s4)
   1787c:	400a2403          	lw	s0,1024(s4)
   17880:	38ea2823          	sw	a4,912(s4)
   17884:	38fa2a23          	sw	a5,916(s4)
   17888:	389a2c23          	sw	s1,920(s4)
   1788c:	388a2e23          	sw	s0,924(s4)
   17890:	404a2703          	lw	a4,1028(s4)
   17894:	408a2783          	lw	a5,1032(s4)
   17898:	40ca2483          	lw	s1,1036(s4)
   1789c:	410a1403          	lh	s0,1040(s4)
   178a0:	05a2                	slli	a1,a1,0x8
   178a2:	3aea2023          	sw	a4,928(s4)
   178a6:	3afa2223          	sw	a5,932(s4)
   178aa:	3a9a2423          	sw	s1,936(s4)
   178ae:	3a8a1623          	sh	s0,940(s4)
   178b2:	0186d713          	srli	a4,a3,0x18
   178b6:	8d4d                	or	a0,a0,a1
   178b8:	0106d593          	srli	a1,a3,0x10
   178bc:	22b10ca3          	sb	a1,569(sp)
   178c0:	22e10d23          	sb	a4,570(sp)
   178c4:	0086d593          	srli	a1,a3,0x8
   178c8:	22a11a23          	sh	a0,564(sp)
   178cc:	22c10b23          	sb	a2,566(sp)
   178d0:	22d10ba3          	sb	a3,567(sp)
   178d4:	22b10c23          	sb	a1,568(sp)
   178d8:	23b10513          	addi	a0,sp,571
   178dc:	6585                	lui	a1,0x1
   178de:	32058593          	addi	a1,a1,800 # 1320 <.Lline_table_start1+0x10f5>
   178e2:	958a                	add	a1,a1,sp
   178e4:	4679                	li	a2,30
   178e6:	00003097          	auipc	ra,0x3
   178ea:	68c080e7          	jalr	1676(ra) # 1af72 <memcpy>
   178ee:	6505                	lui	a0,0x1
   178f0:	37c50513          	addi	a0,a0,892 # 137c <.Lline_table_start1+0x1151>
   178f4:	950a                	add	a0,a0,sp
   178f6:	1c4c                	addi	a1,sp,564
   178f8:	ffffc097          	auipc	ra,0xffffc
   178fc:	3e4080e7          	jalr	996(ra) # 13cdc <_ZN20complex_full_dynamic3app17h82a30232e19ce412E>
   17900:	3eca4503          	lbu	a0,1004(s4)
   17904:	c119                	beqz	a0,1790a <_start+0xc68>
   17906:	0640306f          	j	1a96a <_start+0x3cc8>
   1790a:	3eda4503          	lbu	a0,1005(s4)
   1790e:	3eea4583          	lbu	a1,1006(s4)
   17912:	3efa4803          	lbu	a6,1007(s4)
   17916:	3f0a2683          	lw	a3,1008(s4)
   1791a:	3f4a2703          	lw	a4,1012(s4)
   1791e:	3f8a2783          	lw	a5,1016(s4)
   17922:	3fca2483          	lw	s1,1020(s4)
   17926:	400a2403          	lw	s0,1024(s4)
   1792a:	404a4603          	lbu	a2,1028(s4)
   1792e:	38ea2823          	sw	a4,912(s4)
   17932:	38fa2a23          	sw	a5,916(s4)
   17936:	389a2c23          	sw	s1,920(s4)
   1793a:	388a2e23          	sw	s0,924(s4)
   1793e:	05a2                	slli	a1,a1,0x8
   17940:	3aca0023          	sb	a2,928(s4)
   17944:	0186d613          	srli	a2,a3,0x18
   17948:	8d4d                	or	a0,a0,a1
   1794a:	0106d593          	srli	a1,a3,0x10
   1794e:	24b10fa3          	sb	a1,607(sp)
   17952:	26c10023          	sb	a2,608(sp)
   17956:	0086d593          	srli	a1,a3,0x8
   1795a:	24a11d23          	sh	a0,602(sp)
   1795e:	25010e23          	sb	a6,604(sp)
   17962:	24d10ea3          	sb	a3,605(sp)
   17966:	24b10f23          	sb	a1,606(sp)
   1796a:	26110513          	addi	a0,sp,609
   1796e:	6585                	lui	a1,0x1
   17970:	32058593          	addi	a1,a1,800 # 1320 <.Lline_table_start1+0x10f5>
   17974:	958a                	add	a1,a1,sp
   17976:	4645                	li	a2,17
   17978:	00003097          	auipc	ra,0x3
   1797c:	5fa080e7          	jalr	1530(ra) # 1af72 <memcpy>
   17980:	6505                	lui	a0,0x1
   17982:	37c50513          	addi	a0,a0,892 # 137c <.Lline_table_start1+0x1151>
   17986:	950a                	add	a0,a0,sp
   17988:	25a10593          	addi	a1,sp,602
   1798c:	ffffe097          	auipc	ra,0xffffe
   17990:	9b6080e7          	jalr	-1610(ra) # 15342 <_ZN20complex_full_dynamic3app17hc8f637f5e71cf833E>
   17994:	3eca4503          	lbu	a0,1004(s4)
   17998:	c119                	beqz	a0,1799e <_start+0xcfc>
   1799a:	7d10206f          	j	1a96a <_start+0x3cc8>
   1799e:	3eea4503          	lbu	a0,1006(s4)
   179a2:	3eda4583          	lbu	a1,1005(s4)
   179a6:	3efa4603          	lbu	a2,1007(s4)
   179aa:	3f0a2403          	lw	s0,1008(s4)
   179ae:	0522                	slli	a0,a0,0x8
   179b0:	8d4d                	or	a0,a0,a1
   179b2:	26a11923          	sh	a0,626(sp)
   179b6:	26c10a23          	sb	a2,628(sp)
   179ba:	6505                	lui	a0,0x1
   179bc:	38450513          	addi	a0,a0,900 # 1384 <.Lline_table_start1+0x1159>
   179c0:	00a105b3          	add	a1,sp,a0
   179c4:	6505                	lui	a0,0x1
   179c6:	32050513          	addi	a0,a0,800 # 1320 <.Lline_table_start1+0x10f5>
   179ca:	950a                	add	a0,a0,sp
   179cc:	02f00613          	li	a2,47
   179d0:	00003097          	auipc	ra,0x3
   179d4:	5a2080e7          	jalr	1442(ra) # 1af72 <memcpy>
   179d8:	01845513          	srli	a0,s0,0x18
   179dc:	01045593          	srli	a1,s0,0x10
   179e0:	00845613          	srli	a2,s0,0x8
   179e4:	26810aa3          	sb	s0,629(sp)
   179e8:	26c10b23          	sb	a2,630(sp)
   179ec:	26b10ba3          	sb	a1,631(sp)
   179f0:	26a10c23          	sb	a0,632(sp)
   179f4:	27910513          	addi	a0,sp,633
   179f8:	6585                	lui	a1,0x1
   179fa:	32058593          	addi	a1,a1,800 # 1320 <.Lline_table_start1+0x10f5>
   179fe:	958a                	add	a1,a1,sp
   17a00:	02f00613          	li	a2,47
   17a04:	00003097          	auipc	ra,0x3
   17a08:	56e080e7          	jalr	1390(ra) # 1af72 <memcpy>
   17a0c:	6505                	lui	a0,0x1
   17a0e:	37c50513          	addi	a0,a0,892 # 137c <.Lline_table_start1+0x1151>
   17a12:	950a                	add	a0,a0,sp
   17a14:	27210593          	addi	a1,sp,626
   17a18:	ffffd097          	auipc	ra,0xffffd
   17a1c:	990080e7          	jalr	-1648(ra) # 143a8 <_ZN20complex_full_dynamic3app17h93019456e5149740E>
   17a20:	3eca4503          	lbu	a0,1004(s4)
   17a24:	c119                	beqz	a0,17a2a <_start+0xd88>
   17a26:	7450206f          	j	1a96a <_start+0x3cc8>
   17a2a:	3eea4503          	lbu	a0,1006(s4)
   17a2e:	3eda4583          	lbu	a1,1005(s4)
   17a32:	3efa4603          	lbu	a2,1007(s4)
   17a36:	3f0a2403          	lw	s0,1008(s4)
   17a3a:	0522                	slli	a0,a0,0x8
   17a3c:	8d4d                	or	a0,a0,a1
   17a3e:	2aa11423          	sh	a0,680(sp)
   17a42:	2ac10523          	sb	a2,682(sp)
   17a46:	6505                	lui	a0,0x1
   17a48:	38450513          	addi	a0,a0,900 # 1384 <.Lline_table_start1+0x1159>
   17a4c:	00a105b3          	add	a1,sp,a0
   17a50:	6505                	lui	a0,0x1
   17a52:	32050513          	addi	a0,a0,800 # 1320 <.Lline_table_start1+0x10f5>
   17a56:	950a                	add	a0,a0,sp
   17a58:	02d00613          	li	a2,45
   17a5c:	00003097          	auipc	ra,0x3
   17a60:	516080e7          	jalr	1302(ra) # 1af72 <memcpy>
   17a64:	01845513          	srli	a0,s0,0x18
   17a68:	01045593          	srli	a1,s0,0x10
   17a6c:	00845613          	srli	a2,s0,0x8
   17a70:	2a8105a3          	sb	s0,683(sp)
   17a74:	2ac10623          	sb	a2,684(sp)
   17a78:	2ab106a3          	sb	a1,685(sp)
   17a7c:	2aa10723          	sb	a0,686(sp)
   17a80:	2af10513          	addi	a0,sp,687
   17a84:	6585                	lui	a1,0x1
   17a86:	32058593          	addi	a1,a1,800 # 1320 <.Lline_table_start1+0x10f5>
   17a8a:	958a                	add	a1,a1,sp
   17a8c:	02d00613          	li	a2,45
   17a90:	00003097          	auipc	ra,0x3
   17a94:	4e2080e7          	jalr	1250(ra) # 1af72 <memcpy>
   17a98:	6505                	lui	a0,0x1
   17a9a:	37c50513          	addi	a0,a0,892 # 137c <.Lline_table_start1+0x1151>
   17a9e:	950a                	add	a0,a0,sp
   17aa0:	152c                	addi	a1,sp,680
   17aa2:	ffffb097          	auipc	ra,0xffffb
   17aa6:	ae8080e7          	jalr	-1304(ra) # 1258a <_ZN20complex_full_dynamic3app17h43c6f3d10aebddaaE>
   17aaa:	3eca4503          	lbu	a0,1004(s4)
   17aae:	c119                	beqz	a0,17ab4 <_start+0xe12>
   17ab0:	6bb0206f          	j	1a96a <_start+0x3cc8>
   17ab4:	3eea4503          	lbu	a0,1006(s4)
   17ab8:	3eda4583          	lbu	a1,1005(s4)
   17abc:	3efa4603          	lbu	a2,1007(s4)
   17ac0:	3f0a2403          	lw	s0,1008(s4)
   17ac4:	0522                	slli	a0,a0,0x8
   17ac6:	8d4d                	or	a0,a0,a1
   17ac8:	2ca11e23          	sh	a0,732(sp)
   17acc:	2cc10f23          	sb	a2,734(sp)
   17ad0:	6505                	lui	a0,0x1
   17ad2:	38450513          	addi	a0,a0,900 # 1384 <.Lline_table_start1+0x1159>
   17ad6:	00a105b3          	add	a1,sp,a0
   17ada:	6505                	lui	a0,0x1
   17adc:	32050513          	addi	a0,a0,800 # 1320 <.Lline_table_start1+0x10f5>
   17ae0:	950a                	add	a0,a0,sp
   17ae2:	02700613          	li	a2,39
   17ae6:	00003097          	auipc	ra,0x3
   17aea:	48c080e7          	jalr	1164(ra) # 1af72 <memcpy>
   17aee:	01845513          	srli	a0,s0,0x18
   17af2:	01045593          	srli	a1,s0,0x10
   17af6:	00845613          	srli	a2,s0,0x8
   17afa:	2c810fa3          	sb	s0,735(sp)
   17afe:	2ec10023          	sb	a2,736(sp)
   17b02:	2eb100a3          	sb	a1,737(sp)
   17b06:	2ea10123          	sb	a0,738(sp)
   17b0a:	2e310513          	addi	a0,sp,739
   17b0e:	6585                	lui	a1,0x1
   17b10:	32058593          	addi	a1,a1,800 # 1320 <.Lline_table_start1+0x10f5>
   17b14:	958a                	add	a1,a1,sp
   17b16:	02700613          	li	a2,39
   17b1a:	00003097          	auipc	ra,0x3
   17b1e:	458080e7          	jalr	1112(ra) # 1af72 <memcpy>
   17b22:	6505                	lui	a0,0x1
   17b24:	37c50513          	addi	a0,a0,892 # 137c <.Lline_table_start1+0x1151>
   17b28:	950a                	add	a0,a0,sp
   17b2a:	0dec                	addi	a1,sp,732
   17b2c:	ffffd097          	auipc	ra,0xffffd
   17b30:	528080e7          	jalr	1320(ra) # 15054 <_ZN20complex_full_dynamic3app17hb62cb6e2d579fd71E>
   17b34:	3eca4503          	lbu	a0,1004(s4)
   17b38:	c119                	beqz	a0,17b3e <_start+0xe9c>
   17b3a:	6310206f          	j	1a96a <_start+0x3cc8>
   17b3e:	3eea4503          	lbu	a0,1006(s4)
   17b42:	3eda4583          	lbu	a1,1005(s4)
   17b46:	3efa4603          	lbu	a2,1007(s4)
   17b4a:	3f0a2403          	lw	s0,1008(s4)
   17b4e:	0522                	slli	a0,a0,0x8
   17b50:	8d4d                	or	a0,a0,a1
   17b52:	30a11523          	sh	a0,778(sp)
   17b56:	30c10623          	sb	a2,780(sp)
   17b5a:	6505                	lui	a0,0x1
   17b5c:	38450513          	addi	a0,a0,900 # 1384 <.Lline_table_start1+0x1159>
   17b60:	00a105b3          	add	a1,sp,a0
   17b64:	6505                	lui	a0,0x1
   17b66:	32050513          	addi	a0,a0,800 # 1320 <.Lline_table_start1+0x10f5>
   17b6a:	950a                	add	a0,a0,sp
   17b6c:	03100613          	li	a2,49
   17b70:	00003097          	auipc	ra,0x3
   17b74:	402080e7          	jalr	1026(ra) # 1af72 <memcpy>
   17b78:	01845513          	srli	a0,s0,0x18
   17b7c:	01045593          	srli	a1,s0,0x10
   17b80:	00845613          	srli	a2,s0,0x8
   17b84:	308106a3          	sb	s0,781(sp)
   17b88:	30c10723          	sb	a2,782(sp)
   17b8c:	30b107a3          	sb	a1,783(sp)
   17b90:	30a10823          	sb	a0,784(sp)
   17b94:	31110513          	addi	a0,sp,785
   17b98:	6585                	lui	a1,0x1
   17b9a:	32058593          	addi	a1,a1,800 # 1320 <.Lline_table_start1+0x10f5>
   17b9e:	958a                	add	a1,a1,sp
   17ba0:	03100613          	li	a2,49
   17ba4:	00003097          	auipc	ra,0x3
   17ba8:	3ce080e7          	jalr	974(ra) # 1af72 <memcpy>
   17bac:	6505                	lui	a0,0x1
   17bae:	37c50513          	addi	a0,a0,892 # 137c <.Lline_table_start1+0x1151>
   17bb2:	950a                	add	a0,a0,sp
   17bb4:	30a10593          	addi	a1,sp,778
   17bb8:	fffff097          	auipc	ra,0xfffff
   17bbc:	a08080e7          	jalr	-1528(ra) # 165c0 <_ZN20complex_full_dynamic3app17hefd16b387fe7bf81E>
   17bc0:	3eca4503          	lbu	a0,1004(s4)
   17bc4:	c119                	beqz	a0,17bca <_start+0xf28>
   17bc6:	5a50206f          	j	1a96a <_start+0x3cc8>
   17bca:	3eea4503          	lbu	a0,1006(s4)
   17bce:	3eda4583          	lbu	a1,1005(s4)
   17bd2:	3efa4603          	lbu	a2,1007(s4)
   17bd6:	3f0a2403          	lw	s0,1008(s4)
   17bda:	0522                	slli	a0,a0,0x8
   17bdc:	8d4d                	or	a0,a0,a1
   17bde:	34a11123          	sh	a0,834(sp)
   17be2:	34c10223          	sb	a2,836(sp)
   17be6:	6505                	lui	a0,0x1
   17be8:	38450513          	addi	a0,a0,900 # 1384 <.Lline_table_start1+0x1159>
   17bec:	00a105b3          	add	a1,sp,a0
   17bf0:	6505                	lui	a0,0x1
   17bf2:	32050513          	addi	a0,a0,800 # 1320 <.Lline_table_start1+0x10f5>
   17bf6:	950a                	add	a0,a0,sp
   17bf8:	02d00613          	li	a2,45
   17bfc:	00003097          	auipc	ra,0x3
   17c00:	376080e7          	jalr	886(ra) # 1af72 <memcpy>
   17c04:	01845513          	srli	a0,s0,0x18
   17c08:	01045593          	srli	a1,s0,0x10
   17c0c:	00845613          	srli	a2,s0,0x8
   17c10:	348102a3          	sb	s0,837(sp)
   17c14:	34c10323          	sb	a2,838(sp)
   17c18:	34b103a3          	sb	a1,839(sp)
   17c1c:	34a10423          	sb	a0,840(sp)
   17c20:	34910513          	addi	a0,sp,841
   17c24:	6585                	lui	a1,0x1
   17c26:	32058593          	addi	a1,a1,800 # 1320 <.Lline_table_start1+0x10f5>
   17c2a:	958a                	add	a1,a1,sp
   17c2c:	02d00613          	li	a2,45
   17c30:	00003097          	auipc	ra,0x3
   17c34:	342080e7          	jalr	834(ra) # 1af72 <memcpy>
   17c38:	6505                	lui	a0,0x1
   17c3a:	37c50513          	addi	a0,a0,892 # 137c <.Lline_table_start1+0x1151>
   17c3e:	950a                	add	a0,a0,sp
   17c40:	34210593          	addi	a1,sp,834
   17c44:	ffffd097          	auipc	ra,0xffffd
   17c48:	b4c080e7          	jalr	-1204(ra) # 14790 <_ZN20complex_full_dynamic3app17ha1521c259fa3c495E>
   17c4c:	3eca4503          	lbu	a0,1004(s4)
   17c50:	c119                	beqz	a0,17c56 <_start+0xfb4>
   17c52:	5190206f          	j	1a96a <_start+0x3cc8>
   17c56:	3eda4503          	lbu	a0,1005(s4)
   17c5a:	3eea4583          	lbu	a1,1006(s4)
   17c5e:	3f4a2603          	lw	a2,1012(s4)
   17c62:	3f8a2683          	lw	a3,1016(s4)
   17c66:	3fca2703          	lw	a4,1020(s4)
   17c6a:	400a2783          	lw	a5,1024(s4)
   17c6e:	404a1483          	lh	s1,1028(s4)
   17c72:	406a4403          	lbu	s0,1030(s4)
   17c76:	38ca2823          	sw	a2,912(s4)
   17c7a:	38da2a23          	sw	a3,916(s4)
   17c7e:	38ea2c23          	sw	a4,920(s4)
   17c82:	38fa2e23          	sw	a5,924(s4)
   17c86:	3efa4603          	lbu	a2,1007(s4)
   17c8a:	3f0a2683          	lw	a3,1008(s4)
   17c8e:	05a2                	slli	a1,a1,0x8
   17c90:	3a9a1023          	sh	s1,928(s4)
   17c94:	3a8a0123          	sb	s0,930(s4)
   17c98:	0186d713          	srli	a4,a3,0x18
   17c9c:	8d4d                	or	a0,a0,a1
   17c9e:	0106d593          	srli	a1,a3,0x10
   17ca2:	36b10da3          	sb	a1,891(sp)
   17ca6:	36e10e23          	sb	a4,892(sp)
   17caa:	0086d593          	srli	a1,a3,0x8
   17cae:	36a11b23          	sh	a0,886(sp)
   17cb2:	36c10c23          	sb	a2,888(sp)
   17cb6:	36d10ca3          	sb	a3,889(sp)
   17cba:	36b10d23          	sb	a1,890(sp)
   17cbe:	37d10513          	addi	a0,sp,893
   17cc2:	6585                	lui	a1,0x1
   17cc4:	32058593          	addi	a1,a1,800 # 1320 <.Lline_table_start1+0x10f5>
   17cc8:	958a                	add	a1,a1,sp
   17cca:	464d                	li	a2,19
   17ccc:	00003097          	auipc	ra,0x3
   17cd0:	2a6080e7          	jalr	678(ra) # 1af72 <memcpy>
   17cd4:	6505                	lui	a0,0x1
   17cd6:	37c50513          	addi	a0,a0,892 # 137c <.Lline_table_start1+0x1151>
   17cda:	950a                	add	a0,a0,sp
   17cdc:	37610593          	addi	a1,sp,886
   17ce0:	ffffc097          	auipc	ra,0xffffc
   17ce4:	0f0080e7          	jalr	240(ra) # 13dd0 <_ZN20complex_full_dynamic3app17h845818e2e2de2158E>
   17ce8:	3eca4503          	lbu	a0,1004(s4)
   17cec:	c119                	beqz	a0,17cf2 <_start+0x1050>
   17cee:	47d0206f          	j	1a96a <_start+0x3cc8>
   17cf2:	3eea4503          	lbu	a0,1006(s4)
   17cf6:	3eda4583          	lbu	a1,1005(s4)
   17cfa:	3efa4603          	lbu	a2,1007(s4)
   17cfe:	3f0a2403          	lw	s0,1008(s4)
   17d02:	0522                	slli	a0,a0,0x8
   17d04:	8d4d                	or	a0,a0,a1
   17d06:	38a11823          	sh	a0,912(sp)
   17d0a:	38c10923          	sb	a2,914(sp)
   17d0e:	6505                	lui	a0,0x1
   17d10:	38450513          	addi	a0,a0,900 # 1384 <.Lline_table_start1+0x1159>
   17d14:	00a105b3          	add	a1,sp,a0
   17d18:	6505                	lui	a0,0x1
   17d1a:	32050513          	addi	a0,a0,800 # 1320 <.Lline_table_start1+0x10f5>
   17d1e:	950a                	add	a0,a0,sp
   17d20:	04900613          	li	a2,73
   17d24:	00003097          	auipc	ra,0x3
   17d28:	24e080e7          	jalr	590(ra) # 1af72 <memcpy>
   17d2c:	01845513          	srli	a0,s0,0x18
   17d30:	01045593          	srli	a1,s0,0x10
   17d34:	00845613          	srli	a2,s0,0x8
   17d38:	388109a3          	sb	s0,915(sp)
   17d3c:	38c10a23          	sb	a2,916(sp)
   17d40:	38b10aa3          	sb	a1,917(sp)
   17d44:	38a10b23          	sb	a0,918(sp)
   17d48:	39710513          	addi	a0,sp,919
   17d4c:	6585                	lui	a1,0x1
   17d4e:	32058593          	addi	a1,a1,800 # 1320 <.Lline_table_start1+0x10f5>
   17d52:	958a                	add	a1,a1,sp
   17d54:	04900613          	li	a2,73
   17d58:	00003097          	auipc	ra,0x3
   17d5c:	21a080e7          	jalr	538(ra) # 1af72 <memcpy>
   17d60:	6505                	lui	a0,0x1
   17d62:	37c50513          	addi	a0,a0,892 # 137c <.Lline_table_start1+0x1151>
   17d66:	950a                	add	a0,a0,sp
   17d68:	0f0c                	addi	a1,sp,912
   17d6a:	ffffd097          	auipc	ra,0xffffd
   17d6e:	c16080e7          	jalr	-1002(ra) # 14980 <_ZN20complex_full_dynamic3app17ha66ed765ebfcab31E>
   17d72:	3eca4503          	lbu	a0,1004(s4)
   17d76:	c119                	beqz	a0,17d7c <_start+0x10da>
   17d78:	3f30206f          	j	1a96a <_start+0x3cc8>
   17d7c:	3eea4503          	lbu	a0,1006(s4)
   17d80:	3eda4583          	lbu	a1,1005(s4)
   17d84:	3efa4603          	lbu	a2,1007(s4)
   17d88:	3f0a2403          	lw	s0,1008(s4)
   17d8c:	0522                	slli	a0,a0,0x8
   17d8e:	8d4d                	or	a0,a0,a1
   17d90:	3ea11023          	sh	a0,992(sp)
   17d94:	3ec10123          	sb	a2,994(sp)
   17d98:	6505                	lui	a0,0x1
   17d9a:	38450513          	addi	a0,a0,900 # 1384 <.Lline_table_start1+0x1159>
   17d9e:	00a105b3          	add	a1,sp,a0
   17da2:	6505                	lui	a0,0x1
   17da4:	32050513          	addi	a0,a0,800 # 1320 <.Lline_table_start1+0x10f5>
   17da8:	950a                	add	a0,a0,sp
   17daa:	03500613          	li	a2,53
   17dae:	00003097          	auipc	ra,0x3
   17db2:	1c4080e7          	jalr	452(ra) # 1af72 <memcpy>
   17db6:	01845513          	srli	a0,s0,0x18
   17dba:	01045593          	srli	a1,s0,0x10
   17dbe:	00845613          	srli	a2,s0,0x8
   17dc2:	3e8101a3          	sb	s0,995(sp)
   17dc6:	3ec10223          	sb	a2,996(sp)
   17dca:	3eb102a3          	sb	a1,997(sp)
   17dce:	3ea10323          	sb	a0,998(sp)
   17dd2:	3e710513          	addi	a0,sp,999
   17dd6:	6585                	lui	a1,0x1
   17dd8:	32058593          	addi	a1,a1,800 # 1320 <.Lline_table_start1+0x10f5>
   17ddc:	958a                	add	a1,a1,sp
   17dde:	03500613          	li	a2,53
   17de2:	00003097          	auipc	ra,0x3
   17de6:	190080e7          	jalr	400(ra) # 1af72 <memcpy>
   17dea:	6505                	lui	a0,0x1
   17dec:	37c50513          	addi	a0,a0,892 # 137c <.Lline_table_start1+0x1151>
   17df0:	950a                	add	a0,a0,sp
   17df2:	178c                	addi	a1,sp,992
   17df4:	ffffe097          	auipc	ra,0xffffe
   17df8:	a32080e7          	jalr	-1486(ra) # 15826 <_ZN20complex_full_dynamic3app17hcc7f0f207cc872ceE>
   17dfc:	3eca4503          	lbu	a0,1004(s4)
   17e00:	c119                	beqz	a0,17e06 <_start+0x1164>
   17e02:	3690206f          	j	1a96a <_start+0x3cc8>
   17e06:	3eea4503          	lbu	a0,1006(s4)
   17e0a:	3eda4583          	lbu	a1,1005(s4)
   17e0e:	3efa4603          	lbu	a2,1007(s4)
   17e12:	3f0a2403          	lw	s0,1008(s4)
   17e16:	0522                	slli	a0,a0,0x8
   17e18:	8d4d                	or	a0,a0,a1
   17e1a:	40a11e23          	sh	a0,1052(sp)
   17e1e:	40c10f23          	sb	a2,1054(sp)
   17e22:	6505                	lui	a0,0x1
   17e24:	38450513          	addi	a0,a0,900 # 1384 <.Lline_table_start1+0x1159>
   17e28:	00a105b3          	add	a1,sp,a0
   17e2c:	6505                	lui	a0,0x1
   17e2e:	32050513          	addi	a0,a0,800 # 1320 <.Lline_table_start1+0x10f5>
   17e32:	950a                	add	a0,a0,sp
   17e34:	02b00613          	li	a2,43
   17e38:	00003097          	auipc	ra,0x3
   17e3c:	13a080e7          	jalr	314(ra) # 1af72 <memcpy>
   17e40:	01845513          	srli	a0,s0,0x18
   17e44:	01045593          	srli	a1,s0,0x10
   17e48:	00845613          	srli	a2,s0,0x8
   17e4c:	40810fa3          	sb	s0,1055(sp)
   17e50:	42c10023          	sb	a2,1056(sp)
   17e54:	42b100a3          	sb	a1,1057(sp)
   17e58:	42a10123          	sb	a0,1058(sp)
   17e5c:	42310513          	addi	a0,sp,1059
   17e60:	6585                	lui	a1,0x1
   17e62:	32058593          	addi	a1,a1,800 # 1320 <.Lline_table_start1+0x10f5>
   17e66:	958a                	add	a1,a1,sp
   17e68:	02b00613          	li	a2,43
   17e6c:	00003097          	auipc	ra,0x3
   17e70:	106080e7          	jalr	262(ra) # 1af72 <memcpy>
   17e74:	6505                	lui	a0,0x1
   17e76:	37c50513          	addi	a0,a0,892 # 137c <.Lline_table_start1+0x1151>
   17e7a:	950a                	add	a0,a0,sp
   17e7c:	41c10593          	addi	a1,sp,1052
   17e80:	ffffb097          	auipc	ra,0xffffb
   17e84:	1c4080e7          	jalr	452(ra) # 13044 <_ZN20complex_full_dynamic3app17h69f594c09bebe3fdE>
   17e88:	3eca4503          	lbu	a0,1004(s4)
   17e8c:	c119                	beqz	a0,17e92 <_start+0x11f0>
   17e8e:	2dd0206f          	j	1a96a <_start+0x3cc8>
   17e92:	3eea4503          	lbu	a0,1006(s4)
   17e96:	3eda4583          	lbu	a1,1005(s4)
   17e9a:	3efa4603          	lbu	a2,1007(s4)
   17e9e:	3f0a2403          	lw	s0,1008(s4)
   17ea2:	0522                	slli	a0,a0,0x8
   17ea4:	8d4d                	or	a0,a0,a1
   17ea6:	44a11723          	sh	a0,1102(sp)
   17eaa:	44c10823          	sb	a2,1104(sp)
   17eae:	6505                	lui	a0,0x1
   17eb0:	38450513          	addi	a0,a0,900 # 1384 <.Lline_table_start1+0x1159>
   17eb4:	00a105b3          	add	a1,sp,a0
   17eb8:	6505                	lui	a0,0x1
   17eba:	32050513          	addi	a0,a0,800 # 1320 <.Lline_table_start1+0x10f5>
   17ebe:	950a                	add	a0,a0,sp
   17ec0:	02b00613          	li	a2,43
   17ec4:	00003097          	auipc	ra,0x3
   17ec8:	0ae080e7          	jalr	174(ra) # 1af72 <memcpy>
   17ecc:	01845513          	srli	a0,s0,0x18
   17ed0:	01045593          	srli	a1,s0,0x10
   17ed4:	00845613          	srli	a2,s0,0x8
   17ed8:	448108a3          	sb	s0,1105(sp)
   17edc:	44c10923          	sb	a2,1106(sp)
   17ee0:	44b109a3          	sb	a1,1107(sp)
   17ee4:	44a10a23          	sb	a0,1108(sp)
   17ee8:	45510513          	addi	a0,sp,1109
   17eec:	6585                	lui	a1,0x1
   17eee:	32058593          	addi	a1,a1,800 # 1320 <.Lline_table_start1+0x10f5>
   17ef2:	958a                	add	a1,a1,sp
   17ef4:	02b00613          	li	a2,43
   17ef8:	00003097          	auipc	ra,0x3
   17efc:	07a080e7          	jalr	122(ra) # 1af72 <memcpy>
   17f00:	6505                	lui	a0,0x1
   17f02:	37c50513          	addi	a0,a0,892 # 137c <.Lline_table_start1+0x1151>
   17f06:	950a                	add	a0,a0,sp
   17f08:	44e10593          	addi	a1,sp,1102
   17f0c:	ffffa097          	auipc	ra,0xffffa
   17f10:	2ac080e7          	jalr	684(ra) # 121b8 <_ZN20complex_full_dynamic3app17h3edecaf4ebbeb499E>
   17f14:	3eca4503          	lbu	a0,1004(s4)
   17f18:	c119                	beqz	a0,17f1e <_start+0x127c>
   17f1a:	2510206f          	j	1a96a <_start+0x3cc8>
   17f1e:	3eda4503          	lbu	a0,1005(s4)
   17f22:	3eea4583          	lbu	a1,1006(s4)
   17f26:	3efa4603          	lbu	a2,1007(s4)
   17f2a:	3f0a2683          	lw	a3,1008(s4)
   17f2e:	3f4a2703          	lw	a4,1012(s4)
   17f32:	3f8a2783          	lw	a5,1016(s4)
   17f36:	3fca4483          	lbu	s1,1020(s4)
   17f3a:	05a2                	slli	a1,a1,0x8
   17f3c:	38ea2823          	sw	a4,912(s4)
   17f40:	38fa2a23          	sw	a5,916(s4)
   17f44:	389a0c23          	sb	s1,920(s4)
   17f48:	0186d713          	srli	a4,a3,0x18
   17f4c:	8d4d                	or	a0,a0,a1
   17f4e:	0106d593          	srli	a1,a3,0x10
   17f52:	48b102a3          	sb	a1,1157(sp)
   17f56:	48e10323          	sb	a4,1158(sp)
   17f5a:	0086d593          	srli	a1,a3,0x8
   17f5e:	48a11023          	sh	a0,1152(sp)
   17f62:	48c10123          	sb	a2,1154(sp)
   17f66:	48d101a3          	sb	a3,1155(sp)
   17f6a:	48b10223          	sb	a1,1156(sp)
   17f6e:	48710513          	addi	a0,sp,1159
   17f72:	6585                	lui	a1,0x1
   17f74:	32058593          	addi	a1,a1,800 # 1320 <.Lline_table_start1+0x10f5>
   17f78:	958a                	add	a1,a1,sp
   17f7a:	4625                	li	a2,9
   17f7c:	00003097          	auipc	ra,0x3
   17f80:	ff6080e7          	jalr	-10(ra) # 1af72 <memcpy>
   17f84:	6505                	lui	a0,0x1
   17f86:	37c50513          	addi	a0,a0,892 # 137c <.Lline_table_start1+0x1151>
   17f8a:	950a                	add	a0,a0,sp
   17f8c:	48010593          	addi	a1,sp,1152
   17f90:	ffffa097          	auipc	ra,0xffffa
   17f94:	6f8080e7          	jalr	1784(ra) # 12688 <_ZN20complex_full_dynamic3app17h46b331484c9396d5E>
   17f98:	3eca4503          	lbu	a0,1004(s4)
   17f9c:	c119                	beqz	a0,17fa2 <_start+0x1300>
   17f9e:	1cd0206f          	j	1a96a <_start+0x3cc8>
   17fa2:	3eea4503          	lbu	a0,1006(s4)
   17fa6:	3eda4583          	lbu	a1,1005(s4)
   17faa:	3efa4603          	lbu	a2,1007(s4)
   17fae:	3f0a2403          	lw	s0,1008(s4)
   17fb2:	0522                	slli	a0,a0,0x8
   17fb4:	8d4d                	or	a0,a0,a1
   17fb6:	48a11823          	sh	a0,1168(sp)
   17fba:	48c10923          	sb	a2,1170(sp)
   17fbe:	6505                	lui	a0,0x1
   17fc0:	38450513          	addi	a0,a0,900 # 1384 <.Lline_table_start1+0x1159>
   17fc4:	00a105b3          	add	a1,sp,a0
   17fc8:	6505                	lui	a0,0x1
   17fca:	32050513          	addi	a0,a0,800 # 1320 <.Lline_table_start1+0x10f5>
   17fce:	950a                	add	a0,a0,sp
   17fd0:	02f00613          	li	a2,47
   17fd4:	00003097          	auipc	ra,0x3
   17fd8:	f9e080e7          	jalr	-98(ra) # 1af72 <memcpy>
   17fdc:	01845513          	srli	a0,s0,0x18
   17fe0:	01045593          	srli	a1,s0,0x10
   17fe4:	00845613          	srli	a2,s0,0x8
   17fe8:	488109a3          	sb	s0,1171(sp)
   17fec:	48c10a23          	sb	a2,1172(sp)
   17ff0:	48b10aa3          	sb	a1,1173(sp)
   17ff4:	48a10b23          	sb	a0,1174(sp)
   17ff8:	49710513          	addi	a0,sp,1175
   17ffc:	6585                	lui	a1,0x1
   17ffe:	32058593          	addi	a1,a1,800 # 1320 <.Lline_table_start1+0x10f5>
   18002:	958a                	add	a1,a1,sp
   18004:	02f00613          	li	a2,47
   18008:	00003097          	auipc	ra,0x3
   1800c:	f6a080e7          	jalr	-150(ra) # 1af72 <memcpy>
   18010:	6505                	lui	a0,0x1
   18012:	37c50513          	addi	a0,a0,892 # 137c <.Lline_table_start1+0x1151>
   18016:	950a                	add	a0,a0,sp
   18018:	49010593          	addi	a1,sp,1168
   1801c:	ffffa097          	auipc	ra,0xffffa
   18020:	476080e7          	jalr	1142(ra) # 12492 <_ZN20complex_full_dynamic3app17h41560c565fedd2aeE>
   18024:	3eca4503          	lbu	a0,1004(s4)
   18028:	c119                	beqz	a0,1802e <_start+0x138c>
   1802a:	1410206f          	j	1a96a <_start+0x3cc8>
   1802e:	3eda4503          	lbu	a0,1005(s4)
   18032:	3eea4583          	lbu	a1,1006(s4)
   18036:	3efa4803          	lbu	a6,1007(s4)
   1803a:	3f0a2683          	lw	a3,1008(s4)
   1803e:	3f4a2703          	lw	a4,1012(s4)
   18042:	3f8a2783          	lw	a5,1016(s4)
   18046:	05a2                	slli	a1,a1,0x8
   18048:	0186d893          	srli	a7,a3,0x18
   1804c:	0106d293          	srli	t0,a3,0x10
   18050:	0187d613          	srli	a2,a5,0x18
   18054:	0107d493          	srli	s1,a5,0x10
   18058:	0087d413          	srli	s0,a5,0x8
   1805c:	8d4d                	or	a0,a0,a1
   1805e:	01875593          	srli	a1,a4,0x18
   18062:	4c9109a3          	sb	s1,1235(sp)
   18066:	4cc10a23          	sb	a2,1236(sp)
   1806a:	01075613          	srli	a2,a4,0x10
   1806e:	4cc107a3          	sb	a2,1231(sp)
   18072:	4cb10823          	sb	a1,1232(sp)
   18076:	4cf108a3          	sb	a5,1233(sp)
   1807a:	4c810923          	sb	s0,1234(sp)
   1807e:	0086d593          	srli	a1,a3,0x8
   18082:	4ca11323          	sh	a0,1222(sp)
   18086:	4d010423          	sb	a6,1224(sp)
   1808a:	4cd104a3          	sb	a3,1225(sp)
   1808e:	4cb10523          	sb	a1,1226(sp)
   18092:	00875513          	srli	a0,a4,0x8
   18096:	4c5105a3          	sb	t0,1227(sp)
   1809a:	4d110623          	sb	a7,1228(sp)
   1809e:	4ce106a3          	sb	a4,1229(sp)
   180a2:	4ca10723          	sb	a0,1230(sp)
   180a6:	6505                	lui	a0,0x1
   180a8:	37c50513          	addi	a0,a0,892 # 137c <.Lline_table_start1+0x1151>
   180ac:	950a                	add	a0,a0,sp
   180ae:	4c610593          	addi	a1,sp,1222
   180b2:	ffff9097          	auipc	ra,0xffff9
   180b6:	082080e7          	jalr	130(ra) # 11134 <_ZN20complex_full_dynamic3app17h02d44494b91e14d0E>
   180ba:	3eca4503          	lbu	a0,1004(s4)
   180be:	c119                	beqz	a0,180c4 <_start+0x1422>
   180c0:	0ab0206f          	j	1a96a <_start+0x3cc8>
   180c4:	3eda4503          	lbu	a0,1005(s4)
   180c8:	3eea4583          	lbu	a1,1006(s4)
   180cc:	3efa4603          	lbu	a2,1007(s4)
   180d0:	3f0a2683          	lw	a3,1008(s4)
   180d4:	3f4a2703          	lw	a4,1012(s4)
   180d8:	3f8a2783          	lw	a5,1016(s4)
   180dc:	3fca2483          	lw	s1,1020(s4)
   180e0:	05a2                	slli	a1,a1,0x8
   180e2:	38ea2823          	sw	a4,912(s4)
   180e6:	38fa2a23          	sw	a5,916(s4)
   180ea:	389a2c23          	sw	s1,920(s4)
   180ee:	0186d713          	srli	a4,a3,0x18
   180f2:	8d4d                	or	a0,a0,a1
   180f4:	0106d593          	srli	a1,a3,0x10
   180f8:	4cb10da3          	sb	a1,1243(sp)
   180fc:	4ce10e23          	sb	a4,1244(sp)
   18100:	0086d593          	srli	a1,a3,0x8
   18104:	4ca11b23          	sh	a0,1238(sp)
   18108:	4cc10c23          	sb	a2,1240(sp)
   1810c:	4cd10ca3          	sb	a3,1241(sp)
   18110:	4cb10d23          	sb	a1,1242(sp)
   18114:	4dd10513          	addi	a0,sp,1245
   18118:	6585                	lui	a1,0x1
   1811a:	32058593          	addi	a1,a1,800 # 1320 <.Lline_table_start1+0x10f5>
   1811e:	958a                	add	a1,a1,sp
   18120:	4631                	li	a2,12
   18122:	00003097          	auipc	ra,0x3
   18126:	e50080e7          	jalr	-432(ra) # 1af72 <memcpy>
   1812a:	6505                	lui	a0,0x1
   1812c:	37c50513          	addi	a0,a0,892 # 137c <.Lline_table_start1+0x1151>
   18130:	950a                	add	a0,a0,sp
   18132:	4d610593          	addi	a1,sp,1238
   18136:	ffffc097          	auipc	ra,0xffffc
   1813a:	e86080e7          	jalr	-378(ra) # 13fbc <_ZN20complex_full_dynamic3app17h8b4f07930eae7273E>
   1813e:	3eca4503          	lbu	a0,1004(s4)
   18142:	c119                	beqz	a0,18148 <_start+0x14a6>
   18144:	0270206f          	j	1a96a <_start+0x3cc8>
   18148:	3eea4503          	lbu	a0,1006(s4)
   1814c:	3eda4583          	lbu	a1,1005(s4)
   18150:	3efa4603          	lbu	a2,1007(s4)
   18154:	3f0a2403          	lw	s0,1008(s4)
   18158:	0522                	slli	a0,a0,0x8
   1815a:	8d4d                	or	a0,a0,a1
   1815c:	4ea11523          	sh	a0,1258(sp)
   18160:	4ec10623          	sb	a2,1260(sp)
   18164:	6505                	lui	a0,0x1
   18166:	38450513          	addi	a0,a0,900 # 1384 <.Lline_table_start1+0x1159>
   1816a:	00a105b3          	add	a1,sp,a0
   1816e:	6505                	lui	a0,0x1
   18170:	32050513          	addi	a0,a0,800 # 1320 <.Lline_table_start1+0x10f5>
   18174:	950a                	add	a0,a0,sp
   18176:	04e00613          	li	a2,78
   1817a:	00003097          	auipc	ra,0x3
   1817e:	df8080e7          	jalr	-520(ra) # 1af72 <memcpy>
   18182:	01845513          	srli	a0,s0,0x18
   18186:	01045593          	srli	a1,s0,0x10
   1818a:	00845613          	srli	a2,s0,0x8
   1818e:	4e8106a3          	sb	s0,1261(sp)
   18192:	4ec10723          	sb	a2,1262(sp)
   18196:	4eb107a3          	sb	a1,1263(sp)
   1819a:	4ea10823          	sb	a0,1264(sp)
   1819e:	4f110513          	addi	a0,sp,1265
   181a2:	6585                	lui	a1,0x1
   181a4:	32058593          	addi	a1,a1,800 # 1320 <.Lline_table_start1+0x10f5>
   181a8:	958a                	add	a1,a1,sp
   181aa:	04e00613          	li	a2,78
   181ae:	00003097          	auipc	ra,0x3
   181b2:	dc4080e7          	jalr	-572(ra) # 1af72 <memcpy>
   181b6:	6505                	lui	a0,0x1
   181b8:	37c50513          	addi	a0,a0,892 # 137c <.Lline_table_start1+0x1151>
   181bc:	950a                	add	a0,a0,sp
   181be:	4ea10593          	addi	a1,sp,1258
   181c2:	ffffd097          	auipc	ra,0xffffd
   181c6:	9b2080e7          	jalr	-1614(ra) # 14b74 <_ZN20complex_full_dynamic3app17hb1b132ddf935d753E>
   181ca:	3eca4503          	lbu	a0,1004(s4)
   181ce:	c119                	beqz	a0,181d4 <_start+0x1532>
   181d0:	79a0206f          	j	1a96a <_start+0x3cc8>
   181d4:	3eea4503          	lbu	a0,1006(s4)
   181d8:	3eda4583          	lbu	a1,1005(s4)
   181dc:	3efa4603          	lbu	a2,1007(s4)
   181e0:	3f0a2403          	lw	s0,1008(s4)
   181e4:	0522                	slli	a0,a0,0x8
   181e6:	8d4d                	or	a0,a0,a1
   181e8:	54a11023          	sh	a0,1344(sp)
   181ec:	54c10123          	sb	a2,1346(sp)
   181f0:	6505                	lui	a0,0x1
   181f2:	38450513          	addi	a0,a0,900 # 1384 <.Lline_table_start1+0x1159>
   181f6:	00a105b3          	add	a1,sp,a0
   181fa:	6505                	lui	a0,0x1
   181fc:	32050513          	addi	a0,a0,800 # 1320 <.Lline_table_start1+0x10f5>
   18200:	950a                	add	a0,a0,sp
   18202:	02b00613          	li	a2,43
   18206:	00003097          	auipc	ra,0x3
   1820a:	d6c080e7          	jalr	-660(ra) # 1af72 <memcpy>
   1820e:	01845513          	srli	a0,s0,0x18
   18212:	01045593          	srli	a1,s0,0x10
   18216:	00845613          	srli	a2,s0,0x8
   1821a:	548101a3          	sb	s0,1347(sp)
   1821e:	54c10223          	sb	a2,1348(sp)
   18222:	54b102a3          	sb	a1,1349(sp)
   18226:	54a10323          	sb	a0,1350(sp)
   1822a:	54710513          	addi	a0,sp,1351
   1822e:	6585                	lui	a1,0x1
   18230:	32058593          	addi	a1,a1,800 # 1320 <.Lline_table_start1+0x10f5>
   18234:	958a                	add	a1,a1,sp
   18236:	02b00613          	li	a2,43
   1823a:	00003097          	auipc	ra,0x3
   1823e:	d38080e7          	jalr	-712(ra) # 1af72 <memcpy>
   18242:	6505                	lui	a0,0x1
   18244:	37c50513          	addi	a0,a0,892 # 137c <.Lline_table_start1+0x1151>
   18248:	950a                	add	a0,a0,sp
   1824a:	54010593          	addi	a1,sp,1344
   1824e:	ffffe097          	auipc	ra,0xffffe
   18252:	9ba080e7          	jalr	-1606(ra) # 15c08 <_ZN20complex_full_dynamic3app17hd71f3b402f3b46b6E>
   18256:	3eca4503          	lbu	a0,1004(s4)
   1825a:	c119                	beqz	a0,18260 <_start+0x15be>
   1825c:	70e0206f          	j	1a96a <_start+0x3cc8>
   18260:	3eea4503          	lbu	a0,1006(s4)
   18264:	3eda4583          	lbu	a1,1005(s4)
   18268:	3efa4603          	lbu	a2,1007(s4)
   1826c:	3f0a2403          	lw	s0,1008(s4)
   18270:	0522                	slli	a0,a0,0x8
   18272:	8d4d                	or	a0,a0,a1
   18274:	56a11923          	sh	a0,1394(sp)
   18278:	56c10a23          	sb	a2,1396(sp)
   1827c:	6505                	lui	a0,0x1
   1827e:	38450513          	addi	a0,a0,900 # 1384 <.Lline_table_start1+0x1159>
   18282:	00a105b3          	add	a1,sp,a0
   18286:	6505                	lui	a0,0x1
   18288:	32050513          	addi	a0,a0,800 # 1320 <.Lline_table_start1+0x10f5>
   1828c:	950a                	add	a0,a0,sp
   1828e:	03a00613          	li	a2,58
   18292:	00003097          	auipc	ra,0x3
   18296:	ce0080e7          	jalr	-800(ra) # 1af72 <memcpy>
   1829a:	01845513          	srli	a0,s0,0x18
   1829e:	01045593          	srli	a1,s0,0x10
   182a2:	00845613          	srli	a2,s0,0x8
   182a6:	56810aa3          	sb	s0,1397(sp)
   182aa:	56c10b23          	sb	a2,1398(sp)
   182ae:	56b10ba3          	sb	a1,1399(sp)
   182b2:	56a10c23          	sb	a0,1400(sp)
   182b6:	57910513          	addi	a0,sp,1401
   182ba:	6585                	lui	a1,0x1
   182bc:	32058593          	addi	a1,a1,800 # 1320 <.Lline_table_start1+0x10f5>
   182c0:	958a                	add	a1,a1,sp
   182c2:	03a00613          	li	a2,58
   182c6:	00003097          	auipc	ra,0x3
   182ca:	cac080e7          	jalr	-852(ra) # 1af72 <memcpy>
   182ce:	6505                	lui	a0,0x1
   182d0:	37c50513          	addi	a0,a0,892 # 137c <.Lline_table_start1+0x1151>
   182d4:	950a                	add	a0,a0,sp
   182d6:	57210593          	addi	a1,sp,1394
   182da:	ffffe097          	auipc	ra,0xffffe
   182de:	c1a080e7          	jalr	-998(ra) # 15ef4 <_ZN20complex_full_dynamic3app17hde56323af6ccb5deE>
   182e2:	3eca4503          	lbu	a0,1004(s4)
   182e6:	c119                	beqz	a0,182ec <_start+0x164a>
   182e8:	6820206f          	j	1a96a <_start+0x3cc8>
   182ec:	3eda4503          	lbu	a0,1005(s4)
   182f0:	3eea4583          	lbu	a1,1006(s4)
   182f4:	3efa4603          	lbu	a2,1007(s4)
   182f8:	3f0a2683          	lw	a3,1008(s4)
   182fc:	3f4a2703          	lw	a4,1012(s4)
   18300:	3f8a2783          	lw	a5,1016(s4)
   18304:	3fca2483          	lw	s1,1020(s4)
   18308:	400a2403          	lw	s0,1024(s4)
   1830c:	38ea2823          	sw	a4,912(s4)
   18310:	38fa2a23          	sw	a5,916(s4)
   18314:	389a2c23          	sw	s1,920(s4)
   18318:	388a2e23          	sw	s0,924(s4)
   1831c:	404a2703          	lw	a4,1028(s4)
   18320:	408a2783          	lw	a5,1032(s4)
   18324:	40ca1483          	lh	s1,1036(s4)
   18328:	40ea4403          	lbu	s0,1038(s4)
   1832c:	05a2                	slli	a1,a1,0x8
   1832e:	3aea2023          	sw	a4,928(s4)
   18332:	3afa2223          	sw	a5,932(s4)
   18336:	3a9a1423          	sh	s1,936(s4)
   1833a:	3a8a0523          	sb	s0,938(s4)
   1833e:	0186d713          	srli	a4,a3,0x18
   18342:	8d4d                	or	a0,a0,a1
   18344:	0106d593          	srli	a1,a3,0x10
   18348:	5ab10ca3          	sb	a1,1465(sp)
   1834c:	5ae10d23          	sb	a4,1466(sp)
   18350:	0086d593          	srli	a1,a3,0x8
   18354:	5aa11a23          	sh	a0,1460(sp)
   18358:	5ac10b23          	sb	a2,1462(sp)
   1835c:	5ad10ba3          	sb	a3,1463(sp)
   18360:	5ab10c23          	sb	a1,1464(sp)
   18364:	5bb10513          	addi	a0,sp,1467
   18368:	6585                	lui	a1,0x1
   1836a:	32058593          	addi	a1,a1,800 # 1320 <.Lline_table_start1+0x10f5>
   1836e:	958a                	add	a1,a1,sp
   18370:	466d                	li	a2,27
   18372:	00003097          	auipc	ra,0x3
   18376:	c00080e7          	jalr	-1024(ra) # 1af72 <memcpy>
   1837a:	6505                	lui	a0,0x1
   1837c:	37c50513          	addi	a0,a0,892 # 137c <.Lline_table_start1+0x1151>
   18380:	950a                	add	a0,a0,sp
   18382:	5b410593          	addi	a1,sp,1460
   18386:	ffffd097          	auipc	ra,0xffffd
   1838a:	0b8080e7          	jalr	184(ra) # 1543e <_ZN20complex_full_dynamic3app17hca5c4b4ad0683e3dE>
   1838e:	3eca4503          	lbu	a0,1004(s4)
   18392:	c119                	beqz	a0,18398 <_start+0x16f6>
   18394:	5d60206f          	j	1a96a <_start+0x3cc8>
   18398:	3eea4503          	lbu	a0,1006(s4)
   1839c:	3eda4583          	lbu	a1,1005(s4)
   183a0:	3efa4603          	lbu	a2,1007(s4)
   183a4:	3f0a2403          	lw	s0,1008(s4)
   183a8:	0522                	slli	a0,a0,0x8
   183aa:	8d4d                	or	a0,a0,a1
   183ac:	5ca11b23          	sh	a0,1494(sp)
   183b0:	5cc10c23          	sb	a2,1496(sp)
   183b4:	6505                	lui	a0,0x1
   183b6:	38450513          	addi	a0,a0,900 # 1384 <.Lline_table_start1+0x1159>
   183ba:	00a105b3          	add	a1,sp,a0
   183be:	6505                	lui	a0,0x1
   183c0:	32050513          	addi	a0,a0,800 # 1320 <.Lline_table_start1+0x10f5>
   183c4:	950a                	add	a0,a0,sp
   183c6:	04a00613          	li	a2,74
   183ca:	00003097          	auipc	ra,0x3
   183ce:	ba8080e7          	jalr	-1112(ra) # 1af72 <memcpy>
   183d2:	01845513          	srli	a0,s0,0x18
   183d6:	01045593          	srli	a1,s0,0x10
   183da:	00845613          	srli	a2,s0,0x8
   183de:	5c810ca3          	sb	s0,1497(sp)
   183e2:	5cc10d23          	sb	a2,1498(sp)
   183e6:	5cb10da3          	sb	a1,1499(sp)
   183ea:	5ca10e23          	sb	a0,1500(sp)
   183ee:	5dd10513          	addi	a0,sp,1501
   183f2:	6585                	lui	a1,0x1
   183f4:	32058593          	addi	a1,a1,800 # 1320 <.Lline_table_start1+0x10f5>
   183f8:	958a                	add	a1,a1,sp
   183fa:	04a00613          	li	a2,74
   183fe:	00003097          	auipc	ra,0x3
   18402:	b74080e7          	jalr	-1164(ra) # 1af72 <memcpy>
   18406:	6505                	lui	a0,0x1
   18408:	37c50513          	addi	a0,a0,892 # 137c <.Lline_table_start1+0x1151>
   1840c:	950a                	add	a0,a0,sp
   1840e:	5d610593          	addi	a1,sp,1494
   18412:	ffffd097          	auipc	ra,0xffffd
   18416:	12c080e7          	jalr	300(ra) # 1553e <_ZN20complex_full_dynamic3app17hca8a2c0a41156738E>
   1841a:	3eca4503          	lbu	a0,1004(s4)
   1841e:	c119                	beqz	a0,18424 <_start+0x1782>
   18420:	54a0206f          	j	1a96a <_start+0x3cc8>
   18424:	3eea4503          	lbu	a0,1006(s4)
   18428:	3eda4583          	lbu	a1,1005(s4)
   1842c:	3efa4603          	lbu	a2,1007(s4)
   18430:	3f0a2403          	lw	s0,1008(s4)
   18434:	0522                	slli	a0,a0,0x8
   18436:	8d4d                	or	a0,a0,a1
   18438:	62a11423          	sh	a0,1576(sp)
   1843c:	62c10523          	sb	a2,1578(sp)
   18440:	6505                	lui	a0,0x1
   18442:	38450513          	addi	a0,a0,900 # 1384 <.Lline_table_start1+0x1159>
   18446:	00a105b3          	add	a1,sp,a0
   1844a:	6505                	lui	a0,0x1
   1844c:	32050513          	addi	a0,a0,800 # 1320 <.Lline_table_start1+0x10f5>
   18450:	950a                	add	a0,a0,sp
   18452:	04800613          	li	a2,72
   18456:	00003097          	auipc	ra,0x3
   1845a:	b1c080e7          	jalr	-1252(ra) # 1af72 <memcpy>
   1845e:	01845513          	srli	a0,s0,0x18
   18462:	01045593          	srli	a1,s0,0x10
   18466:	00845613          	srli	a2,s0,0x8
   1846a:	628105a3          	sb	s0,1579(sp)
   1846e:	62c10623          	sb	a2,1580(sp)
   18472:	62b106a3          	sb	a1,1581(sp)
   18476:	62a10723          	sb	a0,1582(sp)
   1847a:	62f10513          	addi	a0,sp,1583
   1847e:	6585                	lui	a1,0x1
   18480:	32058593          	addi	a1,a1,800 # 1320 <.Lline_table_start1+0x10f5>
   18484:	958a                	add	a1,a1,sp
   18486:	04800613          	li	a2,72
   1848a:	00003097          	auipc	ra,0x3
   1848e:	ae8080e7          	jalr	-1304(ra) # 1af72 <memcpy>
   18492:	6505                	lui	a0,0x1
   18494:	37c50513          	addi	a0,a0,892 # 137c <.Lline_table_start1+0x1151>
   18498:	950a                	add	a0,a0,sp
   1849a:	62810593          	addi	a1,sp,1576
   1849e:	ffffe097          	auipc	ra,0xffffe
   184a2:	510080e7          	jalr	1296(ra) # 169ae <_ZN20complex_full_dynamic3app17hfa27737c2af6d234E>
   184a6:	3eca4503          	lbu	a0,1004(s4)
   184aa:	c119                	beqz	a0,184b0 <_start+0x180e>
   184ac:	4be0206f          	j	1a96a <_start+0x3cc8>
   184b0:	3eea4503          	lbu	a0,1006(s4)
   184b4:	3eda4583          	lbu	a1,1005(s4)
   184b8:	3efa4603          	lbu	a2,1007(s4)
   184bc:	3f0a2403          	lw	s0,1008(s4)
   184c0:	0522                	slli	a0,a0,0x8
   184c2:	8d4d                	or	a0,a0,a1
   184c4:	66a11c23          	sh	a0,1656(sp)
   184c8:	66c10d23          	sb	a2,1658(sp)
   184cc:	6505                	lui	a0,0x1
   184ce:	38450513          	addi	a0,a0,900 # 1384 <.Lline_table_start1+0x1159>
   184d2:	00a105b3          	add	a1,sp,a0
   184d6:	6505                	lui	a0,0x1
   184d8:	32050513          	addi	a0,a0,800 # 1320 <.Lline_table_start1+0x10f5>
   184dc:	950a                	add	a0,a0,sp
   184de:	03400613          	li	a2,52
   184e2:	00003097          	auipc	ra,0x3
   184e6:	a90080e7          	jalr	-1392(ra) # 1af72 <memcpy>
   184ea:	01845513          	srli	a0,s0,0x18
   184ee:	01045593          	srli	a1,s0,0x10
   184f2:	00845613          	srli	a2,s0,0x8
   184f6:	66810da3          	sb	s0,1659(sp)
   184fa:	66c10e23          	sb	a2,1660(sp)
   184fe:	66b10ea3          	sb	a1,1661(sp)
   18502:	66a10f23          	sb	a0,1662(sp)
   18506:	67f10513          	addi	a0,sp,1663
   1850a:	6585                	lui	a1,0x1
   1850c:	32058593          	addi	a1,a1,800 # 1320 <.Lline_table_start1+0x10f5>
   18510:	958a                	add	a1,a1,sp
   18512:	03400613          	li	a2,52
   18516:	00003097          	auipc	ra,0x3
   1851a:	a5c080e7          	jalr	-1444(ra) # 1af72 <memcpy>
   1851e:	6505                	lui	a0,0x1
   18520:	37c50513          	addi	a0,a0,892 # 137c <.Lline_table_start1+0x1151>
   18524:	950a                	add	a0,a0,sp
   18526:	67810593          	addi	a1,sp,1656
   1852a:	ffff9097          	auipc	ra,0xffff9
   1852e:	df6080e7          	jalr	-522(ra) # 11320 <_ZN20complex_full_dynamic3app17h0868c50a5847a365E>
   18532:	3eca4503          	lbu	a0,1004(s4)
   18536:	c119                	beqz	a0,1853c <_start+0x189a>
   18538:	4320206f          	j	1a96a <_start+0x3cc8>
   1853c:	3eda4503          	lbu	a0,1005(s4)
   18540:	3eea4583          	lbu	a1,1006(s4)
   18544:	3efa4603          	lbu	a2,1007(s4)
   18548:	3f0a2683          	lw	a3,1008(s4)
   1854c:	3f4a2703          	lw	a4,1012(s4)
   18550:	3f8a2783          	lw	a5,1016(s4)
   18554:	3fca2483          	lw	s1,1020(s4)
   18558:	400a2403          	lw	s0,1024(s4)
   1855c:	38ea2823          	sw	a4,912(s4)
   18560:	38fa2a23          	sw	a5,916(s4)
   18564:	389a2c23          	sw	s1,920(s4)
   18568:	388a2e23          	sw	s0,924(s4)
   1856c:	404a2703          	lw	a4,1028(s4)
   18570:	408a2783          	lw	a5,1032(s4)
   18574:	40ca2483          	lw	s1,1036(s4)
   18578:	410a2403          	lw	s0,1040(s4)
   1857c:	05a2                	slli	a1,a1,0x8
   1857e:	3aea2023          	sw	a4,928(s4)
   18582:	3afa2223          	sw	a5,932(s4)
   18586:	3a9a2423          	sw	s1,936(s4)
   1858a:	3a8a2623          	sw	s0,940(s4)
   1858e:	0186d713          	srli	a4,a3,0x18
   18592:	8d4d                	or	a0,a0,a1
   18594:	0106d593          	srli	a1,a3,0x10
   18598:	6ab10ca3          	sb	a1,1721(sp)
   1859c:	6ae10d23          	sb	a4,1722(sp)
   185a0:	0086d593          	srli	a1,a3,0x8
   185a4:	6aa11a23          	sh	a0,1716(sp)
   185a8:	6ac10b23          	sb	a2,1718(sp)
   185ac:	6ad10ba3          	sb	a3,1719(sp)
   185b0:	6ab10c23          	sb	a1,1720(sp)
   185b4:	6bb10513          	addi	a0,sp,1723
   185b8:	6585                	lui	a1,0x1
   185ba:	32058593          	addi	a1,a1,800 # 1320 <.Lline_table_start1+0x10f5>
   185be:	958a                	add	a1,a1,sp
   185c0:	02000613          	li	a2,32
   185c4:	00003097          	auipc	ra,0x3
   185c8:	9ae080e7          	jalr	-1618(ra) # 1af72 <memcpy>
   185cc:	6505                	lui	a0,0x1
   185ce:	37c50513          	addi	a0,a0,892 # 137c <.Lline_table_start1+0x1151>
   185d2:	950a                	add	a0,a0,sp
   185d4:	6b410593          	addi	a1,sp,1716
   185d8:	ffffa097          	auipc	ra,0xffffa
   185dc:	2a2080e7          	jalr	674(ra) # 1287a <_ZN20complex_full_dynamic3app17h4e09aa8fbdb41baeE>
   185e0:	3eca4503          	lbu	a0,1004(s4)
   185e4:	c119                	beqz	a0,185ea <_start+0x1948>
   185e6:	3840206f          	j	1a96a <_start+0x3cc8>
   185ea:	3eda4503          	lbu	a0,1005(s4)
   185ee:	3eea4583          	lbu	a1,1006(s4)
   185f2:	3efa4603          	lbu	a2,1007(s4)
   185f6:	3f0a2683          	lw	a3,1008(s4)
   185fa:	3f4a2703          	lw	a4,1012(s4)
   185fe:	3f8a2783          	lw	a5,1016(s4)
   18602:	3fca2483          	lw	s1,1020(s4)
   18606:	400a4403          	lbu	s0,1024(s4)
   1860a:	05a2                	slli	a1,a1,0x8
   1860c:	38ea2823          	sw	a4,912(s4)
   18610:	38fa2a23          	sw	a5,916(s4)
   18614:	389a2c23          	sw	s1,920(s4)
   18618:	388a0e23          	sb	s0,924(s4)
   1861c:	0186d713          	srli	a4,a3,0x18
   18620:	8d4d                	or	a0,a0,a1
   18622:	0106d593          	srli	a1,a3,0x10
   18626:	6eb100a3          	sb	a1,1761(sp)
   1862a:	6ee10123          	sb	a4,1762(sp)
   1862e:	0086d593          	srli	a1,a3,0x8
   18632:	6ca11e23          	sh	a0,1756(sp)
   18636:	6cc10f23          	sb	a2,1758(sp)
   1863a:	6cd10fa3          	sb	a3,1759(sp)
   1863e:	6eb10023          	sb	a1,1760(sp)
   18642:	6e310513          	addi	a0,sp,1763
   18646:	6585                	lui	a1,0x1
   18648:	32058593          	addi	a1,a1,800 # 1320 <.Lline_table_start1+0x10f5>
   1864c:	958a                	add	a1,a1,sp
   1864e:	4635                	li	a2,13
   18650:	00003097          	auipc	ra,0x3
   18654:	922080e7          	jalr	-1758(ra) # 1af72 <memcpy>
   18658:	6505                	lui	a0,0x1
   1865a:	37c50513          	addi	a0,a0,892 # 137c <.Lline_table_start1+0x1151>
   1865e:	950a                	add	a0,a0,sp
   18660:	6dc10593          	addi	a1,sp,1756
   18664:	ffffd097          	auipc	ra,0xffffd
   18668:	8f8080e7          	jalr	-1800(ra) # 14f5c <_ZN20complex_full_dynamic3app17hb59946c0ede12700E>
   1866c:	3eca4503          	lbu	a0,1004(s4)
   18670:	c119                	beqz	a0,18676 <_start+0x19d4>
   18672:	2f80206f          	j	1a96a <_start+0x3cc8>
   18676:	3eea4503          	lbu	a0,1006(s4)
   1867a:	3eda4583          	lbu	a1,1005(s4)
   1867e:	3efa4603          	lbu	a2,1007(s4)
   18682:	3f0a2403          	lw	s0,1008(s4)
   18686:	0522                	slli	a0,a0,0x8
   18688:	8d4d                	or	a0,a0,a1
   1868a:	6ea11823          	sh	a0,1776(sp)
   1868e:	6ec10923          	sb	a2,1778(sp)
   18692:	6505                	lui	a0,0x1
   18694:	38450513          	addi	a0,a0,900 # 1384 <.Lline_table_start1+0x1159>
   18698:	00a105b3          	add	a1,sp,a0
   1869c:	6505                	lui	a0,0x1
   1869e:	32050513          	addi	a0,a0,800 # 1320 <.Lline_table_start1+0x10f5>
   186a2:	950a                	add	a0,a0,sp
   186a4:	02400613          	li	a2,36
   186a8:	00003097          	auipc	ra,0x3
   186ac:	8ca080e7          	jalr	-1846(ra) # 1af72 <memcpy>
   186b0:	01845513          	srli	a0,s0,0x18
   186b4:	01045593          	srli	a1,s0,0x10
   186b8:	00845613          	srli	a2,s0,0x8
   186bc:	6e8109a3          	sb	s0,1779(sp)
   186c0:	6ec10a23          	sb	a2,1780(sp)
   186c4:	6eb10aa3          	sb	a1,1781(sp)
   186c8:	6ea10b23          	sb	a0,1782(sp)
   186cc:	6f710513          	addi	a0,sp,1783
   186d0:	6585                	lui	a1,0x1
   186d2:	32058593          	addi	a1,a1,800 # 1320 <.Lline_table_start1+0x10f5>
   186d6:	958a                	add	a1,a1,sp
   186d8:	02400613          	li	a2,36
   186dc:	00003097          	auipc	ra,0x3
   186e0:	896080e7          	jalr	-1898(ra) # 1af72 <memcpy>
   186e4:	6505                	lui	a0,0x1
   186e6:	37c50513          	addi	a0,a0,892 # 137c <.Lline_table_start1+0x1151>
   186ea:	950a                	add	a0,a0,sp
   186ec:	6f010593          	addi	a1,sp,1776
   186f0:	ffffe097          	auipc	ra,0xffffe
   186f4:	3ba080e7          	jalr	954(ra) # 16aaa <_ZN20complex_full_dynamic3app17hfb75ee2f3ec269b3E>
   186f8:	3eca4503          	lbu	a0,1004(s4)
   186fc:	c119                	beqz	a0,18702 <_start+0x1a60>
   186fe:	26c0206f          	j	1a96a <_start+0x3cc8>
   18702:	3eda4503          	lbu	a0,1005(s4)
   18706:	3eea4583          	lbu	a1,1006(s4)
   1870a:	3efa4603          	lbu	a2,1007(s4)
   1870e:	3f0a2683          	lw	a3,1008(s4)
   18712:	3f4a2703          	lw	a4,1012(s4)
   18716:	3f8a2783          	lw	a5,1016(s4)
   1871a:	3fca2483          	lw	s1,1020(s4)
   1871e:	400a2403          	lw	s0,1024(s4)
   18722:	38ea2823          	sw	a4,912(s4)
   18726:	38fa2a23          	sw	a5,916(s4)
   1872a:	389a2c23          	sw	s1,920(s4)
   1872e:	388a2e23          	sw	s0,924(s4)
   18732:	404a2703          	lw	a4,1028(s4)
   18736:	408a1783          	lh	a5,1032(s4)
   1873a:	40aa4483          	lbu	s1,1034(s4)
   1873e:	05a2                	slli	a1,a1,0x8
   18740:	3aea2023          	sw	a4,928(s4)
   18744:	3afa1223          	sh	a5,932(s4)
   18748:	3a9a0323          	sb	s1,934(s4)
   1874c:	0186d713          	srli	a4,a3,0x18
   18750:	8d4d                	or	a0,a0,a1
   18752:	0106d593          	srli	a1,a3,0x10
   18756:	72b100a3          	sb	a1,1825(sp)
   1875a:	72e10123          	sb	a4,1826(sp)
   1875e:	0086d593          	srli	a1,a3,0x8
   18762:	70a11e23          	sh	a0,1820(sp)
   18766:	70c10f23          	sb	a2,1822(sp)
   1876a:	70d10fa3          	sb	a3,1823(sp)
   1876e:	72b10023          	sb	a1,1824(sp)
   18772:	72310513          	addi	a0,sp,1827
   18776:	6585                	lui	a1,0x1
   18778:	32058593          	addi	a1,a1,800 # 1320 <.Lline_table_start1+0x10f5>
   1877c:	958a                	add	a1,a1,sp
   1877e:	465d                	li	a2,23
   18780:	00002097          	auipc	ra,0x2
   18784:	7f2080e7          	jalr	2034(ra) # 1af72 <memcpy>
   18788:	6505                	lui	a0,0x1
   1878a:	37c50513          	addi	a0,a0,892 # 137c <.Lline_table_start1+0x1151>
   1878e:	950a                	add	a0,a0,sp
   18790:	71c10593          	addi	a1,sp,1820
   18794:	ffffb097          	auipc	ra,0xffffb
   18798:	734080e7          	jalr	1844(ra) # 13ec8 <_ZN20complex_full_dynamic3app17h85cd85db7ead5ce6E>
   1879c:	3eca4503          	lbu	a0,1004(s4)
   187a0:	c119                	beqz	a0,187a6 <_start+0x1b04>
   187a2:	1c80206f          	j	1a96a <_start+0x3cc8>
   187a6:	3eea4503          	lbu	a0,1006(s4)
   187aa:	3eda4583          	lbu	a1,1005(s4)
   187ae:	3efa4603          	lbu	a2,1007(s4)
   187b2:	3f0a2403          	lw	s0,1008(s4)
   187b6:	0522                	slli	a0,a0,0x8
   187b8:	8d4d                	or	a0,a0,a1
   187ba:	72a11d23          	sh	a0,1850(sp)
   187be:	72c10e23          	sb	a2,1852(sp)
   187c2:	6505                	lui	a0,0x1
   187c4:	38450513          	addi	a0,a0,900 # 1384 <.Lline_table_start1+0x1159>
   187c8:	00a105b3          	add	a1,sp,a0
   187cc:	6505                	lui	a0,0x1
   187ce:	32050513          	addi	a0,a0,800 # 1320 <.Lline_table_start1+0x10f5>
   187d2:	950a                	add	a0,a0,sp
   187d4:	04a00613          	li	a2,74
   187d8:	00002097          	auipc	ra,0x2
   187dc:	79a080e7          	jalr	1946(ra) # 1af72 <memcpy>
   187e0:	01845513          	srli	a0,s0,0x18
   187e4:	01045593          	srli	a1,s0,0x10
   187e8:	00845613          	srli	a2,s0,0x8
   187ec:	72810ea3          	sb	s0,1853(sp)
   187f0:	72c10f23          	sb	a2,1854(sp)
   187f4:	72b10fa3          	sb	a1,1855(sp)
   187f8:	74a10023          	sb	a0,1856(sp)
   187fc:	74110513          	addi	a0,sp,1857
   18800:	6585                	lui	a1,0x1
   18802:	32058593          	addi	a1,a1,800 # 1320 <.Lline_table_start1+0x10f5>
   18806:	958a                	add	a1,a1,sp
   18808:	04a00613          	li	a2,74
   1880c:	00002097          	auipc	ra,0x2
   18810:	766080e7          	jalr	1894(ra) # 1af72 <memcpy>
   18814:	6505                	lui	a0,0x1
   18816:	37c50513          	addi	a0,a0,892 # 137c <.Lline_table_start1+0x1151>
   1881a:	950a                	add	a0,a0,sp
   1881c:	73a10593          	addi	a1,sp,1850
   18820:	ffff9097          	auipc	ra,0xffff9
   18824:	7ac080e7          	jalr	1964(ra) # 11fcc <_ZN20complex_full_dynamic3app17h358eb17a145ebb7cE>
   18828:	3eca4503          	lbu	a0,1004(s4)
   1882c:	c119                	beqz	a0,18832 <_start+0x1b90>
   1882e:	13c0206f          	j	1a96a <_start+0x3cc8>
   18832:	78e10913          	addi	s2,sp,1934
   18836:	3eda4503          	lbu	a0,1005(s4)
   1883a:	3eea4583          	lbu	a1,1006(s4)
   1883e:	3efa4803          	lbu	a6,1007(s4)
   18842:	3f0a2683          	lw	a3,1008(s4)
   18846:	3f4a2703          	lw	a4,1012(s4)
   1884a:	3f8a2783          	lw	a5,1016(s4)
   1884e:	05a2                	slli	a1,a1,0x8
   18850:	0186d893          	srli	a7,a3,0x18
   18854:	0106d293          	srli	t0,a3,0x10
   18858:	0187d613          	srli	a2,a5,0x18
   1885c:	0107d493          	srli	s1,a5,0x10
   18860:	0087d413          	srli	s0,a5,0x8
   18864:	8d4d                	or	a0,a0,a1
   18866:	01875593          	srli	a1,a4,0x18
   1886a:	009905a3          	sb	s1,11(s2)
   1886e:	00c90623          	sb	a2,12(s2)
   18872:	01075613          	srli	a2,a4,0x10
   18876:	00c903a3          	sb	a2,7(s2)
   1887a:	00b90423          	sb	a1,8(s2)
   1887e:	00f904a3          	sb	a5,9(s2)
   18882:	00890523          	sb	s0,10(s2)
   18886:	0086d593          	srli	a1,a3,0x8
   1888a:	fea91f23          	sh	a0,-2(s2)
   1888e:	01090023          	sb	a6,0(s2)
   18892:	00d900a3          	sb	a3,1(s2)
   18896:	00b90123          	sb	a1,2(s2)
   1889a:	00875513          	srli	a0,a4,0x8
   1889e:	005901a3          	sb	t0,3(s2)
   188a2:	01190223          	sb	a7,4(s2)
   188a6:	00e902a3          	sb	a4,5(s2)
   188aa:	00a90323          	sb	a0,6(s2)
   188ae:	6505                	lui	a0,0x1
   188b0:	37c50513          	addi	a0,a0,892 # 137c <.Lline_table_start1+0x1151>
   188b4:	950a                	add	a0,a0,sp
   188b6:	78c10593          	addi	a1,sp,1932
   188ba:	ffffc097          	auipc	ra,0xffffc
   188be:	8fc080e7          	jalr	-1796(ra) # 141b6 <_ZN20complex_full_dynamic3app17h903dca5eab8b0ecdE>
   188c2:	3eca4503          	lbu	a0,1004(s4)
   188c6:	c119                	beqz	a0,188cc <_start+0x1c2a>
   188c8:	0a20206f          	j	1a96a <_start+0x3cc8>
   188cc:	3eea4503          	lbu	a0,1006(s4)
   188d0:	3eda4583          	lbu	a1,1005(s4)
   188d4:	3efa4603          	lbu	a2,1007(s4)
   188d8:	3f0a2403          	lw	s0,1008(s4)
   188dc:	0522                	slli	a0,a0,0x8
   188de:	8d4d                	or	a0,a0,a1
   188e0:	00a91723          	sh	a0,14(s2)
   188e4:	00c90823          	sb	a2,16(s2)
   188e8:	6505                	lui	a0,0x1
   188ea:	38450513          	addi	a0,a0,900 # 1384 <.Lline_table_start1+0x1159>
   188ee:	00a105b3          	add	a1,sp,a0
   188f2:	6505                	lui	a0,0x1
   188f4:	32050513          	addi	a0,a0,800 # 1320 <.Lline_table_start1+0x10f5>
   188f8:	950a                	add	a0,a0,sp
   188fa:	03f00613          	li	a2,63
   188fe:	00002097          	auipc	ra,0x2
   18902:	674080e7          	jalr	1652(ra) # 1af72 <memcpy>
   18906:	01845513          	srli	a0,s0,0x18
   1890a:	01045593          	srli	a1,s0,0x10
   1890e:	00845613          	srli	a2,s0,0x8
   18912:	008908a3          	sb	s0,17(s2)
   18916:	00c90923          	sb	a2,18(s2)
   1891a:	00b909a3          	sb	a1,19(s2)
   1891e:	00a90a23          	sb	a0,20(s2)
   18922:	7a310513          	addi	a0,sp,1955
   18926:	6585                	lui	a1,0x1
   18928:	32058593          	addi	a1,a1,800 # 1320 <.Lline_table_start1+0x10f5>
   1892c:	958a                	add	a1,a1,sp
   1892e:	03f00613          	li	a2,63
   18932:	00002097          	auipc	ra,0x2
   18936:	640080e7          	jalr	1600(ra) # 1af72 <memcpy>
   1893a:	6505                	lui	a0,0x1
   1893c:	37c50513          	addi	a0,a0,892 # 137c <.Lline_table_start1+0x1151>
   18940:	950a                	add	a0,a0,sp
   18942:	79c10593          	addi	a1,sp,1948
   18946:	ffffc097          	auipc	ra,0xffffc
   1894a:	b5c080e7          	jalr	-1188(ra) # 144a2 <_ZN20complex_full_dynamic3app17h933ca594e438b865E>
   1894e:	3eca4503          	lbu	a0,1004(s4)
   18952:	c119                	beqz	a0,18958 <_start+0x1cb6>
   18954:	0160206f          	j	1a96a <_start+0x3cc8>
   18958:	3eea4503          	lbu	a0,1006(s4)
   1895c:	3eda4583          	lbu	a1,1005(s4)
   18960:	3efa4603          	lbu	a2,1007(s4)
   18964:	3f0a2403          	lw	s0,1008(s4)
   18968:	0522                	slli	a0,a0,0x8
   1896a:	8d4d                	or	a0,a0,a1
   1896c:	04a91a23          	sh	a0,84(s2)
   18970:	04c90b23          	sb	a2,86(s2)
   18974:	6505                	lui	a0,0x1
   18976:	38450513          	addi	a0,a0,900 # 1384 <.Lline_table_start1+0x1159>
   1897a:	00a105b3          	add	a1,sp,a0
   1897e:	6505                	lui	a0,0x1
   18980:	32050513          	addi	a0,a0,800 # 1320 <.Lline_table_start1+0x10f5>
   18984:	950a                	add	a0,a0,sp
   18986:	04f00613          	li	a2,79
   1898a:	00002097          	auipc	ra,0x2
   1898e:	5e8080e7          	jalr	1512(ra) # 1af72 <memcpy>
   18992:	01845513          	srli	a0,s0,0x18
   18996:	01045593          	srli	a1,s0,0x10
   1899a:	00845613          	srli	a2,s0,0x8
   1899e:	04890ba3          	sb	s0,87(s2)
   189a2:	04c90c23          	sb	a2,88(s2)
   189a6:	04b90ca3          	sb	a1,89(s2)
   189aa:	04a90d23          	sb	a0,90(s2)
   189ae:	7e910513          	addi	a0,sp,2025
   189b2:	6585                	lui	a1,0x1
   189b4:	32058593          	addi	a1,a1,800 # 1320 <.Lline_table_start1+0x10f5>
   189b8:	958a                	add	a1,a1,sp
   189ba:	04f00613          	li	a2,79
   189be:	00002097          	auipc	ra,0x2
   189c2:	5b4080e7          	jalr	1460(ra) # 1af72 <memcpy>
   189c6:	6505                	lui	a0,0x1
   189c8:	37c50513          	addi	a0,a0,892 # 137c <.Lline_table_start1+0x1151>
   189cc:	950a                	add	a0,a0,sp
   189ce:	7e210593          	addi	a1,sp,2018
   189d2:	ffff9097          	auipc	ra,0xffff9
   189d6:	404080e7          	jalr	1028(ra) # 11dd6 <_ZN20complex_full_dynamic3app17h2f04090f91e9988eE>
   189da:	3eca4503          	lbu	a0,1004(s4)
   189de:	c119                	beqz	a0,189e4 <_start+0x1d42>
   189e0:	78b0106f          	j	1a96a <_start+0x3cc8>
   189e4:	3eea4503          	lbu	a0,1006(s4)
   189e8:	3eda4583          	lbu	a1,1005(s4)
   189ec:	3efa4603          	lbu	a2,1007(s4)
   189f0:	3f0a2403          	lw	s0,1008(s4)
   189f4:	0522                	slli	a0,a0,0x8
   189f6:	8d4d                	or	a0,a0,a1
   189f8:	0aa91523          	sh	a0,170(s2)
   189fc:	0ac90623          	sb	a2,172(s2)
   18a00:	6505                	lui	a0,0x1
   18a02:	38450513          	addi	a0,a0,900 # 1384 <.Lline_table_start1+0x1159>
   18a06:	00a105b3          	add	a1,sp,a0
   18a0a:	6505                	lui	a0,0x1
   18a0c:	32050513          	addi	a0,a0,800 # 1320 <.Lline_table_start1+0x10f5>
   18a10:	950a                	add	a0,a0,sp
   18a12:	04200613          	li	a2,66
   18a16:	00002097          	auipc	ra,0x2
   18a1a:	55c080e7          	jalr	1372(ra) # 1af72 <memcpy>
   18a1e:	01845513          	srli	a0,s0,0x18
   18a22:	01045593          	srli	a1,s0,0x10
   18a26:	00845613          	srli	a2,s0,0x8
   18a2a:	0a8906a3          	sb	s0,173(s2)
   18a2e:	0ac90723          	sb	a2,174(s2)
   18a32:	0ab907a3          	sb	a1,175(s2)
   18a36:	0aa90823          	sb	a0,176(s2)
   18a3a:	7ff10513          	addi	a0,sp,2047
   18a3e:	04050513          	addi	a0,a0,64
   18a42:	6585                	lui	a1,0x1
   18a44:	32058593          	addi	a1,a1,800 # 1320 <.Lline_table_start1+0x10f5>
   18a48:	958a                	add	a1,a1,sp
   18a4a:	04200613          	li	a2,66
   18a4e:	00002097          	auipc	ra,0x2
   18a52:	524080e7          	jalr	1316(ra) # 1af72 <memcpy>
   18a56:	6505                	lui	a0,0x1
   18a58:	37c50513          	addi	a0,a0,892 # 137c <.Lline_table_start1+0x1151>
   18a5c:	950a                	add	a0,a0,sp
   18a5e:	7ff10593          	addi	a1,sp,2047
   18a62:	03958593          	addi	a1,a1,57
   18a66:	ffffb097          	auipc	ra,0xffffb
   18a6a:	9c0080e7          	jalr	-1600(ra) # 13426 <_ZN20complex_full_dynamic3app17h77c319c2ca315720E>
   18a6e:	3eca4503          	lbu	a0,1004(s4)
   18a72:	c119                	beqz	a0,18a78 <_start+0x1dd6>
   18a74:	6f70106f          	j	1a96a <_start+0x3cc8>
   18a78:	3eda4503          	lbu	a0,1005(s4)
   18a7c:	3eea4583          	lbu	a1,1006(s4)
   18a80:	3efa4603          	lbu	a2,1007(s4)
   18a84:	3f0a2683          	lw	a3,1008(s4)
   18a88:	3f4a2703          	lw	a4,1012(s4)
   18a8c:	3f8a2783          	lw	a5,1016(s4)
   18a90:	3fca2483          	lw	s1,1020(s4)
   18a94:	400a2403          	lw	s0,1024(s4)
   18a98:	38ea2823          	sw	a4,912(s4)
   18a9c:	38fa2a23          	sw	a5,916(s4)
   18aa0:	389a2c23          	sw	s1,920(s4)
   18aa4:	388a2e23          	sw	s0,924(s4)
   18aa8:	404a2703          	lw	a4,1028(s4)
   18aac:	408a2783          	lw	a5,1032(s4)
   18ab0:	40ca2483          	lw	s1,1036(s4)
   18ab4:	05a2                	slli	a1,a1,0x8
   18ab6:	3aea2023          	sw	a4,928(s4)
   18aba:	3afa2223          	sw	a5,932(s4)
   18abe:	3a9a2423          	sw	s1,936(s4)
   18ac2:	0186d713          	srli	a4,a3,0x18
   18ac6:	8d4d                	or	a0,a0,a1
   18ac8:	0106d593          	srli	a1,a3,0x10
   18acc:	0eb90ca3          	sb	a1,249(s2)
   18ad0:	0ee90d23          	sb	a4,250(s2)
   18ad4:	0086d593          	srli	a1,a3,0x8
   18ad8:	0ea91a23          	sh	a0,244(s2)
   18adc:	0ec90b23          	sb	a2,246(s2)
   18ae0:	0ed90ba3          	sb	a3,247(s2)
   18ae4:	0eb90c23          	sb	a1,248(s2)
   18ae8:	7ff10513          	addi	a0,sp,2047
   18aec:	08a50513          	addi	a0,a0,138
   18af0:	6585                	lui	a1,0x1
   18af2:	32058593          	addi	a1,a1,800 # 1320 <.Lline_table_start1+0x10f5>
   18af6:	958a                	add	a1,a1,sp
   18af8:	4671                	li	a2,28
   18afa:	00002097          	auipc	ra,0x2
   18afe:	478080e7          	jalr	1144(ra) # 1af72 <memcpy>
   18b02:	6505                	lui	a0,0x1
   18b04:	37c50513          	addi	a0,a0,892 # 137c <.Lline_table_start1+0x1151>
   18b08:	950a                	add	a0,a0,sp
   18b0a:	7ff10593          	addi	a1,sp,2047
   18b0e:	08358593          	addi	a1,a1,131
   18b12:	ffffb097          	auipc	ra,0xffffb
   18b16:	df0080e7          	jalr	-528(ra) # 13902 <_ZN20complex_full_dynamic3app17h7bf89c3bc68f3de5E>
   18b1a:	3eca4503          	lbu	a0,1004(s4)
   18b1e:	c119                	beqz	a0,18b24 <_start+0x1e82>
   18b20:	64b0106f          	j	1a96a <_start+0x3cc8>
   18b24:	3eea4503          	lbu	a0,1006(s4)
   18b28:	3eda4583          	lbu	a1,1005(s4)
   18b2c:	3efa4603          	lbu	a2,1007(s4)
   18b30:	3f0a2403          	lw	s0,1008(s4)
   18b34:	0522                	slli	a0,a0,0x8
   18b36:	8d4d                	or	a0,a0,a1
   18b38:	10a91c23          	sh	a0,280(s2)
   18b3c:	10c90d23          	sb	a2,282(s2)
   18b40:	6505                	lui	a0,0x1
   18b42:	38450513          	addi	a0,a0,900 # 1384 <.Lline_table_start1+0x1159>
   18b46:	00a105b3          	add	a1,sp,a0
   18b4a:	6505                	lui	a0,0x1
   18b4c:	32050513          	addi	a0,a0,800 # 1320 <.Lline_table_start1+0x10f5>
   18b50:	950a                	add	a0,a0,sp
   18b52:	02400613          	li	a2,36
   18b56:	00002097          	auipc	ra,0x2
   18b5a:	41c080e7          	jalr	1052(ra) # 1af72 <memcpy>
   18b5e:	01845513          	srli	a0,s0,0x18
   18b62:	01045593          	srli	a1,s0,0x10
   18b66:	00845613          	srli	a2,s0,0x8
   18b6a:	10890da3          	sb	s0,283(s2)
   18b6e:	10c90e23          	sb	a2,284(s2)
   18b72:	10b90ea3          	sb	a1,285(s2)
   18b76:	10a90f23          	sb	a0,286(s2)
   18b7a:	7ff10513          	addi	a0,sp,2047
   18b7e:	0ae50513          	addi	a0,a0,174
   18b82:	6585                	lui	a1,0x1
   18b84:	32058593          	addi	a1,a1,800 # 1320 <.Lline_table_start1+0x10f5>
   18b88:	958a                	add	a1,a1,sp
   18b8a:	02400613          	li	a2,36
   18b8e:	00002097          	auipc	ra,0x2
   18b92:	3e4080e7          	jalr	996(ra) # 1af72 <memcpy>
   18b96:	6505                	lui	a0,0x1
   18b98:	37c50513          	addi	a0,a0,892 # 137c <.Lline_table_start1+0x1151>
   18b9c:	950a                	add	a0,a0,sp
   18b9e:	7ff10593          	addi	a1,sp,2047
   18ba2:	0a758593          	addi	a1,a1,167
   18ba6:	ffffd097          	auipc	ra,0xffffd
   18baa:	e76080e7          	jalr	-394(ra) # 15a1c <_ZN20complex_full_dynamic3app17hd3f154c1a4a73519E>
   18bae:	3eca4503          	lbu	a0,1004(s4)
   18bb2:	c119                	beqz	a0,18bb8 <_start+0x1f16>
   18bb4:	5b70106f          	j	1a96a <_start+0x3cc8>
   18bb8:	3eda4503          	lbu	a0,1005(s4)
   18bbc:	3eea4583          	lbu	a1,1006(s4)
   18bc0:	3f4a2603          	lw	a2,1012(s4)
   18bc4:	3f8a1683          	lh	a3,1016(s4)
   18bc8:	3efa4703          	lbu	a4,1007(s4)
   18bcc:	3f0a2783          	lw	a5,1008(s4)
   18bd0:	05a2                	slli	a1,a1,0x8
   18bd2:	38ca2823          	sw	a2,912(s4)
   18bd6:	38da1a23          	sh	a3,916(s4)
   18bda:	0187d693          	srli	a3,a5,0x18
   18bde:	0107d493          	srli	s1,a5,0x10
   18be2:	8d4d                	or	a0,a0,a1
   18be4:	0087d593          	srli	a1,a5,0x8
   18be8:	14a91223          	sh	a0,324(s2)
   18bec:	14e90323          	sb	a4,326(s2)
   18bf0:	14f903a3          	sb	a5,327(s2)
   18bf4:	14b90423          	sb	a1,328(s2)
   18bf8:	391a4503          	lbu	a0,913(s4)
   18bfc:	392a4583          	lbu	a1,914(s4)
   18c00:	393a4703          	lbu	a4,915(s4)
   18c04:	394a4783          	lbu	a5,916(s4)
   18c08:	149904a3          	sb	s1,329(s2)
   18c0c:	14d90523          	sb	a3,330(s2)
   18c10:	14c905a3          	sb	a2,331(s2)
   18c14:	14a90623          	sb	a0,332(s2)
   18c18:	395a4503          	lbu	a0,917(s4)
   18c1c:	14b906a3          	sb	a1,333(s2)
   18c20:	14e90723          	sb	a4,334(s2)
   18c24:	14f907a3          	sb	a5,335(s2)
   18c28:	14a90823          	sb	a0,336(s2)
   18c2c:	6505                	lui	a0,0x1
   18c2e:	37c50513          	addi	a0,a0,892 # 137c <.Lline_table_start1+0x1151>
   18c32:	950a                	add	a0,a0,sp
   18c34:	7ff10593          	addi	a1,sp,2047
   18c38:	0d358593          	addi	a1,a1,211
   18c3c:	ffff9097          	auipc	ra,0xffff9
   18c40:	ac6080e7          	jalr	-1338(ra) # 11702 <_ZN20complex_full_dynamic3app17h1e5b5e7fbe194958E>
   18c44:	3eca4503          	lbu	a0,1004(s4)
   18c48:	c119                	beqz	a0,18c4e <_start+0x1fac>
   18c4a:	5210106f          	j	1a96a <_start+0x3cc8>
   18c4e:	3eda4503          	lbu	a0,1005(s4)
   18c52:	3eea4583          	lbu	a1,1006(s4)
   18c56:	3efa4603          	lbu	a2,1007(s4)
   18c5a:	3f0a2683          	lw	a3,1008(s4)
   18c5e:	3f4a2703          	lw	a4,1012(s4)
   18c62:	3f8a2783          	lw	a5,1016(s4)
   18c66:	3fca2483          	lw	s1,1020(s4)
   18c6a:	400a2403          	lw	s0,1024(s4)
   18c6e:	38ea2823          	sw	a4,912(s4)
   18c72:	38fa2a23          	sw	a5,916(s4)
   18c76:	389a2c23          	sw	s1,920(s4)
   18c7a:	388a2e23          	sw	s0,924(s4)
   18c7e:	404a2703          	lw	a4,1028(s4)
   18c82:	408a2783          	lw	a5,1032(s4)
   18c86:	40ca1483          	lh	s1,1036(s4)
   18c8a:	05a2                	slli	a1,a1,0x8
   18c8c:	3aea2023          	sw	a4,928(s4)
   18c90:	3afa2223          	sw	a5,932(s4)
   18c94:	3a9a1423          	sh	s1,936(s4)
   18c98:	0186d713          	srli	a4,a3,0x18
   18c9c:	8d4d                	or	a0,a0,a1
   18c9e:	0106d593          	srli	a1,a3,0x10
   18ca2:	14b90ba3          	sb	a1,343(s2)
   18ca6:	14e90c23          	sb	a4,344(s2)
   18caa:	0086d593          	srli	a1,a3,0x8
   18cae:	14a91923          	sh	a0,338(s2)
   18cb2:	14c90a23          	sb	a2,340(s2)
   18cb6:	14d90aa3          	sb	a3,341(s2)
   18cba:	14b90b23          	sb	a1,342(s2)
   18cbe:	7ff10513          	addi	a0,sp,2047
   18cc2:	0e850513          	addi	a0,a0,232
   18cc6:	6585                	lui	a1,0x1
   18cc8:	32058593          	addi	a1,a1,800 # 1320 <.Lline_table_start1+0x10f5>
   18ccc:	958a                	add	a1,a1,sp
   18cce:	4669                	li	a2,26
   18cd0:	00002097          	auipc	ra,0x2
   18cd4:	2a2080e7          	jalr	674(ra) # 1af72 <memcpy>
   18cd8:	6505                	lui	a0,0x1
   18cda:	37c50513          	addi	a0,a0,892 # 137c <.Lline_table_start1+0x1151>
   18cde:	950a                	add	a0,a0,sp
   18ce0:	7ff10593          	addi	a1,sp,2047
   18ce4:	0e158593          	addi	a1,a1,225
   18ce8:	ffffa097          	auipc	ra,0xffffa
   18cec:	e74080e7          	jalr	-396(ra) # 12b5c <_ZN20complex_full_dynamic3app17h5a4795d4f1855acbE>
   18cf0:	3eca4503          	lbu	a0,1004(s4)
   18cf4:	c119                	beqz	a0,18cfa <_start+0x2058>
   18cf6:	4750106f          	j	1a96a <_start+0x3cc8>
   18cfa:	3eea4503          	lbu	a0,1006(s4)
   18cfe:	3eda4583          	lbu	a1,1005(s4)
   18d02:	3efa4603          	lbu	a2,1007(s4)
   18d06:	3f0a2403          	lw	s0,1008(s4)
   18d0a:	0522                	slli	a0,a0,0x8
   18d0c:	8d4d                	or	a0,a0,a1
   18d0e:	16a91a23          	sh	a0,372(s2)
   18d12:	16c90b23          	sb	a2,374(s2)
   18d16:	6505                	lui	a0,0x1
   18d18:	38450513          	addi	a0,a0,900 # 1384 <.Lline_table_start1+0x1159>
   18d1c:	00a105b3          	add	a1,sp,a0
   18d20:	6505                	lui	a0,0x1
   18d22:	32050513          	addi	a0,a0,800 # 1320 <.Lline_table_start1+0x10f5>
   18d26:	950a                	add	a0,a0,sp
   18d28:	04c00613          	li	a2,76
   18d2c:	00002097          	auipc	ra,0x2
   18d30:	246080e7          	jalr	582(ra) # 1af72 <memcpy>
   18d34:	01845513          	srli	a0,s0,0x18
   18d38:	01045593          	srli	a1,s0,0x10
   18d3c:	00845613          	srli	a2,s0,0x8
   18d40:	16890ba3          	sb	s0,375(s2)
   18d44:	16c90c23          	sb	a2,376(s2)
   18d48:	16b90ca3          	sb	a1,377(s2)
   18d4c:	16a90d23          	sb	a0,378(s2)
   18d50:	7ff10513          	addi	a0,sp,2047
   18d54:	10a50513          	addi	a0,a0,266
   18d58:	6585                	lui	a1,0x1
   18d5a:	32058593          	addi	a1,a1,800 # 1320 <.Lline_table_start1+0x10f5>
   18d5e:	958a                	add	a1,a1,sp
   18d60:	04c00613          	li	a2,76
   18d64:	00002097          	auipc	ra,0x2
   18d68:	20e080e7          	jalr	526(ra) # 1af72 <memcpy>
   18d6c:	6505                	lui	a0,0x1
   18d6e:	37c50513          	addi	a0,a0,892 # 137c <.Lline_table_start1+0x1151>
   18d72:	950a                	add	a0,a0,sp
   18d74:	7ff10593          	addi	a1,sp,2047
   18d78:	10358593          	addi	a1,a1,259
   18d7c:	ffffe097          	auipc	ra,0xffffe
   18d80:	a3a080e7          	jalr	-1478(ra) # 167b6 <_ZN20complex_full_dynamic3app17hf49bc582c7295d3fE>
   18d84:	3eca4503          	lbu	a0,1004(s4)
   18d88:	c119                	beqz	a0,18d8e <_start+0x20ec>
   18d8a:	3e10106f          	j	1a96a <_start+0x3cc8>
   18d8e:	3eea4503          	lbu	a0,1006(s4)
   18d92:	3eda4583          	lbu	a1,1005(s4)
   18d96:	3efa4603          	lbu	a2,1007(s4)
   18d9a:	3f0a2403          	lw	s0,1008(s4)
   18d9e:	0522                	slli	a0,a0,0x8
   18da0:	8d4d                	or	a0,a0,a1
   18da2:	1ca91423          	sh	a0,456(s2)
   18da6:	1cc90523          	sb	a2,458(s2)
   18daa:	6505                	lui	a0,0x1
   18dac:	38450513          	addi	a0,a0,900 # 1384 <.Lline_table_start1+0x1159>
   18db0:	00a105b3          	add	a1,sp,a0
   18db4:	6505                	lui	a0,0x1
   18db6:	32050513          	addi	a0,a0,800 # 1320 <.Lline_table_start1+0x10f5>
   18dba:	950a                	add	a0,a0,sp
   18dbc:	04600613          	li	a2,70
   18dc0:	00002097          	auipc	ra,0x2
   18dc4:	1b2080e7          	jalr	434(ra) # 1af72 <memcpy>
   18dc8:	01845513          	srli	a0,s0,0x18
   18dcc:	01045593          	srli	a1,s0,0x10
   18dd0:	00845613          	srli	a2,s0,0x8
   18dd4:	1c8905a3          	sb	s0,459(s2)
   18dd8:	1cc90623          	sb	a2,460(s2)
   18ddc:	1cb906a3          	sb	a1,461(s2)
   18de0:	1ca90723          	sb	a0,462(s2)
   18de4:	7ff10513          	addi	a0,sp,2047
   18de8:	15e50513          	addi	a0,a0,350
   18dec:	6585                	lui	a1,0x1
   18dee:	32058593          	addi	a1,a1,800 # 1320 <.Lline_table_start1+0x10f5>
   18df2:	958a                	add	a1,a1,sp
   18df4:	04600613          	li	a2,70
   18df8:	00002097          	auipc	ra,0x2
   18dfc:	17a080e7          	jalr	378(ra) # 1af72 <memcpy>
   18e00:	6505                	lui	a0,0x1
   18e02:	37c50513          	addi	a0,a0,892 # 137c <.Lline_table_start1+0x1151>
   18e06:	950a                	add	a0,a0,sp
   18e08:	7ff10593          	addi	a1,sp,2047
   18e0c:	15758593          	addi	a1,a1,343
   18e10:	ffffd097          	auipc	ra,0xffffd
   18e14:	b12080e7          	jalr	-1262(ra) # 15922 <_ZN20complex_full_dynamic3app17hd209b81c67ba65afE>
   18e18:	3eca4503          	lbu	a0,1004(s4)
   18e1c:	c119                	beqz	a0,18e22 <_start+0x2180>
   18e1e:	34d0106f          	j	1a96a <_start+0x3cc8>
   18e22:	3eea4503          	lbu	a0,1006(s4)
   18e26:	3eda4583          	lbu	a1,1005(s4)
   18e2a:	3efa4603          	lbu	a2,1007(s4)
   18e2e:	3f0a2403          	lw	s0,1008(s4)
   18e32:	0522                	slli	a0,a0,0x8
   18e34:	8d4d                	or	a0,a0,a1
   18e36:	20a91b23          	sh	a0,534(s2)
   18e3a:	20c90c23          	sb	a2,536(s2)
   18e3e:	6505                	lui	a0,0x1
   18e40:	38450513          	addi	a0,a0,900 # 1384 <.Lline_table_start1+0x1159>
   18e44:	00a105b3          	add	a1,sp,a0
   18e48:	6505                	lui	a0,0x1
   18e4a:	32050513          	addi	a0,a0,800 # 1320 <.Lline_table_start1+0x10f5>
   18e4e:	950a                	add	a0,a0,sp
   18e50:	03500613          	li	a2,53
   18e54:	00002097          	auipc	ra,0x2
   18e58:	11e080e7          	jalr	286(ra) # 1af72 <memcpy>
   18e5c:	01845513          	srli	a0,s0,0x18
   18e60:	01045593          	srli	a1,s0,0x10
   18e64:	00845613          	srli	a2,s0,0x8
   18e68:	20890ca3          	sb	s0,537(s2)
   18e6c:	20c90d23          	sb	a2,538(s2)
   18e70:	20b90da3          	sb	a1,539(s2)
   18e74:	20a90e23          	sb	a0,540(s2)
   18e78:	7ff10513          	addi	a0,sp,2047
   18e7c:	1ac50513          	addi	a0,a0,428
   18e80:	6585                	lui	a1,0x1
   18e82:	32058593          	addi	a1,a1,800 # 1320 <.Lline_table_start1+0x10f5>
   18e86:	958a                	add	a1,a1,sp
   18e88:	03500613          	li	a2,53
   18e8c:	00002097          	auipc	ra,0x2
   18e90:	0e6080e7          	jalr	230(ra) # 1af72 <memcpy>
   18e94:	6505                	lui	a0,0x1
   18e96:	37c50513          	addi	a0,a0,892 # 137c <.Lline_table_start1+0x1151>
   18e9a:	950a                	add	a0,a0,sp
   18e9c:	7ff10593          	addi	a1,sp,2047
   18ea0:	1a558593          	addi	a1,a1,421
   18ea4:	ffffa097          	auipc	ra,0xffffa
   18ea8:	8dc080e7          	jalr	-1828(ra) # 12780 <_ZN20complex_full_dynamic3app17h4c389e7df843e8c3E>
   18eac:	3eca4503          	lbu	a0,1004(s4)
   18eb0:	c119                	beqz	a0,18eb6 <_start+0x2214>
   18eb2:	2b90106f          	j	1a96a <_start+0x3cc8>
   18eb6:	3eea4503          	lbu	a0,1006(s4)
   18eba:	3eda4583          	lbu	a1,1005(s4)
   18ebe:	3efa4603          	lbu	a2,1007(s4)
   18ec2:	3f0a2403          	lw	s0,1008(s4)
   18ec6:	0522                	slli	a0,a0,0x8
   18ec8:	8d4d                	or	a0,a0,a1
   18eca:	24a91923          	sh	a0,594(s2)
   18ece:	24c90a23          	sb	a2,596(s2)
   18ed2:	6505                	lui	a0,0x1
   18ed4:	38450513          	addi	a0,a0,900 # 1384 <.Lline_table_start1+0x1159>
   18ed8:	00a105b3          	add	a1,sp,a0
   18edc:	6505                	lui	a0,0x1
   18ede:	32050513          	addi	a0,a0,800 # 1320 <.Lline_table_start1+0x10f5>
   18ee2:	950a                	add	a0,a0,sp
   18ee4:	03100613          	li	a2,49
   18ee8:	00002097          	auipc	ra,0x2
   18eec:	08a080e7          	jalr	138(ra) # 1af72 <memcpy>
   18ef0:	01845513          	srli	a0,s0,0x18
   18ef4:	01045593          	srli	a1,s0,0x10
   18ef8:	00845613          	srli	a2,s0,0x8
   18efc:	24890aa3          	sb	s0,597(s2)
   18f00:	24c90b23          	sb	a2,598(s2)
   18f04:	24b90ba3          	sb	a1,599(s2)
   18f08:	24a90c23          	sb	a0,600(s2)
   18f0c:	7ff10513          	addi	a0,sp,2047
   18f10:	1e850513          	addi	a0,a0,488
   18f14:	6585                	lui	a1,0x1
   18f16:	32058593          	addi	a1,a1,800 # 1320 <.Lline_table_start1+0x10f5>
   18f1a:	958a                	add	a1,a1,sp
   18f1c:	03100613          	li	a2,49
   18f20:	00002097          	auipc	ra,0x2
   18f24:	052080e7          	jalr	82(ra) # 1af72 <memcpy>
   18f28:	6505                	lui	a0,0x1
   18f2a:	37c50513          	addi	a0,a0,892 # 137c <.Lline_table_start1+0x1151>
   18f2e:	950a                	add	a0,a0,sp
   18f30:	7ff10593          	addi	a1,sp,2047
   18f34:	1e158593          	addi	a1,a1,481
   18f38:	ffff9097          	auipc	ra,0xffff9
   18f3c:	36e080e7          	jalr	878(ra) # 122a6 <_ZN20complex_full_dynamic3app17h4023f83728cafaafE>
   18f40:	3eca4503          	lbu	a0,1004(s4)
   18f44:	c119                	beqz	a0,18f4a <_start+0x22a8>
   18f46:	2250106f          	j	1a96a <_start+0x3cc8>
   18f4a:	3eda4503          	lbu	a0,1005(s4)
   18f4e:	3eea4583          	lbu	a1,1006(s4)
   18f52:	3efa4603          	lbu	a2,1007(s4)
   18f56:	3f0a2683          	lw	a3,1008(s4)
   18f5a:	3f4a2703          	lw	a4,1012(s4)
   18f5e:	3f8a2783          	lw	a5,1016(s4)
   18f62:	3fca2483          	lw	s1,1020(s4)
   18f66:	400a2403          	lw	s0,1024(s4)
   18f6a:	38ea2823          	sw	a4,912(s4)
   18f6e:	38fa2a23          	sw	a5,916(s4)
   18f72:	389a2c23          	sw	s1,920(s4)
   18f76:	388a2e23          	sw	s0,924(s4)
   18f7a:	404a2703          	lw	a4,1028(s4)
   18f7e:	408a2783          	lw	a5,1032(s4)
   18f82:	40ca2483          	lw	s1,1036(s4)
   18f86:	410a2403          	lw	s0,1040(s4)
   18f8a:	05a2                	slli	a1,a1,0x8
   18f8c:	3aea2023          	sw	a4,928(s4)
   18f90:	3afa2223          	sw	a5,932(s4)
   18f94:	3a9a2423          	sw	s1,936(s4)
   18f98:	3a8a2623          	sw	s0,940(s4)
   18f9c:	0186d713          	srli	a4,a3,0x18
   18fa0:	8d4d                	or	a0,a0,a1
   18fa2:	0106d593          	srli	a1,a3,0x10
   18fa6:	28b907a3          	sb	a1,655(s2)
   18faa:	28e90823          	sb	a4,656(s2)
   18fae:	0086d593          	srli	a1,a3,0x8
   18fb2:	28a91523          	sh	a0,650(s2)
   18fb6:	28c90623          	sb	a2,652(s2)
   18fba:	28d906a3          	sb	a3,653(s2)
   18fbe:	28b90723          	sb	a1,654(s2)
   18fc2:	7ff10513          	addi	a0,sp,2047
   18fc6:	22050513          	addi	a0,a0,544
   18fca:	6585                	lui	a1,0x1
   18fcc:	32058593          	addi	a1,a1,800 # 1320 <.Lline_table_start1+0x10f5>
   18fd0:	958a                	add	a1,a1,sp
   18fd2:	02000613          	li	a2,32
   18fd6:	00002097          	auipc	ra,0x2
   18fda:	f9c080e7          	jalr	-100(ra) # 1af72 <memcpy>
   18fde:	6505                	lui	a0,0x1
   18fe0:	37c50513          	addi	a0,a0,892 # 137c <.Lline_table_start1+0x1151>
   18fe4:	950a                	add	a0,a0,sp
   18fe6:	7ff10593          	addi	a1,sp,2047
   18fea:	21958593          	addi	a1,a1,537
   18fee:	ffffc097          	auipc	ra,0xffffc
   18ff2:	d7e080e7          	jalr	-642(ra) # 14d6c <_ZN20complex_full_dynamic3app17hb4b26aa46c904bd4E>
   18ff6:	3eca4503          	lbu	a0,1004(s4)
   18ffa:	c119                	beqz	a0,19000 <_start+0x235e>
   18ffc:	16f0106f          	j	1a96a <_start+0x3cc8>
   19000:	3eea4503          	lbu	a0,1006(s4)
   19004:	3eda4583          	lbu	a1,1005(s4)
   19008:	3efa4603          	lbu	a2,1007(s4)
   1900c:	3f0a2403          	lw	s0,1008(s4)
   19010:	0522                	slli	a0,a0,0x8
   19012:	8d4d                	or	a0,a0,a1
   19014:	2aa91923          	sh	a0,690(s2)
   19018:	2ac90a23          	sb	a2,692(s2)
   1901c:	6505                	lui	a0,0x1
   1901e:	38450513          	addi	a0,a0,900 # 1384 <.Lline_table_start1+0x1159>
   19022:	00a105b3          	add	a1,sp,a0
   19026:	6505                	lui	a0,0x1
   19028:	32050513          	addi	a0,a0,800 # 1320 <.Lline_table_start1+0x10f5>
   1902c:	950a                	add	a0,a0,sp
   1902e:	04a00613          	li	a2,74
   19032:	00002097          	auipc	ra,0x2
   19036:	f40080e7          	jalr	-192(ra) # 1af72 <memcpy>
   1903a:	01845513          	srli	a0,s0,0x18
   1903e:	01045593          	srli	a1,s0,0x10
   19042:	00845613          	srli	a2,s0,0x8
   19046:	2a890aa3          	sb	s0,693(s2)
   1904a:	2ac90b23          	sb	a2,694(s2)
   1904e:	2ab90ba3          	sb	a1,695(s2)
   19052:	2aa90c23          	sb	a0,696(s2)
   19056:	7ff10513          	addi	a0,sp,2047
   1905a:	24850513          	addi	a0,a0,584
   1905e:	6585                	lui	a1,0x1
   19060:	32058593          	addi	a1,a1,800 # 1320 <.Lline_table_start1+0x10f5>
   19064:	958a                	add	a1,a1,sp
   19066:	04a00613          	li	a2,74
   1906a:	00002097          	auipc	ra,0x2
   1906e:	f08080e7          	jalr	-248(ra) # 1af72 <memcpy>
   19072:	6505                	lui	a0,0x1
   19074:	37c50513          	addi	a0,a0,892 # 137c <.Lline_table_start1+0x1151>
   19078:	950a                	add	a0,a0,sp
   1907a:	7ff10593          	addi	a1,sp,2047
   1907e:	24158593          	addi	a1,a1,577
   19082:	ffff8097          	auipc	ra,0xffff8
   19086:	490080e7          	jalr	1168(ra) # 11512 <_ZN20complex_full_dynamic3app17h106f08f30809caaaE>
   1908a:	3eca4503          	lbu	a0,1004(s4)
   1908e:	c119                	beqz	a0,19094 <_start+0x23f2>
   19090:	0db0106f          	j	1a96a <_start+0x3cc8>
   19094:	3eea4503          	lbu	a0,1006(s4)
   19098:	3eda4583          	lbu	a1,1005(s4)
   1909c:	3efa4603          	lbu	a2,1007(s4)
   190a0:	3f0a2403          	lw	s0,1008(s4)
   190a4:	0522                	slli	a0,a0,0x8
   190a6:	8d4d                	or	a0,a0,a1
   190a8:	30a91223          	sh	a0,772(s2)
   190ac:	30c90323          	sb	a2,774(s2)
   190b0:	6505                	lui	a0,0x1
   190b2:	38450513          	addi	a0,a0,900 # 1384 <.Lline_table_start1+0x1159>
   190b6:	00a105b3          	add	a1,sp,a0
   190ba:	6505                	lui	a0,0x1
   190bc:	32050513          	addi	a0,a0,800 # 1320 <.Lline_table_start1+0x10f5>
   190c0:	950a                	add	a0,a0,sp
   190c2:	04800613          	li	a2,72
   190c6:	00002097          	auipc	ra,0x2
   190ca:	eac080e7          	jalr	-340(ra) # 1af72 <memcpy>
   190ce:	01845513          	srli	a0,s0,0x18
   190d2:	01045593          	srli	a1,s0,0x10
   190d6:	00845613          	srli	a2,s0,0x8
   190da:	308903a3          	sb	s0,775(s2)
   190de:	30c90423          	sb	a2,776(s2)
   190e2:	30b904a3          	sb	a1,777(s2)
   190e6:	30a90523          	sb	a0,778(s2)
   190ea:	7ff10513          	addi	a0,sp,2047
   190ee:	29a50513          	addi	a0,a0,666
   190f2:	6585                	lui	a1,0x1
   190f4:	32058593          	addi	a1,a1,800 # 1320 <.Lline_table_start1+0x10f5>
   190f8:	958a                	add	a1,a1,sp
   190fa:	04800613          	li	a2,72
   190fe:	00002097          	auipc	ra,0x2
   19102:	e74080e7          	jalr	-396(ra) # 1af72 <memcpy>
   19106:	6505                	lui	a0,0x1
   19108:	37c50513          	addi	a0,a0,892 # 137c <.Lline_table_start1+0x1151>
   1910c:	950a                	add	a0,a0,sp
   1910e:	7ff10593          	addi	a1,sp,2047
   19112:	29358593          	addi	a1,a1,659
   19116:	ffffb097          	auipc	ra,0xffffb
   1911a:	fa2080e7          	jalr	-94(ra) # 140b8 <_ZN20complex_full_dynamic3app17h8cf6cdaee9bb8570E>
   1911e:	3eca4503          	lbu	a0,1004(s4)
   19122:	c119                	beqz	a0,19128 <_start+0x2486>
   19124:	0470106f          	j	1a96a <_start+0x3cc8>
   19128:	3eea4503          	lbu	a0,1006(s4)
   1912c:	3eda4583          	lbu	a1,1005(s4)
   19130:	3efa4603          	lbu	a2,1007(s4)
   19134:	3f0a2403          	lw	s0,1008(s4)
   19138:	0522                	slli	a0,a0,0x8
   1913a:	8d4d                	or	a0,a0,a1
   1913c:	34a91a23          	sh	a0,852(s2)
   19140:	34c90b23          	sb	a2,854(s2)
   19144:	6505                	lui	a0,0x1
   19146:	38450513          	addi	a0,a0,900 # 1384 <.Lline_table_start1+0x1159>
   1914a:	00a105b3          	add	a1,sp,a0
   1914e:	6505                	lui	a0,0x1
   19150:	32050513          	addi	a0,a0,800 # 1320 <.Lline_table_start1+0x10f5>
   19154:	950a                	add	a0,a0,sp
   19156:	05a00613          	li	a2,90
   1915a:	00002097          	auipc	ra,0x2
   1915e:	e18080e7          	jalr	-488(ra) # 1af72 <memcpy>
   19162:	01845513          	srli	a0,s0,0x18
   19166:	01045593          	srli	a1,s0,0x10
   1916a:	00845613          	srli	a2,s0,0x8
   1916e:	34890ba3          	sb	s0,855(s2)
   19172:	34c90c23          	sb	a2,856(s2)
   19176:	34b90ca3          	sb	a1,857(s2)
   1917a:	34a90d23          	sb	a0,858(s2)
   1917e:	7ff10513          	addi	a0,sp,2047
   19182:	2ea50513          	addi	a0,a0,746
   19186:	6585                	lui	a1,0x1
   19188:	32058593          	addi	a1,a1,800 # 1320 <.Lline_table_start1+0x10f5>
   1918c:	958a                	add	a1,a1,sp
   1918e:	05a00613          	li	a2,90
   19192:	00002097          	auipc	ra,0x2
   19196:	de0080e7          	jalr	-544(ra) # 1af72 <memcpy>
   1919a:	6505                	lui	a0,0x1
   1919c:	37c50513          	addi	a0,a0,892 # 137c <.Lline_table_start1+0x1151>
   191a0:	950a                	add	a0,a0,sp
   191a2:	7ff10593          	addi	a1,sp,2047
   191a6:	2e358593          	addi	a1,a1,739
   191aa:	ffffa097          	auipc	ra,0xffffa
   191ae:	f96080e7          	jalr	-106(ra) # 13140 <_ZN20complex_full_dynamic3app17h6b7373c14878eaf6E>
   191b2:	3eca4503          	lbu	a0,1004(s4)
   191b6:	c119                	beqz	a0,191bc <_start+0x251a>
   191b8:	7b20106f          	j	1a96a <_start+0x3cc8>
   191bc:	3eda4503          	lbu	a0,1005(s4)
   191c0:	3eea4583          	lbu	a1,1006(s4)
   191c4:	3efa4603          	lbu	a2,1007(s4)
   191c8:	3f0a2683          	lw	a3,1008(s4)
   191cc:	3f4a2703          	lw	a4,1012(s4)
   191d0:	3f8a2783          	lw	a5,1016(s4)
   191d4:	3fca2483          	lw	s1,1020(s4)
   191d8:	400a2403          	lw	s0,1024(s4)
   191dc:	38ea2823          	sw	a4,912(s4)
   191e0:	38fa2a23          	sw	a5,916(s4)
   191e4:	389a2c23          	sw	s1,920(s4)
   191e8:	388a2e23          	sw	s0,924(s4)
   191ec:	404a2703          	lw	a4,1028(s4)
   191f0:	408a1783          	lh	a5,1032(s4)
   191f4:	40aa4483          	lbu	s1,1034(s4)
   191f8:	05a2                	slli	a1,a1,0x8
   191fa:	3aea2023          	sw	a4,928(s4)
   191fe:	3afa1223          	sh	a5,932(s4)
   19202:	3a9a0323          	sb	s1,934(s4)
   19206:	0186d713          	srli	a4,a3,0x18
   1920a:	8d4d                	or	a0,a0,a1
   1920c:	0106d593          	srli	a1,a3,0x10
   19210:	3ab90da3          	sb	a1,955(s2)
   19214:	3ae90e23          	sb	a4,956(s2)
   19218:	0086d593          	srli	a1,a3,0x8
   1921c:	3aa91b23          	sh	a0,950(s2)
   19220:	3ac90c23          	sb	a2,952(s2)
   19224:	3ad90ca3          	sb	a3,953(s2)
   19228:	3ab90d23          	sb	a1,954(s2)
   1922c:	7ff10513          	addi	a0,sp,2047
   19230:	34c50513          	addi	a0,a0,844
   19234:	6585                	lui	a1,0x1
   19236:	32058593          	addi	a1,a1,800 # 1320 <.Lline_table_start1+0x10f5>
   1923a:	958a                	add	a1,a1,sp
   1923c:	465d                	li	a2,23
   1923e:	00002097          	auipc	ra,0x2
   19242:	d34080e7          	jalr	-716(ra) # 1af72 <memcpy>
   19246:	6505                	lui	a0,0x1
   19248:	37c50513          	addi	a0,a0,892 # 137c <.Lline_table_start1+0x1151>
   1924c:	950a                	add	a0,a0,sp
   1924e:	7ff10593          	addi	a1,sp,2047
   19252:	34558593          	addi	a1,a1,837
   19256:	ffffa097          	auipc	ra,0xffffa
   1925a:	b00080e7          	jalr	-1280(ra) # 12d56 <_ZN20complex_full_dynamic3app17h5e606640a32283b5E>
   1925e:	3eca4503          	lbu	a0,1004(s4)
   19262:	c119                	beqz	a0,19268 <_start+0x25c6>
   19264:	7060106f          	j	1a96a <_start+0x3cc8>
   19268:	3eda4503          	lbu	a0,1005(s4)
   1926c:	3eea4583          	lbu	a1,1006(s4)
   19270:	3efa4603          	lbu	a2,1007(s4)
   19274:	3f0a2683          	lw	a3,1008(s4)
   19278:	3f4a2703          	lw	a4,1012(s4)
   1927c:	3f8a2783          	lw	a5,1016(s4)
   19280:	3fca2483          	lw	s1,1020(s4)
   19284:	400a2403          	lw	s0,1024(s4)
   19288:	38ea2823          	sw	a4,912(s4)
   1928c:	38fa2a23          	sw	a5,916(s4)
   19290:	389a2c23          	sw	s1,920(s4)
   19294:	388a2e23          	sw	s0,924(s4)
   19298:	404a2703          	lw	a4,1028(s4)
   1929c:	408a2783          	lw	a5,1032(s4)
   192a0:	40ca1483          	lh	s1,1036(s4)
   192a4:	05a2                	slli	a1,a1,0x8
   192a6:	3aea2023          	sw	a4,928(s4)
   192aa:	3afa2223          	sw	a5,932(s4)
   192ae:	3a9a1423          	sh	s1,936(s4)
   192b2:	0186d713          	srli	a4,a3,0x18
   192b6:	8d4d                	or	a0,a0,a1
   192b8:	0106d593          	srli	a1,a3,0x10
   192bc:	3cb90ca3          	sb	a1,985(s2)
   192c0:	3ce90d23          	sb	a4,986(s2)
   192c4:	0086d593          	srli	a1,a3,0x8
   192c8:	3ca91a23          	sh	a0,980(s2)
   192cc:	3cc90b23          	sb	a2,982(s2)
   192d0:	3cd90ba3          	sb	a3,983(s2)
   192d4:	3cb90c23          	sb	a1,984(s2)
   192d8:	7ff10513          	addi	a0,sp,2047
   192dc:	36a50513          	addi	a0,a0,874
   192e0:	6585                	lui	a1,0x1
   192e2:	32058593          	addi	a1,a1,800 # 1320 <.Lline_table_start1+0x10f5>
   192e6:	958a                	add	a1,a1,sp
   192e8:	4669                	li	a2,26
   192ea:	00002097          	auipc	ra,0x2
   192ee:	c88080e7          	jalr	-888(ra) # 1af72 <memcpy>
   192f2:	6505                	lui	a0,0x1
   192f4:	37c50513          	addi	a0,a0,892 # 137c <.Lline_table_start1+0x1151>
   192f8:	950a                	add	a0,a0,sp
   192fa:	7ff10593          	addi	a1,sp,2047
   192fe:	36358593          	addi	a1,a1,867
   19302:	ffffd097          	auipc	ra,0xffffd
   19306:	a02080e7          	jalr	-1534(ra) # 15d04 <_ZN20complex_full_dynamic3app17hd92f27b0fdb056b3E>
   1930a:	3eca4503          	lbu	a0,1004(s4)
   1930e:	c119                	beqz	a0,19314 <_start+0x2672>
   19310:	65a0106f          	j	1a96a <_start+0x3cc8>
   19314:	3eea4503          	lbu	a0,1006(s4)
   19318:	3eda4583          	lbu	a1,1005(s4)
   1931c:	3efa4603          	lbu	a2,1007(s4)
   19320:	3f0a2403          	lw	s0,1008(s4)
   19324:	0522                	slli	a0,a0,0x8
   19326:	8d4d                	or	a0,a0,a1
   19328:	3ea91b23          	sh	a0,1014(s2)
   1932c:	3ec90c23          	sb	a2,1016(s2)
   19330:	6505                	lui	a0,0x1
   19332:	38450513          	addi	a0,a0,900 # 1384 <.Lline_table_start1+0x1159>
   19336:	00a105b3          	add	a1,sp,a0
   1933a:	6505                	lui	a0,0x1
   1933c:	32050513          	addi	a0,a0,800 # 1320 <.Lline_table_start1+0x10f5>
   19340:	950a                	add	a0,a0,sp
   19342:	02300613          	li	a2,35
   19346:	00002097          	auipc	ra,0x2
   1934a:	c2c080e7          	jalr	-980(ra) # 1af72 <memcpy>
   1934e:	01845513          	srli	a0,s0,0x18
   19352:	01045593          	srli	a1,s0,0x10
   19356:	00845613          	srli	a2,s0,0x8
   1935a:	3e890ca3          	sb	s0,1017(s2)
   1935e:	3ec90d23          	sb	a2,1018(s2)
   19362:	3eb90da3          	sb	a1,1019(s2)
   19366:	3ea90e23          	sb	a0,1020(s2)
   1936a:	7ff10513          	addi	a0,sp,2047
   1936e:	38c50513          	addi	a0,a0,908
   19372:	6585                	lui	a1,0x1
   19374:	32058593          	addi	a1,a1,800 # 1320 <.Lline_table_start1+0x10f5>
   19378:	958a                	add	a1,a1,sp
   1937a:	02300613          	li	a2,35
   1937e:	00002097          	auipc	ra,0x2
   19382:	bf4080e7          	jalr	-1036(ra) # 1af72 <memcpy>
   19386:	6505                	lui	a0,0x1
   19388:	37c50513          	addi	a0,a0,892 # 137c <.Lline_table_start1+0x1151>
   1938c:	950a                	add	a0,a0,sp
   1938e:	7ff10593          	addi	a1,sp,2047
   19392:	38558593          	addi	a1,a1,901
   19396:	ffffc097          	auipc	ra,0xffffc
   1939a:	2a2080e7          	jalr	674(ra) # 15638 <_ZN20complex_full_dynamic3app17hcac46308f9ee0341E>
   1939e:	3eca4503          	lbu	a0,1004(s4)
   193a2:	c119                	beqz	a0,193a8 <_start+0x2706>
   193a4:	5c60106f          	j	1a96a <_start+0x3cc8>
   193a8:	3eea4503          	lbu	a0,1006(s4)
   193ac:	3eda4583          	lbu	a1,1005(s4)
   193b0:	3efa4603          	lbu	a2,1007(s4)
   193b4:	3f0a2403          	lw	s0,1008(s4)
   193b8:	0522                	slli	a0,a0,0x8
   193ba:	8d4d                	or	a0,a0,a1
   193bc:	42a91023          	sh	a0,1056(s2)
   193c0:	42c90123          	sb	a2,1058(s2)
   193c4:	6505                	lui	a0,0x1
   193c6:	38450513          	addi	a0,a0,900 # 1384 <.Lline_table_start1+0x1159>
   193ca:	00a105b3          	add	a1,sp,a0
   193ce:	6505                	lui	a0,0x1
   193d0:	32050513          	addi	a0,a0,800 # 1320 <.Lline_table_start1+0x10f5>
   193d4:	950a                	add	a0,a0,sp
   193d6:	05200613          	li	a2,82
   193da:	00002097          	auipc	ra,0x2
   193de:	b98080e7          	jalr	-1128(ra) # 1af72 <memcpy>
   193e2:	01845513          	srli	a0,s0,0x18
   193e6:	01045593          	srli	a1,s0,0x10
   193ea:	00845613          	srli	a2,s0,0x8
   193ee:	428901a3          	sb	s0,1059(s2)
   193f2:	42c90223          	sb	a2,1060(s2)
   193f6:	42b902a3          	sb	a1,1061(s2)
   193fa:	42a90323          	sb	a0,1062(s2)
   193fe:	7ff10513          	addi	a0,sp,2047
   19402:	3b650513          	addi	a0,a0,950
   19406:	6585                	lui	a1,0x1
   19408:	32058593          	addi	a1,a1,800 # 1320 <.Lline_table_start1+0x10f5>
   1940c:	958a                	add	a1,a1,sp
   1940e:	05200613          	li	a2,82
   19412:	00002097          	auipc	ra,0x2
   19416:	b60080e7          	jalr	-1184(ra) # 1af72 <memcpy>
   1941a:	6505                	lui	a0,0x1
   1941c:	37c50513          	addi	a0,a0,892 # 137c <.Lline_table_start1+0x1151>
   19420:	950a                	add	a0,a0,sp
   19422:	7ff10593          	addi	a1,sp,2047
   19426:	3af58593          	addi	a1,a1,943
   1942a:	ffffb097          	auipc	ra,0xffffb
   1942e:	45c080e7          	jalr	1116(ra) # 14886 <_ZN20complex_full_dynamic3app17ha654b96a764fa51dE>
   19432:	3eca4503          	lbu	a0,1004(s4)
   19436:	c119                	beqz	a0,1943c <_start+0x279a>
   19438:	5320106f          	j	1a96a <_start+0x3cc8>
   1943c:	3eea4503          	lbu	a0,1006(s4)
   19440:	3eda4583          	lbu	a1,1005(s4)
   19444:	3efa4603          	lbu	a2,1007(s4)
   19448:	3f0a2403          	lw	s0,1008(s4)
   1944c:	0522                	slli	a0,a0,0x8
   1944e:	8d4d                	or	a0,a0,a1
   19450:	46a91d23          	sh	a0,1146(s2)
   19454:	46c90e23          	sb	a2,1148(s2)
   19458:	6505                	lui	a0,0x1
   1945a:	38450513          	addi	a0,a0,900 # 1384 <.Lline_table_start1+0x1159>
   1945e:	00a105b3          	add	a1,sp,a0
   19462:	6505                	lui	a0,0x1
   19464:	32050513          	addi	a0,a0,800 # 1320 <.Lline_table_start1+0x10f5>
   19468:	950a                	add	a0,a0,sp
   1946a:	04300613          	li	a2,67
   1946e:	00002097          	auipc	ra,0x2
   19472:	b04080e7          	jalr	-1276(ra) # 1af72 <memcpy>
   19476:	01845513          	srli	a0,s0,0x18
   1947a:	01045593          	srli	a1,s0,0x10
   1947e:	00845613          	srli	a2,s0,0x8
   19482:	46890ea3          	sb	s0,1149(s2)
   19486:	46c90f23          	sb	a2,1150(s2)
   1948a:	46b90fa3          	sb	a1,1151(s2)
   1948e:	48a90023          	sb	a0,1152(s2)
   19492:	7ff10513          	addi	a0,sp,2047
   19496:	41050513          	addi	a0,a0,1040
   1949a:	6585                	lui	a1,0x1
   1949c:	32058593          	addi	a1,a1,800 # 1320 <.Lline_table_start1+0x10f5>
   194a0:	958a                	add	a1,a1,sp
   194a2:	04300613          	li	a2,67
   194a6:	00002097          	auipc	ra,0x2
   194aa:	acc080e7          	jalr	-1332(ra) # 1af72 <memcpy>
   194ae:	6505                	lui	a0,0x1
   194b0:	37c50513          	addi	a0,a0,892 # 137c <.Lline_table_start1+0x1151>
   194b4:	950a                	add	a0,a0,sp
   194b6:	7ff10593          	addi	a1,sp,2047
   194ba:	40958593          	addi	a1,a1,1033
   194be:	ffffa097          	auipc	ra,0xffffa
   194c2:	726080e7          	jalr	1830(ra) # 13be4 <_ZN20complex_full_dynamic3app17h80c0191d200fb102E>
   194c6:	3eca4503          	lbu	a0,1004(s4)
   194ca:	c119                	beqz	a0,194d0 <_start+0x282e>
   194cc:	49e0106f          	j	1a96a <_start+0x3cc8>
   194d0:	3eea4503          	lbu	a0,1006(s4)
   194d4:	3eda4583          	lbu	a1,1005(s4)
   194d8:	3efa4603          	lbu	a2,1007(s4)
   194dc:	3f0a2403          	lw	s0,1008(s4)
   194e0:	0522                	slli	a0,a0,0x8
   194e2:	8d4d                	or	a0,a0,a1
   194e4:	4ca91223          	sh	a0,1220(s2)
   194e8:	4cc90323          	sb	a2,1222(s2)
   194ec:	6505                	lui	a0,0x1
   194ee:	38450513          	addi	a0,a0,900 # 1384 <.Lline_table_start1+0x1159>
   194f2:	00a105b3          	add	a1,sp,a0
   194f6:	6505                	lui	a0,0x1
   194f8:	32050513          	addi	a0,a0,800 # 1320 <.Lline_table_start1+0x10f5>
   194fc:	950a                	add	a0,a0,sp
   194fe:	02600613          	li	a2,38
   19502:	00002097          	auipc	ra,0x2
   19506:	a70080e7          	jalr	-1424(ra) # 1af72 <memcpy>
   1950a:	01845513          	srli	a0,s0,0x18
   1950e:	01045593          	srli	a1,s0,0x10
   19512:	00845613          	srli	a2,s0,0x8
   19516:	4c8903a3          	sb	s0,1223(s2)
   1951a:	4cc90423          	sb	a2,1224(s2)
   1951e:	4cb904a3          	sb	a1,1225(s2)
   19522:	4ca90523          	sb	a0,1226(s2)
   19526:	7ff10513          	addi	a0,sp,2047
   1952a:	45a50513          	addi	a0,a0,1114
   1952e:	6585                	lui	a1,0x1
   19530:	32058593          	addi	a1,a1,800 # 1320 <.Lline_table_start1+0x10f5>
   19534:	958a                	add	a1,a1,sp
   19536:	02600613          	li	a2,38
   1953a:	00002097          	auipc	ra,0x2
   1953e:	a38080e7          	jalr	-1480(ra) # 1af72 <memcpy>
   19542:	6505                	lui	a0,0x1
   19544:	37c50513          	addi	a0,a0,892 # 137c <.Lline_table_start1+0x1151>
   19548:	950a                	add	a0,a0,sp
   1954a:	7ff10593          	addi	a1,sp,2047
   1954e:	45358593          	addi	a1,a1,1107
   19552:	ffff8097          	auipc	ra,0xffff8
   19556:	cd4080e7          	jalr	-812(ra) # 11226 <_ZN20complex_full_dynamic3app17h0638337d2fac37c0E>
   1955a:	3eca4503          	lbu	a0,1004(s4)
   1955e:	c119                	beqz	a0,19564 <_start+0x28c2>
   19560:	40a0106f          	j	1a96a <_start+0x3cc8>
   19564:	3eea4503          	lbu	a0,1006(s4)
   19568:	3eda4583          	lbu	a1,1005(s4)
   1956c:	3efa4603          	lbu	a2,1007(s4)
   19570:	3f0a2403          	lw	s0,1008(s4)
   19574:	0522                	slli	a0,a0,0x8
   19576:	8d4d                	or	a0,a0,a1
   19578:	4ea91923          	sh	a0,1266(s2)
   1957c:	4ec90a23          	sb	a2,1268(s2)
   19580:	6505                	lui	a0,0x1
   19582:	38450513          	addi	a0,a0,900 # 1384 <.Lline_table_start1+0x1159>
   19586:	00a105b3          	add	a1,sp,a0
   1958a:	6505                	lui	a0,0x1
   1958c:	32050513          	addi	a0,a0,800 # 1320 <.Lline_table_start1+0x10f5>
   19590:	950a                	add	a0,a0,sp
   19592:	04c00613          	li	a2,76
   19596:	00002097          	auipc	ra,0x2
   1959a:	9dc080e7          	jalr	-1572(ra) # 1af72 <memcpy>
   1959e:	01845513          	srli	a0,s0,0x18
   195a2:	01045593          	srli	a1,s0,0x10
   195a6:	00845613          	srli	a2,s0,0x8
   195aa:	4e890aa3          	sb	s0,1269(s2)
   195ae:	4ec90b23          	sb	a2,1270(s2)
   195b2:	4eb90ba3          	sb	a1,1271(s2)
   195b6:	4ea90c23          	sb	a0,1272(s2)
   195ba:	7ff10513          	addi	a0,sp,2047
   195be:	48850513          	addi	a0,a0,1160
   195c2:	6585                	lui	a1,0x1
   195c4:	32058593          	addi	a1,a1,800 # 1320 <.Lline_table_start1+0x10f5>
   195c8:	958a                	add	a1,a1,sp
   195ca:	04c00613          	li	a2,76
   195ce:	00002097          	auipc	ra,0x2
   195d2:	9a4080e7          	jalr	-1628(ra) # 1af72 <memcpy>
   195d6:	6505                	lui	a0,0x1
   195d8:	37c50513          	addi	a0,a0,892 # 137c <.Lline_table_start1+0x1151>
   195dc:	950a                	add	a0,a0,sp
   195de:	7ff10593          	addi	a1,sp,2047
   195e2:	48158593          	addi	a1,a1,1153
   195e6:	ffffa097          	auipc	ra,0xffffa
   195ea:	962080e7          	jalr	-1694(ra) # 12f48 <_ZN20complex_full_dynamic3app17h662a368a22b275eeE>
   195ee:	3eca4503          	lbu	a0,1004(s4)
   195f2:	c119                	beqz	a0,195f8 <_start+0x2956>
   195f4:	3760106f          	j	1a96a <_start+0x3cc8>
   195f8:	3eea4503          	lbu	a0,1006(s4)
   195fc:	3eda4583          	lbu	a1,1005(s4)
   19600:	3efa4603          	lbu	a2,1007(s4)
   19604:	3f0a2403          	lw	s0,1008(s4)
   19608:	0522                	slli	a0,a0,0x8
   1960a:	8d4d                	or	a0,a0,a1
   1960c:	54a91323          	sh	a0,1350(s2)
   19610:	54c90423          	sb	a2,1352(s2)
   19614:	6505                	lui	a0,0x1
   19616:	38450513          	addi	a0,a0,900 # 1384 <.Lline_table_start1+0x1159>
   1961a:	00a105b3          	add	a1,sp,a0
   1961e:	6505                	lui	a0,0x1
   19620:	32050513          	addi	a0,a0,800 # 1320 <.Lline_table_start1+0x10f5>
   19624:	950a                	add	a0,a0,sp
   19626:	03300613          	li	a2,51
   1962a:	00002097          	auipc	ra,0x2
   1962e:	948080e7          	jalr	-1720(ra) # 1af72 <memcpy>
   19632:	01845513          	srli	a0,s0,0x18
   19636:	01045593          	srli	a1,s0,0x10
   1963a:	00845613          	srli	a2,s0,0x8
   1963e:	548904a3          	sb	s0,1353(s2)
   19642:	54c90523          	sb	a2,1354(s2)
   19646:	54b905a3          	sb	a1,1355(s2)
   1964a:	54a90623          	sb	a0,1356(s2)
   1964e:	7ff10513          	addi	a0,sp,2047
   19652:	4dc50513          	addi	a0,a0,1244
   19656:	6585                	lui	a1,0x1
   19658:	32058593          	addi	a1,a1,800 # 1320 <.Lline_table_start1+0x10f5>
   1965c:	958a                	add	a1,a1,sp
   1965e:	03300613          	li	a2,51
   19662:	00002097          	auipc	ra,0x2
   19666:	910080e7          	jalr	-1776(ra) # 1af72 <memcpy>
   1966a:	6505                	lui	a0,0x1
   1966c:	37c50513          	addi	a0,a0,892 # 137c <.Lline_table_start1+0x1151>
   19670:	950a                	add	a0,a0,sp
   19672:	7ff10593          	addi	a1,sp,2047
   19676:	4d558593          	addi	a1,a1,1237
   1967a:	ffffa097          	auipc	ra,0xffffa
   1967e:	470080e7          	jalr	1136(ra) # 13aea <_ZN20complex_full_dynamic3app17h7d12ed26c64c76ccE>
   19682:	3eca4503          	lbu	a0,1004(s4)
   19686:	c119                	beqz	a0,1968c <_start+0x29ea>
   19688:	2e20106f          	j	1a96a <_start+0x3cc8>
   1968c:	3eea4503          	lbu	a0,1006(s4)
   19690:	3eda4583          	lbu	a1,1005(s4)
   19694:	3efa4603          	lbu	a2,1007(s4)
   19698:	3f0a2403          	lw	s0,1008(s4)
   1969c:	0522                	slli	a0,a0,0x8
   1969e:	8d4d                	or	a0,a0,a1
   196a0:	58a91023          	sh	a0,1408(s2)
   196a4:	58c90123          	sb	a2,1410(s2)
   196a8:	6505                	lui	a0,0x1
   196aa:	38450513          	addi	a0,a0,900 # 1384 <.Lline_table_start1+0x1159>
   196ae:	00a105b3          	add	a1,sp,a0
   196b2:	6505                	lui	a0,0x1
   196b4:	32050513          	addi	a0,a0,800 # 1320 <.Lline_table_start1+0x10f5>
   196b8:	950a                	add	a0,a0,sp
   196ba:	05600613          	li	a2,86
   196be:	00002097          	auipc	ra,0x2
   196c2:	8b4080e7          	jalr	-1868(ra) # 1af72 <memcpy>
   196c6:	01845513          	srli	a0,s0,0x18
   196ca:	01045593          	srli	a1,s0,0x10
   196ce:	00845613          	srli	a2,s0,0x8
   196d2:	588901a3          	sb	s0,1411(s2)
   196d6:	58c90223          	sb	a2,1412(s2)
   196da:	58b902a3          	sb	a1,1413(s2)
   196de:	58a90323          	sb	a0,1414(s2)
   196e2:	7ff10513          	addi	a0,sp,2047
   196e6:	51650513          	addi	a0,a0,1302
   196ea:	6585                	lui	a1,0x1
   196ec:	32058593          	addi	a1,a1,800 # 1320 <.Lline_table_start1+0x10f5>
   196f0:	958a                	add	a1,a1,sp
   196f2:	05600613          	li	a2,86
   196f6:	00002097          	auipc	ra,0x2
   196fa:	87c080e7          	jalr	-1924(ra) # 1af72 <memcpy>
   196fe:	6505                	lui	a0,0x1
   19700:	37c50513          	addi	a0,a0,892 # 137c <.Lline_table_start1+0x1151>
   19704:	950a                	add	a0,a0,sp
   19706:	7ff10593          	addi	a1,sp,2047
   1970a:	50f58593          	addi	a1,a1,1295
   1970e:	ffffb097          	auipc	ra,0xffffb
   19712:	e8e080e7          	jalr	-370(ra) # 1459c <_ZN20complex_full_dynamic3app17h949722f68114d2a4E>
   19716:	3eca4503          	lbu	a0,1004(s4)
   1971a:	c119                	beqz	a0,19720 <_start+0x2a7e>
   1971c:	24e0106f          	j	1a96a <_start+0x3cc8>
   19720:	3eea4503          	lbu	a0,1006(s4)
   19724:	3eda4583          	lbu	a1,1005(s4)
   19728:	3efa4603          	lbu	a2,1007(s4)
   1972c:	3f0a2403          	lw	s0,1008(s4)
   19730:	0522                	slli	a0,a0,0x8
   19732:	8d4d                	or	a0,a0,a1
   19734:	5ca91f23          	sh	a0,1502(s2)
   19738:	5ec90023          	sb	a2,1504(s2)
   1973c:	6505                	lui	a0,0x1
   1973e:	38450513          	addi	a0,a0,900 # 1384 <.Lline_table_start1+0x1159>
   19742:	00a105b3          	add	a1,sp,a0
   19746:	6505                	lui	a0,0x1
   19748:	32050513          	addi	a0,a0,800 # 1320 <.Lline_table_start1+0x10f5>
   1974c:	950a                	add	a0,a0,sp
   1974e:	03900613          	li	a2,57
   19752:	00002097          	auipc	ra,0x2
   19756:	820080e7          	jalr	-2016(ra) # 1af72 <memcpy>
   1975a:	01845513          	srli	a0,s0,0x18
   1975e:	01045593          	srli	a1,s0,0x10
   19762:	00845613          	srli	a2,s0,0x8
   19766:	5e8900a3          	sb	s0,1505(s2)
   1976a:	5ec90123          	sb	a2,1506(s2)
   1976e:	5eb901a3          	sb	a1,1507(s2)
   19772:	5ea90223          	sb	a0,1508(s2)
   19776:	7ff10513          	addi	a0,sp,2047
   1977a:	57450513          	addi	a0,a0,1396
   1977e:	6585                	lui	a1,0x1
   19780:	32058593          	addi	a1,a1,800 # 1320 <.Lline_table_start1+0x10f5>
   19784:	958a                	add	a1,a1,sp
   19786:	03900613          	li	a2,57
   1978a:	00001097          	auipc	ra,0x1
   1978e:	7e8080e7          	jalr	2024(ra) # 1af72 <memcpy>
   19792:	6505                	lui	a0,0x1
   19794:	37c50513          	addi	a0,a0,892 # 137c <.Lline_table_start1+0x1151>
   19798:	950a                	add	a0,a0,sp
   1979a:	7ff10593          	addi	a1,sp,2047
   1979e:	56d58593          	addi	a1,a1,1389
   197a2:	ffffd097          	auipc	ra,0xffffd
   197a6:	110080e7          	jalr	272(ra) # 168b2 <_ZN20complex_full_dynamic3app17hf9815b447b76bc72E>
   197aa:	3eca4503          	lbu	a0,1004(s4)
   197ae:	c119                	beqz	a0,197b4 <_start+0x2b12>
   197b0:	1ba0106f          	j	1a96a <_start+0x3cc8>
   197b4:	3eea4503          	lbu	a0,1006(s4)
   197b8:	3eda4583          	lbu	a1,1005(s4)
   197bc:	3efa4603          	lbu	a2,1007(s4)
   197c0:	3f0a2403          	lw	s0,1008(s4)
   197c4:	0522                	slli	a0,a0,0x8
   197c6:	8d4d                	or	a0,a0,a1
   197c8:	60a91f23          	sh	a0,1566(s2)
   197cc:	62c90023          	sb	a2,1568(s2)
   197d0:	6505                	lui	a0,0x1
   197d2:	38450513          	addi	a0,a0,900 # 1384 <.Lline_table_start1+0x1159>
   197d6:	00a105b3          	add	a1,sp,a0
   197da:	6505                	lui	a0,0x1
   197dc:	32050513          	addi	a0,a0,800 # 1320 <.Lline_table_start1+0x10f5>
   197e0:	950a                	add	a0,a0,sp
   197e2:	02a00613          	li	a2,42
   197e6:	00001097          	auipc	ra,0x1
   197ea:	78c080e7          	jalr	1932(ra) # 1af72 <memcpy>
   197ee:	01845513          	srli	a0,s0,0x18
   197f2:	01045593          	srli	a1,s0,0x10
   197f6:	00845613          	srli	a2,s0,0x8
   197fa:	628900a3          	sb	s0,1569(s2)
   197fe:	62c90123          	sb	a2,1570(s2)
   19802:	62b901a3          	sb	a1,1571(s2)
   19806:	62a90223          	sb	a0,1572(s2)
   1980a:	7ff10513          	addi	a0,sp,2047
   1980e:	5b450513          	addi	a0,a0,1460
   19812:	6585                	lui	a1,0x1
   19814:	32058593          	addi	a1,a1,800 # 1320 <.Lline_table_start1+0x10f5>
   19818:	958a                	add	a1,a1,sp
   1981a:	02a00613          	li	a2,42
   1981e:	00001097          	auipc	ra,0x1
   19822:	754080e7          	jalr	1876(ra) # 1af72 <memcpy>
   19826:	6505                	lui	a0,0x1
   19828:	37c50513          	addi	a0,a0,892 # 137c <.Lline_table_start1+0x1151>
   1982c:	950a                	add	a0,a0,sp
   1982e:	7ff10593          	addi	a1,sp,2047
   19832:	5ad58593          	addi	a1,a1,1453
   19836:	ffffb097          	auipc	ra,0xffffb
   1983a:	246080e7          	jalr	582(ra) # 14a7c <_ZN20complex_full_dynamic3app17hae927e1beab91e40E>
   1983e:	3eca4503          	lbu	a0,1004(s4)
   19842:	c119                	beqz	a0,19848 <_start+0x2ba6>
   19844:	1260106f          	j	1a96a <_start+0x3cc8>
   19848:	3eea4503          	lbu	a0,1006(s4)
   1984c:	3eda4583          	lbu	a1,1005(s4)
   19850:	3efa4603          	lbu	a2,1007(s4)
   19854:	3f0a2403          	lw	s0,1008(s4)
   19858:	0522                	slli	a0,a0,0x8
   1985a:	8d4d                	or	a0,a0,a1
   1985c:	64a91823          	sh	a0,1616(s2)
   19860:	64c90923          	sb	a2,1618(s2)
   19864:	6505                	lui	a0,0x1
   19866:	38450513          	addi	a0,a0,900 # 1384 <.Lline_table_start1+0x1159>
   1986a:	00a105b3          	add	a1,sp,a0
   1986e:	6505                	lui	a0,0x1
   19870:	32050513          	addi	a0,a0,800 # 1320 <.Lline_table_start1+0x10f5>
   19874:	950a                	add	a0,a0,sp
   19876:	04100613          	li	a2,65
   1987a:	00001097          	auipc	ra,0x1
   1987e:	6f8080e7          	jalr	1784(ra) # 1af72 <memcpy>
   19882:	01845513          	srli	a0,s0,0x18
   19886:	01045593          	srli	a1,s0,0x10
   1988a:	00845613          	srli	a2,s0,0x8
   1988e:	648909a3          	sb	s0,1619(s2)
   19892:	64c90a23          	sb	a2,1620(s2)
   19896:	64b90aa3          	sb	a1,1621(s2)
   1989a:	64a90b23          	sb	a0,1622(s2)
   1989e:	7ff10513          	addi	a0,sp,2047
   198a2:	5e650513          	addi	a0,a0,1510
   198a6:	6585                	lui	a1,0x1
   198a8:	32058593          	addi	a1,a1,800 # 1320 <.Lline_table_start1+0x10f5>
   198ac:	958a                	add	a1,a1,sp
   198ae:	04100613          	li	a2,65
   198b2:	00001097          	auipc	ra,0x1
   198b6:	6c0080e7          	jalr	1728(ra) # 1af72 <memcpy>
   198ba:	6505                	lui	a0,0x1
   198bc:	37c50513          	addi	a0,a0,892 # 137c <.Lline_table_start1+0x1151>
   198c0:	950a                	add	a0,a0,sp
   198c2:	7ff10593          	addi	a1,sp,2047
   198c6:	5df58593          	addi	a1,a1,1503
   198ca:	ffffd097          	auipc	ra,0xffffd
   198ce:	b02080e7          	jalr	-1278(ra) # 163cc <_ZN20complex_full_dynamic3app17heb2d9d80c393382bE>
   198d2:	3eca4503          	lbu	a0,1004(s4)
   198d6:	c119                	beqz	a0,198dc <_start+0x2c3a>
   198d8:	0920106f          	j	1a96a <_start+0x3cc8>
   198dc:	3eea4503          	lbu	a0,1006(s4)
   198e0:	3eda4583          	lbu	a1,1005(s4)
   198e4:	3efa4603          	lbu	a2,1007(s4)
   198e8:	3f0a2403          	lw	s0,1008(s4)
   198ec:	0522                	slli	a0,a0,0x8
   198ee:	8d4d                	or	a0,a0,a1
   198f0:	68a91c23          	sh	a0,1688(s2)
   198f4:	68c90d23          	sb	a2,1690(s2)
   198f8:	6505                	lui	a0,0x1
   198fa:	38450513          	addi	a0,a0,900 # 1384 <.Lline_table_start1+0x1159>
   198fe:	00a105b3          	add	a1,sp,a0
   19902:	6505                	lui	a0,0x1
   19904:	32050513          	addi	a0,a0,800 # 1320 <.Lline_table_start1+0x10f5>
   19908:	950a                	add	a0,a0,sp
   1990a:	02200613          	li	a2,34
   1990e:	00001097          	auipc	ra,0x1
   19912:	664080e7          	jalr	1636(ra) # 1af72 <memcpy>
   19916:	01845513          	srli	a0,s0,0x18
   1991a:	01045593          	srli	a1,s0,0x10
   1991e:	00845613          	srli	a2,s0,0x8
   19922:	68890da3          	sb	s0,1691(s2)
   19926:	68c90e23          	sb	a2,1692(s2)
   1992a:	68b90ea3          	sb	a1,1693(s2)
   1992e:	68a90f23          	sb	a0,1694(s2)
   19932:	7ff10513          	addi	a0,sp,2047
   19936:	62e50513          	addi	a0,a0,1582
   1993a:	6585                	lui	a1,0x1
   1993c:	32058593          	addi	a1,a1,800 # 1320 <.Lline_table_start1+0x10f5>
   19940:	958a                	add	a1,a1,sp
   19942:	02200613          	li	a2,34
   19946:	00001097          	auipc	ra,0x1
   1994a:	62c080e7          	jalr	1580(ra) # 1af72 <memcpy>
   1994e:	6505                	lui	a0,0x1
   19950:	37c50513          	addi	a0,a0,892 # 137c <.Lline_table_start1+0x1151>
   19954:	950a                	add	a0,a0,sp
   19956:	7ff10593          	addi	a1,sp,2047
   1995a:	62758593          	addi	a1,a1,1575
   1995e:	ffffc097          	auipc	ra,0xffffc
   19962:	4a0080e7          	jalr	1184(ra) # 15dfe <_ZN20complex_full_dynamic3app17hdbd4f845757e883cE>
   19966:	3eca4503          	lbu	a0,1004(s4)
   1996a:	c119                	beqz	a0,19970 <_start+0x2cce>
   1996c:	7ff0006f          	j	1a96a <_start+0x3cc8>
   19970:	3eda4503          	lbu	a0,1005(s4)
   19974:	3eea4583          	lbu	a1,1006(s4)
   19978:	3f4a2603          	lw	a2,1012(s4)
   1997c:	3f8a2683          	lw	a3,1016(s4)
   19980:	3fca2703          	lw	a4,1020(s4)
   19984:	400a2783          	lw	a5,1024(s4)
   19988:	404a1483          	lh	s1,1028(s4)
   1998c:	406a4403          	lbu	s0,1030(s4)
   19990:	38ca2823          	sw	a2,912(s4)
   19994:	38da2a23          	sw	a3,916(s4)
   19998:	38ea2c23          	sw	a4,920(s4)
   1999c:	38fa2e23          	sw	a5,924(s4)
   199a0:	3efa4603          	lbu	a2,1007(s4)
   199a4:	3f0a2683          	lw	a3,1008(s4)
   199a8:	05a2                	slli	a1,a1,0x8
   199aa:	3a9a1023          	sh	s1,928(s4)
   199ae:	3a8a0123          	sb	s0,930(s4)
   199b2:	0186d713          	srli	a4,a3,0x18
   199b6:	8d4d                	or	a0,a0,a1
   199b8:	0106d593          	srli	a1,a3,0x10
   199bc:	6cb903a3          	sb	a1,1735(s2)
   199c0:	6ce90423          	sb	a4,1736(s2)
   199c4:	0086d593          	srli	a1,a3,0x8
   199c8:	6ca91123          	sh	a0,1730(s2)
   199cc:	6cc90223          	sb	a2,1732(s2)
   199d0:	6cd902a3          	sb	a3,1733(s2)
   199d4:	6cb90323          	sb	a1,1734(s2)
   199d8:	7ff10513          	addi	a0,sp,2047
   199dc:	65850513          	addi	a0,a0,1624
   199e0:	6585                	lui	a1,0x1
   199e2:	32058593          	addi	a1,a1,800 # 1320 <.Lline_table_start1+0x10f5>
   199e6:	958a                	add	a1,a1,sp
   199e8:	464d                	li	a2,19
   199ea:	00001097          	auipc	ra,0x1
   199ee:	588080e7          	jalr	1416(ra) # 1af72 <memcpy>
   199f2:	6505                	lui	a0,0x1
   199f4:	37c50513          	addi	a0,a0,892 # 137c <.Lline_table_start1+0x1151>
   199f8:	950a                	add	a0,a0,sp
   199fa:	7ff10593          	addi	a1,sp,2047
   199fe:	65158593          	addi	a1,a1,1617
   19a02:	ffffd097          	auipc	ra,0xffffd
   19a06:	8d2080e7          	jalr	-1838(ra) # 162d4 <_ZN20complex_full_dynamic3app17he9afd536c594dc66E>
   19a0a:	3eca4503          	lbu	a0,1004(s4)
   19a0e:	74051ee3          	bnez	a0,1a96a <_start+0x3cc8>
   19a12:	3eda4503          	lbu	a0,1005(s4)
   19a16:	3eea4583          	lbu	a1,1006(s4)
   19a1a:	3efa4803          	lbu	a6,1007(s4)
   19a1e:	3f0a2683          	lw	a3,1008(s4)
   19a22:	3f4a2703          	lw	a4,1012(s4)
   19a26:	3f8a2783          	lw	a5,1016(s4)
   19a2a:	3fca2483          	lw	s1,1020(s4)
   19a2e:	400a2403          	lw	s0,1024(s4)
   19a32:	404a2603          	lw	a2,1028(s4)
   19a36:	38ea2823          	sw	a4,912(s4)
   19a3a:	38fa2a23          	sw	a5,916(s4)
   19a3e:	389a2c23          	sw	s1,920(s4)
   19a42:	388a2e23          	sw	s0,924(s4)
   19a46:	05a2                	slli	a1,a1,0x8
   19a48:	3aca2023          	sw	a2,928(s4)
   19a4c:	0186d613          	srli	a2,a3,0x18
   19a50:	8d4d                	or	a0,a0,a1
   19a52:	0106d593          	srli	a1,a3,0x10
   19a56:	6eb900a3          	sb	a1,1761(s2)
   19a5a:	6ec90123          	sb	a2,1762(s2)
   19a5e:	0086d593          	srli	a1,a3,0x8
   19a62:	6ca91e23          	sh	a0,1756(s2)
   19a66:	6d090f23          	sb	a6,1758(s2)
   19a6a:	6cd90fa3          	sb	a3,1759(s2)
   19a6e:	6eb90023          	sb	a1,1760(s2)
   19a72:	7ff10513          	addi	a0,sp,2047
   19a76:	67250513          	addi	a0,a0,1650
   19a7a:	6585                	lui	a1,0x1
   19a7c:	32058593          	addi	a1,a1,800 # 1320 <.Lline_table_start1+0x10f5>
   19a80:	958a                	add	a1,a1,sp
   19a82:	4651                	li	a2,20
   19a84:	00001097          	auipc	ra,0x1
   19a88:	4ee080e7          	jalr	1262(ra) # 1af72 <memcpy>
   19a8c:	6505                	lui	a0,0x1
   19a8e:	37c50513          	addi	a0,a0,892 # 137c <.Lline_table_start1+0x1151>
   19a92:	950a                	add	a0,a0,sp
   19a94:	7ff10593          	addi	a1,sp,2047
   19a98:	66b58593          	addi	a1,a1,1643
   19a9c:	ffffb097          	auipc	ra,0xffffb
   19aa0:	1d4080e7          	jalr	468(ra) # 14c70 <_ZN20complex_full_dynamic3app17hb39bd325e65a7745E>
   19aa4:	3eca4503          	lbu	a0,1004(s4)
   19aa8:	6c0511e3          	bnez	a0,1a96a <_start+0x3cc8>
   19aac:	3eea4503          	lbu	a0,1006(s4)
   19ab0:	3eda4583          	lbu	a1,1005(s4)
   19ab4:	3efa4603          	lbu	a2,1007(s4)
   19ab8:	3f0a2403          	lw	s0,1008(s4)
   19abc:	0522                	slli	a0,a0,0x8
   19abe:	8d4d                	or	a0,a0,a1
   19ac0:	6ea91c23          	sh	a0,1784(s2)
   19ac4:	6ec90d23          	sb	a2,1786(s2)
   19ac8:	6505                	lui	a0,0x1
   19aca:	38450513          	addi	a0,a0,900 # 1384 <.Lline_table_start1+0x1159>
   19ace:	00a105b3          	add	a1,sp,a0
   19ad2:	6505                	lui	a0,0x1
   19ad4:	32050513          	addi	a0,a0,800 # 1320 <.Lline_table_start1+0x10f5>
   19ad8:	950a                	add	a0,a0,sp
   19ada:	03a00613          	li	a2,58
   19ade:	00001097          	auipc	ra,0x1
   19ae2:	494080e7          	jalr	1172(ra) # 1af72 <memcpy>
   19ae6:	01845513          	srli	a0,s0,0x18
   19aea:	01045593          	srli	a1,s0,0x10
   19aee:	00845613          	srli	a2,s0,0x8
   19af2:	6e890da3          	sb	s0,1787(s2)
   19af6:	6ec90e23          	sb	a2,1788(s2)
   19afa:	6eb90ea3          	sb	a1,1789(s2)
   19afe:	6ea90f23          	sb	a0,1790(s2)
   19b02:	7ff10513          	addi	a0,sp,2047
   19b06:	68e50513          	addi	a0,a0,1678
   19b0a:	6585                	lui	a1,0x1
   19b0c:	32058593          	addi	a1,a1,800 # 1320 <.Lline_table_start1+0x10f5>
   19b10:	958a                	add	a1,a1,sp
   19b12:	03a00613          	li	a2,58
   19b16:	00001097          	auipc	ra,0x1
   19b1a:	45c080e7          	jalr	1116(ra) # 1af72 <memcpy>
   19b1e:	6505                	lui	a0,0x1
   19b20:	37c50513          	addi	a0,a0,892 # 137c <.Lline_table_start1+0x1151>
   19b24:	950a                	add	a0,a0,sp
   19b26:	7ff10593          	addi	a1,sp,2047
   19b2a:	68758593          	addi	a1,a1,1671
   19b2e:	ffffa097          	auipc	ra,0xffffa
   19b32:	804080e7          	jalr	-2044(ra) # 13332 <_ZN20complex_full_dynamic3app17h70e18d4c915a6d3eE>
   19b36:	3eca4503          	lbu	a0,1004(s4)
   19b3a:	620518e3          	bnez	a0,1a96a <_start+0x3cc8>
   19b3e:	3eda4503          	lbu	a0,1005(s4)
   19b42:	3eea4583          	lbu	a1,1006(s4)
   19b46:	3efa4803          	lbu	a6,1007(s4)
   19b4a:	3f0a2683          	lw	a3,1008(s4)
   19b4e:	3f4a2703          	lw	a4,1012(s4)
   19b52:	3f8a2783          	lw	a5,1016(s4)
   19b56:	3fca2483          	lw	s1,1020(s4)
   19b5a:	400a2403          	lw	s0,1024(s4)
   19b5e:	404a4603          	lbu	a2,1028(s4)
   19b62:	38ea2823          	sw	a4,912(s4)
   19b66:	38fa2a23          	sw	a5,916(s4)
   19b6a:	389a2c23          	sw	s1,920(s4)
   19b6e:	388a2e23          	sw	s0,924(s4)
   19b72:	05a2                	slli	a1,a1,0x8
   19b74:	3aca0023          	sb	a2,928(s4)
   19b78:	0186d613          	srli	a2,a3,0x18
   19b7c:	8d4d                	or	a0,a0,a1
   19b7e:	0106d593          	srli	a1,a3,0x10
   19b82:	72b90fa3          	sb	a1,1855(s2)
   19b86:	74c90023          	sb	a2,1856(s2)
   19b8a:	0086d593          	srli	a1,a3,0x8
   19b8e:	72a91d23          	sh	a0,1850(s2)
   19b92:	73090e23          	sb	a6,1852(s2)
   19b96:	72d90ea3          	sb	a3,1853(s2)
   19b9a:	72b90f23          	sb	a1,1854(s2)
   19b9e:	7ff10513          	addi	a0,sp,2047
   19ba2:	6d050513          	addi	a0,a0,1744
   19ba6:	6585                	lui	a1,0x1
   19ba8:	32058593          	addi	a1,a1,800 # 1320 <.Lline_table_start1+0x10f5>
   19bac:	958a                	add	a1,a1,sp
   19bae:	4645                	li	a2,17
   19bb0:	00001097          	auipc	ra,0x1
   19bb4:	3c2080e7          	jalr	962(ra) # 1af72 <memcpy>
   19bb8:	6505                	lui	a0,0x1
   19bba:	37c50513          	addi	a0,a0,892 # 137c <.Lline_table_start1+0x1151>
   19bbe:	950a                	add	a0,a0,sp
   19bc0:	7ff10593          	addi	a1,sp,2047
   19bc4:	6c958593          	addi	a1,a1,1737
   19bc8:	ffff9097          	auipc	ra,0xffff9
   19bcc:	674080e7          	jalr	1652(ra) # 1323c <_ZN20complex_full_dynamic3app17h6e0ae8db1084dd4dE>
   19bd0:	3eca4503          	lbu	a0,1004(s4)
   19bd4:	58051be3          	bnez	a0,1a96a <_start+0x3cc8>
   19bd8:	3eda4503          	lbu	a0,1005(s4)
   19bdc:	3eea4583          	lbu	a1,1006(s4)
   19be0:	3efa4603          	lbu	a2,1007(s4)
   19be4:	3f0a2683          	lw	a3,1008(s4)
   19be8:	3f4a2703          	lw	a4,1012(s4)
   19bec:	3f8a2783          	lw	a5,1016(s4)
   19bf0:	3fca2483          	lw	s1,1020(s4)
   19bf4:	400a2403          	lw	s0,1024(s4)
   19bf8:	38ea2823          	sw	a4,912(s4)
   19bfc:	38fa2a23          	sw	a5,916(s4)
   19c00:	389a2c23          	sw	s1,920(s4)
   19c04:	388a2e23          	sw	s0,924(s4)
   19c08:	404a2703          	lw	a4,1028(s4)
   19c0c:	408a1783          	lh	a5,1032(s4)
   19c10:	40aa4483          	lbu	s1,1034(s4)
   19c14:	05a2                	slli	a1,a1,0x8
   19c16:	3aea2023          	sw	a4,928(s4)
   19c1a:	3afa1223          	sh	a5,932(s4)
   19c1e:	3a9a0323          	sb	s1,934(s4)
   19c22:	0186d713          	srli	a4,a3,0x18
   19c26:	8d4d                	or	a0,a0,a1
   19c28:	0106d593          	srli	a1,a3,0x10
   19c2c:	74b90ba3          	sb	a1,1879(s2)
   19c30:	74e90c23          	sb	a4,1880(s2)
   19c34:	0086d593          	srli	a1,a3,0x8
   19c38:	74a91923          	sh	a0,1874(s2)
   19c3c:	74c90a23          	sb	a2,1876(s2)
   19c40:	74d90aa3          	sb	a3,1877(s2)
   19c44:	74b90b23          	sb	a1,1878(s2)
   19c48:	7ff10513          	addi	a0,sp,2047
   19c4c:	6e850513          	addi	a0,a0,1768
   19c50:	6585                	lui	a1,0x1
   19c52:	32058593          	addi	a1,a1,800 # 1320 <.Lline_table_start1+0x10f5>
   19c56:	958a                	add	a1,a1,sp
   19c58:	465d                	li	a2,23
   19c5a:	00001097          	auipc	ra,0x1
   19c5e:	318080e7          	jalr	792(ra) # 1af72 <memcpy>
   19c62:	6505                	lui	a0,0x1
   19c64:	37c50513          	addi	a0,a0,892 # 137c <.Lline_table_start1+0x1151>
   19c68:	950a                	add	a0,a0,sp
   19c6a:	7ff10593          	addi	a1,sp,2047
   19c6e:	6e158593          	addi	a1,a1,1761
   19c72:	ffffc097          	auipc	ra,0xffffc
   19c76:	ac0080e7          	jalr	-1344(ra) # 15732 <_ZN20complex_full_dynamic3app17hcbb60f95a0af9897E>
   19c7a:	3eca4503          	lbu	a0,1004(s4)
   19c7e:	4e0516e3          	bnez	a0,1a96a <_start+0x3cc8>
   19c82:	3eea4503          	lbu	a0,1006(s4)
   19c86:	3eda4583          	lbu	a1,1005(s4)
   19c8a:	3efa4603          	lbu	a2,1007(s4)
   19c8e:	3f0a2403          	lw	s0,1008(s4)
   19c92:	0522                	slli	a0,a0,0x8
   19c94:	8d4d                	or	a0,a0,a1
   19c96:	76a91823          	sh	a0,1904(s2)
   19c9a:	76c90923          	sb	a2,1906(s2)
   19c9e:	6505                	lui	a0,0x1
   19ca0:	38450513          	addi	a0,a0,900 # 1384 <.Lline_table_start1+0x1159>
   19ca4:	00a105b3          	add	a1,sp,a0
   19ca8:	6505                	lui	a0,0x1
   19caa:	32050513          	addi	a0,a0,800 # 1320 <.Lline_table_start1+0x10f5>
   19cae:	950a                	add	a0,a0,sp
   19cb0:	03500613          	li	a2,53
   19cb4:	00001097          	auipc	ra,0x1
   19cb8:	2be080e7          	jalr	702(ra) # 1af72 <memcpy>
   19cbc:	01845513          	srli	a0,s0,0x18
   19cc0:	01045593          	srli	a1,s0,0x10
   19cc4:	00845613          	srli	a2,s0,0x8
   19cc8:	768909a3          	sb	s0,1907(s2)
   19ccc:	76c90a23          	sb	a2,1908(s2)
   19cd0:	76b90aa3          	sb	a1,1909(s2)
   19cd4:	76a90b23          	sb	a0,1910(s2)
   19cd8:	7ff10513          	addi	a0,sp,2047
   19cdc:	70650513          	addi	a0,a0,1798
   19ce0:	6585                	lui	a1,0x1
   19ce2:	32058593          	addi	a1,a1,800 # 1320 <.Lline_table_start1+0x10f5>
   19ce6:	958a                	add	a1,a1,sp
   19ce8:	03500613          	li	a2,53
   19cec:	00001097          	auipc	ra,0x1
   19cf0:	286080e7          	jalr	646(ra) # 1af72 <memcpy>
   19cf4:	6505                	lui	a0,0x1
   19cf6:	37c50513          	addi	a0,a0,892 # 137c <.Lline_table_start1+0x1151>
   19cfa:	950a                	add	a0,a0,sp
   19cfc:	7ff10593          	addi	a1,sp,2047
   19d00:	6ff58593          	addi	a1,a1,1791
   19d04:	ffffc097          	auipc	ra,0xffffc
   19d08:	3e0080e7          	jalr	992(ra) # 160e4 <_ZN20complex_full_dynamic3app17he43da2a95339caaeE>
   19d0c:	3eca4503          	lbu	a0,1004(s4)
   19d10:	44051de3          	bnez	a0,1a96a <_start+0x3cc8>
   19d14:	3eea4503          	lbu	a0,1006(s4)
   19d18:	3eda4583          	lbu	a1,1005(s4)
   19d1c:	3efa4603          	lbu	a2,1007(s4)
   19d20:	3f0a2403          	lw	s0,1008(s4)
   19d24:	0522                	slli	a0,a0,0x8
   19d26:	8d4d                	or	a0,a0,a1
   19d28:	7aa91623          	sh	a0,1964(s2)
   19d2c:	7ac90723          	sb	a2,1966(s2)
   19d30:	6505                	lui	a0,0x1
   19d32:	38450513          	addi	a0,a0,900 # 1384 <.Lline_table_start1+0x1159>
   19d36:	00a105b3          	add	a1,sp,a0
   19d3a:	6505                	lui	a0,0x1
   19d3c:	32050513          	addi	a0,a0,800 # 1320 <.Lline_table_start1+0x10f5>
   19d40:	950a                	add	a0,a0,sp
   19d42:	02500613          	li	a2,37
   19d46:	00001097          	auipc	ra,0x1
   19d4a:	22c080e7          	jalr	556(ra) # 1af72 <memcpy>
   19d4e:	01845513          	srli	a0,s0,0x18
   19d52:	01045593          	srli	a1,s0,0x10
   19d56:	00845613          	srli	a2,s0,0x8
   19d5a:	7a8907a3          	sb	s0,1967(s2)
   19d5e:	7ac90823          	sb	a2,1968(s2)
   19d62:	7ab908a3          	sb	a1,1969(s2)
   19d66:	7aa90923          	sb	a0,1970(s2)
   19d6a:	7ff10513          	addi	a0,sp,2047
   19d6e:	74250513          	addi	a0,a0,1858
   19d72:	6585                	lui	a1,0x1
   19d74:	32058593          	addi	a1,a1,800 # 1320 <.Lline_table_start1+0x10f5>
   19d78:	958a                	add	a1,a1,sp
   19d7a:	02500613          	li	a2,37
   19d7e:	00001097          	auipc	ra,0x1
   19d82:	1f4080e7          	jalr	500(ra) # 1af72 <memcpy>
   19d86:	6505                	lui	a0,0x1
   19d88:	37c50513          	addi	a0,a0,892 # 137c <.Lline_table_start1+0x1151>
   19d8c:	950a                	add	a0,a0,sp
   19d8e:	7ff10593          	addi	a1,sp,2047
   19d92:	73b58593          	addi	a1,a1,1851
   19d96:	ffffa097          	auipc	ra,0xffffa
   19d9a:	87e080e7          	jalr	-1922(ra) # 13614 <_ZN20complex_full_dynamic3app17h7a80bd77f6bce103E>
   19d9e:	3eca4503          	lbu	a0,1004(s4)
   19da2:	3c0514e3          	bnez	a0,1a96a <_start+0x3cc8>
   19da6:	3eda4503          	lbu	a0,1005(s4)
   19daa:	3eea4583          	lbu	a1,1006(s4)
   19dae:	3efa4603          	lbu	a2,1007(s4)
   19db2:	3f0a2683          	lw	a3,1008(s4)
   19db6:	3f4a2703          	lw	a4,1012(s4)
   19dba:	3f8a2783          	lw	a5,1016(s4)
   19dbe:	3fca2483          	lw	s1,1020(s4)
   19dc2:	400a2403          	lw	s0,1024(s4)
   19dc6:	38ea2823          	sw	a4,912(s4)
   19dca:	38fa2a23          	sw	a5,916(s4)
   19dce:	389a2c23          	sw	s1,920(s4)
   19dd2:	388a2e23          	sw	s0,924(s4)
   19dd6:	404a2703          	lw	a4,1028(s4)
   19dda:	408a2783          	lw	a5,1032(s4)
   19dde:	40ca2483          	lw	s1,1036(s4)
   19de2:	410a2403          	lw	s0,1040(s4)
   19de6:	05a2                	slli	a1,a1,0x8
   19de8:	3aea2023          	sw	a4,928(s4)
   19dec:	3afa2223          	sw	a5,932(s4)
   19df0:	3a9a2423          	sw	s1,936(s4)
   19df4:	3a8a2623          	sw	s0,940(s4)
   19df8:	0186d713          	srli	a4,a3,0x18
   19dfc:	8d4d                	or	a0,a0,a1
   19dfe:	0106d593          	srli	a1,a3,0x10
   19e02:	7cb90ea3          	sb	a1,2013(s2)
   19e06:	7ce90f23          	sb	a4,2014(s2)
   19e0a:	0086d593          	srli	a1,a3,0x8
   19e0e:	7ca91c23          	sh	a0,2008(s2)
   19e12:	7cc90d23          	sb	a2,2010(s2)
   19e16:	7cd90da3          	sb	a3,2011(s2)
   19e1a:	7cb90e23          	sb	a1,2012(s2)
   19e1e:	7ff10513          	addi	a0,sp,2047
   19e22:	76e50513          	addi	a0,a0,1902
   19e26:	6585                	lui	a1,0x1
   19e28:	32058593          	addi	a1,a1,800 # 1320 <.Lline_table_start1+0x10f5>
   19e2c:	958a                	add	a1,a1,sp
   19e2e:	02000613          	li	a2,32
   19e32:	00001097          	auipc	ra,0x1
   19e36:	140080e7          	jalr	320(ra) # 1af72 <memcpy>
   19e3a:	6505                	lui	a0,0x1
   19e3c:	37c50513          	addi	a0,a0,892 # 137c <.Lline_table_start1+0x1151>
   19e40:	950a                	add	a0,a0,sp
   19e42:	7ff10593          	addi	a1,sp,2047
   19e46:	76758593          	addi	a1,a1,1895
   19e4a:	ffffb097          	auipc	ra,0xffffb
   19e4e:	306080e7          	jalr	774(ra) # 15150 <_ZN20complex_full_dynamic3app17hc048a32d1114eb8cE>
   19e52:	3eca4503          	lbu	a0,1004(s4)
   19e56:	30051ae3          	bnez	a0,1a96a <_start+0x3cc8>
   19e5a:	3eea4503          	lbu	a0,1006(s4)
   19e5e:	3eda4583          	lbu	a1,1005(s4)
   19e62:	3efa4603          	lbu	a2,1007(s4)
   19e66:	3f0a2403          	lw	s0,1008(s4)
   19e6a:	0522                	slli	a0,a0,0x8
   19e6c:	8d4d                	or	a0,a0,a1
   19e6e:	feaa1f23          	sh	a0,-2(s4)
   19e72:	00ca0023          	sb	a2,0(s4)
   19e76:	6505                	lui	a0,0x1
   19e78:	38450513          	addi	a0,a0,900 # 1384 <.Lline_table_start1+0x1159>
   19e7c:	00a105b3          	add	a1,sp,a0
   19e80:	6505                	lui	a0,0x1
   19e82:	32050513          	addi	a0,a0,800 # 1320 <.Lline_table_start1+0x10f5>
   19e86:	950a                	add	a0,a0,sp
   19e88:	04800613          	li	a2,72
   19e8c:	00001097          	auipc	ra,0x1
   19e90:	0e6080e7          	jalr	230(ra) # 1af72 <memcpy>
   19e94:	01845513          	srli	a0,s0,0x18
   19e98:	01045593          	srli	a1,s0,0x10
   19e9c:	00845613          	srli	a2,s0,0x8
   19ea0:	008a00a3          	sb	s0,1(s4)
   19ea4:	00ca0123          	sb	a2,2(s4)
   19ea8:	00ba01a3          	sb	a1,3(s4)
   19eac:	00aa0223          	sb	a0,4(s4)
   19eb0:	7ff10513          	addi	a0,sp,2047
   19eb4:	79650513          	addi	a0,a0,1942
   19eb8:	6585                	lui	a1,0x1
   19eba:	32058593          	addi	a1,a1,800 # 1320 <.Lline_table_start1+0x10f5>
   19ebe:	958a                	add	a1,a1,sp
   19ec0:	04800613          	li	a2,72
   19ec4:	00001097          	auipc	ra,0x1
   19ec8:	0ae080e7          	jalr	174(ra) # 1af72 <memcpy>
   19ecc:	6505                	lui	a0,0x1
   19ece:	37c50513          	addi	a0,a0,892 # 137c <.Lline_table_start1+0x1151>
   19ed2:	950a                	add	a0,a0,sp
   19ed4:	7ff10593          	addi	a1,sp,2047
   19ed8:	78f58593          	addi	a1,a1,1935
   19edc:	ffffa097          	auipc	ra,0xffffa
   19ee0:	92a080e7          	jalr	-1750(ra) # 13806 <_ZN20complex_full_dynamic3app17h7bac604566d94cb7E>
   19ee4:	3eca4503          	lbu	a0,1004(s4)
   19ee8:	280511e3          	bnez	a0,1a96a <_start+0x3cc8>
   19eec:	3eea4503          	lbu	a0,1006(s4)
   19ef0:	3eda4583          	lbu	a1,1005(s4)
   19ef4:	3efa4603          	lbu	a2,1007(s4)
   19ef8:	3f0a2403          	lw	s0,1008(s4)
   19efc:	0522                	slli	a0,a0,0x8
   19efe:	8d4d                	or	a0,a0,a1
   19f00:	04aa1723          	sh	a0,78(s4)
   19f04:	04ca0823          	sb	a2,80(s4)
   19f08:	6505                	lui	a0,0x1
   19f0a:	38450513          	addi	a0,a0,900 # 1384 <.Lline_table_start1+0x1159>
   19f0e:	00a105b3          	add	a1,sp,a0
   19f12:	6505                	lui	a0,0x1
   19f14:	32050513          	addi	a0,a0,800 # 1320 <.Lline_table_start1+0x10f5>
   19f18:	950a                	add	a0,a0,sp
   19f1a:	02e00613          	li	a2,46
   19f1e:	00001097          	auipc	ra,0x1
   19f22:	054080e7          	jalr	84(ra) # 1af72 <memcpy>
   19f26:	01845513          	srli	a0,s0,0x18
   19f2a:	01045593          	srli	a1,s0,0x10
   19f2e:	00845613          	srli	a2,s0,0x8
   19f32:	048a08a3          	sb	s0,81(s4)
   19f36:	04ca0923          	sb	a2,82(s4)
   19f3a:	04ba09a3          	sb	a1,83(s4)
   19f3e:	04aa0a23          	sb	a0,84(s4)
   19f42:	7ff10513          	addi	a0,sp,2047
   19f46:	7e650513          	addi	a0,a0,2022
   19f4a:	6585                	lui	a1,0x1
   19f4c:	32058593          	addi	a1,a1,800 # 1320 <.Lline_table_start1+0x10f5>
   19f50:	958a                	add	a1,a1,sp
   19f52:	02e00613          	li	a2,46
   19f56:	00001097          	auipc	ra,0x1
   19f5a:	01c080e7          	jalr	28(ra) # 1af72 <memcpy>
   19f5e:	6505                	lui	a0,0x1
   19f60:	37c50513          	addi	a0,a0,892 # 137c <.Lline_table_start1+0x1151>
   19f64:	950a                	add	a0,a0,sp
   19f66:	7ff10593          	addi	a1,sp,2047
   19f6a:	7df58593          	addi	a1,a1,2015
   19f6e:	ffff9097          	auipc	ra,0xffff9
   19f72:	af6080e7          	jalr	-1290(ra) # 12a64 <_ZN20complex_full_dynamic3app17h574b60f86fb02459E>
   19f76:	3eca4503          	lbu	a0,1004(s4)
   19f7a:	1e0518e3          	bnez	a0,1a96a <_start+0x3cc8>
   19f7e:	3eea4503          	lbu	a0,1006(s4)
   19f82:	3eda4583          	lbu	a1,1005(s4)
   19f86:	3efa4603          	lbu	a2,1007(s4)
   19f8a:	3f0a2403          	lw	s0,1008(s4)
   19f8e:	0522                	slli	a0,a0,0x8
   19f90:	8d4d                	or	a0,a0,a1
   19f92:	08aa1223          	sh	a0,132(s4)
   19f96:	08ca0323          	sb	a2,134(s4)
   19f9a:	6505                	lui	a0,0x1
   19f9c:	38450513          	addi	a0,a0,900 # 1384 <.Lline_table_start1+0x1159>
   19fa0:	00a105b3          	add	a1,sp,a0
   19fa4:	6505                	lui	a0,0x1
   19fa6:	32050513          	addi	a0,a0,800 # 1320 <.Lline_table_start1+0x10f5>
   19faa:	950a                	add	a0,a0,sp
   19fac:	03800613          	li	a2,56
   19fb0:	00001097          	auipc	ra,0x1
   19fb4:	fc2080e7          	jalr	-62(ra) # 1af72 <memcpy>
   19fb8:	01845513          	srli	a0,s0,0x18
   19fbc:	01045593          	srli	a1,s0,0x10
   19fc0:	00845613          	srli	a2,s0,0x8
   19fc4:	088a03a3          	sb	s0,135(s4)
   19fc8:	08ca0423          	sb	a2,136(s4)
   19fcc:	08ba04a3          	sb	a1,137(s4)
   19fd0:	08aa0523          	sb	a0,138(s4)
   19fd4:	6505                	lui	a0,0x1
   19fd6:	056d                	addi	a0,a0,27 # 101b <.Lline_table_start1+0xdf0>
   19fd8:	950a                	add	a0,a0,sp
   19fda:	6585                	lui	a1,0x1
   19fdc:	32058593          	addi	a1,a1,800 # 1320 <.Lline_table_start1+0x10f5>
   19fe0:	958a                	add	a1,a1,sp
   19fe2:	03800613          	li	a2,56
   19fe6:	00001097          	auipc	ra,0x1
   19fea:	f8c080e7          	jalr	-116(ra) # 1af72 <memcpy>
   19fee:	6505                	lui	a0,0x1
   19ff0:	37c50513          	addi	a0,a0,892 # 137c <.Lline_table_start1+0x1151>
   19ff4:	950a                	add	a0,a0,sp
   19ff6:	6585                	lui	a1,0x1
   19ff8:	05d1                	addi	a1,a1,20 # 1014 <.Lline_table_start1+0xde9>
   19ffa:	958a                	add	a1,a1,sp
   19ffc:	ffffa097          	auipc	ra,0xffffa
   1a000:	9fe080e7          	jalr	-1538(ra) # 139fa <_ZN20complex_full_dynamic3app17h7c18ef7124b5c82aE>
   1a004:	3eca4503          	lbu	a0,1004(s4)
   1a008:	160511e3          	bnez	a0,1a96a <_start+0x3cc8>
   1a00c:	3eda4503          	lbu	a0,1005(s4)
   1a010:	3eea4583          	lbu	a1,1006(s4)
   1a014:	3efa4603          	lbu	a2,1007(s4)
   1a018:	3f0a2683          	lw	a3,1008(s4)
   1a01c:	3f4a2703          	lw	a4,1012(s4)
   1a020:	3f8a2783          	lw	a5,1016(s4)
   1a024:	3fca1483          	lh	s1,1020(s4)
   1a028:	05a2                	slli	a1,a1,0x8
   1a02a:	38ea2823          	sw	a4,912(s4)
   1a02e:	38fa2a23          	sw	a5,916(s4)
   1a032:	389a1c23          	sh	s1,920(s4)
   1a036:	0186d713          	srli	a4,a3,0x18
   1a03a:	8d4d                	or	a0,a0,a1
   1a03c:	0106d593          	srli	a1,a3,0x10
   1a040:	0cba04a3          	sb	a1,201(s4)
   1a044:	0cea0523          	sb	a4,202(s4)
   1a048:	0086d593          	srli	a1,a3,0x8
   1a04c:	0caa1223          	sh	a0,196(s4)
   1a050:	0cca0323          	sb	a2,198(s4)
   1a054:	0cda03a3          	sb	a3,199(s4)
   1a058:	0cba0423          	sb	a1,200(s4)
   1a05c:	6505                	lui	a0,0x1
   1a05e:	05b50513          	addi	a0,a0,91 # 105b <.Lline_table_start1+0xe30>
   1a062:	950a                	add	a0,a0,sp
   1a064:	6585                	lui	a1,0x1
   1a066:	32058593          	addi	a1,a1,800 # 1320 <.Lline_table_start1+0x10f5>
   1a06a:	958a                	add	a1,a1,sp
   1a06c:	4629                	li	a2,10
   1a06e:	00001097          	auipc	ra,0x1
   1a072:	f04080e7          	jalr	-252(ra) # 1af72 <memcpy>
   1a076:	6505                	lui	a0,0x1
   1a078:	37c50513          	addi	a0,a0,892 # 137c <.Lline_table_start1+0x1151>
   1a07c:	950a                	add	a0,a0,sp
   1a07e:	6585                	lui	a1,0x1
   1a080:	05458593          	addi	a1,a1,84 # 1054 <.Lline_table_start1+0xe29>
   1a084:	958a                	add	a1,a1,sp
   1a086:	ffffc097          	auipc	ra,0xffffc
   1a08a:	442080e7          	jalr	1090(ra) # 164c8 <_ZN20complex_full_dynamic3app17hef4b92512d7bb602E>
   1a08e:	3eca4503          	lbu	a0,1004(s4)
   1a092:	0c051ce3          	bnez	a0,1a96a <_start+0x3cc8>
   1a096:	3eea4503          	lbu	a0,1006(s4)
   1a09a:	3eda4583          	lbu	a1,1005(s4)
   1a09e:	3efa4603          	lbu	a2,1007(s4)
   1a0a2:	3f0a2403          	lw	s0,1008(s4)
   1a0a6:	0522                	slli	a0,a0,0x8
   1a0a8:	8d4d                	or	a0,a0,a1
   1a0aa:	0caa1b23          	sh	a0,214(s4)
   1a0ae:	0cca0c23          	sb	a2,216(s4)
   1a0b2:	6505                	lui	a0,0x1
   1a0b4:	38450513          	addi	a0,a0,900 # 1384 <.Lline_table_start1+0x1159>
   1a0b8:	00a105b3          	add	a1,sp,a0
   1a0bc:	6505                	lui	a0,0x1
   1a0be:	32050513          	addi	a0,a0,800 # 1320 <.Lline_table_start1+0x10f5>
   1a0c2:	950a                	add	a0,a0,sp
   1a0c4:	03800613          	li	a2,56
   1a0c8:	00001097          	auipc	ra,0x1
   1a0cc:	eaa080e7          	jalr	-342(ra) # 1af72 <memcpy>
   1a0d0:	01845513          	srli	a0,s0,0x18
   1a0d4:	01045593          	srli	a1,s0,0x10
   1a0d8:	00845613          	srli	a2,s0,0x8
   1a0dc:	0c8a0ca3          	sb	s0,217(s4)
   1a0e0:	0cca0d23          	sb	a2,218(s4)
   1a0e4:	0cba0da3          	sb	a1,219(s4)
   1a0e8:	0caa0e23          	sb	a0,220(s4)
   1a0ec:	6505                	lui	a0,0x1
   1a0ee:	06d50513          	addi	a0,a0,109 # 106d <.Lline_table_start1+0xe42>
   1a0f2:	950a                	add	a0,a0,sp
   1a0f4:	6585                	lui	a1,0x1
   1a0f6:	32058593          	addi	a1,a1,800 # 1320 <.Lline_table_start1+0x10f5>
   1a0fa:	958a                	add	a1,a1,sp
   1a0fc:	03800613          	li	a2,56
   1a100:	00001097          	auipc	ra,0x1
   1a104:	e72080e7          	jalr	-398(ra) # 1af72 <memcpy>
   1a108:	6505                	lui	a0,0x1
   1a10a:	37c50513          	addi	a0,a0,892 # 137c <.Lline_table_start1+0x1151>
   1a10e:	950a                	add	a0,a0,sp
   1a110:	6585                	lui	a1,0x1
   1a112:	06658593          	addi	a1,a1,102 # 1066 <.Lline_table_start1+0xe3b>
   1a116:	958a                	add	a1,a1,sp
   1a118:	ffffb097          	auipc	ra,0xffffb
   1a11c:	d4e080e7          	jalr	-690(ra) # 14e66 <_ZN20complex_full_dynamic3app17hb56ac48de344c6ebE>
   1a120:	3eca4503          	lbu	a0,1004(s4)
   1a124:	040513e3          	bnez	a0,1a96a <_start+0x3cc8>
   1a128:	3eda4503          	lbu	a0,1005(s4)
   1a12c:	3eea4583          	lbu	a1,1006(s4)
   1a130:	3f4a2603          	lw	a2,1012(s4)
   1a134:	3f8a2683          	lw	a3,1016(s4)
   1a138:	3fca2703          	lw	a4,1020(s4)
   1a13c:	400a2783          	lw	a5,1024(s4)
   1a140:	404a2483          	lw	s1,1028(s4)
   1a144:	408a4403          	lbu	s0,1032(s4)
   1a148:	38ca2823          	sw	a2,912(s4)
   1a14c:	38da2a23          	sw	a3,916(s4)
   1a150:	38ea2c23          	sw	a4,920(s4)
   1a154:	38fa2e23          	sw	a5,924(s4)
   1a158:	3efa4603          	lbu	a2,1007(s4)
   1a15c:	3f0a2683          	lw	a3,1008(s4)
   1a160:	05a2                	slli	a1,a1,0x8
   1a162:	3a9a2023          	sw	s1,928(s4)
   1a166:	3a8a0223          	sb	s0,932(s4)
   1a16a:	0186d713          	srli	a4,a3,0x18
   1a16e:	8d4d                	or	a0,a0,a1
   1a170:	0106d593          	srli	a1,a3,0x10
   1a174:	10ba0da3          	sb	a1,283(s4)
   1a178:	10ea0e23          	sb	a4,284(s4)
   1a17c:	0086d593          	srli	a1,a3,0x8
   1a180:	10aa1b23          	sh	a0,278(s4)
   1a184:	10ca0c23          	sb	a2,280(s4)
   1a188:	10da0ca3          	sb	a3,281(s4)
   1a18c:	10ba0d23          	sb	a1,282(s4)
   1a190:	6505                	lui	a0,0x1
   1a192:	0ad50513          	addi	a0,a0,173 # 10ad <.Lline_table_start1+0xe82>
   1a196:	950a                	add	a0,a0,sp
   1a198:	6585                	lui	a1,0x1
   1a19a:	32058593          	addi	a1,a1,800 # 1320 <.Lline_table_start1+0x10f5>
   1a19e:	958a                	add	a1,a1,sp
   1a1a0:	4655                	li	a2,21
   1a1a2:	00001097          	auipc	ra,0x1
   1a1a6:	dd0080e7          	jalr	-560(ra) # 1af72 <memcpy>
   1a1aa:	6505                	lui	a0,0x1
   1a1ac:	37c50513          	addi	a0,a0,892 # 137c <.Lline_table_start1+0x1151>
   1a1b0:	950a                	add	a0,a0,sp
   1a1b2:	6585                	lui	a1,0x1
   1a1b4:	0a658593          	addi	a1,a1,166 # 10a6 <.Lline_table_start1+0xe7b>
   1a1b8:	958a                	add	a1,a1,sp
   1a1ba:	ffffa097          	auipc	ra,0xffffa
   1a1be:	4de080e7          	jalr	1246(ra) # 14698 <_ZN20complex_full_dynamic3app17ha10b4df63dedc493E>
   1a1c2:	3eca4503          	lbu	a0,1004(s4)
   1a1c6:	7a051263          	bnez	a0,1a96a <_start+0x3cc8>
   1a1ca:	3eea4503          	lbu	a0,1006(s4)
   1a1ce:	3eda4583          	lbu	a1,1005(s4)
   1a1d2:	3efa4603          	lbu	a2,1007(s4)
   1a1d6:	3f0a2403          	lw	s0,1008(s4)
   1a1da:	0522                	slli	a0,a0,0x8
   1a1dc:	8d4d                	or	a0,a0,a1
   1a1de:	12aa1923          	sh	a0,306(s4)
   1a1e2:	12ca0a23          	sb	a2,308(s4)
   1a1e6:	6505                	lui	a0,0x1
   1a1e8:	38450513          	addi	a0,a0,900 # 1384 <.Lline_table_start1+0x1159>
   1a1ec:	00a105b3          	add	a1,sp,a0
   1a1f0:	6505                	lui	a0,0x1
   1a1f2:	32050513          	addi	a0,a0,800 # 1320 <.Lline_table_start1+0x10f5>
   1a1f6:	950a                	add	a0,a0,sp
   1a1f8:	05600613          	li	a2,86
   1a1fc:	00001097          	auipc	ra,0x1
   1a200:	d76080e7          	jalr	-650(ra) # 1af72 <memcpy>
   1a204:	01845513          	srli	a0,s0,0x18
   1a208:	01045593          	srli	a1,s0,0x10
   1a20c:	00845613          	srli	a2,s0,0x8
   1a210:	128a0aa3          	sb	s0,309(s4)
   1a214:	12ca0b23          	sb	a2,310(s4)
   1a218:	12ba0ba3          	sb	a1,311(s4)
   1a21c:	12aa0c23          	sb	a0,312(s4)
   1a220:	6505                	lui	a0,0x1
   1a222:	0c950513          	addi	a0,a0,201 # 10c9 <.Lline_table_start1+0xe9e>
   1a226:	950a                	add	a0,a0,sp
   1a228:	6585                	lui	a1,0x1
   1a22a:	32058593          	addi	a1,a1,800 # 1320 <.Lline_table_start1+0x10f5>
   1a22e:	958a                	add	a1,a1,sp
   1a230:	05600613          	li	a2,86
   1a234:	00001097          	auipc	ra,0x1
   1a238:	d3e080e7          	jalr	-706(ra) # 1af72 <memcpy>
   1a23c:	6505                	lui	a0,0x1
   1a23e:	37c50513          	addi	a0,a0,892 # 137c <.Lline_table_start1+0x1151>
   1a242:	950a                	add	a0,a0,sp
   1a244:	6585                	lui	a1,0x1
   1a246:	0c258593          	addi	a1,a1,194 # 10c2 <.Lline_table_start1+0xe97>
   1a24a:	958a                	add	a1,a1,sp
   1a24c:	ffff8097          	auipc	ra,0xffff8
   1a250:	154080e7          	jalr	340(ra) # 123a0 <_ZN20complex_full_dynamic3app17h411f5830297a0671E>
   1a254:	3eca4503          	lbu	a0,1004(s4)
   1a258:	70051963          	bnez	a0,1a96a <_start+0x3cc8>
   1a25c:	3eda4503          	lbu	a0,1005(s4)
   1a260:	3eea4583          	lbu	a1,1006(s4)
   1a264:	3efa4603          	lbu	a2,1007(s4)
   1a268:	3f0a2683          	lw	a3,1008(s4)
   1a26c:	3f4a2703          	lw	a4,1012(s4)
   1a270:	3f8a2783          	lw	a5,1016(s4)
   1a274:	3fca1483          	lh	s1,1020(s4)
   1a278:	3fea4403          	lbu	s0,1022(s4)
   1a27c:	05a2                	slli	a1,a1,0x8
   1a27e:	38ea2823          	sw	a4,912(s4)
   1a282:	38fa2a23          	sw	a5,916(s4)
   1a286:	389a1c23          	sh	s1,920(s4)
   1a28a:	388a0d23          	sb	s0,922(s4)
   1a28e:	0186d713          	srli	a4,a3,0x18
   1a292:	8d4d                	or	a0,a0,a1
   1a294:	0106d593          	srli	a1,a3,0x10
   1a298:	18ba0aa3          	sb	a1,405(s4)
   1a29c:	18ea0b23          	sb	a4,406(s4)
   1a2a0:	0086d593          	srli	a1,a3,0x8
   1a2a4:	18aa1823          	sh	a0,400(s4)
   1a2a8:	18ca0923          	sb	a2,402(s4)
   1a2ac:	18da09a3          	sb	a3,403(s4)
   1a2b0:	18ba0a23          	sb	a1,404(s4)
   1a2b4:	6505                	lui	a0,0x1
   1a2b6:	12750513          	addi	a0,a0,295 # 1127 <.Lline_table_start1+0xefc>
   1a2ba:	950a                	add	a0,a0,sp
   1a2bc:	6585                	lui	a1,0x1
   1a2be:	32058593          	addi	a1,a1,800 # 1320 <.Lline_table_start1+0x10f5>
   1a2c2:	958a                	add	a1,a1,sp
   1a2c4:	462d                	li	a2,11
   1a2c6:	00001097          	auipc	ra,0x1
   1a2ca:	cac080e7          	jalr	-852(ra) # 1af72 <memcpy>
   1a2ce:	6505                	lui	a0,0x1
   1a2d0:	37c50513          	addi	a0,a0,892 # 137c <.Lline_table_start1+0x1151>
   1a2d4:	950a                	add	a0,a0,sp
   1a2d6:	6585                	lui	a1,0x1
   1a2d8:	12058593          	addi	a1,a1,288 # 1120 <.Lline_table_start1+0xef5>
   1a2dc:	958a                	add	a1,a1,sp
   1a2de:	ffffc097          	auipc	ra,0xffffc
   1a2e2:	d10080e7          	jalr	-752(ra) # 15fee <_ZN20complex_full_dynamic3app17he33e00a66a130db6E>
   1a2e6:	3eca4503          	lbu	a0,1004(s4)
   1a2ea:	68051063          	bnez	a0,1a96a <_start+0x3cc8>
   1a2ee:	3eea4503          	lbu	a0,1006(s4)
   1a2f2:	3eda4583          	lbu	a1,1005(s4)
   1a2f6:	3efa4603          	lbu	a2,1007(s4)
   1a2fa:	3f0a2403          	lw	s0,1008(s4)
   1a2fe:	0522                	slli	a0,a0,0x8
   1a300:	8d4d                	or	a0,a0,a1
   1a302:	1aaa1123          	sh	a0,418(s4)
   1a306:	1aca0223          	sb	a2,420(s4)
   1a30a:	6505                	lui	a0,0x1
   1a30c:	38450513          	addi	a0,a0,900 # 1384 <.Lline_table_start1+0x1159>
   1a310:	00a105b3          	add	a1,sp,a0
   1a314:	6505                	lui	a0,0x1
   1a316:	32050513          	addi	a0,a0,800 # 1320 <.Lline_table_start1+0x10f5>
   1a31a:	950a                	add	a0,a0,sp
   1a31c:	03d00613          	li	a2,61
   1a320:	00001097          	auipc	ra,0x1
   1a324:	c52080e7          	jalr	-942(ra) # 1af72 <memcpy>
   1a328:	01845513          	srli	a0,s0,0x18
   1a32c:	01045593          	srli	a1,s0,0x10
   1a330:	00845613          	srli	a2,s0,0x8
   1a334:	1a8a02a3          	sb	s0,421(s4)
   1a338:	1aca0323          	sb	a2,422(s4)
   1a33c:	1aba03a3          	sb	a1,423(s4)
   1a340:	1aaa0423          	sb	a0,424(s4)
   1a344:	6505                	lui	a0,0x1
   1a346:	13950513          	addi	a0,a0,313 # 1139 <.Lline_table_start1+0xf0e>
   1a34a:	950a                	add	a0,a0,sp
   1a34c:	6585                	lui	a1,0x1
   1a34e:	32058593          	addi	a1,a1,800 # 1320 <.Lline_table_start1+0x10f5>
   1a352:	958a                	add	a1,a1,sp
   1a354:	03d00613          	li	a2,61
   1a358:	00001097          	auipc	ra,0x1
   1a35c:	c1a080e7          	jalr	-998(ra) # 1af72 <memcpy>
   1a360:	6505                	lui	a0,0x1
   1a362:	37c50513          	addi	a0,a0,892 # 137c <.Lline_table_start1+0x1151>
   1a366:	950a                	add	a0,a0,sp
   1a368:	6585                	lui	a1,0x1
   1a36a:	13258593          	addi	a1,a1,306 # 1132 <.Lline_table_start1+0xf07>
   1a36e:	958a                	add	a1,a1,sp
   1a370:	ffff9097          	auipc	ra,0xffff9
   1a374:	ade080e7          	jalr	-1314(ra) # 12e4e <_ZN20complex_full_dynamic3app17h5f30e3c508b600eeE>
   1a378:	3eca4503          	lbu	a0,1004(s4)
   1a37c:	5e051763          	bnez	a0,1a96a <_start+0x3cc8>
   1a380:	3eda4503          	lbu	a0,1005(s4)
   1a384:	3eea4583          	lbu	a1,1006(s4)
   1a388:	3efa4603          	lbu	a2,1007(s4)
   1a38c:	3f0a2683          	lw	a3,1008(s4)
   1a390:	3f4a2703          	lw	a4,1012(s4)
   1a394:	3f8a2783          	lw	a5,1016(s4)
   1a398:	3fca2483          	lw	s1,1020(s4)
   1a39c:	400a2403          	lw	s0,1024(s4)
   1a3a0:	38ea2823          	sw	a4,912(s4)
   1a3a4:	38fa2a23          	sw	a5,916(s4)
   1a3a8:	389a2c23          	sw	s1,920(s4)
   1a3ac:	388a2e23          	sw	s0,924(s4)
   1a3b0:	404a2703          	lw	a4,1028(s4)
   1a3b4:	408a2783          	lw	a5,1032(s4)
   1a3b8:	40ca2483          	lw	s1,1036(s4)
   1a3bc:	05a2                	slli	a1,a1,0x8
   1a3be:	3aea2023          	sw	a4,928(s4)
   1a3c2:	3afa2223          	sw	a5,932(s4)
   1a3c6:	3a9a2423          	sw	s1,936(s4)
   1a3ca:	0186d713          	srli	a4,a3,0x18
   1a3ce:	8d4d                	or	a0,a0,a1
   1a3d0:	0106d593          	srli	a1,a3,0x10
   1a3d4:	1eba05a3          	sb	a1,491(s4)
   1a3d8:	1eea0623          	sb	a4,492(s4)
   1a3dc:	0086d593          	srli	a1,a3,0x8
   1a3e0:	1eaa1323          	sh	a0,486(s4)
   1a3e4:	1eca0423          	sb	a2,488(s4)
   1a3e8:	1eda04a3          	sb	a3,489(s4)
   1a3ec:	1eba0523          	sb	a1,490(s4)
   1a3f0:	6505                	lui	a0,0x1
   1a3f2:	17d50513          	addi	a0,a0,381 # 117d <.Lline_table_start1+0xf52>
   1a3f6:	950a                	add	a0,a0,sp
   1a3f8:	6585                	lui	a1,0x1
   1a3fa:	32058593          	addi	a1,a1,800 # 1320 <.Lline_table_start1+0x10f5>
   1a3fe:	958a                	add	a1,a1,sp
   1a400:	4671                	li	a2,28
   1a402:	00001097          	auipc	ra,0x1
   1a406:	b70080e7          	jalr	-1168(ra) # 1af72 <memcpy>
   1a40a:	6505                	lui	a0,0x1
   1a40c:	37c50513          	addi	a0,a0,892 # 137c <.Lline_table_start1+0x1151>
   1a410:	950a                	add	a0,a0,sp
   1a412:	6585                	lui	a1,0x1
   1a414:	17658593          	addi	a1,a1,374 # 1176 <.Lline_table_start1+0xf4b>
   1a418:	958a                	add	a1,a1,sp
   1a41a:	ffff8097          	auipc	ra,0xffff8
   1a41e:	ca4080e7          	jalr	-860(ra) # 120be <_ZN20complex_full_dynamic3app17h3b159bc3f1a47dedE>
   1a422:	3eca4503          	lbu	a0,1004(s4)
   1a426:	54051263          	bnez	a0,1a96a <_start+0x3cc8>
   1a42a:	3eda4503          	lbu	a0,1005(s4)
   1a42e:	3eea4583          	lbu	a1,1006(s4)
   1a432:	3efa4603          	lbu	a2,1007(s4)
   1a436:	3f0a2683          	lw	a3,1008(s4)
   1a43a:	3f4a2703          	lw	a4,1012(s4)
   1a43e:	3f8a2783          	lw	a5,1016(s4)
   1a442:	3fca2483          	lw	s1,1020(s4)
   1a446:	400a2403          	lw	s0,1024(s4)
   1a44a:	38ea2823          	sw	a4,912(s4)
   1a44e:	38fa2a23          	sw	a5,916(s4)
   1a452:	389a2c23          	sw	s1,920(s4)
   1a456:	388a2e23          	sw	s0,924(s4)
   1a45a:	404a2703          	lw	a4,1028(s4)
   1a45e:	408a2783          	lw	a5,1032(s4)
   1a462:	40ca2483          	lw	s1,1036(s4)
   1a466:	410a4403          	lbu	s0,1040(s4)
   1a46a:	05a2                	slli	a1,a1,0x8
   1a46c:	3aea2023          	sw	a4,928(s4)
   1a470:	3afa2223          	sw	a5,932(s4)
   1a474:	3a9a2423          	sw	s1,936(s4)
   1a478:	3a8a0623          	sb	s0,940(s4)
   1a47c:	0186d713          	srli	a4,a3,0x18
   1a480:	8d4d                	or	a0,a0,a1
   1a482:	0106d593          	srli	a1,a3,0x10
   1a486:	20ba07a3          	sb	a1,527(s4)
   1a48a:	20ea0823          	sb	a4,528(s4)
   1a48e:	0086d593          	srli	a1,a3,0x8
   1a492:	20aa1523          	sh	a0,522(s4)
   1a496:	20ca0623          	sb	a2,524(s4)
   1a49a:	20da06a3          	sb	a3,525(s4)
   1a49e:	20ba0723          	sb	a1,526(s4)
   1a4a2:	6505                	lui	a0,0x1
   1a4a4:	1a150513          	addi	a0,a0,417 # 11a1 <.Lline_table_start1+0xf76>
   1a4a8:	950a                	add	a0,a0,sp
   1a4aa:	6585                	lui	a1,0x1
   1a4ac:	32058593          	addi	a1,a1,800 # 1320 <.Lline_table_start1+0x10f5>
   1a4b0:	958a                	add	a1,a1,sp
   1a4b2:	4675                	li	a2,29
   1a4b4:	00001097          	auipc	ra,0x1
   1a4b8:	abe080e7          	jalr	-1346(ra) # 1af72 <memcpy>
   1a4bc:	6505                	lui	a0,0x1
   1a4be:	37c50513          	addi	a0,a0,892 # 137c <.Lline_table_start1+0x1151>
   1a4c2:	950a                	add	a0,a0,sp
   1a4c4:	6585                	lui	a1,0x1
   1a4c6:	19a58593          	addi	a1,a1,410 # 119a <.Lline_table_start1+0xf6f>
   1a4ca:	958a                	add	a1,a1,sp
   1a4cc:	ffffb097          	auipc	ra,0xffffb
   1a4d0:	640080e7          	jalr	1600(ra) # 15b0c <_ZN20complex_full_dynamic3app17hd59e5250507b1533E>
   1a4d4:	3eca4503          	lbu	a0,1004(s4)
   1a4d8:	48051963          	bnez	a0,1a96a <_start+0x3cc8>
   1a4dc:	3eea4503          	lbu	a0,1006(s4)
   1a4e0:	3eda4583          	lbu	a1,1005(s4)
   1a4e4:	3efa4603          	lbu	a2,1007(s4)
   1a4e8:	3f0a2403          	lw	s0,1008(s4)
   1a4ec:	0522                	slli	a0,a0,0x8
   1a4ee:	8d4d                	or	a0,a0,a1
   1a4f0:	22aa1723          	sh	a0,558(s4)
   1a4f4:	22ca0823          	sb	a2,560(s4)
   1a4f8:	6505                	lui	a0,0x1
   1a4fa:	38450513          	addi	a0,a0,900 # 1384 <.Lline_table_start1+0x1159>
   1a4fe:	00a105b3          	add	a1,sp,a0
   1a502:	6505                	lui	a0,0x1
   1a504:	32050513          	addi	a0,a0,800 # 1320 <.Lline_table_start1+0x10f5>
   1a508:	950a                	add	a0,a0,sp
   1a50a:	02800613          	li	a2,40
   1a50e:	00001097          	auipc	ra,0x1
   1a512:	a64080e7          	jalr	-1436(ra) # 1af72 <memcpy>
   1a516:	01845513          	srli	a0,s0,0x18
   1a51a:	01045593          	srli	a1,s0,0x10
   1a51e:	00845613          	srli	a2,s0,0x8
   1a522:	228a08a3          	sb	s0,561(s4)
   1a526:	22ca0923          	sb	a2,562(s4)
   1a52a:	22ba09a3          	sb	a1,563(s4)
   1a52e:	22aa0a23          	sb	a0,564(s4)
   1a532:	6505                	lui	a0,0x1
   1a534:	1c550513          	addi	a0,a0,453 # 11c5 <.Lline_table_start1+0xf9a>
   1a538:	950a                	add	a0,a0,sp
   1a53a:	6585                	lui	a1,0x1
   1a53c:	32058593          	addi	a1,a1,800 # 1320 <.Lline_table_start1+0x10f5>
   1a540:	958a                	add	a1,a1,sp
   1a542:	02800613          	li	a2,40
   1a546:	00001097          	auipc	ra,0x1
   1a54a:	a2c080e7          	jalr	-1492(ra) # 1af72 <memcpy>
   1a54e:	6505                	lui	a0,0x1
   1a550:	37c50513          	addi	a0,a0,892 # 137c <.Lline_table_start1+0x1151>
   1a554:	950a                	add	a0,a0,sp
   1a556:	6585                	lui	a1,0x1
   1a558:	1be58593          	addi	a1,a1,446 # 11be <.Lline_table_start1+0xf93>
   1a55c:	958a                	add	a1,a1,sp
   1a55e:	ffff7097          	auipc	ra,0xffff7
   1a562:	580080e7          	jalr	1408(ra) # 11ade <_ZN20complex_full_dynamic3app17h2341df15bdc5cb8cE>
   1a566:	3eca4503          	lbu	a0,1004(s4)
   1a56a:	40051063          	bnez	a0,1a96a <_start+0x3cc8>
   1a56e:	3eea4503          	lbu	a0,1006(s4)
   1a572:	3eda4583          	lbu	a1,1005(s4)
   1a576:	3efa4603          	lbu	a2,1007(s4)
   1a57a:	3f0a2403          	lw	s0,1008(s4)
   1a57e:	0522                	slli	a0,a0,0x8
   1a580:	8d4d                	or	a0,a0,a1
   1a582:	24aa1f23          	sh	a0,606(s4)
   1a586:	26ca0023          	sb	a2,608(s4)
   1a58a:	6505                	lui	a0,0x1
   1a58c:	38450513          	addi	a0,a0,900 # 1384 <.Lline_table_start1+0x1159>
   1a590:	00a105b3          	add	a1,sp,a0
   1a594:	6505                	lui	a0,0x1
   1a596:	32050513          	addi	a0,a0,800 # 1320 <.Lline_table_start1+0x10f5>
   1a59a:	950a                	add	a0,a0,sp
   1a59c:	05700613          	li	a2,87
   1a5a0:	00001097          	auipc	ra,0x1
   1a5a4:	9d2080e7          	jalr	-1582(ra) # 1af72 <memcpy>
   1a5a8:	01845513          	srli	a0,s0,0x18
   1a5ac:	01045593          	srli	a1,s0,0x10
   1a5b0:	00845613          	srli	a2,s0,0x8
   1a5b4:	268a00a3          	sb	s0,609(s4)
   1a5b8:	26ca0123          	sb	a2,610(s4)
   1a5bc:	26ba01a3          	sb	a1,611(s4)
   1a5c0:	26aa0223          	sb	a0,612(s4)
   1a5c4:	6505                	lui	a0,0x1
   1a5c6:	1f550513          	addi	a0,a0,501 # 11f5 <.Lline_table_start1+0xfca>
   1a5ca:	950a                	add	a0,a0,sp
   1a5cc:	6585                	lui	a1,0x1
   1a5ce:	32058593          	addi	a1,a1,800 # 1320 <.Lline_table_start1+0x10f5>
   1a5d2:	958a                	add	a1,a1,sp
   1a5d4:	05700613          	li	a2,87
   1a5d8:	00001097          	auipc	ra,0x1
   1a5dc:	99a080e7          	jalr	-1638(ra) # 1af72 <memcpy>
   1a5e0:	6505                	lui	a0,0x1
   1a5e2:	37c50513          	addi	a0,a0,892 # 137c <.Lline_table_start1+0x1151>
   1a5e6:	950a                	add	a0,a0,sp
   1a5e8:	6585                	lui	a1,0x1
   1a5ea:	1ee58593          	addi	a1,a1,494 # 11ee <.Lline_table_start1+0xfc3>
   1a5ee:	958a                	add	a1,a1,sp
   1a5f0:	ffff8097          	auipc	ra,0xffff8
   1a5f4:	8e2080e7          	jalr	-1822(ra) # 11ed2 <_ZN20complex_full_dynamic3app17h3072817c0c18bb2dE>
   1a5f8:	3eca4503          	lbu	a0,1004(s4)
   1a5fc:	36051763          	bnez	a0,1a96a <_start+0x3cc8>
   1a600:	3eea4503          	lbu	a0,1006(s4)
   1a604:	3eda4583          	lbu	a1,1005(s4)
   1a608:	3efa4603          	lbu	a2,1007(s4)
   1a60c:	3f0a2403          	lw	s0,1008(s4)
   1a610:	0522                	slli	a0,a0,0x8
   1a612:	8d4d                	or	a0,a0,a1
   1a614:	2aaa1e23          	sh	a0,700(s4)
   1a618:	2aca0f23          	sb	a2,702(s4)
   1a61c:	6505                	lui	a0,0x1
   1a61e:	38450513          	addi	a0,a0,900 # 1384 <.Lline_table_start1+0x1159>
   1a622:	00a105b3          	add	a1,sp,a0
   1a626:	6505                	lui	a0,0x1
   1a628:	32050513          	addi	a0,a0,800 # 1320 <.Lline_table_start1+0x10f5>
   1a62c:	950a                	add	a0,a0,sp
   1a62e:	04e00613          	li	a2,78
   1a632:	00001097          	auipc	ra,0x1
   1a636:	940080e7          	jalr	-1728(ra) # 1af72 <memcpy>
   1a63a:	01845513          	srli	a0,s0,0x18
   1a63e:	01045593          	srli	a1,s0,0x10
   1a642:	00845613          	srli	a2,s0,0x8
   1a646:	2a8a0fa3          	sb	s0,703(s4)
   1a64a:	2cca0023          	sb	a2,704(s4)
   1a64e:	2cba00a3          	sb	a1,705(s4)
   1a652:	2caa0123          	sb	a0,706(s4)
   1a656:	6505                	lui	a0,0x1
   1a658:	25350513          	addi	a0,a0,595 # 1253 <.Lline_table_start1+0x1028>
   1a65c:	950a                	add	a0,a0,sp
   1a65e:	6585                	lui	a1,0x1
   1a660:	32058593          	addi	a1,a1,800 # 1320 <.Lline_table_start1+0x10f5>
   1a664:	958a                	add	a1,a1,sp
   1a666:	04e00613          	li	a2,78
   1a66a:	00001097          	auipc	ra,0x1
   1a66e:	908080e7          	jalr	-1784(ra) # 1af72 <memcpy>
   1a672:	6505                	lui	a0,0x1
   1a674:	37c50513          	addi	a0,a0,892 # 137c <.Lline_table_start1+0x1151>
   1a678:	950a                	add	a0,a0,sp
   1a67a:	6585                	lui	a1,0x1
   1a67c:	24c58593          	addi	a1,a1,588 # 124c <.Lline_table_start1+0x1021>
   1a680:	958a                	add	a1,a1,sp
   1a682:	ffff9097          	auipc	ra,0xffff9
   1a686:	ea0080e7          	jalr	-352(ra) # 13522 <_ZN20complex_full_dynamic3app17h77d7bede5142b363E>
   1a68a:	3eca4503          	lbu	a0,1004(s4)
   1a68e:	2c051e63          	bnez	a0,1a96a <_start+0x3cc8>
   1a692:	3eda4503          	lbu	a0,1005(s4)
   1a696:	3eea4583          	lbu	a1,1006(s4)
   1a69a:	3efa4603          	lbu	a2,1007(s4)
   1a69e:	3f0a2683          	lw	a3,1008(s4)
   1a6a2:	3f4a2703          	lw	a4,1012(s4)
   1a6a6:	3f8a2783          	lw	a5,1016(s4)
   1a6aa:	3fca1483          	lh	s1,1020(s4)
   1a6ae:	05a2                	slli	a1,a1,0x8
   1a6b0:	38ea2823          	sw	a4,912(s4)
   1a6b4:	38fa2a23          	sw	a5,916(s4)
   1a6b8:	389a1c23          	sh	s1,920(s4)
   1a6bc:	0186d713          	srli	a4,a3,0x18
   1a6c0:	8d4d                	or	a0,a0,a1
   1a6c2:	0106d593          	srli	a1,a3,0x10
   1a6c6:	30ba0ba3          	sb	a1,791(s4)
   1a6ca:	30ea0c23          	sb	a4,792(s4)
   1a6ce:	0086d593          	srli	a1,a3,0x8
   1a6d2:	30aa1923          	sh	a0,786(s4)
   1a6d6:	30ca0a23          	sb	a2,788(s4)
   1a6da:	30da0aa3          	sb	a3,789(s4)
   1a6de:	30ba0b23          	sb	a1,790(s4)
   1a6e2:	6505                	lui	a0,0x1
   1a6e4:	2a950513          	addi	a0,a0,681 # 12a9 <.Lline_table_start1+0x107e>
   1a6e8:	950a                	add	a0,a0,sp
   1a6ea:	6585                	lui	a1,0x1
   1a6ec:	32058593          	addi	a1,a1,800 # 1320 <.Lline_table_start1+0x10f5>
   1a6f0:	958a                	add	a1,a1,sp
   1a6f2:	4629                	li	a2,10
   1a6f4:	00001097          	auipc	ra,0x1
   1a6f8:	87e080e7          	jalr	-1922(ra) # 1af72 <memcpy>
   1a6fc:	6505                	lui	a0,0x1
   1a6fe:	37c50513          	addi	a0,a0,892 # 137c <.Lline_table_start1+0x1151>
   1a702:	950a                	add	a0,a0,sp
   1a704:	6585                	lui	a1,0x1
   1a706:	2a258593          	addi	a1,a1,674 # 12a2 <.Lline_table_start1+0x1077>
   1a70a:	958a                	add	a1,a1,sp
   1a70c:	ffff7097          	auipc	ra,0xffff7
   1a710:	1e4080e7          	jalr	484(ra) # 118f0 <_ZN20complex_full_dynamic3app17h1ef66af3bd8e4969E>
   1a714:	3eca4503          	lbu	a0,1004(s4)
   1a718:	24051963          	bnez	a0,1a96a <_start+0x3cc8>
   1a71c:	3eea4503          	lbu	a0,1006(s4)
   1a720:	3eda4583          	lbu	a1,1005(s4)
   1a724:	3efa4603          	lbu	a2,1007(s4)
   1a728:	3f0a2403          	lw	s0,1008(s4)
   1a72c:	0522                	slli	a0,a0,0x8
   1a72e:	8d4d                	or	a0,a0,a1
   1a730:	32aa1223          	sh	a0,804(s4)
   1a734:	32ca0323          	sb	a2,806(s4)
   1a738:	6505                	lui	a0,0x1
   1a73a:	38450513          	addi	a0,a0,900 # 1384 <.Lline_table_start1+0x1159>
   1a73e:	00a105b3          	add	a1,sp,a0
   1a742:	6505                	lui	a0,0x1
   1a744:	32050513          	addi	a0,a0,800 # 1320 <.Lline_table_start1+0x10f5>
   1a748:	950a                	add	a0,a0,sp
   1a74a:	04900613          	li	a2,73
   1a74e:	00001097          	auipc	ra,0x1
   1a752:	824080e7          	jalr	-2012(ra) # 1af72 <memcpy>
   1a756:	01845513          	srli	a0,s0,0x18
   1a75a:	01045593          	srli	a1,s0,0x10
   1a75e:	00845613          	srli	a2,s0,0x8
   1a762:	328a03a3          	sb	s0,807(s4)
   1a766:	32ca0423          	sb	a2,808(s4)
   1a76a:	32ba04a3          	sb	a1,809(s4)
   1a76e:	32aa0523          	sb	a0,810(s4)
   1a772:	6505                	lui	a0,0x1
   1a774:	2bb50513          	addi	a0,a0,699 # 12bb <.Lline_table_start1+0x1090>
   1a778:	950a                	add	a0,a0,sp
   1a77a:	6585                	lui	a1,0x1
   1a77c:	32058593          	addi	a1,a1,800 # 1320 <.Lline_table_start1+0x10f5>
   1a780:	958a                	add	a1,a1,sp
   1a782:	04900613          	li	a2,73
   1a786:	00000097          	auipc	ra,0x0
   1a78a:	7ec080e7          	jalr	2028(ra) # 1af72 <memcpy>
   1a78e:	6505                	lui	a0,0x1
   1a790:	37c50513          	addi	a0,a0,892 # 137c <.Lline_table_start1+0x1151>
   1a794:	950a                	add	a0,a0,sp
   1a796:	6585                	lui	a1,0x1
   1a798:	2b458593          	addi	a1,a1,692 # 12b4 <.Lline_table_start1+0x1089>
   1a79c:	958a                	add	a1,a1,sp
   1a79e:	ffff8097          	auipc	ra,0xffff8
   1a7a2:	4b8080e7          	jalr	1208(ra) # 12c56 <_ZN20complex_full_dynamic3app17h5c3f2e79474eb04eE>
   1a7a6:	3eca4503          	lbu	a0,1004(s4)
   1a7aa:	1c051063          	bnez	a0,1a96a <_start+0x3cc8>
   1a7ae:	3eda4503          	lbu	a0,1005(s4)
   1a7b2:	3eea4583          	lbu	a1,1006(s4)
   1a7b6:	3efa4803          	lbu	a6,1007(s4)
   1a7ba:	3f0a2683          	lw	a3,1008(s4)
   1a7be:	3f4a2703          	lw	a4,1012(s4)
   1a7c2:	3f8a2783          	lw	a5,1016(s4)
   1a7c6:	3fca2483          	lw	s1,1020(s4)
   1a7ca:	400a2403          	lw	s0,1024(s4)
   1a7ce:	404a2603          	lw	a2,1028(s4)
   1a7d2:	05a2                	slli	a1,a1,0x8
   1a7d4:	389a2c23          	sw	s1,920(s4)
   1a7d8:	388a2e23          	sw	s0,924(s4)
   1a7dc:	3aca2023          	sw	a2,928(s4)
   1a7e0:	0186d613          	srli	a2,a3,0x18
   1a7e4:	8d4d                	or	a0,a0,a1
   1a7e6:	0106d593          	srli	a1,a3,0x10
   1a7ea:	36ba0ca3          	sb	a1,889(s4)
   1a7ee:	36ca0d23          	sb	a2,890(s4)
   1a7f2:	38ea2823          	sw	a4,912(s4)
   1a7f6:	38fa2a23          	sw	a5,916(s4)
   1a7fa:	0086d593          	srli	a1,a3,0x8
   1a7fe:	36aa1a23          	sh	a0,884(s4)
   1a802:	370a0b23          	sb	a6,886(s4)
   1a806:	36da0ba3          	sb	a3,887(s4)
   1a80a:	36ba0c23          	sb	a1,888(s4)
   1a80e:	6505                	lui	a0,0x1
   1a810:	30b50513          	addi	a0,a0,779 # 130b <.Lline_table_start1+0x10e0>
   1a814:	950a                	add	a0,a0,sp
   1a816:	6585                	lui	a1,0x1
   1a818:	32058593          	addi	a1,a1,800 # 1320 <.Lline_table_start1+0x10f5>
   1a81c:	958a                	add	a1,a1,sp
   1a81e:	4651                	li	a2,20
   1a820:	00000097          	auipc	ra,0x0
   1a824:	752080e7          	jalr	1874(ra) # 1af72 <memcpy>
   1a828:	6505                	lui	a0,0x1
   1a82a:	37c50513          	addi	a0,a0,892 # 137c <.Lline_table_start1+0x1151>
   1a82e:	950a                	add	a0,a0,sp
   1a830:	6585                	lui	a1,0x1
   1a832:	30458593          	addi	a1,a1,772 # 1304 <.Lline_table_start1+0x10d9>
   1a836:	958a                	add	a1,a1,sp
   1a838:	ffff7097          	auipc	ra,0xffff7
   1a83c:	1b0080e7          	jalr	432(ra) # 119e8 <_ZN20complex_full_dynamic3app17h2202f1fd25500210E>
   1a840:	3eca4503          	lbu	a0,1004(s4)
   1a844:	12051363          	bnez	a0,1a96a <_start+0x3cc8>
   1a848:	3eea4503          	lbu	a0,1006(s4)
   1a84c:	3eda4583          	lbu	a1,1005(s4)
   1a850:	3efa4603          	lbu	a2,1007(s4)
   1a854:	3f0a2403          	lw	s0,1008(s4)
   1a858:	0522                	slli	a0,a0,0x8
   1a85a:	8d4d                	or	a0,a0,a1
   1a85c:	44aa1923          	sh	a0,1106(s4)
   1a860:	44ca0a23          	sb	a2,1108(s4)
   1a864:	6505                	lui	a0,0x1
   1a866:	38450513          	addi	a0,a0,900 # 1384 <.Lline_table_start1+0x1159>
   1a86a:	00a105b3          	add	a1,sp,a0
   1a86e:	6505                	lui	a0,0x1
   1a870:	32050513          	addi	a0,a0,800 # 1320 <.Lline_table_start1+0x10f5>
   1a874:	950a                	add	a0,a0,sp
   1a876:	05c00613          	li	a2,92
   1a87a:	00000097          	auipc	ra,0x0
   1a87e:	6f8080e7          	jalr	1784(ra) # 1af72 <memcpy>
   1a882:	01845513          	srli	a0,s0,0x18
   1a886:	01045593          	srli	a1,s0,0x10
   1a88a:	00845613          	srli	a2,s0,0x8
   1a88e:	448a0aa3          	sb	s0,1109(s4)
   1a892:	44ca0b23          	sb	a2,1110(s4)
   1a896:	44ba0ba3          	sb	a1,1111(s4)
   1a89a:	44aa0c23          	sb	a0,1112(s4)
   1a89e:	6505                	lui	a0,0x1
   1a8a0:	3e950513          	addi	a0,a0,1001 # 13e9 <.Lline_table_start1+0x11be>
   1a8a4:	950a                	add	a0,a0,sp
   1a8a6:	6585                	lui	a1,0x1
   1a8a8:	32058593          	addi	a1,a1,800 # 1320 <.Lline_table_start1+0x10f5>
   1a8ac:	958a                	add	a1,a1,sp
   1a8ae:	05c00613          	li	a2,92
   1a8b2:	00000097          	auipc	ra,0x0
   1a8b6:	6c0080e7          	jalr	1728(ra) # 1af72 <memcpy>
   1a8ba:	6505                	lui	a0,0x1
   1a8bc:	37c50513          	addi	a0,a0,892 # 137c <.Lline_table_start1+0x1151>
   1a8c0:	950a                	add	a0,a0,sp
   1a8c2:	6585                	lui	a1,0x1
   1a8c4:	3e258593          	addi	a1,a1,994 # 13e2 <.Lline_table_start1+0x11b7>
   1a8c8:	958a                	add	a1,a1,sp
   1a8ca:	ffffc097          	auipc	ra,0xffffc
   1a8ce:	916080e7          	jalr	-1770(ra) # 161e0 <_ZN20complex_full_dynamic3app17he87e30e272470456E>
   1a8d2:	3eca4503          	lbu	a0,1004(s4)
   1a8d6:	e951                	bnez	a0,1a96a <_start+0x3cc8>
   1a8d8:	3eea4503          	lbu	a0,1006(s4)
   1a8dc:	3eda4583          	lbu	a1,1005(s4)
   1a8e0:	3efa4603          	lbu	a2,1007(s4)
   1a8e4:	3f0a2403          	lw	s0,1008(s4)
   1a8e8:	0522                	slli	a0,a0,0x8
   1a8ea:	8d4d                	or	a0,a0,a1
   1a8ec:	4aaa1b23          	sh	a0,1206(s4)
   1a8f0:	4aca0c23          	sb	a2,1208(s4)
   1a8f4:	6505                	lui	a0,0x1
   1a8f6:	38450513          	addi	a0,a0,900 # 1384 <.Lline_table_start1+0x1159>
   1a8fa:	00a105b3          	add	a1,sp,a0
   1a8fe:	6505                	lui	a0,0x1
   1a900:	32050513          	addi	a0,a0,800 # 1320 <.Lline_table_start1+0x10f5>
   1a904:	950a                	add	a0,a0,sp
   1a906:	02500613          	li	a2,37
   1a90a:	00000097          	auipc	ra,0x0
   1a90e:	668080e7          	jalr	1640(ra) # 1af72 <memcpy>
   1a912:	01845513          	srli	a0,s0,0x18
   1a916:	01045593          	srli	a1,s0,0x10
   1a91a:	00845613          	srli	a2,s0,0x8
   1a91e:	4a8a0ca3          	sb	s0,1209(s4)
   1a922:	4aca0d23          	sb	a2,1210(s4)
   1a926:	4aba0da3          	sb	a1,1211(s4)
   1a92a:	4aaa0e23          	sb	a0,1212(s4)
   1a92e:	6505                	lui	a0,0x1
   1a930:	44d50513          	addi	a0,a0,1101 # 144d <.Lline_table_start1+0x1222>
   1a934:	950a                	add	a0,a0,sp
   1a936:	6585                	lui	a1,0x1
   1a938:	32058593          	addi	a1,a1,800 # 1320 <.Lline_table_start1+0x10f5>
   1a93c:	958a                	add	a1,a1,sp
   1a93e:	02500613          	li	a2,37
   1a942:	00000097          	auipc	ra,0x0
   1a946:	630080e7          	jalr	1584(ra) # 1af72 <memcpy>
   1a94a:	6505                	lui	a0,0x1
   1a94c:	37c50513          	addi	a0,a0,892 # 137c <.Lline_table_start1+0x1151>
   1a950:	950a                	add	a0,a0,sp
   1a952:	6585                	lui	a1,0x1
   1a954:	44658593          	addi	a1,a1,1094 # 1446 <.Lline_table_start1+0x121b>
   1a958:	958a                	add	a1,a1,sp
   1a95a:	ffffa097          	auipc	ra,0xffffa
   1a95e:	954080e7          	jalr	-1708(ra) # 142ae <_ZN20complex_full_dynamic3app17h913ac0cca7475328E>
   1a962:	3eca4503          	lbu	a0,1004(s4)
   1a966:	4e050663          	beqz	a0,1ae52 <_start+0x41b0>
   1a96a:	3f0a2a83          	lw	s5,1008(s4)
   1a96e:	4505                	li	a0,1
   1a970:	85d6                	mv	a1,s5
   1a972:	7f010113          	addi	sp,sp,2032
   1a976:	4f010113          	addi	sp,sp,1264
   1a97a:	7ec12083          	lw	ra,2028(sp)
   1a97e:	7e812403          	lw	s0,2024(sp)
   1a982:	7e412483          	lw	s1,2020(sp)
   1a986:	7e012903          	lw	s2,2016(sp)
   1a98a:	7dc12983          	lw	s3,2012(sp)
   1a98e:	7d812a03          	lw	s4,2008(sp)
   1a992:	7d412a83          	lw	s5,2004(sp)
   1a996:	7d012b03          	lw	s6,2000(sp)
   1a99a:	7cc12b83          	lw	s7,1996(sp)
   1a99e:	7c812c03          	lw	s8,1992(sp)
   1a9a2:	7c412c83          	lw	s9,1988(sp)
   1a9a6:	7c012d03          	lw	s10,1984(sp)
   1a9aa:	7bc12d83          	lw	s11,1980(sp)
   1a9ae:	7f010113          	addi	sp,sp,2032
   1a9b2:	8082                	ret
   1a9b4:	0888                	addi	a0,sp,80
   1a9b6:	00000097          	auipc	ra,0x0
   1a9ba:	530080e7          	jalr	1328(ra) # 1aee6 <_ZN9allow_pin12full_dynamic17unshare_if_shared17h3494b15e905518bcE>
   1a9be:	6505                	lui	a0,0x1
   1a9c0:	37c50513          	addi	a0,a0,892 # 137c <.Lline_table_start1+0x1151>
   1a9c4:	950a                	add	a0,a0,sp
   1a9c6:	00000097          	auipc	ra,0x0
   1a9ca:	520080e7          	jalr	1312(ra) # 1aee6 <_ZN9allow_pin12full_dynamic17unshare_if_shared17h3494b15e905518bcE>
   1a9ce:	6505                	lui	a0,0x1
   1a9d0:	37c50513          	addi	a0,a0,892 # 137c <.Lline_table_start1+0x1151>
   1a9d4:	950a                	add	a0,a0,sp
   1a9d6:	00000097          	auipc	ra,0x0
   1a9da:	510080e7          	jalr	1296(ra) # 1aee6 <_ZN9allow_pin12full_dynamic17unshare_if_shared17h3494b15e905518bcE>
   1a9de:	00194503          	lbu	a0,1(s2)
   1a9e2:	00094583          	lbu	a1,0(s2)
   1a9e6:	00294603          	lbu	a2,2(s2)
   1a9ea:	0522                	slli	a0,a0,0x8
   1a9ec:	3fba4683          	lbu	a3,1019(s4)
   1a9f0:	3fca4703          	lbu	a4,1020(s4)
   1a9f4:	8d4d                	or	a0,a0,a1
   1a9f6:	3fda4583          	lbu	a1,1021(s4)
   1a9fa:	3fea4783          	lbu	a5,1022(s4)
   1a9fe:	0722                	slli	a4,a4,0x8
   1aa00:	8ed9                	or	a3,a3,a4
   1aa02:	05c2                	slli	a1,a1,0x10
   1aa04:	07e2                	slli	a5,a5,0x18
   1aa06:	8ddd                	or	a1,a1,a5
   1aa08:	08a11823          	sh	a0,144(sp)
   1aa0c:	08c10923          	sb	a2,146(sp)
   1aa10:	00d5eab3          	or	s5,a1,a3
   1aa14:	6505                	lui	a0,0x1
   1aa16:	38f50513          	addi	a0,a0,911 # 138f <.Lline_table_start1+0x1164>
   1aa1a:	00a105b3          	add	a1,sp,a0
   1aa1e:	0048                	addi	a0,sp,4
   1aa20:	04a00613          	li	a2,74
   1aa24:	00000097          	auipc	ra,0x0
   1aa28:	54e080e7          	jalr	1358(ra) # 1af72 <memcpy>
   1aa2c:	4401                	li	s0,0
   1aa2e:	b5cfc06f          	j	16d8a <_start+0xe8>
   1aa32:	6505                	lui	a0,0x1
   1aa34:	37c50513          	addi	a0,a0,892 # 137c <.Lline_table_start1+0x1151>
   1aa38:	950a                	add	a0,a0,sp
   1aa3a:	00000097          	auipc	ra,0x0
   1aa3e:	4ac080e7          	jalr	1196(ra) # 1aee6 <_ZN9allow_pin12full_dynamic17unshare_if_shared17h3494b15e905518bcE>
   1aa42:	6505                	lui	a0,0x1
   1aa44:	32050513          	addi	a0,a0,800 # 1320 <.Lline_table_start1+0x10f5>
   1aa48:	950a                	add	a0,a0,sp
   1aa4a:	00000097          	auipc	ra,0x0
   1aa4e:	49c080e7          	jalr	1180(ra) # 1aee6 <_ZN9allow_pin12full_dynamic17unshare_if_shared17h3494b15e905518bcE>
   1aa52:	6505                	lui	a0,0x1
   1aa54:	32050513          	addi	a0,a0,800 # 1320 <.Lline_table_start1+0x10f5>
   1aa58:	950a                	add	a0,a0,sp
   1aa5a:	00000097          	auipc	ra,0x0
   1aa5e:	48c080e7          	jalr	1164(ra) # 1aee6 <_ZN9allow_pin12full_dynamic17unshare_if_shared17h3494b15e905518bcE>
   1aa62:	00194503          	lbu	a0,1(s2)
   1aa66:	00094583          	lbu	a1,0(s2)
   1aa6a:	00294603          	lbu	a2,2(s2)
   1aa6e:	0522                	slli	a0,a0,0x8
   1aa70:	39fa4683          	lbu	a3,927(s4)
   1aa74:	3a0a4703          	lbu	a4,928(s4)
   1aa78:	8d4d                	or	a0,a0,a1
   1aa7a:	3a1a4583          	lbu	a1,929(s4)
   1aa7e:	3a2a4783          	lbu	a5,930(s4)
   1aa82:	0722                	slli	a4,a4,0x8
   1aa84:	8ed9                	or	a3,a3,a4
   1aa86:	05c2                	slli	a1,a1,0x10
   1aa88:	07e2                	slli	a5,a5,0x18
   1aa8a:	8ddd                	or	a1,a1,a5
   1aa8c:	08a11823          	sh	a0,144(sp)
   1aa90:	08c10923          	sb	a2,146(sp)
   1aa94:	00d5eab3          	or	s5,a1,a3
   1aa98:	6505                	lui	a0,0x1
   1aa9a:	33350513          	addi	a0,a0,819 # 1333 <.Lline_table_start1+0x1108>
   1aa9e:	00a105b3          	add	a1,sp,a0
   1aaa2:	0888                	addi	a0,sp,80
   1aaa4:	03f00613          	li	a2,63
   1aaa8:	00000097          	auipc	ra,0x0
   1aaac:	4ca080e7          	jalr	1226(ra) # 1af72 <memcpy>
   1aab0:	4401                	li	s0,0
   1aab2:	bf8fc06f          	j	16eaa <_start+0x208>
   1aab6:	6505                	lui	a0,0x1
   1aab8:	37c50513          	addi	a0,a0,892 # 137c <.Lline_table_start1+0x1151>
   1aabc:	950a                	add	a0,a0,sp
   1aabe:	00000097          	auipc	ra,0x0
   1aac2:	428080e7          	jalr	1064(ra) # 1aee6 <_ZN9allow_pin12full_dynamic17unshare_if_shared17h3494b15e905518bcE>
   1aac6:	6505                	lui	a0,0x1
   1aac8:	32050513          	addi	a0,a0,800 # 1320 <.Lline_table_start1+0x10f5>
   1aacc:	950a                	add	a0,a0,sp
   1aace:	00000097          	auipc	ra,0x0
   1aad2:	418080e7          	jalr	1048(ra) # 1aee6 <_ZN9allow_pin12full_dynamic17unshare_if_shared17h3494b15e905518bcE>
   1aad6:	6505                	lui	a0,0x1
   1aad8:	32050513          	addi	a0,a0,800 # 1320 <.Lline_table_start1+0x10f5>
   1aadc:	950a                	add	a0,a0,sp
   1aade:	00000097          	auipc	ra,0x0
   1aae2:	408080e7          	jalr	1032(ra) # 1aee6 <_ZN9allow_pin12full_dynamic17unshare_if_shared17h3494b15e905518bcE>
   1aae6:	4401                	li	s0,0
   1aae8:	00094583          	lbu	a1,0(s2)
   1aaec:	00194603          	lbu	a2,1(s2)
   1aaf0:	00294803          	lbu	a6,2(s2)
   1aaf4:	39fa4883          	lbu	a7,927(s4)
   1aaf8:	3a0a4283          	lbu	t0,928(s4)
   1aafc:	3a1a4303          	lbu	t1,929(s4)
   1ab00:	3a2a4383          	lbu	t2,930(s4)
   1ab04:	3b3a4503          	lbu	a0,947(s4)
   1ab08:	3a3a4683          	lbu	a3,931(s4)
   1ab0c:	3a4a4703          	lbu	a4,932(s4)
   1ab10:	3a5a4783          	lbu	a5,933(s4)
   1ab14:	3a6a4483          	lbu	s1,934(s4)
   1ab18:	0622                	slli	a2,a2,0x8
   1ab1a:	0aa10023          	sb	a0,160(sp)
   1ab1e:	00b66e33          	or	t3,a2,a1
   1ab22:	3a7a4e83          	lbu	t4,935(s4)
   1ab26:	3a8a4603          	lbu	a2,936(s4)
   1ab2a:	3a9a4583          	lbu	a1,937(s4)
   1ab2e:	3aaa4503          	lbu	a0,938(s4)
   1ab32:	02a2                	slli	t0,t0,0x8
   1ab34:	0342                	slli	t1,t1,0x10
   1ab36:	03e2                	slli	t2,t2,0x18
   1ab38:	0722                	slli	a4,a4,0x8
   1ab3a:	07c2                	slli	a5,a5,0x10
   1ab3c:	04e2                	slli	s1,s1,0x18
   1ab3e:	0112e8b3          	or	a7,t0,a7
   1ab42:	0063e2b3          	or	t0,t2,t1
   1ab46:	00d76333          	or	t1,a4,a3
   1ab4a:	00f4e3b3          	or	t2,s1,a5
   1ab4e:	3aba4703          	lbu	a4,939(s4)
   1ab52:	3aca4483          	lbu	s1,940(s4)
   1ab56:	3ada4683          	lbu	a3,941(s4)
   1ab5a:	3aea4783          	lbu	a5,942(s4)
   1ab5e:	0622                	slli	a2,a2,0x8
   1ab60:	05c2                	slli	a1,a1,0x10
   1ab62:	0562                	slli	a0,a0,0x18
   1ab64:	04a2                	slli	s1,s1,0x8
   1ab66:	06c2                	slli	a3,a3,0x10
   1ab68:	07e2                	slli	a5,a5,0x18
   1ab6a:	01d66eb3          	or	t4,a2,t4
   1ab6e:	8d4d                	or	a0,a0,a1
   1ab70:	8f45                	or	a4,a4,s1
   1ab72:	3afa4583          	lbu	a1,943(s4)
   1ab76:	3b0a4483          	lbu	s1,944(s4)
   1ab7a:	8edd                	or	a3,a3,a5
   1ab7c:	3b1a4783          	lbu	a5,945(s4)
   1ab80:	3b2a4603          	lbu	a2,946(s4)
   1ab84:	04a2                	slli	s1,s1,0x8
   1ab86:	8dc5                	or	a1,a1,s1
   1ab88:	07c2                	slli	a5,a5,0x10
   1ab8a:	0662                	slli	a2,a2,0x18
   1ab8c:	8e5d                	or	a2,a2,a5
   1ab8e:	0bc11223          	sh	t3,164(sp)
   1ab92:	0b010323          	sb	a6,166(sp)
   1ab96:	0112eab3          	or	s5,t0,a7
   1ab9a:	0063e7b3          	or	a5,t2,t1
   1ab9e:	01d56533          	or	a0,a0,t4
   1aba2:	8ed9                	or	a3,a3,a4
   1aba4:	8dd1                	or	a1,a1,a2
   1aba6:	c93e                	sw	a5,144(sp)
   1aba8:	cb2a                	sw	a0,148(sp)
   1abaa:	cd36                	sw	a3,152(sp)
   1abac:	cf2e                	sw	a1,156(sp)
   1abae:	c14fc06f          	j	16fc2 <_start+0x320>
   1abb2:	0888                	addi	a0,sp,80
   1abb4:	00000097          	auipc	ra,0x0
   1abb8:	332080e7          	jalr	818(ra) # 1aee6 <_ZN9allow_pin12full_dynamic17unshare_if_shared17h3494b15e905518bcE>
   1abbc:	6505                	lui	a0,0x1
   1abbe:	37c50513          	addi	a0,a0,892 # 137c <.Lline_table_start1+0x1151>
   1abc2:	950a                	add	a0,a0,sp
   1abc4:	00000097          	auipc	ra,0x0
   1abc8:	322080e7          	jalr	802(ra) # 1aee6 <_ZN9allow_pin12full_dynamic17unshare_if_shared17h3494b15e905518bcE>
   1abcc:	6505                	lui	a0,0x1
   1abce:	37c50513          	addi	a0,a0,892 # 137c <.Lline_table_start1+0x1151>
   1abd2:	950a                	add	a0,a0,sp
   1abd4:	00000097          	auipc	ra,0x0
   1abd8:	312080e7          	jalr	786(ra) # 1aee6 <_ZN9allow_pin12full_dynamic17unshare_if_shared17h3494b15e905518bcE>
   1abdc:	0019c503          	lbu	a0,1(s3)
   1abe0:	0009c583          	lbu	a1,0(s3)
   1abe4:	0029c603          	lbu	a2,2(s3)
   1abe8:	0522                	slli	a0,a0,0x8
   1abea:	3fba4683          	lbu	a3,1019(s4)
   1abee:	3fca4703          	lbu	a4,1020(s4)
   1abf2:	8d4d                	or	a0,a0,a1
   1abf4:	3fda4583          	lbu	a1,1021(s4)
   1abf8:	3fea4783          	lbu	a5,1022(s4)
   1abfc:	0722                	slli	a4,a4,0x8
   1abfe:	8ed9                	or	a3,a3,a4
   1ac00:	05c2                	slli	a1,a1,0x10
   1ac02:	07e2                	slli	a5,a5,0x18
   1ac04:	8ddd                	or	a1,a1,a5
   1ac06:	08a11823          	sh	a0,144(sp)
   1ac0a:	08c10923          	sb	a2,146(sp)
   1ac0e:	00d5eab3          	or	s5,a1,a3
   1ac12:	6505                	lui	a0,0x1
   1ac14:	38f50513          	addi	a0,a0,911 # 138f <.Lline_table_start1+0x1164>
   1ac18:	00a105b3          	add	a1,sp,a0
   1ac1c:	0048                	addi	a0,sp,4
   1ac1e:	02f00613          	li	a2,47
   1ac22:	00000097          	auipc	ra,0x0
   1ac26:	350080e7          	jalr	848(ra) # 1af72 <memcpy>
   1ac2a:	4401                	li	s0,0
   1ac2c:	c98fc06f          	j	170c4 <_start+0x422>
   1ac30:	6505                	lui	a0,0x1
   1ac32:	37c50513          	addi	a0,a0,892 # 137c <.Lline_table_start1+0x1151>
   1ac36:	950a                	add	a0,a0,sp
   1ac38:	00000097          	auipc	ra,0x0
   1ac3c:	2ae080e7          	jalr	686(ra) # 1aee6 <_ZN9allow_pin12full_dynamic17unshare_if_shared17h3494b15e905518bcE>
   1ac40:	6505                	lui	a0,0x1
   1ac42:	32050513          	addi	a0,a0,800 # 1320 <.Lline_table_start1+0x10f5>
   1ac46:	950a                	add	a0,a0,sp
   1ac48:	00000097          	auipc	ra,0x0
   1ac4c:	29e080e7          	jalr	670(ra) # 1aee6 <_ZN9allow_pin12full_dynamic17unshare_if_shared17h3494b15e905518bcE>
   1ac50:	6505                	lui	a0,0x1
   1ac52:	32050513          	addi	a0,a0,800 # 1320 <.Lline_table_start1+0x10f5>
   1ac56:	950a                	add	a0,a0,sp
   1ac58:	00000097          	auipc	ra,0x0
   1ac5c:	28e080e7          	jalr	654(ra) # 1aee6 <_ZN9allow_pin12full_dynamic17unshare_if_shared17h3494b15e905518bcE>
   1ac60:	4401                	li	s0,0
   1ac62:	00094883          	lbu	a7,0(s2)
   1ac66:	00194303          	lbu	t1,1(s2)
   1ac6a:	00294803          	lbu	a6,2(s2)
   1ac6e:	39fa4383          	lbu	t2,927(s4)
   1ac72:	3a0a4f83          	lbu	t6,928(s4)
   1ac76:	3a1a4c83          	lbu	s9,929(s4)
   1ac7a:	3a2a4483          	lbu	s1,930(s4)
   1ac7e:	3bfa4503          	lbu	a0,959(s4)
   1ac82:	3c0a4583          	lbu	a1,960(s4)
   1ac86:	3a3a4283          	lbu	t0,931(s4)
   1ac8a:	3a4a4e03          	lbu	t3,932(s4)
   1ac8e:	3a5a4e83          	lbu	t4,933(s4)
   1ac92:	3a6a4f03          	lbu	t5,934(s4)
   1ac96:	3a7a4983          	lbu	s3,935(s4)
   1ac9a:	3a8a4703          	lbu	a4,936(s4)
   1ac9e:	3a9a4683          	lbu	a3,937(s4)
   1aca2:	3aaa4603          	lbu	a2,938(s4)
   1aca6:	3aba4a83          	lbu	s5,939(s4)
   1acaa:	3aca4b03          	lbu	s6,940(s4)
   1acae:	3ada4b83          	lbu	s7,941(s4)
   1acb2:	3aea4c03          	lbu	s8,942(s4)
   1acb6:	0322                	slli	t1,t1,0x8
   1acb8:	008f9793          	slli	a5,t6,0x8
   1acbc:	0cc2                	slli	s9,s9,0x10
   1acbe:	04e2                	slli	s1,s1,0x18
   1acc0:	05a2                	slli	a1,a1,0x8
   1acc2:	01136fb3          	or	t6,t1,a7
   1acc6:	0077e333          	or	t1,a5,t2
   1acca:	0194e3b3          	or	t2,s1,s9
   1acce:	00a5e8b3          	or	a7,a1,a0
   1acd2:	3afa4c83          	lbu	s9,943(s4)
   1acd6:	3b0a4503          	lbu	a0,944(s4)
   1acda:	3b1a4783          	lbu	a5,945(s4)
   1acde:	3b2a4583          	lbu	a1,946(s4)
   1ace2:	0e22                	slli	t3,t3,0x8
   1ace4:	0ec2                	slli	t4,t4,0x10
   1ace6:	0f62                	slli	t5,t5,0x18
   1ace8:	0722                	slli	a4,a4,0x8
   1acea:	06c2                	slli	a3,a3,0x10
   1acec:	0662                	slli	a2,a2,0x18
   1acee:	005e62b3          	or	t0,t3,t0
   1acf2:	01df6eb3          	or	t4,t5,t4
   1acf6:	01376e33          	or	t3,a4,s3
   1acfa:	00d66f33          	or	t5,a2,a3
   1acfe:	3b3a4d03          	lbu	s10,947(s4)
   1ad02:	3b4a4703          	lbu	a4,948(s4)
   1ad06:	3b5a4603          	lbu	a2,949(s4)
   1ad0a:	3b6a4483          	lbu	s1,950(s4)
   1ad0e:	0b22                	slli	s6,s6,0x8
   1ad10:	0bc2                	slli	s7,s7,0x10
   1ad12:	0c62                	slli	s8,s8,0x18
   1ad14:	0522                	slli	a0,a0,0x8
   1ad16:	07c2                	slli	a5,a5,0x10
   1ad18:	05e2                	slli	a1,a1,0x18
   1ad1a:	015b69b3          	or	s3,s6,s5
   1ad1e:	017c6b33          	or	s6,s8,s7
   1ad22:	01956bb3          	or	s7,a0,s9
   1ad26:	00f5ec33          	or	s8,a1,a5
   1ad2a:	3b7a4783          	lbu	a5,951(s4)
   1ad2e:	3b8a4503          	lbu	a0,952(s4)
   1ad32:	3b9a4583          	lbu	a1,953(s4)
   1ad36:	3baa4683          	lbu	a3,954(s4)
   1ad3a:	0722                	slli	a4,a4,0x8
   1ad3c:	0642                	slli	a2,a2,0x10
   1ad3e:	04e2                	slli	s1,s1,0x18
   1ad40:	0522                	slli	a0,a0,0x8
   1ad42:	05c2                	slli	a1,a1,0x10
   1ad44:	06e2                	slli	a3,a3,0x18
   1ad46:	01a76cb3          	or	s9,a4,s10
   1ad4a:	00c4edb3          	or	s11,s1,a2
   1ad4e:	00f56d33          	or	s10,a0,a5
   1ad52:	3bba4783          	lbu	a5,955(s4)
   1ad56:	3bca4483          	lbu	s1,956(s4)
   1ad5a:	00b6e0b3          	or	ra,a3,a1
   1ad5e:	3bda4683          	lbu	a3,957(s4)
   1ad62:	3bea4703          	lbu	a4,958(s4)
   1ad66:	04a2                	slli	s1,s1,0x8
   1ad68:	8fc5                	or	a5,a5,s1
   1ad6a:	06c2                	slli	a3,a3,0x10
   1ad6c:	0762                	slli	a4,a4,0x18
   1ad6e:	8ed9                	or	a3,a3,a4
   1ad70:	09f11823          	sh	t6,144(sp)
   1ad74:	09010923          	sb	a6,146(sp)
   1ad78:	0063eab3          	or	s5,t2,t1
   1ad7c:	005ee733          	or	a4,t4,t0
   1ad80:	01cf64b3          	or	s1,t5,t3
   1ad84:	013b6833          	or	a6,s6,s3
   1ad88:	017c6633          	or	a2,s8,s7
   1ad8c:	019de5b3          	or	a1,s11,s9
   1ad90:	01a0e533          	or	a0,ra,s10
   1ad94:	8edd                	or	a3,a3,a5
   1ad96:	d0ae                	sw	a1,96(sp)
   1ad98:	d2aa                	sw	a0,100(sp)
   1ad9a:	d4b6                	sw	a3,104(sp)
   1ad9c:	07111623          	sh	a7,108(sp)
   1ada0:	c8ba                	sw	a4,80(sp)
   1ada2:	caa6                	sw	s1,84(sp)
   1ada4:	ccc2                	sw	a6,88(sp)
   1ada6:	ceb2                	sw	a2,92(sp)
   1ada8:	c2cfc06f          	j	171d4 <_start+0x532>
   1adac:	6505                	lui	a0,0x1
   1adae:	37c50513          	addi	a0,a0,892 # 137c <.Lline_table_start1+0x1151>
   1adb2:	950a                	add	a0,a0,sp
   1adb4:	00000097          	auipc	ra,0x0
   1adb8:	132080e7          	jalr	306(ra) # 1aee6 <_ZN9allow_pin12full_dynamic17unshare_if_shared17h3494b15e905518bcE>
   1adbc:	6505                	lui	a0,0x1
   1adbe:	32050513          	addi	a0,a0,800 # 1320 <.Lline_table_start1+0x10f5>
   1adc2:	950a                	add	a0,a0,sp
   1adc4:	00000097          	auipc	ra,0x0
   1adc8:	122080e7          	jalr	290(ra) # 1aee6 <_ZN9allow_pin12full_dynamic17unshare_if_shared17h3494b15e905518bcE>
   1adcc:	6505                	lui	a0,0x1
   1adce:	32050513          	addi	a0,a0,800 # 1320 <.Lline_table_start1+0x10f5>
   1add2:	950a                	add	a0,a0,sp
   1add4:	00000097          	auipc	ra,0x0
   1add8:	112080e7          	jalr	274(ra) # 1aee6 <_ZN9allow_pin12full_dynamic17unshare_if_shared17h3494b15e905518bcE>
   1addc:	4401                	li	s0,0
   1adde:	00094883          	lbu	a7,0(s2)
   1ade2:	00194583          	lbu	a1,1(s2)
   1ade6:	00294803          	lbu	a6,2(s2)
   1adea:	39fa4683          	lbu	a3,927(s4)
   1adee:	3a0a4703          	lbu	a4,928(s4)
   1adf2:	3a1a4783          	lbu	a5,929(s4)
   1adf6:	3a2a4483          	lbu	s1,930(s4)
   1adfa:	3a7a4603          	lbu	a2,935(s4)
   1adfe:	3a8a4503          	lbu	a0,936(s4)
   1ae02:	3a9a4283          	lbu	t0,937(s4)
   1ae06:	05a2                	slli	a1,a1,0x8
   1ae08:	0722                	slli	a4,a4,0x8
   1ae0a:	07c2                	slli	a5,a5,0x10
   1ae0c:	04e2                	slli	s1,s1,0x18
   1ae0e:	0522                	slli	a0,a0,0x8
   1ae10:	0115e5b3          	or	a1,a1,a7
   1ae14:	00d768b3          	or	a7,a4,a3
   1ae18:	8fc5                	or	a5,a5,s1
   1ae1a:	3a3a4703          	lbu	a4,931(s4)
   1ae1e:	3a4a4483          	lbu	s1,932(s4)
   1ae22:	8d51                	or	a0,a0,a2
   1ae24:	3a5a4603          	lbu	a2,933(s4)
   1ae28:	3a6a4683          	lbu	a3,934(s4)
   1ae2c:	04a2                	slli	s1,s1,0x8
   1ae2e:	8f45                	or	a4,a4,s1
   1ae30:	0642                	slli	a2,a2,0x10
   1ae32:	06e2                	slli	a3,a3,0x18
   1ae34:	8e55                	or	a2,a2,a3
   1ae36:	08b11823          	sh	a1,144(sp)
   1ae3a:	09010923          	sb	a6,146(sp)
   1ae3e:	0117eab3          	or	s5,a5,a7
   1ae42:	8e59                	or	a2,a2,a4
   1ae44:	c8b2                	sw	a2,80(sp)
   1ae46:	04a11a23          	sh	a0,84(sp)
   1ae4a:	04510b23          	sb	t0,86(sp)
   1ae4e:	ca4fc06f          	j	172f2 <_start+0x650>
   1ae52:	3eea4503          	lbu	a0,1006(s4)
   1ae56:	3eda4583          	lbu	a1,1005(s4)
   1ae5a:	3efa4603          	lbu	a2,1007(s4)
   1ae5e:	3f0a2403          	lw	s0,1008(s4)
   1ae62:	0522                	slli	a0,a0,0x8
   1ae64:	8d4d                	or	a0,a0,a1
   1ae66:	4eaa1123          	sh	a0,1250(s4)
   1ae6a:	4eca0223          	sb	a2,1252(s4)
   1ae6e:	6505                	lui	a0,0x1
   1ae70:	38450513          	addi	a0,a0,900 # 1384 <.Lline_table_start1+0x1159>
   1ae74:	00a105b3          	add	a1,sp,a0
   1ae78:	6505                	lui	a0,0x1
   1ae7a:	32050513          	addi	a0,a0,800 # 1320 <.Lline_table_start1+0x10f5>
   1ae7e:	950a                	add	a0,a0,sp
   1ae80:	02300613          	li	a2,35
   1ae84:	00000097          	auipc	ra,0x0
   1ae88:	0ee080e7          	jalr	238(ra) # 1af72 <memcpy>
   1ae8c:	01845513          	srli	a0,s0,0x18
   1ae90:	01045593          	srli	a1,s0,0x10
   1ae94:	00845613          	srli	a2,s0,0x8
   1ae98:	4e8a02a3          	sb	s0,1253(s4)
   1ae9c:	4eca0323          	sb	a2,1254(s4)
   1aea0:	4eba03a3          	sb	a1,1255(s4)
   1aea4:	4eaa0423          	sb	a0,1256(s4)
   1aea8:	6505                	lui	a0,0x1
   1aeaa:	47950513          	addi	a0,a0,1145 # 1479 <.Lline_table_start1+0x124e>
   1aeae:	950a                	add	a0,a0,sp
   1aeb0:	6585                	lui	a1,0x1
   1aeb2:	32058593          	addi	a1,a1,800 # 1320 <.Lline_table_start1+0x10f5>
   1aeb6:	958a                	add	a1,a1,sp
   1aeb8:	02300613          	li	a2,35
   1aebc:	00000097          	auipc	ra,0x0
   1aec0:	0b6080e7          	jalr	182(ra) # 1af72 <memcpy>
   1aec4:	6505                	lui	a0,0x1
   1aec6:	37c50513          	addi	a0,a0,892 # 137c <.Lline_table_start1+0x1151>
   1aeca:	950a                	add	a0,a0,sp
   1aecc:	6585                	lui	a1,0x1
   1aece:	47258593          	addi	a1,a1,1138 # 1472 <.Lline_table_start1+0x1247>
   1aed2:	958a                	add	a1,a1,sp
   1aed4:	ffffc097          	auipc	ra,0xffffc
   1aed8:	cd4080e7          	jalr	-812(ra) # 16ba8 <_ZN20complex_full_dynamic3app17hfcbbaa7fc33a4f53E>
   1aedc:	3eca4503          	lbu	a0,1004(s4)
   1aee0:	3f0a2a83          	lw	s5,1008(s4)
   1aee4:	b471                	j	1a970 <_start+0x3cce>

0001aee6 <_ZN9allow_pin12full_dynamic17unshare_if_shared17h3494b15e905518bcE>:
   1aee6:	00854703          	lbu	a4,8(a0)
   1aeea:	4789                	li	a5,2
   1aeec:	00f70c63          	beq	a4,a5,1af04 <_ZN9allow_pin12full_dynamic17unshare_if_shared17h3494b15e905518bcE+0x1e>
   1aef0:	4110                	lw	a2,0(a0)
   1aef2:	414c                	lw	a1,4(a0)
   1aef4:	882a                	mv	a6,a0
   1aef6:	8532                	mv	a0,a2
   1aef8:	4601                	li	a2,0
   1aefa:	4681                	li	a3,0
   1aefc:	00000073          	ecall
   1af00:	00f80423          	sb	a5,8(a6)
   1af04:	8082                	ret

0001af06 <memset>:
   1af06:	46c1                	li	a3,16
   1af08:	04d66f63          	bltu	a2,a3,1af66 <memset+0x60>
   1af0c:	40a006b3          	neg	a3,a0
   1af10:	0036f813          	andi	a6,a3,3
   1af14:	01050733          	add	a4,a0,a6
   1af18:	00e57963          	bgeu	a0,a4,1af2a <memset+0x24>
   1af1c:	87c2                	mv	a5,a6
   1af1e:	86aa                	mv	a3,a0
   1af20:	00b68023          	sb	a1,0(a3)
   1af24:	17fd                	addi	a5,a5,-1
   1af26:	0685                	addi	a3,a3,1
   1af28:	ffe5                	bnez	a5,1af20 <memset+0x1a>
   1af2a:	41060633          	sub	a2,a2,a6
   1af2e:	ffc67693          	andi	a3,a2,-4
   1af32:	96ba                	add	a3,a3,a4
   1af34:	00d77e63          	bgeu	a4,a3,1af50 <memset+0x4a>
   1af38:	0ff5f813          	zext.b	a6,a1
   1af3c:	010107b7          	lui	a5,0x1010
   1af40:	10178793          	addi	a5,a5,257 # 1010101 <_ZN17compiler_builtins3mem6memcpy17h90d0c987d2ef5a79E+0xff5187>
   1af44:	02f807b3          	mul	a5,a6,a5
   1af48:	c31c                	sw	a5,0(a4)
   1af4a:	0711                	addi	a4,a4,4
   1af4c:	fed76ee3          	bltu	a4,a3,1af48 <memset+0x42>
   1af50:	8a0d                	andi	a2,a2,3
   1af52:	00c68733          	add	a4,a3,a2
   1af56:	00e6f763          	bgeu	a3,a4,1af64 <memset+0x5e>
   1af5a:	00b68023          	sb	a1,0(a3)
   1af5e:	167d                	addi	a2,a2,-1
   1af60:	0685                	addi	a3,a3,1
   1af62:	fe65                	bnez	a2,1af5a <memset+0x54>
   1af64:	8082                	ret
   1af66:	86aa                	mv	a3,a0
   1af68:	00c50733          	add	a4,a0,a2
   1af6c:	fee567e3          	bltu	a0,a4,1af5a <memset+0x54>
   1af70:	bfd5                	j	1af64 <memset+0x5e>

0001af72 <memcpy>:
   1af72:	00000317          	auipc	t1,0x0
   1af76:	00830067          	jr	8(t1) # 1af7a <_ZN17compiler_builtins3mem6memcpy17h90d0c987d2ef5a79E>

0001af7a <_ZN17compiler_builtins3mem6memcpy17h90d0c987d2ef5a79E>:
   1af7a:	1141                	addi	sp,sp,-16
   1af7c:	c622                	sw	s0,12(sp)
   1af7e:	46c1                	li	a3,16
   1af80:	06d66363          	bltu	a2,a3,1afe6 <_ZN17compiler_builtins3mem6memcpy17h90d0c987d2ef5a79E+0x6c>
   1af84:	40a006b3          	neg	a3,a0
   1af88:	0036f813          	andi	a6,a3,3
   1af8c:	01050fb3          	add	t6,a0,a6
   1af90:	01f57d63          	bgeu	a0,t6,1afaa <_ZN17compiler_builtins3mem6memcpy17h90d0c987d2ef5a79E+0x30>
   1af94:	8742                	mv	a4,a6
   1af96:	86aa                	mv	a3,a0
   1af98:	87ae                	mv	a5,a1
   1af9a:	0007c883          	lbu	a7,0(a5)
   1af9e:	177d                	addi	a4,a4,-1
   1afa0:	01168023          	sb	a7,0(a3)
   1afa4:	0685                	addi	a3,a3,1
   1afa6:	0785                	addi	a5,a5,1
   1afa8:	fb6d                	bnez	a4,1af9a <_ZN17compiler_builtins3mem6memcpy17h90d0c987d2ef5a79E+0x20>
   1afaa:	01058433          	add	s0,a1,a6
   1afae:	410608b3          	sub	a7,a2,a6
   1afb2:	ffc8f713          	andi	a4,a7,-4
   1afb6:	00347613          	andi	a2,s0,3
   1afba:	00ef86b3          	add	a3,t6,a4
   1afbe:	e621                	bnez	a2,1b006 <_ZN17compiler_builtins3mem6memcpy17h90d0c987d2ef5a79E+0x8c>
   1afc0:	00dffa63          	bgeu	t6,a3,1afd4 <_ZN17compiler_builtins3mem6memcpy17h90d0c987d2ef5a79E+0x5a>
   1afc4:	8622                	mv	a2,s0
   1afc6:	421c                	lw	a5,0(a2)
   1afc8:	00ffa023          	sw	a5,0(t6)
   1afcc:	0f91                	addi	t6,t6,4
   1afce:	0611                	addi	a2,a2,4
   1afd0:	fedfebe3          	bltu	t6,a3,1afc6 <_ZN17compiler_builtins3mem6memcpy17h90d0c987d2ef5a79E+0x4c>
   1afd4:	00e405b3          	add	a1,s0,a4
   1afd8:	0038f613          	andi	a2,a7,3
   1afdc:	00c68733          	add	a4,a3,a2
   1afe0:	00e6e863          	bltu	a3,a4,1aff0 <_ZN17compiler_builtins3mem6memcpy17h90d0c987d2ef5a79E+0x76>
   1afe4:	a831                	j	1b000 <_ZN17compiler_builtins3mem6memcpy17h90d0c987d2ef5a79E+0x86>
   1afe6:	86aa                	mv	a3,a0
   1afe8:	00c50733          	add	a4,a0,a2
   1afec:	00e57a63          	bgeu	a0,a4,1b000 <_ZN17compiler_builtins3mem6memcpy17h90d0c987d2ef5a79E+0x86>
   1aff0:	0005c703          	lbu	a4,0(a1)
   1aff4:	167d                	addi	a2,a2,-1
   1aff6:	00e68023          	sb	a4,0(a3)
   1affa:	0685                	addi	a3,a3,1
   1affc:	0585                	addi	a1,a1,1
   1affe:	fa6d                	bnez	a2,1aff0 <_ZN17compiler_builtins3mem6memcpy17h90d0c987d2ef5a79E+0x76>
   1b000:	4432                	lw	s0,12(sp)
   1b002:	0141                	addi	sp,sp,16
   1b004:	8082                	ret
   1b006:	4801                	li	a6,0
   1b008:	4791                	li	a5,4
   1b00a:	c402                	sw	zero,8(sp)
   1b00c:	40c783b3          	sub	t2,a5,a2
   1b010:	00810293          	addi	t0,sp,8
   1b014:	0013f313          	andi	t1,t2,1
   1b018:	00c2e2b3          	or	t0,t0,a2
   1b01c:	04031763          	bnez	t1,1b06a <_ZN17compiler_builtins3mem6memcpy17h90d0c987d2ef5a79E+0xf0>
   1b020:	0023f793          	andi	a5,t2,2
   1b024:	ebb9                	bnez	a5,1b07a <_ZN17compiler_builtins3mem6memcpy17h90d0c987d2ef5a79E+0x100>
   1b026:	4ea2                	lw	t4,8(sp)
   1b028:	00361813          	slli	a6,a2,0x3
   1b02c:	004f8793          	addi	a5,t6,4
   1b030:	40c40f33          	sub	t5,s0,a2
   1b034:	06d7f363          	bgeu	a5,a3,1b09a <_ZN17compiler_builtins3mem6memcpy17h90d0c987d2ef5a79E+0x120>
   1b038:	410007b3          	neg	a5,a6
   1b03c:	0187fe13          	andi	t3,a5,24
   1b040:	004f2283          	lw	t0,4(t5)
   1b044:	004f0393          	addi	t2,t5,4
   1b048:	010ed5b3          	srl	a1,t4,a6
   1b04c:	004f8313          	addi	t1,t6,4
   1b050:	01c297b3          	sll	a5,t0,t3
   1b054:	8ddd                	or	a1,a1,a5
   1b056:	008f8793          	addi	a5,t6,8
   1b05a:	00bfa023          	sw	a1,0(t6)
   1b05e:	8f9a                	mv	t6,t1
   1b060:	8f1e                	mv	t5,t2
   1b062:	8e96                	mv	t4,t0
   1b064:	fcd7eee3          	bltu	a5,a3,1b040 <_ZN17compiler_builtins3mem6memcpy17h90d0c987d2ef5a79E+0xc6>
   1b068:	a825                	j	1b0a0 <_ZN17compiler_builtins3mem6memcpy17h90d0c987d2ef5a79E+0x126>
   1b06a:	00044783          	lbu	a5,0(s0)
   1b06e:	00f28023          	sb	a5,0(t0)
   1b072:	4805                	li	a6,1
   1b074:	0023f793          	andi	a5,t2,2
   1b078:	d7dd                	beqz	a5,1b026 <_ZN17compiler_builtins3mem6memcpy17h90d0c987d2ef5a79E+0xac>
   1b07a:	010407b3          	add	a5,s0,a6
   1b07e:	00079783          	lh	a5,0(a5)
   1b082:	9816                	add	a6,a6,t0
   1b084:	00f81023          	sh	a5,0(a6)
   1b088:	4ea2                	lw	t4,8(sp)
   1b08a:	00361813          	slli	a6,a2,0x3
   1b08e:	004f8793          	addi	a5,t6,4
   1b092:	40c40f33          	sub	t5,s0,a2
   1b096:	fad7e1e3          	bltu	a5,a3,1b038 <_ZN17compiler_builtins3mem6memcpy17h90d0c987d2ef5a79E+0xbe>
   1b09a:	82f6                	mv	t0,t4
   1b09c:	83fa                	mv	t2,t5
   1b09e:	837e                	mv	t1,t6
   1b0a0:	00010223          	sb	zero,4(sp)
   1b0a4:	4785                	li	a5,1
   1b0a6:	00010123          	sb	zero,2(sp)
   1b0aa:	00f61763          	bne	a2,a5,1b0b8 <_ZN17compiler_builtins3mem6memcpy17h90d0c987d2ef5a79E+0x13e>
   1b0ae:	4781                	li	a5,0
   1b0b0:	4e01                	li	t3,0
   1b0b2:	4e81                	li	t4,0
   1b0b4:	0050                	addi	a2,sp,4
   1b0b6:	a819                	j	1b0cc <_ZN17compiler_builtins3mem6memcpy17h90d0c987d2ef5a79E+0x152>
   1b0b8:	0043c783          	lbu	a5,4(t2)
   1b0bc:	0053ce03          	lbu	t3,5(t2)
   1b0c0:	4e89                	li	t4,2
   1b0c2:	00f10223          	sb	a5,4(sp)
   1b0c6:	0e22                	slli	t3,t3,0x8
   1b0c8:	00210613          	addi	a2,sp,2
   1b0cc:	00147593          	andi	a1,s0,1
   1b0d0:	e199                	bnez	a1,1b0d6 <_ZN17compiler_builtins3mem6memcpy17h90d0c987d2ef5a79E+0x15c>
   1b0d2:	4601                	li	a2,0
   1b0d4:	a821                	j	1b0ec <_ZN17compiler_builtins3mem6memcpy17h90d0c987d2ef5a79E+0x172>
   1b0d6:	0391                	addi	t2,t2,4
   1b0d8:	93f6                	add	t2,t2,t4
   1b0da:	0003c583          	lbu	a1,0(t2)
   1b0de:	00b60023          	sb	a1,0(a2)
   1b0e2:	00214603          	lbu	a2,2(sp)
   1b0e6:	00414783          	lbu	a5,4(sp)
   1b0ea:	0642                	slli	a2,a2,0x10
   1b0ec:	8e5d                	or	a2,a2,a5
   1b0ee:	0102d5b3          	srl	a1,t0,a6
   1b0f2:	410007b3          	neg	a5,a6
   1b0f6:	00ce6633          	or	a2,t3,a2
   1b0fa:	8be1                	andi	a5,a5,24
   1b0fc:	00f61633          	sll	a2,a2,a5
   1b100:	8dd1                	or	a1,a1,a2
   1b102:	00b32023          	sw	a1,0(t1)
   1b106:	00e405b3          	add	a1,s0,a4
   1b10a:	0038f613          	andi	a2,a7,3
   1b10e:	00c68733          	add	a4,a3,a2
   1b112:	ece6efe3          	bltu	a3,a4,1aff0 <_ZN17compiler_builtins3mem6memcpy17h90d0c987d2ef5a79E+0x76>
   1b116:	b5ed                	j	1b000 <_ZN17compiler_builtins3mem6memcpy17h90d0c987d2ef5a79E+0x86>
