
target/thumbv6m-none-eabi/opt-s/examples/complex_no_dynamic:     file format elf32-littlearm

Sections:
Idx Name          Size      VMA       LMA       File off  Algn
  0 .ARM.exidx    00000010  000100d4  000100d4  000000d4  2**2
                  CONTENTS, ALLOC, LOAD, READONLY, DATA
  1 .text         00006de4  000200e4  000200e4  000000e4  2**2
                  CONTENTS, ALLOC, LOAD, READONLY, CODE
  2 .comment      0000008b  00000000  00000000  00006ec8  2**0
                  CONTENTS, READONLY
  3 .ARM.attributes 00000032  00000000  00000000  00006f53  2**0
                  CONTENTS, READONLY

Disassembly of section .text:

000200e4 <_ZN18complex_no_dynamic3app17h0608c81a0bf0e902E>:
   200e4:	b5f0      	push	{r4, r5, r6, r7, lr}
   200e6:	af03      	add	r7, sp, #12
   200e8:	b09f      	sub	sp, #124	@ 0x7c
   200ea:	4604      	mov	r4, r0
   200ec:	ad01      	add	r5, sp, #4
   200ee:	2622      	movs	r6, #34	@ 0x22
   200f0:	4628      	mov	r0, r5
   200f2:	4632      	mov	r2, r6
   200f4:	f006 fee3 	bl	26ebe <__aeabi_memcpy>
   200f8:	a80a      	add	r0, sp, #40	@ 0x28
   200fa:	2151      	movs	r1, #81	@ 0x51
   200fc:	f006 fd32 	bl	26b64 <__aeabi_memclr4>
   20100:	4822      	ldr	r0, [pc, #136]	@ (2018c <_ZN18complex_no_dynamic3app17h0608c81a0bf0e902E+0xa8>)
   20102:	2109      	movs	r1, #9
   20104:	462a      	mov	r2, r5
   20106:	4633      	mov	r3, r6
   20108:	df04      	svc	4
   2010a:	2802      	cmp	r0, #2
   2010c:	d00e      	beq.n	2012c <_ZN18complex_no_dynamic3app17h0608c81a0bf0e902E+0x48>
   2010e:	481f      	ldr	r0, [pc, #124]	@ (2018c <_ZN18complex_no_dynamic3app17h0608c81a0bf0e902E+0xa8>)
   20110:	2109      	movs	r1, #9
   20112:	aa0a      	add	r2, sp, #40	@ 0x28
   20114:	2351      	movs	r3, #81	@ 0x51
   20116:	df03      	svc	3
   20118:	2802      	cmp	r0, #2
   2011a:	d007      	beq.n	2012c <_ZN18complex_no_dynamic3app17h0608c81a0bf0e902E+0x48>
   2011c:	481b      	ldr	r0, [pc, #108]	@ (2018c <_ZN18complex_no_dynamic3app17h0608c81a0bf0e902E+0xa8>)
   2011e:	2109      	movs	r1, #9
   20120:	2500      	movs	r5, #0
   20122:	460a      	mov	r2, r1
   20124:	462b      	mov	r3, r5
   20126:	df02      	svc	2
   20128:	287f      	cmp	r0, #127	@ 0x7f
   2012a:	d811      	bhi.n	20150 <_ZN18complex_no_dynamic3app17h0608c81a0bf0e902E+0x6c>
   2012c:	2001      	movs	r0, #1
   2012e:	7020      	strb	r0, [r4, #0]
   20130:	6061      	str	r1, [r4, #4]
   20132:	4c16      	ldr	r4, [pc, #88]	@ (2018c <_ZN18complex_no_dynamic3app17h0608c81a0bf0e902E+0xa8>)
   20134:	2509      	movs	r5, #9
   20136:	2600      	movs	r6, #0
   20138:	4620      	mov	r0, r4
   2013a:	4629      	mov	r1, r5
   2013c:	4632      	mov	r2, r6
   2013e:	4633      	mov	r3, r6
   20140:	df03      	svc	3
   20142:	4620      	mov	r0, r4
   20144:	4629      	mov	r1, r5
   20146:	4632      	mov	r2, r6
   20148:	4633      	mov	r3, r6
   2014a:	df04      	svc	4
   2014c:	b01f      	add	sp, #124	@ 0x7c
   2014e:	bdf0      	pop	{r4, r5, r6, r7, pc}
   20150:	480e      	ldr	r0, [pc, #56]	@ (2018c <_ZN18complex_no_dynamic3app17h0608c81a0bf0e902E+0xa8>)
   20152:	2609      	movs	r6, #9
   20154:	4631      	mov	r1, r6
   20156:	462a      	mov	r2, r5
   20158:	462b      	mov	r3, r5
   2015a:	df03      	svc	3
   2015c:	480b      	ldr	r0, [pc, #44]	@ (2018c <_ZN18complex_no_dynamic3app17h0608c81a0bf0e902E+0xa8>)
   2015e:	4631      	mov	r1, r6
   20160:	462a      	mov	r2, r5
   20162:	462b      	mov	r3, r5
   20164:	df03      	svc	3
   20166:	1c60      	adds	r0, r4, #1
   20168:	a90a      	add	r1, sp, #40	@ 0x28
   2016a:	2251      	movs	r2, #81	@ 0x51
   2016c:	f006 fea7 	bl	26ebe <__aeabi_memcpy>
   20170:	7025      	strb	r5, [r4, #0]
   20172:	4c06      	ldr	r4, [pc, #24]	@ (2018c <_ZN18complex_no_dynamic3app17h0608c81a0bf0e902E+0xa8>)
   20174:	4620      	mov	r0, r4
   20176:	4631      	mov	r1, r6
   20178:	462a      	mov	r2, r5
   2017a:	462b      	mov	r3, r5
   2017c:	df03      	svc	3
   2017e:	4620      	mov	r0, r4
   20180:	4631      	mov	r1, r6
   20182:	462a      	mov	r2, r5
   20184:	462b      	mov	r3, r5
   20186:	df04      	svc	4
   20188:	e7e0      	b.n	2014c <_ZN18complex_no_dynamic3app17h0608c81a0bf0e902E+0x68>
   2018a:	46c0      	nop			@ (mov r8, r8)
   2018c:	0000055e 	.word	0x0000055e

00020190 <_ZN18complex_no_dynamic3app17h0b8cbe69ef9acf40E>:
   20190:	b5f0      	push	{r4, r5, r6, r7, lr}
   20192:	af03      	add	r7, sp, #12
   20194:	b0a3      	sub	sp, #140	@ 0x8c
   20196:	4604      	mov	r4, r0
   20198:	466d      	mov	r5, sp
   2019a:	2663      	movs	r6, #99	@ 0x63
   2019c:	4628      	mov	r0, r5
   2019e:	4632      	mov	r2, r6
   201a0:	f006 fe8d 	bl	26ebe <__aeabi_memcpy>
   201a4:	a819      	add	r0, sp, #100	@ 0x64
   201a6:	2127      	movs	r1, #39	@ 0x27
   201a8:	f006 fcdc 	bl	26b64 <__aeabi_memclr4>
   201ac:	4821      	ldr	r0, [pc, #132]	@ (20234 <_ZN18complex_no_dynamic3app17h0b8cbe69ef9acf40E+0xa4>)
   201ae:	2107      	movs	r1, #7
   201b0:	462a      	mov	r2, r5
   201b2:	4633      	mov	r3, r6
   201b4:	df04      	svc	4
   201b6:	2802      	cmp	r0, #2
   201b8:	d00e      	beq.n	201d8 <_ZN18complex_no_dynamic3app17h0b8cbe69ef9acf40E+0x48>
   201ba:	481e      	ldr	r0, [pc, #120]	@ (20234 <_ZN18complex_no_dynamic3app17h0b8cbe69ef9acf40E+0xa4>)
   201bc:	2100      	movs	r1, #0
   201be:	aa19      	add	r2, sp, #100	@ 0x64
   201c0:	2327      	movs	r3, #39	@ 0x27
   201c2:	df03      	svc	3
   201c4:	2802      	cmp	r0, #2
   201c6:	d007      	beq.n	201d8 <_ZN18complex_no_dynamic3app17h0b8cbe69ef9acf40E+0x48>
   201c8:	481a      	ldr	r0, [pc, #104]	@ (20234 <_ZN18complex_no_dynamic3app17h0b8cbe69ef9acf40E+0xa4>)
   201ca:	2107      	movs	r1, #7
   201cc:	2500      	movs	r5, #0
   201ce:	462a      	mov	r2, r5
   201d0:	462b      	mov	r3, r5
   201d2:	df02      	svc	2
   201d4:	287f      	cmp	r0, #127	@ 0x7f
   201d6:	d810      	bhi.n	201fa <_ZN18complex_no_dynamic3app17h0b8cbe69ef9acf40E+0x6a>
   201d8:	2001      	movs	r0, #1
   201da:	7020      	strb	r0, [r4, #0]
   201dc:	6061      	str	r1, [r4, #4]
   201de:	4c15      	ldr	r4, [pc, #84]	@ (20234 <_ZN18complex_no_dynamic3app17h0b8cbe69ef9acf40E+0xa4>)
   201e0:	2500      	movs	r5, #0
   201e2:	4620      	mov	r0, r4
   201e4:	4629      	mov	r1, r5
   201e6:	462a      	mov	r2, r5
   201e8:	462b      	mov	r3, r5
   201ea:	df03      	svc	3
   201ec:	2107      	movs	r1, #7
   201ee:	4620      	mov	r0, r4
   201f0:	462a      	mov	r2, r5
   201f2:	462b      	mov	r3, r5
   201f4:	df04      	svc	4
   201f6:	b023      	add	sp, #140	@ 0x8c
   201f8:	bdf0      	pop	{r4, r5, r6, r7, pc}
   201fa:	4e0e      	ldr	r6, [pc, #56]	@ (20234 <_ZN18complex_no_dynamic3app17h0b8cbe69ef9acf40E+0xa4>)
   201fc:	4630      	mov	r0, r6
   201fe:	4629      	mov	r1, r5
   20200:	462a      	mov	r2, r5
   20202:	462b      	mov	r3, r5
   20204:	df03      	svc	3
   20206:	4630      	mov	r0, r6
   20208:	4629      	mov	r1, r5
   2020a:	462a      	mov	r2, r5
   2020c:	462b      	mov	r3, r5
   2020e:	df03      	svc	3
   20210:	1c60      	adds	r0, r4, #1
   20212:	a919      	add	r1, sp, #100	@ 0x64
   20214:	2227      	movs	r2, #39	@ 0x27
   20216:	f006 fe52 	bl	26ebe <__aeabi_memcpy>
   2021a:	7025      	strb	r5, [r4, #0]
   2021c:	4630      	mov	r0, r6
   2021e:	4629      	mov	r1, r5
   20220:	462a      	mov	r2, r5
   20222:	462b      	mov	r3, r5
   20224:	df03      	svc	3
   20226:	2107      	movs	r1, #7
   20228:	4630      	mov	r0, r6
   2022a:	462a      	mov	r2, r5
   2022c:	462b      	mov	r3, r5
   2022e:	df04      	svc	4
   20230:	e7e1      	b.n	201f6 <_ZN18complex_no_dynamic3app17h0b8cbe69ef9acf40E+0x66>
   20232:	46c0      	nop			@ (mov r8, r8)
   20234:	00001e54 	.word	0x00001e54

00020238 <_ZN18complex_no_dynamic3app17h0cda77ed774b1bc3E>:
   20238:	b5f0      	push	{r4, r5, r6, r7, lr}
   2023a:	af03      	add	r7, sp, #12
   2023c:	b095      	sub	sp, #84	@ 0x54
   2023e:	4604      	mov	r4, r0
   20240:	ad01      	add	r5, sp, #4
   20242:	2634      	movs	r6, #52	@ 0x34
   20244:	4628      	mov	r0, r5
   20246:	4632      	mov	r2, r6
   20248:	f006 fe39 	bl	26ebe <__aeabi_memcpy>
   2024c:	a80e      	add	r0, sp, #56	@ 0x38
   2024e:	211a      	movs	r1, #26
   20250:	f006 fc88 	bl	26b64 <__aeabi_memclr4>
   20254:	4821      	ldr	r0, [pc, #132]	@ (202dc <_ZN18complex_no_dynamic3app17h0cda77ed774b1bc3E+0xa4>)
   20256:	2100      	movs	r1, #0
   20258:	462a      	mov	r2, r5
   2025a:	4633      	mov	r3, r6
   2025c:	df04      	svc	4
   2025e:	2802      	cmp	r0, #2
   20260:	d00e      	beq.n	20280 <_ZN18complex_no_dynamic3app17h0cda77ed774b1bc3E+0x48>
   20262:	481e      	ldr	r0, [pc, #120]	@ (202dc <_ZN18complex_no_dynamic3app17h0cda77ed774b1bc3E+0xa4>)
   20264:	2105      	movs	r1, #5
   20266:	aa0e      	add	r2, sp, #56	@ 0x38
   20268:	231a      	movs	r3, #26
   2026a:	df03      	svc	3
   2026c:	2802      	cmp	r0, #2
   2026e:	d007      	beq.n	20280 <_ZN18complex_no_dynamic3app17h0cda77ed774b1bc3E+0x48>
   20270:	481a      	ldr	r0, [pc, #104]	@ (202dc <_ZN18complex_no_dynamic3app17h0cda77ed774b1bc3E+0xa4>)
   20272:	2205      	movs	r2, #5
   20274:	2500      	movs	r5, #0
   20276:	4629      	mov	r1, r5
   20278:	462b      	mov	r3, r5
   2027a:	df02      	svc	2
   2027c:	287f      	cmp	r0, #127	@ 0x7f
   2027e:	d810      	bhi.n	202a2 <_ZN18complex_no_dynamic3app17h0cda77ed774b1bc3E+0x6a>
   20280:	2001      	movs	r0, #1
   20282:	7020      	strb	r0, [r4, #0]
   20284:	6061      	str	r1, [r4, #4]
   20286:	4c15      	ldr	r4, [pc, #84]	@ (202dc <_ZN18complex_no_dynamic3app17h0cda77ed774b1bc3E+0xa4>)
   20288:	2105      	movs	r1, #5
   2028a:	2500      	movs	r5, #0
   2028c:	4620      	mov	r0, r4
   2028e:	462a      	mov	r2, r5
   20290:	462b      	mov	r3, r5
   20292:	df03      	svc	3
   20294:	4620      	mov	r0, r4
   20296:	4629      	mov	r1, r5
   20298:	462a      	mov	r2, r5
   2029a:	462b      	mov	r3, r5
   2029c:	df04      	svc	4
   2029e:	b015      	add	sp, #84	@ 0x54
   202a0:	bdf0      	pop	{r4, r5, r6, r7, pc}
   202a2:	480e      	ldr	r0, [pc, #56]	@ (202dc <_ZN18complex_no_dynamic3app17h0cda77ed774b1bc3E+0xa4>)
   202a4:	2605      	movs	r6, #5
   202a6:	4631      	mov	r1, r6
   202a8:	462a      	mov	r2, r5
   202aa:	462b      	mov	r3, r5
   202ac:	df03      	svc	3
   202ae:	480b      	ldr	r0, [pc, #44]	@ (202dc <_ZN18complex_no_dynamic3app17h0cda77ed774b1bc3E+0xa4>)
   202b0:	4631      	mov	r1, r6
   202b2:	462a      	mov	r2, r5
   202b4:	462b      	mov	r3, r5
   202b6:	df03      	svc	3
   202b8:	1c60      	adds	r0, r4, #1
   202ba:	a90e      	add	r1, sp, #56	@ 0x38
   202bc:	221a      	movs	r2, #26
   202be:	f006 fdfe 	bl	26ebe <__aeabi_memcpy>
   202c2:	7025      	strb	r5, [r4, #0]
   202c4:	4c05      	ldr	r4, [pc, #20]	@ (202dc <_ZN18complex_no_dynamic3app17h0cda77ed774b1bc3E+0xa4>)
   202c6:	4620      	mov	r0, r4
   202c8:	4631      	mov	r1, r6
   202ca:	462a      	mov	r2, r5
   202cc:	462b      	mov	r3, r5
   202ce:	df03      	svc	3
   202d0:	4620      	mov	r0, r4
   202d2:	4629      	mov	r1, r5
   202d4:	462a      	mov	r2, r5
   202d6:	462b      	mov	r3, r5
   202d8:	df04      	svc	4
   202da:	e7e0      	b.n	2029e <_ZN18complex_no_dynamic3app17h0cda77ed774b1bc3E+0x66>
   202dc:	000012cc 	.word	0x000012cc

000202e0 <_ZN18complex_no_dynamic3app17h0f27882851c07908E>:
   202e0:	b5f0      	push	{r4, r5, r6, r7, lr}
   202e2:	af03      	add	r7, sp, #12
   202e4:	b09d      	sub	sp, #116	@ 0x74
   202e6:	4604      	mov	r4, r0
   202e8:	466d      	mov	r5, sp
   202ea:	2648      	movs	r6, #72	@ 0x48
   202ec:	4628      	mov	r0, r5
   202ee:	4632      	mov	r2, r6
   202f0:	f006 fde5 	bl	26ebe <__aeabi_memcpy>
   202f4:	a812      	add	r0, sp, #72	@ 0x48
   202f6:	2129      	movs	r1, #41	@ 0x29
   202f8:	f006 fc34 	bl	26b64 <__aeabi_memclr4>
   202fc:	4821      	ldr	r0, [pc, #132]	@ (20384 <_ZN18complex_no_dynamic3app17h0f27882851c07908E+0xa4>)
   202fe:	2103      	movs	r1, #3
   20300:	462a      	mov	r2, r5
   20302:	4633      	mov	r3, r6
   20304:	df04      	svc	4
   20306:	2802      	cmp	r0, #2
   20308:	d00e      	beq.n	20328 <_ZN18complex_no_dynamic3app17h0f27882851c07908E+0x48>
   2030a:	481e      	ldr	r0, [pc, #120]	@ (20384 <_ZN18complex_no_dynamic3app17h0f27882851c07908E+0xa4>)
   2030c:	2104      	movs	r1, #4
   2030e:	aa12      	add	r2, sp, #72	@ 0x48
   20310:	2329      	movs	r3, #41	@ 0x29
   20312:	df03      	svc	3
   20314:	2802      	cmp	r0, #2
   20316:	d007      	beq.n	20328 <_ZN18complex_no_dynamic3app17h0f27882851c07908E+0x48>
   20318:	481a      	ldr	r0, [pc, #104]	@ (20384 <_ZN18complex_no_dynamic3app17h0f27882851c07908E+0xa4>)
   2031a:	2103      	movs	r1, #3
   2031c:	2204      	movs	r2, #4
   2031e:	2500      	movs	r5, #0
   20320:	462b      	mov	r3, r5
   20322:	df02      	svc	2
   20324:	287f      	cmp	r0, #127	@ 0x7f
   20326:	d810      	bhi.n	2034a <_ZN18complex_no_dynamic3app17h0f27882851c07908E+0x6a>
   20328:	2001      	movs	r0, #1
   2032a:	7020      	strb	r0, [r4, #0]
   2032c:	6061      	str	r1, [r4, #4]
   2032e:	4c15      	ldr	r4, [pc, #84]	@ (20384 <_ZN18complex_no_dynamic3app17h0f27882851c07908E+0xa4>)
   20330:	2104      	movs	r1, #4
   20332:	2500      	movs	r5, #0
   20334:	4620      	mov	r0, r4
   20336:	462a      	mov	r2, r5
   20338:	462b      	mov	r3, r5
   2033a:	df03      	svc	3
   2033c:	2103      	movs	r1, #3
   2033e:	4620      	mov	r0, r4
   20340:	462a      	mov	r2, r5
   20342:	462b      	mov	r3, r5
   20344:	df04      	svc	4
   20346:	b01d      	add	sp, #116	@ 0x74
   20348:	bdf0      	pop	{r4, r5, r6, r7, pc}
   2034a:	480e      	ldr	r0, [pc, #56]	@ (20384 <_ZN18complex_no_dynamic3app17h0f27882851c07908E+0xa4>)
   2034c:	2604      	movs	r6, #4
   2034e:	4631      	mov	r1, r6
   20350:	462a      	mov	r2, r5
   20352:	462b      	mov	r3, r5
   20354:	df03      	svc	3
   20356:	480b      	ldr	r0, [pc, #44]	@ (20384 <_ZN18complex_no_dynamic3app17h0f27882851c07908E+0xa4>)
   20358:	4631      	mov	r1, r6
   2035a:	462a      	mov	r2, r5
   2035c:	462b      	mov	r3, r5
   2035e:	df03      	svc	3
   20360:	1c60      	adds	r0, r4, #1
   20362:	a912      	add	r1, sp, #72	@ 0x48
   20364:	2229      	movs	r2, #41	@ 0x29
   20366:	f006 fdaa 	bl	26ebe <__aeabi_memcpy>
   2036a:	7025      	strb	r5, [r4, #0]
   2036c:	4c05      	ldr	r4, [pc, #20]	@ (20384 <_ZN18complex_no_dynamic3app17h0f27882851c07908E+0xa4>)
   2036e:	4620      	mov	r0, r4
   20370:	4631      	mov	r1, r6
   20372:	462a      	mov	r2, r5
   20374:	462b      	mov	r3, r5
   20376:	df03      	svc	3
   20378:	2103      	movs	r1, #3
   2037a:	4620      	mov	r0, r4
   2037c:	462a      	mov	r2, r5
   2037e:	462b      	mov	r3, r5
   20380:	df04      	svc	4
   20382:	e7e0      	b.n	20346 <_ZN18complex_no_dynamic3app17h0f27882851c07908E+0x66>
   20384:	000026a4 	.word	0x000026a4

00020388 <_ZN18complex_no_dynamic3app17h10152cc998e72bb6E>:
   20388:	b5f0      	push	{r4, r5, r6, r7, lr}
   2038a:	af03      	add	r7, sp, #12
   2038c:	b08d      	sub	sp, #52	@ 0x34
   2038e:	4604      	mov	r4, r0
   20390:	466d      	mov	r5, sp
   20392:	260d      	movs	r6, #13
   20394:	4628      	mov	r0, r5
   20396:	4632      	mov	r2, r6
   20398:	f006 fd91 	bl	26ebe <__aeabi_memcpy>
   2039c:	a804      	add	r0, sp, #16
   2039e:	2121      	movs	r1, #33	@ 0x21
   203a0:	f006 fbe0 	bl	26b64 <__aeabi_memclr4>
   203a4:	4821      	ldr	r0, [pc, #132]	@ (2042c <_ZN18complex_no_dynamic3app17h10152cc998e72bb6E+0xa4>)
   203a6:	2100      	movs	r1, #0
   203a8:	462a      	mov	r2, r5
   203aa:	4633      	mov	r3, r6
   203ac:	df04      	svc	4
   203ae:	2802      	cmp	r0, #2
   203b0:	d00e      	beq.n	203d0 <_ZN18complex_no_dynamic3app17h10152cc998e72bb6E+0x48>
   203b2:	481e      	ldr	r0, [pc, #120]	@ (2042c <_ZN18complex_no_dynamic3app17h10152cc998e72bb6E+0xa4>)
   203b4:	2100      	movs	r1, #0
   203b6:	aa04      	add	r2, sp, #16
   203b8:	2321      	movs	r3, #33	@ 0x21
   203ba:	df03      	svc	3
   203bc:	2802      	cmp	r0, #2
   203be:	d007      	beq.n	203d0 <_ZN18complex_no_dynamic3app17h10152cc998e72bb6E+0x48>
   203c0:	481a      	ldr	r0, [pc, #104]	@ (2042c <_ZN18complex_no_dynamic3app17h10152cc998e72bb6E+0xa4>)
   203c2:	2500      	movs	r5, #0
   203c4:	4629      	mov	r1, r5
   203c6:	462a      	mov	r2, r5
   203c8:	462b      	mov	r3, r5
   203ca:	df02      	svc	2
   203cc:	287f      	cmp	r0, #127	@ 0x7f
   203ce:	d810      	bhi.n	203f2 <_ZN18complex_no_dynamic3app17h10152cc998e72bb6E+0x6a>
   203d0:	2001      	movs	r0, #1
   203d2:	7020      	strb	r0, [r4, #0]
   203d4:	6061      	str	r1, [r4, #4]
   203d6:	4c15      	ldr	r4, [pc, #84]	@ (2042c <_ZN18complex_no_dynamic3app17h10152cc998e72bb6E+0xa4>)
   203d8:	2500      	movs	r5, #0
   203da:	4620      	mov	r0, r4
   203dc:	4629      	mov	r1, r5
   203de:	462a      	mov	r2, r5
   203e0:	462b      	mov	r3, r5
   203e2:	df03      	svc	3
   203e4:	4620      	mov	r0, r4
   203e6:	4629      	mov	r1, r5
   203e8:	462a      	mov	r2, r5
   203ea:	462b      	mov	r3, r5
   203ec:	df04      	svc	4
   203ee:	b00d      	add	sp, #52	@ 0x34
   203f0:	bdf0      	pop	{r4, r5, r6, r7, pc}
   203f2:	4e0e      	ldr	r6, [pc, #56]	@ (2042c <_ZN18complex_no_dynamic3app17h10152cc998e72bb6E+0xa4>)
   203f4:	4630      	mov	r0, r6
   203f6:	4629      	mov	r1, r5
   203f8:	462a      	mov	r2, r5
   203fa:	462b      	mov	r3, r5
   203fc:	df03      	svc	3
   203fe:	4630      	mov	r0, r6
   20400:	4629      	mov	r1, r5
   20402:	462a      	mov	r2, r5
   20404:	462b      	mov	r3, r5
   20406:	df03      	svc	3
   20408:	1c60      	adds	r0, r4, #1
   2040a:	a904      	add	r1, sp, #16
   2040c:	2221      	movs	r2, #33	@ 0x21
   2040e:	f006 fd56 	bl	26ebe <__aeabi_memcpy>
   20412:	7025      	strb	r5, [r4, #0]
   20414:	4630      	mov	r0, r6
   20416:	4629      	mov	r1, r5
   20418:	462a      	mov	r2, r5
   2041a:	462b      	mov	r3, r5
   2041c:	df03      	svc	3
   2041e:	4630      	mov	r0, r6
   20420:	4629      	mov	r1, r5
   20422:	462a      	mov	r2, r5
   20424:	462b      	mov	r3, r5
   20426:	df04      	svc	4
   20428:	e7e1      	b.n	203ee <_ZN18complex_no_dynamic3app17h10152cc998e72bb6E+0x66>
   2042a:	46c0      	nop			@ (mov r8, r8)
   2042c:	000016b0 	.word	0x000016b0

00020430 <_ZN18complex_no_dynamic3app17h1141dd3324232993E>:
   20430:	b5f0      	push	{r4, r5, r6, r7, lr}
   20432:	af03      	add	r7, sp, #12
   20434:	b0a7      	sub	sp, #156	@ 0x9c
   20436:	4604      	mov	r4, r0
   20438:	466d      	mov	r5, sp
   2043a:	263a      	movs	r6, #58	@ 0x3a
   2043c:	4628      	mov	r0, r5
   2043e:	4632      	mov	r2, r6
   20440:	f006 fd3d 	bl	26ebe <__aeabi_memcpy>
   20444:	a80f      	add	r0, sp, #60	@ 0x3c
   20446:	215d      	movs	r1, #93	@ 0x5d
   20448:	f006 fb8c 	bl	26b64 <__aeabi_memclr4>
   2044c:	4821      	ldr	r0, [pc, #132]	@ (204d4 <_ZN18complex_no_dynamic3app17h1141dd3324232993E+0xa4>)
   2044e:	2100      	movs	r1, #0
   20450:	462a      	mov	r2, r5
   20452:	4633      	mov	r3, r6
   20454:	df04      	svc	4
   20456:	2802      	cmp	r0, #2
   20458:	d00e      	beq.n	20478 <_ZN18complex_no_dynamic3app17h1141dd3324232993E+0x48>
   2045a:	481e      	ldr	r0, [pc, #120]	@ (204d4 <_ZN18complex_no_dynamic3app17h1141dd3324232993E+0xa4>)
   2045c:	2105      	movs	r1, #5
   2045e:	aa0f      	add	r2, sp, #60	@ 0x3c
   20460:	235d      	movs	r3, #93	@ 0x5d
   20462:	df03      	svc	3
   20464:	2802      	cmp	r0, #2
   20466:	d007      	beq.n	20478 <_ZN18complex_no_dynamic3app17h1141dd3324232993E+0x48>
   20468:	481a      	ldr	r0, [pc, #104]	@ (204d4 <_ZN18complex_no_dynamic3app17h1141dd3324232993E+0xa4>)
   2046a:	2205      	movs	r2, #5
   2046c:	2500      	movs	r5, #0
   2046e:	4629      	mov	r1, r5
   20470:	462b      	mov	r3, r5
   20472:	df02      	svc	2
   20474:	287f      	cmp	r0, #127	@ 0x7f
   20476:	d810      	bhi.n	2049a <_ZN18complex_no_dynamic3app17h1141dd3324232993E+0x6a>
   20478:	2001      	movs	r0, #1
   2047a:	7020      	strb	r0, [r4, #0]
   2047c:	6061      	str	r1, [r4, #4]
   2047e:	4c15      	ldr	r4, [pc, #84]	@ (204d4 <_ZN18complex_no_dynamic3app17h1141dd3324232993E+0xa4>)
   20480:	2105      	movs	r1, #5
   20482:	2500      	movs	r5, #0
   20484:	4620      	mov	r0, r4
   20486:	462a      	mov	r2, r5
   20488:	462b      	mov	r3, r5
   2048a:	df03      	svc	3
   2048c:	4620      	mov	r0, r4
   2048e:	4629      	mov	r1, r5
   20490:	462a      	mov	r2, r5
   20492:	462b      	mov	r3, r5
   20494:	df04      	svc	4
   20496:	b027      	add	sp, #156	@ 0x9c
   20498:	bdf0      	pop	{r4, r5, r6, r7, pc}
   2049a:	480e      	ldr	r0, [pc, #56]	@ (204d4 <_ZN18complex_no_dynamic3app17h1141dd3324232993E+0xa4>)
   2049c:	2605      	movs	r6, #5
   2049e:	4631      	mov	r1, r6
   204a0:	462a      	mov	r2, r5
   204a2:	462b      	mov	r3, r5
   204a4:	df03      	svc	3
   204a6:	480b      	ldr	r0, [pc, #44]	@ (204d4 <_ZN18complex_no_dynamic3app17h1141dd3324232993E+0xa4>)
   204a8:	4631      	mov	r1, r6
   204aa:	462a      	mov	r2, r5
   204ac:	462b      	mov	r3, r5
   204ae:	df03      	svc	3
   204b0:	1c60      	adds	r0, r4, #1
   204b2:	a90f      	add	r1, sp, #60	@ 0x3c
   204b4:	225d      	movs	r2, #93	@ 0x5d
   204b6:	f006 fd02 	bl	26ebe <__aeabi_memcpy>
   204ba:	7025      	strb	r5, [r4, #0]
   204bc:	4c05      	ldr	r4, [pc, #20]	@ (204d4 <_ZN18complex_no_dynamic3app17h1141dd3324232993E+0xa4>)
   204be:	4620      	mov	r0, r4
   204c0:	4631      	mov	r1, r6
   204c2:	462a      	mov	r2, r5
   204c4:	462b      	mov	r3, r5
   204c6:	df03      	svc	3
   204c8:	4620      	mov	r0, r4
   204ca:	4629      	mov	r1, r5
   204cc:	462a      	mov	r2, r5
   204ce:	462b      	mov	r3, r5
   204d0:	df04      	svc	4
   204d2:	e7e0      	b.n	20496 <_ZN18complex_no_dynamic3app17h1141dd3324232993E+0x66>
   204d4:	000014a4 	.word	0x000014a4

000204d8 <_ZN18complex_no_dynamic3app17h131868ad386cd814E>:
   204d8:	b5f0      	push	{r4, r5, r6, r7, lr}
   204da:	af03      	add	r7, sp, #12
   204dc:	b091      	sub	sp, #68	@ 0x44
   204de:	4604      	mov	r4, r0
   204e0:	466d      	mov	r5, sp
   204e2:	2632      	movs	r6, #50	@ 0x32
   204e4:	4628      	mov	r0, r5
   204e6:	4632      	mov	r2, r6
   204e8:	f006 fce9 	bl	26ebe <__aeabi_memcpy>
   204ec:	2000      	movs	r0, #0
   204ee:	9010      	str	r0, [sp, #64]	@ 0x40
   204f0:	900f      	str	r0, [sp, #60]	@ 0x3c
   204f2:	900e      	str	r0, [sp, #56]	@ 0x38
   204f4:	900d      	str	r0, [sp, #52]	@ 0x34
   204f6:	4822      	ldr	r0, [pc, #136]	@ (20580 <_ZN18complex_no_dynamic3app17h131868ad386cd814E+0xa8>)
   204f8:	2104      	movs	r1, #4
   204fa:	462a      	mov	r2, r5
   204fc:	4633      	mov	r3, r6
   204fe:	df04      	svc	4
   20500:	2802      	cmp	r0, #2
   20502:	d00e      	beq.n	20522 <_ZN18complex_no_dynamic3app17h131868ad386cd814E+0x4a>
   20504:	481e      	ldr	r0, [pc, #120]	@ (20580 <_ZN18complex_no_dynamic3app17h131868ad386cd814E+0xa8>)
   20506:	2109      	movs	r1, #9
   20508:	aa0d      	add	r2, sp, #52	@ 0x34
   2050a:	2310      	movs	r3, #16
   2050c:	df03      	svc	3
   2050e:	2802      	cmp	r0, #2
   20510:	d007      	beq.n	20522 <_ZN18complex_no_dynamic3app17h131868ad386cd814E+0x4a>
   20512:	481b      	ldr	r0, [pc, #108]	@ (20580 <_ZN18complex_no_dynamic3app17h131868ad386cd814E+0xa8>)
   20514:	2104      	movs	r1, #4
   20516:	2209      	movs	r2, #9
   20518:	2500      	movs	r5, #0
   2051a:	462b      	mov	r3, r5
   2051c:	df02      	svc	2
   2051e:	287f      	cmp	r0, #127	@ 0x7f
   20520:	d810      	bhi.n	20544 <_ZN18complex_no_dynamic3app17h131868ad386cd814E+0x6c>
   20522:	2001      	movs	r0, #1
   20524:	7020      	strb	r0, [r4, #0]
   20526:	6061      	str	r1, [r4, #4]
   20528:	4c15      	ldr	r4, [pc, #84]	@ (20580 <_ZN18complex_no_dynamic3app17h131868ad386cd814E+0xa8>)
   2052a:	2109      	movs	r1, #9
   2052c:	2500      	movs	r5, #0
   2052e:	4620      	mov	r0, r4
   20530:	462a      	mov	r2, r5
   20532:	462b      	mov	r3, r5
   20534:	df03      	svc	3
   20536:	2104      	movs	r1, #4
   20538:	4620      	mov	r0, r4
   2053a:	462a      	mov	r2, r5
   2053c:	462b      	mov	r3, r5
   2053e:	df04      	svc	4
   20540:	b011      	add	sp, #68	@ 0x44
   20542:	bdf0      	pop	{r4, r5, r6, r7, pc}
   20544:	480e      	ldr	r0, [pc, #56]	@ (20580 <_ZN18complex_no_dynamic3app17h131868ad386cd814E+0xa8>)
   20546:	2609      	movs	r6, #9
   20548:	4631      	mov	r1, r6
   2054a:	462a      	mov	r2, r5
   2054c:	462b      	mov	r3, r5
   2054e:	df03      	svc	3
   20550:	480b      	ldr	r0, [pc, #44]	@ (20580 <_ZN18complex_no_dynamic3app17h131868ad386cd814E+0xa8>)
   20552:	4631      	mov	r1, r6
   20554:	462a      	mov	r2, r5
   20556:	462b      	mov	r3, r5
   20558:	df03      	svc	3
   2055a:	1c60      	adds	r0, r4, #1
   2055c:	a90d      	add	r1, sp, #52	@ 0x34
   2055e:	2210      	movs	r2, #16
   20560:	f006 fcad 	bl	26ebe <__aeabi_memcpy>
   20564:	7025      	strb	r5, [r4, #0]
   20566:	4c06      	ldr	r4, [pc, #24]	@ (20580 <_ZN18complex_no_dynamic3app17h131868ad386cd814E+0xa8>)
   20568:	4620      	mov	r0, r4
   2056a:	4631      	mov	r1, r6
   2056c:	462a      	mov	r2, r5
   2056e:	462b      	mov	r3, r5
   20570:	df03      	svc	3
   20572:	2104      	movs	r1, #4
   20574:	4620      	mov	r0, r4
   20576:	462a      	mov	r2, r5
   20578:	462b      	mov	r3, r5
   2057a:	df04      	svc	4
   2057c:	e7e0      	b.n	20540 <_ZN18complex_no_dynamic3app17h131868ad386cd814E+0x68>
   2057e:	46c0      	nop			@ (mov r8, r8)
   20580:	000019d6 	.word	0x000019d6

00020584 <_ZN18complex_no_dynamic3app17h19f2d6b141ae7f95E>:
   20584:	b5f0      	push	{r4, r5, r6, r7, lr}
   20586:	af03      	add	r7, sp, #12
   20588:	b09d      	sub	sp, #116	@ 0x74
   2058a:	4604      	mov	r4, r0
   2058c:	466d      	mov	r5, sp
   2058e:	265d      	movs	r6, #93	@ 0x5d
   20590:	4628      	mov	r0, r5
   20592:	4632      	mov	r2, r6
   20594:	f006 fc93 	bl	26ebe <__aeabi_memcpy>
   20598:	a818      	add	r0, sp, #96	@ 0x60
   2059a:	2112      	movs	r1, #18
   2059c:	f006 fae2 	bl	26b64 <__aeabi_memclr4>
   205a0:	4821      	ldr	r0, [pc, #132]	@ (20628 <_ZN18complex_no_dynamic3app17h19f2d6b141ae7f95E+0xa4>)
   205a2:	2100      	movs	r1, #0
   205a4:	462a      	mov	r2, r5
   205a6:	4633      	mov	r3, r6
   205a8:	df04      	svc	4
   205aa:	2802      	cmp	r0, #2
   205ac:	d00e      	beq.n	205cc <_ZN18complex_no_dynamic3app17h19f2d6b141ae7f95E+0x48>
   205ae:	481e      	ldr	r0, [pc, #120]	@ (20628 <_ZN18complex_no_dynamic3app17h19f2d6b141ae7f95E+0xa4>)
   205b0:	2102      	movs	r1, #2
   205b2:	aa18      	add	r2, sp, #96	@ 0x60
   205b4:	2312      	movs	r3, #18
   205b6:	df03      	svc	3
   205b8:	2802      	cmp	r0, #2
   205ba:	d007      	beq.n	205cc <_ZN18complex_no_dynamic3app17h19f2d6b141ae7f95E+0x48>
   205bc:	481a      	ldr	r0, [pc, #104]	@ (20628 <_ZN18complex_no_dynamic3app17h19f2d6b141ae7f95E+0xa4>)
   205be:	2202      	movs	r2, #2
   205c0:	2500      	movs	r5, #0
   205c2:	4629      	mov	r1, r5
   205c4:	462b      	mov	r3, r5
   205c6:	df02      	svc	2
   205c8:	287f      	cmp	r0, #127	@ 0x7f
   205ca:	d810      	bhi.n	205ee <_ZN18complex_no_dynamic3app17h19f2d6b141ae7f95E+0x6a>
   205cc:	2001      	movs	r0, #1
   205ce:	7020      	strb	r0, [r4, #0]
   205d0:	6061      	str	r1, [r4, #4]
   205d2:	4c15      	ldr	r4, [pc, #84]	@ (20628 <_ZN18complex_no_dynamic3app17h19f2d6b141ae7f95E+0xa4>)
   205d4:	2102      	movs	r1, #2
   205d6:	2500      	movs	r5, #0
   205d8:	4620      	mov	r0, r4
   205da:	462a      	mov	r2, r5
   205dc:	462b      	mov	r3, r5
   205de:	df03      	svc	3
   205e0:	4620      	mov	r0, r4
   205e2:	4629      	mov	r1, r5
   205e4:	462a      	mov	r2, r5
   205e6:	462b      	mov	r3, r5
   205e8:	df04      	svc	4
   205ea:	b01d      	add	sp, #116	@ 0x74
   205ec:	bdf0      	pop	{r4, r5, r6, r7, pc}
   205ee:	480e      	ldr	r0, [pc, #56]	@ (20628 <_ZN18complex_no_dynamic3app17h19f2d6b141ae7f95E+0xa4>)
   205f0:	2602      	movs	r6, #2
   205f2:	4631      	mov	r1, r6
   205f4:	462a      	mov	r2, r5
   205f6:	462b      	mov	r3, r5
   205f8:	df03      	svc	3
   205fa:	480b      	ldr	r0, [pc, #44]	@ (20628 <_ZN18complex_no_dynamic3app17h19f2d6b141ae7f95E+0xa4>)
   205fc:	4631      	mov	r1, r6
   205fe:	462a      	mov	r2, r5
   20600:	462b      	mov	r3, r5
   20602:	df03      	svc	3
   20604:	1c60      	adds	r0, r4, #1
   20606:	a918      	add	r1, sp, #96	@ 0x60
   20608:	2212      	movs	r2, #18
   2060a:	f006 fc58 	bl	26ebe <__aeabi_memcpy>
   2060e:	7025      	strb	r5, [r4, #0]
   20610:	4c05      	ldr	r4, [pc, #20]	@ (20628 <_ZN18complex_no_dynamic3app17h19f2d6b141ae7f95E+0xa4>)
   20612:	4620      	mov	r0, r4
   20614:	4631      	mov	r1, r6
   20616:	462a      	mov	r2, r5
   20618:	462b      	mov	r3, r5
   2061a:	df03      	svc	3
   2061c:	4620      	mov	r0, r4
   2061e:	4629      	mov	r1, r5
   20620:	462a      	mov	r2, r5
   20622:	462b      	mov	r3, r5
   20624:	df04      	svc	4
   20626:	e7e0      	b.n	205ea <_ZN18complex_no_dynamic3app17h19f2d6b141ae7f95E+0x66>
   20628:	000015f1 	.word	0x000015f1

0002062c <_ZN18complex_no_dynamic3app17h1b471c8cac73ce2aE>:
   2062c:	b5f0      	push	{r4, r5, r6, r7, lr}
   2062e:	af03      	add	r7, sp, #12
   20630:	b099      	sub	sp, #100	@ 0x64
   20632:	4604      	mov	r4, r0
   20634:	ad01      	add	r5, sp, #4
   20636:	2638      	movs	r6, #56	@ 0x38
   20638:	4628      	mov	r0, r5
   2063a:	4632      	mov	r2, r6
   2063c:	f006 fc3f 	bl	26ebe <__aeabi_memcpy>
   20640:	a80f      	add	r0, sp, #60	@ 0x3c
   20642:	2127      	movs	r1, #39	@ 0x27
   20644:	f006 fa8e 	bl	26b64 <__aeabi_memclr4>
   20648:	4821      	ldr	r0, [pc, #132]	@ (206d0 <_ZN18complex_no_dynamic3app17h1b471c8cac73ce2aE+0xa4>)
   2064a:	2102      	movs	r1, #2
   2064c:	462a      	mov	r2, r5
   2064e:	4633      	mov	r3, r6
   20650:	df04      	svc	4
   20652:	2802      	cmp	r0, #2
   20654:	d00e      	beq.n	20674 <_ZN18complex_no_dynamic3app17h1b471c8cac73ce2aE+0x48>
   20656:	481e      	ldr	r0, [pc, #120]	@ (206d0 <_ZN18complex_no_dynamic3app17h1b471c8cac73ce2aE+0xa4>)
   20658:	2108      	movs	r1, #8
   2065a:	aa0f      	add	r2, sp, #60	@ 0x3c
   2065c:	2327      	movs	r3, #39	@ 0x27
   2065e:	df03      	svc	3
   20660:	2802      	cmp	r0, #2
   20662:	d007      	beq.n	20674 <_ZN18complex_no_dynamic3app17h1b471c8cac73ce2aE+0x48>
   20664:	481a      	ldr	r0, [pc, #104]	@ (206d0 <_ZN18complex_no_dynamic3app17h1b471c8cac73ce2aE+0xa4>)
   20666:	2102      	movs	r1, #2
   20668:	2208      	movs	r2, #8
   2066a:	2500      	movs	r5, #0
   2066c:	462b      	mov	r3, r5
   2066e:	df02      	svc	2
   20670:	287f      	cmp	r0, #127	@ 0x7f
   20672:	d810      	bhi.n	20696 <_ZN18complex_no_dynamic3app17h1b471c8cac73ce2aE+0x6a>
   20674:	2001      	movs	r0, #1
   20676:	7020      	strb	r0, [r4, #0]
   20678:	6061      	str	r1, [r4, #4]
   2067a:	4c15      	ldr	r4, [pc, #84]	@ (206d0 <_ZN18complex_no_dynamic3app17h1b471c8cac73ce2aE+0xa4>)
   2067c:	2108      	movs	r1, #8
   2067e:	2500      	movs	r5, #0
   20680:	4620      	mov	r0, r4
   20682:	462a      	mov	r2, r5
   20684:	462b      	mov	r3, r5
   20686:	df03      	svc	3
   20688:	2102      	movs	r1, #2
   2068a:	4620      	mov	r0, r4
   2068c:	462a      	mov	r2, r5
   2068e:	462b      	mov	r3, r5
   20690:	df04      	svc	4
   20692:	b019      	add	sp, #100	@ 0x64
   20694:	bdf0      	pop	{r4, r5, r6, r7, pc}
   20696:	480e      	ldr	r0, [pc, #56]	@ (206d0 <_ZN18complex_no_dynamic3app17h1b471c8cac73ce2aE+0xa4>)
   20698:	2608      	movs	r6, #8
   2069a:	4631      	mov	r1, r6
   2069c:	462a      	mov	r2, r5
   2069e:	462b      	mov	r3, r5
   206a0:	df03      	svc	3
   206a2:	480b      	ldr	r0, [pc, #44]	@ (206d0 <_ZN18complex_no_dynamic3app17h1b471c8cac73ce2aE+0xa4>)
   206a4:	4631      	mov	r1, r6
   206a6:	462a      	mov	r2, r5
   206a8:	462b      	mov	r3, r5
   206aa:	df03      	svc	3
   206ac:	1c60      	adds	r0, r4, #1
   206ae:	a90f      	add	r1, sp, #60	@ 0x3c
   206b0:	2227      	movs	r2, #39	@ 0x27
   206b2:	f006 fc04 	bl	26ebe <__aeabi_memcpy>
   206b6:	7025      	strb	r5, [r4, #0]
   206b8:	4c05      	ldr	r4, [pc, #20]	@ (206d0 <_ZN18complex_no_dynamic3app17h1b471c8cac73ce2aE+0xa4>)
   206ba:	4620      	mov	r0, r4
   206bc:	4631      	mov	r1, r6
   206be:	462a      	mov	r2, r5
   206c0:	462b      	mov	r3, r5
   206c2:	df03      	svc	3
   206c4:	2102      	movs	r1, #2
   206c6:	4620      	mov	r0, r4
   206c8:	462a      	mov	r2, r5
   206ca:	462b      	mov	r3, r5
   206cc:	df04      	svc	4
   206ce:	e7e0      	b.n	20692 <_ZN18complex_no_dynamic3app17h1b471c8cac73ce2aE+0x66>
   206d0:	00000e2b 	.word	0x00000e2b

000206d4 <_ZN18complex_no_dynamic3app17h1c05452c8d6457a0E>:
   206d4:	b5f0      	push	{r4, r5, r6, r7, lr}
   206d6:	af03      	add	r7, sp, #12
   206d8:	b09f      	sub	sp, #124	@ 0x7c
   206da:	4604      	mov	r4, r0
   206dc:	466d      	mov	r5, sp
   206de:	2631      	movs	r6, #49	@ 0x31
   206e0:	4628      	mov	r0, r5
   206e2:	4632      	mov	r2, r6
   206e4:	f006 fbeb 	bl	26ebe <__aeabi_memcpy>
   206e8:	a80d      	add	r0, sp, #52	@ 0x34
   206ea:	2148      	movs	r1, #72	@ 0x48
   206ec:	f006 fa3a 	bl	26b64 <__aeabi_memclr4>
   206f0:	4821      	ldr	r0, [pc, #132]	@ (20778 <_ZN18complex_no_dynamic3app17h1c05452c8d6457a0E+0xa4>)
   206f2:	2104      	movs	r1, #4
   206f4:	462a      	mov	r2, r5
   206f6:	4633      	mov	r3, r6
   206f8:	df04      	svc	4
   206fa:	2802      	cmp	r0, #2
   206fc:	d00e      	beq.n	2071c <_ZN18complex_no_dynamic3app17h1c05452c8d6457a0E+0x48>
   206fe:	481e      	ldr	r0, [pc, #120]	@ (20778 <_ZN18complex_no_dynamic3app17h1c05452c8d6457a0E+0xa4>)
   20700:	2103      	movs	r1, #3
   20702:	aa0d      	add	r2, sp, #52	@ 0x34
   20704:	2348      	movs	r3, #72	@ 0x48
   20706:	df03      	svc	3
   20708:	2802      	cmp	r0, #2
   2070a:	d007      	beq.n	2071c <_ZN18complex_no_dynamic3app17h1c05452c8d6457a0E+0x48>
   2070c:	481a      	ldr	r0, [pc, #104]	@ (20778 <_ZN18complex_no_dynamic3app17h1c05452c8d6457a0E+0xa4>)
   2070e:	2104      	movs	r1, #4
   20710:	2203      	movs	r2, #3
   20712:	2500      	movs	r5, #0
   20714:	462b      	mov	r3, r5
   20716:	df02      	svc	2
   20718:	287f      	cmp	r0, #127	@ 0x7f
   2071a:	d810      	bhi.n	2073e <_ZN18complex_no_dynamic3app17h1c05452c8d6457a0E+0x6a>
   2071c:	2001      	movs	r0, #1
   2071e:	7020      	strb	r0, [r4, #0]
   20720:	6061      	str	r1, [r4, #4]
   20722:	4c15      	ldr	r4, [pc, #84]	@ (20778 <_ZN18complex_no_dynamic3app17h1c05452c8d6457a0E+0xa4>)
   20724:	2103      	movs	r1, #3
   20726:	2500      	movs	r5, #0
   20728:	4620      	mov	r0, r4
   2072a:	462a      	mov	r2, r5
   2072c:	462b      	mov	r3, r5
   2072e:	df03      	svc	3
   20730:	2104      	movs	r1, #4
   20732:	4620      	mov	r0, r4
   20734:	462a      	mov	r2, r5
   20736:	462b      	mov	r3, r5
   20738:	df04      	svc	4
   2073a:	b01f      	add	sp, #124	@ 0x7c
   2073c:	bdf0      	pop	{r4, r5, r6, r7, pc}
   2073e:	480e      	ldr	r0, [pc, #56]	@ (20778 <_ZN18complex_no_dynamic3app17h1c05452c8d6457a0E+0xa4>)
   20740:	2603      	movs	r6, #3
   20742:	4631      	mov	r1, r6
   20744:	462a      	mov	r2, r5
   20746:	462b      	mov	r3, r5
   20748:	df03      	svc	3
   2074a:	480b      	ldr	r0, [pc, #44]	@ (20778 <_ZN18complex_no_dynamic3app17h1c05452c8d6457a0E+0xa4>)
   2074c:	4631      	mov	r1, r6
   2074e:	462a      	mov	r2, r5
   20750:	462b      	mov	r3, r5
   20752:	df03      	svc	3
   20754:	1c60      	adds	r0, r4, #1
   20756:	a90d      	add	r1, sp, #52	@ 0x34
   20758:	2248      	movs	r2, #72	@ 0x48
   2075a:	f006 fbb0 	bl	26ebe <__aeabi_memcpy>
   2075e:	7025      	strb	r5, [r4, #0]
   20760:	4c05      	ldr	r4, [pc, #20]	@ (20778 <_ZN18complex_no_dynamic3app17h1c05452c8d6457a0E+0xa4>)
   20762:	4620      	mov	r0, r4
   20764:	4631      	mov	r1, r6
   20766:	462a      	mov	r2, r5
   20768:	462b      	mov	r3, r5
   2076a:	df03      	svc	3
   2076c:	2104      	movs	r1, #4
   2076e:	4620      	mov	r0, r4
   20770:	462a      	mov	r2, r5
   20772:	462b      	mov	r3, r5
   20774:	df04      	svc	4
   20776:	e7e0      	b.n	2073a <_ZN18complex_no_dynamic3app17h1c05452c8d6457a0E+0x66>
   20778:	0000180e 	.word	0x0000180e

0002077c <_ZN18complex_no_dynamic3app17h1fb40e3c97434c83E>:
   2077c:	b5f0      	push	{r4, r5, r6, r7, lr}
   2077e:	af03      	add	r7, sp, #12
   20780:	b0a1      	sub	sp, #132	@ 0x84
   20782:	4604      	mov	r4, r0
   20784:	466d      	mov	r5, sp
   20786:	262d      	movs	r6, #45	@ 0x2d
   20788:	4628      	mov	r0, r5
   2078a:	4632      	mov	r2, r6
   2078c:	f006 fb97 	bl	26ebe <__aeabi_memcpy>
   20790:	a80c      	add	r0, sp, #48	@ 0x30
   20792:	2153      	movs	r1, #83	@ 0x53
   20794:	f006 f9e6 	bl	26b64 <__aeabi_memclr4>
   20798:	4821      	ldr	r0, [pc, #132]	@ (20820 <_ZN18complex_no_dynamic3app17h1fb40e3c97434c83E+0xa4>)
   2079a:	2102      	movs	r1, #2
   2079c:	462a      	mov	r2, r5
   2079e:	4633      	mov	r3, r6
   207a0:	df04      	svc	4
   207a2:	2802      	cmp	r0, #2
   207a4:	d00e      	beq.n	207c4 <_ZN18complex_no_dynamic3app17h1fb40e3c97434c83E+0x48>
   207a6:	481e      	ldr	r0, [pc, #120]	@ (20820 <_ZN18complex_no_dynamic3app17h1fb40e3c97434c83E+0xa4>)
   207a8:	2107      	movs	r1, #7
   207aa:	aa0c      	add	r2, sp, #48	@ 0x30
   207ac:	2353      	movs	r3, #83	@ 0x53
   207ae:	df03      	svc	3
   207b0:	2802      	cmp	r0, #2
   207b2:	d007      	beq.n	207c4 <_ZN18complex_no_dynamic3app17h1fb40e3c97434c83E+0x48>
   207b4:	481a      	ldr	r0, [pc, #104]	@ (20820 <_ZN18complex_no_dynamic3app17h1fb40e3c97434c83E+0xa4>)
   207b6:	2102      	movs	r1, #2
   207b8:	2207      	movs	r2, #7
   207ba:	2500      	movs	r5, #0
   207bc:	462b      	mov	r3, r5
   207be:	df02      	svc	2
   207c0:	287f      	cmp	r0, #127	@ 0x7f
   207c2:	d810      	bhi.n	207e6 <_ZN18complex_no_dynamic3app17h1fb40e3c97434c83E+0x6a>
   207c4:	2001      	movs	r0, #1
   207c6:	7020      	strb	r0, [r4, #0]
   207c8:	6061      	str	r1, [r4, #4]
   207ca:	4c15      	ldr	r4, [pc, #84]	@ (20820 <_ZN18complex_no_dynamic3app17h1fb40e3c97434c83E+0xa4>)
   207cc:	2107      	movs	r1, #7
   207ce:	2500      	movs	r5, #0
   207d0:	4620      	mov	r0, r4
   207d2:	462a      	mov	r2, r5
   207d4:	462b      	mov	r3, r5
   207d6:	df03      	svc	3
   207d8:	2102      	movs	r1, #2
   207da:	4620      	mov	r0, r4
   207dc:	462a      	mov	r2, r5
   207de:	462b      	mov	r3, r5
   207e0:	df04      	svc	4
   207e2:	b021      	add	sp, #132	@ 0x84
   207e4:	bdf0      	pop	{r4, r5, r6, r7, pc}
   207e6:	480e      	ldr	r0, [pc, #56]	@ (20820 <_ZN18complex_no_dynamic3app17h1fb40e3c97434c83E+0xa4>)
   207e8:	2607      	movs	r6, #7
   207ea:	4631      	mov	r1, r6
   207ec:	462a      	mov	r2, r5
   207ee:	462b      	mov	r3, r5
   207f0:	df03      	svc	3
   207f2:	480b      	ldr	r0, [pc, #44]	@ (20820 <_ZN18complex_no_dynamic3app17h1fb40e3c97434c83E+0xa4>)
   207f4:	4631      	mov	r1, r6
   207f6:	462a      	mov	r2, r5
   207f8:	462b      	mov	r3, r5
   207fa:	df03      	svc	3
   207fc:	1c60      	adds	r0, r4, #1
   207fe:	a90c      	add	r1, sp, #48	@ 0x30
   20800:	2253      	movs	r2, #83	@ 0x53
   20802:	f006 fb5c 	bl	26ebe <__aeabi_memcpy>
   20806:	7025      	strb	r5, [r4, #0]
   20808:	4c05      	ldr	r4, [pc, #20]	@ (20820 <_ZN18complex_no_dynamic3app17h1fb40e3c97434c83E+0xa4>)
   2080a:	4620      	mov	r0, r4
   2080c:	4631      	mov	r1, r6
   2080e:	462a      	mov	r2, r5
   20810:	462b      	mov	r3, r5
   20812:	df03      	svc	3
   20814:	2102      	movs	r1, #2
   20816:	4620      	mov	r0, r4
   20818:	462a      	mov	r2, r5
   2081a:	462b      	mov	r3, r5
   2081c:	df04      	svc	4
   2081e:	e7e0      	b.n	207e2 <_ZN18complex_no_dynamic3app17h1fb40e3c97434c83E+0x66>
   20820:	00000ec3 	.word	0x00000ec3

00020824 <_ZN18complex_no_dynamic3app17h20c4a1b052e11864E>:
   20824:	b5f0      	push	{r4, r5, r6, r7, lr}
   20826:	af03      	add	r7, sp, #12
   20828:	b0a9      	sub	sp, #164	@ 0xa4
   2082a:	4604      	mov	r4, r0
   2082c:	466d      	mov	r5, sp
   2082e:	2653      	movs	r6, #83	@ 0x53
   20830:	4628      	mov	r0, r5
   20832:	4632      	mov	r2, r6
   20834:	f006 fb43 	bl	26ebe <__aeabi_memcpy>
   20838:	a815      	add	r0, sp, #84	@ 0x54
   2083a:	214d      	movs	r1, #77	@ 0x4d
   2083c:	f006 f992 	bl	26b64 <__aeabi_memclr4>
   20840:	4821      	ldr	r0, [pc, #132]	@ (208c8 <_ZN18complex_no_dynamic3app17h20c4a1b052e11864E+0xa4>)
   20842:	2109      	movs	r1, #9
   20844:	462a      	mov	r2, r5
   20846:	4633      	mov	r3, r6
   20848:	df04      	svc	4
   2084a:	2802      	cmp	r0, #2
   2084c:	d00e      	beq.n	2086c <_ZN18complex_no_dynamic3app17h20c4a1b052e11864E+0x48>
   2084e:	481e      	ldr	r0, [pc, #120]	@ (208c8 <_ZN18complex_no_dynamic3app17h20c4a1b052e11864E+0xa4>)
   20850:	2104      	movs	r1, #4
   20852:	aa15      	add	r2, sp, #84	@ 0x54
   20854:	234d      	movs	r3, #77	@ 0x4d
   20856:	df03      	svc	3
   20858:	2802      	cmp	r0, #2
   2085a:	d007      	beq.n	2086c <_ZN18complex_no_dynamic3app17h20c4a1b052e11864E+0x48>
   2085c:	481a      	ldr	r0, [pc, #104]	@ (208c8 <_ZN18complex_no_dynamic3app17h20c4a1b052e11864E+0xa4>)
   2085e:	2109      	movs	r1, #9
   20860:	2204      	movs	r2, #4
   20862:	2500      	movs	r5, #0
   20864:	462b      	mov	r3, r5
   20866:	df02      	svc	2
   20868:	287f      	cmp	r0, #127	@ 0x7f
   2086a:	d810      	bhi.n	2088e <_ZN18complex_no_dynamic3app17h20c4a1b052e11864E+0x6a>
   2086c:	2001      	movs	r0, #1
   2086e:	7020      	strb	r0, [r4, #0]
   20870:	6061      	str	r1, [r4, #4]
   20872:	4c15      	ldr	r4, [pc, #84]	@ (208c8 <_ZN18complex_no_dynamic3app17h20c4a1b052e11864E+0xa4>)
   20874:	2104      	movs	r1, #4
   20876:	2500      	movs	r5, #0
   20878:	4620      	mov	r0, r4
   2087a:	462a      	mov	r2, r5
   2087c:	462b      	mov	r3, r5
   2087e:	df03      	svc	3
   20880:	2109      	movs	r1, #9
   20882:	4620      	mov	r0, r4
   20884:	462a      	mov	r2, r5
   20886:	462b      	mov	r3, r5
   20888:	df04      	svc	4
   2088a:	b029      	add	sp, #164	@ 0xa4
   2088c:	bdf0      	pop	{r4, r5, r6, r7, pc}
   2088e:	480e      	ldr	r0, [pc, #56]	@ (208c8 <_ZN18complex_no_dynamic3app17h20c4a1b052e11864E+0xa4>)
   20890:	2604      	movs	r6, #4
   20892:	4631      	mov	r1, r6
   20894:	462a      	mov	r2, r5
   20896:	462b      	mov	r3, r5
   20898:	df03      	svc	3
   2089a:	480b      	ldr	r0, [pc, #44]	@ (208c8 <_ZN18complex_no_dynamic3app17h20c4a1b052e11864E+0xa4>)
   2089c:	4631      	mov	r1, r6
   2089e:	462a      	mov	r2, r5
   208a0:	462b      	mov	r3, r5
   208a2:	df03      	svc	3
   208a4:	1c60      	adds	r0, r4, #1
   208a6:	a915      	add	r1, sp, #84	@ 0x54
   208a8:	224d      	movs	r2, #77	@ 0x4d
   208aa:	f006 fb08 	bl	26ebe <__aeabi_memcpy>
   208ae:	7025      	strb	r5, [r4, #0]
   208b0:	4c05      	ldr	r4, [pc, #20]	@ (208c8 <_ZN18complex_no_dynamic3app17h20c4a1b052e11864E+0xa4>)
   208b2:	4620      	mov	r0, r4
   208b4:	4631      	mov	r1, r6
   208b6:	462a      	mov	r2, r5
   208b8:	462b      	mov	r3, r5
   208ba:	df03      	svc	3
   208bc:	2109      	movs	r1, #9
   208be:	4620      	mov	r0, r4
   208c0:	462a      	mov	r2, r5
   208c2:	462b      	mov	r3, r5
   208c4:	df04      	svc	4
   208c6:	e7e0      	b.n	2088a <_ZN18complex_no_dynamic3app17h20c4a1b052e11864E+0x66>
   208c8:	000016ba 	.word	0x000016ba

000208cc <_ZN18complex_no_dynamic3app17h218653fda5919cd8E>:
   208cc:	b5f0      	push	{r4, r5, r6, r7, lr}
   208ce:	af03      	add	r7, sp, #12
   208d0:	b09d      	sub	sp, #116	@ 0x74
   208d2:	4604      	mov	r4, r0
   208d4:	ad01      	add	r5, sp, #4
   208d6:	263c      	movs	r6, #60	@ 0x3c
   208d8:	4628      	mov	r0, r5
   208da:	4632      	mov	r2, r6
   208dc:	f006 faef 	bl	26ebe <__aeabi_memcpy>
   208e0:	a810      	add	r0, sp, #64	@ 0x40
   208e2:	2132      	movs	r1, #50	@ 0x32
   208e4:	f006 f93e 	bl	26b64 <__aeabi_memclr4>
   208e8:	4821      	ldr	r0, [pc, #132]	@ (20970 <_ZN18complex_no_dynamic3app17h218653fda5919cd8E+0xa4>)
   208ea:	2106      	movs	r1, #6
   208ec:	462a      	mov	r2, r5
   208ee:	4633      	mov	r3, r6
   208f0:	df04      	svc	4
   208f2:	2802      	cmp	r0, #2
   208f4:	d00e      	beq.n	20914 <_ZN18complex_no_dynamic3app17h218653fda5919cd8E+0x48>
   208f6:	481e      	ldr	r0, [pc, #120]	@ (20970 <_ZN18complex_no_dynamic3app17h218653fda5919cd8E+0xa4>)
   208f8:	2108      	movs	r1, #8
   208fa:	aa10      	add	r2, sp, #64	@ 0x40
   208fc:	2332      	movs	r3, #50	@ 0x32
   208fe:	df03      	svc	3
   20900:	2802      	cmp	r0, #2
   20902:	d007      	beq.n	20914 <_ZN18complex_no_dynamic3app17h218653fda5919cd8E+0x48>
   20904:	481a      	ldr	r0, [pc, #104]	@ (20970 <_ZN18complex_no_dynamic3app17h218653fda5919cd8E+0xa4>)
   20906:	2106      	movs	r1, #6
   20908:	2208      	movs	r2, #8
   2090a:	2500      	movs	r5, #0
   2090c:	462b      	mov	r3, r5
   2090e:	df02      	svc	2
   20910:	287f      	cmp	r0, #127	@ 0x7f
   20912:	d810      	bhi.n	20936 <_ZN18complex_no_dynamic3app17h218653fda5919cd8E+0x6a>
   20914:	2001      	movs	r0, #1
   20916:	7020      	strb	r0, [r4, #0]
   20918:	6061      	str	r1, [r4, #4]
   2091a:	4c15      	ldr	r4, [pc, #84]	@ (20970 <_ZN18complex_no_dynamic3app17h218653fda5919cd8E+0xa4>)
   2091c:	2108      	movs	r1, #8
   2091e:	2500      	movs	r5, #0
   20920:	4620      	mov	r0, r4
   20922:	462a      	mov	r2, r5
   20924:	462b      	mov	r3, r5
   20926:	df03      	svc	3
   20928:	2106      	movs	r1, #6
   2092a:	4620      	mov	r0, r4
   2092c:	462a      	mov	r2, r5
   2092e:	462b      	mov	r3, r5
   20930:	df04      	svc	4
   20932:	b01d      	add	sp, #116	@ 0x74
   20934:	bdf0      	pop	{r4, r5, r6, r7, pc}
   20936:	480e      	ldr	r0, [pc, #56]	@ (20970 <_ZN18complex_no_dynamic3app17h218653fda5919cd8E+0xa4>)
   20938:	2608      	movs	r6, #8
   2093a:	4631      	mov	r1, r6
   2093c:	462a      	mov	r2, r5
   2093e:	462b      	mov	r3, r5
   20940:	df03      	svc	3
   20942:	480b      	ldr	r0, [pc, #44]	@ (20970 <_ZN18complex_no_dynamic3app17h218653fda5919cd8E+0xa4>)
   20944:	4631      	mov	r1, r6
   20946:	462a      	mov	r2, r5
   20948:	462b      	mov	r3, r5
   2094a:	df03      	svc	3
   2094c:	1c60      	adds	r0, r4, #1
   2094e:	a910      	add	r1, sp, #64	@ 0x40
   20950:	2232      	movs	r2, #50	@ 0x32
   20952:	f006 fab4 	bl	26ebe <__aeabi_memcpy>
   20956:	7025      	strb	r5, [r4, #0]
   20958:	4c05      	ldr	r4, [pc, #20]	@ (20970 <_ZN18complex_no_dynamic3app17h218653fda5919cd8E+0xa4>)
   2095a:	4620      	mov	r0, r4
   2095c:	4631      	mov	r1, r6
   2095e:	462a      	mov	r2, r5
   20960:	462b      	mov	r3, r5
   20962:	df03      	svc	3
   20964:	2106      	movs	r1, #6
   20966:	4620      	mov	r0, r4
   20968:	462a      	mov	r2, r5
   2096a:	462b      	mov	r3, r5
   2096c:	df04      	svc	4
   2096e:	e7e0      	b.n	20932 <_ZN18complex_no_dynamic3app17h218653fda5919cd8E+0x66>
   20970:	00001b1e 	.word	0x00001b1e

00020974 <_ZN18complex_no_dynamic3app17h21f9b3fcf5efa5c4E>:
   20974:	b5f0      	push	{r4, r5, r6, r7, lr}
   20976:	af03      	add	r7, sp, #12
   20978:	b095      	sub	sp, #84	@ 0x54
   2097a:	4604      	mov	r4, r0
   2097c:	466d      	mov	r5, sp
   2097e:	2625      	movs	r6, #37	@ 0x25
   20980:	4628      	mov	r0, r5
   20982:	4632      	mov	r2, r6
   20984:	f006 fa9b 	bl	26ebe <__aeabi_memcpy>
   20988:	a80a      	add	r0, sp, #40	@ 0x28
   2098a:	212a      	movs	r1, #42	@ 0x2a
   2098c:	f006 f8ea 	bl	26b64 <__aeabi_memclr4>
   20990:	4821      	ldr	r0, [pc, #132]	@ (20a18 <_ZN18complex_no_dynamic3app17h21f9b3fcf5efa5c4E+0xa4>)
   20992:	2100      	movs	r1, #0
   20994:	462a      	mov	r2, r5
   20996:	4633      	mov	r3, r6
   20998:	df04      	svc	4
   2099a:	2802      	cmp	r0, #2
   2099c:	d00e      	beq.n	209bc <_ZN18complex_no_dynamic3app17h21f9b3fcf5efa5c4E+0x48>
   2099e:	481e      	ldr	r0, [pc, #120]	@ (20a18 <_ZN18complex_no_dynamic3app17h21f9b3fcf5efa5c4E+0xa4>)
   209a0:	2103      	movs	r1, #3
   209a2:	aa0a      	add	r2, sp, #40	@ 0x28
   209a4:	232a      	movs	r3, #42	@ 0x2a
   209a6:	df03      	svc	3
   209a8:	2802      	cmp	r0, #2
   209aa:	d007      	beq.n	209bc <_ZN18complex_no_dynamic3app17h21f9b3fcf5efa5c4E+0x48>
   209ac:	481a      	ldr	r0, [pc, #104]	@ (20a18 <_ZN18complex_no_dynamic3app17h21f9b3fcf5efa5c4E+0xa4>)
   209ae:	2203      	movs	r2, #3
   209b0:	2500      	movs	r5, #0
   209b2:	4629      	mov	r1, r5
   209b4:	462b      	mov	r3, r5
   209b6:	df02      	svc	2
   209b8:	287f      	cmp	r0, #127	@ 0x7f
   209ba:	d810      	bhi.n	209de <_ZN18complex_no_dynamic3app17h21f9b3fcf5efa5c4E+0x6a>
   209bc:	2001      	movs	r0, #1
   209be:	7020      	strb	r0, [r4, #0]
   209c0:	6061      	str	r1, [r4, #4]
   209c2:	4c15      	ldr	r4, [pc, #84]	@ (20a18 <_ZN18complex_no_dynamic3app17h21f9b3fcf5efa5c4E+0xa4>)
   209c4:	2103      	movs	r1, #3
   209c6:	2500      	movs	r5, #0
   209c8:	4620      	mov	r0, r4
   209ca:	462a      	mov	r2, r5
   209cc:	462b      	mov	r3, r5
   209ce:	df03      	svc	3
   209d0:	4620      	mov	r0, r4
   209d2:	4629      	mov	r1, r5
   209d4:	462a      	mov	r2, r5
   209d6:	462b      	mov	r3, r5
   209d8:	df04      	svc	4
   209da:	b015      	add	sp, #84	@ 0x54
   209dc:	bdf0      	pop	{r4, r5, r6, r7, pc}
   209de:	480e      	ldr	r0, [pc, #56]	@ (20a18 <_ZN18complex_no_dynamic3app17h21f9b3fcf5efa5c4E+0xa4>)
   209e0:	2603      	movs	r6, #3
   209e2:	4631      	mov	r1, r6
   209e4:	462a      	mov	r2, r5
   209e6:	462b      	mov	r3, r5
   209e8:	df03      	svc	3
   209ea:	480b      	ldr	r0, [pc, #44]	@ (20a18 <_ZN18complex_no_dynamic3app17h21f9b3fcf5efa5c4E+0xa4>)
   209ec:	4631      	mov	r1, r6
   209ee:	462a      	mov	r2, r5
   209f0:	462b      	mov	r3, r5
   209f2:	df03      	svc	3
   209f4:	1c60      	adds	r0, r4, #1
   209f6:	a90a      	add	r1, sp, #40	@ 0x28
   209f8:	222a      	movs	r2, #42	@ 0x2a
   209fa:	f006 fa60 	bl	26ebe <__aeabi_memcpy>
   209fe:	7025      	strb	r5, [r4, #0]
   20a00:	4c05      	ldr	r4, [pc, #20]	@ (20a18 <_ZN18complex_no_dynamic3app17h21f9b3fcf5efa5c4E+0xa4>)
   20a02:	4620      	mov	r0, r4
   20a04:	4631      	mov	r1, r6
   20a06:	462a      	mov	r2, r5
   20a08:	462b      	mov	r3, r5
   20a0a:	df03      	svc	3
   20a0c:	4620      	mov	r0, r4
   20a0e:	4629      	mov	r1, r5
   20a10:	462a      	mov	r2, r5
   20a12:	462b      	mov	r3, r5
   20a14:	df04      	svc	4
   20a16:	e7e0      	b.n	209da <_ZN18complex_no_dynamic3app17h21f9b3fcf5efa5c4E+0x66>
   20a18:	0000093c 	.word	0x0000093c

00020a1c <_ZN18complex_no_dynamic3app17h2660726a9670e191E>:
   20a1c:	b5f0      	push	{r4, r5, r6, r7, lr}
   20a1e:	af03      	add	r7, sp, #12
   20a20:	b095      	sub	sp, #84	@ 0x54
   20a22:	4604      	mov	r4, r0
   20a24:	466d      	mov	r5, sp
   20a26:	2624      	movs	r6, #36	@ 0x24
   20a28:	4628      	mov	r0, r5
   20a2a:	4632      	mov	r2, r6
   20a2c:	f006 fa47 	bl	26ebe <__aeabi_memcpy>
   20a30:	a809      	add	r0, sp, #36	@ 0x24
   20a32:	212f      	movs	r1, #47	@ 0x2f
   20a34:	f006 f896 	bl	26b64 <__aeabi_memclr4>
   20a38:	4821      	ldr	r0, [pc, #132]	@ (20ac0 <_ZN18complex_no_dynamic3app17h2660726a9670e191E+0xa4>)
   20a3a:	2106      	movs	r1, #6
   20a3c:	462a      	mov	r2, r5
   20a3e:	4633      	mov	r3, r6
   20a40:	df04      	svc	4
   20a42:	2802      	cmp	r0, #2
   20a44:	d00e      	beq.n	20a64 <_ZN18complex_no_dynamic3app17h2660726a9670e191E+0x48>
   20a46:	481e      	ldr	r0, [pc, #120]	@ (20ac0 <_ZN18complex_no_dynamic3app17h2660726a9670e191E+0xa4>)
   20a48:	2109      	movs	r1, #9
   20a4a:	aa09      	add	r2, sp, #36	@ 0x24
   20a4c:	232f      	movs	r3, #47	@ 0x2f
   20a4e:	df03      	svc	3
   20a50:	2802      	cmp	r0, #2
   20a52:	d007      	beq.n	20a64 <_ZN18complex_no_dynamic3app17h2660726a9670e191E+0x48>
   20a54:	481a      	ldr	r0, [pc, #104]	@ (20ac0 <_ZN18complex_no_dynamic3app17h2660726a9670e191E+0xa4>)
   20a56:	2106      	movs	r1, #6
   20a58:	2209      	movs	r2, #9
   20a5a:	2500      	movs	r5, #0
   20a5c:	462b      	mov	r3, r5
   20a5e:	df02      	svc	2
   20a60:	287f      	cmp	r0, #127	@ 0x7f
   20a62:	d810      	bhi.n	20a86 <_ZN18complex_no_dynamic3app17h2660726a9670e191E+0x6a>
   20a64:	2001      	movs	r0, #1
   20a66:	7020      	strb	r0, [r4, #0]
   20a68:	6061      	str	r1, [r4, #4]
   20a6a:	4c15      	ldr	r4, [pc, #84]	@ (20ac0 <_ZN18complex_no_dynamic3app17h2660726a9670e191E+0xa4>)
   20a6c:	2109      	movs	r1, #9
   20a6e:	2500      	movs	r5, #0
   20a70:	4620      	mov	r0, r4
   20a72:	462a      	mov	r2, r5
   20a74:	462b      	mov	r3, r5
   20a76:	df03      	svc	3
   20a78:	2106      	movs	r1, #6
   20a7a:	4620      	mov	r0, r4
   20a7c:	462a      	mov	r2, r5
   20a7e:	462b      	mov	r3, r5
   20a80:	df04      	svc	4
   20a82:	b015      	add	sp, #84	@ 0x54
   20a84:	bdf0      	pop	{r4, r5, r6, r7, pc}
   20a86:	480e      	ldr	r0, [pc, #56]	@ (20ac0 <_ZN18complex_no_dynamic3app17h2660726a9670e191E+0xa4>)
   20a88:	2609      	movs	r6, #9
   20a8a:	4631      	mov	r1, r6
   20a8c:	462a      	mov	r2, r5
   20a8e:	462b      	mov	r3, r5
   20a90:	df03      	svc	3
   20a92:	480b      	ldr	r0, [pc, #44]	@ (20ac0 <_ZN18complex_no_dynamic3app17h2660726a9670e191E+0xa4>)
   20a94:	4631      	mov	r1, r6
   20a96:	462a      	mov	r2, r5
   20a98:	462b      	mov	r3, r5
   20a9a:	df03      	svc	3
   20a9c:	1c60      	adds	r0, r4, #1
   20a9e:	a909      	add	r1, sp, #36	@ 0x24
   20aa0:	222f      	movs	r2, #47	@ 0x2f
   20aa2:	f006 fa0c 	bl	26ebe <__aeabi_memcpy>
   20aa6:	7025      	strb	r5, [r4, #0]
   20aa8:	4c05      	ldr	r4, [pc, #20]	@ (20ac0 <_ZN18complex_no_dynamic3app17h2660726a9670e191E+0xa4>)
   20aaa:	4620      	mov	r0, r4
   20aac:	4631      	mov	r1, r6
   20aae:	462a      	mov	r2, r5
   20ab0:	462b      	mov	r3, r5
   20ab2:	df03      	svc	3
   20ab4:	2106      	movs	r1, #6
   20ab6:	4620      	mov	r0, r4
   20ab8:	462a      	mov	r2, r5
   20aba:	462b      	mov	r3, r5
   20abc:	df04      	svc	4
   20abe:	e7e0      	b.n	20a82 <_ZN18complex_no_dynamic3app17h2660726a9670e191E+0x66>
   20ac0:	00001273 	.word	0x00001273

00020ac4 <_ZN18complex_no_dynamic3app17h2b7b77a9d5d31bc6E>:
   20ac4:	b5f0      	push	{r4, r5, r6, r7, lr}
   20ac6:	af03      	add	r7, sp, #12
   20ac8:	b099      	sub	sp, #100	@ 0x64
   20aca:	4604      	mov	r4, r0
   20acc:	466d      	mov	r5, sp
   20ace:	263b      	movs	r6, #59	@ 0x3b
   20ad0:	4628      	mov	r0, r5
   20ad2:	4632      	mov	r2, r6
   20ad4:	f006 f9f3 	bl	26ebe <__aeabi_memcpy>
   20ad8:	a80f      	add	r0, sp, #60	@ 0x3c
   20ada:	2127      	movs	r1, #39	@ 0x27
   20adc:	f006 f842 	bl	26b64 <__aeabi_memclr4>
   20ae0:	4821      	ldr	r0, [pc, #132]	@ (20b68 <_ZN18complex_no_dynamic3app17h2b7b77a9d5d31bc6E+0xa4>)
   20ae2:	2105      	movs	r1, #5
   20ae4:	462a      	mov	r2, r5
   20ae6:	4633      	mov	r3, r6
   20ae8:	df04      	svc	4
   20aea:	2802      	cmp	r0, #2
   20aec:	d00e      	beq.n	20b0c <_ZN18complex_no_dynamic3app17h2b7b77a9d5d31bc6E+0x48>
   20aee:	481e      	ldr	r0, [pc, #120]	@ (20b68 <_ZN18complex_no_dynamic3app17h2b7b77a9d5d31bc6E+0xa4>)
   20af0:	2103      	movs	r1, #3
   20af2:	aa0f      	add	r2, sp, #60	@ 0x3c
   20af4:	2327      	movs	r3, #39	@ 0x27
   20af6:	df03      	svc	3
   20af8:	2802      	cmp	r0, #2
   20afa:	d007      	beq.n	20b0c <_ZN18complex_no_dynamic3app17h2b7b77a9d5d31bc6E+0x48>
   20afc:	481a      	ldr	r0, [pc, #104]	@ (20b68 <_ZN18complex_no_dynamic3app17h2b7b77a9d5d31bc6E+0xa4>)
   20afe:	2105      	movs	r1, #5
   20b00:	2203      	movs	r2, #3
   20b02:	2500      	movs	r5, #0
   20b04:	462b      	mov	r3, r5
   20b06:	df02      	svc	2
   20b08:	287f      	cmp	r0, #127	@ 0x7f
   20b0a:	d810      	bhi.n	20b2e <_ZN18complex_no_dynamic3app17h2b7b77a9d5d31bc6E+0x6a>
   20b0c:	2001      	movs	r0, #1
   20b0e:	7020      	strb	r0, [r4, #0]
   20b10:	6061      	str	r1, [r4, #4]
   20b12:	4c15      	ldr	r4, [pc, #84]	@ (20b68 <_ZN18complex_no_dynamic3app17h2b7b77a9d5d31bc6E+0xa4>)
   20b14:	2103      	movs	r1, #3
   20b16:	2500      	movs	r5, #0
   20b18:	4620      	mov	r0, r4
   20b1a:	462a      	mov	r2, r5
   20b1c:	462b      	mov	r3, r5
   20b1e:	df03      	svc	3
   20b20:	2105      	movs	r1, #5
   20b22:	4620      	mov	r0, r4
   20b24:	462a      	mov	r2, r5
   20b26:	462b      	mov	r3, r5
   20b28:	df04      	svc	4
   20b2a:	b019      	add	sp, #100	@ 0x64
   20b2c:	bdf0      	pop	{r4, r5, r6, r7, pc}
   20b2e:	480e      	ldr	r0, [pc, #56]	@ (20b68 <_ZN18complex_no_dynamic3app17h2b7b77a9d5d31bc6E+0xa4>)
   20b30:	2603      	movs	r6, #3
   20b32:	4631      	mov	r1, r6
   20b34:	462a      	mov	r2, r5
   20b36:	462b      	mov	r3, r5
   20b38:	df03      	svc	3
   20b3a:	480b      	ldr	r0, [pc, #44]	@ (20b68 <_ZN18complex_no_dynamic3app17h2b7b77a9d5d31bc6E+0xa4>)
   20b3c:	4631      	mov	r1, r6
   20b3e:	462a      	mov	r2, r5
   20b40:	462b      	mov	r3, r5
   20b42:	df03      	svc	3
   20b44:	1c60      	adds	r0, r4, #1
   20b46:	a90f      	add	r1, sp, #60	@ 0x3c
   20b48:	2227      	movs	r2, #39	@ 0x27
   20b4a:	f006 f9b8 	bl	26ebe <__aeabi_memcpy>
   20b4e:	7025      	strb	r5, [r4, #0]
   20b50:	4c05      	ldr	r4, [pc, #20]	@ (20b68 <_ZN18complex_no_dynamic3app17h2b7b77a9d5d31bc6E+0xa4>)
   20b52:	4620      	mov	r0, r4
   20b54:	4631      	mov	r1, r6
   20b56:	462a      	mov	r2, r5
   20b58:	462b      	mov	r3, r5
   20b5a:	df03      	svc	3
   20b5c:	2105      	movs	r1, #5
   20b5e:	4620      	mov	r0, r4
   20b60:	462a      	mov	r2, r5
   20b62:	462b      	mov	r3, r5
   20b64:	df04      	svc	4
   20b66:	e7e0      	b.n	20b2a <_ZN18complex_no_dynamic3app17h2b7b77a9d5d31bc6E+0x66>
   20b68:	00000bd3 	.word	0x00000bd3

00020b6c <_ZN18complex_no_dynamic3app17h2e1f5ab27c69cc2bE>:
   20b6c:	b5f0      	push	{r4, r5, r6, r7, lr}
   20b6e:	af03      	add	r7, sp, #12
   20b70:	b09f      	sub	sp, #124	@ 0x7c
   20b72:	4604      	mov	r4, r0
   20b74:	ad01      	add	r5, sp, #4
   20b76:	2621      	movs	r6, #33	@ 0x21
   20b78:	4628      	mov	r0, r5
   20b7a:	4632      	mov	r2, r6
   20b7c:	f006 f99f 	bl	26ebe <__aeabi_memcpy>
   20b80:	a80a      	add	r0, sp, #40	@ 0x28
   20b82:	2153      	movs	r1, #83	@ 0x53
   20b84:	f005 ffee 	bl	26b64 <__aeabi_memclr4>
   20b88:	4821      	ldr	r0, [pc, #132]	@ (20c10 <_ZN18complex_no_dynamic3app17h2e1f5ab27c69cc2bE+0xa4>)
   20b8a:	2102      	movs	r1, #2
   20b8c:	462a      	mov	r2, r5
   20b8e:	4633      	mov	r3, r6
   20b90:	df04      	svc	4
   20b92:	2802      	cmp	r0, #2
   20b94:	d00e      	beq.n	20bb4 <_ZN18complex_no_dynamic3app17h2e1f5ab27c69cc2bE+0x48>
   20b96:	481e      	ldr	r0, [pc, #120]	@ (20c10 <_ZN18complex_no_dynamic3app17h2e1f5ab27c69cc2bE+0xa4>)
   20b98:	2108      	movs	r1, #8
   20b9a:	aa0a      	add	r2, sp, #40	@ 0x28
   20b9c:	2353      	movs	r3, #83	@ 0x53
   20b9e:	df03      	svc	3
   20ba0:	2802      	cmp	r0, #2
   20ba2:	d007      	beq.n	20bb4 <_ZN18complex_no_dynamic3app17h2e1f5ab27c69cc2bE+0x48>
   20ba4:	481a      	ldr	r0, [pc, #104]	@ (20c10 <_ZN18complex_no_dynamic3app17h2e1f5ab27c69cc2bE+0xa4>)
   20ba6:	2102      	movs	r1, #2
   20ba8:	2208      	movs	r2, #8
   20baa:	2500      	movs	r5, #0
   20bac:	462b      	mov	r3, r5
   20bae:	df02      	svc	2
   20bb0:	287f      	cmp	r0, #127	@ 0x7f
   20bb2:	d810      	bhi.n	20bd6 <_ZN18complex_no_dynamic3app17h2e1f5ab27c69cc2bE+0x6a>
   20bb4:	2001      	movs	r0, #1
   20bb6:	7020      	strb	r0, [r4, #0]
   20bb8:	6061      	str	r1, [r4, #4]
   20bba:	4c15      	ldr	r4, [pc, #84]	@ (20c10 <_ZN18complex_no_dynamic3app17h2e1f5ab27c69cc2bE+0xa4>)
   20bbc:	2108      	movs	r1, #8
   20bbe:	2500      	movs	r5, #0
   20bc0:	4620      	mov	r0, r4
   20bc2:	462a      	mov	r2, r5
   20bc4:	462b      	mov	r3, r5
   20bc6:	df03      	svc	3
   20bc8:	2102      	movs	r1, #2
   20bca:	4620      	mov	r0, r4
   20bcc:	462a      	mov	r2, r5
   20bce:	462b      	mov	r3, r5
   20bd0:	df04      	svc	4
   20bd2:	b01f      	add	sp, #124	@ 0x7c
   20bd4:	bdf0      	pop	{r4, r5, r6, r7, pc}
   20bd6:	480e      	ldr	r0, [pc, #56]	@ (20c10 <_ZN18complex_no_dynamic3app17h2e1f5ab27c69cc2bE+0xa4>)
   20bd8:	2608      	movs	r6, #8
   20bda:	4631      	mov	r1, r6
   20bdc:	462a      	mov	r2, r5
   20bde:	462b      	mov	r3, r5
   20be0:	df03      	svc	3
   20be2:	480b      	ldr	r0, [pc, #44]	@ (20c10 <_ZN18complex_no_dynamic3app17h2e1f5ab27c69cc2bE+0xa4>)
   20be4:	4631      	mov	r1, r6
   20be6:	462a      	mov	r2, r5
   20be8:	462b      	mov	r3, r5
   20bea:	df03      	svc	3
   20bec:	1c60      	adds	r0, r4, #1
   20bee:	a90a      	add	r1, sp, #40	@ 0x28
   20bf0:	2253      	movs	r2, #83	@ 0x53
   20bf2:	f006 f964 	bl	26ebe <__aeabi_memcpy>
   20bf6:	7025      	strb	r5, [r4, #0]
   20bf8:	4c05      	ldr	r4, [pc, #20]	@ (20c10 <_ZN18complex_no_dynamic3app17h2e1f5ab27c69cc2bE+0xa4>)
   20bfa:	4620      	mov	r0, r4
   20bfc:	4631      	mov	r1, r6
   20bfe:	462a      	mov	r2, r5
   20c00:	462b      	mov	r3, r5
   20c02:	df03      	svc	3
   20c04:	2102      	movs	r1, #2
   20c06:	4620      	mov	r0, r4
   20c08:	462a      	mov	r2, r5
   20c0a:	462b      	mov	r3, r5
   20c0c:	df04      	svc	4
   20c0e:	e7e0      	b.n	20bd2 <_ZN18complex_no_dynamic3app17h2e1f5ab27c69cc2bE+0x66>
   20c10:	0000253e 	.word	0x0000253e

00020c14 <_ZN18complex_no_dynamic3app17h335b306c1aa1705eE>:
   20c14:	b5f0      	push	{r4, r5, r6, r7, lr}
   20c16:	af03      	add	r7, sp, #12
   20c18:	b099      	sub	sp, #100	@ 0x64
   20c1a:	4604      	mov	r4, r0
   20c1c:	466d      	mov	r5, sp
   20c1e:	2611      	movs	r6, #17
   20c20:	4628      	mov	r0, r5
   20c22:	4632      	mov	r2, r6
   20c24:	f006 f94b 	bl	26ebe <__aeabi_memcpy>
   20c28:	a805      	add	r0, sp, #20
   20c2a:	2150      	movs	r1, #80	@ 0x50
   20c2c:	f005 ff9a 	bl	26b64 <__aeabi_memclr4>
   20c30:	4821      	ldr	r0, [pc, #132]	@ (20cb8 <_ZN18complex_no_dynamic3app17h335b306c1aa1705eE+0xa4>)
   20c32:	2106      	movs	r1, #6
   20c34:	462a      	mov	r2, r5
   20c36:	4633      	mov	r3, r6
   20c38:	df04      	svc	4
   20c3a:	2802      	cmp	r0, #2
   20c3c:	d00e      	beq.n	20c5c <_ZN18complex_no_dynamic3app17h335b306c1aa1705eE+0x48>
   20c3e:	481e      	ldr	r0, [pc, #120]	@ (20cb8 <_ZN18complex_no_dynamic3app17h335b306c1aa1705eE+0xa4>)
   20c40:	2105      	movs	r1, #5
   20c42:	aa05      	add	r2, sp, #20
   20c44:	2350      	movs	r3, #80	@ 0x50
   20c46:	df03      	svc	3
   20c48:	2802      	cmp	r0, #2
   20c4a:	d007      	beq.n	20c5c <_ZN18complex_no_dynamic3app17h335b306c1aa1705eE+0x48>
   20c4c:	481a      	ldr	r0, [pc, #104]	@ (20cb8 <_ZN18complex_no_dynamic3app17h335b306c1aa1705eE+0xa4>)
   20c4e:	2106      	movs	r1, #6
   20c50:	2205      	movs	r2, #5
   20c52:	2500      	movs	r5, #0
   20c54:	462b      	mov	r3, r5
   20c56:	df02      	svc	2
   20c58:	287f      	cmp	r0, #127	@ 0x7f
   20c5a:	d810      	bhi.n	20c7e <_ZN18complex_no_dynamic3app17h335b306c1aa1705eE+0x6a>
   20c5c:	2001      	movs	r0, #1
   20c5e:	7020      	strb	r0, [r4, #0]
   20c60:	6061      	str	r1, [r4, #4]
   20c62:	4c15      	ldr	r4, [pc, #84]	@ (20cb8 <_ZN18complex_no_dynamic3app17h335b306c1aa1705eE+0xa4>)
   20c64:	2105      	movs	r1, #5
   20c66:	2500      	movs	r5, #0
   20c68:	4620      	mov	r0, r4
   20c6a:	462a      	mov	r2, r5
   20c6c:	462b      	mov	r3, r5
   20c6e:	df03      	svc	3
   20c70:	2106      	movs	r1, #6
   20c72:	4620      	mov	r0, r4
   20c74:	462a      	mov	r2, r5
   20c76:	462b      	mov	r3, r5
   20c78:	df04      	svc	4
   20c7a:	b019      	add	sp, #100	@ 0x64
   20c7c:	bdf0      	pop	{r4, r5, r6, r7, pc}
   20c7e:	480e      	ldr	r0, [pc, #56]	@ (20cb8 <_ZN18complex_no_dynamic3app17h335b306c1aa1705eE+0xa4>)
   20c80:	2605      	movs	r6, #5
   20c82:	4631      	mov	r1, r6
   20c84:	462a      	mov	r2, r5
   20c86:	462b      	mov	r3, r5
   20c88:	df03      	svc	3
   20c8a:	480b      	ldr	r0, [pc, #44]	@ (20cb8 <_ZN18complex_no_dynamic3app17h335b306c1aa1705eE+0xa4>)
   20c8c:	4631      	mov	r1, r6
   20c8e:	462a      	mov	r2, r5
   20c90:	462b      	mov	r3, r5
   20c92:	df03      	svc	3
   20c94:	1c60      	adds	r0, r4, #1
   20c96:	a905      	add	r1, sp, #20
   20c98:	2250      	movs	r2, #80	@ 0x50
   20c9a:	f006 f910 	bl	26ebe <__aeabi_memcpy>
   20c9e:	7025      	strb	r5, [r4, #0]
   20ca0:	4c05      	ldr	r4, [pc, #20]	@ (20cb8 <_ZN18complex_no_dynamic3app17h335b306c1aa1705eE+0xa4>)
   20ca2:	4620      	mov	r0, r4
   20ca4:	4631      	mov	r1, r6
   20ca6:	462a      	mov	r2, r5
   20ca8:	462b      	mov	r3, r5
   20caa:	df03      	svc	3
   20cac:	2106      	movs	r1, #6
   20cae:	4620      	mov	r0, r4
   20cb0:	462a      	mov	r2, r5
   20cb2:	462b      	mov	r3, r5
   20cb4:	df04      	svc	4
   20cb6:	e7e0      	b.n	20c7a <_ZN18complex_no_dynamic3app17h335b306c1aa1705eE+0x66>
   20cb8:	00001aa9 	.word	0x00001aa9

00020cbc <_ZN18complex_no_dynamic3app17h349e40cfa540a3ebE>:
   20cbc:	b5f0      	push	{r4, r5, r6, r7, lr}
   20cbe:	af03      	add	r7, sp, #12
   20cc0:	b08f      	sub	sp, #60	@ 0x3c
   20cc2:	4604      	mov	r4, r0
   20cc4:	466d      	mov	r5, sp
   20cc6:	262b      	movs	r6, #43	@ 0x2b
   20cc8:	4628      	mov	r0, r5
   20cca:	4632      	mov	r2, r6
   20ccc:	f006 f8f7 	bl	26ebe <__aeabi_memcpy>
   20cd0:	a80b      	add	r0, sp, #44	@ 0x2c
   20cd2:	2100      	movs	r1, #0
   20cd4:	7301      	strb	r1, [r0, #12]
   20cd6:	910d      	str	r1, [sp, #52]	@ 0x34
   20cd8:	910c      	str	r1, [sp, #48]	@ 0x30
   20cda:	910b      	str	r1, [sp, #44]	@ 0x2c
   20cdc:	4821      	ldr	r0, [pc, #132]	@ (20d64 <_ZN18complex_no_dynamic3app17h349e40cfa540a3ebE+0xa8>)
   20cde:	2106      	movs	r1, #6
   20ce0:	462a      	mov	r2, r5
   20ce2:	4633      	mov	r3, r6
   20ce4:	df04      	svc	4
   20ce6:	2802      	cmp	r0, #2
   20ce8:	d00e      	beq.n	20d08 <_ZN18complex_no_dynamic3app17h349e40cfa540a3ebE+0x4c>
   20cea:	481e      	ldr	r0, [pc, #120]	@ (20d64 <_ZN18complex_no_dynamic3app17h349e40cfa540a3ebE+0xa8>)
   20cec:	2100      	movs	r1, #0
   20cee:	aa0b      	add	r2, sp, #44	@ 0x2c
   20cf0:	230d      	movs	r3, #13
   20cf2:	df03      	svc	3
   20cf4:	2802      	cmp	r0, #2
   20cf6:	d007      	beq.n	20d08 <_ZN18complex_no_dynamic3app17h349e40cfa540a3ebE+0x4c>
   20cf8:	481a      	ldr	r0, [pc, #104]	@ (20d64 <_ZN18complex_no_dynamic3app17h349e40cfa540a3ebE+0xa8>)
   20cfa:	2106      	movs	r1, #6
   20cfc:	2500      	movs	r5, #0
   20cfe:	462a      	mov	r2, r5
   20d00:	462b      	mov	r3, r5
   20d02:	df02      	svc	2
   20d04:	287f      	cmp	r0, #127	@ 0x7f
   20d06:	d810      	bhi.n	20d2a <_ZN18complex_no_dynamic3app17h349e40cfa540a3ebE+0x6e>
   20d08:	2001      	movs	r0, #1
   20d0a:	7020      	strb	r0, [r4, #0]
   20d0c:	6061      	str	r1, [r4, #4]
   20d0e:	4c15      	ldr	r4, [pc, #84]	@ (20d64 <_ZN18complex_no_dynamic3app17h349e40cfa540a3ebE+0xa8>)
   20d10:	2500      	movs	r5, #0
   20d12:	4620      	mov	r0, r4
   20d14:	4629      	mov	r1, r5
   20d16:	462a      	mov	r2, r5
   20d18:	462b      	mov	r3, r5
   20d1a:	df03      	svc	3
   20d1c:	2106      	movs	r1, #6
   20d1e:	4620      	mov	r0, r4
   20d20:	462a      	mov	r2, r5
   20d22:	462b      	mov	r3, r5
   20d24:	df04      	svc	4
   20d26:	b00f      	add	sp, #60	@ 0x3c
   20d28:	bdf0      	pop	{r4, r5, r6, r7, pc}
   20d2a:	4e0e      	ldr	r6, [pc, #56]	@ (20d64 <_ZN18complex_no_dynamic3app17h349e40cfa540a3ebE+0xa8>)
   20d2c:	4630      	mov	r0, r6
   20d2e:	4629      	mov	r1, r5
   20d30:	462a      	mov	r2, r5
   20d32:	462b      	mov	r3, r5
   20d34:	df03      	svc	3
   20d36:	4630      	mov	r0, r6
   20d38:	4629      	mov	r1, r5
   20d3a:	462a      	mov	r2, r5
   20d3c:	462b      	mov	r3, r5
   20d3e:	df03      	svc	3
   20d40:	1c60      	adds	r0, r4, #1
   20d42:	a90b      	add	r1, sp, #44	@ 0x2c
   20d44:	220d      	movs	r2, #13
   20d46:	f006 f8ba 	bl	26ebe <__aeabi_memcpy>
   20d4a:	7025      	strb	r5, [r4, #0]
   20d4c:	4630      	mov	r0, r6
   20d4e:	4629      	mov	r1, r5
   20d50:	462a      	mov	r2, r5
   20d52:	462b      	mov	r3, r5
   20d54:	df03      	svc	3
   20d56:	2106      	movs	r1, #6
   20d58:	4630      	mov	r0, r6
   20d5a:	462a      	mov	r2, r5
   20d5c:	462b      	mov	r3, r5
   20d5e:	df04      	svc	4
   20d60:	e7e1      	b.n	20d26 <_ZN18complex_no_dynamic3app17h349e40cfa540a3ebE+0x6a>
   20d62:	46c0      	nop			@ (mov r8, r8)
   20d64:	00001465 	.word	0x00001465

00020d68 <_ZN18complex_no_dynamic3app17h353b32559aa19843E>:
   20d68:	b5f0      	push	{r4, r5, r6, r7, lr}
   20d6a:	af03      	add	r7, sp, #12
   20d6c:	b099      	sub	sp, #100	@ 0x64
   20d6e:	4604      	mov	r4, r0
   20d70:	466d      	mov	r5, sp
   20d72:	2651      	movs	r6, #81	@ 0x51
   20d74:	4628      	mov	r0, r5
   20d76:	4632      	mov	r2, r6
   20d78:	f006 f8a1 	bl	26ebe <__aeabi_memcpy>
   20d7c:	a815      	add	r0, sp, #84	@ 0x54
   20d7e:	210f      	movs	r1, #15
   20d80:	f005 fef0 	bl	26b64 <__aeabi_memclr4>
   20d84:	4821      	ldr	r0, [pc, #132]	@ (20e0c <_ZN18complex_no_dynamic3app17h353b32559aa19843E+0xa4>)
   20d86:	2100      	movs	r1, #0
   20d88:	462a      	mov	r2, r5
   20d8a:	4633      	mov	r3, r6
   20d8c:	df04      	svc	4
   20d8e:	2802      	cmp	r0, #2
   20d90:	d00e      	beq.n	20db0 <_ZN18complex_no_dynamic3app17h353b32559aa19843E+0x48>
   20d92:	481e      	ldr	r0, [pc, #120]	@ (20e0c <_ZN18complex_no_dynamic3app17h353b32559aa19843E+0xa4>)
   20d94:	2103      	movs	r1, #3
   20d96:	aa15      	add	r2, sp, #84	@ 0x54
   20d98:	230f      	movs	r3, #15
   20d9a:	df03      	svc	3
   20d9c:	2802      	cmp	r0, #2
   20d9e:	d007      	beq.n	20db0 <_ZN18complex_no_dynamic3app17h353b32559aa19843E+0x48>
   20da0:	481a      	ldr	r0, [pc, #104]	@ (20e0c <_ZN18complex_no_dynamic3app17h353b32559aa19843E+0xa4>)
   20da2:	2203      	movs	r2, #3
   20da4:	2500      	movs	r5, #0
   20da6:	4629      	mov	r1, r5
   20da8:	462b      	mov	r3, r5
   20daa:	df02      	svc	2
   20dac:	287f      	cmp	r0, #127	@ 0x7f
   20dae:	d810      	bhi.n	20dd2 <_ZN18complex_no_dynamic3app17h353b32559aa19843E+0x6a>
   20db0:	2001      	movs	r0, #1
   20db2:	7020      	strb	r0, [r4, #0]
   20db4:	6061      	str	r1, [r4, #4]
   20db6:	4c15      	ldr	r4, [pc, #84]	@ (20e0c <_ZN18complex_no_dynamic3app17h353b32559aa19843E+0xa4>)
   20db8:	2103      	movs	r1, #3
   20dba:	2500      	movs	r5, #0
   20dbc:	4620      	mov	r0, r4
   20dbe:	462a      	mov	r2, r5
   20dc0:	462b      	mov	r3, r5
   20dc2:	df03      	svc	3
   20dc4:	4620      	mov	r0, r4
   20dc6:	4629      	mov	r1, r5
   20dc8:	462a      	mov	r2, r5
   20dca:	462b      	mov	r3, r5
   20dcc:	df04      	svc	4
   20dce:	b019      	add	sp, #100	@ 0x64
   20dd0:	bdf0      	pop	{r4, r5, r6, r7, pc}
   20dd2:	480e      	ldr	r0, [pc, #56]	@ (20e0c <_ZN18complex_no_dynamic3app17h353b32559aa19843E+0xa4>)
   20dd4:	2603      	movs	r6, #3
   20dd6:	4631      	mov	r1, r6
   20dd8:	462a      	mov	r2, r5
   20dda:	462b      	mov	r3, r5
   20ddc:	df03      	svc	3
   20dde:	480b      	ldr	r0, [pc, #44]	@ (20e0c <_ZN18complex_no_dynamic3app17h353b32559aa19843E+0xa4>)
   20de0:	4631      	mov	r1, r6
   20de2:	462a      	mov	r2, r5
   20de4:	462b      	mov	r3, r5
   20de6:	df03      	svc	3
   20de8:	1c60      	adds	r0, r4, #1
   20dea:	a915      	add	r1, sp, #84	@ 0x54
   20dec:	220f      	movs	r2, #15
   20dee:	f006 f866 	bl	26ebe <__aeabi_memcpy>
   20df2:	7025      	strb	r5, [r4, #0]
   20df4:	4c05      	ldr	r4, [pc, #20]	@ (20e0c <_ZN18complex_no_dynamic3app17h353b32559aa19843E+0xa4>)
   20df6:	4620      	mov	r0, r4
   20df8:	4631      	mov	r1, r6
   20dfa:	462a      	mov	r2, r5
   20dfc:	462b      	mov	r3, r5
   20dfe:	df03      	svc	3
   20e00:	4620      	mov	r0, r4
   20e02:	4629      	mov	r1, r5
   20e04:	462a      	mov	r2, r5
   20e06:	462b      	mov	r3, r5
   20e08:	df04      	svc	4
   20e0a:	e7e0      	b.n	20dce <_ZN18complex_no_dynamic3app17h353b32559aa19843E+0x66>
   20e0c:	000013bf 	.word	0x000013bf

00020e10 <_ZN18complex_no_dynamic3app17h35721d0d59c2786cE>:
   20e10:	b5f0      	push	{r4, r5, r6, r7, lr}
   20e12:	af03      	add	r7, sp, #12
   20e14:	b09f      	sub	sp, #124	@ 0x7c
   20e16:	4604      	mov	r4, r0
   20e18:	466d      	mov	r5, sp
   20e1a:	261c      	movs	r6, #28
   20e1c:	4628      	mov	r0, r5
   20e1e:	4632      	mov	r2, r6
   20e20:	f006 f84d 	bl	26ebe <__aeabi_memcpy>
   20e24:	a807      	add	r0, sp, #28
   20e26:	215d      	movs	r1, #93	@ 0x5d
   20e28:	f005 fe9c 	bl	26b64 <__aeabi_memclr4>
   20e2c:	4821      	ldr	r0, [pc, #132]	@ (20eb4 <_ZN18complex_no_dynamic3app17h35721d0d59c2786cE+0xa4>)
   20e2e:	2108      	movs	r1, #8
   20e30:	462a      	mov	r2, r5
   20e32:	4633      	mov	r3, r6
   20e34:	df04      	svc	4
   20e36:	2802      	cmp	r0, #2
   20e38:	d00e      	beq.n	20e58 <_ZN18complex_no_dynamic3app17h35721d0d59c2786cE+0x48>
   20e3a:	481e      	ldr	r0, [pc, #120]	@ (20eb4 <_ZN18complex_no_dynamic3app17h35721d0d59c2786cE+0xa4>)
   20e3c:	2105      	movs	r1, #5
   20e3e:	aa07      	add	r2, sp, #28
   20e40:	235d      	movs	r3, #93	@ 0x5d
   20e42:	df03      	svc	3
   20e44:	2802      	cmp	r0, #2
   20e46:	d007      	beq.n	20e58 <_ZN18complex_no_dynamic3app17h35721d0d59c2786cE+0x48>
   20e48:	481a      	ldr	r0, [pc, #104]	@ (20eb4 <_ZN18complex_no_dynamic3app17h35721d0d59c2786cE+0xa4>)
   20e4a:	2108      	movs	r1, #8
   20e4c:	2205      	movs	r2, #5
   20e4e:	2500      	movs	r5, #0
   20e50:	462b      	mov	r3, r5
   20e52:	df02      	svc	2
   20e54:	287f      	cmp	r0, #127	@ 0x7f
   20e56:	d810      	bhi.n	20e7a <_ZN18complex_no_dynamic3app17h35721d0d59c2786cE+0x6a>
   20e58:	2001      	movs	r0, #1
   20e5a:	7020      	strb	r0, [r4, #0]
   20e5c:	6061      	str	r1, [r4, #4]
   20e5e:	4c15      	ldr	r4, [pc, #84]	@ (20eb4 <_ZN18complex_no_dynamic3app17h35721d0d59c2786cE+0xa4>)
   20e60:	2105      	movs	r1, #5
   20e62:	2500      	movs	r5, #0
   20e64:	4620      	mov	r0, r4
   20e66:	462a      	mov	r2, r5
   20e68:	462b      	mov	r3, r5
   20e6a:	df03      	svc	3
   20e6c:	2108      	movs	r1, #8
   20e6e:	4620      	mov	r0, r4
   20e70:	462a      	mov	r2, r5
   20e72:	462b      	mov	r3, r5
   20e74:	df04      	svc	4
   20e76:	b01f      	add	sp, #124	@ 0x7c
   20e78:	bdf0      	pop	{r4, r5, r6, r7, pc}
   20e7a:	480e      	ldr	r0, [pc, #56]	@ (20eb4 <_ZN18complex_no_dynamic3app17h35721d0d59c2786cE+0xa4>)
   20e7c:	2605      	movs	r6, #5
   20e7e:	4631      	mov	r1, r6
   20e80:	462a      	mov	r2, r5
   20e82:	462b      	mov	r3, r5
   20e84:	df03      	svc	3
   20e86:	480b      	ldr	r0, [pc, #44]	@ (20eb4 <_ZN18complex_no_dynamic3app17h35721d0d59c2786cE+0xa4>)
   20e88:	4631      	mov	r1, r6
   20e8a:	462a      	mov	r2, r5
   20e8c:	462b      	mov	r3, r5
   20e8e:	df03      	svc	3
   20e90:	1c60      	adds	r0, r4, #1
   20e92:	a907      	add	r1, sp, #28
   20e94:	225d      	movs	r2, #93	@ 0x5d
   20e96:	f006 f812 	bl	26ebe <__aeabi_memcpy>
   20e9a:	7025      	strb	r5, [r4, #0]
   20e9c:	4c05      	ldr	r4, [pc, #20]	@ (20eb4 <_ZN18complex_no_dynamic3app17h35721d0d59c2786cE+0xa4>)
   20e9e:	4620      	mov	r0, r4
   20ea0:	4631      	mov	r1, r6
   20ea2:	462a      	mov	r2, r5
   20ea4:	462b      	mov	r3, r5
   20ea6:	df03      	svc	3
   20ea8:	2108      	movs	r1, #8
   20eaa:	4620      	mov	r0, r4
   20eac:	462a      	mov	r2, r5
   20eae:	462b      	mov	r3, r5
   20eb0:	df04      	svc	4
   20eb2:	e7e0      	b.n	20e76 <_ZN18complex_no_dynamic3app17h35721d0d59c2786cE+0x66>
   20eb4:	00000c3e 	.word	0x00000c3e

00020eb8 <_ZN18complex_no_dynamic3app17h379d78cf93aab318E>:
   20eb8:	b5f0      	push	{r4, r5, r6, r7, lr}
   20eba:	af03      	add	r7, sp, #12
   20ebc:	b0af      	sub	sp, #188	@ 0xbc
   20ebe:	9001      	str	r0, [sp, #4]
   20ec0:	ae02      	add	r6, sp, #8
   20ec2:	244f      	movs	r4, #79	@ 0x4f
   20ec4:	4630      	mov	r0, r6
   20ec6:	4622      	mov	r2, r4
   20ec8:	f005 fff9 	bl	26ebe <__aeabi_memcpy>
   20ecc:	a816      	add	r0, sp, #88	@ 0x58
   20ece:	2161      	movs	r1, #97	@ 0x61
   20ed0:	f005 fe48 	bl	26b64 <__aeabi_memclr4>
   20ed4:	20db      	movs	r0, #219	@ 0xdb
   20ed6:	0045      	lsls	r5, r0, #1
   20ed8:	2102      	movs	r1, #2
   20eda:	4628      	mov	r0, r5
   20edc:	4632      	mov	r2, r6
   20ede:	4623      	mov	r3, r4
   20ee0:	df04      	svc	4
   20ee2:	2802      	cmp	r0, #2
   20ee4:	d00e      	beq.n	20f04 <_ZN18complex_no_dynamic3app17h379d78cf93aab318E+0x4c>
   20ee6:	2108      	movs	r1, #8
   20ee8:	aa16      	add	r2, sp, #88	@ 0x58
   20eea:	2361      	movs	r3, #97	@ 0x61
   20eec:	4628      	mov	r0, r5
   20eee:	df03      	svc	3
   20ef0:	2802      	cmp	r0, #2
   20ef2:	d007      	beq.n	20f04 <_ZN18complex_no_dynamic3app17h379d78cf93aab318E+0x4c>
   20ef4:	2102      	movs	r1, #2
   20ef6:	2208      	movs	r2, #8
   20ef8:	2600      	movs	r6, #0
   20efa:	4628      	mov	r0, r5
   20efc:	4633      	mov	r3, r6
   20efe:	df02      	svc	2
   20f00:	287f      	cmp	r0, #127	@ 0x7f
   20f02:	d810      	bhi.n	20f26 <_ZN18complex_no_dynamic3app17h379d78cf93aab318E+0x6e>
   20f04:	2001      	movs	r0, #1
   20f06:	9a01      	ldr	r2, [sp, #4]
   20f08:	7010      	strb	r0, [r2, #0]
   20f0a:	6051      	str	r1, [r2, #4]
   20f0c:	2108      	movs	r1, #8
   20f0e:	2400      	movs	r4, #0
   20f10:	4628      	mov	r0, r5
   20f12:	4622      	mov	r2, r4
   20f14:	4623      	mov	r3, r4
   20f16:	df03      	svc	3
   20f18:	2102      	movs	r1, #2
   20f1a:	4628      	mov	r0, r5
   20f1c:	4622      	mov	r2, r4
   20f1e:	4623      	mov	r3, r4
   20f20:	df04      	svc	4
   20f22:	b02f      	add	sp, #188	@ 0xbc
   20f24:	bdf0      	pop	{r4, r5, r6, r7, pc}
   20f26:	2408      	movs	r4, #8
   20f28:	9400      	str	r4, [sp, #0]
   20f2a:	4628      	mov	r0, r5
   20f2c:	4621      	mov	r1, r4
   20f2e:	4632      	mov	r2, r6
   20f30:	4633      	mov	r3, r6
   20f32:	df03      	svc	3
   20f34:	4628      	mov	r0, r5
   20f36:	4621      	mov	r1, r4
   20f38:	4632      	mov	r2, r6
   20f3a:	4633      	mov	r3, r6
   20f3c:	df03      	svc	3
   20f3e:	9c01      	ldr	r4, [sp, #4]
   20f40:	1c60      	adds	r0, r4, #1
   20f42:	a916      	add	r1, sp, #88	@ 0x58
   20f44:	2261      	movs	r2, #97	@ 0x61
   20f46:	f005 ffba 	bl	26ebe <__aeabi_memcpy>
   20f4a:	7026      	strb	r6, [r4, #0]
   20f4c:	4628      	mov	r0, r5
   20f4e:	9900      	ldr	r1, [sp, #0]
   20f50:	4632      	mov	r2, r6
   20f52:	4633      	mov	r3, r6
   20f54:	df03      	svc	3
   20f56:	2102      	movs	r1, #2
   20f58:	4628      	mov	r0, r5
   20f5a:	4632      	mov	r2, r6
   20f5c:	4633      	mov	r3, r6
   20f5e:	df04      	svc	4
   20f60:	e7df      	b.n	20f22 <_ZN18complex_no_dynamic3app17h379d78cf93aab318E+0x6a>
   20f62:	d4d4      	bmi.n	20f0e <_ZN18complex_no_dynamic3app17h379d78cf93aab318E+0x56>

00020f64 <_ZN18complex_no_dynamic3app17h38a2a40169277b62E>:
   20f64:	b5f0      	push	{r4, r5, r6, r7, lr}
   20f66:	af03      	add	r7, sp, #12
   20f68:	b097      	sub	sp, #92	@ 0x5c
   20f6a:	4604      	mov	r4, r0
   20f6c:	466d      	mov	r5, sp
   20f6e:	261e      	movs	r6, #30
   20f70:	4628      	mov	r0, r5
   20f72:	4632      	mov	r2, r6
   20f74:	f005 ffa3 	bl	26ebe <__aeabi_memcpy>
   20f78:	a808      	add	r0, sp, #32
   20f7a:	213c      	movs	r1, #60	@ 0x3c
   20f7c:	f005 fdf2 	bl	26b64 <__aeabi_memclr4>
   20f80:	4821      	ldr	r0, [pc, #132]	@ (21008 <_ZN18complex_no_dynamic3app17h38a2a40169277b62E+0xa4>)
   20f82:	2102      	movs	r1, #2
   20f84:	462a      	mov	r2, r5
   20f86:	4633      	mov	r3, r6
   20f88:	df04      	svc	4
   20f8a:	2802      	cmp	r0, #2
   20f8c:	d00e      	beq.n	20fac <_ZN18complex_no_dynamic3app17h38a2a40169277b62E+0x48>
   20f8e:	481e      	ldr	r0, [pc, #120]	@ (21008 <_ZN18complex_no_dynamic3app17h38a2a40169277b62E+0xa4>)
   20f90:	2103      	movs	r1, #3
   20f92:	aa08      	add	r2, sp, #32
   20f94:	233c      	movs	r3, #60	@ 0x3c
   20f96:	df03      	svc	3
   20f98:	2802      	cmp	r0, #2
   20f9a:	d007      	beq.n	20fac <_ZN18complex_no_dynamic3app17h38a2a40169277b62E+0x48>
   20f9c:	481a      	ldr	r0, [pc, #104]	@ (21008 <_ZN18complex_no_dynamic3app17h38a2a40169277b62E+0xa4>)
   20f9e:	2102      	movs	r1, #2
   20fa0:	2203      	movs	r2, #3
   20fa2:	2500      	movs	r5, #0
   20fa4:	462b      	mov	r3, r5
   20fa6:	df02      	svc	2
   20fa8:	287f      	cmp	r0, #127	@ 0x7f
   20faa:	d810      	bhi.n	20fce <_ZN18complex_no_dynamic3app17h38a2a40169277b62E+0x6a>
   20fac:	2001      	movs	r0, #1
   20fae:	7020      	strb	r0, [r4, #0]
   20fb0:	6061      	str	r1, [r4, #4]
   20fb2:	4c15      	ldr	r4, [pc, #84]	@ (21008 <_ZN18complex_no_dynamic3app17h38a2a40169277b62E+0xa4>)
   20fb4:	2103      	movs	r1, #3
   20fb6:	2500      	movs	r5, #0
   20fb8:	4620      	mov	r0, r4
   20fba:	462a      	mov	r2, r5
   20fbc:	462b      	mov	r3, r5
   20fbe:	df03      	svc	3
   20fc0:	2102      	movs	r1, #2
   20fc2:	4620      	mov	r0, r4
   20fc4:	462a      	mov	r2, r5
   20fc6:	462b      	mov	r3, r5
   20fc8:	df04      	svc	4
   20fca:	b017      	add	sp, #92	@ 0x5c
   20fcc:	bdf0      	pop	{r4, r5, r6, r7, pc}
   20fce:	480e      	ldr	r0, [pc, #56]	@ (21008 <_ZN18complex_no_dynamic3app17h38a2a40169277b62E+0xa4>)
   20fd0:	2603      	movs	r6, #3
   20fd2:	4631      	mov	r1, r6
   20fd4:	462a      	mov	r2, r5
   20fd6:	462b      	mov	r3, r5
   20fd8:	df03      	svc	3
   20fda:	480b      	ldr	r0, [pc, #44]	@ (21008 <_ZN18complex_no_dynamic3app17h38a2a40169277b62E+0xa4>)
   20fdc:	4631      	mov	r1, r6
   20fde:	462a      	mov	r2, r5
   20fe0:	462b      	mov	r3, r5
   20fe2:	df03      	svc	3
   20fe4:	1c60      	adds	r0, r4, #1
   20fe6:	a908      	add	r1, sp, #32
   20fe8:	223c      	movs	r2, #60	@ 0x3c
   20fea:	f005 ff68 	bl	26ebe <__aeabi_memcpy>
   20fee:	7025      	strb	r5, [r4, #0]
   20ff0:	4c05      	ldr	r4, [pc, #20]	@ (21008 <_ZN18complex_no_dynamic3app17h38a2a40169277b62E+0xa4>)
   20ff2:	4620      	mov	r0, r4
   20ff4:	4631      	mov	r1, r6
   20ff6:	462a      	mov	r2, r5
   20ff8:	462b      	mov	r3, r5
   20ffa:	df03      	svc	3
   20ffc:	2102      	movs	r1, #2
   20ffe:	4620      	mov	r0, r4
   21000:	462a      	mov	r2, r5
   21002:	462b      	mov	r3, r5
   21004:	df04      	svc	4
   21006:	e7e0      	b.n	20fca <_ZN18complex_no_dynamic3app17h38a2a40169277b62E+0x66>
   21008:	00000b3c 	.word	0x00000b3c

0002100c <_ZN18complex_no_dynamic3app17h3cdb994f52cbe0f6E>:
   2100c:	b5f0      	push	{r4, r5, r6, r7, lr}
   2100e:	af03      	add	r7, sp, #12
   21010:	b0a9      	sub	sp, #164	@ 0xa4
   21012:	4604      	mov	r4, r0
   21014:	ad01      	add	r5, sp, #4
   21016:	265d      	movs	r6, #93	@ 0x5d
   21018:	4628      	mov	r0, r5
   2101a:	4632      	mov	r2, r6
   2101c:	f005 ff4f 	bl	26ebe <__aeabi_memcpy>
   21020:	a819      	add	r0, sp, #100	@ 0x64
   21022:	2140      	movs	r1, #64	@ 0x40
   21024:	f005 fd9e 	bl	26b64 <__aeabi_memclr4>
   21028:	4821      	ldr	r0, [pc, #132]	@ (210b0 <_ZN18complex_no_dynamic3app17h3cdb994f52cbe0f6E+0xa4>)
   2102a:	2108      	movs	r1, #8
   2102c:	462a      	mov	r2, r5
   2102e:	4633      	mov	r3, r6
   21030:	df04      	svc	4
   21032:	2802      	cmp	r0, #2
   21034:	d00e      	beq.n	21054 <_ZN18complex_no_dynamic3app17h3cdb994f52cbe0f6E+0x48>
   21036:	481e      	ldr	r0, [pc, #120]	@ (210b0 <_ZN18complex_no_dynamic3app17h3cdb994f52cbe0f6E+0xa4>)
   21038:	2104      	movs	r1, #4
   2103a:	aa19      	add	r2, sp, #100	@ 0x64
   2103c:	2340      	movs	r3, #64	@ 0x40
   2103e:	df03      	svc	3
   21040:	2802      	cmp	r0, #2
   21042:	d007      	beq.n	21054 <_ZN18complex_no_dynamic3app17h3cdb994f52cbe0f6E+0x48>
   21044:	481a      	ldr	r0, [pc, #104]	@ (210b0 <_ZN18complex_no_dynamic3app17h3cdb994f52cbe0f6E+0xa4>)
   21046:	2108      	movs	r1, #8
   21048:	2204      	movs	r2, #4
   2104a:	2500      	movs	r5, #0
   2104c:	462b      	mov	r3, r5
   2104e:	df02      	svc	2
   21050:	287f      	cmp	r0, #127	@ 0x7f
   21052:	d810      	bhi.n	21076 <_ZN18complex_no_dynamic3app17h3cdb994f52cbe0f6E+0x6a>
   21054:	2001      	movs	r0, #1
   21056:	7020      	strb	r0, [r4, #0]
   21058:	6061      	str	r1, [r4, #4]
   2105a:	4c15      	ldr	r4, [pc, #84]	@ (210b0 <_ZN18complex_no_dynamic3app17h3cdb994f52cbe0f6E+0xa4>)
   2105c:	2104      	movs	r1, #4
   2105e:	2500      	movs	r5, #0
   21060:	4620      	mov	r0, r4
   21062:	462a      	mov	r2, r5
   21064:	462b      	mov	r3, r5
   21066:	df03      	svc	3
   21068:	2108      	movs	r1, #8
   2106a:	4620      	mov	r0, r4
   2106c:	462a      	mov	r2, r5
   2106e:	462b      	mov	r3, r5
   21070:	df04      	svc	4
   21072:	b029      	add	sp, #164	@ 0xa4
   21074:	bdf0      	pop	{r4, r5, r6, r7, pc}
   21076:	480e      	ldr	r0, [pc, #56]	@ (210b0 <_ZN18complex_no_dynamic3app17h3cdb994f52cbe0f6E+0xa4>)
   21078:	2604      	movs	r6, #4
   2107a:	4631      	mov	r1, r6
   2107c:	462a      	mov	r2, r5
   2107e:	462b      	mov	r3, r5
   21080:	df03      	svc	3
   21082:	480b      	ldr	r0, [pc, #44]	@ (210b0 <_ZN18complex_no_dynamic3app17h3cdb994f52cbe0f6E+0xa4>)
   21084:	4631      	mov	r1, r6
   21086:	462a      	mov	r2, r5
   21088:	462b      	mov	r3, r5
   2108a:	df03      	svc	3
   2108c:	1c60      	adds	r0, r4, #1
   2108e:	a919      	add	r1, sp, #100	@ 0x64
   21090:	2240      	movs	r2, #64	@ 0x40
   21092:	f005 ff14 	bl	26ebe <__aeabi_memcpy>
   21096:	7025      	strb	r5, [r4, #0]
   21098:	4c05      	ldr	r4, [pc, #20]	@ (210b0 <_ZN18complex_no_dynamic3app17h3cdb994f52cbe0f6E+0xa4>)
   2109a:	4620      	mov	r0, r4
   2109c:	4631      	mov	r1, r6
   2109e:	462a      	mov	r2, r5
   210a0:	462b      	mov	r3, r5
   210a2:	df03      	svc	3
   210a4:	2108      	movs	r1, #8
   210a6:	4620      	mov	r0, r4
   210a8:	462a      	mov	r2, r5
   210aa:	462b      	mov	r3, r5
   210ac:	df04      	svc	4
   210ae:	e7e0      	b.n	21072 <_ZN18complex_no_dynamic3app17h3cdb994f52cbe0f6E+0x66>
   210b0:	00001028 	.word	0x00001028

000210b4 <_ZN18complex_no_dynamic3app17h40a3c36f83fae400E>:
   210b4:	b5f0      	push	{r4, r5, r6, r7, lr}
   210b6:	af03      	add	r7, sp, #12
   210b8:	b095      	sub	sp, #84	@ 0x54
   210ba:	4604      	mov	r4, r0
   210bc:	466d      	mov	r5, sp
   210be:	262c      	movs	r6, #44	@ 0x2c
   210c0:	4628      	mov	r0, r5
   210c2:	4632      	mov	r2, r6
   210c4:	f005 fefb 	bl	26ebe <__aeabi_memcpy>
   210c8:	a80b      	add	r0, sp, #44	@ 0x2c
   210ca:	2127      	movs	r1, #39	@ 0x27
   210cc:	f005 fd4a 	bl	26b64 <__aeabi_memclr4>
   210d0:	4821      	ldr	r0, [pc, #132]	@ (21158 <_ZN18complex_no_dynamic3app17h40a3c36f83fae400E+0xa4>)
   210d2:	2104      	movs	r1, #4
   210d4:	462a      	mov	r2, r5
   210d6:	4633      	mov	r3, r6
   210d8:	df04      	svc	4
   210da:	2802      	cmp	r0, #2
   210dc:	d00e      	beq.n	210fc <_ZN18complex_no_dynamic3app17h40a3c36f83fae400E+0x48>
   210de:	481e      	ldr	r0, [pc, #120]	@ (21158 <_ZN18complex_no_dynamic3app17h40a3c36f83fae400E+0xa4>)
   210e0:	2103      	movs	r1, #3
   210e2:	aa0b      	add	r2, sp, #44	@ 0x2c
   210e4:	2327      	movs	r3, #39	@ 0x27
   210e6:	df03      	svc	3
   210e8:	2802      	cmp	r0, #2
   210ea:	d007      	beq.n	210fc <_ZN18complex_no_dynamic3app17h40a3c36f83fae400E+0x48>
   210ec:	481a      	ldr	r0, [pc, #104]	@ (21158 <_ZN18complex_no_dynamic3app17h40a3c36f83fae400E+0xa4>)
   210ee:	2104      	movs	r1, #4
   210f0:	2203      	movs	r2, #3
   210f2:	2500      	movs	r5, #0
   210f4:	462b      	mov	r3, r5
   210f6:	df02      	svc	2
   210f8:	287f      	cmp	r0, #127	@ 0x7f
   210fa:	d810      	bhi.n	2111e <_ZN18complex_no_dynamic3app17h40a3c36f83fae400E+0x6a>
   210fc:	2001      	movs	r0, #1
   210fe:	7020      	strb	r0, [r4, #0]
   21100:	6061      	str	r1, [r4, #4]
   21102:	4c15      	ldr	r4, [pc, #84]	@ (21158 <_ZN18complex_no_dynamic3app17h40a3c36f83fae400E+0xa4>)
   21104:	2103      	movs	r1, #3
   21106:	2500      	movs	r5, #0
   21108:	4620      	mov	r0, r4
   2110a:	462a      	mov	r2, r5
   2110c:	462b      	mov	r3, r5
   2110e:	df03      	svc	3
   21110:	2104      	movs	r1, #4
   21112:	4620      	mov	r0, r4
   21114:	462a      	mov	r2, r5
   21116:	462b      	mov	r3, r5
   21118:	df04      	svc	4
   2111a:	b015      	add	sp, #84	@ 0x54
   2111c:	bdf0      	pop	{r4, r5, r6, r7, pc}
   2111e:	480e      	ldr	r0, [pc, #56]	@ (21158 <_ZN18complex_no_dynamic3app17h40a3c36f83fae400E+0xa4>)
   21120:	2603      	movs	r6, #3
   21122:	4631      	mov	r1, r6
   21124:	462a      	mov	r2, r5
   21126:	462b      	mov	r3, r5
   21128:	df03      	svc	3
   2112a:	480b      	ldr	r0, [pc, #44]	@ (21158 <_ZN18complex_no_dynamic3app17h40a3c36f83fae400E+0xa4>)
   2112c:	4631      	mov	r1, r6
   2112e:	462a      	mov	r2, r5
   21130:	462b      	mov	r3, r5
   21132:	df03      	svc	3
   21134:	1c60      	adds	r0, r4, #1
   21136:	a90b      	add	r1, sp, #44	@ 0x2c
   21138:	2227      	movs	r2, #39	@ 0x27
   2113a:	f005 fec0 	bl	26ebe <__aeabi_memcpy>
   2113e:	7025      	strb	r5, [r4, #0]
   21140:	4c05      	ldr	r4, [pc, #20]	@ (21158 <_ZN18complex_no_dynamic3app17h40a3c36f83fae400E+0xa4>)
   21142:	4620      	mov	r0, r4
   21144:	4631      	mov	r1, r6
   21146:	462a      	mov	r2, r5
   21148:	462b      	mov	r3, r5
   2114a:	df03      	svc	3
   2114c:	2104      	movs	r1, #4
   2114e:	4620      	mov	r0, r4
   21150:	462a      	mov	r2, r5
   21152:	462b      	mov	r3, r5
   21154:	df04      	svc	4
   21156:	e7e0      	b.n	2111a <_ZN18complex_no_dynamic3app17h40a3c36f83fae400E+0x66>
   21158:	000011b5 	.word	0x000011b5

0002115c <_ZN18complex_no_dynamic3app17h419465880eb9a1ecE>:
   2115c:	b5f0      	push	{r4, r5, r6, r7, lr}
   2115e:	af03      	add	r7, sp, #12
   21160:	b0a3      	sub	sp, #140	@ 0x8c
   21162:	4604      	mov	r4, r0
   21164:	466d      	mov	r5, sp
   21166:	2655      	movs	r6, #85	@ 0x55
   21168:	4628      	mov	r0, r5
   2116a:	4632      	mov	r2, r6
   2116c:	f005 fea7 	bl	26ebe <__aeabi_memcpy>
   21170:	a816      	add	r0, sp, #88	@ 0x58
   21172:	2132      	movs	r1, #50	@ 0x32
   21174:	f005 fcf6 	bl	26b64 <__aeabi_memclr4>
   21178:	4822      	ldr	r0, [pc, #136]	@ (21204 <_ZN18complex_no_dynamic3app17h419465880eb9a1ecE+0xa8>)
   2117a:	2108      	movs	r1, #8
   2117c:	462a      	mov	r2, r5
   2117e:	4633      	mov	r3, r6
   21180:	df04      	svc	4
   21182:	2802      	cmp	r0, #2
   21184:	d00e      	beq.n	211a4 <_ZN18complex_no_dynamic3app17h419465880eb9a1ecE+0x48>
   21186:	481f      	ldr	r0, [pc, #124]	@ (21204 <_ZN18complex_no_dynamic3app17h419465880eb9a1ecE+0xa8>)
   21188:	2108      	movs	r1, #8
   2118a:	aa16      	add	r2, sp, #88	@ 0x58
   2118c:	2332      	movs	r3, #50	@ 0x32
   2118e:	df03      	svc	3
   21190:	2802      	cmp	r0, #2
   21192:	d007      	beq.n	211a4 <_ZN18complex_no_dynamic3app17h419465880eb9a1ecE+0x48>
   21194:	481b      	ldr	r0, [pc, #108]	@ (21204 <_ZN18complex_no_dynamic3app17h419465880eb9a1ecE+0xa8>)
   21196:	2108      	movs	r1, #8
   21198:	2500      	movs	r5, #0
   2119a:	460a      	mov	r2, r1
   2119c:	462b      	mov	r3, r5
   2119e:	df02      	svc	2
   211a0:	287f      	cmp	r0, #127	@ 0x7f
   211a2:	d811      	bhi.n	211c8 <_ZN18complex_no_dynamic3app17h419465880eb9a1ecE+0x6c>
   211a4:	2001      	movs	r0, #1
   211a6:	7020      	strb	r0, [r4, #0]
   211a8:	6061      	str	r1, [r4, #4]
   211aa:	4c16      	ldr	r4, [pc, #88]	@ (21204 <_ZN18complex_no_dynamic3app17h419465880eb9a1ecE+0xa8>)
   211ac:	2508      	movs	r5, #8
   211ae:	2600      	movs	r6, #0
   211b0:	4620      	mov	r0, r4
   211b2:	4629      	mov	r1, r5
   211b4:	4632      	mov	r2, r6
   211b6:	4633      	mov	r3, r6
   211b8:	df03      	svc	3
   211ba:	4620      	mov	r0, r4
   211bc:	4629      	mov	r1, r5
   211be:	4632      	mov	r2, r6
   211c0:	4633      	mov	r3, r6
   211c2:	df04      	svc	4
   211c4:	b023      	add	sp, #140	@ 0x8c
   211c6:	bdf0      	pop	{r4, r5, r6, r7, pc}
   211c8:	480e      	ldr	r0, [pc, #56]	@ (21204 <_ZN18complex_no_dynamic3app17h419465880eb9a1ecE+0xa8>)
   211ca:	2608      	movs	r6, #8
   211cc:	4631      	mov	r1, r6
   211ce:	462a      	mov	r2, r5
   211d0:	462b      	mov	r3, r5
   211d2:	df03      	svc	3
   211d4:	480b      	ldr	r0, [pc, #44]	@ (21204 <_ZN18complex_no_dynamic3app17h419465880eb9a1ecE+0xa8>)
   211d6:	4631      	mov	r1, r6
   211d8:	462a      	mov	r2, r5
   211da:	462b      	mov	r3, r5
   211dc:	df03      	svc	3
   211de:	1c60      	adds	r0, r4, #1
   211e0:	a916      	add	r1, sp, #88	@ 0x58
   211e2:	2232      	movs	r2, #50	@ 0x32
   211e4:	f005 fe6b 	bl	26ebe <__aeabi_memcpy>
   211e8:	7025      	strb	r5, [r4, #0]
   211ea:	4c06      	ldr	r4, [pc, #24]	@ (21204 <_ZN18complex_no_dynamic3app17h419465880eb9a1ecE+0xa8>)
   211ec:	4620      	mov	r0, r4
   211ee:	4631      	mov	r1, r6
   211f0:	462a      	mov	r2, r5
   211f2:	462b      	mov	r3, r5
   211f4:	df03      	svc	3
   211f6:	4620      	mov	r0, r4
   211f8:	4631      	mov	r1, r6
   211fa:	462a      	mov	r2, r5
   211fc:	462b      	mov	r3, r5
   211fe:	df04      	svc	4
   21200:	e7e0      	b.n	211c4 <_ZN18complex_no_dynamic3app17h419465880eb9a1ecE+0x68>
   21202:	46c0      	nop			@ (mov r8, r8)
   21204:	00002095 	.word	0x00002095

00021208 <_ZN18complex_no_dynamic3app17h421f06b6f352be0dE>:
   21208:	b5f0      	push	{r4, r5, r6, r7, lr}
   2120a:	af03      	add	r7, sp, #12
   2120c:	b097      	sub	sp, #92	@ 0x5c
   2120e:	4604      	mov	r4, r0
   21210:	ad01      	add	r5, sp, #4
   21212:	262c      	movs	r6, #44	@ 0x2c
   21214:	4628      	mov	r0, r5
   21216:	4632      	mov	r2, r6
   21218:	f005 fe51 	bl	26ebe <__aeabi_memcpy>
   2121c:	a80c      	add	r0, sp, #48	@ 0x30
   2121e:	212a      	movs	r1, #42	@ 0x2a
   21220:	f005 fca0 	bl	26b64 <__aeabi_memclr4>
   21224:	4821      	ldr	r0, [pc, #132]	@ (212ac <_ZN18complex_no_dynamic3app17h421f06b6f352be0dE+0xa4>)
   21226:	2103      	movs	r1, #3
   21228:	462a      	mov	r2, r5
   2122a:	4633      	mov	r3, r6
   2122c:	df04      	svc	4
   2122e:	2802      	cmp	r0, #2
   21230:	d00e      	beq.n	21250 <_ZN18complex_no_dynamic3app17h421f06b6f352be0dE+0x48>
   21232:	481e      	ldr	r0, [pc, #120]	@ (212ac <_ZN18complex_no_dynamic3app17h421f06b6f352be0dE+0xa4>)
   21234:	2100      	movs	r1, #0
   21236:	aa0c      	add	r2, sp, #48	@ 0x30
   21238:	232a      	movs	r3, #42	@ 0x2a
   2123a:	df03      	svc	3
   2123c:	2802      	cmp	r0, #2
   2123e:	d007      	beq.n	21250 <_ZN18complex_no_dynamic3app17h421f06b6f352be0dE+0x48>
   21240:	481a      	ldr	r0, [pc, #104]	@ (212ac <_ZN18complex_no_dynamic3app17h421f06b6f352be0dE+0xa4>)
   21242:	2103      	movs	r1, #3
   21244:	2500      	movs	r5, #0
   21246:	462a      	mov	r2, r5
   21248:	462b      	mov	r3, r5
   2124a:	df02      	svc	2
   2124c:	287f      	cmp	r0, #127	@ 0x7f
   2124e:	d810      	bhi.n	21272 <_ZN18complex_no_dynamic3app17h421f06b6f352be0dE+0x6a>
   21250:	2001      	movs	r0, #1
   21252:	7020      	strb	r0, [r4, #0]
   21254:	6061      	str	r1, [r4, #4]
   21256:	4c15      	ldr	r4, [pc, #84]	@ (212ac <_ZN18complex_no_dynamic3app17h421f06b6f352be0dE+0xa4>)
   21258:	2500      	movs	r5, #0
   2125a:	4620      	mov	r0, r4
   2125c:	4629      	mov	r1, r5
   2125e:	462a      	mov	r2, r5
   21260:	462b      	mov	r3, r5
   21262:	df03      	svc	3
   21264:	2103      	movs	r1, #3
   21266:	4620      	mov	r0, r4
   21268:	462a      	mov	r2, r5
   2126a:	462b      	mov	r3, r5
   2126c:	df04      	svc	4
   2126e:	b017      	add	sp, #92	@ 0x5c
   21270:	bdf0      	pop	{r4, r5, r6, r7, pc}
   21272:	4e0e      	ldr	r6, [pc, #56]	@ (212ac <_ZN18complex_no_dynamic3app17h421f06b6f352be0dE+0xa4>)
   21274:	4630      	mov	r0, r6
   21276:	4629      	mov	r1, r5
   21278:	462a      	mov	r2, r5
   2127a:	462b      	mov	r3, r5
   2127c:	df03      	svc	3
   2127e:	4630      	mov	r0, r6
   21280:	4629      	mov	r1, r5
   21282:	462a      	mov	r2, r5
   21284:	462b      	mov	r3, r5
   21286:	df03      	svc	3
   21288:	1c60      	adds	r0, r4, #1
   2128a:	a90c      	add	r1, sp, #48	@ 0x30
   2128c:	222a      	movs	r2, #42	@ 0x2a
   2128e:	f005 fe16 	bl	26ebe <__aeabi_memcpy>
   21292:	7025      	strb	r5, [r4, #0]
   21294:	4630      	mov	r0, r6
   21296:	4629      	mov	r1, r5
   21298:	462a      	mov	r2, r5
   2129a:	462b      	mov	r3, r5
   2129c:	df03      	svc	3
   2129e:	2103      	movs	r1, #3
   212a0:	4630      	mov	r0, r6
   212a2:	462a      	mov	r2, r5
   212a4:	462b      	mov	r3, r5
   212a6:	df04      	svc	4
   212a8:	e7e1      	b.n	2126e <_ZN18complex_no_dynamic3app17h421f06b6f352be0dE+0x66>
   212aa:	46c0      	nop			@ (mov r8, r8)
   212ac:	000024f0 	.word	0x000024f0

000212b0 <_ZN18complex_no_dynamic3app17h4285e3924ae1b837E>:
   212b0:	b5f0      	push	{r4, r5, r6, r7, lr}
   212b2:	af03      	add	r7, sp, #12
   212b4:	b099      	sub	sp, #100	@ 0x64
   212b6:	9001      	str	r0, [sp, #4]
   212b8:	ae02      	add	r6, sp, #8
   212ba:	2441      	movs	r4, #65	@ 0x41
   212bc:	4630      	mov	r0, r6
   212be:	4622      	mov	r2, r4
   212c0:	f005 fdfd 	bl	26ebe <__aeabi_memcpy>
   212c4:	a813      	add	r0, sp, #76	@ 0x4c
   212c6:	2118      	movs	r1, #24
   212c8:	f005 fc4c 	bl	26b64 <__aeabi_memclr4>
   212cc:	4823      	ldr	r0, [pc, #140]	@ (2135c <_ZN18complex_no_dynamic3app17h4285e3924ae1b837E+0xac>)
   212ce:	2501      	movs	r5, #1
   212d0:	4629      	mov	r1, r5
   212d2:	4632      	mov	r2, r6
   212d4:	4623      	mov	r3, r4
   212d6:	df04      	svc	4
   212d8:	2802      	cmp	r0, #2
   212da:	d00e      	beq.n	212fa <_ZN18complex_no_dynamic3app17h4285e3924ae1b837E+0x4a>
   212dc:	481f      	ldr	r0, [pc, #124]	@ (2135c <_ZN18complex_no_dynamic3app17h4285e3924ae1b837E+0xac>)
   212de:	2109      	movs	r1, #9
   212e0:	aa13      	add	r2, sp, #76	@ 0x4c
   212e2:	2318      	movs	r3, #24
   212e4:	df03      	svc	3
   212e6:	2802      	cmp	r0, #2
   212e8:	d007      	beq.n	212fa <_ZN18complex_no_dynamic3app17h4285e3924ae1b837E+0x4a>
   212ea:	481c      	ldr	r0, [pc, #112]	@ (2135c <_ZN18complex_no_dynamic3app17h4285e3924ae1b837E+0xac>)
   212ec:	2101      	movs	r1, #1
   212ee:	2209      	movs	r2, #9
   212f0:	2600      	movs	r6, #0
   212f2:	4633      	mov	r3, r6
   212f4:	df02      	svc	2
   212f6:	287f      	cmp	r0, #127	@ 0x7f
   212f8:	d810      	bhi.n	2131c <_ZN18complex_no_dynamic3app17h4285e3924ae1b837E+0x6c>
   212fa:	9801      	ldr	r0, [sp, #4]
   212fc:	7005      	strb	r5, [r0, #0]
   212fe:	6041      	str	r1, [r0, #4]
   21300:	4c16      	ldr	r4, [pc, #88]	@ (2135c <_ZN18complex_no_dynamic3app17h4285e3924ae1b837E+0xac>)
   21302:	2109      	movs	r1, #9
   21304:	2600      	movs	r6, #0
   21306:	4620      	mov	r0, r4
   21308:	4632      	mov	r2, r6
   2130a:	4633      	mov	r3, r6
   2130c:	df03      	svc	3
   2130e:	4620      	mov	r0, r4
   21310:	4629      	mov	r1, r5
   21312:	4632      	mov	r2, r6
   21314:	4633      	mov	r3, r6
   21316:	df04      	svc	4
   21318:	b019      	add	sp, #100	@ 0x64
   2131a:	bdf0      	pop	{r4, r5, r6, r7, pc}
   2131c:	4c0f      	ldr	r4, [pc, #60]	@ (2135c <_ZN18complex_no_dynamic3app17h4285e3924ae1b837E+0xac>)
   2131e:	2509      	movs	r5, #9
   21320:	4620      	mov	r0, r4
   21322:	4629      	mov	r1, r5
   21324:	4632      	mov	r2, r6
   21326:	4633      	mov	r3, r6
   21328:	df03      	svc	3
   2132a:	4620      	mov	r0, r4
   2132c:	4629      	mov	r1, r5
   2132e:	4632      	mov	r2, r6
   21330:	4633      	mov	r3, r6
   21332:	df03      	svc	3
   21334:	9c01      	ldr	r4, [sp, #4]
   21336:	1c60      	adds	r0, r4, #1
   21338:	a913      	add	r1, sp, #76	@ 0x4c
   2133a:	2218      	movs	r2, #24
   2133c:	f005 fdbf 	bl	26ebe <__aeabi_memcpy>
   21340:	7026      	strb	r6, [r4, #0]
   21342:	4c06      	ldr	r4, [pc, #24]	@ (2135c <_ZN18complex_no_dynamic3app17h4285e3924ae1b837E+0xac>)
   21344:	4620      	mov	r0, r4
   21346:	4629      	mov	r1, r5
   21348:	4632      	mov	r2, r6
   2134a:	4633      	mov	r3, r6
   2134c:	df03      	svc	3
   2134e:	2101      	movs	r1, #1
   21350:	4620      	mov	r0, r4
   21352:	4632      	mov	r2, r6
   21354:	4633      	mov	r3, r6
   21356:	df04      	svc	4
   21358:	e7de      	b.n	21318 <_ZN18complex_no_dynamic3app17h4285e3924ae1b837E+0x68>
   2135a:	46c0      	nop			@ (mov r8, r8)
   2135c:	00002156 	.word	0x00002156

00021360 <_ZN18complex_no_dynamic3app17h4a1c44b97edc2654E>:
   21360:	b5f0      	push	{r4, r5, r6, r7, lr}
   21362:	af03      	add	r7, sp, #12
   21364:	b095      	sub	sp, #84	@ 0x54
   21366:	4604      	mov	r4, r0
   21368:	ad01      	add	r5, sp, #4
   2136a:	2618      	movs	r6, #24
   2136c:	4628      	mov	r0, r5
   2136e:	4632      	mov	r2, r6
   21370:	f005 fda5 	bl	26ebe <__aeabi_memcpy>
   21374:	a807      	add	r0, sp, #28
   21376:	2136      	movs	r1, #54	@ 0x36
   21378:	f005 fbf4 	bl	26b64 <__aeabi_memclr4>
   2137c:	20f3      	movs	r0, #243	@ 0xf3
   2137e:	2108      	movs	r1, #8
   21380:	462a      	mov	r2, r5
   21382:	4633      	mov	r3, r6
   21384:	df04      	svc	4
   21386:	2802      	cmp	r0, #2
   21388:	d00e      	beq.n	213a8 <_ZN18complex_no_dynamic3app17h4a1c44b97edc2654E+0x48>
   2138a:	20f3      	movs	r0, #243	@ 0xf3
   2138c:	2104      	movs	r1, #4
   2138e:	aa07      	add	r2, sp, #28
   21390:	2336      	movs	r3, #54	@ 0x36
   21392:	df03      	svc	3
   21394:	2802      	cmp	r0, #2
   21396:	d007      	beq.n	213a8 <_ZN18complex_no_dynamic3app17h4a1c44b97edc2654E+0x48>
   21398:	20f3      	movs	r0, #243	@ 0xf3
   2139a:	2108      	movs	r1, #8
   2139c:	2204      	movs	r2, #4
   2139e:	2500      	movs	r5, #0
   213a0:	462b      	mov	r3, r5
   213a2:	df02      	svc	2
   213a4:	287f      	cmp	r0, #127	@ 0x7f
   213a6:	d810      	bhi.n	213ca <_ZN18complex_no_dynamic3app17h4a1c44b97edc2654E+0x6a>
   213a8:	2001      	movs	r0, #1
   213aa:	7020      	strb	r0, [r4, #0]
   213ac:	6061      	str	r1, [r4, #4]
   213ae:	24f3      	movs	r4, #243	@ 0xf3
   213b0:	2104      	movs	r1, #4
   213b2:	2500      	movs	r5, #0
   213b4:	4620      	mov	r0, r4
   213b6:	462a      	mov	r2, r5
   213b8:	462b      	mov	r3, r5
   213ba:	df03      	svc	3
   213bc:	2108      	movs	r1, #8
   213be:	4620      	mov	r0, r4
   213c0:	462a      	mov	r2, r5
   213c2:	462b      	mov	r3, r5
   213c4:	df04      	svc	4
   213c6:	b015      	add	sp, #84	@ 0x54
   213c8:	bdf0      	pop	{r4, r5, r6, r7, pc}
   213ca:	20f3      	movs	r0, #243	@ 0xf3
   213cc:	9000      	str	r0, [sp, #0]
   213ce:	2604      	movs	r6, #4
   213d0:	4631      	mov	r1, r6
   213d2:	462a      	mov	r2, r5
   213d4:	462b      	mov	r3, r5
   213d6:	df03      	svc	3
   213d8:	9800      	ldr	r0, [sp, #0]
   213da:	4631      	mov	r1, r6
   213dc:	462a      	mov	r2, r5
   213de:	462b      	mov	r3, r5
   213e0:	df03      	svc	3
   213e2:	1c60      	adds	r0, r4, #1
   213e4:	a907      	add	r1, sp, #28
   213e6:	2236      	movs	r2, #54	@ 0x36
   213e8:	f005 fd69 	bl	26ebe <__aeabi_memcpy>
   213ec:	7025      	strb	r5, [r4, #0]
   213ee:	9c00      	ldr	r4, [sp, #0]
   213f0:	4620      	mov	r0, r4
   213f2:	4631      	mov	r1, r6
   213f4:	462a      	mov	r2, r5
   213f6:	462b      	mov	r3, r5
   213f8:	df03      	svc	3
   213fa:	2108      	movs	r1, #8
   213fc:	4620      	mov	r0, r4
   213fe:	462a      	mov	r2, r5
   21400:	462b      	mov	r3, r5
   21402:	df04      	svc	4
   21404:	e7df      	b.n	213c6 <_ZN18complex_no_dynamic3app17h4a1c44b97edc2654E+0x66>
   21406:	d4d4      	bmi.n	213b2 <_ZN18complex_no_dynamic3app17h4a1c44b97edc2654E+0x52>

00021408 <_ZN18complex_no_dynamic3app17h4b7ecd4fec7f429dE>:
   21408:	b5f0      	push	{r4, r5, r6, r7, lr}
   2140a:	af03      	add	r7, sp, #12
   2140c:	b09b      	sub	sp, #108	@ 0x6c
   2140e:	4604      	mov	r4, r0
   21410:	ad01      	add	r5, sp, #4
   21412:	2644      	movs	r6, #68	@ 0x44
   21414:	4628      	mov	r0, r5
   21416:	4632      	mov	r2, r6
   21418:	f005 fd51 	bl	26ebe <__aeabi_memcpy>
   2141c:	a812      	add	r0, sp, #72	@ 0x48
   2141e:	2123      	movs	r1, #35	@ 0x23
   21420:	f005 fba0 	bl	26b64 <__aeabi_memclr4>
   21424:	4821      	ldr	r0, [pc, #132]	@ (214ac <_ZN18complex_no_dynamic3app17h4b7ecd4fec7f429dE+0xa4>)
   21426:	2106      	movs	r1, #6
   21428:	462a      	mov	r2, r5
   2142a:	4633      	mov	r3, r6
   2142c:	df04      	svc	4
   2142e:	2802      	cmp	r0, #2
   21430:	d00e      	beq.n	21450 <_ZN18complex_no_dynamic3app17h4b7ecd4fec7f429dE+0x48>
   21432:	481e      	ldr	r0, [pc, #120]	@ (214ac <_ZN18complex_no_dynamic3app17h4b7ecd4fec7f429dE+0xa4>)
   21434:	2103      	movs	r1, #3
   21436:	aa12      	add	r2, sp, #72	@ 0x48
   21438:	2323      	movs	r3, #35	@ 0x23
   2143a:	df03      	svc	3
   2143c:	2802      	cmp	r0, #2
   2143e:	d007      	beq.n	21450 <_ZN18complex_no_dynamic3app17h4b7ecd4fec7f429dE+0x48>
   21440:	481a      	ldr	r0, [pc, #104]	@ (214ac <_ZN18complex_no_dynamic3app17h4b7ecd4fec7f429dE+0xa4>)
   21442:	2106      	movs	r1, #6
   21444:	2203      	movs	r2, #3
   21446:	2500      	movs	r5, #0
   21448:	462b      	mov	r3, r5
   2144a:	df02      	svc	2
   2144c:	287f      	cmp	r0, #127	@ 0x7f
   2144e:	d810      	bhi.n	21472 <_ZN18complex_no_dynamic3app17h4b7ecd4fec7f429dE+0x6a>
   21450:	2001      	movs	r0, #1
   21452:	7020      	strb	r0, [r4, #0]
   21454:	6061      	str	r1, [r4, #4]
   21456:	4c15      	ldr	r4, [pc, #84]	@ (214ac <_ZN18complex_no_dynamic3app17h4b7ecd4fec7f429dE+0xa4>)
   21458:	2103      	movs	r1, #3
   2145a:	2500      	movs	r5, #0
   2145c:	4620      	mov	r0, r4
   2145e:	462a      	mov	r2, r5
   21460:	462b      	mov	r3, r5
   21462:	df03      	svc	3
   21464:	2106      	movs	r1, #6
   21466:	4620      	mov	r0, r4
   21468:	462a      	mov	r2, r5
   2146a:	462b      	mov	r3, r5
   2146c:	df04      	svc	4
   2146e:	b01b      	add	sp, #108	@ 0x6c
   21470:	bdf0      	pop	{r4, r5, r6, r7, pc}
   21472:	480e      	ldr	r0, [pc, #56]	@ (214ac <_ZN18complex_no_dynamic3app17h4b7ecd4fec7f429dE+0xa4>)
   21474:	2603      	movs	r6, #3
   21476:	4631      	mov	r1, r6
   21478:	462a      	mov	r2, r5
   2147a:	462b      	mov	r3, r5
   2147c:	df03      	svc	3
   2147e:	480b      	ldr	r0, [pc, #44]	@ (214ac <_ZN18complex_no_dynamic3app17h4b7ecd4fec7f429dE+0xa4>)
   21480:	4631      	mov	r1, r6
   21482:	462a      	mov	r2, r5
   21484:	462b      	mov	r3, r5
   21486:	df03      	svc	3
   21488:	1c60      	adds	r0, r4, #1
   2148a:	a912      	add	r1, sp, #72	@ 0x48
   2148c:	2223      	movs	r2, #35	@ 0x23
   2148e:	f005 fd16 	bl	26ebe <__aeabi_memcpy>
   21492:	7025      	strb	r5, [r4, #0]
   21494:	4c05      	ldr	r4, [pc, #20]	@ (214ac <_ZN18complex_no_dynamic3app17h4b7ecd4fec7f429dE+0xa4>)
   21496:	4620      	mov	r0, r4
   21498:	4631      	mov	r1, r6
   2149a:	462a      	mov	r2, r5
   2149c:	462b      	mov	r3, r5
   2149e:	df03      	svc	3
   214a0:	2106      	movs	r1, #6
   214a2:	4620      	mov	r0, r4
   214a4:	462a      	mov	r2, r5
   214a6:	462b      	mov	r3, r5
   214a8:	df04      	svc	4
   214aa:	e7e0      	b.n	2146e <_ZN18complex_no_dynamic3app17h4b7ecd4fec7f429dE+0x66>
   214ac:	000009bf 	.word	0x000009bf

000214b0 <_ZN18complex_no_dynamic3app17h4d540c0ce39355cfE>:
   214b0:	b5f0      	push	{r4, r5, r6, r7, lr}
   214b2:	af03      	add	r7, sp, #12
   214b4:	b093      	sub	sp, #76	@ 0x4c
   214b6:	4604      	mov	r4, r0
   214b8:	ad01      	add	r5, sp, #4
   214ba:	2623      	movs	r6, #35	@ 0x23
   214bc:	4628      	mov	r0, r5
   214be:	4632      	mov	r2, r6
   214c0:	f005 fcfd 	bl	26ebe <__aeabi_memcpy>
   214c4:	a80a      	add	r0, sp, #40	@ 0x28
   214c6:	2124      	movs	r1, #36	@ 0x24
   214c8:	f005 fb4c 	bl	26b64 <__aeabi_memclr4>
   214cc:	4821      	ldr	r0, [pc, #132]	@ (21554 <_ZN18complex_no_dynamic3app17h4d540c0ce39355cfE+0xa4>)
   214ce:	2104      	movs	r1, #4
   214d0:	462a      	mov	r2, r5
   214d2:	4633      	mov	r3, r6
   214d4:	df04      	svc	4
   214d6:	2802      	cmp	r0, #2
   214d8:	d00e      	beq.n	214f8 <_ZN18complex_no_dynamic3app17h4d540c0ce39355cfE+0x48>
   214da:	481e      	ldr	r0, [pc, #120]	@ (21554 <_ZN18complex_no_dynamic3app17h4d540c0ce39355cfE+0xa4>)
   214dc:	2108      	movs	r1, #8
   214de:	aa0a      	add	r2, sp, #40	@ 0x28
   214e0:	2324      	movs	r3, #36	@ 0x24
   214e2:	df03      	svc	3
   214e4:	2802      	cmp	r0, #2
   214e6:	d007      	beq.n	214f8 <_ZN18complex_no_dynamic3app17h4d540c0ce39355cfE+0x48>
   214e8:	481a      	ldr	r0, [pc, #104]	@ (21554 <_ZN18complex_no_dynamic3app17h4d540c0ce39355cfE+0xa4>)
   214ea:	2104      	movs	r1, #4
   214ec:	2208      	movs	r2, #8
   214ee:	2500      	movs	r5, #0
   214f0:	462b      	mov	r3, r5
   214f2:	df02      	svc	2
   214f4:	287f      	cmp	r0, #127	@ 0x7f
   214f6:	d810      	bhi.n	2151a <_ZN18complex_no_dynamic3app17h4d540c0ce39355cfE+0x6a>
   214f8:	2001      	movs	r0, #1
   214fa:	7020      	strb	r0, [r4, #0]
   214fc:	6061      	str	r1, [r4, #4]
   214fe:	4c15      	ldr	r4, [pc, #84]	@ (21554 <_ZN18complex_no_dynamic3app17h4d540c0ce39355cfE+0xa4>)
   21500:	2108      	movs	r1, #8
   21502:	2500      	movs	r5, #0
   21504:	4620      	mov	r0, r4
   21506:	462a      	mov	r2, r5
   21508:	462b      	mov	r3, r5
   2150a:	df03      	svc	3
   2150c:	2104      	movs	r1, #4
   2150e:	4620      	mov	r0, r4
   21510:	462a      	mov	r2, r5
   21512:	462b      	mov	r3, r5
   21514:	df04      	svc	4
   21516:	b013      	add	sp, #76	@ 0x4c
   21518:	bdf0      	pop	{r4, r5, r6, r7, pc}
   2151a:	480e      	ldr	r0, [pc, #56]	@ (21554 <_ZN18complex_no_dynamic3app17h4d540c0ce39355cfE+0xa4>)
   2151c:	2608      	movs	r6, #8
   2151e:	4631      	mov	r1, r6
   21520:	462a      	mov	r2, r5
   21522:	462b      	mov	r3, r5
   21524:	df03      	svc	3
   21526:	480b      	ldr	r0, [pc, #44]	@ (21554 <_ZN18complex_no_dynamic3app17h4d540c0ce39355cfE+0xa4>)
   21528:	4631      	mov	r1, r6
   2152a:	462a      	mov	r2, r5
   2152c:	462b      	mov	r3, r5
   2152e:	df03      	svc	3
   21530:	1c60      	adds	r0, r4, #1
   21532:	a90a      	add	r1, sp, #40	@ 0x28
   21534:	2224      	movs	r2, #36	@ 0x24
   21536:	f005 fcc2 	bl	26ebe <__aeabi_memcpy>
   2153a:	7025      	strb	r5, [r4, #0]
   2153c:	4c05      	ldr	r4, [pc, #20]	@ (21554 <_ZN18complex_no_dynamic3app17h4d540c0ce39355cfE+0xa4>)
   2153e:	4620      	mov	r0, r4
   21540:	4631      	mov	r1, r6
   21542:	462a      	mov	r2, r5
   21544:	462b      	mov	r3, r5
   21546:	df03      	svc	3
   21548:	2104      	movs	r1, #4
   2154a:	4620      	mov	r0, r4
   2154c:	462a      	mov	r2, r5
   2154e:	462b      	mov	r3, r5
   21550:	df04      	svc	4
   21552:	e7e0      	b.n	21516 <_ZN18complex_no_dynamic3app17h4d540c0ce39355cfE+0x66>
   21554:	00001bd6 	.word	0x00001bd6

00021558 <_ZN18complex_no_dynamic3app17h4f7397eb5cc13ddcE>:
   21558:	b5f0      	push	{r4, r5, r6, r7, lr}
   2155a:	af03      	add	r7, sp, #12
   2155c:	b0a3      	sub	sp, #140	@ 0x8c
   2155e:	9001      	str	r0, [sp, #4]
   21560:	ae02      	add	r6, sp, #8
   21562:	2461      	movs	r4, #97	@ 0x61
   21564:	4630      	mov	r0, r6
   21566:	4622      	mov	r2, r4
   21568:	f005 fca9 	bl	26ebe <__aeabi_memcpy>
   2156c:	a81b      	add	r0, sp, #108	@ 0x6c
   2156e:	211e      	movs	r1, #30
   21570:	f005 faf8 	bl	26b64 <__aeabi_memclr4>
   21574:	2031      	movs	r0, #49	@ 0x31
   21576:	00c5      	lsls	r5, r0, #3
   21578:	2104      	movs	r1, #4
   2157a:	4628      	mov	r0, r5
   2157c:	4632      	mov	r2, r6
   2157e:	4623      	mov	r3, r4
   21580:	df04      	svc	4
   21582:	2802      	cmp	r0, #2
   21584:	d00e      	beq.n	215a4 <_ZN18complex_no_dynamic3app17h4f7397eb5cc13ddcE+0x4c>
   21586:	2106      	movs	r1, #6
   21588:	aa1b      	add	r2, sp, #108	@ 0x6c
   2158a:	231e      	movs	r3, #30
   2158c:	4628      	mov	r0, r5
   2158e:	df03      	svc	3
   21590:	2802      	cmp	r0, #2
   21592:	d007      	beq.n	215a4 <_ZN18complex_no_dynamic3app17h4f7397eb5cc13ddcE+0x4c>
   21594:	2104      	movs	r1, #4
   21596:	2206      	movs	r2, #6
   21598:	2600      	movs	r6, #0
   2159a:	4628      	mov	r0, r5
   2159c:	4633      	mov	r3, r6
   2159e:	df02      	svc	2
   215a0:	287f      	cmp	r0, #127	@ 0x7f
   215a2:	d810      	bhi.n	215c6 <_ZN18complex_no_dynamic3app17h4f7397eb5cc13ddcE+0x6e>
   215a4:	2001      	movs	r0, #1
   215a6:	9a01      	ldr	r2, [sp, #4]
   215a8:	7010      	strb	r0, [r2, #0]
   215aa:	6051      	str	r1, [r2, #4]
   215ac:	2106      	movs	r1, #6
   215ae:	2400      	movs	r4, #0
   215b0:	4628      	mov	r0, r5
   215b2:	4622      	mov	r2, r4
   215b4:	4623      	mov	r3, r4
   215b6:	df03      	svc	3
   215b8:	2104      	movs	r1, #4
   215ba:	4628      	mov	r0, r5
   215bc:	4622      	mov	r2, r4
   215be:	4623      	mov	r3, r4
   215c0:	df04      	svc	4
   215c2:	b023      	add	sp, #140	@ 0x8c
   215c4:	bdf0      	pop	{r4, r5, r6, r7, pc}
   215c6:	2406      	movs	r4, #6
   215c8:	9400      	str	r4, [sp, #0]
   215ca:	4628      	mov	r0, r5
   215cc:	4621      	mov	r1, r4
   215ce:	4632      	mov	r2, r6
   215d0:	4633      	mov	r3, r6
   215d2:	df03      	svc	3
   215d4:	4628      	mov	r0, r5
   215d6:	4621      	mov	r1, r4
   215d8:	4632      	mov	r2, r6
   215da:	4633      	mov	r3, r6
   215dc:	df03      	svc	3
   215de:	9c01      	ldr	r4, [sp, #4]
   215e0:	1c60      	adds	r0, r4, #1
   215e2:	a91b      	add	r1, sp, #108	@ 0x6c
   215e4:	221e      	movs	r2, #30
   215e6:	f005 fc6a 	bl	26ebe <__aeabi_memcpy>
   215ea:	7026      	strb	r6, [r4, #0]
   215ec:	4628      	mov	r0, r5
   215ee:	9900      	ldr	r1, [sp, #0]
   215f0:	4632      	mov	r2, r6
   215f2:	4633      	mov	r3, r6
   215f4:	df03      	svc	3
   215f6:	2104      	movs	r1, #4
   215f8:	4628      	mov	r0, r5
   215fa:	4632      	mov	r2, r6
   215fc:	4633      	mov	r3, r6
   215fe:	df04      	svc	4
   21600:	e7df      	b.n	215c2 <_ZN18complex_no_dynamic3app17h4f7397eb5cc13ddcE+0x6a>
   21602:	d4d4      	bmi.n	215ae <_ZN18complex_no_dynamic3app17h4f7397eb5cc13ddcE+0x56>

00021604 <_ZN18complex_no_dynamic3app17h508c9b77c44b3849E>:
   21604:	b5f0      	push	{r4, r5, r6, r7, lr}
   21606:	af03      	add	r7, sp, #12
   21608:	b09b      	sub	sp, #108	@ 0x6c
   2160a:	4604      	mov	r4, r0
   2160c:	466d      	mov	r5, sp
   2160e:	2655      	movs	r6, #85	@ 0x55
   21610:	4628      	mov	r0, r5
   21612:	4632      	mov	r2, r6
   21614:	f005 fc53 	bl	26ebe <__aeabi_memcpy>
   21618:	a816      	add	r0, sp, #88	@ 0x58
   2161a:	2111      	movs	r1, #17
   2161c:	f005 faa2 	bl	26b64 <__aeabi_memclr4>
   21620:	4822      	ldr	r0, [pc, #136]	@ (216ac <_ZN18complex_no_dynamic3app17h508c9b77c44b3849E+0xa8>)
   21622:	2102      	movs	r1, #2
   21624:	462a      	mov	r2, r5
   21626:	4633      	mov	r3, r6
   21628:	df04      	svc	4
   2162a:	2802      	cmp	r0, #2
   2162c:	d00e      	beq.n	2164c <_ZN18complex_no_dynamic3app17h508c9b77c44b3849E+0x48>
   2162e:	481f      	ldr	r0, [pc, #124]	@ (216ac <_ZN18complex_no_dynamic3app17h508c9b77c44b3849E+0xa8>)
   21630:	2102      	movs	r1, #2
   21632:	aa16      	add	r2, sp, #88	@ 0x58
   21634:	2311      	movs	r3, #17
   21636:	df03      	svc	3
   21638:	2802      	cmp	r0, #2
   2163a:	d007      	beq.n	2164c <_ZN18complex_no_dynamic3app17h508c9b77c44b3849E+0x48>
   2163c:	481b      	ldr	r0, [pc, #108]	@ (216ac <_ZN18complex_no_dynamic3app17h508c9b77c44b3849E+0xa8>)
   2163e:	2102      	movs	r1, #2
   21640:	2500      	movs	r5, #0
   21642:	460a      	mov	r2, r1
   21644:	462b      	mov	r3, r5
   21646:	df02      	svc	2
   21648:	287f      	cmp	r0, #127	@ 0x7f
   2164a:	d811      	bhi.n	21670 <_ZN18complex_no_dynamic3app17h508c9b77c44b3849E+0x6c>
   2164c:	2001      	movs	r0, #1
   2164e:	7020      	strb	r0, [r4, #0]
   21650:	6061      	str	r1, [r4, #4]
   21652:	4c16      	ldr	r4, [pc, #88]	@ (216ac <_ZN18complex_no_dynamic3app17h508c9b77c44b3849E+0xa8>)
   21654:	2502      	movs	r5, #2
   21656:	2600      	movs	r6, #0
   21658:	4620      	mov	r0, r4
   2165a:	4629      	mov	r1, r5
   2165c:	4632      	mov	r2, r6
   2165e:	4633      	mov	r3, r6
   21660:	df03      	svc	3
   21662:	4620      	mov	r0, r4
   21664:	4629      	mov	r1, r5
   21666:	4632      	mov	r2, r6
   21668:	4633      	mov	r3, r6
   2166a:	df04      	svc	4
   2166c:	b01b      	add	sp, #108	@ 0x6c
   2166e:	bdf0      	pop	{r4, r5, r6, r7, pc}
   21670:	480e      	ldr	r0, [pc, #56]	@ (216ac <_ZN18complex_no_dynamic3app17h508c9b77c44b3849E+0xa8>)
   21672:	2602      	movs	r6, #2
   21674:	4631      	mov	r1, r6
   21676:	462a      	mov	r2, r5
   21678:	462b      	mov	r3, r5
   2167a:	df03      	svc	3
   2167c:	480b      	ldr	r0, [pc, #44]	@ (216ac <_ZN18complex_no_dynamic3app17h508c9b77c44b3849E+0xa8>)
   2167e:	4631      	mov	r1, r6
   21680:	462a      	mov	r2, r5
   21682:	462b      	mov	r3, r5
   21684:	df03      	svc	3
   21686:	1c60      	adds	r0, r4, #1
   21688:	a916      	add	r1, sp, #88	@ 0x58
   2168a:	2211      	movs	r2, #17
   2168c:	f005 fc17 	bl	26ebe <__aeabi_memcpy>
   21690:	7025      	strb	r5, [r4, #0]
   21692:	4c06      	ldr	r4, [pc, #24]	@ (216ac <_ZN18complex_no_dynamic3app17h508c9b77c44b3849E+0xa8>)
   21694:	4620      	mov	r0, r4
   21696:	4631      	mov	r1, r6
   21698:	462a      	mov	r2, r5
   2169a:	462b      	mov	r3, r5
   2169c:	df03      	svc	3
   2169e:	4620      	mov	r0, r4
   216a0:	4631      	mov	r1, r6
   216a2:	462a      	mov	r2, r5
   216a4:	462b      	mov	r3, r5
   216a6:	df04      	svc	4
   216a8:	e7e0      	b.n	2166c <_ZN18complex_no_dynamic3app17h508c9b77c44b3849E+0x68>
   216aa:	46c0      	nop			@ (mov r8, r8)
   216ac:	00000c89 	.word	0x00000c89

000216b0 <_ZN18complex_no_dynamic3app17h51a9d664d250f037E>:
   216b0:	b5f0      	push	{r4, r5, r6, r7, lr}
   216b2:	af03      	add	r7, sp, #12
   216b4:	b0a3      	sub	sp, #140	@ 0x8c
   216b6:	9000      	str	r0, [sp, #0]
   216b8:	ae01      	add	r6, sp, #4
   216ba:	242a      	movs	r4, #42	@ 0x2a
   216bc:	4630      	mov	r0, r6
   216be:	4622      	mov	r2, r4
   216c0:	f005 fbfd 	bl	26ebe <__aeabi_memcpy>
   216c4:	a80c      	add	r0, sp, #48	@ 0x30
   216c6:	2159      	movs	r1, #89	@ 0x59
   216c8:	f005 fa4c 	bl	26b64 <__aeabi_memclr4>
   216cc:	4823      	ldr	r0, [pc, #140]	@ (2175c <_ZN18complex_no_dynamic3app17h51a9d664d250f037E+0xac>)
   216ce:	2501      	movs	r5, #1
   216d0:	4629      	mov	r1, r5
   216d2:	4632      	mov	r2, r6
   216d4:	4623      	mov	r3, r4
   216d6:	df04      	svc	4
   216d8:	2802      	cmp	r0, #2
   216da:	d00e      	beq.n	216fa <_ZN18complex_no_dynamic3app17h51a9d664d250f037E+0x4a>
   216dc:	481f      	ldr	r0, [pc, #124]	@ (2175c <_ZN18complex_no_dynamic3app17h51a9d664d250f037E+0xac>)
   216de:	2103      	movs	r1, #3
   216e0:	aa0c      	add	r2, sp, #48	@ 0x30
   216e2:	2359      	movs	r3, #89	@ 0x59
   216e4:	df03      	svc	3
   216e6:	2802      	cmp	r0, #2
   216e8:	d007      	beq.n	216fa <_ZN18complex_no_dynamic3app17h51a9d664d250f037E+0x4a>
   216ea:	481c      	ldr	r0, [pc, #112]	@ (2175c <_ZN18complex_no_dynamic3app17h51a9d664d250f037E+0xac>)
   216ec:	2101      	movs	r1, #1
   216ee:	2203      	movs	r2, #3
   216f0:	2600      	movs	r6, #0
   216f2:	4633      	mov	r3, r6
   216f4:	df02      	svc	2
   216f6:	287f      	cmp	r0, #127	@ 0x7f
   216f8:	d810      	bhi.n	2171c <_ZN18complex_no_dynamic3app17h51a9d664d250f037E+0x6c>
   216fa:	9800      	ldr	r0, [sp, #0]
   216fc:	7005      	strb	r5, [r0, #0]
   216fe:	6041      	str	r1, [r0, #4]
   21700:	4c16      	ldr	r4, [pc, #88]	@ (2175c <_ZN18complex_no_dynamic3app17h51a9d664d250f037E+0xac>)
   21702:	2103      	movs	r1, #3
   21704:	2600      	movs	r6, #0
   21706:	4620      	mov	r0, r4
   21708:	4632      	mov	r2, r6
   2170a:	4633      	mov	r3, r6
   2170c:	df03      	svc	3
   2170e:	4620      	mov	r0, r4
   21710:	4629      	mov	r1, r5
   21712:	4632      	mov	r2, r6
   21714:	4633      	mov	r3, r6
   21716:	df04      	svc	4
   21718:	b023      	add	sp, #140	@ 0x8c
   2171a:	bdf0      	pop	{r4, r5, r6, r7, pc}
   2171c:	4c0f      	ldr	r4, [pc, #60]	@ (2175c <_ZN18complex_no_dynamic3app17h51a9d664d250f037E+0xac>)
   2171e:	2503      	movs	r5, #3
   21720:	4620      	mov	r0, r4
   21722:	4629      	mov	r1, r5
   21724:	4632      	mov	r2, r6
   21726:	4633      	mov	r3, r6
   21728:	df03      	svc	3
   2172a:	4620      	mov	r0, r4
   2172c:	4629      	mov	r1, r5
   2172e:	4632      	mov	r2, r6
   21730:	4633      	mov	r3, r6
   21732:	df03      	svc	3
   21734:	9c00      	ldr	r4, [sp, #0]
   21736:	1c60      	adds	r0, r4, #1
   21738:	a90c      	add	r1, sp, #48	@ 0x30
   2173a:	2259      	movs	r2, #89	@ 0x59
   2173c:	f005 fbbf 	bl	26ebe <__aeabi_memcpy>
   21740:	7026      	strb	r6, [r4, #0]
   21742:	4c06      	ldr	r4, [pc, #24]	@ (2175c <_ZN18complex_no_dynamic3app17h51a9d664d250f037E+0xac>)
   21744:	4620      	mov	r0, r4
   21746:	4629      	mov	r1, r5
   21748:	4632      	mov	r2, r6
   2174a:	4633      	mov	r3, r6
   2174c:	df03      	svc	3
   2174e:	2101      	movs	r1, #1
   21750:	4620      	mov	r0, r4
   21752:	4632      	mov	r2, r6
   21754:	4633      	mov	r3, r6
   21756:	df04      	svc	4
   21758:	e7de      	b.n	21718 <_ZN18complex_no_dynamic3app17h51a9d664d250f037E+0x68>
   2175a:	46c0      	nop			@ (mov r8, r8)
   2175c:	00000ed2 	.word	0x00000ed2

00021760 <_ZN18complex_no_dynamic3app17h52552f5ce8272ef0E>:
   21760:	b5f0      	push	{r4, r5, r6, r7, lr}
   21762:	af03      	add	r7, sp, #12
   21764:	b09b      	sub	sp, #108	@ 0x6c
   21766:	9002      	str	r0, [sp, #8]
   21768:	ae03      	add	r6, sp, #12
   2176a:	241b      	movs	r4, #27
   2176c:	4630      	mov	r0, r6
   2176e:	4622      	mov	r2, r4
   21770:	f005 fba5 	bl	26ebe <__aeabi_memcpy>
   21774:	a80a      	add	r0, sp, #40	@ 0x28
   21776:	2141      	movs	r1, #65	@ 0x41
   21778:	f005 f9f4 	bl	26b64 <__aeabi_memclr4>
   2177c:	2005      	movs	r0, #5
   2177e:	0185      	lsls	r5, r0, #6
   21780:	2108      	movs	r1, #8
   21782:	4628      	mov	r0, r5
   21784:	4632      	mov	r2, r6
   21786:	4623      	mov	r3, r4
   21788:	df04      	svc	4
   2178a:	2802      	cmp	r0, #2
   2178c:	d00e      	beq.n	217ac <_ZN18complex_no_dynamic3app17h52552f5ce8272ef0E+0x4c>
   2178e:	2109      	movs	r1, #9
   21790:	aa0a      	add	r2, sp, #40	@ 0x28
   21792:	2341      	movs	r3, #65	@ 0x41
   21794:	4628      	mov	r0, r5
   21796:	df03      	svc	3
   21798:	2802      	cmp	r0, #2
   2179a:	d007      	beq.n	217ac <_ZN18complex_no_dynamic3app17h52552f5ce8272ef0E+0x4c>
   2179c:	2108      	movs	r1, #8
   2179e:	2209      	movs	r2, #9
   217a0:	2600      	movs	r6, #0
   217a2:	4628      	mov	r0, r5
   217a4:	4633      	mov	r3, r6
   217a6:	df02      	svc	2
   217a8:	287f      	cmp	r0, #127	@ 0x7f
   217aa:	d810      	bhi.n	217ce <_ZN18complex_no_dynamic3app17h52552f5ce8272ef0E+0x6e>
   217ac:	2001      	movs	r0, #1
   217ae:	9a02      	ldr	r2, [sp, #8]
   217b0:	7010      	strb	r0, [r2, #0]
   217b2:	6051      	str	r1, [r2, #4]
   217b4:	2109      	movs	r1, #9
   217b6:	2400      	movs	r4, #0
   217b8:	4628      	mov	r0, r5
   217ba:	4622      	mov	r2, r4
   217bc:	4623      	mov	r3, r4
   217be:	df03      	svc	3
   217c0:	2108      	movs	r1, #8
   217c2:	4628      	mov	r0, r5
   217c4:	4622      	mov	r2, r4
   217c6:	4623      	mov	r3, r4
   217c8:	df04      	svc	4
   217ca:	b01b      	add	sp, #108	@ 0x6c
   217cc:	bdf0      	pop	{r4, r5, r6, r7, pc}
   217ce:	2409      	movs	r4, #9
   217d0:	9401      	str	r4, [sp, #4]
   217d2:	4628      	mov	r0, r5
   217d4:	4621      	mov	r1, r4
   217d6:	4632      	mov	r2, r6
   217d8:	4633      	mov	r3, r6
   217da:	df03      	svc	3
   217dc:	4628      	mov	r0, r5
   217de:	4621      	mov	r1, r4
   217e0:	4632      	mov	r2, r6
   217e2:	4633      	mov	r3, r6
   217e4:	df03      	svc	3
   217e6:	9c02      	ldr	r4, [sp, #8]
   217e8:	1c60      	adds	r0, r4, #1
   217ea:	a90a      	add	r1, sp, #40	@ 0x28
   217ec:	2241      	movs	r2, #65	@ 0x41
   217ee:	f005 fb66 	bl	26ebe <__aeabi_memcpy>
   217f2:	7026      	strb	r6, [r4, #0]
   217f4:	4628      	mov	r0, r5
   217f6:	9901      	ldr	r1, [sp, #4]
   217f8:	4632      	mov	r2, r6
   217fa:	4633      	mov	r3, r6
   217fc:	df03      	svc	3
   217fe:	2108      	movs	r1, #8
   21800:	4628      	mov	r0, r5
   21802:	4632      	mov	r2, r6
   21804:	4633      	mov	r3, r6
   21806:	df04      	svc	4
   21808:	e7df      	b.n	217ca <_ZN18complex_no_dynamic3app17h52552f5ce8272ef0E+0x6a>
   2180a:	d4d4      	bmi.n	217b6 <_ZN18complex_no_dynamic3app17h52552f5ce8272ef0E+0x56>

0002180c <_ZN18complex_no_dynamic3app17h530976c2c5946b30E>:
   2180c:	b5f0      	push	{r4, r5, r6, r7, lr}
   2180e:	af03      	add	r7, sp, #12
   21810:	b095      	sub	sp, #84	@ 0x54
   21812:	4604      	mov	r4, r0
   21814:	466d      	mov	r5, sp
   21816:	262c      	movs	r6, #44	@ 0x2c
   21818:	4628      	mov	r0, r5
   2181a:	4632      	mov	r2, r6
   2181c:	f005 fb4f 	bl	26ebe <__aeabi_memcpy>
   21820:	a80b      	add	r0, sp, #44	@ 0x2c
   21822:	2125      	movs	r1, #37	@ 0x25
   21824:	f005 f99e 	bl	26b64 <__aeabi_memclr4>
   21828:	4821      	ldr	r0, [pc, #132]	@ (218b0 <_ZN18complex_no_dynamic3app17h530976c2c5946b30E+0xa4>)
   2182a:	2103      	movs	r1, #3
   2182c:	462a      	mov	r2, r5
   2182e:	4633      	mov	r3, r6
   21830:	df04      	svc	4
   21832:	2802      	cmp	r0, #2
   21834:	d00e      	beq.n	21854 <_ZN18complex_no_dynamic3app17h530976c2c5946b30E+0x48>
   21836:	481e      	ldr	r0, [pc, #120]	@ (218b0 <_ZN18complex_no_dynamic3app17h530976c2c5946b30E+0xa4>)
   21838:	2100      	movs	r1, #0
   2183a:	aa0b      	add	r2, sp, #44	@ 0x2c
   2183c:	2325      	movs	r3, #37	@ 0x25
   2183e:	df03      	svc	3
   21840:	2802      	cmp	r0, #2
   21842:	d007      	beq.n	21854 <_ZN18complex_no_dynamic3app17h530976c2c5946b30E+0x48>
   21844:	481a      	ldr	r0, [pc, #104]	@ (218b0 <_ZN18complex_no_dynamic3app17h530976c2c5946b30E+0xa4>)
   21846:	2103      	movs	r1, #3
   21848:	2500      	movs	r5, #0
   2184a:	462a      	mov	r2, r5
   2184c:	462b      	mov	r3, r5
   2184e:	df02      	svc	2
   21850:	287f      	cmp	r0, #127	@ 0x7f
   21852:	d810      	bhi.n	21876 <_ZN18complex_no_dynamic3app17h530976c2c5946b30E+0x6a>
   21854:	2001      	movs	r0, #1
   21856:	7020      	strb	r0, [r4, #0]
   21858:	6061      	str	r1, [r4, #4]
   2185a:	4c15      	ldr	r4, [pc, #84]	@ (218b0 <_ZN18complex_no_dynamic3app17h530976c2c5946b30E+0xa4>)
   2185c:	2500      	movs	r5, #0
   2185e:	4620      	mov	r0, r4
   21860:	4629      	mov	r1, r5
   21862:	462a      	mov	r2, r5
   21864:	462b      	mov	r3, r5
   21866:	df03      	svc	3
   21868:	2103      	movs	r1, #3
   2186a:	4620      	mov	r0, r4
   2186c:	462a      	mov	r2, r5
   2186e:	462b      	mov	r3, r5
   21870:	df04      	svc	4
   21872:	b015      	add	sp, #84	@ 0x54
   21874:	bdf0      	pop	{r4, r5, r6, r7, pc}
   21876:	4e0e      	ldr	r6, [pc, #56]	@ (218b0 <_ZN18complex_no_dynamic3app17h530976c2c5946b30E+0xa4>)
   21878:	4630      	mov	r0, r6
   2187a:	4629      	mov	r1, r5
   2187c:	462a      	mov	r2, r5
   2187e:	462b      	mov	r3, r5
   21880:	df03      	svc	3
   21882:	4630      	mov	r0, r6
   21884:	4629      	mov	r1, r5
   21886:	462a      	mov	r2, r5
   21888:	462b      	mov	r3, r5
   2188a:	df03      	svc	3
   2188c:	1c60      	adds	r0, r4, #1
   2188e:	a90b      	add	r1, sp, #44	@ 0x2c
   21890:	2225      	movs	r2, #37	@ 0x25
   21892:	f005 fb14 	bl	26ebe <__aeabi_memcpy>
   21896:	7025      	strb	r5, [r4, #0]
   21898:	4630      	mov	r0, r6
   2189a:	4629      	mov	r1, r5
   2189c:	462a      	mov	r2, r5
   2189e:	462b      	mov	r3, r5
   218a0:	df03      	svc	3
   218a2:	2103      	movs	r1, #3
   218a4:	4630      	mov	r0, r6
   218a6:	462a      	mov	r2, r5
   218a8:	462b      	mov	r3, r5
   218aa:	df04      	svc	4
   218ac:	e7e1      	b.n	21872 <_ZN18complex_no_dynamic3app17h530976c2c5946b30E+0x66>
   218ae:	46c0      	nop			@ (mov r8, r8)
   218b0:	0000077f 	.word	0x0000077f

000218b4 <_ZN18complex_no_dynamic3app17h533c7b57ca7cb73dE>:
   218b4:	b5f0      	push	{r4, r5, r6, r7, lr}
   218b6:	af03      	add	r7, sp, #12
   218b8:	b0a3      	sub	sp, #140	@ 0x8c
   218ba:	4604      	mov	r4, r0
   218bc:	466d      	mov	r5, sp
   218be:	264f      	movs	r6, #79	@ 0x4f
   218c0:	4628      	mov	r0, r5
   218c2:	4632      	mov	r2, r6
   218c4:	f005 fafb 	bl	26ebe <__aeabi_memcpy>
   218c8:	a814      	add	r0, sp, #80	@ 0x50
   218ca:	213b      	movs	r1, #59	@ 0x3b
   218cc:	f005 f94a 	bl	26b64 <__aeabi_memclr4>
   218d0:	4821      	ldr	r0, [pc, #132]	@ (21958 <_ZN18complex_no_dynamic3app17h533c7b57ca7cb73dE+0xa4>)
   218d2:	2108      	movs	r1, #8
   218d4:	462a      	mov	r2, r5
   218d6:	4633      	mov	r3, r6
   218d8:	df04      	svc	4
   218da:	2802      	cmp	r0, #2
   218dc:	d00e      	beq.n	218fc <_ZN18complex_no_dynamic3app17h533c7b57ca7cb73dE+0x48>
   218de:	481e      	ldr	r0, [pc, #120]	@ (21958 <_ZN18complex_no_dynamic3app17h533c7b57ca7cb73dE+0xa4>)
   218e0:	2105      	movs	r1, #5
   218e2:	aa14      	add	r2, sp, #80	@ 0x50
   218e4:	233b      	movs	r3, #59	@ 0x3b
   218e6:	df03      	svc	3
   218e8:	2802      	cmp	r0, #2
   218ea:	d007      	beq.n	218fc <_ZN18complex_no_dynamic3app17h533c7b57ca7cb73dE+0x48>
   218ec:	481a      	ldr	r0, [pc, #104]	@ (21958 <_ZN18complex_no_dynamic3app17h533c7b57ca7cb73dE+0xa4>)
   218ee:	2108      	movs	r1, #8
   218f0:	2205      	movs	r2, #5
   218f2:	2500      	movs	r5, #0
   218f4:	462b      	mov	r3, r5
   218f6:	df02      	svc	2
   218f8:	287f      	cmp	r0, #127	@ 0x7f
   218fa:	d810      	bhi.n	2191e <_ZN18complex_no_dynamic3app17h533c7b57ca7cb73dE+0x6a>
   218fc:	2001      	movs	r0, #1
   218fe:	7020      	strb	r0, [r4, #0]
   21900:	6061      	str	r1, [r4, #4]
   21902:	4c15      	ldr	r4, [pc, #84]	@ (21958 <_ZN18complex_no_dynamic3app17h533c7b57ca7cb73dE+0xa4>)
   21904:	2105      	movs	r1, #5
   21906:	2500      	movs	r5, #0
   21908:	4620      	mov	r0, r4
   2190a:	462a      	mov	r2, r5
   2190c:	462b      	mov	r3, r5
   2190e:	df03      	svc	3
   21910:	2108      	movs	r1, #8
   21912:	4620      	mov	r0, r4
   21914:	462a      	mov	r2, r5
   21916:	462b      	mov	r3, r5
   21918:	df04      	svc	4
   2191a:	b023      	add	sp, #140	@ 0x8c
   2191c:	bdf0      	pop	{r4, r5, r6, r7, pc}
   2191e:	480e      	ldr	r0, [pc, #56]	@ (21958 <_ZN18complex_no_dynamic3app17h533c7b57ca7cb73dE+0xa4>)
   21920:	2605      	movs	r6, #5
   21922:	4631      	mov	r1, r6
   21924:	462a      	mov	r2, r5
   21926:	462b      	mov	r3, r5
   21928:	df03      	svc	3
   2192a:	480b      	ldr	r0, [pc, #44]	@ (21958 <_ZN18complex_no_dynamic3app17h533c7b57ca7cb73dE+0xa4>)
   2192c:	4631      	mov	r1, r6
   2192e:	462a      	mov	r2, r5
   21930:	462b      	mov	r3, r5
   21932:	df03      	svc	3
   21934:	1c60      	adds	r0, r4, #1
   21936:	a914      	add	r1, sp, #80	@ 0x50
   21938:	223b      	movs	r2, #59	@ 0x3b
   2193a:	f005 fac0 	bl	26ebe <__aeabi_memcpy>
   2193e:	7025      	strb	r5, [r4, #0]
   21940:	4c05      	ldr	r4, [pc, #20]	@ (21958 <_ZN18complex_no_dynamic3app17h533c7b57ca7cb73dE+0xa4>)
   21942:	4620      	mov	r0, r4
   21944:	4631      	mov	r1, r6
   21946:	462a      	mov	r2, r5
   21948:	462b      	mov	r3, r5
   2194a:	df03      	svc	3
   2194c:	2108      	movs	r1, #8
   2194e:	4620      	mov	r0, r4
   21950:	462a      	mov	r2, r5
   21952:	462b      	mov	r3, r5
   21954:	df04      	svc	4
   21956:	e7e0      	b.n	2191a <_ZN18complex_no_dynamic3app17h533c7b57ca7cb73dE+0x66>
   21958:	00000a06 	.word	0x00000a06

0002195c <_ZN18complex_no_dynamic3app17h5b08918769fff31aE>:
   2195c:	b5f0      	push	{r4, r5, r6, r7, lr}
   2195e:	af03      	add	r7, sp, #12
   21960:	b093      	sub	sp, #76	@ 0x4c
   21962:	4604      	mov	r4, r0
   21964:	ad01      	add	r5, sp, #4
   21966:	2636      	movs	r6, #54	@ 0x36
   21968:	4628      	mov	r0, r5
   2196a:	4632      	mov	r2, r6
   2196c:	f005 faa7 	bl	26ebe <__aeabi_memcpy>
   21970:	a80f      	add	r0, sp, #60	@ 0x3c
   21972:	210f      	movs	r1, #15
   21974:	f005 f8f6 	bl	26b64 <__aeabi_memclr4>
   21978:	4821      	ldr	r0, [pc, #132]	@ (21a00 <_ZN18complex_no_dynamic3app17h5b08918769fff31aE+0xa4>)
   2197a:	2105      	movs	r1, #5
   2197c:	462a      	mov	r2, r5
   2197e:	4633      	mov	r3, r6
   21980:	df04      	svc	4
   21982:	2802      	cmp	r0, #2
   21984:	d00e      	beq.n	219a4 <_ZN18complex_no_dynamic3app17h5b08918769fff31aE+0x48>
   21986:	481e      	ldr	r0, [pc, #120]	@ (21a00 <_ZN18complex_no_dynamic3app17h5b08918769fff31aE+0xa4>)
   21988:	2103      	movs	r1, #3
   2198a:	aa0f      	add	r2, sp, #60	@ 0x3c
   2198c:	230f      	movs	r3, #15
   2198e:	df03      	svc	3
   21990:	2802      	cmp	r0, #2
   21992:	d007      	beq.n	219a4 <_ZN18complex_no_dynamic3app17h5b08918769fff31aE+0x48>
   21994:	481a      	ldr	r0, [pc, #104]	@ (21a00 <_ZN18complex_no_dynamic3app17h5b08918769fff31aE+0xa4>)
   21996:	2105      	movs	r1, #5
   21998:	2203      	movs	r2, #3
   2199a:	2500      	movs	r5, #0
   2199c:	462b      	mov	r3, r5
   2199e:	df02      	svc	2
   219a0:	287f      	cmp	r0, #127	@ 0x7f
   219a2:	d810      	bhi.n	219c6 <_ZN18complex_no_dynamic3app17h5b08918769fff31aE+0x6a>
   219a4:	2001      	movs	r0, #1
   219a6:	7020      	strb	r0, [r4, #0]
   219a8:	6061      	str	r1, [r4, #4]
   219aa:	4c15      	ldr	r4, [pc, #84]	@ (21a00 <_ZN18complex_no_dynamic3app17h5b08918769fff31aE+0xa4>)
   219ac:	2103      	movs	r1, #3
   219ae:	2500      	movs	r5, #0
   219b0:	4620      	mov	r0, r4
   219b2:	462a      	mov	r2, r5
   219b4:	462b      	mov	r3, r5
   219b6:	df03      	svc	3
   219b8:	2105      	movs	r1, #5
   219ba:	4620      	mov	r0, r4
   219bc:	462a      	mov	r2, r5
   219be:	462b      	mov	r3, r5
   219c0:	df04      	svc	4
   219c2:	b013      	add	sp, #76	@ 0x4c
   219c4:	bdf0      	pop	{r4, r5, r6, r7, pc}
   219c6:	480e      	ldr	r0, [pc, #56]	@ (21a00 <_ZN18complex_no_dynamic3app17h5b08918769fff31aE+0xa4>)
   219c8:	2603      	movs	r6, #3
   219ca:	4631      	mov	r1, r6
   219cc:	462a      	mov	r2, r5
   219ce:	462b      	mov	r3, r5
   219d0:	df03      	svc	3
   219d2:	480b      	ldr	r0, [pc, #44]	@ (21a00 <_ZN18complex_no_dynamic3app17h5b08918769fff31aE+0xa4>)
   219d4:	4631      	mov	r1, r6
   219d6:	462a      	mov	r2, r5
   219d8:	462b      	mov	r3, r5
   219da:	df03      	svc	3
   219dc:	1c60      	adds	r0, r4, #1
   219de:	a90f      	add	r1, sp, #60	@ 0x3c
   219e0:	220f      	movs	r2, #15
   219e2:	f005 fa6c 	bl	26ebe <__aeabi_memcpy>
   219e6:	7025      	strb	r5, [r4, #0]
   219e8:	4c05      	ldr	r4, [pc, #20]	@ (21a00 <_ZN18complex_no_dynamic3app17h5b08918769fff31aE+0xa4>)
   219ea:	4620      	mov	r0, r4
   219ec:	4631      	mov	r1, r6
   219ee:	462a      	mov	r2, r5
   219f0:	462b      	mov	r3, r5
   219f2:	df03      	svc	3
   219f4:	2105      	movs	r1, #5
   219f6:	4620      	mov	r0, r4
   219f8:	462a      	mov	r2, r5
   219fa:	462b      	mov	r3, r5
   219fc:	df04      	svc	4
   219fe:	e7e0      	b.n	219c2 <_ZN18complex_no_dynamic3app17h5b08918769fff31aE+0x66>
   21a00:	00000653 	.word	0x00000653

00021a04 <_ZN18complex_no_dynamic3app17h5d62c1beb9a4c0c8E>:
   21a04:	b5f0      	push	{r4, r5, r6, r7, lr}
   21a06:	af03      	add	r7, sp, #12
   21a08:	b09d      	sub	sp, #116	@ 0x74
   21a0a:	9001      	str	r0, [sp, #4]
   21a0c:	ae02      	add	r6, sp, #8
   21a0e:	2438      	movs	r4, #56	@ 0x38
   21a10:	4630      	mov	r0, r6
   21a12:	4622      	mov	r2, r4
   21a14:	f005 fa53 	bl	26ebe <__aeabi_memcpy>
   21a18:	a810      	add	r0, sp, #64	@ 0x40
   21a1a:	2134      	movs	r1, #52	@ 0x34
   21a1c:	f005 f8a2 	bl	26b64 <__aeabi_memclr4>
   21a20:	2097      	movs	r0, #151	@ 0x97
   21a22:	0045      	lsls	r5, r0, #1
   21a24:	2108      	movs	r1, #8
   21a26:	4628      	mov	r0, r5
   21a28:	4632      	mov	r2, r6
   21a2a:	4623      	mov	r3, r4
   21a2c:	df04      	svc	4
   21a2e:	2802      	cmp	r0, #2
   21a30:	d00e      	beq.n	21a50 <_ZN18complex_no_dynamic3app17h5d62c1beb9a4c0c8E+0x4c>
   21a32:	2103      	movs	r1, #3
   21a34:	aa10      	add	r2, sp, #64	@ 0x40
   21a36:	2334      	movs	r3, #52	@ 0x34
   21a38:	4628      	mov	r0, r5
   21a3a:	df03      	svc	3
   21a3c:	2802      	cmp	r0, #2
   21a3e:	d007      	beq.n	21a50 <_ZN18complex_no_dynamic3app17h5d62c1beb9a4c0c8E+0x4c>
   21a40:	2108      	movs	r1, #8
   21a42:	2203      	movs	r2, #3
   21a44:	2600      	movs	r6, #0
   21a46:	4628      	mov	r0, r5
   21a48:	4633      	mov	r3, r6
   21a4a:	df02      	svc	2
   21a4c:	287f      	cmp	r0, #127	@ 0x7f
   21a4e:	d810      	bhi.n	21a72 <_ZN18complex_no_dynamic3app17h5d62c1beb9a4c0c8E+0x6e>
   21a50:	2001      	movs	r0, #1
   21a52:	9a01      	ldr	r2, [sp, #4]
   21a54:	7010      	strb	r0, [r2, #0]
   21a56:	6051      	str	r1, [r2, #4]
   21a58:	2103      	movs	r1, #3
   21a5a:	2400      	movs	r4, #0
   21a5c:	4628      	mov	r0, r5
   21a5e:	4622      	mov	r2, r4
   21a60:	4623      	mov	r3, r4
   21a62:	df03      	svc	3
   21a64:	2108      	movs	r1, #8
   21a66:	4628      	mov	r0, r5
   21a68:	4622      	mov	r2, r4
   21a6a:	4623      	mov	r3, r4
   21a6c:	df04      	svc	4
   21a6e:	b01d      	add	sp, #116	@ 0x74
   21a70:	bdf0      	pop	{r4, r5, r6, r7, pc}
   21a72:	2403      	movs	r4, #3
   21a74:	9400      	str	r4, [sp, #0]
   21a76:	4628      	mov	r0, r5
   21a78:	4621      	mov	r1, r4
   21a7a:	4632      	mov	r2, r6
   21a7c:	4633      	mov	r3, r6
   21a7e:	df03      	svc	3
   21a80:	4628      	mov	r0, r5
   21a82:	4621      	mov	r1, r4
   21a84:	4632      	mov	r2, r6
   21a86:	4633      	mov	r3, r6
   21a88:	df03      	svc	3
   21a8a:	9c01      	ldr	r4, [sp, #4]
   21a8c:	1c60      	adds	r0, r4, #1
   21a8e:	a910      	add	r1, sp, #64	@ 0x40
   21a90:	2234      	movs	r2, #52	@ 0x34
   21a92:	f005 fa14 	bl	26ebe <__aeabi_memcpy>
   21a96:	7026      	strb	r6, [r4, #0]
   21a98:	4628      	mov	r0, r5
   21a9a:	9900      	ldr	r1, [sp, #0]
   21a9c:	4632      	mov	r2, r6
   21a9e:	4633      	mov	r3, r6
   21aa0:	df03      	svc	3
   21aa2:	2108      	movs	r1, #8
   21aa4:	4628      	mov	r0, r5
   21aa6:	4632      	mov	r2, r6
   21aa8:	4633      	mov	r3, r6
   21aaa:	df04      	svc	4
   21aac:	e7df      	b.n	21a6e <_ZN18complex_no_dynamic3app17h5d62c1beb9a4c0c8E+0x6a>
   21aae:	d4d4      	bmi.n	21a5a <_ZN18complex_no_dynamic3app17h5d62c1beb9a4c0c8E+0x56>

00021ab0 <_ZN18complex_no_dynamic3app17h5ebae6509f65e2bfE>:
   21ab0:	b5f0      	push	{r4, r5, r6, r7, lr}
   21ab2:	af03      	add	r7, sp, #12
   21ab4:	b09f      	sub	sp, #124	@ 0x7c
   21ab6:	4604      	mov	r4, r0
   21ab8:	ad01      	add	r5, sp, #4
   21aba:	2635      	movs	r6, #53	@ 0x35
   21abc:	4628      	mov	r0, r5
   21abe:	4632      	mov	r2, r6
   21ac0:	f005 f9fd 	bl	26ebe <__aeabi_memcpy>
   21ac4:	a80f      	add	r0, sp, #60	@ 0x3c
   21ac6:	213f      	movs	r1, #63	@ 0x3f
   21ac8:	f005 f84c 	bl	26b64 <__aeabi_memclr4>
   21acc:	4821      	ldr	r0, [pc, #132]	@ (21b54 <_ZN18complex_no_dynamic3app17h5ebae6509f65e2bfE+0xa4>)
   21ace:	2100      	movs	r1, #0
   21ad0:	462a      	mov	r2, r5
   21ad2:	4633      	mov	r3, r6
   21ad4:	df04      	svc	4
   21ad6:	2802      	cmp	r0, #2
   21ad8:	d00e      	beq.n	21af8 <_ZN18complex_no_dynamic3app17h5ebae6509f65e2bfE+0x48>
   21ada:	481e      	ldr	r0, [pc, #120]	@ (21b54 <_ZN18complex_no_dynamic3app17h5ebae6509f65e2bfE+0xa4>)
   21adc:	2103      	movs	r1, #3
   21ade:	aa0f      	add	r2, sp, #60	@ 0x3c
   21ae0:	233f      	movs	r3, #63	@ 0x3f
   21ae2:	df03      	svc	3
   21ae4:	2802      	cmp	r0, #2
   21ae6:	d007      	beq.n	21af8 <_ZN18complex_no_dynamic3app17h5ebae6509f65e2bfE+0x48>
   21ae8:	481a      	ldr	r0, [pc, #104]	@ (21b54 <_ZN18complex_no_dynamic3app17h5ebae6509f65e2bfE+0xa4>)
   21aea:	2203      	movs	r2, #3
   21aec:	2500      	movs	r5, #0
   21aee:	4629      	mov	r1, r5
   21af0:	462b      	mov	r3, r5
   21af2:	df02      	svc	2
   21af4:	287f      	cmp	r0, #127	@ 0x7f
   21af6:	d810      	bhi.n	21b1a <_ZN18complex_no_dynamic3app17h5ebae6509f65e2bfE+0x6a>
   21af8:	2001      	movs	r0, #1
   21afa:	7020      	strb	r0, [r4, #0]
   21afc:	6061      	str	r1, [r4, #4]
   21afe:	4c15      	ldr	r4, [pc, #84]	@ (21b54 <_ZN18complex_no_dynamic3app17h5ebae6509f65e2bfE+0xa4>)
   21b00:	2103      	movs	r1, #3
   21b02:	2500      	movs	r5, #0
   21b04:	4620      	mov	r0, r4
   21b06:	462a      	mov	r2, r5
   21b08:	462b      	mov	r3, r5
   21b0a:	df03      	svc	3
   21b0c:	4620      	mov	r0, r4
   21b0e:	4629      	mov	r1, r5
   21b10:	462a      	mov	r2, r5
   21b12:	462b      	mov	r3, r5
   21b14:	df04      	svc	4
   21b16:	b01f      	add	sp, #124	@ 0x7c
   21b18:	bdf0      	pop	{r4, r5, r6, r7, pc}
   21b1a:	480e      	ldr	r0, [pc, #56]	@ (21b54 <_ZN18complex_no_dynamic3app17h5ebae6509f65e2bfE+0xa4>)
   21b1c:	2603      	movs	r6, #3
   21b1e:	4631      	mov	r1, r6
   21b20:	462a      	mov	r2, r5
   21b22:	462b      	mov	r3, r5
   21b24:	df03      	svc	3
   21b26:	480b      	ldr	r0, [pc, #44]	@ (21b54 <_ZN18complex_no_dynamic3app17h5ebae6509f65e2bfE+0xa4>)
   21b28:	4631      	mov	r1, r6
   21b2a:	462a      	mov	r2, r5
   21b2c:	462b      	mov	r3, r5
   21b2e:	df03      	svc	3
   21b30:	1c60      	adds	r0, r4, #1
   21b32:	a90f      	add	r1, sp, #60	@ 0x3c
   21b34:	223f      	movs	r2, #63	@ 0x3f
   21b36:	f005 f9c2 	bl	26ebe <__aeabi_memcpy>
   21b3a:	7025      	strb	r5, [r4, #0]
   21b3c:	4c05      	ldr	r4, [pc, #20]	@ (21b54 <_ZN18complex_no_dynamic3app17h5ebae6509f65e2bfE+0xa4>)
   21b3e:	4620      	mov	r0, r4
   21b40:	4631      	mov	r1, r6
   21b42:	462a      	mov	r2, r5
   21b44:	462b      	mov	r3, r5
   21b46:	df03      	svc	3
   21b48:	4620      	mov	r0, r4
   21b4a:	4629      	mov	r1, r5
   21b4c:	462a      	mov	r2, r5
   21b4e:	462b      	mov	r3, r5
   21b50:	df04      	svc	4
   21b52:	e7e0      	b.n	21b16 <_ZN18complex_no_dynamic3app17h5ebae6509f65e2bfE+0x66>
   21b54:	00000e57 	.word	0x00000e57

00021b58 <_ZN18complex_no_dynamic3app17h5f4746e4924cc4e2E>:
   21b58:	b5f0      	push	{r4, r5, r6, r7, lr}
   21b5a:	af03      	add	r7, sp, #12
   21b5c:	b09b      	sub	sp, #108	@ 0x6c
   21b5e:	4604      	mov	r4, r0
   21b60:	466d      	mov	r5, sp
   21b62:	261a      	movs	r6, #26
   21b64:	4628      	mov	r0, r5
   21b66:	4632      	mov	r2, r6
   21b68:	f005 f9a9 	bl	26ebe <__aeabi_memcpy>
   21b6c:	a807      	add	r0, sp, #28
   21b6e:	2150      	movs	r1, #80	@ 0x50
   21b70:	f004 fff8 	bl	26b64 <__aeabi_memclr4>
   21b74:	4821      	ldr	r0, [pc, #132]	@ (21bfc <_ZN18complex_no_dynamic3app17h5f4746e4924cc4e2E+0xa4>)
   21b76:	2107      	movs	r1, #7
   21b78:	462a      	mov	r2, r5
   21b7a:	4633      	mov	r3, r6
   21b7c:	df04      	svc	4
   21b7e:	2802      	cmp	r0, #2
   21b80:	d00e      	beq.n	21ba0 <_ZN18complex_no_dynamic3app17h5f4746e4924cc4e2E+0x48>
   21b82:	481e      	ldr	r0, [pc, #120]	@ (21bfc <_ZN18complex_no_dynamic3app17h5f4746e4924cc4e2E+0xa4>)
   21b84:	2104      	movs	r1, #4
   21b86:	aa07      	add	r2, sp, #28
   21b88:	2350      	movs	r3, #80	@ 0x50
   21b8a:	df03      	svc	3
   21b8c:	2802      	cmp	r0, #2
   21b8e:	d007      	beq.n	21ba0 <_ZN18complex_no_dynamic3app17h5f4746e4924cc4e2E+0x48>
   21b90:	481a      	ldr	r0, [pc, #104]	@ (21bfc <_ZN18complex_no_dynamic3app17h5f4746e4924cc4e2E+0xa4>)
   21b92:	2107      	movs	r1, #7
   21b94:	2204      	movs	r2, #4
   21b96:	2500      	movs	r5, #0
   21b98:	462b      	mov	r3, r5
   21b9a:	df02      	svc	2
   21b9c:	287f      	cmp	r0, #127	@ 0x7f
   21b9e:	d810      	bhi.n	21bc2 <_ZN18complex_no_dynamic3app17h5f4746e4924cc4e2E+0x6a>
   21ba0:	2001      	movs	r0, #1
   21ba2:	7020      	strb	r0, [r4, #0]
   21ba4:	6061      	str	r1, [r4, #4]
   21ba6:	4c15      	ldr	r4, [pc, #84]	@ (21bfc <_ZN18complex_no_dynamic3app17h5f4746e4924cc4e2E+0xa4>)
   21ba8:	2104      	movs	r1, #4
   21baa:	2500      	movs	r5, #0
   21bac:	4620      	mov	r0, r4
   21bae:	462a      	mov	r2, r5
   21bb0:	462b      	mov	r3, r5
   21bb2:	df03      	svc	3
   21bb4:	2107      	movs	r1, #7
   21bb6:	4620      	mov	r0, r4
   21bb8:	462a      	mov	r2, r5
   21bba:	462b      	mov	r3, r5
   21bbc:	df04      	svc	4
   21bbe:	b01b      	add	sp, #108	@ 0x6c
   21bc0:	bdf0      	pop	{r4, r5, r6, r7, pc}
   21bc2:	480e      	ldr	r0, [pc, #56]	@ (21bfc <_ZN18complex_no_dynamic3app17h5f4746e4924cc4e2E+0xa4>)
   21bc4:	2604      	movs	r6, #4
   21bc6:	4631      	mov	r1, r6
   21bc8:	462a      	mov	r2, r5
   21bca:	462b      	mov	r3, r5
   21bcc:	df03      	svc	3
   21bce:	480b      	ldr	r0, [pc, #44]	@ (21bfc <_ZN18complex_no_dynamic3app17h5f4746e4924cc4e2E+0xa4>)
   21bd0:	4631      	mov	r1, r6
   21bd2:	462a      	mov	r2, r5
   21bd4:	462b      	mov	r3, r5
   21bd6:	df03      	svc	3
   21bd8:	1c60      	adds	r0, r4, #1
   21bda:	a907      	add	r1, sp, #28
   21bdc:	2250      	movs	r2, #80	@ 0x50
   21bde:	f005 f96e 	bl	26ebe <__aeabi_memcpy>
   21be2:	7025      	strb	r5, [r4, #0]
   21be4:	4c05      	ldr	r4, [pc, #20]	@ (21bfc <_ZN18complex_no_dynamic3app17h5f4746e4924cc4e2E+0xa4>)
   21be6:	4620      	mov	r0, r4
   21be8:	4631      	mov	r1, r6
   21bea:	462a      	mov	r2, r5
   21bec:	462b      	mov	r3, r5
   21bee:	df03      	svc	3
   21bf0:	2107      	movs	r1, #7
   21bf2:	4620      	mov	r0, r4
   21bf4:	462a      	mov	r2, r5
   21bf6:	462b      	mov	r3, r5
   21bf8:	df04      	svc	4
   21bfa:	e7e0      	b.n	21bbe <_ZN18complex_no_dynamic3app17h5f4746e4924cc4e2E+0x66>
   21bfc:	00000aee 	.word	0x00000aee

00021c00 <_ZN18complex_no_dynamic3app17h616cb232a816834aE>:
   21c00:	b5f0      	push	{r4, r5, r6, r7, lr}
   21c02:	af03      	add	r7, sp, #12
   21c04:	b0a1      	sub	sp, #132	@ 0x84
   21c06:	4604      	mov	r4, r0
   21c08:	ad01      	add	r5, sp, #4
   21c0a:	261b      	movs	r6, #27
   21c0c:	4628      	mov	r0, r5
   21c0e:	4632      	mov	r2, r6
   21c10:	f005 f955 	bl	26ebe <__aeabi_memcpy>
   21c14:	a808      	add	r0, sp, #32
   21c16:	2163      	movs	r1, #99	@ 0x63
   21c18:	f004 ffa4 	bl	26b64 <__aeabi_memclr4>
   21c1c:	4822      	ldr	r0, [pc, #136]	@ (21ca8 <_ZN18complex_no_dynamic3app17h616cb232a816834aE+0xa8>)
   21c1e:	2103      	movs	r1, #3
   21c20:	462a      	mov	r2, r5
   21c22:	4633      	mov	r3, r6
   21c24:	df04      	svc	4
   21c26:	2802      	cmp	r0, #2
   21c28:	d00e      	beq.n	21c48 <_ZN18complex_no_dynamic3app17h616cb232a816834aE+0x48>
   21c2a:	481f      	ldr	r0, [pc, #124]	@ (21ca8 <_ZN18complex_no_dynamic3app17h616cb232a816834aE+0xa8>)
   21c2c:	2103      	movs	r1, #3
   21c2e:	aa08      	add	r2, sp, #32
   21c30:	2363      	movs	r3, #99	@ 0x63
   21c32:	df03      	svc	3
   21c34:	2802      	cmp	r0, #2
   21c36:	d007      	beq.n	21c48 <_ZN18complex_no_dynamic3app17h616cb232a816834aE+0x48>
   21c38:	481b      	ldr	r0, [pc, #108]	@ (21ca8 <_ZN18complex_no_dynamic3app17h616cb232a816834aE+0xa8>)
   21c3a:	2103      	movs	r1, #3
   21c3c:	2500      	movs	r5, #0
   21c3e:	460a      	mov	r2, r1
   21c40:	462b      	mov	r3, r5
   21c42:	df02      	svc	2
   21c44:	287f      	cmp	r0, #127	@ 0x7f
   21c46:	d811      	bhi.n	21c6c <_ZN18complex_no_dynamic3app17h616cb232a816834aE+0x6c>
   21c48:	2001      	movs	r0, #1
   21c4a:	7020      	strb	r0, [r4, #0]
   21c4c:	6061      	str	r1, [r4, #4]
   21c4e:	4c16      	ldr	r4, [pc, #88]	@ (21ca8 <_ZN18complex_no_dynamic3app17h616cb232a816834aE+0xa8>)
   21c50:	2503      	movs	r5, #3
   21c52:	2600      	movs	r6, #0
   21c54:	4620      	mov	r0, r4
   21c56:	4629      	mov	r1, r5
   21c58:	4632      	mov	r2, r6
   21c5a:	4633      	mov	r3, r6
   21c5c:	df03      	svc	3
   21c5e:	4620      	mov	r0, r4
   21c60:	4629      	mov	r1, r5
   21c62:	4632      	mov	r2, r6
   21c64:	4633      	mov	r3, r6
   21c66:	df04      	svc	4
   21c68:	b021      	add	sp, #132	@ 0x84
   21c6a:	bdf0      	pop	{r4, r5, r6, r7, pc}
   21c6c:	480e      	ldr	r0, [pc, #56]	@ (21ca8 <_ZN18complex_no_dynamic3app17h616cb232a816834aE+0xa8>)
   21c6e:	2603      	movs	r6, #3
   21c70:	4631      	mov	r1, r6
   21c72:	462a      	mov	r2, r5
   21c74:	462b      	mov	r3, r5
   21c76:	df03      	svc	3
   21c78:	480b      	ldr	r0, [pc, #44]	@ (21ca8 <_ZN18complex_no_dynamic3app17h616cb232a816834aE+0xa8>)
   21c7a:	4631      	mov	r1, r6
   21c7c:	462a      	mov	r2, r5
   21c7e:	462b      	mov	r3, r5
   21c80:	df03      	svc	3
   21c82:	1c60      	adds	r0, r4, #1
   21c84:	a908      	add	r1, sp, #32
   21c86:	2263      	movs	r2, #99	@ 0x63
   21c88:	f005 f919 	bl	26ebe <__aeabi_memcpy>
   21c8c:	7025      	strb	r5, [r4, #0]
   21c8e:	4c06      	ldr	r4, [pc, #24]	@ (21ca8 <_ZN18complex_no_dynamic3app17h616cb232a816834aE+0xa8>)
   21c90:	4620      	mov	r0, r4
   21c92:	4631      	mov	r1, r6
   21c94:	462a      	mov	r2, r5
   21c96:	462b      	mov	r3, r5
   21c98:	df03      	svc	3
   21c9a:	4620      	mov	r0, r4
   21c9c:	4631      	mov	r1, r6
   21c9e:	462a      	mov	r2, r5
   21ca0:	462b      	mov	r3, r5
   21ca2:	df04      	svc	4
   21ca4:	e7e0      	b.n	21c68 <_ZN18complex_no_dynamic3app17h616cb232a816834aE+0x68>
   21ca6:	46c0      	nop			@ (mov r8, r8)
   21ca8:	00002548 	.word	0x00002548

00021cac <_ZN18complex_no_dynamic3app17h643d05c3908560c3E>:
   21cac:	b5f0      	push	{r4, r5, r6, r7, lr}
   21cae:	af03      	add	r7, sp, #12
   21cb0:	b097      	sub	sp, #92	@ 0x5c
   21cb2:	4604      	mov	r4, r0
   21cb4:	ad01      	add	r5, sp, #4
   21cb6:	2648      	movs	r6, #72	@ 0x48
   21cb8:	4628      	mov	r0, r5
   21cba:	4632      	mov	r2, r6
   21cbc:	f005 f8ff 	bl	26ebe <__aeabi_memcpy>
   21cc0:	a813      	add	r0, sp, #76	@ 0x4c
   21cc2:	210f      	movs	r1, #15
   21cc4:	f004 ff4e 	bl	26b64 <__aeabi_memclr4>
   21cc8:	4821      	ldr	r0, [pc, #132]	@ (21d50 <_ZN18complex_no_dynamic3app17h643d05c3908560c3E+0xa4>)
   21cca:	2108      	movs	r1, #8
   21ccc:	462a      	mov	r2, r5
   21cce:	4633      	mov	r3, r6
   21cd0:	df04      	svc	4
   21cd2:	2802      	cmp	r0, #2
   21cd4:	d00e      	beq.n	21cf4 <_ZN18complex_no_dynamic3app17h643d05c3908560c3E+0x48>
   21cd6:	481e      	ldr	r0, [pc, #120]	@ (21d50 <_ZN18complex_no_dynamic3app17h643d05c3908560c3E+0xa4>)
   21cd8:	2109      	movs	r1, #9
   21cda:	aa13      	add	r2, sp, #76	@ 0x4c
   21cdc:	230f      	movs	r3, #15
   21cde:	df03      	svc	3
   21ce0:	2802      	cmp	r0, #2
   21ce2:	d007      	beq.n	21cf4 <_ZN18complex_no_dynamic3app17h643d05c3908560c3E+0x48>
   21ce4:	481a      	ldr	r0, [pc, #104]	@ (21d50 <_ZN18complex_no_dynamic3app17h643d05c3908560c3E+0xa4>)
   21ce6:	2108      	movs	r1, #8
   21ce8:	2209      	movs	r2, #9
   21cea:	2500      	movs	r5, #0
   21cec:	462b      	mov	r3, r5
   21cee:	df02      	svc	2
   21cf0:	287f      	cmp	r0, #127	@ 0x7f
   21cf2:	d810      	bhi.n	21d16 <_ZN18complex_no_dynamic3app17h643d05c3908560c3E+0x6a>
   21cf4:	2001      	movs	r0, #1
   21cf6:	7020      	strb	r0, [r4, #0]
   21cf8:	6061      	str	r1, [r4, #4]
   21cfa:	4c15      	ldr	r4, [pc, #84]	@ (21d50 <_ZN18complex_no_dynamic3app17h643d05c3908560c3E+0xa4>)
   21cfc:	2109      	movs	r1, #9
   21cfe:	2500      	movs	r5, #0
   21d00:	4620      	mov	r0, r4
   21d02:	462a      	mov	r2, r5
   21d04:	462b      	mov	r3, r5
   21d06:	df03      	svc	3
   21d08:	2108      	movs	r1, #8
   21d0a:	4620      	mov	r0, r4
   21d0c:	462a      	mov	r2, r5
   21d0e:	462b      	mov	r3, r5
   21d10:	df04      	svc	4
   21d12:	b017      	add	sp, #92	@ 0x5c
   21d14:	bdf0      	pop	{r4, r5, r6, r7, pc}
   21d16:	480e      	ldr	r0, [pc, #56]	@ (21d50 <_ZN18complex_no_dynamic3app17h643d05c3908560c3E+0xa4>)
   21d18:	2609      	movs	r6, #9
   21d1a:	4631      	mov	r1, r6
   21d1c:	462a      	mov	r2, r5
   21d1e:	462b      	mov	r3, r5
   21d20:	df03      	svc	3
   21d22:	480b      	ldr	r0, [pc, #44]	@ (21d50 <_ZN18complex_no_dynamic3app17h643d05c3908560c3E+0xa4>)
   21d24:	4631      	mov	r1, r6
   21d26:	462a      	mov	r2, r5
   21d28:	462b      	mov	r3, r5
   21d2a:	df03      	svc	3
   21d2c:	1c60      	adds	r0, r4, #1
   21d2e:	a913      	add	r1, sp, #76	@ 0x4c
   21d30:	220f      	movs	r2, #15
   21d32:	f005 f8c4 	bl	26ebe <__aeabi_memcpy>
   21d36:	7025      	strb	r5, [r4, #0]
   21d38:	4c05      	ldr	r4, [pc, #20]	@ (21d50 <_ZN18complex_no_dynamic3app17h643d05c3908560c3E+0xa4>)
   21d3a:	4620      	mov	r0, r4
   21d3c:	4631      	mov	r1, r6
   21d3e:	462a      	mov	r2, r5
   21d40:	462b      	mov	r3, r5
   21d42:	df03      	svc	3
   21d44:	2108      	movs	r1, #8
   21d46:	4620      	mov	r0, r4
   21d48:	462a      	mov	r2, r5
   21d4a:	462b      	mov	r3, r5
   21d4c:	df04      	svc	4
   21d4e:	e7e0      	b.n	21d12 <_ZN18complex_no_dynamic3app17h643d05c3908560c3E+0x66>
   21d50:	0000111d 	.word	0x0000111d

00021d54 <_ZN18complex_no_dynamic3app17h64e652de6886c86fE>:
   21d54:	b5f0      	push	{r4, r5, r6, r7, lr}
   21d56:	af03      	add	r7, sp, #12
   21d58:	b09b      	sub	sp, #108	@ 0x6c
   21d5a:	4604      	mov	r4, r0
   21d5c:	ad01      	add	r5, sp, #4
   21d5e:	263c      	movs	r6, #60	@ 0x3c
   21d60:	4628      	mov	r0, r5
   21d62:	4632      	mov	r2, r6
   21d64:	f005 f8ab 	bl	26ebe <__aeabi_memcpy>
   21d68:	a810      	add	r0, sp, #64	@ 0x40
   21d6a:	212c      	movs	r1, #44	@ 0x2c
   21d6c:	f004 fefa 	bl	26b64 <__aeabi_memclr4>
   21d70:	4821      	ldr	r0, [pc, #132]	@ (21df8 <_ZN18complex_no_dynamic3app17h64e652de6886c86fE+0xa4>)
   21d72:	2105      	movs	r1, #5
   21d74:	462a      	mov	r2, r5
   21d76:	4633      	mov	r3, r6
   21d78:	df04      	svc	4
   21d7a:	2802      	cmp	r0, #2
   21d7c:	d00e      	beq.n	21d9c <_ZN18complex_no_dynamic3app17h64e652de6886c86fE+0x48>
   21d7e:	481e      	ldr	r0, [pc, #120]	@ (21df8 <_ZN18complex_no_dynamic3app17h64e652de6886c86fE+0xa4>)
   21d80:	2107      	movs	r1, #7
   21d82:	aa10      	add	r2, sp, #64	@ 0x40
   21d84:	232c      	movs	r3, #44	@ 0x2c
   21d86:	df03      	svc	3
   21d88:	2802      	cmp	r0, #2
   21d8a:	d007      	beq.n	21d9c <_ZN18complex_no_dynamic3app17h64e652de6886c86fE+0x48>
   21d8c:	481a      	ldr	r0, [pc, #104]	@ (21df8 <_ZN18complex_no_dynamic3app17h64e652de6886c86fE+0xa4>)
   21d8e:	2105      	movs	r1, #5
   21d90:	2207      	movs	r2, #7
   21d92:	2500      	movs	r5, #0
   21d94:	462b      	mov	r3, r5
   21d96:	df02      	svc	2
   21d98:	287f      	cmp	r0, #127	@ 0x7f
   21d9a:	d810      	bhi.n	21dbe <_ZN18complex_no_dynamic3app17h64e652de6886c86fE+0x6a>
   21d9c:	2001      	movs	r0, #1
   21d9e:	7020      	strb	r0, [r4, #0]
   21da0:	6061      	str	r1, [r4, #4]
   21da2:	4c15      	ldr	r4, [pc, #84]	@ (21df8 <_ZN18complex_no_dynamic3app17h64e652de6886c86fE+0xa4>)
   21da4:	2107      	movs	r1, #7
   21da6:	2500      	movs	r5, #0
   21da8:	4620      	mov	r0, r4
   21daa:	462a      	mov	r2, r5
   21dac:	462b      	mov	r3, r5
   21dae:	df03      	svc	3
   21db0:	2105      	movs	r1, #5
   21db2:	4620      	mov	r0, r4
   21db4:	462a      	mov	r2, r5
   21db6:	462b      	mov	r3, r5
   21db8:	df04      	svc	4
   21dba:	b01b      	add	sp, #108	@ 0x6c
   21dbc:	bdf0      	pop	{r4, r5, r6, r7, pc}
   21dbe:	480e      	ldr	r0, [pc, #56]	@ (21df8 <_ZN18complex_no_dynamic3app17h64e652de6886c86fE+0xa4>)
   21dc0:	2607      	movs	r6, #7
   21dc2:	4631      	mov	r1, r6
   21dc4:	462a      	mov	r2, r5
   21dc6:	462b      	mov	r3, r5
   21dc8:	df03      	svc	3
   21dca:	480b      	ldr	r0, [pc, #44]	@ (21df8 <_ZN18complex_no_dynamic3app17h64e652de6886c86fE+0xa4>)
   21dcc:	4631      	mov	r1, r6
   21dce:	462a      	mov	r2, r5
   21dd0:	462b      	mov	r3, r5
   21dd2:	df03      	svc	3
   21dd4:	1c60      	adds	r0, r4, #1
   21dd6:	a910      	add	r1, sp, #64	@ 0x40
   21dd8:	222c      	movs	r2, #44	@ 0x2c
   21dda:	f005 f870 	bl	26ebe <__aeabi_memcpy>
   21dde:	7025      	strb	r5, [r4, #0]
   21de0:	4c05      	ldr	r4, [pc, #20]	@ (21df8 <_ZN18complex_no_dynamic3app17h64e652de6886c86fE+0xa4>)
   21de2:	4620      	mov	r0, r4
   21de4:	4631      	mov	r1, r6
   21de6:	462a      	mov	r2, r5
   21de8:	462b      	mov	r3, r5
   21dea:	df03      	svc	3
   21dec:	2105      	movs	r1, #5
   21dee:	4620      	mov	r0, r4
   21df0:	462a      	mov	r2, r5
   21df2:	462b      	mov	r3, r5
   21df4:	df04      	svc	4
   21df6:	e7e0      	b.n	21dba <_ZN18complex_no_dynamic3app17h64e652de6886c86fE+0x66>
   21df8:	00001eac 	.word	0x00001eac

00021dfc <_ZN18complex_no_dynamic3app17h6dd5b5557d1c2946E>:
   21dfc:	b5f0      	push	{r4, r5, r6, r7, lr}
   21dfe:	af03      	add	r7, sp, #12
   21e00:	b09f      	sub	sp, #124	@ 0x7c
   21e02:	4604      	mov	r4, r0
   21e04:	ad01      	add	r5, sp, #4
   21e06:	2632      	movs	r6, #50	@ 0x32
   21e08:	4628      	mov	r0, r5
   21e0a:	4632      	mov	r2, r6
   21e0c:	f005 f857 	bl	26ebe <__aeabi_memcpy>
   21e10:	a80e      	add	r0, sp, #56	@ 0x38
   21e12:	2141      	movs	r1, #65	@ 0x41
   21e14:	f004 fea6 	bl	26b64 <__aeabi_memclr4>
   21e18:	4821      	ldr	r0, [pc, #132]	@ (21ea0 <_ZN18complex_no_dynamic3app17h6dd5b5557d1c2946E+0xa4>)
   21e1a:	2107      	movs	r1, #7
   21e1c:	462a      	mov	r2, r5
   21e1e:	4633      	mov	r3, r6
   21e20:	df04      	svc	4
   21e22:	2802      	cmp	r0, #2
   21e24:	d00e      	beq.n	21e44 <_ZN18complex_no_dynamic3app17h6dd5b5557d1c2946E+0x48>
   21e26:	481e      	ldr	r0, [pc, #120]	@ (21ea0 <_ZN18complex_no_dynamic3app17h6dd5b5557d1c2946E+0xa4>)
   21e28:	2105      	movs	r1, #5
   21e2a:	aa0e      	add	r2, sp, #56	@ 0x38
   21e2c:	2341      	movs	r3, #65	@ 0x41
   21e2e:	df03      	svc	3
   21e30:	2802      	cmp	r0, #2
   21e32:	d007      	beq.n	21e44 <_ZN18complex_no_dynamic3app17h6dd5b5557d1c2946E+0x48>
   21e34:	481a      	ldr	r0, [pc, #104]	@ (21ea0 <_ZN18complex_no_dynamic3app17h6dd5b5557d1c2946E+0xa4>)
   21e36:	2107      	movs	r1, #7
   21e38:	2205      	movs	r2, #5
   21e3a:	2500      	movs	r5, #0
   21e3c:	462b      	mov	r3, r5
   21e3e:	df02      	svc	2
   21e40:	287f      	cmp	r0, #127	@ 0x7f
   21e42:	d810      	bhi.n	21e66 <_ZN18complex_no_dynamic3app17h6dd5b5557d1c2946E+0x6a>
   21e44:	2001      	movs	r0, #1
   21e46:	7020      	strb	r0, [r4, #0]
   21e48:	6061      	str	r1, [r4, #4]
   21e4a:	4c15      	ldr	r4, [pc, #84]	@ (21ea0 <_ZN18complex_no_dynamic3app17h6dd5b5557d1c2946E+0xa4>)
   21e4c:	2105      	movs	r1, #5
   21e4e:	2500      	movs	r5, #0
   21e50:	4620      	mov	r0, r4
   21e52:	462a      	mov	r2, r5
   21e54:	462b      	mov	r3, r5
   21e56:	df03      	svc	3
   21e58:	2107      	movs	r1, #7
   21e5a:	4620      	mov	r0, r4
   21e5c:	462a      	mov	r2, r5
   21e5e:	462b      	mov	r3, r5
   21e60:	df04      	svc	4
   21e62:	b01f      	add	sp, #124	@ 0x7c
   21e64:	bdf0      	pop	{r4, r5, r6, r7, pc}
   21e66:	480e      	ldr	r0, [pc, #56]	@ (21ea0 <_ZN18complex_no_dynamic3app17h6dd5b5557d1c2946E+0xa4>)
   21e68:	2605      	movs	r6, #5
   21e6a:	4631      	mov	r1, r6
   21e6c:	462a      	mov	r2, r5
   21e6e:	462b      	mov	r3, r5
   21e70:	df03      	svc	3
   21e72:	480b      	ldr	r0, [pc, #44]	@ (21ea0 <_ZN18complex_no_dynamic3app17h6dd5b5557d1c2946E+0xa4>)
   21e74:	4631      	mov	r1, r6
   21e76:	462a      	mov	r2, r5
   21e78:	462b      	mov	r3, r5
   21e7a:	df03      	svc	3
   21e7c:	1c60      	adds	r0, r4, #1
   21e7e:	a90e      	add	r1, sp, #56	@ 0x38
   21e80:	2241      	movs	r2, #65	@ 0x41
   21e82:	f005 f81c 	bl	26ebe <__aeabi_memcpy>
   21e86:	7025      	strb	r5, [r4, #0]
   21e88:	4c05      	ldr	r4, [pc, #20]	@ (21ea0 <_ZN18complex_no_dynamic3app17h6dd5b5557d1c2946E+0xa4>)
   21e8a:	4620      	mov	r0, r4
   21e8c:	4631      	mov	r1, r6
   21e8e:	462a      	mov	r2, r5
   21e90:	462b      	mov	r3, r5
   21e92:	df03      	svc	3
   21e94:	2107      	movs	r1, #7
   21e96:	4620      	mov	r0, r4
   21e98:	462a      	mov	r2, r5
   21e9a:	462b      	mov	r3, r5
   21e9c:	df04      	svc	4
   21e9e:	e7e0      	b.n	21e62 <_ZN18complex_no_dynamic3app17h6dd5b5557d1c2946E+0x66>
   21ea0:	0000091d 	.word	0x0000091d

00021ea4 <_ZN18complex_no_dynamic3app17h6ee4452475e96e82E>:
   21ea4:	b5f0      	push	{r4, r5, r6, r7, lr}
   21ea6:	af03      	add	r7, sp, #12
   21ea8:	b0a5      	sub	sp, #148	@ 0x94
   21eaa:	4604      	mov	r4, r0
   21eac:	ad01      	add	r5, sp, #4
   21eae:	262a      	movs	r6, #42	@ 0x2a
   21eb0:	4628      	mov	r0, r5
   21eb2:	4632      	mov	r2, r6
   21eb4:	f005 f803 	bl	26ebe <__aeabi_memcpy>
   21eb8:	a80c      	add	r0, sp, #48	@ 0x30
   21eba:	2163      	movs	r1, #99	@ 0x63
   21ebc:	f004 fe52 	bl	26b64 <__aeabi_memclr4>
   21ec0:	4821      	ldr	r0, [pc, #132]	@ (21f48 <_ZN18complex_no_dynamic3app17h6ee4452475e96e82E+0xa4>)
   21ec2:	2104      	movs	r1, #4
   21ec4:	462a      	mov	r2, r5
   21ec6:	4633      	mov	r3, r6
   21ec8:	df04      	svc	4
   21eca:	2802      	cmp	r0, #2
   21ecc:	d00e      	beq.n	21eec <_ZN18complex_no_dynamic3app17h6ee4452475e96e82E+0x48>
   21ece:	481e      	ldr	r0, [pc, #120]	@ (21f48 <_ZN18complex_no_dynamic3app17h6ee4452475e96e82E+0xa4>)
   21ed0:	2100      	movs	r1, #0
   21ed2:	aa0c      	add	r2, sp, #48	@ 0x30
   21ed4:	2363      	movs	r3, #99	@ 0x63
   21ed6:	df03      	svc	3
   21ed8:	2802      	cmp	r0, #2
   21eda:	d007      	beq.n	21eec <_ZN18complex_no_dynamic3app17h6ee4452475e96e82E+0x48>
   21edc:	481a      	ldr	r0, [pc, #104]	@ (21f48 <_ZN18complex_no_dynamic3app17h6ee4452475e96e82E+0xa4>)
   21ede:	2104      	movs	r1, #4
   21ee0:	2500      	movs	r5, #0
   21ee2:	462a      	mov	r2, r5
   21ee4:	462b      	mov	r3, r5
   21ee6:	df02      	svc	2
   21ee8:	287f      	cmp	r0, #127	@ 0x7f
   21eea:	d810      	bhi.n	21f0e <_ZN18complex_no_dynamic3app17h6ee4452475e96e82E+0x6a>
   21eec:	2001      	movs	r0, #1
   21eee:	7020      	strb	r0, [r4, #0]
   21ef0:	6061      	str	r1, [r4, #4]
   21ef2:	4c15      	ldr	r4, [pc, #84]	@ (21f48 <_ZN18complex_no_dynamic3app17h6ee4452475e96e82E+0xa4>)
   21ef4:	2500      	movs	r5, #0
   21ef6:	4620      	mov	r0, r4
   21ef8:	4629      	mov	r1, r5
   21efa:	462a      	mov	r2, r5
   21efc:	462b      	mov	r3, r5
   21efe:	df03      	svc	3
   21f00:	2104      	movs	r1, #4
   21f02:	4620      	mov	r0, r4
   21f04:	462a      	mov	r2, r5
   21f06:	462b      	mov	r3, r5
   21f08:	df04      	svc	4
   21f0a:	b025      	add	sp, #148	@ 0x94
   21f0c:	bdf0      	pop	{r4, r5, r6, r7, pc}
   21f0e:	4e0e      	ldr	r6, [pc, #56]	@ (21f48 <_ZN18complex_no_dynamic3app17h6ee4452475e96e82E+0xa4>)
   21f10:	4630      	mov	r0, r6
   21f12:	4629      	mov	r1, r5
   21f14:	462a      	mov	r2, r5
   21f16:	462b      	mov	r3, r5
   21f18:	df03      	svc	3
   21f1a:	4630      	mov	r0, r6
   21f1c:	4629      	mov	r1, r5
   21f1e:	462a      	mov	r2, r5
   21f20:	462b      	mov	r3, r5
   21f22:	df03      	svc	3
   21f24:	1c60      	adds	r0, r4, #1
   21f26:	a90c      	add	r1, sp, #48	@ 0x30
   21f28:	2263      	movs	r2, #99	@ 0x63
   21f2a:	f004 ffc8 	bl	26ebe <__aeabi_memcpy>
   21f2e:	7025      	strb	r5, [r4, #0]
   21f30:	4630      	mov	r0, r6
   21f32:	4629      	mov	r1, r5
   21f34:	462a      	mov	r2, r5
   21f36:	462b      	mov	r3, r5
   21f38:	df03      	svc	3
   21f3a:	2104      	movs	r1, #4
   21f3c:	4630      	mov	r0, r6
   21f3e:	462a      	mov	r2, r5
   21f40:	462b      	mov	r3, r5
   21f42:	df04      	svc	4
   21f44:	e7e1      	b.n	21f0a <_ZN18complex_no_dynamic3app17h6ee4452475e96e82E+0x66>
   21f46:	46c0      	nop			@ (mov r8, r8)
   21f48:	00001c7c 	.word	0x00001c7c

00021f4c <_ZN18complex_no_dynamic3app17h6f55e4183aabf041E>:
   21f4c:	b5f0      	push	{r4, r5, r6, r7, lr}
   21f4e:	af03      	add	r7, sp, #12
   21f50:	b093      	sub	sp, #76	@ 0x4c
   21f52:	4604      	mov	r4, r0
   21f54:	ad01      	add	r5, sp, #4
   21f56:	2629      	movs	r6, #41	@ 0x29
   21f58:	4628      	mov	r0, r5
   21f5a:	4632      	mov	r2, r6
   21f5c:	f004 ffaf 	bl	26ebe <__aeabi_memcpy>
   21f60:	a80c      	add	r0, sp, #48	@ 0x30
   21f62:	211a      	movs	r1, #26
   21f64:	f004 fdfe 	bl	26b64 <__aeabi_memclr4>
   21f68:	4821      	ldr	r0, [pc, #132]	@ (21ff0 <_ZN18complex_no_dynamic3app17h6f55e4183aabf041E+0xa4>)
   21f6a:	2105      	movs	r1, #5
   21f6c:	462a      	mov	r2, r5
   21f6e:	4633      	mov	r3, r6
   21f70:	df04      	svc	4
   21f72:	2802      	cmp	r0, #2
   21f74:	d00e      	beq.n	21f94 <_ZN18complex_no_dynamic3app17h6f55e4183aabf041E+0x48>
   21f76:	481e      	ldr	r0, [pc, #120]	@ (21ff0 <_ZN18complex_no_dynamic3app17h6f55e4183aabf041E+0xa4>)
   21f78:	2103      	movs	r1, #3
   21f7a:	aa0c      	add	r2, sp, #48	@ 0x30
   21f7c:	231a      	movs	r3, #26
   21f7e:	df03      	svc	3
   21f80:	2802      	cmp	r0, #2
   21f82:	d007      	beq.n	21f94 <_ZN18complex_no_dynamic3app17h6f55e4183aabf041E+0x48>
   21f84:	481a      	ldr	r0, [pc, #104]	@ (21ff0 <_ZN18complex_no_dynamic3app17h6f55e4183aabf041E+0xa4>)
   21f86:	2105      	movs	r1, #5
   21f88:	2203      	movs	r2, #3
   21f8a:	2500      	movs	r5, #0
   21f8c:	462b      	mov	r3, r5
   21f8e:	df02      	svc	2
   21f90:	287f      	cmp	r0, #127	@ 0x7f
   21f92:	d810      	bhi.n	21fb6 <_ZN18complex_no_dynamic3app17h6f55e4183aabf041E+0x6a>
   21f94:	2001      	movs	r0, #1
   21f96:	7020      	strb	r0, [r4, #0]
   21f98:	6061      	str	r1, [r4, #4]
   21f9a:	4c15      	ldr	r4, [pc, #84]	@ (21ff0 <_ZN18complex_no_dynamic3app17h6f55e4183aabf041E+0xa4>)
   21f9c:	2103      	movs	r1, #3
   21f9e:	2500      	movs	r5, #0
   21fa0:	4620      	mov	r0, r4
   21fa2:	462a      	mov	r2, r5
   21fa4:	462b      	mov	r3, r5
   21fa6:	df03      	svc	3
   21fa8:	2105      	movs	r1, #5
   21faa:	4620      	mov	r0, r4
   21fac:	462a      	mov	r2, r5
   21fae:	462b      	mov	r3, r5
   21fb0:	df04      	svc	4
   21fb2:	b013      	add	sp, #76	@ 0x4c
   21fb4:	bdf0      	pop	{r4, r5, r6, r7, pc}
   21fb6:	480e      	ldr	r0, [pc, #56]	@ (21ff0 <_ZN18complex_no_dynamic3app17h6f55e4183aabf041E+0xa4>)
   21fb8:	2603      	movs	r6, #3
   21fba:	4631      	mov	r1, r6
   21fbc:	462a      	mov	r2, r5
   21fbe:	462b      	mov	r3, r5
   21fc0:	df03      	svc	3
   21fc2:	480b      	ldr	r0, [pc, #44]	@ (21ff0 <_ZN18complex_no_dynamic3app17h6f55e4183aabf041E+0xa4>)
   21fc4:	4631      	mov	r1, r6
   21fc6:	462a      	mov	r2, r5
   21fc8:	462b      	mov	r3, r5
   21fca:	df03      	svc	3
   21fcc:	1c60      	adds	r0, r4, #1
   21fce:	a90c      	add	r1, sp, #48	@ 0x30
   21fd0:	221a      	movs	r2, #26
   21fd2:	f004 ff74 	bl	26ebe <__aeabi_memcpy>
   21fd6:	7025      	strb	r5, [r4, #0]
   21fd8:	4c05      	ldr	r4, [pc, #20]	@ (21ff0 <_ZN18complex_no_dynamic3app17h6f55e4183aabf041E+0xa4>)
   21fda:	4620      	mov	r0, r4
   21fdc:	4631      	mov	r1, r6
   21fde:	462a      	mov	r2, r5
   21fe0:	462b      	mov	r3, r5
   21fe2:	df03      	svc	3
   21fe4:	2105      	movs	r1, #5
   21fe6:	4620      	mov	r0, r4
   21fe8:	462a      	mov	r2, r5
   21fea:	462b      	mov	r3, r5
   21fec:	df04      	svc	4
   21fee:	e7e0      	b.n	21fb2 <_ZN18complex_no_dynamic3app17h6f55e4183aabf041E+0x66>
   21ff0:	00002048 	.word	0x00002048

00021ff4 <_ZN18complex_no_dynamic3app17h70fc51395c2d1df2E>:
   21ff4:	b5f0      	push	{r4, r5, r6, r7, lr}
   21ff6:	af03      	add	r7, sp, #12
   21ff8:	b0a9      	sub	sp, #164	@ 0xa4
   21ffa:	4604      	mov	r4, r0
   21ffc:	466d      	mov	r5, sp
   21ffe:	2656      	movs	r6, #86	@ 0x56
   22000:	4628      	mov	r0, r5
   22002:	4632      	mov	r2, r6
   22004:	f004 ff5b 	bl	26ebe <__aeabi_memcpy>
   22008:	a816      	add	r0, sp, #88	@ 0x58
   2200a:	2149      	movs	r1, #73	@ 0x49
   2200c:	f004 fdaa 	bl	26b64 <__aeabi_memclr4>
   22010:	4822      	ldr	r0, [pc, #136]	@ (2209c <_ZN18complex_no_dynamic3app17h70fc51395c2d1df2E+0xa8>)
   22012:	2106      	movs	r1, #6
   22014:	462a      	mov	r2, r5
   22016:	4633      	mov	r3, r6
   22018:	df04      	svc	4
   2201a:	2802      	cmp	r0, #2
   2201c:	d00e      	beq.n	2203c <_ZN18complex_no_dynamic3app17h70fc51395c2d1df2E+0x48>
   2201e:	481f      	ldr	r0, [pc, #124]	@ (2209c <_ZN18complex_no_dynamic3app17h70fc51395c2d1df2E+0xa8>)
   22020:	2106      	movs	r1, #6
   22022:	aa16      	add	r2, sp, #88	@ 0x58
   22024:	2349      	movs	r3, #73	@ 0x49
   22026:	df03      	svc	3
   22028:	2802      	cmp	r0, #2
   2202a:	d007      	beq.n	2203c <_ZN18complex_no_dynamic3app17h70fc51395c2d1df2E+0x48>
   2202c:	481b      	ldr	r0, [pc, #108]	@ (2209c <_ZN18complex_no_dynamic3app17h70fc51395c2d1df2E+0xa8>)
   2202e:	2106      	movs	r1, #6
   22030:	2500      	movs	r5, #0
   22032:	460a      	mov	r2, r1
   22034:	462b      	mov	r3, r5
   22036:	df02      	svc	2
   22038:	287f      	cmp	r0, #127	@ 0x7f
   2203a:	d811      	bhi.n	22060 <_ZN18complex_no_dynamic3app17h70fc51395c2d1df2E+0x6c>
   2203c:	2001      	movs	r0, #1
   2203e:	7020      	strb	r0, [r4, #0]
   22040:	6061      	str	r1, [r4, #4]
   22042:	4c16      	ldr	r4, [pc, #88]	@ (2209c <_ZN18complex_no_dynamic3app17h70fc51395c2d1df2E+0xa8>)
   22044:	2506      	movs	r5, #6
   22046:	2600      	movs	r6, #0
   22048:	4620      	mov	r0, r4
   2204a:	4629      	mov	r1, r5
   2204c:	4632      	mov	r2, r6
   2204e:	4633      	mov	r3, r6
   22050:	df03      	svc	3
   22052:	4620      	mov	r0, r4
   22054:	4629      	mov	r1, r5
   22056:	4632      	mov	r2, r6
   22058:	4633      	mov	r3, r6
   2205a:	df04      	svc	4
   2205c:	b029      	add	sp, #164	@ 0xa4
   2205e:	bdf0      	pop	{r4, r5, r6, r7, pc}
   22060:	480e      	ldr	r0, [pc, #56]	@ (2209c <_ZN18complex_no_dynamic3app17h70fc51395c2d1df2E+0xa8>)
   22062:	2606      	movs	r6, #6
   22064:	4631      	mov	r1, r6
   22066:	462a      	mov	r2, r5
   22068:	462b      	mov	r3, r5
   2206a:	df03      	svc	3
   2206c:	480b      	ldr	r0, [pc, #44]	@ (2209c <_ZN18complex_no_dynamic3app17h70fc51395c2d1df2E+0xa8>)
   2206e:	4631      	mov	r1, r6
   22070:	462a      	mov	r2, r5
   22072:	462b      	mov	r3, r5
   22074:	df03      	svc	3
   22076:	1c60      	adds	r0, r4, #1
   22078:	a916      	add	r1, sp, #88	@ 0x58
   2207a:	2249      	movs	r2, #73	@ 0x49
   2207c:	f004 ff1f 	bl	26ebe <__aeabi_memcpy>
   22080:	7025      	strb	r5, [r4, #0]
   22082:	4c06      	ldr	r4, [pc, #24]	@ (2209c <_ZN18complex_no_dynamic3app17h70fc51395c2d1df2E+0xa8>)
   22084:	4620      	mov	r0, r4
   22086:	4631      	mov	r1, r6
   22088:	462a      	mov	r2, r5
   2208a:	462b      	mov	r3, r5
   2208c:	df03      	svc	3
   2208e:	4620      	mov	r0, r4
   22090:	4631      	mov	r1, r6
   22092:	462a      	mov	r2, r5
   22094:	462b      	mov	r3, r5
   22096:	df04      	svc	4
   22098:	e7e0      	b.n	2205c <_ZN18complex_no_dynamic3app17h70fc51395c2d1df2E+0x68>
   2209a:	46c0      	nop			@ (mov r8, r8)
   2209c:	00001c6b 	.word	0x00001c6b

000220a0 <_ZN18complex_no_dynamic3app17h72a1d5a63d938a30E>:
   220a0:	b5f0      	push	{r4, r5, r6, r7, lr}
   220a2:	af03      	add	r7, sp, #12
   220a4:	b091      	sub	sp, #68	@ 0x44
   220a6:	4604      	mov	r4, r0
   220a8:	466d      	mov	r5, sp
   220aa:	261e      	movs	r6, #30
   220ac:	4628      	mov	r0, r5
   220ae:	4632      	mov	r2, r6
   220b0:	f004 ff05 	bl	26ebe <__aeabi_memcpy>
   220b4:	a808      	add	r0, sp, #32
   220b6:	2121      	movs	r1, #33	@ 0x21
   220b8:	f004 fd54 	bl	26b64 <__aeabi_memclr4>
   220bc:	4821      	ldr	r0, [pc, #132]	@ (22144 <_ZN18complex_no_dynamic3app17h72a1d5a63d938a30E+0xa4>)
   220be:	2106      	movs	r1, #6
   220c0:	462a      	mov	r2, r5
   220c2:	4633      	mov	r3, r6
   220c4:	df04      	svc	4
   220c6:	2802      	cmp	r0, #2
   220c8:	d00e      	beq.n	220e8 <_ZN18complex_no_dynamic3app17h72a1d5a63d938a30E+0x48>
   220ca:	481e      	ldr	r0, [pc, #120]	@ (22144 <_ZN18complex_no_dynamic3app17h72a1d5a63d938a30E+0xa4>)
   220cc:	2109      	movs	r1, #9
   220ce:	aa08      	add	r2, sp, #32
   220d0:	2321      	movs	r3, #33	@ 0x21
   220d2:	df03      	svc	3
   220d4:	2802      	cmp	r0, #2
   220d6:	d007      	beq.n	220e8 <_ZN18complex_no_dynamic3app17h72a1d5a63d938a30E+0x48>
   220d8:	481a      	ldr	r0, [pc, #104]	@ (22144 <_ZN18complex_no_dynamic3app17h72a1d5a63d938a30E+0xa4>)
   220da:	2106      	movs	r1, #6
   220dc:	2209      	movs	r2, #9
   220de:	2500      	movs	r5, #0
   220e0:	462b      	mov	r3, r5
   220e2:	df02      	svc	2
   220e4:	287f      	cmp	r0, #127	@ 0x7f
   220e6:	d810      	bhi.n	2210a <_ZN18complex_no_dynamic3app17h72a1d5a63d938a30E+0x6a>
   220e8:	2001      	movs	r0, #1
   220ea:	7020      	strb	r0, [r4, #0]
   220ec:	6061      	str	r1, [r4, #4]
   220ee:	4c15      	ldr	r4, [pc, #84]	@ (22144 <_ZN18complex_no_dynamic3app17h72a1d5a63d938a30E+0xa4>)
   220f0:	2109      	movs	r1, #9
   220f2:	2500      	movs	r5, #0
   220f4:	4620      	mov	r0, r4
   220f6:	462a      	mov	r2, r5
   220f8:	462b      	mov	r3, r5
   220fa:	df03      	svc	3
   220fc:	2106      	movs	r1, #6
   220fe:	4620      	mov	r0, r4
   22100:	462a      	mov	r2, r5
   22102:	462b      	mov	r3, r5
   22104:	df04      	svc	4
   22106:	b011      	add	sp, #68	@ 0x44
   22108:	bdf0      	pop	{r4, r5, r6, r7, pc}
   2210a:	480e      	ldr	r0, [pc, #56]	@ (22144 <_ZN18complex_no_dynamic3app17h72a1d5a63d938a30E+0xa4>)
   2210c:	2609      	movs	r6, #9
   2210e:	4631      	mov	r1, r6
   22110:	462a      	mov	r2, r5
   22112:	462b      	mov	r3, r5
   22114:	df03      	svc	3
   22116:	480b      	ldr	r0, [pc, #44]	@ (22144 <_ZN18complex_no_dynamic3app17h72a1d5a63d938a30E+0xa4>)
   22118:	4631      	mov	r1, r6
   2211a:	462a      	mov	r2, r5
   2211c:	462b      	mov	r3, r5
   2211e:	df03      	svc	3
   22120:	1c60      	adds	r0, r4, #1
   22122:	a908      	add	r1, sp, #32
   22124:	2221      	movs	r2, #33	@ 0x21
   22126:	f004 feca 	bl	26ebe <__aeabi_memcpy>
   2212a:	7025      	strb	r5, [r4, #0]
   2212c:	4c05      	ldr	r4, [pc, #20]	@ (22144 <_ZN18complex_no_dynamic3app17h72a1d5a63d938a30E+0xa4>)
   2212e:	4620      	mov	r0, r4
   22130:	4631      	mov	r1, r6
   22132:	462a      	mov	r2, r5
   22134:	462b      	mov	r3, r5
   22136:	df03      	svc	3
   22138:	2106      	movs	r1, #6
   2213a:	4620      	mov	r0, r4
   2213c:	462a      	mov	r2, r5
   2213e:	462b      	mov	r3, r5
   22140:	df04      	svc	4
   22142:	e7e0      	b.n	22106 <_ZN18complex_no_dynamic3app17h72a1d5a63d938a30E+0x66>
   22144:	000019b5 	.word	0x000019b5

00022148 <_ZN18complex_no_dynamic3app17h7425e9f4eeba4927E>:
   22148:	b5f0      	push	{r4, r5, r6, r7, lr}
   2214a:	af03      	add	r7, sp, #12
   2214c:	b09b      	sub	sp, #108	@ 0x6c
   2214e:	4604      	mov	r4, r0
   22150:	466d      	mov	r5, sp
   22152:	2613      	movs	r6, #19
   22154:	4628      	mov	r0, r5
   22156:	4632      	mov	r2, r6
   22158:	f004 feb1 	bl	26ebe <__aeabi_memcpy>
   2215c:	a805      	add	r0, sp, #20
   2215e:	2155      	movs	r1, #85	@ 0x55
   22160:	f004 fd00 	bl	26b64 <__aeabi_memclr4>
   22164:	4821      	ldr	r0, [pc, #132]	@ (221ec <_ZN18complex_no_dynamic3app17h7425e9f4eeba4927E+0xa4>)
   22166:	2109      	movs	r1, #9
   22168:	462a      	mov	r2, r5
   2216a:	4633      	mov	r3, r6
   2216c:	df04      	svc	4
   2216e:	2802      	cmp	r0, #2
   22170:	d00e      	beq.n	22190 <_ZN18complex_no_dynamic3app17h7425e9f4eeba4927E+0x48>
   22172:	481e      	ldr	r0, [pc, #120]	@ (221ec <_ZN18complex_no_dynamic3app17h7425e9f4eeba4927E+0xa4>)
   22174:	2107      	movs	r1, #7
   22176:	aa05      	add	r2, sp, #20
   22178:	2355      	movs	r3, #85	@ 0x55
   2217a:	df03      	svc	3
   2217c:	2802      	cmp	r0, #2
   2217e:	d007      	beq.n	22190 <_ZN18complex_no_dynamic3app17h7425e9f4eeba4927E+0x48>
   22180:	481a      	ldr	r0, [pc, #104]	@ (221ec <_ZN18complex_no_dynamic3app17h7425e9f4eeba4927E+0xa4>)
   22182:	2109      	movs	r1, #9
   22184:	2207      	movs	r2, #7
   22186:	2500      	movs	r5, #0
   22188:	462b      	mov	r3, r5
   2218a:	df02      	svc	2
   2218c:	287f      	cmp	r0, #127	@ 0x7f
   2218e:	d810      	bhi.n	221b2 <_ZN18complex_no_dynamic3app17h7425e9f4eeba4927E+0x6a>
   22190:	2001      	movs	r0, #1
   22192:	7020      	strb	r0, [r4, #0]
   22194:	6061      	str	r1, [r4, #4]
   22196:	4c15      	ldr	r4, [pc, #84]	@ (221ec <_ZN18complex_no_dynamic3app17h7425e9f4eeba4927E+0xa4>)
   22198:	2107      	movs	r1, #7
   2219a:	2500      	movs	r5, #0
   2219c:	4620      	mov	r0, r4
   2219e:	462a      	mov	r2, r5
   221a0:	462b      	mov	r3, r5
   221a2:	df03      	svc	3
   221a4:	2109      	movs	r1, #9
   221a6:	4620      	mov	r0, r4
   221a8:	462a      	mov	r2, r5
   221aa:	462b      	mov	r3, r5
   221ac:	df04      	svc	4
   221ae:	b01b      	add	sp, #108	@ 0x6c
   221b0:	bdf0      	pop	{r4, r5, r6, r7, pc}
   221b2:	480e      	ldr	r0, [pc, #56]	@ (221ec <_ZN18complex_no_dynamic3app17h7425e9f4eeba4927E+0xa4>)
   221b4:	2607      	movs	r6, #7
   221b6:	4631      	mov	r1, r6
   221b8:	462a      	mov	r2, r5
   221ba:	462b      	mov	r3, r5
   221bc:	df03      	svc	3
   221be:	480b      	ldr	r0, [pc, #44]	@ (221ec <_ZN18complex_no_dynamic3app17h7425e9f4eeba4927E+0xa4>)
   221c0:	4631      	mov	r1, r6
   221c2:	462a      	mov	r2, r5
   221c4:	462b      	mov	r3, r5
   221c6:	df03      	svc	3
   221c8:	1c60      	adds	r0, r4, #1
   221ca:	a905      	add	r1, sp, #20
   221cc:	2255      	movs	r2, #85	@ 0x55
   221ce:	f004 fe76 	bl	26ebe <__aeabi_memcpy>
   221d2:	7025      	strb	r5, [r4, #0]
   221d4:	4c05      	ldr	r4, [pc, #20]	@ (221ec <_ZN18complex_no_dynamic3app17h7425e9f4eeba4927E+0xa4>)
   221d6:	4620      	mov	r0, r4
   221d8:	4631      	mov	r1, r6
   221da:	462a      	mov	r2, r5
   221dc:	462b      	mov	r3, r5
   221de:	df03      	svc	3
   221e0:	2109      	movs	r1, #9
   221e2:	4620      	mov	r0, r4
   221e4:	462a      	mov	r2, r5
   221e6:	462b      	mov	r3, r5
   221e8:	df04      	svc	4
   221ea:	e7e0      	b.n	221ae <_ZN18complex_no_dynamic3app17h7425e9f4eeba4927E+0x66>
   221ec:	0000032e 	.word	0x0000032e

000221f0 <_ZN18complex_no_dynamic3app17h763bbbae09028696E>:
   221f0:	b5f0      	push	{r4, r5, r6, r7, lr}
   221f2:	af03      	add	r7, sp, #12
   221f4:	b099      	sub	sp, #100	@ 0x64
   221f6:	4604      	mov	r4, r0
   221f8:	466d      	mov	r5, sp
   221fa:	2634      	movs	r6, #52	@ 0x34
   221fc:	4628      	mov	r0, r5
   221fe:	4632      	mov	r2, r6
   22200:	f004 fe5d 	bl	26ebe <__aeabi_memcpy>
   22204:	a80d      	add	r0, sp, #52	@ 0x34
   22206:	212e      	movs	r1, #46	@ 0x2e
   22208:	f004 fcac 	bl	26b64 <__aeabi_memclr4>
   2220c:	4821      	ldr	r0, [pc, #132]	@ (22294 <_ZN18complex_no_dynamic3app17h763bbbae09028696E+0xa4>)
   2220e:	2102      	movs	r1, #2
   22210:	462a      	mov	r2, r5
   22212:	4633      	mov	r3, r6
   22214:	df04      	svc	4
   22216:	2802      	cmp	r0, #2
   22218:	d00e      	beq.n	22238 <_ZN18complex_no_dynamic3app17h763bbbae09028696E+0x48>
   2221a:	481e      	ldr	r0, [pc, #120]	@ (22294 <_ZN18complex_no_dynamic3app17h763bbbae09028696E+0xa4>)
   2221c:	2108      	movs	r1, #8
   2221e:	aa0d      	add	r2, sp, #52	@ 0x34
   22220:	232e      	movs	r3, #46	@ 0x2e
   22222:	df03      	svc	3
   22224:	2802      	cmp	r0, #2
   22226:	d007      	beq.n	22238 <_ZN18complex_no_dynamic3app17h763bbbae09028696E+0x48>
   22228:	481a      	ldr	r0, [pc, #104]	@ (22294 <_ZN18complex_no_dynamic3app17h763bbbae09028696E+0xa4>)
   2222a:	2102      	movs	r1, #2
   2222c:	2208      	movs	r2, #8
   2222e:	2500      	movs	r5, #0
   22230:	462b      	mov	r3, r5
   22232:	df02      	svc	2
   22234:	287f      	cmp	r0, #127	@ 0x7f
   22236:	d810      	bhi.n	2225a <_ZN18complex_no_dynamic3app17h763bbbae09028696E+0x6a>
   22238:	2001      	movs	r0, #1
   2223a:	7020      	strb	r0, [r4, #0]
   2223c:	6061      	str	r1, [r4, #4]
   2223e:	4c15      	ldr	r4, [pc, #84]	@ (22294 <_ZN18complex_no_dynamic3app17h763bbbae09028696E+0xa4>)
   22240:	2108      	movs	r1, #8
   22242:	2500      	movs	r5, #0
   22244:	4620      	mov	r0, r4
   22246:	462a      	mov	r2, r5
   22248:	462b      	mov	r3, r5
   2224a:	df03      	svc	3
   2224c:	2102      	movs	r1, #2
   2224e:	4620      	mov	r0, r4
   22250:	462a      	mov	r2, r5
   22252:	462b      	mov	r3, r5
   22254:	df04      	svc	4
   22256:	b019      	add	sp, #100	@ 0x64
   22258:	bdf0      	pop	{r4, r5, r6, r7, pc}
   2225a:	480e      	ldr	r0, [pc, #56]	@ (22294 <_ZN18complex_no_dynamic3app17h763bbbae09028696E+0xa4>)
   2225c:	2608      	movs	r6, #8
   2225e:	4631      	mov	r1, r6
   22260:	462a      	mov	r2, r5
   22262:	462b      	mov	r3, r5
   22264:	df03      	svc	3
   22266:	480b      	ldr	r0, [pc, #44]	@ (22294 <_ZN18complex_no_dynamic3app17h763bbbae09028696E+0xa4>)
   22268:	4631      	mov	r1, r6
   2226a:	462a      	mov	r2, r5
   2226c:	462b      	mov	r3, r5
   2226e:	df03      	svc	3
   22270:	1c60      	adds	r0, r4, #1
   22272:	a90d      	add	r1, sp, #52	@ 0x34
   22274:	222e      	movs	r2, #46	@ 0x2e
   22276:	f004 fe22 	bl	26ebe <__aeabi_memcpy>
   2227a:	7025      	strb	r5, [r4, #0]
   2227c:	4c05      	ldr	r4, [pc, #20]	@ (22294 <_ZN18complex_no_dynamic3app17h763bbbae09028696E+0xa4>)
   2227e:	4620      	mov	r0, r4
   22280:	4631      	mov	r1, r6
   22282:	462a      	mov	r2, r5
   22284:	462b      	mov	r3, r5
   22286:	df03      	svc	3
   22288:	2102      	movs	r1, #2
   2228a:	4620      	mov	r0, r4
   2228c:	462a      	mov	r2, r5
   2228e:	462b      	mov	r3, r5
   22290:	df04      	svc	4
   22292:	e7e0      	b.n	22256 <_ZN18complex_no_dynamic3app17h763bbbae09028696E+0x66>
   22294:	00000209 	.word	0x00000209

00022298 <_ZN18complex_no_dynamic3app17h7a28b9e72e0caff9E>:
   22298:	b5f0      	push	{r4, r5, r6, r7, lr}
   2229a:	af03      	add	r7, sp, #12
   2229c:	b09d      	sub	sp, #116	@ 0x74
   2229e:	9001      	str	r0, [sp, #4]
   222a0:	ae02      	add	r6, sp, #8
   222a2:	2450      	movs	r4, #80	@ 0x50
   222a4:	4630      	mov	r0, r6
   222a6:	4622      	mov	r2, r4
   222a8:	f004 fe09 	bl	26ebe <__aeabi_memcpy>
   222ac:	a816      	add	r0, sp, #88	@ 0x58
   222ae:	211b      	movs	r1, #27
   222b0:	f004 fc58 	bl	26b64 <__aeabi_memclr4>
   222b4:	4823      	ldr	r0, [pc, #140]	@ (22344 <_ZN18complex_no_dynamic3app17h7a28b9e72e0caff9E+0xac>)
   222b6:	2501      	movs	r5, #1
   222b8:	4629      	mov	r1, r5
   222ba:	4632      	mov	r2, r6
   222bc:	4623      	mov	r3, r4
   222be:	df04      	svc	4
   222c0:	2802      	cmp	r0, #2
   222c2:	d00e      	beq.n	222e2 <_ZN18complex_no_dynamic3app17h7a28b9e72e0caff9E+0x4a>
   222c4:	481f      	ldr	r0, [pc, #124]	@ (22344 <_ZN18complex_no_dynamic3app17h7a28b9e72e0caff9E+0xac>)
   222c6:	2102      	movs	r1, #2
   222c8:	aa16      	add	r2, sp, #88	@ 0x58
   222ca:	231b      	movs	r3, #27
   222cc:	df03      	svc	3
   222ce:	2802      	cmp	r0, #2
   222d0:	d007      	beq.n	222e2 <_ZN18complex_no_dynamic3app17h7a28b9e72e0caff9E+0x4a>
   222d2:	481c      	ldr	r0, [pc, #112]	@ (22344 <_ZN18complex_no_dynamic3app17h7a28b9e72e0caff9E+0xac>)
   222d4:	2101      	movs	r1, #1
   222d6:	2202      	movs	r2, #2
   222d8:	2600      	movs	r6, #0
   222da:	4633      	mov	r3, r6
   222dc:	df02      	svc	2
   222de:	287f      	cmp	r0, #127	@ 0x7f
   222e0:	d810      	bhi.n	22304 <_ZN18complex_no_dynamic3app17h7a28b9e72e0caff9E+0x6c>
   222e2:	9801      	ldr	r0, [sp, #4]
   222e4:	7005      	strb	r5, [r0, #0]
   222e6:	6041      	str	r1, [r0, #4]
   222e8:	4c16      	ldr	r4, [pc, #88]	@ (22344 <_ZN18complex_no_dynamic3app17h7a28b9e72e0caff9E+0xac>)
   222ea:	2102      	movs	r1, #2
   222ec:	2600      	movs	r6, #0
   222ee:	4620      	mov	r0, r4
   222f0:	4632      	mov	r2, r6
   222f2:	4633      	mov	r3, r6
   222f4:	df03      	svc	3
   222f6:	4620      	mov	r0, r4
   222f8:	4629      	mov	r1, r5
   222fa:	4632      	mov	r2, r6
   222fc:	4633      	mov	r3, r6
   222fe:	df04      	svc	4
   22300:	b01d      	add	sp, #116	@ 0x74
   22302:	bdf0      	pop	{r4, r5, r6, r7, pc}
   22304:	4c0f      	ldr	r4, [pc, #60]	@ (22344 <_ZN18complex_no_dynamic3app17h7a28b9e72e0caff9E+0xac>)
   22306:	2502      	movs	r5, #2
   22308:	4620      	mov	r0, r4
   2230a:	4629      	mov	r1, r5
   2230c:	4632      	mov	r2, r6
   2230e:	4633      	mov	r3, r6
   22310:	df03      	svc	3
   22312:	4620      	mov	r0, r4
   22314:	4629      	mov	r1, r5
   22316:	4632      	mov	r2, r6
   22318:	4633      	mov	r3, r6
   2231a:	df03      	svc	3
   2231c:	9c01      	ldr	r4, [sp, #4]
   2231e:	1c60      	adds	r0, r4, #1
   22320:	a916      	add	r1, sp, #88	@ 0x58
   22322:	221b      	movs	r2, #27
   22324:	f004 fdcb 	bl	26ebe <__aeabi_memcpy>
   22328:	7026      	strb	r6, [r4, #0]
   2232a:	4c06      	ldr	r4, [pc, #24]	@ (22344 <_ZN18complex_no_dynamic3app17h7a28b9e72e0caff9E+0xac>)
   2232c:	4620      	mov	r0, r4
   2232e:	4629      	mov	r1, r5
   22330:	4632      	mov	r2, r6
   22332:	4633      	mov	r3, r6
   22334:	df03      	svc	3
   22336:	2101      	movs	r1, #1
   22338:	4620      	mov	r0, r4
   2233a:	4632      	mov	r2, r6
   2233c:	4633      	mov	r3, r6
   2233e:	df04      	svc	4
   22340:	e7de      	b.n	22300 <_ZN18complex_no_dynamic3app17h7a28b9e72e0caff9E+0x68>
   22342:	46c0      	nop			@ (mov r8, r8)
   22344:	000003d9 	.word	0x000003d9

00022348 <_ZN18complex_no_dynamic3app17h7d08398fdc40289cE>:
   22348:	b5f0      	push	{r4, r5, r6, r7, lr}
   2234a:	af03      	add	r7, sp, #12
   2234c:	b08f      	sub	sp, #60	@ 0x3c
   2234e:	4604      	mov	r4, r0
   22350:	ad01      	add	r5, sp, #4
   22352:	261a      	movs	r6, #26
   22354:	4628      	mov	r0, r5
   22356:	4632      	mov	r2, r6
   22358:	f004 fdb1 	bl	26ebe <__aeabi_memcpy>
   2235c:	a808      	add	r0, sp, #32
   2235e:	211b      	movs	r1, #27
   22360:	f004 fc00 	bl	26b64 <__aeabi_memclr4>
   22364:	4821      	ldr	r0, [pc, #132]	@ (223ec <_ZN18complex_no_dynamic3app17h7d08398fdc40289cE+0xa4>)
   22366:	2105      	movs	r1, #5
   22368:	462a      	mov	r2, r5
   2236a:	4633      	mov	r3, r6
   2236c:	df04      	svc	4
   2236e:	2802      	cmp	r0, #2
   22370:	d00e      	beq.n	22390 <_ZN18complex_no_dynamic3app17h7d08398fdc40289cE+0x48>
   22372:	481e      	ldr	r0, [pc, #120]	@ (223ec <_ZN18complex_no_dynamic3app17h7d08398fdc40289cE+0xa4>)
   22374:	2102      	movs	r1, #2
   22376:	aa08      	add	r2, sp, #32
   22378:	231b      	movs	r3, #27
   2237a:	df03      	svc	3
   2237c:	2802      	cmp	r0, #2
   2237e:	d007      	beq.n	22390 <_ZN18complex_no_dynamic3app17h7d08398fdc40289cE+0x48>
   22380:	481a      	ldr	r0, [pc, #104]	@ (223ec <_ZN18complex_no_dynamic3app17h7d08398fdc40289cE+0xa4>)
   22382:	2105      	movs	r1, #5
   22384:	2202      	movs	r2, #2
   22386:	2500      	movs	r5, #0
   22388:	462b      	mov	r3, r5
   2238a:	df02      	svc	2
   2238c:	287f      	cmp	r0, #127	@ 0x7f
   2238e:	d810      	bhi.n	223b2 <_ZN18complex_no_dynamic3app17h7d08398fdc40289cE+0x6a>
   22390:	2001      	movs	r0, #1
   22392:	7020      	strb	r0, [r4, #0]
   22394:	6061      	str	r1, [r4, #4]
   22396:	4c15      	ldr	r4, [pc, #84]	@ (223ec <_ZN18complex_no_dynamic3app17h7d08398fdc40289cE+0xa4>)
   22398:	2102      	movs	r1, #2
   2239a:	2500      	movs	r5, #0
   2239c:	4620      	mov	r0, r4
   2239e:	462a      	mov	r2, r5
   223a0:	462b      	mov	r3, r5
   223a2:	df03      	svc	3
   223a4:	2105      	movs	r1, #5
   223a6:	4620      	mov	r0, r4
   223a8:	462a      	mov	r2, r5
   223aa:	462b      	mov	r3, r5
   223ac:	df04      	svc	4
   223ae:	b00f      	add	sp, #60	@ 0x3c
   223b0:	bdf0      	pop	{r4, r5, r6, r7, pc}
   223b2:	480e      	ldr	r0, [pc, #56]	@ (223ec <_ZN18complex_no_dynamic3app17h7d08398fdc40289cE+0xa4>)
   223b4:	2602      	movs	r6, #2
   223b6:	4631      	mov	r1, r6
   223b8:	462a      	mov	r2, r5
   223ba:	462b      	mov	r3, r5
   223bc:	df03      	svc	3
   223be:	480b      	ldr	r0, [pc, #44]	@ (223ec <_ZN18complex_no_dynamic3app17h7d08398fdc40289cE+0xa4>)
   223c0:	4631      	mov	r1, r6
   223c2:	462a      	mov	r2, r5
   223c4:	462b      	mov	r3, r5
   223c6:	df03      	svc	3
   223c8:	1c60      	adds	r0, r4, #1
   223ca:	a908      	add	r1, sp, #32
   223cc:	221b      	movs	r2, #27
   223ce:	f004 fd76 	bl	26ebe <__aeabi_memcpy>
   223d2:	7025      	strb	r5, [r4, #0]
   223d4:	4c05      	ldr	r4, [pc, #20]	@ (223ec <_ZN18complex_no_dynamic3app17h7d08398fdc40289cE+0xa4>)
   223d6:	4620      	mov	r0, r4
   223d8:	4631      	mov	r1, r6
   223da:	462a      	mov	r2, r5
   223dc:	462b      	mov	r3, r5
   223de:	df03      	svc	3
   223e0:	2105      	movs	r1, #5
   223e2:	4620      	mov	r0, r4
   223e4:	462a      	mov	r2, r5
   223e6:	462b      	mov	r3, r5
   223e8:	df04      	svc	4
   223ea:	e7e0      	b.n	223ae <_ZN18complex_no_dynamic3app17h7d08398fdc40289cE+0x66>
   223ec:	00001cce 	.word	0x00001cce

000223f0 <_ZN18complex_no_dynamic3app17h800deb7d79e5aa0fE>:
   223f0:	b5f0      	push	{r4, r5, r6, r7, lr}
   223f2:	af03      	add	r7, sp, #12
   223f4:	b0af      	sub	sp, #188	@ 0xbc
   223f6:	4604      	mov	r4, r0
   223f8:	ad01      	add	r5, sp, #4
   223fa:	265e      	movs	r6, #94	@ 0x5e
   223fc:	4628      	mov	r0, r5
   223fe:	4632      	mov	r2, r6
   22400:	f004 fd5d 	bl	26ebe <__aeabi_memcpy>
   22404:	a819      	add	r0, sp, #100	@ 0x64
   22406:	2155      	movs	r1, #85	@ 0x55
   22408:	f004 fbac 	bl	26b64 <__aeabi_memclr4>
   2240c:	4821      	ldr	r0, [pc, #132]	@ (22494 <_ZN18complex_no_dynamic3app17h800deb7d79e5aa0fE+0xa4>)
   2240e:	2107      	movs	r1, #7
   22410:	462a      	mov	r2, r5
   22412:	4633      	mov	r3, r6
   22414:	df04      	svc	4
   22416:	2802      	cmp	r0, #2
   22418:	d00e      	beq.n	22438 <_ZN18complex_no_dynamic3app17h800deb7d79e5aa0fE+0x48>
   2241a:	481e      	ldr	r0, [pc, #120]	@ (22494 <_ZN18complex_no_dynamic3app17h800deb7d79e5aa0fE+0xa4>)
   2241c:	2103      	movs	r1, #3
   2241e:	aa19      	add	r2, sp, #100	@ 0x64
   22420:	2355      	movs	r3, #85	@ 0x55
   22422:	df03      	svc	3
   22424:	2802      	cmp	r0, #2
   22426:	d007      	beq.n	22438 <_ZN18complex_no_dynamic3app17h800deb7d79e5aa0fE+0x48>
   22428:	481a      	ldr	r0, [pc, #104]	@ (22494 <_ZN18complex_no_dynamic3app17h800deb7d79e5aa0fE+0xa4>)
   2242a:	2107      	movs	r1, #7
   2242c:	2203      	movs	r2, #3
   2242e:	2500      	movs	r5, #0
   22430:	462b      	mov	r3, r5
   22432:	df02      	svc	2
   22434:	287f      	cmp	r0, #127	@ 0x7f
   22436:	d810      	bhi.n	2245a <_ZN18complex_no_dynamic3app17h800deb7d79e5aa0fE+0x6a>
   22438:	2001      	movs	r0, #1
   2243a:	7020      	strb	r0, [r4, #0]
   2243c:	6061      	str	r1, [r4, #4]
   2243e:	4c15      	ldr	r4, [pc, #84]	@ (22494 <_ZN18complex_no_dynamic3app17h800deb7d79e5aa0fE+0xa4>)
   22440:	2103      	movs	r1, #3
   22442:	2500      	movs	r5, #0
   22444:	4620      	mov	r0, r4
   22446:	462a      	mov	r2, r5
   22448:	462b      	mov	r3, r5
   2244a:	df03      	svc	3
   2244c:	2107      	movs	r1, #7
   2244e:	4620      	mov	r0, r4
   22450:	462a      	mov	r2, r5
   22452:	462b      	mov	r3, r5
   22454:	df04      	svc	4
   22456:	b02f      	add	sp, #188	@ 0xbc
   22458:	bdf0      	pop	{r4, r5, r6, r7, pc}
   2245a:	480e      	ldr	r0, [pc, #56]	@ (22494 <_ZN18complex_no_dynamic3app17h800deb7d79e5aa0fE+0xa4>)
   2245c:	2603      	movs	r6, #3
   2245e:	4631      	mov	r1, r6
   22460:	462a      	mov	r2, r5
   22462:	462b      	mov	r3, r5
   22464:	df03      	svc	3
   22466:	480b      	ldr	r0, [pc, #44]	@ (22494 <_ZN18complex_no_dynamic3app17h800deb7d79e5aa0fE+0xa4>)
   22468:	4631      	mov	r1, r6
   2246a:	462a      	mov	r2, r5
   2246c:	462b      	mov	r3, r5
   2246e:	df03      	svc	3
   22470:	1c60      	adds	r0, r4, #1
   22472:	a919      	add	r1, sp, #100	@ 0x64
   22474:	2255      	movs	r2, #85	@ 0x55
   22476:	f004 fd22 	bl	26ebe <__aeabi_memcpy>
   2247a:	7025      	strb	r5, [r4, #0]
   2247c:	4c05      	ldr	r4, [pc, #20]	@ (22494 <_ZN18complex_no_dynamic3app17h800deb7d79e5aa0fE+0xa4>)
   2247e:	4620      	mov	r0, r4
   22480:	4631      	mov	r1, r6
   22482:	462a      	mov	r2, r5
   22484:	462b      	mov	r3, r5
   22486:	df03      	svc	3
   22488:	2107      	movs	r1, #7
   2248a:	4620      	mov	r0, r4
   2248c:	462a      	mov	r2, r5
   2248e:	462b      	mov	r3, r5
   22490:	df04      	svc	4
   22492:	e7e0      	b.n	22456 <_ZN18complex_no_dynamic3app17h800deb7d79e5aa0fE+0x66>
   22494:	0000178a 	.word	0x0000178a

00022498 <_ZN18complex_no_dynamic3app17h804efc53db188567E>:
   22498:	b5f0      	push	{r4, r5, r6, r7, lr}
   2249a:	af03      	add	r7, sp, #12
   2249c:	b093      	sub	sp, #76	@ 0x4c
   2249e:	4604      	mov	r4, r0
   224a0:	466d      	mov	r5, sp
   224a2:	261e      	movs	r6, #30
   224a4:	4628      	mov	r0, r5
   224a6:	4632      	mov	r2, r6
   224a8:	f004 fd09 	bl	26ebe <__aeabi_memcpy>
   224ac:	a808      	add	r0, sp, #32
   224ae:	212c      	movs	r1, #44	@ 0x2c
   224b0:	f004 fb58 	bl	26b64 <__aeabi_memclr4>
   224b4:	4821      	ldr	r0, [pc, #132]	@ (2253c <_ZN18complex_no_dynamic3app17h804efc53db188567E+0xa4>)
   224b6:	2107      	movs	r1, #7
   224b8:	462a      	mov	r2, r5
   224ba:	4633      	mov	r3, r6
   224bc:	df04      	svc	4
   224be:	2802      	cmp	r0, #2
   224c0:	d00e      	beq.n	224e0 <_ZN18complex_no_dynamic3app17h804efc53db188567E+0x48>
   224c2:	481e      	ldr	r0, [pc, #120]	@ (2253c <_ZN18complex_no_dynamic3app17h804efc53db188567E+0xa4>)
   224c4:	2100      	movs	r1, #0
   224c6:	aa08      	add	r2, sp, #32
   224c8:	232c      	movs	r3, #44	@ 0x2c
   224ca:	df03      	svc	3
   224cc:	2802      	cmp	r0, #2
   224ce:	d007      	beq.n	224e0 <_ZN18complex_no_dynamic3app17h804efc53db188567E+0x48>
   224d0:	481a      	ldr	r0, [pc, #104]	@ (2253c <_ZN18complex_no_dynamic3app17h804efc53db188567E+0xa4>)
   224d2:	2107      	movs	r1, #7
   224d4:	2500      	movs	r5, #0
   224d6:	462a      	mov	r2, r5
   224d8:	462b      	mov	r3, r5
   224da:	df02      	svc	2
   224dc:	287f      	cmp	r0, #127	@ 0x7f
   224de:	d810      	bhi.n	22502 <_ZN18complex_no_dynamic3app17h804efc53db188567E+0x6a>
   224e0:	2001      	movs	r0, #1
   224e2:	7020      	strb	r0, [r4, #0]
   224e4:	6061      	str	r1, [r4, #4]
   224e6:	4c15      	ldr	r4, [pc, #84]	@ (2253c <_ZN18complex_no_dynamic3app17h804efc53db188567E+0xa4>)
   224e8:	2500      	movs	r5, #0
   224ea:	4620      	mov	r0, r4
   224ec:	4629      	mov	r1, r5
   224ee:	462a      	mov	r2, r5
   224f0:	462b      	mov	r3, r5
   224f2:	df03      	svc	3
   224f4:	2107      	movs	r1, #7
   224f6:	4620      	mov	r0, r4
   224f8:	462a      	mov	r2, r5
   224fa:	462b      	mov	r3, r5
   224fc:	df04      	svc	4
   224fe:	b013      	add	sp, #76	@ 0x4c
   22500:	bdf0      	pop	{r4, r5, r6, r7, pc}
   22502:	4e0e      	ldr	r6, [pc, #56]	@ (2253c <_ZN18complex_no_dynamic3app17h804efc53db188567E+0xa4>)
   22504:	4630      	mov	r0, r6
   22506:	4629      	mov	r1, r5
   22508:	462a      	mov	r2, r5
   2250a:	462b      	mov	r3, r5
   2250c:	df03      	svc	3
   2250e:	4630      	mov	r0, r6
   22510:	4629      	mov	r1, r5
   22512:	462a      	mov	r2, r5
   22514:	462b      	mov	r3, r5
   22516:	df03      	svc	3
   22518:	1c60      	adds	r0, r4, #1
   2251a:	a908      	add	r1, sp, #32
   2251c:	222c      	movs	r2, #44	@ 0x2c
   2251e:	f004 fcce 	bl	26ebe <__aeabi_memcpy>
   22522:	7025      	strb	r5, [r4, #0]
   22524:	4630      	mov	r0, r6
   22526:	4629      	mov	r1, r5
   22528:	462a      	mov	r2, r5
   2252a:	462b      	mov	r3, r5
   2252c:	df03      	svc	3
   2252e:	2107      	movs	r1, #7
   22530:	4630      	mov	r0, r6
   22532:	462a      	mov	r2, r5
   22534:	462b      	mov	r3, r5
   22536:	df04      	svc	4
   22538:	e7e1      	b.n	224fe <_ZN18complex_no_dynamic3app17h804efc53db188567E+0x66>
   2253a:	46c0      	nop			@ (mov r8, r8)
   2253c:	000003fb 	.word	0x000003fb

00022540 <_ZN18complex_no_dynamic3app17h822bc9fc04957869E>:
   22540:	b5f0      	push	{r4, r5, r6, r7, lr}
   22542:	af03      	add	r7, sp, #12
   22544:	b09b      	sub	sp, #108	@ 0x6c
   22546:	4604      	mov	r4, r0
   22548:	466d      	mov	r5, sp
   2254a:	2636      	movs	r6, #54	@ 0x36
   2254c:	4628      	mov	r0, r5
   2254e:	4632      	mov	r2, r6
   22550:	f004 fcb5 	bl	26ebe <__aeabi_memcpy>
   22554:	a80e      	add	r0, sp, #56	@ 0x38
   22556:	2134      	movs	r1, #52	@ 0x34
   22558:	f004 fb04 	bl	26b64 <__aeabi_memclr4>
   2255c:	4821      	ldr	r0, [pc, #132]	@ (225e4 <_ZN18complex_no_dynamic3app17h822bc9fc04957869E+0xa4>)
   2255e:	2104      	movs	r1, #4
   22560:	462a      	mov	r2, r5
   22562:	4633      	mov	r3, r6
   22564:	df04      	svc	4
   22566:	2802      	cmp	r0, #2
   22568:	d00e      	beq.n	22588 <_ZN18complex_no_dynamic3app17h822bc9fc04957869E+0x48>
   2256a:	481e      	ldr	r0, [pc, #120]	@ (225e4 <_ZN18complex_no_dynamic3app17h822bc9fc04957869E+0xa4>)
   2256c:	2102      	movs	r1, #2
   2256e:	aa0e      	add	r2, sp, #56	@ 0x38
   22570:	2334      	movs	r3, #52	@ 0x34
   22572:	df03      	svc	3
   22574:	2802      	cmp	r0, #2
   22576:	d007      	beq.n	22588 <_ZN18complex_no_dynamic3app17h822bc9fc04957869E+0x48>
   22578:	481a      	ldr	r0, [pc, #104]	@ (225e4 <_ZN18complex_no_dynamic3app17h822bc9fc04957869E+0xa4>)
   2257a:	2104      	movs	r1, #4
   2257c:	2202      	movs	r2, #2
   2257e:	2500      	movs	r5, #0
   22580:	462b      	mov	r3, r5
   22582:	df02      	svc	2
   22584:	287f      	cmp	r0, #127	@ 0x7f
   22586:	d810      	bhi.n	225aa <_ZN18complex_no_dynamic3app17h822bc9fc04957869E+0x6a>
   22588:	2001      	movs	r0, #1
   2258a:	7020      	strb	r0, [r4, #0]
   2258c:	6061      	str	r1, [r4, #4]
   2258e:	4c15      	ldr	r4, [pc, #84]	@ (225e4 <_ZN18complex_no_dynamic3app17h822bc9fc04957869E+0xa4>)
   22590:	2102      	movs	r1, #2
   22592:	2500      	movs	r5, #0
   22594:	4620      	mov	r0, r4
   22596:	462a      	mov	r2, r5
   22598:	462b      	mov	r3, r5
   2259a:	df03      	svc	3
   2259c:	2104      	movs	r1, #4
   2259e:	4620      	mov	r0, r4
   225a0:	462a      	mov	r2, r5
   225a2:	462b      	mov	r3, r5
   225a4:	df04      	svc	4
   225a6:	b01b      	add	sp, #108	@ 0x6c
   225a8:	bdf0      	pop	{r4, r5, r6, r7, pc}
   225aa:	480e      	ldr	r0, [pc, #56]	@ (225e4 <_ZN18complex_no_dynamic3app17h822bc9fc04957869E+0xa4>)
   225ac:	2602      	movs	r6, #2
   225ae:	4631      	mov	r1, r6
   225b0:	462a      	mov	r2, r5
   225b2:	462b      	mov	r3, r5
   225b4:	df03      	svc	3
   225b6:	480b      	ldr	r0, [pc, #44]	@ (225e4 <_ZN18complex_no_dynamic3app17h822bc9fc04957869E+0xa4>)
   225b8:	4631      	mov	r1, r6
   225ba:	462a      	mov	r2, r5
   225bc:	462b      	mov	r3, r5
   225be:	df03      	svc	3
   225c0:	1c60      	adds	r0, r4, #1
   225c2:	a90e      	add	r1, sp, #56	@ 0x38
   225c4:	2234      	movs	r2, #52	@ 0x34
   225c6:	f004 fc7a 	bl	26ebe <__aeabi_memcpy>
   225ca:	7025      	strb	r5, [r4, #0]
   225cc:	4c05      	ldr	r4, [pc, #20]	@ (225e4 <_ZN18complex_no_dynamic3app17h822bc9fc04957869E+0xa4>)
   225ce:	4620      	mov	r0, r4
   225d0:	4631      	mov	r1, r6
   225d2:	462a      	mov	r2, r5
   225d4:	462b      	mov	r3, r5
   225d6:	df03      	svc	3
   225d8:	2104      	movs	r1, #4
   225da:	4620      	mov	r0, r4
   225dc:	462a      	mov	r2, r5
   225de:	462b      	mov	r3, r5
   225e0:	df04      	svc	4
   225e2:	e7e0      	b.n	225a6 <_ZN18complex_no_dynamic3app17h822bc9fc04957869E+0x66>
   225e4:	000023c6 	.word	0x000023c6

000225e8 <_ZN18complex_no_dynamic3app17h8638b58673e9b6e0E>:
   225e8:	b5f0      	push	{r4, r5, r6, r7, lr}
   225ea:	af03      	add	r7, sp, #12
   225ec:	b0a9      	sub	sp, #164	@ 0xa4
   225ee:	4604      	mov	r4, r0
   225f0:	ad01      	add	r5, sp, #4
   225f2:	2646      	movs	r6, #70	@ 0x46
   225f4:	4628      	mov	r0, r5
   225f6:	4632      	mov	r2, r6
   225f8:	f004 fc61 	bl	26ebe <__aeabi_memcpy>
   225fc:	a813      	add	r0, sp, #76	@ 0x4c
   225fe:	2156      	movs	r1, #86	@ 0x56
   22600:	f004 fab0 	bl	26b64 <__aeabi_memclr4>
   22604:	4821      	ldr	r0, [pc, #132]	@ (2268c <_ZN18complex_no_dynamic3app17h8638b58673e9b6e0E+0xa4>)
   22606:	2107      	movs	r1, #7
   22608:	462a      	mov	r2, r5
   2260a:	4633      	mov	r3, r6
   2260c:	df04      	svc	4
   2260e:	2802      	cmp	r0, #2
   22610:	d00e      	beq.n	22630 <_ZN18complex_no_dynamic3app17h8638b58673e9b6e0E+0x48>
   22612:	481e      	ldr	r0, [pc, #120]	@ (2268c <_ZN18complex_no_dynamic3app17h8638b58673e9b6e0E+0xa4>)
   22614:	2103      	movs	r1, #3
   22616:	aa13      	add	r2, sp, #76	@ 0x4c
   22618:	2356      	movs	r3, #86	@ 0x56
   2261a:	df03      	svc	3
   2261c:	2802      	cmp	r0, #2
   2261e:	d007      	beq.n	22630 <_ZN18complex_no_dynamic3app17h8638b58673e9b6e0E+0x48>
   22620:	481a      	ldr	r0, [pc, #104]	@ (2268c <_ZN18complex_no_dynamic3app17h8638b58673e9b6e0E+0xa4>)
   22622:	2107      	movs	r1, #7
   22624:	2203      	movs	r2, #3
   22626:	2500      	movs	r5, #0
   22628:	462b      	mov	r3, r5
   2262a:	df02      	svc	2
   2262c:	287f      	cmp	r0, #127	@ 0x7f
   2262e:	d810      	bhi.n	22652 <_ZN18complex_no_dynamic3app17h8638b58673e9b6e0E+0x6a>
   22630:	2001      	movs	r0, #1
   22632:	7020      	strb	r0, [r4, #0]
   22634:	6061      	str	r1, [r4, #4]
   22636:	4c15      	ldr	r4, [pc, #84]	@ (2268c <_ZN18complex_no_dynamic3app17h8638b58673e9b6e0E+0xa4>)
   22638:	2103      	movs	r1, #3
   2263a:	2500      	movs	r5, #0
   2263c:	4620      	mov	r0, r4
   2263e:	462a      	mov	r2, r5
   22640:	462b      	mov	r3, r5
   22642:	df03      	svc	3
   22644:	2107      	movs	r1, #7
   22646:	4620      	mov	r0, r4
   22648:	462a      	mov	r2, r5
   2264a:	462b      	mov	r3, r5
   2264c:	df04      	svc	4
   2264e:	b029      	add	sp, #164	@ 0xa4
   22650:	bdf0      	pop	{r4, r5, r6, r7, pc}
   22652:	480e      	ldr	r0, [pc, #56]	@ (2268c <_ZN18complex_no_dynamic3app17h8638b58673e9b6e0E+0xa4>)
   22654:	2603      	movs	r6, #3
   22656:	4631      	mov	r1, r6
   22658:	462a      	mov	r2, r5
   2265a:	462b      	mov	r3, r5
   2265c:	df03      	svc	3
   2265e:	480b      	ldr	r0, [pc, #44]	@ (2268c <_ZN18complex_no_dynamic3app17h8638b58673e9b6e0E+0xa4>)
   22660:	4631      	mov	r1, r6
   22662:	462a      	mov	r2, r5
   22664:	462b      	mov	r3, r5
   22666:	df03      	svc	3
   22668:	1c60      	adds	r0, r4, #1
   2266a:	a913      	add	r1, sp, #76	@ 0x4c
   2266c:	2256      	movs	r2, #86	@ 0x56
   2266e:	f004 fc26 	bl	26ebe <__aeabi_memcpy>
   22672:	7025      	strb	r5, [r4, #0]
   22674:	4c05      	ldr	r4, [pc, #20]	@ (2268c <_ZN18complex_no_dynamic3app17h8638b58673e9b6e0E+0xa4>)
   22676:	4620      	mov	r0, r4
   22678:	4631      	mov	r1, r6
   2267a:	462a      	mov	r2, r5
   2267c:	462b      	mov	r3, r5
   2267e:	df03      	svc	3
   22680:	2107      	movs	r1, #7
   22682:	4620      	mov	r0, r4
   22684:	462a      	mov	r2, r5
   22686:	462b      	mov	r3, r5
   22688:	df04      	svc	4
   2268a:	e7e0      	b.n	2264e <_ZN18complex_no_dynamic3app17h8638b58673e9b6e0E+0x66>
   2268c:	00001e50 	.word	0x00001e50

00022690 <_ZN18complex_no_dynamic3app17h887f0c4b27e1e108E>:
   22690:	b5f0      	push	{r4, r5, r6, r7, lr}
   22692:	af03      	add	r7, sp, #12
   22694:	b097      	sub	sp, #92	@ 0x5c
   22696:	9001      	str	r0, [sp, #4]
   22698:	ae02      	add	r6, sp, #8
   2269a:	2411      	movs	r4, #17
   2269c:	4630      	mov	r0, r6
   2269e:	4622      	mov	r2, r4
   226a0:	f004 fc0d 	bl	26ebe <__aeabi_memcpy>
   226a4:	a807      	add	r0, sp, #28
   226a6:	213f      	movs	r1, #63	@ 0x3f
   226a8:	f004 fa5c 	bl	26b64 <__aeabi_memclr4>
   226ac:	20cb      	movs	r0, #203	@ 0xcb
   226ae:	0105      	lsls	r5, r0, #4
   226b0:	2107      	movs	r1, #7
   226b2:	4628      	mov	r0, r5
   226b4:	4632      	mov	r2, r6
   226b6:	4623      	mov	r3, r4
   226b8:	df04      	svc	4
   226ba:	2802      	cmp	r0, #2
   226bc:	d00e      	beq.n	226dc <_ZN18complex_no_dynamic3app17h887f0c4b27e1e108E+0x4c>
   226be:	2104      	movs	r1, #4
   226c0:	aa07      	add	r2, sp, #28
   226c2:	233f      	movs	r3, #63	@ 0x3f
   226c4:	4628      	mov	r0, r5
   226c6:	df03      	svc	3
   226c8:	2802      	cmp	r0, #2
   226ca:	d007      	beq.n	226dc <_ZN18complex_no_dynamic3app17h887f0c4b27e1e108E+0x4c>
   226cc:	2107      	movs	r1, #7
   226ce:	2204      	movs	r2, #4
   226d0:	2600      	movs	r6, #0
   226d2:	4628      	mov	r0, r5
   226d4:	4633      	mov	r3, r6
   226d6:	df02      	svc	2
   226d8:	287f      	cmp	r0, #127	@ 0x7f
   226da:	d810      	bhi.n	226fe <_ZN18complex_no_dynamic3app17h887f0c4b27e1e108E+0x6e>
   226dc:	2001      	movs	r0, #1
   226de:	9a01      	ldr	r2, [sp, #4]
   226e0:	7010      	strb	r0, [r2, #0]
   226e2:	6051      	str	r1, [r2, #4]
   226e4:	2104      	movs	r1, #4
   226e6:	2400      	movs	r4, #0
   226e8:	4628      	mov	r0, r5
   226ea:	4622      	mov	r2, r4
   226ec:	4623      	mov	r3, r4
   226ee:	df03      	svc	3
   226f0:	2107      	movs	r1, #7
   226f2:	4628      	mov	r0, r5
   226f4:	4622      	mov	r2, r4
   226f6:	4623      	mov	r3, r4
   226f8:	df04      	svc	4
   226fa:	b017      	add	sp, #92	@ 0x5c
   226fc:	bdf0      	pop	{r4, r5, r6, r7, pc}
   226fe:	2404      	movs	r4, #4
   22700:	9400      	str	r4, [sp, #0]
   22702:	4628      	mov	r0, r5
   22704:	4621      	mov	r1, r4
   22706:	4632      	mov	r2, r6
   22708:	4633      	mov	r3, r6
   2270a:	df03      	svc	3
   2270c:	4628      	mov	r0, r5
   2270e:	4621      	mov	r1, r4
   22710:	4632      	mov	r2, r6
   22712:	4633      	mov	r3, r6
   22714:	df03      	svc	3
   22716:	9c01      	ldr	r4, [sp, #4]
   22718:	1c60      	adds	r0, r4, #1
   2271a:	a907      	add	r1, sp, #28
   2271c:	223f      	movs	r2, #63	@ 0x3f
   2271e:	f004 fbce 	bl	26ebe <__aeabi_memcpy>
   22722:	7026      	strb	r6, [r4, #0]
   22724:	4628      	mov	r0, r5
   22726:	9900      	ldr	r1, [sp, #0]
   22728:	4632      	mov	r2, r6
   2272a:	4633      	mov	r3, r6
   2272c:	df03      	svc	3
   2272e:	2107      	movs	r1, #7
   22730:	4628      	mov	r0, r5
   22732:	4632      	mov	r2, r6
   22734:	4633      	mov	r3, r6
   22736:	df04      	svc	4
   22738:	e7df      	b.n	226fa <_ZN18complex_no_dynamic3app17h887f0c4b27e1e108E+0x6a>
   2273a:	d4d4      	bmi.n	226e6 <_ZN18complex_no_dynamic3app17h887f0c4b27e1e108E+0x56>

0002273c <_ZN18complex_no_dynamic3app17h88efad3a13e57e2cE>:
   2273c:	b5f0      	push	{r4, r5, r6, r7, lr}
   2273e:	af03      	add	r7, sp, #12
   22740:	b09d      	sub	sp, #116	@ 0x74
   22742:	4604      	mov	r4, r0
   22744:	466d      	mov	r5, sp
   22746:	263c      	movs	r6, #60	@ 0x3c
   22748:	4628      	mov	r0, r5
   2274a:	4632      	mov	r2, r6
   2274c:	f004 fbb7 	bl	26ebe <__aeabi_memcpy>
   22750:	a80f      	add	r0, sp, #60	@ 0x3c
   22752:	2138      	movs	r1, #56	@ 0x38
   22754:	f004 fa06 	bl	26b64 <__aeabi_memclr4>
   22758:	4822      	ldr	r0, [pc, #136]	@ (227e4 <_ZN18complex_no_dynamic3app17h88efad3a13e57e2cE+0xa8>)
   2275a:	2103      	movs	r1, #3
   2275c:	462a      	mov	r2, r5
   2275e:	4633      	mov	r3, r6
   22760:	df04      	svc	4
   22762:	2802      	cmp	r0, #2
   22764:	d00e      	beq.n	22784 <_ZN18complex_no_dynamic3app17h88efad3a13e57e2cE+0x48>
   22766:	481f      	ldr	r0, [pc, #124]	@ (227e4 <_ZN18complex_no_dynamic3app17h88efad3a13e57e2cE+0xa8>)
   22768:	2103      	movs	r1, #3
   2276a:	aa0f      	add	r2, sp, #60	@ 0x3c
   2276c:	2338      	movs	r3, #56	@ 0x38
   2276e:	df03      	svc	3
   22770:	2802      	cmp	r0, #2
   22772:	d007      	beq.n	22784 <_ZN18complex_no_dynamic3app17h88efad3a13e57e2cE+0x48>
   22774:	481b      	ldr	r0, [pc, #108]	@ (227e4 <_ZN18complex_no_dynamic3app17h88efad3a13e57e2cE+0xa8>)
   22776:	2103      	movs	r1, #3
   22778:	2500      	movs	r5, #0
   2277a:	460a      	mov	r2, r1
   2277c:	462b      	mov	r3, r5
   2277e:	df02      	svc	2
   22780:	287f      	cmp	r0, #127	@ 0x7f
   22782:	d811      	bhi.n	227a8 <_ZN18complex_no_dynamic3app17h88efad3a13e57e2cE+0x6c>
   22784:	2001      	movs	r0, #1
   22786:	7020      	strb	r0, [r4, #0]
   22788:	6061      	str	r1, [r4, #4]
   2278a:	4c16      	ldr	r4, [pc, #88]	@ (227e4 <_ZN18complex_no_dynamic3app17h88efad3a13e57e2cE+0xa8>)
   2278c:	2503      	movs	r5, #3
   2278e:	2600      	movs	r6, #0
   22790:	4620      	mov	r0, r4
   22792:	4629      	mov	r1, r5
   22794:	4632      	mov	r2, r6
   22796:	4633      	mov	r3, r6
   22798:	df03      	svc	3
   2279a:	4620      	mov	r0, r4
   2279c:	4629      	mov	r1, r5
   2279e:	4632      	mov	r2, r6
   227a0:	4633      	mov	r3, r6
   227a2:	df04      	svc	4
   227a4:	b01d      	add	sp, #116	@ 0x74
   227a6:	bdf0      	pop	{r4, r5, r6, r7, pc}
   227a8:	480e      	ldr	r0, [pc, #56]	@ (227e4 <_ZN18complex_no_dynamic3app17h88efad3a13e57e2cE+0xa8>)
   227aa:	2603      	movs	r6, #3
   227ac:	4631      	mov	r1, r6
   227ae:	462a      	mov	r2, r5
   227b0:	462b      	mov	r3, r5
   227b2:	df03      	svc	3
   227b4:	480b      	ldr	r0, [pc, #44]	@ (227e4 <_ZN18complex_no_dynamic3app17h88efad3a13e57e2cE+0xa8>)
   227b6:	4631      	mov	r1, r6
   227b8:	462a      	mov	r2, r5
   227ba:	462b      	mov	r3, r5
   227bc:	df03      	svc	3
   227be:	1c60      	adds	r0, r4, #1
   227c0:	a90f      	add	r1, sp, #60	@ 0x3c
   227c2:	2238      	movs	r2, #56	@ 0x38
   227c4:	f004 fb7b 	bl	26ebe <__aeabi_memcpy>
   227c8:	7025      	strb	r5, [r4, #0]
   227ca:	4c06      	ldr	r4, [pc, #24]	@ (227e4 <_ZN18complex_no_dynamic3app17h88efad3a13e57e2cE+0xa8>)
   227cc:	4620      	mov	r0, r4
   227ce:	4631      	mov	r1, r6
   227d0:	462a      	mov	r2, r5
   227d2:	462b      	mov	r3, r5
   227d4:	df03      	svc	3
   227d6:	4620      	mov	r0, r4
   227d8:	4631      	mov	r1, r6
   227da:	462a      	mov	r2, r5
   227dc:	462b      	mov	r3, r5
   227de:	df04      	svc	4
   227e0:	e7e0      	b.n	227a4 <_ZN18complex_no_dynamic3app17h88efad3a13e57e2cE+0x68>
   227e2:	46c0      	nop			@ (mov r8, r8)
   227e4:	00001d19 	.word	0x00001d19

000227e8 <_ZN18complex_no_dynamic3app17h903bdc396c272edaE>:
   227e8:	b5f0      	push	{r4, r5, r6, r7, lr}
   227ea:	af03      	add	r7, sp, #12
   227ec:	b09f      	sub	sp, #124	@ 0x7c
   227ee:	4604      	mov	r4, r0
   227f0:	ad01      	add	r5, sp, #4
   227f2:	2627      	movs	r6, #39	@ 0x27
   227f4:	4628      	mov	r0, r5
   227f6:	4632      	mov	r2, r6
   227f8:	f004 fb61 	bl	26ebe <__aeabi_memcpy>
   227fc:	a80b      	add	r0, sp, #44	@ 0x2c
   227fe:	214f      	movs	r1, #79	@ 0x4f
   22800:	f004 f9b0 	bl	26b64 <__aeabi_memclr4>
   22804:	4821      	ldr	r0, [pc, #132]	@ (2288c <_ZN18complex_no_dynamic3app17h903bdc396c272edaE+0xa4>)
   22806:	2109      	movs	r1, #9
   22808:	462a      	mov	r2, r5
   2280a:	4633      	mov	r3, r6
   2280c:	df04      	svc	4
   2280e:	2802      	cmp	r0, #2
   22810:	d00e      	beq.n	22830 <_ZN18complex_no_dynamic3app17h903bdc396c272edaE+0x48>
   22812:	481e      	ldr	r0, [pc, #120]	@ (2288c <_ZN18complex_no_dynamic3app17h903bdc396c272edaE+0xa4>)
   22814:	2100      	movs	r1, #0
   22816:	aa0b      	add	r2, sp, #44	@ 0x2c
   22818:	234f      	movs	r3, #79	@ 0x4f
   2281a:	df03      	svc	3
   2281c:	2802      	cmp	r0, #2
   2281e:	d007      	beq.n	22830 <_ZN18complex_no_dynamic3app17h903bdc396c272edaE+0x48>
   22820:	481a      	ldr	r0, [pc, #104]	@ (2288c <_ZN18complex_no_dynamic3app17h903bdc396c272edaE+0xa4>)
   22822:	2109      	movs	r1, #9
   22824:	2500      	movs	r5, #0
   22826:	462a      	mov	r2, r5
   22828:	462b      	mov	r3, r5
   2282a:	df02      	svc	2
   2282c:	287f      	cmp	r0, #127	@ 0x7f
   2282e:	d810      	bhi.n	22852 <_ZN18complex_no_dynamic3app17h903bdc396c272edaE+0x6a>
   22830:	2001      	movs	r0, #1
   22832:	7020      	strb	r0, [r4, #0]
   22834:	6061      	str	r1, [r4, #4]
   22836:	4c15      	ldr	r4, [pc, #84]	@ (2288c <_ZN18complex_no_dynamic3app17h903bdc396c272edaE+0xa4>)
   22838:	2500      	movs	r5, #0
   2283a:	4620      	mov	r0, r4
   2283c:	4629      	mov	r1, r5
   2283e:	462a      	mov	r2, r5
   22840:	462b      	mov	r3, r5
   22842:	df03      	svc	3
   22844:	2109      	movs	r1, #9
   22846:	4620      	mov	r0, r4
   22848:	462a      	mov	r2, r5
   2284a:	462b      	mov	r3, r5
   2284c:	df04      	svc	4
   2284e:	b01f      	add	sp, #124	@ 0x7c
   22850:	bdf0      	pop	{r4, r5, r6, r7, pc}
   22852:	4e0e      	ldr	r6, [pc, #56]	@ (2288c <_ZN18complex_no_dynamic3app17h903bdc396c272edaE+0xa4>)
   22854:	4630      	mov	r0, r6
   22856:	4629      	mov	r1, r5
   22858:	462a      	mov	r2, r5
   2285a:	462b      	mov	r3, r5
   2285c:	df03      	svc	3
   2285e:	4630      	mov	r0, r6
   22860:	4629      	mov	r1, r5
   22862:	462a      	mov	r2, r5
   22864:	462b      	mov	r3, r5
   22866:	df03      	svc	3
   22868:	1c60      	adds	r0, r4, #1
   2286a:	a90b      	add	r1, sp, #44	@ 0x2c
   2286c:	224f      	movs	r2, #79	@ 0x4f
   2286e:	f004 fb26 	bl	26ebe <__aeabi_memcpy>
   22872:	7025      	strb	r5, [r4, #0]
   22874:	4630      	mov	r0, r6
   22876:	4629      	mov	r1, r5
   22878:	462a      	mov	r2, r5
   2287a:	462b      	mov	r3, r5
   2287c:	df03      	svc	3
   2287e:	2109      	movs	r1, #9
   22880:	4630      	mov	r0, r6
   22882:	462a      	mov	r2, r5
   22884:	462b      	mov	r3, r5
   22886:	df04      	svc	4
   22888:	e7e1      	b.n	2284e <_ZN18complex_no_dynamic3app17h903bdc396c272edaE+0x66>
   2288a:	46c0      	nop			@ (mov r8, r8)
   2288c:	00000b4c 	.word	0x00000b4c

00022890 <_ZN18complex_no_dynamic3app17h93b31dfe11a97aafE>:
   22890:	b5f0      	push	{r4, r5, r6, r7, lr}
   22892:	af03      	add	r7, sp, #12
   22894:	b097      	sub	sp, #92	@ 0x5c
   22896:	4604      	mov	r4, r0
   22898:	ad01      	add	r5, sp, #4
   2289a:	260e      	movs	r6, #14
   2289c:	4628      	mov	r0, r5
   2289e:	4632      	mov	r2, r6
   228a0:	f004 fb0d 	bl	26ebe <__aeabi_memcpy>
   228a4:	a805      	add	r0, sp, #20
   228a6:	2148      	movs	r1, #72	@ 0x48
   228a8:	f004 f95c 	bl	26b64 <__aeabi_memclr4>
   228ac:	4821      	ldr	r0, [pc, #132]	@ (22934 <_ZN18complex_no_dynamic3app17h93b31dfe11a97aafE+0xa4>)
   228ae:	2103      	movs	r1, #3
   228b0:	462a      	mov	r2, r5
   228b2:	4633      	mov	r3, r6
   228b4:	df04      	svc	4
   228b6:	2802      	cmp	r0, #2
   228b8:	d00e      	beq.n	228d8 <_ZN18complex_no_dynamic3app17h93b31dfe11a97aafE+0x48>
   228ba:	481e      	ldr	r0, [pc, #120]	@ (22934 <_ZN18complex_no_dynamic3app17h93b31dfe11a97aafE+0xa4>)
   228bc:	2108      	movs	r1, #8
   228be:	aa05      	add	r2, sp, #20
   228c0:	2348      	movs	r3, #72	@ 0x48
   228c2:	df03      	svc	3
   228c4:	2802      	cmp	r0, #2
   228c6:	d007      	beq.n	228d8 <_ZN18complex_no_dynamic3app17h93b31dfe11a97aafE+0x48>
   228c8:	481a      	ldr	r0, [pc, #104]	@ (22934 <_ZN18complex_no_dynamic3app17h93b31dfe11a97aafE+0xa4>)
   228ca:	2103      	movs	r1, #3
   228cc:	2208      	movs	r2, #8
   228ce:	2500      	movs	r5, #0
   228d0:	462b      	mov	r3, r5
   228d2:	df02      	svc	2
   228d4:	287f      	cmp	r0, #127	@ 0x7f
   228d6:	d810      	bhi.n	228fa <_ZN18complex_no_dynamic3app17h93b31dfe11a97aafE+0x6a>
   228d8:	2001      	movs	r0, #1
   228da:	7020      	strb	r0, [r4, #0]
   228dc:	6061      	str	r1, [r4, #4]
   228de:	4c15      	ldr	r4, [pc, #84]	@ (22934 <_ZN18complex_no_dynamic3app17h93b31dfe11a97aafE+0xa4>)
   228e0:	2108      	movs	r1, #8
   228e2:	2500      	movs	r5, #0
   228e4:	4620      	mov	r0, r4
   228e6:	462a      	mov	r2, r5
   228e8:	462b      	mov	r3, r5
   228ea:	df03      	svc	3
   228ec:	2103      	movs	r1, #3
   228ee:	4620      	mov	r0, r4
   228f0:	462a      	mov	r2, r5
   228f2:	462b      	mov	r3, r5
   228f4:	df04      	svc	4
   228f6:	b017      	add	sp, #92	@ 0x5c
   228f8:	bdf0      	pop	{r4, r5, r6, r7, pc}
   228fa:	480e      	ldr	r0, [pc, #56]	@ (22934 <_ZN18complex_no_dynamic3app17h93b31dfe11a97aafE+0xa4>)
   228fc:	2608      	movs	r6, #8
   228fe:	4631      	mov	r1, r6
   22900:	462a      	mov	r2, r5
   22902:	462b      	mov	r3, r5
   22904:	df03      	svc	3
   22906:	480b      	ldr	r0, [pc, #44]	@ (22934 <_ZN18complex_no_dynamic3app17h93b31dfe11a97aafE+0xa4>)
   22908:	4631      	mov	r1, r6
   2290a:	462a      	mov	r2, r5
   2290c:	462b      	mov	r3, r5
   2290e:	df03      	svc	3
   22910:	1c60      	adds	r0, r4, #1
   22912:	a905      	add	r1, sp, #20
   22914:	2248      	movs	r2, #72	@ 0x48
   22916:	f004 fad2 	bl	26ebe <__aeabi_memcpy>
   2291a:	7025      	strb	r5, [r4, #0]
   2291c:	4c05      	ldr	r4, [pc, #20]	@ (22934 <_ZN18complex_no_dynamic3app17h93b31dfe11a97aafE+0xa4>)
   2291e:	4620      	mov	r0, r4
   22920:	4631      	mov	r1, r6
   22922:	462a      	mov	r2, r5
   22924:	462b      	mov	r3, r5
   22926:	df03      	svc	3
   22928:	2103      	movs	r1, #3
   2292a:	4620      	mov	r0, r4
   2292c:	462a      	mov	r2, r5
   2292e:	462b      	mov	r3, r5
   22930:	df04      	svc	4
   22932:	e7e0      	b.n	228f6 <_ZN18complex_no_dynamic3app17h93b31dfe11a97aafE+0x66>
   22934:	000012d1 	.word	0x000012d1

00022938 <_ZN18complex_no_dynamic3app17h95ad1baf67d39998E>:
   22938:	b5f0      	push	{r4, r5, r6, r7, lr}
   2293a:	af03      	add	r7, sp, #12
   2293c:	b097      	sub	sp, #92	@ 0x5c
   2293e:	4604      	mov	r4, r0
   22940:	ad01      	add	r5, sp, #4
   22942:	2612      	movs	r6, #18
   22944:	4628      	mov	r0, r5
   22946:	4632      	mov	r2, r6
   22948:	f004 fab9 	bl	26ebe <__aeabi_memcpy>
   2294c:	a806      	add	r0, sp, #24
   2294e:	2144      	movs	r1, #68	@ 0x44
   22950:	f004 f908 	bl	26b64 <__aeabi_memclr4>
   22954:	4821      	ldr	r0, [pc, #132]	@ (229dc <_ZN18complex_no_dynamic3app17h95ad1baf67d39998E+0xa4>)
   22956:	2102      	movs	r1, #2
   22958:	462a      	mov	r2, r5
   2295a:	4633      	mov	r3, r6
   2295c:	df04      	svc	4
   2295e:	2802      	cmp	r0, #2
   22960:	d00e      	beq.n	22980 <_ZN18complex_no_dynamic3app17h95ad1baf67d39998E+0x48>
   22962:	481e      	ldr	r0, [pc, #120]	@ (229dc <_ZN18complex_no_dynamic3app17h95ad1baf67d39998E+0xa4>)
   22964:	2109      	movs	r1, #9
   22966:	aa06      	add	r2, sp, #24
   22968:	2344      	movs	r3, #68	@ 0x44
   2296a:	df03      	svc	3
   2296c:	2802      	cmp	r0, #2
   2296e:	d007      	beq.n	22980 <_ZN18complex_no_dynamic3app17h95ad1baf67d39998E+0x48>
   22970:	481a      	ldr	r0, [pc, #104]	@ (229dc <_ZN18complex_no_dynamic3app17h95ad1baf67d39998E+0xa4>)
   22972:	2102      	movs	r1, #2
   22974:	2209      	movs	r2, #9
   22976:	2500      	movs	r5, #0
   22978:	462b      	mov	r3, r5
   2297a:	df02      	svc	2
   2297c:	287f      	cmp	r0, #127	@ 0x7f
   2297e:	d810      	bhi.n	229a2 <_ZN18complex_no_dynamic3app17h95ad1baf67d39998E+0x6a>
   22980:	2001      	movs	r0, #1
   22982:	7020      	strb	r0, [r4, #0]
   22984:	6061      	str	r1, [r4, #4]
   22986:	4c15      	ldr	r4, [pc, #84]	@ (229dc <_ZN18complex_no_dynamic3app17h95ad1baf67d39998E+0xa4>)
   22988:	2109      	movs	r1, #9
   2298a:	2500      	movs	r5, #0
   2298c:	4620      	mov	r0, r4
   2298e:	462a      	mov	r2, r5
   22990:	462b      	mov	r3, r5
   22992:	df03      	svc	3
   22994:	2102      	movs	r1, #2
   22996:	4620      	mov	r0, r4
   22998:	462a      	mov	r2, r5
   2299a:	462b      	mov	r3, r5
   2299c:	df04      	svc	4
   2299e:	b017      	add	sp, #92	@ 0x5c
   229a0:	bdf0      	pop	{r4, r5, r6, r7, pc}
   229a2:	480e      	ldr	r0, [pc, #56]	@ (229dc <_ZN18complex_no_dynamic3app17h95ad1baf67d39998E+0xa4>)
   229a4:	2609      	movs	r6, #9
   229a6:	4631      	mov	r1, r6
   229a8:	462a      	mov	r2, r5
   229aa:	462b      	mov	r3, r5
   229ac:	df03      	svc	3
   229ae:	480b      	ldr	r0, [pc, #44]	@ (229dc <_ZN18complex_no_dynamic3app17h95ad1baf67d39998E+0xa4>)
   229b0:	4631      	mov	r1, r6
   229b2:	462a      	mov	r2, r5
   229b4:	462b      	mov	r3, r5
   229b6:	df03      	svc	3
   229b8:	1c60      	adds	r0, r4, #1
   229ba:	a906      	add	r1, sp, #24
   229bc:	2244      	movs	r2, #68	@ 0x44
   229be:	f004 fa7e 	bl	26ebe <__aeabi_memcpy>
   229c2:	7025      	strb	r5, [r4, #0]
   229c4:	4c05      	ldr	r4, [pc, #20]	@ (229dc <_ZN18complex_no_dynamic3app17h95ad1baf67d39998E+0xa4>)
   229c6:	4620      	mov	r0, r4
   229c8:	4631      	mov	r1, r6
   229ca:	462a      	mov	r2, r5
   229cc:	462b      	mov	r3, r5
   229ce:	df03      	svc	3
   229d0:	2102      	movs	r1, #2
   229d2:	4620      	mov	r0, r4
   229d4:	462a      	mov	r2, r5
   229d6:	462b      	mov	r3, r5
   229d8:	df04      	svc	4
   229da:	e7e0      	b.n	2299e <_ZN18complex_no_dynamic3app17h95ad1baf67d39998E+0x66>
   229dc:	00002432 	.word	0x00002432

000229e0 <_ZN18complex_no_dynamic3app17h972dd659c4248329E>:
   229e0:	b5f0      	push	{r4, r5, r6, r7, lr}
   229e2:	af03      	add	r7, sp, #12
   229e4:	b095      	sub	sp, #84	@ 0x54
   229e6:	4604      	mov	r4, r0
   229e8:	466d      	mov	r5, sp
   229ea:	262a      	movs	r6, #42	@ 0x2a
   229ec:	4628      	mov	r0, r5
   229ee:	4632      	mov	r2, r6
   229f0:	f004 fa65 	bl	26ebe <__aeabi_memcpy>
   229f4:	a80b      	add	r0, sp, #44	@ 0x2c
   229f6:	2128      	movs	r1, #40	@ 0x28
   229f8:	f004 f8b4 	bl	26b64 <__aeabi_memclr4>
   229fc:	4821      	ldr	r0, [pc, #132]	@ (22a84 <_ZN18complex_no_dynamic3app17h972dd659c4248329E+0xa4>)
   229fe:	2104      	movs	r1, #4
   22a00:	462a      	mov	r2, r5
   22a02:	4633      	mov	r3, r6
   22a04:	df04      	svc	4
   22a06:	2802      	cmp	r0, #2
   22a08:	d00e      	beq.n	22a28 <_ZN18complex_no_dynamic3app17h972dd659c4248329E+0x48>
   22a0a:	481e      	ldr	r0, [pc, #120]	@ (22a84 <_ZN18complex_no_dynamic3app17h972dd659c4248329E+0xa4>)
   22a0c:	2108      	movs	r1, #8
   22a0e:	aa0b      	add	r2, sp, #44	@ 0x2c
   22a10:	2328      	movs	r3, #40	@ 0x28
   22a12:	df03      	svc	3
   22a14:	2802      	cmp	r0, #2
   22a16:	d007      	beq.n	22a28 <_ZN18complex_no_dynamic3app17h972dd659c4248329E+0x48>
   22a18:	481a      	ldr	r0, [pc, #104]	@ (22a84 <_ZN18complex_no_dynamic3app17h972dd659c4248329E+0xa4>)
   22a1a:	2104      	movs	r1, #4
   22a1c:	2208      	movs	r2, #8
   22a1e:	2500      	movs	r5, #0
   22a20:	462b      	mov	r3, r5
   22a22:	df02      	svc	2
   22a24:	287f      	cmp	r0, #127	@ 0x7f
   22a26:	d810      	bhi.n	22a4a <_ZN18complex_no_dynamic3app17h972dd659c4248329E+0x6a>
   22a28:	2001      	movs	r0, #1
   22a2a:	7020      	strb	r0, [r4, #0]
   22a2c:	6061      	str	r1, [r4, #4]
   22a2e:	4c15      	ldr	r4, [pc, #84]	@ (22a84 <_ZN18complex_no_dynamic3app17h972dd659c4248329E+0xa4>)
   22a30:	2108      	movs	r1, #8
   22a32:	2500      	movs	r5, #0
   22a34:	4620      	mov	r0, r4
   22a36:	462a      	mov	r2, r5
   22a38:	462b      	mov	r3, r5
   22a3a:	df03      	svc	3
   22a3c:	2104      	movs	r1, #4
   22a3e:	4620      	mov	r0, r4
   22a40:	462a      	mov	r2, r5
   22a42:	462b      	mov	r3, r5
   22a44:	df04      	svc	4
   22a46:	b015      	add	sp, #84	@ 0x54
   22a48:	bdf0      	pop	{r4, r5, r6, r7, pc}
   22a4a:	480e      	ldr	r0, [pc, #56]	@ (22a84 <_ZN18complex_no_dynamic3app17h972dd659c4248329E+0xa4>)
   22a4c:	2608      	movs	r6, #8
   22a4e:	4631      	mov	r1, r6
   22a50:	462a      	mov	r2, r5
   22a52:	462b      	mov	r3, r5
   22a54:	df03      	svc	3
   22a56:	480b      	ldr	r0, [pc, #44]	@ (22a84 <_ZN18complex_no_dynamic3app17h972dd659c4248329E+0xa4>)
   22a58:	4631      	mov	r1, r6
   22a5a:	462a      	mov	r2, r5
   22a5c:	462b      	mov	r3, r5
   22a5e:	df03      	svc	3
   22a60:	1c60      	adds	r0, r4, #1
   22a62:	a90b      	add	r1, sp, #44	@ 0x2c
   22a64:	2228      	movs	r2, #40	@ 0x28
   22a66:	f004 fa2a 	bl	26ebe <__aeabi_memcpy>
   22a6a:	7025      	strb	r5, [r4, #0]
   22a6c:	4c05      	ldr	r4, [pc, #20]	@ (22a84 <_ZN18complex_no_dynamic3app17h972dd659c4248329E+0xa4>)
   22a6e:	4620      	mov	r0, r4
   22a70:	4631      	mov	r1, r6
   22a72:	462a      	mov	r2, r5
   22a74:	462b      	mov	r3, r5
   22a76:	df03      	svc	3
   22a78:	2104      	movs	r1, #4
   22a7a:	4620      	mov	r0, r4
   22a7c:	462a      	mov	r2, r5
   22a7e:	462b      	mov	r3, r5
   22a80:	df04      	svc	4
   22a82:	e7e0      	b.n	22a46 <_ZN18complex_no_dynamic3app17h972dd659c4248329E+0x66>
   22a84:	00001efa 	.word	0x00001efa

00022a88 <_ZN18complex_no_dynamic3app17h9935e9791b9a8d54E>:
   22a88:	b5f0      	push	{r4, r5, r6, r7, lr}
   22a8a:	af03      	add	r7, sp, #12
   22a8c:	b09d      	sub	sp, #116	@ 0x74
   22a8e:	4604      	mov	r4, r0
   22a90:	466d      	mov	r5, sp
   22a92:	261e      	movs	r6, #30
   22a94:	4628      	mov	r0, r5
   22a96:	4632      	mov	r2, r6
   22a98:	f004 fa11 	bl	26ebe <__aeabi_memcpy>
   22a9c:	a808      	add	r0, sp, #32
   22a9e:	2151      	movs	r1, #81	@ 0x51
   22aa0:	f004 f860 	bl	26b64 <__aeabi_memclr4>
   22aa4:	4821      	ldr	r0, [pc, #132]	@ (22b2c <_ZN18complex_no_dynamic3app17h9935e9791b9a8d54E+0xa4>)
   22aa6:	2102      	movs	r1, #2
   22aa8:	462a      	mov	r2, r5
   22aaa:	4633      	mov	r3, r6
   22aac:	df04      	svc	4
   22aae:	2802      	cmp	r0, #2
   22ab0:	d00e      	beq.n	22ad0 <_ZN18complex_no_dynamic3app17h9935e9791b9a8d54E+0x48>
   22ab2:	481e      	ldr	r0, [pc, #120]	@ (22b2c <_ZN18complex_no_dynamic3app17h9935e9791b9a8d54E+0xa4>)
   22ab4:	2100      	movs	r1, #0
   22ab6:	aa08      	add	r2, sp, #32
   22ab8:	2351      	movs	r3, #81	@ 0x51
   22aba:	df03      	svc	3
   22abc:	2802      	cmp	r0, #2
   22abe:	d007      	beq.n	22ad0 <_ZN18complex_no_dynamic3app17h9935e9791b9a8d54E+0x48>
   22ac0:	481a      	ldr	r0, [pc, #104]	@ (22b2c <_ZN18complex_no_dynamic3app17h9935e9791b9a8d54E+0xa4>)
   22ac2:	2102      	movs	r1, #2
   22ac4:	2500      	movs	r5, #0
   22ac6:	462a      	mov	r2, r5
   22ac8:	462b      	mov	r3, r5
   22aca:	df02      	svc	2
   22acc:	287f      	cmp	r0, #127	@ 0x7f
   22ace:	d810      	bhi.n	22af2 <_ZN18complex_no_dynamic3app17h9935e9791b9a8d54E+0x6a>
   22ad0:	2001      	movs	r0, #1
   22ad2:	7020      	strb	r0, [r4, #0]
   22ad4:	6061      	str	r1, [r4, #4]
   22ad6:	4c15      	ldr	r4, [pc, #84]	@ (22b2c <_ZN18complex_no_dynamic3app17h9935e9791b9a8d54E+0xa4>)
   22ad8:	2500      	movs	r5, #0
   22ada:	4620      	mov	r0, r4
   22adc:	4629      	mov	r1, r5
   22ade:	462a      	mov	r2, r5
   22ae0:	462b      	mov	r3, r5
   22ae2:	df03      	svc	3
   22ae4:	2102      	movs	r1, #2
   22ae6:	4620      	mov	r0, r4
   22ae8:	462a      	mov	r2, r5
   22aea:	462b      	mov	r3, r5
   22aec:	df04      	svc	4
   22aee:	b01d      	add	sp, #116	@ 0x74
   22af0:	bdf0      	pop	{r4, r5, r6, r7, pc}
   22af2:	4e0e      	ldr	r6, [pc, #56]	@ (22b2c <_ZN18complex_no_dynamic3app17h9935e9791b9a8d54E+0xa4>)
   22af4:	4630      	mov	r0, r6
   22af6:	4629      	mov	r1, r5
   22af8:	462a      	mov	r2, r5
   22afa:	462b      	mov	r3, r5
   22afc:	df03      	svc	3
   22afe:	4630      	mov	r0, r6
   22b00:	4629      	mov	r1, r5
   22b02:	462a      	mov	r2, r5
   22b04:	462b      	mov	r3, r5
   22b06:	df03      	svc	3
   22b08:	1c60      	adds	r0, r4, #1
   22b0a:	a908      	add	r1, sp, #32
   22b0c:	2251      	movs	r2, #81	@ 0x51
   22b0e:	f004 f9d6 	bl	26ebe <__aeabi_memcpy>
   22b12:	7025      	strb	r5, [r4, #0]
   22b14:	4630      	mov	r0, r6
   22b16:	4629      	mov	r1, r5
   22b18:	462a      	mov	r2, r5
   22b1a:	462b      	mov	r3, r5
   22b1c:	df03      	svc	3
   22b1e:	2102      	movs	r1, #2
   22b20:	4630      	mov	r0, r6
   22b22:	462a      	mov	r2, r5
   22b24:	462b      	mov	r3, r5
   22b26:	df04      	svc	4
   22b28:	e7e1      	b.n	22aee <_ZN18complex_no_dynamic3app17h9935e9791b9a8d54E+0x66>
   22b2a:	46c0      	nop			@ (mov r8, r8)
   22b2c:	0000196b 	.word	0x0000196b

00022b30 <_ZN18complex_no_dynamic3app17ha6805a0e5597513aE>:
   22b30:	b5f0      	push	{r4, r5, r6, r7, lr}
   22b32:	af03      	add	r7, sp, #12
   22b34:	b0a5      	sub	sp, #148	@ 0x94
   22b36:	4604      	mov	r4, r0
   22b38:	ad01      	add	r5, sp, #4
   22b3a:	2653      	movs	r6, #83	@ 0x53
   22b3c:	4628      	mov	r0, r5
   22b3e:	4632      	mov	r2, r6
   22b40:	f004 f9bd 	bl	26ebe <__aeabi_memcpy>
   22b44:	a816      	add	r0, sp, #88	@ 0x58
   22b46:	213a      	movs	r1, #58	@ 0x3a
   22b48:	f004 f80c 	bl	26b64 <__aeabi_memclr4>
   22b4c:	4821      	ldr	r0, [pc, #132]	@ (22bd4 <_ZN18complex_no_dynamic3app17ha6805a0e5597513aE+0xa4>)
   22b4e:	2106      	movs	r1, #6
   22b50:	462a      	mov	r2, r5
   22b52:	4633      	mov	r3, r6
   22b54:	df04      	svc	4
   22b56:	2802      	cmp	r0, #2
   22b58:	d00e      	beq.n	22b78 <_ZN18complex_no_dynamic3app17ha6805a0e5597513aE+0x48>
   22b5a:	481e      	ldr	r0, [pc, #120]	@ (22bd4 <_ZN18complex_no_dynamic3app17ha6805a0e5597513aE+0xa4>)
   22b5c:	2107      	movs	r1, #7
   22b5e:	aa16      	add	r2, sp, #88	@ 0x58
   22b60:	233a      	movs	r3, #58	@ 0x3a
   22b62:	df03      	svc	3
   22b64:	2802      	cmp	r0, #2
   22b66:	d007      	beq.n	22b78 <_ZN18complex_no_dynamic3app17ha6805a0e5597513aE+0x48>
   22b68:	481a      	ldr	r0, [pc, #104]	@ (22bd4 <_ZN18complex_no_dynamic3app17ha6805a0e5597513aE+0xa4>)
   22b6a:	2106      	movs	r1, #6
   22b6c:	2207      	movs	r2, #7
   22b6e:	2500      	movs	r5, #0
   22b70:	462b      	mov	r3, r5
   22b72:	df02      	svc	2
   22b74:	287f      	cmp	r0, #127	@ 0x7f
   22b76:	d810      	bhi.n	22b9a <_ZN18complex_no_dynamic3app17ha6805a0e5597513aE+0x6a>
   22b78:	2001      	movs	r0, #1
   22b7a:	7020      	strb	r0, [r4, #0]
   22b7c:	6061      	str	r1, [r4, #4]
   22b7e:	4c15      	ldr	r4, [pc, #84]	@ (22bd4 <_ZN18complex_no_dynamic3app17ha6805a0e5597513aE+0xa4>)
   22b80:	2107      	movs	r1, #7
   22b82:	2500      	movs	r5, #0
   22b84:	4620      	mov	r0, r4
   22b86:	462a      	mov	r2, r5
   22b88:	462b      	mov	r3, r5
   22b8a:	df03      	svc	3
   22b8c:	2106      	movs	r1, #6
   22b8e:	4620      	mov	r0, r4
   22b90:	462a      	mov	r2, r5
   22b92:	462b      	mov	r3, r5
   22b94:	df04      	svc	4
   22b96:	b025      	add	sp, #148	@ 0x94
   22b98:	bdf0      	pop	{r4, r5, r6, r7, pc}
   22b9a:	480e      	ldr	r0, [pc, #56]	@ (22bd4 <_ZN18complex_no_dynamic3app17ha6805a0e5597513aE+0xa4>)
   22b9c:	2607      	movs	r6, #7
   22b9e:	4631      	mov	r1, r6
   22ba0:	462a      	mov	r2, r5
   22ba2:	462b      	mov	r3, r5
   22ba4:	df03      	svc	3
   22ba6:	480b      	ldr	r0, [pc, #44]	@ (22bd4 <_ZN18complex_no_dynamic3app17ha6805a0e5597513aE+0xa4>)
   22ba8:	4631      	mov	r1, r6
   22baa:	462a      	mov	r2, r5
   22bac:	462b      	mov	r3, r5
   22bae:	df03      	svc	3
   22bb0:	1c60      	adds	r0, r4, #1
   22bb2:	a916      	add	r1, sp, #88	@ 0x58
   22bb4:	223a      	movs	r2, #58	@ 0x3a
   22bb6:	f004 f982 	bl	26ebe <__aeabi_memcpy>
   22bba:	7025      	strb	r5, [r4, #0]
   22bbc:	4c05      	ldr	r4, [pc, #20]	@ (22bd4 <_ZN18complex_no_dynamic3app17ha6805a0e5597513aE+0xa4>)
   22bbe:	4620      	mov	r0, r4
   22bc0:	4631      	mov	r1, r6
   22bc2:	462a      	mov	r2, r5
   22bc4:	462b      	mov	r3, r5
   22bc6:	df03      	svc	3
   22bc8:	2106      	movs	r1, #6
   22bca:	4620      	mov	r0, r4
   22bcc:	462a      	mov	r2, r5
   22bce:	462b      	mov	r3, r5
   22bd0:	df04      	svc	4
   22bd2:	e7e0      	b.n	22b96 <_ZN18complex_no_dynamic3app17ha6805a0e5597513aE+0x66>
   22bd4:	00002645 	.word	0x00002645

00022bd8 <_ZN18complex_no_dynamic3app17ha6f1337008328079E>:
   22bd8:	b5f0      	push	{r4, r5, r6, r7, lr}
   22bda:	af03      	add	r7, sp, #12
   22bdc:	b097      	sub	sp, #92	@ 0x5c
   22bde:	4604      	mov	r4, r0
   22be0:	ad01      	add	r5, sp, #4
   22be2:	260f      	movs	r6, #15
   22be4:	4628      	mov	r0, r5
   22be6:	4632      	mov	r2, r6
   22be8:	f004 f969 	bl	26ebe <__aeabi_memcpy>
   22bec:	a805      	add	r0, sp, #20
   22bee:	2146      	movs	r1, #70	@ 0x46
   22bf0:	f003 ffb8 	bl	26b64 <__aeabi_memclr4>
   22bf4:	4821      	ldr	r0, [pc, #132]	@ (22c7c <_ZN18complex_no_dynamic3app17ha6f1337008328079E+0xa4>)
   22bf6:	2109      	movs	r1, #9
   22bf8:	462a      	mov	r2, r5
   22bfa:	4633      	mov	r3, r6
   22bfc:	df04      	svc	4
   22bfe:	2802      	cmp	r0, #2
   22c00:	d00e      	beq.n	22c20 <_ZN18complex_no_dynamic3app17ha6f1337008328079E+0x48>
   22c02:	481e      	ldr	r0, [pc, #120]	@ (22c7c <_ZN18complex_no_dynamic3app17ha6f1337008328079E+0xa4>)
   22c04:	2102      	movs	r1, #2
   22c06:	aa05      	add	r2, sp, #20
   22c08:	2346      	movs	r3, #70	@ 0x46
   22c0a:	df03      	svc	3
   22c0c:	2802      	cmp	r0, #2
   22c0e:	d007      	beq.n	22c20 <_ZN18complex_no_dynamic3app17ha6f1337008328079E+0x48>
   22c10:	481a      	ldr	r0, [pc, #104]	@ (22c7c <_ZN18complex_no_dynamic3app17ha6f1337008328079E+0xa4>)
   22c12:	2109      	movs	r1, #9
   22c14:	2202      	movs	r2, #2
   22c16:	2500      	movs	r5, #0
   22c18:	462b      	mov	r3, r5
   22c1a:	df02      	svc	2
   22c1c:	287f      	cmp	r0, #127	@ 0x7f
   22c1e:	d810      	bhi.n	22c42 <_ZN18complex_no_dynamic3app17ha6f1337008328079E+0x6a>
   22c20:	2001      	movs	r0, #1
   22c22:	7020      	strb	r0, [r4, #0]
   22c24:	6061      	str	r1, [r4, #4]
   22c26:	4c15      	ldr	r4, [pc, #84]	@ (22c7c <_ZN18complex_no_dynamic3app17ha6f1337008328079E+0xa4>)
   22c28:	2102      	movs	r1, #2
   22c2a:	2500      	movs	r5, #0
   22c2c:	4620      	mov	r0, r4
   22c2e:	462a      	mov	r2, r5
   22c30:	462b      	mov	r3, r5
   22c32:	df03      	svc	3
   22c34:	2109      	movs	r1, #9
   22c36:	4620      	mov	r0, r4
   22c38:	462a      	mov	r2, r5
   22c3a:	462b      	mov	r3, r5
   22c3c:	df04      	svc	4
   22c3e:	b017      	add	sp, #92	@ 0x5c
   22c40:	bdf0      	pop	{r4, r5, r6, r7, pc}
   22c42:	480e      	ldr	r0, [pc, #56]	@ (22c7c <_ZN18complex_no_dynamic3app17ha6f1337008328079E+0xa4>)
   22c44:	2602      	movs	r6, #2
   22c46:	4631      	mov	r1, r6
   22c48:	462a      	mov	r2, r5
   22c4a:	462b      	mov	r3, r5
   22c4c:	df03      	svc	3
   22c4e:	480b      	ldr	r0, [pc, #44]	@ (22c7c <_ZN18complex_no_dynamic3app17ha6f1337008328079E+0xa4>)
   22c50:	4631      	mov	r1, r6
   22c52:	462a      	mov	r2, r5
   22c54:	462b      	mov	r3, r5
   22c56:	df03      	svc	3
   22c58:	1c60      	adds	r0, r4, #1
   22c5a:	a905      	add	r1, sp, #20
   22c5c:	2246      	movs	r2, #70	@ 0x46
   22c5e:	f004 f92e 	bl	26ebe <__aeabi_memcpy>
   22c62:	7025      	strb	r5, [r4, #0]
   22c64:	4c05      	ldr	r4, [pc, #20]	@ (22c7c <_ZN18complex_no_dynamic3app17ha6f1337008328079E+0xa4>)
   22c66:	4620      	mov	r0, r4
   22c68:	4631      	mov	r1, r6
   22c6a:	462a      	mov	r2, r5
   22c6c:	462b      	mov	r3, r5
   22c6e:	df03      	svc	3
   22c70:	2109      	movs	r1, #9
   22c72:	4620      	mov	r0, r4
   22c74:	462a      	mov	r2, r5
   22c76:	462b      	mov	r3, r5
   22c78:	df04      	svc	4
   22c7a:	e7e0      	b.n	22c3e <_ZN18complex_no_dynamic3app17ha6f1337008328079E+0x66>
   22c7c:	00001d7e 	.word	0x00001d7e

00022c80 <_ZN18complex_no_dynamic3app17hae6dacd8cdff59edE>:
   22c80:	b5f0      	push	{r4, r5, r6, r7, lr}
   22c82:	af03      	add	r7, sp, #12
   22c84:	b093      	sub	sp, #76	@ 0x4c
   22c86:	9002      	str	r0, [sp, #8]
   22c88:	ae03      	add	r6, sp, #12
   22c8a:	2425      	movs	r4, #37	@ 0x25
   22c8c:	4630      	mov	r0, r6
   22c8e:	4622      	mov	r2, r4
   22c90:	f004 f915 	bl	26ebe <__aeabi_memcpy>
   22c94:	a80d      	add	r0, sp, #52	@ 0x34
   22c96:	2118      	movs	r1, #24
   22c98:	f003 ff64 	bl	26b64 <__aeabi_memclr4>
   22c9c:	20a7      	movs	r0, #167	@ 0xa7
   22c9e:	0105      	lsls	r5, r0, #4
   22ca0:	2109      	movs	r1, #9
   22ca2:	4628      	mov	r0, r5
   22ca4:	4632      	mov	r2, r6
   22ca6:	4623      	mov	r3, r4
   22ca8:	df04      	svc	4
   22caa:	2802      	cmp	r0, #2
   22cac:	d00e      	beq.n	22ccc <_ZN18complex_no_dynamic3app17hae6dacd8cdff59edE+0x4c>
   22cae:	2108      	movs	r1, #8
   22cb0:	aa0d      	add	r2, sp, #52	@ 0x34
   22cb2:	2318      	movs	r3, #24
   22cb4:	4628      	mov	r0, r5
   22cb6:	df03      	svc	3
   22cb8:	2802      	cmp	r0, #2
   22cba:	d007      	beq.n	22ccc <_ZN18complex_no_dynamic3app17hae6dacd8cdff59edE+0x4c>
   22cbc:	2109      	movs	r1, #9
   22cbe:	2208      	movs	r2, #8
   22cc0:	2600      	movs	r6, #0
   22cc2:	4628      	mov	r0, r5
   22cc4:	4633      	mov	r3, r6
   22cc6:	df02      	svc	2
   22cc8:	287f      	cmp	r0, #127	@ 0x7f
   22cca:	d810      	bhi.n	22cee <_ZN18complex_no_dynamic3app17hae6dacd8cdff59edE+0x6e>
   22ccc:	2001      	movs	r0, #1
   22cce:	9a02      	ldr	r2, [sp, #8]
   22cd0:	7010      	strb	r0, [r2, #0]
   22cd2:	6051      	str	r1, [r2, #4]
   22cd4:	2108      	movs	r1, #8
   22cd6:	2400      	movs	r4, #0
   22cd8:	4628      	mov	r0, r5
   22cda:	4622      	mov	r2, r4
   22cdc:	4623      	mov	r3, r4
   22cde:	df03      	svc	3
   22ce0:	2109      	movs	r1, #9
   22ce2:	4628      	mov	r0, r5
   22ce4:	4622      	mov	r2, r4
   22ce6:	4623      	mov	r3, r4
   22ce8:	df04      	svc	4
   22cea:	b013      	add	sp, #76	@ 0x4c
   22cec:	bdf0      	pop	{r4, r5, r6, r7, pc}
   22cee:	2408      	movs	r4, #8
   22cf0:	9401      	str	r4, [sp, #4]
   22cf2:	4628      	mov	r0, r5
   22cf4:	4621      	mov	r1, r4
   22cf6:	4632      	mov	r2, r6
   22cf8:	4633      	mov	r3, r6
   22cfa:	df03      	svc	3
   22cfc:	4628      	mov	r0, r5
   22cfe:	4621      	mov	r1, r4
   22d00:	4632      	mov	r2, r6
   22d02:	4633      	mov	r3, r6
   22d04:	df03      	svc	3
   22d06:	9c02      	ldr	r4, [sp, #8]
   22d08:	1c60      	adds	r0, r4, #1
   22d0a:	a90d      	add	r1, sp, #52	@ 0x34
   22d0c:	2218      	movs	r2, #24
   22d0e:	f004 f8d6 	bl	26ebe <__aeabi_memcpy>
   22d12:	7026      	strb	r6, [r4, #0]
   22d14:	4628      	mov	r0, r5
   22d16:	9901      	ldr	r1, [sp, #4]
   22d18:	4632      	mov	r2, r6
   22d1a:	4633      	mov	r3, r6
   22d1c:	df03      	svc	3
   22d1e:	2109      	movs	r1, #9
   22d20:	4628      	mov	r0, r5
   22d22:	4632      	mov	r2, r6
   22d24:	4633      	mov	r3, r6
   22d26:	df04      	svc	4
   22d28:	e7df      	b.n	22cea <_ZN18complex_no_dynamic3app17hae6dacd8cdff59edE+0x6a>
   22d2a:	d4d4      	bmi.n	22cd6 <_ZN18complex_no_dynamic3app17hae6dacd8cdff59edE+0x56>

00022d2c <_ZN18complex_no_dynamic3app17hb05da4637102e657E>:
   22d2c:	b5f0      	push	{r4, r5, r6, r7, lr}
   22d2e:	af03      	add	r7, sp, #12
   22d30:	b09f      	sub	sp, #124	@ 0x7c
   22d32:	4604      	mov	r4, r0
   22d34:	466d      	mov	r5, sp
   22d36:	2627      	movs	r6, #39	@ 0x27
   22d38:	4628      	mov	r0, r5
   22d3a:	4632      	mov	r2, r6
   22d3c:	f004 f8bf 	bl	26ebe <__aeabi_memcpy>
   22d40:	a80a      	add	r0, sp, #40	@ 0x28
   22d42:	2151      	movs	r1, #81	@ 0x51
   22d44:	f003 ff0e 	bl	26b64 <__aeabi_memclr4>
   22d48:	4821      	ldr	r0, [pc, #132]	@ (22dd0 <_ZN18complex_no_dynamic3app17hb05da4637102e657E+0xa4>)
   22d4a:	2100      	movs	r1, #0
   22d4c:	462a      	mov	r2, r5
   22d4e:	4633      	mov	r3, r6
   22d50:	df04      	svc	4
   22d52:	2802      	cmp	r0, #2
   22d54:	d00e      	beq.n	22d74 <_ZN18complex_no_dynamic3app17hb05da4637102e657E+0x48>
   22d56:	481e      	ldr	r0, [pc, #120]	@ (22dd0 <_ZN18complex_no_dynamic3app17hb05da4637102e657E+0xa4>)
   22d58:	2104      	movs	r1, #4
   22d5a:	aa0a      	add	r2, sp, #40	@ 0x28
   22d5c:	2351      	movs	r3, #81	@ 0x51
   22d5e:	df03      	svc	3
   22d60:	2802      	cmp	r0, #2
   22d62:	d007      	beq.n	22d74 <_ZN18complex_no_dynamic3app17hb05da4637102e657E+0x48>
   22d64:	481a      	ldr	r0, [pc, #104]	@ (22dd0 <_ZN18complex_no_dynamic3app17hb05da4637102e657E+0xa4>)
   22d66:	2204      	movs	r2, #4
   22d68:	2500      	movs	r5, #0
   22d6a:	4629      	mov	r1, r5
   22d6c:	462b      	mov	r3, r5
   22d6e:	df02      	svc	2
   22d70:	287f      	cmp	r0, #127	@ 0x7f
   22d72:	d810      	bhi.n	22d96 <_ZN18complex_no_dynamic3app17hb05da4637102e657E+0x6a>
   22d74:	2001      	movs	r0, #1
   22d76:	7020      	strb	r0, [r4, #0]
   22d78:	6061      	str	r1, [r4, #4]
   22d7a:	4c15      	ldr	r4, [pc, #84]	@ (22dd0 <_ZN18complex_no_dynamic3app17hb05da4637102e657E+0xa4>)
   22d7c:	2104      	movs	r1, #4
   22d7e:	2500      	movs	r5, #0
   22d80:	4620      	mov	r0, r4
   22d82:	462a      	mov	r2, r5
   22d84:	462b      	mov	r3, r5
   22d86:	df03      	svc	3
   22d88:	4620      	mov	r0, r4
   22d8a:	4629      	mov	r1, r5
   22d8c:	462a      	mov	r2, r5
   22d8e:	462b      	mov	r3, r5
   22d90:	df04      	svc	4
   22d92:	b01f      	add	sp, #124	@ 0x7c
   22d94:	bdf0      	pop	{r4, r5, r6, r7, pc}
   22d96:	480e      	ldr	r0, [pc, #56]	@ (22dd0 <_ZN18complex_no_dynamic3app17hb05da4637102e657E+0xa4>)
   22d98:	2604      	movs	r6, #4
   22d9a:	4631      	mov	r1, r6
   22d9c:	462a      	mov	r2, r5
   22d9e:	462b      	mov	r3, r5
   22da0:	df03      	svc	3
   22da2:	480b      	ldr	r0, [pc, #44]	@ (22dd0 <_ZN18complex_no_dynamic3app17hb05da4637102e657E+0xa4>)
   22da4:	4631      	mov	r1, r6
   22da6:	462a      	mov	r2, r5
   22da8:	462b      	mov	r3, r5
   22daa:	df03      	svc	3
   22dac:	1c60      	adds	r0, r4, #1
   22dae:	a90a      	add	r1, sp, #40	@ 0x28
   22db0:	2251      	movs	r2, #81	@ 0x51
   22db2:	f004 f884 	bl	26ebe <__aeabi_memcpy>
   22db6:	7025      	strb	r5, [r4, #0]
   22db8:	4c05      	ldr	r4, [pc, #20]	@ (22dd0 <_ZN18complex_no_dynamic3app17hb05da4637102e657E+0xa4>)
   22dba:	4620      	mov	r0, r4
   22dbc:	4631      	mov	r1, r6
   22dbe:	462a      	mov	r2, r5
   22dc0:	462b      	mov	r3, r5
   22dc2:	df03      	svc	3
   22dc4:	4620      	mov	r0, r4
   22dc6:	4629      	mov	r1, r5
   22dc8:	462a      	mov	r2, r5
   22dca:	462b      	mov	r3, r5
   22dcc:	df04      	svc	4
   22dce:	e7e0      	b.n	22d92 <_ZN18complex_no_dynamic3app17hb05da4637102e657E+0x66>
   22dd0:	00000a36 	.word	0x00000a36

00022dd4 <_ZN18complex_no_dynamic3app17hb3584eba1eb21311E>:
   22dd4:	b5f0      	push	{r4, r5, r6, r7, lr}
   22dd6:	af03      	add	r7, sp, #12
   22dd8:	b09b      	sub	sp, #108	@ 0x6c
   22dda:	4604      	mov	r4, r0
   22ddc:	ad01      	add	r5, sp, #4
   22dde:	262e      	movs	r6, #46	@ 0x2e
   22de0:	4628      	mov	r0, r5
   22de2:	4632      	mov	r2, r6
   22de4:	f004 f86b 	bl	26ebe <__aeabi_memcpy>
   22de8:	a80d      	add	r0, sp, #52	@ 0x34
   22dea:	2138      	movs	r1, #56	@ 0x38
   22dec:	f003 feba 	bl	26b64 <__aeabi_memclr4>
   22df0:	4822      	ldr	r0, [pc, #136]	@ (22e7c <_ZN18complex_no_dynamic3app17hb3584eba1eb21311E+0xa8>)
   22df2:	2109      	movs	r1, #9
   22df4:	462a      	mov	r2, r5
   22df6:	4633      	mov	r3, r6
   22df8:	df04      	svc	4
   22dfa:	2802      	cmp	r0, #2
   22dfc:	d00e      	beq.n	22e1c <_ZN18complex_no_dynamic3app17hb3584eba1eb21311E+0x48>
   22dfe:	481f      	ldr	r0, [pc, #124]	@ (22e7c <_ZN18complex_no_dynamic3app17hb3584eba1eb21311E+0xa8>)
   22e00:	2109      	movs	r1, #9
   22e02:	aa0d      	add	r2, sp, #52	@ 0x34
   22e04:	2338      	movs	r3, #56	@ 0x38
   22e06:	df03      	svc	3
   22e08:	2802      	cmp	r0, #2
   22e0a:	d007      	beq.n	22e1c <_ZN18complex_no_dynamic3app17hb3584eba1eb21311E+0x48>
   22e0c:	481b      	ldr	r0, [pc, #108]	@ (22e7c <_ZN18complex_no_dynamic3app17hb3584eba1eb21311E+0xa8>)
   22e0e:	2109      	movs	r1, #9
   22e10:	2500      	movs	r5, #0
   22e12:	460a      	mov	r2, r1
   22e14:	462b      	mov	r3, r5
   22e16:	df02      	svc	2
   22e18:	287f      	cmp	r0, #127	@ 0x7f
   22e1a:	d811      	bhi.n	22e40 <_ZN18complex_no_dynamic3app17hb3584eba1eb21311E+0x6c>
   22e1c:	2001      	movs	r0, #1
   22e1e:	7020      	strb	r0, [r4, #0]
   22e20:	6061      	str	r1, [r4, #4]
   22e22:	4c16      	ldr	r4, [pc, #88]	@ (22e7c <_ZN18complex_no_dynamic3app17hb3584eba1eb21311E+0xa8>)
   22e24:	2509      	movs	r5, #9
   22e26:	2600      	movs	r6, #0
   22e28:	4620      	mov	r0, r4
   22e2a:	4629      	mov	r1, r5
   22e2c:	4632      	mov	r2, r6
   22e2e:	4633      	mov	r3, r6
   22e30:	df03      	svc	3
   22e32:	4620      	mov	r0, r4
   22e34:	4629      	mov	r1, r5
   22e36:	4632      	mov	r2, r6
   22e38:	4633      	mov	r3, r6
   22e3a:	df04      	svc	4
   22e3c:	b01b      	add	sp, #108	@ 0x6c
   22e3e:	bdf0      	pop	{r4, r5, r6, r7, pc}
   22e40:	480e      	ldr	r0, [pc, #56]	@ (22e7c <_ZN18complex_no_dynamic3app17hb3584eba1eb21311E+0xa8>)
   22e42:	2609      	movs	r6, #9
   22e44:	4631      	mov	r1, r6
   22e46:	462a      	mov	r2, r5
   22e48:	462b      	mov	r3, r5
   22e4a:	df03      	svc	3
   22e4c:	480b      	ldr	r0, [pc, #44]	@ (22e7c <_ZN18complex_no_dynamic3app17hb3584eba1eb21311E+0xa8>)
   22e4e:	4631      	mov	r1, r6
   22e50:	462a      	mov	r2, r5
   22e52:	462b      	mov	r3, r5
   22e54:	df03      	svc	3
   22e56:	1c60      	adds	r0, r4, #1
   22e58:	a90d      	add	r1, sp, #52	@ 0x34
   22e5a:	2238      	movs	r2, #56	@ 0x38
   22e5c:	f004 f82f 	bl	26ebe <__aeabi_memcpy>
   22e60:	7025      	strb	r5, [r4, #0]
   22e62:	4c06      	ldr	r4, [pc, #24]	@ (22e7c <_ZN18complex_no_dynamic3app17hb3584eba1eb21311E+0xa8>)
   22e64:	4620      	mov	r0, r4
   22e66:	4631      	mov	r1, r6
   22e68:	462a      	mov	r2, r5
   22e6a:	462b      	mov	r3, r5
   22e6c:	df03      	svc	3
   22e6e:	4620      	mov	r0, r4
   22e70:	4631      	mov	r1, r6
   22e72:	462a      	mov	r2, r5
   22e74:	462b      	mov	r3, r5
   22e76:	df04      	svc	4
   22e78:	e7e0      	b.n	22e3c <_ZN18complex_no_dynamic3app17hb3584eba1eb21311E+0x68>
   22e7a:	46c0      	nop			@ (mov r8, r8)
   22e7c:	00000a9d 	.word	0x00000a9d

00022e80 <_ZN18complex_no_dynamic3app17hb3c0eee8861a4852E>:
   22e80:	b5f0      	push	{r4, r5, r6, r7, lr}
   22e82:	af03      	add	r7, sp, #12
   22e84:	b0a3      	sub	sp, #140	@ 0x8c
   22e86:	4604      	mov	r4, r0
   22e88:	ad01      	add	r5, sp, #4
   22e8a:	264f      	movs	r6, #79	@ 0x4f
   22e8c:	4628      	mov	r0, r5
   22e8e:	4632      	mov	r2, r6
   22e90:	f004 f815 	bl	26ebe <__aeabi_memcpy>
   22e94:	a815      	add	r0, sp, #84	@ 0x54
   22e96:	2135      	movs	r1, #53	@ 0x35
   22e98:	f003 fe64 	bl	26b64 <__aeabi_memclr4>
   22e9c:	4821      	ldr	r0, [pc, #132]	@ (22f24 <_ZN18complex_no_dynamic3app17hb3c0eee8861a4852E+0xa4>)
   22e9e:	2107      	movs	r1, #7
   22ea0:	462a      	mov	r2, r5
   22ea2:	4633      	mov	r3, r6
   22ea4:	df04      	svc	4
   22ea6:	2802      	cmp	r0, #2
   22ea8:	d00e      	beq.n	22ec8 <_ZN18complex_no_dynamic3app17hb3c0eee8861a4852E+0x48>
   22eaa:	481e      	ldr	r0, [pc, #120]	@ (22f24 <_ZN18complex_no_dynamic3app17hb3c0eee8861a4852E+0xa4>)
   22eac:	2101      	movs	r1, #1
   22eae:	aa15      	add	r2, sp, #84	@ 0x54
   22eb0:	2335      	movs	r3, #53	@ 0x35
   22eb2:	df03      	svc	3
   22eb4:	2802      	cmp	r0, #2
   22eb6:	d007      	beq.n	22ec8 <_ZN18complex_no_dynamic3app17hb3c0eee8861a4852E+0x48>
   22eb8:	481a      	ldr	r0, [pc, #104]	@ (22f24 <_ZN18complex_no_dynamic3app17hb3c0eee8861a4852E+0xa4>)
   22eba:	2107      	movs	r1, #7
   22ebc:	2201      	movs	r2, #1
   22ebe:	2500      	movs	r5, #0
   22ec0:	462b      	mov	r3, r5
   22ec2:	df02      	svc	2
   22ec4:	287f      	cmp	r0, #127	@ 0x7f
   22ec6:	d810      	bhi.n	22eea <_ZN18complex_no_dynamic3app17hb3c0eee8861a4852E+0x6a>
   22ec8:	2201      	movs	r2, #1
   22eca:	7022      	strb	r2, [r4, #0]
   22ecc:	6061      	str	r1, [r4, #4]
   22ece:	4c15      	ldr	r4, [pc, #84]	@ (22f24 <_ZN18complex_no_dynamic3app17hb3c0eee8861a4852E+0xa4>)
   22ed0:	2500      	movs	r5, #0
   22ed2:	4620      	mov	r0, r4
   22ed4:	4611      	mov	r1, r2
   22ed6:	462a      	mov	r2, r5
   22ed8:	462b      	mov	r3, r5
   22eda:	df03      	svc	3
   22edc:	2107      	movs	r1, #7
   22ede:	4620      	mov	r0, r4
   22ee0:	462a      	mov	r2, r5
   22ee2:	462b      	mov	r3, r5
   22ee4:	df04      	svc	4
   22ee6:	b023      	add	sp, #140	@ 0x8c
   22ee8:	bdf0      	pop	{r4, r5, r6, r7, pc}
   22eea:	480e      	ldr	r0, [pc, #56]	@ (22f24 <_ZN18complex_no_dynamic3app17hb3c0eee8861a4852E+0xa4>)
   22eec:	2601      	movs	r6, #1
   22eee:	4631      	mov	r1, r6
   22ef0:	462a      	mov	r2, r5
   22ef2:	462b      	mov	r3, r5
   22ef4:	df03      	svc	3
   22ef6:	480b      	ldr	r0, [pc, #44]	@ (22f24 <_ZN18complex_no_dynamic3app17hb3c0eee8861a4852E+0xa4>)
   22ef8:	4631      	mov	r1, r6
   22efa:	462a      	mov	r2, r5
   22efc:	462b      	mov	r3, r5
   22efe:	df03      	svc	3
   22f00:	1c60      	adds	r0, r4, #1
   22f02:	a915      	add	r1, sp, #84	@ 0x54
   22f04:	2235      	movs	r2, #53	@ 0x35
   22f06:	f003 ffda 	bl	26ebe <__aeabi_memcpy>
   22f0a:	7025      	strb	r5, [r4, #0]
   22f0c:	4c05      	ldr	r4, [pc, #20]	@ (22f24 <_ZN18complex_no_dynamic3app17hb3c0eee8861a4852E+0xa4>)
   22f0e:	4620      	mov	r0, r4
   22f10:	4631      	mov	r1, r6
   22f12:	462a      	mov	r2, r5
   22f14:	462b      	mov	r3, r5
   22f16:	df03      	svc	3
   22f18:	2107      	movs	r1, #7
   22f1a:	4620      	mov	r0, r4
   22f1c:	462a      	mov	r2, r5
   22f1e:	462b      	mov	r3, r5
   22f20:	df04      	svc	4
   22f22:	e7e0      	b.n	22ee6 <_ZN18complex_no_dynamic3app17hb3c0eee8861a4852E+0x66>
   22f24:	000016d7 	.word	0x000016d7

00022f28 <_ZN18complex_no_dynamic3app17hb427c66e8d5c297dE>:
   22f28:	b5f0      	push	{r4, r5, r6, r7, lr}
   22f2a:	af03      	add	r7, sp, #12
   22f2c:	b09d      	sub	sp, #116	@ 0x74
   22f2e:	4604      	mov	r4, r0
   22f30:	466d      	mov	r5, sp
   22f32:	2640      	movs	r6, #64	@ 0x40
   22f34:	4628      	mov	r0, r5
   22f36:	4632      	mov	r2, r6
   22f38:	f003 ffc1 	bl	26ebe <__aeabi_memcpy>
   22f3c:	a810      	add	r0, sp, #64	@ 0x40
   22f3e:	2131      	movs	r1, #49	@ 0x31
   22f40:	f003 fe10 	bl	26b64 <__aeabi_memclr4>
   22f44:	4821      	ldr	r0, [pc, #132]	@ (22fcc <_ZN18complex_no_dynamic3app17hb427c66e8d5c297dE+0xa4>)
   22f46:	2108      	movs	r1, #8
   22f48:	462a      	mov	r2, r5
   22f4a:	4633      	mov	r3, r6
   22f4c:	df04      	svc	4
   22f4e:	2802      	cmp	r0, #2
   22f50:	d00e      	beq.n	22f70 <_ZN18complex_no_dynamic3app17hb427c66e8d5c297dE+0x48>
   22f52:	481e      	ldr	r0, [pc, #120]	@ (22fcc <_ZN18complex_no_dynamic3app17hb427c66e8d5c297dE+0xa4>)
   22f54:	2105      	movs	r1, #5
   22f56:	aa10      	add	r2, sp, #64	@ 0x40
   22f58:	2331      	movs	r3, #49	@ 0x31
   22f5a:	df03      	svc	3
   22f5c:	2802      	cmp	r0, #2
   22f5e:	d007      	beq.n	22f70 <_ZN18complex_no_dynamic3app17hb427c66e8d5c297dE+0x48>
   22f60:	481a      	ldr	r0, [pc, #104]	@ (22fcc <_ZN18complex_no_dynamic3app17hb427c66e8d5c297dE+0xa4>)
   22f62:	2108      	movs	r1, #8
   22f64:	2205      	movs	r2, #5
   22f66:	2500      	movs	r5, #0
   22f68:	462b      	mov	r3, r5
   22f6a:	df02      	svc	2
   22f6c:	287f      	cmp	r0, #127	@ 0x7f
   22f6e:	d810      	bhi.n	22f92 <_ZN18complex_no_dynamic3app17hb427c66e8d5c297dE+0x6a>
   22f70:	2001      	movs	r0, #1
   22f72:	7020      	strb	r0, [r4, #0]
   22f74:	6061      	str	r1, [r4, #4]
   22f76:	4c15      	ldr	r4, [pc, #84]	@ (22fcc <_ZN18complex_no_dynamic3app17hb427c66e8d5c297dE+0xa4>)
   22f78:	2105      	movs	r1, #5
   22f7a:	2500      	movs	r5, #0
   22f7c:	4620      	mov	r0, r4
   22f7e:	462a      	mov	r2, r5
   22f80:	462b      	mov	r3, r5
   22f82:	df03      	svc	3
   22f84:	2108      	movs	r1, #8
   22f86:	4620      	mov	r0, r4
   22f88:	462a      	mov	r2, r5
   22f8a:	462b      	mov	r3, r5
   22f8c:	df04      	svc	4
   22f8e:	b01d      	add	sp, #116	@ 0x74
   22f90:	bdf0      	pop	{r4, r5, r6, r7, pc}
   22f92:	480e      	ldr	r0, [pc, #56]	@ (22fcc <_ZN18complex_no_dynamic3app17hb427c66e8d5c297dE+0xa4>)
   22f94:	2605      	movs	r6, #5
   22f96:	4631      	mov	r1, r6
   22f98:	462a      	mov	r2, r5
   22f9a:	462b      	mov	r3, r5
   22f9c:	df03      	svc	3
   22f9e:	480b      	ldr	r0, [pc, #44]	@ (22fcc <_ZN18complex_no_dynamic3app17hb427c66e8d5c297dE+0xa4>)
   22fa0:	4631      	mov	r1, r6
   22fa2:	462a      	mov	r2, r5
   22fa4:	462b      	mov	r3, r5
   22fa6:	df03      	svc	3
   22fa8:	1c60      	adds	r0, r4, #1
   22faa:	a910      	add	r1, sp, #64	@ 0x40
   22fac:	2231      	movs	r2, #49	@ 0x31
   22fae:	f003 ff86 	bl	26ebe <__aeabi_memcpy>
   22fb2:	7025      	strb	r5, [r4, #0]
   22fb4:	4c05      	ldr	r4, [pc, #20]	@ (22fcc <_ZN18complex_no_dynamic3app17hb427c66e8d5c297dE+0xa4>)
   22fb6:	4620      	mov	r0, r4
   22fb8:	4631      	mov	r1, r6
   22fba:	462a      	mov	r2, r5
   22fbc:	462b      	mov	r3, r5
   22fbe:	df03      	svc	3
   22fc0:	2108      	movs	r1, #8
   22fc2:	4620      	mov	r0, r4
   22fc4:	462a      	mov	r2, r5
   22fc6:	462b      	mov	r3, r5
   22fc8:	df04      	svc	4
   22fca:	e7e0      	b.n	22f8e <_ZN18complex_no_dynamic3app17hb427c66e8d5c297dE+0x66>
   22fcc:	00000fce 	.word	0x00000fce

00022fd0 <_ZN18complex_no_dynamic3app17hc1bec2ff06247a14E>:
   22fd0:	b5f0      	push	{r4, r5, r6, r7, lr}
   22fd2:	af03      	add	r7, sp, #12
   22fd4:	b093      	sub	sp, #76	@ 0x4c
   22fd6:	4604      	mov	r4, r0
   22fd8:	ad01      	add	r5, sp, #4
   22fda:	2627      	movs	r6, #39	@ 0x27
   22fdc:	4628      	mov	r0, r5
   22fde:	4632      	mov	r2, r6
   22fe0:	f003 ff6d 	bl	26ebe <__aeabi_memcpy>
   22fe4:	a80b      	add	r0, sp, #44	@ 0x2c
   22fe6:	211e      	movs	r1, #30
   22fe8:	f003 fdbc 	bl	26b64 <__aeabi_memclr4>
   22fec:	4822      	ldr	r0, [pc, #136]	@ (23078 <_ZN18complex_no_dynamic3app17hc1bec2ff06247a14E+0xa8>)
   22fee:	2103      	movs	r1, #3
   22ff0:	462a      	mov	r2, r5
   22ff2:	4633      	mov	r3, r6
   22ff4:	df04      	svc	4
   22ff6:	2802      	cmp	r0, #2
   22ff8:	d00e      	beq.n	23018 <_ZN18complex_no_dynamic3app17hc1bec2ff06247a14E+0x48>
   22ffa:	481f      	ldr	r0, [pc, #124]	@ (23078 <_ZN18complex_no_dynamic3app17hc1bec2ff06247a14E+0xa8>)
   22ffc:	2103      	movs	r1, #3
   22ffe:	aa0b      	add	r2, sp, #44	@ 0x2c
   23000:	231e      	movs	r3, #30
   23002:	df03      	svc	3
   23004:	2802      	cmp	r0, #2
   23006:	d007      	beq.n	23018 <_ZN18complex_no_dynamic3app17hc1bec2ff06247a14E+0x48>
   23008:	481b      	ldr	r0, [pc, #108]	@ (23078 <_ZN18complex_no_dynamic3app17hc1bec2ff06247a14E+0xa8>)
   2300a:	2103      	movs	r1, #3
   2300c:	2500      	movs	r5, #0
   2300e:	460a      	mov	r2, r1
   23010:	462b      	mov	r3, r5
   23012:	df02      	svc	2
   23014:	287f      	cmp	r0, #127	@ 0x7f
   23016:	d811      	bhi.n	2303c <_ZN18complex_no_dynamic3app17hc1bec2ff06247a14E+0x6c>
   23018:	2001      	movs	r0, #1
   2301a:	7020      	strb	r0, [r4, #0]
   2301c:	6061      	str	r1, [r4, #4]
   2301e:	4c16      	ldr	r4, [pc, #88]	@ (23078 <_ZN18complex_no_dynamic3app17hc1bec2ff06247a14E+0xa8>)
   23020:	2503      	movs	r5, #3
   23022:	2600      	movs	r6, #0
   23024:	4620      	mov	r0, r4
   23026:	4629      	mov	r1, r5
   23028:	4632      	mov	r2, r6
   2302a:	4633      	mov	r3, r6
   2302c:	df03      	svc	3
   2302e:	4620      	mov	r0, r4
   23030:	4629      	mov	r1, r5
   23032:	4632      	mov	r2, r6
   23034:	4633      	mov	r3, r6
   23036:	df04      	svc	4
   23038:	b013      	add	sp, #76	@ 0x4c
   2303a:	bdf0      	pop	{r4, r5, r6, r7, pc}
   2303c:	480e      	ldr	r0, [pc, #56]	@ (23078 <_ZN18complex_no_dynamic3app17hc1bec2ff06247a14E+0xa8>)
   2303e:	2603      	movs	r6, #3
   23040:	4631      	mov	r1, r6
   23042:	462a      	mov	r2, r5
   23044:	462b      	mov	r3, r5
   23046:	df03      	svc	3
   23048:	480b      	ldr	r0, [pc, #44]	@ (23078 <_ZN18complex_no_dynamic3app17hc1bec2ff06247a14E+0xa8>)
   2304a:	4631      	mov	r1, r6
   2304c:	462a      	mov	r2, r5
   2304e:	462b      	mov	r3, r5
   23050:	df03      	svc	3
   23052:	1c60      	adds	r0, r4, #1
   23054:	a90b      	add	r1, sp, #44	@ 0x2c
   23056:	221e      	movs	r2, #30
   23058:	f003 ff31 	bl	26ebe <__aeabi_memcpy>
   2305c:	7025      	strb	r5, [r4, #0]
   2305e:	4c06      	ldr	r4, [pc, #24]	@ (23078 <_ZN18complex_no_dynamic3app17hc1bec2ff06247a14E+0xa8>)
   23060:	4620      	mov	r0, r4
   23062:	4631      	mov	r1, r6
   23064:	462a      	mov	r2, r5
   23066:	462b      	mov	r3, r5
   23068:	df03      	svc	3
   2306a:	4620      	mov	r0, r4
   2306c:	4631      	mov	r1, r6
   2306e:	462a      	mov	r2, r5
   23070:	462b      	mov	r3, r5
   23072:	df04      	svc	4
   23074:	e7e0      	b.n	23038 <_ZN18complex_no_dynamic3app17hc1bec2ff06247a14E+0x68>
   23076:	46c0      	nop			@ (mov r8, r8)
   23078:	000010e2 	.word	0x000010e2

0002307c <_ZN18complex_no_dynamic3app17hc49e872d54d90a89E>:
   2307c:	b5f0      	push	{r4, r5, r6, r7, lr}
   2307e:	af03      	add	r7, sp, #12
   23080:	b09b      	sub	sp, #108	@ 0x6c
   23082:	9000      	str	r0, [sp, #0]
   23084:	ae01      	add	r6, sp, #4
   23086:	2441      	movs	r4, #65	@ 0x41
   23088:	4630      	mov	r0, r6
   2308a:	4622      	mov	r2, r4
   2308c:	f003 ff17 	bl	26ebe <__aeabi_memcpy>
   23090:	a812      	add	r0, sp, #72	@ 0x48
   23092:	2122      	movs	r1, #34	@ 0x22
   23094:	f003 fd66 	bl	26b64 <__aeabi_memclr4>
   23098:	4822      	ldr	r0, [pc, #136]	@ (23124 <_ZN18complex_no_dynamic3app17hc49e872d54d90a89E+0xa8>)
   2309a:	2501      	movs	r5, #1
   2309c:	4629      	mov	r1, r5
   2309e:	4632      	mov	r2, r6
   230a0:	4623      	mov	r3, r4
   230a2:	df04      	svc	4
   230a4:	2802      	cmp	r0, #2
   230a6:	d00e      	beq.n	230c6 <_ZN18complex_no_dynamic3app17hc49e872d54d90a89E+0x4a>
   230a8:	481e      	ldr	r0, [pc, #120]	@ (23124 <_ZN18complex_no_dynamic3app17hc49e872d54d90a89E+0xa8>)
   230aa:	2100      	movs	r1, #0
   230ac:	aa12      	add	r2, sp, #72	@ 0x48
   230ae:	2322      	movs	r3, #34	@ 0x22
   230b0:	df03      	svc	3
   230b2:	2802      	cmp	r0, #2
   230b4:	d007      	beq.n	230c6 <_ZN18complex_no_dynamic3app17hc49e872d54d90a89E+0x4a>
   230b6:	481b      	ldr	r0, [pc, #108]	@ (23124 <_ZN18complex_no_dynamic3app17hc49e872d54d90a89E+0xa8>)
   230b8:	2101      	movs	r1, #1
   230ba:	2600      	movs	r6, #0
   230bc:	4632      	mov	r2, r6
   230be:	4633      	mov	r3, r6
   230c0:	df02      	svc	2
   230c2:	287f      	cmp	r0, #127	@ 0x7f
   230c4:	d810      	bhi.n	230e8 <_ZN18complex_no_dynamic3app17hc49e872d54d90a89E+0x6c>
   230c6:	9800      	ldr	r0, [sp, #0]
   230c8:	7005      	strb	r5, [r0, #0]
   230ca:	6041      	str	r1, [r0, #4]
   230cc:	4c15      	ldr	r4, [pc, #84]	@ (23124 <_ZN18complex_no_dynamic3app17hc49e872d54d90a89E+0xa8>)
   230ce:	2600      	movs	r6, #0
   230d0:	4620      	mov	r0, r4
   230d2:	4631      	mov	r1, r6
   230d4:	4632      	mov	r2, r6
   230d6:	4633      	mov	r3, r6
   230d8:	df03      	svc	3
   230da:	4620      	mov	r0, r4
   230dc:	4629      	mov	r1, r5
   230de:	4632      	mov	r2, r6
   230e0:	4633      	mov	r3, r6
   230e2:	df04      	svc	4
   230e4:	b01b      	add	sp, #108	@ 0x6c
   230e6:	bdf0      	pop	{r4, r5, r6, r7, pc}
   230e8:	4d0e      	ldr	r5, [pc, #56]	@ (23124 <_ZN18complex_no_dynamic3app17hc49e872d54d90a89E+0xa8>)
   230ea:	4628      	mov	r0, r5
   230ec:	4631      	mov	r1, r6
   230ee:	4632      	mov	r2, r6
   230f0:	4633      	mov	r3, r6
   230f2:	df03      	svc	3
   230f4:	4628      	mov	r0, r5
   230f6:	4631      	mov	r1, r6
   230f8:	4632      	mov	r2, r6
   230fa:	4633      	mov	r3, r6
   230fc:	df03      	svc	3
   230fe:	9c00      	ldr	r4, [sp, #0]
   23100:	1c60      	adds	r0, r4, #1
   23102:	a912      	add	r1, sp, #72	@ 0x48
   23104:	2222      	movs	r2, #34	@ 0x22
   23106:	f003 feda 	bl	26ebe <__aeabi_memcpy>
   2310a:	7026      	strb	r6, [r4, #0]
   2310c:	4628      	mov	r0, r5
   2310e:	4631      	mov	r1, r6
   23110:	4632      	mov	r2, r6
   23112:	4633      	mov	r3, r6
   23114:	df03      	svc	3
   23116:	2101      	movs	r1, #1
   23118:	4628      	mov	r0, r5
   2311a:	4632      	mov	r2, r6
   2311c:	4633      	mov	r3, r6
   2311e:	df04      	svc	4
   23120:	e7e0      	b.n	230e4 <_ZN18complex_no_dynamic3app17hc49e872d54d90a89E+0x68>
   23122:	46c0      	nop			@ (mov r8, r8)
   23124:	0000247c 	.word	0x0000247c

00023128 <_ZN18complex_no_dynamic3app17hc96da75b6909bb5dE>:
   23128:	b5f0      	push	{r4, r5, r6, r7, lr}
   2312a:	af03      	add	r7, sp, #12
   2312c:	b0a5      	sub	sp, #148	@ 0x94
   2312e:	4604      	mov	r4, r0
   23130:	ad01      	add	r5, sp, #4
   23132:	2663      	movs	r6, #99	@ 0x63
   23134:	4628      	mov	r0, r5
   23136:	4632      	mov	r2, r6
   23138:	f003 fec1 	bl	26ebe <__aeabi_memcpy>
   2313c:	a81a      	add	r0, sp, #104	@ 0x68
   2313e:	212c      	movs	r1, #44	@ 0x2c
   23140:	f003 fd10 	bl	26b64 <__aeabi_memclr4>
   23144:	2018      	movs	r0, #24
   23146:	2105      	movs	r1, #5
   23148:	462a      	mov	r2, r5
   2314a:	4633      	mov	r3, r6
   2314c:	df04      	svc	4
   2314e:	2802      	cmp	r0, #2
   23150:	d00e      	beq.n	23170 <_ZN18complex_no_dynamic3app17hc96da75b6909bb5dE+0x48>
   23152:	2018      	movs	r0, #24
   23154:	2103      	movs	r1, #3
   23156:	aa1a      	add	r2, sp, #104	@ 0x68
   23158:	232c      	movs	r3, #44	@ 0x2c
   2315a:	df03      	svc	3
   2315c:	2802      	cmp	r0, #2
   2315e:	d007      	beq.n	23170 <_ZN18complex_no_dynamic3app17hc96da75b6909bb5dE+0x48>
   23160:	2018      	movs	r0, #24
   23162:	2105      	movs	r1, #5
   23164:	2203      	movs	r2, #3
   23166:	2500      	movs	r5, #0
   23168:	462b      	mov	r3, r5
   2316a:	df02      	svc	2
   2316c:	287f      	cmp	r0, #127	@ 0x7f
   2316e:	d810      	bhi.n	23192 <_ZN18complex_no_dynamic3app17hc96da75b6909bb5dE+0x6a>
   23170:	2001      	movs	r0, #1
   23172:	7020      	strb	r0, [r4, #0]
   23174:	6061      	str	r1, [r4, #4]
   23176:	2418      	movs	r4, #24
   23178:	2103      	movs	r1, #3
   2317a:	2500      	movs	r5, #0
   2317c:	4620      	mov	r0, r4
   2317e:	462a      	mov	r2, r5
   23180:	462b      	mov	r3, r5
   23182:	df03      	svc	3
   23184:	2105      	movs	r1, #5
   23186:	4620      	mov	r0, r4
   23188:	462a      	mov	r2, r5
   2318a:	462b      	mov	r3, r5
   2318c:	df04      	svc	4
   2318e:	b025      	add	sp, #148	@ 0x94
   23190:	bdf0      	pop	{r4, r5, r6, r7, pc}
   23192:	2018      	movs	r0, #24
   23194:	9000      	str	r0, [sp, #0]
   23196:	2603      	movs	r6, #3
   23198:	4631      	mov	r1, r6
   2319a:	462a      	mov	r2, r5
   2319c:	462b      	mov	r3, r5
   2319e:	df03      	svc	3
   231a0:	9800      	ldr	r0, [sp, #0]
   231a2:	4631      	mov	r1, r6
   231a4:	462a      	mov	r2, r5
   231a6:	462b      	mov	r3, r5
   231a8:	df03      	svc	3
   231aa:	1c60      	adds	r0, r4, #1
   231ac:	a91a      	add	r1, sp, #104	@ 0x68
   231ae:	222c      	movs	r2, #44	@ 0x2c
   231b0:	f003 fe85 	bl	26ebe <__aeabi_memcpy>
   231b4:	7025      	strb	r5, [r4, #0]
   231b6:	9c00      	ldr	r4, [sp, #0]
   231b8:	4620      	mov	r0, r4
   231ba:	4631      	mov	r1, r6
   231bc:	462a      	mov	r2, r5
   231be:	462b      	mov	r3, r5
   231c0:	df03      	svc	3
   231c2:	2105      	movs	r1, #5
   231c4:	4620      	mov	r0, r4
   231c6:	462a      	mov	r2, r5
   231c8:	462b      	mov	r3, r5
   231ca:	df04      	svc	4
   231cc:	e7df      	b.n	2318e <_ZN18complex_no_dynamic3app17hc96da75b6909bb5dE+0x66>
   231ce:	d4d4      	bmi.n	2317a <_ZN18complex_no_dynamic3app17hc96da75b6909bb5dE+0x52>

000231d0 <_ZN18complex_no_dynamic3app17hca0bc04db4438602E>:
   231d0:	b5f0      	push	{r4, r5, r6, r7, lr}
   231d2:	af03      	add	r7, sp, #12
   231d4:	b089      	sub	sp, #36	@ 0x24
   231d6:	4604      	mov	r4, r0
   231d8:	466d      	mov	r5, sp
   231da:	260f      	movs	r6, #15
   231dc:	4628      	mov	r0, r5
   231de:	4632      	mov	r2, r6
   231e0:	f003 fe6d 	bl	26ebe <__aeabi_memcpy>
   231e4:	a804      	add	r0, sp, #16
   231e6:	2113      	movs	r1, #19
   231e8:	f003 fcbc 	bl	26b64 <__aeabi_memclr4>
   231ec:	4821      	ldr	r0, [pc, #132]	@ (23274 <_ZN18complex_no_dynamic3app17hca0bc04db4438602E+0xa4>)
   231ee:	2103      	movs	r1, #3
   231f0:	462a      	mov	r2, r5
   231f2:	4633      	mov	r3, r6
   231f4:	df04      	svc	4
   231f6:	2802      	cmp	r0, #2
   231f8:	d00e      	beq.n	23218 <_ZN18complex_no_dynamic3app17hca0bc04db4438602E+0x48>
   231fa:	481e      	ldr	r0, [pc, #120]	@ (23274 <_ZN18complex_no_dynamic3app17hca0bc04db4438602E+0xa4>)
   231fc:	2100      	movs	r1, #0
   231fe:	aa04      	add	r2, sp, #16
   23200:	2313      	movs	r3, #19
   23202:	df03      	svc	3
   23204:	2802      	cmp	r0, #2
   23206:	d007      	beq.n	23218 <_ZN18complex_no_dynamic3app17hca0bc04db4438602E+0x48>
   23208:	481a      	ldr	r0, [pc, #104]	@ (23274 <_ZN18complex_no_dynamic3app17hca0bc04db4438602E+0xa4>)
   2320a:	2103      	movs	r1, #3
   2320c:	2500      	movs	r5, #0
   2320e:	462a      	mov	r2, r5
   23210:	462b      	mov	r3, r5
   23212:	df02      	svc	2
   23214:	287f      	cmp	r0, #127	@ 0x7f
   23216:	d810      	bhi.n	2323a <_ZN18complex_no_dynamic3app17hca0bc04db4438602E+0x6a>
   23218:	2001      	movs	r0, #1
   2321a:	7020      	strb	r0, [r4, #0]
   2321c:	6061      	str	r1, [r4, #4]
   2321e:	4c15      	ldr	r4, [pc, #84]	@ (23274 <_ZN18complex_no_dynamic3app17hca0bc04db4438602E+0xa4>)
   23220:	2500      	movs	r5, #0
   23222:	4620      	mov	r0, r4
   23224:	4629      	mov	r1, r5
   23226:	462a      	mov	r2, r5
   23228:	462b      	mov	r3, r5
   2322a:	df03      	svc	3
   2322c:	2103      	movs	r1, #3
   2322e:	4620      	mov	r0, r4
   23230:	462a      	mov	r2, r5
   23232:	462b      	mov	r3, r5
   23234:	df04      	svc	4
   23236:	b009      	add	sp, #36	@ 0x24
   23238:	bdf0      	pop	{r4, r5, r6, r7, pc}
   2323a:	4e0e      	ldr	r6, [pc, #56]	@ (23274 <_ZN18complex_no_dynamic3app17hca0bc04db4438602E+0xa4>)
   2323c:	4630      	mov	r0, r6
   2323e:	4629      	mov	r1, r5
   23240:	462a      	mov	r2, r5
   23242:	462b      	mov	r3, r5
   23244:	df03      	svc	3
   23246:	4630      	mov	r0, r6
   23248:	4629      	mov	r1, r5
   2324a:	462a      	mov	r2, r5
   2324c:	462b      	mov	r3, r5
   2324e:	df03      	svc	3
   23250:	1c60      	adds	r0, r4, #1
   23252:	a904      	add	r1, sp, #16
   23254:	2213      	movs	r2, #19
   23256:	f003 fe32 	bl	26ebe <__aeabi_memcpy>
   2325a:	7025      	strb	r5, [r4, #0]
   2325c:	4630      	mov	r0, r6
   2325e:	4629      	mov	r1, r5
   23260:	462a      	mov	r2, r5
   23262:	462b      	mov	r3, r5
   23264:	df03      	svc	3
   23266:	2103      	movs	r1, #3
   23268:	4630      	mov	r0, r6
   2326a:	462a      	mov	r2, r5
   2326c:	462b      	mov	r3, r5
   2326e:	df04      	svc	4
   23270:	e7e1      	b.n	23236 <_ZN18complex_no_dynamic3app17hca0bc04db4438602E+0x66>
   23272:	46c0      	nop			@ (mov r8, r8)
   23274:	00001e4b 	.word	0x00001e4b

00023278 <_ZN18complex_no_dynamic3app17hcc46a6da55d99d62E>:
   23278:	b5f0      	push	{r4, r5, r6, r7, lr}
   2327a:	af03      	add	r7, sp, #12
   2327c:	b08f      	sub	sp, #60	@ 0x3c
   2327e:	4604      	mov	r4, r0
   23280:	ad01      	add	r5, sp, #4
   23282:	260f      	movs	r6, #15
   23284:	4628      	mov	r0, r5
   23286:	4632      	mov	r2, r6
   23288:	f003 fe19 	bl	26ebe <__aeabi_memcpy>
   2328c:	a805      	add	r0, sp, #20
   2328e:	2125      	movs	r1, #37	@ 0x25
   23290:	f003 fc68 	bl	26b64 <__aeabi_memclr4>
   23294:	20a2      	movs	r0, #162	@ 0xa2
   23296:	2108      	movs	r1, #8
   23298:	462a      	mov	r2, r5
   2329a:	4633      	mov	r3, r6
   2329c:	df04      	svc	4
   2329e:	2802      	cmp	r0, #2
   232a0:	d00e      	beq.n	232c0 <_ZN18complex_no_dynamic3app17hcc46a6da55d99d62E+0x48>
   232a2:	20a2      	movs	r0, #162	@ 0xa2
   232a4:	2100      	movs	r1, #0
   232a6:	aa05      	add	r2, sp, #20
   232a8:	2325      	movs	r3, #37	@ 0x25
   232aa:	df03      	svc	3
   232ac:	2802      	cmp	r0, #2
   232ae:	d007      	beq.n	232c0 <_ZN18complex_no_dynamic3app17hcc46a6da55d99d62E+0x48>
   232b0:	20a2      	movs	r0, #162	@ 0xa2
   232b2:	2108      	movs	r1, #8
   232b4:	2500      	movs	r5, #0
   232b6:	462a      	mov	r2, r5
   232b8:	462b      	mov	r3, r5
   232ba:	df02      	svc	2
   232bc:	287f      	cmp	r0, #127	@ 0x7f
   232be:	d810      	bhi.n	232e2 <_ZN18complex_no_dynamic3app17hcc46a6da55d99d62E+0x6a>
   232c0:	2001      	movs	r0, #1
   232c2:	7020      	strb	r0, [r4, #0]
   232c4:	6061      	str	r1, [r4, #4]
   232c6:	24a2      	movs	r4, #162	@ 0xa2
   232c8:	2500      	movs	r5, #0
   232ca:	4620      	mov	r0, r4
   232cc:	4629      	mov	r1, r5
   232ce:	462a      	mov	r2, r5
   232d0:	462b      	mov	r3, r5
   232d2:	df03      	svc	3
   232d4:	2108      	movs	r1, #8
   232d6:	4620      	mov	r0, r4
   232d8:	462a      	mov	r2, r5
   232da:	462b      	mov	r3, r5
   232dc:	df04      	svc	4
   232de:	b00f      	add	sp, #60	@ 0x3c
   232e0:	bdf0      	pop	{r4, r5, r6, r7, pc}
   232e2:	26a2      	movs	r6, #162	@ 0xa2
   232e4:	4630      	mov	r0, r6
   232e6:	4629      	mov	r1, r5
   232e8:	462a      	mov	r2, r5
   232ea:	462b      	mov	r3, r5
   232ec:	df03      	svc	3
   232ee:	4630      	mov	r0, r6
   232f0:	4629      	mov	r1, r5
   232f2:	462a      	mov	r2, r5
   232f4:	462b      	mov	r3, r5
   232f6:	df03      	svc	3
   232f8:	1c60      	adds	r0, r4, #1
   232fa:	a905      	add	r1, sp, #20
   232fc:	2225      	movs	r2, #37	@ 0x25
   232fe:	f003 fdde 	bl	26ebe <__aeabi_memcpy>
   23302:	7025      	strb	r5, [r4, #0]
   23304:	4630      	mov	r0, r6
   23306:	4629      	mov	r1, r5
   23308:	462a      	mov	r2, r5
   2330a:	462b      	mov	r3, r5
   2330c:	df03      	svc	3
   2330e:	2108      	movs	r1, #8
   23310:	4630      	mov	r0, r6
   23312:	462a      	mov	r2, r5
   23314:	462b      	mov	r3, r5
   23316:	df04      	svc	4
   23318:	e7e1      	b.n	232de <_ZN18complex_no_dynamic3app17hcc46a6da55d99d62E+0x66>
   2331a:	d4d4      	bmi.n	232c6 <_ZN18complex_no_dynamic3app17hcc46a6da55d99d62E+0x4e>

0002331c <_ZN18complex_no_dynamic3app17hcf632f7c5254931bE>:
   2331c:	b5f0      	push	{r4, r5, r6, r7, lr}
   2331e:	af03      	add	r7, sp, #12
   23320:	b0ab      	sub	sp, #172	@ 0xac
   23322:	4604      	mov	r4, r0
   23324:	ad01      	add	r5, sp, #4
   23326:	2659      	movs	r6, #89	@ 0x59
   23328:	4628      	mov	r0, r5
   2332a:	4632      	mov	r2, r6
   2332c:	f003 fdc7 	bl	26ebe <__aeabi_memcpy>
   23330:	a818      	add	r0, sp, #96	@ 0x60
   23332:	214a      	movs	r1, #74	@ 0x4a
   23334:	f003 fc16 	bl	26b64 <__aeabi_memclr4>
   23338:	4821      	ldr	r0, [pc, #132]	@ (233c0 <_ZN18complex_no_dynamic3app17hcf632f7c5254931bE+0xa4>)
   2333a:	2100      	movs	r1, #0
   2333c:	462a      	mov	r2, r5
   2333e:	4633      	mov	r3, r6
   23340:	df04      	svc	4
   23342:	2802      	cmp	r0, #2
   23344:	d00e      	beq.n	23364 <_ZN18complex_no_dynamic3app17hcf632f7c5254931bE+0x48>
   23346:	481e      	ldr	r0, [pc, #120]	@ (233c0 <_ZN18complex_no_dynamic3app17hcf632f7c5254931bE+0xa4>)
   23348:	2104      	movs	r1, #4
   2334a:	aa18      	add	r2, sp, #96	@ 0x60
   2334c:	234a      	movs	r3, #74	@ 0x4a
   2334e:	df03      	svc	3
   23350:	2802      	cmp	r0, #2
   23352:	d007      	beq.n	23364 <_ZN18complex_no_dynamic3app17hcf632f7c5254931bE+0x48>
   23354:	481a      	ldr	r0, [pc, #104]	@ (233c0 <_ZN18complex_no_dynamic3app17hcf632f7c5254931bE+0xa4>)
   23356:	2204      	movs	r2, #4
   23358:	2500      	movs	r5, #0
   2335a:	4629      	mov	r1, r5
   2335c:	462b      	mov	r3, r5
   2335e:	df02      	svc	2
   23360:	287f      	cmp	r0, #127	@ 0x7f
   23362:	d810      	bhi.n	23386 <_ZN18complex_no_dynamic3app17hcf632f7c5254931bE+0x6a>
   23364:	2001      	movs	r0, #1
   23366:	7020      	strb	r0, [r4, #0]
   23368:	6061      	str	r1, [r4, #4]
   2336a:	4c15      	ldr	r4, [pc, #84]	@ (233c0 <_ZN18complex_no_dynamic3app17hcf632f7c5254931bE+0xa4>)
   2336c:	2104      	movs	r1, #4
   2336e:	2500      	movs	r5, #0
   23370:	4620      	mov	r0, r4
   23372:	462a      	mov	r2, r5
   23374:	462b      	mov	r3, r5
   23376:	df03      	svc	3
   23378:	4620      	mov	r0, r4
   2337a:	4629      	mov	r1, r5
   2337c:	462a      	mov	r2, r5
   2337e:	462b      	mov	r3, r5
   23380:	df04      	svc	4
   23382:	b02b      	add	sp, #172	@ 0xac
   23384:	bdf0      	pop	{r4, r5, r6, r7, pc}
   23386:	480e      	ldr	r0, [pc, #56]	@ (233c0 <_ZN18complex_no_dynamic3app17hcf632f7c5254931bE+0xa4>)
   23388:	2604      	movs	r6, #4
   2338a:	4631      	mov	r1, r6
   2338c:	462a      	mov	r2, r5
   2338e:	462b      	mov	r3, r5
   23390:	df03      	svc	3
   23392:	480b      	ldr	r0, [pc, #44]	@ (233c0 <_ZN18complex_no_dynamic3app17hcf632f7c5254931bE+0xa4>)
   23394:	4631      	mov	r1, r6
   23396:	462a      	mov	r2, r5
   23398:	462b      	mov	r3, r5
   2339a:	df03      	svc	3
   2339c:	1c60      	adds	r0, r4, #1
   2339e:	a918      	add	r1, sp, #96	@ 0x60
   233a0:	224a      	movs	r2, #74	@ 0x4a
   233a2:	f003 fd8c 	bl	26ebe <__aeabi_memcpy>
   233a6:	7025      	strb	r5, [r4, #0]
   233a8:	4c05      	ldr	r4, [pc, #20]	@ (233c0 <_ZN18complex_no_dynamic3app17hcf632f7c5254931bE+0xa4>)
   233aa:	4620      	mov	r0, r4
   233ac:	4631      	mov	r1, r6
   233ae:	462a      	mov	r2, r5
   233b0:	462b      	mov	r3, r5
   233b2:	df03      	svc	3
   233b4:	4620      	mov	r0, r4
   233b6:	4629      	mov	r1, r5
   233b8:	462a      	mov	r2, r5
   233ba:	462b      	mov	r3, r5
   233bc:	df04      	svc	4
   233be:	e7e0      	b.n	23382 <_ZN18complex_no_dynamic3app17hcf632f7c5254931bE+0x66>
   233c0:	00001484 	.word	0x00001484

000233c4 <_ZN18complex_no_dynamic3app17hd3129bb080f5adceE>:
   233c4:	b5f0      	push	{r4, r5, r6, r7, lr}
   233c6:	af03      	add	r7, sp, #12
   233c8:	b08f      	sub	sp, #60	@ 0x3c
   233ca:	4604      	mov	r4, r0
   233cc:	ad01      	add	r5, sp, #4
   233ce:	2618      	movs	r6, #24
   233d0:	4628      	mov	r0, r5
   233d2:	4632      	mov	r2, r6
   233d4:	f003 fd73 	bl	26ebe <__aeabi_memcpy>
   233d8:	a807      	add	r0, sp, #28
   233da:	211e      	movs	r1, #30
   233dc:	f003 fbc2 	bl	26b64 <__aeabi_memclr4>
   233e0:	4821      	ldr	r0, [pc, #132]	@ (23468 <_ZN18complex_no_dynamic3app17hd3129bb080f5adceE+0xa4>)
   233e2:	2109      	movs	r1, #9
   233e4:	462a      	mov	r2, r5
   233e6:	4633      	mov	r3, r6
   233e8:	df04      	svc	4
   233ea:	2802      	cmp	r0, #2
   233ec:	d00e      	beq.n	2340c <_ZN18complex_no_dynamic3app17hd3129bb080f5adceE+0x48>
   233ee:	481e      	ldr	r0, [pc, #120]	@ (23468 <_ZN18complex_no_dynamic3app17hd3129bb080f5adceE+0xa4>)
   233f0:	2105      	movs	r1, #5
   233f2:	aa07      	add	r2, sp, #28
   233f4:	231e      	movs	r3, #30
   233f6:	df03      	svc	3
   233f8:	2802      	cmp	r0, #2
   233fa:	d007      	beq.n	2340c <_ZN18complex_no_dynamic3app17hd3129bb080f5adceE+0x48>
   233fc:	481a      	ldr	r0, [pc, #104]	@ (23468 <_ZN18complex_no_dynamic3app17hd3129bb080f5adceE+0xa4>)
   233fe:	2109      	movs	r1, #9
   23400:	2205      	movs	r2, #5
   23402:	2500      	movs	r5, #0
   23404:	462b      	mov	r3, r5
   23406:	df02      	svc	2
   23408:	287f      	cmp	r0, #127	@ 0x7f
   2340a:	d810      	bhi.n	2342e <_ZN18complex_no_dynamic3app17hd3129bb080f5adceE+0x6a>
   2340c:	2001      	movs	r0, #1
   2340e:	7020      	strb	r0, [r4, #0]
   23410:	6061      	str	r1, [r4, #4]
   23412:	4c15      	ldr	r4, [pc, #84]	@ (23468 <_ZN18complex_no_dynamic3app17hd3129bb080f5adceE+0xa4>)
   23414:	2105      	movs	r1, #5
   23416:	2500      	movs	r5, #0
   23418:	4620      	mov	r0, r4
   2341a:	462a      	mov	r2, r5
   2341c:	462b      	mov	r3, r5
   2341e:	df03      	svc	3
   23420:	2109      	movs	r1, #9
   23422:	4620      	mov	r0, r4
   23424:	462a      	mov	r2, r5
   23426:	462b      	mov	r3, r5
   23428:	df04      	svc	4
   2342a:	b00f      	add	sp, #60	@ 0x3c
   2342c:	bdf0      	pop	{r4, r5, r6, r7, pc}
   2342e:	480e      	ldr	r0, [pc, #56]	@ (23468 <_ZN18complex_no_dynamic3app17hd3129bb080f5adceE+0xa4>)
   23430:	2605      	movs	r6, #5
   23432:	4631      	mov	r1, r6
   23434:	462a      	mov	r2, r5
   23436:	462b      	mov	r3, r5
   23438:	df03      	svc	3
   2343a:	480b      	ldr	r0, [pc, #44]	@ (23468 <_ZN18complex_no_dynamic3app17hd3129bb080f5adceE+0xa4>)
   2343c:	4631      	mov	r1, r6
   2343e:	462a      	mov	r2, r5
   23440:	462b      	mov	r3, r5
   23442:	df03      	svc	3
   23444:	1c60      	adds	r0, r4, #1
   23446:	a907      	add	r1, sp, #28
   23448:	221e      	movs	r2, #30
   2344a:	f003 fd38 	bl	26ebe <__aeabi_memcpy>
   2344e:	7025      	strb	r5, [r4, #0]
   23450:	4c05      	ldr	r4, [pc, #20]	@ (23468 <_ZN18complex_no_dynamic3app17hd3129bb080f5adceE+0xa4>)
   23452:	4620      	mov	r0, r4
   23454:	4631      	mov	r1, r6
   23456:	462a      	mov	r2, r5
   23458:	462b      	mov	r3, r5
   2345a:	df03      	svc	3
   2345c:	2109      	movs	r1, #9
   2345e:	4620      	mov	r0, r4
   23460:	462a      	mov	r2, r5
   23462:	462b      	mov	r3, r5
   23464:	df04      	svc	4
   23466:	e7e0      	b.n	2342a <_ZN18complex_no_dynamic3app17hd3129bb080f5adceE+0x66>
   23468:	00000cbb 	.word	0x00000cbb

0002346c <_ZN18complex_no_dynamic3app17hd9362c0f35060bedE>:
   2346c:	b5f0      	push	{r4, r5, r6, r7, lr}
   2346e:	af03      	add	r7, sp, #12
   23470:	b091      	sub	sp, #68	@ 0x44
   23472:	4604      	mov	r4, r0
   23474:	ad01      	add	r5, sp, #4
   23476:	2614      	movs	r6, #20
   23478:	4628      	mov	r0, r5
   2347a:	4632      	mov	r2, r6
   2347c:	f003 fd1f 	bl	26ebe <__aeabi_memcpy>
   23480:	a806      	add	r0, sp, #24
   23482:	212b      	movs	r1, #43	@ 0x2b
   23484:	f003 fb6e 	bl	26b64 <__aeabi_memclr4>
   23488:	4821      	ldr	r0, [pc, #132]	@ (23510 <_ZN18complex_no_dynamic3app17hd9362c0f35060bedE+0xa4>)
   2348a:	2108      	movs	r1, #8
   2348c:	462a      	mov	r2, r5
   2348e:	4633      	mov	r3, r6
   23490:	df04      	svc	4
   23492:	2802      	cmp	r0, #2
   23494:	d00e      	beq.n	234b4 <_ZN18complex_no_dynamic3app17hd9362c0f35060bedE+0x48>
   23496:	481e      	ldr	r0, [pc, #120]	@ (23510 <_ZN18complex_no_dynamic3app17hd9362c0f35060bedE+0xa4>)
   23498:	2104      	movs	r1, #4
   2349a:	aa06      	add	r2, sp, #24
   2349c:	232b      	movs	r3, #43	@ 0x2b
   2349e:	df03      	svc	3
   234a0:	2802      	cmp	r0, #2
   234a2:	d007      	beq.n	234b4 <_ZN18complex_no_dynamic3app17hd9362c0f35060bedE+0x48>
   234a4:	481a      	ldr	r0, [pc, #104]	@ (23510 <_ZN18complex_no_dynamic3app17hd9362c0f35060bedE+0xa4>)
   234a6:	2108      	movs	r1, #8
   234a8:	2204      	movs	r2, #4
   234aa:	2500      	movs	r5, #0
   234ac:	462b      	mov	r3, r5
   234ae:	df02      	svc	2
   234b0:	287f      	cmp	r0, #127	@ 0x7f
   234b2:	d810      	bhi.n	234d6 <_ZN18complex_no_dynamic3app17hd9362c0f35060bedE+0x6a>
   234b4:	2001      	movs	r0, #1
   234b6:	7020      	strb	r0, [r4, #0]
   234b8:	6061      	str	r1, [r4, #4]
   234ba:	4c15      	ldr	r4, [pc, #84]	@ (23510 <_ZN18complex_no_dynamic3app17hd9362c0f35060bedE+0xa4>)
   234bc:	2104      	movs	r1, #4
   234be:	2500      	movs	r5, #0
   234c0:	4620      	mov	r0, r4
   234c2:	462a      	mov	r2, r5
   234c4:	462b      	mov	r3, r5
   234c6:	df03      	svc	3
   234c8:	2108      	movs	r1, #8
   234ca:	4620      	mov	r0, r4
   234cc:	462a      	mov	r2, r5
   234ce:	462b      	mov	r3, r5
   234d0:	df04      	svc	4
   234d2:	b011      	add	sp, #68	@ 0x44
   234d4:	bdf0      	pop	{r4, r5, r6, r7, pc}
   234d6:	480e      	ldr	r0, [pc, #56]	@ (23510 <_ZN18complex_no_dynamic3app17hd9362c0f35060bedE+0xa4>)
   234d8:	2604      	movs	r6, #4
   234da:	4631      	mov	r1, r6
   234dc:	462a      	mov	r2, r5
   234de:	462b      	mov	r3, r5
   234e0:	df03      	svc	3
   234e2:	480b      	ldr	r0, [pc, #44]	@ (23510 <_ZN18complex_no_dynamic3app17hd9362c0f35060bedE+0xa4>)
   234e4:	4631      	mov	r1, r6
   234e6:	462a      	mov	r2, r5
   234e8:	462b      	mov	r3, r5
   234ea:	df03      	svc	3
   234ec:	1c60      	adds	r0, r4, #1
   234ee:	a906      	add	r1, sp, #24
   234f0:	222b      	movs	r2, #43	@ 0x2b
   234f2:	f003 fce4 	bl	26ebe <__aeabi_memcpy>
   234f6:	7025      	strb	r5, [r4, #0]
   234f8:	4c05      	ldr	r4, [pc, #20]	@ (23510 <_ZN18complex_no_dynamic3app17hd9362c0f35060bedE+0xa4>)
   234fa:	4620      	mov	r0, r4
   234fc:	4631      	mov	r1, r6
   234fe:	462a      	mov	r2, r5
   23500:	462b      	mov	r3, r5
   23502:	df03      	svc	3
   23504:	2108      	movs	r1, #8
   23506:	4620      	mov	r0, r4
   23508:	462a      	mov	r2, r5
   2350a:	462b      	mov	r3, r5
   2350c:	df04      	svc	4
   2350e:	e7e0      	b.n	234d2 <_ZN18complex_no_dynamic3app17hd9362c0f35060bedE+0x66>
   23510:	0000239f 	.word	0x0000239f

00023514 <_ZN18complex_no_dynamic3app17hdbb63b7fd1643448E>:
   23514:	b5f0      	push	{r4, r5, r6, r7, lr}
   23516:	af03      	add	r7, sp, #12
   23518:	b0a3      	sub	sp, #140	@ 0x8c
   2351a:	4604      	mov	r4, r0
   2351c:	466d      	mov	r5, sp
   2351e:	264d      	movs	r6, #77	@ 0x4d
   23520:	4628      	mov	r0, r5
   23522:	4632      	mov	r2, r6
   23524:	f003 fccb 	bl	26ebe <__aeabi_memcpy>
   23528:	a814      	add	r0, sp, #80	@ 0x50
   2352a:	213c      	movs	r1, #60	@ 0x3c
   2352c:	f003 fb1a 	bl	26b64 <__aeabi_memclr4>
   23530:	4821      	ldr	r0, [pc, #132]	@ (235b8 <_ZN18complex_no_dynamic3app17hdbb63b7fd1643448E+0xa4>)
   23532:	2104      	movs	r1, #4
   23534:	462a      	mov	r2, r5
   23536:	4633      	mov	r3, r6
   23538:	df04      	svc	4
   2353a:	2802      	cmp	r0, #2
   2353c:	d00e      	beq.n	2355c <_ZN18complex_no_dynamic3app17hdbb63b7fd1643448E+0x48>
   2353e:	481e      	ldr	r0, [pc, #120]	@ (235b8 <_ZN18complex_no_dynamic3app17hdbb63b7fd1643448E+0xa4>)
   23540:	2109      	movs	r1, #9
   23542:	aa14      	add	r2, sp, #80	@ 0x50
   23544:	233c      	movs	r3, #60	@ 0x3c
   23546:	df03      	svc	3
   23548:	2802      	cmp	r0, #2
   2354a:	d007      	beq.n	2355c <_ZN18complex_no_dynamic3app17hdbb63b7fd1643448E+0x48>
   2354c:	481a      	ldr	r0, [pc, #104]	@ (235b8 <_ZN18complex_no_dynamic3app17hdbb63b7fd1643448E+0xa4>)
   2354e:	2104      	movs	r1, #4
   23550:	2209      	movs	r2, #9
   23552:	2500      	movs	r5, #0
   23554:	462b      	mov	r3, r5
   23556:	df02      	svc	2
   23558:	287f      	cmp	r0, #127	@ 0x7f
   2355a:	d810      	bhi.n	2357e <_ZN18complex_no_dynamic3app17hdbb63b7fd1643448E+0x6a>
   2355c:	2001      	movs	r0, #1
   2355e:	7020      	strb	r0, [r4, #0]
   23560:	6061      	str	r1, [r4, #4]
   23562:	4c15      	ldr	r4, [pc, #84]	@ (235b8 <_ZN18complex_no_dynamic3app17hdbb63b7fd1643448E+0xa4>)
   23564:	2109      	movs	r1, #9
   23566:	2500      	movs	r5, #0
   23568:	4620      	mov	r0, r4
   2356a:	462a      	mov	r2, r5
   2356c:	462b      	mov	r3, r5
   2356e:	df03      	svc	3
   23570:	2104      	movs	r1, #4
   23572:	4620      	mov	r0, r4
   23574:	462a      	mov	r2, r5
   23576:	462b      	mov	r3, r5
   23578:	df04      	svc	4
   2357a:	b023      	add	sp, #140	@ 0x8c
   2357c:	bdf0      	pop	{r4, r5, r6, r7, pc}
   2357e:	480e      	ldr	r0, [pc, #56]	@ (235b8 <_ZN18complex_no_dynamic3app17hdbb63b7fd1643448E+0xa4>)
   23580:	2609      	movs	r6, #9
   23582:	4631      	mov	r1, r6
   23584:	462a      	mov	r2, r5
   23586:	462b      	mov	r3, r5
   23588:	df03      	svc	3
   2358a:	480b      	ldr	r0, [pc, #44]	@ (235b8 <_ZN18complex_no_dynamic3app17hdbb63b7fd1643448E+0xa4>)
   2358c:	4631      	mov	r1, r6
   2358e:	462a      	mov	r2, r5
   23590:	462b      	mov	r3, r5
   23592:	df03      	svc	3
   23594:	1c60      	adds	r0, r4, #1
   23596:	a914      	add	r1, sp, #80	@ 0x50
   23598:	223c      	movs	r2, #60	@ 0x3c
   2359a:	f003 fc90 	bl	26ebe <__aeabi_memcpy>
   2359e:	7025      	strb	r5, [r4, #0]
   235a0:	4c05      	ldr	r4, [pc, #20]	@ (235b8 <_ZN18complex_no_dynamic3app17hdbb63b7fd1643448E+0xa4>)
   235a2:	4620      	mov	r0, r4
   235a4:	4631      	mov	r1, r6
   235a6:	462a      	mov	r2, r5
   235a8:	462b      	mov	r3, r5
   235aa:	df03      	svc	3
   235ac:	2104      	movs	r1, #4
   235ae:	4620      	mov	r0, r4
   235b0:	462a      	mov	r2, r5
   235b2:	462b      	mov	r3, r5
   235b4:	df04      	svc	4
   235b6:	e7e0      	b.n	2357a <_ZN18complex_no_dynamic3app17hdbb63b7fd1643448E+0x66>
   235b8:	000021ab 	.word	0x000021ab

000235bc <_ZN18complex_no_dynamic3app17hdcf7ac047eaf13c8E>:
   235bc:	b5f0      	push	{r4, r5, r6, r7, lr}
   235be:	af03      	add	r7, sp, #12
   235c0:	b093      	sub	sp, #76	@ 0x4c
   235c2:	4604      	mov	r4, r0
   235c4:	466d      	mov	r5, sp
   235c6:	262b      	movs	r6, #43	@ 0x2b
   235c8:	4628      	mov	r0, r5
   235ca:	4632      	mov	r2, r6
   235cc:	f003 fc77 	bl	26ebe <__aeabi_memcpy>
   235d0:	a80b      	add	r0, sp, #44	@ 0x2c
   235d2:	211e      	movs	r1, #30
   235d4:	f003 fac6 	bl	26b64 <__aeabi_memclr4>
   235d8:	4821      	ldr	r0, [pc, #132]	@ (23660 <_ZN18complex_no_dynamic3app17hdcf7ac047eaf13c8E+0xa4>)
   235da:	2107      	movs	r1, #7
   235dc:	462a      	mov	r2, r5
   235de:	4633      	mov	r3, r6
   235e0:	df04      	svc	4
   235e2:	2802      	cmp	r0, #2
   235e4:	d00e      	beq.n	23604 <_ZN18complex_no_dynamic3app17hdcf7ac047eaf13c8E+0x48>
   235e6:	481e      	ldr	r0, [pc, #120]	@ (23660 <_ZN18complex_no_dynamic3app17hdcf7ac047eaf13c8E+0xa4>)
   235e8:	2108      	movs	r1, #8
   235ea:	aa0b      	add	r2, sp, #44	@ 0x2c
   235ec:	231e      	movs	r3, #30
   235ee:	df03      	svc	3
   235f0:	2802      	cmp	r0, #2
   235f2:	d007      	beq.n	23604 <_ZN18complex_no_dynamic3app17hdcf7ac047eaf13c8E+0x48>
   235f4:	481a      	ldr	r0, [pc, #104]	@ (23660 <_ZN18complex_no_dynamic3app17hdcf7ac047eaf13c8E+0xa4>)
   235f6:	2107      	movs	r1, #7
   235f8:	2208      	movs	r2, #8
   235fa:	2500      	movs	r5, #0
   235fc:	462b      	mov	r3, r5
   235fe:	df02      	svc	2
   23600:	287f      	cmp	r0, #127	@ 0x7f
   23602:	d810      	bhi.n	23626 <_ZN18complex_no_dynamic3app17hdcf7ac047eaf13c8E+0x6a>
   23604:	2001      	movs	r0, #1
   23606:	7020      	strb	r0, [r4, #0]
   23608:	6061      	str	r1, [r4, #4]
   2360a:	4c15      	ldr	r4, [pc, #84]	@ (23660 <_ZN18complex_no_dynamic3app17hdcf7ac047eaf13c8E+0xa4>)
   2360c:	2108      	movs	r1, #8
   2360e:	2500      	movs	r5, #0
   23610:	4620      	mov	r0, r4
   23612:	462a      	mov	r2, r5
   23614:	462b      	mov	r3, r5
   23616:	df03      	svc	3
   23618:	2107      	movs	r1, #7
   2361a:	4620      	mov	r0, r4
   2361c:	462a      	mov	r2, r5
   2361e:	462b      	mov	r3, r5
   23620:	df04      	svc	4
   23622:	b013      	add	sp, #76	@ 0x4c
   23624:	bdf0      	pop	{r4, r5, r6, r7, pc}
   23626:	480e      	ldr	r0, [pc, #56]	@ (23660 <_ZN18complex_no_dynamic3app17hdcf7ac047eaf13c8E+0xa4>)
   23628:	2608      	movs	r6, #8
   2362a:	4631      	mov	r1, r6
   2362c:	462a      	mov	r2, r5
   2362e:	462b      	mov	r3, r5
   23630:	df03      	svc	3
   23632:	480b      	ldr	r0, [pc, #44]	@ (23660 <_ZN18complex_no_dynamic3app17hdcf7ac047eaf13c8E+0xa4>)
   23634:	4631      	mov	r1, r6
   23636:	462a      	mov	r2, r5
   23638:	462b      	mov	r3, r5
   2363a:	df03      	svc	3
   2363c:	1c60      	adds	r0, r4, #1
   2363e:	a90b      	add	r1, sp, #44	@ 0x2c
   23640:	221e      	movs	r2, #30
   23642:	f003 fc3c 	bl	26ebe <__aeabi_memcpy>
   23646:	7025      	strb	r5, [r4, #0]
   23648:	4c05      	ldr	r4, [pc, #20]	@ (23660 <_ZN18complex_no_dynamic3app17hdcf7ac047eaf13c8E+0xa4>)
   2364a:	4620      	mov	r0, r4
   2364c:	4631      	mov	r1, r6
   2364e:	462a      	mov	r2, r5
   23650:	462b      	mov	r3, r5
   23652:	df03      	svc	3
   23654:	2107      	movs	r1, #7
   23656:	4620      	mov	r0, r4
   23658:	462a      	mov	r2, r5
   2365a:	462b      	mov	r3, r5
   2365c:	df04      	svc	4
   2365e:	e7e0      	b.n	23622 <_ZN18complex_no_dynamic3app17hdcf7ac047eaf13c8E+0x66>
   23660:	000007e3 	.word	0x000007e3

00023664 <_ZN18complex_no_dynamic3app17hde416a1e17f27645E>:
   23664:	b5f0      	push	{r4, r5, r6, r7, lr}
   23666:	af03      	add	r7, sp, #12
   23668:	b097      	sub	sp, #92	@ 0x5c
   2366a:	4604      	mov	r4, r0
   2366c:	466d      	mov	r5, sp
   2366e:	263f      	movs	r6, #63	@ 0x3f
   23670:	4628      	mov	r0, r5
   23672:	4632      	mov	r2, r6
   23674:	f003 fc23 	bl	26ebe <__aeabi_memcpy>
   23678:	a810      	add	r0, sp, #64	@ 0x40
   2367a:	211c      	movs	r1, #28
   2367c:	f003 fa72 	bl	26b64 <__aeabi_memclr4>
   23680:	4821      	ldr	r0, [pc, #132]	@ (23708 <_ZN18complex_no_dynamic3app17hde416a1e17f27645E+0xa4>)
   23682:	2105      	movs	r1, #5
   23684:	462a      	mov	r2, r5
   23686:	4633      	mov	r3, r6
   23688:	df04      	svc	4
   2368a:	2802      	cmp	r0, #2
   2368c:	d00e      	beq.n	236ac <_ZN18complex_no_dynamic3app17hde416a1e17f27645E+0x48>
   2368e:	481e      	ldr	r0, [pc, #120]	@ (23708 <_ZN18complex_no_dynamic3app17hde416a1e17f27645E+0xa4>)
   23690:	2109      	movs	r1, #9
   23692:	aa10      	add	r2, sp, #64	@ 0x40
   23694:	231c      	movs	r3, #28
   23696:	df03      	svc	3
   23698:	2802      	cmp	r0, #2
   2369a:	d007      	beq.n	236ac <_ZN18complex_no_dynamic3app17hde416a1e17f27645E+0x48>
   2369c:	481a      	ldr	r0, [pc, #104]	@ (23708 <_ZN18complex_no_dynamic3app17hde416a1e17f27645E+0xa4>)
   2369e:	2105      	movs	r1, #5
   236a0:	2209      	movs	r2, #9
   236a2:	2500      	movs	r5, #0
   236a4:	462b      	mov	r3, r5
   236a6:	df02      	svc	2
   236a8:	287f      	cmp	r0, #127	@ 0x7f
   236aa:	d810      	bhi.n	236ce <_ZN18complex_no_dynamic3app17hde416a1e17f27645E+0x6a>
   236ac:	2001      	movs	r0, #1
   236ae:	7020      	strb	r0, [r4, #0]
   236b0:	6061      	str	r1, [r4, #4]
   236b2:	4c15      	ldr	r4, [pc, #84]	@ (23708 <_ZN18complex_no_dynamic3app17hde416a1e17f27645E+0xa4>)
   236b4:	2109      	movs	r1, #9
   236b6:	2500      	movs	r5, #0
   236b8:	4620      	mov	r0, r4
   236ba:	462a      	mov	r2, r5
   236bc:	462b      	mov	r3, r5
   236be:	df03      	svc	3
   236c0:	2105      	movs	r1, #5
   236c2:	4620      	mov	r0, r4
   236c4:	462a      	mov	r2, r5
   236c6:	462b      	mov	r3, r5
   236c8:	df04      	svc	4
   236ca:	b017      	add	sp, #92	@ 0x5c
   236cc:	bdf0      	pop	{r4, r5, r6, r7, pc}
   236ce:	480e      	ldr	r0, [pc, #56]	@ (23708 <_ZN18complex_no_dynamic3app17hde416a1e17f27645E+0xa4>)
   236d0:	2609      	movs	r6, #9
   236d2:	4631      	mov	r1, r6
   236d4:	462a      	mov	r2, r5
   236d6:	462b      	mov	r3, r5
   236d8:	df03      	svc	3
   236da:	480b      	ldr	r0, [pc, #44]	@ (23708 <_ZN18complex_no_dynamic3app17hde416a1e17f27645E+0xa4>)
   236dc:	4631      	mov	r1, r6
   236de:	462a      	mov	r2, r5
   236e0:	462b      	mov	r3, r5
   236e2:	df03      	svc	3
   236e4:	1c60      	adds	r0, r4, #1
   236e6:	a910      	add	r1, sp, #64	@ 0x40
   236e8:	221c      	movs	r2, #28
   236ea:	f003 fbe8 	bl	26ebe <__aeabi_memcpy>
   236ee:	7025      	strb	r5, [r4, #0]
   236f0:	4c05      	ldr	r4, [pc, #20]	@ (23708 <_ZN18complex_no_dynamic3app17hde416a1e17f27645E+0xa4>)
   236f2:	4620      	mov	r0, r4
   236f4:	4631      	mov	r1, r6
   236f6:	462a      	mov	r2, r5
   236f8:	462b      	mov	r3, r5
   236fa:	df03      	svc	3
   236fc:	2105      	movs	r1, #5
   236fe:	4620      	mov	r0, r4
   23700:	462a      	mov	r2, r5
   23702:	462b      	mov	r3, r5
   23704:	df04      	svc	4
   23706:	e7e0      	b.n	236ca <_ZN18complex_no_dynamic3app17hde416a1e17f27645E+0x66>
   23708:	00001694 	.word	0x00001694

0002370c <_ZN18complex_no_dynamic3app17hdec957515b711266E>:
   2370c:	b5f0      	push	{r4, r5, r6, r7, lr}
   2370e:	af03      	add	r7, sp, #12
   23710:	b09b      	sub	sp, #108	@ 0x6c
   23712:	4604      	mov	r4, r0
   23714:	ad01      	add	r5, sp, #4
   23716:	2632      	movs	r6, #50	@ 0x32
   23718:	4628      	mov	r0, r5
   2371a:	4632      	mov	r2, r6
   2371c:	f003 fbcf 	bl	26ebe <__aeabi_memcpy>
   23720:	a80e      	add	r0, sp, #56	@ 0x38
   23722:	4631      	mov	r1, r6
   23724:	f003 fa1e 	bl	26b64 <__aeabi_memclr4>
   23728:	4821      	ldr	r0, [pc, #132]	@ (237b0 <_ZN18complex_no_dynamic3app17hdec957515b711266E+0xa4>)
   2372a:	2103      	movs	r1, #3
   2372c:	462a      	mov	r2, r5
   2372e:	4633      	mov	r3, r6
   23730:	df04      	svc	4
   23732:	2802      	cmp	r0, #2
   23734:	d00e      	beq.n	23754 <_ZN18complex_no_dynamic3app17hdec957515b711266E+0x48>
   23736:	481e      	ldr	r0, [pc, #120]	@ (237b0 <_ZN18complex_no_dynamic3app17hdec957515b711266E+0xa4>)
   23738:	2101      	movs	r1, #1
   2373a:	aa0e      	add	r2, sp, #56	@ 0x38
   2373c:	2332      	movs	r3, #50	@ 0x32
   2373e:	df03      	svc	3
   23740:	2802      	cmp	r0, #2
   23742:	d007      	beq.n	23754 <_ZN18complex_no_dynamic3app17hdec957515b711266E+0x48>
   23744:	481a      	ldr	r0, [pc, #104]	@ (237b0 <_ZN18complex_no_dynamic3app17hdec957515b711266E+0xa4>)
   23746:	2103      	movs	r1, #3
   23748:	2201      	movs	r2, #1
   2374a:	2500      	movs	r5, #0
   2374c:	462b      	mov	r3, r5
   2374e:	df02      	svc	2
   23750:	287f      	cmp	r0, #127	@ 0x7f
   23752:	d810      	bhi.n	23776 <_ZN18complex_no_dynamic3app17hdec957515b711266E+0x6a>
   23754:	2201      	movs	r2, #1
   23756:	7022      	strb	r2, [r4, #0]
   23758:	6061      	str	r1, [r4, #4]
   2375a:	4c15      	ldr	r4, [pc, #84]	@ (237b0 <_ZN18complex_no_dynamic3app17hdec957515b711266E+0xa4>)
   2375c:	2500      	movs	r5, #0
   2375e:	4620      	mov	r0, r4
   23760:	4611      	mov	r1, r2
   23762:	462a      	mov	r2, r5
   23764:	462b      	mov	r3, r5
   23766:	df03      	svc	3
   23768:	2103      	movs	r1, #3
   2376a:	4620      	mov	r0, r4
   2376c:	462a      	mov	r2, r5
   2376e:	462b      	mov	r3, r5
   23770:	df04      	svc	4
   23772:	b01b      	add	sp, #108	@ 0x6c
   23774:	bdf0      	pop	{r4, r5, r6, r7, pc}
   23776:	480e      	ldr	r0, [pc, #56]	@ (237b0 <_ZN18complex_no_dynamic3app17hdec957515b711266E+0xa4>)
   23778:	2601      	movs	r6, #1
   2377a:	4631      	mov	r1, r6
   2377c:	462a      	mov	r2, r5
   2377e:	462b      	mov	r3, r5
   23780:	df03      	svc	3
   23782:	480b      	ldr	r0, [pc, #44]	@ (237b0 <_ZN18complex_no_dynamic3app17hdec957515b711266E+0xa4>)
   23784:	4631      	mov	r1, r6
   23786:	462a      	mov	r2, r5
   23788:	462b      	mov	r3, r5
   2378a:	df03      	svc	3
   2378c:	1c60      	adds	r0, r4, #1
   2378e:	a90e      	add	r1, sp, #56	@ 0x38
   23790:	2232      	movs	r2, #50	@ 0x32
   23792:	f003 fb94 	bl	26ebe <__aeabi_memcpy>
   23796:	7025      	strb	r5, [r4, #0]
   23798:	4c05      	ldr	r4, [pc, #20]	@ (237b0 <_ZN18complex_no_dynamic3app17hdec957515b711266E+0xa4>)
   2379a:	4620      	mov	r0, r4
   2379c:	4631      	mov	r1, r6
   2379e:	462a      	mov	r2, r5
   237a0:	462b      	mov	r3, r5
   237a2:	df03      	svc	3
   237a4:	2103      	movs	r1, #3
   237a6:	4620      	mov	r0, r4
   237a8:	462a      	mov	r2, r5
   237aa:	462b      	mov	r3, r5
   237ac:	df04      	svc	4
   237ae:	e7e0      	b.n	23772 <_ZN18complex_no_dynamic3app17hdec957515b711266E+0x66>
   237b0:	00001f07 	.word	0x00001f07

000237b4 <_ZN18complex_no_dynamic3app17hdff7ba4e92883c59E>:
   237b4:	b5f0      	push	{r4, r5, r6, r7, lr}
   237b6:	af03      	add	r7, sp, #12
   237b8:	b093      	sub	sp, #76	@ 0x4c
   237ba:	9000      	str	r0, [sp, #0]
   237bc:	ae01      	add	r6, sp, #4
   237be:	2410      	movs	r4, #16
   237c0:	4630      	mov	r0, r6
   237c2:	4622      	mov	r2, r4
   237c4:	f003 fb7b 	bl	26ebe <__aeabi_memcpy>
   237c8:	a805      	add	r0, sp, #20
   237ca:	2136      	movs	r1, #54	@ 0x36
   237cc:	f003 f9ca 	bl	26b64 <__aeabi_memclr4>
   237d0:	4823      	ldr	r0, [pc, #140]	@ (23860 <_ZN18complex_no_dynamic3app17hdff7ba4e92883c59E+0xac>)
   237d2:	2501      	movs	r5, #1
   237d4:	4629      	mov	r1, r5
   237d6:	4632      	mov	r2, r6
   237d8:	4623      	mov	r3, r4
   237da:	df04      	svc	4
   237dc:	2802      	cmp	r0, #2
   237de:	d00e      	beq.n	237fe <_ZN18complex_no_dynamic3app17hdff7ba4e92883c59E+0x4a>
   237e0:	481f      	ldr	r0, [pc, #124]	@ (23860 <_ZN18complex_no_dynamic3app17hdff7ba4e92883c59E+0xac>)
   237e2:	2107      	movs	r1, #7
   237e4:	aa05      	add	r2, sp, #20
   237e6:	2336      	movs	r3, #54	@ 0x36
   237e8:	df03      	svc	3
   237ea:	2802      	cmp	r0, #2
   237ec:	d007      	beq.n	237fe <_ZN18complex_no_dynamic3app17hdff7ba4e92883c59E+0x4a>
   237ee:	481c      	ldr	r0, [pc, #112]	@ (23860 <_ZN18complex_no_dynamic3app17hdff7ba4e92883c59E+0xac>)
   237f0:	2101      	movs	r1, #1
   237f2:	2207      	movs	r2, #7
   237f4:	2600      	movs	r6, #0
   237f6:	4633      	mov	r3, r6
   237f8:	df02      	svc	2
   237fa:	287f      	cmp	r0, #127	@ 0x7f
   237fc:	d810      	bhi.n	23820 <_ZN18complex_no_dynamic3app17hdff7ba4e92883c59E+0x6c>
   237fe:	9800      	ldr	r0, [sp, #0]
   23800:	7005      	strb	r5, [r0, #0]
   23802:	6041      	str	r1, [r0, #4]
   23804:	4c16      	ldr	r4, [pc, #88]	@ (23860 <_ZN18complex_no_dynamic3app17hdff7ba4e92883c59E+0xac>)
   23806:	2107      	movs	r1, #7
   23808:	2600      	movs	r6, #0
   2380a:	4620      	mov	r0, r4
   2380c:	4632      	mov	r2, r6
   2380e:	4633      	mov	r3, r6
   23810:	df03      	svc	3
   23812:	4620      	mov	r0, r4
   23814:	4629      	mov	r1, r5
   23816:	4632      	mov	r2, r6
   23818:	4633      	mov	r3, r6
   2381a:	df04      	svc	4
   2381c:	b013      	add	sp, #76	@ 0x4c
   2381e:	bdf0      	pop	{r4, r5, r6, r7, pc}
   23820:	4c0f      	ldr	r4, [pc, #60]	@ (23860 <_ZN18complex_no_dynamic3app17hdff7ba4e92883c59E+0xac>)
   23822:	2507      	movs	r5, #7
   23824:	4620      	mov	r0, r4
   23826:	4629      	mov	r1, r5
   23828:	4632      	mov	r2, r6
   2382a:	4633      	mov	r3, r6
   2382c:	df03      	svc	3
   2382e:	4620      	mov	r0, r4
   23830:	4629      	mov	r1, r5
   23832:	4632      	mov	r2, r6
   23834:	4633      	mov	r3, r6
   23836:	df03      	svc	3
   23838:	9c00      	ldr	r4, [sp, #0]
   2383a:	1c60      	adds	r0, r4, #1
   2383c:	a905      	add	r1, sp, #20
   2383e:	2236      	movs	r2, #54	@ 0x36
   23840:	f003 fb3d 	bl	26ebe <__aeabi_memcpy>
   23844:	7026      	strb	r6, [r4, #0]
   23846:	4c06      	ldr	r4, [pc, #24]	@ (23860 <_ZN18complex_no_dynamic3app17hdff7ba4e92883c59E+0xac>)
   23848:	4620      	mov	r0, r4
   2384a:	4629      	mov	r1, r5
   2384c:	4632      	mov	r2, r6
   2384e:	4633      	mov	r3, r6
   23850:	df03      	svc	3
   23852:	2101      	movs	r1, #1
   23854:	4620      	mov	r0, r4
   23856:	4632      	mov	r2, r6
   23858:	4633      	mov	r3, r6
   2385a:	df04      	svc	4
   2385c:	e7de      	b.n	2381c <_ZN18complex_no_dynamic3app17hdff7ba4e92883c59E+0x68>
   2385e:	46c0      	nop			@ (mov r8, r8)
   23860:	00001989 	.word	0x00001989

00023864 <_ZN18complex_no_dynamic3app17he11f6f18033e536aE>:
   23864:	b5f0      	push	{r4, r5, r6, r7, lr}
   23866:	af03      	add	r7, sp, #12
   23868:	b0a9      	sub	sp, #164	@ 0xa4
   2386a:	4604      	mov	r4, r0
   2386c:	466d      	mov	r5, sp
   2386e:	2651      	movs	r6, #81	@ 0x51
   23870:	4628      	mov	r0, r5
   23872:	4632      	mov	r2, r6
   23874:	f003 fb23 	bl	26ebe <__aeabi_memcpy>
   23878:	a815      	add	r0, sp, #84	@ 0x54
   2387a:	214f      	movs	r1, #79	@ 0x4f
   2387c:	f003 f972 	bl	26b64 <__aeabi_memclr4>
   23880:	4821      	ldr	r0, [pc, #132]	@ (23908 <_ZN18complex_no_dynamic3app17he11f6f18033e536aE+0xa4>)
   23882:	2104      	movs	r1, #4
   23884:	462a      	mov	r2, r5
   23886:	4633      	mov	r3, r6
   23888:	df04      	svc	4
   2388a:	2802      	cmp	r0, #2
   2388c:	d00e      	beq.n	238ac <_ZN18complex_no_dynamic3app17he11f6f18033e536aE+0x48>
   2388e:	481e      	ldr	r0, [pc, #120]	@ (23908 <_ZN18complex_no_dynamic3app17he11f6f18033e536aE+0xa4>)
   23890:	2109      	movs	r1, #9
   23892:	aa15      	add	r2, sp, #84	@ 0x54
   23894:	234f      	movs	r3, #79	@ 0x4f
   23896:	df03      	svc	3
   23898:	2802      	cmp	r0, #2
   2389a:	d007      	beq.n	238ac <_ZN18complex_no_dynamic3app17he11f6f18033e536aE+0x48>
   2389c:	481a      	ldr	r0, [pc, #104]	@ (23908 <_ZN18complex_no_dynamic3app17he11f6f18033e536aE+0xa4>)
   2389e:	2104      	movs	r1, #4
   238a0:	2209      	movs	r2, #9
   238a2:	2500      	movs	r5, #0
   238a4:	462b      	mov	r3, r5
   238a6:	df02      	svc	2
   238a8:	287f      	cmp	r0, #127	@ 0x7f
   238aa:	d810      	bhi.n	238ce <_ZN18complex_no_dynamic3app17he11f6f18033e536aE+0x6a>
   238ac:	2001      	movs	r0, #1
   238ae:	7020      	strb	r0, [r4, #0]
   238b0:	6061      	str	r1, [r4, #4]
   238b2:	4c15      	ldr	r4, [pc, #84]	@ (23908 <_ZN18complex_no_dynamic3app17he11f6f18033e536aE+0xa4>)
   238b4:	2109      	movs	r1, #9
   238b6:	2500      	movs	r5, #0
   238b8:	4620      	mov	r0, r4
   238ba:	462a      	mov	r2, r5
   238bc:	462b      	mov	r3, r5
   238be:	df03      	svc	3
   238c0:	2104      	movs	r1, #4
   238c2:	4620      	mov	r0, r4
   238c4:	462a      	mov	r2, r5
   238c6:	462b      	mov	r3, r5
   238c8:	df04      	svc	4
   238ca:	b029      	add	sp, #164	@ 0xa4
   238cc:	bdf0      	pop	{r4, r5, r6, r7, pc}
   238ce:	480e      	ldr	r0, [pc, #56]	@ (23908 <_ZN18complex_no_dynamic3app17he11f6f18033e536aE+0xa4>)
   238d0:	2609      	movs	r6, #9
   238d2:	4631      	mov	r1, r6
   238d4:	462a      	mov	r2, r5
   238d6:	462b      	mov	r3, r5
   238d8:	df03      	svc	3
   238da:	480b      	ldr	r0, [pc, #44]	@ (23908 <_ZN18complex_no_dynamic3app17he11f6f18033e536aE+0xa4>)
   238dc:	4631      	mov	r1, r6
   238de:	462a      	mov	r2, r5
   238e0:	462b      	mov	r3, r5
   238e2:	df03      	svc	3
   238e4:	1c60      	adds	r0, r4, #1
   238e6:	a915      	add	r1, sp, #84	@ 0x54
   238e8:	224f      	movs	r2, #79	@ 0x4f
   238ea:	f003 fae8 	bl	26ebe <__aeabi_memcpy>
   238ee:	7025      	strb	r5, [r4, #0]
   238f0:	4c05      	ldr	r4, [pc, #20]	@ (23908 <_ZN18complex_no_dynamic3app17he11f6f18033e536aE+0xa4>)
   238f2:	4620      	mov	r0, r4
   238f4:	4631      	mov	r1, r6
   238f6:	462a      	mov	r2, r5
   238f8:	462b      	mov	r3, r5
   238fa:	df03      	svc	3
   238fc:	2104      	movs	r1, #4
   238fe:	4620      	mov	r0, r4
   23900:	462a      	mov	r2, r5
   23902:	462b      	mov	r3, r5
   23904:	df04      	svc	4
   23906:	e7e0      	b.n	238ca <_ZN18complex_no_dynamic3app17he11f6f18033e536aE+0x66>
   23908:	000020ee 	.word	0x000020ee

0002390c <_ZN18complex_no_dynamic3app17heb5f38ff79e45a3bE>:
   2390c:	b5f0      	push	{r4, r5, r6, r7, lr}
   2390e:	af03      	add	r7, sp, #12
   23910:	b0a9      	sub	sp, #164	@ 0xa4
   23912:	4604      	mov	r4, r0
   23914:	466d      	mov	r5, sp
   23916:	2651      	movs	r6, #81	@ 0x51
   23918:	4628      	mov	r0, r5
   2391a:	4632      	mov	r2, r6
   2391c:	f003 facf 	bl	26ebe <__aeabi_memcpy>
   23920:	a815      	add	r0, sp, #84	@ 0x54
   23922:	214f      	movs	r1, #79	@ 0x4f
   23924:	f003 f91e 	bl	26b64 <__aeabi_memclr4>
   23928:	4821      	ldr	r0, [pc, #132]	@ (239b0 <_ZN18complex_no_dynamic3app17heb5f38ff79e45a3bE+0xa4>)
   2392a:	2102      	movs	r1, #2
   2392c:	462a      	mov	r2, r5
   2392e:	4633      	mov	r3, r6
   23930:	df04      	svc	4
   23932:	2802      	cmp	r0, #2
   23934:	d00e      	beq.n	23954 <_ZN18complex_no_dynamic3app17heb5f38ff79e45a3bE+0x48>
   23936:	481e      	ldr	r0, [pc, #120]	@ (239b0 <_ZN18complex_no_dynamic3app17heb5f38ff79e45a3bE+0xa4>)
   23938:	2104      	movs	r1, #4
   2393a:	aa15      	add	r2, sp, #84	@ 0x54
   2393c:	234f      	movs	r3, #79	@ 0x4f
   2393e:	df03      	svc	3
   23940:	2802      	cmp	r0, #2
   23942:	d007      	beq.n	23954 <_ZN18complex_no_dynamic3app17heb5f38ff79e45a3bE+0x48>
   23944:	481a      	ldr	r0, [pc, #104]	@ (239b0 <_ZN18complex_no_dynamic3app17heb5f38ff79e45a3bE+0xa4>)
   23946:	2102      	movs	r1, #2
   23948:	2204      	movs	r2, #4
   2394a:	2500      	movs	r5, #0
   2394c:	462b      	mov	r3, r5
   2394e:	df02      	svc	2
   23950:	287f      	cmp	r0, #127	@ 0x7f
   23952:	d810      	bhi.n	23976 <_ZN18complex_no_dynamic3app17heb5f38ff79e45a3bE+0x6a>
   23954:	2001      	movs	r0, #1
   23956:	7020      	strb	r0, [r4, #0]
   23958:	6061      	str	r1, [r4, #4]
   2395a:	4c15      	ldr	r4, [pc, #84]	@ (239b0 <_ZN18complex_no_dynamic3app17heb5f38ff79e45a3bE+0xa4>)
   2395c:	2104      	movs	r1, #4
   2395e:	2500      	movs	r5, #0
   23960:	4620      	mov	r0, r4
   23962:	462a      	mov	r2, r5
   23964:	462b      	mov	r3, r5
   23966:	df03      	svc	3
   23968:	2102      	movs	r1, #2
   2396a:	4620      	mov	r0, r4
   2396c:	462a      	mov	r2, r5
   2396e:	462b      	mov	r3, r5
   23970:	df04      	svc	4
   23972:	b029      	add	sp, #164	@ 0xa4
   23974:	bdf0      	pop	{r4, r5, r6, r7, pc}
   23976:	480e      	ldr	r0, [pc, #56]	@ (239b0 <_ZN18complex_no_dynamic3app17heb5f38ff79e45a3bE+0xa4>)
   23978:	2604      	movs	r6, #4
   2397a:	4631      	mov	r1, r6
   2397c:	462a      	mov	r2, r5
   2397e:	462b      	mov	r3, r5
   23980:	df03      	svc	3
   23982:	480b      	ldr	r0, [pc, #44]	@ (239b0 <_ZN18complex_no_dynamic3app17heb5f38ff79e45a3bE+0xa4>)
   23984:	4631      	mov	r1, r6
   23986:	462a      	mov	r2, r5
   23988:	462b      	mov	r3, r5
   2398a:	df03      	svc	3
   2398c:	1c60      	adds	r0, r4, #1
   2398e:	a915      	add	r1, sp, #84	@ 0x54
   23990:	224f      	movs	r2, #79	@ 0x4f
   23992:	f003 fa94 	bl	26ebe <__aeabi_memcpy>
   23996:	7025      	strb	r5, [r4, #0]
   23998:	4c05      	ldr	r4, [pc, #20]	@ (239b0 <_ZN18complex_no_dynamic3app17heb5f38ff79e45a3bE+0xa4>)
   2399a:	4620      	mov	r0, r4
   2399c:	4631      	mov	r1, r6
   2399e:	462a      	mov	r2, r5
   239a0:	462b      	mov	r3, r5
   239a2:	df03      	svc	3
   239a4:	2102      	movs	r1, #2
   239a6:	4620      	mov	r0, r4
   239a8:	462a      	mov	r2, r5
   239aa:	462b      	mov	r3, r5
   239ac:	df04      	svc	4
   239ae:	e7e0      	b.n	23972 <_ZN18complex_no_dynamic3app17heb5f38ff79e45a3bE+0x66>
   239b0:	00000e16 	.word	0x00000e16

000239b4 <_ZN18complex_no_dynamic3app17hef75e6cf25478d1bE>:
   239b4:	b5f0      	push	{r4, r5, r6, r7, lr}
   239b6:	af03      	add	r7, sp, #12
   239b8:	b0a3      	sub	sp, #140	@ 0x8c
   239ba:	4604      	mov	r4, r0
   239bc:	466d      	mov	r5, sp
   239be:	2650      	movs	r6, #80	@ 0x50
   239c0:	4628      	mov	r0, r5
   239c2:	4632      	mov	r2, r6
   239c4:	f003 fa7b 	bl	26ebe <__aeabi_memcpy>
   239c8:	a814      	add	r0, sp, #80	@ 0x50
   239ca:	213c      	movs	r1, #60	@ 0x3c
   239cc:	f003 f8ca 	bl	26b64 <__aeabi_memclr4>
   239d0:	4821      	ldr	r0, [pc, #132]	@ (23a58 <_ZN18complex_no_dynamic3app17hef75e6cf25478d1bE+0xa4>)
   239d2:	2103      	movs	r1, #3
   239d4:	462a      	mov	r2, r5
   239d6:	4633      	mov	r3, r6
   239d8:	df04      	svc	4
   239da:	2802      	cmp	r0, #2
   239dc:	d00e      	beq.n	239fc <_ZN18complex_no_dynamic3app17hef75e6cf25478d1bE+0x48>
   239de:	481e      	ldr	r0, [pc, #120]	@ (23a58 <_ZN18complex_no_dynamic3app17hef75e6cf25478d1bE+0xa4>)
   239e0:	2109      	movs	r1, #9
   239e2:	aa14      	add	r2, sp, #80	@ 0x50
   239e4:	233c      	movs	r3, #60	@ 0x3c
   239e6:	df03      	svc	3
   239e8:	2802      	cmp	r0, #2
   239ea:	d007      	beq.n	239fc <_ZN18complex_no_dynamic3app17hef75e6cf25478d1bE+0x48>
   239ec:	481a      	ldr	r0, [pc, #104]	@ (23a58 <_ZN18complex_no_dynamic3app17hef75e6cf25478d1bE+0xa4>)
   239ee:	2103      	movs	r1, #3
   239f0:	2209      	movs	r2, #9
   239f2:	2500      	movs	r5, #0
   239f4:	462b      	mov	r3, r5
   239f6:	df02      	svc	2
   239f8:	287f      	cmp	r0, #127	@ 0x7f
   239fa:	d810      	bhi.n	23a1e <_ZN18complex_no_dynamic3app17hef75e6cf25478d1bE+0x6a>
   239fc:	2001      	movs	r0, #1
   239fe:	7020      	strb	r0, [r4, #0]
   23a00:	6061      	str	r1, [r4, #4]
   23a02:	4c15      	ldr	r4, [pc, #84]	@ (23a58 <_ZN18complex_no_dynamic3app17hef75e6cf25478d1bE+0xa4>)
   23a04:	2109      	movs	r1, #9
   23a06:	2500      	movs	r5, #0
   23a08:	4620      	mov	r0, r4
   23a0a:	462a      	mov	r2, r5
   23a0c:	462b      	mov	r3, r5
   23a0e:	df03      	svc	3
   23a10:	2103      	movs	r1, #3
   23a12:	4620      	mov	r0, r4
   23a14:	462a      	mov	r2, r5
   23a16:	462b      	mov	r3, r5
   23a18:	df04      	svc	4
   23a1a:	b023      	add	sp, #140	@ 0x8c
   23a1c:	bdf0      	pop	{r4, r5, r6, r7, pc}
   23a1e:	480e      	ldr	r0, [pc, #56]	@ (23a58 <_ZN18complex_no_dynamic3app17hef75e6cf25478d1bE+0xa4>)
   23a20:	2609      	movs	r6, #9
   23a22:	4631      	mov	r1, r6
   23a24:	462a      	mov	r2, r5
   23a26:	462b      	mov	r3, r5
   23a28:	df03      	svc	3
   23a2a:	480b      	ldr	r0, [pc, #44]	@ (23a58 <_ZN18complex_no_dynamic3app17hef75e6cf25478d1bE+0xa4>)
   23a2c:	4631      	mov	r1, r6
   23a2e:	462a      	mov	r2, r5
   23a30:	462b      	mov	r3, r5
   23a32:	df03      	svc	3
   23a34:	1c60      	adds	r0, r4, #1
   23a36:	a914      	add	r1, sp, #80	@ 0x50
   23a38:	223c      	movs	r2, #60	@ 0x3c
   23a3a:	f003 fa40 	bl	26ebe <__aeabi_memcpy>
   23a3e:	7025      	strb	r5, [r4, #0]
   23a40:	4c05      	ldr	r4, [pc, #20]	@ (23a58 <_ZN18complex_no_dynamic3app17hef75e6cf25478d1bE+0xa4>)
   23a42:	4620      	mov	r0, r4
   23a44:	4631      	mov	r1, r6
   23a46:	462a      	mov	r2, r5
   23a48:	462b      	mov	r3, r5
   23a4a:	df03      	svc	3
   23a4c:	2103      	movs	r1, #3
   23a4e:	4620      	mov	r0, r4
   23a50:	462a      	mov	r2, r5
   23a52:	462b      	mov	r3, r5
   23a54:	df04      	svc	4
   23a56:	e7e0      	b.n	23a1a <_ZN18complex_no_dynamic3app17hef75e6cf25478d1bE+0x66>
   23a58:	00000d7a 	.word	0x00000d7a

00023a5c <_ZN18complex_no_dynamic3app17hf07f73e0d04e5bf4E>:
   23a5c:	b5f0      	push	{r4, r5, r6, r7, lr}
   23a5e:	af03      	add	r7, sp, #12
   23a60:	b095      	sub	sp, #84	@ 0x54
   23a62:	4604      	mov	r4, r0
   23a64:	466d      	mov	r5, sp
   23a66:	263f      	movs	r6, #63	@ 0x3f
   23a68:	4628      	mov	r0, r5
   23a6a:	4632      	mov	r2, r6
   23a6c:	f003 fa27 	bl	26ebe <__aeabi_memcpy>
   23a70:	a810      	add	r0, sp, #64	@ 0x40
   23a72:	2111      	movs	r1, #17
   23a74:	f003 f876 	bl	26b64 <__aeabi_memclr4>
   23a78:	4821      	ldr	r0, [pc, #132]	@ (23b00 <_ZN18complex_no_dynamic3app17hf07f73e0d04e5bf4E+0xa4>)
   23a7a:	2104      	movs	r1, #4
   23a7c:	462a      	mov	r2, r5
   23a7e:	4633      	mov	r3, r6
   23a80:	df04      	svc	4
   23a82:	2802      	cmp	r0, #2
   23a84:	d00e      	beq.n	23aa4 <_ZN18complex_no_dynamic3app17hf07f73e0d04e5bf4E+0x48>
   23a86:	481e      	ldr	r0, [pc, #120]	@ (23b00 <_ZN18complex_no_dynamic3app17hf07f73e0d04e5bf4E+0xa4>)
   23a88:	2103      	movs	r1, #3
   23a8a:	aa10      	add	r2, sp, #64	@ 0x40
   23a8c:	2311      	movs	r3, #17
   23a8e:	df03      	svc	3
   23a90:	2802      	cmp	r0, #2
   23a92:	d007      	beq.n	23aa4 <_ZN18complex_no_dynamic3app17hf07f73e0d04e5bf4E+0x48>
   23a94:	481a      	ldr	r0, [pc, #104]	@ (23b00 <_ZN18complex_no_dynamic3app17hf07f73e0d04e5bf4E+0xa4>)
   23a96:	2104      	movs	r1, #4
   23a98:	2203      	movs	r2, #3
   23a9a:	2500      	movs	r5, #0
   23a9c:	462b      	mov	r3, r5
   23a9e:	df02      	svc	2
   23aa0:	287f      	cmp	r0, #127	@ 0x7f
   23aa2:	d810      	bhi.n	23ac6 <_ZN18complex_no_dynamic3app17hf07f73e0d04e5bf4E+0x6a>
   23aa4:	2001      	movs	r0, #1
   23aa6:	7020      	strb	r0, [r4, #0]
   23aa8:	6061      	str	r1, [r4, #4]
   23aaa:	4c15      	ldr	r4, [pc, #84]	@ (23b00 <_ZN18complex_no_dynamic3app17hf07f73e0d04e5bf4E+0xa4>)
   23aac:	2103      	movs	r1, #3
   23aae:	2500      	movs	r5, #0
   23ab0:	4620      	mov	r0, r4
   23ab2:	462a      	mov	r2, r5
   23ab4:	462b      	mov	r3, r5
   23ab6:	df03      	svc	3
   23ab8:	2104      	movs	r1, #4
   23aba:	4620      	mov	r0, r4
   23abc:	462a      	mov	r2, r5
   23abe:	462b      	mov	r3, r5
   23ac0:	df04      	svc	4
   23ac2:	b015      	add	sp, #84	@ 0x54
   23ac4:	bdf0      	pop	{r4, r5, r6, r7, pc}
   23ac6:	480e      	ldr	r0, [pc, #56]	@ (23b00 <_ZN18complex_no_dynamic3app17hf07f73e0d04e5bf4E+0xa4>)
   23ac8:	2603      	movs	r6, #3
   23aca:	4631      	mov	r1, r6
   23acc:	462a      	mov	r2, r5
   23ace:	462b      	mov	r3, r5
   23ad0:	df03      	svc	3
   23ad2:	480b      	ldr	r0, [pc, #44]	@ (23b00 <_ZN18complex_no_dynamic3app17hf07f73e0d04e5bf4E+0xa4>)
   23ad4:	4631      	mov	r1, r6
   23ad6:	462a      	mov	r2, r5
   23ad8:	462b      	mov	r3, r5
   23ada:	df03      	svc	3
   23adc:	1c60      	adds	r0, r4, #1
   23ade:	a910      	add	r1, sp, #64	@ 0x40
   23ae0:	2211      	movs	r2, #17
   23ae2:	f003 f9ec 	bl	26ebe <__aeabi_memcpy>
   23ae6:	7025      	strb	r5, [r4, #0]
   23ae8:	4c05      	ldr	r4, [pc, #20]	@ (23b00 <_ZN18complex_no_dynamic3app17hf07f73e0d04e5bf4E+0xa4>)
   23aea:	4620      	mov	r0, r4
   23aec:	4631      	mov	r1, r6
   23aee:	462a      	mov	r2, r5
   23af0:	462b      	mov	r3, r5
   23af2:	df03      	svc	3
   23af4:	2104      	movs	r1, #4
   23af6:	4620      	mov	r0, r4
   23af8:	462a      	mov	r2, r5
   23afa:	462b      	mov	r3, r5
   23afc:	df04      	svc	4
   23afe:	e7e0      	b.n	23ac2 <_ZN18complex_no_dynamic3app17hf07f73e0d04e5bf4E+0x66>
   23b00:	000014d7 	.word	0x000014d7

00023b04 <_ZN18complex_no_dynamic3app17hf3629e57fc413f7fE>:
   23b04:	b5f0      	push	{r4, r5, r6, r7, lr}
   23b06:	af03      	add	r7, sp, #12
   23b08:	b095      	sub	sp, #84	@ 0x54
   23b0a:	9000      	str	r0, [sp, #0]
   23b0c:	ae01      	add	r6, sp, #4
   23b0e:	2421      	movs	r4, #33	@ 0x21
   23b10:	4630      	mov	r0, r6
   23b12:	4622      	mov	r2, r4
   23b14:	f003 f9d3 	bl	26ebe <__aeabi_memcpy>
   23b18:	a80a      	add	r0, sp, #40	@ 0x28
   23b1a:	212a      	movs	r1, #42	@ 0x2a
   23b1c:	f003 f822 	bl	26b64 <__aeabi_memclr4>
   23b20:	4823      	ldr	r0, [pc, #140]	@ (23bb0 <_ZN18complex_no_dynamic3app17hf3629e57fc413f7fE+0xac>)
   23b22:	2501      	movs	r5, #1
   23b24:	4629      	mov	r1, r5
   23b26:	4632      	mov	r2, r6
   23b28:	4623      	mov	r3, r4
   23b2a:	df04      	svc	4
   23b2c:	2802      	cmp	r0, #2
   23b2e:	d00e      	beq.n	23b4e <_ZN18complex_no_dynamic3app17hf3629e57fc413f7fE+0x4a>
   23b30:	481f      	ldr	r0, [pc, #124]	@ (23bb0 <_ZN18complex_no_dynamic3app17hf3629e57fc413f7fE+0xac>)
   23b32:	2103      	movs	r1, #3
   23b34:	aa0a      	add	r2, sp, #40	@ 0x28
   23b36:	232a      	movs	r3, #42	@ 0x2a
   23b38:	df03      	svc	3
   23b3a:	2802      	cmp	r0, #2
   23b3c:	d007      	beq.n	23b4e <_ZN18complex_no_dynamic3app17hf3629e57fc413f7fE+0x4a>
   23b3e:	481c      	ldr	r0, [pc, #112]	@ (23bb0 <_ZN18complex_no_dynamic3app17hf3629e57fc413f7fE+0xac>)
   23b40:	2101      	movs	r1, #1
   23b42:	2203      	movs	r2, #3
   23b44:	2600      	movs	r6, #0
   23b46:	4633      	mov	r3, r6
   23b48:	df02      	svc	2
   23b4a:	287f      	cmp	r0, #127	@ 0x7f
   23b4c:	d810      	bhi.n	23b70 <_ZN18complex_no_dynamic3app17hf3629e57fc413f7fE+0x6c>
   23b4e:	9800      	ldr	r0, [sp, #0]
   23b50:	7005      	strb	r5, [r0, #0]
   23b52:	6041      	str	r1, [r0, #4]
   23b54:	4c16      	ldr	r4, [pc, #88]	@ (23bb0 <_ZN18complex_no_dynamic3app17hf3629e57fc413f7fE+0xac>)
   23b56:	2103      	movs	r1, #3
   23b58:	2600      	movs	r6, #0
   23b5a:	4620      	mov	r0, r4
   23b5c:	4632      	mov	r2, r6
   23b5e:	4633      	mov	r3, r6
   23b60:	df03      	svc	3
   23b62:	4620      	mov	r0, r4
   23b64:	4629      	mov	r1, r5
   23b66:	4632      	mov	r2, r6
   23b68:	4633      	mov	r3, r6
   23b6a:	df04      	svc	4
   23b6c:	b015      	add	sp, #84	@ 0x54
   23b6e:	bdf0      	pop	{r4, r5, r6, r7, pc}
   23b70:	4c0f      	ldr	r4, [pc, #60]	@ (23bb0 <_ZN18complex_no_dynamic3app17hf3629e57fc413f7fE+0xac>)
   23b72:	2503      	movs	r5, #3
   23b74:	4620      	mov	r0, r4
   23b76:	4629      	mov	r1, r5
   23b78:	4632      	mov	r2, r6
   23b7a:	4633      	mov	r3, r6
   23b7c:	df03      	svc	3
   23b7e:	4620      	mov	r0, r4
   23b80:	4629      	mov	r1, r5
   23b82:	4632      	mov	r2, r6
   23b84:	4633      	mov	r3, r6
   23b86:	df03      	svc	3
   23b88:	9c00      	ldr	r4, [sp, #0]
   23b8a:	1c60      	adds	r0, r4, #1
   23b8c:	a90a      	add	r1, sp, #40	@ 0x28
   23b8e:	222a      	movs	r2, #42	@ 0x2a
   23b90:	f003 f995 	bl	26ebe <__aeabi_memcpy>
   23b94:	7026      	strb	r6, [r4, #0]
   23b96:	4c06      	ldr	r4, [pc, #24]	@ (23bb0 <_ZN18complex_no_dynamic3app17hf3629e57fc413f7fE+0xac>)
   23b98:	4620      	mov	r0, r4
   23b9a:	4629      	mov	r1, r5
   23b9c:	4632      	mov	r2, r6
   23b9e:	4633      	mov	r3, r6
   23ba0:	df03      	svc	3
   23ba2:	2101      	movs	r1, #1
   23ba4:	4620      	mov	r0, r4
   23ba6:	4632      	mov	r2, r6
   23ba8:	4633      	mov	r3, r6
   23baa:	df04      	svc	4
   23bac:	e7de      	b.n	23b6c <_ZN18complex_no_dynamic3app17hf3629e57fc413f7fE+0x68>
   23bae:	46c0      	nop			@ (mov r8, r8)
   23bb0:	000015f3 	.word	0x000015f3

00023bb4 <_ZN18complex_no_dynamic3app17hf44a9dbc3fc4883aE>:
   23bb4:	b5f0      	push	{r4, r5, r6, r7, lr}
   23bb6:	af03      	add	r7, sp, #12
   23bb8:	b09d      	sub	sp, #116	@ 0x74
   23bba:	4604      	mov	r4, r0
   23bbc:	ad01      	add	r5, sp, #4
   23bbe:	2649      	movs	r6, #73	@ 0x49
   23bc0:	4628      	mov	r0, r5
   23bc2:	4632      	mov	r2, r6
   23bc4:	f003 f97b 	bl	26ebe <__aeabi_memcpy>
   23bc8:	a814      	add	r0, sp, #80	@ 0x50
   23bca:	2123      	movs	r1, #35	@ 0x23
   23bcc:	f002 ffca 	bl	26b64 <__aeabi_memclr4>
   23bd0:	4821      	ldr	r0, [pc, #132]	@ (23c58 <_ZN18complex_no_dynamic3app17hf44a9dbc3fc4883aE+0xa4>)
   23bd2:	2107      	movs	r1, #7
   23bd4:	462a      	mov	r2, r5
   23bd6:	4633      	mov	r3, r6
   23bd8:	df04      	svc	4
   23bda:	2802      	cmp	r0, #2
   23bdc:	d00e      	beq.n	23bfc <_ZN18complex_no_dynamic3app17hf44a9dbc3fc4883aE+0x48>
   23bde:	481e      	ldr	r0, [pc, #120]	@ (23c58 <_ZN18complex_no_dynamic3app17hf44a9dbc3fc4883aE+0xa4>)
   23be0:	2101      	movs	r1, #1
   23be2:	aa14      	add	r2, sp, #80	@ 0x50
   23be4:	2323      	movs	r3, #35	@ 0x23
   23be6:	df03      	svc	3
   23be8:	2802      	cmp	r0, #2
   23bea:	d007      	beq.n	23bfc <_ZN18complex_no_dynamic3app17hf44a9dbc3fc4883aE+0x48>
   23bec:	481a      	ldr	r0, [pc, #104]	@ (23c58 <_ZN18complex_no_dynamic3app17hf44a9dbc3fc4883aE+0xa4>)
   23bee:	2107      	movs	r1, #7
   23bf0:	2201      	movs	r2, #1
   23bf2:	2500      	movs	r5, #0
   23bf4:	462b      	mov	r3, r5
   23bf6:	df02      	svc	2
   23bf8:	287f      	cmp	r0, #127	@ 0x7f
   23bfa:	d810      	bhi.n	23c1e <_ZN18complex_no_dynamic3app17hf44a9dbc3fc4883aE+0x6a>
   23bfc:	2201      	movs	r2, #1
   23bfe:	7022      	strb	r2, [r4, #0]
   23c00:	6061      	str	r1, [r4, #4]
   23c02:	4c15      	ldr	r4, [pc, #84]	@ (23c58 <_ZN18complex_no_dynamic3app17hf44a9dbc3fc4883aE+0xa4>)
   23c04:	2500      	movs	r5, #0
   23c06:	4620      	mov	r0, r4
   23c08:	4611      	mov	r1, r2
   23c0a:	462a      	mov	r2, r5
   23c0c:	462b      	mov	r3, r5
   23c0e:	df03      	svc	3
   23c10:	2107      	movs	r1, #7
   23c12:	4620      	mov	r0, r4
   23c14:	462a      	mov	r2, r5
   23c16:	462b      	mov	r3, r5
   23c18:	df04      	svc	4
   23c1a:	b01d      	add	sp, #116	@ 0x74
   23c1c:	bdf0      	pop	{r4, r5, r6, r7, pc}
   23c1e:	480e      	ldr	r0, [pc, #56]	@ (23c58 <_ZN18complex_no_dynamic3app17hf44a9dbc3fc4883aE+0xa4>)
   23c20:	2601      	movs	r6, #1
   23c22:	4631      	mov	r1, r6
   23c24:	462a      	mov	r2, r5
   23c26:	462b      	mov	r3, r5
   23c28:	df03      	svc	3
   23c2a:	480b      	ldr	r0, [pc, #44]	@ (23c58 <_ZN18complex_no_dynamic3app17hf44a9dbc3fc4883aE+0xa4>)
   23c2c:	4631      	mov	r1, r6
   23c2e:	462a      	mov	r2, r5
   23c30:	462b      	mov	r3, r5
   23c32:	df03      	svc	3
   23c34:	1c60      	adds	r0, r4, #1
   23c36:	a914      	add	r1, sp, #80	@ 0x50
   23c38:	2223      	movs	r2, #35	@ 0x23
   23c3a:	f003 f940 	bl	26ebe <__aeabi_memcpy>
   23c3e:	7025      	strb	r5, [r4, #0]
   23c40:	4c05      	ldr	r4, [pc, #20]	@ (23c58 <_ZN18complex_no_dynamic3app17hf44a9dbc3fc4883aE+0xa4>)
   23c42:	4620      	mov	r0, r4
   23c44:	4631      	mov	r1, r6
   23c46:	462a      	mov	r2, r5
   23c48:	462b      	mov	r3, r5
   23c4a:	df03      	svc	3
   23c4c:	2107      	movs	r1, #7
   23c4e:	4620      	mov	r0, r4
   23c50:	462a      	mov	r2, r5
   23c52:	462b      	mov	r3, r5
   23c54:	df04      	svc	4
   23c56:	e7e0      	b.n	23c1a <_ZN18complex_no_dynamic3app17hf44a9dbc3fc4883aE+0x66>
   23c58:	00001551 	.word	0x00001551

00023c5c <_ZN18complex_no_dynamic3app17hf8e7cdac3be3ed61E>:
   23c5c:	b5f0      	push	{r4, r5, r6, r7, lr}
   23c5e:	af03      	add	r7, sp, #12
   23c60:	b08f      	sub	sp, #60	@ 0x3c
   23c62:	4604      	mov	r4, r0
   23c64:	466d      	mov	r5, sp
   23c66:	2627      	movs	r6, #39	@ 0x27
   23c68:	4628      	mov	r0, r5
   23c6a:	4632      	mov	r2, r6
   23c6c:	f003 f927 	bl	26ebe <__aeabi_memcpy>
   23c70:	a80a      	add	r0, sp, #40	@ 0x28
   23c72:	2114      	movs	r1, #20
   23c74:	f002 ff76 	bl	26b64 <__aeabi_memclr4>
   23c78:	4821      	ldr	r0, [pc, #132]	@ (23d00 <_ZN18complex_no_dynamic3app17hf8e7cdac3be3ed61E+0xa4>)
   23c7a:	2106      	movs	r1, #6
   23c7c:	462a      	mov	r2, r5
   23c7e:	4633      	mov	r3, r6
   23c80:	df04      	svc	4
   23c82:	2802      	cmp	r0, #2
   23c84:	d00e      	beq.n	23ca4 <_ZN18complex_no_dynamic3app17hf8e7cdac3be3ed61E+0x48>
   23c86:	481e      	ldr	r0, [pc, #120]	@ (23d00 <_ZN18complex_no_dynamic3app17hf8e7cdac3be3ed61E+0xa4>)
   23c88:	2105      	movs	r1, #5
   23c8a:	aa0a      	add	r2, sp, #40	@ 0x28
   23c8c:	2314      	movs	r3, #20
   23c8e:	df03      	svc	3
   23c90:	2802      	cmp	r0, #2
   23c92:	d007      	beq.n	23ca4 <_ZN18complex_no_dynamic3app17hf8e7cdac3be3ed61E+0x48>
   23c94:	481a      	ldr	r0, [pc, #104]	@ (23d00 <_ZN18complex_no_dynamic3app17hf8e7cdac3be3ed61E+0xa4>)
   23c96:	2106      	movs	r1, #6
   23c98:	2205      	movs	r2, #5
   23c9a:	2500      	movs	r5, #0
   23c9c:	462b      	mov	r3, r5
   23c9e:	df02      	svc	2
   23ca0:	287f      	cmp	r0, #127	@ 0x7f
   23ca2:	d810      	bhi.n	23cc6 <_ZN18complex_no_dynamic3app17hf8e7cdac3be3ed61E+0x6a>
   23ca4:	2001      	movs	r0, #1
   23ca6:	7020      	strb	r0, [r4, #0]
   23ca8:	6061      	str	r1, [r4, #4]
   23caa:	4c15      	ldr	r4, [pc, #84]	@ (23d00 <_ZN18complex_no_dynamic3app17hf8e7cdac3be3ed61E+0xa4>)
   23cac:	2105      	movs	r1, #5
   23cae:	2500      	movs	r5, #0
   23cb0:	4620      	mov	r0, r4
   23cb2:	462a      	mov	r2, r5
   23cb4:	462b      	mov	r3, r5
   23cb6:	df03      	svc	3
   23cb8:	2106      	movs	r1, #6
   23cba:	4620      	mov	r0, r4
   23cbc:	462a      	mov	r2, r5
   23cbe:	462b      	mov	r3, r5
   23cc0:	df04      	svc	4
   23cc2:	b00f      	add	sp, #60	@ 0x3c
   23cc4:	bdf0      	pop	{r4, r5, r6, r7, pc}
   23cc6:	480e      	ldr	r0, [pc, #56]	@ (23d00 <_ZN18complex_no_dynamic3app17hf8e7cdac3be3ed61E+0xa4>)
   23cc8:	2605      	movs	r6, #5
   23cca:	4631      	mov	r1, r6
   23ccc:	462a      	mov	r2, r5
   23cce:	462b      	mov	r3, r5
   23cd0:	df03      	svc	3
   23cd2:	480b      	ldr	r0, [pc, #44]	@ (23d00 <_ZN18complex_no_dynamic3app17hf8e7cdac3be3ed61E+0xa4>)
   23cd4:	4631      	mov	r1, r6
   23cd6:	462a      	mov	r2, r5
   23cd8:	462b      	mov	r3, r5
   23cda:	df03      	svc	3
   23cdc:	1c60      	adds	r0, r4, #1
   23cde:	a90a      	add	r1, sp, #40	@ 0x28
   23ce0:	2214      	movs	r2, #20
   23ce2:	f003 f8ec 	bl	26ebe <__aeabi_memcpy>
   23ce6:	7025      	strb	r5, [r4, #0]
   23ce8:	4c05      	ldr	r4, [pc, #20]	@ (23d00 <_ZN18complex_no_dynamic3app17hf8e7cdac3be3ed61E+0xa4>)
   23cea:	4620      	mov	r0, r4
   23cec:	4631      	mov	r1, r6
   23cee:	462a      	mov	r2, r5
   23cf0:	462b      	mov	r3, r5
   23cf2:	df03      	svc	3
   23cf4:	2106      	movs	r1, #6
   23cf6:	4620      	mov	r0, r4
   23cf8:	462a      	mov	r2, r5
   23cfa:	462b      	mov	r3, r5
   23cfc:	df04      	svc	4
   23cfe:	e7e0      	b.n	23cc2 <_ZN18complex_no_dynamic3app17hf8e7cdac3be3ed61E+0x66>
   23d00:	000022c9 	.word	0x000022c9

00023d04 <_ZN18complex_no_dynamic3app17hfbddd024b9a592bdE>:
   23d04:	b5f0      	push	{r4, r5, r6, r7, lr}
   23d06:	af03      	add	r7, sp, #12
   23d08:	b095      	sub	sp, #84	@ 0x54
   23d0a:	4604      	mov	r4, r0
   23d0c:	ad01      	add	r5, sp, #4
   23d0e:	2623      	movs	r6, #35	@ 0x23
   23d10:	4628      	mov	r0, r5
   23d12:	4632      	mov	r2, r6
   23d14:	f003 f8d3 	bl	26ebe <__aeabi_memcpy>
   23d18:	a80a      	add	r0, sp, #40	@ 0x28
   23d1a:	212b      	movs	r1, #43	@ 0x2b
   23d1c:	f002 ff22 	bl	26b64 <__aeabi_memclr4>
   23d20:	4821      	ldr	r0, [pc, #132]	@ (23da8 <_ZN18complex_no_dynamic3app17hfbddd024b9a592bdE+0xa4>)
   23d22:	2102      	movs	r1, #2
   23d24:	462a      	mov	r2, r5
   23d26:	4633      	mov	r3, r6
   23d28:	df04      	svc	4
   23d2a:	2802      	cmp	r0, #2
   23d2c:	d00e      	beq.n	23d4c <_ZN18complex_no_dynamic3app17hfbddd024b9a592bdE+0x48>
   23d2e:	481e      	ldr	r0, [pc, #120]	@ (23da8 <_ZN18complex_no_dynamic3app17hfbddd024b9a592bdE+0xa4>)
   23d30:	2100      	movs	r1, #0
   23d32:	aa0a      	add	r2, sp, #40	@ 0x28
   23d34:	232b      	movs	r3, #43	@ 0x2b
   23d36:	df03      	svc	3
   23d38:	2802      	cmp	r0, #2
   23d3a:	d007      	beq.n	23d4c <_ZN18complex_no_dynamic3app17hfbddd024b9a592bdE+0x48>
   23d3c:	481a      	ldr	r0, [pc, #104]	@ (23da8 <_ZN18complex_no_dynamic3app17hfbddd024b9a592bdE+0xa4>)
   23d3e:	2102      	movs	r1, #2
   23d40:	2500      	movs	r5, #0
   23d42:	462a      	mov	r2, r5
   23d44:	462b      	mov	r3, r5
   23d46:	df02      	svc	2
   23d48:	287f      	cmp	r0, #127	@ 0x7f
   23d4a:	d810      	bhi.n	23d6e <_ZN18complex_no_dynamic3app17hfbddd024b9a592bdE+0x6a>
   23d4c:	2001      	movs	r0, #1
   23d4e:	7020      	strb	r0, [r4, #0]
   23d50:	6061      	str	r1, [r4, #4]
   23d52:	4c15      	ldr	r4, [pc, #84]	@ (23da8 <_ZN18complex_no_dynamic3app17hfbddd024b9a592bdE+0xa4>)
   23d54:	2500      	movs	r5, #0
   23d56:	4620      	mov	r0, r4
   23d58:	4629      	mov	r1, r5
   23d5a:	462a      	mov	r2, r5
   23d5c:	462b      	mov	r3, r5
   23d5e:	df03      	svc	3
   23d60:	2102      	movs	r1, #2
   23d62:	4620      	mov	r0, r4
   23d64:	462a      	mov	r2, r5
   23d66:	462b      	mov	r3, r5
   23d68:	df04      	svc	4
   23d6a:	b015      	add	sp, #84	@ 0x54
   23d6c:	bdf0      	pop	{r4, r5, r6, r7, pc}
   23d6e:	4e0e      	ldr	r6, [pc, #56]	@ (23da8 <_ZN18complex_no_dynamic3app17hfbddd024b9a592bdE+0xa4>)
   23d70:	4630      	mov	r0, r6
   23d72:	4629      	mov	r1, r5
   23d74:	462a      	mov	r2, r5
   23d76:	462b      	mov	r3, r5
   23d78:	df03      	svc	3
   23d7a:	4630      	mov	r0, r6
   23d7c:	4629      	mov	r1, r5
   23d7e:	462a      	mov	r2, r5
   23d80:	462b      	mov	r3, r5
   23d82:	df03      	svc	3
   23d84:	1c60      	adds	r0, r4, #1
   23d86:	a90a      	add	r1, sp, #40	@ 0x28
   23d88:	222b      	movs	r2, #43	@ 0x2b
   23d8a:	f003 f898 	bl	26ebe <__aeabi_memcpy>
   23d8e:	7025      	strb	r5, [r4, #0]
   23d90:	4630      	mov	r0, r6
   23d92:	4629      	mov	r1, r5
   23d94:	462a      	mov	r2, r5
   23d96:	462b      	mov	r3, r5
   23d98:	df03      	svc	3
   23d9a:	2102      	movs	r1, #2
   23d9c:	4630      	mov	r0, r6
   23d9e:	462a      	mov	r2, r5
   23da0:	462b      	mov	r3, r5
   23da2:	df04      	svc	4
   23da4:	e7e1      	b.n	23d6a <_ZN18complex_no_dynamic3app17hfbddd024b9a592bdE+0x66>
   23da6:	46c0      	nop			@ (mov r8, r8)
   23da8:	00000d5d 	.word	0x00000d5d

00023dac <_ZN18complex_no_dynamic3app17hfc2d85b47eae8a86E>:
   23dac:	b5f0      	push	{r4, r5, r6, r7, lr}
   23dae:	af03      	add	r7, sp, #12
   23db0:	b0a5      	sub	sp, #148	@ 0x94
   23db2:	4604      	mov	r4, r0
   23db4:	ad01      	add	r5, sp, #4
   23db6:	262f      	movs	r6, #47	@ 0x2f
   23db8:	4628      	mov	r0, r5
   23dba:	4632      	mov	r2, r6
   23dbc:	f003 f87f 	bl	26ebe <__aeabi_memcpy>
   23dc0:	a80d      	add	r0, sp, #52	@ 0x34
   23dc2:	215e      	movs	r1, #94	@ 0x5e
   23dc4:	f002 fece 	bl	26b64 <__aeabi_memclr4>
   23dc8:	4821      	ldr	r0, [pc, #132]	@ (23e50 <_ZN18complex_no_dynamic3app17hfc2d85b47eae8a86E+0xa4>)
   23dca:	2105      	movs	r1, #5
   23dcc:	462a      	mov	r2, r5
   23dce:	4633      	mov	r3, r6
   23dd0:	df04      	svc	4
   23dd2:	2802      	cmp	r0, #2
   23dd4:	d00e      	beq.n	23df4 <_ZN18complex_no_dynamic3app17hfc2d85b47eae8a86E+0x48>
   23dd6:	481e      	ldr	r0, [pc, #120]	@ (23e50 <_ZN18complex_no_dynamic3app17hfc2d85b47eae8a86E+0xa4>)
   23dd8:	2102      	movs	r1, #2
   23dda:	aa0d      	add	r2, sp, #52	@ 0x34
   23ddc:	235e      	movs	r3, #94	@ 0x5e
   23dde:	df03      	svc	3
   23de0:	2802      	cmp	r0, #2
   23de2:	d007      	beq.n	23df4 <_ZN18complex_no_dynamic3app17hfc2d85b47eae8a86E+0x48>
   23de4:	481a      	ldr	r0, [pc, #104]	@ (23e50 <_ZN18complex_no_dynamic3app17hfc2d85b47eae8a86E+0xa4>)
   23de6:	2105      	movs	r1, #5
   23de8:	2202      	movs	r2, #2
   23dea:	2500      	movs	r5, #0
   23dec:	462b      	mov	r3, r5
   23dee:	df02      	svc	2
   23df0:	287f      	cmp	r0, #127	@ 0x7f
   23df2:	d810      	bhi.n	23e16 <_ZN18complex_no_dynamic3app17hfc2d85b47eae8a86E+0x6a>
   23df4:	2001      	movs	r0, #1
   23df6:	7020      	strb	r0, [r4, #0]
   23df8:	6061      	str	r1, [r4, #4]
   23dfa:	4c15      	ldr	r4, [pc, #84]	@ (23e50 <_ZN18complex_no_dynamic3app17hfc2d85b47eae8a86E+0xa4>)
   23dfc:	2102      	movs	r1, #2
   23dfe:	2500      	movs	r5, #0
   23e00:	4620      	mov	r0, r4
   23e02:	462a      	mov	r2, r5
   23e04:	462b      	mov	r3, r5
   23e06:	df03      	svc	3
   23e08:	2105      	movs	r1, #5
   23e0a:	4620      	mov	r0, r4
   23e0c:	462a      	mov	r2, r5
   23e0e:	462b      	mov	r3, r5
   23e10:	df04      	svc	4
   23e12:	b025      	add	sp, #148	@ 0x94
   23e14:	bdf0      	pop	{r4, r5, r6, r7, pc}
   23e16:	480e      	ldr	r0, [pc, #56]	@ (23e50 <_ZN18complex_no_dynamic3app17hfc2d85b47eae8a86E+0xa4>)
   23e18:	2602      	movs	r6, #2
   23e1a:	4631      	mov	r1, r6
   23e1c:	462a      	mov	r2, r5
   23e1e:	462b      	mov	r3, r5
   23e20:	df03      	svc	3
   23e22:	480b      	ldr	r0, [pc, #44]	@ (23e50 <_ZN18complex_no_dynamic3app17hfc2d85b47eae8a86E+0xa4>)
   23e24:	4631      	mov	r1, r6
   23e26:	462a      	mov	r2, r5
   23e28:	462b      	mov	r3, r5
   23e2a:	df03      	svc	3
   23e2c:	1c60      	adds	r0, r4, #1
   23e2e:	a90d      	add	r1, sp, #52	@ 0x34
   23e30:	225e      	movs	r2, #94	@ 0x5e
   23e32:	f003 f844 	bl	26ebe <__aeabi_memcpy>
   23e36:	7025      	strb	r5, [r4, #0]
   23e38:	4c05      	ldr	r4, [pc, #20]	@ (23e50 <_ZN18complex_no_dynamic3app17hfc2d85b47eae8a86E+0xa4>)
   23e3a:	4620      	mov	r0, r4
   23e3c:	4631      	mov	r1, r6
   23e3e:	462a      	mov	r2, r5
   23e40:	462b      	mov	r3, r5
   23e42:	df03      	svc	3
   23e44:	2105      	movs	r1, #5
   23e46:	4620      	mov	r0, r4
   23e48:	462a      	mov	r2, r5
   23e4a:	462b      	mov	r3, r5
   23e4c:	df04      	svc	4
   23e4e:	e7e0      	b.n	23e12 <_ZN18complex_no_dynamic3app17hfc2d85b47eae8a86E+0x66>
   23e50:	0000022b 	.word	0x0000022b

00023e54 <_ZN18complex_no_dynamic3app17hfc6227fe5c7418abE>:
   23e54:	b5f0      	push	{r4, r5, r6, r7, lr}
   23e56:	af03      	add	r7, sp, #12
   23e58:	b09f      	sub	sp, #124	@ 0x7c
   23e5a:	4604      	mov	r4, r0
   23e5c:	466d      	mov	r5, sp
   23e5e:	264a      	movs	r6, #74	@ 0x4a
   23e60:	4628      	mov	r0, r5
   23e62:	4632      	mov	r2, r6
   23e64:	f003 f82b 	bl	26ebe <__aeabi_memcpy>
   23e68:	a813      	add	r0, sp, #76	@ 0x4c
   23e6a:	212d      	movs	r1, #45	@ 0x2d
   23e6c:	f002 fe7a 	bl	26b64 <__aeabi_memclr4>
   23e70:	4821      	ldr	r0, [pc, #132]	@ (23ef8 <_ZN18complex_no_dynamic3app17hfc6227fe5c7418abE+0xa4>)
   23e72:	2102      	movs	r1, #2
   23e74:	462a      	mov	r2, r5
   23e76:	4633      	mov	r3, r6
   23e78:	df04      	svc	4
   23e7a:	2802      	cmp	r0, #2
   23e7c:	d00e      	beq.n	23e9c <_ZN18complex_no_dynamic3app17hfc6227fe5c7418abE+0x48>
   23e7e:	481e      	ldr	r0, [pc, #120]	@ (23ef8 <_ZN18complex_no_dynamic3app17hfc6227fe5c7418abE+0xa4>)
   23e80:	2103      	movs	r1, #3
   23e82:	aa13      	add	r2, sp, #76	@ 0x4c
   23e84:	232d      	movs	r3, #45	@ 0x2d
   23e86:	df03      	svc	3
   23e88:	2802      	cmp	r0, #2
   23e8a:	d007      	beq.n	23e9c <_ZN18complex_no_dynamic3app17hfc6227fe5c7418abE+0x48>
   23e8c:	481a      	ldr	r0, [pc, #104]	@ (23ef8 <_ZN18complex_no_dynamic3app17hfc6227fe5c7418abE+0xa4>)
   23e8e:	2102      	movs	r1, #2
   23e90:	2203      	movs	r2, #3
   23e92:	2500      	movs	r5, #0
   23e94:	462b      	mov	r3, r5
   23e96:	df02      	svc	2
   23e98:	287f      	cmp	r0, #127	@ 0x7f
   23e9a:	d810      	bhi.n	23ebe <_ZN18complex_no_dynamic3app17hfc6227fe5c7418abE+0x6a>
   23e9c:	2001      	movs	r0, #1
   23e9e:	7020      	strb	r0, [r4, #0]
   23ea0:	6061      	str	r1, [r4, #4]
   23ea2:	4c15      	ldr	r4, [pc, #84]	@ (23ef8 <_ZN18complex_no_dynamic3app17hfc6227fe5c7418abE+0xa4>)
   23ea4:	2103      	movs	r1, #3
   23ea6:	2500      	movs	r5, #0
   23ea8:	4620      	mov	r0, r4
   23eaa:	462a      	mov	r2, r5
   23eac:	462b      	mov	r3, r5
   23eae:	df03      	svc	3
   23eb0:	2102      	movs	r1, #2
   23eb2:	4620      	mov	r0, r4
   23eb4:	462a      	mov	r2, r5
   23eb6:	462b      	mov	r3, r5
   23eb8:	df04      	svc	4
   23eba:	b01f      	add	sp, #124	@ 0x7c
   23ebc:	bdf0      	pop	{r4, r5, r6, r7, pc}
   23ebe:	480e      	ldr	r0, [pc, #56]	@ (23ef8 <_ZN18complex_no_dynamic3app17hfc6227fe5c7418abE+0xa4>)
   23ec0:	2603      	movs	r6, #3
   23ec2:	4631      	mov	r1, r6
   23ec4:	462a      	mov	r2, r5
   23ec6:	462b      	mov	r3, r5
   23ec8:	df03      	svc	3
   23eca:	480b      	ldr	r0, [pc, #44]	@ (23ef8 <_ZN18complex_no_dynamic3app17hfc6227fe5c7418abE+0xa4>)
   23ecc:	4631      	mov	r1, r6
   23ece:	462a      	mov	r2, r5
   23ed0:	462b      	mov	r3, r5
   23ed2:	df03      	svc	3
   23ed4:	1c60      	adds	r0, r4, #1
   23ed6:	a913      	add	r1, sp, #76	@ 0x4c
   23ed8:	222d      	movs	r2, #45	@ 0x2d
   23eda:	f002 fff0 	bl	26ebe <__aeabi_memcpy>
   23ede:	7025      	strb	r5, [r4, #0]
   23ee0:	4c05      	ldr	r4, [pc, #20]	@ (23ef8 <_ZN18complex_no_dynamic3app17hfc6227fe5c7418abE+0xa4>)
   23ee2:	4620      	mov	r0, r4
   23ee4:	4631      	mov	r1, r6
   23ee6:	462a      	mov	r2, r5
   23ee8:	462b      	mov	r3, r5
   23eea:	df03      	svc	3
   23eec:	2102      	movs	r1, #2
   23eee:	4620      	mov	r0, r4
   23ef0:	462a      	mov	r2, r5
   23ef2:	462b      	mov	r3, r5
   23ef4:	df04      	svc	4
   23ef6:	e7e0      	b.n	23eba <_ZN18complex_no_dynamic3app17hfc6227fe5c7418abE+0x66>
   23ef8:	00000e3d 	.word	0x00000e3d

00023efc <_start>:
   23efc:	b5f0      	push	{r4, r5, r6, r7, lr}
   23efe:	af03      	add	r7, sp, #12
   23f00:	4ec2      	ldr	r6, [pc, #776]	@ (2420c <_start+0x310>)
   23f02:	44b5      	add	sp, r6
   23f04:	4ec2      	ldr	r6, [pc, #776]	@ (24210 <_start+0x314>)
   23f06:	446e      	add	r6, sp
   23f08:	ac0e      	add	r4, sp, #56	@ 0x38
   23f0a:	2528      	movs	r5, #40	@ 0x28
   23f0c:	4620      	mov	r0, r4
   23f0e:	4629      	mov	r1, r5
   23f10:	f002 fe28 	bl	26b64 <__aeabi_memclr4>
   23f14:	48bf      	ldr	r0, [pc, #764]	@ (24214 <_start+0x318>)
   23f16:	4468      	add	r0, sp
   23f18:	2151      	movs	r1, #81	@ 0x51
   23f1a:	f002 fe23 	bl	26b64 <__aeabi_memclr4>
   23f1e:	48be      	ldr	r0, [pc, #760]	@ (24218 <_start+0x31c>)
   23f20:	2109      	movs	r1, #9
   23f22:	4622      	mov	r2, r4
   23f24:	462b      	mov	r3, r5
   23f26:	df04      	svc	4
   23f28:	aa3d      	add	r2, sp, #244	@ 0xf4
   23f2a:	adff      	add	r5, sp, #1020	@ 0x3fc
   23f2c:	35d4      	adds	r5, #212	@ 0xd4
   23f2e:	4cbb      	ldr	r4, [pc, #748]	@ (2421c <_start+0x320>)
   23f30:	446c      	add	r4, sp
   23f32:	2802      	cmp	r0, #2
   23f34:	d00f      	beq.n	23f56 <_start+0x5a>
   23f36:	920b      	str	r2, [sp, #44]	@ 0x2c
   23f38:	48b7      	ldr	r0, [pc, #732]	@ (24218 <_start+0x31c>)
   23f3a:	2109      	movs	r1, #9
   23f3c:	4ab5      	ldr	r2, [pc, #724]	@ (24214 <_start+0x318>)
   23f3e:	446a      	add	r2, sp
   23f40:	2351      	movs	r3, #81	@ 0x51
   23f42:	df03      	svc	3
   23f44:	2802      	cmp	r0, #2
   23f46:	d006      	beq.n	23f56 <_start+0x5a>
   23f48:	48b3      	ldr	r0, [pc, #716]	@ (24218 <_start+0x31c>)
   23f4a:	2109      	movs	r1, #9
   23f4c:	2300      	movs	r3, #0
   23f4e:	460a      	mov	r2, r1
   23f50:	df02      	svc	2
   23f52:	287f      	cmp	r0, #127	@ 0x7f
   23f54:	d814      	bhi.n	23f80 <_start+0x84>
   23f56:	910c      	str	r1, [sp, #48]	@ 0x30
   23f58:	4caf      	ldr	r4, [pc, #700]	@ (24218 <_start+0x31c>)
   23f5a:	2609      	movs	r6, #9
   23f5c:	2500      	movs	r5, #0
   23f5e:	4620      	mov	r0, r4
   23f60:	4631      	mov	r1, r6
   23f62:	462a      	mov	r2, r5
   23f64:	462b      	mov	r3, r5
   23f66:	df03      	svc	3
   23f68:	4620      	mov	r0, r4
   23f6a:	4631      	mov	r1, r6
   23f6c:	462a      	mov	r2, r5
   23f6e:	462b      	mov	r3, r5
   23f70:	df04      	svc	4
   23f72:	2401      	movs	r4, #1
   23f74:	4620      	mov	r0, r4
   23f76:	990c      	ldr	r1, [sp, #48]	@ 0x30
   23f78:	1ffe      	subs	r6, r7, #7
   23f7a:	3e05      	subs	r6, #5
   23f7c:	46b5      	mov	sp, r6
   23f7e:	bdf0      	pop	{r4, r5, r6, r7, pc}
   23f80:	9503      	str	r5, [sp, #12]
   23f82:	9404      	str	r4, [sp, #16]
   23f84:	48a4      	ldr	r0, [pc, #656]	@ (24218 <_start+0x31c>)
   23f86:	4635      	mov	r5, r6
   23f88:	2609      	movs	r6, #9
   23f8a:	2400      	movs	r4, #0
   23f8c:	4631      	mov	r1, r6
   23f8e:	4622      	mov	r2, r4
   23f90:	4623      	mov	r3, r4
   23f92:	df03      	svc	3
   23f94:	48a0      	ldr	r0, [pc, #640]	@ (24218 <_start+0x31c>)
   23f96:	4631      	mov	r1, r6
   23f98:	4622      	mov	r2, r4
   23f9a:	4623      	mov	r3, r4
   23f9c:	df03      	svc	3
   23f9e:	aa0d      	add	r2, sp, #52	@ 0x34
   23fa0:	920c      	str	r2, [sp, #48]	@ 0x30
   23fa2:	9505      	str	r5, [sp, #20]
   23fa4:	6de8      	ldr	r0, [r5, #92]	@ 0x5c
   23fa6:	8010      	strh	r0, [r2, #0]
   23fa8:	489a      	ldr	r0, [pc, #616]	@ (24214 <_start+0x318>)
   23faa:	4468      	add	r0, sp
   23fac:	7881      	ldrb	r1, [r0, #2]
   23fae:	7091      	strb	r1, [r2, #2]
   23fb0:	78c1      	ldrb	r1, [r0, #3]
   23fb2:	910a      	str	r1, [sp, #40]	@ 0x28
   23fb4:	7901      	ldrb	r1, [r0, #4]
   23fb6:	9109      	str	r1, [sp, #36]	@ 0x24
   23fb8:	7941      	ldrb	r1, [r0, #5]
   23fba:	9108      	str	r1, [sp, #32]
   23fbc:	7981      	ldrb	r1, [r0, #6]
   23fbe:	9107      	str	r1, [sp, #28]
   23fc0:	1dc1      	adds	r1, r0, #7
   23fc2:	4d93      	ldr	r5, [pc, #588]	@ (24210 <_start+0x314>)
   23fc4:	446d      	add	r5, sp
   23fc6:	224a      	movs	r2, #74	@ 0x4a
   23fc8:	9206      	str	r2, [sp, #24]
   23fca:	4628      	mov	r0, r5
   23fcc:	f002 ff77 	bl	26ebe <__aeabi_memcpy>
   23fd0:	4891      	ldr	r0, [pc, #580]	@ (24218 <_start+0x31c>)
   23fd2:	4631      	mov	r1, r6
   23fd4:	4622      	mov	r2, r4
   23fd6:	4623      	mov	r3, r4
   23fd8:	df03      	svc	3
   23fda:	488f      	ldr	r0, [pc, #572]	@ (24218 <_start+0x31c>)
   23fdc:	4631      	mov	r1, r6
   23fde:	4622      	mov	r2, r4
   23fe0:	4623      	mov	r3, r4
   23fe2:	df04      	svc	4
   23fe4:	4c8b      	ldr	r4, [pc, #556]	@ (24214 <_start+0x318>)
   23fe6:	446c      	add	r4, sp
   23fe8:	1de0      	adds	r0, r4, #7
   23fea:	4629      	mov	r1, r5
   23fec:	9a06      	ldr	r2, [sp, #24]
   23fee:	f002 ff66 	bl	26ebe <__aeabi_memcpy>
   23ff2:	9807      	ldr	r0, [sp, #28]
   23ff4:	71a0      	strb	r0, [r4, #6]
   23ff6:	9808      	ldr	r0, [sp, #32]
   23ff8:	7160      	strb	r0, [r4, #5]
   23ffa:	9809      	ldr	r0, [sp, #36]	@ 0x24
   23ffc:	7120      	strb	r0, [r4, #4]
   23ffe:	980a      	ldr	r0, [sp, #40]	@ 0x28
   24000:	70e0      	strb	r0, [r4, #3]
   24002:	980d      	ldr	r0, [sp, #52]	@ 0x34
   24004:	8020      	strh	r0, [r4, #0]
   24006:	980c      	ldr	r0, [sp, #48]	@ 0x30
   24008:	7880      	ldrb	r0, [r0, #2]
   2400a:	70a0      	strb	r0, [r4, #2]
   2400c:	4880      	ldr	r0, [pc, #512]	@ (24210 <_start+0x314>)
   2400e:	4468      	add	r0, sp
   24010:	2146      	movs	r1, #70	@ 0x46
   24012:	f002 fda7 	bl	26b64 <__aeabi_memclr4>
   24016:	4882      	ldr	r0, [pc, #520]	@ (24220 <_start+0x324>)
   24018:	2107      	movs	r1, #7
   2401a:	2351      	movs	r3, #81	@ 0x51
   2401c:	4622      	mov	r2, r4
   2401e:	df04      	svc	4
   24020:	2802      	cmp	r0, #2
   24022:	d00e      	beq.n	24042 <_start+0x146>
   24024:	487e      	ldr	r0, [pc, #504]	@ (24220 <_start+0x324>)
   24026:	2100      	movs	r1, #0
   24028:	4a79      	ldr	r2, [pc, #484]	@ (24210 <_start+0x314>)
   2402a:	446a      	add	r2, sp
   2402c:	2346      	movs	r3, #70	@ 0x46
   2402e:	df03      	svc	3
   24030:	2802      	cmp	r0, #2
   24032:	d006      	beq.n	24042 <_start+0x146>
   24034:	487a      	ldr	r0, [pc, #488]	@ (24220 <_start+0x324>)
   24036:	2107      	movs	r1, #7
   24038:	2200      	movs	r2, #0
   2403a:	4613      	mov	r3, r2
   2403c:	df02      	svc	2
   2403e:	287f      	cmp	r0, #127	@ 0x7f
   24040:	d80d      	bhi.n	2405e <_start+0x162>
   24042:	910c      	str	r1, [sp, #48]	@ 0x30
   24044:	4c76      	ldr	r4, [pc, #472]	@ (24220 <_start+0x324>)
   24046:	2500      	movs	r5, #0
   24048:	4620      	mov	r0, r4
   2404a:	4629      	mov	r1, r5
   2404c:	462a      	mov	r2, r5
   2404e:	462b      	mov	r3, r5
   24050:	df03      	svc	3
   24052:	2107      	movs	r1, #7
   24054:	4620      	mov	r0, r4
   24056:	462a      	mov	r2, r5
   24058:	462b      	mov	r3, r5
   2405a:	df04      	svc	4
   2405c:	e789      	b.n	23f72 <_start+0x76>
   2405e:	4d70      	ldr	r5, [pc, #448]	@ (24220 <_start+0x324>)
   24060:	2400      	movs	r4, #0
   24062:	4628      	mov	r0, r5
   24064:	4621      	mov	r1, r4
   24066:	4622      	mov	r2, r4
   24068:	4623      	mov	r3, r4
   2406a:	df03      	svc	3
   2406c:	4628      	mov	r0, r5
   2406e:	4621      	mov	r1, r4
   24070:	4622      	mov	r2, r4
   24072:	4623      	mov	r3, r4
   24074:	df03      	svc	3
   24076:	aa1e      	add	r2, sp, #120	@ 0x78
   24078:	920c      	str	r2, [sp, #48]	@ 0x30
   2407a:	9805      	ldr	r0, [sp, #20]
   2407c:	6800      	ldr	r0, [r0, #0]
   2407e:	8010      	strh	r0, [r2, #0]
   24080:	4863      	ldr	r0, [pc, #396]	@ (24210 <_start+0x314>)
   24082:	4468      	add	r0, sp
   24084:	7881      	ldrb	r1, [r0, #2]
   24086:	7091      	strb	r1, [r2, #2]
   24088:	78c1      	ldrb	r1, [r0, #3]
   2408a:	910a      	str	r1, [sp, #40]	@ 0x28
   2408c:	7901      	ldrb	r1, [r0, #4]
   2408e:	9109      	str	r1, [sp, #36]	@ 0x24
   24090:	7941      	ldrb	r1, [r0, #5]
   24092:	9108      	str	r1, [sp, #32]
   24094:	7981      	ldrb	r1, [r0, #6]
   24096:	9107      	str	r1, [sp, #28]
   24098:	1dc1      	adds	r1, r0, #7
   2409a:	ae0e      	add	r6, sp, #56	@ 0x38
   2409c:	253f      	movs	r5, #63	@ 0x3f
   2409e:	4630      	mov	r0, r6
   240a0:	462a      	mov	r2, r5
   240a2:	f002 ff0c 	bl	26ebe <__aeabi_memcpy>
   240a6:	485e      	ldr	r0, [pc, #376]	@ (24220 <_start+0x324>)
   240a8:	4621      	mov	r1, r4
   240aa:	4622      	mov	r2, r4
   240ac:	4623      	mov	r3, r4
   240ae:	df03      	svc	3
   240b0:	2107      	movs	r1, #7
   240b2:	485b      	ldr	r0, [pc, #364]	@ (24220 <_start+0x324>)
   240b4:	4622      	mov	r2, r4
   240b6:	4623      	mov	r3, r4
   240b8:	df04      	svc	4
   240ba:	4c56      	ldr	r4, [pc, #344]	@ (24214 <_start+0x318>)
   240bc:	446c      	add	r4, sp
   240be:	1de0      	adds	r0, r4, #7
   240c0:	4631      	mov	r1, r6
   240c2:	462a      	mov	r2, r5
   240c4:	f002 fefb 	bl	26ebe <__aeabi_memcpy>
   240c8:	9807      	ldr	r0, [sp, #28]
   240ca:	71a0      	strb	r0, [r4, #6]
   240cc:	9808      	ldr	r0, [sp, #32]
   240ce:	7160      	strb	r0, [r4, #5]
   240d0:	9809      	ldr	r0, [sp, #36]	@ 0x24
   240d2:	7120      	strb	r0, [r4, #4]
   240d4:	980a      	ldr	r0, [sp, #40]	@ 0x28
   240d6:	70e0      	strb	r0, [r4, #3]
   240d8:	981e      	ldr	r0, [sp, #120]	@ 0x78
   240da:	8020      	strh	r0, [r4, #0]
   240dc:	980c      	ldr	r0, [sp, #48]	@ 0x30
   240de:	7880      	ldrb	r0, [r0, #2]
   240e0:	70a0      	strb	r0, [r4, #2]
   240e2:	484b      	ldr	r0, [pc, #300]	@ (24210 <_start+0x314>)
   240e4:	4468      	add	r0, sp
   240e6:	2118      	movs	r1, #24
   240e8:	f002 fd3c 	bl	26b64 <__aeabi_memclr4>
   240ec:	484d      	ldr	r0, [pc, #308]	@ (24224 <_start+0x328>)
   240ee:	2103      	movs	r1, #3
   240f0:	2346      	movs	r3, #70	@ 0x46
   240f2:	4622      	mov	r2, r4
   240f4:	df04      	svc	4
   240f6:	2802      	cmp	r0, #2
   240f8:	d00e      	beq.n	24118 <_start+0x21c>
   240fa:	484a      	ldr	r0, [pc, #296]	@ (24224 <_start+0x328>)
   240fc:	2102      	movs	r1, #2
   240fe:	4a44      	ldr	r2, [pc, #272]	@ (24210 <_start+0x314>)
   24100:	446a      	add	r2, sp
   24102:	2318      	movs	r3, #24
   24104:	df03      	svc	3
   24106:	2802      	cmp	r0, #2
   24108:	d006      	beq.n	24118 <_start+0x21c>
   2410a:	4846      	ldr	r0, [pc, #280]	@ (24224 <_start+0x328>)
   2410c:	2103      	movs	r1, #3
   2410e:	2202      	movs	r2, #2
   24110:	2300      	movs	r3, #0
   24112:	df02      	svc	2
   24114:	287f      	cmp	r0, #127	@ 0x7f
   24116:	d80d      	bhi.n	24134 <_start+0x238>
   24118:	910c      	str	r1, [sp, #48]	@ 0x30
   2411a:	4c42      	ldr	r4, [pc, #264]	@ (24224 <_start+0x328>)
   2411c:	2102      	movs	r1, #2
   2411e:	2500      	movs	r5, #0
   24120:	4620      	mov	r0, r4
   24122:	462a      	mov	r2, r5
   24124:	462b      	mov	r3, r5
   24126:	df03      	svc	3
   24128:	2103      	movs	r1, #3
   2412a:	4620      	mov	r0, r4
   2412c:	462a      	mov	r2, r5
   2412e:	462b      	mov	r3, r5
   24130:	df04      	svc	4
   24132:	e71e      	b.n	23f72 <_start+0x76>
   24134:	4d3b      	ldr	r5, [pc, #236]	@ (24224 <_start+0x328>)
   24136:	2602      	movs	r6, #2
   24138:	2400      	movs	r4, #0
   2413a:	4628      	mov	r0, r5
   2413c:	4631      	mov	r1, r6
   2413e:	4622      	mov	r2, r4
   24140:	4623      	mov	r3, r4
   24142:	df03      	svc	3
   24144:	4628      	mov	r0, r5
   24146:	4631      	mov	r1, r6
   24148:	4622      	mov	r2, r4
   2414a:	4623      	mov	r3, r4
   2414c:	df03      	svc	3
   2414e:	aa24      	add	r2, sp, #144	@ 0x90
   24150:	920c      	str	r2, [sp, #48]	@ 0x30
   24152:	9805      	ldr	r0, [sp, #20]
   24154:	6800      	ldr	r0, [r0, #0]
   24156:	8010      	strh	r0, [r2, #0]
   24158:	482d      	ldr	r0, [pc, #180]	@ (24210 <_start+0x314>)
   2415a:	4468      	add	r0, sp
   2415c:	7881      	ldrb	r1, [r0, #2]
   2415e:	7091      	strb	r1, [r2, #2]
   24160:	78c1      	ldrb	r1, [r0, #3]
   24162:	910a      	str	r1, [sp, #40]	@ 0x28
   24164:	7901      	ldrb	r1, [r0, #4]
   24166:	9109      	str	r1, [sp, #36]	@ 0x24
   24168:	7941      	ldrb	r1, [r0, #5]
   2416a:	9108      	str	r1, [sp, #32]
   2416c:	7981      	ldrb	r1, [r0, #6]
   2416e:	9107      	str	r1, [sp, #28]
   24170:	1dc1      	adds	r1, r0, #7
   24172:	a81f      	add	r0, sp, #124	@ 0x7c
   24174:	9006      	str	r0, [sp, #24]
   24176:	2211      	movs	r2, #17
   24178:	9202      	str	r2, [sp, #8]
   2417a:	f002 fea0 	bl	26ebe <__aeabi_memcpy>
   2417e:	4628      	mov	r0, r5
   24180:	4631      	mov	r1, r6
   24182:	4622      	mov	r2, r4
   24184:	4623      	mov	r3, r4
   24186:	df03      	svc	3
   24188:	2103      	movs	r1, #3
   2418a:	4628      	mov	r0, r5
   2418c:	4622      	mov	r2, r4
   2418e:	4623      	mov	r3, r4
   24190:	df04      	svc	4
   24192:	ad0e      	add	r5, sp, #56	@ 0x38
   24194:	1de8      	adds	r0, r5, #7
   24196:	9906      	ldr	r1, [sp, #24]
   24198:	9a02      	ldr	r2, [sp, #8]
   2419a:	f002 fe90 	bl	26ebe <__aeabi_memcpy>
   2419e:	9807      	ldr	r0, [sp, #28]
   241a0:	71a8      	strb	r0, [r5, #6]
   241a2:	9808      	ldr	r0, [sp, #32]
   241a4:	7168      	strb	r0, [r5, #5]
   241a6:	9809      	ldr	r0, [sp, #36]	@ 0x24
   241a8:	7128      	strb	r0, [r5, #4]
   241aa:	980a      	ldr	r0, [sp, #40]	@ 0x28
   241ac:	70e8      	strb	r0, [r5, #3]
   241ae:	9824      	ldr	r0, [sp, #144]	@ 0x90
   241b0:	8028      	strh	r0, [r5, #0]
   241b2:	980c      	ldr	r0, [sp, #48]	@ 0x30
   241b4:	7880      	ldrb	r0, [r0, #2]
   241b6:	70a8      	strb	r0, [r5, #2]
   241b8:	4816      	ldr	r0, [pc, #88]	@ (24214 <_start+0x318>)
   241ba:	4468      	add	r0, sp
   241bc:	2136      	movs	r1, #54	@ 0x36
   241be:	f002 fcd1 	bl	26b64 <__aeabi_memclr4>
   241c2:	4819      	ldr	r0, [pc, #100]	@ (24228 <_start+0x32c>)
   241c4:	2318      	movs	r3, #24
   241c6:	4621      	mov	r1, r4
   241c8:	462a      	mov	r2, r5
   241ca:	df04      	svc	4
   241cc:	2802      	cmp	r0, #2
   241ce:	d00e      	beq.n	241ee <_start+0x2f2>
   241d0:	4815      	ldr	r0, [pc, #84]	@ (24228 <_start+0x32c>)
   241d2:	2107      	movs	r1, #7
   241d4:	4a0f      	ldr	r2, [pc, #60]	@ (24214 <_start+0x318>)
   241d6:	446a      	add	r2, sp
   241d8:	2336      	movs	r3, #54	@ 0x36
   241da:	df03      	svc	3
   241dc:	2802      	cmp	r0, #2
   241de:	d006      	beq.n	241ee <_start+0x2f2>
   241e0:	4811      	ldr	r0, [pc, #68]	@ (24228 <_start+0x32c>)
   241e2:	2207      	movs	r2, #7
   241e4:	2100      	movs	r1, #0
   241e6:	460b      	mov	r3, r1
   241e8:	df02      	svc	2
   241ea:	287f      	cmp	r0, #127	@ 0x7f
   241ec:	d81e      	bhi.n	2422c <_start+0x330>
   241ee:	910c      	str	r1, [sp, #48]	@ 0x30
   241f0:	4c0d      	ldr	r4, [pc, #52]	@ (24228 <_start+0x32c>)
   241f2:	2107      	movs	r1, #7
   241f4:	2500      	movs	r5, #0
   241f6:	4620      	mov	r0, r4
   241f8:	462a      	mov	r2, r5
   241fa:	462b      	mov	r3, r5
   241fc:	df03      	svc	3
   241fe:	4620      	mov	r0, r4
   24200:	4629      	mov	r1, r5
   24202:	462a      	mov	r2, r5
   24204:	462b      	mov	r3, r5
   24206:	df04      	svc	4
   24208:	e6b3      	b.n	23f72 <_start+0x76>
   2420a:	46c0      	nop			@ (mov r8, r8)
   2420c:	ffffeb14 	.word	0xffffeb14
   24210:	00001370 	.word	0x00001370
   24214:	000013cc 	.word	0x000013cc
   24218:	00002006 	.word	0x00002006
   2421c:	000007a4 	.word	0x000007a4
   24220:	000020c4 	.word	0x000020c4
   24224:	000023cf 	.word	0x000023cf
   24228:	0000021f 	.word	0x0000021f
   2422c:	4e6e      	ldr	r6, [pc, #440]	@ (243e8 <_start+0x4ec>)
   2422e:	2407      	movs	r4, #7
   24230:	940c      	str	r4, [sp, #48]	@ 0x30
   24232:	2500      	movs	r5, #0
   24234:	4630      	mov	r0, r6
   24236:	4621      	mov	r1, r4
   24238:	462a      	mov	r2, r5
   2423a:	462b      	mov	r3, r5
   2423c:	df03      	svc	3
   2423e:	4630      	mov	r0, r6
   24240:	4621      	mov	r1, r4
   24242:	462a      	mov	r2, r5
   24244:	462b      	mov	r3, r5
   24246:	df03      	svc	3
   24248:	aa25      	add	r2, sp, #148	@ 0x94
   2424a:	920a      	str	r2, [sp, #40]	@ 0x28
   2424c:	9805      	ldr	r0, [sp, #20]
   2424e:	6dc0      	ldr	r0, [r0, #92]	@ 0x5c
   24250:	8010      	strh	r0, [r2, #0]
   24252:	4866      	ldr	r0, [pc, #408]	@ (243ec <_start+0x4f0>)
   24254:	4468      	add	r0, sp
   24256:	7881      	ldrb	r1, [r0, #2]
   24258:	7091      	strb	r1, [r2, #2]
   2425a:	78c1      	ldrb	r1, [r0, #3]
   2425c:	9109      	str	r1, [sp, #36]	@ 0x24
   2425e:	7901      	ldrb	r1, [r0, #4]
   24260:	9108      	str	r1, [sp, #32]
   24262:	7941      	ldrb	r1, [r0, #5]
   24264:	9107      	str	r1, [sp, #28]
   24266:	7981      	ldrb	r1, [r0, #6]
   24268:	9106      	str	r1, [sp, #24]
   2426a:	1dc1      	adds	r1, r0, #7
   2426c:	4e60      	ldr	r6, [pc, #384]	@ (243f0 <_start+0x4f4>)
   2426e:	446e      	add	r6, sp
   24270:	242f      	movs	r4, #47	@ 0x2f
   24272:	4630      	mov	r0, r6
   24274:	4622      	mov	r2, r4
   24276:	f002 fe22 	bl	26ebe <__aeabi_memcpy>
   2427a:	485b      	ldr	r0, [pc, #364]	@ (243e8 <_start+0x4ec>)
   2427c:	990c      	ldr	r1, [sp, #48]	@ 0x30
   2427e:	462a      	mov	r2, r5
   24280:	462b      	mov	r3, r5
   24282:	df03      	svc	3
   24284:	4858      	ldr	r0, [pc, #352]	@ (243e8 <_start+0x4ec>)
   24286:	4629      	mov	r1, r5
   24288:	462a      	mov	r2, r5
   2428a:	462b      	mov	r3, r5
   2428c:	df04      	svc	4
   2428e:	4d57      	ldr	r5, [pc, #348]	@ (243ec <_start+0x4f0>)
   24290:	446d      	add	r5, sp
   24292:	1de8      	adds	r0, r5, #7
   24294:	4631      	mov	r1, r6
   24296:	4622      	mov	r2, r4
   24298:	f002 fe11 	bl	26ebe <__aeabi_memcpy>
   2429c:	9806      	ldr	r0, [sp, #24]
   2429e:	71a8      	strb	r0, [r5, #6]
   242a0:	9807      	ldr	r0, [sp, #28]
   242a2:	7168      	strb	r0, [r5, #5]
   242a4:	9808      	ldr	r0, [sp, #32]
   242a6:	7128      	strb	r0, [r5, #4]
   242a8:	9809      	ldr	r0, [sp, #36]	@ 0x24
   242aa:	70e8      	strb	r0, [r5, #3]
   242ac:	9825      	ldr	r0, [sp, #148]	@ 0x94
   242ae:	8028      	strh	r0, [r5, #0]
   242b0:	980a      	ldr	r0, [sp, #40]	@ 0x28
   242b2:	7880      	ldrb	r0, [r0, #2]
   242b4:	70a8      	strb	r0, [r5, #2]
   242b6:	484e      	ldr	r0, [pc, #312]	@ (243f0 <_start+0x4f4>)
   242b8:	4468      	add	r0, sp
   242ba:	2125      	movs	r1, #37	@ 0x25
   242bc:	f002 fc52 	bl	26b64 <__aeabi_memclr4>
   242c0:	484c      	ldr	r0, [pc, #304]	@ (243f4 <_start+0x4f8>)
   242c2:	2336      	movs	r3, #54	@ 0x36
   242c4:	990c      	ldr	r1, [sp, #48]	@ 0x30
   242c6:	462a      	mov	r2, r5
   242c8:	df04      	svc	4
   242ca:	2802      	cmp	r0, #2
   242cc:	d007      	beq.n	242de <_start+0x3e2>
   242ce:	4849      	ldr	r0, [pc, #292]	@ (243f4 <_start+0x4f8>)
   242d0:	2100      	movs	r1, #0
   242d2:	4a47      	ldr	r2, [pc, #284]	@ (243f0 <_start+0x4f4>)
   242d4:	446a      	add	r2, sp
   242d6:	2325      	movs	r3, #37	@ 0x25
   242d8:	df03      	svc	3
   242da:	2802      	cmp	r0, #2
   242dc:	d10d      	bne.n	242fa <_start+0x3fe>
   242de:	910c      	str	r1, [sp, #48]	@ 0x30
   242e0:	4c44      	ldr	r4, [pc, #272]	@ (243f4 <_start+0x4f8>)
   242e2:	2500      	movs	r5, #0
   242e4:	4620      	mov	r0, r4
   242e6:	4629      	mov	r1, r5
   242e8:	462a      	mov	r2, r5
   242ea:	462b      	mov	r3, r5
   242ec:	df03      	svc	3
   242ee:	2107      	movs	r1, #7
   242f0:	4620      	mov	r0, r4
   242f2:	462a      	mov	r2, r5
   242f4:	462b      	mov	r3, r5
   242f6:	df04      	svc	4
   242f8:	e63b      	b.n	23f72 <_start+0x76>
   242fa:	483e      	ldr	r0, [pc, #248]	@ (243f4 <_start+0x4f8>)
   242fc:	2107      	movs	r1, #7
   242fe:	2400      	movs	r4, #0
   24300:	4622      	mov	r2, r4
   24302:	4623      	mov	r3, r4
   24304:	df02      	svc	2
   24306:	910c      	str	r1, [sp, #48]	@ 0x30
   24308:	287f      	cmp	r0, #127	@ 0x7f
   2430a:	d9e9      	bls.n	242e0 <_start+0x3e4>
   2430c:	4d39      	ldr	r5, [pc, #228]	@ (243f4 <_start+0x4f8>)
   2430e:	4628      	mov	r0, r5
   24310:	4621      	mov	r1, r4
   24312:	4622      	mov	r2, r4
   24314:	4623      	mov	r3, r4
   24316:	df03      	svc	3
   24318:	4628      	mov	r0, r5
   2431a:	4621      	mov	r1, r4
   2431c:	4622      	mov	r2, r4
   2431e:	4623      	mov	r3, r4
   24320:	df03      	svc	3
   24322:	aa26      	add	r2, sp, #152	@ 0x98
   24324:	920c      	str	r2, [sp, #48]	@ 0x30
   24326:	9e05      	ldr	r6, [sp, #20]
   24328:	6830      	ldr	r0, [r6, #0]
   2432a:	8010      	strh	r0, [r2, #0]
   2432c:	4830      	ldr	r0, [pc, #192]	@ (243f0 <_start+0x4f4>)
   2432e:	4468      	add	r0, sp
   24330:	7881      	ldrb	r1, [r0, #2]
   24332:	7091      	strb	r1, [r2, #2]
   24334:	78c1      	ldrb	r1, [r0, #3]
   24336:	910a      	str	r1, [sp, #40]	@ 0x28
   24338:	7901      	ldrb	r1, [r0, #4]
   2433a:	9109      	str	r1, [sp, #36]	@ 0x24
   2433c:	7941      	ldrb	r1, [r0, #5]
   2433e:	9108      	str	r1, [sp, #32]
   24340:	7981      	ldrb	r1, [r0, #6]
   24342:	9107      	str	r1, [sp, #28]
   24344:	1dc1      	adds	r1, r0, #7
   24346:	a80e      	add	r0, sp, #56	@ 0x38
   24348:	9006      	str	r0, [sp, #24]
   2434a:	221e      	movs	r2, #30
   2434c:	9202      	str	r2, [sp, #8]
   2434e:	f002 fdb6 	bl	26ebe <__aeabi_memcpy>
   24352:	4628      	mov	r0, r5
   24354:	4621      	mov	r1, r4
   24356:	4622      	mov	r2, r4
   24358:	4623      	mov	r3, r4
   2435a:	df03      	svc	3
   2435c:	2107      	movs	r1, #7
   2435e:	4628      	mov	r0, r5
   24360:	4622      	mov	r2, r4
   24362:	4623      	mov	r3, r4
   24364:	df04      	svc	4
   24366:	4d21      	ldr	r5, [pc, #132]	@ (243ec <_start+0x4f0>)
   24368:	446d      	add	r5, sp
   2436a:	1de8      	adds	r0, r5, #7
   2436c:	9906      	ldr	r1, [sp, #24]
   2436e:	9a02      	ldr	r2, [sp, #8]
   24370:	f002 fda5 	bl	26ebe <__aeabi_memcpy>
   24374:	9807      	ldr	r0, [sp, #28]
   24376:	71a8      	strb	r0, [r5, #6]
   24378:	9808      	ldr	r0, [sp, #32]
   2437a:	7168      	strb	r0, [r5, #5]
   2437c:	9809      	ldr	r0, [sp, #36]	@ 0x24
   2437e:	7128      	strb	r0, [r5, #4]
   24380:	980a      	ldr	r0, [sp, #40]	@ 0x28
   24382:	70e8      	strb	r0, [r5, #3]
   24384:	9826      	ldr	r0, [sp, #152]	@ 0x98
   24386:	8028      	strh	r0, [r5, #0]
   24388:	980c      	ldr	r0, [sp, #48]	@ 0x30
   2438a:	7880      	ldrb	r0, [r0, #2]
   2438c:	70a8      	strb	r0, [r5, #2]
   2438e:	4818      	ldr	r0, [pc, #96]	@ (243f0 <_start+0x4f4>)
   24390:	4468      	add	r0, sp
   24392:	8184      	strh	r4, [r0, #12]
   24394:	6034      	str	r4, [r6, #0]
   24396:	6074      	str	r4, [r6, #4]
   24398:	60b4      	str	r4, [r6, #8]
   2439a:	4817      	ldr	r0, [pc, #92]	@ (243f8 <_start+0x4fc>)
   2439c:	2102      	movs	r1, #2
   2439e:	2325      	movs	r3, #37	@ 0x25
   243a0:	462a      	mov	r2, r5
   243a2:	df04      	svc	4
   243a4:	910c      	str	r1, [sp, #48]	@ 0x30
   243a6:	2802      	cmp	r0, #2
   243a8:	d010      	beq.n	243cc <_start+0x4d0>
   243aa:	4813      	ldr	r0, [pc, #76]	@ (243f8 <_start+0x4fc>)
   243ac:	2108      	movs	r1, #8
   243ae:	4a10      	ldr	r2, [pc, #64]	@ (243f0 <_start+0x4f4>)
   243b0:	446a      	add	r2, sp
   243b2:	230e      	movs	r3, #14
   243b4:	df03      	svc	3
   243b6:	910c      	str	r1, [sp, #48]	@ 0x30
   243b8:	2802      	cmp	r0, #2
   243ba:	d007      	beq.n	243cc <_start+0x4d0>
   243bc:	480e      	ldr	r0, [pc, #56]	@ (243f8 <_start+0x4fc>)
   243be:	2102      	movs	r1, #2
   243c0:	2208      	movs	r2, #8
   243c2:	2300      	movs	r3, #0
   243c4:	df02      	svc	2
   243c6:	910c      	str	r1, [sp, #48]	@ 0x30
   243c8:	287f      	cmp	r0, #127	@ 0x7f
   243ca:	d817      	bhi.n	243fc <_start+0x500>
   243cc:	4c0a      	ldr	r4, [pc, #40]	@ (243f8 <_start+0x4fc>)
   243ce:	2108      	movs	r1, #8
   243d0:	2500      	movs	r5, #0
   243d2:	4620      	mov	r0, r4
   243d4:	462a      	mov	r2, r5
   243d6:	462b      	mov	r3, r5
   243d8:	df03      	svc	3
   243da:	2102      	movs	r1, #2
   243dc:	4620      	mov	r0, r4
   243de:	462a      	mov	r2, r5
   243e0:	462b      	mov	r3, r5
   243e2:	df04      	svc	4
   243e4:	e5c5      	b.n	23f72 <_start+0x76>
   243e6:	46c0      	nop			@ (mov r8, r8)
   243e8:	0000021f 	.word	0x0000021f
   243ec:	000013cc 	.word	0x000013cc
   243f0:	00001370 	.word	0x00001370
   243f4:	00001597 	.word	0x00001597
   243f8:	00000667 	.word	0x00000667
   243fc:	4d22      	ldr	r5, [pc, #136]	@ (24488 <_start+0x58c>)
   243fe:	2608      	movs	r6, #8
   24400:	2400      	movs	r4, #0
   24402:	4628      	mov	r0, r5
   24404:	4631      	mov	r1, r6
   24406:	4622      	mov	r2, r4
   24408:	4623      	mov	r3, r4
   2440a:	df03      	svc	3
   2440c:	4628      	mov	r0, r5
   2440e:	4631      	mov	r1, r6
   24410:	4622      	mov	r2, r4
   24412:	4623      	mov	r3, r4
   24414:	df03      	svc	3
   24416:	ad27      	add	r5, sp, #156	@ 0x9c
   24418:	9805      	ldr	r0, [sp, #20]
   2441a:	6800      	ldr	r0, [r0, #0]
   2441c:	8028      	strh	r0, [r5, #0]
   2441e:	481b      	ldr	r0, [pc, #108]	@ (2448c <_start+0x590>)
   24420:	4468      	add	r0, sp
   24422:	7881      	ldrb	r1, [r0, #2]
   24424:	70a9      	strb	r1, [r5, #2]
   24426:	78c1      	ldrb	r1, [r0, #3]
   24428:	910c      	str	r1, [sp, #48]	@ 0x30
   2442a:	7901      	ldrb	r1, [r0, #4]
   2442c:	910a      	str	r1, [sp, #40]	@ 0x28
   2442e:	7941      	ldrb	r1, [r0, #5]
   24430:	9109      	str	r1, [sp, #36]	@ 0x24
   24432:	7981      	ldrb	r1, [r0, #6]
   24434:	9106      	str	r1, [sp, #24]
   24436:	1dc1      	adds	r1, r0, #7
   24438:	a80e      	add	r0, sp, #56	@ 0x38
   2443a:	9008      	str	r0, [sp, #32]
   2443c:	2207      	movs	r2, #7
   2443e:	9207      	str	r2, [sp, #28]
   24440:	f002 fd3d 	bl	26ebe <__aeabi_memcpy>
   24444:	4810      	ldr	r0, [pc, #64]	@ (24488 <_start+0x58c>)
   24446:	4631      	mov	r1, r6
   24448:	4622      	mov	r2, r4
   2444a:	4623      	mov	r3, r4
   2444c:	df03      	svc	3
   2444e:	2102      	movs	r1, #2
   24450:	480d      	ldr	r0, [pc, #52]	@ (24488 <_start+0x58c>)
   24452:	4622      	mov	r2, r4
   24454:	4623      	mov	r3, r4
   24456:	df04      	svc	4
   24458:	9806      	ldr	r0, [sp, #24]
   2445a:	71a8      	strb	r0, [r5, #6]
   2445c:	9809      	ldr	r0, [sp, #36]	@ 0x24
   2445e:	7168      	strb	r0, [r5, #5]
   24460:	980a      	ldr	r0, [sp, #40]	@ 0x28
   24462:	7128      	strb	r0, [r5, #4]
   24464:	980c      	ldr	r0, [sp, #48]	@ 0x30
   24466:	70e8      	strb	r0, [r5, #3]
   24468:	1de8      	adds	r0, r5, #7
   2446a:	9908      	ldr	r1, [sp, #32]
   2446c:	9a07      	ldr	r2, [sp, #28]
   2446e:	f002 fd26 	bl	26ebe <__aeabi_memcpy>
   24472:	4e07      	ldr	r6, [pc, #28]	@ (24490 <_start+0x594>)
   24474:	446e      	add	r6, sp
   24476:	4630      	mov	r0, r6
   24478:	4629      	mov	r1, r5
   2447a:	f7fe fa09 	bl	22890 <_ZN18complex_no_dynamic3app17h93b31dfe11a97aafE>
   2447e:	7830      	ldrb	r0, [r6, #0]
   24480:	2801      	cmp	r0, #1
   24482:	d107      	bne.n	24494 <_start+0x598>
   24484:	f002 fb4a 	bl	26b1c <_start+0x2c20>
   24488:	00000667 	.word	0x00000667
   2448c:	00001370 	.word	0x00001370
   24490:	000013cc 	.word	0x000013cc
   24494:	4915      	ldr	r1, [pc, #84]	@ (244ec <_start+0x5f0>)
   24496:	4469      	add	r1, sp
   24498:	78c8      	ldrb	r0, [r1, #3]
   2449a:	ad2b      	add	r5, sp, #172	@ 0xac
   2449c:	70a8      	strb	r0, [r5, #2]
   2449e:	7848      	ldrb	r0, [r1, #1]
   244a0:	788a      	ldrb	r2, [r1, #2]
   244a2:	0212      	lsls	r2, r2, #8
   244a4:	1810      	adds	r0, r2, r0
   244a6:	8028      	strh	r0, [r5, #0]
   244a8:	9805      	ldr	r0, [sp, #20]
   244aa:	6e06      	ldr	r6, [r0, #96]	@ 0x60
   244ac:	3108      	adds	r1, #8
   244ae:	4810      	ldr	r0, [pc, #64]	@ (244f0 <_start+0x5f4>)
   244b0:	4468      	add	r0, sp
   244b2:	900c      	str	r0, [sp, #48]	@ 0x30
   244b4:	2241      	movs	r2, #65	@ 0x41
   244b6:	920a      	str	r2, [sp, #40]	@ 0x28
   244b8:	f002 fba1 	bl	26bfe <__aeabi_memcpy4>
   244bc:	0e30      	lsrs	r0, r6, #24
   244be:	71a8      	strb	r0, [r5, #6]
   244c0:	0c30      	lsrs	r0, r6, #16
   244c2:	7168      	strb	r0, [r5, #5]
   244c4:	0a30      	lsrs	r0, r6, #8
   244c6:	7128      	strb	r0, [r5, #4]
   244c8:	70ee      	strb	r6, [r5, #3]
   244ca:	1de8      	adds	r0, r5, #7
   244cc:	990c      	ldr	r1, [sp, #48]	@ 0x30
   244ce:	9a0a      	ldr	r2, [sp, #40]	@ 0x28
   244d0:	f002 fcf5 	bl	26ebe <__aeabi_memcpy>
   244d4:	4e05      	ldr	r6, [pc, #20]	@ (244ec <_start+0x5f0>)
   244d6:	446e      	add	r6, sp
   244d8:	4630      	mov	r0, r6
   244da:	4629      	mov	r1, r5
   244dc:	f7fd fbe6 	bl	21cac <_ZN18complex_no_dynamic3app17h643d05c3908560c3E>
   244e0:	7830      	ldrb	r0, [r6, #0]
   244e2:	2801      	cmp	r0, #1
   244e4:	d106      	bne.n	244f4 <_start+0x5f8>
   244e6:	f002 fb19 	bl	26b1c <_start+0x2c20>
   244ea:	46c0      	nop			@ (mov r8, r8)
   244ec:	000013cc 	.word	0x000013cc
   244f0:	00001370 	.word	0x00001370
   244f4:	980b      	ldr	r0, [sp, #44]	@ 0x2c
   244f6:	1cc0      	adds	r0, r0, #3
   244f8:	4a15      	ldr	r2, [pc, #84]	@ (24550 <_start+0x654>)
   244fa:	446a      	add	r2, sp
   244fc:	78d3      	ldrb	r3, [r2, #3]
   244fe:	a93d      	add	r1, sp, #244	@ 0xf4
   24500:	708b      	strb	r3, [r1, #2]
   24502:	7853      	ldrb	r3, [r2, #1]
   24504:	7892      	ldrb	r2, [r2, #2]
   24506:	0212      	lsls	r2, r2, #8
   24508:	18d2      	adds	r2, r2, r3
   2450a:	800a      	strh	r2, [r1, #0]
   2450c:	9d05      	ldr	r5, [sp, #20]
   2450e:	3560      	adds	r5, #96	@ 0x60
   24510:	cd2c      	ldmia	r5, {r2, r3, r5}
   24512:	0e2e      	lsrs	r6, r5, #24
   24514:	72c6      	strb	r6, [r0, #11]
   24516:	0c2e      	lsrs	r6, r5, #16
   24518:	7286      	strb	r6, [r0, #10]
   2451a:	0a2e      	lsrs	r6, r5, #8
   2451c:	7246      	strb	r6, [r0, #9]
   2451e:	7205      	strb	r5, [r0, #8]
   24520:	0e1d      	lsrs	r5, r3, #24
   24522:	71c5      	strb	r5, [r0, #7]
   24524:	0c1d      	lsrs	r5, r3, #16
   24526:	7185      	strb	r5, [r0, #6]
   24528:	0a1d      	lsrs	r5, r3, #8
   2452a:	7145      	strb	r5, [r0, #5]
   2452c:	7103      	strb	r3, [r0, #4]
   2452e:	0e13      	lsrs	r3, r2, #24
   24530:	70c3      	strb	r3, [r0, #3]
   24532:	0c13      	lsrs	r3, r2, #16
   24534:	7083      	strb	r3, [r0, #2]
   24536:	0a13      	lsrs	r3, r2, #8
   24538:	7043      	strb	r3, [r0, #1]
   2453a:	7002      	strb	r2, [r0, #0]
   2453c:	4d04      	ldr	r5, [pc, #16]	@ (24550 <_start+0x654>)
   2453e:	446d      	add	r5, sp
   24540:	4628      	mov	r0, r5
   24542:	f7fe fe99 	bl	23278 <_ZN18complex_no_dynamic3app17hcc46a6da55d99d62E>
   24546:	7828      	ldrb	r0, [r5, #0]
   24548:	2801      	cmp	r0, #1
   2454a:	d103      	bne.n	24554 <_start+0x658>
   2454c:	f002 fae6 	bl	26b1c <_start+0x2c20>
   24550:	000013cc 	.word	0x000013cc
   24554:	4818      	ldr	r0, [pc, #96]	@ (245b8 <_start+0x6bc>)
   24556:	4468      	add	r0, sp
   24558:	78c1      	ldrb	r1, [r0, #3]
   2455a:	ab41      	add	r3, sp, #260	@ 0x104
   2455c:	930b      	str	r3, [sp, #44]	@ 0x2c
   2455e:	7099      	strb	r1, [r3, #2]
   24560:	7841      	ldrb	r1, [r0, #1]
   24562:	7882      	ldrb	r2, [r0, #2]
   24564:	0212      	lsls	r2, r2, #8
   24566:	1851      	adds	r1, r2, r1
   24568:	8019      	strh	r1, [r3, #0]
   2456a:	3008      	adds	r0, #8
   2456c:	9905      	ldr	r1, [sp, #20]
   2456e:	6e09      	ldr	r1, [r1, #96]	@ 0x60
   24570:	910a      	str	r1, [sp, #40]	@ 0x28
   24572:	4b12      	ldr	r3, [pc, #72]	@ (245bc <_start+0x6c0>)
   24574:	446b      	add	r3, sp
   24576:	930c      	str	r3, [sp, #48]	@ 0x30
   24578:	c846      	ldmia	r0!, {r1, r2, r6}
   2457a:	c346      	stmia	r3!, {r1, r2, r6}
   2457c:	c866      	ldmia	r0!, {r1, r2, r5, r6}
   2457e:	c366      	stmia	r3!, {r1, r2, r5, r6}
   24580:	8800      	ldrh	r0, [r0, #0]
   24582:	8018      	strh	r0, [r3, #0]
   24584:	990a      	ldr	r1, [sp, #40]	@ 0x28
   24586:	0e08      	lsrs	r0, r1, #24
   24588:	9d0b      	ldr	r5, [sp, #44]	@ 0x2c
   2458a:	71a8      	strb	r0, [r5, #6]
   2458c:	0c08      	lsrs	r0, r1, #16
   2458e:	7168      	strb	r0, [r5, #5]
   24590:	0a08      	lsrs	r0, r1, #8
   24592:	7128      	strb	r0, [r5, #4]
   24594:	70e9      	strb	r1, [r5, #3]
   24596:	1de8      	adds	r0, r5, #7
   24598:	221e      	movs	r2, #30
   2459a:	990c      	ldr	r1, [sp, #48]	@ 0x30
   2459c:	f002 fc8f 	bl	26ebe <__aeabi_memcpy>
   245a0:	4e05      	ldr	r6, [pc, #20]	@ (245b8 <_start+0x6bc>)
   245a2:	446e      	add	r6, sp
   245a4:	4630      	mov	r0, r6
   245a6:	4629      	mov	r1, r5
   245a8:	f7fc f9e4 	bl	20974 <_ZN18complex_no_dynamic3app17h21f9b3fcf5efa5c4E>
   245ac:	7830      	ldrb	r0, [r6, #0]
   245ae:	2801      	cmp	r0, #1
   245b0:	d106      	bne.n	245c0 <_start+0x6c4>
   245b2:	f002 fab3 	bl	26b1c <_start+0x2c20>
   245b6:	46c0      	nop			@ (mov r8, r8)
   245b8:	000013cc 	.word	0x000013cc
   245bc:	00001370 	.word	0x00001370
   245c0:	4819      	ldr	r0, [pc, #100]	@ (24628 <_start+0x72c>)
   245c2:	4468      	add	r0, sp
   245c4:	78c1      	ldrb	r1, [r0, #3]
   245c6:	ab4b      	add	r3, sp, #300	@ 0x12c
   245c8:	930b      	str	r3, [sp, #44]	@ 0x2c
   245ca:	7099      	strb	r1, [r3, #2]
   245cc:	7841      	ldrb	r1, [r0, #1]
   245ce:	7882      	ldrb	r2, [r0, #2]
   245d0:	0212      	lsls	r2, r2, #8
   245d2:	1851      	adds	r1, r2, r1
   245d4:	8019      	strh	r1, [r3, #0]
   245d6:	3008      	adds	r0, #8
   245d8:	9905      	ldr	r1, [sp, #20]
   245da:	6e09      	ldr	r1, [r1, #96]	@ 0x60
   245dc:	910a      	str	r1, [sp, #40]	@ 0x28
   245de:	4b13      	ldr	r3, [pc, #76]	@ (2462c <_start+0x730>)
   245e0:	446b      	add	r3, sp
   245e2:	930c      	str	r3, [sp, #48]	@ 0x30
   245e4:	c866      	ldmia	r0!, {r1, r2, r5, r6}
   245e6:	c366      	stmia	r3!, {r1, r2, r5, r6}
   245e8:	c866      	ldmia	r0!, {r1, r2, r5, r6}
   245ea:	c366      	stmia	r3!, {r1, r2, r5, r6}
   245ec:	8801      	ldrh	r1, [r0, #0]
   245ee:	8019      	strh	r1, [r3, #0]
   245f0:	7880      	ldrb	r0, [r0, #2]
   245f2:	7098      	strb	r0, [r3, #2]
   245f4:	990a      	ldr	r1, [sp, #40]	@ 0x28
   245f6:	0e08      	lsrs	r0, r1, #24
   245f8:	9d0b      	ldr	r5, [sp, #44]	@ 0x2c
   245fa:	71a8      	strb	r0, [r5, #6]
   245fc:	0c08      	lsrs	r0, r1, #16
   245fe:	7168      	strb	r0, [r5, #5]
   24600:	0a08      	lsrs	r0, r1, #8
   24602:	7128      	strb	r0, [r5, #4]
   24604:	70e9      	strb	r1, [r5, #3]
   24606:	1de8      	adds	r0, r5, #7
   24608:	2223      	movs	r2, #35	@ 0x23
   2460a:	990c      	ldr	r1, [sp, #48]	@ 0x30
   2460c:	f002 fc57 	bl	26ebe <__aeabi_memcpy>
   24610:	4e05      	ldr	r6, [pc, #20]	@ (24628 <_start+0x72c>)
   24612:	446e      	add	r6, sp
   24614:	4630      	mov	r0, r6
   24616:	4629      	mov	r1, r5
   24618:	f7fd fc44 	bl	21ea4 <_ZN18complex_no_dynamic3app17h6ee4452475e96e82E>
   2461c:	7830      	ldrb	r0, [r6, #0]
   2461e:	2801      	cmp	r0, #1
   24620:	d106      	bne.n	24630 <_start+0x734>
   24622:	f002 fa7b 	bl	26b1c <_start+0x2c20>
   24626:	46c0      	nop			@ (mov r8, r8)
   24628:	000013cc 	.word	0x000013cc
   2462c:	00001370 	.word	0x00001370
   24630:	4915      	ldr	r1, [pc, #84]	@ (24688 <_start+0x78c>)
   24632:	4469      	add	r1, sp
   24634:	78c8      	ldrb	r0, [r1, #3]
   24636:	ad56      	add	r5, sp, #344	@ 0x158
   24638:	70a8      	strb	r0, [r5, #2]
   2463a:	7848      	ldrb	r0, [r1, #1]
   2463c:	788a      	ldrb	r2, [r1, #2]
   2463e:	0212      	lsls	r2, r2, #8
   24640:	1810      	adds	r0, r2, r0
   24642:	8028      	strh	r0, [r5, #0]
   24644:	9805      	ldr	r0, [sp, #20]
   24646:	6e06      	ldr	r6, [r0, #96]	@ 0x60
   24648:	3108      	adds	r1, #8
   2464a:	4810      	ldr	r0, [pc, #64]	@ (2468c <_start+0x790>)
   2464c:	4468      	add	r0, sp
   2464e:	900c      	str	r0, [sp, #48]	@ 0x30
   24650:	225c      	movs	r2, #92	@ 0x5c
   24652:	920b      	str	r2, [sp, #44]	@ 0x2c
   24654:	f002 fad3 	bl	26bfe <__aeabi_memcpy4>
   24658:	0e30      	lsrs	r0, r6, #24
   2465a:	71a8      	strb	r0, [r5, #6]
   2465c:	0c30      	lsrs	r0, r6, #16
   2465e:	7168      	strb	r0, [r5, #5]
   24660:	0a30      	lsrs	r0, r6, #8
   24662:	7128      	strb	r0, [r5, #4]
   24664:	70ee      	strb	r6, [r5, #3]
   24666:	1de8      	adds	r0, r5, #7
   24668:	990c      	ldr	r1, [sp, #48]	@ 0x30
   2466a:	9a0b      	ldr	r2, [sp, #44]	@ 0x2c
   2466c:	f002 fc27 	bl	26ebe <__aeabi_memcpy>
   24670:	4e05      	ldr	r6, [pc, #20]	@ (24688 <_start+0x78c>)
   24672:	446e      	add	r6, sp
   24674:	4630      	mov	r0, r6
   24676:	4629      	mov	r1, r5
   24678:	f7fb fd8a 	bl	20190 <_ZN18complex_no_dynamic3app17h0b8cbe69ef9acf40E>
   2467c:	7830      	ldrb	r0, [r6, #0]
   2467e:	2801      	cmp	r0, #1
   24680:	d106      	bne.n	24690 <_start+0x794>
   24682:	f002 fa4b 	bl	26b1c <_start+0x2c20>
   24686:	46c0      	nop			@ (mov r8, r8)
   24688:	000013cc 	.word	0x000013cc
   2468c:	00001370 	.word	0x00001370
   24690:	4817      	ldr	r0, [pc, #92]	@ (246f0 <_start+0x7f4>)
   24692:	4468      	add	r0, sp
   24694:	78c1      	ldrb	r1, [r0, #3]
   24696:	ab6f      	add	r3, sp, #444	@ 0x1bc
   24698:	930b      	str	r3, [sp, #44]	@ 0x2c
   2469a:	7099      	strb	r1, [r3, #2]
   2469c:	7841      	ldrb	r1, [r0, #1]
   2469e:	7882      	ldrb	r2, [r0, #2]
   246a0:	0212      	lsls	r2, r2, #8
   246a2:	1851      	adds	r1, r2, r1
   246a4:	8019      	strh	r1, [r3, #0]
   246a6:	3008      	adds	r0, #8
   246a8:	9905      	ldr	r1, [sp, #20]
   246aa:	6e09      	ldr	r1, [r1, #96]	@ 0x60
   246ac:	910a      	str	r1, [sp, #40]	@ 0x28
   246ae:	4b11      	ldr	r3, [pc, #68]	@ (246f4 <_start+0x7f8>)
   246b0:	446b      	add	r3, sp
   246b2:	930c      	str	r3, [sp, #48]	@ 0x30
   246b4:	c866      	ldmia	r0!, {r1, r2, r5, r6}
   246b6:	c366      	stmia	r3!, {r1, r2, r5, r6}
   246b8:	c866      	ldmia	r0!, {r1, r2, r5, r6}
   246ba:	c366      	stmia	r3!, {r1, r2, r5, r6}
   246bc:	990a      	ldr	r1, [sp, #40]	@ 0x28
   246be:	0e08      	lsrs	r0, r1, #24
   246c0:	9d0b      	ldr	r5, [sp, #44]	@ 0x2c
   246c2:	71a8      	strb	r0, [r5, #6]
   246c4:	0c08      	lsrs	r0, r1, #16
   246c6:	7168      	strb	r0, [r5, #5]
   246c8:	0a08      	lsrs	r0, r1, #8
   246ca:	7128      	strb	r0, [r5, #4]
   246cc:	70e9      	strb	r1, [r5, #3]
   246ce:	1de8      	adds	r0, r5, #7
   246d0:	2220      	movs	r2, #32
   246d2:	990c      	ldr	r1, [sp, #48]	@ 0x30
   246d4:	f002 fbf3 	bl	26ebe <__aeabi_memcpy>
   246d8:	4e05      	ldr	r6, [pc, #20]	@ (246f0 <_start+0x7f4>)
   246da:	446e      	add	r6, sp
   246dc:	4630      	mov	r0, r6
   246de:	4629      	mov	r1, r5
   246e0:	f7fe fc76 	bl	22fd0 <_ZN18complex_no_dynamic3app17hc1bec2ff06247a14E>
   246e4:	7830      	ldrb	r0, [r6, #0]
   246e6:	2801      	cmp	r0, #1
   246e8:	d106      	bne.n	246f8 <_start+0x7fc>
   246ea:	f002 fa17 	bl	26b1c <_start+0x2c20>
   246ee:	46c0      	nop			@ (mov r8, r8)
   246f0:	000013cc 	.word	0x000013cc
   246f4:	00001370 	.word	0x00001370
   246f8:	4818      	ldr	r0, [pc, #96]	@ (2475c <_start+0x860>)
   246fa:	4468      	add	r0, sp
   246fc:	78c1      	ldrb	r1, [r0, #3]
   246fe:	ad79      	add	r5, sp, #484	@ 0x1e4
   24700:	70a9      	strb	r1, [r5, #2]
   24702:	7841      	ldrb	r1, [r0, #1]
   24704:	7882      	ldrb	r2, [r0, #2]
   24706:	0212      	lsls	r2, r2, #8
   24708:	1851      	adds	r1, r2, r1
   2470a:	8029      	strh	r1, [r5, #0]
   2470c:	3008      	adds	r0, #8
   2470e:	9905      	ldr	r1, [sp, #20]
   24710:	6e09      	ldr	r1, [r1, #96]	@ 0x60
   24712:	910b      	str	r1, [sp, #44]	@ 0x2c
   24714:	4b12      	ldr	r3, [pc, #72]	@ (24760 <_start+0x864>)
   24716:	446b      	add	r3, sp
   24718:	930c      	str	r3, [sp, #48]	@ 0x30
   2471a:	c844      	ldmia	r0!, {r2, r6}
   2471c:	c344      	stmia	r3!, {r2, r6}
   2471e:	c846      	ldmia	r0!, {r1, r2, r6}
   24720:	c346      	stmia	r3!, {r1, r2, r6}
   24722:	8801      	ldrh	r1, [r0, #0]
   24724:	8019      	strh	r1, [r3, #0]
   24726:	7880      	ldrb	r0, [r0, #2]
   24728:	7098      	strb	r0, [r3, #2]
   2472a:	990b      	ldr	r1, [sp, #44]	@ 0x2c
   2472c:	0e08      	lsrs	r0, r1, #24
   2472e:	71a8      	strb	r0, [r5, #6]
   24730:	0c08      	lsrs	r0, r1, #16
   24732:	7168      	strb	r0, [r5, #5]
   24734:	0a08      	lsrs	r0, r1, #8
   24736:	7128      	strb	r0, [r5, #4]
   24738:	70e9      	strb	r1, [r5, #3]
   2473a:	1de8      	adds	r0, r5, #7
   2473c:	2217      	movs	r2, #23
   2473e:	990c      	ldr	r1, [sp, #48]	@ 0x30
   24740:	f002 fbbd 	bl	26ebe <__aeabi_memcpy>
   24744:	4e05      	ldr	r6, [pc, #20]	@ (2475c <_start+0x860>)
   24746:	446e      	add	r6, sp
   24748:	4630      	mov	r0, r6
   2474a:	4629      	mov	r1, r5
   2474c:	f7fd fea4 	bl	22498 <_ZN18complex_no_dynamic3app17h804efc53db188567E>
   24750:	7830      	ldrb	r0, [r6, #0]
   24752:	2801      	cmp	r0, #1
   24754:	d106      	bne.n	24764 <_start+0x868>
   24756:	f002 f9e1 	bl	26b1c <_start+0x2c20>
   2475a:	46c0      	nop			@ (mov r8, r8)
   2475c:	000013cc 	.word	0x000013cc
   24760:	00001370 	.word	0x00001370
   24764:	4818      	ldr	r0, [pc, #96]	@ (247c8 <_start+0x8cc>)
   24766:	4468      	add	r0, sp
   24768:	78c1      	ldrb	r1, [r0, #3]
   2476a:	ad81      	add	r5, sp, #516	@ 0x204
   2476c:	70a9      	strb	r1, [r5, #2]
   2476e:	7841      	ldrb	r1, [r0, #1]
   24770:	7882      	ldrb	r2, [r0, #2]
   24772:	0212      	lsls	r2, r2, #8
   24774:	1851      	adds	r1, r2, r1
   24776:	8029      	strh	r1, [r5, #0]
   24778:	3008      	adds	r0, #8
   2477a:	9905      	ldr	r1, [sp, #20]
   2477c:	6e09      	ldr	r1, [r1, #96]	@ 0x60
   2477e:	910b      	str	r1, [sp, #44]	@ 0x2c
   24780:	4b12      	ldr	r3, [pc, #72]	@ (247cc <_start+0x8d0>)
   24782:	446b      	add	r3, sp
   24784:	930c      	str	r3, [sp, #48]	@ 0x30
   24786:	c846      	ldmia	r0!, {r1, r2, r6}
   24788:	c346      	stmia	r3!, {r1, r2, r6}
   2478a:	c846      	ldmia	r0!, {r1, r2, r6}
   2478c:	c346      	stmia	r3!, {r1, r2, r6}
   2478e:	c846      	ldmia	r0!, {r1, r2, r6}
   24790:	c346      	stmia	r3!, {r1, r2, r6}
   24792:	7800      	ldrb	r0, [r0, #0]
   24794:	7018      	strb	r0, [r3, #0]
   24796:	990b      	ldr	r1, [sp, #44]	@ 0x2c
   24798:	0e08      	lsrs	r0, r1, #24
   2479a:	71a8      	strb	r0, [r5, #6]
   2479c:	0c08      	lsrs	r0, r1, #16
   2479e:	7168      	strb	r0, [r5, #5]
   247a0:	0a08      	lsrs	r0, r1, #8
   247a2:	7128      	strb	r0, [r5, #4]
   247a4:	70e9      	strb	r1, [r5, #3]
   247a6:	1de8      	adds	r0, r5, #7
   247a8:	2225      	movs	r2, #37	@ 0x25
   247aa:	990c      	ldr	r1, [sp, #48]	@ 0x30
   247ac:	f002 fb87 	bl	26ebe <__aeabi_memcpy>
   247b0:	4e05      	ldr	r6, [pc, #20]	@ (247c8 <_start+0x8cc>)
   247b2:	446e      	add	r6, sp
   247b4:	4630      	mov	r0, r6
   247b6:	4629      	mov	r1, r5
   247b8:	f7fd f828 	bl	2180c <_ZN18complex_no_dynamic3app17h530976c2c5946b30E>
   247bc:	7830      	ldrb	r0, [r6, #0]
   247be:	2801      	cmp	r0, #1
   247c0:	d106      	bne.n	247d0 <_start+0x8d4>
   247c2:	f002 f9ab 	bl	26b1c <_start+0x2c20>
   247c6:	46c0      	nop			@ (mov r8, r8)
   247c8:	000013cc 	.word	0x000013cc
   247cc:	00001370 	.word	0x00001370
   247d0:	4818      	ldr	r0, [pc, #96]	@ (24834 <_start+0x938>)
   247d2:	4468      	add	r0, sp
   247d4:	78c1      	ldrb	r1, [r0, #3]
   247d6:	ab8c      	add	r3, sp, #560	@ 0x230
   247d8:	930b      	str	r3, [sp, #44]	@ 0x2c
   247da:	7099      	strb	r1, [r3, #2]
   247dc:	7841      	ldrb	r1, [r0, #1]
   247de:	7882      	ldrb	r2, [r0, #2]
   247e0:	0212      	lsls	r2, r2, #8
   247e2:	1851      	adds	r1, r2, r1
   247e4:	8019      	strh	r1, [r3, #0]
   247e6:	3008      	adds	r0, #8
   247e8:	9905      	ldr	r1, [sp, #20]
   247ea:	6e09      	ldr	r1, [r1, #96]	@ 0x60
   247ec:	910a      	str	r1, [sp, #40]	@ 0x28
   247ee:	4b12      	ldr	r3, [pc, #72]	@ (24838 <_start+0x93c>)
   247f0:	446b      	add	r3, sp
   247f2:	930c      	str	r3, [sp, #48]	@ 0x30
   247f4:	c846      	ldmia	r0!, {r1, r2, r6}
   247f6:	c346      	stmia	r3!, {r1, r2, r6}
   247f8:	c866      	ldmia	r0!, {r1, r2, r5, r6}
   247fa:	c366      	stmia	r3!, {r1, r2, r5, r6}
   247fc:	8800      	ldrh	r0, [r0, #0]
   247fe:	8018      	strh	r0, [r3, #0]
   24800:	990a      	ldr	r1, [sp, #40]	@ 0x28
   24802:	0e08      	lsrs	r0, r1, #24
   24804:	9d0b      	ldr	r5, [sp, #44]	@ 0x2c
   24806:	71a8      	strb	r0, [r5, #6]
   24808:	0c08      	lsrs	r0, r1, #16
   2480a:	7168      	strb	r0, [r5, #5]
   2480c:	0a08      	lsrs	r0, r1, #8
   2480e:	7128      	strb	r0, [r5, #4]
   24810:	70e9      	strb	r1, [r5, #3]
   24812:	1de8      	adds	r0, r5, #7
   24814:	221e      	movs	r2, #30
   24816:	990c      	ldr	r1, [sp, #48]	@ 0x30
   24818:	f002 fb51 	bl	26ebe <__aeabi_memcpy>
   2481c:	4e05      	ldr	r6, [pc, #20]	@ (24834 <_start+0x938>)
   2481e:	446e      	add	r6, sp
   24820:	4630      	mov	r0, r6
   24822:	4629      	mov	r1, r5
   24824:	f7fe fa2c 	bl	22c80 <_ZN18complex_no_dynamic3app17hae6dacd8cdff59edE>
   24828:	7830      	ldrb	r0, [r6, #0]
   2482a:	2801      	cmp	r0, #1
   2482c:	d106      	bne.n	2483c <_start+0x940>
   2482e:	f002 f975 	bl	26b1c <_start+0x2c20>
   24832:	46c0      	nop			@ (mov r8, r8)
   24834:	000013cc 	.word	0x000013cc
   24838:	00001370 	.word	0x00001370
   2483c:	4819      	ldr	r0, [pc, #100]	@ (248a4 <_start+0x9a8>)
   2483e:	4468      	add	r0, sp
   24840:	78c1      	ldrb	r1, [r0, #3]
   24842:	ab96      	add	r3, sp, #600	@ 0x258
   24844:	9309      	str	r3, [sp, #36]	@ 0x24
   24846:	7099      	strb	r1, [r3, #2]
   24848:	7841      	ldrb	r1, [r0, #1]
   2484a:	7882      	ldrb	r2, [r0, #2]
   2484c:	0212      	lsls	r2, r2, #8
   2484e:	1851      	adds	r1, r2, r1
   24850:	8019      	strh	r1, [r3, #0]
   24852:	3008      	adds	r0, #8
   24854:	9905      	ldr	r1, [sp, #20]
   24856:	6e09      	ldr	r1, [r1, #96]	@ 0x60
   24858:	910a      	str	r1, [sp, #40]	@ 0x28
   2485a:	4913      	ldr	r1, [pc, #76]	@ (248a8 <_start+0x9ac>)
   2485c:	4469      	add	r1, sp
   2485e:	910b      	str	r1, [sp, #44]	@ 0x2c
   24860:	910c      	str	r1, [sp, #48]	@ 0x30
   24862:	9d0c      	ldr	r5, [sp, #48]	@ 0x30
   24864:	c84e      	ldmia	r0!, {r1, r2, r3, r6}
   24866:	c54e      	stmia	r5!, {r1, r2, r3, r6}
   24868:	950c      	str	r5, [sp, #48]	@ 0x30
   2486a:	7800      	ldrb	r0, [r0, #0]
   2486c:	990c      	ldr	r1, [sp, #48]	@ 0x30
   2486e:	7008      	strb	r0, [r1, #0]
   24870:	990a      	ldr	r1, [sp, #40]	@ 0x28
   24872:	0e08      	lsrs	r0, r1, #24
   24874:	9d09      	ldr	r5, [sp, #36]	@ 0x24
   24876:	71a8      	strb	r0, [r5, #6]
   24878:	0c08      	lsrs	r0, r1, #16
   2487a:	7168      	strb	r0, [r5, #5]
   2487c:	0a08      	lsrs	r0, r1, #8
   2487e:	7128      	strb	r0, [r5, #4]
   24880:	70e9      	strb	r1, [r5, #3]
   24882:	1de8      	adds	r0, r5, #7
   24884:	2211      	movs	r2, #17
   24886:	990b      	ldr	r1, [sp, #44]	@ 0x2c
   24888:	f002 fb19 	bl	26ebe <__aeabi_memcpy>
   2488c:	4e05      	ldr	r6, [pc, #20]	@ (248a4 <_start+0x9a8>)
   2488e:	446e      	add	r6, sp
   24890:	4630      	mov	r0, r6
   24892:	4629      	mov	r1, r5
   24894:	f7fc fd64 	bl	21360 <_ZN18complex_no_dynamic3app17h4a1c44b97edc2654E>
   24898:	7830      	ldrb	r0, [r6, #0]
   2489a:	2801      	cmp	r0, #1
   2489c:	d106      	bne.n	248ac <_start+0x9b0>
   2489e:	f002 f93d 	bl	26b1c <_start+0x2c20>
   248a2:	46c0      	nop			@ (mov r8, r8)
   248a4:	000013cc 	.word	0x000013cc
   248a8:	00001370 	.word	0x00001370
   248ac:	481a      	ldr	r0, [pc, #104]	@ (24918 <_start+0xa1c>)
   248ae:	4468      	add	r0, sp
   248b0:	78c1      	ldrb	r1, [r0, #3]
   248b2:	ab9c      	add	r3, sp, #624	@ 0x270
   248b4:	930b      	str	r3, [sp, #44]	@ 0x2c
   248b6:	7099      	strb	r1, [r3, #2]
   248b8:	7841      	ldrb	r1, [r0, #1]
   248ba:	7882      	ldrb	r2, [r0, #2]
   248bc:	0212      	lsls	r2, r2, #8
   248be:	1851      	adds	r1, r2, r1
   248c0:	8019      	strh	r1, [r3, #0]
   248c2:	3008      	adds	r0, #8
   248c4:	9905      	ldr	r1, [sp, #20]
   248c6:	6e09      	ldr	r1, [r1, #96]	@ 0x60
   248c8:	910a      	str	r1, [sp, #40]	@ 0x28
   248ca:	4b14      	ldr	r3, [pc, #80]	@ (2491c <_start+0xa20>)
   248cc:	446b      	add	r3, sp
   248ce:	930c      	str	r3, [sp, #48]	@ 0x30
   248d0:	c846      	ldmia	r0!, {r1, r2, r6}
   248d2:	c346      	stmia	r3!, {r1, r2, r6}
   248d4:	c866      	ldmia	r0!, {r1, r2, r5, r6}
   248d6:	c366      	stmia	r3!, {r1, r2, r5, r6}
   248d8:	c866      	ldmia	r0!, {r1, r2, r5, r6}
   248da:	c366      	stmia	r3!, {r1, r2, r5, r6}
   248dc:	8801      	ldrh	r1, [r0, #0]
   248de:	8019      	strh	r1, [r3, #0]
   248e0:	7880      	ldrb	r0, [r0, #2]
   248e2:	7098      	strb	r0, [r3, #2]
   248e4:	990a      	ldr	r1, [sp, #40]	@ 0x28
   248e6:	0e08      	lsrs	r0, r1, #24
   248e8:	9d0b      	ldr	r5, [sp, #44]	@ 0x2c
   248ea:	71a8      	strb	r0, [r5, #6]
   248ec:	0c08      	lsrs	r0, r1, #16
   248ee:	7168      	strb	r0, [r5, #5]
   248f0:	0a08      	lsrs	r0, r1, #8
   248f2:	7128      	strb	r0, [r5, #4]
   248f4:	70e9      	strb	r1, [r5, #3]
   248f6:	1de8      	adds	r0, r5, #7
   248f8:	222f      	movs	r2, #47	@ 0x2f
   248fa:	990c      	ldr	r1, [sp, #48]	@ 0x30
   248fc:	f002 fadf 	bl	26ebe <__aeabi_memcpy>
   24900:	4e05      	ldr	r6, [pc, #20]	@ (24918 <_start+0xa1c>)
   24902:	446e      	add	r6, sp
   24904:	4630      	mov	r0, r6
   24906:	4629      	mov	r1, r5
   24908:	f7fd fe1a 	bl	22540 <_ZN18complex_no_dynamic3app17h822bc9fc04957869E>
   2490c:	7830      	ldrb	r0, [r6, #0]
   2490e:	2801      	cmp	r0, #1
   24910:	d106      	bne.n	24920 <_start+0xa24>
   24912:	f002 f903 	bl	26b1c <_start+0x2c20>
   24916:	46c0      	nop			@ (mov r8, r8)
   24918:	000013cc 	.word	0x000013cc
   2491c:	00001370 	.word	0x00001370
   24920:	4819      	ldr	r0, [pc, #100]	@ (24988 <_start+0xa8c>)
   24922:	4468      	add	r0, sp
   24924:	78c1      	ldrb	r1, [r0, #3]
   24926:	abaa      	add	r3, sp, #680	@ 0x2a8
   24928:	930b      	str	r3, [sp, #44]	@ 0x2c
   2492a:	7099      	strb	r1, [r3, #2]
   2492c:	7841      	ldrb	r1, [r0, #1]
   2492e:	7882      	ldrb	r2, [r0, #2]
   24930:	0212      	lsls	r2, r2, #8
   24932:	1851      	adds	r1, r2, r1
   24934:	8019      	strh	r1, [r3, #0]
   24936:	3008      	adds	r0, #8
   24938:	9905      	ldr	r1, [sp, #20]
   2493a:	6e09      	ldr	r1, [r1, #96]	@ 0x60
   2493c:	910a      	str	r1, [sp, #40]	@ 0x28
   2493e:	4b13      	ldr	r3, [pc, #76]	@ (2498c <_start+0xa90>)
   24940:	446b      	add	r3, sp
   24942:	930c      	str	r3, [sp, #48]	@ 0x30
   24944:	c846      	ldmia	r0!, {r1, r2, r6}
   24946:	c346      	stmia	r3!, {r1, r2, r6}
   24948:	c866      	ldmia	r0!, {r1, r2, r5, r6}
   2494a:	c366      	stmia	r3!, {r1, r2, r5, r6}
   2494c:	c866      	ldmia	r0!, {r1, r2, r5, r6}
   2494e:	c366      	stmia	r3!, {r1, r2, r5, r6}
   24950:	7800      	ldrb	r0, [r0, #0]
   24952:	7018      	strb	r0, [r3, #0]
   24954:	990a      	ldr	r1, [sp, #40]	@ 0x28
   24956:	0e08      	lsrs	r0, r1, #24
   24958:	9d0b      	ldr	r5, [sp, #44]	@ 0x2c
   2495a:	71a8      	strb	r0, [r5, #6]
   2495c:	0c08      	lsrs	r0, r1, #16
   2495e:	7168      	strb	r0, [r5, #5]
   24960:	0a08      	lsrs	r0, r1, #8
   24962:	7128      	strb	r0, [r5, #4]
   24964:	70e9      	strb	r1, [r5, #3]
   24966:	1de8      	adds	r0, r5, #7
   24968:	222d      	movs	r2, #45	@ 0x2d
   2496a:	990c      	ldr	r1, [sp, #48]	@ 0x30
   2496c:	f002 faa7 	bl	26ebe <__aeabi_memcpy>
   24970:	4e05      	ldr	r6, [pc, #20]	@ (24988 <_start+0xa8c>)
   24972:	446e      	add	r6, sp
   24974:	4630      	mov	r0, r6
   24976:	4629      	mov	r1, r5
   24978:	f7fd fc3a 	bl	221f0 <_ZN18complex_no_dynamic3app17h763bbbae09028696E>
   2497c:	7830      	ldrb	r0, [r6, #0]
   2497e:	2801      	cmp	r0, #1
   24980:	d106      	bne.n	24990 <_start+0xa94>
   24982:	f002 f8cb 	bl	26b1c <_start+0x2c20>
   24986:	46c0      	nop			@ (mov r8, r8)
   24988:	000013cc 	.word	0x000013cc
   2498c:	00001370 	.word	0x00001370
   24990:	4819      	ldr	r0, [pc, #100]	@ (249f8 <_start+0xafc>)
   24992:	4468      	add	r0, sp
   24994:	78c1      	ldrb	r1, [r0, #3]
   24996:	adb7      	add	r5, sp, #732	@ 0x2dc
   24998:	70a9      	strb	r1, [r5, #2]
   2499a:	7841      	ldrb	r1, [r0, #1]
   2499c:	7882      	ldrb	r2, [r0, #2]
   2499e:	0212      	lsls	r2, r2, #8
   249a0:	1851      	adds	r1, r2, r1
   249a2:	8029      	strh	r1, [r5, #0]
   249a4:	3008      	adds	r0, #8
   249a6:	9905      	ldr	r1, [sp, #20]
   249a8:	6e09      	ldr	r1, [r1, #96]	@ 0x60
   249aa:	910b      	str	r1, [sp, #44]	@ 0x2c
   249ac:	4b13      	ldr	r3, [pc, #76]	@ (249fc <_start+0xb00>)
   249ae:	446b      	add	r3, sp
   249b0:	930c      	str	r3, [sp, #48]	@ 0x30
   249b2:	c846      	ldmia	r0!, {r1, r2, r6}
   249b4:	c346      	stmia	r3!, {r1, r2, r6}
   249b6:	c846      	ldmia	r0!, {r1, r2, r6}
   249b8:	c346      	stmia	r3!, {r1, r2, r6}
   249ba:	c846      	ldmia	r0!, {r1, r2, r6}
   249bc:	c346      	stmia	r3!, {r1, r2, r6}
   249be:	8801      	ldrh	r1, [r0, #0]
   249c0:	8019      	strh	r1, [r3, #0]
   249c2:	7880      	ldrb	r0, [r0, #2]
   249c4:	7098      	strb	r0, [r3, #2]
   249c6:	990b      	ldr	r1, [sp, #44]	@ 0x2c
   249c8:	0e08      	lsrs	r0, r1, #24
   249ca:	71a8      	strb	r0, [r5, #6]
   249cc:	0c08      	lsrs	r0, r1, #16
   249ce:	7168      	strb	r0, [r5, #5]
   249d0:	0a08      	lsrs	r0, r1, #8
   249d2:	7128      	strb	r0, [r5, #4]
   249d4:	70e9      	strb	r1, [r5, #3]
   249d6:	1de8      	adds	r0, r5, #7
   249d8:	2227      	movs	r2, #39	@ 0x27
   249da:	990c      	ldr	r1, [sp, #48]	@ 0x30
   249dc:	f002 fa6f 	bl	26ebe <__aeabi_memcpy>
   249e0:	4e05      	ldr	r6, [pc, #20]	@ (249f8 <_start+0xafc>)
   249e2:	446e      	add	r6, sp
   249e4:	4630      	mov	r0, r6
   249e6:	4629      	mov	r1, r5
   249e8:	f7fe f9f4 	bl	22dd4 <_ZN18complex_no_dynamic3app17hb3584eba1eb21311E>
   249ec:	7830      	ldrb	r0, [r6, #0]
   249ee:	2801      	cmp	r0, #1
   249f0:	d106      	bne.n	24a00 <_start+0xb04>
   249f2:	f002 f893 	bl	26b1c <_start+0x2c20>
   249f6:	46c0      	nop			@ (mov r8, r8)
   249f8:	000013cc 	.word	0x000013cc
   249fc:	00001370 	.word	0x00001370
   24a00:	4819      	ldr	r0, [pc, #100]	@ (24a68 <_start+0xb6c>)
   24a02:	4468      	add	r0, sp
   24a04:	78c1      	ldrb	r1, [r0, #3]
   24a06:	abc3      	add	r3, sp, #780	@ 0x30c
   24a08:	930b      	str	r3, [sp, #44]	@ 0x2c
   24a0a:	7099      	strb	r1, [r3, #2]
   24a0c:	7841      	ldrb	r1, [r0, #1]
   24a0e:	7882      	ldrb	r2, [r0, #2]
   24a10:	0212      	lsls	r2, r2, #8
   24a12:	1851      	adds	r1, r2, r1
   24a14:	8019      	strh	r1, [r3, #0]
   24a16:	3008      	adds	r0, #8
   24a18:	9905      	ldr	r1, [sp, #20]
   24a1a:	6e09      	ldr	r1, [r1, #96]	@ 0x60
   24a1c:	910a      	str	r1, [sp, #40]	@ 0x28
   24a1e:	4b13      	ldr	r3, [pc, #76]	@ (24a6c <_start+0xb70>)
   24a20:	446b      	add	r3, sp
   24a22:	930c      	str	r3, [sp, #48]	@ 0x30
   24a24:	c866      	ldmia	r0!, {r1, r2, r5, r6}
   24a26:	c366      	stmia	r3!, {r1, r2, r5, r6}
   24a28:	c866      	ldmia	r0!, {r1, r2, r5, r6}
   24a2a:	c366      	stmia	r3!, {r1, r2, r5, r6}
   24a2c:	c866      	ldmia	r0!, {r1, r2, r5, r6}
   24a2e:	c366      	stmia	r3!, {r1, r2, r5, r6}
   24a30:	7800      	ldrb	r0, [r0, #0]
   24a32:	7018      	strb	r0, [r3, #0]
   24a34:	990a      	ldr	r1, [sp, #40]	@ 0x28
   24a36:	0e08      	lsrs	r0, r1, #24
   24a38:	9d0b      	ldr	r5, [sp, #44]	@ 0x2c
   24a3a:	71a8      	strb	r0, [r5, #6]
   24a3c:	0c08      	lsrs	r0, r1, #16
   24a3e:	7168      	strb	r0, [r5, #5]
   24a40:	0a08      	lsrs	r0, r1, #8
   24a42:	7128      	strb	r0, [r5, #4]
   24a44:	70e9      	strb	r1, [r5, #3]
   24a46:	1de8      	adds	r0, r5, #7
   24a48:	2231      	movs	r2, #49	@ 0x31
   24a4a:	990c      	ldr	r1, [sp, #48]	@ 0x30
   24a4c:	f002 fa37 	bl	26ebe <__aeabi_memcpy>
   24a50:	4e05      	ldr	r6, [pc, #20]	@ (24a68 <_start+0xb6c>)
   24a52:	446e      	add	r6, sp
   24a54:	4630      	mov	r0, r6
   24a56:	4629      	mov	r1, r5
   24a58:	f7fc ffd4 	bl	21a04 <_ZN18complex_no_dynamic3app17h5d62c1beb9a4c0c8E>
   24a5c:	7830      	ldrb	r0, [r6, #0]
   24a5e:	2801      	cmp	r0, #1
   24a60:	d106      	bne.n	24a70 <_start+0xb74>
   24a62:	f002 f85b 	bl	26b1c <_start+0x2c20>
   24a66:	46c0      	nop			@ (mov r8, r8)
   24a68:	000013cc 	.word	0x000013cc
   24a6c:	00001370 	.word	0x00001370
   24a70:	4819      	ldr	r0, [pc, #100]	@ (24ad8 <_start+0xbdc>)
   24a72:	4468      	add	r0, sp
   24a74:	78c1      	ldrb	r1, [r0, #3]
   24a76:	abd1      	add	r3, sp, #836	@ 0x344
   24a78:	930b      	str	r3, [sp, #44]	@ 0x2c
   24a7a:	7099      	strb	r1, [r3, #2]
   24a7c:	7841      	ldrb	r1, [r0, #1]
   24a7e:	7882      	ldrb	r2, [r0, #2]
   24a80:	0212      	lsls	r2, r2, #8
   24a82:	1851      	adds	r1, r2, r1
   24a84:	8019      	strh	r1, [r3, #0]
   24a86:	3008      	adds	r0, #8
   24a88:	9905      	ldr	r1, [sp, #20]
   24a8a:	6e09      	ldr	r1, [r1, #96]	@ 0x60
   24a8c:	910a      	str	r1, [sp, #40]	@ 0x28
   24a8e:	4b13      	ldr	r3, [pc, #76]	@ (24adc <_start+0xbe0>)
   24a90:	446b      	add	r3, sp
   24a92:	930c      	str	r3, [sp, #48]	@ 0x30
   24a94:	c846      	ldmia	r0!, {r1, r2, r6}
   24a96:	c346      	stmia	r3!, {r1, r2, r6}
   24a98:	c866      	ldmia	r0!, {r1, r2, r5, r6}
   24a9a:	c366      	stmia	r3!, {r1, r2, r5, r6}
   24a9c:	c866      	ldmia	r0!, {r1, r2, r5, r6}
   24a9e:	c366      	stmia	r3!, {r1, r2, r5, r6}
   24aa0:	7800      	ldrb	r0, [r0, #0]
   24aa2:	7018      	strb	r0, [r3, #0]
   24aa4:	990a      	ldr	r1, [sp, #40]	@ 0x28
   24aa6:	0e08      	lsrs	r0, r1, #24
   24aa8:	9d0b      	ldr	r5, [sp, #44]	@ 0x2c
   24aaa:	71a8      	strb	r0, [r5, #6]
   24aac:	0c08      	lsrs	r0, r1, #16
   24aae:	7168      	strb	r0, [r5, #5]
   24ab0:	0a08      	lsrs	r0, r1, #8
   24ab2:	7128      	strb	r0, [r5, #4]
   24ab4:	70e9      	strb	r1, [r5, #3]
   24ab6:	1de8      	adds	r0, r5, #7
   24ab8:	222d      	movs	r2, #45	@ 0x2d
   24aba:	990c      	ldr	r1, [sp, #48]	@ 0x30
   24abc:	f002 f9ff 	bl	26ebe <__aeabi_memcpy>
   24ac0:	4e05      	ldr	r6, [pc, #20]	@ (24ad8 <_start+0xbdc>)
   24ac2:	446e      	add	r6, sp
   24ac4:	4630      	mov	r0, r6
   24ac6:	4629      	mov	r1, r5
   24ac8:	f7fb fbb6 	bl	20238 <_ZN18complex_no_dynamic3app17h0cda77ed774b1bc3E>
   24acc:	7830      	ldrb	r0, [r6, #0]
   24ace:	2801      	cmp	r0, #1
   24ad0:	d106      	bne.n	24ae0 <_start+0xbe4>
   24ad2:	f002 f823 	bl	26b1c <_start+0x2c20>
   24ad6:	46c0      	nop			@ (mov r8, r8)
   24ad8:	000013cc 	.word	0x000013cc
   24adc:	00001370 	.word	0x00001370
   24ae0:	4818      	ldr	r0, [pc, #96]	@ (24b44 <_start+0xc48>)
   24ae2:	4468      	add	r0, sp
   24ae4:	78c1      	ldrb	r1, [r0, #3]
   24ae6:	abde      	add	r3, sp, #888	@ 0x378
   24ae8:	930b      	str	r3, [sp, #44]	@ 0x2c
   24aea:	7099      	strb	r1, [r3, #2]
   24aec:	7841      	ldrb	r1, [r0, #1]
   24aee:	7882      	ldrb	r2, [r0, #2]
   24af0:	0212      	lsls	r2, r2, #8
   24af2:	1851      	adds	r1, r2, r1
   24af4:	8019      	strh	r1, [r3, #0]
   24af6:	3008      	adds	r0, #8
   24af8:	9905      	ldr	r1, [sp, #20]
   24afa:	6e09      	ldr	r1, [r1, #96]	@ 0x60
   24afc:	910a      	str	r1, [sp, #40]	@ 0x28
   24afe:	4b12      	ldr	r3, [pc, #72]	@ (24b48 <_start+0xc4c>)
   24b00:	446b      	add	r3, sp
   24b02:	930c      	str	r3, [sp, #48]	@ 0x30
   24b04:	c866      	ldmia	r0!, {r1, r2, r5, r6}
   24b06:	c366      	stmia	r3!, {r1, r2, r5, r6}
   24b08:	8801      	ldrh	r1, [r0, #0]
   24b0a:	8019      	strh	r1, [r3, #0]
   24b0c:	7880      	ldrb	r0, [r0, #2]
   24b0e:	7098      	strb	r0, [r3, #2]
   24b10:	990a      	ldr	r1, [sp, #40]	@ 0x28
   24b12:	0e08      	lsrs	r0, r1, #24
   24b14:	9d0b      	ldr	r5, [sp, #44]	@ 0x2c
   24b16:	71a8      	strb	r0, [r5, #6]
   24b18:	0c08      	lsrs	r0, r1, #16
   24b1a:	7168      	strb	r0, [r5, #5]
   24b1c:	0a08      	lsrs	r0, r1, #8
   24b1e:	7128      	strb	r0, [r5, #4]
   24b20:	70e9      	strb	r1, [r5, #3]
   24b22:	1de8      	adds	r0, r5, #7
   24b24:	2213      	movs	r2, #19
   24b26:	990c      	ldr	r1, [sp, #48]	@ 0x30
   24b28:	f002 f9c9 	bl	26ebe <__aeabi_memcpy>
   24b2c:	4e05      	ldr	r6, [pc, #20]	@ (24b44 <_start+0xc48>)
   24b2e:	446e      	add	r6, sp
   24b30:	4630      	mov	r0, r6
   24b32:	4629      	mov	r1, r5
   24b34:	f7fd f810 	bl	21b58 <_ZN18complex_no_dynamic3app17h5f4746e4924cc4e2E>
   24b38:	7830      	ldrb	r0, [r6, #0]
   24b3a:	2801      	cmp	r0, #1
   24b3c:	d106      	bne.n	24b4c <_start+0xc50>
   24b3e:	f001 ffed 	bl	26b1c <_start+0x2c20>
   24b42:	46c0      	nop			@ (mov r8, r8)
   24b44:	000013cc 	.word	0x000013cc
   24b48:	00001370 	.word	0x00001370
   24b4c:	4915      	ldr	r1, [pc, #84]	@ (24ba4 <_start+0xca8>)
   24b4e:	4469      	add	r1, sp
   24b50:	78c8      	ldrb	r0, [r1, #3]
   24b52:	ade5      	add	r5, sp, #916	@ 0x394
   24b54:	70a8      	strb	r0, [r5, #2]
   24b56:	7848      	ldrb	r0, [r1, #1]
   24b58:	788a      	ldrb	r2, [r1, #2]
   24b5a:	0212      	lsls	r2, r2, #8
   24b5c:	1810      	adds	r0, r2, r0
   24b5e:	8028      	strh	r0, [r5, #0]
   24b60:	9805      	ldr	r0, [sp, #20]
   24b62:	6e06      	ldr	r6, [r0, #96]	@ 0x60
   24b64:	3108      	adds	r1, #8
   24b66:	4810      	ldr	r0, [pc, #64]	@ (24ba8 <_start+0xcac>)
   24b68:	4468      	add	r0, sp
   24b6a:	900c      	str	r0, [sp, #48]	@ 0x30
   24b6c:	2249      	movs	r2, #73	@ 0x49
   24b6e:	920b      	str	r2, [sp, #44]	@ 0x2c
   24b70:	f002 f845 	bl	26bfe <__aeabi_memcpy4>
   24b74:	0e30      	lsrs	r0, r6, #24
   24b76:	71a8      	strb	r0, [r5, #6]
   24b78:	0c30      	lsrs	r0, r6, #16
   24b7a:	7168      	strb	r0, [r5, #5]
   24b7c:	0a30      	lsrs	r0, r6, #8
   24b7e:	7128      	strb	r0, [r5, #4]
   24b80:	70ee      	strb	r6, [r5, #3]
   24b82:	1de8      	adds	r0, r5, #7
   24b84:	990c      	ldr	r1, [sp, #48]	@ 0x30
   24b86:	9a0b      	ldr	r2, [sp, #44]	@ 0x2c
   24b88:	f002 f999 	bl	26ebe <__aeabi_memcpy>
   24b8c:	4e05      	ldr	r6, [pc, #20]	@ (24ba4 <_start+0xca8>)
   24b8e:	446e      	add	r6, sp
   24b90:	4630      	mov	r0, r6
   24b92:	4629      	mov	r1, r5
   24b94:	f7fe ff0e 	bl	239b4 <_ZN18complex_no_dynamic3app17hef75e6cf25478d1bE>
   24b98:	7830      	ldrb	r0, [r6, #0]
   24b9a:	2801      	cmp	r0, #1
   24b9c:	d106      	bne.n	24bac <_start+0xcb0>
   24b9e:	f001 ffbd 	bl	26b1c <_start+0x2c20>
   24ba2:	46c0      	nop			@ (mov r8, r8)
   24ba4:	000013cc 	.word	0x000013cc
   24ba8:	00001370 	.word	0x00001370
   24bac:	481a      	ldr	r0, [pc, #104]	@ (24c18 <_start+0xd1c>)
   24bae:	4468      	add	r0, sp
   24bb0:	78c1      	ldrb	r1, [r0, #3]
   24bb2:	abf9      	add	r3, sp, #996	@ 0x3e4
   24bb4:	930b      	str	r3, [sp, #44]	@ 0x2c
   24bb6:	7099      	strb	r1, [r3, #2]
   24bb8:	7841      	ldrb	r1, [r0, #1]
   24bba:	7882      	ldrb	r2, [r0, #2]
   24bbc:	0212      	lsls	r2, r2, #8
   24bbe:	1851      	adds	r1, r2, r1
   24bc0:	8019      	strh	r1, [r3, #0]
   24bc2:	3008      	adds	r0, #8
   24bc4:	9905      	ldr	r1, [sp, #20]
   24bc6:	6e09      	ldr	r1, [r1, #96]	@ 0x60
   24bc8:	910a      	str	r1, [sp, #40]	@ 0x28
   24bca:	4b14      	ldr	r3, [pc, #80]	@ (24c1c <_start+0xd20>)
   24bcc:	446b      	add	r3, sp
   24bce:	930c      	str	r3, [sp, #48]	@ 0x30
   24bd0:	c846      	ldmia	r0!, {r1, r2, r6}
   24bd2:	c346      	stmia	r3!, {r1, r2, r6}
   24bd4:	c846      	ldmia	r0!, {r1, r2, r6}
   24bd6:	c346      	stmia	r3!, {r1, r2, r6}
   24bd8:	c846      	ldmia	r0!, {r1, r2, r6}
   24bda:	c346      	stmia	r3!, {r1, r2, r6}
   24bdc:	c866      	ldmia	r0!, {r1, r2, r5, r6}
   24bde:	c366      	stmia	r3!, {r1, r2, r5, r6}
   24be0:	7800      	ldrb	r0, [r0, #0]
   24be2:	7018      	strb	r0, [r3, #0]
   24be4:	990a      	ldr	r1, [sp, #40]	@ 0x28
   24be6:	0e08      	lsrs	r0, r1, #24
   24be8:	9d0b      	ldr	r5, [sp, #44]	@ 0x2c
   24bea:	71a8      	strb	r0, [r5, #6]
   24bec:	0c08      	lsrs	r0, r1, #16
   24bee:	7168      	strb	r0, [r5, #5]
   24bf0:	0a08      	lsrs	r0, r1, #8
   24bf2:	7128      	strb	r0, [r5, #4]
   24bf4:	70e9      	strb	r1, [r5, #3]
   24bf6:	1de8      	adds	r0, r5, #7
   24bf8:	2235      	movs	r2, #53	@ 0x35
   24bfa:	990c      	ldr	r1, [sp, #48]	@ 0x30
   24bfc:	f002 f95f 	bl	26ebe <__aeabi_memcpy>
   24c00:	4e05      	ldr	r6, [pc, #20]	@ (24c18 <_start+0xd1c>)
   24c02:	446e      	add	r6, sp
   24c04:	4630      	mov	r0, r6
   24c06:	4629      	mov	r1, r5
   24c08:	f7fb fe60 	bl	208cc <_ZN18complex_no_dynamic3app17h218653fda5919cd8E>
   24c0c:	7830      	ldrb	r0, [r6, #0]
   24c0e:	2801      	cmp	r0, #1
   24c10:	d106      	bne.n	24c20 <_start+0xd24>
   24c12:	f001 ff83 	bl	26b1c <_start+0x2c20>
   24c16:	46c0      	nop			@ (mov r8, r8)
   24c18:	000013cc 	.word	0x000013cc
   24c1c:	00001370 	.word	0x00001370
   24c20:	481a      	ldr	r0, [pc, #104]	@ (24c8c <_start+0xd90>)
   24c22:	4468      	add	r0, sp
   24c24:	78c1      	ldrb	r1, [r0, #3]
   24c26:	abff      	add	r3, sp, #1020	@ 0x3fc
   24c28:	3324      	adds	r3, #36	@ 0x24
   24c2a:	930b      	str	r3, [sp, #44]	@ 0x2c
   24c2c:	7099      	strb	r1, [r3, #2]
   24c2e:	7841      	ldrb	r1, [r0, #1]
   24c30:	7882      	ldrb	r2, [r0, #2]
   24c32:	0212      	lsls	r2, r2, #8
   24c34:	1851      	adds	r1, r2, r1
   24c36:	8019      	strh	r1, [r3, #0]
   24c38:	3008      	adds	r0, #8
   24c3a:	9905      	ldr	r1, [sp, #20]
   24c3c:	6e09      	ldr	r1, [r1, #96]	@ 0x60
   24c3e:	910a      	str	r1, [sp, #40]	@ 0x28
   24c40:	4b13      	ldr	r3, [pc, #76]	@ (24c90 <_start+0xd94>)
   24c42:	446b      	add	r3, sp
   24c44:	930c      	str	r3, [sp, #48]	@ 0x30
   24c46:	c846      	ldmia	r0!, {r1, r2, r6}
   24c48:	c346      	stmia	r3!, {r1, r2, r6}
   24c4a:	c846      	ldmia	r0!, {r1, r2, r6}
   24c4c:	c346      	stmia	r3!, {r1, r2, r6}
   24c4e:	c866      	ldmia	r0!, {r1, r2, r5, r6}
   24c50:	c366      	stmia	r3!, {r1, r2, r5, r6}
   24c52:	8801      	ldrh	r1, [r0, #0]
   24c54:	8019      	strh	r1, [r3, #0]
   24c56:	7880      	ldrb	r0, [r0, #2]
   24c58:	7098      	strb	r0, [r3, #2]
   24c5a:	990a      	ldr	r1, [sp, #40]	@ 0x28
   24c5c:	0e08      	lsrs	r0, r1, #24
   24c5e:	9d0b      	ldr	r5, [sp, #44]	@ 0x2c
   24c60:	71a8      	strb	r0, [r5, #6]
   24c62:	0c08      	lsrs	r0, r1, #16
   24c64:	7168      	strb	r0, [r5, #5]
   24c66:	0a08      	lsrs	r0, r1, #8
   24c68:	7128      	strb	r0, [r5, #4]
   24c6a:	70e9      	strb	r1, [r5, #3]
   24c6c:	1de8      	adds	r0, r5, #7
   24c6e:	222b      	movs	r2, #43	@ 0x2b
   24c70:	990c      	ldr	r1, [sp, #48]	@ 0x30
   24c72:	f002 f924 	bl	26ebe <__aeabi_memcpy>
   24c76:	4e05      	ldr	r6, [pc, #20]	@ (24c8c <_start+0xd90>)
   24c78:	446e      	add	r6, sp
   24c7a:	4630      	mov	r0, r6
   24c7c:	4629      	mov	r1, r5
   24c7e:	f7fe fd45 	bl	2370c <_ZN18complex_no_dynamic3app17hdec957515b711266E>
   24c82:	7830      	ldrb	r0, [r6, #0]
   24c84:	2801      	cmp	r0, #1
   24c86:	d105      	bne.n	24c94 <_start+0xd98>
   24c88:	f001 ff48 	bl	26b1c <_start+0x2c20>
   24c8c:	000013cc 	.word	0x000013cc
   24c90:	00001370 	.word	0x00001370
   24c94:	481a      	ldr	r0, [pc, #104]	@ (24d00 <_start+0xe04>)
   24c96:	4468      	add	r0, sp
   24c98:	78c1      	ldrb	r1, [r0, #3]
   24c9a:	abff      	add	r3, sp, #1020	@ 0x3fc
   24c9c:	3358      	adds	r3, #88	@ 0x58
   24c9e:	930b      	str	r3, [sp, #44]	@ 0x2c
   24ca0:	7099      	strb	r1, [r3, #2]
   24ca2:	7841      	ldrb	r1, [r0, #1]
   24ca4:	7882      	ldrb	r2, [r0, #2]
   24ca6:	0212      	lsls	r2, r2, #8
   24ca8:	1851      	adds	r1, r2, r1
   24caa:	8019      	strh	r1, [r3, #0]
   24cac:	3008      	adds	r0, #8
   24cae:	9905      	ldr	r1, [sp, #20]
   24cb0:	6e09      	ldr	r1, [r1, #96]	@ 0x60
   24cb2:	910a      	str	r1, [sp, #40]	@ 0x28
   24cb4:	4b13      	ldr	r3, [pc, #76]	@ (24d04 <_start+0xe08>)
   24cb6:	446b      	add	r3, sp
   24cb8:	930c      	str	r3, [sp, #48]	@ 0x30
   24cba:	c846      	ldmia	r0!, {r1, r2, r6}
   24cbc:	c346      	stmia	r3!, {r1, r2, r6}
   24cbe:	c846      	ldmia	r0!, {r1, r2, r6}
   24cc0:	c346      	stmia	r3!, {r1, r2, r6}
   24cc2:	c866      	ldmia	r0!, {r1, r2, r5, r6}
   24cc4:	c366      	stmia	r3!, {r1, r2, r5, r6}
   24cc6:	8801      	ldrh	r1, [r0, #0]
   24cc8:	8019      	strh	r1, [r3, #0]
   24cca:	7880      	ldrb	r0, [r0, #2]
   24ccc:	7098      	strb	r0, [r3, #2]
   24cce:	990a      	ldr	r1, [sp, #40]	@ 0x28
   24cd0:	0e08      	lsrs	r0, r1, #24
   24cd2:	9d0b      	ldr	r5, [sp, #44]	@ 0x2c
   24cd4:	71a8      	strb	r0, [r5, #6]
   24cd6:	0c08      	lsrs	r0, r1, #16
   24cd8:	7168      	strb	r0, [r5, #5]
   24cda:	0a08      	lsrs	r0, r1, #8
   24cdc:	7128      	strb	r0, [r5, #4]
   24cde:	70e9      	strb	r1, [r5, #3]
   24ce0:	1de8      	adds	r0, r5, #7
   24ce2:	222b      	movs	r2, #43	@ 0x2b
   24ce4:	990c      	ldr	r1, [sp, #48]	@ 0x30
   24ce6:	f002 f8ea 	bl	26ebe <__aeabi_memcpy>
   24cea:	4e05      	ldr	r6, [pc, #20]	@ (24d00 <_start+0xe04>)
   24cec:	446e      	add	r6, sp
   24cee:	4630      	mov	r0, r6
   24cf0:	4629      	mov	r1, r5
   24cf2:	f7fb fbf1 	bl	204d8 <_ZN18complex_no_dynamic3app17h131868ad386cd814E>
   24cf6:	7830      	ldrb	r0, [r6, #0]
   24cf8:	2801      	cmp	r0, #1
   24cfa:	d105      	bne.n	24d08 <_start+0xe0c>
   24cfc:	f001 ff0e 	bl	26b1c <_start+0x2c20>
   24d00:	000013cc 	.word	0x000013cc
   24d04:	00001370 	.word	0x00001370
   24d08:	4815      	ldr	r0, [pc, #84]	@ (24d60 <_start+0xe64>)
   24d0a:	4468      	add	r0, sp
   24d0c:	78c1      	ldrb	r1, [r0, #3]
   24d0e:	adff      	add	r5, sp, #1020	@ 0x3fc
   24d10:	358c      	adds	r5, #140	@ 0x8c
   24d12:	70a9      	strb	r1, [r5, #2]
   24d14:	7841      	ldrb	r1, [r0, #1]
   24d16:	7882      	ldrb	r2, [r0, #2]
   24d18:	0212      	lsls	r2, r2, #8
   24d1a:	1851      	adds	r1, r2, r1
   24d1c:	8029      	strh	r1, [r5, #0]
   24d1e:	3008      	adds	r0, #8
   24d20:	9905      	ldr	r1, [sp, #20]
   24d22:	6e09      	ldr	r1, [r1, #96]	@ 0x60
   24d24:	4b0f      	ldr	r3, [pc, #60]	@ (24d64 <_start+0xe68>)
   24d26:	446b      	add	r3, sp
   24d28:	930c      	str	r3, [sp, #48]	@ 0x30
   24d2a:	c844      	ldmia	r0!, {r2, r6}
   24d2c:	c344      	stmia	r3!, {r2, r6}
   24d2e:	7800      	ldrb	r0, [r0, #0]
   24d30:	7018      	strb	r0, [r3, #0]
   24d32:	0e08      	lsrs	r0, r1, #24
   24d34:	71a8      	strb	r0, [r5, #6]
   24d36:	0c08      	lsrs	r0, r1, #16
   24d38:	7168      	strb	r0, [r5, #5]
   24d3a:	0a08      	lsrs	r0, r1, #8
   24d3c:	7128      	strb	r0, [r5, #4]
   24d3e:	70e9      	strb	r1, [r5, #3]
   24d40:	1de8      	adds	r0, r5, #7
   24d42:	2209      	movs	r2, #9
   24d44:	990c      	ldr	r1, [sp, #48]	@ 0x30
   24d46:	f002 f8ba 	bl	26ebe <__aeabi_memcpy>
   24d4a:	4e05      	ldr	r6, [pc, #20]	@ (24d60 <_start+0xe64>)
   24d4c:	446e      	add	r6, sp
   24d4e:	4630      	mov	r0, r6
   24d50:	4629      	mov	r1, r5
   24d52:	f7fe fd2f 	bl	237b4 <_ZN18complex_no_dynamic3app17hdff7ba4e92883c59E>
   24d56:	7830      	ldrb	r0, [r6, #0]
   24d58:	2801      	cmp	r0, #1
   24d5a:	d105      	bne.n	24d68 <_start+0xe6c>
   24d5c:	f001 fede 	bl	26b1c <_start+0x2c20>
   24d60:	000013cc 	.word	0x000013cc
   24d64:	00001370 	.word	0x00001370
   24d68:	481a      	ldr	r0, [pc, #104]	@ (24dd4 <_start+0xed8>)
   24d6a:	4468      	add	r0, sp
   24d6c:	78c1      	ldrb	r1, [r0, #3]
   24d6e:	abff      	add	r3, sp, #1020	@ 0x3fc
   24d70:	339c      	adds	r3, #156	@ 0x9c
   24d72:	930b      	str	r3, [sp, #44]	@ 0x2c
   24d74:	7099      	strb	r1, [r3, #2]
   24d76:	7841      	ldrb	r1, [r0, #1]
   24d78:	7882      	ldrb	r2, [r0, #2]
   24d7a:	0212      	lsls	r2, r2, #8
   24d7c:	1851      	adds	r1, r2, r1
   24d7e:	8019      	strh	r1, [r3, #0]
   24d80:	3008      	adds	r0, #8
   24d82:	9905      	ldr	r1, [sp, #20]
   24d84:	6e09      	ldr	r1, [r1, #96]	@ 0x60
   24d86:	910a      	str	r1, [sp, #40]	@ 0x28
   24d88:	4b13      	ldr	r3, [pc, #76]	@ (24dd8 <_start+0xedc>)
   24d8a:	446b      	add	r3, sp
   24d8c:	930c      	str	r3, [sp, #48]	@ 0x30
   24d8e:	c846      	ldmia	r0!, {r1, r2, r6}
   24d90:	c346      	stmia	r3!, {r1, r2, r6}
   24d92:	c866      	ldmia	r0!, {r1, r2, r5, r6}
   24d94:	c366      	stmia	r3!, {r1, r2, r5, r6}
   24d96:	c866      	ldmia	r0!, {r1, r2, r5, r6}
   24d98:	c366      	stmia	r3!, {r1, r2, r5, r6}
   24d9a:	8801      	ldrh	r1, [r0, #0]
   24d9c:	8019      	strh	r1, [r3, #0]
   24d9e:	7880      	ldrb	r0, [r0, #2]
   24da0:	7098      	strb	r0, [r3, #2]
   24da2:	990a      	ldr	r1, [sp, #40]	@ 0x28
   24da4:	0e08      	lsrs	r0, r1, #24
   24da6:	9d0b      	ldr	r5, [sp, #44]	@ 0x2c
   24da8:	71a8      	strb	r0, [r5, #6]
   24daa:	0c08      	lsrs	r0, r1, #16
   24dac:	7168      	strb	r0, [r5, #5]
   24dae:	0a08      	lsrs	r0, r1, #8
   24db0:	7128      	strb	r0, [r5, #4]
   24db2:	70e9      	strb	r1, [r5, #3]
   24db4:	1de8      	adds	r0, r5, #7
   24db6:	222f      	movs	r2, #47	@ 0x2f
   24db8:	990c      	ldr	r1, [sp, #48]	@ 0x30
   24dba:	f002 f880 	bl	26ebe <__aeabi_memcpy>
   24dbe:	4e05      	ldr	r6, [pc, #20]	@ (24dd4 <_start+0xed8>)
   24dc0:	446e      	add	r6, sp
   24dc2:	4630      	mov	r0, r6
   24dc4:	4629      	mov	r1, r5
   24dc6:	f7fc fdc9 	bl	2195c <_ZN18complex_no_dynamic3app17h5b08918769fff31aE>
   24dca:	7830      	ldrb	r0, [r6, #0]
   24dcc:	2801      	cmp	r0, #1
   24dce:	d105      	bne.n	24ddc <_start+0xee0>
   24dd0:	f001 fea4 	bl	26b1c <_start+0x2c20>
   24dd4:	000013cc 	.word	0x000013cc
   24dd8:	00001370 	.word	0x00001370
   24ddc:	9803      	ldr	r0, [sp, #12]
   24dde:	1cc0      	adds	r0, r0, #3
   24de0:	4a16      	ldr	r2, [pc, #88]	@ (24e3c <_start+0xf40>)
   24de2:	446a      	add	r2, sp
   24de4:	78d3      	ldrb	r3, [r2, #3]
   24de6:	a9ff      	add	r1, sp, #1020	@ 0x3fc
   24de8:	31d4      	adds	r1, #212	@ 0xd4
   24dea:	708b      	strb	r3, [r1, #2]
   24dec:	7853      	ldrb	r3, [r2, #1]
   24dee:	7892      	ldrb	r2, [r2, #2]
   24df0:	0212      	lsls	r2, r2, #8
   24df2:	18d2      	adds	r2, r2, r3
   24df4:	800a      	strh	r2, [r1, #0]
   24df6:	9d05      	ldr	r5, [sp, #20]
   24df8:	3560      	adds	r5, #96	@ 0x60
   24dfa:	cd2c      	ldmia	r5, {r2, r3, r5}
   24dfc:	0e2e      	lsrs	r6, r5, #24
   24dfe:	72c6      	strb	r6, [r0, #11]
   24e00:	0c2e      	lsrs	r6, r5, #16
   24e02:	7286      	strb	r6, [r0, #10]
   24e04:	0a2e      	lsrs	r6, r5, #8
   24e06:	7246      	strb	r6, [r0, #9]
   24e08:	7205      	strb	r5, [r0, #8]
   24e0a:	0e1d      	lsrs	r5, r3, #24
   24e0c:	71c5      	strb	r5, [r0, #7]
   24e0e:	0c1d      	lsrs	r5, r3, #16
   24e10:	7185      	strb	r5, [r0, #6]
   24e12:	0a1d      	lsrs	r5, r3, #8
   24e14:	7145      	strb	r5, [r0, #5]
   24e16:	7103      	strb	r3, [r0, #4]
   24e18:	0e13      	lsrs	r3, r2, #24
   24e1a:	70c3      	strb	r3, [r0, #3]
   24e1c:	0c13      	lsrs	r3, r2, #16
   24e1e:	7083      	strb	r3, [r0, #2]
   24e20:	0a13      	lsrs	r3, r2, #8
   24e22:	7043      	strb	r3, [r0, #1]
   24e24:	7002      	strb	r2, [r0, #0]
   24e26:	4d05      	ldr	r5, [pc, #20]	@ (24e3c <_start+0xf40>)
   24e28:	446d      	add	r5, sp
   24e2a:	4628      	mov	r0, r5
   24e2c:	f7fe f9d0 	bl	231d0 <_ZN18complex_no_dynamic3app17hca0bc04db4438602E>
   24e30:	7828      	ldrb	r0, [r5, #0]
   24e32:	2801      	cmp	r0, #1
   24e34:	d104      	bne.n	24e40 <_start+0xf44>
   24e36:	f001 fe71 	bl	26b1c <_start+0x2c20>
   24e3a:	46c0      	nop			@ (mov r8, r8)
   24e3c:	000013cc 	.word	0x000013cc
   24e40:	4815      	ldr	r0, [pc, #84]	@ (24e98 <_start+0xf9c>)
   24e42:	4468      	add	r0, sp
   24e44:	78c1      	ldrb	r1, [r0, #3]
   24e46:	adff      	add	r5, sp, #1020	@ 0x3fc
   24e48:	35e4      	adds	r5, #228	@ 0xe4
   24e4a:	70a9      	strb	r1, [r5, #2]
   24e4c:	7841      	ldrb	r1, [r0, #1]
   24e4e:	7882      	ldrb	r2, [r0, #2]
   24e50:	0212      	lsls	r2, r2, #8
   24e52:	1851      	adds	r1, r2, r1
   24e54:	8029      	strh	r1, [r5, #0]
   24e56:	3008      	adds	r0, #8
   24e58:	9905      	ldr	r1, [sp, #20]
   24e5a:	6e09      	ldr	r1, [r1, #96]	@ 0x60
   24e5c:	910b      	str	r1, [sp, #44]	@ 0x2c
   24e5e:	4b0f      	ldr	r3, [pc, #60]	@ (24e9c <_start+0xfa0>)
   24e60:	446b      	add	r3, sp
   24e62:	930c      	str	r3, [sp, #48]	@ 0x30
   24e64:	c846      	ldmia	r0!, {r1, r2, r6}
   24e66:	c346      	stmia	r3!, {r1, r2, r6}
   24e68:	990b      	ldr	r1, [sp, #44]	@ 0x2c
   24e6a:	0e08      	lsrs	r0, r1, #24
   24e6c:	71a8      	strb	r0, [r5, #6]
   24e6e:	0c08      	lsrs	r0, r1, #16
   24e70:	7168      	strb	r0, [r5, #5]
   24e72:	0a08      	lsrs	r0, r1, #8
   24e74:	7128      	strb	r0, [r5, #4]
   24e76:	70e9      	strb	r1, [r5, #3]
   24e78:	1de8      	adds	r0, r5, #7
   24e7a:	220c      	movs	r2, #12
   24e7c:	990c      	ldr	r1, [sp, #48]	@ 0x30
   24e7e:	f002 f81e 	bl	26ebe <__aeabi_memcpy>
   24e82:	4e05      	ldr	r6, [pc, #20]	@ (24e98 <_start+0xf9c>)
   24e84:	446e      	add	r6, sp
   24e86:	4630      	mov	r0, r6
   24e88:	4629      	mov	r1, r5
   24e8a:	f7fd f95d 	bl	22148 <_ZN18complex_no_dynamic3app17h7425e9f4eeba4927E>
   24e8e:	7830      	ldrb	r0, [r6, #0]
   24e90:	2801      	cmp	r0, #1
   24e92:	d105      	bne.n	24ea0 <_start+0xfa4>
   24e94:	f001 fe42 	bl	26b1c <_start+0x2c20>
   24e98:	000013cc 	.word	0x000013cc
   24e9c:	00001370 	.word	0x00001370
   24ea0:	4915      	ldr	r1, [pc, #84]	@ (24ef8 <_start+0xffc>)
   24ea2:	4469      	add	r1, sp
   24ea4:	78c8      	ldrb	r0, [r1, #3]
   24ea6:	adff      	add	r5, sp, #1020	@ 0x3fc
   24ea8:	35f8      	adds	r5, #248	@ 0xf8
   24eaa:	70a8      	strb	r0, [r5, #2]
   24eac:	7848      	ldrb	r0, [r1, #1]
   24eae:	788a      	ldrb	r2, [r1, #2]
   24eb0:	0212      	lsls	r2, r2, #8
   24eb2:	1810      	adds	r0, r2, r0
   24eb4:	8028      	strh	r0, [r5, #0]
   24eb6:	9805      	ldr	r0, [sp, #20]
   24eb8:	6e06      	ldr	r6, [r0, #96]	@ 0x60
   24eba:	3108      	adds	r1, #8
   24ebc:	480f      	ldr	r0, [pc, #60]	@ (24efc <_start+0x1000>)
   24ebe:	4468      	add	r0, sp
   24ec0:	900c      	str	r0, [sp, #48]	@ 0x30
   24ec2:	224e      	movs	r2, #78	@ 0x4e
   24ec4:	920b      	str	r2, [sp, #44]	@ 0x2c
   24ec6:	f001 fe9a 	bl	26bfe <__aeabi_memcpy4>
   24eca:	0e30      	lsrs	r0, r6, #24
   24ecc:	71a8      	strb	r0, [r5, #6]
   24ece:	0c30      	lsrs	r0, r6, #16
   24ed0:	7168      	strb	r0, [r5, #5]
   24ed2:	0a30      	lsrs	r0, r6, #8
   24ed4:	7128      	strb	r0, [r5, #4]
   24ed6:	70ee      	strb	r6, [r5, #3]
   24ed8:	1de8      	adds	r0, r5, #7
   24eda:	990c      	ldr	r1, [sp, #48]	@ 0x30
   24edc:	9a0b      	ldr	r2, [sp, #44]	@ 0x2c
   24ede:	f001 ffee 	bl	26ebe <__aeabi_memcpy>
   24ee2:	4e05      	ldr	r6, [pc, #20]	@ (24ef8 <_start+0xffc>)
   24ee4:	446e      	add	r6, sp
   24ee6:	4630      	mov	r0, r6
   24ee8:	4629      	mov	r1, r5
   24eea:	f7fc f937 	bl	2115c <_ZN18complex_no_dynamic3app17h419465880eb9a1ecE>
   24eee:	7830      	ldrb	r0, [r6, #0]
   24ef0:	2801      	cmp	r0, #1
   24ef2:	d105      	bne.n	24f00 <_start+0x1004>
   24ef4:	f001 fe12 	bl	26b1c <_start+0x2c20>
   24ef8:	000013cc 	.word	0x000013cc
   24efc:	00001370 	.word	0x00001370
   24f00:	481a      	ldr	r0, [pc, #104]	@ (24f6c <_start+0x1070>)
   24f02:	4468      	add	r0, sp
   24f04:	78c1      	ldrb	r1, [r0, #3]
   24f06:	4b1a      	ldr	r3, [pc, #104]	@ (24f70 <_start+0x1074>)
   24f08:	446b      	add	r3, sp
   24f0a:	930b      	str	r3, [sp, #44]	@ 0x2c
   24f0c:	7099      	strb	r1, [r3, #2]
   24f0e:	7841      	ldrb	r1, [r0, #1]
   24f10:	7882      	ldrb	r2, [r0, #2]
   24f12:	0212      	lsls	r2, r2, #8
   24f14:	1851      	adds	r1, r2, r1
   24f16:	8019      	strh	r1, [r3, #0]
   24f18:	3008      	adds	r0, #8
   24f1a:	9905      	ldr	r1, [sp, #20]
   24f1c:	6e09      	ldr	r1, [r1, #96]	@ 0x60
   24f1e:	910a      	str	r1, [sp, #40]	@ 0x28
   24f20:	4b14      	ldr	r3, [pc, #80]	@ (24f74 <_start+0x1078>)
   24f22:	446b      	add	r3, sp
   24f24:	930c      	str	r3, [sp, #48]	@ 0x30
   24f26:	c846      	ldmia	r0!, {r1, r2, r6}
   24f28:	c346      	stmia	r3!, {r1, r2, r6}
   24f2a:	c846      	ldmia	r0!, {r1, r2, r6}
   24f2c:	c346      	stmia	r3!, {r1, r2, r6}
   24f2e:	c866      	ldmia	r0!, {r1, r2, r5, r6}
   24f30:	c366      	stmia	r3!, {r1, r2, r5, r6}
   24f32:	8801      	ldrh	r1, [r0, #0]
   24f34:	8019      	strh	r1, [r3, #0]
   24f36:	7880      	ldrb	r0, [r0, #2]
   24f38:	7098      	strb	r0, [r3, #2]
   24f3a:	990a      	ldr	r1, [sp, #40]	@ 0x28
   24f3c:	0e08      	lsrs	r0, r1, #24
   24f3e:	9d0b      	ldr	r5, [sp, #44]	@ 0x2c
   24f40:	71a8      	strb	r0, [r5, #6]
   24f42:	0c08      	lsrs	r0, r1, #16
   24f44:	7168      	strb	r0, [r5, #5]
   24f46:	0a08      	lsrs	r0, r1, #8
   24f48:	7128      	strb	r0, [r5, #4]
   24f4a:	70e9      	strb	r1, [r5, #3]
   24f4c:	1de8      	adds	r0, r5, #7
   24f4e:	222b      	movs	r2, #43	@ 0x2b
   24f50:	990c      	ldr	r1, [sp, #48]	@ 0x30
   24f52:	f001 ffb4 	bl	26ebe <__aeabi_memcpy>
   24f56:	4e05      	ldr	r6, [pc, #20]	@ (24f6c <_start+0x1070>)
   24f58:	446e      	add	r6, sp
   24f5a:	4630      	mov	r0, r6
   24f5c:	4629      	mov	r1, r5
   24f5e:	f7fc ff4d 	bl	21dfc <_ZN18complex_no_dynamic3app17h6dd5b5557d1c2946E>
   24f62:	7830      	ldrb	r0, [r6, #0]
   24f64:	2801      	cmp	r0, #1
   24f66:	d107      	bne.n	24f78 <_start+0x107c>
   24f68:	f001 fdd8 	bl	26b1c <_start+0x2c20>
   24f6c:	000013cc 	.word	0x000013cc
   24f70:	0000054c 	.word	0x0000054c
   24f74:	00001370 	.word	0x00001370
   24f78:	481a      	ldr	r0, [pc, #104]	@ (24fe4 <_start+0x10e8>)
   24f7a:	4468      	add	r0, sp
   24f7c:	78c1      	ldrb	r1, [r0, #3]
   24f7e:	4b1a      	ldr	r3, [pc, #104]	@ (24fe8 <_start+0x10ec>)
   24f80:	446b      	add	r3, sp
   24f82:	930b      	str	r3, [sp, #44]	@ 0x2c
   24f84:	7099      	strb	r1, [r3, #2]
   24f86:	7841      	ldrb	r1, [r0, #1]
   24f88:	7882      	ldrb	r2, [r0, #2]
   24f8a:	0212      	lsls	r2, r2, #8
   24f8c:	1851      	adds	r1, r2, r1
   24f8e:	8019      	strh	r1, [r3, #0]
   24f90:	3008      	adds	r0, #8
   24f92:	9905      	ldr	r1, [sp, #20]
   24f94:	6e09      	ldr	r1, [r1, #96]	@ 0x60
   24f96:	910a      	str	r1, [sp, #40]	@ 0x28
   24f98:	4b14      	ldr	r3, [pc, #80]	@ (24fec <_start+0x10f0>)
   24f9a:	446b      	add	r3, sp
   24f9c:	930c      	str	r3, [sp, #48]	@ 0x30
   24f9e:	c846      	ldmia	r0!, {r1, r2, r6}
   24fa0:	c346      	stmia	r3!, {r1, r2, r6}
   24fa2:	c866      	ldmia	r0!, {r1, r2, r5, r6}
   24fa4:	c366      	stmia	r3!, {r1, r2, r5, r6}
   24fa6:	c826      	ldmia	r0!, {r1, r2, r5}
   24fa8:	c326      	stmia	r3!, {r1, r2, r5}
   24faa:	c866      	ldmia	r0!, {r1, r2, r5, r6}
   24fac:	c366      	stmia	r3!, {r1, r2, r5, r6}
   24fae:	8800      	ldrh	r0, [r0, #0]
   24fb0:	8018      	strh	r0, [r3, #0]
   24fb2:	990a      	ldr	r1, [sp, #40]	@ 0x28
   24fb4:	0e08      	lsrs	r0, r1, #24
   24fb6:	9d0b      	ldr	r5, [sp, #44]	@ 0x2c
   24fb8:	71a8      	strb	r0, [r5, #6]
   24fba:	0c08      	lsrs	r0, r1, #16
   24fbc:	7168      	strb	r0, [r5, #5]
   24fbe:	0a08      	lsrs	r0, r1, #8
   24fc0:	7128      	strb	r0, [r5, #4]
   24fc2:	70e9      	strb	r1, [r5, #3]
   24fc4:	1de8      	adds	r0, r5, #7
   24fc6:	223a      	movs	r2, #58	@ 0x3a
   24fc8:	990c      	ldr	r1, [sp, #48]	@ 0x30
   24fca:	f001 ff78 	bl	26ebe <__aeabi_memcpy>
   24fce:	4e05      	ldr	r6, [pc, #20]	@ (24fe4 <_start+0x10e8>)
   24fd0:	446e      	add	r6, sp
   24fd2:	4630      	mov	r0, r6
   24fd4:	4629      	mov	r1, r5
   24fd6:	f7fe f851 	bl	2307c <_ZN18complex_no_dynamic3app17hc49e872d54d90a89E>
   24fda:	7830      	ldrb	r0, [r6, #0]
   24fdc:	2801      	cmp	r0, #1
   24fde:	d107      	bne.n	24ff0 <_start+0x10f4>
   24fe0:	f001 fd9c 	bl	26b1c <_start+0x2c20>
   24fe4:	000013cc 	.word	0x000013cc
   24fe8:	00000580 	.word	0x00000580
   24fec:	00001370 	.word	0x00001370
   24ff0:	4818      	ldr	r0, [pc, #96]	@ (25054 <_start+0x1158>)
   24ff2:	4468      	add	r0, sp
   24ff4:	78c1      	ldrb	r1, [r0, #3]
   24ff6:	4d18      	ldr	r5, [pc, #96]	@ (25058 <_start+0x115c>)
   24ff8:	446d      	add	r5, sp
   24ffa:	70a9      	strb	r1, [r5, #2]
   24ffc:	7841      	ldrb	r1, [r0, #1]
   24ffe:	7882      	ldrb	r2, [r0, #2]
   25000:	0212      	lsls	r2, r2, #8
   25002:	1851      	adds	r1, r2, r1
   25004:	8029      	strh	r1, [r5, #0]
   25006:	3008      	adds	r0, #8
   25008:	9905      	ldr	r1, [sp, #20]
   2500a:	6e09      	ldr	r1, [r1, #96]	@ 0x60
   2500c:	910b      	str	r1, [sp, #44]	@ 0x2c
   2500e:	4b13      	ldr	r3, [pc, #76]	@ (2505c <_start+0x1160>)
   25010:	446b      	add	r3, sp
   25012:	930c      	str	r3, [sp, #48]	@ 0x30
   25014:	c846      	ldmia	r0!, {r1, r2, r6}
   25016:	c346      	stmia	r3!, {r1, r2, r6}
   25018:	c846      	ldmia	r0!, {r1, r2, r6}
   2501a:	c346      	stmia	r3!, {r1, r2, r6}
   2501c:	8801      	ldrh	r1, [r0, #0]
   2501e:	8019      	strh	r1, [r3, #0]
   25020:	7880      	ldrb	r0, [r0, #2]
   25022:	7098      	strb	r0, [r3, #2]
   25024:	990b      	ldr	r1, [sp, #44]	@ 0x2c
   25026:	0e08      	lsrs	r0, r1, #24
   25028:	71a8      	strb	r0, [r5, #6]
   2502a:	0c08      	lsrs	r0, r1, #16
   2502c:	7168      	strb	r0, [r5, #5]
   2502e:	0a08      	lsrs	r0, r1, #8
   25030:	7128      	strb	r0, [r5, #4]
   25032:	70e9      	strb	r1, [r5, #3]
   25034:	1de8      	adds	r0, r5, #7
   25036:	221b      	movs	r2, #27
   25038:	990c      	ldr	r1, [sp, #48]	@ 0x30
   2503a:	f001 ff40 	bl	26ebe <__aeabi_memcpy>
   2503e:	4e05      	ldr	r6, [pc, #20]	@ (25054 <_start+0x1158>)
   25040:	446e      	add	r6, sp
   25042:	4630      	mov	r0, r6
   25044:	4629      	mov	r1, r5
   25046:	f7fb f84d 	bl	200e4 <_ZN18complex_no_dynamic3app17h0608c81a0bf0e902E>
   2504a:	7830      	ldrb	r0, [r6, #0]
   2504c:	2801      	cmp	r0, #1
   2504e:	d107      	bne.n	25060 <_start+0x1164>
   25050:	f001 fd64 	bl	26b1c <_start+0x2c20>
   25054:	000013cc 	.word	0x000013cc
   25058:	000005c4 	.word	0x000005c4
   2505c:	00001370 	.word	0x00001370
   25060:	4915      	ldr	r1, [pc, #84]	@ (250b8 <_start+0x11bc>)
   25062:	4469      	add	r1, sp
   25064:	78c8      	ldrb	r0, [r1, #3]
   25066:	4d15      	ldr	r5, [pc, #84]	@ (250bc <_start+0x11c0>)
   25068:	446d      	add	r5, sp
   2506a:	70a8      	strb	r0, [r5, #2]
   2506c:	7848      	ldrb	r0, [r1, #1]
   2506e:	788a      	ldrb	r2, [r1, #2]
   25070:	0212      	lsls	r2, r2, #8
   25072:	1810      	adds	r0, r2, r0
   25074:	8028      	strh	r0, [r5, #0]
   25076:	9805      	ldr	r0, [sp, #20]
   25078:	6e06      	ldr	r6, [r0, #96]	@ 0x60
   2507a:	3108      	adds	r1, #8
   2507c:	4810      	ldr	r0, [pc, #64]	@ (250c0 <_start+0x11c4>)
   2507e:	4468      	add	r0, sp
   25080:	900c      	str	r0, [sp, #48]	@ 0x30
   25082:	224a      	movs	r2, #74	@ 0x4a
   25084:	920b      	str	r2, [sp, #44]	@ 0x2c
   25086:	f001 fdba 	bl	26bfe <__aeabi_memcpy4>
   2508a:	0e30      	lsrs	r0, r6, #24
   2508c:	71a8      	strb	r0, [r5, #6]
   2508e:	0c30      	lsrs	r0, r6, #16
   25090:	7168      	strb	r0, [r5, #5]
   25092:	0a30      	lsrs	r0, r6, #8
   25094:	7128      	strb	r0, [r5, #4]
   25096:	70ee      	strb	r6, [r5, #3]
   25098:	1de8      	adds	r0, r5, #7
   2509a:	990c      	ldr	r1, [sp, #48]	@ 0x30
   2509c:	9a0b      	ldr	r2, [sp, #44]	@ 0x2c
   2509e:	f001 ff0e 	bl	26ebe <__aeabi_memcpy>
   250a2:	4e05      	ldr	r6, [pc, #20]	@ (250b8 <_start+0x11bc>)
   250a4:	446e      	add	r6, sp
   250a6:	4630      	mov	r0, r6
   250a8:	4629      	mov	r1, r5
   250aa:	f7fe fc2f 	bl	2390c <_ZN18complex_no_dynamic3app17heb5f38ff79e45a3bE>
   250ae:	7830      	ldrb	r0, [r6, #0]
   250b0:	2801      	cmp	r0, #1
   250b2:	d107      	bne.n	250c4 <_start+0x11c8>
   250b4:	f001 fd32 	bl	26b1c <_start+0x2c20>
   250b8:	000013cc 	.word	0x000013cc
   250bc:	000005e8 	.word	0x000005e8
   250c0:	00001370 	.word	0x00001370
   250c4:	4915      	ldr	r1, [pc, #84]	@ (2511c <_start+0x1220>)
   250c6:	4469      	add	r1, sp
   250c8:	78c8      	ldrb	r0, [r1, #3]
   250ca:	4d15      	ldr	r5, [pc, #84]	@ (25120 <_start+0x1224>)
   250cc:	446d      	add	r5, sp
   250ce:	70a8      	strb	r0, [r5, #2]
   250d0:	7848      	ldrb	r0, [r1, #1]
   250d2:	788a      	ldrb	r2, [r1, #2]
   250d4:	0212      	lsls	r2, r2, #8
   250d6:	1810      	adds	r0, r2, r0
   250d8:	8028      	strh	r0, [r5, #0]
   250da:	9805      	ldr	r0, [sp, #20]
   250dc:	6e06      	ldr	r6, [r0, #96]	@ 0x60
   250de:	3108      	adds	r1, #8
   250e0:	4810      	ldr	r0, [pc, #64]	@ (25124 <_start+0x1228>)
   250e2:	4468      	add	r0, sp
   250e4:	900c      	str	r0, [sp, #48]	@ 0x30
   250e6:	2248      	movs	r2, #72	@ 0x48
   250e8:	920b      	str	r2, [sp, #44]	@ 0x2c
   250ea:	f001 fd88 	bl	26bfe <__aeabi_memcpy4>
   250ee:	0e30      	lsrs	r0, r6, #24
   250f0:	71a8      	strb	r0, [r5, #6]
   250f2:	0c30      	lsrs	r0, r6, #16
   250f4:	7168      	strb	r0, [r5, #5]
   250f6:	0a30      	lsrs	r0, r6, #8
   250f8:	7128      	strb	r0, [r5, #4]
   250fa:	70ee      	strb	r6, [r5, #3]
   250fc:	1de8      	adds	r0, r5, #7
   250fe:	990c      	ldr	r1, [sp, #48]	@ 0x30
   25100:	9a0b      	ldr	r2, [sp, #44]	@ 0x2c
   25102:	f001 fedc 	bl	26ebe <__aeabi_memcpy>
   25106:	4e05      	ldr	r6, [pc, #20]	@ (2511c <_start+0x1220>)
   25108:	446e      	add	r6, sp
   2510a:	4630      	mov	r0, r6
   2510c:	4629      	mov	r1, r5
   2510e:	f7fc fbd1 	bl	218b4 <_ZN18complex_no_dynamic3app17h533c7b57ca7cb73dE>
   25112:	7830      	ldrb	r0, [r6, #0]
   25114:	2801      	cmp	r0, #1
   25116:	d107      	bne.n	25128 <_start+0x122c>
   25118:	f001 fd00 	bl	26b1c <_start+0x2c20>
   2511c:	000013cc 	.word	0x000013cc
   25120:	0000063c 	.word	0x0000063c
   25124:	00001370 	.word	0x00001370
   25128:	4819      	ldr	r0, [pc, #100]	@ (25190 <_start+0x1294>)
   2512a:	4468      	add	r0, sp
   2512c:	78c1      	ldrb	r1, [r0, #3]
   2512e:	4b19      	ldr	r3, [pc, #100]	@ (25194 <_start+0x1298>)
   25130:	446b      	add	r3, sp
   25132:	930b      	str	r3, [sp, #44]	@ 0x2c
   25134:	7099      	strb	r1, [r3, #2]
   25136:	7841      	ldrb	r1, [r0, #1]
   25138:	7882      	ldrb	r2, [r0, #2]
   2513a:	0212      	lsls	r2, r2, #8
   2513c:	1851      	adds	r1, r2, r1
   2513e:	8019      	strh	r1, [r3, #0]
   25140:	3008      	adds	r0, #8
   25142:	9905      	ldr	r1, [sp, #20]
   25144:	6e09      	ldr	r1, [r1, #96]	@ 0x60
   25146:	910a      	str	r1, [sp, #40]	@ 0x28
   25148:	4b13      	ldr	r3, [pc, #76]	@ (25198 <_start+0x129c>)
   2514a:	446b      	add	r3, sp
   2514c:	930c      	str	r3, [sp, #48]	@ 0x30
   2514e:	c846      	ldmia	r0!, {r1, r2, r6}
   25150:	c346      	stmia	r3!, {r1, r2, r6}
   25152:	c846      	ldmia	r0!, {r1, r2, r6}
   25154:	c346      	stmia	r3!, {r1, r2, r6}
   25156:	c846      	ldmia	r0!, {r1, r2, r6}
   25158:	c346      	stmia	r3!, {r1, r2, r6}
   2515a:	c866      	ldmia	r0!, {r1, r2, r5, r6}
   2515c:	c366      	stmia	r3!, {r1, r2, r5, r6}
   2515e:	990a      	ldr	r1, [sp, #40]	@ 0x28
   25160:	0e08      	lsrs	r0, r1, #24
   25162:	9d0b      	ldr	r5, [sp, #44]	@ 0x2c
   25164:	71a8      	strb	r0, [r5, #6]
   25166:	0c08      	lsrs	r0, r1, #16
   25168:	7168      	strb	r0, [r5, #5]
   2516a:	0a08      	lsrs	r0, r1, #8
   2516c:	7128      	strb	r0, [r5, #4]
   2516e:	70e9      	strb	r1, [r5, #3]
   25170:	1de8      	adds	r0, r5, #7
   25172:	2234      	movs	r2, #52	@ 0x34
   25174:	990c      	ldr	r1, [sp, #48]	@ 0x30
   25176:	f001 fea2 	bl	26ebe <__aeabi_memcpy>
   2517a:	4e05      	ldr	r6, [pc, #20]	@ (25190 <_start+0x1294>)
   2517c:	446e      	add	r6, sp
   2517e:	4630      	mov	r0, r6
   25180:	4629      	mov	r1, r5
   25182:	f7fb fc9f 	bl	20ac4 <_ZN18complex_no_dynamic3app17h2b7b77a9d5d31bc6E>
   25186:	7830      	ldrb	r0, [r6, #0]
   25188:	2801      	cmp	r0, #1
   2518a:	d107      	bne.n	2519c <_start+0x12a0>
   2518c:	f001 fcc6 	bl	26b1c <_start+0x2c20>
   25190:	000013cc 	.word	0x000013cc
   25194:	0000068c 	.word	0x0000068c
   25198:	00001370 	.word	0x00001370
   2519c:	4817      	ldr	r0, [pc, #92]	@ (251fc <_start+0x1300>)
   2519e:	4468      	add	r0, sp
   251a0:	78c1      	ldrb	r1, [r0, #3]
   251a2:	4b17      	ldr	r3, [pc, #92]	@ (25200 <_start+0x1304>)
   251a4:	446b      	add	r3, sp
   251a6:	930b      	str	r3, [sp, #44]	@ 0x2c
   251a8:	7099      	strb	r1, [r3, #2]
   251aa:	7841      	ldrb	r1, [r0, #1]
   251ac:	7882      	ldrb	r2, [r0, #2]
   251ae:	0212      	lsls	r2, r2, #8
   251b0:	1851      	adds	r1, r2, r1
   251b2:	8019      	strh	r1, [r3, #0]
   251b4:	3008      	adds	r0, #8
   251b6:	9905      	ldr	r1, [sp, #20]
   251b8:	6e09      	ldr	r1, [r1, #96]	@ 0x60
   251ba:	910a      	str	r1, [sp, #40]	@ 0x28
   251bc:	4b11      	ldr	r3, [pc, #68]	@ (25204 <_start+0x1308>)
   251be:	446b      	add	r3, sp
   251c0:	930c      	str	r3, [sp, #48]	@ 0x30
   251c2:	c866      	ldmia	r0!, {r1, r2, r5, r6}
   251c4:	c366      	stmia	r3!, {r1, r2, r5, r6}
   251c6:	c866      	ldmia	r0!, {r1, r2, r5, r6}
   251c8:	c366      	stmia	r3!, {r1, r2, r5, r6}
   251ca:	990a      	ldr	r1, [sp, #40]	@ 0x28
   251cc:	0e08      	lsrs	r0, r1, #24
   251ce:	9d0b      	ldr	r5, [sp, #44]	@ 0x2c
   251d0:	71a8      	strb	r0, [r5, #6]
   251d2:	0c08      	lsrs	r0, r1, #16
   251d4:	7168      	strb	r0, [r5, #5]
   251d6:	0a08      	lsrs	r0, r1, #8
   251d8:	7128      	strb	r0, [r5, #4]
   251da:	70e9      	strb	r1, [r5, #3]
   251dc:	1de8      	adds	r0, r5, #7
   251de:	2220      	movs	r2, #32
   251e0:	990c      	ldr	r1, [sp, #48]	@ 0x30
   251e2:	f001 fe6c 	bl	26ebe <__aeabi_memcpy>
   251e6:	4e05      	ldr	r6, [pc, #20]	@ (251fc <_start+0x1300>)
   251e8:	446e      	add	r6, sp
   251ea:	4630      	mov	r0, r6
   251ec:	4629      	mov	r1, r5
   251ee:	f7fe fd35 	bl	23c5c <_ZN18complex_no_dynamic3app17hf8e7cdac3be3ed61E>
   251f2:	7830      	ldrb	r0, [r6, #0]
   251f4:	2801      	cmp	r0, #1
   251f6:	d107      	bne.n	25208 <_start+0x130c>
   251f8:	f001 fc90 	bl	26b1c <_start+0x2c20>
   251fc:	000013cc 	.word	0x000013cc
   25200:	000006c8 	.word	0x000006c8
   25204:	00001370 	.word	0x00001370
   25208:	4816      	ldr	r0, [pc, #88]	@ (25264 <_start+0x1368>)
   2520a:	4468      	add	r0, sp
   2520c:	78c1      	ldrb	r1, [r0, #3]
   2520e:	4d16      	ldr	r5, [pc, #88]	@ (25268 <_start+0x136c>)
   25210:	446d      	add	r5, sp
   25212:	70a9      	strb	r1, [r5, #2]
   25214:	7841      	ldrb	r1, [r0, #1]
   25216:	7882      	ldrb	r2, [r0, #2]
   25218:	0212      	lsls	r2, r2, #8
   2521a:	1851      	adds	r1, r2, r1
   2521c:	8029      	strh	r1, [r5, #0]
   2521e:	3008      	adds	r0, #8
   25220:	9905      	ldr	r1, [sp, #20]
   25222:	6e09      	ldr	r1, [r1, #96]	@ 0x60
   25224:	910b      	str	r1, [sp, #44]	@ 0x2c
   25226:	4b11      	ldr	r3, [pc, #68]	@ (2526c <_start+0x1370>)
   25228:	446b      	add	r3, sp
   2522a:	930c      	str	r3, [sp, #48]	@ 0x30
   2522c:	c846      	ldmia	r0!, {r1, r2, r6}
   2522e:	c346      	stmia	r3!, {r1, r2, r6}
   25230:	7800      	ldrb	r0, [r0, #0]
   25232:	7018      	strb	r0, [r3, #0]
   25234:	990b      	ldr	r1, [sp, #44]	@ 0x2c
   25236:	0e08      	lsrs	r0, r1, #24
   25238:	71a8      	strb	r0, [r5, #6]
   2523a:	0c08      	lsrs	r0, r1, #16
   2523c:	7168      	strb	r0, [r5, #5]
   2523e:	0a08      	lsrs	r0, r1, #8
   25240:	7128      	strb	r0, [r5, #4]
   25242:	70e9      	strb	r1, [r5, #3]
   25244:	1de8      	adds	r0, r5, #7
   25246:	220d      	movs	r2, #13
   25248:	990c      	ldr	r1, [sp, #48]	@ 0x30
   2524a:	f001 fe38 	bl	26ebe <__aeabi_memcpy>
   2524e:	4e05      	ldr	r6, [pc, #20]	@ (25264 <_start+0x1368>)
   25250:	446e      	add	r6, sp
   25252:	4630      	mov	r0, r6
   25254:	4629      	mov	r1, r5
   25256:	f7fe f909 	bl	2346c <_ZN18complex_no_dynamic3app17hd9362c0f35060bedE>
   2525a:	7830      	ldrb	r0, [r6, #0]
   2525c:	2801      	cmp	r0, #1
   2525e:	d107      	bne.n	25270 <_start+0x1374>
   25260:	f001 fc5c 	bl	26b1c <_start+0x2c20>
   25264:	000013cc 	.word	0x000013cc
   25268:	000006f0 	.word	0x000006f0
   2526c:	00001370 	.word	0x00001370
   25270:	4817      	ldr	r0, [pc, #92]	@ (252d0 <_start+0x13d4>)
   25272:	4468      	add	r0, sp
   25274:	78c1      	ldrb	r1, [r0, #3]
   25276:	4d17      	ldr	r5, [pc, #92]	@ (252d4 <_start+0x13d8>)
   25278:	446d      	add	r5, sp
   2527a:	70a9      	strb	r1, [r5, #2]
   2527c:	7841      	ldrb	r1, [r0, #1]
   2527e:	7882      	ldrb	r2, [r0, #2]
   25280:	0212      	lsls	r2, r2, #8
   25282:	1851      	adds	r1, r2, r1
   25284:	8029      	strh	r1, [r5, #0]
   25286:	3008      	adds	r0, #8
   25288:	9905      	ldr	r1, [sp, #20]
   2528a:	6e09      	ldr	r1, [r1, #96]	@ 0x60
   2528c:	910b      	str	r1, [sp, #44]	@ 0x2c
   2528e:	4b12      	ldr	r3, [pc, #72]	@ (252d8 <_start+0x13dc>)
   25290:	446b      	add	r3, sp
   25292:	930c      	str	r3, [sp, #48]	@ 0x30
   25294:	c846      	ldmia	r0!, {r1, r2, r6}
   25296:	c346      	stmia	r3!, {r1, r2, r6}
   25298:	c846      	ldmia	r0!, {r1, r2, r6}
   2529a:	c346      	stmia	r3!, {r1, r2, r6}
   2529c:	c846      	ldmia	r0!, {r1, r2, r6}
   2529e:	c346      	stmia	r3!, {r1, r2, r6}
   252a0:	990b      	ldr	r1, [sp, #44]	@ 0x2c
   252a2:	0e08      	lsrs	r0, r1, #24
   252a4:	71a8      	strb	r0, [r5, #6]
   252a6:	0c08      	lsrs	r0, r1, #16
   252a8:	7168      	strb	r0, [r5, #5]
   252aa:	0a08      	lsrs	r0, r1, #8
   252ac:	7128      	strb	r0, [r5, #4]
   252ae:	70e9      	strb	r1, [r5, #3]
   252b0:	1de8      	adds	r0, r5, #7
   252b2:	2224      	movs	r2, #36	@ 0x24
   252b4:	990c      	ldr	r1, [sp, #48]	@ 0x30
   252b6:	f001 fe02 	bl	26ebe <__aeabi_memcpy>
   252ba:	4e05      	ldr	r6, [pc, #20]	@ (252d0 <_start+0x13d4>)
   252bc:	446e      	add	r6, sp
   252be:	4630      	mov	r0, r6
   252c0:	4629      	mov	r1, r5
   252c2:	f7fe f97b 	bl	235bc <_ZN18complex_no_dynamic3app17hdcf7ac047eaf13c8E>
   252c6:	7830      	ldrb	r0, [r6, #0]
   252c8:	2801      	cmp	r0, #1
   252ca:	d107      	bne.n	252dc <_start+0x13e0>
   252cc:	f001 fc26 	bl	26b1c <_start+0x2c20>
   252d0:	000013cc 	.word	0x000013cc
   252d4:	00000704 	.word	0x00000704
   252d8:	00001370 	.word	0x00001370
   252dc:	4818      	ldr	r0, [pc, #96]	@ (25340 <_start+0x1444>)
   252de:	4468      	add	r0, sp
   252e0:	78c1      	ldrb	r1, [r0, #3]
   252e2:	4d18      	ldr	r5, [pc, #96]	@ (25344 <_start+0x1448>)
   252e4:	446d      	add	r5, sp
   252e6:	70a9      	strb	r1, [r5, #2]
   252e8:	7841      	ldrb	r1, [r0, #1]
   252ea:	7882      	ldrb	r2, [r0, #2]
   252ec:	0212      	lsls	r2, r2, #8
   252ee:	1851      	adds	r1, r2, r1
   252f0:	8029      	strh	r1, [r5, #0]
   252f2:	3008      	adds	r0, #8
   252f4:	9905      	ldr	r1, [sp, #20]
   252f6:	6e09      	ldr	r1, [r1, #96]	@ 0x60
   252f8:	910b      	str	r1, [sp, #44]	@ 0x2c
   252fa:	4b13      	ldr	r3, [pc, #76]	@ (25348 <_start+0x144c>)
   252fc:	446b      	add	r3, sp
   252fe:	930c      	str	r3, [sp, #48]	@ 0x30
   25300:	c844      	ldmia	r0!, {r2, r6}
   25302:	c344      	stmia	r3!, {r2, r6}
   25304:	c846      	ldmia	r0!, {r1, r2, r6}
   25306:	c346      	stmia	r3!, {r1, r2, r6}
   25308:	8801      	ldrh	r1, [r0, #0]
   2530a:	8019      	strh	r1, [r3, #0]
   2530c:	7880      	ldrb	r0, [r0, #2]
   2530e:	7098      	strb	r0, [r3, #2]
   25310:	990b      	ldr	r1, [sp, #44]	@ 0x2c
   25312:	0e08      	lsrs	r0, r1, #24
   25314:	71a8      	strb	r0, [r5, #6]
   25316:	0c08      	lsrs	r0, r1, #16
   25318:	7168      	strb	r0, [r5, #5]
   2531a:	0a08      	lsrs	r0, r1, #8
   2531c:	7128      	strb	r0, [r5, #4]
   2531e:	70e9      	strb	r1, [r5, #3]
   25320:	1de8      	adds	r0, r5, #7
   25322:	2217      	movs	r2, #23
   25324:	990c      	ldr	r1, [sp, #48]	@ 0x30
   25326:	f001 fdca 	bl	26ebe <__aeabi_memcpy>
   2532a:	4e05      	ldr	r6, [pc, #20]	@ (25340 <_start+0x1444>)
   2532c:	446e      	add	r6, sp
   2532e:	4630      	mov	r0, r6
   25330:	4629      	mov	r1, r5
   25332:	f7fd fba9 	bl	22a88 <_ZN18complex_no_dynamic3app17h9935e9791b9a8d54E>
   25336:	7830      	ldrb	r0, [r6, #0]
   25338:	2801      	cmp	r0, #1
   2533a:	d107      	bne.n	2534c <_start+0x1450>
   2533c:	f001 fbee 	bl	26b1c <_start+0x2c20>
   25340:	000013cc 	.word	0x000013cc
   25344:	00000730 	.word	0x00000730
   25348:	00001370 	.word	0x00001370
   2534c:	4915      	ldr	r1, [pc, #84]	@ (253a4 <_start+0x14a8>)
   2534e:	4469      	add	r1, sp
   25350:	78c8      	ldrb	r0, [r1, #3]
   25352:	4d15      	ldr	r5, [pc, #84]	@ (253a8 <_start+0x14ac>)
   25354:	446d      	add	r5, sp
   25356:	70a8      	strb	r0, [r5, #2]
   25358:	7848      	ldrb	r0, [r1, #1]
   2535a:	788a      	ldrb	r2, [r1, #2]
   2535c:	0212      	lsls	r2, r2, #8
   2535e:	1810      	adds	r0, r2, r0
   25360:	8028      	strh	r0, [r5, #0]
   25362:	9805      	ldr	r0, [sp, #20]
   25364:	6e06      	ldr	r6, [r0, #96]	@ 0x60
   25366:	3108      	adds	r1, #8
   25368:	4810      	ldr	r0, [pc, #64]	@ (253ac <_start+0x14b0>)
   2536a:	4468      	add	r0, sp
   2536c:	900c      	str	r0, [sp, #48]	@ 0x30
   2536e:	224a      	movs	r2, #74	@ 0x4a
   25370:	920b      	str	r2, [sp, #44]	@ 0x2c
   25372:	f001 fc44 	bl	26bfe <__aeabi_memcpy4>
   25376:	0e30      	lsrs	r0, r6, #24
   25378:	71a8      	strb	r0, [r5, #6]
   2537a:	0c30      	lsrs	r0, r6, #16
   2537c:	7168      	strb	r0, [r5, #5]
   2537e:	0a30      	lsrs	r0, r6, #8
   25380:	7128      	strb	r0, [r5, #4]
   25382:	70ee      	strb	r6, [r5, #3]
   25384:	1de8      	adds	r0, r5, #7
   25386:	990c      	ldr	r1, [sp, #48]	@ 0x30
   25388:	9a0b      	ldr	r2, [sp, #44]	@ 0x2c
   2538a:	f001 fd98 	bl	26ebe <__aeabi_memcpy>
   2538e:	4e05      	ldr	r6, [pc, #20]	@ (253a4 <_start+0x14a8>)
   25390:	446e      	add	r6, sp
   25392:	4630      	mov	r0, r6
   25394:	4629      	mov	r1, r5
   25396:	f7fb fce7 	bl	20d68 <_ZN18complex_no_dynamic3app17h353b32559aa19843E>
   2539a:	7830      	ldrb	r0, [r6, #0]
   2539c:	2801      	cmp	r0, #1
   2539e:	d107      	bne.n	253b0 <_start+0x14b4>
   253a0:	f001 fbbc 	bl	26b1c <_start+0x2c20>
   253a4:	000013cc 	.word	0x000013cc
   253a8:	00000750 	.word	0x00000750
   253ac:	00001370 	.word	0x00001370
   253b0:	9804      	ldr	r0, [sp, #16]
   253b2:	1cc0      	adds	r0, r0, #3
   253b4:	4a16      	ldr	r2, [pc, #88]	@ (25410 <_start+0x1514>)
   253b6:	446a      	add	r2, sp
   253b8:	78d3      	ldrb	r3, [r2, #3]
   253ba:	4916      	ldr	r1, [pc, #88]	@ (25414 <_start+0x1518>)
   253bc:	4469      	add	r1, sp
   253be:	708b      	strb	r3, [r1, #2]
   253c0:	7853      	ldrb	r3, [r2, #1]
   253c2:	7892      	ldrb	r2, [r2, #2]
   253c4:	0212      	lsls	r2, r2, #8
   253c6:	18d2      	adds	r2, r2, r3
   253c8:	800a      	strh	r2, [r1, #0]
   253ca:	9d05      	ldr	r5, [sp, #20]
   253cc:	3560      	adds	r5, #96	@ 0x60
   253ce:	cd2c      	ldmia	r5, {r2, r3, r5}
   253d0:	0e2e      	lsrs	r6, r5, #24
   253d2:	72c6      	strb	r6, [r0, #11]
   253d4:	0c2e      	lsrs	r6, r5, #16
   253d6:	7286      	strb	r6, [r0, #10]
   253d8:	0a2e      	lsrs	r6, r5, #8
   253da:	7246      	strb	r6, [r0, #9]
   253dc:	7205      	strb	r5, [r0, #8]
   253de:	0e1d      	lsrs	r5, r3, #24
   253e0:	71c5      	strb	r5, [r0, #7]
   253e2:	0c1d      	lsrs	r5, r3, #16
   253e4:	7185      	strb	r5, [r0, #6]
   253e6:	0a1d      	lsrs	r5, r3, #8
   253e8:	7145      	strb	r5, [r0, #5]
   253ea:	7103      	strb	r3, [r0, #4]
   253ec:	0e13      	lsrs	r3, r2, #24
   253ee:	70c3      	strb	r3, [r0, #3]
   253f0:	0c13      	lsrs	r3, r2, #16
   253f2:	7083      	strb	r3, [r0, #2]
   253f4:	0a13      	lsrs	r3, r2, #8
   253f6:	7043      	strb	r3, [r0, #1]
   253f8:	7002      	strb	r2, [r0, #0]
   253fa:	4d05      	ldr	r5, [pc, #20]	@ (25410 <_start+0x1514>)
   253fc:	446d      	add	r5, sp
   253fe:	4628      	mov	r0, r5
   25400:	f7fd fbea 	bl	22bd8 <_ZN18complex_no_dynamic3app17ha6f1337008328079E>
   25404:	7828      	ldrb	r0, [r5, #0]
   25406:	2801      	cmp	r0, #1
   25408:	d106      	bne.n	25418 <_start+0x151c>
   2540a:	f001 fb87 	bl	26b1c <_start+0x2c20>
   2540e:	46c0      	nop			@ (mov r8, r8)
   25410:	000013cc 	.word	0x000013cc
   25414:	000007a4 	.word	0x000007a4
   25418:	481b      	ldr	r0, [pc, #108]	@ (25488 <_start+0x158c>)
   2541a:	4468      	add	r0, sp
   2541c:	78c1      	ldrb	r1, [r0, #3]
   2541e:	4b1b      	ldr	r3, [pc, #108]	@ (2548c <_start+0x1590>)
   25420:	446b      	add	r3, sp
   25422:	930b      	str	r3, [sp, #44]	@ 0x2c
   25424:	7099      	strb	r1, [r3, #2]
   25426:	7841      	ldrb	r1, [r0, #1]
   25428:	7882      	ldrb	r2, [r0, #2]
   2542a:	0212      	lsls	r2, r2, #8
   2542c:	1851      	adds	r1, r2, r1
   2542e:	8019      	strh	r1, [r3, #0]
   25430:	3008      	adds	r0, #8
   25432:	9905      	ldr	r1, [sp, #20]
   25434:	6e09      	ldr	r1, [r1, #96]	@ 0x60
   25436:	910a      	str	r1, [sp, #40]	@ 0x28
   25438:	4b15      	ldr	r3, [pc, #84]	@ (25490 <_start+0x1594>)
   2543a:	446b      	add	r3, sp
   2543c:	930c      	str	r3, [sp, #48]	@ 0x30
   2543e:	c846      	ldmia	r0!, {r1, r2, r6}
   25440:	c346      	stmia	r3!, {r1, r2, r6}
   25442:	c866      	ldmia	r0!, {r1, r2, r5, r6}
   25444:	c366      	stmia	r3!, {r1, r2, r5, r6}
   25446:	c866      	ldmia	r0!, {r1, r2, r5, r6}
   25448:	c366      	stmia	r3!, {r1, r2, r5, r6}
   2544a:	c866      	ldmia	r0!, {r1, r2, r5, r6}
   2544c:	c366      	stmia	r3!, {r1, r2, r5, r6}
   2544e:	8801      	ldrh	r1, [r0, #0]
   25450:	8019      	strh	r1, [r3, #0]
   25452:	7880      	ldrb	r0, [r0, #2]
   25454:	7098      	strb	r0, [r3, #2]
   25456:	990a      	ldr	r1, [sp, #40]	@ 0x28
   25458:	0e08      	lsrs	r0, r1, #24
   2545a:	9d0b      	ldr	r5, [sp, #44]	@ 0x2c
   2545c:	71a8      	strb	r0, [r5, #6]
   2545e:	0c08      	lsrs	r0, r1, #16
   25460:	7168      	strb	r0, [r5, #5]
   25462:	0a08      	lsrs	r0, r1, #8
   25464:	7128      	strb	r0, [r5, #4]
   25466:	70e9      	strb	r1, [r5, #3]
   25468:	1de8      	adds	r0, r5, #7
   2546a:	223f      	movs	r2, #63	@ 0x3f
   2546c:	990c      	ldr	r1, [sp, #48]	@ 0x30
   2546e:	f001 fd26 	bl	26ebe <__aeabi_memcpy>
   25472:	4e05      	ldr	r6, [pc, #20]	@ (25488 <_start+0x158c>)
   25474:	446e      	add	r6, sp
   25476:	4630      	mov	r0, r6
   25478:	4629      	mov	r1, r5
   2547a:	f7fd f8b5 	bl	225e8 <_ZN18complex_no_dynamic3app17h8638b58673e9b6e0E>
   2547e:	7830      	ldrb	r0, [r6, #0]
   25480:	2801      	cmp	r0, #1
   25482:	d107      	bne.n	25494 <_start+0x1598>
   25484:	f001 fb4a 	bl	26b1c <_start+0x2c20>
   25488:	000013cc 	.word	0x000013cc
   2548c:	000007b4 	.word	0x000007b4
   25490:	00001370 	.word	0x00001370
   25494:	4915      	ldr	r1, [pc, #84]	@ (254ec <_start+0x15f0>)
   25496:	4469      	add	r1, sp
   25498:	78c8      	ldrb	r0, [r1, #3]
   2549a:	4d15      	ldr	r5, [pc, #84]	@ (254f0 <_start+0x15f4>)
   2549c:	446d      	add	r5, sp
   2549e:	70a8      	strb	r0, [r5, #2]
   254a0:	7848      	ldrb	r0, [r1, #1]
   254a2:	788a      	ldrb	r2, [r1, #2]
   254a4:	0212      	lsls	r2, r2, #8
   254a6:	1810      	adds	r0, r2, r0
   254a8:	8028      	strh	r0, [r5, #0]
   254aa:	9805      	ldr	r0, [sp, #20]
   254ac:	6e06      	ldr	r6, [r0, #96]	@ 0x60
   254ae:	3108      	adds	r1, #8
   254b0:	4810      	ldr	r0, [pc, #64]	@ (254f4 <_start+0x15f8>)
   254b2:	4468      	add	r0, sp
   254b4:	900c      	str	r0, [sp, #48]	@ 0x30
   254b6:	224f      	movs	r2, #79	@ 0x4f
   254b8:	920b      	str	r2, [sp, #44]	@ 0x2c
   254ba:	f001 fba0 	bl	26bfe <__aeabi_memcpy4>
   254be:	0e30      	lsrs	r0, r6, #24
   254c0:	71a8      	strb	r0, [r5, #6]
   254c2:	0c30      	lsrs	r0, r6, #16
   254c4:	7168      	strb	r0, [r5, #5]
   254c6:	0a30      	lsrs	r0, r6, #8
   254c8:	7128      	strb	r0, [r5, #4]
   254ca:	70ee      	strb	r6, [r5, #3]
   254cc:	1de8      	adds	r0, r5, #7
   254ce:	990c      	ldr	r1, [sp, #48]	@ 0x30
   254d0:	9a0b      	ldr	r2, [sp, #44]	@ 0x2c
   254d2:	f001 fcf4 	bl	26ebe <__aeabi_memcpy>
   254d6:	4e05      	ldr	r6, [pc, #20]	@ (254ec <_start+0x15f0>)
   254d8:	446e      	add	r6, sp
   254da:	4630      	mov	r0, r6
   254dc:	4629      	mov	r1, r5
   254de:	f7fc fd89 	bl	21ff4 <_ZN18complex_no_dynamic3app17h70fc51395c2d1df2E>
   254e2:	7830      	ldrb	r0, [r6, #0]
   254e4:	2801      	cmp	r0, #1
   254e6:	d107      	bne.n	254f8 <_start+0x15fc>
   254e8:	f001 fb18 	bl	26b1c <_start+0x2c20>
   254ec:	000013cc 	.word	0x000013cc
   254f0:	000007fc 	.word	0x000007fc
   254f4:	00001370 	.word	0x00001370
   254f8:	4915      	ldr	r1, [pc, #84]	@ (25550 <_start+0x1654>)
   254fa:	4469      	add	r1, sp
   254fc:	78c8      	ldrb	r0, [r1, #3]
   254fe:	4d15      	ldr	r5, [pc, #84]	@ (25554 <_start+0x1658>)
   25500:	446d      	add	r5, sp
   25502:	70a8      	strb	r0, [r5, #2]
   25504:	7848      	ldrb	r0, [r1, #1]
   25506:	788a      	ldrb	r2, [r1, #2]
   25508:	0212      	lsls	r2, r2, #8
   2550a:	1810      	adds	r0, r2, r0
   2550c:	8028      	strh	r0, [r5, #0]
   2550e:	9805      	ldr	r0, [sp, #20]
   25510:	6e06      	ldr	r6, [r0, #96]	@ 0x60
   25512:	3108      	adds	r1, #8
   25514:	4810      	ldr	r0, [pc, #64]	@ (25558 <_start+0x165c>)
   25516:	4468      	add	r0, sp
   25518:	900c      	str	r0, [sp, #48]	@ 0x30
   2551a:	2242      	movs	r2, #66	@ 0x42
   2551c:	920b      	str	r2, [sp, #44]	@ 0x2c
   2551e:	f001 fb6e 	bl	26bfe <__aeabi_memcpy4>
   25522:	0e30      	lsrs	r0, r6, #24
   25524:	71a8      	strb	r0, [r5, #6]
   25526:	0c30      	lsrs	r0, r6, #16
   25528:	7168      	strb	r0, [r5, #5]
   2552a:	0a30      	lsrs	r0, r6, #8
   2552c:	7128      	strb	r0, [r5, #4]
   2552e:	70ee      	strb	r6, [r5, #3]
   25530:	1de8      	adds	r0, r5, #7
   25532:	990c      	ldr	r1, [sp, #48]	@ 0x30
   25534:	9a0b      	ldr	r2, [sp, #44]	@ 0x2c
   25536:	f001 fcc2 	bl	26ebe <__aeabi_memcpy>
   2553a:	4e05      	ldr	r6, [pc, #20]	@ (25550 <_start+0x1654>)
   2553c:	446e      	add	r6, sp
   2553e:	4630      	mov	r0, r6
   25540:	4629      	mov	r1, r5
   25542:	f7fe fb37 	bl	23bb4 <_ZN18complex_no_dynamic3app17hf44a9dbc3fc4883aE>
   25546:	7830      	ldrb	r0, [r6, #0]
   25548:	2801      	cmp	r0, #1
   2554a:	d107      	bne.n	2555c <_start+0x1660>
   2554c:	f001 fae6 	bl	26b1c <_start+0x2c20>
   25550:	000013cc 	.word	0x000013cc
   25554:	00000854 	.word	0x00000854
   25558:	00001370 	.word	0x00001370
   2555c:	4817      	ldr	r0, [pc, #92]	@ (255bc <_start+0x16c0>)
   2555e:	4468      	add	r0, sp
   25560:	78c1      	ldrb	r1, [r0, #3]
   25562:	4b17      	ldr	r3, [pc, #92]	@ (255c0 <_start+0x16c4>)
   25564:	446b      	add	r3, sp
   25566:	930b      	str	r3, [sp, #44]	@ 0x2c
   25568:	7099      	strb	r1, [r3, #2]
   2556a:	7841      	ldrb	r1, [r0, #1]
   2556c:	7882      	ldrb	r2, [r0, #2]
   2556e:	0212      	lsls	r2, r2, #8
   25570:	1851      	adds	r1, r2, r1
   25572:	8019      	strh	r1, [r3, #0]
   25574:	3008      	adds	r0, #8
   25576:	9905      	ldr	r1, [sp, #20]
   25578:	6e09      	ldr	r1, [r1, #96]	@ 0x60
   2557a:	910a      	str	r1, [sp, #40]	@ 0x28
   2557c:	4b11      	ldr	r3, [pc, #68]	@ (255c4 <_start+0x16c8>)
   2557e:	446b      	add	r3, sp
   25580:	930c      	str	r3, [sp, #48]	@ 0x30
   25582:	c846      	ldmia	r0!, {r1, r2, r6}
   25584:	c346      	stmia	r3!, {r1, r2, r6}
   25586:	c866      	ldmia	r0!, {r1, r2, r5, r6}
   25588:	c366      	stmia	r3!, {r1, r2, r5, r6}
   2558a:	990a      	ldr	r1, [sp, #40]	@ 0x28
   2558c:	0e08      	lsrs	r0, r1, #24
   2558e:	9d0b      	ldr	r5, [sp, #44]	@ 0x2c
   25590:	71a8      	strb	r0, [r5, #6]
   25592:	0c08      	lsrs	r0, r1, #16
   25594:	7168      	strb	r0, [r5, #5]
   25596:	0a08      	lsrs	r0, r1, #8
   25598:	7128      	strb	r0, [r5, #4]
   2559a:	70e9      	strb	r1, [r5, #3]
   2559c:	1de8      	adds	r0, r5, #7
   2559e:	221c      	movs	r2, #28
   255a0:	990c      	ldr	r1, [sp, #48]	@ 0x30
   255a2:	f001 fc8c 	bl	26ebe <__aeabi_memcpy>
   255a6:	4e05      	ldr	r6, [pc, #20]	@ (255bc <_start+0x16c0>)
   255a8:	446e      	add	r6, sp
   255aa:	4630      	mov	r0, r6
   255ac:	4629      	mov	r1, r5
   255ae:	f7fe fba9 	bl	23d04 <_ZN18complex_no_dynamic3app17hfbddd024b9a592bdE>
   255b2:	7830      	ldrb	r0, [r6, #0]
   255b4:	2801      	cmp	r0, #1
   255b6:	d107      	bne.n	255c8 <_start+0x16cc>
   255b8:	f001 fab0 	bl	26b1c <_start+0x2c20>
   255bc:	000013cc 	.word	0x000013cc
   255c0:	000008a0 	.word	0x000008a0
   255c4:	00001370 	.word	0x00001370
   255c8:	4817      	ldr	r0, [pc, #92]	@ (25628 <_start+0x172c>)
   255ca:	4468      	add	r0, sp
   255cc:	78c1      	ldrb	r1, [r0, #3]
   255ce:	4d17      	ldr	r5, [pc, #92]	@ (2562c <_start+0x1730>)
   255d0:	446d      	add	r5, sp
   255d2:	70a9      	strb	r1, [r5, #2]
   255d4:	7841      	ldrb	r1, [r0, #1]
   255d6:	7882      	ldrb	r2, [r0, #2]
   255d8:	0212      	lsls	r2, r2, #8
   255da:	1851      	adds	r1, r2, r1
   255dc:	8029      	strh	r1, [r5, #0]
   255de:	3008      	adds	r0, #8
   255e0:	9905      	ldr	r1, [sp, #20]
   255e2:	6e09      	ldr	r1, [r1, #96]	@ 0x60
   255e4:	910b      	str	r1, [sp, #44]	@ 0x2c
   255e6:	4b12      	ldr	r3, [pc, #72]	@ (25630 <_start+0x1734>)
   255e8:	446b      	add	r3, sp
   255ea:	930c      	str	r3, [sp, #48]	@ 0x30
   255ec:	c846      	ldmia	r0!, {r1, r2, r6}
   255ee:	c346      	stmia	r3!, {r1, r2, r6}
   255f0:	c846      	ldmia	r0!, {r1, r2, r6}
   255f2:	c346      	stmia	r3!, {r1, r2, r6}
   255f4:	c846      	ldmia	r0!, {r1, r2, r6}
   255f6:	c346      	stmia	r3!, {r1, r2, r6}
   255f8:	990b      	ldr	r1, [sp, #44]	@ 0x2c
   255fa:	0e08      	lsrs	r0, r1, #24
   255fc:	71a8      	strb	r0, [r5, #6]
   255fe:	0c08      	lsrs	r0, r1, #16
   25600:	7168      	strb	r0, [r5, #5]
   25602:	0a08      	lsrs	r0, r1, #8
   25604:	7128      	strb	r0, [r5, #4]
   25606:	70e9      	strb	r1, [r5, #3]
   25608:	1de8      	adds	r0, r5, #7
   2560a:	2224      	movs	r2, #36	@ 0x24
   2560c:	990c      	ldr	r1, [sp, #48]	@ 0x30
   2560e:	f001 fc56 	bl	26ebe <__aeabi_memcpy>
   25612:	4e05      	ldr	r6, [pc, #20]	@ (25628 <_start+0x172c>)
   25614:	446e      	add	r6, sp
   25616:	4630      	mov	r0, r6
   25618:	4629      	mov	r1, r5
   2561a:	f7fb fb4f 	bl	20cbc <_ZN18complex_no_dynamic3app17h349e40cfa540a3ebE>
   2561e:	7830      	ldrb	r0, [r6, #0]
   25620:	2801      	cmp	r0, #1
   25622:	d107      	bne.n	25634 <_start+0x1738>
   25624:	f001 fa7a 	bl	26b1c <_start+0x2c20>
   25628:	000013cc 	.word	0x000013cc
   2562c:	000008c4 	.word	0x000008c4
   25630:	00001370 	.word	0x00001370
   25634:	4914      	ldr	r1, [pc, #80]	@ (25688 <_start+0x178c>)
   25636:	4469      	add	r1, sp
   25638:	9b05      	ldr	r3, [sp, #20]
   2563a:	6e98      	ldr	r0, [r3, #104]	@ 0x68
   2563c:	8088      	strh	r0, [r1, #4]
   2563e:	4813      	ldr	r0, [pc, #76]	@ (2568c <_start+0x1790>)
   25640:	4468      	add	r0, sp
   25642:	78c2      	ldrb	r2, [r0, #3]
   25644:	4d12      	ldr	r5, [pc, #72]	@ (25690 <_start+0x1794>)
   25646:	446d      	add	r5, sp
   25648:	70aa      	strb	r2, [r5, #2]
   2564a:	7842      	ldrb	r2, [r0, #1]
   2564c:	7880      	ldrb	r0, [r0, #2]
   2564e:	0200      	lsls	r0, r0, #8
   25650:	1880      	adds	r0, r0, r2
   25652:	8028      	strh	r0, [r5, #0]
   25654:	6e18      	ldr	r0, [r3, #96]	@ 0x60
   25656:	70e8      	strb	r0, [r5, #3]
   25658:	0e02      	lsrs	r2, r0, #24
   2565a:	71aa      	strb	r2, [r5, #6]
   2565c:	0c02      	lsrs	r2, r0, #16
   2565e:	716a      	strb	r2, [r5, #5]
   25660:	0a00      	lsrs	r0, r0, #8
   25662:	7128      	strb	r0, [r5, #4]
   25664:	6e58      	ldr	r0, [r3, #100]	@ 0x64
   25666:	6018      	str	r0, [r3, #0]
   25668:	1de8      	adds	r0, r5, #7
   2566a:	2206      	movs	r2, #6
   2566c:	f001 fc27 	bl	26ebe <__aeabi_memcpy>
   25670:	4e06      	ldr	r6, [pc, #24]	@ (2568c <_start+0x1790>)
   25672:	446e      	add	r6, sp
   25674:	4630      	mov	r0, r6
   25676:	4629      	mov	r1, r5
   25678:	f7fa fe86 	bl	20388 <_ZN18complex_no_dynamic3app17h10152cc998e72bb6E>
   2567c:	7830      	ldrb	r0, [r6, #0]
   2567e:	2801      	cmp	r0, #1
   25680:	d108      	bne.n	25694 <_start+0x1798>
   25682:	f001 fa4b 	bl	26b1c <_start+0x2c20>
   25686:	46c0      	nop			@ (mov r8, r8)
   25688:	00001370 	.word	0x00001370
   2568c:	000013cc 	.word	0x000013cc
   25690:	000008f0 	.word	0x000008f0
   25694:	4817      	ldr	r0, [pc, #92]	@ (256f4 <_start+0x17f8>)
   25696:	4468      	add	r0, sp
   25698:	78c1      	ldrb	r1, [r0, #3]
   2569a:	4d17      	ldr	r5, [pc, #92]	@ (256f8 <_start+0x17fc>)
   2569c:	446d      	add	r5, sp
   2569e:	70a9      	strb	r1, [r5, #2]
   256a0:	7841      	ldrb	r1, [r0, #1]
   256a2:	7882      	ldrb	r2, [r0, #2]
   256a4:	0212      	lsls	r2, r2, #8
   256a6:	1851      	adds	r1, r2, r1
   256a8:	8029      	strh	r1, [r5, #0]
   256aa:	3008      	adds	r0, #8
   256ac:	9905      	ldr	r1, [sp, #20]
   256ae:	6e09      	ldr	r1, [r1, #96]	@ 0x60
   256b0:	910b      	str	r1, [sp, #44]	@ 0x2c
   256b2:	4b12      	ldr	r3, [pc, #72]	@ (256fc <_start+0x1800>)
   256b4:	446b      	add	r3, sp
   256b6:	930c      	str	r3, [sp, #48]	@ 0x30
   256b8:	c846      	ldmia	r0!, {r1, r2, r6}
   256ba:	c346      	stmia	r3!, {r1, r2, r6}
   256bc:	c846      	ldmia	r0!, {r1, r2, r6}
   256be:	c346      	stmia	r3!, {r1, r2, r6}
   256c0:	8800      	ldrh	r0, [r0, #0]
   256c2:	8018      	strh	r0, [r3, #0]
   256c4:	990b      	ldr	r1, [sp, #44]	@ 0x2c
   256c6:	0e08      	lsrs	r0, r1, #24
   256c8:	71a8      	strb	r0, [r5, #6]
   256ca:	0c08      	lsrs	r0, r1, #16
   256cc:	7168      	strb	r0, [r5, #5]
   256ce:	0a08      	lsrs	r0, r1, #8
   256d0:	7128      	strb	r0, [r5, #4]
   256d2:	70e9      	strb	r1, [r5, #3]
   256d4:	1de8      	adds	r0, r5, #7
   256d6:	221a      	movs	r2, #26
   256d8:	990c      	ldr	r1, [sp, #48]	@ 0x30
   256da:	f001 fbf0 	bl	26ebe <__aeabi_memcpy>
   256de:	4e05      	ldr	r6, [pc, #20]	@ (256f4 <_start+0x17f8>)
   256e0:	446e      	add	r6, sp
   256e2:	4630      	mov	r0, r6
   256e4:	4629      	mov	r1, r5
   256e6:	f7fb fa41 	bl	20b6c <_ZN18complex_no_dynamic3app17h2e1f5ab27c69cc2bE>
   256ea:	7830      	ldrb	r0, [r6, #0]
   256ec:	2801      	cmp	r0, #1
   256ee:	d107      	bne.n	25700 <_start+0x1804>
   256f0:	f001 fa14 	bl	26b1c <_start+0x2c20>
   256f4:	000013cc 	.word	0x000013cc
   256f8:	00000900 	.word	0x00000900
   256fc:	00001370 	.word	0x00001370
   25700:	4915      	ldr	r1, [pc, #84]	@ (25758 <_start+0x185c>)
   25702:	4469      	add	r1, sp
   25704:	78c8      	ldrb	r0, [r1, #3]
   25706:	4d15      	ldr	r5, [pc, #84]	@ (2575c <_start+0x1860>)
   25708:	446d      	add	r5, sp
   2570a:	70a8      	strb	r0, [r5, #2]
   2570c:	7848      	ldrb	r0, [r1, #1]
   2570e:	788a      	ldrb	r2, [r1, #2]
   25710:	0212      	lsls	r2, r2, #8
   25712:	1810      	adds	r0, r2, r0
   25714:	8028      	strh	r0, [r5, #0]
   25716:	9805      	ldr	r0, [sp, #20]
   25718:	6e06      	ldr	r6, [r0, #96]	@ 0x60
   2571a:	3108      	adds	r1, #8
   2571c:	4810      	ldr	r0, [pc, #64]	@ (25760 <_start+0x1864>)
   2571e:	4468      	add	r0, sp
   25720:	900c      	str	r0, [sp, #48]	@ 0x30
   25722:	224c      	movs	r2, #76	@ 0x4c
   25724:	920b      	str	r2, [sp, #44]	@ 0x2c
   25726:	f001 fa6a 	bl	26bfe <__aeabi_memcpy4>
   2572a:	0e30      	lsrs	r0, r6, #24
   2572c:	71a8      	strb	r0, [r5, #6]
   2572e:	0c30      	lsrs	r0, r6, #16
   25730:	7168      	strb	r0, [r5, #5]
   25732:	0a30      	lsrs	r0, r6, #8
   25734:	7128      	strb	r0, [r5, #4]
   25736:	70ee      	strb	r6, [r5, #3]
   25738:	1de8      	adds	r0, r5, #7
   2573a:	990c      	ldr	r1, [sp, #48]	@ 0x30
   2573c:	9a0b      	ldr	r2, [sp, #44]	@ 0x2c
   2573e:	f001 fbbe 	bl	26ebe <__aeabi_memcpy>
   25742:	4e05      	ldr	r6, [pc, #20]	@ (25758 <_start+0x185c>)
   25744:	446e      	add	r6, sp
   25746:	4630      	mov	r0, r6
   25748:	4629      	mov	r1, r5
   2574a:	f7fb f86b 	bl	20824 <_ZN18complex_no_dynamic3app17h20c4a1b052e11864E>
   2574e:	7830      	ldrb	r0, [r6, #0]
   25750:	2801      	cmp	r0, #1
   25752:	d107      	bne.n	25764 <_start+0x1868>
   25754:	f001 f9e2 	bl	26b1c <_start+0x2c20>
   25758:	000013cc 	.word	0x000013cc
   2575c:	00000924 	.word	0x00000924
   25760:	00001370 	.word	0x00001370
   25764:	4915      	ldr	r1, [pc, #84]	@ (257bc <_start+0x18c0>)
   25766:	4469      	add	r1, sp
   25768:	78c8      	ldrb	r0, [r1, #3]
   2576a:	4d15      	ldr	r5, [pc, #84]	@ (257c0 <_start+0x18c4>)
   2576c:	446d      	add	r5, sp
   2576e:	70a8      	strb	r0, [r5, #2]
   25770:	7848      	ldrb	r0, [r1, #1]
   25772:	788a      	ldrb	r2, [r1, #2]
   25774:	0212      	lsls	r2, r2, #8
   25776:	1810      	adds	r0, r2, r0
   25778:	8028      	strh	r0, [r5, #0]
   2577a:	9805      	ldr	r0, [sp, #20]
   2577c:	6e06      	ldr	r6, [r0, #96]	@ 0x60
   2577e:	3108      	adds	r1, #8
   25780:	4810      	ldr	r0, [pc, #64]	@ (257c4 <_start+0x18c8>)
   25782:	4468      	add	r0, sp
   25784:	900c      	str	r0, [sp, #48]	@ 0x30
   25786:	2246      	movs	r2, #70	@ 0x46
   25788:	920b      	str	r2, [sp, #44]	@ 0x2c
   2578a:	f001 fa38 	bl	26bfe <__aeabi_memcpy4>
   2578e:	0e30      	lsrs	r0, r6, #24
   25790:	71a8      	strb	r0, [r5, #6]
   25792:	0c30      	lsrs	r0, r6, #16
   25794:	7168      	strb	r0, [r5, #5]
   25796:	0a30      	lsrs	r0, r6, #8
   25798:	7128      	strb	r0, [r5, #4]
   2579a:	70ee      	strb	r6, [r5, #3]
   2579c:	1de8      	adds	r0, r5, #7
   2579e:	990c      	ldr	r1, [sp, #48]	@ 0x30
   257a0:	9a0b      	ldr	r2, [sp, #44]	@ 0x2c
   257a2:	f001 fb8c 	bl	26ebe <__aeabi_memcpy>
   257a6:	4e05      	ldr	r6, [pc, #20]	@ (257bc <_start+0x18c0>)
   257a8:	446e      	add	r6, sp
   257aa:	4630      	mov	r0, r6
   257ac:	4629      	mov	r1, r5
   257ae:	f7fd feb1 	bl	23514 <_ZN18complex_no_dynamic3app17hdbb63b7fd1643448E>
   257b2:	7830      	ldrb	r0, [r6, #0]
   257b4:	2801      	cmp	r0, #1
   257b6:	d107      	bne.n	257c8 <_start+0x18cc>
   257b8:	f001 f9b0 	bl	26b1c <_start+0x2c20>
   257bc:	000013cc 	.word	0x000013cc
   257c0:	00000978 	.word	0x00000978
   257c4:	00001370 	.word	0x00001370
   257c8:	481a      	ldr	r0, [pc, #104]	@ (25834 <_start+0x1938>)
   257ca:	4468      	add	r0, sp
   257cc:	78c1      	ldrb	r1, [r0, #3]
   257ce:	4b1a      	ldr	r3, [pc, #104]	@ (25838 <_start+0x193c>)
   257d0:	446b      	add	r3, sp
   257d2:	930b      	str	r3, [sp, #44]	@ 0x2c
   257d4:	7099      	strb	r1, [r3, #2]
   257d6:	7841      	ldrb	r1, [r0, #1]
   257d8:	7882      	ldrb	r2, [r0, #2]
   257da:	0212      	lsls	r2, r2, #8
   257dc:	1851      	adds	r1, r2, r1
   257de:	8019      	strh	r1, [r3, #0]
   257e0:	3008      	adds	r0, #8
   257e2:	9905      	ldr	r1, [sp, #20]
   257e4:	6e09      	ldr	r1, [r1, #96]	@ 0x60
   257e6:	910a      	str	r1, [sp, #40]	@ 0x28
   257e8:	4b14      	ldr	r3, [pc, #80]	@ (2583c <_start+0x1940>)
   257ea:	446b      	add	r3, sp
   257ec:	930c      	str	r3, [sp, #48]	@ 0x30
   257ee:	c846      	ldmia	r0!, {r1, r2, r6}
   257f0:	c346      	stmia	r3!, {r1, r2, r6}
   257f2:	c846      	ldmia	r0!, {r1, r2, r6}
   257f4:	c346      	stmia	r3!, {r1, r2, r6}
   257f6:	c846      	ldmia	r0!, {r1, r2, r6}
   257f8:	c346      	stmia	r3!, {r1, r2, r6}
   257fa:	c866      	ldmia	r0!, {r1, r2, r5, r6}
   257fc:	c366      	stmia	r3!, {r1, r2, r5, r6}
   257fe:	7800      	ldrb	r0, [r0, #0]
   25800:	7018      	strb	r0, [r3, #0]
   25802:	990a      	ldr	r1, [sp, #40]	@ 0x28
   25804:	0e08      	lsrs	r0, r1, #24
   25806:	9d0b      	ldr	r5, [sp, #44]	@ 0x2c
   25808:	71a8      	strb	r0, [r5, #6]
   2580a:	0c08      	lsrs	r0, r1, #16
   2580c:	7168      	strb	r0, [r5, #5]
   2580e:	0a08      	lsrs	r0, r1, #8
   25810:	7128      	strb	r0, [r5, #4]
   25812:	70e9      	strb	r1, [r5, #3]
   25814:	1de8      	adds	r0, r5, #7
   25816:	2235      	movs	r2, #53	@ 0x35
   25818:	990c      	ldr	r1, [sp, #48]	@ 0x30
   2581a:	f001 fb50 	bl	26ebe <__aeabi_memcpy>
   2581e:	4e05      	ldr	r6, [pc, #20]	@ (25834 <_start+0x1938>)
   25820:	446e      	add	r6, sp
   25822:	4630      	mov	r0, r6
   25824:	4629      	mov	r1, r5
   25826:	f7fc ff89 	bl	2273c <_ZN18complex_no_dynamic3app17h88efad3a13e57e2cE>
   2582a:	7830      	ldrb	r0, [r6, #0]
   2582c:	2801      	cmp	r0, #1
   2582e:	d107      	bne.n	25840 <_start+0x1944>
   25830:	f001 f974 	bl	26b1c <_start+0x2c20>
   25834:	000013cc 	.word	0x000013cc
   25838:	000009c8 	.word	0x000009c8
   2583c:	00001370 	.word	0x00001370
   25840:	4819      	ldr	r0, [pc, #100]	@ (258a8 <_start+0x19ac>)
   25842:	4468      	add	r0, sp
   25844:	78c1      	ldrb	r1, [r0, #3]
   25846:	4b19      	ldr	r3, [pc, #100]	@ (258ac <_start+0x19b0>)
   25848:	446b      	add	r3, sp
   2584a:	930b      	str	r3, [sp, #44]	@ 0x2c
   2584c:	7099      	strb	r1, [r3, #2]
   2584e:	7841      	ldrb	r1, [r0, #1]
   25850:	7882      	ldrb	r2, [r0, #2]
   25852:	0212      	lsls	r2, r2, #8
   25854:	1851      	adds	r1, r2, r1
   25856:	8019      	strh	r1, [r3, #0]
   25858:	3008      	adds	r0, #8
   2585a:	9905      	ldr	r1, [sp, #20]
   2585c:	6e09      	ldr	r1, [r1, #96]	@ 0x60
   2585e:	910a      	str	r1, [sp, #40]	@ 0x28
   25860:	4b13      	ldr	r3, [pc, #76]	@ (258b0 <_start+0x19b4>)
   25862:	446b      	add	r3, sp
   25864:	930c      	str	r3, [sp, #48]	@ 0x30
   25866:	c866      	ldmia	r0!, {r1, r2, r5, r6}
   25868:	c366      	stmia	r3!, {r1, r2, r5, r6}
   2586a:	c866      	ldmia	r0!, {r1, r2, r5, r6}
   2586c:	c366      	stmia	r3!, {r1, r2, r5, r6}
   2586e:	c866      	ldmia	r0!, {r1, r2, r5, r6}
   25870:	c366      	stmia	r3!, {r1, r2, r5, r6}
   25872:	7800      	ldrb	r0, [r0, #0]
   25874:	7018      	strb	r0, [r3, #0]
   25876:	990a      	ldr	r1, [sp, #40]	@ 0x28
   25878:	0e08      	lsrs	r0, r1, #24
   2587a:	9d0b      	ldr	r5, [sp, #44]	@ 0x2c
   2587c:	71a8      	strb	r0, [r5, #6]
   2587e:	0c08      	lsrs	r0, r1, #16
   25880:	7168      	strb	r0, [r5, #5]
   25882:	0a08      	lsrs	r0, r1, #8
   25884:	7128      	strb	r0, [r5, #4]
   25886:	70e9      	strb	r1, [r5, #3]
   25888:	1de8      	adds	r0, r5, #7
   2588a:	2231      	movs	r2, #49	@ 0x31
   2588c:	990c      	ldr	r1, [sp, #48]	@ 0x30
   2588e:	f001 fb16 	bl	26ebe <__aeabi_memcpy>
   25892:	4e05      	ldr	r6, [pc, #20]	@ (258a8 <_start+0x19ac>)
   25894:	446e      	add	r6, sp
   25896:	4630      	mov	r0, r6
   25898:	4629      	mov	r1, r5
   2589a:	f7fa fec7 	bl	2062c <_ZN18complex_no_dynamic3app17h1b471c8cac73ce2aE>
   2589e:	7830      	ldrb	r0, [r6, #0]
   258a0:	2801      	cmp	r0, #1
   258a2:	d107      	bne.n	258b4 <_start+0x19b8>
   258a4:	f001 f93a 	bl	26b1c <_start+0x2c20>
   258a8:	000013cc 	.word	0x000013cc
   258ac:	00000a04 	.word	0x00000a04
   258b0:	00001370 	.word	0x00001370
   258b4:	4817      	ldr	r0, [pc, #92]	@ (25914 <_start+0x1a18>)
   258b6:	4468      	add	r0, sp
   258b8:	78c1      	ldrb	r1, [r0, #3]
   258ba:	4b17      	ldr	r3, [pc, #92]	@ (25918 <_start+0x1a1c>)
   258bc:	446b      	add	r3, sp
   258be:	930b      	str	r3, [sp, #44]	@ 0x2c
   258c0:	7099      	strb	r1, [r3, #2]
   258c2:	7841      	ldrb	r1, [r0, #1]
   258c4:	7882      	ldrb	r2, [r0, #2]
   258c6:	0212      	lsls	r2, r2, #8
   258c8:	1851      	adds	r1, r2, r1
   258ca:	8019      	strh	r1, [r3, #0]
   258cc:	3008      	adds	r0, #8
   258ce:	9905      	ldr	r1, [sp, #20]
   258d0:	6e09      	ldr	r1, [r1, #96]	@ 0x60
   258d2:	910a      	str	r1, [sp, #40]	@ 0x28
   258d4:	4b11      	ldr	r3, [pc, #68]	@ (2591c <_start+0x1a20>)
   258d6:	446b      	add	r3, sp
   258d8:	930c      	str	r3, [sp, #48]	@ 0x30
   258da:	c866      	ldmia	r0!, {r1, r2, r5, r6}
   258dc:	c366      	stmia	r3!, {r1, r2, r5, r6}
   258de:	c866      	ldmia	r0!, {r1, r2, r5, r6}
   258e0:	c366      	stmia	r3!, {r1, r2, r5, r6}
   258e2:	990a      	ldr	r1, [sp, #40]	@ 0x28
   258e4:	0e08      	lsrs	r0, r1, #24
   258e6:	9d0b      	ldr	r5, [sp, #44]	@ 0x2c
   258e8:	71a8      	strb	r0, [r5, #6]
   258ea:	0c08      	lsrs	r0, r1, #16
   258ec:	7168      	strb	r0, [r5, #5]
   258ee:	0a08      	lsrs	r0, r1, #8
   258f0:	7128      	strb	r0, [r5, #4]
   258f2:	70e9      	strb	r1, [r5, #3]
   258f4:	1de8      	adds	r0, r5, #7
   258f6:	2220      	movs	r2, #32
   258f8:	990c      	ldr	r1, [sp, #48]	@ 0x30
   258fa:	f001 fae0 	bl	26ebe <__aeabi_memcpy>
   258fe:	4e05      	ldr	r6, [pc, #20]	@ (25914 <_start+0x1a18>)
   25900:	446e      	add	r6, sp
   25902:	4630      	mov	r0, r6
   25904:	4629      	mov	r1, r5
   25906:	f7fd fa11 	bl	22d2c <_ZN18complex_no_dynamic3app17hb05da4637102e657E>
   2590a:	7830      	ldrb	r0, [r6, #0]
   2590c:	2801      	cmp	r0, #1
   2590e:	d107      	bne.n	25920 <_start+0x1a24>
   25910:	f001 f904 	bl	26b1c <_start+0x2c20>
   25914:	000013cc 	.word	0x000013cc
   25918:	00000a3c 	.word	0x00000a3c
   2591c:	00001370 	.word	0x00001370
   25920:	4915      	ldr	r1, [pc, #84]	@ (25978 <_start+0x1a7c>)
   25922:	4469      	add	r1, sp
   25924:	78c8      	ldrb	r0, [r1, #3]
   25926:	4d15      	ldr	r5, [pc, #84]	@ (2597c <_start+0x1a80>)
   25928:	446d      	add	r5, sp
   2592a:	70a8      	strb	r0, [r5, #2]
   2592c:	7848      	ldrb	r0, [r1, #1]
   2592e:	788a      	ldrb	r2, [r1, #2]
   25930:	0212      	lsls	r2, r2, #8
   25932:	1810      	adds	r0, r2, r0
   25934:	8028      	strh	r0, [r5, #0]
   25936:	9805      	ldr	r0, [sp, #20]
   25938:	6e06      	ldr	r6, [r0, #96]	@ 0x60
   2593a:	3108      	adds	r1, #8
   2593c:	4810      	ldr	r0, [pc, #64]	@ (25980 <_start+0x1a84>)
   2593e:	4468      	add	r0, sp
   25940:	900c      	str	r0, [sp, #48]	@ 0x30
   25942:	224a      	movs	r2, #74	@ 0x4a
   25944:	920b      	str	r2, [sp, #44]	@ 0x2c
   25946:	f001 f95a 	bl	26bfe <__aeabi_memcpy4>
   2594a:	0e30      	lsrs	r0, r6, #24
   2594c:	71a8      	strb	r0, [r5, #6]
   2594e:	0c30      	lsrs	r0, r6, #16
   25950:	7168      	strb	r0, [r5, #5]
   25952:	0a30      	lsrs	r0, r6, #8
   25954:	7128      	strb	r0, [r5, #4]
   25956:	70ee      	strb	r6, [r5, #3]
   25958:	1de8      	adds	r0, r5, #7
   2595a:	990c      	ldr	r1, [sp, #48]	@ 0x30
   2595c:	9a0b      	ldr	r2, [sp, #44]	@ 0x2c
   2595e:	f001 faae 	bl	26ebe <__aeabi_memcpy>
   25962:	4e05      	ldr	r6, [pc, #20]	@ (25978 <_start+0x1a7c>)
   25964:	446e      	add	r6, sp
   25966:	4630      	mov	r0, r6
   25968:	4629      	mov	r1, r5
   2596a:	f7fd ff7b 	bl	23864 <_ZN18complex_no_dynamic3app17he11f6f18033e536aE>
   2596e:	7830      	ldrb	r0, [r6, #0]
   25970:	2801      	cmp	r0, #1
   25972:	d107      	bne.n	25984 <_start+0x1a88>
   25974:	f001 f8d2 	bl	26b1c <_start+0x2c20>
   25978:	000013cc 	.word	0x000013cc
   2597c:	00000a64 	.word	0x00000a64
   25980:	00001370 	.word	0x00001370
   25984:	4915      	ldr	r1, [pc, #84]	@ (259dc <_start+0x1ae0>)
   25986:	4469      	add	r1, sp
   25988:	78c8      	ldrb	r0, [r1, #3]
   2598a:	4d15      	ldr	r5, [pc, #84]	@ (259e0 <_start+0x1ae4>)
   2598c:	446d      	add	r5, sp
   2598e:	70a8      	strb	r0, [r5, #2]
   25990:	7848      	ldrb	r0, [r1, #1]
   25992:	788a      	ldrb	r2, [r1, #2]
   25994:	0212      	lsls	r2, r2, #8
   25996:	1810      	adds	r0, r2, r0
   25998:	8028      	strh	r0, [r5, #0]
   2599a:	9805      	ldr	r0, [sp, #20]
   2599c:	6e06      	ldr	r6, [r0, #96]	@ 0x60
   2599e:	3108      	adds	r1, #8
   259a0:	4810      	ldr	r0, [pc, #64]	@ (259e4 <_start+0x1ae8>)
   259a2:	4468      	add	r0, sp
   259a4:	900c      	str	r0, [sp, #48]	@ 0x30
   259a6:	2248      	movs	r2, #72	@ 0x48
   259a8:	920b      	str	r2, [sp, #44]	@ 0x2c
   259aa:	f001 f928 	bl	26bfe <__aeabi_memcpy4>
   259ae:	0e30      	lsrs	r0, r6, #24
   259b0:	71a8      	strb	r0, [r5, #6]
   259b2:	0c30      	lsrs	r0, r6, #16
   259b4:	7168      	strb	r0, [r5, #5]
   259b6:	0a30      	lsrs	r0, r6, #8
   259b8:	7128      	strb	r0, [r5, #4]
   259ba:	70ee      	strb	r6, [r5, #3]
   259bc:	1de8      	adds	r0, r5, #7
   259be:	990c      	ldr	r1, [sp, #48]	@ 0x30
   259c0:	9a0b      	ldr	r2, [sp, #44]	@ 0x2c
   259c2:	f001 fa7c 	bl	26ebe <__aeabi_memcpy>
   259c6:	4e05      	ldr	r6, [pc, #20]	@ (259dc <_start+0x1ae0>)
   259c8:	446e      	add	r6, sp
   259ca:	4630      	mov	r0, r6
   259cc:	4629      	mov	r1, r5
   259ce:	f7fb fa73 	bl	20eb8 <_ZN18complex_no_dynamic3app17h379d78cf93aab318E>
   259d2:	7830      	ldrb	r0, [r6, #0]
   259d4:	2801      	cmp	r0, #1
   259d6:	d107      	bne.n	259e8 <_start+0x1aec>
   259d8:	f001 f8a0 	bl	26b1c <_start+0x2c20>
   259dc:	000013cc 	.word	0x000013cc
   259e0:	00000ab8 	.word	0x00000ab8
   259e4:	00001370 	.word	0x00001370
   259e8:	4915      	ldr	r1, [pc, #84]	@ (25a40 <_start+0x1b44>)
   259ea:	4469      	add	r1, sp
   259ec:	78c8      	ldrb	r0, [r1, #3]
   259ee:	4d15      	ldr	r5, [pc, #84]	@ (25a44 <_start+0x1b48>)
   259f0:	446d      	add	r5, sp
   259f2:	70a8      	strb	r0, [r5, #2]
   259f4:	7848      	ldrb	r0, [r1, #1]
   259f6:	788a      	ldrb	r2, [r1, #2]
   259f8:	0212      	lsls	r2, r2, #8
   259fa:	1810      	adds	r0, r2, r0
   259fc:	8028      	strh	r0, [r5, #0]
   259fe:	9805      	ldr	r0, [sp, #20]
   25a00:	6e06      	ldr	r6, [r0, #96]	@ 0x60
   25a02:	3108      	adds	r1, #8
   25a04:	4810      	ldr	r0, [pc, #64]	@ (25a48 <_start+0x1b4c>)
   25a06:	4468      	add	r0, sp
   25a08:	900c      	str	r0, [sp, #48]	@ 0x30
   25a0a:	225a      	movs	r2, #90	@ 0x5a
   25a0c:	920b      	str	r2, [sp, #44]	@ 0x2c
   25a0e:	f001 f8f6 	bl	26bfe <__aeabi_memcpy4>
   25a12:	0e30      	lsrs	r0, r6, #24
   25a14:	71a8      	strb	r0, [r5, #6]
   25a16:	0c30      	lsrs	r0, r6, #16
   25a18:	7168      	strb	r0, [r5, #5]
   25a1a:	0a30      	lsrs	r0, r6, #8
   25a1c:	7128      	strb	r0, [r5, #4]
   25a1e:	70ee      	strb	r6, [r5, #3]
   25a20:	1de8      	adds	r0, r5, #7
   25a22:	990c      	ldr	r1, [sp, #48]	@ 0x30
   25a24:	9a0b      	ldr	r2, [sp, #44]	@ 0x2c
   25a26:	f001 fa4a 	bl	26ebe <__aeabi_memcpy>
   25a2a:	4e05      	ldr	r6, [pc, #20]	@ (25a40 <_start+0x1b44>)
   25a2c:	446e      	add	r6, sp
   25a2e:	4630      	mov	r0, r6
   25a30:	4629      	mov	r1, r5
   25a32:	f7fb fd91 	bl	21558 <_ZN18complex_no_dynamic3app17h4f7397eb5cc13ddcE>
   25a36:	7830      	ldrb	r0, [r6, #0]
   25a38:	2801      	cmp	r0, #1
   25a3a:	d107      	bne.n	25a4c <_start+0x1b50>
   25a3c:	f001 f86e 	bl	26b1c <_start+0x2c20>
   25a40:	000013cc 	.word	0x000013cc
   25a44:	00000b08 	.word	0x00000b08
   25a48:	00001370 	.word	0x00001370
   25a4c:	4818      	ldr	r0, [pc, #96]	@ (25ab0 <_start+0x1bb4>)
   25a4e:	4468      	add	r0, sp
   25a50:	78c1      	ldrb	r1, [r0, #3]
   25a52:	4d18      	ldr	r5, [pc, #96]	@ (25ab4 <_start+0x1bb8>)
   25a54:	446d      	add	r5, sp
   25a56:	70a9      	strb	r1, [r5, #2]
   25a58:	7841      	ldrb	r1, [r0, #1]
   25a5a:	7882      	ldrb	r2, [r0, #2]
   25a5c:	0212      	lsls	r2, r2, #8
   25a5e:	1851      	adds	r1, r2, r1
   25a60:	8029      	strh	r1, [r5, #0]
   25a62:	3008      	adds	r0, #8
   25a64:	9905      	ldr	r1, [sp, #20]
   25a66:	6e09      	ldr	r1, [r1, #96]	@ 0x60
   25a68:	910b      	str	r1, [sp, #44]	@ 0x2c
   25a6a:	4b13      	ldr	r3, [pc, #76]	@ (25ab8 <_start+0x1bbc>)
   25a6c:	446b      	add	r3, sp
   25a6e:	930c      	str	r3, [sp, #48]	@ 0x30
   25a70:	c844      	ldmia	r0!, {r2, r6}
   25a72:	c344      	stmia	r3!, {r2, r6}
   25a74:	c846      	ldmia	r0!, {r1, r2, r6}
   25a76:	c346      	stmia	r3!, {r1, r2, r6}
   25a78:	8801      	ldrh	r1, [r0, #0]
   25a7a:	8019      	strh	r1, [r3, #0]
   25a7c:	7880      	ldrb	r0, [r0, #2]
   25a7e:	7098      	strb	r0, [r3, #2]
   25a80:	990b      	ldr	r1, [sp, #44]	@ 0x2c
   25a82:	0e08      	lsrs	r0, r1, #24
   25a84:	71a8      	strb	r0, [r5, #6]
   25a86:	0c08      	lsrs	r0, r1, #16
   25a88:	7168      	strb	r0, [r5, #5]
   25a8a:	0a08      	lsrs	r0, r1, #8
   25a8c:	7128      	strb	r0, [r5, #4]
   25a8e:	70e9      	strb	r1, [r5, #3]
   25a90:	1de8      	adds	r0, r5, #7
   25a92:	2217      	movs	r2, #23
   25a94:	990c      	ldr	r1, [sp, #48]	@ 0x30
   25a96:	f001 fa12 	bl	26ebe <__aeabi_memcpy>
   25a9a:	4e05      	ldr	r6, [pc, #20]	@ (25ab0 <_start+0x1bb4>)
   25a9c:	446e      	add	r6, sp
   25a9e:	4630      	mov	r0, r6
   25aa0:	4629      	mov	r1, r5
   25aa2:	f7fc fafd 	bl	220a0 <_ZN18complex_no_dynamic3app17h72a1d5a63d938a30E>
   25aa6:	7830      	ldrb	r0, [r6, #0]
   25aa8:	2801      	cmp	r0, #1
   25aaa:	d107      	bne.n	25abc <_start+0x1bc0>
   25aac:	f001 f836 	bl	26b1c <_start+0x2c20>
   25ab0:	000013cc 	.word	0x000013cc
   25ab4:	00000b6c 	.word	0x00000b6c
   25ab8:	00001370 	.word	0x00001370
   25abc:	4817      	ldr	r0, [pc, #92]	@ (25b1c <_start+0x1c20>)
   25abe:	4468      	add	r0, sp
   25ac0:	78c1      	ldrb	r1, [r0, #3]
   25ac2:	4d17      	ldr	r5, [pc, #92]	@ (25b20 <_start+0x1c24>)
   25ac4:	446d      	add	r5, sp
   25ac6:	70a9      	strb	r1, [r5, #2]
   25ac8:	7841      	ldrb	r1, [r0, #1]
   25aca:	7882      	ldrb	r2, [r0, #2]
   25acc:	0212      	lsls	r2, r2, #8
   25ace:	1851      	adds	r1, r2, r1
   25ad0:	8029      	strh	r1, [r5, #0]
   25ad2:	3008      	adds	r0, #8
   25ad4:	9905      	ldr	r1, [sp, #20]
   25ad6:	6e09      	ldr	r1, [r1, #96]	@ 0x60
   25ad8:	910b      	str	r1, [sp, #44]	@ 0x2c
   25ada:	4b12      	ldr	r3, [pc, #72]	@ (25b24 <_start+0x1c28>)
   25adc:	446b      	add	r3, sp
   25ade:	930c      	str	r3, [sp, #48]	@ 0x30
   25ae0:	c846      	ldmia	r0!, {r1, r2, r6}
   25ae2:	c346      	stmia	r3!, {r1, r2, r6}
   25ae4:	c846      	ldmia	r0!, {r1, r2, r6}
   25ae6:	c346      	stmia	r3!, {r1, r2, r6}
   25ae8:	8800      	ldrh	r0, [r0, #0]
   25aea:	8018      	strh	r0, [r3, #0]
   25aec:	990b      	ldr	r1, [sp, #44]	@ 0x2c
   25aee:	0e08      	lsrs	r0, r1, #24
   25af0:	71a8      	strb	r0, [r5, #6]
   25af2:	0c08      	lsrs	r0, r1, #16
   25af4:	7168      	strb	r0, [r5, #5]
   25af6:	0a08      	lsrs	r0, r1, #8
   25af8:	7128      	strb	r0, [r5, #4]
   25afa:	70e9      	strb	r1, [r5, #3]
   25afc:	1de8      	adds	r0, r5, #7
   25afe:	221a      	movs	r2, #26
   25b00:	990c      	ldr	r1, [sp, #48]	@ 0x30
   25b02:	f001 f9dc 	bl	26ebe <__aeabi_memcpy>
   25b06:	4e05      	ldr	r6, [pc, #20]	@ (25b1c <_start+0x1c20>)
   25b08:	446e      	add	r6, sp
   25b0a:	4630      	mov	r0, r6
   25b0c:	4629      	mov	r1, r5
   25b0e:	f7fd fff9 	bl	23b04 <_ZN18complex_no_dynamic3app17hf3629e57fc413f7fE>
   25b12:	7830      	ldrb	r0, [r6, #0]
   25b14:	2801      	cmp	r0, #1
   25b16:	d107      	bne.n	25b28 <_start+0x1c2c>
   25b18:	f001 f800 	bl	26b1c <_start+0x2c20>
   25b1c:	000013cc 	.word	0x000013cc
   25b20:	00000b8c 	.word	0x00000b8c
   25b24:	00001370 	.word	0x00001370
   25b28:	4819      	ldr	r0, [pc, #100]	@ (25b90 <_start+0x1c94>)
   25b2a:	4468      	add	r0, sp
   25b2c:	78c1      	ldrb	r1, [r0, #3]
   25b2e:	4b19      	ldr	r3, [pc, #100]	@ (25b94 <_start+0x1c98>)
   25b30:	446b      	add	r3, sp
   25b32:	930b      	str	r3, [sp, #44]	@ 0x2c
   25b34:	7099      	strb	r1, [r3, #2]
   25b36:	7841      	ldrb	r1, [r0, #1]
   25b38:	7882      	ldrb	r2, [r0, #2]
   25b3a:	0212      	lsls	r2, r2, #8
   25b3c:	1851      	adds	r1, r2, r1
   25b3e:	8019      	strh	r1, [r3, #0]
   25b40:	3008      	adds	r0, #8
   25b42:	9905      	ldr	r1, [sp, #20]
   25b44:	6e09      	ldr	r1, [r1, #96]	@ 0x60
   25b46:	910a      	str	r1, [sp, #40]	@ 0x28
   25b48:	4b13      	ldr	r3, [pc, #76]	@ (25b98 <_start+0x1c9c>)
   25b4a:	446b      	add	r3, sp
   25b4c:	930c      	str	r3, [sp, #48]	@ 0x30
   25b4e:	c866      	ldmia	r0!, {r1, r2, r5, r6}
   25b50:	c366      	stmia	r3!, {r1, r2, r5, r6}
   25b52:	c866      	ldmia	r0!, {r1, r2, r5, r6}
   25b54:	c366      	stmia	r3!, {r1, r2, r5, r6}
   25b56:	8801      	ldrh	r1, [r0, #0]
   25b58:	8019      	strh	r1, [r3, #0]
   25b5a:	7880      	ldrb	r0, [r0, #2]
   25b5c:	7098      	strb	r0, [r3, #2]
   25b5e:	990a      	ldr	r1, [sp, #40]	@ 0x28
   25b60:	0e08      	lsrs	r0, r1, #24
   25b62:	9d0b      	ldr	r5, [sp, #44]	@ 0x2c
   25b64:	71a8      	strb	r0, [r5, #6]
   25b66:	0c08      	lsrs	r0, r1, #16
   25b68:	7168      	strb	r0, [r5, #5]
   25b6a:	0a08      	lsrs	r0, r1, #8
   25b6c:	7128      	strb	r0, [r5, #4]
   25b6e:	70e9      	strb	r1, [r5, #3]
   25b70:	1de8      	adds	r0, r5, #7
   25b72:	2223      	movs	r2, #35	@ 0x23
   25b74:	990c      	ldr	r1, [sp, #48]	@ 0x30
   25b76:	f001 f9a2 	bl	26ebe <__aeabi_memcpy>
   25b7a:	4e05      	ldr	r6, [pc, #20]	@ (25b90 <_start+0x1c94>)
   25b7c:	446e      	add	r6, sp
   25b7e:	4630      	mov	r0, r6
   25b80:	4629      	mov	r1, r5
   25b82:	f7fb fd95 	bl	216b0 <_ZN18complex_no_dynamic3app17h51a9d664d250f037E>
   25b86:	7830      	ldrb	r0, [r6, #0]
   25b88:	2801      	cmp	r0, #1
   25b8a:	d107      	bne.n	25b9c <_start+0x1ca0>
   25b8c:	f000 ffc6 	bl	26b1c <_start+0x2c20>
   25b90:	000013cc 	.word	0x000013cc
   25b94:	00000bb0 	.word	0x00000bb0
   25b98:	00001370 	.word	0x00001370
   25b9c:	4915      	ldr	r1, [pc, #84]	@ (25bf4 <_start+0x1cf8>)
   25b9e:	4469      	add	r1, sp
   25ba0:	78c8      	ldrb	r0, [r1, #3]
   25ba2:	4d15      	ldr	r5, [pc, #84]	@ (25bf8 <_start+0x1cfc>)
   25ba4:	446d      	add	r5, sp
   25ba6:	70a8      	strb	r0, [r5, #2]
   25ba8:	7848      	ldrb	r0, [r1, #1]
   25baa:	788a      	ldrb	r2, [r1, #2]
   25bac:	0212      	lsls	r2, r2, #8
   25bae:	1810      	adds	r0, r2, r0
   25bb0:	8028      	strh	r0, [r5, #0]
   25bb2:	9805      	ldr	r0, [sp, #20]
   25bb4:	6e06      	ldr	r6, [r0, #96]	@ 0x60
   25bb6:	3108      	adds	r1, #8
   25bb8:	4810      	ldr	r0, [pc, #64]	@ (25bfc <_start+0x1d00>)
   25bba:	4468      	add	r0, sp
   25bbc:	900c      	str	r0, [sp, #48]	@ 0x30
   25bbe:	2252      	movs	r2, #82	@ 0x52
   25bc0:	920b      	str	r2, [sp, #44]	@ 0x2c
   25bc2:	f001 f81c 	bl	26bfe <__aeabi_memcpy4>
   25bc6:	0e30      	lsrs	r0, r6, #24
   25bc8:	71a8      	strb	r0, [r5, #6]
   25bca:	0c30      	lsrs	r0, r6, #16
   25bcc:	7168      	strb	r0, [r5, #5]
   25bce:	0a30      	lsrs	r0, r6, #8
   25bd0:	7128      	strb	r0, [r5, #4]
   25bd2:	70ee      	strb	r6, [r5, #3]
   25bd4:	1de8      	adds	r0, r5, #7
   25bd6:	990c      	ldr	r1, [sp, #48]	@ 0x30
   25bd8:	9a0b      	ldr	r2, [sp, #44]	@ 0x2c
   25bda:	f001 f970 	bl	26ebe <__aeabi_memcpy>
   25bde:	4e05      	ldr	r6, [pc, #20]	@ (25bf4 <_start+0x1cf8>)
   25be0:	446e      	add	r6, sp
   25be2:	4630      	mov	r0, r6
   25be4:	4629      	mov	r1, r5
   25be6:	f7fd fb99 	bl	2331c <_ZN18complex_no_dynamic3app17hcf632f7c5254931bE>
   25bea:	7830      	ldrb	r0, [r6, #0]
   25bec:	2801      	cmp	r0, #1
   25bee:	d107      	bne.n	25c00 <_start+0x1d04>
   25bf0:	f000 ff94 	bl	26b1c <_start+0x2c20>
   25bf4:	000013cc 	.word	0x000013cc
   25bf8:	00000bdc 	.word	0x00000bdc
   25bfc:	00001370 	.word	0x00001370
   25c00:	4915      	ldr	r1, [pc, #84]	@ (25c58 <_start+0x1d5c>)
   25c02:	4469      	add	r1, sp
   25c04:	78c8      	ldrb	r0, [r1, #3]
   25c06:	4d15      	ldr	r5, [pc, #84]	@ (25c5c <_start+0x1d60>)
   25c08:	446d      	add	r5, sp
   25c0a:	70a8      	strb	r0, [r5, #2]
   25c0c:	7848      	ldrb	r0, [r1, #1]
   25c0e:	788a      	ldrb	r2, [r1, #2]
   25c10:	0212      	lsls	r2, r2, #8
   25c12:	1810      	adds	r0, r2, r0
   25c14:	8028      	strh	r0, [r5, #0]
   25c16:	9805      	ldr	r0, [sp, #20]
   25c18:	6e06      	ldr	r6, [r0, #96]	@ 0x60
   25c1a:	3108      	adds	r1, #8
   25c1c:	4810      	ldr	r0, [pc, #64]	@ (25c60 <_start+0x1d64>)
   25c1e:	4468      	add	r0, sp
   25c20:	900c      	str	r0, [sp, #48]	@ 0x30
   25c22:	2243      	movs	r2, #67	@ 0x43
   25c24:	920b      	str	r2, [sp, #44]	@ 0x2c
   25c26:	f000 ffea 	bl	26bfe <__aeabi_memcpy4>
   25c2a:	0e30      	lsrs	r0, r6, #24
   25c2c:	71a8      	strb	r0, [r5, #6]
   25c2e:	0c30      	lsrs	r0, r6, #16
   25c30:	7168      	strb	r0, [r5, #5]
   25c32:	0a30      	lsrs	r0, r6, #8
   25c34:	7128      	strb	r0, [r5, #4]
   25c36:	70ee      	strb	r6, [r5, #3]
   25c38:	1de8      	adds	r0, r5, #7
   25c3a:	990c      	ldr	r1, [sp, #48]	@ 0x30
   25c3c:	9a0b      	ldr	r2, [sp, #44]	@ 0x2c
   25c3e:	f001 f93e 	bl	26ebe <__aeabi_memcpy>
   25c42:	4e05      	ldr	r6, [pc, #20]	@ (25c58 <_start+0x1d5c>)
   25c44:	446e      	add	r6, sp
   25c46:	4630      	mov	r0, r6
   25c48:	4629      	mov	r1, r5
   25c4a:	f7fe f903 	bl	23e54 <_ZN18complex_no_dynamic3app17hfc6227fe5c7418abE>
   25c4e:	7830      	ldrb	r0, [r6, #0]
   25c50:	2801      	cmp	r0, #1
   25c52:	d107      	bne.n	25c64 <_start+0x1d68>
   25c54:	f000 ff62 	bl	26b1c <_start+0x2c20>
   25c58:	000013cc 	.word	0x000013cc
   25c5c:	00000c38 	.word	0x00000c38
   25c60:	00001370 	.word	0x00001370
   25c64:	4818      	ldr	r0, [pc, #96]	@ (25cc8 <_start+0x1dcc>)
   25c66:	4468      	add	r0, sp
   25c68:	78c1      	ldrb	r1, [r0, #3]
   25c6a:	4d18      	ldr	r5, [pc, #96]	@ (25ccc <_start+0x1dd0>)
   25c6c:	446d      	add	r5, sp
   25c6e:	70a9      	strb	r1, [r5, #2]
   25c70:	7841      	ldrb	r1, [r0, #1]
   25c72:	7882      	ldrb	r2, [r0, #2]
   25c74:	0212      	lsls	r2, r2, #8
   25c76:	1851      	adds	r1, r2, r1
   25c78:	8029      	strh	r1, [r5, #0]
   25c7a:	3008      	adds	r0, #8
   25c7c:	9905      	ldr	r1, [sp, #20]
   25c7e:	6e09      	ldr	r1, [r1, #96]	@ 0x60
   25c80:	910b      	str	r1, [sp, #44]	@ 0x2c
   25c82:	4b13      	ldr	r3, [pc, #76]	@ (25cd0 <_start+0x1dd4>)
   25c84:	446b      	add	r3, sp
   25c86:	930c      	str	r3, [sp, #48]	@ 0x30
   25c88:	c846      	ldmia	r0!, {r1, r2, r6}
   25c8a:	c346      	stmia	r3!, {r1, r2, r6}
   25c8c:	c846      	ldmia	r0!, {r1, r2, r6}
   25c8e:	c346      	stmia	r3!, {r1, r2, r6}
   25c90:	c846      	ldmia	r0!, {r1, r2, r6}
   25c92:	c346      	stmia	r3!, {r1, r2, r6}
   25c94:	8800      	ldrh	r0, [r0, #0]
   25c96:	8018      	strh	r0, [r3, #0]
   25c98:	990b      	ldr	r1, [sp, #44]	@ 0x2c
   25c9a:	0e08      	lsrs	r0, r1, #24
   25c9c:	71a8      	strb	r0, [r5, #6]
   25c9e:	0c08      	lsrs	r0, r1, #16
   25ca0:	7168      	strb	r0, [r5, #5]
   25ca2:	0a08      	lsrs	r0, r1, #8
   25ca4:	7128      	strb	r0, [r5, #4]
   25ca6:	70e9      	strb	r1, [r5, #3]
   25ca8:	1de8      	adds	r0, r5, #7
   25caa:	2226      	movs	r2, #38	@ 0x26
   25cac:	990c      	ldr	r1, [sp, #48]	@ 0x30
   25cae:	f001 f906 	bl	26ebe <__aeabi_memcpy>
   25cb2:	4e05      	ldr	r6, [pc, #20]	@ (25cc8 <_start+0x1dcc>)
   25cb4:	446e      	add	r6, sp
   25cb6:	4630      	mov	r0, r6
   25cb8:	4629      	mov	r1, r5
   25cba:	f7fa fd5f 	bl	2077c <_ZN18complex_no_dynamic3app17h1fb40e3c97434c83E>
   25cbe:	7830      	ldrb	r0, [r6, #0]
   25cc0:	2801      	cmp	r0, #1
   25cc2:	d107      	bne.n	25cd4 <_start+0x1dd8>
   25cc4:	f000 ff2a 	bl	26b1c <_start+0x2c20>
   25cc8:	000013cc 	.word	0x000013cc
   25ccc:	00000c84 	.word	0x00000c84
   25cd0:	00001370 	.word	0x00001370
   25cd4:	4915      	ldr	r1, [pc, #84]	@ (25d2c <_start+0x1e30>)
   25cd6:	4469      	add	r1, sp
   25cd8:	78c8      	ldrb	r0, [r1, #3]
   25cda:	4d15      	ldr	r5, [pc, #84]	@ (25d30 <_start+0x1e34>)
   25cdc:	446d      	add	r5, sp
   25cde:	70a8      	strb	r0, [r5, #2]
   25ce0:	7848      	ldrb	r0, [r1, #1]
   25ce2:	788a      	ldrb	r2, [r1, #2]
   25ce4:	0212      	lsls	r2, r2, #8
   25ce6:	1810      	adds	r0, r2, r0
   25ce8:	8028      	strh	r0, [r5, #0]
   25cea:	9805      	ldr	r0, [sp, #20]
   25cec:	6e06      	ldr	r6, [r0, #96]	@ 0x60
   25cee:	3108      	adds	r1, #8
   25cf0:	4810      	ldr	r0, [pc, #64]	@ (25d34 <_start+0x1e38>)
   25cf2:	4468      	add	r0, sp
   25cf4:	900c      	str	r0, [sp, #48]	@ 0x30
   25cf6:	224c      	movs	r2, #76	@ 0x4c
   25cf8:	920b      	str	r2, [sp, #44]	@ 0x2c
   25cfa:	f000 ff80 	bl	26bfe <__aeabi_memcpy4>
   25cfe:	0e30      	lsrs	r0, r6, #24
   25d00:	71a8      	strb	r0, [r5, #6]
   25d02:	0c30      	lsrs	r0, r6, #16
   25d04:	7168      	strb	r0, [r5, #5]
   25d06:	0a30      	lsrs	r0, r6, #8
   25d08:	7128      	strb	r0, [r5, #4]
   25d0a:	70ee      	strb	r6, [r5, #3]
   25d0c:	1de8      	adds	r0, r5, #7
   25d0e:	990c      	ldr	r1, [sp, #48]	@ 0x30
   25d10:	9a0b      	ldr	r2, [sp, #44]	@ 0x2c
   25d12:	f001 f8d4 	bl	26ebe <__aeabi_memcpy>
   25d16:	4e05      	ldr	r6, [pc, #20]	@ (25d2c <_start+0x1e30>)
   25d18:	446e      	add	r6, sp
   25d1a:	4630      	mov	r0, r6
   25d1c:	4629      	mov	r1, r5
   25d1e:	f7fc ff07 	bl	22b30 <_ZN18complex_no_dynamic3app17ha6805a0e5597513aE>
   25d22:	7830      	ldrb	r0, [r6, #0]
   25d24:	2801      	cmp	r0, #1
   25d26:	d107      	bne.n	25d38 <_start+0x1e3c>
   25d28:	f000 fef8 	bl	26b1c <_start+0x2c20>
   25d2c:	000013cc 	.word	0x000013cc
   25d30:	00000cb4 	.word	0x00000cb4
   25d34:	00001370 	.word	0x00001370
   25d38:	481a      	ldr	r0, [pc, #104]	@ (25da4 <_start+0x1ea8>)
   25d3a:	4468      	add	r0, sp
   25d3c:	78c1      	ldrb	r1, [r0, #3]
   25d3e:	4b1a      	ldr	r3, [pc, #104]	@ (25da8 <_start+0x1eac>)
   25d40:	446b      	add	r3, sp
   25d42:	930b      	str	r3, [sp, #44]	@ 0x2c
   25d44:	7099      	strb	r1, [r3, #2]
   25d46:	7841      	ldrb	r1, [r0, #1]
   25d48:	7882      	ldrb	r2, [r0, #2]
   25d4a:	0212      	lsls	r2, r2, #8
   25d4c:	1851      	adds	r1, r2, r1
   25d4e:	8019      	strh	r1, [r3, #0]
   25d50:	3008      	adds	r0, #8
   25d52:	9905      	ldr	r1, [sp, #20]
   25d54:	6e09      	ldr	r1, [r1, #96]	@ 0x60
   25d56:	910a      	str	r1, [sp, #40]	@ 0x28
   25d58:	4b14      	ldr	r3, [pc, #80]	@ (25dac <_start+0x1eb0>)
   25d5a:	446b      	add	r3, sp
   25d5c:	930c      	str	r3, [sp, #48]	@ 0x30
   25d5e:	c866      	ldmia	r0!, {r1, r2, r5, r6}
   25d60:	c366      	stmia	r3!, {r1, r2, r5, r6}
   25d62:	c866      	ldmia	r0!, {r1, r2, r5, r6}
   25d64:	c366      	stmia	r3!, {r1, r2, r5, r6}
   25d66:	c866      	ldmia	r0!, {r1, r2, r5, r6}
   25d68:	c366      	stmia	r3!, {r1, r2, r5, r6}
   25d6a:	8801      	ldrh	r1, [r0, #0]
   25d6c:	8019      	strh	r1, [r3, #0]
   25d6e:	7880      	ldrb	r0, [r0, #2]
   25d70:	7098      	strb	r0, [r3, #2]
   25d72:	990a      	ldr	r1, [sp, #40]	@ 0x28
   25d74:	0e08      	lsrs	r0, r1, #24
   25d76:	9d0b      	ldr	r5, [sp, #44]	@ 0x2c
   25d78:	71a8      	strb	r0, [r5, #6]
   25d7a:	0c08      	lsrs	r0, r1, #16
   25d7c:	7168      	strb	r0, [r5, #5]
   25d7e:	0a08      	lsrs	r0, r1, #8
   25d80:	7128      	strb	r0, [r5, #4]
   25d82:	70e9      	strb	r1, [r5, #3]
   25d84:	1de8      	adds	r0, r5, #7
   25d86:	2233      	movs	r2, #51	@ 0x33
   25d88:	990c      	ldr	r1, [sp, #48]	@ 0x30
   25d8a:	f001 f898 	bl	26ebe <__aeabi_memcpy>
   25d8e:	4e05      	ldr	r6, [pc, #20]	@ (25da4 <_start+0x1ea8>)
   25d90:	446e      	add	r6, sp
   25d92:	4630      	mov	r0, r6
   25d94:	4629      	mov	r1, r5
   25d96:	f7fa fb4b 	bl	20430 <_ZN18complex_no_dynamic3app17h1141dd3324232993E>
   25d9a:	7830      	ldrb	r0, [r6, #0]
   25d9c:	2801      	cmp	r0, #1
   25d9e:	d107      	bne.n	25db0 <_start+0x1eb4>
   25da0:	f000 febc 	bl	26b1c <_start+0x2c20>
   25da4:	000013cc 	.word	0x000013cc
   25da8:	00000d08 	.word	0x00000d08
   25dac:	00001370 	.word	0x00001370
   25db0:	4915      	ldr	r1, [pc, #84]	@ (25e08 <_start+0x1f0c>)
   25db2:	4469      	add	r1, sp
   25db4:	78c8      	ldrb	r0, [r1, #3]
   25db6:	4d15      	ldr	r5, [pc, #84]	@ (25e0c <_start+0x1f10>)
   25db8:	446d      	add	r5, sp
   25dba:	70a8      	strb	r0, [r5, #2]
   25dbc:	7848      	ldrb	r0, [r1, #1]
   25dbe:	788a      	ldrb	r2, [r1, #2]
   25dc0:	0212      	lsls	r2, r2, #8
   25dc2:	1810      	adds	r0, r2, r0
   25dc4:	8028      	strh	r0, [r5, #0]
   25dc6:	9805      	ldr	r0, [sp, #20]
   25dc8:	6e06      	ldr	r6, [r0, #96]	@ 0x60
   25dca:	3108      	adds	r1, #8
   25dcc:	4810      	ldr	r0, [pc, #64]	@ (25e10 <_start+0x1f14>)
   25dce:	4468      	add	r0, sp
   25dd0:	900c      	str	r0, [sp, #48]	@ 0x30
   25dd2:	2256      	movs	r2, #86	@ 0x56
   25dd4:	920b      	str	r2, [sp, #44]	@ 0x2c
   25dd6:	f000 ff12 	bl	26bfe <__aeabi_memcpy4>
   25dda:	0e30      	lsrs	r0, r6, #24
   25ddc:	71a8      	strb	r0, [r5, #6]
   25dde:	0c30      	lsrs	r0, r6, #16
   25de0:	7168      	strb	r0, [r5, #5]
   25de2:	0a30      	lsrs	r0, r6, #8
   25de4:	7128      	strb	r0, [r5, #4]
   25de6:	70ee      	strb	r6, [r5, #3]
   25de8:	1de8      	adds	r0, r5, #7
   25dea:	990c      	ldr	r1, [sp, #48]	@ 0x30
   25dec:	9a0b      	ldr	r2, [sp, #44]	@ 0x2c
   25dee:	f001 f866 	bl	26ebe <__aeabi_memcpy>
   25df2:	4e05      	ldr	r6, [pc, #20]	@ (25e08 <_start+0x1f0c>)
   25df4:	446e      	add	r6, sp
   25df6:	4630      	mov	r0, r6
   25df8:	4629      	mov	r1, r5
   25dfa:	f7fb f907 	bl	2100c <_ZN18complex_no_dynamic3app17h3cdb994f52cbe0f6E>
   25dfe:	7830      	ldrb	r0, [r6, #0]
   25e00:	2801      	cmp	r0, #1
   25e02:	d107      	bne.n	25e14 <_start+0x1f18>
   25e04:	f000 fe8a 	bl	26b1c <_start+0x2c20>
   25e08:	000013cc 	.word	0x000013cc
   25e0c:	00000d44 	.word	0x00000d44
   25e10:	00001370 	.word	0x00001370
   25e14:	481a      	ldr	r0, [pc, #104]	@ (25e80 <_start+0x1f84>)
   25e16:	4468      	add	r0, sp
   25e18:	78c1      	ldrb	r1, [r0, #3]
   25e1a:	4b1a      	ldr	r3, [pc, #104]	@ (25e84 <_start+0x1f88>)
   25e1c:	446b      	add	r3, sp
   25e1e:	930b      	str	r3, [sp, #44]	@ 0x2c
   25e20:	7099      	strb	r1, [r3, #2]
   25e22:	7841      	ldrb	r1, [r0, #1]
   25e24:	7882      	ldrb	r2, [r0, #2]
   25e26:	0212      	lsls	r2, r2, #8
   25e28:	1851      	adds	r1, r2, r1
   25e2a:	8019      	strh	r1, [r3, #0]
   25e2c:	3008      	adds	r0, #8
   25e2e:	9905      	ldr	r1, [sp, #20]
   25e30:	6e09      	ldr	r1, [r1, #96]	@ 0x60
   25e32:	910a      	str	r1, [sp, #40]	@ 0x28
   25e34:	4b14      	ldr	r3, [pc, #80]	@ (25e88 <_start+0x1f8c>)
   25e36:	446b      	add	r3, sp
   25e38:	930c      	str	r3, [sp, #48]	@ 0x30
   25e3a:	c846      	ldmia	r0!, {r1, r2, r6}
   25e3c:	c346      	stmia	r3!, {r1, r2, r6}
   25e3e:	c866      	ldmia	r0!, {r1, r2, r5, r6}
   25e40:	c366      	stmia	r3!, {r1, r2, r5, r6}
   25e42:	c826      	ldmia	r0!, {r1, r2, r5}
   25e44:	c326      	stmia	r3!, {r1, r2, r5}
   25e46:	c866      	ldmia	r0!, {r1, r2, r5, r6}
   25e48:	c366      	stmia	r3!, {r1, r2, r5, r6}
   25e4a:	7800      	ldrb	r0, [r0, #0]
   25e4c:	7018      	strb	r0, [r3, #0]
   25e4e:	990a      	ldr	r1, [sp, #40]	@ 0x28
   25e50:	0e08      	lsrs	r0, r1, #24
   25e52:	9d0b      	ldr	r5, [sp, #44]	@ 0x2c
   25e54:	71a8      	strb	r0, [r5, #6]
   25e56:	0c08      	lsrs	r0, r1, #16
   25e58:	7168      	strb	r0, [r5, #5]
   25e5a:	0a08      	lsrs	r0, r1, #8
   25e5c:	7128      	strb	r0, [r5, #4]
   25e5e:	70e9      	strb	r1, [r5, #3]
   25e60:	1de8      	adds	r0, r5, #7
   25e62:	2239      	movs	r2, #57	@ 0x39
   25e64:	990c      	ldr	r1, [sp, #48]	@ 0x30
   25e66:	f001 f82a 	bl	26ebe <__aeabi_memcpy>
   25e6a:	4e05      	ldr	r6, [pc, #20]	@ (25e80 <_start+0x1f84>)
   25e6c:	446e      	add	r6, sp
   25e6e:	4630      	mov	r0, r6
   25e70:	4629      	mov	r1, r5
   25e72:	f7fd f859 	bl	22f28 <_ZN18complex_no_dynamic3app17hb427c66e8d5c297dE>
   25e76:	7830      	ldrb	r0, [r6, #0]
   25e78:	2801      	cmp	r0, #1
   25e7a:	d107      	bne.n	25e8c <_start+0x1f90>
   25e7c:	f000 fe4e 	bl	26b1c <_start+0x2c20>
   25e80:	000013cc 	.word	0x000013cc
   25e84:	00000da4 	.word	0x00000da4
   25e88:	00001370 	.word	0x00001370
   25e8c:	4819      	ldr	r0, [pc, #100]	@ (25ef4 <_start+0x1ff8>)
   25e8e:	4468      	add	r0, sp
   25e90:	78c1      	ldrb	r1, [r0, #3]
   25e92:	4b19      	ldr	r3, [pc, #100]	@ (25ef8 <_start+0x1ffc>)
   25e94:	446b      	add	r3, sp
   25e96:	930b      	str	r3, [sp, #44]	@ 0x2c
   25e98:	7099      	strb	r1, [r3, #2]
   25e9a:	7841      	ldrb	r1, [r0, #1]
   25e9c:	7882      	ldrb	r2, [r0, #2]
   25e9e:	0212      	lsls	r2, r2, #8
   25ea0:	1851      	adds	r1, r2, r1
   25ea2:	8019      	strh	r1, [r3, #0]
   25ea4:	3008      	adds	r0, #8
   25ea6:	9905      	ldr	r1, [sp, #20]
   25ea8:	6e09      	ldr	r1, [r1, #96]	@ 0x60
   25eaa:	910a      	str	r1, [sp, #40]	@ 0x28
   25eac:	4b13      	ldr	r3, [pc, #76]	@ (25efc <_start+0x2000>)
   25eae:	446b      	add	r3, sp
   25eb0:	930c      	str	r3, [sp, #48]	@ 0x30
   25eb2:	c846      	ldmia	r0!, {r1, r2, r6}
   25eb4:	c346      	stmia	r3!, {r1, r2, r6}
   25eb6:	c846      	ldmia	r0!, {r1, r2, r6}
   25eb8:	c346      	stmia	r3!, {r1, r2, r6}
   25eba:	c866      	ldmia	r0!, {r1, r2, r5, r6}
   25ebc:	c366      	stmia	r3!, {r1, r2, r5, r6}
   25ebe:	8800      	ldrh	r0, [r0, #0]
   25ec0:	8018      	strh	r0, [r3, #0]
   25ec2:	990a      	ldr	r1, [sp, #40]	@ 0x28
   25ec4:	0e08      	lsrs	r0, r1, #24
   25ec6:	9d0b      	ldr	r5, [sp, #44]	@ 0x2c
   25ec8:	71a8      	strb	r0, [r5, #6]
   25eca:	0c08      	lsrs	r0, r1, #16
   25ecc:	7168      	strb	r0, [r5, #5]
   25ece:	0a08      	lsrs	r0, r1, #8
   25ed0:	7128      	strb	r0, [r5, #4]
   25ed2:	70e9      	strb	r1, [r5, #3]
   25ed4:	1de8      	adds	r0, r5, #7
   25ed6:	222a      	movs	r2, #42	@ 0x2a
   25ed8:	990c      	ldr	r1, [sp, #48]	@ 0x30
   25eda:	f000 fff0 	bl	26ebe <__aeabi_memcpy>
   25ede:	4e05      	ldr	r6, [pc, #20]	@ (25ef4 <_start+0x1ff8>)
   25ee0:	446e      	add	r6, sp
   25ee2:	4630      	mov	r0, r6
   25ee4:	4629      	mov	r1, r5
   25ee6:	f7fa fbf5 	bl	206d4 <_ZN18complex_no_dynamic3app17h1c05452c8d6457a0E>
   25eea:	7830      	ldrb	r0, [r6, #0]
   25eec:	2801      	cmp	r0, #1
   25eee:	d107      	bne.n	25f00 <_start+0x2004>
   25ef0:	f000 fe14 	bl	26b1c <_start+0x2c20>
   25ef4:	000013cc 	.word	0x000013cc
   25ef8:	00000de4 	.word	0x00000de4
   25efc:	00001370 	.word	0x00001370
   25f00:	4915      	ldr	r1, [pc, #84]	@ (25f58 <_start+0x205c>)
   25f02:	4469      	add	r1, sp
   25f04:	78c8      	ldrb	r0, [r1, #3]
   25f06:	4d15      	ldr	r5, [pc, #84]	@ (25f5c <_start+0x2060>)
   25f08:	446d      	add	r5, sp
   25f0a:	70a8      	strb	r0, [r5, #2]
   25f0c:	7848      	ldrb	r0, [r1, #1]
   25f0e:	788a      	ldrb	r2, [r1, #2]
   25f10:	0212      	lsls	r2, r2, #8
   25f12:	1810      	adds	r0, r2, r0
   25f14:	8028      	strh	r0, [r5, #0]
   25f16:	9805      	ldr	r0, [sp, #20]
   25f18:	6e06      	ldr	r6, [r0, #96]	@ 0x60
   25f1a:	3108      	adds	r1, #8
   25f1c:	4810      	ldr	r0, [pc, #64]	@ (25f60 <_start+0x2064>)
   25f1e:	4468      	add	r0, sp
   25f20:	900c      	str	r0, [sp, #48]	@ 0x30
   25f22:	2241      	movs	r2, #65	@ 0x41
   25f24:	920b      	str	r2, [sp, #44]	@ 0x2c
   25f26:	f000 fe6a 	bl	26bfe <__aeabi_memcpy4>
   25f2a:	0e30      	lsrs	r0, r6, #24
   25f2c:	71a8      	strb	r0, [r5, #6]
   25f2e:	0c30      	lsrs	r0, r6, #16
   25f30:	7168      	strb	r0, [r5, #5]
   25f32:	0a30      	lsrs	r0, r6, #8
   25f34:	7128      	strb	r0, [r5, #4]
   25f36:	70ee      	strb	r6, [r5, #3]
   25f38:	1de8      	adds	r0, r5, #7
   25f3a:	990c      	ldr	r1, [sp, #48]	@ 0x30
   25f3c:	9a0b      	ldr	r2, [sp, #44]	@ 0x2c
   25f3e:	f000 ffbe 	bl	26ebe <__aeabi_memcpy>
   25f42:	4e05      	ldr	r6, [pc, #20]	@ (25f58 <_start+0x205c>)
   25f44:	446e      	add	r6, sp
   25f46:	4630      	mov	r0, r6
   25f48:	4629      	mov	r1, r5
   25f4a:	f7fa f9c9 	bl	202e0 <_ZN18complex_no_dynamic3app17h0f27882851c07908E>
   25f4e:	7830      	ldrb	r0, [r6, #0]
   25f50:	2801      	cmp	r0, #1
   25f52:	d107      	bne.n	25f64 <_start+0x2068>
   25f54:	f000 fde2 	bl	26b1c <_start+0x2c20>
   25f58:	000013cc 	.word	0x000013cc
   25f5c:	00000e18 	.word	0x00000e18
   25f60:	00001370 	.word	0x00001370
   25f64:	4818      	ldr	r0, [pc, #96]	@ (25fc8 <_start+0x20cc>)
   25f66:	4468      	add	r0, sp
   25f68:	78c1      	ldrb	r1, [r0, #3]
   25f6a:	4b18      	ldr	r3, [pc, #96]	@ (25fcc <_start+0x20d0>)
   25f6c:	446b      	add	r3, sp
   25f6e:	930b      	str	r3, [sp, #44]	@ 0x2c
   25f70:	7099      	strb	r1, [r3, #2]
   25f72:	7841      	ldrb	r1, [r0, #1]
   25f74:	7882      	ldrb	r2, [r0, #2]
   25f76:	0212      	lsls	r2, r2, #8
   25f78:	1851      	adds	r1, r2, r1
   25f7a:	8019      	strh	r1, [r3, #0]
   25f7c:	3008      	adds	r0, #8
   25f7e:	9905      	ldr	r1, [sp, #20]
   25f80:	6e09      	ldr	r1, [r1, #96]	@ 0x60
   25f82:	910a      	str	r1, [sp, #40]	@ 0x28
   25f84:	4b12      	ldr	r3, [pc, #72]	@ (25fd0 <_start+0x20d4>)
   25f86:	446b      	add	r3, sp
   25f88:	930c      	str	r3, [sp, #48]	@ 0x30
   25f8a:	c866      	ldmia	r0!, {r1, r2, r5, r6}
   25f8c:	c366      	stmia	r3!, {r1, r2, r5, r6}
   25f8e:	c866      	ldmia	r0!, {r1, r2, r5, r6}
   25f90:	c366      	stmia	r3!, {r1, r2, r5, r6}
   25f92:	8800      	ldrh	r0, [r0, #0]
   25f94:	8018      	strh	r0, [r3, #0]
   25f96:	990a      	ldr	r1, [sp, #40]	@ 0x28
   25f98:	0e08      	lsrs	r0, r1, #24
   25f9a:	9d0b      	ldr	r5, [sp, #44]	@ 0x2c
   25f9c:	71a8      	strb	r0, [r5, #6]
   25f9e:	0c08      	lsrs	r0, r1, #16
   25fa0:	7168      	strb	r0, [r5, #5]
   25fa2:	0a08      	lsrs	r0, r1, #8
   25fa4:	7128      	strb	r0, [r5, #4]
   25fa6:	70e9      	strb	r1, [r5, #3]
   25fa8:	1de8      	adds	r0, r5, #7
   25faa:	2222      	movs	r2, #34	@ 0x22
   25fac:	990c      	ldr	r1, [sp, #48]	@ 0x30
   25fae:	f000 ff86 	bl	26ebe <__aeabi_memcpy>
   25fb2:	4e05      	ldr	r6, [pc, #20]	@ (25fc8 <_start+0x20cc>)
   25fb4:	446e      	add	r6, sp
   25fb6:	4630      	mov	r0, r6
   25fb8:	4629      	mov	r1, r5
   25fba:	f7fb ffc7 	bl	21f4c <_ZN18complex_no_dynamic3app17h6f55e4183aabf041E>
   25fbe:	7830      	ldrb	r0, [r6, #0]
   25fc0:	2801      	cmp	r0, #1
   25fc2:	d107      	bne.n	25fd4 <_start+0x20d8>
   25fc4:	f000 fdaa 	bl	26b1c <_start+0x2c20>
   25fc8:	000013cc 	.word	0x000013cc
   25fcc:	00000e60 	.word	0x00000e60
   25fd0:	00001370 	.word	0x00001370
   25fd4:	4818      	ldr	r0, [pc, #96]	@ (26038 <_start+0x213c>)
   25fd6:	4468      	add	r0, sp
   25fd8:	78c1      	ldrb	r1, [r0, #3]
   25fda:	4b18      	ldr	r3, [pc, #96]	@ (2603c <_start+0x2140>)
   25fdc:	446b      	add	r3, sp
   25fde:	930b      	str	r3, [sp, #44]	@ 0x2c
   25fe0:	7099      	strb	r1, [r3, #2]
   25fe2:	7841      	ldrb	r1, [r0, #1]
   25fe4:	7882      	ldrb	r2, [r0, #2]
   25fe6:	0212      	lsls	r2, r2, #8
   25fe8:	1851      	adds	r1, r2, r1
   25fea:	8019      	strh	r1, [r3, #0]
   25fec:	3008      	adds	r0, #8
   25fee:	9905      	ldr	r1, [sp, #20]
   25ff0:	6e09      	ldr	r1, [r1, #96]	@ 0x60
   25ff2:	910a      	str	r1, [sp, #40]	@ 0x28
   25ff4:	4b12      	ldr	r3, [pc, #72]	@ (26040 <_start+0x2144>)
   25ff6:	446b      	add	r3, sp
   25ff8:	930c      	str	r3, [sp, #48]	@ 0x30
   25ffa:	c866      	ldmia	r0!, {r1, r2, r5, r6}
   25ffc:	c366      	stmia	r3!, {r1, r2, r5, r6}
   25ffe:	8801      	ldrh	r1, [r0, #0]
   26000:	8019      	strh	r1, [r3, #0]
   26002:	7880      	ldrb	r0, [r0, #2]
   26004:	7098      	strb	r0, [r3, #2]
   26006:	990a      	ldr	r1, [sp, #40]	@ 0x28
   26008:	0e08      	lsrs	r0, r1, #24
   2600a:	9d0b      	ldr	r5, [sp, #44]	@ 0x2c
   2600c:	71a8      	strb	r0, [r5, #6]
   2600e:	0c08      	lsrs	r0, r1, #16
   26010:	7168      	strb	r0, [r5, #5]
   26012:	0a08      	lsrs	r0, r1, #8
   26014:	7128      	strb	r0, [r5, #4]
   26016:	70e9      	strb	r1, [r5, #3]
   26018:	1de8      	adds	r0, r5, #7
   2601a:	2213      	movs	r2, #19
   2601c:	990c      	ldr	r1, [sp, #48]	@ 0x30
   2601e:	f000 ff4e 	bl	26ebe <__aeabi_memcpy>
   26022:	4e05      	ldr	r6, [pc, #20]	@ (26038 <_start+0x213c>)
   26024:	446e      	add	r6, sp
   26026:	4630      	mov	r0, r6
   26028:	4629      	mov	r1, r5
   2602a:	f7fc f98d 	bl	22348 <_ZN18complex_no_dynamic3app17h7d08398fdc40289cE>
   2602e:	7830      	ldrb	r0, [r6, #0]
   26030:	2801      	cmp	r0, #1
   26032:	d107      	bne.n	26044 <_start+0x2148>
   26034:	f000 fd72 	bl	26b1c <_start+0x2c20>
   26038:	000013cc 	.word	0x000013cc
   2603c:	00000e8c 	.word	0x00000e8c
   26040:	00001370 	.word	0x00001370
   26044:	4816      	ldr	r0, [pc, #88]	@ (260a0 <_start+0x21a4>)
   26046:	4468      	add	r0, sp
   26048:	78c1      	ldrb	r1, [r0, #3]
   2604a:	4d16      	ldr	r5, [pc, #88]	@ (260a4 <_start+0x21a8>)
   2604c:	446d      	add	r5, sp
   2604e:	70a9      	strb	r1, [r5, #2]
   26050:	7841      	ldrb	r1, [r0, #1]
   26052:	7882      	ldrb	r2, [r0, #2]
   26054:	0212      	lsls	r2, r2, #8
   26056:	1851      	adds	r1, r2, r1
   26058:	8029      	strh	r1, [r5, #0]
   2605a:	3008      	adds	r0, #8
   2605c:	9905      	ldr	r1, [sp, #20]
   2605e:	6e09      	ldr	r1, [r1, #96]	@ 0x60
   26060:	910b      	str	r1, [sp, #44]	@ 0x2c
   26062:	4b11      	ldr	r3, [pc, #68]	@ (260a8 <_start+0x21ac>)
   26064:	446b      	add	r3, sp
   26066:	930c      	str	r3, [sp, #48]	@ 0x30
   26068:	c844      	ldmia	r0!, {r2, r6}
   2606a:	c344      	stmia	r3!, {r2, r6}
   2606c:	c846      	ldmia	r0!, {r1, r2, r6}
   2606e:	c346      	stmia	r3!, {r1, r2, r6}
   26070:	990b      	ldr	r1, [sp, #44]	@ 0x2c
   26072:	0e08      	lsrs	r0, r1, #24
   26074:	71a8      	strb	r0, [r5, #6]
   26076:	0c08      	lsrs	r0, r1, #16
   26078:	7168      	strb	r0, [r5, #5]
   2607a:	0a08      	lsrs	r0, r1, #8
   2607c:	7128      	strb	r0, [r5, #4]
   2607e:	70e9      	strb	r1, [r5, #3]
   26080:	1de8      	adds	r0, r5, #7
   26082:	2214      	movs	r2, #20
   26084:	990c      	ldr	r1, [sp, #48]	@ 0x30
   26086:	f000 ff1a 	bl	26ebe <__aeabi_memcpy>
   2608a:	4e05      	ldr	r6, [pc, #20]	@ (260a0 <_start+0x21a4>)
   2608c:	446e      	add	r6, sp
   2608e:	4630      	mov	r0, r6
   26090:	4629      	mov	r1, r5
   26092:	f7fb fb65 	bl	21760 <_ZN18complex_no_dynamic3app17h52552f5ce8272ef0E>
   26096:	7830      	ldrb	r0, [r6, #0]
   26098:	2801      	cmp	r0, #1
   2609a:	d107      	bne.n	260ac <_start+0x21b0>
   2609c:	f000 fd3e 	bl	26b1c <_start+0x2c20>
   260a0:	000013cc 	.word	0x000013cc
   260a4:	00000ea8 	.word	0x00000ea8
   260a8:	00001370 	.word	0x00001370
   260ac:	481a      	ldr	r0, [pc, #104]	@ (26118 <_start+0x221c>)
   260ae:	4468      	add	r0, sp
   260b0:	78c1      	ldrb	r1, [r0, #3]
   260b2:	4b1a      	ldr	r3, [pc, #104]	@ (2611c <_start+0x2220>)
   260b4:	446b      	add	r3, sp
   260b6:	930b      	str	r3, [sp, #44]	@ 0x2c
   260b8:	7099      	strb	r1, [r3, #2]
   260ba:	7841      	ldrb	r1, [r0, #1]
   260bc:	7882      	ldrb	r2, [r0, #2]
   260be:	0212      	lsls	r2, r2, #8
   260c0:	1851      	adds	r1, r2, r1
   260c2:	8019      	strh	r1, [r3, #0]
   260c4:	3008      	adds	r0, #8
   260c6:	9905      	ldr	r1, [sp, #20]
   260c8:	6e09      	ldr	r1, [r1, #96]	@ 0x60
   260ca:	910a      	str	r1, [sp, #40]	@ 0x28
   260cc:	4b14      	ldr	r3, [pc, #80]	@ (26120 <_start+0x2224>)
   260ce:	446b      	add	r3, sp
   260d0:	930c      	str	r3, [sp, #48]	@ 0x30
   260d2:	c846      	ldmia	r0!, {r1, r2, r6}
   260d4:	c346      	stmia	r3!, {r1, r2, r6}
   260d6:	c866      	ldmia	r0!, {r1, r2, r5, r6}
   260d8:	c366      	stmia	r3!, {r1, r2, r5, r6}
   260da:	c826      	ldmia	r0!, {r1, r2, r5}
   260dc:	c326      	stmia	r3!, {r1, r2, r5}
   260de:	c866      	ldmia	r0!, {r1, r2, r5, r6}
   260e0:	c366      	stmia	r3!, {r1, r2, r5, r6}
   260e2:	8800      	ldrh	r0, [r0, #0]
   260e4:	8018      	strh	r0, [r3, #0]
   260e6:	990a      	ldr	r1, [sp, #40]	@ 0x28
   260e8:	0e08      	lsrs	r0, r1, #24
   260ea:	9d0b      	ldr	r5, [sp, #44]	@ 0x2c
   260ec:	71a8      	strb	r0, [r5, #6]
   260ee:	0c08      	lsrs	r0, r1, #16
   260f0:	7168      	strb	r0, [r5, #5]
   260f2:	0a08      	lsrs	r0, r1, #8
   260f4:	7128      	strb	r0, [r5, #4]
   260f6:	70e9      	strb	r1, [r5, #3]
   260f8:	1de8      	adds	r0, r5, #7
   260fa:	223a      	movs	r2, #58	@ 0x3a
   260fc:	990c      	ldr	r1, [sp, #48]	@ 0x30
   260fe:	f000 fede 	bl	26ebe <__aeabi_memcpy>
   26102:	4e05      	ldr	r6, [pc, #20]	@ (26118 <_start+0x221c>)
   26104:	446e      	add	r6, sp
   26106:	4630      	mov	r0, r6
   26108:	4629      	mov	r1, r5
   2610a:	f7fb f8d1 	bl	212b0 <_ZN18complex_no_dynamic3app17h4285e3924ae1b837E>
   2610e:	7830      	ldrb	r0, [r6, #0]
   26110:	2801      	cmp	r0, #1
   26112:	d107      	bne.n	26124 <_start+0x2228>
   26114:	f000 fd02 	bl	26b1c <_start+0x2c20>
   26118:	000013cc 	.word	0x000013cc
   2611c:	00000ec4 	.word	0x00000ec4
   26120:	00001370 	.word	0x00001370
   26124:	4819      	ldr	r0, [pc, #100]	@ (2618c <_start+0x2290>)
   26126:	4468      	add	r0, sp
   26128:	78c1      	ldrb	r1, [r0, #3]
   2612a:	4b19      	ldr	r3, [pc, #100]	@ (26190 <_start+0x2294>)
   2612c:	446b      	add	r3, sp
   2612e:	9309      	str	r3, [sp, #36]	@ 0x24
   26130:	7099      	strb	r1, [r3, #2]
   26132:	7841      	ldrb	r1, [r0, #1]
   26134:	7882      	ldrb	r2, [r0, #2]
   26136:	0212      	lsls	r2, r2, #8
   26138:	1851      	adds	r1, r2, r1
   2613a:	8019      	strh	r1, [r3, #0]
   2613c:	3008      	adds	r0, #8
   2613e:	9905      	ldr	r1, [sp, #20]
   26140:	6e09      	ldr	r1, [r1, #96]	@ 0x60
   26142:	910a      	str	r1, [sp, #40]	@ 0x28
   26144:	4913      	ldr	r1, [pc, #76]	@ (26194 <_start+0x2298>)
   26146:	4469      	add	r1, sp
   26148:	910b      	str	r1, [sp, #44]	@ 0x2c
   2614a:	910c      	str	r1, [sp, #48]	@ 0x30
   2614c:	9d0c      	ldr	r5, [sp, #48]	@ 0x30
   2614e:	c84e      	ldmia	r0!, {r1, r2, r3, r6}
   26150:	c54e      	stmia	r5!, {r1, r2, r3, r6}
   26152:	950c      	str	r5, [sp, #48]	@ 0x30
   26154:	7800      	ldrb	r0, [r0, #0]
   26156:	990c      	ldr	r1, [sp, #48]	@ 0x30
   26158:	7008      	strb	r0, [r1, #0]
   2615a:	990a      	ldr	r1, [sp, #40]	@ 0x28
   2615c:	0e08      	lsrs	r0, r1, #24
   2615e:	9d09      	ldr	r5, [sp, #36]	@ 0x24
   26160:	71a8      	strb	r0, [r5, #6]
   26162:	0c08      	lsrs	r0, r1, #16
   26164:	7168      	strb	r0, [r5, #5]
   26166:	0a08      	lsrs	r0, r1, #8
   26168:	7128      	strb	r0, [r5, #4]
   2616a:	70e9      	strb	r1, [r5, #3]
   2616c:	1de8      	adds	r0, r5, #7
   2616e:	2211      	movs	r2, #17
   26170:	990b      	ldr	r1, [sp, #44]	@ 0x2c
   26172:	f000 fea4 	bl	26ebe <__aeabi_memcpy>
   26176:	4e05      	ldr	r6, [pc, #20]	@ (2618c <_start+0x2290>)
   26178:	446e      	add	r6, sp
   2617a:	4630      	mov	r0, r6
   2617c:	4629      	mov	r1, r5
   2617e:	f7fd f921 	bl	233c4 <_ZN18complex_no_dynamic3app17hd3129bb080f5adceE>
   26182:	7830      	ldrb	r0, [r6, #0]
   26184:	2801      	cmp	r0, #1
   26186:	d107      	bne.n	26198 <_start+0x229c>
   26188:	f000 fcc8 	bl	26b1c <_start+0x2c20>
   2618c:	000013cc 	.word	0x000013cc
   26190:	00000f08 	.word	0x00000f08
   26194:	00001370 	.word	0x00001370
   26198:	4818      	ldr	r0, [pc, #96]	@ (261fc <_start+0x2300>)
   2619a:	4468      	add	r0, sp
   2619c:	78c1      	ldrb	r1, [r0, #3]
   2619e:	4d18      	ldr	r5, [pc, #96]	@ (26200 <_start+0x2304>)
   261a0:	446d      	add	r5, sp
   261a2:	70a9      	strb	r1, [r5, #2]
   261a4:	7841      	ldrb	r1, [r0, #1]
   261a6:	7882      	ldrb	r2, [r0, #2]
   261a8:	0212      	lsls	r2, r2, #8
   261aa:	1851      	adds	r1, r2, r1
   261ac:	8029      	strh	r1, [r5, #0]
   261ae:	3008      	adds	r0, #8
   261b0:	9905      	ldr	r1, [sp, #20]
   261b2:	6e09      	ldr	r1, [r1, #96]	@ 0x60
   261b4:	910b      	str	r1, [sp, #44]	@ 0x2c
   261b6:	4b13      	ldr	r3, [pc, #76]	@ (26204 <_start+0x2308>)
   261b8:	446b      	add	r3, sp
   261ba:	930c      	str	r3, [sp, #48]	@ 0x30
   261bc:	c844      	ldmia	r0!, {r2, r6}
   261be:	c344      	stmia	r3!, {r2, r6}
   261c0:	c846      	ldmia	r0!, {r1, r2, r6}
   261c2:	c346      	stmia	r3!, {r1, r2, r6}
   261c4:	8801      	ldrh	r1, [r0, #0]
   261c6:	8019      	strh	r1, [r3, #0]
   261c8:	7880      	ldrb	r0, [r0, #2]
   261ca:	7098      	strb	r0, [r3, #2]
   261cc:	990b      	ldr	r1, [sp, #44]	@ 0x2c
   261ce:	0e08      	lsrs	r0, r1, #24
   261d0:	71a8      	strb	r0, [r5, #6]
   261d2:	0c08      	lsrs	r0, r1, #16
   261d4:	7168      	strb	r0, [r5, #5]
   261d6:	0a08      	lsrs	r0, r1, #8
   261d8:	7128      	strb	r0, [r5, #4]
   261da:	70e9      	strb	r1, [r5, #3]
   261dc:	1de8      	adds	r0, r5, #7
   261de:	2217      	movs	r2, #23
   261e0:	990c      	ldr	r1, [sp, #48]	@ 0x30
   261e2:	f000 fe6c 	bl	26ebe <__aeabi_memcpy>
   261e6:	4e05      	ldr	r6, [pc, #20]	@ (261fc <_start+0x2300>)
   261e8:	446e      	add	r6, sp
   261ea:	4630      	mov	r0, r6
   261ec:	4629      	mov	r1, r5
   261ee:	f7fa feb9 	bl	20f64 <_ZN18complex_no_dynamic3app17h38a2a40169277b62E>
   261f2:	7830      	ldrb	r0, [r6, #0]
   261f4:	2801      	cmp	r0, #1
   261f6:	d107      	bne.n	26208 <_start+0x230c>
   261f8:	f000 fc90 	bl	26b1c <_start+0x2c20>
   261fc:	000013cc 	.word	0x000013cc
   26200:	00000f20 	.word	0x00000f20
   26204:	00001370 	.word	0x00001370
   26208:	481a      	ldr	r0, [pc, #104]	@ (26274 <_start+0x2378>)
   2620a:	4468      	add	r0, sp
   2620c:	78c1      	ldrb	r1, [r0, #3]
   2620e:	4b1a      	ldr	r3, [pc, #104]	@ (26278 <_start+0x237c>)
   26210:	446b      	add	r3, sp
   26212:	930b      	str	r3, [sp, #44]	@ 0x2c
   26214:	7099      	strb	r1, [r3, #2]
   26216:	7841      	ldrb	r1, [r0, #1]
   26218:	7882      	ldrb	r2, [r0, #2]
   2621a:	0212      	lsls	r2, r2, #8
   2621c:	1851      	adds	r1, r2, r1
   2621e:	8019      	strh	r1, [r3, #0]
   26220:	3008      	adds	r0, #8
   26222:	9905      	ldr	r1, [sp, #20]
   26224:	6e09      	ldr	r1, [r1, #96]	@ 0x60
   26226:	910a      	str	r1, [sp, #40]	@ 0x28
   26228:	4b14      	ldr	r3, [pc, #80]	@ (2627c <_start+0x2380>)
   2622a:	446b      	add	r3, sp
   2622c:	930c      	str	r3, [sp, #48]	@ 0x30
   2622e:	c846      	ldmia	r0!, {r1, r2, r6}
   26230:	c346      	stmia	r3!, {r1, r2, r6}
   26232:	c846      	ldmia	r0!, {r1, r2, r6}
   26234:	c346      	stmia	r3!, {r1, r2, r6}
   26236:	c846      	ldmia	r0!, {r1, r2, r6}
   26238:	c346      	stmia	r3!, {r1, r2, r6}
   2623a:	c866      	ldmia	r0!, {r1, r2, r5, r6}
   2623c:	c366      	stmia	r3!, {r1, r2, r5, r6}
   2623e:	7800      	ldrb	r0, [r0, #0]
   26240:	7018      	strb	r0, [r3, #0]
   26242:	990a      	ldr	r1, [sp, #40]	@ 0x28
   26244:	0e08      	lsrs	r0, r1, #24
   26246:	9d0b      	ldr	r5, [sp, #44]	@ 0x2c
   26248:	71a8      	strb	r0, [r5, #6]
   2624a:	0c08      	lsrs	r0, r1, #16
   2624c:	7168      	strb	r0, [r5, #5]
   2624e:	0a08      	lsrs	r0, r1, #8
   26250:	7128      	strb	r0, [r5, #4]
   26252:	70e9      	strb	r1, [r5, #3]
   26254:	1de8      	adds	r0, r5, #7
   26256:	2235      	movs	r2, #53	@ 0x35
   26258:	990c      	ldr	r1, [sp, #48]	@ 0x30
   2625a:	f000 fe30 	bl	26ebe <__aeabi_memcpy>
   2625e:	4e05      	ldr	r6, [pc, #20]	@ (26274 <_start+0x2378>)
   26260:	446e      	add	r6, sp
   26262:	4630      	mov	r0, r6
   26264:	4629      	mov	r1, r5
   26266:	f7fb fd75 	bl	21d54 <_ZN18complex_no_dynamic3app17h64e652de6886c86fE>
   2626a:	7830      	ldrb	r0, [r6, #0]
   2626c:	2801      	cmp	r0, #1
   2626e:	d107      	bne.n	26280 <_start+0x2384>
   26270:	f000 fc54 	bl	26b1c <_start+0x2c20>
   26274:	000013cc 	.word	0x000013cc
   26278:	00000f40 	.word	0x00000f40
   2627c:	00001370 	.word	0x00001370
   26280:	4818      	ldr	r0, [pc, #96]	@ (262e4 <_start+0x23e8>)
   26282:	4468      	add	r0, sp
   26284:	78c1      	ldrb	r1, [r0, #3]
   26286:	4d18      	ldr	r5, [pc, #96]	@ (262e8 <_start+0x23ec>)
   26288:	446d      	add	r5, sp
   2628a:	70a9      	strb	r1, [r5, #2]
   2628c:	7841      	ldrb	r1, [r0, #1]
   2628e:	7882      	ldrb	r2, [r0, #2]
   26290:	0212      	lsls	r2, r2, #8
   26292:	1851      	adds	r1, r2, r1
   26294:	8029      	strh	r1, [r5, #0]
   26296:	3008      	adds	r0, #8
   26298:	9905      	ldr	r1, [sp, #20]
   2629a:	6e09      	ldr	r1, [r1, #96]	@ 0x60
   2629c:	910b      	str	r1, [sp, #44]	@ 0x2c
   2629e:	4b13      	ldr	r3, [pc, #76]	@ (262ec <_start+0x23f0>)
   262a0:	446b      	add	r3, sp
   262a2:	930c      	str	r3, [sp, #48]	@ 0x30
   262a4:	c846      	ldmia	r0!, {r1, r2, r6}
   262a6:	c346      	stmia	r3!, {r1, r2, r6}
   262a8:	c846      	ldmia	r0!, {r1, r2, r6}
   262aa:	c346      	stmia	r3!, {r1, r2, r6}
   262ac:	c846      	ldmia	r0!, {r1, r2, r6}
   262ae:	c346      	stmia	r3!, {r1, r2, r6}
   262b0:	7800      	ldrb	r0, [r0, #0]
   262b2:	7018      	strb	r0, [r3, #0]
   262b4:	990b      	ldr	r1, [sp, #44]	@ 0x2c
   262b6:	0e08      	lsrs	r0, r1, #24
   262b8:	71a8      	strb	r0, [r5, #6]
   262ba:	0c08      	lsrs	r0, r1, #16
   262bc:	7168      	strb	r0, [r5, #5]
   262be:	0a08      	lsrs	r0, r1, #8
   262c0:	7128      	strb	r0, [r5, #4]
   262c2:	70e9      	strb	r1, [r5, #3]
   262c4:	1de8      	adds	r0, r5, #7
   262c6:	2225      	movs	r2, #37	@ 0x25
   262c8:	990c      	ldr	r1, [sp, #48]	@ 0x30
   262ca:	f000 fdf8 	bl	26ebe <__aeabi_memcpy>
   262ce:	4e05      	ldr	r6, [pc, #20]	@ (262e4 <_start+0x23e8>)
   262d0:	446e      	add	r6, sp
   262d2:	4630      	mov	r0, r6
   262d4:	4629      	mov	r1, r5
   262d6:	f7fa feed 	bl	210b4 <_ZN18complex_no_dynamic3app17h40a3c36f83fae400E>
   262da:	7830      	ldrb	r0, [r6, #0]
   262dc:	2801      	cmp	r0, #1
   262de:	d107      	bne.n	262f0 <_start+0x23f4>
   262e0:	f000 fc1c 	bl	26b1c <_start+0x2c20>
   262e4:	000013cc 	.word	0x000013cc
   262e8:	00000f7c 	.word	0x00000f7c
   262ec:	00001370 	.word	0x00001370
   262f0:	4817      	ldr	r0, [pc, #92]	@ (26350 <_start+0x2454>)
   262f2:	4468      	add	r0, sp
   262f4:	78c1      	ldrb	r1, [r0, #3]
   262f6:	4b17      	ldr	r3, [pc, #92]	@ (26354 <_start+0x2458>)
   262f8:	446b      	add	r3, sp
   262fa:	930b      	str	r3, [sp, #44]	@ 0x2c
   262fc:	7099      	strb	r1, [r3, #2]
   262fe:	7841      	ldrb	r1, [r0, #1]
   26300:	7882      	ldrb	r2, [r0, #2]
   26302:	0212      	lsls	r2, r2, #8
   26304:	1851      	adds	r1, r2, r1
   26306:	8019      	strh	r1, [r3, #0]
   26308:	3008      	adds	r0, #8
   2630a:	9905      	ldr	r1, [sp, #20]
   2630c:	6e09      	ldr	r1, [r1, #96]	@ 0x60
   2630e:	910a      	str	r1, [sp, #40]	@ 0x28
   26310:	4b11      	ldr	r3, [pc, #68]	@ (26358 <_start+0x245c>)
   26312:	446b      	add	r3, sp
   26314:	930c      	str	r3, [sp, #48]	@ 0x30
   26316:	c866      	ldmia	r0!, {r1, r2, r5, r6}
   26318:	c366      	stmia	r3!, {r1, r2, r5, r6}
   2631a:	c866      	ldmia	r0!, {r1, r2, r5, r6}
   2631c:	c366      	stmia	r3!, {r1, r2, r5, r6}
   2631e:	990a      	ldr	r1, [sp, #40]	@ 0x28
   26320:	0e08      	lsrs	r0, r1, #24
   26322:	9d0b      	ldr	r5, [sp, #44]	@ 0x2c
   26324:	71a8      	strb	r0, [r5, #6]
   26326:	0c08      	lsrs	r0, r1, #16
   26328:	7168      	strb	r0, [r5, #5]
   2632a:	0a08      	lsrs	r0, r1, #8
   2632c:	7128      	strb	r0, [r5, #4]
   2632e:	70e9      	strb	r1, [r5, #3]
   26330:	1de8      	adds	r0, r5, #7
   26332:	2220      	movs	r2, #32
   26334:	990c      	ldr	r1, [sp, #48]	@ 0x30
   26336:	f000 fdc2 	bl	26ebe <__aeabi_memcpy>
   2633a:	4e05      	ldr	r6, [pc, #20]	@ (26350 <_start+0x2454>)
   2633c:	446e      	add	r6, sp
   2633e:	4630      	mov	r0, r6
   26340:	4629      	mov	r1, r5
   26342:	f7fc fa51 	bl	227e8 <_ZN18complex_no_dynamic3app17h903bdc396c272edaE>
   26346:	7830      	ldrb	r0, [r6, #0]
   26348:	2801      	cmp	r0, #1
   2634a:	d107      	bne.n	2635c <_start+0x2460>
   2634c:	e3e6      	b.n	26b1c <_start+0x2c20>
   2634e:	46c0      	nop			@ (mov r8, r8)
   26350:	000013cc 	.word	0x000013cc
   26354:	00000fa8 	.word	0x00000fa8
   26358:	00001370 	.word	0x00001370
   2635c:	4915      	ldr	r1, [pc, #84]	@ (263b4 <_start+0x24b8>)
   2635e:	4469      	add	r1, sp
   26360:	78c8      	ldrb	r0, [r1, #3]
   26362:	4d15      	ldr	r5, [pc, #84]	@ (263b8 <_start+0x24bc>)
   26364:	446d      	add	r5, sp
   26366:	70a8      	strb	r0, [r5, #2]
   26368:	7848      	ldrb	r0, [r1, #1]
   2636a:	788a      	ldrb	r2, [r1, #2]
   2636c:	0212      	lsls	r2, r2, #8
   2636e:	1810      	adds	r0, r2, r0
   26370:	8028      	strh	r0, [r5, #0]
   26372:	9805      	ldr	r0, [sp, #20]
   26374:	6e06      	ldr	r6, [r0, #96]	@ 0x60
   26376:	3108      	adds	r1, #8
   26378:	4810      	ldr	r0, [pc, #64]	@ (263bc <_start+0x24c0>)
   2637a:	4468      	add	r0, sp
   2637c:	900c      	str	r0, [sp, #48]	@ 0x30
   2637e:	2248      	movs	r2, #72	@ 0x48
   26380:	920b      	str	r2, [sp, #44]	@ 0x2c
   26382:	f000 fc3c 	bl	26bfe <__aeabi_memcpy4>
   26386:	0e30      	lsrs	r0, r6, #24
   26388:	71a8      	strb	r0, [r5, #6]
   2638a:	0c30      	lsrs	r0, r6, #16
   2638c:	7168      	strb	r0, [r5, #5]
   2638e:	0a30      	lsrs	r0, r6, #8
   26390:	7128      	strb	r0, [r5, #4]
   26392:	70ee      	strb	r6, [r5, #3]
   26394:	1de8      	adds	r0, r5, #7
   26396:	990c      	ldr	r1, [sp, #48]	@ 0x30
   26398:	9a0b      	ldr	r2, [sp, #44]	@ 0x2c
   2639a:	f000 fd90 	bl	26ebe <__aeabi_memcpy>
   2639e:	4e05      	ldr	r6, [pc, #20]	@ (263b4 <_start+0x24b8>)
   263a0:	446e      	add	r6, sp
   263a2:	4630      	mov	r0, r6
   263a4:	4629      	mov	r1, r5
   263a6:	f7fc fd6b 	bl	22e80 <_ZN18complex_no_dynamic3app17hb3c0eee8861a4852E>
   263aa:	7830      	ldrb	r0, [r6, #0]
   263ac:	2801      	cmp	r0, #1
   263ae:	d107      	bne.n	263c0 <_start+0x24c4>
   263b0:	e3b4      	b.n	26b1c <_start+0x2c20>
   263b2:	46c0      	nop			@ (mov r8, r8)
   263b4:	000013cc 	.word	0x000013cc
   263b8:	00000fd0 	.word	0x00000fd0
   263bc:	00001370 	.word	0x00001370
   263c0:	4819      	ldr	r0, [pc, #100]	@ (26428 <_start+0x252c>)
   263c2:	4468      	add	r0, sp
   263c4:	78c1      	ldrb	r1, [r0, #3]
   263c6:	4b19      	ldr	r3, [pc, #100]	@ (2642c <_start+0x2530>)
   263c8:	446b      	add	r3, sp
   263ca:	930b      	str	r3, [sp, #44]	@ 0x2c
   263cc:	7099      	strb	r1, [r3, #2]
   263ce:	7841      	ldrb	r1, [r0, #1]
   263d0:	7882      	ldrb	r2, [r0, #2]
   263d2:	0212      	lsls	r2, r2, #8
   263d4:	1851      	adds	r1, r2, r1
   263d6:	8019      	strh	r1, [r3, #0]
   263d8:	3008      	adds	r0, #8
   263da:	9905      	ldr	r1, [sp, #20]
   263dc:	6e09      	ldr	r1, [r1, #96]	@ 0x60
   263de:	910a      	str	r1, [sp, #40]	@ 0x28
   263e0:	4b13      	ldr	r3, [pc, #76]	@ (26430 <_start+0x2534>)
   263e2:	446b      	add	r3, sp
   263e4:	930c      	str	r3, [sp, #48]	@ 0x30
   263e6:	c846      	ldmia	r0!, {r1, r2, r6}
   263e8:	c346      	stmia	r3!, {r1, r2, r6}
   263ea:	c866      	ldmia	r0!, {r1, r2, r5, r6}
   263ec:	c366      	stmia	r3!, {r1, r2, r5, r6}
   263ee:	c866      	ldmia	r0!, {r1, r2, r5, r6}
   263f0:	c366      	stmia	r3!, {r1, r2, r5, r6}
   263f2:	8800      	ldrh	r0, [r0, #0]
   263f4:	8018      	strh	r0, [r3, #0]
   263f6:	990a      	ldr	r1, [sp, #40]	@ 0x28
   263f8:	0e08      	lsrs	r0, r1, #24
   263fa:	9d0b      	ldr	r5, [sp, #44]	@ 0x2c
   263fc:	71a8      	strb	r0, [r5, #6]
   263fe:	0c08      	lsrs	r0, r1, #16
   26400:	7168      	strb	r0, [r5, #5]
   26402:	0a08      	lsrs	r0, r1, #8
   26404:	7128      	strb	r0, [r5, #4]
   26406:	70e9      	strb	r1, [r5, #3]
   26408:	1de8      	adds	r0, r5, #7
   2640a:	222e      	movs	r2, #46	@ 0x2e
   2640c:	990c      	ldr	r1, [sp, #48]	@ 0x30
   2640e:	f000 fd56 	bl	26ebe <__aeabi_memcpy>
   26412:	4e05      	ldr	r6, [pc, #20]	@ (26428 <_start+0x252c>)
   26414:	446e      	add	r6, sp
   26416:	4630      	mov	r0, r6
   26418:	4629      	mov	r1, r5
   2641a:	f7fb fb49 	bl	21ab0 <_ZN18complex_no_dynamic3app17h5ebae6509f65e2bfE>
   2641e:	7830      	ldrb	r0, [r6, #0]
   26420:	2801      	cmp	r0, #1
   26422:	d107      	bne.n	26434 <_start+0x2538>
   26424:	e37a      	b.n	26b1c <_start+0x2c20>
   26426:	46c0      	nop			@ (mov r8, r8)
   26428:	000013cc 	.word	0x000013cc
   2642c:	00001020 	.word	0x00001020
   26430:	00001370 	.word	0x00001370
   26434:	4819      	ldr	r0, [pc, #100]	@ (2649c <_start+0x25a0>)
   26436:	4468      	add	r0, sp
   26438:	78c1      	ldrb	r1, [r0, #3]
   2643a:	4b19      	ldr	r3, [pc, #100]	@ (264a0 <_start+0x25a4>)
   2643c:	446b      	add	r3, sp
   2643e:	930b      	str	r3, [sp, #44]	@ 0x2c
   26440:	7099      	strb	r1, [r3, #2]
   26442:	7841      	ldrb	r1, [r0, #1]
   26444:	7882      	ldrb	r2, [r0, #2]
   26446:	0212      	lsls	r2, r2, #8
   26448:	1851      	adds	r1, r2, r1
   2644a:	8019      	strh	r1, [r3, #0]
   2644c:	3008      	adds	r0, #8
   2644e:	9905      	ldr	r1, [sp, #20]
   26450:	6e09      	ldr	r1, [r1, #96]	@ 0x60
   26452:	910a      	str	r1, [sp, #40]	@ 0x28
   26454:	4b13      	ldr	r3, [pc, #76]	@ (264a4 <_start+0x25a8>)
   26456:	446b      	add	r3, sp
   26458:	930c      	str	r3, [sp, #48]	@ 0x30
   2645a:	c846      	ldmia	r0!, {r1, r2, r6}
   2645c:	c346      	stmia	r3!, {r1, r2, r6}
   2645e:	c866      	ldmia	r0!, {r1, r2, r5, r6}
   26460:	c366      	stmia	r3!, {r1, r2, r5, r6}
   26462:	c826      	ldmia	r0!, {r1, r2, r5}
   26464:	c326      	stmia	r3!, {r1, r2, r5}
   26466:	c866      	ldmia	r0!, {r1, r2, r5, r6}
   26468:	c366      	stmia	r3!, {r1, r2, r5, r6}
   2646a:	990a      	ldr	r1, [sp, #40]	@ 0x28
   2646c:	0e08      	lsrs	r0, r1, #24
   2646e:	9d0b      	ldr	r5, [sp, #44]	@ 0x2c
   26470:	71a8      	strb	r0, [r5, #6]
   26472:	0c08      	lsrs	r0, r1, #16
   26474:	7168      	strb	r0, [r5, #5]
   26476:	0a08      	lsrs	r0, r1, #8
   26478:	7128      	strb	r0, [r5, #4]
   2647a:	70e9      	strb	r1, [r5, #3]
   2647c:	1de8      	adds	r0, r5, #7
   2647e:	2238      	movs	r2, #56	@ 0x38
   26480:	990c      	ldr	r1, [sp, #48]	@ 0x30
   26482:	f000 fd1c 	bl	26ebe <__aeabi_memcpy>
   26486:	4e05      	ldr	r6, [pc, #20]	@ (2649c <_start+0x25a0>)
   26488:	446e      	add	r6, sp
   2648a:	4630      	mov	r0, r6
   2648c:	4629      	mov	r1, r5
   2648e:	f7fd fae5 	bl	23a5c <_ZN18complex_no_dynamic3app17hf07f73e0d04e5bf4E>
   26492:	7830      	ldrb	r0, [r6, #0]
   26494:	2801      	cmp	r0, #1
   26496:	d107      	bne.n	264a8 <_start+0x25ac>
   26498:	e340      	b.n	26b1c <_start+0x2c20>
   2649a:	46c0      	nop			@ (mov r8, r8)
   2649c:	000013cc 	.word	0x000013cc
   264a0:	00001058 	.word	0x00001058
   264a4:	00001370 	.word	0x00001370
   264a8:	4815      	ldr	r0, [pc, #84]	@ (26500 <_start+0x2604>)
   264aa:	4468      	add	r0, sp
   264ac:	78c1      	ldrb	r1, [r0, #3]
   264ae:	4d15      	ldr	r5, [pc, #84]	@ (26504 <_start+0x2608>)
   264b0:	446d      	add	r5, sp
   264b2:	70a9      	strb	r1, [r5, #2]
   264b4:	7841      	ldrb	r1, [r0, #1]
   264b6:	7882      	ldrb	r2, [r0, #2]
   264b8:	0212      	lsls	r2, r2, #8
   264ba:	1851      	adds	r1, r2, r1
   264bc:	8029      	strh	r1, [r5, #0]
   264be:	3008      	adds	r0, #8
   264c0:	9905      	ldr	r1, [sp, #20]
   264c2:	6e09      	ldr	r1, [r1, #96]	@ 0x60
   264c4:	4b10      	ldr	r3, [pc, #64]	@ (26508 <_start+0x260c>)
   264c6:	446b      	add	r3, sp
   264c8:	930c      	str	r3, [sp, #48]	@ 0x30
   264ca:	c844      	ldmia	r0!, {r2, r6}
   264cc:	c344      	stmia	r3!, {r2, r6}
   264ce:	8800      	ldrh	r0, [r0, #0]
   264d0:	8018      	strh	r0, [r3, #0]
   264d2:	0e08      	lsrs	r0, r1, #24
   264d4:	71a8      	strb	r0, [r5, #6]
   264d6:	0c08      	lsrs	r0, r1, #16
   264d8:	7168      	strb	r0, [r5, #5]
   264da:	0a08      	lsrs	r0, r1, #8
   264dc:	7128      	strb	r0, [r5, #4]
   264de:	70e9      	strb	r1, [r5, #3]
   264e0:	1de8      	adds	r0, r5, #7
   264e2:	220a      	movs	r2, #10
   264e4:	990c      	ldr	r1, [sp, #48]	@ 0x30
   264e6:	f000 fcea 	bl	26ebe <__aeabi_memcpy>
   264ea:	4e05      	ldr	r6, [pc, #20]	@ (26500 <_start+0x2604>)
   264ec:	446e      	add	r6, sp
   264ee:	4630      	mov	r0, r6
   264f0:	4629      	mov	r1, r5
   264f2:	f7fc f8cd 	bl	22690 <_ZN18complex_no_dynamic3app17h887f0c4b27e1e108E>
   264f6:	7830      	ldrb	r0, [r6, #0]
   264f8:	2801      	cmp	r0, #1
   264fa:	d107      	bne.n	2650c <_start+0x2610>
   264fc:	e30e      	b.n	26b1c <_start+0x2c20>
   264fe:	46c0      	nop			@ (mov r8, r8)
   26500:	000013cc 	.word	0x000013cc
   26504:	00001098 	.word	0x00001098
   26508:	00001370 	.word	0x00001370
   2650c:	4819      	ldr	r0, [pc, #100]	@ (26574 <_start+0x2678>)
   2650e:	4468      	add	r0, sp
   26510:	78c1      	ldrb	r1, [r0, #3]
   26512:	4b19      	ldr	r3, [pc, #100]	@ (26578 <_start+0x267c>)
   26514:	446b      	add	r3, sp
   26516:	930b      	str	r3, [sp, #44]	@ 0x2c
   26518:	7099      	strb	r1, [r3, #2]
   2651a:	7841      	ldrb	r1, [r0, #1]
   2651c:	7882      	ldrb	r2, [r0, #2]
   2651e:	0212      	lsls	r2, r2, #8
   26520:	1851      	adds	r1, r2, r1
   26522:	8019      	strh	r1, [r3, #0]
   26524:	3008      	adds	r0, #8
   26526:	9905      	ldr	r1, [sp, #20]
   26528:	6e09      	ldr	r1, [r1, #96]	@ 0x60
   2652a:	910a      	str	r1, [sp, #40]	@ 0x28
   2652c:	4b13      	ldr	r3, [pc, #76]	@ (2657c <_start+0x2680>)
   2652e:	446b      	add	r3, sp
   26530:	930c      	str	r3, [sp, #48]	@ 0x30
   26532:	c846      	ldmia	r0!, {r1, r2, r6}
   26534:	c346      	stmia	r3!, {r1, r2, r6}
   26536:	c866      	ldmia	r0!, {r1, r2, r5, r6}
   26538:	c366      	stmia	r3!, {r1, r2, r5, r6}
   2653a:	c826      	ldmia	r0!, {r1, r2, r5}
   2653c:	c326      	stmia	r3!, {r1, r2, r5}
   2653e:	c866      	ldmia	r0!, {r1, r2, r5, r6}
   26540:	c366      	stmia	r3!, {r1, r2, r5, r6}
   26542:	990a      	ldr	r1, [sp, #40]	@ 0x28
   26544:	0e08      	lsrs	r0, r1, #24
   26546:	9d0b      	ldr	r5, [sp, #44]	@ 0x2c
   26548:	71a8      	strb	r0, [r5, #6]
   2654a:	0c08      	lsrs	r0, r1, #16
   2654c:	7168      	strb	r0, [r5, #5]
   2654e:	0a08      	lsrs	r0, r1, #8
   26550:	7128      	strb	r0, [r5, #4]
   26552:	70e9      	strb	r1, [r5, #3]
   26554:	1de8      	adds	r0, r5, #7
   26556:	2238      	movs	r2, #56	@ 0x38
   26558:	990c      	ldr	r1, [sp, #48]	@ 0x30
   2655a:	f000 fcb0 	bl	26ebe <__aeabi_memcpy>
   2655e:	4e05      	ldr	r6, [pc, #20]	@ (26574 <_start+0x2678>)
   26560:	446e      	add	r6, sp
   26562:	4630      	mov	r0, r6
   26564:	4629      	mov	r1, r5
   26566:	f7fd f87d 	bl	23664 <_ZN18complex_no_dynamic3app17hde416a1e17f27645E>
   2656a:	7830      	ldrb	r0, [r6, #0]
   2656c:	2801      	cmp	r0, #1
   2656e:	d107      	bne.n	26580 <_start+0x2684>
   26570:	e2d4      	b.n	26b1c <_start+0x2c20>
   26572:	46c0      	nop			@ (mov r8, r8)
   26574:	000013cc 	.word	0x000013cc
   26578:	000010ac 	.word	0x000010ac
   2657c:	00001370 	.word	0x00001370
   26580:	4817      	ldr	r0, [pc, #92]	@ (265e0 <_start+0x26e4>)
   26582:	4468      	add	r0, sp
   26584:	78c1      	ldrb	r1, [r0, #3]
   26586:	4d17      	ldr	r5, [pc, #92]	@ (265e4 <_start+0x26e8>)
   26588:	446d      	add	r5, sp
   2658a:	70a9      	strb	r1, [r5, #2]
   2658c:	7841      	ldrb	r1, [r0, #1]
   2658e:	7882      	ldrb	r2, [r0, #2]
   26590:	0212      	lsls	r2, r2, #8
   26592:	1851      	adds	r1, r2, r1
   26594:	8029      	strh	r1, [r5, #0]
   26596:	3008      	adds	r0, #8
   26598:	9905      	ldr	r1, [sp, #20]
   2659a:	6e09      	ldr	r1, [r1, #96]	@ 0x60
   2659c:	910b      	str	r1, [sp, #44]	@ 0x2c
   2659e:	4b12      	ldr	r3, [pc, #72]	@ (265e8 <_start+0x26ec>)
   265a0:	446b      	add	r3, sp
   265a2:	930c      	str	r3, [sp, #48]	@ 0x30
   265a4:	c844      	ldmia	r0!, {r2, r6}
   265a6:	c344      	stmia	r3!, {r2, r6}
   265a8:	c846      	ldmia	r0!, {r1, r2, r6}
   265aa:	c346      	stmia	r3!, {r1, r2, r6}
   265ac:	7800      	ldrb	r0, [r0, #0]
   265ae:	7018      	strb	r0, [r3, #0]
   265b0:	990b      	ldr	r1, [sp, #44]	@ 0x2c
   265b2:	0e08      	lsrs	r0, r1, #24
   265b4:	71a8      	strb	r0, [r5, #6]
   265b6:	0c08      	lsrs	r0, r1, #16
   265b8:	7168      	strb	r0, [r5, #5]
   265ba:	0a08      	lsrs	r0, r1, #8
   265bc:	7128      	strb	r0, [r5, #4]
   265be:	70e9      	strb	r1, [r5, #3]
   265c0:	1de8      	adds	r0, r5, #7
   265c2:	2215      	movs	r2, #21
   265c4:	990c      	ldr	r1, [sp, #48]	@ 0x30
   265c6:	f000 fc7a 	bl	26ebe <__aeabi_memcpy>
   265ca:	4e05      	ldr	r6, [pc, #20]	@ (265e0 <_start+0x26e4>)
   265cc:	446e      	add	r6, sp
   265ce:	4630      	mov	r0, r6
   265d0:	4629      	mov	r1, r5
   265d2:	f7fa fc1d 	bl	20e10 <_ZN18complex_no_dynamic3app17h35721d0d59c2786cE>
   265d6:	7830      	ldrb	r0, [r6, #0]
   265d8:	2801      	cmp	r0, #1
   265da:	d107      	bne.n	265ec <_start+0x26f0>
   265dc:	e29e      	b.n	26b1c <_start+0x2c20>
   265de:	46c0      	nop			@ (mov r8, r8)
   265e0:	000013cc 	.word	0x000013cc
   265e4:	000010ec 	.word	0x000010ec
   265e8:	00001370 	.word	0x00001370
   265ec:	4915      	ldr	r1, [pc, #84]	@ (26644 <_start+0x2748>)
   265ee:	4469      	add	r1, sp
   265f0:	78c8      	ldrb	r0, [r1, #3]
   265f2:	4d15      	ldr	r5, [pc, #84]	@ (26648 <_start+0x274c>)
   265f4:	446d      	add	r5, sp
   265f6:	70a8      	strb	r0, [r5, #2]
   265f8:	7848      	ldrb	r0, [r1, #1]
   265fa:	788a      	ldrb	r2, [r1, #2]
   265fc:	0212      	lsls	r2, r2, #8
   265fe:	1810      	adds	r0, r2, r0
   26600:	8028      	strh	r0, [r5, #0]
   26602:	9805      	ldr	r0, [sp, #20]
   26604:	6e06      	ldr	r6, [r0, #96]	@ 0x60
   26606:	3108      	adds	r1, #8
   26608:	4810      	ldr	r0, [pc, #64]	@ (2664c <_start+0x2750>)
   2660a:	4468      	add	r0, sp
   2660c:	900c      	str	r0, [sp, #48]	@ 0x30
   2660e:	2256      	movs	r2, #86	@ 0x56
   26610:	920b      	str	r2, [sp, #44]	@ 0x2c
   26612:	f000 faf4 	bl	26bfe <__aeabi_memcpy4>
   26616:	0e30      	lsrs	r0, r6, #24
   26618:	71a8      	strb	r0, [r5, #6]
   2661a:	0c30      	lsrs	r0, r6, #16
   2661c:	7168      	strb	r0, [r5, #5]
   2661e:	0a30      	lsrs	r0, r6, #8
   26620:	7128      	strb	r0, [r5, #4]
   26622:	70ee      	strb	r6, [r5, #3]
   26624:	1de8      	adds	r0, r5, #7
   26626:	990c      	ldr	r1, [sp, #48]	@ 0x30
   26628:	9a0b      	ldr	r2, [sp, #44]	@ 0x2c
   2662a:	f000 fc48 	bl	26ebe <__aeabi_memcpy>
   2662e:	4e05      	ldr	r6, [pc, #20]	@ (26644 <_start+0x2748>)
   26630:	446e      	add	r6, sp
   26632:	4630      	mov	r0, r6
   26634:	4629      	mov	r1, r5
   26636:	f7f9 ffa5 	bl	20584 <_ZN18complex_no_dynamic3app17h19f2d6b141ae7f95E>
   2663a:	7830      	ldrb	r0, [r6, #0]
   2663c:	2801      	cmp	r0, #1
   2663e:	d107      	bne.n	26650 <_start+0x2754>
   26640:	e26c      	b.n	26b1c <_start+0x2c20>
   26642:	46c0      	nop			@ (mov r8, r8)
   26644:	000013cc 	.word	0x000013cc
   26648:	00001108 	.word	0x00001108
   2664c:	00001370 	.word	0x00001370
   26650:	4816      	ldr	r0, [pc, #88]	@ (266ac <_start+0x27b0>)
   26652:	4468      	add	r0, sp
   26654:	78c1      	ldrb	r1, [r0, #3]
   26656:	4d16      	ldr	r5, [pc, #88]	@ (266b0 <_start+0x27b4>)
   26658:	446d      	add	r5, sp
   2665a:	70a9      	strb	r1, [r5, #2]
   2665c:	7841      	ldrb	r1, [r0, #1]
   2665e:	7882      	ldrb	r2, [r0, #2]
   26660:	0212      	lsls	r2, r2, #8
   26662:	1851      	adds	r1, r2, r1
   26664:	8029      	strh	r1, [r5, #0]
   26666:	3008      	adds	r0, #8
   26668:	9905      	ldr	r1, [sp, #20]
   2666a:	6e09      	ldr	r1, [r1, #96]	@ 0x60
   2666c:	4b11      	ldr	r3, [pc, #68]	@ (266b4 <_start+0x27b8>)
   2666e:	446b      	add	r3, sp
   26670:	930c      	str	r3, [sp, #48]	@ 0x30
   26672:	c844      	ldmia	r0!, {r2, r6}
   26674:	c344      	stmia	r3!, {r2, r6}
   26676:	8802      	ldrh	r2, [r0, #0]
   26678:	801a      	strh	r2, [r3, #0]
   2667a:	7880      	ldrb	r0, [r0, #2]
   2667c:	7098      	strb	r0, [r3, #2]
   2667e:	0e08      	lsrs	r0, r1, #24
   26680:	71a8      	strb	r0, [r5, #6]
   26682:	0c08      	lsrs	r0, r1, #16
   26684:	7168      	strb	r0, [r5, #5]
   26686:	0a08      	lsrs	r0, r1, #8
   26688:	7128      	strb	r0, [r5, #4]
   2668a:	70e9      	strb	r1, [r5, #3]
   2668c:	1de8      	adds	r0, r5, #7
   2668e:	220b      	movs	r2, #11
   26690:	990c      	ldr	r1, [sp, #48]	@ 0x30
   26692:	f000 fc14 	bl	26ebe <__aeabi_memcpy>
   26696:	4e05      	ldr	r6, [pc, #20]	@ (266ac <_start+0x27b0>)
   26698:	446e      	add	r6, sp
   2669a:	4630      	mov	r0, r6
   2669c:	4629      	mov	r1, r5
   2669e:	f7fc f94b 	bl	22938 <_ZN18complex_no_dynamic3app17h95ad1baf67d39998E>
   266a2:	7830      	ldrb	r0, [r6, #0]
   266a4:	2801      	cmp	r0, #1
   266a6:	d107      	bne.n	266b8 <_start+0x27bc>
   266a8:	e238      	b.n	26b1c <_start+0x2c20>
   266aa:	46c0      	nop			@ (mov r8, r8)
   266ac:	000013cc 	.word	0x000013cc
   266b0:	00001168 	.word	0x00001168
   266b4:	00001370 	.word	0x00001370
   266b8:	481a      	ldr	r0, [pc, #104]	@ (26724 <_start+0x2828>)
   266ba:	4468      	add	r0, sp
   266bc:	78c1      	ldrb	r1, [r0, #3]
   266be:	4b1a      	ldr	r3, [pc, #104]	@ (26728 <_start+0x282c>)
   266c0:	446b      	add	r3, sp
   266c2:	930b      	str	r3, [sp, #44]	@ 0x2c
   266c4:	7099      	strb	r1, [r3, #2]
   266c6:	7841      	ldrb	r1, [r0, #1]
   266c8:	7882      	ldrb	r2, [r0, #2]
   266ca:	0212      	lsls	r2, r2, #8
   266cc:	1851      	adds	r1, r2, r1
   266ce:	8019      	strh	r1, [r3, #0]
   266d0:	3008      	adds	r0, #8
   266d2:	9905      	ldr	r1, [sp, #20]
   266d4:	6e09      	ldr	r1, [r1, #96]	@ 0x60
   266d6:	910a      	str	r1, [sp, #40]	@ 0x28
   266d8:	4b14      	ldr	r3, [pc, #80]	@ (2672c <_start+0x2830>)
   266da:	446b      	add	r3, sp
   266dc:	930c      	str	r3, [sp, #48]	@ 0x30
   266de:	c846      	ldmia	r0!, {r1, r2, r6}
   266e0:	c346      	stmia	r3!, {r1, r2, r6}
   266e2:	c866      	ldmia	r0!, {r1, r2, r5, r6}
   266e4:	c366      	stmia	r3!, {r1, r2, r5, r6}
   266e6:	c866      	ldmia	r0!, {r1, r2, r5, r6}
   266e8:	c366      	stmia	r3!, {r1, r2, r5, r6}
   266ea:	c866      	ldmia	r0!, {r1, r2, r5, r6}
   266ec:	c366      	stmia	r3!, {r1, r2, r5, r6}
   266ee:	7800      	ldrb	r0, [r0, #0]
   266f0:	7018      	strb	r0, [r3, #0]
   266f2:	990a      	ldr	r1, [sp, #40]	@ 0x28
   266f4:	0e08      	lsrs	r0, r1, #24
   266f6:	9d0b      	ldr	r5, [sp, #44]	@ 0x2c
   266f8:	71a8      	strb	r0, [r5, #6]
   266fa:	0c08      	lsrs	r0, r1, #16
   266fc:	7168      	strb	r0, [r5, #5]
   266fe:	0a08      	lsrs	r0, r1, #8
   26700:	7128      	strb	r0, [r5, #4]
   26702:	70e9      	strb	r1, [r5, #3]
   26704:	1de8      	adds	r0, r5, #7
   26706:	223d      	movs	r2, #61	@ 0x3d
   26708:	990c      	ldr	r1, [sp, #48]	@ 0x30
   2670a:	f000 fbd8 	bl	26ebe <__aeabi_memcpy>
   2670e:	4e05      	ldr	r6, [pc, #20]	@ (26724 <_start+0x2828>)
   26710:	446e      	add	r6, sp
   26712:	4630      	mov	r0, r6
   26714:	4629      	mov	r1, r5
   26716:	f7fa fe77 	bl	21408 <_ZN18complex_no_dynamic3app17h4b7ecd4fec7f429dE>
   2671a:	7830      	ldrb	r0, [r6, #0]
   2671c:	2801      	cmp	r0, #1
   2671e:	d107      	bne.n	26730 <_start+0x2834>
   26720:	e1fc      	b.n	26b1c <_start+0x2c20>
   26722:	46c0      	nop			@ (mov r8, r8)
   26724:	000013cc 	.word	0x000013cc
   26728:	0000117c 	.word	0x0000117c
   2672c:	00001370 	.word	0x00001370
   26730:	48fd      	ldr	r0, [pc, #1012]	@ (26b28 <_start+0x2c2c>)
   26732:	4468      	add	r0, sp
   26734:	78c1      	ldrb	r1, [r0, #3]
   26736:	4bfe      	ldr	r3, [pc, #1016]	@ (26b30 <_start+0x2c34>)
   26738:	446b      	add	r3, sp
   2673a:	930b      	str	r3, [sp, #44]	@ 0x2c
   2673c:	7099      	strb	r1, [r3, #2]
   2673e:	7841      	ldrb	r1, [r0, #1]
   26740:	7882      	ldrb	r2, [r0, #2]
   26742:	0212      	lsls	r2, r2, #8
   26744:	1851      	adds	r1, r2, r1
   26746:	8019      	strh	r1, [r3, #0]
   26748:	3008      	adds	r0, #8
   2674a:	9905      	ldr	r1, [sp, #20]
   2674c:	6e09      	ldr	r1, [r1, #96]	@ 0x60
   2674e:	910a      	str	r1, [sp, #40]	@ 0x28
   26750:	4bf9      	ldr	r3, [pc, #996]	@ (26b38 <_start+0x2c3c>)
   26752:	446b      	add	r3, sp
   26754:	930c      	str	r3, [sp, #48]	@ 0x30
   26756:	c846      	ldmia	r0!, {r1, r2, r6}
   26758:	c346      	stmia	r3!, {r1, r2, r6}
   2675a:	c866      	ldmia	r0!, {r1, r2, r5, r6}
   2675c:	c366      	stmia	r3!, {r1, r2, r5, r6}
   2675e:	990a      	ldr	r1, [sp, #40]	@ 0x28
   26760:	0e08      	lsrs	r0, r1, #24
   26762:	9d0b      	ldr	r5, [sp, #44]	@ 0x2c
   26764:	71a8      	strb	r0, [r5, #6]
   26766:	0c08      	lsrs	r0, r1, #16
   26768:	7168      	strb	r0, [r5, #5]
   2676a:	0a08      	lsrs	r0, r1, #8
   2676c:	7128      	strb	r0, [r5, #4]
   2676e:	70e9      	strb	r1, [r5, #3]
   26770:	1de8      	adds	r0, r5, #7
   26772:	221c      	movs	r2, #28
   26774:	990c      	ldr	r1, [sp, #48]	@ 0x30
   26776:	f000 fba2 	bl	26ebe <__aeabi_memcpy>
   2677a:	4eee      	ldr	r6, [pc, #952]	@ (26b34 <_start+0x2c38>)
   2677c:	446e      	add	r6, sp
   2677e:	4630      	mov	r0, r6
   26780:	4629      	mov	r1, r5
   26782:	f7fa fe95 	bl	214b0 <_ZN18complex_no_dynamic3app17h4d540c0ce39355cfE>
   26786:	7830      	ldrb	r0, [r6, #0]
   26788:	2801      	cmp	r0, #1
   2678a:	d100      	bne.n	2678e <_start+0x2892>
   2678c:	e1c6      	b.n	26b1c <_start+0x2c20>
   2678e:	48e9      	ldr	r0, [pc, #932]	@ (26b34 <_start+0x2c38>)
   26790:	4468      	add	r0, sp
   26792:	78c1      	ldrb	r1, [r0, #3]
   26794:	4be9      	ldr	r3, [pc, #932]	@ (26b3c <_start+0x2c40>)
   26796:	446b      	add	r3, sp
   26798:	930b      	str	r3, [sp, #44]	@ 0x2c
   2679a:	7099      	strb	r1, [r3, #2]
   2679c:	7841      	ldrb	r1, [r0, #1]
   2679e:	7882      	ldrb	r2, [r0, #2]
   267a0:	0212      	lsls	r2, r2, #8
   267a2:	1851      	adds	r1, r2, r1
   267a4:	8019      	strh	r1, [r3, #0]
   267a6:	3008      	adds	r0, #8
   267a8:	9905      	ldr	r1, [sp, #20]
   267aa:	6e09      	ldr	r1, [r1, #96]	@ 0x60
   267ac:	910a      	str	r1, [sp, #40]	@ 0x28
   267ae:	4be2      	ldr	r3, [pc, #904]	@ (26b38 <_start+0x2c3c>)
   267b0:	446b      	add	r3, sp
   267b2:	930c      	str	r3, [sp, #48]	@ 0x30
   267b4:	c846      	ldmia	r0!, {r1, r2, r6}
   267b6:	c346      	stmia	r3!, {r1, r2, r6}
   267b8:	c866      	ldmia	r0!, {r1, r2, r5, r6}
   267ba:	c366      	stmia	r3!, {r1, r2, r5, r6}
   267bc:	7800      	ldrb	r0, [r0, #0]
   267be:	7018      	strb	r0, [r3, #0]
   267c0:	990a      	ldr	r1, [sp, #40]	@ 0x28
   267c2:	0e08      	lsrs	r0, r1, #24
   267c4:	9d0b      	ldr	r5, [sp, #44]	@ 0x2c
   267c6:	71a8      	strb	r0, [r5, #6]
   267c8:	0c08      	lsrs	r0, r1, #16
   267ca:	7168      	strb	r0, [r5, #5]
   267cc:	0a08      	lsrs	r0, r1, #8
   267ce:	7128      	strb	r0, [r5, #4]
   267d0:	70e9      	strb	r1, [r5, #3]
   267d2:	1de8      	adds	r0, r5, #7
   267d4:	221d      	movs	r2, #29
   267d6:	990c      	ldr	r1, [sp, #48]	@ 0x30
   267d8:	f000 fb71 	bl	26ebe <__aeabi_memcpy>
   267dc:	4ed5      	ldr	r6, [pc, #852]	@ (26b34 <_start+0x2c38>)
   267de:	446e      	add	r6, sp
   267e0:	4630      	mov	r0, r6
   267e2:	4629      	mov	r1, r5
   267e4:	f7fa f91a 	bl	20a1c <_ZN18complex_no_dynamic3app17h2660726a9670e191E>
   267e8:	7830      	ldrb	r0, [r6, #0]
   267ea:	2801      	cmp	r0, #1
   267ec:	d100      	bne.n	267f0 <_start+0x28f4>
   267ee:	e195      	b.n	26b1c <_start+0x2c20>
   267f0:	48d0      	ldr	r0, [pc, #832]	@ (26b34 <_start+0x2c38>)
   267f2:	4468      	add	r0, sp
   267f4:	78c1      	ldrb	r1, [r0, #3]
   267f6:	4bd2      	ldr	r3, [pc, #840]	@ (26b40 <_start+0x2c44>)
   267f8:	446b      	add	r3, sp
   267fa:	930b      	str	r3, [sp, #44]	@ 0x2c
   267fc:	7099      	strb	r1, [r3, #2]
   267fe:	7841      	ldrb	r1, [r0, #1]
   26800:	7882      	ldrb	r2, [r0, #2]
   26802:	0212      	lsls	r2, r2, #8
   26804:	1851      	adds	r1, r2, r1
   26806:	8019      	strh	r1, [r3, #0]
   26808:	3008      	adds	r0, #8
   2680a:	9905      	ldr	r1, [sp, #20]
   2680c:	6e09      	ldr	r1, [r1, #96]	@ 0x60
   2680e:	910a      	str	r1, [sp, #40]	@ 0x28
   26810:	4bc9      	ldr	r3, [pc, #804]	@ (26b38 <_start+0x2c3c>)
   26812:	446b      	add	r3, sp
   26814:	930c      	str	r3, [sp, #48]	@ 0x30
   26816:	c846      	ldmia	r0!, {r1, r2, r6}
   26818:	c346      	stmia	r3!, {r1, r2, r6}
   2681a:	c846      	ldmia	r0!, {r1, r2, r6}
   2681c:	c346      	stmia	r3!, {r1, r2, r6}
   2681e:	c866      	ldmia	r0!, {r1, r2, r5, r6}
   26820:	c366      	stmia	r3!, {r1, r2, r5, r6}
   26822:	990a      	ldr	r1, [sp, #40]	@ 0x28
   26824:	0e08      	lsrs	r0, r1, #24
   26826:	9d0b      	ldr	r5, [sp, #44]	@ 0x2c
   26828:	71a8      	strb	r0, [r5, #6]
   2682a:	0c08      	lsrs	r0, r1, #16
   2682c:	7168      	strb	r0, [r5, #5]
   2682e:	0a08      	lsrs	r0, r1, #8
   26830:	7128      	strb	r0, [r5, #4]
   26832:	70e9      	strb	r1, [r5, #3]
   26834:	1de8      	adds	r0, r5, #7
   26836:	2228      	movs	r2, #40	@ 0x28
   26838:	990c      	ldr	r1, [sp, #48]	@ 0x30
   2683a:	f000 fb40 	bl	26ebe <__aeabi_memcpy>
   2683e:	4ebd      	ldr	r6, [pc, #756]	@ (26b34 <_start+0x2c38>)
   26840:	446e      	add	r6, sp
   26842:	4630      	mov	r0, r6
   26844:	4629      	mov	r1, r5
   26846:	f7fd fab1 	bl	23dac <_ZN18complex_no_dynamic3app17hfc2d85b47eae8a86E>
   2684a:	7830      	ldrb	r0, [r6, #0]
   2684c:	2801      	cmp	r0, #1
   2684e:	d100      	bne.n	26852 <_start+0x2956>
   26850:	e164      	b.n	26b1c <_start+0x2c20>
   26852:	49b8      	ldr	r1, [pc, #736]	@ (26b34 <_start+0x2c38>)
   26854:	4469      	add	r1, sp
   26856:	78c8      	ldrb	r0, [r1, #3]
   26858:	4dba      	ldr	r5, [pc, #744]	@ (26b44 <_start+0x2c48>)
   2685a:	446d      	add	r5, sp
   2685c:	70a8      	strb	r0, [r5, #2]
   2685e:	7848      	ldrb	r0, [r1, #1]
   26860:	788a      	ldrb	r2, [r1, #2]
   26862:	0212      	lsls	r2, r2, #8
   26864:	1810      	adds	r0, r2, r0
   26866:	8028      	strh	r0, [r5, #0]
   26868:	9805      	ldr	r0, [sp, #20]
   2686a:	6e06      	ldr	r6, [r0, #96]	@ 0x60
   2686c:	3108      	adds	r1, #8
   2686e:	48b2      	ldr	r0, [pc, #712]	@ (26b38 <_start+0x2c3c>)
   26870:	4468      	add	r0, sp
   26872:	900c      	str	r0, [sp, #48]	@ 0x30
   26874:	2257      	movs	r2, #87	@ 0x57
   26876:	920b      	str	r2, [sp, #44]	@ 0x2c
   26878:	f000 f9c1 	bl	26bfe <__aeabi_memcpy4>
   2687c:	0e30      	lsrs	r0, r6, #24
   2687e:	71a8      	strb	r0, [r5, #6]
   26880:	0c30      	lsrs	r0, r6, #16
   26882:	7168      	strb	r0, [r5, #5]
   26884:	0a30      	lsrs	r0, r6, #8
   26886:	7128      	strb	r0, [r5, #4]
   26888:	70ee      	strb	r6, [r5, #3]
   2688a:	1de8      	adds	r0, r5, #7
   2688c:	990c      	ldr	r1, [sp, #48]	@ 0x30
   2688e:	9a0b      	ldr	r2, [sp, #44]	@ 0x2c
   26890:	f000 fb15 	bl	26ebe <__aeabi_memcpy>
   26894:	4ea7      	ldr	r6, [pc, #668]	@ (26b34 <_start+0x2c38>)
   26896:	446e      	add	r6, sp
   26898:	4630      	mov	r0, r6
   2689a:	4629      	mov	r1, r5
   2689c:	f7fb fda8 	bl	223f0 <_ZN18complex_no_dynamic3app17h800deb7d79e5aa0fE>
   268a0:	7830      	ldrb	r0, [r6, #0]
   268a2:	2801      	cmp	r0, #1
   268a4:	d100      	bne.n	268a8 <_start+0x29ac>
   268a6:	e139      	b.n	26b1c <_start+0x2c20>
   268a8:	49a2      	ldr	r1, [pc, #648]	@ (26b34 <_start+0x2c38>)
   268aa:	4469      	add	r1, sp
   268ac:	78c8      	ldrb	r0, [r1, #3]
   268ae:	4da6      	ldr	r5, [pc, #664]	@ (26b48 <_start+0x2c4c>)
   268b0:	446d      	add	r5, sp
   268b2:	70a8      	strb	r0, [r5, #2]
   268b4:	7848      	ldrb	r0, [r1, #1]
   268b6:	788a      	ldrb	r2, [r1, #2]
   268b8:	0212      	lsls	r2, r2, #8
   268ba:	1810      	adds	r0, r2, r0
   268bc:	8028      	strh	r0, [r5, #0]
   268be:	9805      	ldr	r0, [sp, #20]
   268c0:	6e06      	ldr	r6, [r0, #96]	@ 0x60
   268c2:	3108      	adds	r1, #8
   268c4:	489c      	ldr	r0, [pc, #624]	@ (26b38 <_start+0x2c3c>)
   268c6:	4468      	add	r0, sp
   268c8:	900c      	str	r0, [sp, #48]	@ 0x30
   268ca:	224e      	movs	r2, #78	@ 0x4e
   268cc:	920b      	str	r2, [sp, #44]	@ 0x2c
   268ce:	f000 f996 	bl	26bfe <__aeabi_memcpy4>
   268d2:	0e30      	lsrs	r0, r6, #24
   268d4:	71a8      	strb	r0, [r5, #6]
   268d6:	0c30      	lsrs	r0, r6, #16
   268d8:	7168      	strb	r0, [r5, #5]
   268da:	0a30      	lsrs	r0, r6, #8
   268dc:	7128      	strb	r0, [r5, #4]
   268de:	70ee      	strb	r6, [r5, #3]
   268e0:	1de8      	adds	r0, r5, #7
   268e2:	990c      	ldr	r1, [sp, #48]	@ 0x30
   268e4:	9a0b      	ldr	r2, [sp, #44]	@ 0x2c
   268e6:	f000 faea 	bl	26ebe <__aeabi_memcpy>
   268ea:	4e92      	ldr	r6, [pc, #584]	@ (26b34 <_start+0x2c38>)
   268ec:	446e      	add	r6, sp
   268ee:	4630      	mov	r0, r6
   268f0:	4629      	mov	r1, r5
   268f2:	f7fa fe87 	bl	21604 <_ZN18complex_no_dynamic3app17h508c9b77c44b3849E>
   268f6:	7830      	ldrb	r0, [r6, #0]
   268f8:	2801      	cmp	r0, #1
   268fa:	d100      	bne.n	268fe <_start+0x2a02>
   268fc:	e10e      	b.n	26b1c <_start+0x2c20>
   268fe:	488d      	ldr	r0, [pc, #564]	@ (26b34 <_start+0x2c38>)
   26900:	4468      	add	r0, sp
   26902:	78c1      	ldrb	r1, [r0, #3]
   26904:	4d91      	ldr	r5, [pc, #580]	@ (26b4c <_start+0x2c50>)
   26906:	446d      	add	r5, sp
   26908:	70a9      	strb	r1, [r5, #2]
   2690a:	7841      	ldrb	r1, [r0, #1]
   2690c:	7882      	ldrb	r2, [r0, #2]
   2690e:	0212      	lsls	r2, r2, #8
   26910:	1851      	adds	r1, r2, r1
   26912:	8029      	strh	r1, [r5, #0]
   26914:	3008      	adds	r0, #8
   26916:	9905      	ldr	r1, [sp, #20]
   26918:	6e09      	ldr	r1, [r1, #96]	@ 0x60
   2691a:	4b87      	ldr	r3, [pc, #540]	@ (26b38 <_start+0x2c3c>)
   2691c:	446b      	add	r3, sp
   2691e:	930c      	str	r3, [sp, #48]	@ 0x30
   26920:	c844      	ldmia	r0!, {r2, r6}
   26922:	c344      	stmia	r3!, {r2, r6}
   26924:	8800      	ldrh	r0, [r0, #0]
   26926:	8018      	strh	r0, [r3, #0]
   26928:	0e08      	lsrs	r0, r1, #24
   2692a:	71a8      	strb	r0, [r5, #6]
   2692c:	0c08      	lsrs	r0, r1, #16
   2692e:	7168      	strb	r0, [r5, #5]
   26930:	0a08      	lsrs	r0, r1, #8
   26932:	7128      	strb	r0, [r5, #4]
   26934:	70e9      	strb	r1, [r5, #3]
   26936:	1de8      	adds	r0, r5, #7
   26938:	220a      	movs	r2, #10
   2693a:	990c      	ldr	r1, [sp, #48]	@ 0x30
   2693c:	f000 fabf 	bl	26ebe <__aeabi_memcpy>
   26940:	4e7c      	ldr	r6, [pc, #496]	@ (26b34 <_start+0x2c38>)
   26942:	446e      	add	r6, sp
   26944:	4630      	mov	r0, r6
   26946:	4629      	mov	r1, r5
   26948:	f7fa f964 	bl	20c14 <_ZN18complex_no_dynamic3app17h335b306c1aa1705eE>
   2694c:	7830      	ldrb	r0, [r6, #0]
   2694e:	2801      	cmp	r0, #1
   26950:	d100      	bne.n	26954 <_start+0x2a58>
   26952:	e0e3      	b.n	26b1c <_start+0x2c20>
   26954:	4977      	ldr	r1, [pc, #476]	@ (26b34 <_start+0x2c38>)
   26956:	4469      	add	r1, sp
   26958:	78c8      	ldrb	r0, [r1, #3]
   2695a:	4d7d      	ldr	r5, [pc, #500]	@ (26b50 <_start+0x2c54>)
   2695c:	446d      	add	r5, sp
   2695e:	70a8      	strb	r0, [r5, #2]
   26960:	7848      	ldrb	r0, [r1, #1]
   26962:	788a      	ldrb	r2, [r1, #2]
   26964:	0212      	lsls	r2, r2, #8
   26966:	1810      	adds	r0, r2, r0
   26968:	8028      	strh	r0, [r5, #0]
   2696a:	9805      	ldr	r0, [sp, #20]
   2696c:	6e06      	ldr	r6, [r0, #96]	@ 0x60
   2696e:	3108      	adds	r1, #8
   26970:	4871      	ldr	r0, [pc, #452]	@ (26b38 <_start+0x2c3c>)
   26972:	4468      	add	r0, sp
   26974:	900c      	str	r0, [sp, #48]	@ 0x30
   26976:	2249      	movs	r2, #73	@ 0x49
   26978:	920b      	str	r2, [sp, #44]	@ 0x2c
   2697a:	f000 f940 	bl	26bfe <__aeabi_memcpy4>
   2697e:	0e30      	lsrs	r0, r6, #24
   26980:	71a8      	strb	r0, [r5, #6]
   26982:	0c30      	lsrs	r0, r6, #16
   26984:	7168      	strb	r0, [r5, #5]
   26986:	0a30      	lsrs	r0, r6, #8
   26988:	7128      	strb	r0, [r5, #4]
   2698a:	70ee      	strb	r6, [r5, #3]
   2698c:	1de8      	adds	r0, r5, #7
   2698e:	990c      	ldr	r1, [sp, #48]	@ 0x30
   26990:	9a0b      	ldr	r2, [sp, #44]	@ 0x2c
   26992:	f000 fa94 	bl	26ebe <__aeabi_memcpy>
   26996:	4e67      	ldr	r6, [pc, #412]	@ (26b34 <_start+0x2c38>)
   26998:	446e      	add	r6, sp
   2699a:	4630      	mov	r0, r6
   2699c:	4629      	mov	r1, r5
   2699e:	f7fb fc7b 	bl	22298 <_ZN18complex_no_dynamic3app17h7a28b9e72e0caff9E>
   269a2:	7830      	ldrb	r0, [r6, #0]
   269a4:	2801      	cmp	r0, #1
   269a6:	d100      	bne.n	269aa <_start+0x2aae>
   269a8:	e0b8      	b.n	26b1c <_start+0x2c20>
   269aa:	4862      	ldr	r0, [pc, #392]	@ (26b34 <_start+0x2c38>)
   269ac:	4468      	add	r0, sp
   269ae:	78c1      	ldrb	r1, [r0, #3]
   269b0:	4d68      	ldr	r5, [pc, #416]	@ (26b54 <_start+0x2c58>)
   269b2:	446d      	add	r5, sp
   269b4:	70a9      	strb	r1, [r5, #2]
   269b6:	7841      	ldrb	r1, [r0, #1]
   269b8:	7882      	ldrb	r2, [r0, #2]
   269ba:	0212      	lsls	r2, r2, #8
   269bc:	1851      	adds	r1, r2, r1
   269be:	8029      	strh	r1, [r5, #0]
   269c0:	3008      	adds	r0, #8
   269c2:	9905      	ldr	r1, [sp, #20]
   269c4:	6e09      	ldr	r1, [r1, #96]	@ 0x60
   269c6:	910b      	str	r1, [sp, #44]	@ 0x2c
   269c8:	4b5b      	ldr	r3, [pc, #364]	@ (26b38 <_start+0x2c3c>)
   269ca:	446b      	add	r3, sp
   269cc:	930c      	str	r3, [sp, #48]	@ 0x30
   269ce:	c844      	ldmia	r0!, {r2, r6}
   269d0:	c344      	stmia	r3!, {r2, r6}
   269d2:	c846      	ldmia	r0!, {r1, r2, r6}
   269d4:	c346      	stmia	r3!, {r1, r2, r6}
   269d6:	990b      	ldr	r1, [sp, #44]	@ 0x2c
   269d8:	0e08      	lsrs	r0, r1, #24
   269da:	71a8      	strb	r0, [r5, #6]
   269dc:	0c08      	lsrs	r0, r1, #16
   269de:	7168      	strb	r0, [r5, #5]
   269e0:	0a08      	lsrs	r0, r1, #8
   269e2:	7128      	strb	r0, [r5, #4]
   269e4:	70e9      	strb	r1, [r5, #3]
   269e6:	1de8      	adds	r0, r5, #7
   269e8:	2214      	movs	r2, #20
   269ea:	990c      	ldr	r1, [sp, #48]	@ 0x30
   269ec:	f000 fa67 	bl	26ebe <__aeabi_memcpy>
   269f0:	4e50      	ldr	r6, [pc, #320]	@ (26b34 <_start+0x2c38>)
   269f2:	446e      	add	r6, sp
   269f4:	4630      	mov	r0, r6
   269f6:	4629      	mov	r1, r5
   269f8:	f7fb f902 	bl	21c00 <_ZN18complex_no_dynamic3app17h616cb232a816834aE>
   269fc:	7830      	ldrb	r0, [r6, #0]
   269fe:	2801      	cmp	r0, #1
   26a00:	d100      	bne.n	26a04 <_start+0x2b08>
   26a02:	e08b      	b.n	26b1c <_start+0x2c20>
   26a04:	494b      	ldr	r1, [pc, #300]	@ (26b34 <_start+0x2c38>)
   26a06:	4469      	add	r1, sp
   26a08:	78c8      	ldrb	r0, [r1, #3]
   26a0a:	4d53      	ldr	r5, [pc, #332]	@ (26b58 <_start+0x2c5c>)
   26a0c:	446d      	add	r5, sp
   26a0e:	70a8      	strb	r0, [r5, #2]
   26a10:	7848      	ldrb	r0, [r1, #1]
   26a12:	788a      	ldrb	r2, [r1, #2]
   26a14:	0212      	lsls	r2, r2, #8
   26a16:	1810      	adds	r0, r2, r0
   26a18:	8028      	strh	r0, [r5, #0]
   26a1a:	9805      	ldr	r0, [sp, #20]
   26a1c:	6e06      	ldr	r6, [r0, #96]	@ 0x60
   26a1e:	3108      	adds	r1, #8
   26a20:	4845      	ldr	r0, [pc, #276]	@ (26b38 <_start+0x2c3c>)
   26a22:	4468      	add	r0, sp
   26a24:	900c      	str	r0, [sp, #48]	@ 0x30
   26a26:	225c      	movs	r2, #92	@ 0x5c
   26a28:	920b      	str	r2, [sp, #44]	@ 0x2c
   26a2a:	f000 f8e8 	bl	26bfe <__aeabi_memcpy4>
   26a2e:	0e30      	lsrs	r0, r6, #24
   26a30:	71a8      	strb	r0, [r5, #6]
   26a32:	0c30      	lsrs	r0, r6, #16
   26a34:	7168      	strb	r0, [r5, #5]
   26a36:	0a30      	lsrs	r0, r6, #8
   26a38:	7128      	strb	r0, [r5, #4]
   26a3a:	70ee      	strb	r6, [r5, #3]
   26a3c:	1de8      	adds	r0, r5, #7
   26a3e:	990c      	ldr	r1, [sp, #48]	@ 0x30
   26a40:	9a0b      	ldr	r2, [sp, #44]	@ 0x2c
   26a42:	f000 fa3c 	bl	26ebe <__aeabi_memcpy>
   26a46:	4e3b      	ldr	r6, [pc, #236]	@ (26b34 <_start+0x2c38>)
   26a48:	446e      	add	r6, sp
   26a4a:	4630      	mov	r0, r6
   26a4c:	4629      	mov	r1, r5
   26a4e:	f7fc fb6b 	bl	23128 <_ZN18complex_no_dynamic3app17hc96da75b6909bb5dE>
   26a52:	7830      	ldrb	r0, [r6, #0]
   26a54:	2801      	cmp	r0, #1
   26a56:	d061      	beq.n	26b1c <_start+0x2c20>
   26a58:	4836      	ldr	r0, [pc, #216]	@ (26b34 <_start+0x2c38>)
   26a5a:	4468      	add	r0, sp
   26a5c:	78c1      	ldrb	r1, [r0, #3]
   26a5e:	4d3f      	ldr	r5, [pc, #252]	@ (26b5c <_start+0x2c60>)
   26a60:	446d      	add	r5, sp
   26a62:	70a9      	strb	r1, [r5, #2]
   26a64:	7841      	ldrb	r1, [r0, #1]
   26a66:	7882      	ldrb	r2, [r0, #2]
   26a68:	0212      	lsls	r2, r2, #8
   26a6a:	1851      	adds	r1, r2, r1
   26a6c:	8029      	strh	r1, [r5, #0]
   26a6e:	3008      	adds	r0, #8
   26a70:	9905      	ldr	r1, [sp, #20]
   26a72:	6e09      	ldr	r1, [r1, #96]	@ 0x60
   26a74:	910b      	str	r1, [sp, #44]	@ 0x2c
   26a76:	4b30      	ldr	r3, [pc, #192]	@ (26b38 <_start+0x2c3c>)
   26a78:	446b      	add	r3, sp
   26a7a:	930c      	str	r3, [sp, #48]	@ 0x30
   26a7c:	c846      	ldmia	r0!, {r1, r2, r6}
   26a7e:	c346      	stmia	r3!, {r1, r2, r6}
   26a80:	c846      	ldmia	r0!, {r1, r2, r6}
   26a82:	c346      	stmia	r3!, {r1, r2, r6}
   26a84:	c846      	ldmia	r0!, {r1, r2, r6}
   26a86:	c346      	stmia	r3!, {r1, r2, r6}
   26a88:	7800      	ldrb	r0, [r0, #0]
   26a8a:	7018      	strb	r0, [r3, #0]
   26a8c:	990b      	ldr	r1, [sp, #44]	@ 0x2c
   26a8e:	0e08      	lsrs	r0, r1, #24
   26a90:	71a8      	strb	r0, [r5, #6]
   26a92:	0c08      	lsrs	r0, r1, #16
   26a94:	7168      	strb	r0, [r5, #5]
   26a96:	0a08      	lsrs	r0, r1, #8
   26a98:	7128      	strb	r0, [r5, #4]
   26a9a:	70e9      	strb	r1, [r5, #3]
   26a9c:	1de8      	adds	r0, r5, #7
   26a9e:	2225      	movs	r2, #37	@ 0x25
   26aa0:	990c      	ldr	r1, [sp, #48]	@ 0x30
   26aa2:	f000 fa0c 	bl	26ebe <__aeabi_memcpy>
   26aa6:	4e23      	ldr	r6, [pc, #140]	@ (26b34 <_start+0x2c38>)
   26aa8:	446e      	add	r6, sp
   26aaa:	4630      	mov	r0, r6
   26aac:	4629      	mov	r1, r5
   26aae:	f7fa fbab 	bl	21208 <_ZN18complex_no_dynamic3app17h421f06b6f352be0dE>
   26ab2:	7830      	ldrb	r0, [r6, #0]
   26ab4:	2801      	cmp	r0, #1
   26ab6:	d031      	beq.n	26b1c <_start+0x2c20>
   26ab8:	481e      	ldr	r0, [pc, #120]	@ (26b34 <_start+0x2c38>)
   26aba:	4468      	add	r0, sp
   26abc:	78c1      	ldrb	r1, [r0, #3]
   26abe:	4b28      	ldr	r3, [pc, #160]	@ (26b60 <_start+0x2c64>)
   26ac0:	446b      	add	r3, sp
   26ac2:	930b      	str	r3, [sp, #44]	@ 0x2c
   26ac4:	7099      	strb	r1, [r3, #2]
   26ac6:	7841      	ldrb	r1, [r0, #1]
   26ac8:	7882      	ldrb	r2, [r0, #2]
   26aca:	0212      	lsls	r2, r2, #8
   26acc:	1851      	adds	r1, r2, r1
   26ace:	8019      	strh	r1, [r3, #0]
   26ad0:	3008      	adds	r0, #8
   26ad2:	9905      	ldr	r1, [sp, #20]
   26ad4:	6e09      	ldr	r1, [r1, #96]	@ 0x60
   26ad6:	910a      	str	r1, [sp, #40]	@ 0x28
   26ad8:	4b17      	ldr	r3, [pc, #92]	@ (26b38 <_start+0x2c3c>)
   26ada:	446b      	add	r3, sp
   26adc:	930c      	str	r3, [sp, #48]	@ 0x30
   26ade:	c866      	ldmia	r0!, {r1, r2, r5, r6}
   26ae0:	c366      	stmia	r3!, {r1, r2, r5, r6}
   26ae2:	c866      	ldmia	r0!, {r1, r2, r5, r6}
   26ae4:	c366      	stmia	r3!, {r1, r2, r5, r6}
   26ae6:	8801      	ldrh	r1, [r0, #0]
   26ae8:	8019      	strh	r1, [r3, #0]
   26aea:	7880      	ldrb	r0, [r0, #2]
   26aec:	7098      	strb	r0, [r3, #2]
   26aee:	990a      	ldr	r1, [sp, #40]	@ 0x28
   26af0:	0e08      	lsrs	r0, r1, #24
   26af2:	9d0b      	ldr	r5, [sp, #44]	@ 0x2c
   26af4:	71a8      	strb	r0, [r5, #6]
   26af6:	0c08      	lsrs	r0, r1, #16
   26af8:	7168      	strb	r0, [r5, #5]
   26afa:	0a08      	lsrs	r0, r1, #8
   26afc:	7128      	strb	r0, [r5, #4]
   26afe:	70e9      	strb	r1, [r5, #3]
   26b00:	1de8      	adds	r0, r5, #7
   26b02:	2223      	movs	r2, #35	@ 0x23
   26b04:	990c      	ldr	r1, [sp, #48]	@ 0x30
   26b06:	f000 f9da 	bl	26ebe <__aeabi_memcpy>
   26b0a:	4e0a      	ldr	r6, [pc, #40]	@ (26b34 <_start+0x2c38>)
   26b0c:	446e      	add	r6, sp
   26b0e:	4630      	mov	r0, r6
   26b10:	4629      	mov	r1, r5
   26b12:	f7fb ff65 	bl	229e0 <_ZN18complex_no_dynamic3app17h972dd659c4248329E>
   26b16:	7830      	ldrb	r0, [r6, #0]
   26b18:	2801      	cmp	r0, #1
   26b1a:	d107      	bne.n	26b2c <_start+0x2c30>
   26b1c:	9805      	ldr	r0, [sp, #20]
   26b1e:	6e00      	ldr	r0, [r0, #96]	@ 0x60
   26b20:	900c      	str	r0, [sp, #48]	@ 0x30
   26b22:	f7fd fa26 	bl	23f72 <_start+0x76>
   26b26:	46c0      	nop			@ (mov r8, r8)
   26b28:	000013cc 	.word	0x000013cc
   26b2c:	f7fd fa22 	bl	23f74 <_start+0x78>
   26b30:	000011c0 	.word	0x000011c0
   26b34:	000013cc 	.word	0x000013cc
   26b38:	00001370 	.word	0x00001370
   26b3c:	000011e4 	.word	0x000011e4
   26b40:	00001208 	.word	0x00001208
   26b44:	00001238 	.word	0x00001238
   26b48:	00001298 	.word	0x00001298
   26b4c:	000012f0 	.word	0x000012f0
   26b50:	00001304 	.word	0x00001304
   26b54:	00001354 	.word	0x00001354
   26b58:	00001430 	.word	0x00001430
   26b5c:	00001494 	.word	0x00001494
   26b60:	000014c0 	.word	0x000014c0

00026b64 <__aeabi_memclr4>:
   26b64:	b5f0      	push	{r4, r5, r6, r7, lr}
   26b66:	af03      	add	r7, sp, #12
   26b68:	2904      	cmp	r1, #4
   26b6a:	d311      	bcc.n	26b90 <__aeabi_memclr4+0x2c>
   26b6c:	1f0c      	subs	r4, r1, #4
   26b6e:	250c      	movs	r5, #12
   26b70:	4025      	ands	r5, r4
   26b72:	2d0c      	cmp	r5, #12
   26b74:	d012      	beq.n	26b9c <__aeabi_memclr4+0x38>
   26b76:	2600      	movs	r6, #0
   26b78:	4602      	mov	r2, r0
   26b7a:	c240      	stmia	r2!, {r6}
   26b7c:	0723      	lsls	r3, r4, #28
   26b7e:	0f9b      	lsrs	r3, r3, #30
   26b80:	4623      	mov	r3, r4
   26b82:	d00d      	beq.n	26ba0 <__aeabi_memclr4+0x3c>
   26b84:	6046      	str	r6, [r0, #4]
   26b86:	2d04      	cmp	r5, #4
   26b88:	d105      	bne.n	26b96 <__aeabi_memclr4+0x32>
   26b8a:	3908      	subs	r1, #8
   26b8c:	3008      	adds	r0, #8
   26b8e:	e005      	b.n	26b9c <__aeabi_memclr4+0x38>
   26b90:	460b      	mov	r3, r1
   26b92:	4602      	mov	r2, r0
   26b94:	e00f      	b.n	26bb6 <__aeabi_memclr4+0x52>
   26b96:	6086      	str	r6, [r0, #8]
   26b98:	390c      	subs	r1, #12
   26b9a:	300c      	adds	r0, #12
   26b9c:	4602      	mov	r2, r0
   26b9e:	460b      	mov	r3, r1
   26ba0:	2c0c      	cmp	r4, #12
   26ba2:	d308      	bcc.n	26bb6 <__aeabi_memclr4+0x52>
   26ba4:	2000      	movs	r0, #0
   26ba6:	6010      	str	r0, [r2, #0]
   26ba8:	6050      	str	r0, [r2, #4]
   26baa:	6090      	str	r0, [r2, #8]
   26bac:	60d0      	str	r0, [r2, #12]
   26bae:	3210      	adds	r2, #16
   26bb0:	3b10      	subs	r3, #16
   26bb2:	2b03      	cmp	r3, #3
   26bb4:	d8f6      	bhi.n	26ba4 <__aeabi_memclr4+0x40>
   26bb6:	18d0      	adds	r0, r2, r3
   26bb8:	4282      	cmp	r2, r0
   26bba:	d21a      	bcs.n	26bf2 <__aeabi_memclr4+0x8e>
   26bbc:	2403      	movs	r4, #3
   26bbe:	401c      	ands	r4, r3
   26bc0:	1e59      	subs	r1, r3, #1
   26bc2:	2c00      	cmp	r4, #0
   26bc4:	d00b      	beq.n	26bde <__aeabi_memclr4+0x7a>
   26bc6:	2300      	movs	r3, #0
   26bc8:	7013      	strb	r3, [r2, #0]
   26bca:	2c01      	cmp	r4, #1
   26bcc:	d103      	bne.n	26bd6 <__aeabi_memclr4+0x72>
   26bce:	1c52      	adds	r2, r2, #1
   26bd0:	2903      	cmp	r1, #3
   26bd2:	d206      	bcs.n	26be2 <__aeabi_memclr4+0x7e>
   26bd4:	e00d      	b.n	26bf2 <__aeabi_memclr4+0x8e>
   26bd6:	7053      	strb	r3, [r2, #1]
   26bd8:	2c02      	cmp	r4, #2
   26bda:	d10b      	bne.n	26bf4 <__aeabi_memclr4+0x90>
   26bdc:	1c92      	adds	r2, r2, #2
   26bde:	2903      	cmp	r1, #3
   26be0:	d307      	bcc.n	26bf2 <__aeabi_memclr4+0x8e>
   26be2:	2100      	movs	r1, #0
   26be4:	70d1      	strb	r1, [r2, #3]
   26be6:	7091      	strb	r1, [r2, #2]
   26be8:	7051      	strb	r1, [r2, #1]
   26bea:	7011      	strb	r1, [r2, #0]
   26bec:	1d12      	adds	r2, r2, #4
   26bee:	4282      	cmp	r2, r0
   26bf0:	d1f7      	bne.n	26be2 <__aeabi_memclr4+0x7e>
   26bf2:	bdf0      	pop	{r4, r5, r6, r7, pc}
   26bf4:	7093      	strb	r3, [r2, #2]
   26bf6:	1cd2      	adds	r2, r2, #3
   26bf8:	2903      	cmp	r1, #3
   26bfa:	d2f2      	bcs.n	26be2 <__aeabi_memclr4+0x7e>
   26bfc:	e7f9      	b.n	26bf2 <__aeabi_memclr4+0x8e>

00026bfe <__aeabi_memcpy4>:
   26bfe:	b5f0      	push	{r4, r5, r6, r7, lr}
   26c00:	af03      	add	r7, sp, #12
   26c02:	b081      	sub	sp, #4
   26c04:	2a04      	cmp	r2, #4
   26c06:	d32d      	bcc.n	26c64 <__aeabi_memcpy4+0x66>
   26c08:	1f13      	subs	r3, r2, #4
   26c0a:	250c      	movs	r5, #12
   26c0c:	401d      	ands	r5, r3
   26c0e:	2d0c      	cmp	r5, #12
   26c10:	d019      	beq.n	26c46 <__aeabi_memcpy4+0x48>
   26c12:	9200      	str	r2, [sp, #0]
   26c14:	460e      	mov	r6, r1
   26c16:	c904      	ldmia	r1!, {r2}
   26c18:	4604      	mov	r4, r0
   26c1a:	c004      	stmia	r0!, {r2}
   26c1c:	071a      	lsls	r2, r3, #28
   26c1e:	0f92      	lsrs	r2, r2, #30
   26c20:	461a      	mov	r2, r3
   26c22:	d010      	beq.n	26c46 <__aeabi_memcpy4+0x48>
   26c24:	4631      	mov	r1, r6
   26c26:	6872      	ldr	r2, [r6, #4]
   26c28:	6062      	str	r2, [r4, #4]
   26c2a:	2d04      	cmp	r5, #4
   26c2c:	d104      	bne.n	26c38 <__aeabi_memcpy4+0x3a>
   26c2e:	9a00      	ldr	r2, [sp, #0]
   26c30:	3a08      	subs	r2, #8
   26c32:	3108      	adds	r1, #8
   26c34:	3408      	adds	r4, #8
   26c36:	e005      	b.n	26c44 <__aeabi_memcpy4+0x46>
   26c38:	688a      	ldr	r2, [r1, #8]
   26c3a:	60a2      	str	r2, [r4, #8]
   26c3c:	9a00      	ldr	r2, [sp, #0]
   26c3e:	3a0c      	subs	r2, #12
   26c40:	310c      	adds	r1, #12
   26c42:	340c      	adds	r4, #12
   26c44:	4620      	mov	r0, r4
   26c46:	2b0c      	cmp	r3, #12
   26c48:	d30c      	bcc.n	26c64 <__aeabi_memcpy4+0x66>
   26c4a:	680b      	ldr	r3, [r1, #0]
   26c4c:	6003      	str	r3, [r0, #0]
   26c4e:	684b      	ldr	r3, [r1, #4]
   26c50:	6043      	str	r3, [r0, #4]
   26c52:	688b      	ldr	r3, [r1, #8]
   26c54:	6083      	str	r3, [r0, #8]
   26c56:	68cb      	ldr	r3, [r1, #12]
   26c58:	60c3      	str	r3, [r0, #12]
   26c5a:	3110      	adds	r1, #16
   26c5c:	3010      	adds	r0, #16
   26c5e:	3a10      	subs	r2, #16
   26c60:	2a03      	cmp	r2, #3
   26c62:	d8f2      	bhi.n	26c4a <__aeabi_memcpy4+0x4c>
   26c64:	f000 f802 	bl	26c6c <_ZN17compiler_builtins3mem6memcpy17h1f9dbb1c3fd18e2fE>
   26c68:	b001      	add	sp, #4
   26c6a:	bdf0      	pop	{r4, r5, r6, r7, pc}

00026c6c <_ZN17compiler_builtins3mem6memcpy17h1f9dbb1c3fd18e2fE>:
   26c6c:	b5f0      	push	{r4, r5, r6, r7, lr}
   26c6e:	af03      	add	r7, sp, #12
   26c70:	b08f      	sub	sp, #60	@ 0x3c
   26c72:	2a10      	cmp	r2, #16
   26c74:	d315      	bcc.n	26ca2 <_ZN17compiler_builtins3mem6memcpy17h1f9dbb1c3fd18e2fE+0x36>
   26c76:	920b      	str	r2, [sp, #44]	@ 0x2c
   26c78:	4242      	negs	r2, r0
   26c7a:	2303      	movs	r3, #3
   26c7c:	9308      	str	r3, [sp, #32]
   26c7e:	401a      	ands	r2, r3
   26c80:	1885      	adds	r5, r0, r2
   26c82:	900a      	str	r0, [sp, #40]	@ 0x28
   26c84:	42a8      	cmp	r0, r5
   26c86:	d22a      	bcs.n	26cde <_ZN17compiler_builtins3mem6memcpy17h1f9dbb1c3fd18e2fE+0x72>
   26c88:	1e54      	subs	r4, r2, #1
   26c8a:	2a00      	cmp	r2, #0
   26c8c:	980a      	ldr	r0, [sp, #40]	@ 0x28
   26c8e:	4606      	mov	r6, r0
   26c90:	460b      	mov	r3, r1
   26c92:	d016      	beq.n	26cc2 <_ZN17compiler_builtins3mem6memcpy17h1f9dbb1c3fd18e2fE+0x56>
   26c94:	780b      	ldrb	r3, [r1, #0]
   26c96:	7003      	strb	r3, [r0, #0]
   26c98:	2a01      	cmp	r2, #1
   26c9a:	d107      	bne.n	26cac <_ZN17compiler_builtins3mem6memcpy17h1f9dbb1c3fd18e2fE+0x40>
   26c9c:	1c4b      	adds	r3, r1, #1
   26c9e:	1c46      	adds	r6, r0, #1
   26ca0:	e00f      	b.n	26cc2 <_ZN17compiler_builtins3mem6memcpy17h1f9dbb1c3fd18e2fE+0x56>
   26ca2:	4603      	mov	r3, r0
   26ca4:	189c      	adds	r4, r3, r2
   26ca6:	42a3      	cmp	r3, r4
   26ca8:	d341      	bcc.n	26d2e <_ZN17compiler_builtins3mem6memcpy17h1f9dbb1c3fd18e2fE+0xc2>
   26caa:	e062      	b.n	26d72 <_ZN17compiler_builtins3mem6memcpy17h1f9dbb1c3fd18e2fE+0x106>
   26cac:	784b      	ldrb	r3, [r1, #1]
   26cae:	7043      	strb	r3, [r0, #1]
   26cb0:	2a02      	cmp	r2, #2
   26cb2:	d102      	bne.n	26cba <_ZN17compiler_builtins3mem6memcpy17h1f9dbb1c3fd18e2fE+0x4e>
   26cb4:	1c8b      	adds	r3, r1, #2
   26cb6:	1c86      	adds	r6, r0, #2
   26cb8:	e003      	b.n	26cc2 <_ZN17compiler_builtins3mem6memcpy17h1f9dbb1c3fd18e2fE+0x56>
   26cba:	788b      	ldrb	r3, [r1, #2]
   26cbc:	7083      	strb	r3, [r0, #2]
   26cbe:	1ccb      	adds	r3, r1, #3
   26cc0:	1cc6      	adds	r6, r0, #3
   26cc2:	2c03      	cmp	r4, #3
   26cc4:	d30b      	bcc.n	26cde <_ZN17compiler_builtins3mem6memcpy17h1f9dbb1c3fd18e2fE+0x72>
   26cc6:	781c      	ldrb	r4, [r3, #0]
   26cc8:	7034      	strb	r4, [r6, #0]
   26cca:	785c      	ldrb	r4, [r3, #1]
   26ccc:	7074      	strb	r4, [r6, #1]
   26cce:	789c      	ldrb	r4, [r3, #2]
   26cd0:	70b4      	strb	r4, [r6, #2]
   26cd2:	78dc      	ldrb	r4, [r3, #3]
   26cd4:	70f4      	strb	r4, [r6, #3]
   26cd6:	1d1b      	adds	r3, r3, #4
   26cd8:	1d36      	adds	r6, r6, #4
   26cda:	42ae      	cmp	r6, r5
   26cdc:	d1f3      	bne.n	26cc6 <_ZN17compiler_builtins3mem6memcpy17h1f9dbb1c3fd18e2fE+0x5a>
   26cde:	980b      	ldr	r0, [sp, #44]	@ 0x2c
   26ce0:	1a80      	subs	r0, r0, r2
   26ce2:	900b      	str	r0, [sp, #44]	@ 0x2c
   26ce4:	9c08      	ldr	r4, [sp, #32]
   26ce6:	43a0      	bics	r0, r4
   26ce8:	182b      	adds	r3, r5, r0
   26cea:	188e      	adds	r6, r1, r2
   26cec:	9609      	str	r6, [sp, #36]	@ 0x24
   26cee:	4026      	ands	r6, r4
   26cf0:	9007      	str	r0, [sp, #28]
   26cf2:	d147      	bne.n	26d84 <_ZN17compiler_builtins3mem6memcpy17h1f9dbb1c3fd18e2fE+0x118>
   26cf4:	429d      	cmp	r5, r3
   26cf6:	9a0b      	ldr	r2, [sp, #44]	@ 0x2c
   26cf8:	9e09      	ldr	r6, [sp, #36]	@ 0x24
   26cfa:	d211      	bcs.n	26d20 <_ZN17compiler_builtins3mem6memcpy17h1f9dbb1c3fd18e2fE+0xb4>
   26cfc:	4631      	mov	r1, r6
   26cfe:	6808      	ldr	r0, [r1, #0]
   26d00:	c501      	stmia	r5!, {r0}
   26d02:	429d      	cmp	r5, r3
   26d04:	d20c      	bcs.n	26d20 <_ZN17compiler_builtins3mem6memcpy17h1f9dbb1c3fd18e2fE+0xb4>
   26d06:	6848      	ldr	r0, [r1, #4]
   26d08:	c501      	stmia	r5!, {r0}
   26d0a:	429d      	cmp	r5, r3
   26d0c:	d208      	bcs.n	26d20 <_ZN17compiler_builtins3mem6memcpy17h1f9dbb1c3fd18e2fE+0xb4>
   26d0e:	6888      	ldr	r0, [r1, #8]
   26d10:	c501      	stmia	r5!, {r0}
   26d12:	429d      	cmp	r5, r3
   26d14:	d204      	bcs.n	26d20 <_ZN17compiler_builtins3mem6memcpy17h1f9dbb1c3fd18e2fE+0xb4>
   26d16:	68c8      	ldr	r0, [r1, #12]
   26d18:	c501      	stmia	r5!, {r0}
   26d1a:	3110      	adds	r1, #16
   26d1c:	429d      	cmp	r5, r3
   26d1e:	d3ee      	bcc.n	26cfe <_ZN17compiler_builtins3mem6memcpy17h1f9dbb1c3fd18e2fE+0x92>
   26d20:	4022      	ands	r2, r4
   26d22:	9807      	ldr	r0, [sp, #28]
   26d24:	1831      	adds	r1, r6, r0
   26d26:	980a      	ldr	r0, [sp, #40]	@ 0x28
   26d28:	189c      	adds	r4, r3, r2
   26d2a:	42a3      	cmp	r3, r4
   26d2c:	d221      	bcs.n	26d72 <_ZN17compiler_builtins3mem6memcpy17h1f9dbb1c3fd18e2fE+0x106>
   26d2e:	2503      	movs	r5, #3
   26d30:	4015      	ands	r5, r2
   26d32:	1e52      	subs	r2, r2, #1
   26d34:	2d00      	cmp	r5, #0
   26d36:	d00e      	beq.n	26d56 <_ZN17compiler_builtins3mem6memcpy17h1f9dbb1c3fd18e2fE+0xea>
   26d38:	780e      	ldrb	r6, [r1, #0]
   26d3a:	701e      	strb	r6, [r3, #0]
   26d3c:	2d01      	cmp	r5, #1
   26d3e:	d104      	bne.n	26d4a <_ZN17compiler_builtins3mem6memcpy17h1f9dbb1c3fd18e2fE+0xde>
   26d40:	1c49      	adds	r1, r1, #1
   26d42:	1c5b      	adds	r3, r3, #1
   26d44:	2a03      	cmp	r2, #3
   26d46:	d208      	bcs.n	26d5a <_ZN17compiler_builtins3mem6memcpy17h1f9dbb1c3fd18e2fE+0xee>
   26d48:	e013      	b.n	26d72 <_ZN17compiler_builtins3mem6memcpy17h1f9dbb1c3fd18e2fE+0x106>
   26d4a:	784e      	ldrb	r6, [r1, #1]
   26d4c:	705e      	strb	r6, [r3, #1]
   26d4e:	2d02      	cmp	r5, #2
   26d50:	d111      	bne.n	26d76 <_ZN17compiler_builtins3mem6memcpy17h1f9dbb1c3fd18e2fE+0x10a>
   26d52:	1c89      	adds	r1, r1, #2
   26d54:	1c9b      	adds	r3, r3, #2
   26d56:	2a03      	cmp	r2, #3
   26d58:	d30b      	bcc.n	26d72 <_ZN17compiler_builtins3mem6memcpy17h1f9dbb1c3fd18e2fE+0x106>
   26d5a:	780a      	ldrb	r2, [r1, #0]
   26d5c:	701a      	strb	r2, [r3, #0]
   26d5e:	784a      	ldrb	r2, [r1, #1]
   26d60:	705a      	strb	r2, [r3, #1]
   26d62:	788a      	ldrb	r2, [r1, #2]
   26d64:	709a      	strb	r2, [r3, #2]
   26d66:	78ca      	ldrb	r2, [r1, #3]
   26d68:	70da      	strb	r2, [r3, #3]
   26d6a:	1d09      	adds	r1, r1, #4
   26d6c:	1d1b      	adds	r3, r3, #4
   26d6e:	42a3      	cmp	r3, r4
   26d70:	d1f3      	bne.n	26d5a <_ZN17compiler_builtins3mem6memcpy17h1f9dbb1c3fd18e2fE+0xee>
   26d72:	b00f      	add	sp, #60	@ 0x3c
   26d74:	bdf0      	pop	{r4, r5, r6, r7, pc}
   26d76:	788d      	ldrb	r5, [r1, #2]
   26d78:	709d      	strb	r5, [r3, #2]
   26d7a:	1cc9      	adds	r1, r1, #3
   26d7c:	1cdb      	adds	r3, r3, #3
   26d7e:	2a03      	cmp	r2, #3
   26d80:	d2eb      	bcs.n	26d5a <_ZN17compiler_builtins3mem6memcpy17h1f9dbb1c3fd18e2fE+0xee>
   26d82:	e7f6      	b.n	26d72 <_ZN17compiler_builtins3mem6memcpy17h1f9dbb1c3fd18e2fE+0x106>
   26d84:	2400      	movs	r4, #0
   26d86:	9406      	str	r4, [sp, #24]
   26d88:	940e      	str	r4, [sp, #56]	@ 0x38
   26d8a:	ac0e      	add	r4, sp, #56	@ 0x38
   26d8c:	19a4      	adds	r4, r4, r6
   26d8e:	9405      	str	r4, [sp, #20]
   26d90:	2404      	movs	r4, #4
   26d92:	1ba4      	subs	r4, r4, r6
   26d94:	9404      	str	r4, [sp, #16]
   26d96:	07e4      	lsls	r4, r4, #31
   26d98:	9600      	str	r6, [sp, #0]
   26d9a:	d006      	beq.n	26daa <_ZN17compiler_builtins3mem6memcpy17h1f9dbb1c3fd18e2fE+0x13e>
   26d9c:	9c09      	ldr	r4, [sp, #36]	@ 0x24
   26d9e:	7824      	ldrb	r4, [r4, #0]
   26da0:	9e05      	ldr	r6, [sp, #20]
   26da2:	7034      	strb	r4, [r6, #0]
   26da4:	9e00      	ldr	r6, [sp, #0]
   26da6:	2401      	movs	r4, #1
   26da8:	9406      	str	r4, [sp, #24]
   26daa:	9c04      	ldr	r4, [sp, #16]
   26dac:	07a4      	lsls	r4, r4, #30
   26dae:	d508      	bpl.n	26dc2 <_ZN17compiler_builtins3mem6memcpy17h1f9dbb1c3fd18e2fE+0x156>
   26db0:	9c09      	ldr	r4, [sp, #36]	@ 0x24
   26db2:	9204      	str	r2, [sp, #16]
   26db4:	9a06      	ldr	r2, [sp, #24]
   26db6:	5aa4      	ldrh	r4, [r4, r2]
   26db8:	9e05      	ldr	r6, [sp, #20]
   26dba:	9a06      	ldr	r2, [sp, #24]
   26dbc:	52b4      	strh	r4, [r6, r2]
   26dbe:	9a04      	ldr	r2, [sp, #16]
   26dc0:	9e00      	ldr	r6, [sp, #0]
   26dc2:	00f4      	lsls	r4, r6, #3
   26dc4:	9403      	str	r4, [sp, #12]
   26dc6:	9c0e      	ldr	r4, [sp, #56]	@ 0x38
   26dc8:	9406      	str	r4, [sp, #24]
   26dca:	1d2c      	adds	r4, r5, #4
   26dcc:	429c      	cmp	r4, r3
   26dce:	d236      	bcs.n	26e3e <_ZN17compiler_builtins3mem6memcpy17h1f9dbb1c3fd18e2fE+0x1d2>
   26dd0:	4274      	negs	r4, r6
   26dd2:	1909      	adds	r1, r1, r4
   26dd4:	9105      	str	r1, [sp, #20]
   26dd6:	9d03      	ldr	r5, [sp, #12]
   26dd8:	4269      	negs	r1, r5
   26dda:	2418      	movs	r4, #24
   26ddc:	400c      	ands	r4, r1
   26dde:	9402      	str	r4, [sp, #8]
   26de0:	990a      	ldr	r1, [sp, #40]	@ 0x28
   26de2:	9104      	str	r1, [sp, #16]
   26de4:	4629      	mov	r1, r5
   26de6:	9c06      	ldr	r4, [sp, #24]
   26de8:	40cc      	lsrs	r4, r1
   26dea:	9406      	str	r4, [sp, #24]
   26dec:	9905      	ldr	r1, [sp, #20]
   26dee:	1889      	adds	r1, r1, r2
   26df0:	9101      	str	r1, [sp, #4]
   26df2:	6849      	ldr	r1, [r1, #4]
   26df4:	460c      	mov	r4, r1
   26df6:	9d02      	ldr	r5, [sp, #8]
   26df8:	40ac      	lsls	r4, r5
   26dfa:	9d06      	ldr	r5, [sp, #24]
   26dfc:	432c      	orrs	r4, r5
   26dfe:	9d04      	ldr	r5, [sp, #16]
   26e00:	50ac      	str	r4, [r5, r2]
   26e02:	18ad      	adds	r5, r5, r2
   26e04:	462c      	mov	r4, r5
   26e06:	3408      	adds	r4, #8
   26e08:	429c      	cmp	r4, r3
   26e0a:	d21c      	bcs.n	26e46 <_ZN17compiler_builtins3mem6memcpy17h1f9dbb1c3fd18e2fE+0x1da>
   26e0c:	9c03      	ldr	r4, [sp, #12]
   26e0e:	40e1      	lsrs	r1, r4
   26e10:	9c01      	ldr	r4, [sp, #4]
   26e12:	68a4      	ldr	r4, [r4, #8]
   26e14:	9406      	str	r4, [sp, #24]
   26e16:	9501      	str	r5, [sp, #4]
   26e18:	9d02      	ldr	r5, [sp, #8]
   26e1a:	40ac      	lsls	r4, r5
   26e1c:	430c      	orrs	r4, r1
   26e1e:	9901      	ldr	r1, [sp, #4]
   26e20:	604c      	str	r4, [r1, #4]
   26e22:	9904      	ldr	r1, [sp, #16]
   26e24:	3108      	adds	r1, #8
   26e26:	9104      	str	r1, [sp, #16]
   26e28:	188d      	adds	r5, r1, r2
   26e2a:	1d29      	adds	r1, r5, #4
   26e2c:	9c05      	ldr	r4, [sp, #20]
   26e2e:	3408      	adds	r4, #8
   26e30:	9405      	str	r4, [sp, #20]
   26e32:	4299      	cmp	r1, r3
   26e34:	9903      	ldr	r1, [sp, #12]
   26e36:	d3d6      	bcc.n	26de6 <_ZN17compiler_builtins3mem6memcpy17h1f9dbb1c3fd18e2fE+0x17a>
   26e38:	9805      	ldr	r0, [sp, #20]
   26e3a:	1880      	adds	r0, r0, r2
   26e3c:	e001      	b.n	26e42 <_ZN17compiler_builtins3mem6memcpy17h1f9dbb1c3fd18e2fE+0x1d6>
   26e3e:	9809      	ldr	r0, [sp, #36]	@ 0x24
   26e40:	1b80      	subs	r0, r0, r6
   26e42:	9005      	str	r0, [sp, #20]
   26e44:	e004      	b.n	26e50 <_ZN17compiler_builtins3mem6memcpy17h1f9dbb1c3fd18e2fE+0x1e4>
   26e46:	9801      	ldr	r0, [sp, #4]
   26e48:	1d00      	adds	r0, r0, #4
   26e4a:	9005      	str	r0, [sp, #20]
   26e4c:	1d2d      	adds	r5, r5, #4
   26e4e:	9106      	str	r1, [sp, #24]
   26e50:	a80d      	add	r0, sp, #52	@ 0x34
   26e52:	2100      	movs	r1, #0
   26e54:	9004      	str	r0, [sp, #16]
   26e56:	7001      	strb	r1, [r0, #0]
   26e58:	a80c      	add	r0, sp, #48	@ 0x30
   26e5a:	7001      	strb	r1, [r0, #0]
   26e5c:	2e01      	cmp	r6, #1
   26e5e:	460e      	mov	r6, r1
   26e60:	460c      	mov	r4, r1
   26e62:	9102      	str	r1, [sp, #8]
   26e64:	9a0b      	ldr	r2, [sp, #44]	@ 0x2c
   26e66:	d009      	beq.n	26e7c <_ZN17compiler_builtins3mem6memcpy17h1f9dbb1c3fd18e2fE+0x210>
   26e68:	9c05      	ldr	r4, [sp, #20]
   26e6a:	7960      	ldrb	r0, [r4, #5]
   26e6c:	7926      	ldrb	r6, [r4, #4]
   26e6e:	ac0d      	add	r4, sp, #52	@ 0x34
   26e70:	7026      	strb	r6, [r4, #0]
   26e72:	0204      	lsls	r4, r0, #8
   26e74:	2002      	movs	r0, #2
   26e76:	9002      	str	r0, [sp, #8]
   26e78:	a80c      	add	r0, sp, #48	@ 0x30
   26e7a:	9004      	str	r0, [sp, #16]
   26e7c:	9809      	ldr	r0, [sp, #36]	@ 0x24
   26e7e:	07c0      	lsls	r0, r0, #31
   26e80:	d00a      	beq.n	26e98 <_ZN17compiler_builtins3mem6memcpy17h1f9dbb1c3fd18e2fE+0x22c>
   26e82:	9805      	ldr	r0, [sp, #20]
   26e84:	1d00      	adds	r0, r0, #4
   26e86:	9902      	ldr	r1, [sp, #8]
   26e88:	5c40      	ldrb	r0, [r0, r1]
   26e8a:	9904      	ldr	r1, [sp, #16]
   26e8c:	7008      	strb	r0, [r1, #0]
   26e8e:	a80d      	add	r0, sp, #52	@ 0x34
   26e90:	7806      	ldrb	r6, [r0, #0]
   26e92:	a80c      	add	r0, sp, #48	@ 0x30
   26e94:	7800      	ldrb	r0, [r0, #0]
   26e96:	0401      	lsls	r1, r0, #16
   26e98:	9605      	str	r6, [sp, #20]
   26e9a:	9803      	ldr	r0, [sp, #12]
   26e9c:	4240      	negs	r0, r0
   26e9e:	9004      	str	r0, [sp, #16]
   26ea0:	2618      	movs	r6, #24
   26ea2:	9804      	ldr	r0, [sp, #16]
   26ea4:	4006      	ands	r6, r0
   26ea6:	430c      	orrs	r4, r1
   26ea8:	9905      	ldr	r1, [sp, #20]
   26eaa:	430c      	orrs	r4, r1
   26eac:	40b4      	lsls	r4, r6
   26eae:	9906      	ldr	r1, [sp, #24]
   26eb0:	9803      	ldr	r0, [sp, #12]
   26eb2:	40c1      	lsrs	r1, r0
   26eb4:	4321      	orrs	r1, r4
   26eb6:	6029      	str	r1, [r5, #0]
   26eb8:	9c08      	ldr	r4, [sp, #32]
   26eba:	9e09      	ldr	r6, [sp, #36]	@ 0x24
   26ebc:	e730      	b.n	26d20 <_ZN17compiler_builtins3mem6memcpy17h1f9dbb1c3fd18e2fE+0xb4>

00026ebe <__aeabi_memcpy>:
   26ebe:	b580      	push	{r7, lr}
   26ec0:	af00      	add	r7, sp, #0
   26ec2:	f7ff fed3 	bl	26c6c <_ZN17compiler_builtins3mem6memcpy17h1f9dbb1c3fd18e2fE>
   26ec6:	bd80      	pop	{r7, pc}
