
target/thumbv6m-none-eabi/opt-3/examples/complex_full_dynamic:     file format elf32-littlearm

Sections:
Idx Name          Size      VMA       LMA       File off  Algn
  0 .ARM.exidx    00000010  000100d4  000100d4  000000d4  2**2
                  CONTENTS, ALLOC, LOAD, READONLY, DATA
  1 .text         000071c4  000200e4  000200e4  000000e4  2**2
                  CONTENTS, ALLOC, LOAD, READONLY, CODE
  2 .comment      00000099  00000000  00000000  000072a8  2**0
                  CONTENTS, READONLY
  3 .ARM.attributes 00000032  00000000  00000000  00007341  2**0
                  CONTENTS, READONLY

Disassembly of section .text:

000200e4 <_ZN20complex_full_dynamic3app17h00be0257f5e4cde5E>:
   200e4:	b5f0      	push	{r4, r5, r6, r7, lr}
   200e6:	af03      	add	r7, sp, #12
   200e8:	b091      	sub	sp, #68	@ 0x44
   200ea:	9001      	str	r0, [sp, #4]
   200ec:	ae02      	add	r6, sp, #8
   200ee:	2502      	movs	r5, #2
   200f0:	7235      	strb	r5, [r6, #8]
   200f2:	360c      	adds	r6, #12
   200f4:	240f      	movs	r4, #15
   200f6:	4630      	mov	r0, r6
   200f8:	4622      	mov	r2, r4
   200fa:	f007 f8d0 	bl	2729e <__aeabi_memcpy>
   200fe:	a909      	add	r1, sp, #36	@ 0x24
   20100:	9100      	str	r1, [sp, #0]
   20102:	2000      	movs	r0, #0
   20104:	7788      	strb	r0, [r1, #30]
   20106:	8388      	strh	r0, [r1, #28]
   20108:	720d      	strb	r5, [r1, #8]
   2010a:	900f      	str	r0, [sp, #60]	@ 0x3c
   2010c:	900e      	str	r0, [sp, #56]	@ 0x38
   2010e:	900d      	str	r0, [sp, #52]	@ 0x34
   20110:	900c      	str	r0, [sp, #48]	@ 0x30
   20112:	4820      	ldr	r0, [pc, #128]	@ (20194 <_ZN20complex_full_dynamic3app17h00be0257f5e4cde5E+0xb0>)
   20114:	2103      	movs	r1, #3
   20116:	460d      	mov	r5, r1
   20118:	4632      	mov	r2, r6
   2011a:	4623      	mov	r3, r4
   2011c:	df04      	svc	4
   2011e:	2802      	cmp	r0, #2
   20120:	d01a      	beq.n	20158 <_ZN20complex_full_dynamic3app17h00be0257f5e4cde5E+0x74>
   20122:	9a00      	ldr	r2, [sp, #0]
   20124:	320c      	adds	r2, #12
   20126:	a802      	add	r0, sp, #8
   20128:	2104      	movs	r1, #4
   2012a:	7201      	strb	r1, [r0, #8]
   2012c:	462c      	mov	r4, r5
   2012e:	9503      	str	r5, [sp, #12]
   20130:	4818      	ldr	r0, [pc, #96]	@ (20194 <_ZN20complex_full_dynamic3app17h00be0257f5e4cde5E+0xb0>)
   20132:	9002      	str	r0, [sp, #8]
   20134:	2600      	movs	r6, #0
   20136:	2313      	movs	r3, #19
   20138:	4631      	mov	r1, r6
   2013a:	4615      	mov	r5, r2
   2013c:	df03      	svc	3
   2013e:	2802      	cmp	r0, #2
   20140:	d00a      	beq.n	20158 <_ZN20complex_full_dynamic3app17h00be0257f5e4cde5E+0x74>
   20142:	a809      	add	r0, sp, #36	@ 0x24
   20144:	7204      	strb	r4, [r0, #8]
   20146:	4813      	ldr	r0, [pc, #76]	@ (20194 <_ZN20complex_full_dynamic3app17h00be0257f5e4cde5E+0xb0>)
   20148:	9009      	str	r0, [sp, #36]	@ 0x24
   2014a:	960a      	str	r6, [sp, #40]	@ 0x28
   2014c:	4621      	mov	r1, r4
   2014e:	4632      	mov	r2, r6
   20150:	4633      	mov	r3, r6
   20152:	df02      	svc	2
   20154:	287f      	cmp	r0, #127	@ 0x7f
   20156:	d80b      	bhi.n	20170 <_ZN20complex_full_dynamic3app17h00be0257f5e4cde5E+0x8c>
   20158:	9c01      	ldr	r4, [sp, #4]
   2015a:	6061      	str	r1, [r4, #4]
   2015c:	2601      	movs	r6, #1
   2015e:	7026      	strb	r6, [r4, #0]
   20160:	a809      	add	r0, sp, #36	@ 0x24
   20162:	f006 fedb 	bl	26f1c <_ZN9allow_pin12full_dynamic17unshare_if_shared17h02646414dc25e2d7E>
   20166:	a802      	add	r0, sp, #8
   20168:	f006 fed8 	bl	26f1c <_ZN9allow_pin12full_dynamic17unshare_if_shared17h02646414dc25e2d7E>
   2016c:	b011      	add	sp, #68	@ 0x44
   2016e:	bdf0      	pop	{r4, r5, r6, r7, pc}
   20170:	a802      	add	r0, sp, #8
   20172:	f006 fed3 	bl	26f1c <_ZN9allow_pin12full_dynamic17unshare_if_shared17h02646414dc25e2d7E>
   20176:	ac09      	add	r4, sp, #36	@ 0x24
   20178:	4620      	mov	r0, r4
   2017a:	f006 fecf 	bl	26f1c <_ZN9allow_pin12full_dynamic17unshare_if_shared17h02646414dc25e2d7E>
   2017e:	4620      	mov	r0, r4
   20180:	f006 fecc 	bl	26f1c <_ZN9allow_pin12full_dynamic17unshare_if_shared17h02646414dc25e2d7E>
   20184:	9c01      	ldr	r4, [sp, #4]
   20186:	1c60      	adds	r0, r4, #1
   20188:	2213      	movs	r2, #19
   2018a:	4629      	mov	r1, r5
   2018c:	f007 f887 	bl	2729e <__aeabi_memcpy>
   20190:	e7e5      	b.n	2015e <_ZN20complex_full_dynamic3app17h00be0257f5e4cde5E+0x7a>
   20192:	46c0      	nop			@ (mov r8, r8)
   20194:	00001e4b 	.word	0x00001e4b

00020198 <_ZN20complex_full_dynamic3app17h0307d92c5263d39fE>:
   20198:	b5f0      	push	{r4, r5, r6, r7, lr}
   2019a:	af03      	add	r7, sp, #12
   2019c:	b0a7      	sub	sp, #156	@ 0x9c
   2019e:	9003      	str	r0, [sp, #12]
   201a0:	ac04      	add	r4, sp, #16
   201a2:	2002      	movs	r0, #2
   201a4:	9002      	str	r0, [sp, #8]
   201a6:	7220      	strb	r0, [r4, #8]
   201a8:	340c      	adds	r4, #12
   201aa:	2240      	movs	r2, #64	@ 0x40
   201ac:	9201      	str	r2, [sp, #4]
   201ae:	4620      	mov	r0, r4
   201b0:	f007 f875 	bl	2729e <__aeabi_memcpy>
   201b4:	ae17      	add	r6, sp, #92	@ 0x5c
   201b6:	4635      	mov	r5, r6
   201b8:	350c      	adds	r5, #12
   201ba:	2131      	movs	r1, #49	@ 0x31
   201bc:	4628      	mov	r0, r5
   201be:	f006 fec1 	bl	26f44 <__aeabi_memclr4>
   201c2:	9802      	ldr	r0, [sp, #8]
   201c4:	7230      	strb	r0, [r6, #8]
   201c6:	4820      	ldr	r0, [pc, #128]	@ (20248 <_ZN20complex_full_dynamic3app17h0307d92c5263d39fE+0xb0>)
   201c8:	2608      	movs	r6, #8
   201ca:	4631      	mov	r1, r6
   201cc:	4622      	mov	r2, r4
   201ce:	9b01      	ldr	r3, [sp, #4]
   201d0:	df04      	svc	4
   201d2:	2802      	cmp	r0, #2
   201d4:	d01a      	beq.n	2020c <_ZN20complex_full_dynamic3app17h0307d92c5263d39fE+0x74>
   201d6:	a804      	add	r0, sp, #16
   201d8:	2104      	movs	r1, #4
   201da:	7201      	strb	r1, [r0, #8]
   201dc:	9605      	str	r6, [sp, #20]
   201de:	4e1a      	ldr	r6, [pc, #104]	@ (20248 <_ZN20complex_full_dynamic3app17h0307d92c5263d39fE+0xb0>)
   201e0:	9604      	str	r6, [sp, #16]
   201e2:	2405      	movs	r4, #5
   201e4:	2331      	movs	r3, #49	@ 0x31
   201e6:	4630      	mov	r0, r6
   201e8:	4621      	mov	r1, r4
   201ea:	462a      	mov	r2, r5
   201ec:	df03      	svc	3
   201ee:	2802      	cmp	r0, #2
   201f0:	d00c      	beq.n	2020c <_ZN20complex_full_dynamic3app17h0307d92c5263d39fE+0x74>
   201f2:	a817      	add	r0, sp, #92	@ 0x5c
   201f4:	2103      	movs	r1, #3
   201f6:	7201      	strb	r1, [r0, #8]
   201f8:	9617      	str	r6, [sp, #92]	@ 0x5c
   201fa:	9418      	str	r4, [sp, #96]	@ 0x60
   201fc:	4812      	ldr	r0, [pc, #72]	@ (20248 <_ZN20complex_full_dynamic3app17h0307d92c5263d39fE+0xb0>)
   201fe:	2108      	movs	r1, #8
   20200:	2600      	movs	r6, #0
   20202:	4622      	mov	r2, r4
   20204:	4633      	mov	r3, r6
   20206:	df02      	svc	2
   20208:	287f      	cmp	r0, #127	@ 0x7f
   2020a:	d80b      	bhi.n	20224 <_ZN20complex_full_dynamic3app17h0307d92c5263d39fE+0x8c>
   2020c:	9c03      	ldr	r4, [sp, #12]
   2020e:	6061      	str	r1, [r4, #4]
   20210:	2601      	movs	r6, #1
   20212:	7026      	strb	r6, [r4, #0]
   20214:	a817      	add	r0, sp, #92	@ 0x5c
   20216:	f006 fe81 	bl	26f1c <_ZN9allow_pin12full_dynamic17unshare_if_shared17h02646414dc25e2d7E>
   2021a:	a804      	add	r0, sp, #16
   2021c:	f006 fe7e 	bl	26f1c <_ZN9allow_pin12full_dynamic17unshare_if_shared17h02646414dc25e2d7E>
   20220:	b027      	add	sp, #156	@ 0x9c
   20222:	bdf0      	pop	{r4, r5, r6, r7, pc}
   20224:	a804      	add	r0, sp, #16
   20226:	f006 fe79 	bl	26f1c <_ZN9allow_pin12full_dynamic17unshare_if_shared17h02646414dc25e2d7E>
   2022a:	ac17      	add	r4, sp, #92	@ 0x5c
   2022c:	4620      	mov	r0, r4
   2022e:	f006 fe75 	bl	26f1c <_ZN9allow_pin12full_dynamic17unshare_if_shared17h02646414dc25e2d7E>
   20232:	4620      	mov	r0, r4
   20234:	f006 fe72 	bl	26f1c <_ZN9allow_pin12full_dynamic17unshare_if_shared17h02646414dc25e2d7E>
   20238:	9c03      	ldr	r4, [sp, #12]
   2023a:	1c60      	adds	r0, r4, #1
   2023c:	2231      	movs	r2, #49	@ 0x31
   2023e:	4629      	mov	r1, r5
   20240:	f007 f82d 	bl	2729e <__aeabi_memcpy>
   20244:	e7e5      	b.n	20212 <_ZN20complex_full_dynamic3app17h0307d92c5263d39fE+0x7a>
   20246:	46c0      	nop			@ (mov r8, r8)
   20248:	00000fce 	.word	0x00000fce

0002024c <_ZN20complex_full_dynamic3app17h03a6a14055c96bc7E>:
   2024c:	b5f0      	push	{r4, r5, r6, r7, lr}
   2024e:	af03      	add	r7, sp, #12
   20250:	b0ad      	sub	sp, #180	@ 0xb4
   20252:	9003      	str	r0, [sp, #12]
   20254:	ae04      	add	r6, sp, #16
   20256:	2002      	movs	r0, #2
   20258:	9002      	str	r0, [sp, #8]
   2025a:	7230      	strb	r0, [r6, #8]
   2025c:	360c      	adds	r6, #12
   2025e:	2263      	movs	r2, #99	@ 0x63
   20260:	9201      	str	r2, [sp, #4]
   20262:	4630      	mov	r0, r6
   20264:	f007 f81b 	bl	2729e <__aeabi_memcpy>
   20268:	ac20      	add	r4, sp, #128	@ 0x80
   2026a:	4625      	mov	r5, r4
   2026c:	350c      	adds	r5, #12
   2026e:	2127      	movs	r1, #39	@ 0x27
   20270:	4628      	mov	r0, r5
   20272:	f006 fe67 	bl	26f44 <__aeabi_memclr4>
   20276:	9802      	ldr	r0, [sp, #8]
   20278:	7220      	strb	r0, [r4, #8]
   2027a:	481f      	ldr	r0, [pc, #124]	@ (202f8 <_ZN20complex_full_dynamic3app17h03a6a14055c96bc7E+0xac>)
   2027c:	2407      	movs	r4, #7
   2027e:	4621      	mov	r1, r4
   20280:	4632      	mov	r2, r6
   20282:	9b01      	ldr	r3, [sp, #4]
   20284:	df04      	svc	4
   20286:	2802      	cmp	r0, #2
   20288:	d019      	beq.n	202be <_ZN20complex_full_dynamic3app17h03a6a14055c96bc7E+0x72>
   2028a:	a804      	add	r0, sp, #16
   2028c:	2104      	movs	r1, #4
   2028e:	7201      	strb	r1, [r0, #8]
   20290:	9405      	str	r4, [sp, #20]
   20292:	4c19      	ldr	r4, [pc, #100]	@ (202f8 <_ZN20complex_full_dynamic3app17h03a6a14055c96bc7E+0xac>)
   20294:	9404      	str	r4, [sp, #16]
   20296:	2600      	movs	r6, #0
   20298:	2327      	movs	r3, #39	@ 0x27
   2029a:	4620      	mov	r0, r4
   2029c:	4631      	mov	r1, r6
   2029e:	462a      	mov	r2, r5
   202a0:	df03      	svc	3
   202a2:	2802      	cmp	r0, #2
   202a4:	d00b      	beq.n	202be <_ZN20complex_full_dynamic3app17h03a6a14055c96bc7E+0x72>
   202a6:	a820      	add	r0, sp, #128	@ 0x80
   202a8:	2103      	movs	r1, #3
   202aa:	7201      	strb	r1, [r0, #8]
   202ac:	9420      	str	r4, [sp, #128]	@ 0x80
   202ae:	9621      	str	r6, [sp, #132]	@ 0x84
   202b0:	4811      	ldr	r0, [pc, #68]	@ (202f8 <_ZN20complex_full_dynamic3app17h03a6a14055c96bc7E+0xac>)
   202b2:	2107      	movs	r1, #7
   202b4:	4632      	mov	r2, r6
   202b6:	4633      	mov	r3, r6
   202b8:	df02      	svc	2
   202ba:	287f      	cmp	r0, #127	@ 0x7f
   202bc:	d80b      	bhi.n	202d6 <_ZN20complex_full_dynamic3app17h03a6a14055c96bc7E+0x8a>
   202be:	9c03      	ldr	r4, [sp, #12]
   202c0:	6061      	str	r1, [r4, #4]
   202c2:	2601      	movs	r6, #1
   202c4:	7026      	strb	r6, [r4, #0]
   202c6:	a820      	add	r0, sp, #128	@ 0x80
   202c8:	f006 fe28 	bl	26f1c <_ZN9allow_pin12full_dynamic17unshare_if_shared17h02646414dc25e2d7E>
   202cc:	a804      	add	r0, sp, #16
   202ce:	f006 fe25 	bl	26f1c <_ZN9allow_pin12full_dynamic17unshare_if_shared17h02646414dc25e2d7E>
   202d2:	b02d      	add	sp, #180	@ 0xb4
   202d4:	bdf0      	pop	{r4, r5, r6, r7, pc}
   202d6:	a804      	add	r0, sp, #16
   202d8:	f006 fe20 	bl	26f1c <_ZN9allow_pin12full_dynamic17unshare_if_shared17h02646414dc25e2d7E>
   202dc:	ac20      	add	r4, sp, #128	@ 0x80
   202de:	4620      	mov	r0, r4
   202e0:	f006 fe1c 	bl	26f1c <_ZN9allow_pin12full_dynamic17unshare_if_shared17h02646414dc25e2d7E>
   202e4:	4620      	mov	r0, r4
   202e6:	f006 fe19 	bl	26f1c <_ZN9allow_pin12full_dynamic17unshare_if_shared17h02646414dc25e2d7E>
   202ea:	9c03      	ldr	r4, [sp, #12]
   202ec:	1c60      	adds	r0, r4, #1
   202ee:	2227      	movs	r2, #39	@ 0x27
   202f0:	4629      	mov	r1, r5
   202f2:	f006 ffd4 	bl	2729e <__aeabi_memcpy>
   202f6:	e7e5      	b.n	202c4 <_ZN20complex_full_dynamic3app17h03a6a14055c96bc7E+0x78>
   202f8:	00001e54 	.word	0x00001e54

000202fc <_ZN20complex_full_dynamic3app17h09a3bb6fa07d9a4aE>:
   202fc:	b5f0      	push	{r4, r5, r6, r7, lr}
   202fe:	af03      	add	r7, sp, #12
   20300:	b09f      	sub	sp, #124	@ 0x7c
   20302:	9001      	str	r0, [sp, #4]
   20304:	ac02      	add	r4, sp, #8
   20306:	2502      	movs	r5, #2
   20308:	7225      	strb	r5, [r4, #8]
   2030a:	340c      	adds	r4, #12
   2030c:	263f      	movs	r6, #63	@ 0x3f
   2030e:	4620      	mov	r0, r4
   20310:	4632      	mov	r2, r6
   20312:	f006 ffc4 	bl	2729e <__aeabi_memcpy>
   20316:	a815      	add	r0, sp, #84	@ 0x54
   20318:	9000      	str	r0, [sp, #0]
   2031a:	7205      	strb	r5, [r0, #8]
   2031c:	2000      	movs	r0, #0
   2031e:	901e      	str	r0, [sp, #120]	@ 0x78
   20320:	901d      	str	r0, [sp, #116]	@ 0x74
   20322:	901c      	str	r0, [sp, #112]	@ 0x70
   20324:	901b      	str	r0, [sp, #108]	@ 0x6c
   20326:	901a      	str	r0, [sp, #104]	@ 0x68
   20328:	9019      	str	r0, [sp, #100]	@ 0x64
   2032a:	9018      	str	r0, [sp, #96]	@ 0x60
   2032c:	4820      	ldr	r0, [pc, #128]	@ (203b0 <_ZN20complex_full_dynamic3app17h09a3bb6fa07d9a4aE+0xb4>)
   2032e:	2505      	movs	r5, #5
   20330:	4629      	mov	r1, r5
   20332:	4622      	mov	r2, r4
   20334:	4633      	mov	r3, r6
   20336:	df04      	svc	4
   20338:	2802      	cmp	r0, #2
   2033a:	d01c      	beq.n	20376 <_ZN20complex_full_dynamic3app17h09a3bb6fa07d9a4aE+0x7a>
   2033c:	9e00      	ldr	r6, [sp, #0]
   2033e:	360c      	adds	r6, #12
   20340:	a802      	add	r0, sp, #8
   20342:	2104      	movs	r1, #4
   20344:	7201      	strb	r1, [r0, #8]
   20346:	9503      	str	r5, [sp, #12]
   20348:	4819      	ldr	r0, [pc, #100]	@ (203b0 <_ZN20complex_full_dynamic3app17h09a3bb6fa07d9a4aE+0xb4>)
   2034a:	9002      	str	r0, [sp, #8]
   2034c:	2409      	movs	r4, #9
   2034e:	231c      	movs	r3, #28
   20350:	4621      	mov	r1, r4
   20352:	4632      	mov	r2, r6
   20354:	df03      	svc	3
   20356:	2802      	cmp	r0, #2
   20358:	d00d      	beq.n	20376 <_ZN20complex_full_dynamic3app17h09a3bb6fa07d9a4aE+0x7a>
   2035a:	4635      	mov	r5, r6
   2035c:	a815      	add	r0, sp, #84	@ 0x54
   2035e:	2103      	movs	r1, #3
   20360:	7201      	strb	r1, [r0, #8]
   20362:	4813      	ldr	r0, [pc, #76]	@ (203b0 <_ZN20complex_full_dynamic3app17h09a3bb6fa07d9a4aE+0xb4>)
   20364:	9015      	str	r0, [sp, #84]	@ 0x54
   20366:	9416      	str	r4, [sp, #88]	@ 0x58
   20368:	2105      	movs	r1, #5
   2036a:	2600      	movs	r6, #0
   2036c:	4622      	mov	r2, r4
   2036e:	4633      	mov	r3, r6
   20370:	df02      	svc	2
   20372:	287f      	cmp	r0, #127	@ 0x7f
   20374:	d80b      	bhi.n	2038e <_ZN20complex_full_dynamic3app17h09a3bb6fa07d9a4aE+0x92>
   20376:	9c01      	ldr	r4, [sp, #4]
   20378:	6061      	str	r1, [r4, #4]
   2037a:	2601      	movs	r6, #1
   2037c:	7026      	strb	r6, [r4, #0]
   2037e:	a815      	add	r0, sp, #84	@ 0x54
   20380:	f006 fdcc 	bl	26f1c <_ZN9allow_pin12full_dynamic17unshare_if_shared17h02646414dc25e2d7E>
   20384:	a802      	add	r0, sp, #8
   20386:	f006 fdc9 	bl	26f1c <_ZN9allow_pin12full_dynamic17unshare_if_shared17h02646414dc25e2d7E>
   2038a:	b01f      	add	sp, #124	@ 0x7c
   2038c:	bdf0      	pop	{r4, r5, r6, r7, pc}
   2038e:	a802      	add	r0, sp, #8
   20390:	f006 fdc4 	bl	26f1c <_ZN9allow_pin12full_dynamic17unshare_if_shared17h02646414dc25e2d7E>
   20394:	ac15      	add	r4, sp, #84	@ 0x54
   20396:	4620      	mov	r0, r4
   20398:	f006 fdc0 	bl	26f1c <_ZN9allow_pin12full_dynamic17unshare_if_shared17h02646414dc25e2d7E>
   2039c:	4620      	mov	r0, r4
   2039e:	f006 fdbd 	bl	26f1c <_ZN9allow_pin12full_dynamic17unshare_if_shared17h02646414dc25e2d7E>
   203a2:	9c01      	ldr	r4, [sp, #4]
   203a4:	1c60      	adds	r0, r4, #1
   203a6:	221c      	movs	r2, #28
   203a8:	4629      	mov	r1, r5
   203aa:	f006 ff78 	bl	2729e <__aeabi_memcpy>
   203ae:	e7e5      	b.n	2037c <_ZN20complex_full_dynamic3app17h09a3bb6fa07d9a4aE+0x80>
   203b0:	00001694 	.word	0x00001694

000203b4 <_ZN20complex_full_dynamic3app17h0a22b4194708e463E>:
   203b4:	b5f0      	push	{r4, r5, r6, r7, lr}
   203b6:	af03      	add	r7, sp, #12
   203b8:	b0ab      	sub	sp, #172	@ 0xac
   203ba:	9002      	str	r0, [sp, #8]
   203bc:	ac03      	add	r4, sp, #12
   203be:	2002      	movs	r0, #2
   203c0:	9001      	str	r0, [sp, #4]
   203c2:	7220      	strb	r0, [r4, #8]
   203c4:	340c      	adds	r4, #12
   203c6:	224f      	movs	r2, #79	@ 0x4f
   203c8:	9200      	str	r2, [sp, #0]
   203ca:	4620      	mov	r0, r4
   203cc:	f006 ff67 	bl	2729e <__aeabi_memcpy>
   203d0:	ae1a      	add	r6, sp, #104	@ 0x68
   203d2:	4635      	mov	r5, r6
   203d4:	350c      	adds	r5, #12
   203d6:	2135      	movs	r1, #53	@ 0x35
   203d8:	4628      	mov	r0, r5
   203da:	f006 fdb3 	bl	26f44 <__aeabi_memclr4>
   203de:	9801      	ldr	r0, [sp, #4]
   203e0:	7230      	strb	r0, [r6, #8]
   203e2:	4820      	ldr	r0, [pc, #128]	@ (20464 <_ZN20complex_full_dynamic3app17h0a22b4194708e463E+0xb0>)
   203e4:	2607      	movs	r6, #7
   203e6:	4631      	mov	r1, r6
   203e8:	4622      	mov	r2, r4
   203ea:	9b00      	ldr	r3, [sp, #0]
   203ec:	df04      	svc	4
   203ee:	2802      	cmp	r0, #2
   203f0:	d01a      	beq.n	20428 <_ZN20complex_full_dynamic3app17h0a22b4194708e463E+0x74>
   203f2:	a803      	add	r0, sp, #12
   203f4:	2104      	movs	r1, #4
   203f6:	7201      	strb	r1, [r0, #8]
   203f8:	9604      	str	r6, [sp, #16]
   203fa:	4e1a      	ldr	r6, [pc, #104]	@ (20464 <_ZN20complex_full_dynamic3app17h0a22b4194708e463E+0xb0>)
   203fc:	9603      	str	r6, [sp, #12]
   203fe:	2401      	movs	r4, #1
   20400:	2335      	movs	r3, #53	@ 0x35
   20402:	4630      	mov	r0, r6
   20404:	4621      	mov	r1, r4
   20406:	462a      	mov	r2, r5
   20408:	df03      	svc	3
   2040a:	2802      	cmp	r0, #2
   2040c:	d00c      	beq.n	20428 <_ZN20complex_full_dynamic3app17h0a22b4194708e463E+0x74>
   2040e:	a81a      	add	r0, sp, #104	@ 0x68
   20410:	2103      	movs	r1, #3
   20412:	7201      	strb	r1, [r0, #8]
   20414:	961a      	str	r6, [sp, #104]	@ 0x68
   20416:	941b      	str	r4, [sp, #108]	@ 0x6c
   20418:	4812      	ldr	r0, [pc, #72]	@ (20464 <_ZN20complex_full_dynamic3app17h0a22b4194708e463E+0xb0>)
   2041a:	2107      	movs	r1, #7
   2041c:	2600      	movs	r6, #0
   2041e:	4622      	mov	r2, r4
   20420:	4633      	mov	r3, r6
   20422:	df02      	svc	2
   20424:	287f      	cmp	r0, #127	@ 0x7f
   20426:	d80b      	bhi.n	20440 <_ZN20complex_full_dynamic3app17h0a22b4194708e463E+0x8c>
   20428:	9c02      	ldr	r4, [sp, #8]
   2042a:	6061      	str	r1, [r4, #4]
   2042c:	2601      	movs	r6, #1
   2042e:	7026      	strb	r6, [r4, #0]
   20430:	a81a      	add	r0, sp, #104	@ 0x68
   20432:	f006 fd73 	bl	26f1c <_ZN9allow_pin12full_dynamic17unshare_if_shared17h02646414dc25e2d7E>
   20436:	a803      	add	r0, sp, #12
   20438:	f006 fd70 	bl	26f1c <_ZN9allow_pin12full_dynamic17unshare_if_shared17h02646414dc25e2d7E>
   2043c:	b02b      	add	sp, #172	@ 0xac
   2043e:	bdf0      	pop	{r4, r5, r6, r7, pc}
   20440:	a803      	add	r0, sp, #12
   20442:	f006 fd6b 	bl	26f1c <_ZN9allow_pin12full_dynamic17unshare_if_shared17h02646414dc25e2d7E>
   20446:	ac1a      	add	r4, sp, #104	@ 0x68
   20448:	4620      	mov	r0, r4
   2044a:	f006 fd67 	bl	26f1c <_ZN9allow_pin12full_dynamic17unshare_if_shared17h02646414dc25e2d7E>
   2044e:	4620      	mov	r0, r4
   20450:	f006 fd64 	bl	26f1c <_ZN9allow_pin12full_dynamic17unshare_if_shared17h02646414dc25e2d7E>
   20454:	9c02      	ldr	r4, [sp, #8]
   20456:	1c60      	adds	r0, r4, #1
   20458:	2235      	movs	r2, #53	@ 0x35
   2045a:	4629      	mov	r1, r5
   2045c:	f006 ff1f 	bl	2729e <__aeabi_memcpy>
   20460:	e7e5      	b.n	2042e <_ZN20complex_full_dynamic3app17h0a22b4194708e463E+0x7a>
   20462:	46c0      	nop			@ (mov r8, r8)
   20464:	000016d7 	.word	0x000016d7

00020468 <_ZN20complex_full_dynamic3app17h0ac2e489dd589c5cE>:
   20468:	b5f0      	push	{r4, r5, r6, r7, lr}
   2046a:	af03      	add	r7, sp, #12
   2046c:	b0b3      	sub	sp, #204	@ 0xcc
   2046e:	9003      	str	r0, [sp, #12]
   20470:	ac04      	add	r4, sp, #16
   20472:	2002      	movs	r0, #2
   20474:	9002      	str	r0, [sp, #8]
   20476:	7220      	strb	r0, [r4, #8]
   20478:	340c      	adds	r4, #12
   2047a:	2251      	movs	r2, #81	@ 0x51
   2047c:	9201      	str	r2, [sp, #4]
   2047e:	4620      	mov	r0, r4
   20480:	f006 ff0d 	bl	2729e <__aeabi_memcpy>
   20484:	ae1c      	add	r6, sp, #112	@ 0x70
   20486:	4635      	mov	r5, r6
   20488:	350c      	adds	r5, #12
   2048a:	214f      	movs	r1, #79	@ 0x4f
   2048c:	4628      	mov	r0, r5
   2048e:	f006 fd59 	bl	26f44 <__aeabi_memclr4>
   20492:	9802      	ldr	r0, [sp, #8]
   20494:	7230      	strb	r0, [r6, #8]
   20496:	481f      	ldr	r0, [pc, #124]	@ (20514 <_ZN20complex_full_dynamic3app17h0ac2e489dd589c5cE+0xac>)
   20498:	2604      	movs	r6, #4
   2049a:	4631      	mov	r1, r6
   2049c:	4622      	mov	r2, r4
   2049e:	9b01      	ldr	r3, [sp, #4]
   204a0:	df04      	svc	4
   204a2:	2802      	cmp	r0, #2
   204a4:	d019      	beq.n	204da <_ZN20complex_full_dynamic3app17h0ac2e489dd589c5cE+0x72>
   204a6:	a804      	add	r0, sp, #16
   204a8:	7206      	strb	r6, [r0, #8]
   204aa:	9605      	str	r6, [sp, #20]
   204ac:	4e19      	ldr	r6, [pc, #100]	@ (20514 <_ZN20complex_full_dynamic3app17h0ac2e489dd589c5cE+0xac>)
   204ae:	9604      	str	r6, [sp, #16]
   204b0:	2409      	movs	r4, #9
   204b2:	234f      	movs	r3, #79	@ 0x4f
   204b4:	4630      	mov	r0, r6
   204b6:	4621      	mov	r1, r4
   204b8:	462a      	mov	r2, r5
   204ba:	df03      	svc	3
   204bc:	2802      	cmp	r0, #2
   204be:	d00c      	beq.n	204da <_ZN20complex_full_dynamic3app17h0ac2e489dd589c5cE+0x72>
   204c0:	a81c      	add	r0, sp, #112	@ 0x70
   204c2:	2103      	movs	r1, #3
   204c4:	7201      	strb	r1, [r0, #8]
   204c6:	961c      	str	r6, [sp, #112]	@ 0x70
   204c8:	941d      	str	r4, [sp, #116]	@ 0x74
   204ca:	4812      	ldr	r0, [pc, #72]	@ (20514 <_ZN20complex_full_dynamic3app17h0ac2e489dd589c5cE+0xac>)
   204cc:	2104      	movs	r1, #4
   204ce:	2600      	movs	r6, #0
   204d0:	4622      	mov	r2, r4
   204d2:	4633      	mov	r3, r6
   204d4:	df02      	svc	2
   204d6:	287f      	cmp	r0, #127	@ 0x7f
   204d8:	d80b      	bhi.n	204f2 <_ZN20complex_full_dynamic3app17h0ac2e489dd589c5cE+0x8a>
   204da:	9c03      	ldr	r4, [sp, #12]
   204dc:	6061      	str	r1, [r4, #4]
   204de:	2601      	movs	r6, #1
   204e0:	7026      	strb	r6, [r4, #0]
   204e2:	a81c      	add	r0, sp, #112	@ 0x70
   204e4:	f006 fd1a 	bl	26f1c <_ZN9allow_pin12full_dynamic17unshare_if_shared17h02646414dc25e2d7E>
   204e8:	a804      	add	r0, sp, #16
   204ea:	f006 fd17 	bl	26f1c <_ZN9allow_pin12full_dynamic17unshare_if_shared17h02646414dc25e2d7E>
   204ee:	b033      	add	sp, #204	@ 0xcc
   204f0:	bdf0      	pop	{r4, r5, r6, r7, pc}
   204f2:	a804      	add	r0, sp, #16
   204f4:	f006 fd12 	bl	26f1c <_ZN9allow_pin12full_dynamic17unshare_if_shared17h02646414dc25e2d7E>
   204f8:	ac1c      	add	r4, sp, #112	@ 0x70
   204fa:	4620      	mov	r0, r4
   204fc:	f006 fd0e 	bl	26f1c <_ZN9allow_pin12full_dynamic17unshare_if_shared17h02646414dc25e2d7E>
   20500:	4620      	mov	r0, r4
   20502:	f006 fd0b 	bl	26f1c <_ZN9allow_pin12full_dynamic17unshare_if_shared17h02646414dc25e2d7E>
   20506:	9c03      	ldr	r4, [sp, #12]
   20508:	1c60      	adds	r0, r4, #1
   2050a:	224f      	movs	r2, #79	@ 0x4f
   2050c:	4629      	mov	r1, r5
   2050e:	f006 fec6 	bl	2729e <__aeabi_memcpy>
   20512:	e7e5      	b.n	204e0 <_ZN20complex_full_dynamic3app17h0ac2e489dd589c5cE+0x78>
   20514:	000020ee 	.word	0x000020ee

00020518 <_ZN20complex_full_dynamic3app17h0c126f54d67b0d68E>:
   20518:	b5f0      	push	{r4, r5, r6, r7, lr}
   2051a:	af03      	add	r7, sp, #12
   2051c:	b0a7      	sub	sp, #156	@ 0x9c
   2051e:	9002      	str	r0, [sp, #8]
   20520:	ac03      	add	r4, sp, #12
   20522:	2002      	movs	r0, #2
   20524:	9001      	str	r0, [sp, #4]
   20526:	7220      	strb	r0, [r4, #8]
   20528:	340c      	adds	r4, #12
   2052a:	2232      	movs	r2, #50	@ 0x32
   2052c:	9200      	str	r2, [sp, #0]
   2052e:	4620      	mov	r0, r4
   20530:	f006 feb5 	bl	2729e <__aeabi_memcpy>
   20534:	ae13      	add	r6, sp, #76	@ 0x4c
   20536:	4635      	mov	r5, r6
   20538:	350c      	adds	r5, #12
   2053a:	2141      	movs	r1, #65	@ 0x41
   2053c:	4628      	mov	r0, r5
   2053e:	f006 fd01 	bl	26f44 <__aeabi_memclr4>
   20542:	9801      	ldr	r0, [sp, #4]
   20544:	7230      	strb	r0, [r6, #8]
   20546:	4820      	ldr	r0, [pc, #128]	@ (205c8 <_ZN20complex_full_dynamic3app17h0c126f54d67b0d68E+0xb0>)
   20548:	2607      	movs	r6, #7
   2054a:	4631      	mov	r1, r6
   2054c:	4622      	mov	r2, r4
   2054e:	9b00      	ldr	r3, [sp, #0]
   20550:	df04      	svc	4
   20552:	2802      	cmp	r0, #2
   20554:	d01a      	beq.n	2058c <_ZN20complex_full_dynamic3app17h0c126f54d67b0d68E+0x74>
   20556:	a803      	add	r0, sp, #12
   20558:	2104      	movs	r1, #4
   2055a:	7201      	strb	r1, [r0, #8]
   2055c:	9604      	str	r6, [sp, #16]
   2055e:	4e1a      	ldr	r6, [pc, #104]	@ (205c8 <_ZN20complex_full_dynamic3app17h0c126f54d67b0d68E+0xb0>)
   20560:	9603      	str	r6, [sp, #12]
   20562:	2405      	movs	r4, #5
   20564:	2341      	movs	r3, #65	@ 0x41
   20566:	4630      	mov	r0, r6
   20568:	4621      	mov	r1, r4
   2056a:	462a      	mov	r2, r5
   2056c:	df03      	svc	3
   2056e:	2802      	cmp	r0, #2
   20570:	d00c      	beq.n	2058c <_ZN20complex_full_dynamic3app17h0c126f54d67b0d68E+0x74>
   20572:	a813      	add	r0, sp, #76	@ 0x4c
   20574:	2103      	movs	r1, #3
   20576:	7201      	strb	r1, [r0, #8]
   20578:	9613      	str	r6, [sp, #76]	@ 0x4c
   2057a:	9414      	str	r4, [sp, #80]	@ 0x50
   2057c:	4812      	ldr	r0, [pc, #72]	@ (205c8 <_ZN20complex_full_dynamic3app17h0c126f54d67b0d68E+0xb0>)
   2057e:	2107      	movs	r1, #7
   20580:	2600      	movs	r6, #0
   20582:	4622      	mov	r2, r4
   20584:	4633      	mov	r3, r6
   20586:	df02      	svc	2
   20588:	287f      	cmp	r0, #127	@ 0x7f
   2058a:	d80b      	bhi.n	205a4 <_ZN20complex_full_dynamic3app17h0c126f54d67b0d68E+0x8c>
   2058c:	9c02      	ldr	r4, [sp, #8]
   2058e:	6061      	str	r1, [r4, #4]
   20590:	2601      	movs	r6, #1
   20592:	7026      	strb	r6, [r4, #0]
   20594:	a813      	add	r0, sp, #76	@ 0x4c
   20596:	f006 fcc1 	bl	26f1c <_ZN9allow_pin12full_dynamic17unshare_if_shared17h02646414dc25e2d7E>
   2059a:	a803      	add	r0, sp, #12
   2059c:	f006 fcbe 	bl	26f1c <_ZN9allow_pin12full_dynamic17unshare_if_shared17h02646414dc25e2d7E>
   205a0:	b027      	add	sp, #156	@ 0x9c
   205a2:	bdf0      	pop	{r4, r5, r6, r7, pc}
   205a4:	a803      	add	r0, sp, #12
   205a6:	f006 fcb9 	bl	26f1c <_ZN9allow_pin12full_dynamic17unshare_if_shared17h02646414dc25e2d7E>
   205aa:	ac13      	add	r4, sp, #76	@ 0x4c
   205ac:	4620      	mov	r0, r4
   205ae:	f006 fcb5 	bl	26f1c <_ZN9allow_pin12full_dynamic17unshare_if_shared17h02646414dc25e2d7E>
   205b2:	4620      	mov	r0, r4
   205b4:	f006 fcb2 	bl	26f1c <_ZN9allow_pin12full_dynamic17unshare_if_shared17h02646414dc25e2d7E>
   205b8:	9c02      	ldr	r4, [sp, #8]
   205ba:	1c60      	adds	r0, r4, #1
   205bc:	2241      	movs	r2, #65	@ 0x41
   205be:	4629      	mov	r1, r5
   205c0:	f006 fe6d 	bl	2729e <__aeabi_memcpy>
   205c4:	e7e5      	b.n	20592 <_ZN20complex_full_dynamic3app17h0c126f54d67b0d68E+0x7a>
   205c6:	46c0      	nop			@ (mov r8, r8)
   205c8:	0000091d 	.word	0x0000091d

000205cc <_ZN20complex_full_dynamic3app17h0f163cd4d8026c84E>:
   205cc:	b5f0      	push	{r4, r5, r6, r7, lr}
   205ce:	af03      	add	r7, sp, #12
   205d0:	b09b      	sub	sp, #108	@ 0x6c
   205d2:	9002      	str	r0, [sp, #8]
   205d4:	ac03      	add	r4, sp, #12
   205d6:	2002      	movs	r0, #2
   205d8:	9001      	str	r0, [sp, #4]
   205da:	7220      	strb	r0, [r4, #8]
   205dc:	340c      	adds	r4, #12
   205de:	2210      	movs	r2, #16
   205e0:	9200      	str	r2, [sp, #0]
   205e2:	4620      	mov	r0, r4
   205e4:	f006 fe5b 	bl	2729e <__aeabi_memcpy>
   205e8:	ae0a      	add	r6, sp, #40	@ 0x28
   205ea:	4635      	mov	r5, r6
   205ec:	350c      	adds	r5, #12
   205ee:	2136      	movs	r1, #54	@ 0x36
   205f0:	4628      	mov	r0, r5
   205f2:	f006 fca7 	bl	26f44 <__aeabi_memclr4>
   205f6:	9801      	ldr	r0, [sp, #4]
   205f8:	7230      	strb	r0, [r6, #8]
   205fa:	481f      	ldr	r0, [pc, #124]	@ (20678 <_ZN20complex_full_dynamic3app17h0f163cd4d8026c84E+0xac>)
   205fc:	2601      	movs	r6, #1
   205fe:	4631      	mov	r1, r6
   20600:	4622      	mov	r2, r4
   20602:	9b00      	ldr	r3, [sp, #0]
   20604:	df04      	svc	4
   20606:	2802      	cmp	r0, #2
   20608:	d019      	beq.n	2063e <_ZN20complex_full_dynamic3app17h0f163cd4d8026c84E+0x72>
   2060a:	a803      	add	r0, sp, #12
   2060c:	2104      	movs	r1, #4
   2060e:	7201      	strb	r1, [r0, #8]
   20610:	9604      	str	r6, [sp, #16]
   20612:	4819      	ldr	r0, [pc, #100]	@ (20678 <_ZN20complex_full_dynamic3app17h0f163cd4d8026c84E+0xac>)
   20614:	9003      	str	r0, [sp, #12]
   20616:	2407      	movs	r4, #7
   20618:	2336      	movs	r3, #54	@ 0x36
   2061a:	4621      	mov	r1, r4
   2061c:	462a      	mov	r2, r5
   2061e:	df03      	svc	3
   20620:	2802      	cmp	r0, #2
   20622:	d00c      	beq.n	2063e <_ZN20complex_full_dynamic3app17h0f163cd4d8026c84E+0x72>
   20624:	a80a      	add	r0, sp, #40	@ 0x28
   20626:	2103      	movs	r1, #3
   20628:	7201      	strb	r1, [r0, #8]
   2062a:	4813      	ldr	r0, [pc, #76]	@ (20678 <_ZN20complex_full_dynamic3app17h0f163cd4d8026c84E+0xac>)
   2062c:	900a      	str	r0, [sp, #40]	@ 0x28
   2062e:	940b      	str	r4, [sp, #44]	@ 0x2c
   20630:	2101      	movs	r1, #1
   20632:	2300      	movs	r3, #0
   20634:	4622      	mov	r2, r4
   20636:	9301      	str	r3, [sp, #4]
   20638:	df02      	svc	2
   2063a:	287f      	cmp	r0, #127	@ 0x7f
   2063c:	d80a      	bhi.n	20654 <_ZN20complex_full_dynamic3app17h0f163cd4d8026c84E+0x88>
   2063e:	9c02      	ldr	r4, [sp, #8]
   20640:	6061      	str	r1, [r4, #4]
   20642:	7026      	strb	r6, [r4, #0]
   20644:	a80a      	add	r0, sp, #40	@ 0x28
   20646:	f006 fc69 	bl	26f1c <_ZN9allow_pin12full_dynamic17unshare_if_shared17h02646414dc25e2d7E>
   2064a:	a803      	add	r0, sp, #12
   2064c:	f006 fc66 	bl	26f1c <_ZN9allow_pin12full_dynamic17unshare_if_shared17h02646414dc25e2d7E>
   20650:	b01b      	add	sp, #108	@ 0x6c
   20652:	bdf0      	pop	{r4, r5, r6, r7, pc}
   20654:	a803      	add	r0, sp, #12
   20656:	f006 fc61 	bl	26f1c <_ZN9allow_pin12full_dynamic17unshare_if_shared17h02646414dc25e2d7E>
   2065a:	ac0a      	add	r4, sp, #40	@ 0x28
   2065c:	4620      	mov	r0, r4
   2065e:	f006 fc5d 	bl	26f1c <_ZN9allow_pin12full_dynamic17unshare_if_shared17h02646414dc25e2d7E>
   20662:	4620      	mov	r0, r4
   20664:	f006 fc5a 	bl	26f1c <_ZN9allow_pin12full_dynamic17unshare_if_shared17h02646414dc25e2d7E>
   20668:	9c02      	ldr	r4, [sp, #8]
   2066a:	1c60      	adds	r0, r4, #1
   2066c:	2236      	movs	r2, #54	@ 0x36
   2066e:	4629      	mov	r1, r5
   20670:	f006 fe15 	bl	2729e <__aeabi_memcpy>
   20674:	9e01      	ldr	r6, [sp, #4]
   20676:	e7e4      	b.n	20642 <_ZN20complex_full_dynamic3app17h0f163cd4d8026c84E+0x76>
   20678:	00001989 	.word	0x00001989

0002067c <_ZN20complex_full_dynamic3app17h1bbadb7fc13c4f24E>:
   2067c:	b5f0      	push	{r4, r5, r6, r7, lr}
   2067e:	af03      	add	r7, sp, #12
   20680:	b0a7      	sub	sp, #156	@ 0x9c
   20682:	9002      	str	r0, [sp, #8]
   20684:	ac03      	add	r4, sp, #12
   20686:	2602      	movs	r6, #2
   20688:	7226      	strb	r6, [r4, #8]
   2068a:	340c      	adds	r4, #12
   2068c:	2221      	movs	r2, #33	@ 0x21
   2068e:	9201      	str	r2, [sp, #4]
   20690:	4620      	mov	r0, r4
   20692:	f006 fe04 	bl	2729e <__aeabi_memcpy>
   20696:	ad0f      	add	r5, sp, #60	@ 0x3c
   20698:	4628      	mov	r0, r5
   2069a:	300c      	adds	r0, #12
   2069c:	2153      	movs	r1, #83	@ 0x53
   2069e:	9000      	str	r0, [sp, #0]
   206a0:	f006 fc50 	bl	26f44 <__aeabi_memclr4>
   206a4:	722e      	strb	r6, [r5, #8]
   206a6:	4635      	mov	r5, r6
   206a8:	4e1f      	ldr	r6, [pc, #124]	@ (20728 <_ZN20complex_full_dynamic3app17h1bbadb7fc13c4f24E+0xac>)
   206aa:	4630      	mov	r0, r6
   206ac:	4629      	mov	r1, r5
   206ae:	4622      	mov	r2, r4
   206b0:	9b01      	ldr	r3, [sp, #4]
   206b2:	df04      	svc	4
   206b4:	2802      	cmp	r0, #2
   206b6:	d01a      	beq.n	206ee <_ZN20complex_full_dynamic3app17h1bbadb7fc13c4f24E+0x72>
   206b8:	a803      	add	r0, sp, #12
   206ba:	2104      	movs	r1, #4
   206bc:	7201      	strb	r1, [r0, #8]
   206be:	9504      	str	r5, [sp, #16]
   206c0:	9603      	str	r6, [sp, #12]
   206c2:	2408      	movs	r4, #8
   206c4:	2353      	movs	r3, #83	@ 0x53
   206c6:	4630      	mov	r0, r6
   206c8:	4621      	mov	r1, r4
   206ca:	9d00      	ldr	r5, [sp, #0]
   206cc:	462a      	mov	r2, r5
   206ce:	df03      	svc	3
   206d0:	2802      	cmp	r0, #2
   206d2:	d00c      	beq.n	206ee <_ZN20complex_full_dynamic3app17h1bbadb7fc13c4f24E+0x72>
   206d4:	a80f      	add	r0, sp, #60	@ 0x3c
   206d6:	2103      	movs	r1, #3
   206d8:	7201      	strb	r1, [r0, #8]
   206da:	960f      	str	r6, [sp, #60]	@ 0x3c
   206dc:	9410      	str	r4, [sp, #64]	@ 0x40
   206de:	4812      	ldr	r0, [pc, #72]	@ (20728 <_ZN20complex_full_dynamic3app17h1bbadb7fc13c4f24E+0xac>)
   206e0:	2102      	movs	r1, #2
   206e2:	2600      	movs	r6, #0
   206e4:	4622      	mov	r2, r4
   206e6:	4633      	mov	r3, r6
   206e8:	df02      	svc	2
   206ea:	287f      	cmp	r0, #127	@ 0x7f
   206ec:	d80b      	bhi.n	20706 <_ZN20complex_full_dynamic3app17h1bbadb7fc13c4f24E+0x8a>
   206ee:	9c02      	ldr	r4, [sp, #8]
   206f0:	6061      	str	r1, [r4, #4]
   206f2:	2601      	movs	r6, #1
   206f4:	7026      	strb	r6, [r4, #0]
   206f6:	a80f      	add	r0, sp, #60	@ 0x3c
   206f8:	f006 fc10 	bl	26f1c <_ZN9allow_pin12full_dynamic17unshare_if_shared17h02646414dc25e2d7E>
   206fc:	a803      	add	r0, sp, #12
   206fe:	f006 fc0d 	bl	26f1c <_ZN9allow_pin12full_dynamic17unshare_if_shared17h02646414dc25e2d7E>
   20702:	b027      	add	sp, #156	@ 0x9c
   20704:	bdf0      	pop	{r4, r5, r6, r7, pc}
   20706:	a803      	add	r0, sp, #12
   20708:	f006 fc08 	bl	26f1c <_ZN9allow_pin12full_dynamic17unshare_if_shared17h02646414dc25e2d7E>
   2070c:	ac0f      	add	r4, sp, #60	@ 0x3c
   2070e:	4620      	mov	r0, r4
   20710:	f006 fc04 	bl	26f1c <_ZN9allow_pin12full_dynamic17unshare_if_shared17h02646414dc25e2d7E>
   20714:	4620      	mov	r0, r4
   20716:	f006 fc01 	bl	26f1c <_ZN9allow_pin12full_dynamic17unshare_if_shared17h02646414dc25e2d7E>
   2071a:	9c02      	ldr	r4, [sp, #8]
   2071c:	1c60      	adds	r0, r4, #1
   2071e:	2253      	movs	r2, #83	@ 0x53
   20720:	4629      	mov	r1, r5
   20722:	f006 fdbc 	bl	2729e <__aeabi_memcpy>
   20726:	e7e5      	b.n	206f4 <_ZN20complex_full_dynamic3app17h1bbadb7fc13c4f24E+0x78>
   20728:	0000253e 	.word	0x0000253e

0002072c <_ZN20complex_full_dynamic3app17h1cb0aeec58ba27aeE>:
   2072c:	b5f0      	push	{r4, r5, r6, r7, lr}
   2072e:	af03      	add	r7, sp, #12
   20730:	b0a7      	sub	sp, #156	@ 0x9c
   20732:	9003      	str	r0, [sp, #12]
   20734:	ae04      	add	r6, sp, #16
   20736:	2002      	movs	r0, #2
   20738:	9002      	str	r0, [sp, #8]
   2073a:	7230      	strb	r0, [r6, #8]
   2073c:	360c      	adds	r6, #12
   2073e:	2248      	movs	r2, #72	@ 0x48
   20740:	9201      	str	r2, [sp, #4]
   20742:	4630      	mov	r0, r6
   20744:	f006 fdab 	bl	2729e <__aeabi_memcpy>
   20748:	ad19      	add	r5, sp, #100	@ 0x64
   2074a:	462c      	mov	r4, r5
   2074c:	340c      	adds	r4, #12
   2074e:	2129      	movs	r1, #41	@ 0x29
   20750:	4620      	mov	r0, r4
   20752:	f006 fbf7 	bl	26f44 <__aeabi_memclr4>
   20756:	9802      	ldr	r0, [sp, #8]
   20758:	7228      	strb	r0, [r5, #8]
   2075a:	481f      	ldr	r0, [pc, #124]	@ (207d8 <_ZN20complex_full_dynamic3app17h1cb0aeec58ba27aeE+0xac>)
   2075c:	2503      	movs	r5, #3
   2075e:	4629      	mov	r1, r5
   20760:	4632      	mov	r2, r6
   20762:	9b01      	ldr	r3, [sp, #4]
   20764:	df04      	svc	4
   20766:	2802      	cmp	r0, #2
   20768:	d018      	beq.n	2079c <_ZN20complex_full_dynamic3app17h1cb0aeec58ba27aeE+0x70>
   2076a:	a804      	add	r0, sp, #16
   2076c:	2604      	movs	r6, #4
   2076e:	7206      	strb	r6, [r0, #8]
   20770:	9505      	str	r5, [sp, #20]
   20772:	4819      	ldr	r0, [pc, #100]	@ (207d8 <_ZN20complex_full_dynamic3app17h1cb0aeec58ba27aeE+0xac>)
   20774:	9004      	str	r0, [sp, #16]
   20776:	2329      	movs	r3, #41	@ 0x29
   20778:	4631      	mov	r1, r6
   2077a:	4622      	mov	r2, r4
   2077c:	df03      	svc	3
   2077e:	2802      	cmp	r0, #2
   20780:	d00c      	beq.n	2079c <_ZN20complex_full_dynamic3app17h1cb0aeec58ba27aeE+0x70>
   20782:	a819      	add	r0, sp, #100	@ 0x64
   20784:	7205      	strb	r5, [r0, #8]
   20786:	4814      	ldr	r0, [pc, #80]	@ (207d8 <_ZN20complex_full_dynamic3app17h1cb0aeec58ba27aeE+0xac>)
   20788:	9019      	str	r0, [sp, #100]	@ 0x64
   2078a:	961a      	str	r6, [sp, #104]	@ 0x68
   2078c:	2200      	movs	r2, #0
   2078e:	4629      	mov	r1, r5
   20790:	4615      	mov	r5, r2
   20792:	4632      	mov	r2, r6
   20794:	462b      	mov	r3, r5
   20796:	df02      	svc	2
   20798:	287f      	cmp	r0, #127	@ 0x7f
   2079a:	d80b      	bhi.n	207b4 <_ZN20complex_full_dynamic3app17h1cb0aeec58ba27aeE+0x88>
   2079c:	9c03      	ldr	r4, [sp, #12]
   2079e:	6061      	str	r1, [r4, #4]
   207a0:	2501      	movs	r5, #1
   207a2:	7025      	strb	r5, [r4, #0]
   207a4:	a819      	add	r0, sp, #100	@ 0x64
   207a6:	f006 fbb9 	bl	26f1c <_ZN9allow_pin12full_dynamic17unshare_if_shared17h02646414dc25e2d7E>
   207aa:	a804      	add	r0, sp, #16
   207ac:	f006 fbb6 	bl	26f1c <_ZN9allow_pin12full_dynamic17unshare_if_shared17h02646414dc25e2d7E>
   207b0:	b027      	add	sp, #156	@ 0x9c
   207b2:	bdf0      	pop	{r4, r5, r6, r7, pc}
   207b4:	a804      	add	r0, sp, #16
   207b6:	f006 fbb1 	bl	26f1c <_ZN9allow_pin12full_dynamic17unshare_if_shared17h02646414dc25e2d7E>
   207ba:	4626      	mov	r6, r4
   207bc:	ac19      	add	r4, sp, #100	@ 0x64
   207be:	4620      	mov	r0, r4
   207c0:	f006 fbac 	bl	26f1c <_ZN9allow_pin12full_dynamic17unshare_if_shared17h02646414dc25e2d7E>
   207c4:	4620      	mov	r0, r4
   207c6:	f006 fba9 	bl	26f1c <_ZN9allow_pin12full_dynamic17unshare_if_shared17h02646414dc25e2d7E>
   207ca:	9c03      	ldr	r4, [sp, #12]
   207cc:	1c60      	adds	r0, r4, #1
   207ce:	2229      	movs	r2, #41	@ 0x29
   207d0:	4631      	mov	r1, r6
   207d2:	f006 fd64 	bl	2729e <__aeabi_memcpy>
   207d6:	e7e4      	b.n	207a2 <_ZN20complex_full_dynamic3app17h1cb0aeec58ba27aeE+0x76>
   207d8:	000026a4 	.word	0x000026a4

000207dc <_ZN20complex_full_dynamic3app17h1fa9df6f88abc66eE>:
   207dc:	b5f0      	push	{r4, r5, r6, r7, lr}
   207de:	af03      	add	r7, sp, #12
   207e0:	b097      	sub	sp, #92	@ 0x5c
   207e2:	9001      	str	r0, [sp, #4]
   207e4:	ae02      	add	r6, sp, #8
   207e6:	2502      	movs	r5, #2
   207e8:	7235      	strb	r5, [r6, #8]
   207ea:	360c      	adds	r6, #12
   207ec:	222b      	movs	r2, #43	@ 0x2b
   207ee:	9200      	str	r2, [sp, #0]
   207f0:	4630      	mov	r0, r6
   207f2:	f006 fd54 	bl	2729e <__aeabi_memcpy>
   207f6:	ac10      	add	r4, sp, #64	@ 0x40
   207f8:	2000      	movs	r0, #0
   207fa:	7620      	strb	r0, [r4, #24]
   207fc:	7225      	strb	r5, [r4, #8]
   207fe:	9015      	str	r0, [sp, #84]	@ 0x54
   20800:	9014      	str	r0, [sp, #80]	@ 0x50
   20802:	9013      	str	r0, [sp, #76]	@ 0x4c
   20804:	4820      	ldr	r0, [pc, #128]	@ (20888 <_ZN20complex_full_dynamic3app17h1fa9df6f88abc66eE+0xac>)
   20806:	2506      	movs	r5, #6
   20808:	4629      	mov	r1, r5
   2080a:	4632      	mov	r2, r6
   2080c:	9b00      	ldr	r3, [sp, #0]
   2080e:	df04      	svc	4
   20810:	2802      	cmp	r0, #2
   20812:	d01a      	beq.n	2084a <_ZN20complex_full_dynamic3app17h1fa9df6f88abc66eE+0x6e>
   20814:	340c      	adds	r4, #12
   20816:	a802      	add	r0, sp, #8
   20818:	2104      	movs	r1, #4
   2081a:	7201      	strb	r1, [r0, #8]
   2081c:	9503      	str	r5, [sp, #12]
   2081e:	4d1a      	ldr	r5, [pc, #104]	@ (20888 <_ZN20complex_full_dynamic3app17h1fa9df6f88abc66eE+0xac>)
   20820:	9502      	str	r5, [sp, #8]
   20822:	2600      	movs	r6, #0
   20824:	230d      	movs	r3, #13
   20826:	4628      	mov	r0, r5
   20828:	4631      	mov	r1, r6
   2082a:	4622      	mov	r2, r4
   2082c:	df03      	svc	3
   2082e:	2802      	cmp	r0, #2
   20830:	d00b      	beq.n	2084a <_ZN20complex_full_dynamic3app17h1fa9df6f88abc66eE+0x6e>
   20832:	a810      	add	r0, sp, #64	@ 0x40
   20834:	2103      	movs	r1, #3
   20836:	7201      	strb	r1, [r0, #8]
   20838:	9510      	str	r5, [sp, #64]	@ 0x40
   2083a:	9611      	str	r6, [sp, #68]	@ 0x44
   2083c:	4812      	ldr	r0, [pc, #72]	@ (20888 <_ZN20complex_full_dynamic3app17h1fa9df6f88abc66eE+0xac>)
   2083e:	2106      	movs	r1, #6
   20840:	4632      	mov	r2, r6
   20842:	4633      	mov	r3, r6
   20844:	df02      	svc	2
   20846:	287f      	cmp	r0, #127	@ 0x7f
   20848:	d80b      	bhi.n	20862 <_ZN20complex_full_dynamic3app17h1fa9df6f88abc66eE+0x86>
   2084a:	9c01      	ldr	r4, [sp, #4]
   2084c:	6061      	str	r1, [r4, #4]
   2084e:	2601      	movs	r6, #1
   20850:	7026      	strb	r6, [r4, #0]
   20852:	a810      	add	r0, sp, #64	@ 0x40
   20854:	f006 fb62 	bl	26f1c <_ZN9allow_pin12full_dynamic17unshare_if_shared17h02646414dc25e2d7E>
   20858:	a802      	add	r0, sp, #8
   2085a:	f006 fb5f 	bl	26f1c <_ZN9allow_pin12full_dynamic17unshare_if_shared17h02646414dc25e2d7E>
   2085e:	b017      	add	sp, #92	@ 0x5c
   20860:	bdf0      	pop	{r4, r5, r6, r7, pc}
   20862:	a802      	add	r0, sp, #8
   20864:	f006 fb5a 	bl	26f1c <_ZN9allow_pin12full_dynamic17unshare_if_shared17h02646414dc25e2d7E>
   20868:	4625      	mov	r5, r4
   2086a:	ac10      	add	r4, sp, #64	@ 0x40
   2086c:	4620      	mov	r0, r4
   2086e:	f006 fb55 	bl	26f1c <_ZN9allow_pin12full_dynamic17unshare_if_shared17h02646414dc25e2d7E>
   20872:	4620      	mov	r0, r4
   20874:	f006 fb52 	bl	26f1c <_ZN9allow_pin12full_dynamic17unshare_if_shared17h02646414dc25e2d7E>
   20878:	9c01      	ldr	r4, [sp, #4]
   2087a:	1c60      	adds	r0, r4, #1
   2087c:	220d      	movs	r2, #13
   2087e:	4629      	mov	r1, r5
   20880:	f006 fd0d 	bl	2729e <__aeabi_memcpy>
   20884:	e7e4      	b.n	20850 <_ZN20complex_full_dynamic3app17h1fa9df6f88abc66eE+0x74>
   20886:	46c0      	nop			@ (mov r8, r8)
   20888:	00001465 	.word	0x00001465

0002088c <_ZN20complex_full_dynamic3app17h237616b853902cf8E>:
   2088c:	b5f0      	push	{r4, r5, r6, r7, lr}
   2088e:	af03      	add	r7, sp, #12
   20890:	b099      	sub	sp, #100	@ 0x64
   20892:	9002      	str	r0, [sp, #8]
   20894:	ac03      	add	r4, sp, #12
   20896:	2602      	movs	r6, #2
   20898:	7226      	strb	r6, [r4, #8]
   2089a:	340c      	adds	r4, #12
   2089c:	2525      	movs	r5, #37	@ 0x25
   2089e:	4620      	mov	r0, r4
   208a0:	462a      	mov	r2, r5
   208a2:	f006 fcfc 	bl	2729e <__aeabi_memcpy>
   208a6:	a810      	add	r0, sp, #64	@ 0x40
   208a8:	9001      	str	r0, [sp, #4]
   208aa:	7206      	strb	r6, [r0, #8]
   208ac:	2000      	movs	r0, #0
   208ae:	9018      	str	r0, [sp, #96]	@ 0x60
   208b0:	9017      	str	r0, [sp, #92]	@ 0x5c
   208b2:	9016      	str	r0, [sp, #88]	@ 0x58
   208b4:	9015      	str	r0, [sp, #84]	@ 0x54
   208b6:	9014      	str	r0, [sp, #80]	@ 0x50
   208b8:	9013      	str	r0, [sp, #76]	@ 0x4c
   208ba:	20a7      	movs	r0, #167	@ 0xa7
   208bc:	0100      	lsls	r0, r0, #4
   208be:	2609      	movs	r6, #9
   208c0:	9000      	str	r0, [sp, #0]
   208c2:	4631      	mov	r1, r6
   208c4:	4622      	mov	r2, r4
   208c6:	462b      	mov	r3, r5
   208c8:	df04      	svc	4
   208ca:	2802      	cmp	r0, #2
   208cc:	d01d      	beq.n	2090a <_ZN20complex_full_dynamic3app17h237616b853902cf8E+0x7e>
   208ce:	9c01      	ldr	r4, [sp, #4]
   208d0:	340c      	adds	r4, #12
   208d2:	a803      	add	r0, sp, #12
   208d4:	2104      	movs	r1, #4
   208d6:	7201      	strb	r1, [r0, #8]
   208d8:	9604      	str	r6, [sp, #16]
   208da:	9d00      	ldr	r5, [sp, #0]
   208dc:	9503      	str	r5, [sp, #12]
   208de:	2108      	movs	r1, #8
   208e0:	2318      	movs	r3, #24
   208e2:	4628      	mov	r0, r5
   208e4:	460e      	mov	r6, r1
   208e6:	4622      	mov	r2, r4
   208e8:	df03      	svc	3
   208ea:	2802      	cmp	r0, #2
   208ec:	d00d      	beq.n	2090a <_ZN20complex_full_dynamic3app17h237616b853902cf8E+0x7e>
   208ee:	9401      	str	r4, [sp, #4]
   208f0:	a810      	add	r0, sp, #64	@ 0x40
   208f2:	2103      	movs	r1, #3
   208f4:	7201      	strb	r1, [r0, #8]
   208f6:	9510      	str	r5, [sp, #64]	@ 0x40
   208f8:	9611      	str	r6, [sp, #68]	@ 0x44
   208fa:	2109      	movs	r1, #9
   208fc:	2400      	movs	r4, #0
   208fe:	4628      	mov	r0, r5
   20900:	4632      	mov	r2, r6
   20902:	4623      	mov	r3, r4
   20904:	df02      	svc	2
   20906:	287f      	cmp	r0, #127	@ 0x7f
   20908:	d80b      	bhi.n	20922 <_ZN20complex_full_dynamic3app17h237616b853902cf8E+0x96>
   2090a:	9d02      	ldr	r5, [sp, #8]
   2090c:	6069      	str	r1, [r5, #4]
   2090e:	2401      	movs	r4, #1
   20910:	702c      	strb	r4, [r5, #0]
   20912:	a810      	add	r0, sp, #64	@ 0x40
   20914:	f006 fb02 	bl	26f1c <_ZN9allow_pin12full_dynamic17unshare_if_shared17h02646414dc25e2d7E>
   20918:	a803      	add	r0, sp, #12
   2091a:	f006 faff 	bl	26f1c <_ZN9allow_pin12full_dynamic17unshare_if_shared17h02646414dc25e2d7E>
   2091e:	b019      	add	sp, #100	@ 0x64
   20920:	bdf0      	pop	{r4, r5, r6, r7, pc}
   20922:	a803      	add	r0, sp, #12
   20924:	f006 fafa 	bl	26f1c <_ZN9allow_pin12full_dynamic17unshare_if_shared17h02646414dc25e2d7E>
   20928:	ad10      	add	r5, sp, #64	@ 0x40
   2092a:	4628      	mov	r0, r5
   2092c:	f006 faf6 	bl	26f1c <_ZN9allow_pin12full_dynamic17unshare_if_shared17h02646414dc25e2d7E>
   20930:	4628      	mov	r0, r5
   20932:	f006 faf3 	bl	26f1c <_ZN9allow_pin12full_dynamic17unshare_if_shared17h02646414dc25e2d7E>
   20936:	9d02      	ldr	r5, [sp, #8]
   20938:	1c68      	adds	r0, r5, #1
   2093a:	2218      	movs	r2, #24
   2093c:	9901      	ldr	r1, [sp, #4]
   2093e:	f006 fcae 	bl	2729e <__aeabi_memcpy>
   20942:	e7e5      	b.n	20910 <_ZN20complex_full_dynamic3app17h237616b853902cf8E+0x84>

00020944 <_ZN20complex_full_dynamic3app17h23a9eb6c1e0b7697E>:
   20944:	b5f0      	push	{r4, r5, r6, r7, lr}
   20946:	af03      	add	r7, sp, #12
   20948:	b097      	sub	sp, #92	@ 0x5c
   2094a:	9002      	str	r0, [sp, #8]
   2094c:	ac03      	add	r4, sp, #12
   2094e:	2502      	movs	r5, #2
   20950:	7225      	strb	r5, [r4, #8]
   20952:	340c      	adds	r4, #12
   20954:	2218      	movs	r2, #24
   20956:	9201      	str	r2, [sp, #4]
   20958:	4620      	mov	r0, r4
   2095a:	f006 fca0 	bl	2729e <__aeabi_memcpy>
   2095e:	ae0c      	add	r6, sp, #48	@ 0x30
   20960:	2000      	movs	r0, #0
   20962:	8530      	strh	r0, [r6, #40]	@ 0x28
   20964:	7235      	strb	r5, [r6, #8]
   20966:	9015      	str	r0, [sp, #84]	@ 0x54
   20968:	9014      	str	r0, [sp, #80]	@ 0x50
   2096a:	9013      	str	r0, [sp, #76]	@ 0x4c
   2096c:	9012      	str	r0, [sp, #72]	@ 0x48
   2096e:	9011      	str	r0, [sp, #68]	@ 0x44
   20970:	9010      	str	r0, [sp, #64]	@ 0x40
   20972:	900f      	str	r0, [sp, #60]	@ 0x3c
   20974:	4820      	ldr	r0, [pc, #128]	@ (209f8 <_ZN20complex_full_dynamic3app17h23a9eb6c1e0b7697E+0xb4>)
   20976:	2509      	movs	r5, #9
   20978:	4629      	mov	r1, r5
   2097a:	4622      	mov	r2, r4
   2097c:	9b01      	ldr	r3, [sp, #4]
   2097e:	df04      	svc	4
   20980:	2802      	cmp	r0, #2
   20982:	d01b      	beq.n	209bc <_ZN20complex_full_dynamic3app17h23a9eb6c1e0b7697E+0x78>
   20984:	360c      	adds	r6, #12
   20986:	a803      	add	r0, sp, #12
   20988:	2104      	movs	r1, #4
   2098a:	7201      	strb	r1, [r0, #8]
   2098c:	9504      	str	r5, [sp, #16]
   2098e:	481a      	ldr	r0, [pc, #104]	@ (209f8 <_ZN20complex_full_dynamic3app17h23a9eb6c1e0b7697E+0xb4>)
   20990:	9003      	str	r0, [sp, #12]
   20992:	2405      	movs	r4, #5
   20994:	231e      	movs	r3, #30
   20996:	4621      	mov	r1, r4
   20998:	4632      	mov	r2, r6
   2099a:	df03      	svc	3
   2099c:	2802      	cmp	r0, #2
   2099e:	d00d      	beq.n	209bc <_ZN20complex_full_dynamic3app17h23a9eb6c1e0b7697E+0x78>
   209a0:	4635      	mov	r5, r6
   209a2:	a80c      	add	r0, sp, #48	@ 0x30
   209a4:	2103      	movs	r1, #3
   209a6:	7201      	strb	r1, [r0, #8]
   209a8:	4813      	ldr	r0, [pc, #76]	@ (209f8 <_ZN20complex_full_dynamic3app17h23a9eb6c1e0b7697E+0xb4>)
   209aa:	900c      	str	r0, [sp, #48]	@ 0x30
   209ac:	940d      	str	r4, [sp, #52]	@ 0x34
   209ae:	2109      	movs	r1, #9
   209b0:	2600      	movs	r6, #0
   209b2:	4622      	mov	r2, r4
   209b4:	4633      	mov	r3, r6
   209b6:	df02      	svc	2
   209b8:	287f      	cmp	r0, #127	@ 0x7f
   209ba:	d80b      	bhi.n	209d4 <_ZN20complex_full_dynamic3app17h23a9eb6c1e0b7697E+0x90>
   209bc:	9c02      	ldr	r4, [sp, #8]
   209be:	6061      	str	r1, [r4, #4]
   209c0:	2601      	movs	r6, #1
   209c2:	7026      	strb	r6, [r4, #0]
   209c4:	a80c      	add	r0, sp, #48	@ 0x30
   209c6:	f006 faa9 	bl	26f1c <_ZN9allow_pin12full_dynamic17unshare_if_shared17h02646414dc25e2d7E>
   209ca:	a803      	add	r0, sp, #12
   209cc:	f006 faa6 	bl	26f1c <_ZN9allow_pin12full_dynamic17unshare_if_shared17h02646414dc25e2d7E>
   209d0:	b017      	add	sp, #92	@ 0x5c
   209d2:	bdf0      	pop	{r4, r5, r6, r7, pc}
   209d4:	a803      	add	r0, sp, #12
   209d6:	f006 faa1 	bl	26f1c <_ZN9allow_pin12full_dynamic17unshare_if_shared17h02646414dc25e2d7E>
   209da:	ac0c      	add	r4, sp, #48	@ 0x30
   209dc:	4620      	mov	r0, r4
   209de:	f006 fa9d 	bl	26f1c <_ZN9allow_pin12full_dynamic17unshare_if_shared17h02646414dc25e2d7E>
   209e2:	4620      	mov	r0, r4
   209e4:	f006 fa9a 	bl	26f1c <_ZN9allow_pin12full_dynamic17unshare_if_shared17h02646414dc25e2d7E>
   209e8:	9c02      	ldr	r4, [sp, #8]
   209ea:	1c60      	adds	r0, r4, #1
   209ec:	221e      	movs	r2, #30
   209ee:	4629      	mov	r1, r5
   209f0:	f006 fc55 	bl	2729e <__aeabi_memcpy>
   209f4:	e7e5      	b.n	209c2 <_ZN20complex_full_dynamic3app17h23a9eb6c1e0b7697E+0x7e>
   209f6:	46c0      	nop			@ (mov r8, r8)
   209f8:	00000cbb 	.word	0x00000cbb

000209fc <_ZN20complex_full_dynamic3app17h24a2051a6b796e26E>:
   209fc:	b5f0      	push	{r4, r5, r6, r7, lr}
   209fe:	af03      	add	r7, sp, #12
   20a00:	b0a7      	sub	sp, #156	@ 0x9c
   20a02:	9003      	str	r0, [sp, #12]
   20a04:	ae04      	add	r6, sp, #16
   20a06:	2002      	movs	r0, #2
   20a08:	9002      	str	r0, [sp, #8]
   20a0a:	7230      	strb	r0, [r6, #8]
   20a0c:	360c      	adds	r6, #12
   20a0e:	223c      	movs	r2, #60	@ 0x3c
   20a10:	9201      	str	r2, [sp, #4]
   20a12:	4630      	mov	r0, r6
   20a14:	f006 fc43 	bl	2729e <__aeabi_memcpy>
   20a18:	ad16      	add	r5, sp, #88	@ 0x58
   20a1a:	462c      	mov	r4, r5
   20a1c:	340c      	adds	r4, #12
   20a1e:	2138      	movs	r1, #56	@ 0x38
   20a20:	4620      	mov	r0, r4
   20a22:	f006 fa8f 	bl	26f44 <__aeabi_memclr4>
   20a26:	9802      	ldr	r0, [sp, #8]
   20a28:	7228      	strb	r0, [r5, #8]
   20a2a:	481f      	ldr	r0, [pc, #124]	@ (20aa8 <_ZN20complex_full_dynamic3app17h24a2051a6b796e26E+0xac>)
   20a2c:	2503      	movs	r5, #3
   20a2e:	4629      	mov	r1, r5
   20a30:	4632      	mov	r2, r6
   20a32:	9b01      	ldr	r3, [sp, #4]
   20a34:	df04      	svc	4
   20a36:	2802      	cmp	r0, #2
   20a38:	d018      	beq.n	20a6c <_ZN20complex_full_dynamic3app17h24a2051a6b796e26E+0x70>
   20a3a:	a804      	add	r0, sp, #16
   20a3c:	2104      	movs	r1, #4
   20a3e:	7201      	strb	r1, [r0, #8]
   20a40:	4e19      	ldr	r6, [pc, #100]	@ (20aa8 <_ZN20complex_full_dynamic3app17h24a2051a6b796e26E+0xac>)
   20a42:	9604      	str	r6, [sp, #16]
   20a44:	9505      	str	r5, [sp, #20]
   20a46:	2338      	movs	r3, #56	@ 0x38
   20a48:	4630      	mov	r0, r6
   20a4a:	4629      	mov	r1, r5
   20a4c:	4622      	mov	r2, r4
   20a4e:	df03      	svc	3
   20a50:	2802      	cmp	r0, #2
   20a52:	d00b      	beq.n	20a6c <_ZN20complex_full_dynamic3app17h24a2051a6b796e26E+0x70>
   20a54:	a816      	add	r0, sp, #88	@ 0x58
   20a56:	7205      	strb	r5, [r0, #8]
   20a58:	9517      	str	r5, [sp, #92]	@ 0x5c
   20a5a:	9616      	str	r6, [sp, #88]	@ 0x58
   20a5c:	4812      	ldr	r0, [pc, #72]	@ (20aa8 <_ZN20complex_full_dynamic3app17h24a2051a6b796e26E+0xac>)
   20a5e:	2600      	movs	r6, #0
   20a60:	4629      	mov	r1, r5
   20a62:	462a      	mov	r2, r5
   20a64:	4633      	mov	r3, r6
   20a66:	df02      	svc	2
   20a68:	287f      	cmp	r0, #127	@ 0x7f
   20a6a:	d80b      	bhi.n	20a84 <_ZN20complex_full_dynamic3app17h24a2051a6b796e26E+0x88>
   20a6c:	9c03      	ldr	r4, [sp, #12]
   20a6e:	6061      	str	r1, [r4, #4]
   20a70:	2601      	movs	r6, #1
   20a72:	7026      	strb	r6, [r4, #0]
   20a74:	a816      	add	r0, sp, #88	@ 0x58
   20a76:	f006 fa51 	bl	26f1c <_ZN9allow_pin12full_dynamic17unshare_if_shared17h02646414dc25e2d7E>
   20a7a:	a804      	add	r0, sp, #16
   20a7c:	f006 fa4e 	bl	26f1c <_ZN9allow_pin12full_dynamic17unshare_if_shared17h02646414dc25e2d7E>
   20a80:	b027      	add	sp, #156	@ 0x9c
   20a82:	bdf0      	pop	{r4, r5, r6, r7, pc}
   20a84:	a804      	add	r0, sp, #16
   20a86:	f006 fa49 	bl	26f1c <_ZN9allow_pin12full_dynamic17unshare_if_shared17h02646414dc25e2d7E>
   20a8a:	4625      	mov	r5, r4
   20a8c:	ac16      	add	r4, sp, #88	@ 0x58
   20a8e:	4620      	mov	r0, r4
   20a90:	f006 fa44 	bl	26f1c <_ZN9allow_pin12full_dynamic17unshare_if_shared17h02646414dc25e2d7E>
   20a94:	4620      	mov	r0, r4
   20a96:	f006 fa41 	bl	26f1c <_ZN9allow_pin12full_dynamic17unshare_if_shared17h02646414dc25e2d7E>
   20a9a:	9c03      	ldr	r4, [sp, #12]
   20a9c:	1c60      	adds	r0, r4, #1
   20a9e:	2238      	movs	r2, #56	@ 0x38
   20aa0:	4629      	mov	r1, r5
   20aa2:	f006 fbfc 	bl	2729e <__aeabi_memcpy>
   20aa6:	e7e4      	b.n	20a72 <_ZN20complex_full_dynamic3app17h24a2051a6b796e26E+0x76>
   20aa8:	00001d19 	.word	0x00001d19

00020aac <_ZN20complex_full_dynamic3app17h277420cbbe1d610dE>:
   20aac:	b5f0      	push	{r4, r5, r6, r7, lr}
   20aae:	af03      	add	r7, sp, #12
   20ab0:	b0a9      	sub	sp, #164	@ 0xa4
   20ab2:	9003      	str	r0, [sp, #12]
   20ab4:	ac04      	add	r4, sp, #16
   20ab6:	2602      	movs	r6, #2
   20ab8:	7226      	strb	r6, [r4, #8]
   20aba:	340c      	adds	r4, #12
   20abc:	224a      	movs	r2, #74	@ 0x4a
   20abe:	9202      	str	r2, [sp, #8]
   20ac0:	4620      	mov	r0, r4
   20ac2:	f006 fbec 	bl	2729e <__aeabi_memcpy>
   20ac6:	ad1a      	add	r5, sp, #104	@ 0x68
   20ac8:	4628      	mov	r0, r5
   20aca:	300c      	adds	r0, #12
   20acc:	212d      	movs	r1, #45	@ 0x2d
   20ace:	9001      	str	r0, [sp, #4]
   20ad0:	f006 fa38 	bl	26f44 <__aeabi_memclr4>
   20ad4:	722e      	strb	r6, [r5, #8]
   20ad6:	4635      	mov	r5, r6
   20ad8:	4e1f      	ldr	r6, [pc, #124]	@ (20b58 <_ZN20complex_full_dynamic3app17h277420cbbe1d610dE+0xac>)
   20ada:	4630      	mov	r0, r6
   20adc:	4629      	mov	r1, r5
   20ade:	4622      	mov	r2, r4
   20ae0:	9b02      	ldr	r3, [sp, #8]
   20ae2:	df04      	svc	4
   20ae4:	2802      	cmp	r0, #2
   20ae6:	d019      	beq.n	20b1c <_ZN20complex_full_dynamic3app17h277420cbbe1d610dE+0x70>
   20ae8:	a804      	add	r0, sp, #16
   20aea:	2104      	movs	r1, #4
   20aec:	7201      	strb	r1, [r0, #8]
   20aee:	9505      	str	r5, [sp, #20]
   20af0:	9604      	str	r6, [sp, #16]
   20af2:	2403      	movs	r4, #3
   20af4:	232d      	movs	r3, #45	@ 0x2d
   20af6:	4630      	mov	r0, r6
   20af8:	4621      	mov	r1, r4
   20afa:	9d01      	ldr	r5, [sp, #4]
   20afc:	462a      	mov	r2, r5
   20afe:	df03      	svc	3
   20b00:	2802      	cmp	r0, #2
   20b02:	d00b      	beq.n	20b1c <_ZN20complex_full_dynamic3app17h277420cbbe1d610dE+0x70>
   20b04:	a81a      	add	r0, sp, #104	@ 0x68
   20b06:	7204      	strb	r4, [r0, #8]
   20b08:	941b      	str	r4, [sp, #108]	@ 0x6c
   20b0a:	961a      	str	r6, [sp, #104]	@ 0x68
   20b0c:	4812      	ldr	r0, [pc, #72]	@ (20b58 <_ZN20complex_full_dynamic3app17h277420cbbe1d610dE+0xac>)
   20b0e:	2102      	movs	r1, #2
   20b10:	2600      	movs	r6, #0
   20b12:	4622      	mov	r2, r4
   20b14:	4633      	mov	r3, r6
   20b16:	df02      	svc	2
   20b18:	287f      	cmp	r0, #127	@ 0x7f
   20b1a:	d80b      	bhi.n	20b34 <_ZN20complex_full_dynamic3app17h277420cbbe1d610dE+0x88>
   20b1c:	9c03      	ldr	r4, [sp, #12]
   20b1e:	6061      	str	r1, [r4, #4]
   20b20:	2601      	movs	r6, #1
   20b22:	7026      	strb	r6, [r4, #0]
   20b24:	a81a      	add	r0, sp, #104	@ 0x68
   20b26:	f006 f9f9 	bl	26f1c <_ZN9allow_pin12full_dynamic17unshare_if_shared17h02646414dc25e2d7E>
   20b2a:	a804      	add	r0, sp, #16
   20b2c:	f006 f9f6 	bl	26f1c <_ZN9allow_pin12full_dynamic17unshare_if_shared17h02646414dc25e2d7E>
   20b30:	b029      	add	sp, #164	@ 0xa4
   20b32:	bdf0      	pop	{r4, r5, r6, r7, pc}
   20b34:	a804      	add	r0, sp, #16
   20b36:	f006 f9f1 	bl	26f1c <_ZN9allow_pin12full_dynamic17unshare_if_shared17h02646414dc25e2d7E>
   20b3a:	ac1a      	add	r4, sp, #104	@ 0x68
   20b3c:	4620      	mov	r0, r4
   20b3e:	f006 f9ed 	bl	26f1c <_ZN9allow_pin12full_dynamic17unshare_if_shared17h02646414dc25e2d7E>
   20b42:	4620      	mov	r0, r4
   20b44:	f006 f9ea 	bl	26f1c <_ZN9allow_pin12full_dynamic17unshare_if_shared17h02646414dc25e2d7E>
   20b48:	9c03      	ldr	r4, [sp, #12]
   20b4a:	1c60      	adds	r0, r4, #1
   20b4c:	222d      	movs	r2, #45	@ 0x2d
   20b4e:	4629      	mov	r1, r5
   20b50:	f006 fba5 	bl	2729e <__aeabi_memcpy>
   20b54:	e7e5      	b.n	20b22 <_ZN20complex_full_dynamic3app17h277420cbbe1d610dE+0x76>
   20b56:	46c0      	nop			@ (mov r8, r8)
   20b58:	00000e3d 	.word	0x00000e3d

00020b5c <_ZN20complex_full_dynamic3app17h2933b4ac2cf33262E>:
   20b5c:	b5f0      	push	{r4, r5, r6, r7, lr}
   20b5e:	af03      	add	r7, sp, #12
   20b60:	b09f      	sub	sp, #124	@ 0x7c
   20b62:	9003      	str	r0, [sp, #12]
   20b64:	ae04      	add	r6, sp, #16
   20b66:	2002      	movs	r0, #2
   20b68:	9001      	str	r0, [sp, #4]
   20b6a:	7230      	strb	r0, [r6, #8]
   20b6c:	360c      	adds	r6, #12
   20b6e:	2211      	movs	r2, #17
   20b70:	9202      	str	r2, [sp, #8]
   20b72:	4630      	mov	r0, r6
   20b74:	f006 fb93 	bl	2729e <__aeabi_memcpy>
   20b78:	ad0c      	add	r5, sp, #48	@ 0x30
   20b7a:	462c      	mov	r4, r5
   20b7c:	340c      	adds	r4, #12
   20b7e:	213f      	movs	r1, #63	@ 0x3f
   20b80:	4620      	mov	r0, r4
   20b82:	f006 f9df 	bl	26f44 <__aeabi_memclr4>
   20b86:	9801      	ldr	r0, [sp, #4]
   20b88:	7228      	strb	r0, [r5, #8]
   20b8a:	20cb      	movs	r0, #203	@ 0xcb
   20b8c:	0100      	lsls	r0, r0, #4
   20b8e:	2507      	movs	r5, #7
   20b90:	9001      	str	r0, [sp, #4]
   20b92:	4629      	mov	r1, r5
   20b94:	4632      	mov	r2, r6
   20b96:	9b02      	ldr	r3, [sp, #8]
   20b98:	df04      	svc	4
   20b9a:	2802      	cmp	r0, #2
   20b9c:	d018      	beq.n	20bd0 <_ZN20complex_full_dynamic3app17h2933b4ac2cf33262E+0x74>
   20b9e:	a804      	add	r0, sp, #16
   20ba0:	2604      	movs	r6, #4
   20ba2:	7206      	strb	r6, [r0, #8]
   20ba4:	9505      	str	r5, [sp, #20]
   20ba6:	9801      	ldr	r0, [sp, #4]
   20ba8:	9004      	str	r0, [sp, #16]
   20baa:	233f      	movs	r3, #63	@ 0x3f
   20bac:	4631      	mov	r1, r6
   20bae:	4622      	mov	r2, r4
   20bb0:	df03      	svc	3
   20bb2:	2802      	cmp	r0, #2
   20bb4:	d00c      	beq.n	20bd0 <_ZN20complex_full_dynamic3app17h2933b4ac2cf33262E+0x74>
   20bb6:	a80c      	add	r0, sp, #48	@ 0x30
   20bb8:	2103      	movs	r1, #3
   20bba:	7201      	strb	r1, [r0, #8]
   20bbc:	9801      	ldr	r0, [sp, #4]
   20bbe:	900c      	str	r0, [sp, #48]	@ 0x30
   20bc0:	960d      	str	r6, [sp, #52]	@ 0x34
   20bc2:	2107      	movs	r1, #7
   20bc4:	2300      	movs	r3, #0
   20bc6:	4632      	mov	r2, r6
   20bc8:	461e      	mov	r6, r3
   20bca:	df02      	svc	2
   20bcc:	287f      	cmp	r0, #127	@ 0x7f
   20bce:	d80b      	bhi.n	20be8 <_ZN20complex_full_dynamic3app17h2933b4ac2cf33262E+0x8c>
   20bd0:	9c03      	ldr	r4, [sp, #12]
   20bd2:	6061      	str	r1, [r4, #4]
   20bd4:	2601      	movs	r6, #1
   20bd6:	7026      	strb	r6, [r4, #0]
   20bd8:	a80c      	add	r0, sp, #48	@ 0x30
   20bda:	f006 f99f 	bl	26f1c <_ZN9allow_pin12full_dynamic17unshare_if_shared17h02646414dc25e2d7E>
   20bde:	a804      	add	r0, sp, #16
   20be0:	f006 f99c 	bl	26f1c <_ZN9allow_pin12full_dynamic17unshare_if_shared17h02646414dc25e2d7E>
   20be4:	b01f      	add	sp, #124	@ 0x7c
   20be6:	bdf0      	pop	{r4, r5, r6, r7, pc}
   20be8:	4625      	mov	r5, r4
   20bea:	a804      	add	r0, sp, #16
   20bec:	f006 f996 	bl	26f1c <_ZN9allow_pin12full_dynamic17unshare_if_shared17h02646414dc25e2d7E>
   20bf0:	ac0c      	add	r4, sp, #48	@ 0x30
   20bf2:	4620      	mov	r0, r4
   20bf4:	f006 f992 	bl	26f1c <_ZN9allow_pin12full_dynamic17unshare_if_shared17h02646414dc25e2d7E>
   20bf8:	4620      	mov	r0, r4
   20bfa:	f006 f98f 	bl	26f1c <_ZN9allow_pin12full_dynamic17unshare_if_shared17h02646414dc25e2d7E>
   20bfe:	9c03      	ldr	r4, [sp, #12]
   20c00:	1c60      	adds	r0, r4, #1
   20c02:	223f      	movs	r2, #63	@ 0x3f
   20c04:	4629      	mov	r1, r5
   20c06:	f006 fb4a 	bl	2729e <__aeabi_memcpy>
   20c0a:	e7e4      	b.n	20bd6 <_ZN20complex_full_dynamic3app17h2933b4ac2cf33262E+0x7a>

00020c0c <_ZN20complex_full_dynamic3app17h2b5311d4d722d9fdE>:
   20c0c:	b5f0      	push	{r4, r5, r6, r7, lr}
   20c0e:	af03      	add	r7, sp, #12
   20c10:	b0a9      	sub	sp, #164	@ 0xa4
   20c12:	9002      	str	r0, [sp, #8]
   20c14:	ae03      	add	r6, sp, #12
   20c16:	2002      	movs	r0, #2
   20c18:	9001      	str	r0, [sp, #4]
   20c1a:	7230      	strb	r0, [r6, #8]
   20c1c:	360c      	adds	r6, #12
   20c1e:	221b      	movs	r2, #27
   20c20:	9200      	str	r2, [sp, #0]
   20c22:	4630      	mov	r0, r6
   20c24:	f006 fb3b 	bl	2729e <__aeabi_memcpy>
   20c28:	ad0d      	add	r5, sp, #52	@ 0x34
   20c2a:	462c      	mov	r4, r5
   20c2c:	340c      	adds	r4, #12
   20c2e:	2163      	movs	r1, #99	@ 0x63
   20c30:	4620      	mov	r0, r4
   20c32:	f006 f987 	bl	26f44 <__aeabi_memclr4>
   20c36:	9801      	ldr	r0, [sp, #4]
   20c38:	7228      	strb	r0, [r5, #8]
   20c3a:	481f      	ldr	r0, [pc, #124]	@ (20cb8 <_ZN20complex_full_dynamic3app17h2b5311d4d722d9fdE+0xac>)
   20c3c:	2503      	movs	r5, #3
   20c3e:	4629      	mov	r1, r5
   20c40:	4632      	mov	r2, r6
   20c42:	9b00      	ldr	r3, [sp, #0]
   20c44:	df04      	svc	4
   20c46:	2802      	cmp	r0, #2
   20c48:	d018      	beq.n	20c7c <_ZN20complex_full_dynamic3app17h2b5311d4d722d9fdE+0x70>
   20c4a:	a803      	add	r0, sp, #12
   20c4c:	2104      	movs	r1, #4
   20c4e:	7201      	strb	r1, [r0, #8]
   20c50:	4e19      	ldr	r6, [pc, #100]	@ (20cb8 <_ZN20complex_full_dynamic3app17h2b5311d4d722d9fdE+0xac>)
   20c52:	9603      	str	r6, [sp, #12]
   20c54:	9504      	str	r5, [sp, #16]
   20c56:	2363      	movs	r3, #99	@ 0x63
   20c58:	4630      	mov	r0, r6
   20c5a:	4629      	mov	r1, r5
   20c5c:	4622      	mov	r2, r4
   20c5e:	df03      	svc	3
   20c60:	2802      	cmp	r0, #2
   20c62:	d00b      	beq.n	20c7c <_ZN20complex_full_dynamic3app17h2b5311d4d722d9fdE+0x70>
   20c64:	a80d      	add	r0, sp, #52	@ 0x34
   20c66:	7205      	strb	r5, [r0, #8]
   20c68:	950e      	str	r5, [sp, #56]	@ 0x38
   20c6a:	960d      	str	r6, [sp, #52]	@ 0x34
   20c6c:	4812      	ldr	r0, [pc, #72]	@ (20cb8 <_ZN20complex_full_dynamic3app17h2b5311d4d722d9fdE+0xac>)
   20c6e:	2600      	movs	r6, #0
   20c70:	4629      	mov	r1, r5
   20c72:	462a      	mov	r2, r5
   20c74:	4633      	mov	r3, r6
   20c76:	df02      	svc	2
   20c78:	287f      	cmp	r0, #127	@ 0x7f
   20c7a:	d80b      	bhi.n	20c94 <_ZN20complex_full_dynamic3app17h2b5311d4d722d9fdE+0x88>
   20c7c:	9c02      	ldr	r4, [sp, #8]
   20c7e:	6061      	str	r1, [r4, #4]
   20c80:	2601      	movs	r6, #1
   20c82:	7026      	strb	r6, [r4, #0]
   20c84:	a80d      	add	r0, sp, #52	@ 0x34
   20c86:	f006 f949 	bl	26f1c <_ZN9allow_pin12full_dynamic17unshare_if_shared17h02646414dc25e2d7E>
   20c8a:	a803      	add	r0, sp, #12
   20c8c:	f006 f946 	bl	26f1c <_ZN9allow_pin12full_dynamic17unshare_if_shared17h02646414dc25e2d7E>
   20c90:	b029      	add	sp, #164	@ 0xa4
   20c92:	bdf0      	pop	{r4, r5, r6, r7, pc}
   20c94:	a803      	add	r0, sp, #12
   20c96:	f006 f941 	bl	26f1c <_ZN9allow_pin12full_dynamic17unshare_if_shared17h02646414dc25e2d7E>
   20c9a:	4625      	mov	r5, r4
   20c9c:	ac0d      	add	r4, sp, #52	@ 0x34
   20c9e:	4620      	mov	r0, r4
   20ca0:	f006 f93c 	bl	26f1c <_ZN9allow_pin12full_dynamic17unshare_if_shared17h02646414dc25e2d7E>
   20ca4:	4620      	mov	r0, r4
   20ca6:	f006 f939 	bl	26f1c <_ZN9allow_pin12full_dynamic17unshare_if_shared17h02646414dc25e2d7E>
   20caa:	9c02      	ldr	r4, [sp, #8]
   20cac:	1c60      	adds	r0, r4, #1
   20cae:	2263      	movs	r2, #99	@ 0x63
   20cb0:	4629      	mov	r1, r5
   20cb2:	f006 faf4 	bl	2729e <__aeabi_memcpy>
   20cb6:	e7e4      	b.n	20c82 <_ZN20complex_full_dynamic3app17h2b5311d4d722d9fdE+0x76>
   20cb8:	00002548 	.word	0x00002548

00020cbc <_ZN20complex_full_dynamic3app17h2b82577056742545E>:
   20cbc:	b5f0      	push	{r4, r5, r6, r7, lr}
   20cbe:	af03      	add	r7, sp, #12
   20cc0:	b0a7      	sub	sp, #156	@ 0x9c
   20cc2:	9002      	str	r0, [sp, #8]
   20cc4:	ac03      	add	r4, sp, #12
   20cc6:	2002      	movs	r0, #2
   20cc8:	9001      	str	r0, [sp, #4]
   20cca:	7220      	strb	r0, [r4, #8]
   20ccc:	340c      	adds	r4, #12
   20cce:	2235      	movs	r2, #53	@ 0x35
   20cd0:	9200      	str	r2, [sp, #0]
   20cd2:	4620      	mov	r0, r4
   20cd4:	f006 fae3 	bl	2729e <__aeabi_memcpy>
   20cd8:	ae14      	add	r6, sp, #80	@ 0x50
   20cda:	4635      	mov	r5, r6
   20cdc:	350c      	adds	r5, #12
   20cde:	213f      	movs	r1, #63	@ 0x3f
   20ce0:	4628      	mov	r0, r5
   20ce2:	f006 f92f 	bl	26f44 <__aeabi_memclr4>
   20ce6:	9801      	ldr	r0, [sp, #4]
   20ce8:	7230      	strb	r0, [r6, #8]
   20cea:	481f      	ldr	r0, [pc, #124]	@ (20d68 <_ZN20complex_full_dynamic3app17h2b82577056742545E+0xac>)
   20cec:	2600      	movs	r6, #0
   20cee:	4631      	mov	r1, r6
   20cf0:	4622      	mov	r2, r4
   20cf2:	9b00      	ldr	r3, [sp, #0]
   20cf4:	df04      	svc	4
   20cf6:	2802      	cmp	r0, #2
   20cf8:	d019      	beq.n	20d2e <_ZN20complex_full_dynamic3app17h2b82577056742545E+0x72>
   20cfa:	a803      	add	r0, sp, #12
   20cfc:	2104      	movs	r1, #4
   20cfe:	7201      	strb	r1, [r0, #8]
   20d00:	9604      	str	r6, [sp, #16]
   20d02:	4e19      	ldr	r6, [pc, #100]	@ (20d68 <_ZN20complex_full_dynamic3app17h2b82577056742545E+0xac>)
   20d04:	9603      	str	r6, [sp, #12]
   20d06:	2403      	movs	r4, #3
   20d08:	233f      	movs	r3, #63	@ 0x3f
   20d0a:	4630      	mov	r0, r6
   20d0c:	4621      	mov	r1, r4
   20d0e:	462a      	mov	r2, r5
   20d10:	df03      	svc	3
   20d12:	2802      	cmp	r0, #2
   20d14:	d00b      	beq.n	20d2e <_ZN20complex_full_dynamic3app17h2b82577056742545E+0x72>
   20d16:	a814      	add	r0, sp, #80	@ 0x50
   20d18:	7204      	strb	r4, [r0, #8]
   20d1a:	9415      	str	r4, [sp, #84]	@ 0x54
   20d1c:	9614      	str	r6, [sp, #80]	@ 0x50
   20d1e:	4812      	ldr	r0, [pc, #72]	@ (20d68 <_ZN20complex_full_dynamic3app17h2b82577056742545E+0xac>)
   20d20:	2600      	movs	r6, #0
   20d22:	4631      	mov	r1, r6
   20d24:	4622      	mov	r2, r4
   20d26:	4633      	mov	r3, r6
   20d28:	df02      	svc	2
   20d2a:	287f      	cmp	r0, #127	@ 0x7f
   20d2c:	d80b      	bhi.n	20d46 <_ZN20complex_full_dynamic3app17h2b82577056742545E+0x8a>
   20d2e:	9c02      	ldr	r4, [sp, #8]
   20d30:	6061      	str	r1, [r4, #4]
   20d32:	2601      	movs	r6, #1
   20d34:	7026      	strb	r6, [r4, #0]
   20d36:	a814      	add	r0, sp, #80	@ 0x50
   20d38:	f006 f8f0 	bl	26f1c <_ZN9allow_pin12full_dynamic17unshare_if_shared17h02646414dc25e2d7E>
   20d3c:	a803      	add	r0, sp, #12
   20d3e:	f006 f8ed 	bl	26f1c <_ZN9allow_pin12full_dynamic17unshare_if_shared17h02646414dc25e2d7E>
   20d42:	b027      	add	sp, #156	@ 0x9c
   20d44:	bdf0      	pop	{r4, r5, r6, r7, pc}
   20d46:	a803      	add	r0, sp, #12
   20d48:	f006 f8e8 	bl	26f1c <_ZN9allow_pin12full_dynamic17unshare_if_shared17h02646414dc25e2d7E>
   20d4c:	ac14      	add	r4, sp, #80	@ 0x50
   20d4e:	4620      	mov	r0, r4
   20d50:	f006 f8e4 	bl	26f1c <_ZN9allow_pin12full_dynamic17unshare_if_shared17h02646414dc25e2d7E>
   20d54:	4620      	mov	r0, r4
   20d56:	f006 f8e1 	bl	26f1c <_ZN9allow_pin12full_dynamic17unshare_if_shared17h02646414dc25e2d7E>
   20d5a:	9c02      	ldr	r4, [sp, #8]
   20d5c:	1c60      	adds	r0, r4, #1
   20d5e:	223f      	movs	r2, #63	@ 0x3f
   20d60:	4629      	mov	r1, r5
   20d62:	f006 fa9c 	bl	2729e <__aeabi_memcpy>
   20d66:	e7e5      	b.n	20d34 <_ZN20complex_full_dynamic3app17h2b82577056742545E+0x78>
   20d68:	00000e57 	.word	0x00000e57

00020d6c <_ZN20complex_full_dynamic3app17h2da7e84219156e14E>:
   20d6c:	b5f0      	push	{r4, r5, r6, r7, lr}
   20d6e:	af03      	add	r7, sp, #12
   20d70:	b09b      	sub	sp, #108	@ 0x6c
   20d72:	9002      	str	r0, [sp, #8]
   20d74:	ac03      	add	r4, sp, #12
   20d76:	2502      	movs	r5, #2
   20d78:	7225      	strb	r5, [r4, #8]
   20d7a:	340c      	adds	r4, #12
   20d7c:	2229      	movs	r2, #41	@ 0x29
   20d7e:	9201      	str	r2, [sp, #4]
   20d80:	4620      	mov	r0, r4
   20d82:	f006 fa8c 	bl	2729e <__aeabi_memcpy>
   20d86:	ae11      	add	r6, sp, #68	@ 0x44
   20d88:	2000      	movs	r0, #0
   20d8a:	84b0      	strh	r0, [r6, #36]	@ 0x24
   20d8c:	7235      	strb	r5, [r6, #8]
   20d8e:	9019      	str	r0, [sp, #100]	@ 0x64
   20d90:	9018      	str	r0, [sp, #96]	@ 0x60
   20d92:	9017      	str	r0, [sp, #92]	@ 0x5c
   20d94:	9016      	str	r0, [sp, #88]	@ 0x58
   20d96:	9015      	str	r0, [sp, #84]	@ 0x54
   20d98:	9014      	str	r0, [sp, #80]	@ 0x50
   20d9a:	4820      	ldr	r0, [pc, #128]	@ (20e1c <_ZN20complex_full_dynamic3app17h2da7e84219156e14E+0xb0>)
   20d9c:	2505      	movs	r5, #5
   20d9e:	4629      	mov	r1, r5
   20da0:	4622      	mov	r2, r4
   20da2:	9b01      	ldr	r3, [sp, #4]
   20da4:	df04      	svc	4
   20da6:	2802      	cmp	r0, #2
   20da8:	d01a      	beq.n	20de0 <_ZN20complex_full_dynamic3app17h2da7e84219156e14E+0x74>
   20daa:	360c      	adds	r6, #12
   20dac:	a803      	add	r0, sp, #12
   20dae:	2104      	movs	r1, #4
   20db0:	7201      	strb	r1, [r0, #8]
   20db2:	9504      	str	r5, [sp, #16]
   20db4:	4819      	ldr	r0, [pc, #100]	@ (20e1c <_ZN20complex_full_dynamic3app17h2da7e84219156e14E+0xb0>)
   20db6:	9003      	str	r0, [sp, #12]
   20db8:	2403      	movs	r4, #3
   20dba:	231a      	movs	r3, #26
   20dbc:	4621      	mov	r1, r4
   20dbe:	4632      	mov	r2, r6
   20dc0:	df03      	svc	3
   20dc2:	2802      	cmp	r0, #2
   20dc4:	d00c      	beq.n	20de0 <_ZN20complex_full_dynamic3app17h2da7e84219156e14E+0x74>
   20dc6:	4635      	mov	r5, r6
   20dc8:	a811      	add	r0, sp, #68	@ 0x44
   20dca:	7204      	strb	r4, [r0, #8]
   20dcc:	9412      	str	r4, [sp, #72]	@ 0x48
   20dce:	4813      	ldr	r0, [pc, #76]	@ (20e1c <_ZN20complex_full_dynamic3app17h2da7e84219156e14E+0xb0>)
   20dd0:	9011      	str	r0, [sp, #68]	@ 0x44
   20dd2:	2105      	movs	r1, #5
   20dd4:	2600      	movs	r6, #0
   20dd6:	4622      	mov	r2, r4
   20dd8:	4633      	mov	r3, r6
   20dda:	df02      	svc	2
   20ddc:	287f      	cmp	r0, #127	@ 0x7f
   20dde:	d80b      	bhi.n	20df8 <_ZN20complex_full_dynamic3app17h2da7e84219156e14E+0x8c>
   20de0:	9c02      	ldr	r4, [sp, #8]
   20de2:	6061      	str	r1, [r4, #4]
   20de4:	2601      	movs	r6, #1
   20de6:	7026      	strb	r6, [r4, #0]
   20de8:	a811      	add	r0, sp, #68	@ 0x44
   20dea:	f006 f897 	bl	26f1c <_ZN9allow_pin12full_dynamic17unshare_if_shared17h02646414dc25e2d7E>
   20dee:	a803      	add	r0, sp, #12
   20df0:	f006 f894 	bl	26f1c <_ZN9allow_pin12full_dynamic17unshare_if_shared17h02646414dc25e2d7E>
   20df4:	b01b      	add	sp, #108	@ 0x6c
   20df6:	bdf0      	pop	{r4, r5, r6, r7, pc}
   20df8:	a803      	add	r0, sp, #12
   20dfa:	f006 f88f 	bl	26f1c <_ZN9allow_pin12full_dynamic17unshare_if_shared17h02646414dc25e2d7E>
   20dfe:	ac11      	add	r4, sp, #68	@ 0x44
   20e00:	4620      	mov	r0, r4
   20e02:	f006 f88b 	bl	26f1c <_ZN9allow_pin12full_dynamic17unshare_if_shared17h02646414dc25e2d7E>
   20e06:	4620      	mov	r0, r4
   20e08:	f006 f888 	bl	26f1c <_ZN9allow_pin12full_dynamic17unshare_if_shared17h02646414dc25e2d7E>
   20e0c:	9c02      	ldr	r4, [sp, #8]
   20e0e:	1c60      	adds	r0, r4, #1
   20e10:	221a      	movs	r2, #26
   20e12:	4629      	mov	r1, r5
   20e14:	f006 fa43 	bl	2729e <__aeabi_memcpy>
   20e18:	e7e5      	b.n	20de6 <_ZN20complex_full_dynamic3app17h2da7e84219156e14E+0x7a>
   20e1a:	46c0      	nop			@ (mov r8, r8)
   20e1c:	00002048 	.word	0x00002048

00020e20 <_ZN20complex_full_dynamic3app17h2df2343b561076ebE>:
   20e20:	b5f0      	push	{r4, r5, r6, r7, lr}
   20e22:	af03      	add	r7, sp, #12
   20e24:	b09b      	sub	sp, #108	@ 0x6c
   20e26:	9001      	str	r0, [sp, #4]
   20e28:	ac02      	add	r4, sp, #8
   20e2a:	2502      	movs	r5, #2
   20e2c:	7225      	strb	r5, [r4, #8]
   20e2e:	340c      	adds	r4, #12
   20e30:	222b      	movs	r2, #43	@ 0x2b
   20e32:	9200      	str	r2, [sp, #0]
   20e34:	4620      	mov	r0, r4
   20e36:	f006 fa32 	bl	2729e <__aeabi_memcpy>
   20e3a:	ae10      	add	r6, sp, #64	@ 0x40
   20e3c:	2000      	movs	r0, #0
   20e3e:	8530      	strh	r0, [r6, #40]	@ 0x28
   20e40:	7235      	strb	r5, [r6, #8]
   20e42:	9019      	str	r0, [sp, #100]	@ 0x64
   20e44:	9018      	str	r0, [sp, #96]	@ 0x60
   20e46:	9017      	str	r0, [sp, #92]	@ 0x5c
   20e48:	9016      	str	r0, [sp, #88]	@ 0x58
   20e4a:	9015      	str	r0, [sp, #84]	@ 0x54
   20e4c:	9014      	str	r0, [sp, #80]	@ 0x50
   20e4e:	9013      	str	r0, [sp, #76]	@ 0x4c
   20e50:	4820      	ldr	r0, [pc, #128]	@ (20ed4 <_ZN20complex_full_dynamic3app17h2df2343b561076ebE+0xb4>)
   20e52:	2507      	movs	r5, #7
   20e54:	4629      	mov	r1, r5
   20e56:	4622      	mov	r2, r4
   20e58:	9b00      	ldr	r3, [sp, #0]
   20e5a:	df04      	svc	4
   20e5c:	2802      	cmp	r0, #2
   20e5e:	d01b      	beq.n	20e98 <_ZN20complex_full_dynamic3app17h2df2343b561076ebE+0x78>
   20e60:	360c      	adds	r6, #12
   20e62:	a802      	add	r0, sp, #8
   20e64:	2104      	movs	r1, #4
   20e66:	7201      	strb	r1, [r0, #8]
   20e68:	9503      	str	r5, [sp, #12]
   20e6a:	481a      	ldr	r0, [pc, #104]	@ (20ed4 <_ZN20complex_full_dynamic3app17h2df2343b561076ebE+0xb4>)
   20e6c:	9002      	str	r0, [sp, #8]
   20e6e:	2408      	movs	r4, #8
   20e70:	231e      	movs	r3, #30
   20e72:	4621      	mov	r1, r4
   20e74:	4632      	mov	r2, r6
   20e76:	df03      	svc	3
   20e78:	2802      	cmp	r0, #2
   20e7a:	d00d      	beq.n	20e98 <_ZN20complex_full_dynamic3app17h2df2343b561076ebE+0x78>
   20e7c:	4635      	mov	r5, r6
   20e7e:	a810      	add	r0, sp, #64	@ 0x40
   20e80:	2103      	movs	r1, #3
   20e82:	7201      	strb	r1, [r0, #8]
   20e84:	4813      	ldr	r0, [pc, #76]	@ (20ed4 <_ZN20complex_full_dynamic3app17h2df2343b561076ebE+0xb4>)
   20e86:	9010      	str	r0, [sp, #64]	@ 0x40
   20e88:	9411      	str	r4, [sp, #68]	@ 0x44
   20e8a:	2107      	movs	r1, #7
   20e8c:	2600      	movs	r6, #0
   20e8e:	4622      	mov	r2, r4
   20e90:	4633      	mov	r3, r6
   20e92:	df02      	svc	2
   20e94:	287f      	cmp	r0, #127	@ 0x7f
   20e96:	d80b      	bhi.n	20eb0 <_ZN20complex_full_dynamic3app17h2df2343b561076ebE+0x90>
   20e98:	9c01      	ldr	r4, [sp, #4]
   20e9a:	6061      	str	r1, [r4, #4]
   20e9c:	2601      	movs	r6, #1
   20e9e:	7026      	strb	r6, [r4, #0]
   20ea0:	a810      	add	r0, sp, #64	@ 0x40
   20ea2:	f006 f83b 	bl	26f1c <_ZN9allow_pin12full_dynamic17unshare_if_shared17h02646414dc25e2d7E>
   20ea6:	a802      	add	r0, sp, #8
   20ea8:	f006 f838 	bl	26f1c <_ZN9allow_pin12full_dynamic17unshare_if_shared17h02646414dc25e2d7E>
   20eac:	b01b      	add	sp, #108	@ 0x6c
   20eae:	bdf0      	pop	{r4, r5, r6, r7, pc}
   20eb0:	a802      	add	r0, sp, #8
   20eb2:	f006 f833 	bl	26f1c <_ZN9allow_pin12full_dynamic17unshare_if_shared17h02646414dc25e2d7E>
   20eb6:	ac10      	add	r4, sp, #64	@ 0x40
   20eb8:	4620      	mov	r0, r4
   20eba:	f006 f82f 	bl	26f1c <_ZN9allow_pin12full_dynamic17unshare_if_shared17h02646414dc25e2d7E>
   20ebe:	4620      	mov	r0, r4
   20ec0:	f006 f82c 	bl	26f1c <_ZN9allow_pin12full_dynamic17unshare_if_shared17h02646414dc25e2d7E>
   20ec4:	9c01      	ldr	r4, [sp, #4]
   20ec6:	1c60      	adds	r0, r4, #1
   20ec8:	221e      	movs	r2, #30
   20eca:	4629      	mov	r1, r5
   20ecc:	f006 f9e7 	bl	2729e <__aeabi_memcpy>
   20ed0:	e7e5      	b.n	20e9e <_ZN20complex_full_dynamic3app17h2df2343b561076ebE+0x7e>
   20ed2:	46c0      	nop			@ (mov r8, r8)
   20ed4:	000007e3 	.word	0x000007e3

00020ed8 <_ZN20complex_full_dynamic3app17h2e12a21a5d5605abE>:
   20ed8:	b5f0      	push	{r4, r5, r6, r7, lr}
   20eda:	af03      	add	r7, sp, #12
   20edc:	b09b      	sub	sp, #108	@ 0x6c
   20ede:	9002      	str	r0, [sp, #8]
   20ee0:	ac03      	add	r4, sp, #12
   20ee2:	2002      	movs	r0, #2
   20ee4:	9001      	str	r0, [sp, #4]
   20ee6:	7220      	strb	r0, [r4, #8]
   20ee8:	340c      	adds	r4, #12
   20eea:	2223      	movs	r2, #35	@ 0x23
   20eec:	9200      	str	r2, [sp, #0]
   20eee:	4620      	mov	r0, r4
   20ef0:	f006 f9d5 	bl	2729e <__aeabi_memcpy>
   20ef4:	ae0f      	add	r6, sp, #60	@ 0x3c
   20ef6:	4635      	mov	r5, r6
   20ef8:	350c      	adds	r5, #12
   20efa:	2124      	movs	r1, #36	@ 0x24
   20efc:	4628      	mov	r0, r5
   20efe:	f006 f821 	bl	26f44 <__aeabi_memclr4>
   20f02:	9801      	ldr	r0, [sp, #4]
   20f04:	7230      	strb	r0, [r6, #8]
   20f06:	481f      	ldr	r0, [pc, #124]	@ (20f84 <_ZN20complex_full_dynamic3app17h2e12a21a5d5605abE+0xac>)
   20f08:	2604      	movs	r6, #4
   20f0a:	4631      	mov	r1, r6
   20f0c:	4622      	mov	r2, r4
   20f0e:	9b00      	ldr	r3, [sp, #0]
   20f10:	df04      	svc	4
   20f12:	2802      	cmp	r0, #2
   20f14:	d019      	beq.n	20f4a <_ZN20complex_full_dynamic3app17h2e12a21a5d5605abE+0x72>
   20f16:	a803      	add	r0, sp, #12
   20f18:	7206      	strb	r6, [r0, #8]
   20f1a:	9604      	str	r6, [sp, #16]
   20f1c:	4e19      	ldr	r6, [pc, #100]	@ (20f84 <_ZN20complex_full_dynamic3app17h2e12a21a5d5605abE+0xac>)
   20f1e:	9603      	str	r6, [sp, #12]
   20f20:	2408      	movs	r4, #8
   20f22:	2324      	movs	r3, #36	@ 0x24
   20f24:	4630      	mov	r0, r6
   20f26:	4621      	mov	r1, r4
   20f28:	462a      	mov	r2, r5
   20f2a:	df03      	svc	3
   20f2c:	2802      	cmp	r0, #2
   20f2e:	d00c      	beq.n	20f4a <_ZN20complex_full_dynamic3app17h2e12a21a5d5605abE+0x72>
   20f30:	a80f      	add	r0, sp, #60	@ 0x3c
   20f32:	2103      	movs	r1, #3
   20f34:	7201      	strb	r1, [r0, #8]
   20f36:	960f      	str	r6, [sp, #60]	@ 0x3c
   20f38:	9410      	str	r4, [sp, #64]	@ 0x40
   20f3a:	4812      	ldr	r0, [pc, #72]	@ (20f84 <_ZN20complex_full_dynamic3app17h2e12a21a5d5605abE+0xac>)
   20f3c:	2104      	movs	r1, #4
   20f3e:	2600      	movs	r6, #0
   20f40:	4622      	mov	r2, r4
   20f42:	4633      	mov	r3, r6
   20f44:	df02      	svc	2
   20f46:	287f      	cmp	r0, #127	@ 0x7f
   20f48:	d80b      	bhi.n	20f62 <_ZN20complex_full_dynamic3app17h2e12a21a5d5605abE+0x8a>
   20f4a:	9c02      	ldr	r4, [sp, #8]
   20f4c:	6061      	str	r1, [r4, #4]
   20f4e:	2601      	movs	r6, #1
   20f50:	7026      	strb	r6, [r4, #0]
   20f52:	a80f      	add	r0, sp, #60	@ 0x3c
   20f54:	f005 ffe2 	bl	26f1c <_ZN9allow_pin12full_dynamic17unshare_if_shared17h02646414dc25e2d7E>
   20f58:	a803      	add	r0, sp, #12
   20f5a:	f005 ffdf 	bl	26f1c <_ZN9allow_pin12full_dynamic17unshare_if_shared17h02646414dc25e2d7E>
   20f5e:	b01b      	add	sp, #108	@ 0x6c
   20f60:	bdf0      	pop	{r4, r5, r6, r7, pc}
   20f62:	a803      	add	r0, sp, #12
   20f64:	f005 ffda 	bl	26f1c <_ZN9allow_pin12full_dynamic17unshare_if_shared17h02646414dc25e2d7E>
   20f68:	ac0f      	add	r4, sp, #60	@ 0x3c
   20f6a:	4620      	mov	r0, r4
   20f6c:	f005 ffd6 	bl	26f1c <_ZN9allow_pin12full_dynamic17unshare_if_shared17h02646414dc25e2d7E>
   20f70:	4620      	mov	r0, r4
   20f72:	f005 ffd3 	bl	26f1c <_ZN9allow_pin12full_dynamic17unshare_if_shared17h02646414dc25e2d7E>
   20f76:	9c02      	ldr	r4, [sp, #8]
   20f78:	1c60      	adds	r0, r4, #1
   20f7a:	2224      	movs	r2, #36	@ 0x24
   20f7c:	4629      	mov	r1, r5
   20f7e:	f006 f98e 	bl	2729e <__aeabi_memcpy>
   20f82:	e7e5      	b.n	20f50 <_ZN20complex_full_dynamic3app17h2e12a21a5d5605abE+0x78>
   20f84:	00001bd6 	.word	0x00001bd6

00020f88 <_ZN20complex_full_dynamic3app17h2e9a62987501c51fE>:
   20f88:	b5f0      	push	{r4, r5, r6, r7, lr}
   20f8a:	af03      	add	r7, sp, #12
   20f8c:	b0a9      	sub	sp, #164	@ 0xa4
   20f8e:	9003      	str	r0, [sp, #12]
   20f90:	ac04      	add	r4, sp, #16
   20f92:	2002      	movs	r0, #2
   20f94:	9002      	str	r0, [sp, #8]
   20f96:	7220      	strb	r0, [r4, #8]
   20f98:	340c      	adds	r4, #12
   20f9a:	2227      	movs	r2, #39	@ 0x27
   20f9c:	9201      	str	r2, [sp, #4]
   20f9e:	4620      	mov	r0, r4
   20fa0:	f006 f97d 	bl	2729e <__aeabi_memcpy>
   20fa4:	ae11      	add	r6, sp, #68	@ 0x44
   20fa6:	4635      	mov	r5, r6
   20fa8:	350c      	adds	r5, #12
   20faa:	2151      	movs	r1, #81	@ 0x51
   20fac:	4628      	mov	r0, r5
   20fae:	f005 ffc9 	bl	26f44 <__aeabi_memclr4>
   20fb2:	9802      	ldr	r0, [sp, #8]
   20fb4:	7230      	strb	r0, [r6, #8]
   20fb6:	481f      	ldr	r0, [pc, #124]	@ (21034 <_ZN20complex_full_dynamic3app17h2e9a62987501c51fE+0xac>)
   20fb8:	2600      	movs	r6, #0
   20fba:	4631      	mov	r1, r6
   20fbc:	4622      	mov	r2, r4
   20fbe:	9b01      	ldr	r3, [sp, #4]
   20fc0:	df04      	svc	4
   20fc2:	2802      	cmp	r0, #2
   20fc4:	d019      	beq.n	20ffa <_ZN20complex_full_dynamic3app17h2e9a62987501c51fE+0x72>
   20fc6:	a804      	add	r0, sp, #16
   20fc8:	2404      	movs	r4, #4
   20fca:	7204      	strb	r4, [r0, #8]
   20fcc:	9605      	str	r6, [sp, #20]
   20fce:	4e19      	ldr	r6, [pc, #100]	@ (21034 <_ZN20complex_full_dynamic3app17h2e9a62987501c51fE+0xac>)
   20fd0:	9604      	str	r6, [sp, #16]
   20fd2:	2351      	movs	r3, #81	@ 0x51
   20fd4:	4630      	mov	r0, r6
   20fd6:	4621      	mov	r1, r4
   20fd8:	462a      	mov	r2, r5
   20fda:	df03      	svc	3
   20fdc:	2802      	cmp	r0, #2
   20fde:	d00c      	beq.n	20ffa <_ZN20complex_full_dynamic3app17h2e9a62987501c51fE+0x72>
   20fe0:	a811      	add	r0, sp, #68	@ 0x44
   20fe2:	2103      	movs	r1, #3
   20fe4:	7201      	strb	r1, [r0, #8]
   20fe6:	9611      	str	r6, [sp, #68]	@ 0x44
   20fe8:	9412      	str	r4, [sp, #72]	@ 0x48
   20fea:	4812      	ldr	r0, [pc, #72]	@ (21034 <_ZN20complex_full_dynamic3app17h2e9a62987501c51fE+0xac>)
   20fec:	2600      	movs	r6, #0
   20fee:	4631      	mov	r1, r6
   20ff0:	4622      	mov	r2, r4
   20ff2:	4633      	mov	r3, r6
   20ff4:	df02      	svc	2
   20ff6:	287f      	cmp	r0, #127	@ 0x7f
   20ff8:	d80b      	bhi.n	21012 <_ZN20complex_full_dynamic3app17h2e9a62987501c51fE+0x8a>
   20ffa:	9c03      	ldr	r4, [sp, #12]
   20ffc:	6061      	str	r1, [r4, #4]
   20ffe:	2601      	movs	r6, #1
   21000:	7026      	strb	r6, [r4, #0]
   21002:	a811      	add	r0, sp, #68	@ 0x44
   21004:	f005 ff8a 	bl	26f1c <_ZN9allow_pin12full_dynamic17unshare_if_shared17h02646414dc25e2d7E>
   21008:	a804      	add	r0, sp, #16
   2100a:	f005 ff87 	bl	26f1c <_ZN9allow_pin12full_dynamic17unshare_if_shared17h02646414dc25e2d7E>
   2100e:	b029      	add	sp, #164	@ 0xa4
   21010:	bdf0      	pop	{r4, r5, r6, r7, pc}
   21012:	a804      	add	r0, sp, #16
   21014:	f005 ff82 	bl	26f1c <_ZN9allow_pin12full_dynamic17unshare_if_shared17h02646414dc25e2d7E>
   21018:	ac11      	add	r4, sp, #68	@ 0x44
   2101a:	4620      	mov	r0, r4
   2101c:	f005 ff7e 	bl	26f1c <_ZN9allow_pin12full_dynamic17unshare_if_shared17h02646414dc25e2d7E>
   21020:	4620      	mov	r0, r4
   21022:	f005 ff7b 	bl	26f1c <_ZN9allow_pin12full_dynamic17unshare_if_shared17h02646414dc25e2d7E>
   21026:	9c03      	ldr	r4, [sp, #12]
   21028:	1c60      	adds	r0, r4, #1
   2102a:	2251      	movs	r2, #81	@ 0x51
   2102c:	4629      	mov	r1, r5
   2102e:	f006 f936 	bl	2729e <__aeabi_memcpy>
   21032:	e7e5      	b.n	21000 <_ZN20complex_full_dynamic3app17h2e9a62987501c51fE+0x78>
   21034:	00000a36 	.word	0x00000a36

00021038 <_ZN20complex_full_dynamic3app17h322f6d41fdd2d7f2E>:
   21038:	b5f0      	push	{r4, r5, r6, r7, lr}
   2103a:	af03      	add	r7, sp, #12
   2103c:	b0ad      	sub	sp, #180	@ 0xb4
   2103e:	9003      	str	r0, [sp, #12]
   21040:	ac04      	add	r4, sp, #16
   21042:	2002      	movs	r0, #2
   21044:	9002      	str	r0, [sp, #8]
   21046:	7220      	strb	r0, [r4, #8]
   21048:	340c      	adds	r4, #12
   2104a:	224f      	movs	r2, #79	@ 0x4f
   2104c:	9201      	str	r2, [sp, #4]
   2104e:	4620      	mov	r0, r4
   21050:	f006 f925 	bl	2729e <__aeabi_memcpy>
   21054:	ae1b      	add	r6, sp, #108	@ 0x6c
   21056:	4635      	mov	r5, r6
   21058:	350c      	adds	r5, #12
   2105a:	213b      	movs	r1, #59	@ 0x3b
   2105c:	4628      	mov	r0, r5
   2105e:	f005 ff71 	bl	26f44 <__aeabi_memclr4>
   21062:	9802      	ldr	r0, [sp, #8]
   21064:	7230      	strb	r0, [r6, #8]
   21066:	4820      	ldr	r0, [pc, #128]	@ (210e8 <_ZN20complex_full_dynamic3app17h322f6d41fdd2d7f2E+0xb0>)
   21068:	2608      	movs	r6, #8
   2106a:	4631      	mov	r1, r6
   2106c:	4622      	mov	r2, r4
   2106e:	9b01      	ldr	r3, [sp, #4]
   21070:	df04      	svc	4
   21072:	2802      	cmp	r0, #2
   21074:	d01a      	beq.n	210ac <_ZN20complex_full_dynamic3app17h322f6d41fdd2d7f2E+0x74>
   21076:	a804      	add	r0, sp, #16
   21078:	2104      	movs	r1, #4
   2107a:	7201      	strb	r1, [r0, #8]
   2107c:	9605      	str	r6, [sp, #20]
   2107e:	4e1a      	ldr	r6, [pc, #104]	@ (210e8 <_ZN20complex_full_dynamic3app17h322f6d41fdd2d7f2E+0xb0>)
   21080:	9604      	str	r6, [sp, #16]
   21082:	2405      	movs	r4, #5
   21084:	233b      	movs	r3, #59	@ 0x3b
   21086:	4630      	mov	r0, r6
   21088:	4621      	mov	r1, r4
   2108a:	462a      	mov	r2, r5
   2108c:	df03      	svc	3
   2108e:	2802      	cmp	r0, #2
   21090:	d00c      	beq.n	210ac <_ZN20complex_full_dynamic3app17h322f6d41fdd2d7f2E+0x74>
   21092:	a81b      	add	r0, sp, #108	@ 0x6c
   21094:	2103      	movs	r1, #3
   21096:	7201      	strb	r1, [r0, #8]
   21098:	961b      	str	r6, [sp, #108]	@ 0x6c
   2109a:	941c      	str	r4, [sp, #112]	@ 0x70
   2109c:	4812      	ldr	r0, [pc, #72]	@ (210e8 <_ZN20complex_full_dynamic3app17h322f6d41fdd2d7f2E+0xb0>)
   2109e:	2108      	movs	r1, #8
   210a0:	2600      	movs	r6, #0
   210a2:	4622      	mov	r2, r4
   210a4:	4633      	mov	r3, r6
   210a6:	df02      	svc	2
   210a8:	287f      	cmp	r0, #127	@ 0x7f
   210aa:	d80b      	bhi.n	210c4 <_ZN20complex_full_dynamic3app17h322f6d41fdd2d7f2E+0x8c>
   210ac:	9c03      	ldr	r4, [sp, #12]
   210ae:	6061      	str	r1, [r4, #4]
   210b0:	2601      	movs	r6, #1
   210b2:	7026      	strb	r6, [r4, #0]
   210b4:	a81b      	add	r0, sp, #108	@ 0x6c
   210b6:	f005 ff31 	bl	26f1c <_ZN9allow_pin12full_dynamic17unshare_if_shared17h02646414dc25e2d7E>
   210ba:	a804      	add	r0, sp, #16
   210bc:	f005 ff2e 	bl	26f1c <_ZN9allow_pin12full_dynamic17unshare_if_shared17h02646414dc25e2d7E>
   210c0:	b02d      	add	sp, #180	@ 0xb4
   210c2:	bdf0      	pop	{r4, r5, r6, r7, pc}
   210c4:	a804      	add	r0, sp, #16
   210c6:	f005 ff29 	bl	26f1c <_ZN9allow_pin12full_dynamic17unshare_if_shared17h02646414dc25e2d7E>
   210ca:	ac1b      	add	r4, sp, #108	@ 0x6c
   210cc:	4620      	mov	r0, r4
   210ce:	f005 ff25 	bl	26f1c <_ZN9allow_pin12full_dynamic17unshare_if_shared17h02646414dc25e2d7E>
   210d2:	4620      	mov	r0, r4
   210d4:	f005 ff22 	bl	26f1c <_ZN9allow_pin12full_dynamic17unshare_if_shared17h02646414dc25e2d7E>
   210d8:	9c03      	ldr	r4, [sp, #12]
   210da:	1c60      	adds	r0, r4, #1
   210dc:	223b      	movs	r2, #59	@ 0x3b
   210de:	4629      	mov	r1, r5
   210e0:	f006 f8dd 	bl	2729e <__aeabi_memcpy>
   210e4:	e7e5      	b.n	210b2 <_ZN20complex_full_dynamic3app17h322f6d41fdd2d7f2E+0x7a>
   210e6:	46c0      	nop			@ (mov r8, r8)
   210e8:	00000a06 	.word	0x00000a06

000210ec <_ZN20complex_full_dynamic3app17h3348f431f18922c6E>:
   210ec:	b5f0      	push	{r4, r5, r6, r7, lr}
   210ee:	af03      	add	r7, sp, #12
   210f0:	b0ab      	sub	sp, #172	@ 0xac
   210f2:	9002      	str	r0, [sp, #8]
   210f4:	ac03      	add	r4, sp, #12
   210f6:	2002      	movs	r0, #2
   210f8:	9001      	str	r0, [sp, #4]
   210fa:	7220      	strb	r0, [r4, #8]
   210fc:	340c      	adds	r4, #12
   210fe:	222a      	movs	r2, #42	@ 0x2a
   21100:	9200      	str	r2, [sp, #0]
   21102:	4620      	mov	r0, r4
   21104:	f006 f8cb 	bl	2729e <__aeabi_memcpy>
   21108:	ae11      	add	r6, sp, #68	@ 0x44
   2110a:	4635      	mov	r5, r6
   2110c:	350c      	adds	r5, #12
   2110e:	2159      	movs	r1, #89	@ 0x59
   21110:	4628      	mov	r0, r5
   21112:	f005 ff17 	bl	26f44 <__aeabi_memclr4>
   21116:	9801      	ldr	r0, [sp, #4]
   21118:	7230      	strb	r0, [r6, #8]
   2111a:	481f      	ldr	r0, [pc, #124]	@ (21198 <_ZN20complex_full_dynamic3app17h3348f431f18922c6E+0xac>)
   2111c:	2601      	movs	r6, #1
   2111e:	4631      	mov	r1, r6
   21120:	4622      	mov	r2, r4
   21122:	9b00      	ldr	r3, [sp, #0]
   21124:	df04      	svc	4
   21126:	2802      	cmp	r0, #2
   21128:	d018      	beq.n	2115c <_ZN20complex_full_dynamic3app17h3348f431f18922c6E+0x70>
   2112a:	a803      	add	r0, sp, #12
   2112c:	2104      	movs	r1, #4
   2112e:	7201      	strb	r1, [r0, #8]
   21130:	9604      	str	r6, [sp, #16]
   21132:	4819      	ldr	r0, [pc, #100]	@ (21198 <_ZN20complex_full_dynamic3app17h3348f431f18922c6E+0xac>)
   21134:	9003      	str	r0, [sp, #12]
   21136:	2403      	movs	r4, #3
   21138:	2359      	movs	r3, #89	@ 0x59
   2113a:	4621      	mov	r1, r4
   2113c:	462a      	mov	r2, r5
   2113e:	df03      	svc	3
   21140:	2802      	cmp	r0, #2
   21142:	d00b      	beq.n	2115c <_ZN20complex_full_dynamic3app17h3348f431f18922c6E+0x70>
   21144:	a811      	add	r0, sp, #68	@ 0x44
   21146:	7204      	strb	r4, [r0, #8]
   21148:	9412      	str	r4, [sp, #72]	@ 0x48
   2114a:	4813      	ldr	r0, [pc, #76]	@ (21198 <_ZN20complex_full_dynamic3app17h3348f431f18922c6E+0xac>)
   2114c:	9011      	str	r0, [sp, #68]	@ 0x44
   2114e:	2101      	movs	r1, #1
   21150:	2300      	movs	r3, #0
   21152:	4622      	mov	r2, r4
   21154:	9301      	str	r3, [sp, #4]
   21156:	df02      	svc	2
   21158:	287f      	cmp	r0, #127	@ 0x7f
   2115a:	d80a      	bhi.n	21172 <_ZN20complex_full_dynamic3app17h3348f431f18922c6E+0x86>
   2115c:	9c02      	ldr	r4, [sp, #8]
   2115e:	6061      	str	r1, [r4, #4]
   21160:	7026      	strb	r6, [r4, #0]
   21162:	a811      	add	r0, sp, #68	@ 0x44
   21164:	f005 feda 	bl	26f1c <_ZN9allow_pin12full_dynamic17unshare_if_shared17h02646414dc25e2d7E>
   21168:	a803      	add	r0, sp, #12
   2116a:	f005 fed7 	bl	26f1c <_ZN9allow_pin12full_dynamic17unshare_if_shared17h02646414dc25e2d7E>
   2116e:	b02b      	add	sp, #172	@ 0xac
   21170:	bdf0      	pop	{r4, r5, r6, r7, pc}
   21172:	a803      	add	r0, sp, #12
   21174:	f005 fed2 	bl	26f1c <_ZN9allow_pin12full_dynamic17unshare_if_shared17h02646414dc25e2d7E>
   21178:	ac11      	add	r4, sp, #68	@ 0x44
   2117a:	4620      	mov	r0, r4
   2117c:	f005 fece 	bl	26f1c <_ZN9allow_pin12full_dynamic17unshare_if_shared17h02646414dc25e2d7E>
   21180:	4620      	mov	r0, r4
   21182:	f005 fecb 	bl	26f1c <_ZN9allow_pin12full_dynamic17unshare_if_shared17h02646414dc25e2d7E>
   21186:	9c02      	ldr	r4, [sp, #8]
   21188:	1c60      	adds	r0, r4, #1
   2118a:	2259      	movs	r2, #89	@ 0x59
   2118c:	4629      	mov	r1, r5
   2118e:	f006 f886 	bl	2729e <__aeabi_memcpy>
   21192:	9e01      	ldr	r6, [sp, #4]
   21194:	e7e4      	b.n	21160 <_ZN20complex_full_dynamic3app17h3348f431f18922c6E+0x74>
   21196:	46c0      	nop			@ (mov r8, r8)
   21198:	00000ed2 	.word	0x00000ed2

0002119c <_ZN20complex_full_dynamic3app17h3925a07215814f4fE>:
   2119c:	b5f0      	push	{r4, r5, r6, r7, lr}
   2119e:	af03      	add	r7, sp, #12
   211a0:	b0a3      	sub	sp, #140	@ 0x8c
   211a2:	9002      	str	r0, [sp, #8]
   211a4:	ac03      	add	r4, sp, #12
   211a6:	2002      	movs	r0, #2
   211a8:	9001      	str	r0, [sp, #4]
   211aa:	7220      	strb	r0, [r4, #8]
   211ac:	340c      	adds	r4, #12
   211ae:	2244      	movs	r2, #68	@ 0x44
   211b0:	9200      	str	r2, [sp, #0]
   211b2:	4620      	mov	r0, r4
   211b4:	f006 f873 	bl	2729e <__aeabi_memcpy>
   211b8:	ae17      	add	r6, sp, #92	@ 0x5c
   211ba:	4635      	mov	r5, r6
   211bc:	350c      	adds	r5, #12
   211be:	2123      	movs	r1, #35	@ 0x23
   211c0:	4628      	mov	r0, r5
   211c2:	f005 febf 	bl	26f44 <__aeabi_memclr4>
   211c6:	9801      	ldr	r0, [sp, #4]
   211c8:	7230      	strb	r0, [r6, #8]
   211ca:	481f      	ldr	r0, [pc, #124]	@ (21248 <_ZN20complex_full_dynamic3app17h3925a07215814f4fE+0xac>)
   211cc:	2606      	movs	r6, #6
   211ce:	4631      	mov	r1, r6
   211d0:	4622      	mov	r2, r4
   211d2:	9b00      	ldr	r3, [sp, #0]
   211d4:	df04      	svc	4
   211d6:	2802      	cmp	r0, #2
   211d8:	d019      	beq.n	2120e <_ZN20complex_full_dynamic3app17h3925a07215814f4fE+0x72>
   211da:	a803      	add	r0, sp, #12
   211dc:	2104      	movs	r1, #4
   211de:	7201      	strb	r1, [r0, #8]
   211e0:	9604      	str	r6, [sp, #16]
   211e2:	4e19      	ldr	r6, [pc, #100]	@ (21248 <_ZN20complex_full_dynamic3app17h3925a07215814f4fE+0xac>)
   211e4:	9603      	str	r6, [sp, #12]
   211e6:	2403      	movs	r4, #3
   211e8:	2323      	movs	r3, #35	@ 0x23
   211ea:	4630      	mov	r0, r6
   211ec:	4621      	mov	r1, r4
   211ee:	462a      	mov	r2, r5
   211f0:	df03      	svc	3
   211f2:	2802      	cmp	r0, #2
   211f4:	d00b      	beq.n	2120e <_ZN20complex_full_dynamic3app17h3925a07215814f4fE+0x72>
   211f6:	a817      	add	r0, sp, #92	@ 0x5c
   211f8:	7204      	strb	r4, [r0, #8]
   211fa:	9418      	str	r4, [sp, #96]	@ 0x60
   211fc:	9617      	str	r6, [sp, #92]	@ 0x5c
   211fe:	4812      	ldr	r0, [pc, #72]	@ (21248 <_ZN20complex_full_dynamic3app17h3925a07215814f4fE+0xac>)
   21200:	2106      	movs	r1, #6
   21202:	2600      	movs	r6, #0
   21204:	4622      	mov	r2, r4
   21206:	4633      	mov	r3, r6
   21208:	df02      	svc	2
   2120a:	287f      	cmp	r0, #127	@ 0x7f
   2120c:	d80b      	bhi.n	21226 <_ZN20complex_full_dynamic3app17h3925a07215814f4fE+0x8a>
   2120e:	9c02      	ldr	r4, [sp, #8]
   21210:	6061      	str	r1, [r4, #4]
   21212:	2601      	movs	r6, #1
   21214:	7026      	strb	r6, [r4, #0]
   21216:	a817      	add	r0, sp, #92	@ 0x5c
   21218:	f005 fe80 	bl	26f1c <_ZN9allow_pin12full_dynamic17unshare_if_shared17h02646414dc25e2d7E>
   2121c:	a803      	add	r0, sp, #12
   2121e:	f005 fe7d 	bl	26f1c <_ZN9allow_pin12full_dynamic17unshare_if_shared17h02646414dc25e2d7E>
   21222:	b023      	add	sp, #140	@ 0x8c
   21224:	bdf0      	pop	{r4, r5, r6, r7, pc}
   21226:	a803      	add	r0, sp, #12
   21228:	f005 fe78 	bl	26f1c <_ZN9allow_pin12full_dynamic17unshare_if_shared17h02646414dc25e2d7E>
   2122c:	ac17      	add	r4, sp, #92	@ 0x5c
   2122e:	4620      	mov	r0, r4
   21230:	f005 fe74 	bl	26f1c <_ZN9allow_pin12full_dynamic17unshare_if_shared17h02646414dc25e2d7E>
   21234:	4620      	mov	r0, r4
   21236:	f005 fe71 	bl	26f1c <_ZN9allow_pin12full_dynamic17unshare_if_shared17h02646414dc25e2d7E>
   2123a:	9c02      	ldr	r4, [sp, #8]
   2123c:	1c60      	adds	r0, r4, #1
   2123e:	2223      	movs	r2, #35	@ 0x23
   21240:	4629      	mov	r1, r5
   21242:	f006 f82c 	bl	2729e <__aeabi_memcpy>
   21246:	e7e5      	b.n	21214 <_ZN20complex_full_dynamic3app17h3925a07215814f4fE+0x78>
   21248:	000009bf 	.word	0x000009bf

0002124c <_ZN20complex_full_dynamic3app17h3be32401555bd2daE>:
   2124c:	b5f0      	push	{r4, r5, r6, r7, lr}
   2124e:	af03      	add	r7, sp, #12
   21250:	b099      	sub	sp, #100	@ 0x64
   21252:	9001      	str	r0, [sp, #4]
   21254:	ac02      	add	r4, sp, #8
   21256:	2502      	movs	r5, #2
   21258:	7225      	strb	r5, [r4, #8]
   2125a:	340c      	adds	r4, #12
   2125c:	2632      	movs	r6, #50	@ 0x32
   2125e:	4620      	mov	r0, r4
   21260:	4632      	mov	r2, r6
   21262:	f006 f81c 	bl	2729e <__aeabi_memcpy>
   21266:	a812      	add	r0, sp, #72	@ 0x48
   21268:	9000      	str	r0, [sp, #0]
   2126a:	7205      	strb	r5, [r0, #8]
   2126c:	2000      	movs	r0, #0
   2126e:	9018      	str	r0, [sp, #96]	@ 0x60
   21270:	9017      	str	r0, [sp, #92]	@ 0x5c
   21272:	9016      	str	r0, [sp, #88]	@ 0x58
   21274:	9015      	str	r0, [sp, #84]	@ 0x54
   21276:	4820      	ldr	r0, [pc, #128]	@ (212f8 <_ZN20complex_full_dynamic3app17h3be32401555bd2daE+0xac>)
   21278:	2504      	movs	r5, #4
   2127a:	4629      	mov	r1, r5
   2127c:	4622      	mov	r2, r4
   2127e:	4633      	mov	r3, r6
   21280:	df04      	svc	4
   21282:	2802      	cmp	r0, #2
   21284:	d01b      	beq.n	212be <_ZN20complex_full_dynamic3app17h3be32401555bd2daE+0x72>
   21286:	9e00      	ldr	r6, [sp, #0]
   21288:	360c      	adds	r6, #12
   2128a:	a802      	add	r0, sp, #8
   2128c:	7205      	strb	r5, [r0, #8]
   2128e:	9503      	str	r5, [sp, #12]
   21290:	4819      	ldr	r0, [pc, #100]	@ (212f8 <_ZN20complex_full_dynamic3app17h3be32401555bd2daE+0xac>)
   21292:	9002      	str	r0, [sp, #8]
   21294:	2409      	movs	r4, #9
   21296:	2310      	movs	r3, #16
   21298:	4621      	mov	r1, r4
   2129a:	4632      	mov	r2, r6
   2129c:	df03      	svc	3
   2129e:	2802      	cmp	r0, #2
   212a0:	d00d      	beq.n	212be <_ZN20complex_full_dynamic3app17h3be32401555bd2daE+0x72>
   212a2:	4635      	mov	r5, r6
   212a4:	a812      	add	r0, sp, #72	@ 0x48
   212a6:	2103      	movs	r1, #3
   212a8:	7201      	strb	r1, [r0, #8]
   212aa:	4813      	ldr	r0, [pc, #76]	@ (212f8 <_ZN20complex_full_dynamic3app17h3be32401555bd2daE+0xac>)
   212ac:	9012      	str	r0, [sp, #72]	@ 0x48
   212ae:	9413      	str	r4, [sp, #76]	@ 0x4c
   212b0:	2104      	movs	r1, #4
   212b2:	2600      	movs	r6, #0
   212b4:	4622      	mov	r2, r4
   212b6:	4633      	mov	r3, r6
   212b8:	df02      	svc	2
   212ba:	287f      	cmp	r0, #127	@ 0x7f
   212bc:	d80b      	bhi.n	212d6 <_ZN20complex_full_dynamic3app17h3be32401555bd2daE+0x8a>
   212be:	9c01      	ldr	r4, [sp, #4]
   212c0:	6061      	str	r1, [r4, #4]
   212c2:	2601      	movs	r6, #1
   212c4:	7026      	strb	r6, [r4, #0]
   212c6:	a812      	add	r0, sp, #72	@ 0x48
   212c8:	f005 fe28 	bl	26f1c <_ZN9allow_pin12full_dynamic17unshare_if_shared17h02646414dc25e2d7E>
   212cc:	a802      	add	r0, sp, #8
   212ce:	f005 fe25 	bl	26f1c <_ZN9allow_pin12full_dynamic17unshare_if_shared17h02646414dc25e2d7E>
   212d2:	b019      	add	sp, #100	@ 0x64
   212d4:	bdf0      	pop	{r4, r5, r6, r7, pc}
   212d6:	a802      	add	r0, sp, #8
   212d8:	f005 fe20 	bl	26f1c <_ZN9allow_pin12full_dynamic17unshare_if_shared17h02646414dc25e2d7E>
   212dc:	ac12      	add	r4, sp, #72	@ 0x48
   212de:	4620      	mov	r0, r4
   212e0:	f005 fe1c 	bl	26f1c <_ZN9allow_pin12full_dynamic17unshare_if_shared17h02646414dc25e2d7E>
   212e4:	4620      	mov	r0, r4
   212e6:	f005 fe19 	bl	26f1c <_ZN9allow_pin12full_dynamic17unshare_if_shared17h02646414dc25e2d7E>
   212ea:	9c01      	ldr	r4, [sp, #4]
   212ec:	1c60      	adds	r0, r4, #1
   212ee:	2210      	movs	r2, #16
   212f0:	4629      	mov	r1, r5
   212f2:	f005 ffd4 	bl	2729e <__aeabi_memcpy>
   212f6:	e7e5      	b.n	212c4 <_ZN20complex_full_dynamic3app17h3be32401555bd2daE+0x78>
   212f8:	000019d6 	.word	0x000019d6

000212fc <_ZN20complex_full_dynamic3app17h3c7cc536f8015139E>:
   212fc:	b5f0      	push	{r4, r5, r6, r7, lr}
   212fe:	af03      	add	r7, sp, #12
   21300:	b09b      	sub	sp, #108	@ 0x6c
   21302:	9002      	str	r0, [sp, #8]
   21304:	ac03      	add	r4, sp, #12
   21306:	2502      	movs	r5, #2
   21308:	7225      	strb	r5, [r4, #8]
   2130a:	340c      	adds	r4, #12
   2130c:	2236      	movs	r2, #54	@ 0x36
   2130e:	9201      	str	r2, [sp, #4]
   21310:	4620      	mov	r0, r4
   21312:	f005 ffc4 	bl	2729e <__aeabi_memcpy>
   21316:	ae14      	add	r6, sp, #80	@ 0x50
   21318:	2000      	movs	r0, #0
   2131a:	76b0      	strb	r0, [r6, #26]
   2131c:	8330      	strh	r0, [r6, #24]
   2131e:	7235      	strb	r5, [r6, #8]
   21320:	9019      	str	r0, [sp, #100]	@ 0x64
   21322:	9018      	str	r0, [sp, #96]	@ 0x60
   21324:	9017      	str	r0, [sp, #92]	@ 0x5c
   21326:	4820      	ldr	r0, [pc, #128]	@ (213a8 <_ZN20complex_full_dynamic3app17h3c7cc536f8015139E+0xac>)
   21328:	2505      	movs	r5, #5
   2132a:	4629      	mov	r1, r5
   2132c:	4622      	mov	r2, r4
   2132e:	9b01      	ldr	r3, [sp, #4]
   21330:	df04      	svc	4
   21332:	2802      	cmp	r0, #2
   21334:	d01a      	beq.n	2136c <_ZN20complex_full_dynamic3app17h3c7cc536f8015139E+0x70>
   21336:	360c      	adds	r6, #12
   21338:	a803      	add	r0, sp, #12
   2133a:	2104      	movs	r1, #4
   2133c:	7201      	strb	r1, [r0, #8]
   2133e:	9504      	str	r5, [sp, #16]
   21340:	4819      	ldr	r0, [pc, #100]	@ (213a8 <_ZN20complex_full_dynamic3app17h3c7cc536f8015139E+0xac>)
   21342:	9003      	str	r0, [sp, #12]
   21344:	2403      	movs	r4, #3
   21346:	230f      	movs	r3, #15
   21348:	4621      	mov	r1, r4
   2134a:	4632      	mov	r2, r6
   2134c:	df03      	svc	3
   2134e:	2802      	cmp	r0, #2
   21350:	d00c      	beq.n	2136c <_ZN20complex_full_dynamic3app17h3c7cc536f8015139E+0x70>
   21352:	4635      	mov	r5, r6
   21354:	a814      	add	r0, sp, #80	@ 0x50
   21356:	7204      	strb	r4, [r0, #8]
   21358:	9415      	str	r4, [sp, #84]	@ 0x54
   2135a:	4813      	ldr	r0, [pc, #76]	@ (213a8 <_ZN20complex_full_dynamic3app17h3c7cc536f8015139E+0xac>)
   2135c:	9014      	str	r0, [sp, #80]	@ 0x50
   2135e:	2105      	movs	r1, #5
   21360:	2600      	movs	r6, #0
   21362:	4622      	mov	r2, r4
   21364:	4633      	mov	r3, r6
   21366:	df02      	svc	2
   21368:	287f      	cmp	r0, #127	@ 0x7f
   2136a:	d80b      	bhi.n	21384 <_ZN20complex_full_dynamic3app17h3c7cc536f8015139E+0x88>
   2136c:	9c02      	ldr	r4, [sp, #8]
   2136e:	6061      	str	r1, [r4, #4]
   21370:	2601      	movs	r6, #1
   21372:	7026      	strb	r6, [r4, #0]
   21374:	a814      	add	r0, sp, #80	@ 0x50
   21376:	f005 fdd1 	bl	26f1c <_ZN9allow_pin12full_dynamic17unshare_if_shared17h02646414dc25e2d7E>
   2137a:	a803      	add	r0, sp, #12
   2137c:	f005 fdce 	bl	26f1c <_ZN9allow_pin12full_dynamic17unshare_if_shared17h02646414dc25e2d7E>
   21380:	b01b      	add	sp, #108	@ 0x6c
   21382:	bdf0      	pop	{r4, r5, r6, r7, pc}
   21384:	a803      	add	r0, sp, #12
   21386:	f005 fdc9 	bl	26f1c <_ZN9allow_pin12full_dynamic17unshare_if_shared17h02646414dc25e2d7E>
   2138a:	ac14      	add	r4, sp, #80	@ 0x50
   2138c:	4620      	mov	r0, r4
   2138e:	f005 fdc5 	bl	26f1c <_ZN9allow_pin12full_dynamic17unshare_if_shared17h02646414dc25e2d7E>
   21392:	4620      	mov	r0, r4
   21394:	f005 fdc2 	bl	26f1c <_ZN9allow_pin12full_dynamic17unshare_if_shared17h02646414dc25e2d7E>
   21398:	9c02      	ldr	r4, [sp, #8]
   2139a:	1c60      	adds	r0, r4, #1
   2139c:	220f      	movs	r2, #15
   2139e:	4629      	mov	r1, r5
   213a0:	f005 ff7d 	bl	2729e <__aeabi_memcpy>
   213a4:	e7e5      	b.n	21372 <_ZN20complex_full_dynamic3app17h3c7cc536f8015139E+0x76>
   213a6:	46c0      	nop			@ (mov r8, r8)
   213a8:	00000653 	.word	0x00000653

000213ac <_ZN20complex_full_dynamic3app17h3cd5e82d4d05647fE>:
   213ac:	b5f0      	push	{r4, r5, r6, r7, lr}
   213ae:	af03      	add	r7, sp, #12
   213b0:	b0a1      	sub	sp, #132	@ 0x84
   213b2:	9001      	str	r0, [sp, #4]
   213b4:	ae02      	add	r6, sp, #8
   213b6:	2502      	movs	r5, #2
   213b8:	7235      	strb	r5, [r6, #8]
   213ba:	360c      	adds	r6, #12
   213bc:	2251      	movs	r2, #81	@ 0x51
   213be:	9200      	str	r2, [sp, #0]
   213c0:	4630      	mov	r0, r6
   213c2:	f005 ff6c 	bl	2729e <__aeabi_memcpy>
   213c6:	a81a      	add	r0, sp, #104	@ 0x68
   213c8:	2400      	movs	r4, #0
   213ca:	7684      	strb	r4, [r0, #26]
   213cc:	8304      	strh	r4, [r0, #24]
   213ce:	7205      	strb	r5, [r0, #8]
   213d0:	4605      	mov	r5, r0
   213d2:	941f      	str	r4, [sp, #124]	@ 0x7c
   213d4:	941e      	str	r4, [sp, #120]	@ 0x78
   213d6:	941d      	str	r4, [sp, #116]	@ 0x74
   213d8:	481f      	ldr	r0, [pc, #124]	@ (21458 <_ZN20complex_full_dynamic3app17h3cd5e82d4d05647fE+0xac>)
   213da:	4621      	mov	r1, r4
   213dc:	4632      	mov	r2, r6
   213de:	9b00      	ldr	r3, [sp, #0]
   213e0:	df04      	svc	4
   213e2:	2802      	cmp	r0, #2
   213e4:	d01a      	beq.n	2141c <_ZN20complex_full_dynamic3app17h3cd5e82d4d05647fE+0x70>
   213e6:	350c      	adds	r5, #12
   213e8:	a802      	add	r0, sp, #8
   213ea:	2104      	movs	r1, #4
   213ec:	7201      	strb	r1, [r0, #8]
   213ee:	9403      	str	r4, [sp, #12]
   213f0:	4e19      	ldr	r6, [pc, #100]	@ (21458 <_ZN20complex_full_dynamic3app17h3cd5e82d4d05647fE+0xac>)
   213f2:	9602      	str	r6, [sp, #8]
   213f4:	2403      	movs	r4, #3
   213f6:	230f      	movs	r3, #15
   213f8:	4630      	mov	r0, r6
   213fa:	4621      	mov	r1, r4
   213fc:	462a      	mov	r2, r5
   213fe:	df03      	svc	3
   21400:	2802      	cmp	r0, #2
   21402:	d00b      	beq.n	2141c <_ZN20complex_full_dynamic3app17h3cd5e82d4d05647fE+0x70>
   21404:	a81a      	add	r0, sp, #104	@ 0x68
   21406:	7204      	strb	r4, [r0, #8]
   21408:	941b      	str	r4, [sp, #108]	@ 0x6c
   2140a:	961a      	str	r6, [sp, #104]	@ 0x68
   2140c:	4812      	ldr	r0, [pc, #72]	@ (21458 <_ZN20complex_full_dynamic3app17h3cd5e82d4d05647fE+0xac>)
   2140e:	2600      	movs	r6, #0
   21410:	4631      	mov	r1, r6
   21412:	4622      	mov	r2, r4
   21414:	4633      	mov	r3, r6
   21416:	df02      	svc	2
   21418:	287f      	cmp	r0, #127	@ 0x7f
   2141a:	d80b      	bhi.n	21434 <_ZN20complex_full_dynamic3app17h3cd5e82d4d05647fE+0x88>
   2141c:	9c01      	ldr	r4, [sp, #4]
   2141e:	6061      	str	r1, [r4, #4]
   21420:	2601      	movs	r6, #1
   21422:	7026      	strb	r6, [r4, #0]
   21424:	a81a      	add	r0, sp, #104	@ 0x68
   21426:	f005 fd79 	bl	26f1c <_ZN9allow_pin12full_dynamic17unshare_if_shared17h02646414dc25e2d7E>
   2142a:	a802      	add	r0, sp, #8
   2142c:	f005 fd76 	bl	26f1c <_ZN9allow_pin12full_dynamic17unshare_if_shared17h02646414dc25e2d7E>
   21430:	b021      	add	sp, #132	@ 0x84
   21432:	bdf0      	pop	{r4, r5, r6, r7, pc}
   21434:	a802      	add	r0, sp, #8
   21436:	f005 fd71 	bl	26f1c <_ZN9allow_pin12full_dynamic17unshare_if_shared17h02646414dc25e2d7E>
   2143a:	ac1a      	add	r4, sp, #104	@ 0x68
   2143c:	4620      	mov	r0, r4
   2143e:	f005 fd6d 	bl	26f1c <_ZN9allow_pin12full_dynamic17unshare_if_shared17h02646414dc25e2d7E>
   21442:	4620      	mov	r0, r4
   21444:	f005 fd6a 	bl	26f1c <_ZN9allow_pin12full_dynamic17unshare_if_shared17h02646414dc25e2d7E>
   21448:	9c01      	ldr	r4, [sp, #4]
   2144a:	1c60      	adds	r0, r4, #1
   2144c:	220f      	movs	r2, #15
   2144e:	4629      	mov	r1, r5
   21450:	f005 ff25 	bl	2729e <__aeabi_memcpy>
   21454:	e7e5      	b.n	21422 <_ZN20complex_full_dynamic3app17h3cd5e82d4d05647fE+0x76>
   21456:	46c0      	nop			@ (mov r8, r8)
   21458:	000013bf 	.word	0x000013bf

0002145c <_ZN20complex_full_dynamic3app17h41988b4b23fa20b9E>:
   2145c:	b5f0      	push	{r4, r5, r6, r7, lr}
   2145e:	af03      	add	r7, sp, #12
   21460:	b09b      	sub	sp, #108	@ 0x6c
   21462:	9003      	str	r0, [sp, #12]
   21464:	ac04      	add	r4, sp, #16
   21466:	2002      	movs	r0, #2
   21468:	9002      	str	r0, [sp, #8]
   2146a:	7220      	strb	r0, [r4, #8]
   2146c:	340c      	adds	r4, #12
   2146e:	221e      	movs	r2, #30
   21470:	9201      	str	r2, [sp, #4]
   21472:	4620      	mov	r0, r4
   21474:	f005 ff13 	bl	2729e <__aeabi_memcpy>
   21478:	ae0f      	add	r6, sp, #60	@ 0x3c
   2147a:	4635      	mov	r5, r6
   2147c:	350c      	adds	r5, #12
   2147e:	2121      	movs	r1, #33	@ 0x21
   21480:	4628      	mov	r0, r5
   21482:	f005 fd5f 	bl	26f44 <__aeabi_memclr4>
   21486:	9802      	ldr	r0, [sp, #8]
   21488:	7230      	strb	r0, [r6, #8]
   2148a:	4820      	ldr	r0, [pc, #128]	@ (2150c <_ZN20complex_full_dynamic3app17h41988b4b23fa20b9E+0xb0>)
   2148c:	2606      	movs	r6, #6
   2148e:	4631      	mov	r1, r6
   21490:	4622      	mov	r2, r4
   21492:	9b01      	ldr	r3, [sp, #4]
   21494:	df04      	svc	4
   21496:	2802      	cmp	r0, #2
   21498:	d01a      	beq.n	214d0 <_ZN20complex_full_dynamic3app17h41988b4b23fa20b9E+0x74>
   2149a:	a804      	add	r0, sp, #16
   2149c:	2104      	movs	r1, #4
   2149e:	7201      	strb	r1, [r0, #8]
   214a0:	9605      	str	r6, [sp, #20]
   214a2:	4e1a      	ldr	r6, [pc, #104]	@ (2150c <_ZN20complex_full_dynamic3app17h41988b4b23fa20b9E+0xb0>)
   214a4:	9604      	str	r6, [sp, #16]
   214a6:	2409      	movs	r4, #9
   214a8:	2321      	movs	r3, #33	@ 0x21
   214aa:	4630      	mov	r0, r6
   214ac:	4621      	mov	r1, r4
   214ae:	462a      	mov	r2, r5
   214b0:	df03      	svc	3
   214b2:	2802      	cmp	r0, #2
   214b4:	d00c      	beq.n	214d0 <_ZN20complex_full_dynamic3app17h41988b4b23fa20b9E+0x74>
   214b6:	a80f      	add	r0, sp, #60	@ 0x3c
   214b8:	2103      	movs	r1, #3
   214ba:	7201      	strb	r1, [r0, #8]
   214bc:	960f      	str	r6, [sp, #60]	@ 0x3c
   214be:	9410      	str	r4, [sp, #64]	@ 0x40
   214c0:	4812      	ldr	r0, [pc, #72]	@ (2150c <_ZN20complex_full_dynamic3app17h41988b4b23fa20b9E+0xb0>)
   214c2:	2106      	movs	r1, #6
   214c4:	2600      	movs	r6, #0
   214c6:	4622      	mov	r2, r4
   214c8:	4633      	mov	r3, r6
   214ca:	df02      	svc	2
   214cc:	287f      	cmp	r0, #127	@ 0x7f
   214ce:	d80b      	bhi.n	214e8 <_ZN20complex_full_dynamic3app17h41988b4b23fa20b9E+0x8c>
   214d0:	9c03      	ldr	r4, [sp, #12]
   214d2:	6061      	str	r1, [r4, #4]
   214d4:	2601      	movs	r6, #1
   214d6:	7026      	strb	r6, [r4, #0]
   214d8:	a80f      	add	r0, sp, #60	@ 0x3c
   214da:	f005 fd1f 	bl	26f1c <_ZN9allow_pin12full_dynamic17unshare_if_shared17h02646414dc25e2d7E>
   214de:	a804      	add	r0, sp, #16
   214e0:	f005 fd1c 	bl	26f1c <_ZN9allow_pin12full_dynamic17unshare_if_shared17h02646414dc25e2d7E>
   214e4:	b01b      	add	sp, #108	@ 0x6c
   214e6:	bdf0      	pop	{r4, r5, r6, r7, pc}
   214e8:	a804      	add	r0, sp, #16
   214ea:	f005 fd17 	bl	26f1c <_ZN9allow_pin12full_dynamic17unshare_if_shared17h02646414dc25e2d7E>
   214ee:	ac0f      	add	r4, sp, #60	@ 0x3c
   214f0:	4620      	mov	r0, r4
   214f2:	f005 fd13 	bl	26f1c <_ZN9allow_pin12full_dynamic17unshare_if_shared17h02646414dc25e2d7E>
   214f6:	4620      	mov	r0, r4
   214f8:	f005 fd10 	bl	26f1c <_ZN9allow_pin12full_dynamic17unshare_if_shared17h02646414dc25e2d7E>
   214fc:	9c03      	ldr	r4, [sp, #12]
   214fe:	1c60      	adds	r0, r4, #1
   21500:	2221      	movs	r2, #33	@ 0x21
   21502:	4629      	mov	r1, r5
   21504:	f005 fecb 	bl	2729e <__aeabi_memcpy>
   21508:	e7e5      	b.n	214d6 <_ZN20complex_full_dynamic3app17h41988b4b23fa20b9E+0x7a>
   2150a:	46c0      	nop			@ (mov r8, r8)
   2150c:	000019b5 	.word	0x000019b5

00021510 <_ZN20complex_full_dynamic3app17h445ea19bff290f67E>:
   21510:	b5f0      	push	{r4, r5, r6, r7, lr}
   21512:	af03      	add	r7, sp, #12
   21514:	b0a3      	sub	sp, #140	@ 0x8c
   21516:	9003      	str	r0, [sp, #12]
   21518:	ac04      	add	r4, sp, #16
   2151a:	2002      	movs	r0, #2
   2151c:	9002      	str	r0, [sp, #8]
   2151e:	7220      	strb	r0, [r4, #8]
   21520:	340c      	adds	r4, #12
   21522:	2211      	movs	r2, #17
   21524:	9201      	str	r2, [sp, #4]
   21526:	4620      	mov	r0, r4
   21528:	f005 feb9 	bl	2729e <__aeabi_memcpy>
   2152c:	ae0c      	add	r6, sp, #48	@ 0x30
   2152e:	4635      	mov	r5, r6
   21530:	350c      	adds	r5, #12
   21532:	2150      	movs	r1, #80	@ 0x50
   21534:	4628      	mov	r0, r5
   21536:	f005 fd05 	bl	26f44 <__aeabi_memclr4>
   2153a:	9802      	ldr	r0, [sp, #8]
   2153c:	7230      	strb	r0, [r6, #8]
   2153e:	4820      	ldr	r0, [pc, #128]	@ (215c0 <_ZN20complex_full_dynamic3app17h445ea19bff290f67E+0xb0>)
   21540:	2606      	movs	r6, #6
   21542:	4631      	mov	r1, r6
   21544:	4622      	mov	r2, r4
   21546:	9b01      	ldr	r3, [sp, #4]
   21548:	df04      	svc	4
   2154a:	2802      	cmp	r0, #2
   2154c:	d01a      	beq.n	21584 <_ZN20complex_full_dynamic3app17h445ea19bff290f67E+0x74>
   2154e:	a804      	add	r0, sp, #16
   21550:	2104      	movs	r1, #4
   21552:	7201      	strb	r1, [r0, #8]
   21554:	9605      	str	r6, [sp, #20]
   21556:	4e1a      	ldr	r6, [pc, #104]	@ (215c0 <_ZN20complex_full_dynamic3app17h445ea19bff290f67E+0xb0>)
   21558:	9604      	str	r6, [sp, #16]
   2155a:	2405      	movs	r4, #5
   2155c:	2350      	movs	r3, #80	@ 0x50
   2155e:	4630      	mov	r0, r6
   21560:	4621      	mov	r1, r4
   21562:	462a      	mov	r2, r5
   21564:	df03      	svc	3
   21566:	2802      	cmp	r0, #2
   21568:	d00c      	beq.n	21584 <_ZN20complex_full_dynamic3app17h445ea19bff290f67E+0x74>
   2156a:	a80c      	add	r0, sp, #48	@ 0x30
   2156c:	2103      	movs	r1, #3
   2156e:	7201      	strb	r1, [r0, #8]
   21570:	960c      	str	r6, [sp, #48]	@ 0x30
   21572:	940d      	str	r4, [sp, #52]	@ 0x34
   21574:	4812      	ldr	r0, [pc, #72]	@ (215c0 <_ZN20complex_full_dynamic3app17h445ea19bff290f67E+0xb0>)
   21576:	2106      	movs	r1, #6
   21578:	2600      	movs	r6, #0
   2157a:	4622      	mov	r2, r4
   2157c:	4633      	mov	r3, r6
   2157e:	df02      	svc	2
   21580:	287f      	cmp	r0, #127	@ 0x7f
   21582:	d80b      	bhi.n	2159c <_ZN20complex_full_dynamic3app17h445ea19bff290f67E+0x8c>
   21584:	9c03      	ldr	r4, [sp, #12]
   21586:	6061      	str	r1, [r4, #4]
   21588:	2601      	movs	r6, #1
   2158a:	7026      	strb	r6, [r4, #0]
   2158c:	a80c      	add	r0, sp, #48	@ 0x30
   2158e:	f005 fcc5 	bl	26f1c <_ZN9allow_pin12full_dynamic17unshare_if_shared17h02646414dc25e2d7E>
   21592:	a804      	add	r0, sp, #16
   21594:	f005 fcc2 	bl	26f1c <_ZN9allow_pin12full_dynamic17unshare_if_shared17h02646414dc25e2d7E>
   21598:	b023      	add	sp, #140	@ 0x8c
   2159a:	bdf0      	pop	{r4, r5, r6, r7, pc}
   2159c:	a804      	add	r0, sp, #16
   2159e:	f005 fcbd 	bl	26f1c <_ZN9allow_pin12full_dynamic17unshare_if_shared17h02646414dc25e2d7E>
   215a2:	ac0c      	add	r4, sp, #48	@ 0x30
   215a4:	4620      	mov	r0, r4
   215a6:	f005 fcb9 	bl	26f1c <_ZN9allow_pin12full_dynamic17unshare_if_shared17h02646414dc25e2d7E>
   215aa:	4620      	mov	r0, r4
   215ac:	f005 fcb6 	bl	26f1c <_ZN9allow_pin12full_dynamic17unshare_if_shared17h02646414dc25e2d7E>
   215b0:	9c03      	ldr	r4, [sp, #12]
   215b2:	1c60      	adds	r0, r4, #1
   215b4:	2250      	movs	r2, #80	@ 0x50
   215b6:	4629      	mov	r1, r5
   215b8:	f005 fe71 	bl	2729e <__aeabi_memcpy>
   215bc:	e7e5      	b.n	2158a <_ZN20complex_full_dynamic3app17h445ea19bff290f67E+0x7a>
   215be:	46c0      	nop			@ (mov r8, r8)
   215c0:	00001aa9 	.word	0x00001aa9

000215c4 <_ZN20complex_full_dynamic3app17h4814c821eea8d1d9E>:
   215c4:	b5f0      	push	{r4, r5, r6, r7, lr}
   215c6:	af03      	add	r7, sp, #12
   215c8:	b0a3      	sub	sp, #140	@ 0x8c
   215ca:	9002      	str	r0, [sp, #8]
   215cc:	ae03      	add	r6, sp, #12
   215ce:	2002      	movs	r0, #2
   215d0:	9001      	str	r0, [sp, #4]
   215d2:	7230      	strb	r0, [r6, #8]
   215d4:	360c      	adds	r6, #12
   215d6:	222e      	movs	r2, #46	@ 0x2e
   215d8:	9200      	str	r2, [sp, #0]
   215da:	4630      	mov	r0, r6
   215dc:	f005 fe5f 	bl	2729e <__aeabi_memcpy>
   215e0:	ad12      	add	r5, sp, #72	@ 0x48
   215e2:	462c      	mov	r4, r5
   215e4:	340c      	adds	r4, #12
   215e6:	2138      	movs	r1, #56	@ 0x38
   215e8:	4620      	mov	r0, r4
   215ea:	f005 fcab 	bl	26f44 <__aeabi_memclr4>
   215ee:	9801      	ldr	r0, [sp, #4]
   215f0:	7228      	strb	r0, [r5, #8]
   215f2:	4820      	ldr	r0, [pc, #128]	@ (21674 <_ZN20complex_full_dynamic3app17h4814c821eea8d1d9E+0xb0>)
   215f4:	2509      	movs	r5, #9
   215f6:	4629      	mov	r1, r5
   215f8:	4632      	mov	r2, r6
   215fa:	9b00      	ldr	r3, [sp, #0]
   215fc:	df04      	svc	4
   215fe:	2802      	cmp	r0, #2
   21600:	d019      	beq.n	21636 <_ZN20complex_full_dynamic3app17h4814c821eea8d1d9E+0x72>
   21602:	a803      	add	r0, sp, #12
   21604:	2104      	movs	r1, #4
   21606:	7201      	strb	r1, [r0, #8]
   21608:	4e1a      	ldr	r6, [pc, #104]	@ (21674 <_ZN20complex_full_dynamic3app17h4814c821eea8d1d9E+0xb0>)
   2160a:	9603      	str	r6, [sp, #12]
   2160c:	9504      	str	r5, [sp, #16]
   2160e:	2338      	movs	r3, #56	@ 0x38
   21610:	4630      	mov	r0, r6
   21612:	4629      	mov	r1, r5
   21614:	4622      	mov	r2, r4
   21616:	df03      	svc	3
   21618:	2802      	cmp	r0, #2
   2161a:	d00c      	beq.n	21636 <_ZN20complex_full_dynamic3app17h4814c821eea8d1d9E+0x72>
   2161c:	a812      	add	r0, sp, #72	@ 0x48
   2161e:	2103      	movs	r1, #3
   21620:	7201      	strb	r1, [r0, #8]
   21622:	9612      	str	r6, [sp, #72]	@ 0x48
   21624:	9513      	str	r5, [sp, #76]	@ 0x4c
   21626:	4813      	ldr	r0, [pc, #76]	@ (21674 <_ZN20complex_full_dynamic3app17h4814c821eea8d1d9E+0xb0>)
   21628:	2600      	movs	r6, #0
   2162a:	4629      	mov	r1, r5
   2162c:	462a      	mov	r2, r5
   2162e:	4633      	mov	r3, r6
   21630:	df02      	svc	2
   21632:	287f      	cmp	r0, #127	@ 0x7f
   21634:	d80b      	bhi.n	2164e <_ZN20complex_full_dynamic3app17h4814c821eea8d1d9E+0x8a>
   21636:	9c02      	ldr	r4, [sp, #8]
   21638:	6061      	str	r1, [r4, #4]
   2163a:	2601      	movs	r6, #1
   2163c:	7026      	strb	r6, [r4, #0]
   2163e:	a812      	add	r0, sp, #72	@ 0x48
   21640:	f005 fc6c 	bl	26f1c <_ZN9allow_pin12full_dynamic17unshare_if_shared17h02646414dc25e2d7E>
   21644:	a803      	add	r0, sp, #12
   21646:	f005 fc69 	bl	26f1c <_ZN9allow_pin12full_dynamic17unshare_if_shared17h02646414dc25e2d7E>
   2164a:	b023      	add	sp, #140	@ 0x8c
   2164c:	bdf0      	pop	{r4, r5, r6, r7, pc}
   2164e:	a803      	add	r0, sp, #12
   21650:	f005 fc64 	bl	26f1c <_ZN9allow_pin12full_dynamic17unshare_if_shared17h02646414dc25e2d7E>
   21654:	4625      	mov	r5, r4
   21656:	ac12      	add	r4, sp, #72	@ 0x48
   21658:	4620      	mov	r0, r4
   2165a:	f005 fc5f 	bl	26f1c <_ZN9allow_pin12full_dynamic17unshare_if_shared17h02646414dc25e2d7E>
   2165e:	4620      	mov	r0, r4
   21660:	f005 fc5c 	bl	26f1c <_ZN9allow_pin12full_dynamic17unshare_if_shared17h02646414dc25e2d7E>
   21664:	9c02      	ldr	r4, [sp, #8]
   21666:	1c60      	adds	r0, r4, #1
   21668:	2238      	movs	r2, #56	@ 0x38
   2166a:	4629      	mov	r1, r5
   2166c:	f005 fe17 	bl	2729e <__aeabi_memcpy>
   21670:	e7e4      	b.n	2163c <_ZN20complex_full_dynamic3app17h4814c821eea8d1d9E+0x78>
   21672:	46c0      	nop			@ (mov r8, r8)
   21674:	00000a9d 	.word	0x00000a9d

00021678 <_ZN20complex_full_dynamic3app17h4abd8d9f65cc9440E>:
   21678:	b5f0      	push	{r4, r5, r6, r7, lr}
   2167a:	af03      	add	r7, sp, #12
   2167c:	b0ad      	sub	sp, #180	@ 0xb4
   2167e:	9003      	str	r0, [sp, #12]
   21680:	ac04      	add	r4, sp, #16
   21682:	2002      	movs	r0, #2
   21684:	9002      	str	r0, [sp, #8]
   21686:	7220      	strb	r0, [r4, #8]
   21688:	340c      	adds	r4, #12
   2168a:	224d      	movs	r2, #77	@ 0x4d
   2168c:	9201      	str	r2, [sp, #4]
   2168e:	4620      	mov	r0, r4
   21690:	f005 fe05 	bl	2729e <__aeabi_memcpy>
   21694:	ae1b      	add	r6, sp, #108	@ 0x6c
   21696:	4635      	mov	r5, r6
   21698:	350c      	adds	r5, #12
   2169a:	213c      	movs	r1, #60	@ 0x3c
   2169c:	4628      	mov	r0, r5
   2169e:	f005 fc51 	bl	26f44 <__aeabi_memclr4>
   216a2:	9802      	ldr	r0, [sp, #8]
   216a4:	7230      	strb	r0, [r6, #8]
   216a6:	481f      	ldr	r0, [pc, #124]	@ (21724 <_ZN20complex_full_dynamic3app17h4abd8d9f65cc9440E+0xac>)
   216a8:	2604      	movs	r6, #4
   216aa:	4631      	mov	r1, r6
   216ac:	4622      	mov	r2, r4
   216ae:	9b01      	ldr	r3, [sp, #4]
   216b0:	df04      	svc	4
   216b2:	2802      	cmp	r0, #2
   216b4:	d019      	beq.n	216ea <_ZN20complex_full_dynamic3app17h4abd8d9f65cc9440E+0x72>
   216b6:	a804      	add	r0, sp, #16
   216b8:	7206      	strb	r6, [r0, #8]
   216ba:	9605      	str	r6, [sp, #20]
   216bc:	4e19      	ldr	r6, [pc, #100]	@ (21724 <_ZN20complex_full_dynamic3app17h4abd8d9f65cc9440E+0xac>)
   216be:	9604      	str	r6, [sp, #16]
   216c0:	2409      	movs	r4, #9
   216c2:	233c      	movs	r3, #60	@ 0x3c
   216c4:	4630      	mov	r0, r6
   216c6:	4621      	mov	r1, r4
   216c8:	462a      	mov	r2, r5
   216ca:	df03      	svc	3
   216cc:	2802      	cmp	r0, #2
   216ce:	d00c      	beq.n	216ea <_ZN20complex_full_dynamic3app17h4abd8d9f65cc9440E+0x72>
   216d0:	a81b      	add	r0, sp, #108	@ 0x6c
   216d2:	2103      	movs	r1, #3
   216d4:	7201      	strb	r1, [r0, #8]
   216d6:	961b      	str	r6, [sp, #108]	@ 0x6c
   216d8:	941c      	str	r4, [sp, #112]	@ 0x70
   216da:	4812      	ldr	r0, [pc, #72]	@ (21724 <_ZN20complex_full_dynamic3app17h4abd8d9f65cc9440E+0xac>)
   216dc:	2104      	movs	r1, #4
   216de:	2600      	movs	r6, #0
   216e0:	4622      	mov	r2, r4
   216e2:	4633      	mov	r3, r6
   216e4:	df02      	svc	2
   216e6:	287f      	cmp	r0, #127	@ 0x7f
   216e8:	d80b      	bhi.n	21702 <_ZN20complex_full_dynamic3app17h4abd8d9f65cc9440E+0x8a>
   216ea:	9c03      	ldr	r4, [sp, #12]
   216ec:	6061      	str	r1, [r4, #4]
   216ee:	2601      	movs	r6, #1
   216f0:	7026      	strb	r6, [r4, #0]
   216f2:	a81b      	add	r0, sp, #108	@ 0x6c
   216f4:	f005 fc12 	bl	26f1c <_ZN9allow_pin12full_dynamic17unshare_if_shared17h02646414dc25e2d7E>
   216f8:	a804      	add	r0, sp, #16
   216fa:	f005 fc0f 	bl	26f1c <_ZN9allow_pin12full_dynamic17unshare_if_shared17h02646414dc25e2d7E>
   216fe:	b02d      	add	sp, #180	@ 0xb4
   21700:	bdf0      	pop	{r4, r5, r6, r7, pc}
   21702:	a804      	add	r0, sp, #16
   21704:	f005 fc0a 	bl	26f1c <_ZN9allow_pin12full_dynamic17unshare_if_shared17h02646414dc25e2d7E>
   21708:	ac1b      	add	r4, sp, #108	@ 0x6c
   2170a:	4620      	mov	r0, r4
   2170c:	f005 fc06 	bl	26f1c <_ZN9allow_pin12full_dynamic17unshare_if_shared17h02646414dc25e2d7E>
   21710:	4620      	mov	r0, r4
   21712:	f005 fc03 	bl	26f1c <_ZN9allow_pin12full_dynamic17unshare_if_shared17h02646414dc25e2d7E>
   21716:	9c03      	ldr	r4, [sp, #12]
   21718:	1c60      	adds	r0, r4, #1
   2171a:	223c      	movs	r2, #60	@ 0x3c
   2171c:	4629      	mov	r1, r5
   2171e:	f005 fdbe 	bl	2729e <__aeabi_memcpy>
   21722:	e7e5      	b.n	216f0 <_ZN20complex_full_dynamic3app17h4abd8d9f65cc9440E+0x78>
   21724:	000021ab 	.word	0x000021ab

00021728 <_ZN20complex_full_dynamic3app17h56bdb9e9f4381e45E>:
   21728:	b5f0      	push	{r4, r5, r6, r7, lr}
   2172a:	af03      	add	r7, sp, #12
   2172c:	b0b1      	sub	sp, #196	@ 0xc4
   2172e:	9002      	str	r0, [sp, #8]
   21730:	ac03      	add	r4, sp, #12
   21732:	2002      	movs	r0, #2
   21734:	9001      	str	r0, [sp, #4]
   21736:	7220      	strb	r0, [r4, #8]
   21738:	340c      	adds	r4, #12
   2173a:	225d      	movs	r2, #93	@ 0x5d
   2173c:	9200      	str	r2, [sp, #0]
   2173e:	4620      	mov	r0, r4
   21740:	f005 fdad 	bl	2729e <__aeabi_memcpy>
   21744:	ae1e      	add	r6, sp, #120	@ 0x78
   21746:	4635      	mov	r5, r6
   21748:	350c      	adds	r5, #12
   2174a:	2140      	movs	r1, #64	@ 0x40
   2174c:	4628      	mov	r0, r5
   2174e:	f005 fbf9 	bl	26f44 <__aeabi_memclr4>
   21752:	9801      	ldr	r0, [sp, #4]
   21754:	7230      	strb	r0, [r6, #8]
   21756:	481f      	ldr	r0, [pc, #124]	@ (217d4 <_ZN20complex_full_dynamic3app17h56bdb9e9f4381e45E+0xac>)
   21758:	2608      	movs	r6, #8
   2175a:	4631      	mov	r1, r6
   2175c:	4622      	mov	r2, r4
   2175e:	9b00      	ldr	r3, [sp, #0]
   21760:	df04      	svc	4
   21762:	2802      	cmp	r0, #2
   21764:	d019      	beq.n	2179a <_ZN20complex_full_dynamic3app17h56bdb9e9f4381e45E+0x72>
   21766:	a803      	add	r0, sp, #12
   21768:	2404      	movs	r4, #4
   2176a:	7204      	strb	r4, [r0, #8]
   2176c:	9604      	str	r6, [sp, #16]
   2176e:	4e19      	ldr	r6, [pc, #100]	@ (217d4 <_ZN20complex_full_dynamic3app17h56bdb9e9f4381e45E+0xac>)
   21770:	9603      	str	r6, [sp, #12]
   21772:	2340      	movs	r3, #64	@ 0x40
   21774:	4630      	mov	r0, r6
   21776:	4621      	mov	r1, r4
   21778:	462a      	mov	r2, r5
   2177a:	df03      	svc	3
   2177c:	2802      	cmp	r0, #2
   2177e:	d00c      	beq.n	2179a <_ZN20complex_full_dynamic3app17h56bdb9e9f4381e45E+0x72>
   21780:	a81e      	add	r0, sp, #120	@ 0x78
   21782:	2103      	movs	r1, #3
   21784:	7201      	strb	r1, [r0, #8]
   21786:	961e      	str	r6, [sp, #120]	@ 0x78
   21788:	941f      	str	r4, [sp, #124]	@ 0x7c
   2178a:	4812      	ldr	r0, [pc, #72]	@ (217d4 <_ZN20complex_full_dynamic3app17h56bdb9e9f4381e45E+0xac>)
   2178c:	2108      	movs	r1, #8
   2178e:	2600      	movs	r6, #0
   21790:	4622      	mov	r2, r4
   21792:	4633      	mov	r3, r6
   21794:	df02      	svc	2
   21796:	287f      	cmp	r0, #127	@ 0x7f
   21798:	d80b      	bhi.n	217b2 <_ZN20complex_full_dynamic3app17h56bdb9e9f4381e45E+0x8a>
   2179a:	9c02      	ldr	r4, [sp, #8]
   2179c:	6061      	str	r1, [r4, #4]
   2179e:	2601      	movs	r6, #1
   217a0:	7026      	strb	r6, [r4, #0]
   217a2:	a81e      	add	r0, sp, #120	@ 0x78
   217a4:	f005 fbba 	bl	26f1c <_ZN9allow_pin12full_dynamic17unshare_if_shared17h02646414dc25e2d7E>
   217a8:	a803      	add	r0, sp, #12
   217aa:	f005 fbb7 	bl	26f1c <_ZN9allow_pin12full_dynamic17unshare_if_shared17h02646414dc25e2d7E>
   217ae:	b031      	add	sp, #196	@ 0xc4
   217b0:	bdf0      	pop	{r4, r5, r6, r7, pc}
   217b2:	a803      	add	r0, sp, #12
   217b4:	f005 fbb2 	bl	26f1c <_ZN9allow_pin12full_dynamic17unshare_if_shared17h02646414dc25e2d7E>
   217b8:	ac1e      	add	r4, sp, #120	@ 0x78
   217ba:	4620      	mov	r0, r4
   217bc:	f005 fbae 	bl	26f1c <_ZN9allow_pin12full_dynamic17unshare_if_shared17h02646414dc25e2d7E>
   217c0:	4620      	mov	r0, r4
   217c2:	f005 fbab 	bl	26f1c <_ZN9allow_pin12full_dynamic17unshare_if_shared17h02646414dc25e2d7E>
   217c6:	9c02      	ldr	r4, [sp, #8]
   217c8:	1c60      	adds	r0, r4, #1
   217ca:	2240      	movs	r2, #64	@ 0x40
   217cc:	4629      	mov	r1, r5
   217ce:	f005 fd66 	bl	2729e <__aeabi_memcpy>
   217d2:	e7e5      	b.n	217a0 <_ZN20complex_full_dynamic3app17h56bdb9e9f4381e45E+0x78>
   217d4:	00001028 	.word	0x00001028

000217d8 <_ZN20complex_full_dynamic3app17h57e5e0ac7a62ecaaE>:
   217d8:	b5f0      	push	{r4, r5, r6, r7, lr}
   217da:	af03      	add	r7, sp, #12
   217dc:	b09f      	sub	sp, #124	@ 0x7c
   217de:	9003      	str	r0, [sp, #12]
   217e0:	ac04      	add	r4, sp, #16
   217e2:	2002      	movs	r0, #2
   217e4:	9002      	str	r0, [sp, #8]
   217e6:	7220      	strb	r0, [r4, #8]
   217e8:	340c      	adds	r4, #12
   217ea:	222c      	movs	r2, #44	@ 0x2c
   217ec:	9201      	str	r2, [sp, #4]
   217ee:	4620      	mov	r0, r4
   217f0:	f005 fd55 	bl	2729e <__aeabi_memcpy>
   217f4:	ae12      	add	r6, sp, #72	@ 0x48
   217f6:	4635      	mov	r5, r6
   217f8:	350c      	adds	r5, #12
   217fa:	2127      	movs	r1, #39	@ 0x27
   217fc:	4628      	mov	r0, r5
   217fe:	f005 fba1 	bl	26f44 <__aeabi_memclr4>
   21802:	9802      	ldr	r0, [sp, #8]
   21804:	7230      	strb	r0, [r6, #8]
   21806:	481f      	ldr	r0, [pc, #124]	@ (21884 <_ZN20complex_full_dynamic3app17h57e5e0ac7a62ecaaE+0xac>)
   21808:	2604      	movs	r6, #4
   2180a:	4631      	mov	r1, r6
   2180c:	4622      	mov	r2, r4
   2180e:	9b01      	ldr	r3, [sp, #4]
   21810:	df04      	svc	4
   21812:	2802      	cmp	r0, #2
   21814:	d018      	beq.n	21848 <_ZN20complex_full_dynamic3app17h57e5e0ac7a62ecaaE+0x70>
   21816:	a804      	add	r0, sp, #16
   21818:	7206      	strb	r6, [r0, #8]
   2181a:	9605      	str	r6, [sp, #20]
   2181c:	4e19      	ldr	r6, [pc, #100]	@ (21884 <_ZN20complex_full_dynamic3app17h57e5e0ac7a62ecaaE+0xac>)
   2181e:	9604      	str	r6, [sp, #16]
   21820:	2403      	movs	r4, #3
   21822:	2327      	movs	r3, #39	@ 0x27
   21824:	4630      	mov	r0, r6
   21826:	4621      	mov	r1, r4
   21828:	462a      	mov	r2, r5
   2182a:	df03      	svc	3
   2182c:	2802      	cmp	r0, #2
   2182e:	d00b      	beq.n	21848 <_ZN20complex_full_dynamic3app17h57e5e0ac7a62ecaaE+0x70>
   21830:	a812      	add	r0, sp, #72	@ 0x48
   21832:	7204      	strb	r4, [r0, #8]
   21834:	9413      	str	r4, [sp, #76]	@ 0x4c
   21836:	9612      	str	r6, [sp, #72]	@ 0x48
   21838:	4812      	ldr	r0, [pc, #72]	@ (21884 <_ZN20complex_full_dynamic3app17h57e5e0ac7a62ecaaE+0xac>)
   2183a:	2104      	movs	r1, #4
   2183c:	2600      	movs	r6, #0
   2183e:	4622      	mov	r2, r4
   21840:	4633      	mov	r3, r6
   21842:	df02      	svc	2
   21844:	287f      	cmp	r0, #127	@ 0x7f
   21846:	d80b      	bhi.n	21860 <_ZN20complex_full_dynamic3app17h57e5e0ac7a62ecaaE+0x88>
   21848:	9c03      	ldr	r4, [sp, #12]
   2184a:	6061      	str	r1, [r4, #4]
   2184c:	2601      	movs	r6, #1
   2184e:	7026      	strb	r6, [r4, #0]
   21850:	a812      	add	r0, sp, #72	@ 0x48
   21852:	f005 fb63 	bl	26f1c <_ZN9allow_pin12full_dynamic17unshare_if_shared17h02646414dc25e2d7E>
   21856:	a804      	add	r0, sp, #16
   21858:	f005 fb60 	bl	26f1c <_ZN9allow_pin12full_dynamic17unshare_if_shared17h02646414dc25e2d7E>
   2185c:	b01f      	add	sp, #124	@ 0x7c
   2185e:	bdf0      	pop	{r4, r5, r6, r7, pc}
   21860:	a804      	add	r0, sp, #16
   21862:	f005 fb5b 	bl	26f1c <_ZN9allow_pin12full_dynamic17unshare_if_shared17h02646414dc25e2d7E>
   21866:	ac12      	add	r4, sp, #72	@ 0x48
   21868:	4620      	mov	r0, r4
   2186a:	f005 fb57 	bl	26f1c <_ZN9allow_pin12full_dynamic17unshare_if_shared17h02646414dc25e2d7E>
   2186e:	4620      	mov	r0, r4
   21870:	f005 fb54 	bl	26f1c <_ZN9allow_pin12full_dynamic17unshare_if_shared17h02646414dc25e2d7E>
   21874:	9c03      	ldr	r4, [sp, #12]
   21876:	1c60      	adds	r0, r4, #1
   21878:	2227      	movs	r2, #39	@ 0x27
   2187a:	4629      	mov	r1, r5
   2187c:	f005 fd0f 	bl	2729e <__aeabi_memcpy>
   21880:	e7e5      	b.n	2184e <_ZN20complex_full_dynamic3app17h57e5e0ac7a62ecaaE+0x76>
   21882:	46c0      	nop			@ (mov r8, r8)
   21884:	000011b5 	.word	0x000011b5

00021888 <_ZN20complex_full_dynamic3app17h5c45528ebd954156E>:
   21888:	b5f0      	push	{r4, r5, r6, r7, lr}
   2188a:	af03      	add	r7, sp, #12
   2188c:	b0a5      	sub	sp, #148	@ 0x94
   2188e:	9003      	str	r0, [sp, #12]
   21890:	ae04      	add	r6, sp, #16
   21892:	2002      	movs	r0, #2
   21894:	9001      	str	r0, [sp, #4]
   21896:	7230      	strb	r0, [r6, #8]
   21898:	360c      	adds	r6, #12
   2189a:	2238      	movs	r2, #56	@ 0x38
   2189c:	9202      	str	r2, [sp, #8]
   2189e:	4630      	mov	r0, r6
   218a0:	f005 fcfd 	bl	2729e <__aeabi_memcpy>
   218a4:	ad15      	add	r5, sp, #84	@ 0x54
   218a6:	462c      	mov	r4, r5
   218a8:	340c      	adds	r4, #12
   218aa:	2134      	movs	r1, #52	@ 0x34
   218ac:	4620      	mov	r0, r4
   218ae:	f005 fb49 	bl	26f44 <__aeabi_memclr4>
   218b2:	9801      	ldr	r0, [sp, #4]
   218b4:	7228      	strb	r0, [r5, #8]
   218b6:	2097      	movs	r0, #151	@ 0x97
   218b8:	0040      	lsls	r0, r0, #1
   218ba:	2508      	movs	r5, #8
   218bc:	9001      	str	r0, [sp, #4]
   218be:	4629      	mov	r1, r5
   218c0:	4632      	mov	r2, r6
   218c2:	9b02      	ldr	r3, [sp, #8]
   218c4:	df04      	svc	4
   218c6:	2802      	cmp	r0, #2
   218c8:	d018      	beq.n	218fc <_ZN20complex_full_dynamic3app17h5c45528ebd954156E+0x74>
   218ca:	a804      	add	r0, sp, #16
   218cc:	2104      	movs	r1, #4
   218ce:	7201      	strb	r1, [r0, #8]
   218d0:	9505      	str	r5, [sp, #20]
   218d2:	9801      	ldr	r0, [sp, #4]
   218d4:	9004      	str	r0, [sp, #16]
   218d6:	2503      	movs	r5, #3
   218d8:	2334      	movs	r3, #52	@ 0x34
   218da:	4629      	mov	r1, r5
   218dc:	4622      	mov	r2, r4
   218de:	df03      	svc	3
   218e0:	2802      	cmp	r0, #2
   218e2:	d00b      	beq.n	218fc <_ZN20complex_full_dynamic3app17h5c45528ebd954156E+0x74>
   218e4:	a815      	add	r0, sp, #84	@ 0x54
   218e6:	7205      	strb	r5, [r0, #8]
   218e8:	9516      	str	r5, [sp, #88]	@ 0x58
   218ea:	9801      	ldr	r0, [sp, #4]
   218ec:	9015      	str	r0, [sp, #84]	@ 0x54
   218ee:	2108      	movs	r1, #8
   218f0:	2600      	movs	r6, #0
   218f2:	462a      	mov	r2, r5
   218f4:	4633      	mov	r3, r6
   218f6:	df02      	svc	2
   218f8:	287f      	cmp	r0, #127	@ 0x7f
   218fa:	d80b      	bhi.n	21914 <_ZN20complex_full_dynamic3app17h5c45528ebd954156E+0x8c>
   218fc:	9c03      	ldr	r4, [sp, #12]
   218fe:	6061      	str	r1, [r4, #4]
   21900:	2601      	movs	r6, #1
   21902:	7026      	strb	r6, [r4, #0]
   21904:	a815      	add	r0, sp, #84	@ 0x54
   21906:	f005 fb09 	bl	26f1c <_ZN9allow_pin12full_dynamic17unshare_if_shared17h02646414dc25e2d7E>
   2190a:	a804      	add	r0, sp, #16
   2190c:	f005 fb06 	bl	26f1c <_ZN9allow_pin12full_dynamic17unshare_if_shared17h02646414dc25e2d7E>
   21910:	b025      	add	sp, #148	@ 0x94
   21912:	bdf0      	pop	{r4, r5, r6, r7, pc}
   21914:	a804      	add	r0, sp, #16
   21916:	f005 fb01 	bl	26f1c <_ZN9allow_pin12full_dynamic17unshare_if_shared17h02646414dc25e2d7E>
   2191a:	4625      	mov	r5, r4
   2191c:	ac15      	add	r4, sp, #84	@ 0x54
   2191e:	4620      	mov	r0, r4
   21920:	f005 fafc 	bl	26f1c <_ZN9allow_pin12full_dynamic17unshare_if_shared17h02646414dc25e2d7E>
   21924:	4620      	mov	r0, r4
   21926:	f005 faf9 	bl	26f1c <_ZN9allow_pin12full_dynamic17unshare_if_shared17h02646414dc25e2d7E>
   2192a:	9c03      	ldr	r4, [sp, #12]
   2192c:	1c60      	adds	r0, r4, #1
   2192e:	2234      	movs	r2, #52	@ 0x34
   21930:	4629      	mov	r1, r5
   21932:	f005 fcb4 	bl	2729e <__aeabi_memcpy>
   21936:	e7e4      	b.n	21902 <_ZN20complex_full_dynamic3app17h5c45528ebd954156E+0x7a>

00021938 <_ZN20complex_full_dynamic3app17h5d3131df78d36048E>:
   21938:	b5f0      	push	{r4, r5, r6, r7, lr}
   2193a:	af03      	add	r7, sp, #12
   2193c:	b0a1      	sub	sp, #132	@ 0x84
   2193e:	9002      	str	r0, [sp, #8]
   21940:	ae03      	add	r6, sp, #12
   21942:	2002      	movs	r0, #2
   21944:	9000      	str	r0, [sp, #0]
   21946:	7230      	strb	r0, [r6, #8]
   21948:	360c      	adds	r6, #12
   2194a:	221b      	movs	r2, #27
   2194c:	9201      	str	r2, [sp, #4]
   2194e:	4630      	mov	r0, r6
   21950:	f005 fca5 	bl	2729e <__aeabi_memcpy>
   21954:	ad0d      	add	r5, sp, #52	@ 0x34
   21956:	462c      	mov	r4, r5
   21958:	340c      	adds	r4, #12
   2195a:	2141      	movs	r1, #65	@ 0x41
   2195c:	4620      	mov	r0, r4
   2195e:	f005 faf1 	bl	26f44 <__aeabi_memclr4>
   21962:	9800      	ldr	r0, [sp, #0]
   21964:	7228      	strb	r0, [r5, #8]
   21966:	2005      	movs	r0, #5
   21968:	0180      	lsls	r0, r0, #6
   2196a:	2508      	movs	r5, #8
   2196c:	9000      	str	r0, [sp, #0]
   2196e:	4629      	mov	r1, r5
   21970:	4632      	mov	r2, r6
   21972:	9b01      	ldr	r3, [sp, #4]
   21974:	df04      	svc	4
   21976:	2802      	cmp	r0, #2
   21978:	d019      	beq.n	219ae <_ZN20complex_full_dynamic3app17h5d3131df78d36048E+0x76>
   2197a:	a803      	add	r0, sp, #12
   2197c:	2104      	movs	r1, #4
   2197e:	7201      	strb	r1, [r0, #8]
   21980:	9504      	str	r5, [sp, #16]
   21982:	9800      	ldr	r0, [sp, #0]
   21984:	9003      	str	r0, [sp, #12]
   21986:	2509      	movs	r5, #9
   21988:	2341      	movs	r3, #65	@ 0x41
   2198a:	4629      	mov	r1, r5
   2198c:	4622      	mov	r2, r4
   2198e:	df03      	svc	3
   21990:	2802      	cmp	r0, #2
   21992:	d00c      	beq.n	219ae <_ZN20complex_full_dynamic3app17h5d3131df78d36048E+0x76>
   21994:	a80d      	add	r0, sp, #52	@ 0x34
   21996:	2103      	movs	r1, #3
   21998:	7201      	strb	r1, [r0, #8]
   2199a:	9800      	ldr	r0, [sp, #0]
   2199c:	900d      	str	r0, [sp, #52]	@ 0x34
   2199e:	950e      	str	r5, [sp, #56]	@ 0x38
   219a0:	2108      	movs	r1, #8
   219a2:	2600      	movs	r6, #0
   219a4:	462a      	mov	r2, r5
   219a6:	4633      	mov	r3, r6
   219a8:	df02      	svc	2
   219aa:	287f      	cmp	r0, #127	@ 0x7f
   219ac:	d80b      	bhi.n	219c6 <_ZN20complex_full_dynamic3app17h5d3131df78d36048E+0x8e>
   219ae:	9c02      	ldr	r4, [sp, #8]
   219b0:	6061      	str	r1, [r4, #4]
   219b2:	2601      	movs	r6, #1
   219b4:	7026      	strb	r6, [r4, #0]
   219b6:	a80d      	add	r0, sp, #52	@ 0x34
   219b8:	f005 fab0 	bl	26f1c <_ZN9allow_pin12full_dynamic17unshare_if_shared17h02646414dc25e2d7E>
   219bc:	a803      	add	r0, sp, #12
   219be:	f005 faad 	bl	26f1c <_ZN9allow_pin12full_dynamic17unshare_if_shared17h02646414dc25e2d7E>
   219c2:	b021      	add	sp, #132	@ 0x84
   219c4:	bdf0      	pop	{r4, r5, r6, r7, pc}
   219c6:	a803      	add	r0, sp, #12
   219c8:	f005 faa8 	bl	26f1c <_ZN9allow_pin12full_dynamic17unshare_if_shared17h02646414dc25e2d7E>
   219cc:	4625      	mov	r5, r4
   219ce:	ac0d      	add	r4, sp, #52	@ 0x34
   219d0:	4620      	mov	r0, r4
   219d2:	f005 faa3 	bl	26f1c <_ZN9allow_pin12full_dynamic17unshare_if_shared17h02646414dc25e2d7E>
   219d6:	4620      	mov	r0, r4
   219d8:	f005 faa0 	bl	26f1c <_ZN9allow_pin12full_dynamic17unshare_if_shared17h02646414dc25e2d7E>
   219dc:	9c02      	ldr	r4, [sp, #8]
   219de:	1c60      	adds	r0, r4, #1
   219e0:	2241      	movs	r2, #65	@ 0x41
   219e2:	4629      	mov	r1, r5
   219e4:	f005 fc5b 	bl	2729e <__aeabi_memcpy>
   219e8:	e7e4      	b.n	219b4 <_ZN20complex_full_dynamic3app17h5d3131df78d36048E+0x7c>
   219ea:	d4d4      	bmi.n	21996 <_ZN20complex_full_dynamic3app17h5d3131df78d36048E+0x5e>

000219ec <_ZN20complex_full_dynamic3app17h61a43565b7e61314E>:
   219ec:	b5f0      	push	{r4, r5, r6, r7, lr}
   219ee:	af03      	add	r7, sp, #12
   219f0:	b0a7      	sub	sp, #156	@ 0x9c
   219f2:	9002      	str	r0, [sp, #8]
   219f4:	ae03      	add	r6, sp, #12
   219f6:	2002      	movs	r0, #2
   219f8:	9001      	str	r0, [sp, #4]
   219fa:	7230      	strb	r0, [r6, #8]
   219fc:	360c      	adds	r6, #12
   219fe:	2222      	movs	r2, #34	@ 0x22
   21a00:	9200      	str	r2, [sp, #0]
   21a02:	4630      	mov	r0, r6
   21a04:	f005 fc4b 	bl	2729e <__aeabi_memcpy>
   21a08:	ad0f      	add	r5, sp, #60	@ 0x3c
   21a0a:	462c      	mov	r4, r5
   21a0c:	340c      	adds	r4, #12
   21a0e:	2151      	movs	r1, #81	@ 0x51
   21a10:	4620      	mov	r0, r4
   21a12:	f005 fa97 	bl	26f44 <__aeabi_memclr4>
   21a16:	9801      	ldr	r0, [sp, #4]
   21a18:	7228      	strb	r0, [r5, #8]
   21a1a:	4820      	ldr	r0, [pc, #128]	@ (21a9c <_ZN20complex_full_dynamic3app17h61a43565b7e61314E+0xb0>)
   21a1c:	2509      	movs	r5, #9
   21a1e:	4629      	mov	r1, r5
   21a20:	4632      	mov	r2, r6
   21a22:	9b00      	ldr	r3, [sp, #0]
   21a24:	df04      	svc	4
   21a26:	2802      	cmp	r0, #2
   21a28:	d019      	beq.n	21a5e <_ZN20complex_full_dynamic3app17h61a43565b7e61314E+0x72>
   21a2a:	a803      	add	r0, sp, #12
   21a2c:	2104      	movs	r1, #4
   21a2e:	7201      	strb	r1, [r0, #8]
   21a30:	4e1a      	ldr	r6, [pc, #104]	@ (21a9c <_ZN20complex_full_dynamic3app17h61a43565b7e61314E+0xb0>)
   21a32:	9603      	str	r6, [sp, #12]
   21a34:	9504      	str	r5, [sp, #16]
   21a36:	2351      	movs	r3, #81	@ 0x51
   21a38:	4630      	mov	r0, r6
   21a3a:	4629      	mov	r1, r5
   21a3c:	4622      	mov	r2, r4
   21a3e:	df03      	svc	3
   21a40:	2802      	cmp	r0, #2
   21a42:	d00c      	beq.n	21a5e <_ZN20complex_full_dynamic3app17h61a43565b7e61314E+0x72>
   21a44:	a80f      	add	r0, sp, #60	@ 0x3c
   21a46:	2103      	movs	r1, #3
   21a48:	7201      	strb	r1, [r0, #8]
   21a4a:	960f      	str	r6, [sp, #60]	@ 0x3c
   21a4c:	9510      	str	r5, [sp, #64]	@ 0x40
   21a4e:	4813      	ldr	r0, [pc, #76]	@ (21a9c <_ZN20complex_full_dynamic3app17h61a43565b7e61314E+0xb0>)
   21a50:	2600      	movs	r6, #0
   21a52:	4629      	mov	r1, r5
   21a54:	462a      	mov	r2, r5
   21a56:	4633      	mov	r3, r6
   21a58:	df02      	svc	2
   21a5a:	287f      	cmp	r0, #127	@ 0x7f
   21a5c:	d80b      	bhi.n	21a76 <_ZN20complex_full_dynamic3app17h61a43565b7e61314E+0x8a>
   21a5e:	9c02      	ldr	r4, [sp, #8]
   21a60:	6061      	str	r1, [r4, #4]
   21a62:	2601      	movs	r6, #1
   21a64:	7026      	strb	r6, [r4, #0]
   21a66:	a80f      	add	r0, sp, #60	@ 0x3c
   21a68:	f005 fa58 	bl	26f1c <_ZN9allow_pin12full_dynamic17unshare_if_shared17h02646414dc25e2d7E>
   21a6c:	a803      	add	r0, sp, #12
   21a6e:	f005 fa55 	bl	26f1c <_ZN9allow_pin12full_dynamic17unshare_if_shared17h02646414dc25e2d7E>
   21a72:	b027      	add	sp, #156	@ 0x9c
   21a74:	bdf0      	pop	{r4, r5, r6, r7, pc}
   21a76:	a803      	add	r0, sp, #12
   21a78:	f005 fa50 	bl	26f1c <_ZN9allow_pin12full_dynamic17unshare_if_shared17h02646414dc25e2d7E>
   21a7c:	4625      	mov	r5, r4
   21a7e:	ac0f      	add	r4, sp, #60	@ 0x3c
   21a80:	4620      	mov	r0, r4
   21a82:	f005 fa4b 	bl	26f1c <_ZN9allow_pin12full_dynamic17unshare_if_shared17h02646414dc25e2d7E>
   21a86:	4620      	mov	r0, r4
   21a88:	f005 fa48 	bl	26f1c <_ZN9allow_pin12full_dynamic17unshare_if_shared17h02646414dc25e2d7E>
   21a8c:	9c02      	ldr	r4, [sp, #8]
   21a8e:	1c60      	adds	r0, r4, #1
   21a90:	2251      	movs	r2, #81	@ 0x51
   21a92:	4629      	mov	r1, r5
   21a94:	f005 fc03 	bl	2729e <__aeabi_memcpy>
   21a98:	e7e4      	b.n	21a64 <_ZN20complex_full_dynamic3app17h61a43565b7e61314E+0x78>
   21a9a:	46c0      	nop			@ (mov r8, r8)
   21a9c:	0000055e 	.word	0x0000055e

00021aa0 <_ZN20complex_full_dynamic3app17h629649340e553f7dE>:
   21aa0:	b5f0      	push	{r4, r5, r6, r7, lr}
   21aa2:	af03      	add	r7, sp, #12
   21aa4:	b0a3      	sub	sp, #140	@ 0x8c
   21aa6:	9002      	str	r0, [sp, #8]
   21aa8:	ac03      	add	r4, sp, #12
   21aaa:	2002      	movs	r0, #2
   21aac:	9001      	str	r0, [sp, #4]
   21aae:	7220      	strb	r0, [r4, #8]
   21ab0:	340c      	adds	r4, #12
   21ab2:	223c      	movs	r2, #60	@ 0x3c
   21ab4:	9200      	str	r2, [sp, #0]
   21ab6:	4620      	mov	r0, r4
   21ab8:	f005 fbf1 	bl	2729e <__aeabi_memcpy>
   21abc:	ae15      	add	r6, sp, #84	@ 0x54
   21abe:	4635      	mov	r5, r6
   21ac0:	350c      	adds	r5, #12
   21ac2:	212c      	movs	r1, #44	@ 0x2c
   21ac4:	4628      	mov	r0, r5
   21ac6:	f005 fa3d 	bl	26f44 <__aeabi_memclr4>
   21aca:	9801      	ldr	r0, [sp, #4]
   21acc:	7230      	strb	r0, [r6, #8]
   21ace:	4820      	ldr	r0, [pc, #128]	@ (21b50 <_ZN20complex_full_dynamic3app17h629649340e553f7dE+0xb0>)
   21ad0:	2605      	movs	r6, #5
   21ad2:	4631      	mov	r1, r6
   21ad4:	4622      	mov	r2, r4
   21ad6:	9b00      	ldr	r3, [sp, #0]
   21ad8:	df04      	svc	4
   21ada:	2802      	cmp	r0, #2
   21adc:	d01a      	beq.n	21b14 <_ZN20complex_full_dynamic3app17h629649340e553f7dE+0x74>
   21ade:	a803      	add	r0, sp, #12
   21ae0:	2104      	movs	r1, #4
   21ae2:	7201      	strb	r1, [r0, #8]
   21ae4:	9604      	str	r6, [sp, #16]
   21ae6:	4e1a      	ldr	r6, [pc, #104]	@ (21b50 <_ZN20complex_full_dynamic3app17h629649340e553f7dE+0xb0>)
   21ae8:	9603      	str	r6, [sp, #12]
   21aea:	2407      	movs	r4, #7
   21aec:	232c      	movs	r3, #44	@ 0x2c
   21aee:	4630      	mov	r0, r6
   21af0:	4621      	mov	r1, r4
   21af2:	462a      	mov	r2, r5
   21af4:	df03      	svc	3
   21af6:	2802      	cmp	r0, #2
   21af8:	d00c      	beq.n	21b14 <_ZN20complex_full_dynamic3app17h629649340e553f7dE+0x74>
   21afa:	a815      	add	r0, sp, #84	@ 0x54
   21afc:	2103      	movs	r1, #3
   21afe:	7201      	strb	r1, [r0, #8]
   21b00:	9615      	str	r6, [sp, #84]	@ 0x54
   21b02:	9416      	str	r4, [sp, #88]	@ 0x58
   21b04:	4812      	ldr	r0, [pc, #72]	@ (21b50 <_ZN20complex_full_dynamic3app17h629649340e553f7dE+0xb0>)
   21b06:	2105      	movs	r1, #5
   21b08:	2600      	movs	r6, #0
   21b0a:	4622      	mov	r2, r4
   21b0c:	4633      	mov	r3, r6
   21b0e:	df02      	svc	2
   21b10:	287f      	cmp	r0, #127	@ 0x7f
   21b12:	d80b      	bhi.n	21b2c <_ZN20complex_full_dynamic3app17h629649340e553f7dE+0x8c>
   21b14:	9c02      	ldr	r4, [sp, #8]
   21b16:	6061      	str	r1, [r4, #4]
   21b18:	2601      	movs	r6, #1
   21b1a:	7026      	strb	r6, [r4, #0]
   21b1c:	a815      	add	r0, sp, #84	@ 0x54
   21b1e:	f005 f9fd 	bl	26f1c <_ZN9allow_pin12full_dynamic17unshare_if_shared17h02646414dc25e2d7E>
   21b22:	a803      	add	r0, sp, #12
   21b24:	f005 f9fa 	bl	26f1c <_ZN9allow_pin12full_dynamic17unshare_if_shared17h02646414dc25e2d7E>
   21b28:	b023      	add	sp, #140	@ 0x8c
   21b2a:	bdf0      	pop	{r4, r5, r6, r7, pc}
   21b2c:	a803      	add	r0, sp, #12
   21b2e:	f005 f9f5 	bl	26f1c <_ZN9allow_pin12full_dynamic17unshare_if_shared17h02646414dc25e2d7E>
   21b32:	ac15      	add	r4, sp, #84	@ 0x54
   21b34:	4620      	mov	r0, r4
   21b36:	f005 f9f1 	bl	26f1c <_ZN9allow_pin12full_dynamic17unshare_if_shared17h02646414dc25e2d7E>
   21b3a:	4620      	mov	r0, r4
   21b3c:	f005 f9ee 	bl	26f1c <_ZN9allow_pin12full_dynamic17unshare_if_shared17h02646414dc25e2d7E>
   21b40:	9c02      	ldr	r4, [sp, #8]
   21b42:	1c60      	adds	r0, r4, #1
   21b44:	222c      	movs	r2, #44	@ 0x2c
   21b46:	4629      	mov	r1, r5
   21b48:	f005 fba9 	bl	2729e <__aeabi_memcpy>
   21b4c:	e7e5      	b.n	21b1a <_ZN20complex_full_dynamic3app17h629649340e553f7dE+0x7a>
   21b4e:	46c0      	nop			@ (mov r8, r8)
   21b50:	00001eac 	.word	0x00001eac

00021b54 <_ZN20complex_full_dynamic3app17h62ff7959807de2daE>:
   21b54:	b5f0      	push	{r4, r5, r6, r7, lr}
   21b56:	af03      	add	r7, sp, #12
   21b58:	b09f      	sub	sp, #124	@ 0x7c
   21b5a:	9002      	str	r0, [sp, #8]
   21b5c:	ac03      	add	r4, sp, #12
   21b5e:	2002      	movs	r0, #2
   21b60:	9001      	str	r0, [sp, #4]
   21b62:	7220      	strb	r0, [r4, #8]
   21b64:	340c      	adds	r4, #12
   21b66:	220f      	movs	r2, #15
   21b68:	9200      	str	r2, [sp, #0]
   21b6a:	4620      	mov	r0, r4
   21b6c:	f005 fb97 	bl	2729e <__aeabi_memcpy>
   21b70:	ae0a      	add	r6, sp, #40	@ 0x28
   21b72:	4635      	mov	r5, r6
   21b74:	350c      	adds	r5, #12
   21b76:	2146      	movs	r1, #70	@ 0x46
   21b78:	4628      	mov	r0, r5
   21b7a:	f005 f9e3 	bl	26f44 <__aeabi_memclr4>
   21b7e:	9801      	ldr	r0, [sp, #4]
   21b80:	7230      	strb	r0, [r6, #8]
   21b82:	4820      	ldr	r0, [pc, #128]	@ (21c04 <_ZN20complex_full_dynamic3app17h62ff7959807de2daE+0xb0>)
   21b84:	2609      	movs	r6, #9
   21b86:	4631      	mov	r1, r6
   21b88:	4622      	mov	r2, r4
   21b8a:	9b00      	ldr	r3, [sp, #0]
   21b8c:	df04      	svc	4
   21b8e:	2802      	cmp	r0, #2
   21b90:	d01a      	beq.n	21bc8 <_ZN20complex_full_dynamic3app17h62ff7959807de2daE+0x74>
   21b92:	a803      	add	r0, sp, #12
   21b94:	2104      	movs	r1, #4
   21b96:	7201      	strb	r1, [r0, #8]
   21b98:	9604      	str	r6, [sp, #16]
   21b9a:	4e1a      	ldr	r6, [pc, #104]	@ (21c04 <_ZN20complex_full_dynamic3app17h62ff7959807de2daE+0xb0>)
   21b9c:	9603      	str	r6, [sp, #12]
   21b9e:	2402      	movs	r4, #2
   21ba0:	2346      	movs	r3, #70	@ 0x46
   21ba2:	4630      	mov	r0, r6
   21ba4:	4621      	mov	r1, r4
   21ba6:	462a      	mov	r2, r5
   21ba8:	df03      	svc	3
   21baa:	2802      	cmp	r0, #2
   21bac:	d00c      	beq.n	21bc8 <_ZN20complex_full_dynamic3app17h62ff7959807de2daE+0x74>
   21bae:	a80a      	add	r0, sp, #40	@ 0x28
   21bb0:	2103      	movs	r1, #3
   21bb2:	7201      	strb	r1, [r0, #8]
   21bb4:	960a      	str	r6, [sp, #40]	@ 0x28
   21bb6:	940b      	str	r4, [sp, #44]	@ 0x2c
   21bb8:	4812      	ldr	r0, [pc, #72]	@ (21c04 <_ZN20complex_full_dynamic3app17h62ff7959807de2daE+0xb0>)
   21bba:	2109      	movs	r1, #9
   21bbc:	2600      	movs	r6, #0
   21bbe:	4622      	mov	r2, r4
   21bc0:	4633      	mov	r3, r6
   21bc2:	df02      	svc	2
   21bc4:	287f      	cmp	r0, #127	@ 0x7f
   21bc6:	d80b      	bhi.n	21be0 <_ZN20complex_full_dynamic3app17h62ff7959807de2daE+0x8c>
   21bc8:	9c02      	ldr	r4, [sp, #8]
   21bca:	6061      	str	r1, [r4, #4]
   21bcc:	2601      	movs	r6, #1
   21bce:	7026      	strb	r6, [r4, #0]
   21bd0:	a80a      	add	r0, sp, #40	@ 0x28
   21bd2:	f005 f9a3 	bl	26f1c <_ZN9allow_pin12full_dynamic17unshare_if_shared17h02646414dc25e2d7E>
   21bd6:	a803      	add	r0, sp, #12
   21bd8:	f005 f9a0 	bl	26f1c <_ZN9allow_pin12full_dynamic17unshare_if_shared17h02646414dc25e2d7E>
   21bdc:	b01f      	add	sp, #124	@ 0x7c
   21bde:	bdf0      	pop	{r4, r5, r6, r7, pc}
   21be0:	a803      	add	r0, sp, #12
   21be2:	f005 f99b 	bl	26f1c <_ZN9allow_pin12full_dynamic17unshare_if_shared17h02646414dc25e2d7E>
   21be6:	ac0a      	add	r4, sp, #40	@ 0x28
   21be8:	4620      	mov	r0, r4
   21bea:	f005 f997 	bl	26f1c <_ZN9allow_pin12full_dynamic17unshare_if_shared17h02646414dc25e2d7E>
   21bee:	4620      	mov	r0, r4
   21bf0:	f005 f994 	bl	26f1c <_ZN9allow_pin12full_dynamic17unshare_if_shared17h02646414dc25e2d7E>
   21bf4:	9c02      	ldr	r4, [sp, #8]
   21bf6:	1c60      	adds	r0, r4, #1
   21bf8:	2246      	movs	r2, #70	@ 0x46
   21bfa:	4629      	mov	r1, r5
   21bfc:	f005 fb4f 	bl	2729e <__aeabi_memcpy>
   21c00:	e7e5      	b.n	21bce <_ZN20complex_full_dynamic3app17h62ff7959807de2daE+0x7a>
   21c02:	46c0      	nop			@ (mov r8, r8)
   21c04:	00001d7e 	.word	0x00001d7e

00021c08 <_ZN20complex_full_dynamic3app17h633f963079421463E>:
   21c08:	b5f0      	push	{r4, r5, r6, r7, lr}
   21c0a:	af03      	add	r7, sp, #12
   21c0c:	b0ad      	sub	sp, #180	@ 0xb4
   21c0e:	9002      	str	r0, [sp, #8]
   21c10:	ac03      	add	r4, sp, #12
   21c12:	2002      	movs	r0, #2
   21c14:	9001      	str	r0, [sp, #4]
   21c16:	7220      	strb	r0, [r4, #8]
   21c18:	340c      	adds	r4, #12
   21c1a:	222f      	movs	r2, #47	@ 0x2f
   21c1c:	9200      	str	r2, [sp, #0]
   21c1e:	4620      	mov	r0, r4
   21c20:	f005 fb3d 	bl	2729e <__aeabi_memcpy>
   21c24:	ae12      	add	r6, sp, #72	@ 0x48
   21c26:	4635      	mov	r5, r6
   21c28:	350c      	adds	r5, #12
   21c2a:	215e      	movs	r1, #94	@ 0x5e
   21c2c:	4628      	mov	r0, r5
   21c2e:	f005 f989 	bl	26f44 <__aeabi_memclr4>
   21c32:	9801      	ldr	r0, [sp, #4]
   21c34:	7230      	strb	r0, [r6, #8]
   21c36:	4820      	ldr	r0, [pc, #128]	@ (21cb8 <_ZN20complex_full_dynamic3app17h633f963079421463E+0xb0>)
   21c38:	2605      	movs	r6, #5
   21c3a:	4631      	mov	r1, r6
   21c3c:	4622      	mov	r2, r4
   21c3e:	9b00      	ldr	r3, [sp, #0]
   21c40:	df04      	svc	4
   21c42:	2802      	cmp	r0, #2
   21c44:	d01a      	beq.n	21c7c <_ZN20complex_full_dynamic3app17h633f963079421463E+0x74>
   21c46:	a803      	add	r0, sp, #12
   21c48:	2104      	movs	r1, #4
   21c4a:	7201      	strb	r1, [r0, #8]
   21c4c:	9604      	str	r6, [sp, #16]
   21c4e:	4e1a      	ldr	r6, [pc, #104]	@ (21cb8 <_ZN20complex_full_dynamic3app17h633f963079421463E+0xb0>)
   21c50:	9603      	str	r6, [sp, #12]
   21c52:	2402      	movs	r4, #2
   21c54:	235e      	movs	r3, #94	@ 0x5e
   21c56:	4630      	mov	r0, r6
   21c58:	4621      	mov	r1, r4
   21c5a:	462a      	mov	r2, r5
   21c5c:	df03      	svc	3
   21c5e:	2802      	cmp	r0, #2
   21c60:	d00c      	beq.n	21c7c <_ZN20complex_full_dynamic3app17h633f963079421463E+0x74>
   21c62:	a812      	add	r0, sp, #72	@ 0x48
   21c64:	2103      	movs	r1, #3
   21c66:	7201      	strb	r1, [r0, #8]
   21c68:	9612      	str	r6, [sp, #72]	@ 0x48
   21c6a:	9413      	str	r4, [sp, #76]	@ 0x4c
   21c6c:	4812      	ldr	r0, [pc, #72]	@ (21cb8 <_ZN20complex_full_dynamic3app17h633f963079421463E+0xb0>)
   21c6e:	2105      	movs	r1, #5
   21c70:	2600      	movs	r6, #0
   21c72:	4622      	mov	r2, r4
   21c74:	4633      	mov	r3, r6
   21c76:	df02      	svc	2
   21c78:	287f      	cmp	r0, #127	@ 0x7f
   21c7a:	d80b      	bhi.n	21c94 <_ZN20complex_full_dynamic3app17h633f963079421463E+0x8c>
   21c7c:	9c02      	ldr	r4, [sp, #8]
   21c7e:	6061      	str	r1, [r4, #4]
   21c80:	2601      	movs	r6, #1
   21c82:	7026      	strb	r6, [r4, #0]
   21c84:	a812      	add	r0, sp, #72	@ 0x48
   21c86:	f005 f949 	bl	26f1c <_ZN9allow_pin12full_dynamic17unshare_if_shared17h02646414dc25e2d7E>
   21c8a:	a803      	add	r0, sp, #12
   21c8c:	f005 f946 	bl	26f1c <_ZN9allow_pin12full_dynamic17unshare_if_shared17h02646414dc25e2d7E>
   21c90:	b02d      	add	sp, #180	@ 0xb4
   21c92:	bdf0      	pop	{r4, r5, r6, r7, pc}
   21c94:	a803      	add	r0, sp, #12
   21c96:	f005 f941 	bl	26f1c <_ZN9allow_pin12full_dynamic17unshare_if_shared17h02646414dc25e2d7E>
   21c9a:	ac12      	add	r4, sp, #72	@ 0x48
   21c9c:	4620      	mov	r0, r4
   21c9e:	f005 f93d 	bl	26f1c <_ZN9allow_pin12full_dynamic17unshare_if_shared17h02646414dc25e2d7E>
   21ca2:	4620      	mov	r0, r4
   21ca4:	f005 f93a 	bl	26f1c <_ZN9allow_pin12full_dynamic17unshare_if_shared17h02646414dc25e2d7E>
   21ca8:	9c02      	ldr	r4, [sp, #8]
   21caa:	1c60      	adds	r0, r4, #1
   21cac:	225e      	movs	r2, #94	@ 0x5e
   21cae:	4629      	mov	r1, r5
   21cb0:	f005 faf5 	bl	2729e <__aeabi_memcpy>
   21cb4:	e7e5      	b.n	21c82 <_ZN20complex_full_dynamic3app17h633f963079421463E+0x7a>
   21cb6:	46c0      	nop			@ (mov r8, r8)
   21cb8:	0000022b 	.word	0x0000022b

00021cbc <_ZN20complex_full_dynamic3app17h6349a37700fe6077E>:
   21cbc:	b5f0      	push	{r4, r5, r6, r7, lr}
   21cbe:	af03      	add	r7, sp, #12
   21cc0:	b0a3      	sub	sp, #140	@ 0x8c
   21cc2:	9002      	str	r0, [sp, #8]
   21cc4:	ac03      	add	r4, sp, #12
   21cc6:	2002      	movs	r0, #2
   21cc8:	9001      	str	r0, [sp, #4]
   21cca:	7220      	strb	r0, [r4, #8]
   21ccc:	340c      	adds	r4, #12
   21cce:	2241      	movs	r2, #65	@ 0x41
   21cd0:	9200      	str	r2, [sp, #0]
   21cd2:	4620      	mov	r0, r4
   21cd4:	f005 fae3 	bl	2729e <__aeabi_memcpy>
   21cd8:	ae17      	add	r6, sp, #92	@ 0x5c
   21cda:	4635      	mov	r5, r6
   21cdc:	350c      	adds	r5, #12
   21cde:	2122      	movs	r1, #34	@ 0x22
   21ce0:	4628      	mov	r0, r5
   21ce2:	f005 f92f 	bl	26f44 <__aeabi_memclr4>
   21ce6:	9801      	ldr	r0, [sp, #4]
   21ce8:	7230      	strb	r0, [r6, #8]
   21cea:	481f      	ldr	r0, [pc, #124]	@ (21d68 <_ZN20complex_full_dynamic3app17h6349a37700fe6077E+0xac>)
   21cec:	2601      	movs	r6, #1
   21cee:	4631      	mov	r1, r6
   21cf0:	4622      	mov	r2, r4
   21cf2:	9b00      	ldr	r3, [sp, #0]
   21cf4:	df04      	svc	4
   21cf6:	2802      	cmp	r0, #2
   21cf8:	d018      	beq.n	21d2c <_ZN20complex_full_dynamic3app17h6349a37700fe6077E+0x70>
   21cfa:	a803      	add	r0, sp, #12
   21cfc:	2104      	movs	r1, #4
   21cfe:	7201      	strb	r1, [r0, #8]
   21d00:	9604      	str	r6, [sp, #16]
   21d02:	4819      	ldr	r0, [pc, #100]	@ (21d68 <_ZN20complex_full_dynamic3app17h6349a37700fe6077E+0xac>)
   21d04:	9003      	str	r0, [sp, #12]
   21d06:	2400      	movs	r4, #0
   21d08:	2322      	movs	r3, #34	@ 0x22
   21d0a:	4621      	mov	r1, r4
   21d0c:	462a      	mov	r2, r5
   21d0e:	df03      	svc	3
   21d10:	2802      	cmp	r0, #2
   21d12:	d00b      	beq.n	21d2c <_ZN20complex_full_dynamic3app17h6349a37700fe6077E+0x70>
   21d14:	a817      	add	r0, sp, #92	@ 0x5c
   21d16:	2103      	movs	r1, #3
   21d18:	7201      	strb	r1, [r0, #8]
   21d1a:	4813      	ldr	r0, [pc, #76]	@ (21d68 <_ZN20complex_full_dynamic3app17h6349a37700fe6077E+0xac>)
   21d1c:	9017      	str	r0, [sp, #92]	@ 0x5c
   21d1e:	9418      	str	r4, [sp, #96]	@ 0x60
   21d20:	2101      	movs	r1, #1
   21d22:	4622      	mov	r2, r4
   21d24:	4623      	mov	r3, r4
   21d26:	df02      	svc	2
   21d28:	287f      	cmp	r0, #127	@ 0x7f
   21d2a:	d80a      	bhi.n	21d42 <_ZN20complex_full_dynamic3app17h6349a37700fe6077E+0x86>
   21d2c:	9c02      	ldr	r4, [sp, #8]
   21d2e:	6061      	str	r1, [r4, #4]
   21d30:	7026      	strb	r6, [r4, #0]
   21d32:	a817      	add	r0, sp, #92	@ 0x5c
   21d34:	f005 f8f2 	bl	26f1c <_ZN9allow_pin12full_dynamic17unshare_if_shared17h02646414dc25e2d7E>
   21d38:	a803      	add	r0, sp, #12
   21d3a:	f005 f8ef 	bl	26f1c <_ZN9allow_pin12full_dynamic17unshare_if_shared17h02646414dc25e2d7E>
   21d3e:	b023      	add	sp, #140	@ 0x8c
   21d40:	bdf0      	pop	{r4, r5, r6, r7, pc}
   21d42:	a803      	add	r0, sp, #12
   21d44:	f005 f8ea 	bl	26f1c <_ZN9allow_pin12full_dynamic17unshare_if_shared17h02646414dc25e2d7E>
   21d48:	4626      	mov	r6, r4
   21d4a:	ac17      	add	r4, sp, #92	@ 0x5c
   21d4c:	4620      	mov	r0, r4
   21d4e:	f005 f8e5 	bl	26f1c <_ZN9allow_pin12full_dynamic17unshare_if_shared17h02646414dc25e2d7E>
   21d52:	4620      	mov	r0, r4
   21d54:	f005 f8e2 	bl	26f1c <_ZN9allow_pin12full_dynamic17unshare_if_shared17h02646414dc25e2d7E>
   21d58:	9c02      	ldr	r4, [sp, #8]
   21d5a:	1c60      	adds	r0, r4, #1
   21d5c:	2222      	movs	r2, #34	@ 0x22
   21d5e:	4629      	mov	r1, r5
   21d60:	f005 fa9d 	bl	2729e <__aeabi_memcpy>
   21d64:	e7e4      	b.n	21d30 <_ZN20complex_full_dynamic3app17h6349a37700fe6077E+0x74>
   21d66:	46c0      	nop			@ (mov r8, r8)
   21d68:	0000247c 	.word	0x0000247c

00021d6c <_ZN20complex_full_dynamic3app17h6b1d9fb758601122E>:
   21d6c:	b5f0      	push	{r4, r5, r6, r7, lr}
   21d6e:	af03      	add	r7, sp, #12
   21d70:	b0a3      	sub	sp, #140	@ 0x8c
   21d72:	9003      	str	r0, [sp, #12]
   21d74:	ac04      	add	r4, sp, #16
   21d76:	2602      	movs	r6, #2
   21d78:	7226      	strb	r6, [r4, #8]
   21d7a:	340c      	adds	r4, #12
   21d7c:	2234      	movs	r2, #52	@ 0x34
   21d7e:	9202      	str	r2, [sp, #8]
   21d80:	4620      	mov	r0, r4
   21d82:	f005 fa8c 	bl	2729e <__aeabi_memcpy>
   21d86:	ad14      	add	r5, sp, #80	@ 0x50
   21d88:	4628      	mov	r0, r5
   21d8a:	300c      	adds	r0, #12
   21d8c:	212e      	movs	r1, #46	@ 0x2e
   21d8e:	9001      	str	r0, [sp, #4]
   21d90:	f005 f8d8 	bl	26f44 <__aeabi_memclr4>
   21d94:	722e      	strb	r6, [r5, #8]
   21d96:	4635      	mov	r5, r6
   21d98:	4e1f      	ldr	r6, [pc, #124]	@ (21e18 <_ZN20complex_full_dynamic3app17h6b1d9fb758601122E+0xac>)
   21d9a:	4630      	mov	r0, r6
   21d9c:	4629      	mov	r1, r5
   21d9e:	4622      	mov	r2, r4
   21da0:	9b02      	ldr	r3, [sp, #8]
   21da2:	df04      	svc	4
   21da4:	2802      	cmp	r0, #2
   21da6:	d01a      	beq.n	21dde <_ZN20complex_full_dynamic3app17h6b1d9fb758601122E+0x72>
   21da8:	a804      	add	r0, sp, #16
   21daa:	2104      	movs	r1, #4
   21dac:	7201      	strb	r1, [r0, #8]
   21dae:	9505      	str	r5, [sp, #20]
   21db0:	9604      	str	r6, [sp, #16]
   21db2:	2408      	movs	r4, #8
   21db4:	232e      	movs	r3, #46	@ 0x2e
   21db6:	4630      	mov	r0, r6
   21db8:	4621      	mov	r1, r4
   21dba:	9d01      	ldr	r5, [sp, #4]
   21dbc:	462a      	mov	r2, r5
   21dbe:	df03      	svc	3
   21dc0:	2802      	cmp	r0, #2
   21dc2:	d00c      	beq.n	21dde <_ZN20complex_full_dynamic3app17h6b1d9fb758601122E+0x72>
   21dc4:	a814      	add	r0, sp, #80	@ 0x50
   21dc6:	2103      	movs	r1, #3
   21dc8:	7201      	strb	r1, [r0, #8]
   21dca:	9614      	str	r6, [sp, #80]	@ 0x50
   21dcc:	9415      	str	r4, [sp, #84]	@ 0x54
   21dce:	4812      	ldr	r0, [pc, #72]	@ (21e18 <_ZN20complex_full_dynamic3app17h6b1d9fb758601122E+0xac>)
   21dd0:	2102      	movs	r1, #2
   21dd2:	2600      	movs	r6, #0
   21dd4:	4622      	mov	r2, r4
   21dd6:	4633      	mov	r3, r6
   21dd8:	df02      	svc	2
   21dda:	287f      	cmp	r0, #127	@ 0x7f
   21ddc:	d80b      	bhi.n	21df6 <_ZN20complex_full_dynamic3app17h6b1d9fb758601122E+0x8a>
   21dde:	9c03      	ldr	r4, [sp, #12]
   21de0:	6061      	str	r1, [r4, #4]
   21de2:	2601      	movs	r6, #1
   21de4:	7026      	strb	r6, [r4, #0]
   21de6:	a814      	add	r0, sp, #80	@ 0x50
   21de8:	f005 f898 	bl	26f1c <_ZN9allow_pin12full_dynamic17unshare_if_shared17h02646414dc25e2d7E>
   21dec:	a804      	add	r0, sp, #16
   21dee:	f005 f895 	bl	26f1c <_ZN9allow_pin12full_dynamic17unshare_if_shared17h02646414dc25e2d7E>
   21df2:	b023      	add	sp, #140	@ 0x8c
   21df4:	bdf0      	pop	{r4, r5, r6, r7, pc}
   21df6:	a804      	add	r0, sp, #16
   21df8:	f005 f890 	bl	26f1c <_ZN9allow_pin12full_dynamic17unshare_if_shared17h02646414dc25e2d7E>
   21dfc:	ac14      	add	r4, sp, #80	@ 0x50
   21dfe:	4620      	mov	r0, r4
   21e00:	f005 f88c 	bl	26f1c <_ZN9allow_pin12full_dynamic17unshare_if_shared17h02646414dc25e2d7E>
   21e04:	4620      	mov	r0, r4
   21e06:	f005 f889 	bl	26f1c <_ZN9allow_pin12full_dynamic17unshare_if_shared17h02646414dc25e2d7E>
   21e0a:	9c03      	ldr	r4, [sp, #12]
   21e0c:	1c60      	adds	r0, r4, #1
   21e0e:	222e      	movs	r2, #46	@ 0x2e
   21e10:	4629      	mov	r1, r5
   21e12:	f005 fa44 	bl	2729e <__aeabi_memcpy>
   21e16:	e7e5      	b.n	21de4 <_ZN20complex_full_dynamic3app17h6b1d9fb758601122E+0x78>
   21e18:	00000209 	.word	0x00000209

00021e1c <_ZN20complex_full_dynamic3app17h6b3218325ee08034E>:
   21e1c:	b5f0      	push	{r4, r5, r6, r7, lr}
   21e1e:	af03      	add	r7, sp, #12
   21e20:	b0a5      	sub	sp, #148	@ 0x94
   21e22:	9003      	str	r0, [sp, #12]
   21e24:	ac04      	add	r4, sp, #16
   21e26:	2502      	movs	r5, #2
   21e28:	7225      	strb	r5, [r4, #8]
   21e2a:	340c      	adds	r4, #12
   21e2c:	2255      	movs	r2, #85	@ 0x55
   21e2e:	9202      	str	r2, [sp, #8]
   21e30:	4620      	mov	r0, r4
   21e32:	f005 fa34 	bl	2729e <__aeabi_memcpy>
   21e36:	ae1d      	add	r6, sp, #116	@ 0x74
   21e38:	2000      	movs	r0, #0
   21e3a:	7730      	strb	r0, [r6, #28]
   21e3c:	7235      	strb	r5, [r6, #8]
   21e3e:	9023      	str	r0, [sp, #140]	@ 0x8c
   21e40:	9022      	str	r0, [sp, #136]	@ 0x88
   21e42:	9021      	str	r0, [sp, #132]	@ 0x84
   21e44:	9020      	str	r0, [sp, #128]	@ 0x80
   21e46:	4820      	ldr	r0, [pc, #128]	@ (21ec8 <_ZN20complex_full_dynamic3app17h6b3218325ee08034E+0xac>)
   21e48:	9501      	str	r5, [sp, #4]
   21e4a:	4629      	mov	r1, r5
   21e4c:	4622      	mov	r2, r4
   21e4e:	9b02      	ldr	r3, [sp, #8]
   21e50:	df04      	svc	4
   21e52:	2802      	cmp	r0, #2
   21e54:	d01b      	beq.n	21e8e <_ZN20complex_full_dynamic3app17h6b3218325ee08034E+0x72>
   21e56:	360c      	adds	r6, #12
   21e58:	a804      	add	r0, sp, #16
   21e5a:	2104      	movs	r1, #4
   21e5c:	7201      	strb	r1, [r0, #8]
   21e5e:	4c1a      	ldr	r4, [pc, #104]	@ (21ec8 <_ZN20complex_full_dynamic3app17h6b3218325ee08034E+0xac>)
   21e60:	9404      	str	r4, [sp, #16]
   21e62:	9d01      	ldr	r5, [sp, #4]
   21e64:	9505      	str	r5, [sp, #20]
   21e66:	2311      	movs	r3, #17
   21e68:	4620      	mov	r0, r4
   21e6a:	4629      	mov	r1, r5
   21e6c:	4632      	mov	r2, r6
   21e6e:	df03      	svc	3
   21e70:	2802      	cmp	r0, #2
   21e72:	d00c      	beq.n	21e8e <_ZN20complex_full_dynamic3app17h6b3218325ee08034E+0x72>
   21e74:	a81d      	add	r0, sp, #116	@ 0x74
   21e76:	2103      	movs	r1, #3
   21e78:	7201      	strb	r1, [r0, #8]
   21e7a:	941d      	str	r4, [sp, #116]	@ 0x74
   21e7c:	951e      	str	r5, [sp, #120]	@ 0x78
   21e7e:	4812      	ldr	r0, [pc, #72]	@ (21ec8 <_ZN20complex_full_dynamic3app17h6b3218325ee08034E+0xac>)
   21e80:	2400      	movs	r4, #0
   21e82:	4629      	mov	r1, r5
   21e84:	462a      	mov	r2, r5
   21e86:	4623      	mov	r3, r4
   21e88:	df02      	svc	2
   21e8a:	287f      	cmp	r0, #127	@ 0x7f
   21e8c:	d80b      	bhi.n	21ea6 <_ZN20complex_full_dynamic3app17h6b3218325ee08034E+0x8a>
   21e8e:	9d03      	ldr	r5, [sp, #12]
   21e90:	6069      	str	r1, [r5, #4]
   21e92:	2401      	movs	r4, #1
   21e94:	702c      	strb	r4, [r5, #0]
   21e96:	a81d      	add	r0, sp, #116	@ 0x74
   21e98:	f005 f840 	bl	26f1c <_ZN9allow_pin12full_dynamic17unshare_if_shared17h02646414dc25e2d7E>
   21e9c:	a804      	add	r0, sp, #16
   21e9e:	f005 f83d 	bl	26f1c <_ZN9allow_pin12full_dynamic17unshare_if_shared17h02646414dc25e2d7E>
   21ea2:	b025      	add	sp, #148	@ 0x94
   21ea4:	bdf0      	pop	{r4, r5, r6, r7, pc}
   21ea6:	a804      	add	r0, sp, #16
   21ea8:	f005 f838 	bl	26f1c <_ZN9allow_pin12full_dynamic17unshare_if_shared17h02646414dc25e2d7E>
   21eac:	ad1d      	add	r5, sp, #116	@ 0x74
   21eae:	4628      	mov	r0, r5
   21eb0:	f005 f834 	bl	26f1c <_ZN9allow_pin12full_dynamic17unshare_if_shared17h02646414dc25e2d7E>
   21eb4:	4628      	mov	r0, r5
   21eb6:	f005 f831 	bl	26f1c <_ZN9allow_pin12full_dynamic17unshare_if_shared17h02646414dc25e2d7E>
   21eba:	9d03      	ldr	r5, [sp, #12]
   21ebc:	1c68      	adds	r0, r5, #1
   21ebe:	2211      	movs	r2, #17
   21ec0:	4631      	mov	r1, r6
   21ec2:	f005 f9ec 	bl	2729e <__aeabi_memcpy>
   21ec6:	e7e5      	b.n	21e94 <_ZN20complex_full_dynamic3app17h6b3218325ee08034E+0x78>
   21ec8:	00000c89 	.word	0x00000c89

00021ecc <_ZN20complex_full_dynamic3app17h706759b89938af3dE>:
   21ecc:	b5f0      	push	{r4, r5, r6, r7, lr}
   21ece:	af03      	add	r7, sp, #12
   21ed0:	b0ad      	sub	sp, #180	@ 0xb4
   21ed2:	9002      	str	r0, [sp, #8]
   21ed4:	ac03      	add	r4, sp, #12
   21ed6:	2002      	movs	r0, #2
   21ed8:	9001      	str	r0, [sp, #4]
   21eda:	7220      	strb	r0, [r4, #8]
   21edc:	340c      	adds	r4, #12
   21ede:	2253      	movs	r2, #83	@ 0x53
   21ee0:	9200      	str	r2, [sp, #0]
   21ee2:	4620      	mov	r0, r4
   21ee4:	f005 f9db 	bl	2729e <__aeabi_memcpy>
   21ee8:	ae1b      	add	r6, sp, #108	@ 0x6c
   21eea:	4635      	mov	r5, r6
   21eec:	350c      	adds	r5, #12
   21eee:	213a      	movs	r1, #58	@ 0x3a
   21ef0:	4628      	mov	r0, r5
   21ef2:	f005 f827 	bl	26f44 <__aeabi_memclr4>
   21ef6:	9801      	ldr	r0, [sp, #4]
   21ef8:	7230      	strb	r0, [r6, #8]
   21efa:	4820      	ldr	r0, [pc, #128]	@ (21f7c <_ZN20complex_full_dynamic3app17h706759b89938af3dE+0xb0>)
   21efc:	2606      	movs	r6, #6
   21efe:	4631      	mov	r1, r6
   21f00:	4622      	mov	r2, r4
   21f02:	9b00      	ldr	r3, [sp, #0]
   21f04:	df04      	svc	4
   21f06:	2802      	cmp	r0, #2
   21f08:	d01a      	beq.n	21f40 <_ZN20complex_full_dynamic3app17h706759b89938af3dE+0x74>
   21f0a:	a803      	add	r0, sp, #12
   21f0c:	2104      	movs	r1, #4
   21f0e:	7201      	strb	r1, [r0, #8]
   21f10:	9604      	str	r6, [sp, #16]
   21f12:	4e1a      	ldr	r6, [pc, #104]	@ (21f7c <_ZN20complex_full_dynamic3app17h706759b89938af3dE+0xb0>)
   21f14:	9603      	str	r6, [sp, #12]
   21f16:	2407      	movs	r4, #7
   21f18:	233a      	movs	r3, #58	@ 0x3a
   21f1a:	4630      	mov	r0, r6
   21f1c:	4621      	mov	r1, r4
   21f1e:	462a      	mov	r2, r5
   21f20:	df03      	svc	3
   21f22:	2802      	cmp	r0, #2
   21f24:	d00c      	beq.n	21f40 <_ZN20complex_full_dynamic3app17h706759b89938af3dE+0x74>
   21f26:	a81b      	add	r0, sp, #108	@ 0x6c
   21f28:	2103      	movs	r1, #3
   21f2a:	7201      	strb	r1, [r0, #8]
   21f2c:	961b      	str	r6, [sp, #108]	@ 0x6c
   21f2e:	941c      	str	r4, [sp, #112]	@ 0x70
   21f30:	4812      	ldr	r0, [pc, #72]	@ (21f7c <_ZN20complex_full_dynamic3app17h706759b89938af3dE+0xb0>)
   21f32:	2106      	movs	r1, #6
   21f34:	2600      	movs	r6, #0
   21f36:	4622      	mov	r2, r4
   21f38:	4633      	mov	r3, r6
   21f3a:	df02      	svc	2
   21f3c:	287f      	cmp	r0, #127	@ 0x7f
   21f3e:	d80b      	bhi.n	21f58 <_ZN20complex_full_dynamic3app17h706759b89938af3dE+0x8c>
   21f40:	9c02      	ldr	r4, [sp, #8]
   21f42:	6061      	str	r1, [r4, #4]
   21f44:	2601      	movs	r6, #1
   21f46:	7026      	strb	r6, [r4, #0]
   21f48:	a81b      	add	r0, sp, #108	@ 0x6c
   21f4a:	f004 ffe7 	bl	26f1c <_ZN9allow_pin12full_dynamic17unshare_if_shared17h02646414dc25e2d7E>
   21f4e:	a803      	add	r0, sp, #12
   21f50:	f004 ffe4 	bl	26f1c <_ZN9allow_pin12full_dynamic17unshare_if_shared17h02646414dc25e2d7E>
   21f54:	b02d      	add	sp, #180	@ 0xb4
   21f56:	bdf0      	pop	{r4, r5, r6, r7, pc}
   21f58:	a803      	add	r0, sp, #12
   21f5a:	f004 ffdf 	bl	26f1c <_ZN9allow_pin12full_dynamic17unshare_if_shared17h02646414dc25e2d7E>
   21f5e:	ac1b      	add	r4, sp, #108	@ 0x6c
   21f60:	4620      	mov	r0, r4
   21f62:	f004 ffdb 	bl	26f1c <_ZN9allow_pin12full_dynamic17unshare_if_shared17h02646414dc25e2d7E>
   21f66:	4620      	mov	r0, r4
   21f68:	f004 ffd8 	bl	26f1c <_ZN9allow_pin12full_dynamic17unshare_if_shared17h02646414dc25e2d7E>
   21f6c:	9c02      	ldr	r4, [sp, #8]
   21f6e:	1c60      	adds	r0, r4, #1
   21f70:	223a      	movs	r2, #58	@ 0x3a
   21f72:	4629      	mov	r1, r5
   21f74:	f005 f993 	bl	2729e <__aeabi_memcpy>
   21f78:	e7e5      	b.n	21f46 <_ZN20complex_full_dynamic3app17h706759b89938af3dE+0x7a>
   21f7a:	46c0      	nop			@ (mov r8, r8)
   21f7c:	00002645 	.word	0x00002645

00021f80 <_ZN20complex_full_dynamic3app17h70fa64aa23c3f8caE>:
   21f80:	b5f0      	push	{r4, r5, r6, r7, lr}
   21f82:	af03      	add	r7, sp, #12
   21f84:	b0ab      	sub	sp, #172	@ 0xac
   21f86:	9003      	str	r0, [sp, #12]
   21f88:	ac04      	add	r4, sp, #16
   21f8a:	2602      	movs	r6, #2
   21f8c:	7226      	strb	r6, [r4, #8]
   21f8e:	340c      	adds	r4, #12
   21f90:	222d      	movs	r2, #45	@ 0x2d
   21f92:	9202      	str	r2, [sp, #8]
   21f94:	4620      	mov	r0, r4
   21f96:	f005 f982 	bl	2729e <__aeabi_memcpy>
   21f9a:	ad13      	add	r5, sp, #76	@ 0x4c
   21f9c:	4628      	mov	r0, r5
   21f9e:	300c      	adds	r0, #12
   21fa0:	2153      	movs	r1, #83	@ 0x53
   21fa2:	9001      	str	r0, [sp, #4]
   21fa4:	f004 ffce 	bl	26f44 <__aeabi_memclr4>
   21fa8:	722e      	strb	r6, [r5, #8]
   21faa:	4635      	mov	r5, r6
   21fac:	4e1f      	ldr	r6, [pc, #124]	@ (2202c <_ZN20complex_full_dynamic3app17h70fa64aa23c3f8caE+0xac>)
   21fae:	4630      	mov	r0, r6
   21fb0:	4629      	mov	r1, r5
   21fb2:	4622      	mov	r2, r4
   21fb4:	9b02      	ldr	r3, [sp, #8]
   21fb6:	df04      	svc	4
   21fb8:	2802      	cmp	r0, #2
   21fba:	d01a      	beq.n	21ff2 <_ZN20complex_full_dynamic3app17h70fa64aa23c3f8caE+0x72>
   21fbc:	a804      	add	r0, sp, #16
   21fbe:	2104      	movs	r1, #4
   21fc0:	7201      	strb	r1, [r0, #8]
   21fc2:	9505      	str	r5, [sp, #20]
   21fc4:	9604      	str	r6, [sp, #16]
   21fc6:	2407      	movs	r4, #7
   21fc8:	2353      	movs	r3, #83	@ 0x53
   21fca:	4630      	mov	r0, r6
   21fcc:	4621      	mov	r1, r4
   21fce:	9d01      	ldr	r5, [sp, #4]
   21fd0:	462a      	mov	r2, r5
   21fd2:	df03      	svc	3
   21fd4:	2802      	cmp	r0, #2
   21fd6:	d00c      	beq.n	21ff2 <_ZN20complex_full_dynamic3app17h70fa64aa23c3f8caE+0x72>
   21fd8:	a813      	add	r0, sp, #76	@ 0x4c
   21fda:	2103      	movs	r1, #3
   21fdc:	7201      	strb	r1, [r0, #8]
   21fde:	9613      	str	r6, [sp, #76]	@ 0x4c
   21fe0:	9414      	str	r4, [sp, #80]	@ 0x50
   21fe2:	4812      	ldr	r0, [pc, #72]	@ (2202c <_ZN20complex_full_dynamic3app17h70fa64aa23c3f8caE+0xac>)
   21fe4:	2102      	movs	r1, #2
   21fe6:	2600      	movs	r6, #0
   21fe8:	4622      	mov	r2, r4
   21fea:	4633      	mov	r3, r6
   21fec:	df02      	svc	2
   21fee:	287f      	cmp	r0, #127	@ 0x7f
   21ff0:	d80b      	bhi.n	2200a <_ZN20complex_full_dynamic3app17h70fa64aa23c3f8caE+0x8a>
   21ff2:	9c03      	ldr	r4, [sp, #12]
   21ff4:	6061      	str	r1, [r4, #4]
   21ff6:	2601      	movs	r6, #1
   21ff8:	7026      	strb	r6, [r4, #0]
   21ffa:	a813      	add	r0, sp, #76	@ 0x4c
   21ffc:	f004 ff8e 	bl	26f1c <_ZN9allow_pin12full_dynamic17unshare_if_shared17h02646414dc25e2d7E>
   22000:	a804      	add	r0, sp, #16
   22002:	f004 ff8b 	bl	26f1c <_ZN9allow_pin12full_dynamic17unshare_if_shared17h02646414dc25e2d7E>
   22006:	b02b      	add	sp, #172	@ 0xac
   22008:	bdf0      	pop	{r4, r5, r6, r7, pc}
   2200a:	a804      	add	r0, sp, #16
   2200c:	f004 ff86 	bl	26f1c <_ZN9allow_pin12full_dynamic17unshare_if_shared17h02646414dc25e2d7E>
   22010:	ac13      	add	r4, sp, #76	@ 0x4c
   22012:	4620      	mov	r0, r4
   22014:	f004 ff82 	bl	26f1c <_ZN9allow_pin12full_dynamic17unshare_if_shared17h02646414dc25e2d7E>
   22018:	4620      	mov	r0, r4
   2201a:	f004 ff7f 	bl	26f1c <_ZN9allow_pin12full_dynamic17unshare_if_shared17h02646414dc25e2d7E>
   2201e:	9c03      	ldr	r4, [sp, #12]
   22020:	1c60      	adds	r0, r4, #1
   22022:	2253      	movs	r2, #83	@ 0x53
   22024:	4629      	mov	r1, r5
   22026:	f005 f93a 	bl	2729e <__aeabi_memcpy>
   2202a:	e7e5      	b.n	21ff8 <_ZN20complex_full_dynamic3app17h70fa64aa23c3f8caE+0x78>
   2202c:	00000ec3 	.word	0x00000ec3

00022030 <_ZN20complex_full_dynamic3app17h7198f9e510cfaa9bE>:
   22030:	b5f0      	push	{r4, r5, r6, r7, lr}
   22032:	af03      	add	r7, sp, #12
   22034:	b0a5      	sub	sp, #148	@ 0x94
   22036:	9002      	str	r0, [sp, #8]
   22038:	ac03      	add	r4, sp, #12
   2203a:	2002      	movs	r0, #2
   2203c:	9001      	str	r0, [sp, #4]
   2203e:	7220      	strb	r0, [r4, #8]
   22040:	340c      	adds	r4, #12
   22042:	223c      	movs	r2, #60	@ 0x3c
   22044:	9200      	str	r2, [sp, #0]
   22046:	4620      	mov	r0, r4
   22048:	f005 f929 	bl	2729e <__aeabi_memcpy>
   2204c:	ae15      	add	r6, sp, #84	@ 0x54
   2204e:	4635      	mov	r5, r6
   22050:	350c      	adds	r5, #12
   22052:	2132      	movs	r1, #50	@ 0x32
   22054:	4628      	mov	r0, r5
   22056:	f004 ff75 	bl	26f44 <__aeabi_memclr4>
   2205a:	9801      	ldr	r0, [sp, #4]
   2205c:	7230      	strb	r0, [r6, #8]
   2205e:	4820      	ldr	r0, [pc, #128]	@ (220e0 <_ZN20complex_full_dynamic3app17h7198f9e510cfaa9bE+0xb0>)
   22060:	2606      	movs	r6, #6
   22062:	4631      	mov	r1, r6
   22064:	4622      	mov	r2, r4
   22066:	9b00      	ldr	r3, [sp, #0]
   22068:	df04      	svc	4
   2206a:	2802      	cmp	r0, #2
   2206c:	d01a      	beq.n	220a4 <_ZN20complex_full_dynamic3app17h7198f9e510cfaa9bE+0x74>
   2206e:	a803      	add	r0, sp, #12
   22070:	2104      	movs	r1, #4
   22072:	7201      	strb	r1, [r0, #8]
   22074:	9604      	str	r6, [sp, #16]
   22076:	4e1a      	ldr	r6, [pc, #104]	@ (220e0 <_ZN20complex_full_dynamic3app17h7198f9e510cfaa9bE+0xb0>)
   22078:	9603      	str	r6, [sp, #12]
   2207a:	2408      	movs	r4, #8
   2207c:	2332      	movs	r3, #50	@ 0x32
   2207e:	4630      	mov	r0, r6
   22080:	4621      	mov	r1, r4
   22082:	462a      	mov	r2, r5
   22084:	df03      	svc	3
   22086:	2802      	cmp	r0, #2
   22088:	d00c      	beq.n	220a4 <_ZN20complex_full_dynamic3app17h7198f9e510cfaa9bE+0x74>
   2208a:	a815      	add	r0, sp, #84	@ 0x54
   2208c:	2103      	movs	r1, #3
   2208e:	7201      	strb	r1, [r0, #8]
   22090:	9615      	str	r6, [sp, #84]	@ 0x54
   22092:	9416      	str	r4, [sp, #88]	@ 0x58
   22094:	4812      	ldr	r0, [pc, #72]	@ (220e0 <_ZN20complex_full_dynamic3app17h7198f9e510cfaa9bE+0xb0>)
   22096:	2106      	movs	r1, #6
   22098:	2600      	movs	r6, #0
   2209a:	4622      	mov	r2, r4
   2209c:	4633      	mov	r3, r6
   2209e:	df02      	svc	2
   220a0:	287f      	cmp	r0, #127	@ 0x7f
   220a2:	d80b      	bhi.n	220bc <_ZN20complex_full_dynamic3app17h7198f9e510cfaa9bE+0x8c>
   220a4:	9c02      	ldr	r4, [sp, #8]
   220a6:	6061      	str	r1, [r4, #4]
   220a8:	2601      	movs	r6, #1
   220aa:	7026      	strb	r6, [r4, #0]
   220ac:	a815      	add	r0, sp, #84	@ 0x54
   220ae:	f004 ff35 	bl	26f1c <_ZN9allow_pin12full_dynamic17unshare_if_shared17h02646414dc25e2d7E>
   220b2:	a803      	add	r0, sp, #12
   220b4:	f004 ff32 	bl	26f1c <_ZN9allow_pin12full_dynamic17unshare_if_shared17h02646414dc25e2d7E>
   220b8:	b025      	add	sp, #148	@ 0x94
   220ba:	bdf0      	pop	{r4, r5, r6, r7, pc}
   220bc:	a803      	add	r0, sp, #12
   220be:	f004 ff2d 	bl	26f1c <_ZN9allow_pin12full_dynamic17unshare_if_shared17h02646414dc25e2d7E>
   220c2:	ac15      	add	r4, sp, #84	@ 0x54
   220c4:	4620      	mov	r0, r4
   220c6:	f004 ff29 	bl	26f1c <_ZN9allow_pin12full_dynamic17unshare_if_shared17h02646414dc25e2d7E>
   220ca:	4620      	mov	r0, r4
   220cc:	f004 ff26 	bl	26f1c <_ZN9allow_pin12full_dynamic17unshare_if_shared17h02646414dc25e2d7E>
   220d0:	9c02      	ldr	r4, [sp, #8]
   220d2:	1c60      	adds	r0, r4, #1
   220d4:	2232      	movs	r2, #50	@ 0x32
   220d6:	4629      	mov	r1, r5
   220d8:	f005 f8e1 	bl	2729e <__aeabi_memcpy>
   220dc:	e7e5      	b.n	220aa <_ZN20complex_full_dynamic3app17h7198f9e510cfaa9bE+0x7a>
   220de:	46c0      	nop			@ (mov r8, r8)
   220e0:	00001b1e 	.word	0x00001b1e

000220e4 <_ZN20complex_full_dynamic3app17h78bd7f3f2c19bac1E>:
   220e4:	b5f0      	push	{r4, r5, r6, r7, lr}
   220e6:	af03      	add	r7, sp, #12
   220e8:	b0b3      	sub	sp, #204	@ 0xcc
   220ea:	9002      	str	r0, [sp, #8]
   220ec:	ac03      	add	r4, sp, #12
   220ee:	2002      	movs	r0, #2
   220f0:	9001      	str	r0, [sp, #4]
   220f2:	7220      	strb	r0, [r4, #8]
   220f4:	340c      	adds	r4, #12
   220f6:	2259      	movs	r2, #89	@ 0x59
   220f8:	9200      	str	r2, [sp, #0]
   220fa:	4620      	mov	r0, r4
   220fc:	f005 f8cf 	bl	2729e <__aeabi_memcpy>
   22100:	ae1d      	add	r6, sp, #116	@ 0x74
   22102:	4635      	mov	r5, r6
   22104:	350c      	adds	r5, #12
   22106:	214a      	movs	r1, #74	@ 0x4a
   22108:	4628      	mov	r0, r5
   2210a:	f004 ff1b 	bl	26f44 <__aeabi_memclr4>
   2210e:	9801      	ldr	r0, [sp, #4]
   22110:	7230      	strb	r0, [r6, #8]
   22112:	481f      	ldr	r0, [pc, #124]	@ (22190 <_ZN20complex_full_dynamic3app17h78bd7f3f2c19bac1E+0xac>)
   22114:	2600      	movs	r6, #0
   22116:	4631      	mov	r1, r6
   22118:	4622      	mov	r2, r4
   2211a:	9b00      	ldr	r3, [sp, #0]
   2211c:	df04      	svc	4
   2211e:	2802      	cmp	r0, #2
   22120:	d019      	beq.n	22156 <_ZN20complex_full_dynamic3app17h78bd7f3f2c19bac1E+0x72>
   22122:	a803      	add	r0, sp, #12
   22124:	2404      	movs	r4, #4
   22126:	7204      	strb	r4, [r0, #8]
   22128:	9604      	str	r6, [sp, #16]
   2212a:	4e19      	ldr	r6, [pc, #100]	@ (22190 <_ZN20complex_full_dynamic3app17h78bd7f3f2c19bac1E+0xac>)
   2212c:	9603      	str	r6, [sp, #12]
   2212e:	234a      	movs	r3, #74	@ 0x4a
   22130:	4630      	mov	r0, r6
   22132:	4621      	mov	r1, r4
   22134:	462a      	mov	r2, r5
   22136:	df03      	svc	3
   22138:	2802      	cmp	r0, #2
   2213a:	d00c      	beq.n	22156 <_ZN20complex_full_dynamic3app17h78bd7f3f2c19bac1E+0x72>
   2213c:	a81d      	add	r0, sp, #116	@ 0x74
   2213e:	2103      	movs	r1, #3
   22140:	7201      	strb	r1, [r0, #8]
   22142:	961d      	str	r6, [sp, #116]	@ 0x74
   22144:	941e      	str	r4, [sp, #120]	@ 0x78
   22146:	4812      	ldr	r0, [pc, #72]	@ (22190 <_ZN20complex_full_dynamic3app17h78bd7f3f2c19bac1E+0xac>)
   22148:	2600      	movs	r6, #0
   2214a:	4631      	mov	r1, r6
   2214c:	4622      	mov	r2, r4
   2214e:	4633      	mov	r3, r6
   22150:	df02      	svc	2
   22152:	287f      	cmp	r0, #127	@ 0x7f
   22154:	d80b      	bhi.n	2216e <_ZN20complex_full_dynamic3app17h78bd7f3f2c19bac1E+0x8a>
   22156:	9c02      	ldr	r4, [sp, #8]
   22158:	6061      	str	r1, [r4, #4]
   2215a:	2601      	movs	r6, #1
   2215c:	7026      	strb	r6, [r4, #0]
   2215e:	a81d      	add	r0, sp, #116	@ 0x74
   22160:	f004 fedc 	bl	26f1c <_ZN9allow_pin12full_dynamic17unshare_if_shared17h02646414dc25e2d7E>
   22164:	a803      	add	r0, sp, #12
   22166:	f004 fed9 	bl	26f1c <_ZN9allow_pin12full_dynamic17unshare_if_shared17h02646414dc25e2d7E>
   2216a:	b033      	add	sp, #204	@ 0xcc
   2216c:	bdf0      	pop	{r4, r5, r6, r7, pc}
   2216e:	a803      	add	r0, sp, #12
   22170:	f004 fed4 	bl	26f1c <_ZN9allow_pin12full_dynamic17unshare_if_shared17h02646414dc25e2d7E>
   22174:	ac1d      	add	r4, sp, #116	@ 0x74
   22176:	4620      	mov	r0, r4
   22178:	f004 fed0 	bl	26f1c <_ZN9allow_pin12full_dynamic17unshare_if_shared17h02646414dc25e2d7E>
   2217c:	4620      	mov	r0, r4
   2217e:	f004 fecd 	bl	26f1c <_ZN9allow_pin12full_dynamic17unshare_if_shared17h02646414dc25e2d7E>
   22182:	9c02      	ldr	r4, [sp, #8]
   22184:	1c60      	adds	r0, r4, #1
   22186:	224a      	movs	r2, #74	@ 0x4a
   22188:	4629      	mov	r1, r5
   2218a:	f005 f888 	bl	2729e <__aeabi_memcpy>
   2218e:	e7e5      	b.n	2215c <_ZN20complex_full_dynamic3app17h78bd7f3f2c19bac1E+0x78>
   22190:	00001484 	.word	0x00001484

00022194 <_ZN20complex_full_dynamic3app17h7c30cd70c0daeef3E>:
   22194:	b5f0      	push	{r4, r5, r6, r7, lr}
   22196:	af03      	add	r7, sp, #12
   22198:	b097      	sub	sp, #92	@ 0x5c
   2219a:	9002      	str	r0, [sp, #8]
   2219c:	ae03      	add	r6, sp, #12
   2219e:	2002      	movs	r0, #2
   221a0:	9001      	str	r0, [sp, #4]
   221a2:	7230      	strb	r0, [r6, #8]
   221a4:	360c      	adds	r6, #12
   221a6:	220f      	movs	r2, #15
   221a8:	9200      	str	r2, [sp, #0]
   221aa:	4630      	mov	r0, r6
   221ac:	f005 f877 	bl	2729e <__aeabi_memcpy>
   221b0:	ad0a      	add	r5, sp, #40	@ 0x28
   221b2:	462c      	mov	r4, r5
   221b4:	340c      	adds	r4, #12
   221b6:	2125      	movs	r1, #37	@ 0x25
   221b8:	4620      	mov	r0, r4
   221ba:	f004 fec3 	bl	26f44 <__aeabi_memclr4>
   221be:	9801      	ldr	r0, [sp, #4]
   221c0:	7228      	strb	r0, [r5, #8]
   221c2:	20a2      	movs	r0, #162	@ 0xa2
   221c4:	2508      	movs	r5, #8
   221c6:	9001      	str	r0, [sp, #4]
   221c8:	4629      	mov	r1, r5
   221ca:	4632      	mov	r2, r6
   221cc:	9b00      	ldr	r3, [sp, #0]
   221ce:	df04      	svc	4
   221d0:	2802      	cmp	r0, #2
   221d2:	d018      	beq.n	22206 <_ZN20complex_full_dynamic3app17h7c30cd70c0daeef3E+0x72>
   221d4:	a803      	add	r0, sp, #12
   221d6:	2104      	movs	r1, #4
   221d8:	7201      	strb	r1, [r0, #8]
   221da:	9504      	str	r5, [sp, #16]
   221dc:	9801      	ldr	r0, [sp, #4]
   221de:	9003      	str	r0, [sp, #12]
   221e0:	2600      	movs	r6, #0
   221e2:	2325      	movs	r3, #37	@ 0x25
   221e4:	4631      	mov	r1, r6
   221e6:	4622      	mov	r2, r4
   221e8:	df03      	svc	3
   221ea:	2802      	cmp	r0, #2
   221ec:	d00b      	beq.n	22206 <_ZN20complex_full_dynamic3app17h7c30cd70c0daeef3E+0x72>
   221ee:	a80a      	add	r0, sp, #40	@ 0x28
   221f0:	2103      	movs	r1, #3
   221f2:	7201      	strb	r1, [r0, #8]
   221f4:	960b      	str	r6, [sp, #44]	@ 0x2c
   221f6:	9801      	ldr	r0, [sp, #4]
   221f8:	900a      	str	r0, [sp, #40]	@ 0x28
   221fa:	2108      	movs	r1, #8
   221fc:	4632      	mov	r2, r6
   221fe:	4633      	mov	r3, r6
   22200:	df02      	svc	2
   22202:	287f      	cmp	r0, #127	@ 0x7f
   22204:	d80b      	bhi.n	2221e <_ZN20complex_full_dynamic3app17h7c30cd70c0daeef3E+0x8a>
   22206:	9c02      	ldr	r4, [sp, #8]
   22208:	6061      	str	r1, [r4, #4]
   2220a:	2601      	movs	r6, #1
   2220c:	7026      	strb	r6, [r4, #0]
   2220e:	a80a      	add	r0, sp, #40	@ 0x28
   22210:	f004 fe84 	bl	26f1c <_ZN9allow_pin12full_dynamic17unshare_if_shared17h02646414dc25e2d7E>
   22214:	a803      	add	r0, sp, #12
   22216:	f004 fe81 	bl	26f1c <_ZN9allow_pin12full_dynamic17unshare_if_shared17h02646414dc25e2d7E>
   2221a:	b017      	add	sp, #92	@ 0x5c
   2221c:	bdf0      	pop	{r4, r5, r6, r7, pc}
   2221e:	4625      	mov	r5, r4
   22220:	a803      	add	r0, sp, #12
   22222:	f004 fe7b 	bl	26f1c <_ZN9allow_pin12full_dynamic17unshare_if_shared17h02646414dc25e2d7E>
   22226:	ac0a      	add	r4, sp, #40	@ 0x28
   22228:	4620      	mov	r0, r4
   2222a:	f004 fe77 	bl	26f1c <_ZN9allow_pin12full_dynamic17unshare_if_shared17h02646414dc25e2d7E>
   2222e:	4620      	mov	r0, r4
   22230:	f004 fe74 	bl	26f1c <_ZN9allow_pin12full_dynamic17unshare_if_shared17h02646414dc25e2d7E>
   22234:	9c02      	ldr	r4, [sp, #8]
   22236:	1c60      	adds	r0, r4, #1
   22238:	2225      	movs	r2, #37	@ 0x25
   2223a:	4629      	mov	r1, r5
   2223c:	f005 f82f 	bl	2729e <__aeabi_memcpy>
   22240:	e7e4      	b.n	2220c <_ZN20complex_full_dynamic3app17h7c30cd70c0daeef3E+0x78>
   22242:	d4d4      	bmi.n	221ee <_ZN20complex_full_dynamic3app17h7c30cd70c0daeef3E+0x5a>

00022244 <_ZN20complex_full_dynamic3app17h8512f50f31d37db6E>:
   22244:	b5f0      	push	{r4, r5, r6, r7, lr}
   22246:	af03      	add	r7, sp, #12
   22248:	b0a9      	sub	sp, #164	@ 0xa4
   2224a:	9003      	str	r0, [sp, #12]
   2224c:	ac04      	add	r4, sp, #16
   2224e:	2002      	movs	r0, #2
   22250:	9002      	str	r0, [sp, #8]
   22252:	7220      	strb	r0, [r4, #8]
   22254:	340c      	adds	r4, #12
   22256:	221c      	movs	r2, #28
   22258:	9201      	str	r2, [sp, #4]
   2225a:	4620      	mov	r0, r4
   2225c:	f005 f81f 	bl	2729e <__aeabi_memcpy>
   22260:	ae0e      	add	r6, sp, #56	@ 0x38
   22262:	4635      	mov	r5, r6
   22264:	350c      	adds	r5, #12
   22266:	215d      	movs	r1, #93	@ 0x5d
   22268:	4628      	mov	r0, r5
   2226a:	f004 fe6b 	bl	26f44 <__aeabi_memclr4>
   2226e:	9802      	ldr	r0, [sp, #8]
   22270:	7230      	strb	r0, [r6, #8]
   22272:	4820      	ldr	r0, [pc, #128]	@ (222f4 <_ZN20complex_full_dynamic3app17h8512f50f31d37db6E+0xb0>)
   22274:	2608      	movs	r6, #8
   22276:	4631      	mov	r1, r6
   22278:	4622      	mov	r2, r4
   2227a:	9b01      	ldr	r3, [sp, #4]
   2227c:	df04      	svc	4
   2227e:	2802      	cmp	r0, #2
   22280:	d01a      	beq.n	222b8 <_ZN20complex_full_dynamic3app17h8512f50f31d37db6E+0x74>
   22282:	a804      	add	r0, sp, #16
   22284:	2104      	movs	r1, #4
   22286:	7201      	strb	r1, [r0, #8]
   22288:	9605      	str	r6, [sp, #20]
   2228a:	4e1a      	ldr	r6, [pc, #104]	@ (222f4 <_ZN20complex_full_dynamic3app17h8512f50f31d37db6E+0xb0>)
   2228c:	9604      	str	r6, [sp, #16]
   2228e:	2405      	movs	r4, #5
   22290:	235d      	movs	r3, #93	@ 0x5d
   22292:	4630      	mov	r0, r6
   22294:	4621      	mov	r1, r4
   22296:	462a      	mov	r2, r5
   22298:	df03      	svc	3
   2229a:	2802      	cmp	r0, #2
   2229c:	d00c      	beq.n	222b8 <_ZN20complex_full_dynamic3app17h8512f50f31d37db6E+0x74>
   2229e:	a80e      	add	r0, sp, #56	@ 0x38
   222a0:	2103      	movs	r1, #3
   222a2:	7201      	strb	r1, [r0, #8]
   222a4:	960e      	str	r6, [sp, #56]	@ 0x38
   222a6:	940f      	str	r4, [sp, #60]	@ 0x3c
   222a8:	4812      	ldr	r0, [pc, #72]	@ (222f4 <_ZN20complex_full_dynamic3app17h8512f50f31d37db6E+0xb0>)
   222aa:	2108      	movs	r1, #8
   222ac:	2600      	movs	r6, #0
   222ae:	4622      	mov	r2, r4
   222b0:	4633      	mov	r3, r6
   222b2:	df02      	svc	2
   222b4:	287f      	cmp	r0, #127	@ 0x7f
   222b6:	d80b      	bhi.n	222d0 <_ZN20complex_full_dynamic3app17h8512f50f31d37db6E+0x8c>
   222b8:	9c03      	ldr	r4, [sp, #12]
   222ba:	6061      	str	r1, [r4, #4]
   222bc:	2601      	movs	r6, #1
   222be:	7026      	strb	r6, [r4, #0]
   222c0:	a80e      	add	r0, sp, #56	@ 0x38
   222c2:	f004 fe2b 	bl	26f1c <_ZN9allow_pin12full_dynamic17unshare_if_shared17h02646414dc25e2d7E>
   222c6:	a804      	add	r0, sp, #16
   222c8:	f004 fe28 	bl	26f1c <_ZN9allow_pin12full_dynamic17unshare_if_shared17h02646414dc25e2d7E>
   222cc:	b029      	add	sp, #164	@ 0xa4
   222ce:	bdf0      	pop	{r4, r5, r6, r7, pc}
   222d0:	a804      	add	r0, sp, #16
   222d2:	f004 fe23 	bl	26f1c <_ZN9allow_pin12full_dynamic17unshare_if_shared17h02646414dc25e2d7E>
   222d6:	ac0e      	add	r4, sp, #56	@ 0x38
   222d8:	4620      	mov	r0, r4
   222da:	f004 fe1f 	bl	26f1c <_ZN9allow_pin12full_dynamic17unshare_if_shared17h02646414dc25e2d7E>
   222de:	4620      	mov	r0, r4
   222e0:	f004 fe1c 	bl	26f1c <_ZN9allow_pin12full_dynamic17unshare_if_shared17h02646414dc25e2d7E>
   222e4:	9c03      	ldr	r4, [sp, #12]
   222e6:	1c60      	adds	r0, r4, #1
   222e8:	225d      	movs	r2, #93	@ 0x5d
   222ea:	4629      	mov	r1, r5
   222ec:	f004 ffd7 	bl	2729e <__aeabi_memcpy>
   222f0:	e7e5      	b.n	222be <_ZN20complex_full_dynamic3app17h8512f50f31d37db6E+0x7a>
   222f2:	46c0      	nop			@ (mov r8, r8)
   222f4:	00000c3e 	.word	0x00000c3e

000222f8 <_ZN20complex_full_dynamic3app17h85f7e80fe2612d3fE>:
   222f8:	b5f0      	push	{r4, r5, r6, r7, lr}
   222fa:	af03      	add	r7, sp, #12
   222fc:	b0a7      	sub	sp, #156	@ 0x9c
   222fe:	9003      	str	r0, [sp, #12]
   22300:	ac04      	add	r4, sp, #16
   22302:	2602      	movs	r6, #2
   22304:	7226      	strb	r6, [r4, #8]
   22306:	340c      	adds	r4, #12
   22308:	221e      	movs	r2, #30
   2230a:	9202      	str	r2, [sp, #8]
   2230c:	4620      	mov	r0, r4
   2230e:	f004 ffc6 	bl	2729e <__aeabi_memcpy>
   22312:	ad0f      	add	r5, sp, #60	@ 0x3c
   22314:	4628      	mov	r0, r5
   22316:	300c      	adds	r0, #12
   22318:	2151      	movs	r1, #81	@ 0x51
   2231a:	9001      	str	r0, [sp, #4]
   2231c:	f004 fe12 	bl	26f44 <__aeabi_memclr4>
   22320:	722e      	strb	r6, [r5, #8]
   22322:	4635      	mov	r5, r6
   22324:	4e1f      	ldr	r6, [pc, #124]	@ (223a4 <_ZN20complex_full_dynamic3app17h85f7e80fe2612d3fE+0xac>)
   22326:	4630      	mov	r0, r6
   22328:	4629      	mov	r1, r5
   2232a:	4622      	mov	r2, r4
   2232c:	9b02      	ldr	r3, [sp, #8]
   2232e:	df04      	svc	4
   22330:	2802      	cmp	r0, #2
   22332:	d01a      	beq.n	2236a <_ZN20complex_full_dynamic3app17h85f7e80fe2612d3fE+0x72>
   22334:	a804      	add	r0, sp, #16
   22336:	2104      	movs	r1, #4
   22338:	7201      	strb	r1, [r0, #8]
   2233a:	9505      	str	r5, [sp, #20]
   2233c:	9604      	str	r6, [sp, #16]
   2233e:	2500      	movs	r5, #0
   22340:	2351      	movs	r3, #81	@ 0x51
   22342:	4634      	mov	r4, r6
   22344:	4630      	mov	r0, r6
   22346:	4629      	mov	r1, r5
   22348:	9e01      	ldr	r6, [sp, #4]
   2234a:	4632      	mov	r2, r6
   2234c:	df03      	svc	3
   2234e:	2802      	cmp	r0, #2
   22350:	d00b      	beq.n	2236a <_ZN20complex_full_dynamic3app17h85f7e80fe2612d3fE+0x72>
   22352:	a80f      	add	r0, sp, #60	@ 0x3c
   22354:	2103      	movs	r1, #3
   22356:	7201      	strb	r1, [r0, #8]
   22358:	940f      	str	r4, [sp, #60]	@ 0x3c
   2235a:	9510      	str	r5, [sp, #64]	@ 0x40
   2235c:	4811      	ldr	r0, [pc, #68]	@ (223a4 <_ZN20complex_full_dynamic3app17h85f7e80fe2612d3fE+0xac>)
   2235e:	2102      	movs	r1, #2
   22360:	462a      	mov	r2, r5
   22362:	462b      	mov	r3, r5
   22364:	df02      	svc	2
   22366:	287f      	cmp	r0, #127	@ 0x7f
   22368:	d80b      	bhi.n	22382 <_ZN20complex_full_dynamic3app17h85f7e80fe2612d3fE+0x8a>
   2236a:	9c03      	ldr	r4, [sp, #12]
   2236c:	6061      	str	r1, [r4, #4]
   2236e:	2501      	movs	r5, #1
   22370:	7025      	strb	r5, [r4, #0]
   22372:	a80f      	add	r0, sp, #60	@ 0x3c
   22374:	f004 fdd2 	bl	26f1c <_ZN9allow_pin12full_dynamic17unshare_if_shared17h02646414dc25e2d7E>
   22378:	a804      	add	r0, sp, #16
   2237a:	f004 fdcf 	bl	26f1c <_ZN9allow_pin12full_dynamic17unshare_if_shared17h02646414dc25e2d7E>
   2237e:	b027      	add	sp, #156	@ 0x9c
   22380:	bdf0      	pop	{r4, r5, r6, r7, pc}
   22382:	a804      	add	r0, sp, #16
   22384:	f004 fdca 	bl	26f1c <_ZN9allow_pin12full_dynamic17unshare_if_shared17h02646414dc25e2d7E>
   22388:	ac0f      	add	r4, sp, #60	@ 0x3c
   2238a:	4620      	mov	r0, r4
   2238c:	f004 fdc6 	bl	26f1c <_ZN9allow_pin12full_dynamic17unshare_if_shared17h02646414dc25e2d7E>
   22390:	4620      	mov	r0, r4
   22392:	f004 fdc3 	bl	26f1c <_ZN9allow_pin12full_dynamic17unshare_if_shared17h02646414dc25e2d7E>
   22396:	9c03      	ldr	r4, [sp, #12]
   22398:	1c60      	adds	r0, r4, #1
   2239a:	2251      	movs	r2, #81	@ 0x51
   2239c:	4631      	mov	r1, r6
   2239e:	f004 ff7e 	bl	2729e <__aeabi_memcpy>
   223a2:	e7e5      	b.n	22370 <_ZN20complex_full_dynamic3app17h85f7e80fe2612d3fE+0x78>
   223a4:	0000196b 	.word	0x0000196b

000223a8 <_ZN20complex_full_dynamic3app17h863033e029ef127aE>:
   223a8:	b5f0      	push	{r4, r5, r6, r7, lr}
   223aa:	af03      	add	r7, sp, #12
   223ac:	b097      	sub	sp, #92	@ 0x5c
   223ae:	9003      	str	r0, [sp, #12]
   223b0:	ac04      	add	r4, sp, #16
   223b2:	2002      	movs	r0, #2
   223b4:	9002      	str	r0, [sp, #8]
   223b6:	7220      	strb	r0, [r4, #8]
   223b8:	340c      	adds	r4, #12
   223ba:	220d      	movs	r2, #13
   223bc:	9201      	str	r2, [sp, #4]
   223be:	4620      	mov	r0, r4
   223c0:	f004 ff6d 	bl	2729e <__aeabi_memcpy>
   223c4:	ae0b      	add	r6, sp, #44	@ 0x2c
   223c6:	4635      	mov	r5, r6
   223c8:	350c      	adds	r5, #12
   223ca:	2121      	movs	r1, #33	@ 0x21
   223cc:	4628      	mov	r0, r5
   223ce:	f004 fdb9 	bl	26f44 <__aeabi_memclr4>
   223d2:	9802      	ldr	r0, [sp, #8]
   223d4:	7230      	strb	r0, [r6, #8]
   223d6:	481f      	ldr	r0, [pc, #124]	@ (22454 <_ZN20complex_full_dynamic3app17h863033e029ef127aE+0xac>)
   223d8:	2600      	movs	r6, #0
   223da:	4631      	mov	r1, r6
   223dc:	4622      	mov	r2, r4
   223de:	9b01      	ldr	r3, [sp, #4]
   223e0:	df04      	svc	4
   223e2:	2802      	cmp	r0, #2
   223e4:	d018      	beq.n	22418 <_ZN20complex_full_dynamic3app17h863033e029ef127aE+0x70>
   223e6:	a804      	add	r0, sp, #16
   223e8:	2104      	movs	r1, #4
   223ea:	7201      	strb	r1, [r0, #8]
   223ec:	4c19      	ldr	r4, [pc, #100]	@ (22454 <_ZN20complex_full_dynamic3app17h863033e029ef127aE+0xac>)
   223ee:	9404      	str	r4, [sp, #16]
   223f0:	9605      	str	r6, [sp, #20]
   223f2:	2321      	movs	r3, #33	@ 0x21
   223f4:	4620      	mov	r0, r4
   223f6:	4631      	mov	r1, r6
   223f8:	462a      	mov	r2, r5
   223fa:	df03      	svc	3
   223fc:	2802      	cmp	r0, #2
   223fe:	d00b      	beq.n	22418 <_ZN20complex_full_dynamic3app17h863033e029ef127aE+0x70>
   22400:	a80b      	add	r0, sp, #44	@ 0x2c
   22402:	2103      	movs	r1, #3
   22404:	7201      	strb	r1, [r0, #8]
   22406:	940b      	str	r4, [sp, #44]	@ 0x2c
   22408:	960c      	str	r6, [sp, #48]	@ 0x30
   2240a:	4812      	ldr	r0, [pc, #72]	@ (22454 <_ZN20complex_full_dynamic3app17h863033e029ef127aE+0xac>)
   2240c:	4631      	mov	r1, r6
   2240e:	4632      	mov	r2, r6
   22410:	4633      	mov	r3, r6
   22412:	df02      	svc	2
   22414:	287f      	cmp	r0, #127	@ 0x7f
   22416:	d80b      	bhi.n	22430 <_ZN20complex_full_dynamic3app17h863033e029ef127aE+0x88>
   22418:	9c03      	ldr	r4, [sp, #12]
   2241a:	6061      	str	r1, [r4, #4]
   2241c:	2601      	movs	r6, #1
   2241e:	7026      	strb	r6, [r4, #0]
   22420:	a80b      	add	r0, sp, #44	@ 0x2c
   22422:	f004 fd7b 	bl	26f1c <_ZN9allow_pin12full_dynamic17unshare_if_shared17h02646414dc25e2d7E>
   22426:	a804      	add	r0, sp, #16
   22428:	f004 fd78 	bl	26f1c <_ZN9allow_pin12full_dynamic17unshare_if_shared17h02646414dc25e2d7E>
   2242c:	b017      	add	sp, #92	@ 0x5c
   2242e:	bdf0      	pop	{r4, r5, r6, r7, pc}
   22430:	a804      	add	r0, sp, #16
   22432:	f004 fd73 	bl	26f1c <_ZN9allow_pin12full_dynamic17unshare_if_shared17h02646414dc25e2d7E>
   22436:	ac0b      	add	r4, sp, #44	@ 0x2c
   22438:	4620      	mov	r0, r4
   2243a:	f004 fd6f 	bl	26f1c <_ZN9allow_pin12full_dynamic17unshare_if_shared17h02646414dc25e2d7E>
   2243e:	4620      	mov	r0, r4
   22440:	f004 fd6c 	bl	26f1c <_ZN9allow_pin12full_dynamic17unshare_if_shared17h02646414dc25e2d7E>
   22444:	9c03      	ldr	r4, [sp, #12]
   22446:	1c60      	adds	r0, r4, #1
   22448:	2221      	movs	r2, #33	@ 0x21
   2244a:	4629      	mov	r1, r5
   2244c:	f004 ff27 	bl	2729e <__aeabi_memcpy>
   22450:	e7e5      	b.n	2241e <_ZN20complex_full_dynamic3app17h863033e029ef127aE+0x76>
   22452:	46c0      	nop			@ (mov r8, r8)
   22454:	000016b0 	.word	0x000016b0

00022458 <_ZN20complex_full_dynamic3app17h89c4571e49817ca0E>:
   22458:	b5f0      	push	{r4, r5, r6, r7, lr}
   2245a:	af03      	add	r7, sp, #12
   2245c:	b0ad      	sub	sp, #180	@ 0xb4
   2245e:	9002      	str	r0, [sp, #8]
   22460:	ae03      	add	r6, sp, #12
   22462:	2002      	movs	r0, #2
   22464:	9001      	str	r0, [sp, #4]
   22466:	7230      	strb	r0, [r6, #8]
   22468:	360c      	adds	r6, #12
   2246a:	2263      	movs	r2, #99	@ 0x63
   2246c:	9200      	str	r2, [sp, #0]
   2246e:	4630      	mov	r0, r6
   22470:	f004 ff15 	bl	2729e <__aeabi_memcpy>
   22474:	ad1f      	add	r5, sp, #124	@ 0x7c
   22476:	462c      	mov	r4, r5
   22478:	340c      	adds	r4, #12
   2247a:	212c      	movs	r1, #44	@ 0x2c
   2247c:	4620      	mov	r0, r4
   2247e:	f004 fd61 	bl	26f44 <__aeabi_memclr4>
   22482:	9801      	ldr	r0, [sp, #4]
   22484:	7228      	strb	r0, [r5, #8]
   22486:	2018      	movs	r0, #24
   22488:	2505      	movs	r5, #5
   2248a:	9001      	str	r0, [sp, #4]
   2248c:	4629      	mov	r1, r5
   2248e:	4632      	mov	r2, r6
   22490:	9b00      	ldr	r3, [sp, #0]
   22492:	df04      	svc	4
   22494:	2802      	cmp	r0, #2
   22496:	d018      	beq.n	224ca <_ZN20complex_full_dynamic3app17h89c4571e49817ca0E+0x72>
   22498:	a803      	add	r0, sp, #12
   2249a:	2104      	movs	r1, #4
   2249c:	7201      	strb	r1, [r0, #8]
   2249e:	9504      	str	r5, [sp, #16]
   224a0:	9801      	ldr	r0, [sp, #4]
   224a2:	9003      	str	r0, [sp, #12]
   224a4:	2503      	movs	r5, #3
   224a6:	232c      	movs	r3, #44	@ 0x2c
   224a8:	4629      	mov	r1, r5
   224aa:	4622      	mov	r2, r4
   224ac:	df03      	svc	3
   224ae:	2802      	cmp	r0, #2
   224b0:	d00b      	beq.n	224ca <_ZN20complex_full_dynamic3app17h89c4571e49817ca0E+0x72>
   224b2:	a81f      	add	r0, sp, #124	@ 0x7c
   224b4:	7205      	strb	r5, [r0, #8]
   224b6:	9520      	str	r5, [sp, #128]	@ 0x80
   224b8:	9801      	ldr	r0, [sp, #4]
   224ba:	901f      	str	r0, [sp, #124]	@ 0x7c
   224bc:	2105      	movs	r1, #5
   224be:	2600      	movs	r6, #0
   224c0:	462a      	mov	r2, r5
   224c2:	4633      	mov	r3, r6
   224c4:	df02      	svc	2
   224c6:	287f      	cmp	r0, #127	@ 0x7f
   224c8:	d80b      	bhi.n	224e2 <_ZN20complex_full_dynamic3app17h89c4571e49817ca0E+0x8a>
   224ca:	9c02      	ldr	r4, [sp, #8]
   224cc:	6061      	str	r1, [r4, #4]
   224ce:	2601      	movs	r6, #1
   224d0:	7026      	strb	r6, [r4, #0]
   224d2:	a81f      	add	r0, sp, #124	@ 0x7c
   224d4:	f004 fd22 	bl	26f1c <_ZN9allow_pin12full_dynamic17unshare_if_shared17h02646414dc25e2d7E>
   224d8:	a803      	add	r0, sp, #12
   224da:	f004 fd1f 	bl	26f1c <_ZN9allow_pin12full_dynamic17unshare_if_shared17h02646414dc25e2d7E>
   224de:	b02d      	add	sp, #180	@ 0xb4
   224e0:	bdf0      	pop	{r4, r5, r6, r7, pc}
   224e2:	a803      	add	r0, sp, #12
   224e4:	f004 fd1a 	bl	26f1c <_ZN9allow_pin12full_dynamic17unshare_if_shared17h02646414dc25e2d7E>
   224e8:	4625      	mov	r5, r4
   224ea:	ac1f      	add	r4, sp, #124	@ 0x7c
   224ec:	4620      	mov	r0, r4
   224ee:	f004 fd15 	bl	26f1c <_ZN9allow_pin12full_dynamic17unshare_if_shared17h02646414dc25e2d7E>
   224f2:	4620      	mov	r0, r4
   224f4:	f004 fd12 	bl	26f1c <_ZN9allow_pin12full_dynamic17unshare_if_shared17h02646414dc25e2d7E>
   224f8:	9c02      	ldr	r4, [sp, #8]
   224fa:	1c60      	adds	r0, r4, #1
   224fc:	222c      	movs	r2, #44	@ 0x2c
   224fe:	4629      	mov	r1, r5
   22500:	f004 fecd 	bl	2729e <__aeabi_memcpy>
   22504:	e7e4      	b.n	224d0 <_ZN20complex_full_dynamic3app17h89c4571e49817ca0E+0x78>
   22506:	d4d4      	bmi.n	224b2 <_ZN20complex_full_dynamic3app17h89c4571e49817ca0E+0x5a>

00022508 <_ZN20complex_full_dynamic3app17h954965d4ac8fb172E>:
   22508:	b5f0      	push	{r4, r5, r6, r7, lr}
   2250a:	af03      	add	r7, sp, #12
   2250c:	b09b      	sub	sp, #108	@ 0x6c
   2250e:	9002      	str	r0, [sp, #8]
   22510:	ae03      	add	r6, sp, #12
   22512:	2402      	movs	r4, #2
   22514:	7234      	strb	r4, [r6, #8]
   22516:	360c      	adds	r6, #12
   22518:	2227      	movs	r2, #39	@ 0x27
   2251a:	9201      	str	r2, [sp, #4]
   2251c:	4630      	mov	r0, r6
   2251e:	f004 febe 	bl	2729e <__aeabi_memcpy>
   22522:	ad10      	add	r5, sp, #64	@ 0x40
   22524:	2000      	movs	r0, #0
   22526:	8528      	strh	r0, [r5, #40]	@ 0x28
   22528:	722c      	strb	r4, [r5, #8]
   2252a:	9019      	str	r0, [sp, #100]	@ 0x64
   2252c:	9018      	str	r0, [sp, #96]	@ 0x60
   2252e:	9017      	str	r0, [sp, #92]	@ 0x5c
   22530:	9016      	str	r0, [sp, #88]	@ 0x58
   22532:	9015      	str	r0, [sp, #84]	@ 0x54
   22534:	9014      	str	r0, [sp, #80]	@ 0x50
   22536:	9013      	str	r0, [sp, #76]	@ 0x4c
   22538:	481f      	ldr	r0, [pc, #124]	@ (225b8 <_ZN20complex_full_dynamic3app17h954965d4ac8fb172E+0xb0>)
   2253a:	2403      	movs	r4, #3
   2253c:	4621      	mov	r1, r4
   2253e:	4632      	mov	r2, r6
   22540:	9b01      	ldr	r3, [sp, #4]
   22542:	df04      	svc	4
   22544:	2802      	cmp	r0, #2
   22546:	d019      	beq.n	2257c <_ZN20complex_full_dynamic3app17h954965d4ac8fb172E+0x74>
   22548:	350c      	adds	r5, #12
   2254a:	a803      	add	r0, sp, #12
   2254c:	2104      	movs	r1, #4
   2254e:	7201      	strb	r1, [r0, #8]
   22550:	4e19      	ldr	r6, [pc, #100]	@ (225b8 <_ZN20complex_full_dynamic3app17h954965d4ac8fb172E+0xb0>)
   22552:	9603      	str	r6, [sp, #12]
   22554:	9404      	str	r4, [sp, #16]
   22556:	231e      	movs	r3, #30
   22558:	4630      	mov	r0, r6
   2255a:	4621      	mov	r1, r4
   2255c:	462a      	mov	r2, r5
   2255e:	df03      	svc	3
   22560:	2802      	cmp	r0, #2
   22562:	d00b      	beq.n	2257c <_ZN20complex_full_dynamic3app17h954965d4ac8fb172E+0x74>
   22564:	a810      	add	r0, sp, #64	@ 0x40
   22566:	7204      	strb	r4, [r0, #8]
   22568:	9411      	str	r4, [sp, #68]	@ 0x44
   2256a:	9610      	str	r6, [sp, #64]	@ 0x40
   2256c:	4812      	ldr	r0, [pc, #72]	@ (225b8 <_ZN20complex_full_dynamic3app17h954965d4ac8fb172E+0xb0>)
   2256e:	2600      	movs	r6, #0
   22570:	4621      	mov	r1, r4
   22572:	4622      	mov	r2, r4
   22574:	4633      	mov	r3, r6
   22576:	df02      	svc	2
   22578:	287f      	cmp	r0, #127	@ 0x7f
   2257a:	d80b      	bhi.n	22594 <_ZN20complex_full_dynamic3app17h954965d4ac8fb172E+0x8c>
   2257c:	9c02      	ldr	r4, [sp, #8]
   2257e:	6061      	str	r1, [r4, #4]
   22580:	2601      	movs	r6, #1
   22582:	7026      	strb	r6, [r4, #0]
   22584:	a810      	add	r0, sp, #64	@ 0x40
   22586:	f004 fcc9 	bl	26f1c <_ZN9allow_pin12full_dynamic17unshare_if_shared17h02646414dc25e2d7E>
   2258a:	a803      	add	r0, sp, #12
   2258c:	f004 fcc6 	bl	26f1c <_ZN9allow_pin12full_dynamic17unshare_if_shared17h02646414dc25e2d7E>
   22590:	b01b      	add	sp, #108	@ 0x6c
   22592:	bdf0      	pop	{r4, r5, r6, r7, pc}
   22594:	a803      	add	r0, sp, #12
   22596:	f004 fcc1 	bl	26f1c <_ZN9allow_pin12full_dynamic17unshare_if_shared17h02646414dc25e2d7E>
   2259a:	ac10      	add	r4, sp, #64	@ 0x40
   2259c:	4620      	mov	r0, r4
   2259e:	f004 fcbd 	bl	26f1c <_ZN9allow_pin12full_dynamic17unshare_if_shared17h02646414dc25e2d7E>
   225a2:	4620      	mov	r0, r4
   225a4:	f004 fcba 	bl	26f1c <_ZN9allow_pin12full_dynamic17unshare_if_shared17h02646414dc25e2d7E>
   225a8:	9c02      	ldr	r4, [sp, #8]
   225aa:	1c60      	adds	r0, r4, #1
   225ac:	221e      	movs	r2, #30
   225ae:	4629      	mov	r1, r5
   225b0:	f004 fe75 	bl	2729e <__aeabi_memcpy>
   225b4:	e7e5      	b.n	22582 <_ZN20complex_full_dynamic3app17h954965d4ac8fb172E+0x7a>
   225b6:	46c0      	nop			@ (mov r8, r8)
   225b8:	000010e2 	.word	0x000010e2

000225bc <_ZN20complex_full_dynamic3app17h9a6755afacf16335E>:
   225bc:	b5f0      	push	{r4, r5, r6, r7, lr}
   225be:	af03      	add	r7, sp, #12
   225c0:	b09f      	sub	sp, #124	@ 0x7c
   225c2:	9001      	str	r0, [sp, #4]
   225c4:	ac02      	add	r4, sp, #8
   225c6:	2602      	movs	r6, #2
   225c8:	7226      	strb	r6, [r4, #8]
   225ca:	340c      	adds	r4, #12
   225cc:	2541      	movs	r5, #65	@ 0x41
   225ce:	4620      	mov	r0, r4
   225d0:	462a      	mov	r2, r5
   225d2:	f004 fe64 	bl	2729e <__aeabi_memcpy>
   225d6:	a816      	add	r0, sp, #88	@ 0x58
   225d8:	9000      	str	r0, [sp, #0]
   225da:	7206      	strb	r6, [r0, #8]
   225dc:	2000      	movs	r0, #0
   225de:	901e      	str	r0, [sp, #120]	@ 0x78
   225e0:	901d      	str	r0, [sp, #116]	@ 0x74
   225e2:	901c      	str	r0, [sp, #112]	@ 0x70
   225e4:	901b      	str	r0, [sp, #108]	@ 0x6c
   225e6:	901a      	str	r0, [sp, #104]	@ 0x68
   225e8:	9019      	str	r0, [sp, #100]	@ 0x64
   225ea:	4820      	ldr	r0, [pc, #128]	@ (2266c <_ZN20complex_full_dynamic3app17h9a6755afacf16335E+0xb0>)
   225ec:	2601      	movs	r6, #1
   225ee:	4631      	mov	r1, r6
   225f0:	4622      	mov	r2, r4
   225f2:	462b      	mov	r3, r5
   225f4:	df04      	svc	4
   225f6:	2802      	cmp	r0, #2
   225f8:	d01b      	beq.n	22632 <_ZN20complex_full_dynamic3app17h9a6755afacf16335E+0x76>
   225fa:	9d00      	ldr	r5, [sp, #0]
   225fc:	350c      	adds	r5, #12
   225fe:	a802      	add	r0, sp, #8
   22600:	2104      	movs	r1, #4
   22602:	7201      	strb	r1, [r0, #8]
   22604:	9603      	str	r6, [sp, #12]
   22606:	4819      	ldr	r0, [pc, #100]	@ (2266c <_ZN20complex_full_dynamic3app17h9a6755afacf16335E+0xb0>)
   22608:	9002      	str	r0, [sp, #8]
   2260a:	2409      	movs	r4, #9
   2260c:	2318      	movs	r3, #24
   2260e:	4621      	mov	r1, r4
   22610:	462a      	mov	r2, r5
   22612:	df03      	svc	3
   22614:	2802      	cmp	r0, #2
   22616:	d00c      	beq.n	22632 <_ZN20complex_full_dynamic3app17h9a6755afacf16335E+0x76>
   22618:	a816      	add	r0, sp, #88	@ 0x58
   2261a:	2103      	movs	r1, #3
   2261c:	7201      	strb	r1, [r0, #8]
   2261e:	4813      	ldr	r0, [pc, #76]	@ (2266c <_ZN20complex_full_dynamic3app17h9a6755afacf16335E+0xb0>)
   22620:	9016      	str	r0, [sp, #88]	@ 0x58
   22622:	9417      	str	r4, [sp, #92]	@ 0x5c
   22624:	2101      	movs	r1, #1
   22626:	2300      	movs	r3, #0
   22628:	4622      	mov	r2, r4
   2262a:	9300      	str	r3, [sp, #0]
   2262c:	df02      	svc	2
   2262e:	287f      	cmp	r0, #127	@ 0x7f
   22630:	d80a      	bhi.n	22648 <_ZN20complex_full_dynamic3app17h9a6755afacf16335E+0x8c>
   22632:	9c01      	ldr	r4, [sp, #4]
   22634:	6061      	str	r1, [r4, #4]
   22636:	7026      	strb	r6, [r4, #0]
   22638:	a816      	add	r0, sp, #88	@ 0x58
   2263a:	f004 fc6f 	bl	26f1c <_ZN9allow_pin12full_dynamic17unshare_if_shared17h02646414dc25e2d7E>
   2263e:	a802      	add	r0, sp, #8
   22640:	f004 fc6c 	bl	26f1c <_ZN9allow_pin12full_dynamic17unshare_if_shared17h02646414dc25e2d7E>
   22644:	b01f      	add	sp, #124	@ 0x7c
   22646:	bdf0      	pop	{r4, r5, r6, r7, pc}
   22648:	a802      	add	r0, sp, #8
   2264a:	f004 fc67 	bl	26f1c <_ZN9allow_pin12full_dynamic17unshare_if_shared17h02646414dc25e2d7E>
   2264e:	ac16      	add	r4, sp, #88	@ 0x58
   22650:	4620      	mov	r0, r4
   22652:	f004 fc63 	bl	26f1c <_ZN9allow_pin12full_dynamic17unshare_if_shared17h02646414dc25e2d7E>
   22656:	4620      	mov	r0, r4
   22658:	f004 fc60 	bl	26f1c <_ZN9allow_pin12full_dynamic17unshare_if_shared17h02646414dc25e2d7E>
   2265c:	9c01      	ldr	r4, [sp, #4]
   2265e:	1c60      	adds	r0, r4, #1
   22660:	2218      	movs	r2, #24
   22662:	4629      	mov	r1, r5
   22664:	f004 fe1b 	bl	2729e <__aeabi_memcpy>
   22668:	9e00      	ldr	r6, [sp, #0]
   2266a:	e7e4      	b.n	22636 <_ZN20complex_full_dynamic3app17h9a6755afacf16335E+0x7a>
   2266c:	00002156 	.word	0x00002156

00022670 <_ZN20complex_full_dynamic3app17h9c61f4e0135a2f6aE>:
   22670:	b5f0      	push	{r4, r5, r6, r7, lr}
   22672:	af03      	add	r7, sp, #12
   22674:	b0b7      	sub	sp, #220	@ 0xdc
   22676:	9003      	str	r0, [sp, #12]
   22678:	ad04      	add	r5, sp, #16
   2267a:	2602      	movs	r6, #2
   2267c:	722e      	strb	r6, [r5, #8]
   2267e:	350c      	adds	r5, #12
   22680:	224f      	movs	r2, #79	@ 0x4f
   22682:	9202      	str	r2, [sp, #8]
   22684:	4628      	mov	r0, r5
   22686:	f004 fe0a 	bl	2729e <__aeabi_memcpy>
   2268a:	ac1b      	add	r4, sp, #108	@ 0x6c
   2268c:	4620      	mov	r0, r4
   2268e:	300c      	adds	r0, #12
   22690:	2161      	movs	r1, #97	@ 0x61
   22692:	9001      	str	r0, [sp, #4]
   22694:	f004 fc56 	bl	26f44 <__aeabi_memclr4>
   22698:	7226      	strb	r6, [r4, #8]
   2269a:	4634      	mov	r4, r6
   2269c:	20db      	movs	r0, #219	@ 0xdb
   2269e:	0046      	lsls	r6, r0, #1
   226a0:	4630      	mov	r0, r6
   226a2:	4621      	mov	r1, r4
   226a4:	462a      	mov	r2, r5
   226a6:	9b02      	ldr	r3, [sp, #8]
   226a8:	df04      	svc	4
   226aa:	2802      	cmp	r0, #2
   226ac:	d01a      	beq.n	226e4 <_ZN20complex_full_dynamic3app17h9c61f4e0135a2f6aE+0x74>
   226ae:	a804      	add	r0, sp, #16
   226b0:	2104      	movs	r1, #4
   226b2:	7201      	strb	r1, [r0, #8]
   226b4:	9405      	str	r4, [sp, #20]
   226b6:	9604      	str	r6, [sp, #16]
   226b8:	2508      	movs	r5, #8
   226ba:	2361      	movs	r3, #97	@ 0x61
   226bc:	4630      	mov	r0, r6
   226be:	4629      	mov	r1, r5
   226c0:	9c01      	ldr	r4, [sp, #4]
   226c2:	4622      	mov	r2, r4
   226c4:	df03      	svc	3
   226c6:	2802      	cmp	r0, #2
   226c8:	d00c      	beq.n	226e4 <_ZN20complex_full_dynamic3app17h9c61f4e0135a2f6aE+0x74>
   226ca:	a81b      	add	r0, sp, #108	@ 0x6c
   226cc:	2103      	movs	r1, #3
   226ce:	7201      	strb	r1, [r0, #8]
   226d0:	961b      	str	r6, [sp, #108]	@ 0x6c
   226d2:	951c      	str	r5, [sp, #112]	@ 0x70
   226d4:	2102      	movs	r1, #2
   226d6:	4630      	mov	r0, r6
   226d8:	2600      	movs	r6, #0
   226da:	462a      	mov	r2, r5
   226dc:	4633      	mov	r3, r6
   226de:	df02      	svc	2
   226e0:	287f      	cmp	r0, #127	@ 0x7f
   226e2:	d80b      	bhi.n	226fc <_ZN20complex_full_dynamic3app17h9c61f4e0135a2f6aE+0x8c>
   226e4:	9c03      	ldr	r4, [sp, #12]
   226e6:	6061      	str	r1, [r4, #4]
   226e8:	2601      	movs	r6, #1
   226ea:	7026      	strb	r6, [r4, #0]
   226ec:	a81b      	add	r0, sp, #108	@ 0x6c
   226ee:	f004 fc15 	bl	26f1c <_ZN9allow_pin12full_dynamic17unshare_if_shared17h02646414dc25e2d7E>
   226f2:	a804      	add	r0, sp, #16
   226f4:	f004 fc12 	bl	26f1c <_ZN9allow_pin12full_dynamic17unshare_if_shared17h02646414dc25e2d7E>
   226f8:	b037      	add	sp, #220	@ 0xdc
   226fa:	bdf0      	pop	{r4, r5, r6, r7, pc}
   226fc:	a804      	add	r0, sp, #16
   226fe:	f004 fc0d 	bl	26f1c <_ZN9allow_pin12full_dynamic17unshare_if_shared17h02646414dc25e2d7E>
   22702:	4625      	mov	r5, r4
   22704:	ac1b      	add	r4, sp, #108	@ 0x6c
   22706:	4620      	mov	r0, r4
   22708:	f004 fc08 	bl	26f1c <_ZN9allow_pin12full_dynamic17unshare_if_shared17h02646414dc25e2d7E>
   2270c:	4620      	mov	r0, r4
   2270e:	f004 fc05 	bl	26f1c <_ZN9allow_pin12full_dynamic17unshare_if_shared17h02646414dc25e2d7E>
   22712:	9c03      	ldr	r4, [sp, #12]
   22714:	1c60      	adds	r0, r4, #1
   22716:	2261      	movs	r2, #97	@ 0x61
   22718:	4629      	mov	r1, r5
   2271a:	f004 fdc0 	bl	2729e <__aeabi_memcpy>
   2271e:	e7e4      	b.n	226ea <_ZN20complex_full_dynamic3app17h9c61f4e0135a2f6aE+0x7a>

00022720 <_ZN20complex_full_dynamic3app17h9ef09fe28253f574E>:
   22720:	b5f0      	push	{r4, r5, r6, r7, lr}
   22722:	af03      	add	r7, sp, #12
   22724:	b0a1      	sub	sp, #132	@ 0x84
   22726:	9002      	str	r0, [sp, #8]
   22728:	ac03      	add	r4, sp, #12
   2272a:	2602      	movs	r6, #2
   2272c:	7226      	strb	r6, [r4, #8]
   2272e:	340c      	adds	r4, #12
   22730:	2238      	movs	r2, #56	@ 0x38
   22732:	9201      	str	r2, [sp, #4]
   22734:	4620      	mov	r0, r4
   22736:	f004 fdb2 	bl	2729e <__aeabi_memcpy>
   2273a:	ad14      	add	r5, sp, #80	@ 0x50
   2273c:	4628      	mov	r0, r5
   2273e:	300c      	adds	r0, #12
   22740:	2127      	movs	r1, #39	@ 0x27
   22742:	9000      	str	r0, [sp, #0]
   22744:	f004 fbfe 	bl	26f44 <__aeabi_memclr4>
   22748:	722e      	strb	r6, [r5, #8]
   2274a:	4635      	mov	r5, r6
   2274c:	4e1f      	ldr	r6, [pc, #124]	@ (227cc <_ZN20complex_full_dynamic3app17h9ef09fe28253f574E+0xac>)
   2274e:	4630      	mov	r0, r6
   22750:	4629      	mov	r1, r5
   22752:	4622      	mov	r2, r4
   22754:	9b01      	ldr	r3, [sp, #4]
   22756:	df04      	svc	4
   22758:	2802      	cmp	r0, #2
   2275a:	d01a      	beq.n	22792 <_ZN20complex_full_dynamic3app17h9ef09fe28253f574E+0x72>
   2275c:	a803      	add	r0, sp, #12
   2275e:	2104      	movs	r1, #4
   22760:	7201      	strb	r1, [r0, #8]
   22762:	9504      	str	r5, [sp, #16]
   22764:	9603      	str	r6, [sp, #12]
   22766:	2408      	movs	r4, #8
   22768:	2327      	movs	r3, #39	@ 0x27
   2276a:	4630      	mov	r0, r6
   2276c:	4621      	mov	r1, r4
   2276e:	9d00      	ldr	r5, [sp, #0]
   22770:	462a      	mov	r2, r5
   22772:	df03      	svc	3
   22774:	2802      	cmp	r0, #2
   22776:	d00c      	beq.n	22792 <_ZN20complex_full_dynamic3app17h9ef09fe28253f574E+0x72>
   22778:	a814      	add	r0, sp, #80	@ 0x50
   2277a:	2103      	movs	r1, #3
   2277c:	7201      	strb	r1, [r0, #8]
   2277e:	9614      	str	r6, [sp, #80]	@ 0x50
   22780:	9415      	str	r4, [sp, #84]	@ 0x54
   22782:	4812      	ldr	r0, [pc, #72]	@ (227cc <_ZN20complex_full_dynamic3app17h9ef09fe28253f574E+0xac>)
   22784:	2102      	movs	r1, #2
   22786:	2600      	movs	r6, #0
   22788:	4622      	mov	r2, r4
   2278a:	4633      	mov	r3, r6
   2278c:	df02      	svc	2
   2278e:	287f      	cmp	r0, #127	@ 0x7f
   22790:	d80b      	bhi.n	227aa <_ZN20complex_full_dynamic3app17h9ef09fe28253f574E+0x8a>
   22792:	9c02      	ldr	r4, [sp, #8]
   22794:	6061      	str	r1, [r4, #4]
   22796:	2601      	movs	r6, #1
   22798:	7026      	strb	r6, [r4, #0]
   2279a:	a814      	add	r0, sp, #80	@ 0x50
   2279c:	f004 fbbe 	bl	26f1c <_ZN9allow_pin12full_dynamic17unshare_if_shared17h02646414dc25e2d7E>
   227a0:	a803      	add	r0, sp, #12
   227a2:	f004 fbbb 	bl	26f1c <_ZN9allow_pin12full_dynamic17unshare_if_shared17h02646414dc25e2d7E>
   227a6:	b021      	add	sp, #132	@ 0x84
   227a8:	bdf0      	pop	{r4, r5, r6, r7, pc}
   227aa:	a803      	add	r0, sp, #12
   227ac:	f004 fbb6 	bl	26f1c <_ZN9allow_pin12full_dynamic17unshare_if_shared17h02646414dc25e2d7E>
   227b0:	ac14      	add	r4, sp, #80	@ 0x50
   227b2:	4620      	mov	r0, r4
   227b4:	f004 fbb2 	bl	26f1c <_ZN9allow_pin12full_dynamic17unshare_if_shared17h02646414dc25e2d7E>
   227b8:	4620      	mov	r0, r4
   227ba:	f004 fbaf 	bl	26f1c <_ZN9allow_pin12full_dynamic17unshare_if_shared17h02646414dc25e2d7E>
   227be:	9c02      	ldr	r4, [sp, #8]
   227c0:	1c60      	adds	r0, r4, #1
   227c2:	2227      	movs	r2, #39	@ 0x27
   227c4:	4629      	mov	r1, r5
   227c6:	f004 fd6a 	bl	2729e <__aeabi_memcpy>
   227ca:	e7e5      	b.n	22798 <_ZN20complex_full_dynamic3app17h9ef09fe28253f574E+0x78>
   227cc:	00000e2b 	.word	0x00000e2b

000227d0 <_ZN20complex_full_dynamic3app17ha0382e83de386d15E>:
   227d0:	b5f0      	push	{r4, r5, r6, r7, lr}
   227d2:	af03      	add	r7, sp, #12
   227d4:	b0b3      	sub	sp, #204	@ 0xcc
   227d6:	9003      	str	r0, [sp, #12]
   227d8:	ac04      	add	r4, sp, #16
   227da:	2602      	movs	r6, #2
   227dc:	7226      	strb	r6, [r4, #8]
   227de:	340c      	adds	r4, #12
   227e0:	2251      	movs	r2, #81	@ 0x51
   227e2:	9202      	str	r2, [sp, #8]
   227e4:	4620      	mov	r0, r4
   227e6:	f004 fd5a 	bl	2729e <__aeabi_memcpy>
   227ea:	ad1c      	add	r5, sp, #112	@ 0x70
   227ec:	4628      	mov	r0, r5
   227ee:	300c      	adds	r0, #12
   227f0:	214f      	movs	r1, #79	@ 0x4f
   227f2:	9001      	str	r0, [sp, #4]
   227f4:	f004 fba6 	bl	26f44 <__aeabi_memclr4>
   227f8:	722e      	strb	r6, [r5, #8]
   227fa:	4635      	mov	r5, r6
   227fc:	4e1f      	ldr	r6, [pc, #124]	@ (2287c <_ZN20complex_full_dynamic3app17ha0382e83de386d15E+0xac>)
   227fe:	4630      	mov	r0, r6
   22800:	4629      	mov	r1, r5
   22802:	4622      	mov	r2, r4
   22804:	9b02      	ldr	r3, [sp, #8]
   22806:	df04      	svc	4
   22808:	2802      	cmp	r0, #2
   2280a:	d019      	beq.n	22840 <_ZN20complex_full_dynamic3app17ha0382e83de386d15E+0x70>
   2280c:	a804      	add	r0, sp, #16
   2280e:	2404      	movs	r4, #4
   22810:	7204      	strb	r4, [r0, #8]
   22812:	9505      	str	r5, [sp, #20]
   22814:	9604      	str	r6, [sp, #16]
   22816:	234f      	movs	r3, #79	@ 0x4f
   22818:	4630      	mov	r0, r6
   2281a:	4621      	mov	r1, r4
   2281c:	9d01      	ldr	r5, [sp, #4]
   2281e:	462a      	mov	r2, r5
   22820:	df03      	svc	3
   22822:	2802      	cmp	r0, #2
   22824:	d00c      	beq.n	22840 <_ZN20complex_full_dynamic3app17ha0382e83de386d15E+0x70>
   22826:	a81c      	add	r0, sp, #112	@ 0x70
   22828:	2103      	movs	r1, #3
   2282a:	7201      	strb	r1, [r0, #8]
   2282c:	961c      	str	r6, [sp, #112]	@ 0x70
   2282e:	941d      	str	r4, [sp, #116]	@ 0x74
   22830:	4812      	ldr	r0, [pc, #72]	@ (2287c <_ZN20complex_full_dynamic3app17ha0382e83de386d15E+0xac>)
   22832:	2102      	movs	r1, #2
   22834:	2600      	movs	r6, #0
   22836:	4622      	mov	r2, r4
   22838:	4633      	mov	r3, r6
   2283a:	df02      	svc	2
   2283c:	287f      	cmp	r0, #127	@ 0x7f
   2283e:	d80b      	bhi.n	22858 <_ZN20complex_full_dynamic3app17ha0382e83de386d15E+0x88>
   22840:	9c03      	ldr	r4, [sp, #12]
   22842:	6061      	str	r1, [r4, #4]
   22844:	2601      	movs	r6, #1
   22846:	7026      	strb	r6, [r4, #0]
   22848:	a81c      	add	r0, sp, #112	@ 0x70
   2284a:	f004 fb67 	bl	26f1c <_ZN9allow_pin12full_dynamic17unshare_if_shared17h02646414dc25e2d7E>
   2284e:	a804      	add	r0, sp, #16
   22850:	f004 fb64 	bl	26f1c <_ZN9allow_pin12full_dynamic17unshare_if_shared17h02646414dc25e2d7E>
   22854:	b033      	add	sp, #204	@ 0xcc
   22856:	bdf0      	pop	{r4, r5, r6, r7, pc}
   22858:	a804      	add	r0, sp, #16
   2285a:	f004 fb5f 	bl	26f1c <_ZN9allow_pin12full_dynamic17unshare_if_shared17h02646414dc25e2d7E>
   2285e:	ac1c      	add	r4, sp, #112	@ 0x70
   22860:	4620      	mov	r0, r4
   22862:	f004 fb5b 	bl	26f1c <_ZN9allow_pin12full_dynamic17unshare_if_shared17h02646414dc25e2d7E>
   22866:	4620      	mov	r0, r4
   22868:	f004 fb58 	bl	26f1c <_ZN9allow_pin12full_dynamic17unshare_if_shared17h02646414dc25e2d7E>
   2286c:	9c03      	ldr	r4, [sp, #12]
   2286e:	1c60      	adds	r0, r4, #1
   22870:	224f      	movs	r2, #79	@ 0x4f
   22872:	4629      	mov	r1, r5
   22874:	f004 fd13 	bl	2729e <__aeabi_memcpy>
   22878:	e7e5      	b.n	22846 <_ZN20complex_full_dynamic3app17ha0382e83de386d15E+0x76>
   2287a:	46c0      	nop			@ (mov r8, r8)
   2287c:	00000e16 	.word	0x00000e16

00022880 <_ZN20complex_full_dynamic3app17ha19209ca1396392eE>:
   22880:	b5f0      	push	{r4, r5, r6, r7, lr}
   22882:	af03      	add	r7, sp, #12
   22884:	b09f      	sub	sp, #124	@ 0x7c
   22886:	9003      	str	r0, [sp, #12]
   22888:	ac04      	add	r4, sp, #16
   2288a:	2002      	movs	r0, #2
   2288c:	9002      	str	r0, [sp, #8]
   2288e:	7220      	strb	r0, [r4, #8]
   22890:	340c      	adds	r4, #12
   22892:	222a      	movs	r2, #42	@ 0x2a
   22894:	9201      	str	r2, [sp, #4]
   22896:	4620      	mov	r0, r4
   22898:	f004 fd01 	bl	2729e <__aeabi_memcpy>
   2289c:	ae12      	add	r6, sp, #72	@ 0x48
   2289e:	4635      	mov	r5, r6
   228a0:	350c      	adds	r5, #12
   228a2:	2128      	movs	r1, #40	@ 0x28
   228a4:	4628      	mov	r0, r5
   228a6:	f004 fb4d 	bl	26f44 <__aeabi_memclr4>
   228aa:	9802      	ldr	r0, [sp, #8]
   228ac:	7230      	strb	r0, [r6, #8]
   228ae:	481f      	ldr	r0, [pc, #124]	@ (2292c <_ZN20complex_full_dynamic3app17ha19209ca1396392eE+0xac>)
   228b0:	2604      	movs	r6, #4
   228b2:	4631      	mov	r1, r6
   228b4:	4622      	mov	r2, r4
   228b6:	9b01      	ldr	r3, [sp, #4]
   228b8:	df04      	svc	4
   228ba:	2802      	cmp	r0, #2
   228bc:	d019      	beq.n	228f2 <_ZN20complex_full_dynamic3app17ha19209ca1396392eE+0x72>
   228be:	a804      	add	r0, sp, #16
   228c0:	7206      	strb	r6, [r0, #8]
   228c2:	9605      	str	r6, [sp, #20]
   228c4:	4e19      	ldr	r6, [pc, #100]	@ (2292c <_ZN20complex_full_dynamic3app17ha19209ca1396392eE+0xac>)
   228c6:	9604      	str	r6, [sp, #16]
   228c8:	2408      	movs	r4, #8
   228ca:	2328      	movs	r3, #40	@ 0x28
   228cc:	4630      	mov	r0, r6
   228ce:	4621      	mov	r1, r4
   228d0:	462a      	mov	r2, r5
   228d2:	df03      	svc	3
   228d4:	2802      	cmp	r0, #2
   228d6:	d00c      	beq.n	228f2 <_ZN20complex_full_dynamic3app17ha19209ca1396392eE+0x72>
   228d8:	a812      	add	r0, sp, #72	@ 0x48
   228da:	2103      	movs	r1, #3
   228dc:	7201      	strb	r1, [r0, #8]
   228de:	9612      	str	r6, [sp, #72]	@ 0x48
   228e0:	9413      	str	r4, [sp, #76]	@ 0x4c
   228e2:	4812      	ldr	r0, [pc, #72]	@ (2292c <_ZN20complex_full_dynamic3app17ha19209ca1396392eE+0xac>)
   228e4:	2104      	movs	r1, #4
   228e6:	2600      	movs	r6, #0
   228e8:	4622      	mov	r2, r4
   228ea:	4633      	mov	r3, r6
   228ec:	df02      	svc	2
   228ee:	287f      	cmp	r0, #127	@ 0x7f
   228f0:	d80b      	bhi.n	2290a <_ZN20complex_full_dynamic3app17ha19209ca1396392eE+0x8a>
   228f2:	9c03      	ldr	r4, [sp, #12]
   228f4:	6061      	str	r1, [r4, #4]
   228f6:	2601      	movs	r6, #1
   228f8:	7026      	strb	r6, [r4, #0]
   228fa:	a812      	add	r0, sp, #72	@ 0x48
   228fc:	f004 fb0e 	bl	26f1c <_ZN9allow_pin12full_dynamic17unshare_if_shared17h02646414dc25e2d7E>
   22900:	a804      	add	r0, sp, #16
   22902:	f004 fb0b 	bl	26f1c <_ZN9allow_pin12full_dynamic17unshare_if_shared17h02646414dc25e2d7E>
   22906:	b01f      	add	sp, #124	@ 0x7c
   22908:	bdf0      	pop	{r4, r5, r6, r7, pc}
   2290a:	a804      	add	r0, sp, #16
   2290c:	f004 fb06 	bl	26f1c <_ZN9allow_pin12full_dynamic17unshare_if_shared17h02646414dc25e2d7E>
   22910:	ac12      	add	r4, sp, #72	@ 0x48
   22912:	4620      	mov	r0, r4
   22914:	f004 fb02 	bl	26f1c <_ZN9allow_pin12full_dynamic17unshare_if_shared17h02646414dc25e2d7E>
   22918:	4620      	mov	r0, r4
   2291a:	f004 faff 	bl	26f1c <_ZN9allow_pin12full_dynamic17unshare_if_shared17h02646414dc25e2d7E>
   2291e:	9c03      	ldr	r4, [sp, #12]
   22920:	1c60      	adds	r0, r4, #1
   22922:	2228      	movs	r2, #40	@ 0x28
   22924:	4629      	mov	r1, r5
   22926:	f004 fcba 	bl	2729e <__aeabi_memcpy>
   2292a:	e7e5      	b.n	228f8 <_ZN20complex_full_dynamic3app17ha19209ca1396392eE+0x78>
   2292c:	00001efa 	.word	0x00001efa

00022930 <_ZN20complex_full_dynamic3app17ha77bfe84dae9010bE>:
   22930:	b5f0      	push	{r4, r5, r6, r7, lr}
   22932:	af03      	add	r7, sp, #12
   22934:	b0b1      	sub	sp, #196	@ 0xc4
   22936:	9002      	str	r0, [sp, #8]
   22938:	ac03      	add	r4, sp, #12
   2293a:	2002      	movs	r0, #2
   2293c:	9001      	str	r0, [sp, #4]
   2293e:	7220      	strb	r0, [r4, #8]
   22940:	340c      	adds	r4, #12
   22942:	2246      	movs	r2, #70	@ 0x46
   22944:	9200      	str	r2, [sp, #0]
   22946:	4620      	mov	r0, r4
   22948:	f004 fca9 	bl	2729e <__aeabi_memcpy>
   2294c:	ae18      	add	r6, sp, #96	@ 0x60
   2294e:	4635      	mov	r5, r6
   22950:	350c      	adds	r5, #12
   22952:	2156      	movs	r1, #86	@ 0x56
   22954:	4628      	mov	r0, r5
   22956:	f004 faf5 	bl	26f44 <__aeabi_memclr4>
   2295a:	9801      	ldr	r0, [sp, #4]
   2295c:	7230      	strb	r0, [r6, #8]
   2295e:	481f      	ldr	r0, [pc, #124]	@ (229dc <_ZN20complex_full_dynamic3app17ha77bfe84dae9010bE+0xac>)
   22960:	2607      	movs	r6, #7
   22962:	4631      	mov	r1, r6
   22964:	4622      	mov	r2, r4
   22966:	9b00      	ldr	r3, [sp, #0]
   22968:	df04      	svc	4
   2296a:	2802      	cmp	r0, #2
   2296c:	d019      	beq.n	229a2 <_ZN20complex_full_dynamic3app17ha77bfe84dae9010bE+0x72>
   2296e:	a803      	add	r0, sp, #12
   22970:	2104      	movs	r1, #4
   22972:	7201      	strb	r1, [r0, #8]
   22974:	9604      	str	r6, [sp, #16]
   22976:	4e19      	ldr	r6, [pc, #100]	@ (229dc <_ZN20complex_full_dynamic3app17ha77bfe84dae9010bE+0xac>)
   22978:	9603      	str	r6, [sp, #12]
   2297a:	2403      	movs	r4, #3
   2297c:	2356      	movs	r3, #86	@ 0x56
   2297e:	4630      	mov	r0, r6
   22980:	4621      	mov	r1, r4
   22982:	462a      	mov	r2, r5
   22984:	df03      	svc	3
   22986:	2802      	cmp	r0, #2
   22988:	d00b      	beq.n	229a2 <_ZN20complex_full_dynamic3app17ha77bfe84dae9010bE+0x72>
   2298a:	a818      	add	r0, sp, #96	@ 0x60
   2298c:	7204      	strb	r4, [r0, #8]
   2298e:	9419      	str	r4, [sp, #100]	@ 0x64
   22990:	9618      	str	r6, [sp, #96]	@ 0x60
   22992:	4812      	ldr	r0, [pc, #72]	@ (229dc <_ZN20complex_full_dynamic3app17ha77bfe84dae9010bE+0xac>)
   22994:	2107      	movs	r1, #7
   22996:	2600      	movs	r6, #0
   22998:	4622      	mov	r2, r4
   2299a:	4633      	mov	r3, r6
   2299c:	df02      	svc	2
   2299e:	287f      	cmp	r0, #127	@ 0x7f
   229a0:	d80b      	bhi.n	229ba <_ZN20complex_full_dynamic3app17ha77bfe84dae9010bE+0x8a>
   229a2:	9c02      	ldr	r4, [sp, #8]
   229a4:	6061      	str	r1, [r4, #4]
   229a6:	2601      	movs	r6, #1
   229a8:	7026      	strb	r6, [r4, #0]
   229aa:	a818      	add	r0, sp, #96	@ 0x60
   229ac:	f004 fab6 	bl	26f1c <_ZN9allow_pin12full_dynamic17unshare_if_shared17h02646414dc25e2d7E>
   229b0:	a803      	add	r0, sp, #12
   229b2:	f004 fab3 	bl	26f1c <_ZN9allow_pin12full_dynamic17unshare_if_shared17h02646414dc25e2d7E>
   229b6:	b031      	add	sp, #196	@ 0xc4
   229b8:	bdf0      	pop	{r4, r5, r6, r7, pc}
   229ba:	a803      	add	r0, sp, #12
   229bc:	f004 faae 	bl	26f1c <_ZN9allow_pin12full_dynamic17unshare_if_shared17h02646414dc25e2d7E>
   229c0:	ac18      	add	r4, sp, #96	@ 0x60
   229c2:	4620      	mov	r0, r4
   229c4:	f004 faaa 	bl	26f1c <_ZN9allow_pin12full_dynamic17unshare_if_shared17h02646414dc25e2d7E>
   229c8:	4620      	mov	r0, r4
   229ca:	f004 faa7 	bl	26f1c <_ZN9allow_pin12full_dynamic17unshare_if_shared17h02646414dc25e2d7E>
   229ce:	9c02      	ldr	r4, [sp, #8]
   229d0:	1c60      	adds	r0, r4, #1
   229d2:	2256      	movs	r2, #86	@ 0x56
   229d4:	4629      	mov	r1, r5
   229d6:	f004 fc62 	bl	2729e <__aeabi_memcpy>
   229da:	e7e5      	b.n	229a8 <_ZN20complex_full_dynamic3app17ha77bfe84dae9010bE+0x78>
   229dc:	00001e50 	.word	0x00001e50

000229e0 <_ZN20complex_full_dynamic3app17hae0d4cc3e607abd9E>:
   229e0:	b5f0      	push	{r4, r5, r6, r7, lr}
   229e2:	af03      	add	r7, sp, #12
   229e4:	b0b3      	sub	sp, #204	@ 0xcc
   229e6:	9003      	str	r0, [sp, #12]
   229e8:	ac04      	add	r4, sp, #16
   229ea:	2002      	movs	r0, #2
   229ec:	9002      	str	r0, [sp, #8]
   229ee:	7220      	strb	r0, [r4, #8]
   229f0:	340c      	adds	r4, #12
   229f2:	2253      	movs	r2, #83	@ 0x53
   229f4:	9201      	str	r2, [sp, #4]
   229f6:	4620      	mov	r0, r4
   229f8:	f004 fc51 	bl	2729e <__aeabi_memcpy>
   229fc:	ae1c      	add	r6, sp, #112	@ 0x70
   229fe:	4635      	mov	r5, r6
   22a00:	350c      	adds	r5, #12
   22a02:	214d      	movs	r1, #77	@ 0x4d
   22a04:	4628      	mov	r0, r5
   22a06:	f004 fa9d 	bl	26f44 <__aeabi_memclr4>
   22a0a:	9802      	ldr	r0, [sp, #8]
   22a0c:	7230      	strb	r0, [r6, #8]
   22a0e:	481f      	ldr	r0, [pc, #124]	@ (22a8c <_ZN20complex_full_dynamic3app17hae0d4cc3e607abd9E+0xac>)
   22a10:	2609      	movs	r6, #9
   22a12:	4631      	mov	r1, r6
   22a14:	4622      	mov	r2, r4
   22a16:	9b01      	ldr	r3, [sp, #4]
   22a18:	df04      	svc	4
   22a1a:	2802      	cmp	r0, #2
   22a1c:	d019      	beq.n	22a52 <_ZN20complex_full_dynamic3app17hae0d4cc3e607abd9E+0x72>
   22a1e:	a804      	add	r0, sp, #16
   22a20:	2404      	movs	r4, #4
   22a22:	7204      	strb	r4, [r0, #8]
   22a24:	9605      	str	r6, [sp, #20]
   22a26:	4e19      	ldr	r6, [pc, #100]	@ (22a8c <_ZN20complex_full_dynamic3app17hae0d4cc3e607abd9E+0xac>)
   22a28:	9604      	str	r6, [sp, #16]
   22a2a:	234d      	movs	r3, #77	@ 0x4d
   22a2c:	4630      	mov	r0, r6
   22a2e:	4621      	mov	r1, r4
   22a30:	462a      	mov	r2, r5
   22a32:	df03      	svc	3
   22a34:	2802      	cmp	r0, #2
   22a36:	d00c      	beq.n	22a52 <_ZN20complex_full_dynamic3app17hae0d4cc3e607abd9E+0x72>
   22a38:	a81c      	add	r0, sp, #112	@ 0x70
   22a3a:	2103      	movs	r1, #3
   22a3c:	7201      	strb	r1, [r0, #8]
   22a3e:	961c      	str	r6, [sp, #112]	@ 0x70
   22a40:	941d      	str	r4, [sp, #116]	@ 0x74
   22a42:	4812      	ldr	r0, [pc, #72]	@ (22a8c <_ZN20complex_full_dynamic3app17hae0d4cc3e607abd9E+0xac>)
   22a44:	2109      	movs	r1, #9
   22a46:	2600      	movs	r6, #0
   22a48:	4622      	mov	r2, r4
   22a4a:	4633      	mov	r3, r6
   22a4c:	df02      	svc	2
   22a4e:	287f      	cmp	r0, #127	@ 0x7f
   22a50:	d80b      	bhi.n	22a6a <_ZN20complex_full_dynamic3app17hae0d4cc3e607abd9E+0x8a>
   22a52:	9c03      	ldr	r4, [sp, #12]
   22a54:	6061      	str	r1, [r4, #4]
   22a56:	2601      	movs	r6, #1
   22a58:	7026      	strb	r6, [r4, #0]
   22a5a:	a81c      	add	r0, sp, #112	@ 0x70
   22a5c:	f004 fa5e 	bl	26f1c <_ZN9allow_pin12full_dynamic17unshare_if_shared17h02646414dc25e2d7E>
   22a60:	a804      	add	r0, sp, #16
   22a62:	f004 fa5b 	bl	26f1c <_ZN9allow_pin12full_dynamic17unshare_if_shared17h02646414dc25e2d7E>
   22a66:	b033      	add	sp, #204	@ 0xcc
   22a68:	bdf0      	pop	{r4, r5, r6, r7, pc}
   22a6a:	a804      	add	r0, sp, #16
   22a6c:	f004 fa56 	bl	26f1c <_ZN9allow_pin12full_dynamic17unshare_if_shared17h02646414dc25e2d7E>
   22a70:	ac1c      	add	r4, sp, #112	@ 0x70
   22a72:	4620      	mov	r0, r4
   22a74:	f004 fa52 	bl	26f1c <_ZN9allow_pin12full_dynamic17unshare_if_shared17h02646414dc25e2d7E>
   22a78:	4620      	mov	r0, r4
   22a7a:	f004 fa4f 	bl	26f1c <_ZN9allow_pin12full_dynamic17unshare_if_shared17h02646414dc25e2d7E>
   22a7e:	9c03      	ldr	r4, [sp, #12]
   22a80:	1c60      	adds	r0, r4, #1
   22a82:	224d      	movs	r2, #77	@ 0x4d
   22a84:	4629      	mov	r1, r5
   22a86:	f004 fc0a 	bl	2729e <__aeabi_memcpy>
   22a8a:	e7e5      	b.n	22a58 <_ZN20complex_full_dynamic3app17hae0d4cc3e607abd9E+0x78>
   22a8c:	000016ba 	.word	0x000016ba

00022a90 <_ZN20complex_full_dynamic3app17hb3ed3a0cfb1a575dE>:
   22a90:	b5f0      	push	{r4, r5, r6, r7, lr}
   22a92:	af03      	add	r7, sp, #12
   22a94:	b0ad      	sub	sp, #180	@ 0xb4
   22a96:	9003      	str	r0, [sp, #12]
   22a98:	ae04      	add	r6, sp, #16
   22a9a:	2002      	movs	r0, #2
   22a9c:	9002      	str	r0, [sp, #8]
   22a9e:	7230      	strb	r0, [r6, #8]
   22aa0:	360c      	adds	r6, #12
   22aa2:	2255      	movs	r2, #85	@ 0x55
   22aa4:	9201      	str	r2, [sp, #4]
   22aa6:	4630      	mov	r0, r6
   22aa8:	f004 fbf9 	bl	2729e <__aeabi_memcpy>
   22aac:	ad1d      	add	r5, sp, #116	@ 0x74
   22aae:	462c      	mov	r4, r5
   22ab0:	340c      	adds	r4, #12
   22ab2:	2132      	movs	r1, #50	@ 0x32
   22ab4:	4620      	mov	r0, r4
   22ab6:	f004 fa45 	bl	26f44 <__aeabi_memclr4>
   22aba:	9802      	ldr	r0, [sp, #8]
   22abc:	7228      	strb	r0, [r5, #8]
   22abe:	4820      	ldr	r0, [pc, #128]	@ (22b40 <_ZN20complex_full_dynamic3app17hb3ed3a0cfb1a575dE+0xb0>)
   22ac0:	2508      	movs	r5, #8
   22ac2:	4629      	mov	r1, r5
   22ac4:	4632      	mov	r2, r6
   22ac6:	9b01      	ldr	r3, [sp, #4]
   22ac8:	df04      	svc	4
   22aca:	2802      	cmp	r0, #2
   22acc:	d019      	beq.n	22b02 <_ZN20complex_full_dynamic3app17hb3ed3a0cfb1a575dE+0x72>
   22ace:	a804      	add	r0, sp, #16
   22ad0:	2104      	movs	r1, #4
   22ad2:	7201      	strb	r1, [r0, #8]
   22ad4:	4e1a      	ldr	r6, [pc, #104]	@ (22b40 <_ZN20complex_full_dynamic3app17hb3ed3a0cfb1a575dE+0xb0>)
   22ad6:	9604      	str	r6, [sp, #16]
   22ad8:	9505      	str	r5, [sp, #20]
   22ada:	2332      	movs	r3, #50	@ 0x32
   22adc:	4630      	mov	r0, r6
   22ade:	4629      	mov	r1, r5
   22ae0:	4622      	mov	r2, r4
   22ae2:	df03      	svc	3
   22ae4:	2802      	cmp	r0, #2
   22ae6:	d00c      	beq.n	22b02 <_ZN20complex_full_dynamic3app17hb3ed3a0cfb1a575dE+0x72>
   22ae8:	a81d      	add	r0, sp, #116	@ 0x74
   22aea:	2103      	movs	r1, #3
   22aec:	7201      	strb	r1, [r0, #8]
   22aee:	961d      	str	r6, [sp, #116]	@ 0x74
   22af0:	951e      	str	r5, [sp, #120]	@ 0x78
   22af2:	4813      	ldr	r0, [pc, #76]	@ (22b40 <_ZN20complex_full_dynamic3app17hb3ed3a0cfb1a575dE+0xb0>)
   22af4:	2600      	movs	r6, #0
   22af6:	4629      	mov	r1, r5
   22af8:	462a      	mov	r2, r5
   22afa:	4633      	mov	r3, r6
   22afc:	df02      	svc	2
   22afe:	287f      	cmp	r0, #127	@ 0x7f
   22b00:	d80b      	bhi.n	22b1a <_ZN20complex_full_dynamic3app17hb3ed3a0cfb1a575dE+0x8a>
   22b02:	9c03      	ldr	r4, [sp, #12]
   22b04:	6061      	str	r1, [r4, #4]
   22b06:	2601      	movs	r6, #1
   22b08:	7026      	strb	r6, [r4, #0]
   22b0a:	a81d      	add	r0, sp, #116	@ 0x74
   22b0c:	f004 fa06 	bl	26f1c <_ZN9allow_pin12full_dynamic17unshare_if_shared17h02646414dc25e2d7E>
   22b10:	a804      	add	r0, sp, #16
   22b12:	f004 fa03 	bl	26f1c <_ZN9allow_pin12full_dynamic17unshare_if_shared17h02646414dc25e2d7E>
   22b16:	b02d      	add	sp, #180	@ 0xb4
   22b18:	bdf0      	pop	{r4, r5, r6, r7, pc}
   22b1a:	a804      	add	r0, sp, #16
   22b1c:	f004 f9fe 	bl	26f1c <_ZN9allow_pin12full_dynamic17unshare_if_shared17h02646414dc25e2d7E>
   22b20:	4625      	mov	r5, r4
   22b22:	ac1d      	add	r4, sp, #116	@ 0x74
   22b24:	4620      	mov	r0, r4
   22b26:	f004 f9f9 	bl	26f1c <_ZN9allow_pin12full_dynamic17unshare_if_shared17h02646414dc25e2d7E>
   22b2a:	4620      	mov	r0, r4
   22b2c:	f004 f9f6 	bl	26f1c <_ZN9allow_pin12full_dynamic17unshare_if_shared17h02646414dc25e2d7E>
   22b30:	9c03      	ldr	r4, [sp, #12]
   22b32:	1c60      	adds	r0, r4, #1
   22b34:	2232      	movs	r2, #50	@ 0x32
   22b36:	4629      	mov	r1, r5
   22b38:	f004 fbb1 	bl	2729e <__aeabi_memcpy>
   22b3c:	e7e4      	b.n	22b08 <_ZN20complex_full_dynamic3app17hb3ed3a0cfb1a575dE+0x78>
   22b3e:	46c0      	nop			@ (mov r8, r8)
   22b40:	00002095 	.word	0x00002095

00022b44 <_ZN20complex_full_dynamic3app17hb4e19de41fa2631cE>:
   22b44:	b5f0      	push	{r4, r5, r6, r7, lr}
   22b46:	af03      	add	r7, sp, #12
   22b48:	b09d      	sub	sp, #116	@ 0x74
   22b4a:	9002      	str	r0, [sp, #8]
   22b4c:	ac03      	add	r4, sp, #12
   22b4e:	2602      	movs	r6, #2
   22b50:	7226      	strb	r6, [r4, #8]
   22b52:	340c      	adds	r4, #12
   22b54:	2223      	movs	r2, #35	@ 0x23
   22b56:	9201      	str	r2, [sp, #4]
   22b58:	4620      	mov	r0, r4
   22b5a:	f004 fba0 	bl	2729e <__aeabi_memcpy>
   22b5e:	ad0f      	add	r5, sp, #60	@ 0x3c
   22b60:	4628      	mov	r0, r5
   22b62:	300c      	adds	r0, #12
   22b64:	212b      	movs	r1, #43	@ 0x2b
   22b66:	9000      	str	r0, [sp, #0]
   22b68:	f004 f9ec 	bl	26f44 <__aeabi_memclr4>
   22b6c:	722e      	strb	r6, [r5, #8]
   22b6e:	4635      	mov	r5, r6
   22b70:	4e1f      	ldr	r6, [pc, #124]	@ (22bf0 <_ZN20complex_full_dynamic3app17hb4e19de41fa2631cE+0xac>)
   22b72:	4630      	mov	r0, r6
   22b74:	4629      	mov	r1, r5
   22b76:	4622      	mov	r2, r4
   22b78:	9b01      	ldr	r3, [sp, #4]
   22b7a:	df04      	svc	4
   22b7c:	2802      	cmp	r0, #2
   22b7e:	d01a      	beq.n	22bb6 <_ZN20complex_full_dynamic3app17hb4e19de41fa2631cE+0x72>
   22b80:	a803      	add	r0, sp, #12
   22b82:	2104      	movs	r1, #4
   22b84:	7201      	strb	r1, [r0, #8]
   22b86:	9504      	str	r5, [sp, #16]
   22b88:	9603      	str	r6, [sp, #12]
   22b8a:	2500      	movs	r5, #0
   22b8c:	232b      	movs	r3, #43	@ 0x2b
   22b8e:	4634      	mov	r4, r6
   22b90:	4630      	mov	r0, r6
   22b92:	4629      	mov	r1, r5
   22b94:	9e00      	ldr	r6, [sp, #0]
   22b96:	4632      	mov	r2, r6
   22b98:	df03      	svc	3
   22b9a:	2802      	cmp	r0, #2
   22b9c:	d00b      	beq.n	22bb6 <_ZN20complex_full_dynamic3app17hb4e19de41fa2631cE+0x72>
   22b9e:	a80f      	add	r0, sp, #60	@ 0x3c
   22ba0:	2103      	movs	r1, #3
   22ba2:	7201      	strb	r1, [r0, #8]
   22ba4:	940f      	str	r4, [sp, #60]	@ 0x3c
   22ba6:	9510      	str	r5, [sp, #64]	@ 0x40
   22ba8:	4811      	ldr	r0, [pc, #68]	@ (22bf0 <_ZN20complex_full_dynamic3app17hb4e19de41fa2631cE+0xac>)
   22baa:	2102      	movs	r1, #2
   22bac:	462a      	mov	r2, r5
   22bae:	462b      	mov	r3, r5
   22bb0:	df02      	svc	2
   22bb2:	287f      	cmp	r0, #127	@ 0x7f
   22bb4:	d80b      	bhi.n	22bce <_ZN20complex_full_dynamic3app17hb4e19de41fa2631cE+0x8a>
   22bb6:	9c02      	ldr	r4, [sp, #8]
   22bb8:	6061      	str	r1, [r4, #4]
   22bba:	2501      	movs	r5, #1
   22bbc:	7025      	strb	r5, [r4, #0]
   22bbe:	a80f      	add	r0, sp, #60	@ 0x3c
   22bc0:	f004 f9ac 	bl	26f1c <_ZN9allow_pin12full_dynamic17unshare_if_shared17h02646414dc25e2d7E>
   22bc4:	a803      	add	r0, sp, #12
   22bc6:	f004 f9a9 	bl	26f1c <_ZN9allow_pin12full_dynamic17unshare_if_shared17h02646414dc25e2d7E>
   22bca:	b01d      	add	sp, #116	@ 0x74
   22bcc:	bdf0      	pop	{r4, r5, r6, r7, pc}
   22bce:	a803      	add	r0, sp, #12
   22bd0:	f004 f9a4 	bl	26f1c <_ZN9allow_pin12full_dynamic17unshare_if_shared17h02646414dc25e2d7E>
   22bd4:	ac0f      	add	r4, sp, #60	@ 0x3c
   22bd6:	4620      	mov	r0, r4
   22bd8:	f004 f9a0 	bl	26f1c <_ZN9allow_pin12full_dynamic17unshare_if_shared17h02646414dc25e2d7E>
   22bdc:	4620      	mov	r0, r4
   22bde:	f004 f99d 	bl	26f1c <_ZN9allow_pin12full_dynamic17unshare_if_shared17h02646414dc25e2d7E>
   22be2:	9c02      	ldr	r4, [sp, #8]
   22be4:	1c60      	adds	r0, r4, #1
   22be6:	222b      	movs	r2, #43	@ 0x2b
   22be8:	4631      	mov	r1, r6
   22bea:	f004 fb58 	bl	2729e <__aeabi_memcpy>
   22bee:	e7e5      	b.n	22bbc <_ZN20complex_full_dynamic3app17hb4e19de41fa2631cE+0x78>
   22bf0:	00000d5d 	.word	0x00000d5d

00022bf4 <_ZN20complex_full_dynamic3app17hbabd3dd90ca69cacE>:
   22bf4:	b5f0      	push	{r4, r5, r6, r7, lr}
   22bf6:	af03      	add	r7, sp, #12
   22bf8:	b09f      	sub	sp, #124	@ 0x7c
   22bfa:	9003      	str	r0, [sp, #12]
   22bfc:	ac04      	add	r4, sp, #16
   22bfe:	2002      	movs	r0, #2
   22c00:	9002      	str	r0, [sp, #8]
   22c02:	7220      	strb	r0, [r4, #8]
   22c04:	340c      	adds	r4, #12
   22c06:	2225      	movs	r2, #37	@ 0x25
   22c08:	9201      	str	r2, [sp, #4]
   22c0a:	4620      	mov	r0, r4
   22c0c:	f004 fb47 	bl	2729e <__aeabi_memcpy>
   22c10:	ae11      	add	r6, sp, #68	@ 0x44
   22c12:	4635      	mov	r5, r6
   22c14:	350c      	adds	r5, #12
   22c16:	212a      	movs	r1, #42	@ 0x2a
   22c18:	4628      	mov	r0, r5
   22c1a:	f004 f993 	bl	26f44 <__aeabi_memclr4>
   22c1e:	9802      	ldr	r0, [sp, #8]
   22c20:	7230      	strb	r0, [r6, #8]
   22c22:	481f      	ldr	r0, [pc, #124]	@ (22ca0 <_ZN20complex_full_dynamic3app17hbabd3dd90ca69cacE+0xac>)
   22c24:	2600      	movs	r6, #0
   22c26:	4631      	mov	r1, r6
   22c28:	4622      	mov	r2, r4
   22c2a:	9b01      	ldr	r3, [sp, #4]
   22c2c:	df04      	svc	4
   22c2e:	2802      	cmp	r0, #2
   22c30:	d019      	beq.n	22c66 <_ZN20complex_full_dynamic3app17hbabd3dd90ca69cacE+0x72>
   22c32:	a804      	add	r0, sp, #16
   22c34:	2104      	movs	r1, #4
   22c36:	7201      	strb	r1, [r0, #8]
   22c38:	9605      	str	r6, [sp, #20]
   22c3a:	4e19      	ldr	r6, [pc, #100]	@ (22ca0 <_ZN20complex_full_dynamic3app17hbabd3dd90ca69cacE+0xac>)
   22c3c:	9604      	str	r6, [sp, #16]
   22c3e:	2403      	movs	r4, #3
   22c40:	232a      	movs	r3, #42	@ 0x2a
   22c42:	4630      	mov	r0, r6
   22c44:	4621      	mov	r1, r4
   22c46:	462a      	mov	r2, r5
   22c48:	df03      	svc	3
   22c4a:	2802      	cmp	r0, #2
   22c4c:	d00b      	beq.n	22c66 <_ZN20complex_full_dynamic3app17hbabd3dd90ca69cacE+0x72>
   22c4e:	a811      	add	r0, sp, #68	@ 0x44
   22c50:	7204      	strb	r4, [r0, #8]
   22c52:	9412      	str	r4, [sp, #72]	@ 0x48
   22c54:	9611      	str	r6, [sp, #68]	@ 0x44
   22c56:	4812      	ldr	r0, [pc, #72]	@ (22ca0 <_ZN20complex_full_dynamic3app17hbabd3dd90ca69cacE+0xac>)
   22c58:	2600      	movs	r6, #0
   22c5a:	4631      	mov	r1, r6
   22c5c:	4622      	mov	r2, r4
   22c5e:	4633      	mov	r3, r6
   22c60:	df02      	svc	2
   22c62:	287f      	cmp	r0, #127	@ 0x7f
   22c64:	d80b      	bhi.n	22c7e <_ZN20complex_full_dynamic3app17hbabd3dd90ca69cacE+0x8a>
   22c66:	9c03      	ldr	r4, [sp, #12]
   22c68:	6061      	str	r1, [r4, #4]
   22c6a:	2601      	movs	r6, #1
   22c6c:	7026      	strb	r6, [r4, #0]
   22c6e:	a811      	add	r0, sp, #68	@ 0x44
   22c70:	f004 f954 	bl	26f1c <_ZN9allow_pin12full_dynamic17unshare_if_shared17h02646414dc25e2d7E>
   22c74:	a804      	add	r0, sp, #16
   22c76:	f004 f951 	bl	26f1c <_ZN9allow_pin12full_dynamic17unshare_if_shared17h02646414dc25e2d7E>
   22c7a:	b01f      	add	sp, #124	@ 0x7c
   22c7c:	bdf0      	pop	{r4, r5, r6, r7, pc}
   22c7e:	a804      	add	r0, sp, #16
   22c80:	f004 f94c 	bl	26f1c <_ZN9allow_pin12full_dynamic17unshare_if_shared17h02646414dc25e2d7E>
   22c84:	ac11      	add	r4, sp, #68	@ 0x44
   22c86:	4620      	mov	r0, r4
   22c88:	f004 f948 	bl	26f1c <_ZN9allow_pin12full_dynamic17unshare_if_shared17h02646414dc25e2d7E>
   22c8c:	4620      	mov	r0, r4
   22c8e:	f004 f945 	bl	26f1c <_ZN9allow_pin12full_dynamic17unshare_if_shared17h02646414dc25e2d7E>
   22c92:	9c03      	ldr	r4, [sp, #12]
   22c94:	1c60      	adds	r0, r4, #1
   22c96:	222a      	movs	r2, #42	@ 0x2a
   22c98:	4629      	mov	r1, r5
   22c9a:	f004 fb00 	bl	2729e <__aeabi_memcpy>
   22c9e:	e7e5      	b.n	22c6c <_ZN20complex_full_dynamic3app17hbabd3dd90ca69cacE+0x78>
   22ca0:	0000093c 	.word	0x0000093c

00022ca4 <_ZN20complex_full_dynamic3app17hc3109a431b8db763E>:
   22ca4:	b5f0      	push	{r4, r5, r6, r7, lr}
   22ca6:	af03      	add	r7, sp, #12
   22ca8:	b097      	sub	sp, #92	@ 0x5c
   22caa:	9001      	str	r0, [sp, #4]
   22cac:	ac02      	add	r4, sp, #8
   22cae:	2502      	movs	r5, #2
   22cb0:	7225      	strb	r5, [r4, #8]
   22cb2:	340c      	adds	r4, #12
   22cb4:	2627      	movs	r6, #39	@ 0x27
   22cb6:	4620      	mov	r0, r4
   22cb8:	4632      	mov	r2, r6
   22cba:	f004 faf0 	bl	2729e <__aeabi_memcpy>
   22cbe:	a80f      	add	r0, sp, #60	@ 0x3c
   22cc0:	9000      	str	r0, [sp, #0]
   22cc2:	7205      	strb	r5, [r0, #8]
   22cc4:	2000      	movs	r0, #0
   22cc6:	9016      	str	r0, [sp, #88]	@ 0x58
   22cc8:	9015      	str	r0, [sp, #84]	@ 0x54
   22cca:	9014      	str	r0, [sp, #80]	@ 0x50
   22ccc:	9013      	str	r0, [sp, #76]	@ 0x4c
   22cce:	9012      	str	r0, [sp, #72]	@ 0x48
   22cd0:	4820      	ldr	r0, [pc, #128]	@ (22d54 <_ZN20complex_full_dynamic3app17hc3109a431b8db763E+0xb0>)
   22cd2:	2506      	movs	r5, #6
   22cd4:	4629      	mov	r1, r5
   22cd6:	4622      	mov	r2, r4
   22cd8:	4633      	mov	r3, r6
   22cda:	df04      	svc	4
   22cdc:	2802      	cmp	r0, #2
   22cde:	d01c      	beq.n	22d1a <_ZN20complex_full_dynamic3app17hc3109a431b8db763E+0x76>
   22ce0:	9e00      	ldr	r6, [sp, #0]
   22ce2:	360c      	adds	r6, #12
   22ce4:	a802      	add	r0, sp, #8
   22ce6:	2104      	movs	r1, #4
   22ce8:	7201      	strb	r1, [r0, #8]
   22cea:	9503      	str	r5, [sp, #12]
   22cec:	4819      	ldr	r0, [pc, #100]	@ (22d54 <_ZN20complex_full_dynamic3app17hc3109a431b8db763E+0xb0>)
   22cee:	9002      	str	r0, [sp, #8]
   22cf0:	2405      	movs	r4, #5
   22cf2:	2314      	movs	r3, #20
   22cf4:	4621      	mov	r1, r4
   22cf6:	4632      	mov	r2, r6
   22cf8:	df03      	svc	3
   22cfa:	2802      	cmp	r0, #2
   22cfc:	d00d      	beq.n	22d1a <_ZN20complex_full_dynamic3app17hc3109a431b8db763E+0x76>
   22cfe:	4635      	mov	r5, r6
   22d00:	a80f      	add	r0, sp, #60	@ 0x3c
   22d02:	2103      	movs	r1, #3
   22d04:	7201      	strb	r1, [r0, #8]
   22d06:	4813      	ldr	r0, [pc, #76]	@ (22d54 <_ZN20complex_full_dynamic3app17hc3109a431b8db763E+0xb0>)
   22d08:	900f      	str	r0, [sp, #60]	@ 0x3c
   22d0a:	9410      	str	r4, [sp, #64]	@ 0x40
   22d0c:	2106      	movs	r1, #6
   22d0e:	2600      	movs	r6, #0
   22d10:	4622      	mov	r2, r4
   22d12:	4633      	mov	r3, r6
   22d14:	df02      	svc	2
   22d16:	287f      	cmp	r0, #127	@ 0x7f
   22d18:	d80b      	bhi.n	22d32 <_ZN20complex_full_dynamic3app17hc3109a431b8db763E+0x8e>
   22d1a:	9c01      	ldr	r4, [sp, #4]
   22d1c:	6061      	str	r1, [r4, #4]
   22d1e:	2601      	movs	r6, #1
   22d20:	7026      	strb	r6, [r4, #0]
   22d22:	a80f      	add	r0, sp, #60	@ 0x3c
   22d24:	f004 f8fa 	bl	26f1c <_ZN9allow_pin12full_dynamic17unshare_if_shared17h02646414dc25e2d7E>
   22d28:	a802      	add	r0, sp, #8
   22d2a:	f004 f8f7 	bl	26f1c <_ZN9allow_pin12full_dynamic17unshare_if_shared17h02646414dc25e2d7E>
   22d2e:	b017      	add	sp, #92	@ 0x5c
   22d30:	bdf0      	pop	{r4, r5, r6, r7, pc}
   22d32:	a802      	add	r0, sp, #8
   22d34:	f004 f8f2 	bl	26f1c <_ZN9allow_pin12full_dynamic17unshare_if_shared17h02646414dc25e2d7E>
   22d38:	ac0f      	add	r4, sp, #60	@ 0x3c
   22d3a:	4620      	mov	r0, r4
   22d3c:	f004 f8ee 	bl	26f1c <_ZN9allow_pin12full_dynamic17unshare_if_shared17h02646414dc25e2d7E>
   22d40:	4620      	mov	r0, r4
   22d42:	f004 f8eb 	bl	26f1c <_ZN9allow_pin12full_dynamic17unshare_if_shared17h02646414dc25e2d7E>
   22d46:	9c01      	ldr	r4, [sp, #4]
   22d48:	1c60      	adds	r0, r4, #1
   22d4a:	2214      	movs	r2, #20
   22d4c:	4629      	mov	r1, r5
   22d4e:	f004 faa6 	bl	2729e <__aeabi_memcpy>
   22d52:	e7e5      	b.n	22d20 <_ZN20complex_full_dynamic3app17hc3109a431b8db763E+0x7c>
   22d54:	000022c9 	.word	0x000022c9

00022d58 <_ZN20complex_full_dynamic3app17hc3e6eac7e4b59d5aE>:
   22d58:	b5f0      	push	{r4, r5, r6, r7, lr}
   22d5a:	af03      	add	r7, sp, #12
   22d5c:	b0ad      	sub	sp, #180	@ 0xb4
   22d5e:	9003      	str	r0, [sp, #12]
   22d60:	ae04      	add	r6, sp, #16
   22d62:	2002      	movs	r0, #2
   22d64:	9002      	str	r0, [sp, #8]
   22d66:	7230      	strb	r0, [r6, #8]
   22d68:	360c      	adds	r6, #12
   22d6a:	2250      	movs	r2, #80	@ 0x50
   22d6c:	9201      	str	r2, [sp, #4]
   22d6e:	4630      	mov	r0, r6
   22d70:	f004 fa95 	bl	2729e <__aeabi_memcpy>
   22d74:	ad1b      	add	r5, sp, #108	@ 0x6c
   22d76:	462c      	mov	r4, r5
   22d78:	340c      	adds	r4, #12
   22d7a:	213c      	movs	r1, #60	@ 0x3c
   22d7c:	4620      	mov	r0, r4
   22d7e:	f004 f8e1 	bl	26f44 <__aeabi_memclr4>
   22d82:	9802      	ldr	r0, [sp, #8]
   22d84:	7228      	strb	r0, [r5, #8]
   22d86:	4820      	ldr	r0, [pc, #128]	@ (22e08 <_ZN20complex_full_dynamic3app17hc3e6eac7e4b59d5aE+0xb0>)
   22d88:	2503      	movs	r5, #3
   22d8a:	4629      	mov	r1, r5
   22d8c:	4632      	mov	r2, r6
   22d8e:	9b01      	ldr	r3, [sp, #4]
   22d90:	df04      	svc	4
   22d92:	2802      	cmp	r0, #2
   22d94:	d01a      	beq.n	22dcc <_ZN20complex_full_dynamic3app17hc3e6eac7e4b59d5aE+0x74>
   22d96:	a804      	add	r0, sp, #16
   22d98:	2104      	movs	r1, #4
   22d9a:	7201      	strb	r1, [r0, #8]
   22d9c:	9505      	str	r5, [sp, #20]
   22d9e:	4e1a      	ldr	r6, [pc, #104]	@ (22e08 <_ZN20complex_full_dynamic3app17hc3e6eac7e4b59d5aE+0xb0>)
   22da0:	9604      	str	r6, [sp, #16]
   22da2:	2109      	movs	r1, #9
   22da4:	233c      	movs	r3, #60	@ 0x3c
   22da6:	4630      	mov	r0, r6
   22da8:	9102      	str	r1, [sp, #8]
   22daa:	4622      	mov	r2, r4
   22dac:	df03      	svc	3
   22dae:	2802      	cmp	r0, #2
   22db0:	d00c      	beq.n	22dcc <_ZN20complex_full_dynamic3app17hc3e6eac7e4b59d5aE+0x74>
   22db2:	9401      	str	r4, [sp, #4]
   22db4:	a81b      	add	r0, sp, #108	@ 0x6c
   22db6:	7205      	strb	r5, [r0, #8]
   22db8:	961b      	str	r6, [sp, #108]	@ 0x6c
   22dba:	9a02      	ldr	r2, [sp, #8]
   22dbc:	921c      	str	r2, [sp, #112]	@ 0x70
   22dbe:	4812      	ldr	r0, [pc, #72]	@ (22e08 <_ZN20complex_full_dynamic3app17hc3e6eac7e4b59d5aE+0xb0>)
   22dc0:	2600      	movs	r6, #0
   22dc2:	4629      	mov	r1, r5
   22dc4:	4633      	mov	r3, r6
   22dc6:	df02      	svc	2
   22dc8:	287f      	cmp	r0, #127	@ 0x7f
   22dca:	d80b      	bhi.n	22de4 <_ZN20complex_full_dynamic3app17hc3e6eac7e4b59d5aE+0x8c>
   22dcc:	9c03      	ldr	r4, [sp, #12]
   22dce:	6061      	str	r1, [r4, #4]
   22dd0:	2601      	movs	r6, #1
   22dd2:	7026      	strb	r6, [r4, #0]
   22dd4:	a81b      	add	r0, sp, #108	@ 0x6c
   22dd6:	f004 f8a1 	bl	26f1c <_ZN9allow_pin12full_dynamic17unshare_if_shared17h02646414dc25e2d7E>
   22dda:	a804      	add	r0, sp, #16
   22ddc:	f004 f89e 	bl	26f1c <_ZN9allow_pin12full_dynamic17unshare_if_shared17h02646414dc25e2d7E>
   22de0:	b02d      	add	sp, #180	@ 0xb4
   22de2:	bdf0      	pop	{r4, r5, r6, r7, pc}
   22de4:	a804      	add	r0, sp, #16
   22de6:	f004 f899 	bl	26f1c <_ZN9allow_pin12full_dynamic17unshare_if_shared17h02646414dc25e2d7E>
   22dea:	ac1b      	add	r4, sp, #108	@ 0x6c
   22dec:	4620      	mov	r0, r4
   22dee:	f004 f895 	bl	26f1c <_ZN9allow_pin12full_dynamic17unshare_if_shared17h02646414dc25e2d7E>
   22df2:	4620      	mov	r0, r4
   22df4:	f004 f892 	bl	26f1c <_ZN9allow_pin12full_dynamic17unshare_if_shared17h02646414dc25e2d7E>
   22df8:	9c03      	ldr	r4, [sp, #12]
   22dfa:	1c60      	adds	r0, r4, #1
   22dfc:	223c      	movs	r2, #60	@ 0x3c
   22dfe:	9901      	ldr	r1, [sp, #4]
   22e00:	f004 fa4d 	bl	2729e <__aeabi_memcpy>
   22e04:	e7e5      	b.n	22dd2 <_ZN20complex_full_dynamic3app17hc3e6eac7e4b59d5aE+0x7a>
   22e06:	46c0      	nop			@ (mov r8, r8)
   22e08:	00000d7a 	.word	0x00000d7a

00022e0c <_ZN20complex_full_dynamic3app17hc4034ea089725b00E>:
   22e0c:	b5f0      	push	{r4, r5, r6, r7, lr}
   22e0e:	af03      	add	r7, sp, #12
   22e10:	b09d      	sub	sp, #116	@ 0x74
   22e12:	9002      	str	r0, [sp, #8]
   22e14:	ac03      	add	r4, sp, #12
   22e16:	2002      	movs	r0, #2
   22e18:	9001      	str	r0, [sp, #4]
   22e1a:	7220      	strb	r0, [r4, #8]
   22e1c:	340c      	adds	r4, #12
   22e1e:	2221      	movs	r2, #33	@ 0x21
   22e20:	9200      	str	r2, [sp, #0]
   22e22:	4620      	mov	r0, r4
   22e24:	f004 fa3b 	bl	2729e <__aeabi_memcpy>
   22e28:	ae0f      	add	r6, sp, #60	@ 0x3c
   22e2a:	4635      	mov	r5, r6
   22e2c:	350c      	adds	r5, #12
   22e2e:	212a      	movs	r1, #42	@ 0x2a
   22e30:	4628      	mov	r0, r5
   22e32:	f004 f887 	bl	26f44 <__aeabi_memclr4>
   22e36:	9801      	ldr	r0, [sp, #4]
   22e38:	7230      	strb	r0, [r6, #8]
   22e3a:	481f      	ldr	r0, [pc, #124]	@ (22eb8 <_ZN20complex_full_dynamic3app17hc4034ea089725b00E+0xac>)
   22e3c:	2601      	movs	r6, #1
   22e3e:	4631      	mov	r1, r6
   22e40:	4622      	mov	r2, r4
   22e42:	9b00      	ldr	r3, [sp, #0]
   22e44:	df04      	svc	4
   22e46:	2802      	cmp	r0, #2
   22e48:	d018      	beq.n	22e7c <_ZN20complex_full_dynamic3app17hc4034ea089725b00E+0x70>
   22e4a:	a803      	add	r0, sp, #12
   22e4c:	2104      	movs	r1, #4
   22e4e:	7201      	strb	r1, [r0, #8]
   22e50:	9604      	str	r6, [sp, #16]
   22e52:	4819      	ldr	r0, [pc, #100]	@ (22eb8 <_ZN20complex_full_dynamic3app17hc4034ea089725b00E+0xac>)
   22e54:	9003      	str	r0, [sp, #12]
   22e56:	2403      	movs	r4, #3
   22e58:	232a      	movs	r3, #42	@ 0x2a
   22e5a:	4621      	mov	r1, r4
   22e5c:	462a      	mov	r2, r5
   22e5e:	df03      	svc	3
   22e60:	2802      	cmp	r0, #2
   22e62:	d00b      	beq.n	22e7c <_ZN20complex_full_dynamic3app17hc4034ea089725b00E+0x70>
   22e64:	a80f      	add	r0, sp, #60	@ 0x3c
   22e66:	7204      	strb	r4, [r0, #8]
   22e68:	9410      	str	r4, [sp, #64]	@ 0x40
   22e6a:	4813      	ldr	r0, [pc, #76]	@ (22eb8 <_ZN20complex_full_dynamic3app17hc4034ea089725b00E+0xac>)
   22e6c:	900f      	str	r0, [sp, #60]	@ 0x3c
   22e6e:	2101      	movs	r1, #1
   22e70:	2300      	movs	r3, #0
   22e72:	4622      	mov	r2, r4
   22e74:	9301      	str	r3, [sp, #4]
   22e76:	df02      	svc	2
   22e78:	287f      	cmp	r0, #127	@ 0x7f
   22e7a:	d80a      	bhi.n	22e92 <_ZN20complex_full_dynamic3app17hc4034ea089725b00E+0x86>
   22e7c:	9c02      	ldr	r4, [sp, #8]
   22e7e:	6061      	str	r1, [r4, #4]
   22e80:	7026      	strb	r6, [r4, #0]
   22e82:	a80f      	add	r0, sp, #60	@ 0x3c
   22e84:	f004 f84a 	bl	26f1c <_ZN9allow_pin12full_dynamic17unshare_if_shared17h02646414dc25e2d7E>
   22e88:	a803      	add	r0, sp, #12
   22e8a:	f004 f847 	bl	26f1c <_ZN9allow_pin12full_dynamic17unshare_if_shared17h02646414dc25e2d7E>
   22e8e:	b01d      	add	sp, #116	@ 0x74
   22e90:	bdf0      	pop	{r4, r5, r6, r7, pc}
   22e92:	a803      	add	r0, sp, #12
   22e94:	f004 f842 	bl	26f1c <_ZN9allow_pin12full_dynamic17unshare_if_shared17h02646414dc25e2d7E>
   22e98:	ac0f      	add	r4, sp, #60	@ 0x3c
   22e9a:	4620      	mov	r0, r4
   22e9c:	f004 f83e 	bl	26f1c <_ZN9allow_pin12full_dynamic17unshare_if_shared17h02646414dc25e2d7E>
   22ea0:	4620      	mov	r0, r4
   22ea2:	f004 f83b 	bl	26f1c <_ZN9allow_pin12full_dynamic17unshare_if_shared17h02646414dc25e2d7E>
   22ea6:	9c02      	ldr	r4, [sp, #8]
   22ea8:	1c60      	adds	r0, r4, #1
   22eaa:	222a      	movs	r2, #42	@ 0x2a
   22eac:	4629      	mov	r1, r5
   22eae:	f004 f9f6 	bl	2729e <__aeabi_memcpy>
   22eb2:	9e01      	ldr	r6, [sp, #4]
   22eb4:	e7e4      	b.n	22e80 <_ZN20complex_full_dynamic3app17hc4034ea089725b00E+0x74>
   22eb6:	46c0      	nop			@ (mov r8, r8)
   22eb8:	000015f3 	.word	0x000015f3

00022ebc <_ZN20complex_full_dynamic3app17hc5bb075b1b7aa46fE>:
   22ebc:	b5f0      	push	{r4, r5, r6, r7, lr}
   22ebe:	af03      	add	r7, sp, #12
   22ec0:	b09f      	sub	sp, #124	@ 0x7c
   22ec2:	9002      	str	r0, [sp, #8]
   22ec4:	ac03      	add	r4, sp, #12
   22ec6:	2602      	movs	r6, #2
   22ec8:	7226      	strb	r6, [r4, #8]
   22eca:	340c      	adds	r4, #12
   22ecc:	2212      	movs	r2, #18
   22ece:	9201      	str	r2, [sp, #4]
   22ed0:	4620      	mov	r0, r4
   22ed2:	f004 f9e4 	bl	2729e <__aeabi_memcpy>
   22ed6:	ad0b      	add	r5, sp, #44	@ 0x2c
   22ed8:	4628      	mov	r0, r5
   22eda:	300c      	adds	r0, #12
   22edc:	2144      	movs	r1, #68	@ 0x44
   22ede:	9000      	str	r0, [sp, #0]
   22ee0:	f004 f830 	bl	26f44 <__aeabi_memclr4>
   22ee4:	722e      	strb	r6, [r5, #8]
   22ee6:	4635      	mov	r5, r6
   22ee8:	4e1f      	ldr	r6, [pc, #124]	@ (22f68 <_ZN20complex_full_dynamic3app17hc5bb075b1b7aa46fE+0xac>)
   22eea:	4630      	mov	r0, r6
   22eec:	4629      	mov	r1, r5
   22eee:	4622      	mov	r2, r4
   22ef0:	9b01      	ldr	r3, [sp, #4]
   22ef2:	df04      	svc	4
   22ef4:	2802      	cmp	r0, #2
   22ef6:	d01a      	beq.n	22f2e <_ZN20complex_full_dynamic3app17hc5bb075b1b7aa46fE+0x72>
   22ef8:	a803      	add	r0, sp, #12
   22efa:	2104      	movs	r1, #4
   22efc:	7201      	strb	r1, [r0, #8]
   22efe:	9504      	str	r5, [sp, #16]
   22f00:	9603      	str	r6, [sp, #12]
   22f02:	2409      	movs	r4, #9
   22f04:	2344      	movs	r3, #68	@ 0x44
   22f06:	4630      	mov	r0, r6
   22f08:	4621      	mov	r1, r4
   22f0a:	9d00      	ldr	r5, [sp, #0]
   22f0c:	462a      	mov	r2, r5
   22f0e:	df03      	svc	3
   22f10:	2802      	cmp	r0, #2
   22f12:	d00c      	beq.n	22f2e <_ZN20complex_full_dynamic3app17hc5bb075b1b7aa46fE+0x72>
   22f14:	a80b      	add	r0, sp, #44	@ 0x2c
   22f16:	2103      	movs	r1, #3
   22f18:	7201      	strb	r1, [r0, #8]
   22f1a:	960b      	str	r6, [sp, #44]	@ 0x2c
   22f1c:	940c      	str	r4, [sp, #48]	@ 0x30
   22f1e:	4812      	ldr	r0, [pc, #72]	@ (22f68 <_ZN20complex_full_dynamic3app17hc5bb075b1b7aa46fE+0xac>)
   22f20:	2102      	movs	r1, #2
   22f22:	2600      	movs	r6, #0
   22f24:	4622      	mov	r2, r4
   22f26:	4633      	mov	r3, r6
   22f28:	df02      	svc	2
   22f2a:	287f      	cmp	r0, #127	@ 0x7f
   22f2c:	d80b      	bhi.n	22f46 <_ZN20complex_full_dynamic3app17hc5bb075b1b7aa46fE+0x8a>
   22f2e:	9c02      	ldr	r4, [sp, #8]
   22f30:	6061      	str	r1, [r4, #4]
   22f32:	2601      	movs	r6, #1
   22f34:	7026      	strb	r6, [r4, #0]
   22f36:	a80b      	add	r0, sp, #44	@ 0x2c
   22f38:	f003 fff0 	bl	26f1c <_ZN9allow_pin12full_dynamic17unshare_if_shared17h02646414dc25e2d7E>
   22f3c:	a803      	add	r0, sp, #12
   22f3e:	f003 ffed 	bl	26f1c <_ZN9allow_pin12full_dynamic17unshare_if_shared17h02646414dc25e2d7E>
   22f42:	b01f      	add	sp, #124	@ 0x7c
   22f44:	bdf0      	pop	{r4, r5, r6, r7, pc}
   22f46:	a803      	add	r0, sp, #12
   22f48:	f003 ffe8 	bl	26f1c <_ZN9allow_pin12full_dynamic17unshare_if_shared17h02646414dc25e2d7E>
   22f4c:	ac0b      	add	r4, sp, #44	@ 0x2c
   22f4e:	4620      	mov	r0, r4
   22f50:	f003 ffe4 	bl	26f1c <_ZN9allow_pin12full_dynamic17unshare_if_shared17h02646414dc25e2d7E>
   22f54:	4620      	mov	r0, r4
   22f56:	f003 ffe1 	bl	26f1c <_ZN9allow_pin12full_dynamic17unshare_if_shared17h02646414dc25e2d7E>
   22f5a:	9c02      	ldr	r4, [sp, #8]
   22f5c:	1c60      	adds	r0, r4, #1
   22f5e:	2244      	movs	r2, #68	@ 0x44
   22f60:	4629      	mov	r1, r5
   22f62:	f004 f99c 	bl	2729e <__aeabi_memcpy>
   22f66:	e7e5      	b.n	22f34 <_ZN20complex_full_dynamic3app17hc5bb075b1b7aa46fE+0x78>
   22f68:	00002432 	.word	0x00002432

00022f6c <_ZN20complex_full_dynamic3app17hc6713c4f60d226ffE>:
   22f6c:	b5f0      	push	{r4, r5, r6, r7, lr}
   22f6e:	af03      	add	r7, sp, #12
   22f70:	b0a7      	sub	sp, #156	@ 0x9c
   22f72:	9002      	str	r0, [sp, #8]
   22f74:	ae03      	add	r6, sp, #12
   22f76:	2002      	movs	r0, #2
   22f78:	9001      	str	r0, [sp, #4]
   22f7a:	7230      	strb	r0, [r6, #8]
   22f7c:	360c      	adds	r6, #12
   22f7e:	2227      	movs	r2, #39	@ 0x27
   22f80:	9200      	str	r2, [sp, #0]
   22f82:	4630      	mov	r0, r6
   22f84:	f004 f98b 	bl	2729e <__aeabi_memcpy>
   22f88:	ac10      	add	r4, sp, #64	@ 0x40
   22f8a:	4625      	mov	r5, r4
   22f8c:	350c      	adds	r5, #12
   22f8e:	214f      	movs	r1, #79	@ 0x4f
   22f90:	4628      	mov	r0, r5
   22f92:	f003 ffd7 	bl	26f44 <__aeabi_memclr4>
   22f96:	9801      	ldr	r0, [sp, #4]
   22f98:	7220      	strb	r0, [r4, #8]
   22f9a:	481f      	ldr	r0, [pc, #124]	@ (23018 <_ZN20complex_full_dynamic3app17hc6713c4f60d226ffE+0xac>)
   22f9c:	2409      	movs	r4, #9
   22f9e:	4621      	mov	r1, r4
   22fa0:	4632      	mov	r2, r6
   22fa2:	9b00      	ldr	r3, [sp, #0]
   22fa4:	df04      	svc	4
   22fa6:	2802      	cmp	r0, #2
   22fa8:	d019      	beq.n	22fde <_ZN20complex_full_dynamic3app17hc6713c4f60d226ffE+0x72>
   22faa:	a803      	add	r0, sp, #12
   22fac:	2104      	movs	r1, #4
   22fae:	7201      	strb	r1, [r0, #8]
   22fb0:	9404      	str	r4, [sp, #16]
   22fb2:	4c19      	ldr	r4, [pc, #100]	@ (23018 <_ZN20complex_full_dynamic3app17hc6713c4f60d226ffE+0xac>)
   22fb4:	9403      	str	r4, [sp, #12]
   22fb6:	2600      	movs	r6, #0
   22fb8:	234f      	movs	r3, #79	@ 0x4f
   22fba:	4620      	mov	r0, r4
   22fbc:	4631      	mov	r1, r6
   22fbe:	462a      	mov	r2, r5
   22fc0:	df03      	svc	3
   22fc2:	2802      	cmp	r0, #2
   22fc4:	d00b      	beq.n	22fde <_ZN20complex_full_dynamic3app17hc6713c4f60d226ffE+0x72>
   22fc6:	a810      	add	r0, sp, #64	@ 0x40
   22fc8:	2103      	movs	r1, #3
   22fca:	7201      	strb	r1, [r0, #8]
   22fcc:	9410      	str	r4, [sp, #64]	@ 0x40
   22fce:	9611      	str	r6, [sp, #68]	@ 0x44
   22fd0:	4811      	ldr	r0, [pc, #68]	@ (23018 <_ZN20complex_full_dynamic3app17hc6713c4f60d226ffE+0xac>)
   22fd2:	2109      	movs	r1, #9
   22fd4:	4632      	mov	r2, r6
   22fd6:	4633      	mov	r3, r6
   22fd8:	df02      	svc	2
   22fda:	287f      	cmp	r0, #127	@ 0x7f
   22fdc:	d80b      	bhi.n	22ff6 <_ZN20complex_full_dynamic3app17hc6713c4f60d226ffE+0x8a>
   22fde:	9c02      	ldr	r4, [sp, #8]
   22fe0:	6061      	str	r1, [r4, #4]
   22fe2:	2601      	movs	r6, #1
   22fe4:	7026      	strb	r6, [r4, #0]
   22fe6:	a810      	add	r0, sp, #64	@ 0x40
   22fe8:	f003 ff98 	bl	26f1c <_ZN9allow_pin12full_dynamic17unshare_if_shared17h02646414dc25e2d7E>
   22fec:	a803      	add	r0, sp, #12
   22fee:	f003 ff95 	bl	26f1c <_ZN9allow_pin12full_dynamic17unshare_if_shared17h02646414dc25e2d7E>
   22ff2:	b027      	add	sp, #156	@ 0x9c
   22ff4:	bdf0      	pop	{r4, r5, r6, r7, pc}
   22ff6:	a803      	add	r0, sp, #12
   22ff8:	f003 ff90 	bl	26f1c <_ZN9allow_pin12full_dynamic17unshare_if_shared17h02646414dc25e2d7E>
   22ffc:	ac10      	add	r4, sp, #64	@ 0x40
   22ffe:	4620      	mov	r0, r4
   23000:	f003 ff8c 	bl	26f1c <_ZN9allow_pin12full_dynamic17unshare_if_shared17h02646414dc25e2d7E>
   23004:	4620      	mov	r0, r4
   23006:	f003 ff89 	bl	26f1c <_ZN9allow_pin12full_dynamic17unshare_if_shared17h02646414dc25e2d7E>
   2300a:	9c02      	ldr	r4, [sp, #8]
   2300c:	1c60      	adds	r0, r4, #1
   2300e:	224f      	movs	r2, #79	@ 0x4f
   23010:	4629      	mov	r1, r5
   23012:	f004 f944 	bl	2729e <__aeabi_memcpy>
   23016:	e7e5      	b.n	22fe4 <_ZN20complex_full_dynamic3app17hc6713c4f60d226ffE+0x78>
   23018:	00000b4c 	.word	0x00000b4c

0002301c <_ZN20complex_full_dynamic3app17hca660cdd6a8f6cccE>:
   2301c:	b5f0      	push	{r4, r5, r6, r7, lr}
   2301e:	af03      	add	r7, sp, #12
   23020:	b09d      	sub	sp, #116	@ 0x74
   23022:	9003      	str	r0, [sp, #12]
   23024:	ae04      	add	r6, sp, #16
   23026:	2002      	movs	r0, #2
   23028:	9002      	str	r0, [sp, #8]
   2302a:	7230      	strb	r0, [r6, #8]
   2302c:	360c      	adds	r6, #12
   2302e:	221e      	movs	r2, #30
   23030:	9201      	str	r2, [sp, #4]
   23032:	4630      	mov	r0, r6
   23034:	f004 f933 	bl	2729e <__aeabi_memcpy>
   23038:	ac0f      	add	r4, sp, #60	@ 0x3c
   2303a:	4625      	mov	r5, r4
   2303c:	350c      	adds	r5, #12
   2303e:	212c      	movs	r1, #44	@ 0x2c
   23040:	4628      	mov	r0, r5
   23042:	f003 ff7f 	bl	26f44 <__aeabi_memclr4>
   23046:	9802      	ldr	r0, [sp, #8]
   23048:	7220      	strb	r0, [r4, #8]
   2304a:	481f      	ldr	r0, [pc, #124]	@ (230c8 <_ZN20complex_full_dynamic3app17hca660cdd6a8f6cccE+0xac>)
   2304c:	2407      	movs	r4, #7
   2304e:	4621      	mov	r1, r4
   23050:	4632      	mov	r2, r6
   23052:	9b01      	ldr	r3, [sp, #4]
   23054:	df04      	svc	4
   23056:	2802      	cmp	r0, #2
   23058:	d019      	beq.n	2308e <_ZN20complex_full_dynamic3app17hca660cdd6a8f6cccE+0x72>
   2305a:	a804      	add	r0, sp, #16
   2305c:	2104      	movs	r1, #4
   2305e:	7201      	strb	r1, [r0, #8]
   23060:	9405      	str	r4, [sp, #20]
   23062:	4c19      	ldr	r4, [pc, #100]	@ (230c8 <_ZN20complex_full_dynamic3app17hca660cdd6a8f6cccE+0xac>)
   23064:	9404      	str	r4, [sp, #16]
   23066:	2600      	movs	r6, #0
   23068:	232c      	movs	r3, #44	@ 0x2c
   2306a:	4620      	mov	r0, r4
   2306c:	4631      	mov	r1, r6
   2306e:	462a      	mov	r2, r5
   23070:	df03      	svc	3
   23072:	2802      	cmp	r0, #2
   23074:	d00b      	beq.n	2308e <_ZN20complex_full_dynamic3app17hca660cdd6a8f6cccE+0x72>
   23076:	a80f      	add	r0, sp, #60	@ 0x3c
   23078:	2103      	movs	r1, #3
   2307a:	7201      	strb	r1, [r0, #8]
   2307c:	940f      	str	r4, [sp, #60]	@ 0x3c
   2307e:	9610      	str	r6, [sp, #64]	@ 0x40
   23080:	4811      	ldr	r0, [pc, #68]	@ (230c8 <_ZN20complex_full_dynamic3app17hca660cdd6a8f6cccE+0xac>)
   23082:	2107      	movs	r1, #7
   23084:	4632      	mov	r2, r6
   23086:	4633      	mov	r3, r6
   23088:	df02      	svc	2
   2308a:	287f      	cmp	r0, #127	@ 0x7f
   2308c:	d80b      	bhi.n	230a6 <_ZN20complex_full_dynamic3app17hca660cdd6a8f6cccE+0x8a>
   2308e:	9c03      	ldr	r4, [sp, #12]
   23090:	6061      	str	r1, [r4, #4]
   23092:	2601      	movs	r6, #1
   23094:	7026      	strb	r6, [r4, #0]
   23096:	a80f      	add	r0, sp, #60	@ 0x3c
   23098:	f003 ff40 	bl	26f1c <_ZN9allow_pin12full_dynamic17unshare_if_shared17h02646414dc25e2d7E>
   2309c:	a804      	add	r0, sp, #16
   2309e:	f003 ff3d 	bl	26f1c <_ZN9allow_pin12full_dynamic17unshare_if_shared17h02646414dc25e2d7E>
   230a2:	b01d      	add	sp, #116	@ 0x74
   230a4:	bdf0      	pop	{r4, r5, r6, r7, pc}
   230a6:	a804      	add	r0, sp, #16
   230a8:	f003 ff38 	bl	26f1c <_ZN9allow_pin12full_dynamic17unshare_if_shared17h02646414dc25e2d7E>
   230ac:	ac0f      	add	r4, sp, #60	@ 0x3c
   230ae:	4620      	mov	r0, r4
   230b0:	f003 ff34 	bl	26f1c <_ZN9allow_pin12full_dynamic17unshare_if_shared17h02646414dc25e2d7E>
   230b4:	4620      	mov	r0, r4
   230b6:	f003 ff31 	bl	26f1c <_ZN9allow_pin12full_dynamic17unshare_if_shared17h02646414dc25e2d7E>
   230ba:	9c03      	ldr	r4, [sp, #12]
   230bc:	1c60      	adds	r0, r4, #1
   230be:	222c      	movs	r2, #44	@ 0x2c
   230c0:	4629      	mov	r1, r5
   230c2:	f004 f8ec 	bl	2729e <__aeabi_memcpy>
   230c6:	e7e5      	b.n	23094 <_ZN20complex_full_dynamic3app17hca660cdd6a8f6cccE+0x78>
   230c8:	000003fb 	.word	0x000003fb

000230cc <_ZN20complex_full_dynamic3app17hcaf30d9a786e1ca2E>:
   230cc:	b5f0      	push	{r4, r5, r6, r7, lr}
   230ce:	af03      	add	r7, sp, #12
   230d0:	b09f      	sub	sp, #124	@ 0x7c
   230d2:	9002      	str	r0, [sp, #8]
   230d4:	ae03      	add	r6, sp, #12
   230d6:	2002      	movs	r0, #2
   230d8:	9001      	str	r0, [sp, #4]
   230da:	7230      	strb	r0, [r6, #8]
   230dc:	360c      	adds	r6, #12
   230de:	222c      	movs	r2, #44	@ 0x2c
   230e0:	9200      	str	r2, [sp, #0]
   230e2:	4630      	mov	r0, r6
   230e4:	f004 f8db 	bl	2729e <__aeabi_memcpy>
   230e8:	ad11      	add	r5, sp, #68	@ 0x44
   230ea:	462c      	mov	r4, r5
   230ec:	340c      	adds	r4, #12
   230ee:	212a      	movs	r1, #42	@ 0x2a
   230f0:	4620      	mov	r0, r4
   230f2:	f003 ff27 	bl	26f44 <__aeabi_memclr4>
   230f6:	9801      	ldr	r0, [sp, #4]
   230f8:	7228      	strb	r0, [r5, #8]
   230fa:	481f      	ldr	r0, [pc, #124]	@ (23178 <_ZN20complex_full_dynamic3app17hcaf30d9a786e1ca2E+0xac>)
   230fc:	2503      	movs	r5, #3
   230fe:	4629      	mov	r1, r5
   23100:	4632      	mov	r2, r6
   23102:	9b00      	ldr	r3, [sp, #0]
   23104:	df04      	svc	4
   23106:	2802      	cmp	r0, #2
   23108:	d017      	beq.n	2313a <_ZN20complex_full_dynamic3app17hcaf30d9a786e1ca2E+0x6e>
   2310a:	a803      	add	r0, sp, #12
   2310c:	2104      	movs	r1, #4
   2310e:	7201      	strb	r1, [r0, #8]
   23110:	9504      	str	r5, [sp, #16]
   23112:	4819      	ldr	r0, [pc, #100]	@ (23178 <_ZN20complex_full_dynamic3app17hcaf30d9a786e1ca2E+0xac>)
   23114:	9003      	str	r0, [sp, #12]
   23116:	2600      	movs	r6, #0
   23118:	232a      	movs	r3, #42	@ 0x2a
   2311a:	4631      	mov	r1, r6
   2311c:	4622      	mov	r2, r4
   2311e:	df03      	svc	3
   23120:	2802      	cmp	r0, #2
   23122:	d00a      	beq.n	2313a <_ZN20complex_full_dynamic3app17hcaf30d9a786e1ca2E+0x6e>
   23124:	a811      	add	r0, sp, #68	@ 0x44
   23126:	7205      	strb	r5, [r0, #8]
   23128:	4813      	ldr	r0, [pc, #76]	@ (23178 <_ZN20complex_full_dynamic3app17hcaf30d9a786e1ca2E+0xac>)
   2312a:	9011      	str	r0, [sp, #68]	@ 0x44
   2312c:	9612      	str	r6, [sp, #72]	@ 0x48
   2312e:	4629      	mov	r1, r5
   23130:	4632      	mov	r2, r6
   23132:	4633      	mov	r3, r6
   23134:	df02      	svc	2
   23136:	287f      	cmp	r0, #127	@ 0x7f
   23138:	d80b      	bhi.n	23152 <_ZN20complex_full_dynamic3app17hcaf30d9a786e1ca2E+0x86>
   2313a:	9c02      	ldr	r4, [sp, #8]
   2313c:	6061      	str	r1, [r4, #4]
   2313e:	2601      	movs	r6, #1
   23140:	7026      	strb	r6, [r4, #0]
   23142:	a811      	add	r0, sp, #68	@ 0x44
   23144:	f003 feea 	bl	26f1c <_ZN9allow_pin12full_dynamic17unshare_if_shared17h02646414dc25e2d7E>
   23148:	a803      	add	r0, sp, #12
   2314a:	f003 fee7 	bl	26f1c <_ZN9allow_pin12full_dynamic17unshare_if_shared17h02646414dc25e2d7E>
   2314e:	b01f      	add	sp, #124	@ 0x7c
   23150:	bdf0      	pop	{r4, r5, r6, r7, pc}
   23152:	a803      	add	r0, sp, #12
   23154:	f003 fee2 	bl	26f1c <_ZN9allow_pin12full_dynamic17unshare_if_shared17h02646414dc25e2d7E>
   23158:	4625      	mov	r5, r4
   2315a:	ac11      	add	r4, sp, #68	@ 0x44
   2315c:	4620      	mov	r0, r4
   2315e:	f003 fedd 	bl	26f1c <_ZN9allow_pin12full_dynamic17unshare_if_shared17h02646414dc25e2d7E>
   23162:	4620      	mov	r0, r4
   23164:	f003 feda 	bl	26f1c <_ZN9allow_pin12full_dynamic17unshare_if_shared17h02646414dc25e2d7E>
   23168:	9c02      	ldr	r4, [sp, #8]
   2316a:	1c60      	adds	r0, r4, #1
   2316c:	222a      	movs	r2, #42	@ 0x2a
   2316e:	4629      	mov	r1, r5
   23170:	f004 f895 	bl	2729e <__aeabi_memcpy>
   23174:	e7e4      	b.n	23140 <_ZN20complex_full_dynamic3app17hcaf30d9a786e1ca2E+0x74>
   23176:	46c0      	nop			@ (mov r8, r8)
   23178:	000024f0 	.word	0x000024f0

0002317c <_ZN20complex_full_dynamic3app17hcb6cba8b0ea3a20fE>:
   2317c:	b5f0      	push	{r4, r5, r6, r7, lr}
   2317e:	af03      	add	r7, sp, #12
   23180:	b097      	sub	sp, #92	@ 0x5c
   23182:	9002      	str	r0, [sp, #8]
   23184:	ac03      	add	r4, sp, #12
   23186:	2602      	movs	r6, #2
   23188:	7226      	strb	r6, [r4, #8]
   2318a:	340c      	adds	r4, #12
   2318c:	221a      	movs	r2, #26
   2318e:	9201      	str	r2, [sp, #4]
   23190:	4620      	mov	r0, r4
   23192:	f004 f884 	bl	2729e <__aeabi_memcpy>
   23196:	a80d      	add	r0, sp, #52	@ 0x34
   23198:	4605      	mov	r5, r0
   2319a:	350c      	adds	r5, #12
   2319c:	2100      	movs	r1, #0
   2319e:	76a9      	strb	r1, [r5, #26]
   231a0:	8481      	strh	r1, [r0, #36]	@ 0x24
   231a2:	7206      	strb	r6, [r0, #8]
   231a4:	9115      	str	r1, [sp, #84]	@ 0x54
   231a6:	9114      	str	r1, [sp, #80]	@ 0x50
   231a8:	9113      	str	r1, [sp, #76]	@ 0x4c
   231aa:	9112      	str	r1, [sp, #72]	@ 0x48
   231ac:	9111      	str	r1, [sp, #68]	@ 0x44
   231ae:	9110      	str	r1, [sp, #64]	@ 0x40
   231b0:	481f      	ldr	r0, [pc, #124]	@ (23230 <_ZN20complex_full_dynamic3app17hcb6cba8b0ea3a20fE+0xb4>)
   231b2:	2605      	movs	r6, #5
   231b4:	4631      	mov	r1, r6
   231b6:	4622      	mov	r2, r4
   231b8:	9b01      	ldr	r3, [sp, #4]
   231ba:	df04      	svc	4
   231bc:	2802      	cmp	r0, #2
   231be:	d01a      	beq.n	231f6 <_ZN20complex_full_dynamic3app17hcb6cba8b0ea3a20fE+0x7a>
   231c0:	a803      	add	r0, sp, #12
   231c2:	2104      	movs	r1, #4
   231c4:	7201      	strb	r1, [r0, #8]
   231c6:	9604      	str	r6, [sp, #16]
   231c8:	4e19      	ldr	r6, [pc, #100]	@ (23230 <_ZN20complex_full_dynamic3app17hcb6cba8b0ea3a20fE+0xb4>)
   231ca:	9603      	str	r6, [sp, #12]
   231cc:	2402      	movs	r4, #2
   231ce:	231b      	movs	r3, #27
   231d0:	4630      	mov	r0, r6
   231d2:	4621      	mov	r1, r4
   231d4:	462a      	mov	r2, r5
   231d6:	df03      	svc	3
   231d8:	2802      	cmp	r0, #2
   231da:	d00c      	beq.n	231f6 <_ZN20complex_full_dynamic3app17hcb6cba8b0ea3a20fE+0x7a>
   231dc:	a80d      	add	r0, sp, #52	@ 0x34
   231de:	2103      	movs	r1, #3
   231e0:	7201      	strb	r1, [r0, #8]
   231e2:	960d      	str	r6, [sp, #52]	@ 0x34
   231e4:	940e      	str	r4, [sp, #56]	@ 0x38
   231e6:	4812      	ldr	r0, [pc, #72]	@ (23230 <_ZN20complex_full_dynamic3app17hcb6cba8b0ea3a20fE+0xb4>)
   231e8:	2105      	movs	r1, #5
   231ea:	2600      	movs	r6, #0
   231ec:	4622      	mov	r2, r4
   231ee:	4633      	mov	r3, r6
   231f0:	df02      	svc	2
   231f2:	287f      	cmp	r0, #127	@ 0x7f
   231f4:	d80b      	bhi.n	2320e <_ZN20complex_full_dynamic3app17hcb6cba8b0ea3a20fE+0x92>
   231f6:	9c02      	ldr	r4, [sp, #8]
   231f8:	6061      	str	r1, [r4, #4]
   231fa:	2601      	movs	r6, #1
   231fc:	7026      	strb	r6, [r4, #0]
   231fe:	a80d      	add	r0, sp, #52	@ 0x34
   23200:	f003 fe8c 	bl	26f1c <_ZN9allow_pin12full_dynamic17unshare_if_shared17h02646414dc25e2d7E>
   23204:	a803      	add	r0, sp, #12
   23206:	f003 fe89 	bl	26f1c <_ZN9allow_pin12full_dynamic17unshare_if_shared17h02646414dc25e2d7E>
   2320a:	b017      	add	sp, #92	@ 0x5c
   2320c:	bdf0      	pop	{r4, r5, r6, r7, pc}
   2320e:	a803      	add	r0, sp, #12
   23210:	f003 fe84 	bl	26f1c <_ZN9allow_pin12full_dynamic17unshare_if_shared17h02646414dc25e2d7E>
   23214:	ac0d      	add	r4, sp, #52	@ 0x34
   23216:	4620      	mov	r0, r4
   23218:	f003 fe80 	bl	26f1c <_ZN9allow_pin12full_dynamic17unshare_if_shared17h02646414dc25e2d7E>
   2321c:	4620      	mov	r0, r4
   2321e:	f003 fe7d 	bl	26f1c <_ZN9allow_pin12full_dynamic17unshare_if_shared17h02646414dc25e2d7E>
   23222:	9c02      	ldr	r4, [sp, #8]
   23224:	1c60      	adds	r0, r4, #1
   23226:	221b      	movs	r2, #27
   23228:	4629      	mov	r1, r5
   2322a:	f004 f838 	bl	2729e <__aeabi_memcpy>
   2322e:	e7e5      	b.n	231fc <_ZN20complex_full_dynamic3app17hcb6cba8b0ea3a20fE+0x80>
   23230:	00001cce 	.word	0x00001cce

00023234 <_ZN20complex_full_dynamic3app17hcd0145decdd70a17E>:
   23234:	b5f0      	push	{r4, r5, r6, r7, lr}
   23236:	af03      	add	r7, sp, #12
   23238:	b09d      	sub	sp, #116	@ 0x74
   2323a:	9001      	str	r0, [sp, #4]
   2323c:	ac02      	add	r4, sp, #8
   2323e:	2502      	movs	r5, #2
   23240:	7225      	strb	r5, [r4, #8]
   23242:	340c      	adds	r4, #12
   23244:	223f      	movs	r2, #63	@ 0x3f
   23246:	9200      	str	r2, [sp, #0]
   23248:	4620      	mov	r0, r4
   2324a:	f004 f828 	bl	2729e <__aeabi_memcpy>
   2324e:	ae15      	add	r6, sp, #84	@ 0x54
   23250:	2000      	movs	r0, #0
   23252:	7730      	strb	r0, [r6, #28]
   23254:	7235      	strb	r5, [r6, #8]
   23256:	901b      	str	r0, [sp, #108]	@ 0x6c
   23258:	901a      	str	r0, [sp, #104]	@ 0x68
   2325a:	9019      	str	r0, [sp, #100]	@ 0x64
   2325c:	9018      	str	r0, [sp, #96]	@ 0x60
   2325e:	481f      	ldr	r0, [pc, #124]	@ (232dc <_ZN20complex_full_dynamic3app17hcd0145decdd70a17E+0xa8>)
   23260:	2504      	movs	r5, #4
   23262:	4629      	mov	r1, r5
   23264:	4622      	mov	r2, r4
   23266:	9b00      	ldr	r3, [sp, #0]
   23268:	df04      	svc	4
   2326a:	2802      	cmp	r0, #2
   2326c:	d019      	beq.n	232a2 <_ZN20complex_full_dynamic3app17hcd0145decdd70a17E+0x6e>
   2326e:	360c      	adds	r6, #12
   23270:	a802      	add	r0, sp, #8
   23272:	7205      	strb	r5, [r0, #8]
   23274:	9503      	str	r5, [sp, #12]
   23276:	4819      	ldr	r0, [pc, #100]	@ (232dc <_ZN20complex_full_dynamic3app17hcd0145decdd70a17E+0xa8>)
   23278:	9002      	str	r0, [sp, #8]
   2327a:	2403      	movs	r4, #3
   2327c:	2311      	movs	r3, #17
   2327e:	4621      	mov	r1, r4
   23280:	4632      	mov	r2, r6
   23282:	df03      	svc	3
   23284:	2802      	cmp	r0, #2
   23286:	d00c      	beq.n	232a2 <_ZN20complex_full_dynamic3app17hcd0145decdd70a17E+0x6e>
   23288:	4635      	mov	r5, r6
   2328a:	a815      	add	r0, sp, #84	@ 0x54
   2328c:	7204      	strb	r4, [r0, #8]
   2328e:	9416      	str	r4, [sp, #88]	@ 0x58
   23290:	4812      	ldr	r0, [pc, #72]	@ (232dc <_ZN20complex_full_dynamic3app17hcd0145decdd70a17E+0xa8>)
   23292:	9015      	str	r0, [sp, #84]	@ 0x54
   23294:	2104      	movs	r1, #4
   23296:	2600      	movs	r6, #0
   23298:	4622      	mov	r2, r4
   2329a:	4633      	mov	r3, r6
   2329c:	df02      	svc	2
   2329e:	287f      	cmp	r0, #127	@ 0x7f
   232a0:	d80b      	bhi.n	232ba <_ZN20complex_full_dynamic3app17hcd0145decdd70a17E+0x86>
   232a2:	9c01      	ldr	r4, [sp, #4]
   232a4:	6061      	str	r1, [r4, #4]
   232a6:	2601      	movs	r6, #1
   232a8:	7026      	strb	r6, [r4, #0]
   232aa:	a815      	add	r0, sp, #84	@ 0x54
   232ac:	f003 fe36 	bl	26f1c <_ZN9allow_pin12full_dynamic17unshare_if_shared17h02646414dc25e2d7E>
   232b0:	a802      	add	r0, sp, #8
   232b2:	f003 fe33 	bl	26f1c <_ZN9allow_pin12full_dynamic17unshare_if_shared17h02646414dc25e2d7E>
   232b6:	b01d      	add	sp, #116	@ 0x74
   232b8:	bdf0      	pop	{r4, r5, r6, r7, pc}
   232ba:	a802      	add	r0, sp, #8
   232bc:	f003 fe2e 	bl	26f1c <_ZN9allow_pin12full_dynamic17unshare_if_shared17h02646414dc25e2d7E>
   232c0:	ac15      	add	r4, sp, #84	@ 0x54
   232c2:	4620      	mov	r0, r4
   232c4:	f003 fe2a 	bl	26f1c <_ZN9allow_pin12full_dynamic17unshare_if_shared17h02646414dc25e2d7E>
   232c8:	4620      	mov	r0, r4
   232ca:	f003 fe27 	bl	26f1c <_ZN9allow_pin12full_dynamic17unshare_if_shared17h02646414dc25e2d7E>
   232ce:	9c01      	ldr	r4, [sp, #4]
   232d0:	1c60      	adds	r0, r4, #1
   232d2:	2211      	movs	r2, #17
   232d4:	4629      	mov	r1, r5
   232d6:	f003 ffe2 	bl	2729e <__aeabi_memcpy>
   232da:	e7e5      	b.n	232a8 <_ZN20complex_full_dynamic3app17hcd0145decdd70a17E+0x74>
   232dc:	000014d7 	.word	0x000014d7

000232e0 <_ZN20complex_full_dynamic3app17hce6d94e7fab5322fE>:
   232e0:	b5f0      	push	{r4, r5, r6, r7, lr}
   232e2:	af03      	add	r7, sp, #12
   232e4:	b0ab      	sub	sp, #172	@ 0xac
   232e6:	9003      	str	r0, [sp, #12]
   232e8:	ae04      	add	r6, sp, #16
   232ea:	2402      	movs	r4, #2
   232ec:	7234      	strb	r4, [r6, #8]
   232ee:	360c      	adds	r6, #12
   232f0:	2261      	movs	r2, #97	@ 0x61
   232f2:	9202      	str	r2, [sp, #8]
   232f4:	4630      	mov	r0, r6
   232f6:	f003 ffd2 	bl	2729e <__aeabi_memcpy>
   232fa:	ad20      	add	r5, sp, #128	@ 0x80
   232fc:	2000      	movs	r0, #0
   232fe:	8528      	strh	r0, [r5, #40]	@ 0x28
   23300:	722c      	strb	r4, [r5, #8]
   23302:	9029      	str	r0, [sp, #164]	@ 0xa4
   23304:	9028      	str	r0, [sp, #160]	@ 0xa0
   23306:	9027      	str	r0, [sp, #156]	@ 0x9c
   23308:	9026      	str	r0, [sp, #152]	@ 0x98
   2330a:	9025      	str	r0, [sp, #148]	@ 0x94
   2330c:	9024      	str	r0, [sp, #144]	@ 0x90
   2330e:	9023      	str	r0, [sp, #140]	@ 0x8c
   23310:	2031      	movs	r0, #49	@ 0x31
   23312:	00c0      	lsls	r0, r0, #3
   23314:	2404      	movs	r4, #4
   23316:	9001      	str	r0, [sp, #4]
   23318:	4621      	mov	r1, r4
   2331a:	4632      	mov	r2, r6
   2331c:	9b02      	ldr	r3, [sp, #8]
   2331e:	df04      	svc	4
   23320:	2802      	cmp	r0, #2
   23322:	d019      	beq.n	23358 <_ZN20complex_full_dynamic3app17hce6d94e7fab5322fE+0x78>
   23324:	350c      	adds	r5, #12
   23326:	a804      	add	r0, sp, #16
   23328:	7204      	strb	r4, [r0, #8]
   2332a:	9405      	str	r4, [sp, #20]
   2332c:	9801      	ldr	r0, [sp, #4]
   2332e:	9004      	str	r0, [sp, #16]
   23330:	2406      	movs	r4, #6
   23332:	231e      	movs	r3, #30
   23334:	4621      	mov	r1, r4
   23336:	462a      	mov	r2, r5
   23338:	df03      	svc	3
   2333a:	2802      	cmp	r0, #2
   2333c:	d00c      	beq.n	23358 <_ZN20complex_full_dynamic3app17hce6d94e7fab5322fE+0x78>
   2333e:	a820      	add	r0, sp, #128	@ 0x80
   23340:	2103      	movs	r1, #3
   23342:	7201      	strb	r1, [r0, #8]
   23344:	9801      	ldr	r0, [sp, #4]
   23346:	9020      	str	r0, [sp, #128]	@ 0x80
   23348:	9421      	str	r4, [sp, #132]	@ 0x84
   2334a:	2104      	movs	r1, #4
   2334c:	2600      	movs	r6, #0
   2334e:	4622      	mov	r2, r4
   23350:	4633      	mov	r3, r6
   23352:	df02      	svc	2
   23354:	287f      	cmp	r0, #127	@ 0x7f
   23356:	d80b      	bhi.n	23370 <_ZN20complex_full_dynamic3app17hce6d94e7fab5322fE+0x90>
   23358:	9c03      	ldr	r4, [sp, #12]
   2335a:	6061      	str	r1, [r4, #4]
   2335c:	2601      	movs	r6, #1
   2335e:	7026      	strb	r6, [r4, #0]
   23360:	a820      	add	r0, sp, #128	@ 0x80
   23362:	f003 fddb 	bl	26f1c <_ZN9allow_pin12full_dynamic17unshare_if_shared17h02646414dc25e2d7E>
   23366:	a804      	add	r0, sp, #16
   23368:	f003 fdd8 	bl	26f1c <_ZN9allow_pin12full_dynamic17unshare_if_shared17h02646414dc25e2d7E>
   2336c:	b02b      	add	sp, #172	@ 0xac
   2336e:	bdf0      	pop	{r4, r5, r6, r7, pc}
   23370:	a804      	add	r0, sp, #16
   23372:	f003 fdd3 	bl	26f1c <_ZN9allow_pin12full_dynamic17unshare_if_shared17h02646414dc25e2d7E>
   23376:	ac20      	add	r4, sp, #128	@ 0x80
   23378:	4620      	mov	r0, r4
   2337a:	f003 fdcf 	bl	26f1c <_ZN9allow_pin12full_dynamic17unshare_if_shared17h02646414dc25e2d7E>
   2337e:	4620      	mov	r0, r4
   23380:	f003 fdcc 	bl	26f1c <_ZN9allow_pin12full_dynamic17unshare_if_shared17h02646414dc25e2d7E>
   23384:	9c03      	ldr	r4, [sp, #12]
   23386:	1c60      	adds	r0, r4, #1
   23388:	221e      	movs	r2, #30
   2338a:	4629      	mov	r1, r5
   2338c:	f003 ff87 	bl	2729e <__aeabi_memcpy>
   23390:	e7e5      	b.n	2335e <_ZN20complex_full_dynamic3app17hce6d94e7fab5322fE+0x7e>
   23392:	d4d4      	bmi.n	2333e <_ZN20complex_full_dynamic3app17hce6d94e7fab5322fE+0x5e>

00023394 <_ZN20complex_full_dynamic3app17hcf86d3556b86406eE>:
   23394:	b5f0      	push	{r4, r5, r6, r7, lr}
   23396:	af03      	add	r7, sp, #12
   23398:	b0a5      	sub	sp, #148	@ 0x94
   2339a:	9003      	str	r0, [sp, #12]
   2339c:	ac04      	add	r4, sp, #16
   2339e:	2002      	movs	r0, #2
   233a0:	9002      	str	r0, [sp, #8]
   233a2:	7220      	strb	r0, [r4, #8]
   233a4:	340c      	adds	r4, #12
   233a6:	2213      	movs	r2, #19
   233a8:	9201      	str	r2, [sp, #4]
   233aa:	4620      	mov	r0, r4
   233ac:	f003 ff77 	bl	2729e <__aeabi_memcpy>
   233b0:	ae0c      	add	r6, sp, #48	@ 0x30
   233b2:	4635      	mov	r5, r6
   233b4:	350c      	adds	r5, #12
   233b6:	2155      	movs	r1, #85	@ 0x55
   233b8:	4628      	mov	r0, r5
   233ba:	f003 fdc3 	bl	26f44 <__aeabi_memclr4>
   233be:	9802      	ldr	r0, [sp, #8]
   233c0:	7230      	strb	r0, [r6, #8]
   233c2:	4820      	ldr	r0, [pc, #128]	@ (23444 <_ZN20complex_full_dynamic3app17hcf86d3556b86406eE+0xb0>)
   233c4:	2609      	movs	r6, #9
   233c6:	4631      	mov	r1, r6
   233c8:	4622      	mov	r2, r4
   233ca:	9b01      	ldr	r3, [sp, #4]
   233cc:	df04      	svc	4
   233ce:	2802      	cmp	r0, #2
   233d0:	d01a      	beq.n	23408 <_ZN20complex_full_dynamic3app17hcf86d3556b86406eE+0x74>
   233d2:	a804      	add	r0, sp, #16
   233d4:	2104      	movs	r1, #4
   233d6:	7201      	strb	r1, [r0, #8]
   233d8:	9605      	str	r6, [sp, #20]
   233da:	4e1a      	ldr	r6, [pc, #104]	@ (23444 <_ZN20complex_full_dynamic3app17hcf86d3556b86406eE+0xb0>)
   233dc:	9604      	str	r6, [sp, #16]
   233de:	2407      	movs	r4, #7
   233e0:	2355      	movs	r3, #85	@ 0x55
   233e2:	4630      	mov	r0, r6
   233e4:	4621      	mov	r1, r4
   233e6:	462a      	mov	r2, r5
   233e8:	df03      	svc	3
   233ea:	2802      	cmp	r0, #2
   233ec:	d00c      	beq.n	23408 <_ZN20complex_full_dynamic3app17hcf86d3556b86406eE+0x74>
   233ee:	a80c      	add	r0, sp, #48	@ 0x30
   233f0:	2103      	movs	r1, #3
   233f2:	7201      	strb	r1, [r0, #8]
   233f4:	960c      	str	r6, [sp, #48]	@ 0x30
   233f6:	940d      	str	r4, [sp, #52]	@ 0x34
   233f8:	4812      	ldr	r0, [pc, #72]	@ (23444 <_ZN20complex_full_dynamic3app17hcf86d3556b86406eE+0xb0>)
   233fa:	2109      	movs	r1, #9
   233fc:	2600      	movs	r6, #0
   233fe:	4622      	mov	r2, r4
   23400:	4633      	mov	r3, r6
   23402:	df02      	svc	2
   23404:	287f      	cmp	r0, #127	@ 0x7f
   23406:	d80b      	bhi.n	23420 <_ZN20complex_full_dynamic3app17hcf86d3556b86406eE+0x8c>
   23408:	9c03      	ldr	r4, [sp, #12]
   2340a:	6061      	str	r1, [r4, #4]
   2340c:	2601      	movs	r6, #1
   2340e:	7026      	strb	r6, [r4, #0]
   23410:	a80c      	add	r0, sp, #48	@ 0x30
   23412:	f003 fd83 	bl	26f1c <_ZN9allow_pin12full_dynamic17unshare_if_shared17h02646414dc25e2d7E>
   23416:	a804      	add	r0, sp, #16
   23418:	f003 fd80 	bl	26f1c <_ZN9allow_pin12full_dynamic17unshare_if_shared17h02646414dc25e2d7E>
   2341c:	b025      	add	sp, #148	@ 0x94
   2341e:	bdf0      	pop	{r4, r5, r6, r7, pc}
   23420:	a804      	add	r0, sp, #16
   23422:	f003 fd7b 	bl	26f1c <_ZN9allow_pin12full_dynamic17unshare_if_shared17h02646414dc25e2d7E>
   23426:	ac0c      	add	r4, sp, #48	@ 0x30
   23428:	4620      	mov	r0, r4
   2342a:	f003 fd77 	bl	26f1c <_ZN9allow_pin12full_dynamic17unshare_if_shared17h02646414dc25e2d7E>
   2342e:	4620      	mov	r0, r4
   23430:	f003 fd74 	bl	26f1c <_ZN9allow_pin12full_dynamic17unshare_if_shared17h02646414dc25e2d7E>
   23434:	9c03      	ldr	r4, [sp, #12]
   23436:	1c60      	adds	r0, r4, #1
   23438:	2255      	movs	r2, #85	@ 0x55
   2343a:	4629      	mov	r1, r5
   2343c:	f003 ff2f 	bl	2729e <__aeabi_memcpy>
   23440:	e7e5      	b.n	2340e <_ZN20complex_full_dynamic3app17hcf86d3556b86406eE+0x7a>
   23442:	46c0      	nop			@ (mov r8, r8)
   23444:	0000032e 	.word	0x0000032e

00023448 <_ZN20complex_full_dynamic3app17hd1d1a19f9d9a643fE>:
   23448:	b5f0      	push	{r4, r5, r6, r7, lr}
   2344a:	af03      	add	r7, sp, #12
   2344c:	b0a5      	sub	sp, #148	@ 0x94
   2344e:	9001      	str	r0, [sp, #4]
   23450:	ae02      	add	r6, sp, #8
   23452:	2502      	movs	r5, #2
   23454:	7235      	strb	r5, [r6, #8]
   23456:	360c      	adds	r6, #12
   23458:	225d      	movs	r2, #93	@ 0x5d
   2345a:	9200      	str	r2, [sp, #0]
   2345c:	4630      	mov	r0, r6
   2345e:	f003 ff1e 	bl	2729e <__aeabi_memcpy>
   23462:	a81d      	add	r0, sp, #116	@ 0x74
   23464:	2400      	movs	r4, #0
   23466:	8384      	strh	r4, [r0, #28]
   23468:	7205      	strb	r5, [r0, #8]
   2346a:	4605      	mov	r5, r0
   2346c:	9423      	str	r4, [sp, #140]	@ 0x8c
   2346e:	9422      	str	r4, [sp, #136]	@ 0x88
   23470:	9421      	str	r4, [sp, #132]	@ 0x84
   23472:	9420      	str	r4, [sp, #128]	@ 0x80
   23474:	481f      	ldr	r0, [pc, #124]	@ (234f4 <_ZN20complex_full_dynamic3app17hd1d1a19f9d9a643fE+0xac>)
   23476:	4621      	mov	r1, r4
   23478:	4632      	mov	r2, r6
   2347a:	9b00      	ldr	r3, [sp, #0]
   2347c:	df04      	svc	4
   2347e:	2802      	cmp	r0, #2
   23480:	d01b      	beq.n	234ba <_ZN20complex_full_dynamic3app17hd1d1a19f9d9a643fE+0x72>
   23482:	350c      	adds	r5, #12
   23484:	a802      	add	r0, sp, #8
   23486:	2104      	movs	r1, #4
   23488:	7201      	strb	r1, [r0, #8]
   2348a:	9403      	str	r4, [sp, #12]
   2348c:	4e19      	ldr	r6, [pc, #100]	@ (234f4 <_ZN20complex_full_dynamic3app17hd1d1a19f9d9a643fE+0xac>)
   2348e:	9602      	str	r6, [sp, #8]
   23490:	2402      	movs	r4, #2
   23492:	2312      	movs	r3, #18
   23494:	4630      	mov	r0, r6
   23496:	4621      	mov	r1, r4
   23498:	462a      	mov	r2, r5
   2349a:	df03      	svc	3
   2349c:	2802      	cmp	r0, #2
   2349e:	d00c      	beq.n	234ba <_ZN20complex_full_dynamic3app17hd1d1a19f9d9a643fE+0x72>
   234a0:	a81d      	add	r0, sp, #116	@ 0x74
   234a2:	2103      	movs	r1, #3
   234a4:	7201      	strb	r1, [r0, #8]
   234a6:	961d      	str	r6, [sp, #116]	@ 0x74
   234a8:	941e      	str	r4, [sp, #120]	@ 0x78
   234aa:	4812      	ldr	r0, [pc, #72]	@ (234f4 <_ZN20complex_full_dynamic3app17hd1d1a19f9d9a643fE+0xac>)
   234ac:	2600      	movs	r6, #0
   234ae:	4631      	mov	r1, r6
   234b0:	4622      	mov	r2, r4
   234b2:	4633      	mov	r3, r6
   234b4:	df02      	svc	2
   234b6:	287f      	cmp	r0, #127	@ 0x7f
   234b8:	d80b      	bhi.n	234d2 <_ZN20complex_full_dynamic3app17hd1d1a19f9d9a643fE+0x8a>
   234ba:	9c01      	ldr	r4, [sp, #4]
   234bc:	6061      	str	r1, [r4, #4]
   234be:	2601      	movs	r6, #1
   234c0:	7026      	strb	r6, [r4, #0]
   234c2:	a81d      	add	r0, sp, #116	@ 0x74
   234c4:	f003 fd2a 	bl	26f1c <_ZN9allow_pin12full_dynamic17unshare_if_shared17h02646414dc25e2d7E>
   234c8:	a802      	add	r0, sp, #8
   234ca:	f003 fd27 	bl	26f1c <_ZN9allow_pin12full_dynamic17unshare_if_shared17h02646414dc25e2d7E>
   234ce:	b025      	add	sp, #148	@ 0x94
   234d0:	bdf0      	pop	{r4, r5, r6, r7, pc}
   234d2:	a802      	add	r0, sp, #8
   234d4:	f003 fd22 	bl	26f1c <_ZN9allow_pin12full_dynamic17unshare_if_shared17h02646414dc25e2d7E>
   234d8:	ac1d      	add	r4, sp, #116	@ 0x74
   234da:	4620      	mov	r0, r4
   234dc:	f003 fd1e 	bl	26f1c <_ZN9allow_pin12full_dynamic17unshare_if_shared17h02646414dc25e2d7E>
   234e0:	4620      	mov	r0, r4
   234e2:	f003 fd1b 	bl	26f1c <_ZN9allow_pin12full_dynamic17unshare_if_shared17h02646414dc25e2d7E>
   234e6:	9c01      	ldr	r4, [sp, #4]
   234e8:	1c60      	adds	r0, r4, #1
   234ea:	2212      	movs	r2, #18
   234ec:	4629      	mov	r1, r5
   234ee:	f003 fed6 	bl	2729e <__aeabi_memcpy>
   234f2:	e7e5      	b.n	234c0 <_ZN20complex_full_dynamic3app17hd1d1a19f9d9a643fE+0x78>
   234f4:	000015f1 	.word	0x000015f1

000234f8 <_ZN20complex_full_dynamic3app17hd2593310a45955e4E>:
   234f8:	b5f0      	push	{r4, r5, r6, r7, lr}
   234fa:	af03      	add	r7, sp, #12
   234fc:	b0a3      	sub	sp, #140	@ 0x8c
   234fe:	9002      	str	r0, [sp, #8]
   23500:	ae03      	add	r6, sp, #12
   23502:	2002      	movs	r0, #2
   23504:	9001      	str	r0, [sp, #4]
   23506:	7230      	strb	r0, [r6, #8]
   23508:	360c      	adds	r6, #12
   2350a:	2532      	movs	r5, #50	@ 0x32
   2350c:	4630      	mov	r0, r6
   2350e:	462a      	mov	r2, r5
   23510:	f003 fec5 	bl	2729e <__aeabi_memcpy>
   23514:	ac13      	add	r4, sp, #76	@ 0x4c
   23516:	4620      	mov	r0, r4
   23518:	300c      	adds	r0, #12
   2351a:	9000      	str	r0, [sp, #0]
   2351c:	4629      	mov	r1, r5
   2351e:	f003 fd11 	bl	26f44 <__aeabi_memclr4>
   23522:	9801      	ldr	r0, [sp, #4]
   23524:	7220      	strb	r0, [r4, #8]
   23526:	4820      	ldr	r0, [pc, #128]	@ (235a8 <_ZN20complex_full_dynamic3app17hd2593310a45955e4E+0xb0>)
   23528:	2403      	movs	r4, #3
   2352a:	4621      	mov	r1, r4
   2352c:	4632      	mov	r2, r6
   2352e:	462b      	mov	r3, r5
   23530:	df04      	svc	4
   23532:	2802      	cmp	r0, #2
   23534:	d01a      	beq.n	2356c <_ZN20complex_full_dynamic3app17hd2593310a45955e4E+0x74>
   23536:	a803      	add	r0, sp, #12
   23538:	2104      	movs	r1, #4
   2353a:	7201      	strb	r1, [r0, #8]
   2353c:	9404      	str	r4, [sp, #16]
   2353e:	4e1a      	ldr	r6, [pc, #104]	@ (235a8 <_ZN20complex_full_dynamic3app17hd2593310a45955e4E+0xb0>)
   23540:	9603      	str	r6, [sp, #12]
   23542:	2101      	movs	r1, #1
   23544:	2332      	movs	r3, #50	@ 0x32
   23546:	4630      	mov	r0, r6
   23548:	9101      	str	r1, [sp, #4]
   2354a:	9d00      	ldr	r5, [sp, #0]
   2354c:	462a      	mov	r2, r5
   2354e:	df03      	svc	3
   23550:	2802      	cmp	r0, #2
   23552:	d00b      	beq.n	2356c <_ZN20complex_full_dynamic3app17hd2593310a45955e4E+0x74>
   23554:	a813      	add	r0, sp, #76	@ 0x4c
   23556:	7204      	strb	r4, [r0, #8]
   23558:	9613      	str	r6, [sp, #76]	@ 0x4c
   2355a:	9a01      	ldr	r2, [sp, #4]
   2355c:	9214      	str	r2, [sp, #80]	@ 0x50
   2355e:	4812      	ldr	r0, [pc, #72]	@ (235a8 <_ZN20complex_full_dynamic3app17hd2593310a45955e4E+0xb0>)
   23560:	2600      	movs	r6, #0
   23562:	4621      	mov	r1, r4
   23564:	4633      	mov	r3, r6
   23566:	df02      	svc	2
   23568:	287f      	cmp	r0, #127	@ 0x7f
   2356a:	d80b      	bhi.n	23584 <_ZN20complex_full_dynamic3app17hd2593310a45955e4E+0x8c>
   2356c:	9c02      	ldr	r4, [sp, #8]
   2356e:	6061      	str	r1, [r4, #4]
   23570:	2601      	movs	r6, #1
   23572:	7026      	strb	r6, [r4, #0]
   23574:	a813      	add	r0, sp, #76	@ 0x4c
   23576:	f003 fcd1 	bl	26f1c <_ZN9allow_pin12full_dynamic17unshare_if_shared17h02646414dc25e2d7E>
   2357a:	a803      	add	r0, sp, #12
   2357c:	f003 fcce 	bl	26f1c <_ZN9allow_pin12full_dynamic17unshare_if_shared17h02646414dc25e2d7E>
   23580:	b023      	add	sp, #140	@ 0x8c
   23582:	bdf0      	pop	{r4, r5, r6, r7, pc}
   23584:	a803      	add	r0, sp, #12
   23586:	f003 fcc9 	bl	26f1c <_ZN9allow_pin12full_dynamic17unshare_if_shared17h02646414dc25e2d7E>
   2358a:	ac13      	add	r4, sp, #76	@ 0x4c
   2358c:	4620      	mov	r0, r4
   2358e:	f003 fcc5 	bl	26f1c <_ZN9allow_pin12full_dynamic17unshare_if_shared17h02646414dc25e2d7E>
   23592:	4620      	mov	r0, r4
   23594:	f003 fcc2 	bl	26f1c <_ZN9allow_pin12full_dynamic17unshare_if_shared17h02646414dc25e2d7E>
   23598:	9c02      	ldr	r4, [sp, #8]
   2359a:	1c60      	adds	r0, r4, #1
   2359c:	2232      	movs	r2, #50	@ 0x32
   2359e:	4629      	mov	r1, r5
   235a0:	f003 fe7d 	bl	2729e <__aeabi_memcpy>
   235a4:	e7e5      	b.n	23572 <_ZN20complex_full_dynamic3app17hd2593310a45955e4E+0x7a>
   235a6:	46c0      	nop			@ (mov r8, r8)
   235a8:	00001f07 	.word	0x00001f07

000235ac <_ZN20complex_full_dynamic3app17hd6ad79ab1d8110b9E>:
   235ac:	b5f0      	push	{r4, r5, r6, r7, lr}
   235ae:	af03      	add	r7, sp, #12
   235b0:	b0a3      	sub	sp, #140	@ 0x8c
   235b2:	9001      	str	r0, [sp, #4]
   235b4:	ac02      	add	r4, sp, #8
   235b6:	2502      	movs	r5, #2
   235b8:	7225      	strb	r5, [r4, #8]
   235ba:	340c      	adds	r4, #12
   235bc:	2250      	movs	r2, #80	@ 0x50
   235be:	9200      	str	r2, [sp, #0]
   235c0:	4620      	mov	r0, r4
   235c2:	f003 fe6c 	bl	2729e <__aeabi_memcpy>
   235c6:	a819      	add	r0, sp, #100	@ 0x64
   235c8:	4606      	mov	r6, r0
   235ca:	360c      	adds	r6, #12
   235cc:	2100      	movs	r1, #0
   235ce:	76b1      	strb	r1, [r6, #26]
   235d0:	8481      	strh	r1, [r0, #36]	@ 0x24
   235d2:	7205      	strb	r5, [r0, #8]
   235d4:	9121      	str	r1, [sp, #132]	@ 0x84
   235d6:	9120      	str	r1, [sp, #128]	@ 0x80
   235d8:	911f      	str	r1, [sp, #124]	@ 0x7c
   235da:	911e      	str	r1, [sp, #120]	@ 0x78
   235dc:	911d      	str	r1, [sp, #116]	@ 0x74
   235de:	911c      	str	r1, [sp, #112]	@ 0x70
   235e0:	4823      	ldr	r0, [pc, #140]	@ (23670 <_ZN20complex_full_dynamic3app17hd6ad79ab1d8110b9E+0xc4>)
   235e2:	2501      	movs	r5, #1
   235e4:	4629      	mov	r1, r5
   235e6:	4622      	mov	r2, r4
   235e8:	9b00      	ldr	r3, [sp, #0]
   235ea:	df04      	svc	4
   235ec:	2802      	cmp	r0, #2
   235ee:	d103      	bne.n	235f8 <_ZN20complex_full_dynamic3app17hd6ad79ab1d8110b9E+0x4c>
   235f0:	462c      	mov	r4, r5
   235f2:	9d01      	ldr	r5, [sp, #4]
   235f4:	6069      	str	r1, [r5, #4]
   235f6:	e031      	b.n	2365c <_ZN20complex_full_dynamic3app17hd6ad79ab1d8110b9E+0xb0>
   235f8:	a802      	add	r0, sp, #8
   235fa:	2104      	movs	r1, #4
   235fc:	7201      	strb	r1, [r0, #8]
   235fe:	462c      	mov	r4, r5
   23600:	9503      	str	r5, [sp, #12]
   23602:	481b      	ldr	r0, [pc, #108]	@ (23670 <_ZN20complex_full_dynamic3app17hd6ad79ab1d8110b9E+0xc4>)
   23604:	9002      	str	r0, [sp, #8]
   23606:	2502      	movs	r5, #2
   23608:	231b      	movs	r3, #27
   2360a:	4629      	mov	r1, r5
   2360c:	4632      	mov	r2, r6
   2360e:	df03      	svc	3
   23610:	2802      	cmp	r0, #2
   23612:	d102      	bne.n	2361a <_ZN20complex_full_dynamic3app17hd6ad79ab1d8110b9E+0x6e>
   23614:	9d01      	ldr	r5, [sp, #4]
   23616:	6069      	str	r1, [r5, #4]
   23618:	e020      	b.n	2365c <_ZN20complex_full_dynamic3app17hd6ad79ab1d8110b9E+0xb0>
   2361a:	9600      	str	r6, [sp, #0]
   2361c:	a819      	add	r0, sp, #100	@ 0x64
   2361e:	2103      	movs	r1, #3
   23620:	7201      	strb	r1, [r0, #8]
   23622:	4813      	ldr	r0, [pc, #76]	@ (23670 <_ZN20complex_full_dynamic3app17hd6ad79ab1d8110b9E+0xc4>)
   23624:	9019      	str	r0, [sp, #100]	@ 0x64
   23626:	951a      	str	r5, [sp, #104]	@ 0x68
   23628:	2101      	movs	r1, #1
   2362a:	2600      	movs	r6, #0
   2362c:	462a      	mov	r2, r5
   2362e:	4633      	mov	r3, r6
   23630:	df02      	svc	2
   23632:	287f      	cmp	r0, #127	@ 0x7f
   23634:	9d01      	ldr	r5, [sp, #4]
   23636:	d801      	bhi.n	2363c <_ZN20complex_full_dynamic3app17hd6ad79ab1d8110b9E+0x90>
   23638:	6069      	str	r1, [r5, #4]
   2363a:	e00f      	b.n	2365c <_ZN20complex_full_dynamic3app17hd6ad79ab1d8110b9E+0xb0>
   2363c:	a802      	add	r0, sp, #8
   2363e:	f003 fc6d 	bl	26f1c <_ZN9allow_pin12full_dynamic17unshare_if_shared17h02646414dc25e2d7E>
   23642:	4634      	mov	r4, r6
   23644:	ae19      	add	r6, sp, #100	@ 0x64
   23646:	4630      	mov	r0, r6
   23648:	f003 fc68 	bl	26f1c <_ZN9allow_pin12full_dynamic17unshare_if_shared17h02646414dc25e2d7E>
   2364c:	4630      	mov	r0, r6
   2364e:	f003 fc65 	bl	26f1c <_ZN9allow_pin12full_dynamic17unshare_if_shared17h02646414dc25e2d7E>
   23652:	1c68      	adds	r0, r5, #1
   23654:	221b      	movs	r2, #27
   23656:	9900      	ldr	r1, [sp, #0]
   23658:	f003 fe21 	bl	2729e <__aeabi_memcpy>
   2365c:	702c      	strb	r4, [r5, #0]
   2365e:	a819      	add	r0, sp, #100	@ 0x64
   23660:	f003 fc5c 	bl	26f1c <_ZN9allow_pin12full_dynamic17unshare_if_shared17h02646414dc25e2d7E>
   23664:	a802      	add	r0, sp, #8
   23666:	f003 fc59 	bl	26f1c <_ZN9allow_pin12full_dynamic17unshare_if_shared17h02646414dc25e2d7E>
   2366a:	b023      	add	sp, #140	@ 0x8c
   2366c:	bdf0      	pop	{r4, r5, r6, r7, pc}
   2366e:	46c0      	nop			@ (mov r8, r8)
   23670:	000003d9 	.word	0x000003d9

00023674 <_ZN20complex_full_dynamic3app17hd6d5cfd3f077af0eE>:
   23674:	b5f0      	push	{r4, r5, r6, r7, lr}
   23676:	af03      	add	r7, sp, #12
   23678:	b0a5      	sub	sp, #148	@ 0x94
   2367a:	9003      	str	r0, [sp, #12]
   2367c:	ac04      	add	r4, sp, #16
   2367e:	2002      	movs	r0, #2
   23680:	9002      	str	r0, [sp, #8]
   23682:	7220      	strb	r0, [r4, #8]
   23684:	340c      	adds	r4, #12
   23686:	2236      	movs	r2, #54	@ 0x36
   23688:	9201      	str	r2, [sp, #4]
   2368a:	4620      	mov	r0, r4
   2368c:	f003 fe07 	bl	2729e <__aeabi_memcpy>
   23690:	ae15      	add	r6, sp, #84	@ 0x54
   23692:	4635      	mov	r5, r6
   23694:	350c      	adds	r5, #12
   23696:	2134      	movs	r1, #52	@ 0x34
   23698:	4628      	mov	r0, r5
   2369a:	f003 fc53 	bl	26f44 <__aeabi_memclr4>
   2369e:	9802      	ldr	r0, [sp, #8]
   236a0:	7230      	strb	r0, [r6, #8]
   236a2:	481f      	ldr	r0, [pc, #124]	@ (23720 <_ZN20complex_full_dynamic3app17hd6d5cfd3f077af0eE+0xac>)
   236a4:	2604      	movs	r6, #4
   236a6:	4631      	mov	r1, r6
   236a8:	4622      	mov	r2, r4
   236aa:	9b01      	ldr	r3, [sp, #4]
   236ac:	df04      	svc	4
   236ae:	2802      	cmp	r0, #2
   236b0:	d019      	beq.n	236e6 <_ZN20complex_full_dynamic3app17hd6d5cfd3f077af0eE+0x72>
   236b2:	a804      	add	r0, sp, #16
   236b4:	7206      	strb	r6, [r0, #8]
   236b6:	9605      	str	r6, [sp, #20]
   236b8:	4e19      	ldr	r6, [pc, #100]	@ (23720 <_ZN20complex_full_dynamic3app17hd6d5cfd3f077af0eE+0xac>)
   236ba:	9604      	str	r6, [sp, #16]
   236bc:	2402      	movs	r4, #2
   236be:	2334      	movs	r3, #52	@ 0x34
   236c0:	4630      	mov	r0, r6
   236c2:	4621      	mov	r1, r4
   236c4:	462a      	mov	r2, r5
   236c6:	df03      	svc	3
   236c8:	2802      	cmp	r0, #2
   236ca:	d00c      	beq.n	236e6 <_ZN20complex_full_dynamic3app17hd6d5cfd3f077af0eE+0x72>
   236cc:	a815      	add	r0, sp, #84	@ 0x54
   236ce:	2103      	movs	r1, #3
   236d0:	7201      	strb	r1, [r0, #8]
   236d2:	9615      	str	r6, [sp, #84]	@ 0x54
   236d4:	9416      	str	r4, [sp, #88]	@ 0x58
   236d6:	4812      	ldr	r0, [pc, #72]	@ (23720 <_ZN20complex_full_dynamic3app17hd6d5cfd3f077af0eE+0xac>)
   236d8:	2104      	movs	r1, #4
   236da:	2600      	movs	r6, #0
   236dc:	4622      	mov	r2, r4
   236de:	4633      	mov	r3, r6
   236e0:	df02      	svc	2
   236e2:	287f      	cmp	r0, #127	@ 0x7f
   236e4:	d80b      	bhi.n	236fe <_ZN20complex_full_dynamic3app17hd6d5cfd3f077af0eE+0x8a>
   236e6:	9c03      	ldr	r4, [sp, #12]
   236e8:	6061      	str	r1, [r4, #4]
   236ea:	2601      	movs	r6, #1
   236ec:	7026      	strb	r6, [r4, #0]
   236ee:	a815      	add	r0, sp, #84	@ 0x54
   236f0:	f003 fc14 	bl	26f1c <_ZN9allow_pin12full_dynamic17unshare_if_shared17h02646414dc25e2d7E>
   236f4:	a804      	add	r0, sp, #16
   236f6:	f003 fc11 	bl	26f1c <_ZN9allow_pin12full_dynamic17unshare_if_shared17h02646414dc25e2d7E>
   236fa:	b025      	add	sp, #148	@ 0x94
   236fc:	bdf0      	pop	{r4, r5, r6, r7, pc}
   236fe:	a804      	add	r0, sp, #16
   23700:	f003 fc0c 	bl	26f1c <_ZN9allow_pin12full_dynamic17unshare_if_shared17h02646414dc25e2d7E>
   23704:	ac15      	add	r4, sp, #84	@ 0x54
   23706:	4620      	mov	r0, r4
   23708:	f003 fc08 	bl	26f1c <_ZN9allow_pin12full_dynamic17unshare_if_shared17h02646414dc25e2d7E>
   2370c:	4620      	mov	r0, r4
   2370e:	f003 fc05 	bl	26f1c <_ZN9allow_pin12full_dynamic17unshare_if_shared17h02646414dc25e2d7E>
   23712:	9c03      	ldr	r4, [sp, #12]
   23714:	1c60      	adds	r0, r4, #1
   23716:	2234      	movs	r2, #52	@ 0x34
   23718:	4629      	mov	r1, r5
   2371a:	f003 fdc0 	bl	2729e <__aeabi_memcpy>
   2371e:	e7e5      	b.n	236ec <_ZN20complex_full_dynamic3app17hd6d5cfd3f077af0eE+0x78>
   23720:	000023c6 	.word	0x000023c6

00023724 <_ZN20complex_full_dynamic3app17hda9876efe20bd6e9E>:
   23724:	b5f0      	push	{r4, r5, r6, r7, lr}
   23726:	af03      	add	r7, sp, #12
   23728:	b0a9      	sub	sp, #164	@ 0xa4
   2372a:	9003      	str	r0, [sp, #12]
   2372c:	ac04      	add	r4, sp, #16
   2372e:	2002      	movs	r0, #2
   23730:	9002      	str	r0, [sp, #8]
   23732:	7220      	strb	r0, [r4, #8]
   23734:	340c      	adds	r4, #12
   23736:	2231      	movs	r2, #49	@ 0x31
   23738:	9201      	str	r2, [sp, #4]
   2373a:	4620      	mov	r0, r4
   2373c:	f003 fdaf 	bl	2729e <__aeabi_memcpy>
   23740:	ae14      	add	r6, sp, #80	@ 0x50
   23742:	4635      	mov	r5, r6
   23744:	350c      	adds	r5, #12
   23746:	2148      	movs	r1, #72	@ 0x48
   23748:	4628      	mov	r0, r5
   2374a:	f003 fbfb 	bl	26f44 <__aeabi_memclr4>
   2374e:	9802      	ldr	r0, [sp, #8]
   23750:	7230      	strb	r0, [r6, #8]
   23752:	481f      	ldr	r0, [pc, #124]	@ (237d0 <_ZN20complex_full_dynamic3app17hda9876efe20bd6e9E+0xac>)
   23754:	2604      	movs	r6, #4
   23756:	4631      	mov	r1, r6
   23758:	4622      	mov	r2, r4
   2375a:	9b01      	ldr	r3, [sp, #4]
   2375c:	df04      	svc	4
   2375e:	2802      	cmp	r0, #2
   23760:	d018      	beq.n	23794 <_ZN20complex_full_dynamic3app17hda9876efe20bd6e9E+0x70>
   23762:	a804      	add	r0, sp, #16
   23764:	7206      	strb	r6, [r0, #8]
   23766:	9605      	str	r6, [sp, #20]
   23768:	4e19      	ldr	r6, [pc, #100]	@ (237d0 <_ZN20complex_full_dynamic3app17hda9876efe20bd6e9E+0xac>)
   2376a:	9604      	str	r6, [sp, #16]
   2376c:	2403      	movs	r4, #3
   2376e:	2348      	movs	r3, #72	@ 0x48
   23770:	4630      	mov	r0, r6
   23772:	4621      	mov	r1, r4
   23774:	462a      	mov	r2, r5
   23776:	df03      	svc	3
   23778:	2802      	cmp	r0, #2
   2377a:	d00b      	beq.n	23794 <_ZN20complex_full_dynamic3app17hda9876efe20bd6e9E+0x70>
   2377c:	a814      	add	r0, sp, #80	@ 0x50
   2377e:	7204      	strb	r4, [r0, #8]
   23780:	9415      	str	r4, [sp, #84]	@ 0x54
   23782:	9614      	str	r6, [sp, #80]	@ 0x50
   23784:	4812      	ldr	r0, [pc, #72]	@ (237d0 <_ZN20complex_full_dynamic3app17hda9876efe20bd6e9E+0xac>)
   23786:	2104      	movs	r1, #4
   23788:	2600      	movs	r6, #0
   2378a:	4622      	mov	r2, r4
   2378c:	4633      	mov	r3, r6
   2378e:	df02      	svc	2
   23790:	287f      	cmp	r0, #127	@ 0x7f
   23792:	d80b      	bhi.n	237ac <_ZN20complex_full_dynamic3app17hda9876efe20bd6e9E+0x88>
   23794:	9c03      	ldr	r4, [sp, #12]
   23796:	6061      	str	r1, [r4, #4]
   23798:	2601      	movs	r6, #1
   2379a:	7026      	strb	r6, [r4, #0]
   2379c:	a814      	add	r0, sp, #80	@ 0x50
   2379e:	f003 fbbd 	bl	26f1c <_ZN9allow_pin12full_dynamic17unshare_if_shared17h02646414dc25e2d7E>
   237a2:	a804      	add	r0, sp, #16
   237a4:	f003 fbba 	bl	26f1c <_ZN9allow_pin12full_dynamic17unshare_if_shared17h02646414dc25e2d7E>
   237a8:	b029      	add	sp, #164	@ 0xa4
   237aa:	bdf0      	pop	{r4, r5, r6, r7, pc}
   237ac:	a804      	add	r0, sp, #16
   237ae:	f003 fbb5 	bl	26f1c <_ZN9allow_pin12full_dynamic17unshare_if_shared17h02646414dc25e2d7E>
   237b2:	ac14      	add	r4, sp, #80	@ 0x50
   237b4:	4620      	mov	r0, r4
   237b6:	f003 fbb1 	bl	26f1c <_ZN9allow_pin12full_dynamic17unshare_if_shared17h02646414dc25e2d7E>
   237ba:	4620      	mov	r0, r4
   237bc:	f003 fbae 	bl	26f1c <_ZN9allow_pin12full_dynamic17unshare_if_shared17h02646414dc25e2d7E>
   237c0:	9c03      	ldr	r4, [sp, #12]
   237c2:	1c60      	adds	r0, r4, #1
   237c4:	2248      	movs	r2, #72	@ 0x48
   237c6:	4629      	mov	r1, r5
   237c8:	f003 fd69 	bl	2729e <__aeabi_memcpy>
   237cc:	e7e5      	b.n	2379a <_ZN20complex_full_dynamic3app17hda9876efe20bd6e9E+0x76>
   237ce:	46c0      	nop			@ (mov r8, r8)
   237d0:	0000180e 	.word	0x0000180e

000237d4 <_ZN20complex_full_dynamic3app17hdd6a905608826a7aE>:
   237d4:	b5f0      	push	{r4, r5, r6, r7, lr}
   237d6:	af03      	add	r7, sp, #12
   237d8:	b0ad      	sub	sp, #180	@ 0xb4
   237da:	9002      	str	r0, [sp, #8]
   237dc:	ae03      	add	r6, sp, #12
   237de:	2002      	movs	r0, #2
   237e0:	9001      	str	r0, [sp, #4]
   237e2:	7230      	strb	r0, [r6, #8]
   237e4:	360c      	adds	r6, #12
   237e6:	222a      	movs	r2, #42	@ 0x2a
   237e8:	9200      	str	r2, [sp, #0]
   237ea:	4630      	mov	r0, r6
   237ec:	f003 fd57 	bl	2729e <__aeabi_memcpy>
   237f0:	ac11      	add	r4, sp, #68	@ 0x44
   237f2:	4625      	mov	r5, r4
   237f4:	350c      	adds	r5, #12
   237f6:	2163      	movs	r1, #99	@ 0x63
   237f8:	4628      	mov	r0, r5
   237fa:	f003 fba3 	bl	26f44 <__aeabi_memclr4>
   237fe:	9801      	ldr	r0, [sp, #4]
   23800:	7220      	strb	r0, [r4, #8]
   23802:	481f      	ldr	r0, [pc, #124]	@ (23880 <_ZN20complex_full_dynamic3app17hdd6a905608826a7aE+0xac>)
   23804:	2404      	movs	r4, #4
   23806:	4621      	mov	r1, r4
   23808:	4632      	mov	r2, r6
   2380a:	9b00      	ldr	r3, [sp, #0]
   2380c:	df04      	svc	4
   2380e:	2802      	cmp	r0, #2
   23810:	d018      	beq.n	23844 <_ZN20complex_full_dynamic3app17hdd6a905608826a7aE+0x70>
   23812:	a803      	add	r0, sp, #12
   23814:	7204      	strb	r4, [r0, #8]
   23816:	9404      	str	r4, [sp, #16]
   23818:	4c19      	ldr	r4, [pc, #100]	@ (23880 <_ZN20complex_full_dynamic3app17hdd6a905608826a7aE+0xac>)
   2381a:	9403      	str	r4, [sp, #12]
   2381c:	2600      	movs	r6, #0
   2381e:	2363      	movs	r3, #99	@ 0x63
   23820:	4620      	mov	r0, r4
   23822:	4631      	mov	r1, r6
   23824:	462a      	mov	r2, r5
   23826:	df03      	svc	3
   23828:	2802      	cmp	r0, #2
   2382a:	d00b      	beq.n	23844 <_ZN20complex_full_dynamic3app17hdd6a905608826a7aE+0x70>
   2382c:	a811      	add	r0, sp, #68	@ 0x44
   2382e:	2103      	movs	r1, #3
   23830:	7201      	strb	r1, [r0, #8]
   23832:	9411      	str	r4, [sp, #68]	@ 0x44
   23834:	9612      	str	r6, [sp, #72]	@ 0x48
   23836:	4812      	ldr	r0, [pc, #72]	@ (23880 <_ZN20complex_full_dynamic3app17hdd6a905608826a7aE+0xac>)
   23838:	2104      	movs	r1, #4
   2383a:	4632      	mov	r2, r6
   2383c:	4633      	mov	r3, r6
   2383e:	df02      	svc	2
   23840:	287f      	cmp	r0, #127	@ 0x7f
   23842:	d80b      	bhi.n	2385c <_ZN20complex_full_dynamic3app17hdd6a905608826a7aE+0x88>
   23844:	9c02      	ldr	r4, [sp, #8]
   23846:	6061      	str	r1, [r4, #4]
   23848:	2601      	movs	r6, #1
   2384a:	7026      	strb	r6, [r4, #0]
   2384c:	a811      	add	r0, sp, #68	@ 0x44
   2384e:	f003 fb65 	bl	26f1c <_ZN9allow_pin12full_dynamic17unshare_if_shared17h02646414dc25e2d7E>
   23852:	a803      	add	r0, sp, #12
   23854:	f003 fb62 	bl	26f1c <_ZN9allow_pin12full_dynamic17unshare_if_shared17h02646414dc25e2d7E>
   23858:	b02d      	add	sp, #180	@ 0xb4
   2385a:	bdf0      	pop	{r4, r5, r6, r7, pc}
   2385c:	a803      	add	r0, sp, #12
   2385e:	f003 fb5d 	bl	26f1c <_ZN9allow_pin12full_dynamic17unshare_if_shared17h02646414dc25e2d7E>
   23862:	ac11      	add	r4, sp, #68	@ 0x44
   23864:	4620      	mov	r0, r4
   23866:	f003 fb59 	bl	26f1c <_ZN9allow_pin12full_dynamic17unshare_if_shared17h02646414dc25e2d7E>
   2386a:	4620      	mov	r0, r4
   2386c:	f003 fb56 	bl	26f1c <_ZN9allow_pin12full_dynamic17unshare_if_shared17h02646414dc25e2d7E>
   23870:	9c02      	ldr	r4, [sp, #8]
   23872:	1c60      	adds	r0, r4, #1
   23874:	2263      	movs	r2, #99	@ 0x63
   23876:	4629      	mov	r1, r5
   23878:	f003 fd11 	bl	2729e <__aeabi_memcpy>
   2387c:	e7e5      	b.n	2384a <_ZN20complex_full_dynamic3app17hdd6a905608826a7aE+0x76>
   2387e:	46c0      	nop			@ (mov r8, r8)
   23880:	00001c7c 	.word	0x00001c7c

00023884 <_ZN20complex_full_dynamic3app17hddd749ecf1c30a49E>:
   23884:	b5f0      	push	{r4, r5, r6, r7, lr}
   23886:	af03      	add	r7, sp, #12
   23888:	b09d      	sub	sp, #116	@ 0x74
   2388a:	9002      	str	r0, [sp, #8]
   2388c:	ae03      	add	r6, sp, #12
   2388e:	2502      	movs	r5, #2
   23890:	7235      	strb	r5, [r6, #8]
   23892:	360c      	adds	r6, #12
   23894:	2234      	movs	r2, #52	@ 0x34
   23896:	9201      	str	r2, [sp, #4]
   23898:	4630      	mov	r0, r6
   2389a:	f003 fd00 	bl	2729e <__aeabi_memcpy>
   2389e:	a813      	add	r0, sp, #76	@ 0x4c
   238a0:	2400      	movs	r4, #0
   238a2:	8484      	strh	r4, [r0, #36]	@ 0x24
   238a4:	7205      	strb	r5, [r0, #8]
   238a6:	4605      	mov	r5, r0
   238a8:	941b      	str	r4, [sp, #108]	@ 0x6c
   238aa:	941a      	str	r4, [sp, #104]	@ 0x68
   238ac:	9419      	str	r4, [sp, #100]	@ 0x64
   238ae:	9418      	str	r4, [sp, #96]	@ 0x60
   238b0:	9417      	str	r4, [sp, #92]	@ 0x5c
   238b2:	9416      	str	r4, [sp, #88]	@ 0x58
   238b4:	481f      	ldr	r0, [pc, #124]	@ (23934 <_ZN20complex_full_dynamic3app17hddd749ecf1c30a49E+0xb0>)
   238b6:	4621      	mov	r1, r4
   238b8:	4632      	mov	r2, r6
   238ba:	9b01      	ldr	r3, [sp, #4]
   238bc:	df04      	svc	4
   238be:	2802      	cmp	r0, #2
   238c0:	d01b      	beq.n	238fa <_ZN20complex_full_dynamic3app17hddd749ecf1c30a49E+0x76>
   238c2:	350c      	adds	r5, #12
   238c4:	a803      	add	r0, sp, #12
   238c6:	2104      	movs	r1, #4
   238c8:	7201      	strb	r1, [r0, #8]
   238ca:	9404      	str	r4, [sp, #16]
   238cc:	4e19      	ldr	r6, [pc, #100]	@ (23934 <_ZN20complex_full_dynamic3app17hddd749ecf1c30a49E+0xb0>)
   238ce:	9603      	str	r6, [sp, #12]
   238d0:	2405      	movs	r4, #5
   238d2:	231a      	movs	r3, #26
   238d4:	4630      	mov	r0, r6
   238d6:	4621      	mov	r1, r4
   238d8:	462a      	mov	r2, r5
   238da:	df03      	svc	3
   238dc:	2802      	cmp	r0, #2
   238de:	d00c      	beq.n	238fa <_ZN20complex_full_dynamic3app17hddd749ecf1c30a49E+0x76>
   238e0:	a813      	add	r0, sp, #76	@ 0x4c
   238e2:	2103      	movs	r1, #3
   238e4:	7201      	strb	r1, [r0, #8]
   238e6:	9613      	str	r6, [sp, #76]	@ 0x4c
   238e8:	9414      	str	r4, [sp, #80]	@ 0x50
   238ea:	4812      	ldr	r0, [pc, #72]	@ (23934 <_ZN20complex_full_dynamic3app17hddd749ecf1c30a49E+0xb0>)
   238ec:	2600      	movs	r6, #0
   238ee:	4631      	mov	r1, r6
   238f0:	4622      	mov	r2, r4
   238f2:	4633      	mov	r3, r6
   238f4:	df02      	svc	2
   238f6:	287f      	cmp	r0, #127	@ 0x7f
   238f8:	d80b      	bhi.n	23912 <_ZN20complex_full_dynamic3app17hddd749ecf1c30a49E+0x8e>
   238fa:	9c02      	ldr	r4, [sp, #8]
   238fc:	6061      	str	r1, [r4, #4]
   238fe:	2601      	movs	r6, #1
   23900:	7026      	strb	r6, [r4, #0]
   23902:	a813      	add	r0, sp, #76	@ 0x4c
   23904:	f003 fb0a 	bl	26f1c <_ZN9allow_pin12full_dynamic17unshare_if_shared17h02646414dc25e2d7E>
   23908:	a803      	add	r0, sp, #12
   2390a:	f003 fb07 	bl	26f1c <_ZN9allow_pin12full_dynamic17unshare_if_shared17h02646414dc25e2d7E>
   2390e:	b01d      	add	sp, #116	@ 0x74
   23910:	bdf0      	pop	{r4, r5, r6, r7, pc}
   23912:	a803      	add	r0, sp, #12
   23914:	f003 fb02 	bl	26f1c <_ZN9allow_pin12full_dynamic17unshare_if_shared17h02646414dc25e2d7E>
   23918:	ac13      	add	r4, sp, #76	@ 0x4c
   2391a:	4620      	mov	r0, r4
   2391c:	f003 fafe 	bl	26f1c <_ZN9allow_pin12full_dynamic17unshare_if_shared17h02646414dc25e2d7E>
   23920:	4620      	mov	r0, r4
   23922:	f003 fafb 	bl	26f1c <_ZN9allow_pin12full_dynamic17unshare_if_shared17h02646414dc25e2d7E>
   23926:	9c02      	ldr	r4, [sp, #8]
   23928:	1c60      	adds	r0, r4, #1
   2392a:	221a      	movs	r2, #26
   2392c:	4629      	mov	r1, r5
   2392e:	f003 fcb6 	bl	2729e <__aeabi_memcpy>
   23932:	e7e5      	b.n	23900 <_ZN20complex_full_dynamic3app17hddd749ecf1c30a49E+0x7c>
   23934:	000012cc 	.word	0x000012cc

00023938 <_ZN20complex_full_dynamic3app17hdde2370c799fa580E>:
   23938:	b5f0      	push	{r4, r5, r6, r7, lr}
   2393a:	af03      	add	r7, sp, #12
   2393c:	b0a5      	sub	sp, #148	@ 0x94
   2393e:	9002      	str	r0, [sp, #8]
   23940:	ac03      	add	r4, sp, #12
   23942:	2002      	movs	r0, #2
   23944:	9001      	str	r0, [sp, #4]
   23946:	7220      	strb	r0, [r4, #8]
   23948:	340c      	adds	r4, #12
   2394a:	2249      	movs	r2, #73	@ 0x49
   2394c:	9200      	str	r2, [sp, #0]
   2394e:	4620      	mov	r0, r4
   23950:	f003 fca5 	bl	2729e <__aeabi_memcpy>
   23954:	ae19      	add	r6, sp, #100	@ 0x64
   23956:	4635      	mov	r5, r6
   23958:	350c      	adds	r5, #12
   2395a:	2123      	movs	r1, #35	@ 0x23
   2395c:	4628      	mov	r0, r5
   2395e:	f003 faf1 	bl	26f44 <__aeabi_memclr4>
   23962:	9801      	ldr	r0, [sp, #4]
   23964:	7230      	strb	r0, [r6, #8]
   23966:	4820      	ldr	r0, [pc, #128]	@ (239e8 <_ZN20complex_full_dynamic3app17hdde2370c799fa580E+0xb0>)
   23968:	2607      	movs	r6, #7
   2396a:	4631      	mov	r1, r6
   2396c:	4622      	mov	r2, r4
   2396e:	9b00      	ldr	r3, [sp, #0]
   23970:	df04      	svc	4
   23972:	2802      	cmp	r0, #2
   23974:	d01a      	beq.n	239ac <_ZN20complex_full_dynamic3app17hdde2370c799fa580E+0x74>
   23976:	a803      	add	r0, sp, #12
   23978:	2104      	movs	r1, #4
   2397a:	7201      	strb	r1, [r0, #8]
   2397c:	9604      	str	r6, [sp, #16]
   2397e:	4e1a      	ldr	r6, [pc, #104]	@ (239e8 <_ZN20complex_full_dynamic3app17hdde2370c799fa580E+0xb0>)
   23980:	9603      	str	r6, [sp, #12]
   23982:	2401      	movs	r4, #1
   23984:	2323      	movs	r3, #35	@ 0x23
   23986:	4630      	mov	r0, r6
   23988:	4621      	mov	r1, r4
   2398a:	462a      	mov	r2, r5
   2398c:	df03      	svc	3
   2398e:	2802      	cmp	r0, #2
   23990:	d00c      	beq.n	239ac <_ZN20complex_full_dynamic3app17hdde2370c799fa580E+0x74>
   23992:	a819      	add	r0, sp, #100	@ 0x64
   23994:	2103      	movs	r1, #3
   23996:	7201      	strb	r1, [r0, #8]
   23998:	9619      	str	r6, [sp, #100]	@ 0x64
   2399a:	941a      	str	r4, [sp, #104]	@ 0x68
   2399c:	4812      	ldr	r0, [pc, #72]	@ (239e8 <_ZN20complex_full_dynamic3app17hdde2370c799fa580E+0xb0>)
   2399e:	2107      	movs	r1, #7
   239a0:	2600      	movs	r6, #0
   239a2:	4622      	mov	r2, r4
   239a4:	4633      	mov	r3, r6
   239a6:	df02      	svc	2
   239a8:	287f      	cmp	r0, #127	@ 0x7f
   239aa:	d80b      	bhi.n	239c4 <_ZN20complex_full_dynamic3app17hdde2370c799fa580E+0x8c>
   239ac:	9c02      	ldr	r4, [sp, #8]
   239ae:	6061      	str	r1, [r4, #4]
   239b0:	2601      	movs	r6, #1
   239b2:	7026      	strb	r6, [r4, #0]
   239b4:	a819      	add	r0, sp, #100	@ 0x64
   239b6:	f003 fab1 	bl	26f1c <_ZN9allow_pin12full_dynamic17unshare_if_shared17h02646414dc25e2d7E>
   239ba:	a803      	add	r0, sp, #12
   239bc:	f003 faae 	bl	26f1c <_ZN9allow_pin12full_dynamic17unshare_if_shared17h02646414dc25e2d7E>
   239c0:	b025      	add	sp, #148	@ 0x94
   239c2:	bdf0      	pop	{r4, r5, r6, r7, pc}
   239c4:	a803      	add	r0, sp, #12
   239c6:	f003 faa9 	bl	26f1c <_ZN9allow_pin12full_dynamic17unshare_if_shared17h02646414dc25e2d7E>
   239ca:	ac19      	add	r4, sp, #100	@ 0x64
   239cc:	4620      	mov	r0, r4
   239ce:	f003 faa5 	bl	26f1c <_ZN9allow_pin12full_dynamic17unshare_if_shared17h02646414dc25e2d7E>
   239d2:	4620      	mov	r0, r4
   239d4:	f003 faa2 	bl	26f1c <_ZN9allow_pin12full_dynamic17unshare_if_shared17h02646414dc25e2d7E>
   239d8:	9c02      	ldr	r4, [sp, #8]
   239da:	1c60      	adds	r0, r4, #1
   239dc:	2223      	movs	r2, #35	@ 0x23
   239de:	4629      	mov	r1, r5
   239e0:	f003 fc5d 	bl	2729e <__aeabi_memcpy>
   239e4:	e7e5      	b.n	239b2 <_ZN20complex_full_dynamic3app17hdde2370c799fa580E+0x7a>
   239e6:	46c0      	nop			@ (mov r8, r8)
   239e8:	00001551 	.word	0x00001551

000239ec <_ZN20complex_full_dynamic3app17hdf33c2032af9616fE>:
   239ec:	b5f0      	push	{r4, r5, r6, r7, lr}
   239ee:	af03      	add	r7, sp, #12
   239f0:	b0a1      	sub	sp, #132	@ 0x84
   239f2:	9003      	str	r0, [sp, #12]
   239f4:	ac04      	add	r4, sp, #16
   239f6:	2602      	movs	r6, #2
   239f8:	7226      	strb	r6, [r4, #8]
   239fa:	340c      	adds	r4, #12
   239fc:	221e      	movs	r2, #30
   239fe:	9202      	str	r2, [sp, #8]
   23a00:	4620      	mov	r0, r4
   23a02:	f003 fc4c 	bl	2729e <__aeabi_memcpy>
   23a06:	ad0f      	add	r5, sp, #60	@ 0x3c
   23a08:	4628      	mov	r0, r5
   23a0a:	300c      	adds	r0, #12
   23a0c:	213c      	movs	r1, #60	@ 0x3c
   23a0e:	9001      	str	r0, [sp, #4]
   23a10:	f003 fa98 	bl	26f44 <__aeabi_memclr4>
   23a14:	722e      	strb	r6, [r5, #8]
   23a16:	4635      	mov	r5, r6
   23a18:	4e1f      	ldr	r6, [pc, #124]	@ (23a98 <_ZN20complex_full_dynamic3app17hdf33c2032af9616fE+0xac>)
   23a1a:	4630      	mov	r0, r6
   23a1c:	4629      	mov	r1, r5
   23a1e:	4622      	mov	r2, r4
   23a20:	9b02      	ldr	r3, [sp, #8]
   23a22:	df04      	svc	4
   23a24:	2802      	cmp	r0, #2
   23a26:	d019      	beq.n	23a5c <_ZN20complex_full_dynamic3app17hdf33c2032af9616fE+0x70>
   23a28:	a804      	add	r0, sp, #16
   23a2a:	2104      	movs	r1, #4
   23a2c:	7201      	strb	r1, [r0, #8]
   23a2e:	9505      	str	r5, [sp, #20]
   23a30:	9604      	str	r6, [sp, #16]
   23a32:	2403      	movs	r4, #3
   23a34:	233c      	movs	r3, #60	@ 0x3c
   23a36:	4630      	mov	r0, r6
   23a38:	4621      	mov	r1, r4
   23a3a:	9d01      	ldr	r5, [sp, #4]
   23a3c:	462a      	mov	r2, r5
   23a3e:	df03      	svc	3
   23a40:	2802      	cmp	r0, #2
   23a42:	d00b      	beq.n	23a5c <_ZN20complex_full_dynamic3app17hdf33c2032af9616fE+0x70>
   23a44:	a80f      	add	r0, sp, #60	@ 0x3c
   23a46:	7204      	strb	r4, [r0, #8]
   23a48:	9410      	str	r4, [sp, #64]	@ 0x40
   23a4a:	960f      	str	r6, [sp, #60]	@ 0x3c
   23a4c:	4812      	ldr	r0, [pc, #72]	@ (23a98 <_ZN20complex_full_dynamic3app17hdf33c2032af9616fE+0xac>)
   23a4e:	2102      	movs	r1, #2
   23a50:	2600      	movs	r6, #0
   23a52:	4622      	mov	r2, r4
   23a54:	4633      	mov	r3, r6
   23a56:	df02      	svc	2
   23a58:	287f      	cmp	r0, #127	@ 0x7f
   23a5a:	d80b      	bhi.n	23a74 <_ZN20complex_full_dynamic3app17hdf33c2032af9616fE+0x88>
   23a5c:	9c03      	ldr	r4, [sp, #12]
   23a5e:	6061      	str	r1, [r4, #4]
   23a60:	2601      	movs	r6, #1
   23a62:	7026      	strb	r6, [r4, #0]
   23a64:	a80f      	add	r0, sp, #60	@ 0x3c
   23a66:	f003 fa59 	bl	26f1c <_ZN9allow_pin12full_dynamic17unshare_if_shared17h02646414dc25e2d7E>
   23a6a:	a804      	add	r0, sp, #16
   23a6c:	f003 fa56 	bl	26f1c <_ZN9allow_pin12full_dynamic17unshare_if_shared17h02646414dc25e2d7E>
   23a70:	b021      	add	sp, #132	@ 0x84
   23a72:	bdf0      	pop	{r4, r5, r6, r7, pc}
   23a74:	a804      	add	r0, sp, #16
   23a76:	f003 fa51 	bl	26f1c <_ZN9allow_pin12full_dynamic17unshare_if_shared17h02646414dc25e2d7E>
   23a7a:	ac0f      	add	r4, sp, #60	@ 0x3c
   23a7c:	4620      	mov	r0, r4
   23a7e:	f003 fa4d 	bl	26f1c <_ZN9allow_pin12full_dynamic17unshare_if_shared17h02646414dc25e2d7E>
   23a82:	4620      	mov	r0, r4
   23a84:	f003 fa4a 	bl	26f1c <_ZN9allow_pin12full_dynamic17unshare_if_shared17h02646414dc25e2d7E>
   23a88:	9c03      	ldr	r4, [sp, #12]
   23a8a:	1c60      	adds	r0, r4, #1
   23a8c:	223c      	movs	r2, #60	@ 0x3c
   23a8e:	4629      	mov	r1, r5
   23a90:	f003 fc05 	bl	2729e <__aeabi_memcpy>
   23a94:	e7e5      	b.n	23a62 <_ZN20complex_full_dynamic3app17hdf33c2032af9616fE+0x76>
   23a96:	46c0      	nop			@ (mov r8, r8)
   23a98:	00000b3c 	.word	0x00000b3c

00023a9c <_ZN20complex_full_dynamic3app17he6a8d72324380d7cE>:
   23a9c:	b5f0      	push	{r4, r5, r6, r7, lr}
   23a9e:	af03      	add	r7, sp, #12
   23aa0:	b09f      	sub	sp, #124	@ 0x7c
   23aa2:	9002      	str	r0, [sp, #8]
   23aa4:	ac03      	add	r4, sp, #12
   23aa6:	2502      	movs	r5, #2
   23aa8:	7225      	strb	r5, [r4, #8]
   23aaa:	340c      	adds	r4, #12
   23aac:	2248      	movs	r2, #72	@ 0x48
   23aae:	9201      	str	r2, [sp, #4]
   23ab0:	4620      	mov	r0, r4
   23ab2:	f003 fbf4 	bl	2729e <__aeabi_memcpy>
   23ab6:	ae18      	add	r6, sp, #96	@ 0x60
   23ab8:	2000      	movs	r0, #0
   23aba:	76b0      	strb	r0, [r6, #26]
   23abc:	8330      	strh	r0, [r6, #24]
   23abe:	7235      	strb	r5, [r6, #8]
   23ac0:	901d      	str	r0, [sp, #116]	@ 0x74
   23ac2:	901c      	str	r0, [sp, #112]	@ 0x70
   23ac4:	901b      	str	r0, [sp, #108]	@ 0x6c
   23ac6:	4820      	ldr	r0, [pc, #128]	@ (23b48 <_ZN20complex_full_dynamic3app17he6a8d72324380d7cE+0xac>)
   23ac8:	2508      	movs	r5, #8
   23aca:	4629      	mov	r1, r5
   23acc:	4622      	mov	r2, r4
   23ace:	9b01      	ldr	r3, [sp, #4]
   23ad0:	df04      	svc	4
   23ad2:	2802      	cmp	r0, #2
   23ad4:	d01b      	beq.n	23b0e <_ZN20complex_full_dynamic3app17he6a8d72324380d7cE+0x72>
   23ad6:	360c      	adds	r6, #12
   23ad8:	a803      	add	r0, sp, #12
   23ada:	2104      	movs	r1, #4
   23adc:	7201      	strb	r1, [r0, #8]
   23ade:	9504      	str	r5, [sp, #16]
   23ae0:	4819      	ldr	r0, [pc, #100]	@ (23b48 <_ZN20complex_full_dynamic3app17he6a8d72324380d7cE+0xac>)
   23ae2:	9003      	str	r0, [sp, #12]
   23ae4:	2409      	movs	r4, #9
   23ae6:	230f      	movs	r3, #15
   23ae8:	4621      	mov	r1, r4
   23aea:	4632      	mov	r2, r6
   23aec:	df03      	svc	3
   23aee:	2802      	cmp	r0, #2
   23af0:	d00d      	beq.n	23b0e <_ZN20complex_full_dynamic3app17he6a8d72324380d7cE+0x72>
   23af2:	4635      	mov	r5, r6
   23af4:	a818      	add	r0, sp, #96	@ 0x60
   23af6:	2103      	movs	r1, #3
   23af8:	7201      	strb	r1, [r0, #8]
   23afa:	4813      	ldr	r0, [pc, #76]	@ (23b48 <_ZN20complex_full_dynamic3app17he6a8d72324380d7cE+0xac>)
   23afc:	9018      	str	r0, [sp, #96]	@ 0x60
   23afe:	9419      	str	r4, [sp, #100]	@ 0x64
   23b00:	2108      	movs	r1, #8
   23b02:	2600      	movs	r6, #0
   23b04:	4622      	mov	r2, r4
   23b06:	4633      	mov	r3, r6
   23b08:	df02      	svc	2
   23b0a:	287f      	cmp	r0, #127	@ 0x7f
   23b0c:	d80b      	bhi.n	23b26 <_ZN20complex_full_dynamic3app17he6a8d72324380d7cE+0x8a>
   23b0e:	9c02      	ldr	r4, [sp, #8]
   23b10:	6061      	str	r1, [r4, #4]
   23b12:	2601      	movs	r6, #1
   23b14:	7026      	strb	r6, [r4, #0]
   23b16:	a818      	add	r0, sp, #96	@ 0x60
   23b18:	f003 fa00 	bl	26f1c <_ZN9allow_pin12full_dynamic17unshare_if_shared17h02646414dc25e2d7E>
   23b1c:	a803      	add	r0, sp, #12
   23b1e:	f003 f9fd 	bl	26f1c <_ZN9allow_pin12full_dynamic17unshare_if_shared17h02646414dc25e2d7E>
   23b22:	b01f      	add	sp, #124	@ 0x7c
   23b24:	bdf0      	pop	{r4, r5, r6, r7, pc}
   23b26:	a803      	add	r0, sp, #12
   23b28:	f003 f9f8 	bl	26f1c <_ZN9allow_pin12full_dynamic17unshare_if_shared17h02646414dc25e2d7E>
   23b2c:	ac18      	add	r4, sp, #96	@ 0x60
   23b2e:	4620      	mov	r0, r4
   23b30:	f003 f9f4 	bl	26f1c <_ZN9allow_pin12full_dynamic17unshare_if_shared17h02646414dc25e2d7E>
   23b34:	4620      	mov	r0, r4
   23b36:	f003 f9f1 	bl	26f1c <_ZN9allow_pin12full_dynamic17unshare_if_shared17h02646414dc25e2d7E>
   23b3a:	9c02      	ldr	r4, [sp, #8]
   23b3c:	1c60      	adds	r0, r4, #1
   23b3e:	220f      	movs	r2, #15
   23b40:	4629      	mov	r1, r5
   23b42:	f003 fbac 	bl	2729e <__aeabi_memcpy>
   23b46:	e7e5      	b.n	23b14 <_ZN20complex_full_dynamic3app17he6a8d72324380d7cE+0x78>
   23b48:	0000111d 	.word	0x0000111d

00023b4c <_ZN20complex_full_dynamic3app17hebddf6eea8672dffE>:
   23b4c:	b5f0      	push	{r4, r5, r6, r7, lr}
   23b4e:	af03      	add	r7, sp, #12
   23b50:	b09f      	sub	sp, #124	@ 0x7c
   23b52:	9003      	str	r0, [sp, #12]
   23b54:	ac04      	add	r4, sp, #16
   23b56:	2002      	movs	r0, #2
   23b58:	9002      	str	r0, [sp, #8]
   23b5a:	7220      	strb	r0, [r4, #8]
   23b5c:	340c      	adds	r4, #12
   23b5e:	2224      	movs	r2, #36	@ 0x24
   23b60:	9201      	str	r2, [sp, #4]
   23b62:	4620      	mov	r0, r4
   23b64:	f003 fb9b 	bl	2729e <__aeabi_memcpy>
   23b68:	ae10      	add	r6, sp, #64	@ 0x40
   23b6a:	4635      	mov	r5, r6
   23b6c:	350c      	adds	r5, #12
   23b6e:	212f      	movs	r1, #47	@ 0x2f
   23b70:	4628      	mov	r0, r5
   23b72:	f003 f9e7 	bl	26f44 <__aeabi_memclr4>
   23b76:	9802      	ldr	r0, [sp, #8]
   23b78:	7230      	strb	r0, [r6, #8]
   23b7a:	4820      	ldr	r0, [pc, #128]	@ (23bfc <_ZN20complex_full_dynamic3app17hebddf6eea8672dffE+0xb0>)
   23b7c:	2606      	movs	r6, #6
   23b7e:	4631      	mov	r1, r6
   23b80:	4622      	mov	r2, r4
   23b82:	9b01      	ldr	r3, [sp, #4]
   23b84:	df04      	svc	4
   23b86:	2802      	cmp	r0, #2
   23b88:	d01a      	beq.n	23bc0 <_ZN20complex_full_dynamic3app17hebddf6eea8672dffE+0x74>
   23b8a:	a804      	add	r0, sp, #16
   23b8c:	2104      	movs	r1, #4
   23b8e:	7201      	strb	r1, [r0, #8]
   23b90:	9605      	str	r6, [sp, #20]
   23b92:	4e1a      	ldr	r6, [pc, #104]	@ (23bfc <_ZN20complex_full_dynamic3app17hebddf6eea8672dffE+0xb0>)
   23b94:	9604      	str	r6, [sp, #16]
   23b96:	2409      	movs	r4, #9
   23b98:	232f      	movs	r3, #47	@ 0x2f
   23b9a:	4630      	mov	r0, r6
   23b9c:	4621      	mov	r1, r4
   23b9e:	462a      	mov	r2, r5
   23ba0:	df03      	svc	3
   23ba2:	2802      	cmp	r0, #2
   23ba4:	d00c      	beq.n	23bc0 <_ZN20complex_full_dynamic3app17hebddf6eea8672dffE+0x74>
   23ba6:	a810      	add	r0, sp, #64	@ 0x40
   23ba8:	2103      	movs	r1, #3
   23baa:	7201      	strb	r1, [r0, #8]
   23bac:	9610      	str	r6, [sp, #64]	@ 0x40
   23bae:	9411      	str	r4, [sp, #68]	@ 0x44
   23bb0:	4812      	ldr	r0, [pc, #72]	@ (23bfc <_ZN20complex_full_dynamic3app17hebddf6eea8672dffE+0xb0>)
   23bb2:	2106      	movs	r1, #6
   23bb4:	2600      	movs	r6, #0
   23bb6:	4622      	mov	r2, r4
   23bb8:	4633      	mov	r3, r6
   23bba:	df02      	svc	2
   23bbc:	287f      	cmp	r0, #127	@ 0x7f
   23bbe:	d80b      	bhi.n	23bd8 <_ZN20complex_full_dynamic3app17hebddf6eea8672dffE+0x8c>
   23bc0:	9c03      	ldr	r4, [sp, #12]
   23bc2:	6061      	str	r1, [r4, #4]
   23bc4:	2601      	movs	r6, #1
   23bc6:	7026      	strb	r6, [r4, #0]
   23bc8:	a810      	add	r0, sp, #64	@ 0x40
   23bca:	f003 f9a7 	bl	26f1c <_ZN9allow_pin12full_dynamic17unshare_if_shared17h02646414dc25e2d7E>
   23bce:	a804      	add	r0, sp, #16
   23bd0:	f003 f9a4 	bl	26f1c <_ZN9allow_pin12full_dynamic17unshare_if_shared17h02646414dc25e2d7E>
   23bd4:	b01f      	add	sp, #124	@ 0x7c
   23bd6:	bdf0      	pop	{r4, r5, r6, r7, pc}
   23bd8:	a804      	add	r0, sp, #16
   23bda:	f003 f99f 	bl	26f1c <_ZN9allow_pin12full_dynamic17unshare_if_shared17h02646414dc25e2d7E>
   23bde:	ac10      	add	r4, sp, #64	@ 0x40
   23be0:	4620      	mov	r0, r4
   23be2:	f003 f99b 	bl	26f1c <_ZN9allow_pin12full_dynamic17unshare_if_shared17h02646414dc25e2d7E>
   23be6:	4620      	mov	r0, r4
   23be8:	f003 f998 	bl	26f1c <_ZN9allow_pin12full_dynamic17unshare_if_shared17h02646414dc25e2d7E>
   23bec:	9c03      	ldr	r4, [sp, #12]
   23bee:	1c60      	adds	r0, r4, #1
   23bf0:	222f      	movs	r2, #47	@ 0x2f
   23bf2:	4629      	mov	r1, r5
   23bf4:	f003 fb53 	bl	2729e <__aeabi_memcpy>
   23bf8:	e7e5      	b.n	23bc6 <_ZN20complex_full_dynamic3app17hebddf6eea8672dffE+0x7a>
   23bfa:	46c0      	nop			@ (mov r8, r8)
   23bfc:	00001273 	.word	0x00001273

00023c00 <_ZN20complex_full_dynamic3app17hee0c95ec8ff0690cE>:
   23c00:	b5f0      	push	{r4, r5, r6, r7, lr}
   23c02:	af03      	add	r7, sp, #12
   23c04:	b09d      	sub	sp, #116	@ 0x74
   23c06:	9002      	str	r0, [sp, #8]
   23c08:	ae03      	add	r6, sp, #12
   23c0a:	2002      	movs	r0, #2
   23c0c:	9001      	str	r0, [sp, #4]
   23c0e:	7230      	strb	r0, [r6, #8]
   23c10:	360c      	adds	r6, #12
   23c12:	2218      	movs	r2, #24
   23c14:	9200      	str	r2, [sp, #0]
   23c16:	4630      	mov	r0, r6
   23c18:	f003 fb41 	bl	2729e <__aeabi_memcpy>
   23c1c:	ad0c      	add	r5, sp, #48	@ 0x30
   23c1e:	462c      	mov	r4, r5
   23c20:	340c      	adds	r4, #12
   23c22:	2136      	movs	r1, #54	@ 0x36
   23c24:	4620      	mov	r0, r4
   23c26:	f003 f98d 	bl	26f44 <__aeabi_memclr4>
   23c2a:	9801      	ldr	r0, [sp, #4]
   23c2c:	7228      	strb	r0, [r5, #8]
   23c2e:	20f3      	movs	r0, #243	@ 0xf3
   23c30:	2508      	movs	r5, #8
   23c32:	9001      	str	r0, [sp, #4]
   23c34:	4629      	mov	r1, r5
   23c36:	4632      	mov	r2, r6
   23c38:	9b00      	ldr	r3, [sp, #0]
   23c3a:	df04      	svc	4
   23c3c:	2802      	cmp	r0, #2
   23c3e:	d018      	beq.n	23c72 <_ZN20complex_full_dynamic3app17hee0c95ec8ff0690cE+0x72>
   23c40:	a803      	add	r0, sp, #12
   23c42:	2604      	movs	r6, #4
   23c44:	7206      	strb	r6, [r0, #8]
   23c46:	9504      	str	r5, [sp, #16]
   23c48:	9801      	ldr	r0, [sp, #4]
   23c4a:	9003      	str	r0, [sp, #12]
   23c4c:	2336      	movs	r3, #54	@ 0x36
   23c4e:	4631      	mov	r1, r6
   23c50:	4622      	mov	r2, r4
   23c52:	df03      	svc	3
   23c54:	2802      	cmp	r0, #2
   23c56:	d00c      	beq.n	23c72 <_ZN20complex_full_dynamic3app17hee0c95ec8ff0690cE+0x72>
   23c58:	a80c      	add	r0, sp, #48	@ 0x30
   23c5a:	2103      	movs	r1, #3
   23c5c:	7201      	strb	r1, [r0, #8]
   23c5e:	960d      	str	r6, [sp, #52]	@ 0x34
   23c60:	9801      	ldr	r0, [sp, #4]
   23c62:	900c      	str	r0, [sp, #48]	@ 0x30
   23c64:	2108      	movs	r1, #8
   23c66:	2300      	movs	r3, #0
   23c68:	4632      	mov	r2, r6
   23c6a:	461e      	mov	r6, r3
   23c6c:	df02      	svc	2
   23c6e:	287f      	cmp	r0, #127	@ 0x7f
   23c70:	d80b      	bhi.n	23c8a <_ZN20complex_full_dynamic3app17hee0c95ec8ff0690cE+0x8a>
   23c72:	9c02      	ldr	r4, [sp, #8]
   23c74:	6061      	str	r1, [r4, #4]
   23c76:	2601      	movs	r6, #1
   23c78:	7026      	strb	r6, [r4, #0]
   23c7a:	a80c      	add	r0, sp, #48	@ 0x30
   23c7c:	f003 f94e 	bl	26f1c <_ZN9allow_pin12full_dynamic17unshare_if_shared17h02646414dc25e2d7E>
   23c80:	a803      	add	r0, sp, #12
   23c82:	f003 f94b 	bl	26f1c <_ZN9allow_pin12full_dynamic17unshare_if_shared17h02646414dc25e2d7E>
   23c86:	b01d      	add	sp, #116	@ 0x74
   23c88:	bdf0      	pop	{r4, r5, r6, r7, pc}
   23c8a:	4625      	mov	r5, r4
   23c8c:	a803      	add	r0, sp, #12
   23c8e:	f003 f945 	bl	26f1c <_ZN9allow_pin12full_dynamic17unshare_if_shared17h02646414dc25e2d7E>
   23c92:	ac0c      	add	r4, sp, #48	@ 0x30
   23c94:	4620      	mov	r0, r4
   23c96:	f003 f941 	bl	26f1c <_ZN9allow_pin12full_dynamic17unshare_if_shared17h02646414dc25e2d7E>
   23c9a:	4620      	mov	r0, r4
   23c9c:	f003 f93e 	bl	26f1c <_ZN9allow_pin12full_dynamic17unshare_if_shared17h02646414dc25e2d7E>
   23ca0:	9c02      	ldr	r4, [sp, #8]
   23ca2:	1c60      	adds	r0, r4, #1
   23ca4:	2236      	movs	r2, #54	@ 0x36
   23ca6:	4629      	mov	r1, r5
   23ca8:	f003 faf9 	bl	2729e <__aeabi_memcpy>
   23cac:	e7e4      	b.n	23c78 <_ZN20complex_full_dynamic3app17hee0c95ec8ff0690cE+0x78>
   23cae:	d4d4      	bmi.n	23c5a <_ZN20complex_full_dynamic3app17hee0c95ec8ff0690cE+0x5a>

00023cb0 <_ZN20complex_full_dynamic3app17hef7b1adc16400693E>:
   23cb0:	b5f0      	push	{r4, r5, r6, r7, lr}
   23cb2:	af03      	add	r7, sp, #12
   23cb4:	b099      	sub	sp, #100	@ 0x64
   23cb6:	9002      	str	r0, [sp, #8]
   23cb8:	ac03      	add	r4, sp, #12
   23cba:	2002      	movs	r0, #2
   23cbc:	9001      	str	r0, [sp, #4]
   23cbe:	7220      	strb	r0, [r4, #8]
   23cc0:	340c      	adds	r4, #12
   23cc2:	2214      	movs	r2, #20
   23cc4:	9200      	str	r2, [sp, #0]
   23cc6:	4620      	mov	r0, r4
   23cc8:	f003 fae9 	bl	2729e <__aeabi_memcpy>
   23ccc:	ae0b      	add	r6, sp, #44	@ 0x2c
   23cce:	4635      	mov	r5, r6
   23cd0:	350c      	adds	r5, #12
   23cd2:	212b      	movs	r1, #43	@ 0x2b
   23cd4:	4628      	mov	r0, r5
   23cd6:	f003 f935 	bl	26f44 <__aeabi_memclr4>
   23cda:	9801      	ldr	r0, [sp, #4]
   23cdc:	7230      	strb	r0, [r6, #8]
   23cde:	481f      	ldr	r0, [pc, #124]	@ (23d5c <_ZN20complex_full_dynamic3app17hef7b1adc16400693E+0xac>)
   23ce0:	2608      	movs	r6, #8
   23ce2:	4631      	mov	r1, r6
   23ce4:	4622      	mov	r2, r4
   23ce6:	9b00      	ldr	r3, [sp, #0]
   23ce8:	df04      	svc	4
   23cea:	2802      	cmp	r0, #2
   23cec:	d019      	beq.n	23d22 <_ZN20complex_full_dynamic3app17hef7b1adc16400693E+0x72>
   23cee:	a803      	add	r0, sp, #12
   23cf0:	2404      	movs	r4, #4
   23cf2:	7204      	strb	r4, [r0, #8]
   23cf4:	9604      	str	r6, [sp, #16]
   23cf6:	4e19      	ldr	r6, [pc, #100]	@ (23d5c <_ZN20complex_full_dynamic3app17hef7b1adc16400693E+0xac>)
   23cf8:	9603      	str	r6, [sp, #12]
   23cfa:	232b      	movs	r3, #43	@ 0x2b
   23cfc:	4630      	mov	r0, r6
   23cfe:	4621      	mov	r1, r4
   23d00:	462a      	mov	r2, r5
   23d02:	df03      	svc	3
   23d04:	2802      	cmp	r0, #2
   23d06:	d00c      	beq.n	23d22 <_ZN20complex_full_dynamic3app17hef7b1adc16400693E+0x72>
   23d08:	a80b      	add	r0, sp, #44	@ 0x2c
   23d0a:	2103      	movs	r1, #3
   23d0c:	7201      	strb	r1, [r0, #8]
   23d0e:	960b      	str	r6, [sp, #44]	@ 0x2c
   23d10:	940c      	str	r4, [sp, #48]	@ 0x30
   23d12:	4812      	ldr	r0, [pc, #72]	@ (23d5c <_ZN20complex_full_dynamic3app17hef7b1adc16400693E+0xac>)
   23d14:	2108      	movs	r1, #8
   23d16:	2600      	movs	r6, #0
   23d18:	4622      	mov	r2, r4
   23d1a:	4633      	mov	r3, r6
   23d1c:	df02      	svc	2
   23d1e:	287f      	cmp	r0, #127	@ 0x7f
   23d20:	d80b      	bhi.n	23d3a <_ZN20complex_full_dynamic3app17hef7b1adc16400693E+0x8a>
   23d22:	9c02      	ldr	r4, [sp, #8]
   23d24:	6061      	str	r1, [r4, #4]
   23d26:	2601      	movs	r6, #1
   23d28:	7026      	strb	r6, [r4, #0]
   23d2a:	a80b      	add	r0, sp, #44	@ 0x2c
   23d2c:	f003 f8f6 	bl	26f1c <_ZN9allow_pin12full_dynamic17unshare_if_shared17h02646414dc25e2d7E>
   23d30:	a803      	add	r0, sp, #12
   23d32:	f003 f8f3 	bl	26f1c <_ZN9allow_pin12full_dynamic17unshare_if_shared17h02646414dc25e2d7E>
   23d36:	b019      	add	sp, #100	@ 0x64
   23d38:	bdf0      	pop	{r4, r5, r6, r7, pc}
   23d3a:	a803      	add	r0, sp, #12
   23d3c:	f003 f8ee 	bl	26f1c <_ZN9allow_pin12full_dynamic17unshare_if_shared17h02646414dc25e2d7E>
   23d40:	ac0b      	add	r4, sp, #44	@ 0x2c
   23d42:	4620      	mov	r0, r4
   23d44:	f003 f8ea 	bl	26f1c <_ZN9allow_pin12full_dynamic17unshare_if_shared17h02646414dc25e2d7E>
   23d48:	4620      	mov	r0, r4
   23d4a:	f003 f8e7 	bl	26f1c <_ZN9allow_pin12full_dynamic17unshare_if_shared17h02646414dc25e2d7E>
   23d4e:	9c02      	ldr	r4, [sp, #8]
   23d50:	1c60      	adds	r0, r4, #1
   23d52:	222b      	movs	r2, #43	@ 0x2b
   23d54:	4629      	mov	r1, r5
   23d56:	f003 faa2 	bl	2729e <__aeabi_memcpy>
   23d5a:	e7e5      	b.n	23d28 <_ZN20complex_full_dynamic3app17hef7b1adc16400693E+0x78>
   23d5c:	0000239f 	.word	0x0000239f

00023d60 <_ZN20complex_full_dynamic3app17hf0bb35116da8666fE>:
   23d60:	b5f0      	push	{r4, r5, r6, r7, lr}
   23d62:	af03      	add	r7, sp, #12
   23d64:	b09f      	sub	sp, #124	@ 0x7c
   23d66:	9002      	str	r0, [sp, #8]
   23d68:	ae03      	add	r6, sp, #12
   23d6a:	2002      	movs	r0, #2
   23d6c:	9001      	str	r0, [sp, #4]
   23d6e:	7230      	strb	r0, [r6, #8]
   23d70:	360c      	adds	r6, #12
   23d72:	220e      	movs	r2, #14
   23d74:	9200      	str	r2, [sp, #0]
   23d76:	4630      	mov	r0, r6
   23d78:	f003 fa91 	bl	2729e <__aeabi_memcpy>
   23d7c:	ad0a      	add	r5, sp, #40	@ 0x28
   23d7e:	462c      	mov	r4, r5
   23d80:	340c      	adds	r4, #12
   23d82:	2148      	movs	r1, #72	@ 0x48
   23d84:	4620      	mov	r0, r4
   23d86:	f003 f8dd 	bl	26f44 <__aeabi_memclr4>
   23d8a:	9801      	ldr	r0, [sp, #4]
   23d8c:	7228      	strb	r0, [r5, #8]
   23d8e:	4820      	ldr	r0, [pc, #128]	@ (23e10 <_ZN20complex_full_dynamic3app17hf0bb35116da8666fE+0xb0>)
   23d90:	2503      	movs	r5, #3
   23d92:	4629      	mov	r1, r5
   23d94:	4632      	mov	r2, r6
   23d96:	9b00      	ldr	r3, [sp, #0]
   23d98:	df04      	svc	4
   23d9a:	2802      	cmp	r0, #2
   23d9c:	d01a      	beq.n	23dd4 <_ZN20complex_full_dynamic3app17hf0bb35116da8666fE+0x74>
   23d9e:	a803      	add	r0, sp, #12
   23da0:	2104      	movs	r1, #4
   23da2:	7201      	strb	r1, [r0, #8]
   23da4:	9504      	str	r5, [sp, #16]
   23da6:	4e1a      	ldr	r6, [pc, #104]	@ (23e10 <_ZN20complex_full_dynamic3app17hf0bb35116da8666fE+0xb0>)
   23da8:	9603      	str	r6, [sp, #12]
   23daa:	2108      	movs	r1, #8
   23dac:	2348      	movs	r3, #72	@ 0x48
   23dae:	4630      	mov	r0, r6
   23db0:	9101      	str	r1, [sp, #4]
   23db2:	4622      	mov	r2, r4
   23db4:	df03      	svc	3
   23db6:	2802      	cmp	r0, #2
   23db8:	d00c      	beq.n	23dd4 <_ZN20complex_full_dynamic3app17hf0bb35116da8666fE+0x74>
   23dba:	9400      	str	r4, [sp, #0]
   23dbc:	a80a      	add	r0, sp, #40	@ 0x28
   23dbe:	7205      	strb	r5, [r0, #8]
   23dc0:	960a      	str	r6, [sp, #40]	@ 0x28
   23dc2:	9a01      	ldr	r2, [sp, #4]
   23dc4:	920b      	str	r2, [sp, #44]	@ 0x2c
   23dc6:	4812      	ldr	r0, [pc, #72]	@ (23e10 <_ZN20complex_full_dynamic3app17hf0bb35116da8666fE+0xb0>)
   23dc8:	2600      	movs	r6, #0
   23dca:	4629      	mov	r1, r5
   23dcc:	4633      	mov	r3, r6
   23dce:	df02      	svc	2
   23dd0:	287f      	cmp	r0, #127	@ 0x7f
   23dd2:	d80b      	bhi.n	23dec <_ZN20complex_full_dynamic3app17hf0bb35116da8666fE+0x8c>
   23dd4:	9c02      	ldr	r4, [sp, #8]
   23dd6:	6061      	str	r1, [r4, #4]
   23dd8:	2601      	movs	r6, #1
   23dda:	7026      	strb	r6, [r4, #0]
   23ddc:	a80a      	add	r0, sp, #40	@ 0x28
   23dde:	f003 f89d 	bl	26f1c <_ZN9allow_pin12full_dynamic17unshare_if_shared17h02646414dc25e2d7E>
   23de2:	a803      	add	r0, sp, #12
   23de4:	f003 f89a 	bl	26f1c <_ZN9allow_pin12full_dynamic17unshare_if_shared17h02646414dc25e2d7E>
   23de8:	b01f      	add	sp, #124	@ 0x7c
   23dea:	bdf0      	pop	{r4, r5, r6, r7, pc}
   23dec:	a803      	add	r0, sp, #12
   23dee:	f003 f895 	bl	26f1c <_ZN9allow_pin12full_dynamic17unshare_if_shared17h02646414dc25e2d7E>
   23df2:	ac0a      	add	r4, sp, #40	@ 0x28
   23df4:	4620      	mov	r0, r4
   23df6:	f003 f891 	bl	26f1c <_ZN9allow_pin12full_dynamic17unshare_if_shared17h02646414dc25e2d7E>
   23dfa:	4620      	mov	r0, r4
   23dfc:	f003 f88e 	bl	26f1c <_ZN9allow_pin12full_dynamic17unshare_if_shared17h02646414dc25e2d7E>
   23e00:	9c02      	ldr	r4, [sp, #8]
   23e02:	1c60      	adds	r0, r4, #1
   23e04:	2248      	movs	r2, #72	@ 0x48
   23e06:	9900      	ldr	r1, [sp, #0]
   23e08:	f003 fa49 	bl	2729e <__aeabi_memcpy>
   23e0c:	e7e5      	b.n	23dda <_ZN20complex_full_dynamic3app17hf0bb35116da8666fE+0x7a>
   23e0e:	46c0      	nop			@ (mov r8, r8)
   23e10:	000012d1 	.word	0x000012d1

00023e14 <_ZN20complex_full_dynamic3app17hf51248d6a7045975E>:
   23e14:	b5f0      	push	{r4, r5, r6, r7, lr}
   23e16:	af03      	add	r7, sp, #12
   23e18:	b0a5      	sub	sp, #148	@ 0x94
   23e1a:	9003      	str	r0, [sp, #12]
   23e1c:	ac04      	add	r4, sp, #16
   23e1e:	2002      	movs	r0, #2
   23e20:	9002      	str	r0, [sp, #8]
   23e22:	7220      	strb	r0, [r4, #8]
   23e24:	340c      	adds	r4, #12
   23e26:	221a      	movs	r2, #26
   23e28:	9201      	str	r2, [sp, #4]
   23e2a:	4620      	mov	r0, r4
   23e2c:	f003 fa37 	bl	2729e <__aeabi_memcpy>
   23e30:	ae0e      	add	r6, sp, #56	@ 0x38
   23e32:	4635      	mov	r5, r6
   23e34:	350c      	adds	r5, #12
   23e36:	2150      	movs	r1, #80	@ 0x50
   23e38:	4628      	mov	r0, r5
   23e3a:	f003 f883 	bl	26f44 <__aeabi_memclr4>
   23e3e:	9802      	ldr	r0, [sp, #8]
   23e40:	7230      	strb	r0, [r6, #8]
   23e42:	481f      	ldr	r0, [pc, #124]	@ (23ec0 <_ZN20complex_full_dynamic3app17hf51248d6a7045975E+0xac>)
   23e44:	2607      	movs	r6, #7
   23e46:	4631      	mov	r1, r6
   23e48:	4622      	mov	r2, r4
   23e4a:	9b01      	ldr	r3, [sp, #4]
   23e4c:	df04      	svc	4
   23e4e:	2802      	cmp	r0, #2
   23e50:	d019      	beq.n	23e86 <_ZN20complex_full_dynamic3app17hf51248d6a7045975E+0x72>
   23e52:	a804      	add	r0, sp, #16
   23e54:	2404      	movs	r4, #4
   23e56:	7204      	strb	r4, [r0, #8]
   23e58:	9605      	str	r6, [sp, #20]
   23e5a:	4e19      	ldr	r6, [pc, #100]	@ (23ec0 <_ZN20complex_full_dynamic3app17hf51248d6a7045975E+0xac>)
   23e5c:	9604      	str	r6, [sp, #16]
   23e5e:	2350      	movs	r3, #80	@ 0x50
   23e60:	4630      	mov	r0, r6
   23e62:	4621      	mov	r1, r4
   23e64:	462a      	mov	r2, r5
   23e66:	df03      	svc	3
   23e68:	2802      	cmp	r0, #2
   23e6a:	d00c      	beq.n	23e86 <_ZN20complex_full_dynamic3app17hf51248d6a7045975E+0x72>
   23e6c:	a80e      	add	r0, sp, #56	@ 0x38
   23e6e:	2103      	movs	r1, #3
   23e70:	7201      	strb	r1, [r0, #8]
   23e72:	960e      	str	r6, [sp, #56]	@ 0x38
   23e74:	940f      	str	r4, [sp, #60]	@ 0x3c
   23e76:	4812      	ldr	r0, [pc, #72]	@ (23ec0 <_ZN20complex_full_dynamic3app17hf51248d6a7045975E+0xac>)
   23e78:	2107      	movs	r1, #7
   23e7a:	2600      	movs	r6, #0
   23e7c:	4622      	mov	r2, r4
   23e7e:	4633      	mov	r3, r6
   23e80:	df02      	svc	2
   23e82:	287f      	cmp	r0, #127	@ 0x7f
   23e84:	d80b      	bhi.n	23e9e <_ZN20complex_full_dynamic3app17hf51248d6a7045975E+0x8a>
   23e86:	9c03      	ldr	r4, [sp, #12]
   23e88:	6061      	str	r1, [r4, #4]
   23e8a:	2601      	movs	r6, #1
   23e8c:	7026      	strb	r6, [r4, #0]
   23e8e:	a80e      	add	r0, sp, #56	@ 0x38
   23e90:	f003 f844 	bl	26f1c <_ZN9allow_pin12full_dynamic17unshare_if_shared17h02646414dc25e2d7E>
   23e94:	a804      	add	r0, sp, #16
   23e96:	f003 f841 	bl	26f1c <_ZN9allow_pin12full_dynamic17unshare_if_shared17h02646414dc25e2d7E>
   23e9a:	b025      	add	sp, #148	@ 0x94
   23e9c:	bdf0      	pop	{r4, r5, r6, r7, pc}
   23e9e:	a804      	add	r0, sp, #16
   23ea0:	f003 f83c 	bl	26f1c <_ZN9allow_pin12full_dynamic17unshare_if_shared17h02646414dc25e2d7E>
   23ea4:	ac0e      	add	r4, sp, #56	@ 0x38
   23ea6:	4620      	mov	r0, r4
   23ea8:	f003 f838 	bl	26f1c <_ZN9allow_pin12full_dynamic17unshare_if_shared17h02646414dc25e2d7E>
   23eac:	4620      	mov	r0, r4
   23eae:	f003 f835 	bl	26f1c <_ZN9allow_pin12full_dynamic17unshare_if_shared17h02646414dc25e2d7E>
   23eb2:	9c03      	ldr	r4, [sp, #12]
   23eb4:	1c60      	adds	r0, r4, #1
   23eb6:	2250      	movs	r2, #80	@ 0x50
   23eb8:	4629      	mov	r1, r5
   23eba:	f003 f9f0 	bl	2729e <__aeabi_memcpy>
   23ebe:	e7e5      	b.n	23e8c <_ZN20complex_full_dynamic3app17hf51248d6a7045975E+0x78>
   23ec0:	00000aee 	.word	0x00000aee

00023ec4 <_ZN20complex_full_dynamic3app17hf8fbbfab21dc7d57E>:
   23ec4:	b5f0      	push	{r4, r5, r6, r7, lr}
   23ec6:	af03      	add	r7, sp, #12
   23ec8:	b0b1      	sub	sp, #196	@ 0xc4
   23eca:	9003      	str	r0, [sp, #12]
   23ecc:	ac04      	add	r4, sp, #16
   23ece:	2002      	movs	r0, #2
   23ed0:	9002      	str	r0, [sp, #8]
   23ed2:	7220      	strb	r0, [r4, #8]
   23ed4:	340c      	adds	r4, #12
   23ed6:	223a      	movs	r2, #58	@ 0x3a
   23ed8:	9201      	str	r2, [sp, #4]
   23eda:	4620      	mov	r0, r4
   23edc:	f003 f9df 	bl	2729e <__aeabi_memcpy>
   23ee0:	ae16      	add	r6, sp, #88	@ 0x58
   23ee2:	4635      	mov	r5, r6
   23ee4:	350c      	adds	r5, #12
   23ee6:	215d      	movs	r1, #93	@ 0x5d
   23ee8:	4628      	mov	r0, r5
   23eea:	f003 f82b 	bl	26f44 <__aeabi_memclr4>
   23eee:	9802      	ldr	r0, [sp, #8]
   23ef0:	7230      	strb	r0, [r6, #8]
   23ef2:	4820      	ldr	r0, [pc, #128]	@ (23f74 <_ZN20complex_full_dynamic3app17hf8fbbfab21dc7d57E+0xb0>)
   23ef4:	2600      	movs	r6, #0
   23ef6:	4631      	mov	r1, r6
   23ef8:	4622      	mov	r2, r4
   23efa:	9b01      	ldr	r3, [sp, #4]
   23efc:	df04      	svc	4
   23efe:	2802      	cmp	r0, #2
   23f00:	d01a      	beq.n	23f38 <_ZN20complex_full_dynamic3app17hf8fbbfab21dc7d57E+0x74>
   23f02:	a804      	add	r0, sp, #16
   23f04:	2104      	movs	r1, #4
   23f06:	7201      	strb	r1, [r0, #8]
   23f08:	9605      	str	r6, [sp, #20]
   23f0a:	4e1a      	ldr	r6, [pc, #104]	@ (23f74 <_ZN20complex_full_dynamic3app17hf8fbbfab21dc7d57E+0xb0>)
   23f0c:	9604      	str	r6, [sp, #16]
   23f0e:	2405      	movs	r4, #5
   23f10:	235d      	movs	r3, #93	@ 0x5d
   23f12:	4630      	mov	r0, r6
   23f14:	4621      	mov	r1, r4
   23f16:	462a      	mov	r2, r5
   23f18:	df03      	svc	3
   23f1a:	2802      	cmp	r0, #2
   23f1c:	d00c      	beq.n	23f38 <_ZN20complex_full_dynamic3app17hf8fbbfab21dc7d57E+0x74>
   23f1e:	a816      	add	r0, sp, #88	@ 0x58
   23f20:	2103      	movs	r1, #3
   23f22:	7201      	strb	r1, [r0, #8]
   23f24:	9616      	str	r6, [sp, #88]	@ 0x58
   23f26:	9417      	str	r4, [sp, #92]	@ 0x5c
   23f28:	4812      	ldr	r0, [pc, #72]	@ (23f74 <_ZN20complex_full_dynamic3app17hf8fbbfab21dc7d57E+0xb0>)
   23f2a:	2600      	movs	r6, #0
   23f2c:	4631      	mov	r1, r6
   23f2e:	4622      	mov	r2, r4
   23f30:	4633      	mov	r3, r6
   23f32:	df02      	svc	2
   23f34:	287f      	cmp	r0, #127	@ 0x7f
   23f36:	d80b      	bhi.n	23f50 <_ZN20complex_full_dynamic3app17hf8fbbfab21dc7d57E+0x8c>
   23f38:	9c03      	ldr	r4, [sp, #12]
   23f3a:	6061      	str	r1, [r4, #4]
   23f3c:	2601      	movs	r6, #1
   23f3e:	7026      	strb	r6, [r4, #0]
   23f40:	a816      	add	r0, sp, #88	@ 0x58
   23f42:	f002 ffeb 	bl	26f1c <_ZN9allow_pin12full_dynamic17unshare_if_shared17h02646414dc25e2d7E>
   23f46:	a804      	add	r0, sp, #16
   23f48:	f002 ffe8 	bl	26f1c <_ZN9allow_pin12full_dynamic17unshare_if_shared17h02646414dc25e2d7E>
   23f4c:	b031      	add	sp, #196	@ 0xc4
   23f4e:	bdf0      	pop	{r4, r5, r6, r7, pc}
   23f50:	a804      	add	r0, sp, #16
   23f52:	f002 ffe3 	bl	26f1c <_ZN9allow_pin12full_dynamic17unshare_if_shared17h02646414dc25e2d7E>
   23f56:	ac16      	add	r4, sp, #88	@ 0x58
   23f58:	4620      	mov	r0, r4
   23f5a:	f002 ffdf 	bl	26f1c <_ZN9allow_pin12full_dynamic17unshare_if_shared17h02646414dc25e2d7E>
   23f5e:	4620      	mov	r0, r4
   23f60:	f002 ffdc 	bl	26f1c <_ZN9allow_pin12full_dynamic17unshare_if_shared17h02646414dc25e2d7E>
   23f64:	9c03      	ldr	r4, [sp, #12]
   23f66:	1c60      	adds	r0, r4, #1
   23f68:	225d      	movs	r2, #93	@ 0x5d
   23f6a:	4629      	mov	r1, r5
   23f6c:	f003 f997 	bl	2729e <__aeabi_memcpy>
   23f70:	e7e5      	b.n	23f3e <_ZN20complex_full_dynamic3app17hf8fbbfab21dc7d57E+0x7a>
   23f72:	46c0      	nop			@ (mov r8, r8)
   23f74:	000014a4 	.word	0x000014a4

00023f78 <_ZN20complex_full_dynamic3app17hfbcf371aeaabeb53E>:
   23f78:	b5f0      	push	{r4, r5, r6, r7, lr}
   23f7a:	af03      	add	r7, sp, #12
   23f7c:	b09f      	sub	sp, #124	@ 0x7c
   23f7e:	9003      	str	r0, [sp, #12]
   23f80:	ae04      	add	r6, sp, #16
   23f82:	2002      	movs	r0, #2
   23f84:	9002      	str	r0, [sp, #8]
   23f86:	7230      	strb	r0, [r6, #8]
   23f88:	360c      	adds	r6, #12
   23f8a:	222c      	movs	r2, #44	@ 0x2c
   23f8c:	9201      	str	r2, [sp, #4]
   23f8e:	4630      	mov	r0, r6
   23f90:	f003 f985 	bl	2729e <__aeabi_memcpy>
   23f94:	ad12      	add	r5, sp, #72	@ 0x48
   23f96:	462c      	mov	r4, r5
   23f98:	340c      	adds	r4, #12
   23f9a:	2125      	movs	r1, #37	@ 0x25
   23f9c:	4620      	mov	r0, r4
   23f9e:	f002 ffd1 	bl	26f44 <__aeabi_memclr4>
   23fa2:	9802      	ldr	r0, [sp, #8]
   23fa4:	7228      	strb	r0, [r5, #8]
   23fa6:	481f      	ldr	r0, [pc, #124]	@ (24024 <_ZN20complex_full_dynamic3app17hfbcf371aeaabeb53E+0xac>)
   23fa8:	2503      	movs	r5, #3
   23faa:	4629      	mov	r1, r5
   23fac:	4632      	mov	r2, r6
   23fae:	9b01      	ldr	r3, [sp, #4]
   23fb0:	df04      	svc	4
   23fb2:	2802      	cmp	r0, #2
   23fb4:	d017      	beq.n	23fe6 <_ZN20complex_full_dynamic3app17hfbcf371aeaabeb53E+0x6e>
   23fb6:	a804      	add	r0, sp, #16
   23fb8:	2104      	movs	r1, #4
   23fba:	7201      	strb	r1, [r0, #8]
   23fbc:	9505      	str	r5, [sp, #20]
   23fbe:	4819      	ldr	r0, [pc, #100]	@ (24024 <_ZN20complex_full_dynamic3app17hfbcf371aeaabeb53E+0xac>)
   23fc0:	9004      	str	r0, [sp, #16]
   23fc2:	2600      	movs	r6, #0
   23fc4:	2325      	movs	r3, #37	@ 0x25
   23fc6:	4631      	mov	r1, r6
   23fc8:	4622      	mov	r2, r4
   23fca:	df03      	svc	3
   23fcc:	2802      	cmp	r0, #2
   23fce:	d00a      	beq.n	23fe6 <_ZN20complex_full_dynamic3app17hfbcf371aeaabeb53E+0x6e>
   23fd0:	a812      	add	r0, sp, #72	@ 0x48
   23fd2:	7205      	strb	r5, [r0, #8]
   23fd4:	4813      	ldr	r0, [pc, #76]	@ (24024 <_ZN20complex_full_dynamic3app17hfbcf371aeaabeb53E+0xac>)
   23fd6:	9012      	str	r0, [sp, #72]	@ 0x48
   23fd8:	9613      	str	r6, [sp, #76]	@ 0x4c
   23fda:	4629      	mov	r1, r5
   23fdc:	4632      	mov	r2, r6
   23fde:	4633      	mov	r3, r6
   23fe0:	df02      	svc	2
   23fe2:	287f      	cmp	r0, #127	@ 0x7f
   23fe4:	d80b      	bhi.n	23ffe <_ZN20complex_full_dynamic3app17hfbcf371aeaabeb53E+0x86>
   23fe6:	9c03      	ldr	r4, [sp, #12]
   23fe8:	6061      	str	r1, [r4, #4]
   23fea:	2601      	movs	r6, #1
   23fec:	7026      	strb	r6, [r4, #0]
   23fee:	a812      	add	r0, sp, #72	@ 0x48
   23ff0:	f002 ff94 	bl	26f1c <_ZN9allow_pin12full_dynamic17unshare_if_shared17h02646414dc25e2d7E>
   23ff4:	a804      	add	r0, sp, #16
   23ff6:	f002 ff91 	bl	26f1c <_ZN9allow_pin12full_dynamic17unshare_if_shared17h02646414dc25e2d7E>
   23ffa:	b01f      	add	sp, #124	@ 0x7c
   23ffc:	bdf0      	pop	{r4, r5, r6, r7, pc}
   23ffe:	a804      	add	r0, sp, #16
   24000:	f002 ff8c 	bl	26f1c <_ZN9allow_pin12full_dynamic17unshare_if_shared17h02646414dc25e2d7E>
   24004:	4625      	mov	r5, r4
   24006:	ac12      	add	r4, sp, #72	@ 0x48
   24008:	4620      	mov	r0, r4
   2400a:	f002 ff87 	bl	26f1c <_ZN9allow_pin12full_dynamic17unshare_if_shared17h02646414dc25e2d7E>
   2400e:	4620      	mov	r0, r4
   24010:	f002 ff84 	bl	26f1c <_ZN9allow_pin12full_dynamic17unshare_if_shared17h02646414dc25e2d7E>
   24014:	9c03      	ldr	r4, [sp, #12]
   24016:	1c60      	adds	r0, r4, #1
   24018:	2225      	movs	r2, #37	@ 0x25
   2401a:	4629      	mov	r1, r5
   2401c:	f003 f93f 	bl	2729e <__aeabi_memcpy>
   24020:	e7e4      	b.n	23fec <_ZN20complex_full_dynamic3app17hfbcf371aeaabeb53E+0x74>
   24022:	46c0      	nop			@ (mov r8, r8)
   24024:	0000077f 	.word	0x0000077f

00024028 <_ZN20complex_full_dynamic3app17hfbdda6b0c00ea930E>:
   24028:	b5f0      	push	{r4, r5, r6, r7, lr}
   2402a:	af03      	add	r7, sp, #12
   2402c:	b0b7      	sub	sp, #220	@ 0xdc
   2402e:	9002      	str	r0, [sp, #8]
   24030:	ac03      	add	r4, sp, #12
   24032:	2002      	movs	r0, #2
   24034:	9001      	str	r0, [sp, #4]
   24036:	7220      	strb	r0, [r4, #8]
   24038:	340c      	adds	r4, #12
   2403a:	225e      	movs	r2, #94	@ 0x5e
   2403c:	9200      	str	r2, [sp, #0]
   2403e:	4620      	mov	r0, r4
   24040:	f003 f92d 	bl	2729e <__aeabi_memcpy>
   24044:	ae1e      	add	r6, sp, #120	@ 0x78
   24046:	4635      	mov	r5, r6
   24048:	350c      	adds	r5, #12
   2404a:	2155      	movs	r1, #85	@ 0x55
   2404c:	4628      	mov	r0, r5
   2404e:	f002 ff79 	bl	26f44 <__aeabi_memclr4>
   24052:	9801      	ldr	r0, [sp, #4]
   24054:	7230      	strb	r0, [r6, #8]
   24056:	481f      	ldr	r0, [pc, #124]	@ (240d4 <_ZN20complex_full_dynamic3app17hfbdda6b0c00ea930E+0xac>)
   24058:	2607      	movs	r6, #7
   2405a:	4631      	mov	r1, r6
   2405c:	4622      	mov	r2, r4
   2405e:	9b00      	ldr	r3, [sp, #0]
   24060:	df04      	svc	4
   24062:	2802      	cmp	r0, #2
   24064:	d019      	beq.n	2409a <_ZN20complex_full_dynamic3app17hfbdda6b0c00ea930E+0x72>
   24066:	a803      	add	r0, sp, #12
   24068:	2104      	movs	r1, #4
   2406a:	7201      	strb	r1, [r0, #8]
   2406c:	9604      	str	r6, [sp, #16]
   2406e:	4e19      	ldr	r6, [pc, #100]	@ (240d4 <_ZN20complex_full_dynamic3app17hfbdda6b0c00ea930E+0xac>)
   24070:	9603      	str	r6, [sp, #12]
   24072:	2403      	movs	r4, #3
   24074:	2355      	movs	r3, #85	@ 0x55
   24076:	4630      	mov	r0, r6
   24078:	4621      	mov	r1, r4
   2407a:	462a      	mov	r2, r5
   2407c:	df03      	svc	3
   2407e:	2802      	cmp	r0, #2
   24080:	d00b      	beq.n	2409a <_ZN20complex_full_dynamic3app17hfbdda6b0c00ea930E+0x72>
   24082:	a81e      	add	r0, sp, #120	@ 0x78
   24084:	7204      	strb	r4, [r0, #8]
   24086:	941f      	str	r4, [sp, #124]	@ 0x7c
   24088:	961e      	str	r6, [sp, #120]	@ 0x78
   2408a:	4812      	ldr	r0, [pc, #72]	@ (240d4 <_ZN20complex_full_dynamic3app17hfbdda6b0c00ea930E+0xac>)
   2408c:	2107      	movs	r1, #7
   2408e:	2600      	movs	r6, #0
   24090:	4622      	mov	r2, r4
   24092:	4633      	mov	r3, r6
   24094:	df02      	svc	2
   24096:	287f      	cmp	r0, #127	@ 0x7f
   24098:	d80b      	bhi.n	240b2 <_ZN20complex_full_dynamic3app17hfbdda6b0c00ea930E+0x8a>
   2409a:	9c02      	ldr	r4, [sp, #8]
   2409c:	6061      	str	r1, [r4, #4]
   2409e:	2601      	movs	r6, #1
   240a0:	7026      	strb	r6, [r4, #0]
   240a2:	a81e      	add	r0, sp, #120	@ 0x78
   240a4:	f002 ff3a 	bl	26f1c <_ZN9allow_pin12full_dynamic17unshare_if_shared17h02646414dc25e2d7E>
   240a8:	a803      	add	r0, sp, #12
   240aa:	f002 ff37 	bl	26f1c <_ZN9allow_pin12full_dynamic17unshare_if_shared17h02646414dc25e2d7E>
   240ae:	b037      	add	sp, #220	@ 0xdc
   240b0:	bdf0      	pop	{r4, r5, r6, r7, pc}
   240b2:	a803      	add	r0, sp, #12
   240b4:	f002 ff32 	bl	26f1c <_ZN9allow_pin12full_dynamic17unshare_if_shared17h02646414dc25e2d7E>
   240b8:	ac1e      	add	r4, sp, #120	@ 0x78
   240ba:	4620      	mov	r0, r4
   240bc:	f002 ff2e 	bl	26f1c <_ZN9allow_pin12full_dynamic17unshare_if_shared17h02646414dc25e2d7E>
   240c0:	4620      	mov	r0, r4
   240c2:	f002 ff2b 	bl	26f1c <_ZN9allow_pin12full_dynamic17unshare_if_shared17h02646414dc25e2d7E>
   240c6:	9c02      	ldr	r4, [sp, #8]
   240c8:	1c60      	adds	r0, r4, #1
   240ca:	2255      	movs	r2, #85	@ 0x55
   240cc:	4629      	mov	r1, r5
   240ce:	f003 f8e6 	bl	2729e <__aeabi_memcpy>
   240d2:	e7e5      	b.n	240a0 <_ZN20complex_full_dynamic3app17hfbdda6b0c00ea930E+0x78>
   240d4:	0000178a 	.word	0x0000178a

000240d8 <_ZN20complex_full_dynamic3app17hfd4a226f1fe8d4b1E>:
   240d8:	b5f0      	push	{r4, r5, r6, r7, lr}
   240da:	af03      	add	r7, sp, #12
   240dc:	b0b3      	sub	sp, #204	@ 0xcc
   240de:	9003      	str	r0, [sp, #12]
   240e0:	ae04      	add	r6, sp, #16
   240e2:	2002      	movs	r0, #2
   240e4:	9002      	str	r0, [sp, #8]
   240e6:	7230      	strb	r0, [r6, #8]
   240e8:	360c      	adds	r6, #12
   240ea:	2256      	movs	r2, #86	@ 0x56
   240ec:	9201      	str	r2, [sp, #4]
   240ee:	4630      	mov	r0, r6
   240f0:	f003 f8d5 	bl	2729e <__aeabi_memcpy>
   240f4:	ad1d      	add	r5, sp, #116	@ 0x74
   240f6:	462c      	mov	r4, r5
   240f8:	340c      	adds	r4, #12
   240fa:	2149      	movs	r1, #73	@ 0x49
   240fc:	4620      	mov	r0, r4
   240fe:	f002 ff21 	bl	26f44 <__aeabi_memclr4>
   24102:	9802      	ldr	r0, [sp, #8]
   24104:	7228      	strb	r0, [r5, #8]
   24106:	4820      	ldr	r0, [pc, #128]	@ (24188 <_ZN20complex_full_dynamic3app17hfd4a226f1fe8d4b1E+0xb0>)
   24108:	2506      	movs	r5, #6
   2410a:	4629      	mov	r1, r5
   2410c:	4632      	mov	r2, r6
   2410e:	9b01      	ldr	r3, [sp, #4]
   24110:	df04      	svc	4
   24112:	2802      	cmp	r0, #2
   24114:	d019      	beq.n	2414a <_ZN20complex_full_dynamic3app17hfd4a226f1fe8d4b1E+0x72>
   24116:	a804      	add	r0, sp, #16
   24118:	2104      	movs	r1, #4
   2411a:	7201      	strb	r1, [r0, #8]
   2411c:	4e1a      	ldr	r6, [pc, #104]	@ (24188 <_ZN20complex_full_dynamic3app17hfd4a226f1fe8d4b1E+0xb0>)
   2411e:	9604      	str	r6, [sp, #16]
   24120:	9505      	str	r5, [sp, #20]
   24122:	2349      	movs	r3, #73	@ 0x49
   24124:	4630      	mov	r0, r6
   24126:	4629      	mov	r1, r5
   24128:	4622      	mov	r2, r4
   2412a:	df03      	svc	3
   2412c:	2802      	cmp	r0, #2
   2412e:	d00c      	beq.n	2414a <_ZN20complex_full_dynamic3app17hfd4a226f1fe8d4b1E+0x72>
   24130:	a81d      	add	r0, sp, #116	@ 0x74
   24132:	2103      	movs	r1, #3
   24134:	7201      	strb	r1, [r0, #8]
   24136:	961d      	str	r6, [sp, #116]	@ 0x74
   24138:	951e      	str	r5, [sp, #120]	@ 0x78
   2413a:	4813      	ldr	r0, [pc, #76]	@ (24188 <_ZN20complex_full_dynamic3app17hfd4a226f1fe8d4b1E+0xb0>)
   2413c:	2600      	movs	r6, #0
   2413e:	4629      	mov	r1, r5
   24140:	462a      	mov	r2, r5
   24142:	4633      	mov	r3, r6
   24144:	df02      	svc	2
   24146:	287f      	cmp	r0, #127	@ 0x7f
   24148:	d80b      	bhi.n	24162 <_ZN20complex_full_dynamic3app17hfd4a226f1fe8d4b1E+0x8a>
   2414a:	9c03      	ldr	r4, [sp, #12]
   2414c:	6061      	str	r1, [r4, #4]
   2414e:	2601      	movs	r6, #1
   24150:	7026      	strb	r6, [r4, #0]
   24152:	a81d      	add	r0, sp, #116	@ 0x74
   24154:	f002 fee2 	bl	26f1c <_ZN9allow_pin12full_dynamic17unshare_if_shared17h02646414dc25e2d7E>
   24158:	a804      	add	r0, sp, #16
   2415a:	f002 fedf 	bl	26f1c <_ZN9allow_pin12full_dynamic17unshare_if_shared17h02646414dc25e2d7E>
   2415e:	b033      	add	sp, #204	@ 0xcc
   24160:	bdf0      	pop	{r4, r5, r6, r7, pc}
   24162:	a804      	add	r0, sp, #16
   24164:	f002 feda 	bl	26f1c <_ZN9allow_pin12full_dynamic17unshare_if_shared17h02646414dc25e2d7E>
   24168:	4625      	mov	r5, r4
   2416a:	ac1d      	add	r4, sp, #116	@ 0x74
   2416c:	4620      	mov	r0, r4
   2416e:	f002 fed5 	bl	26f1c <_ZN9allow_pin12full_dynamic17unshare_if_shared17h02646414dc25e2d7E>
   24172:	4620      	mov	r0, r4
   24174:	f002 fed2 	bl	26f1c <_ZN9allow_pin12full_dynamic17unshare_if_shared17h02646414dc25e2d7E>
   24178:	9c03      	ldr	r4, [sp, #12]
   2417a:	1c60      	adds	r0, r4, #1
   2417c:	2249      	movs	r2, #73	@ 0x49
   2417e:	4629      	mov	r1, r5
   24180:	f003 f88d 	bl	2729e <__aeabi_memcpy>
   24184:	e7e4      	b.n	24150 <_ZN20complex_full_dynamic3app17hfd4a226f1fe8d4b1E+0x78>
   24186:	46c0      	nop			@ (mov r8, r8)
   24188:	00001c6b 	.word	0x00001c6b

0002418c <_ZN20complex_full_dynamic3app17hfdf0f15c35a25e7dE>:
   2418c:	b5f0      	push	{r4, r5, r6, r7, lr}
   2418e:	af03      	add	r7, sp, #12
   24190:	b0a3      	sub	sp, #140	@ 0x8c
   24192:	9003      	str	r0, [sp, #12]
   24194:	ac04      	add	r4, sp, #16
   24196:	2002      	movs	r0, #2
   24198:	9002      	str	r0, [sp, #8]
   2419a:	7220      	strb	r0, [r4, #8]
   2419c:	340c      	adds	r4, #12
   2419e:	223b      	movs	r2, #59	@ 0x3b
   241a0:	9201      	str	r2, [sp, #4]
   241a2:	4620      	mov	r0, r4
   241a4:	f003 f87b 	bl	2729e <__aeabi_memcpy>
   241a8:	ae16      	add	r6, sp, #88	@ 0x58
   241aa:	4635      	mov	r5, r6
   241ac:	350c      	adds	r5, #12
   241ae:	2127      	movs	r1, #39	@ 0x27
   241b0:	4628      	mov	r0, r5
   241b2:	f002 fec7 	bl	26f44 <__aeabi_memclr4>
   241b6:	9802      	ldr	r0, [sp, #8]
   241b8:	7230      	strb	r0, [r6, #8]
   241ba:	481f      	ldr	r0, [pc, #124]	@ (24238 <_ZN20complex_full_dynamic3app17hfdf0f15c35a25e7dE+0xac>)
   241bc:	2605      	movs	r6, #5
   241be:	4631      	mov	r1, r6
   241c0:	4622      	mov	r2, r4
   241c2:	9b01      	ldr	r3, [sp, #4]
   241c4:	df04      	svc	4
   241c6:	2802      	cmp	r0, #2
   241c8:	d019      	beq.n	241fe <_ZN20complex_full_dynamic3app17hfdf0f15c35a25e7dE+0x72>
   241ca:	a804      	add	r0, sp, #16
   241cc:	2104      	movs	r1, #4
   241ce:	7201      	strb	r1, [r0, #8]
   241d0:	9605      	str	r6, [sp, #20]
   241d2:	4e19      	ldr	r6, [pc, #100]	@ (24238 <_ZN20complex_full_dynamic3app17hfdf0f15c35a25e7dE+0xac>)
   241d4:	9604      	str	r6, [sp, #16]
   241d6:	2403      	movs	r4, #3
   241d8:	2327      	movs	r3, #39	@ 0x27
   241da:	4630      	mov	r0, r6
   241dc:	4621      	mov	r1, r4
   241de:	462a      	mov	r2, r5
   241e0:	df03      	svc	3
   241e2:	2802      	cmp	r0, #2
   241e4:	d00b      	beq.n	241fe <_ZN20complex_full_dynamic3app17hfdf0f15c35a25e7dE+0x72>
   241e6:	a816      	add	r0, sp, #88	@ 0x58
   241e8:	7204      	strb	r4, [r0, #8]
   241ea:	9417      	str	r4, [sp, #92]	@ 0x5c
   241ec:	9616      	str	r6, [sp, #88]	@ 0x58
   241ee:	4812      	ldr	r0, [pc, #72]	@ (24238 <_ZN20complex_full_dynamic3app17hfdf0f15c35a25e7dE+0xac>)
   241f0:	2105      	movs	r1, #5
   241f2:	2600      	movs	r6, #0
   241f4:	4622      	mov	r2, r4
   241f6:	4633      	mov	r3, r6
   241f8:	df02      	svc	2
   241fa:	287f      	cmp	r0, #127	@ 0x7f
   241fc:	d80b      	bhi.n	24216 <_ZN20complex_full_dynamic3app17hfdf0f15c35a25e7dE+0x8a>
   241fe:	9c03      	ldr	r4, [sp, #12]
   24200:	6061      	str	r1, [r4, #4]
   24202:	2601      	movs	r6, #1
   24204:	7026      	strb	r6, [r4, #0]
   24206:	a816      	add	r0, sp, #88	@ 0x58
   24208:	f002 fe88 	bl	26f1c <_ZN9allow_pin12full_dynamic17unshare_if_shared17h02646414dc25e2d7E>
   2420c:	a804      	add	r0, sp, #16
   2420e:	f002 fe85 	bl	26f1c <_ZN9allow_pin12full_dynamic17unshare_if_shared17h02646414dc25e2d7E>
   24212:	b023      	add	sp, #140	@ 0x8c
   24214:	bdf0      	pop	{r4, r5, r6, r7, pc}
   24216:	a804      	add	r0, sp, #16
   24218:	f002 fe80 	bl	26f1c <_ZN9allow_pin12full_dynamic17unshare_if_shared17h02646414dc25e2d7E>
   2421c:	ac16      	add	r4, sp, #88	@ 0x58
   2421e:	4620      	mov	r0, r4
   24220:	f002 fe7c 	bl	26f1c <_ZN9allow_pin12full_dynamic17unshare_if_shared17h02646414dc25e2d7E>
   24224:	4620      	mov	r0, r4
   24226:	f002 fe79 	bl	26f1c <_ZN9allow_pin12full_dynamic17unshare_if_shared17h02646414dc25e2d7E>
   2422a:	9c03      	ldr	r4, [sp, #12]
   2422c:	1c60      	adds	r0, r4, #1
   2422e:	2227      	movs	r2, #39	@ 0x27
   24230:	4629      	mov	r1, r5
   24232:	f003 f834 	bl	2729e <__aeabi_memcpy>
   24236:	e7e5      	b.n	24204 <_ZN20complex_full_dynamic3app17hfdf0f15c35a25e7dE+0x78>
   24238:	00000bd3 	.word	0x00000bd3

0002423c <_start>:
   2423c:	b5f0      	push	{r4, r5, r6, r7, lr}
   2423e:	af03      	add	r7, sp, #12
   24240:	4e27      	ldr	r6, [pc, #156]	@ (242e0 <_start+0xa4>)
   24242:	44b5      	add	sp, r6
   24244:	4827      	ldr	r0, [pc, #156]	@ (242e4 <_start+0xa8>)
   24246:	4468      	add	r0, sp
   24248:	9008      	str	r0, [sp, #32]
   2424a:	ae1f      	add	r6, sp, #124	@ 0x7c
   2424c:	4635      	mov	r5, r6
   2424e:	350c      	adds	r5, #12
   24250:	2128      	movs	r1, #40	@ 0x28
   24252:	910b      	str	r1, [sp, #44]	@ 0x2c
   24254:	4628      	mov	r0, r5
   24256:	f002 fe75 	bl	26f44 <__aeabi_memclr4>
   2425a:	2402      	movs	r4, #2
   2425c:	7234      	strb	r4, [r6, #8]
   2425e:	4e22      	ldr	r6, [pc, #136]	@ (242e8 <_start+0xac>)
   24260:	446e      	add	r6, sp
   24262:	4630      	mov	r0, r6
   24264:	300c      	adds	r0, #12
   24266:	2151      	movs	r1, #81	@ 0x51
   24268:	9007      	str	r0, [sp, #28]
   2426a:	f002 fe6b 	bl	26f44 <__aeabi_memclr4>
   2426e:	940a      	str	r4, [sp, #40]	@ 0x28
   24270:	7234      	strb	r4, [r6, #8]
   24272:	4c1e      	ldr	r4, [pc, #120]	@ (242ec <_start+0xb0>)
   24274:	2609      	movs	r6, #9
   24276:	4620      	mov	r0, r4
   24278:	4631      	mov	r1, r6
   2427a:	462a      	mov	r2, r5
   2427c:	9b0b      	ldr	r3, [sp, #44]	@ 0x2c
   2427e:	df04      	svc	4
   24280:	460a      	mov	r2, r1
   24282:	a94b      	add	r1, sp, #300	@ 0x12c
   24284:	9106      	str	r1, [sp, #24]
   24286:	491a      	ldr	r1, [pc, #104]	@ (242f0 <_start+0xb4>)
   24288:	4469      	add	r1, sp
   2428a:	9104      	str	r1, [sp, #16]
   2428c:	4919      	ldr	r1, [pc, #100]	@ (242f4 <_start+0xb8>)
   2428e:	4469      	add	r1, sp
   24290:	9105      	str	r1, [sp, #20]
   24292:	2501      	movs	r5, #1
   24294:	2802      	cmp	r0, #2
   24296:	9509      	str	r5, [sp, #36]	@ 0x24
   24298:	d101      	bne.n	2429e <_start+0x62>
   2429a:	920b      	str	r2, [sp, #44]	@ 0x2c
   2429c:	e05a      	b.n	24354 <_start+0x118>
   2429e:	a81f      	add	r0, sp, #124	@ 0x7c
   242a0:	2104      	movs	r1, #4
   242a2:	7201      	strb	r1, [r0, #8]
   242a4:	941f      	str	r4, [sp, #124]	@ 0x7c
   242a6:	9620      	str	r6, [sp, #128]	@ 0x80
   242a8:	2351      	movs	r3, #81	@ 0x51
   242aa:	4620      	mov	r0, r4
   242ac:	4631      	mov	r1, r6
   242ae:	9a07      	ldr	r2, [sp, #28]
   242b0:	df03      	svc	3
   242b2:	2802      	cmp	r0, #2
   242b4:	d101      	bne.n	242ba <_start+0x7e>
   242b6:	910b      	str	r1, [sp, #44]	@ 0x2c
   242b8:	e04c      	b.n	24354 <_start+0x118>
   242ba:	480b      	ldr	r0, [pc, #44]	@ (242e8 <_start+0xac>)
   242bc:	4468      	add	r0, sp
   242be:	2103      	movs	r1, #3
   242c0:	7201      	strb	r1, [r0, #8]
   242c2:	9808      	ldr	r0, [sp, #32]
   242c4:	65c4      	str	r4, [r0, #92]	@ 0x5c
   242c6:	6606      	str	r6, [r0, #96]	@ 0x60
   242c8:	4808      	ldr	r0, [pc, #32]	@ (242ec <_start+0xb0>)
   242ca:	2500      	movs	r5, #0
   242cc:	4631      	mov	r1, r6
   242ce:	4632      	mov	r2, r6
   242d0:	462b      	mov	r3, r5
   242d2:	df02      	svc	2
   242d4:	287f      	cmp	r0, #127	@ 0x7f
   242d6:	d80f      	bhi.n	242f8 <_start+0xbc>
   242d8:	910b      	str	r1, [sp, #44]	@ 0x2c
   242da:	9d09      	ldr	r5, [sp, #36]	@ 0x24
   242dc:	e03a      	b.n	24354 <_start+0x118>
   242de:	46c0      	nop			@ (mov r8, r8)
   242e0:	ffffeadc 	.word	0xffffeadc
   242e4:	000013a8 	.word	0x000013a8
   242e8:	00001404 	.word	0x00001404
   242ec:	00002006 	.word	0x00002006
   242f0:	00000508 	.word	0x00000508
   242f4:	000007dc 	.word	0x000007dc
   242f8:	a81f      	add	r0, sp, #124	@ 0x7c
   242fa:	f002 fe0f 	bl	26f1c <_ZN9allow_pin12full_dynamic17unshare_if_shared17h02646414dc25e2d7E>
   242fe:	4e14      	ldr	r6, [pc, #80]	@ (24350 <_start+0x114>)
   24300:	446e      	add	r6, sp
   24302:	4630      	mov	r0, r6
   24304:	f002 fe0a 	bl	26f1c <_ZN9allow_pin12full_dynamic17unshare_if_shared17h02646414dc25e2d7E>
   24308:	4630      	mov	r0, r6
   2430a:	f002 fe07 	bl	26f1c <_ZN9allow_pin12full_dynamic17unshare_if_shared17h02646414dc25e2d7E>
   2430e:	9a07      	ldr	r2, [sp, #28]
   24310:	7890      	ldrb	r0, [r2, #2]
   24312:	a92f      	add	r1, sp, #188	@ 0xbc
   24314:	7088      	strb	r0, [r1, #2]
   24316:	7810      	ldrb	r0, [r2, #0]
   24318:	7852      	ldrb	r2, [r2, #1]
   2431a:	0212      	lsls	r2, r2, #8
   2431c:	1810      	adds	r0, r2, r0
   2431e:	8008      	strh	r0, [r1, #0]
   24320:	7cb0      	ldrb	r0, [r6, #18]
   24322:	900b      	str	r0, [sp, #44]	@ 0x2c
   24324:	7c70      	ldrb	r0, [r6, #17]
   24326:	9007      	str	r0, [sp, #28]
   24328:	7bf0      	ldrb	r0, [r6, #15]
   2432a:	9003      	str	r0, [sp, #12]
   2432c:	7c34      	ldrb	r4, [r6, #16]
   2432e:	3613      	adds	r6, #19
   24330:	a80c      	add	r0, sp, #48	@ 0x30
   24332:	224a      	movs	r2, #74	@ 0x4a
   24334:	4631      	mov	r1, r6
   24336:	f002 ffb2 	bl	2729e <__aeabi_memcpy>
   2433a:	0220      	lsls	r0, r4, #8
   2433c:	9903      	ldr	r1, [sp, #12]
   2433e:	1840      	adds	r0, r0, r1
   24340:	9907      	ldr	r1, [sp, #28]
   24342:	0409      	lsls	r1, r1, #16
   24344:	9a0b      	ldr	r2, [sp, #44]	@ 0x2c
   24346:	0612      	lsls	r2, r2, #24
   24348:	1851      	adds	r1, r2, r1
   2434a:	1808      	adds	r0, r1, r0
   2434c:	900b      	str	r0, [sp, #44]	@ 0x2c
   2434e:	e001      	b.n	24354 <_start+0x118>
   24350:	00001404 	.word	0x00001404
   24354:	4804      	ldr	r0, [pc, #16]	@ (24368 <_start+0x12c>)
   24356:	4468      	add	r0, sp
   24358:	f002 fde0 	bl	26f1c <_ZN9allow_pin12full_dynamic17unshare_if_shared17h02646414dc25e2d7E>
   2435c:	a81f      	add	r0, sp, #124	@ 0x7c
   2435e:	f002 fddd 	bl	26f1c <_ZN9allow_pin12full_dynamic17unshare_if_shared17h02646414dc25e2d7E>
   24362:	2d00      	cmp	r5, #0
   24364:	d002      	beq.n	2436c <_start+0x130>
   24366:	e241      	b.n	247ec <_start+0x5b0>
   24368:	00001404 	.word	0x00001404
   2436c:	4d18      	ldr	r5, [pc, #96]	@ (243d0 <_start+0x194>)
   2436e:	446d      	add	r5, sp
   24370:	982f      	ldr	r0, [sp, #188]	@ 0xbc
   24372:	81a8      	strh	r0, [r5, #12]
   24374:	a82f      	add	r0, sp, #188	@ 0xbc
   24376:	7880      	ldrb	r0, [r0, #2]
   24378:	73a8      	strb	r0, [r5, #14]
   2437a:	4c16      	ldr	r4, [pc, #88]	@ (243d4 <_start+0x198>)
   2437c:	446c      	add	r4, sp
   2437e:	a90c      	add	r1, sp, #48	@ 0x30
   24380:	264a      	movs	r6, #74	@ 0x4a
   24382:	4620      	mov	r0, r4
   24384:	4632      	mov	r2, r6
   24386:	f002 fe2a 	bl	26fde <__aeabi_memcpy4>
   2438a:	4628      	mov	r0, r5
   2438c:	3013      	adds	r0, #19
   2438e:	4621      	mov	r1, r4
   24390:	4632      	mov	r2, r6
   24392:	f002 ff84 	bl	2729e <__aeabi_memcpy>
   24396:	990b      	ldr	r1, [sp, #44]	@ 0x2c
   24398:	0e08      	lsrs	r0, r1, #24
   2439a:	74a8      	strb	r0, [r5, #18]
   2439c:	0c08      	lsrs	r0, r1, #16
   2439e:	7468      	strb	r0, [r5, #17]
   243a0:	0a08      	lsrs	r0, r1, #8
   243a2:	7428      	strb	r0, [r5, #16]
   243a4:	73e9      	strb	r1, [r5, #15]
   243a6:	9c0a      	ldr	r4, [sp, #40]	@ 0x28
   243a8:	722c      	strb	r4, [r5, #8]
   243aa:	4e0a      	ldr	r6, [pc, #40]	@ (243d4 <_start+0x198>)
   243ac:	446e      	add	r6, sp
   243ae:	4630      	mov	r0, r6
   243b0:	300c      	adds	r0, #12
   243b2:	2146      	movs	r1, #70	@ 0x46
   243b4:	900b      	str	r0, [sp, #44]	@ 0x2c
   243b6:	f002 fdc5 	bl	26f44 <__aeabi_memclr4>
   243ba:	7234      	strb	r4, [r6, #8]
   243bc:	350c      	adds	r5, #12
   243be:	4806      	ldr	r0, [pc, #24]	@ (243d8 <_start+0x19c>)
   243c0:	2607      	movs	r6, #7
   243c2:	2351      	movs	r3, #81	@ 0x51
   243c4:	4631      	mov	r1, r6
   243c6:	462a      	mov	r2, r5
   243c8:	df04      	svc	4
   243ca:	2802      	cmp	r0, #2
   243cc:	d030      	beq.n	24430 <_start+0x1f4>
   243ce:	e005      	b.n	243dc <_start+0x1a0>
   243d0:	00001404 	.word	0x00001404
   243d4:	000013a8 	.word	0x000013a8
   243d8:	000020c4 	.word	0x000020c4
   243dc:	4808      	ldr	r0, [pc, #32]	@ (24400 <_start+0x1c4>)
   243de:	4468      	add	r0, sp
   243e0:	2104      	movs	r1, #4
   243e2:	7201      	strb	r1, [r0, #8]
   243e4:	4c07      	ldr	r4, [pc, #28]	@ (24404 <_start+0x1c8>)
   243e6:	34be      	adds	r4, #190	@ 0xbe
   243e8:	9d08      	ldr	r5, [sp, #32]
   243ea:	65ec      	str	r4, [r5, #92]	@ 0x5c
   243ec:	662e      	str	r6, [r5, #96]	@ 0x60
   243ee:	4806      	ldr	r0, [pc, #24]	@ (24408 <_start+0x1cc>)
   243f0:	2600      	movs	r6, #0
   243f2:	2346      	movs	r3, #70	@ 0x46
   243f4:	4631      	mov	r1, r6
   243f6:	9a0b      	ldr	r2, [sp, #44]	@ 0x2c
   243f8:	df03      	svc	3
   243fa:	2802      	cmp	r0, #2
   243fc:	d018      	beq.n	24430 <_start+0x1f4>
   243fe:	e005      	b.n	2440c <_start+0x1d0>
   24400:	00001404 	.word	0x00001404
   24404:	00002006 	.word	0x00002006
   24408:	000020c4 	.word	0x000020c4
   2440c:	4806      	ldr	r0, [pc, #24]	@ (24428 <_start+0x1ec>)
   2440e:	4468      	add	r0, sp
   24410:	2103      	movs	r1, #3
   24412:	7201      	strb	r1, [r0, #8]
   24414:	c550      	stmia	r5!, {r4, r6}
   24416:	4805      	ldr	r0, [pc, #20]	@ (2442c <_start+0x1f0>)
   24418:	2107      	movs	r1, #7
   2441a:	4632      	mov	r2, r6
   2441c:	4633      	mov	r3, r6
   2441e:	df02      	svc	2
   24420:	287f      	cmp	r0, #127	@ 0x7f
   24422:	d905      	bls.n	24430 <_start+0x1f4>
   24424:	e1f4      	b.n	24810 <_start+0x5d4>
   24426:	46c0      	nop			@ (mov r8, r8)
   24428:	000013a8 	.word	0x000013a8
   2442c:	000020c4 	.word	0x000020c4
   24430:	910b      	str	r1, [sp, #44]	@ 0x2c
   24432:	9e09      	ldr	r6, [sp, #36]	@ 0x24
   24434:	48f0      	ldr	r0, [pc, #960]	@ (247f8 <_start+0x5bc>)
   24436:	4468      	add	r0, sp
   24438:	f002 fd70 	bl	26f1c <_ZN9allow_pin12full_dynamic17unshare_if_shared17h02646414dc25e2d7E>
   2443c:	48ef      	ldr	r0, [pc, #956]	@ (247fc <_start+0x5c0>)
   2443e:	4468      	add	r0, sp
   24440:	f002 fd6c 	bl	26f1c <_ZN9allow_pin12full_dynamic17unshare_if_shared17h02646414dc25e2d7E>
   24444:	2e00      	cmp	r6, #0
   24446:	d000      	beq.n	2444a <_start+0x20e>
   24448:	e1d0      	b.n	247ec <_start+0x5b0>
   2444a:	49ec      	ldr	r1, [pc, #944]	@ (247fc <_start+0x5c0>)
   2444c:	4469      	add	r1, sp
   2444e:	9107      	str	r1, [sp, #28]
   24450:	982f      	ldr	r0, [sp, #188]	@ 0xbc
   24452:	8188      	strh	r0, [r1, #12]
   24454:	a82f      	add	r0, sp, #188	@ 0xbc
   24456:	7880      	ldrb	r0, [r0, #2]
   24458:	7388      	strb	r0, [r1, #14]
   2445a:	a81f      	add	r0, sp, #124	@ 0x7c
   2445c:	a90c      	add	r1, sp, #48	@ 0x30
   2445e:	460a      	mov	r2, r1
   24460:	c858      	ldmia	r0!, {r3, r4, r6}
   24462:	c258      	stmia	r2!, {r3, r4, r6}
   24464:	c878      	ldmia	r0!, {r3, r4, r5, r6}
   24466:	c278      	stmia	r2!, {r3, r4, r5, r6}
   24468:	c878      	ldmia	r0!, {r3, r4, r5, r6}
   2446a:	c278      	stmia	r2!, {r3, r4, r5, r6}
   2446c:	c878      	ldmia	r0!, {r3, r4, r5, r6}
   2446e:	c278      	stmia	r2!, {r3, r4, r5, r6}
   24470:	8803      	ldrh	r3, [r0, #0]
   24472:	8013      	strh	r3, [r2, #0]
   24474:	7880      	ldrb	r0, [r0, #2]
   24476:	7090      	strb	r0, [r2, #2]
   24478:	9c07      	ldr	r4, [sp, #28]
   2447a:	4620      	mov	r0, r4
   2447c:	3013      	adds	r0, #19
   2447e:	223f      	movs	r2, #63	@ 0x3f
   24480:	f002 ff0d 	bl	2729e <__aeabi_memcpy>
   24484:	990b      	ldr	r1, [sp, #44]	@ 0x2c
   24486:	0e08      	lsrs	r0, r1, #24
   24488:	4622      	mov	r2, r4
   2448a:	74a0      	strb	r0, [r4, #18]
   2448c:	0c08      	lsrs	r0, r1, #16
   2448e:	7460      	strb	r0, [r4, #17]
   24490:	0a08      	lsrs	r0, r1, #8
   24492:	7420      	strb	r0, [r4, #16]
   24494:	73e1      	strb	r1, [r4, #15]
   24496:	980a      	ldr	r0, [sp, #40]	@ 0x28
   24498:	7220      	strb	r0, [r4, #8]
   2449a:	4cd7      	ldr	r4, [pc, #860]	@ (247f8 <_start+0x5bc>)
   2449c:	446c      	add	r4, sp
   2449e:	7220      	strb	r0, [r4, #8]
   244a0:	2000      	movs	r0, #0
   244a2:	9d08      	ldr	r5, [sp, #32]
   244a4:	60e8      	str	r0, [r5, #12]
   244a6:	6128      	str	r0, [r5, #16]
   244a8:	6168      	str	r0, [r5, #20]
   244aa:	61a8      	str	r0, [r5, #24]
   244ac:	61e8      	str	r0, [r5, #28]
   244ae:	6228      	str	r0, [r5, #32]
   244b0:	320c      	adds	r2, #12
   244b2:	48d3      	ldr	r0, [pc, #844]	@ (24800 <_start+0x5c4>)
   244b4:	2603      	movs	r6, #3
   244b6:	2346      	movs	r3, #70	@ 0x46
   244b8:	4631      	mov	r1, r6
   244ba:	df04      	svc	4
   244bc:	2802      	cmp	r0, #2
   244be:	9607      	str	r6, [sp, #28]
   244c0:	d01c      	beq.n	244fc <_start+0x2c0>
   244c2:	340c      	adds	r4, #12
   244c4:	48cd      	ldr	r0, [pc, #820]	@ (247fc <_start+0x5c0>)
   244c6:	4468      	add	r0, sp
   244c8:	2104      	movs	r1, #4
   244ca:	7201      	strb	r1, [r0, #8]
   244cc:	48cc      	ldr	r0, [pc, #816]	@ (24800 <_start+0x5c4>)
   244ce:	65e8      	str	r0, [r5, #92]	@ 0x5c
   244d0:	662e      	str	r6, [r5, #96]	@ 0x60
   244d2:	2502      	movs	r5, #2
   244d4:	2318      	movs	r3, #24
   244d6:	4629      	mov	r1, r5
   244d8:	4622      	mov	r2, r4
   244da:	df03      	svc	3
   244dc:	2802      	cmp	r0, #2
   244de:	d00d      	beq.n	244fc <_start+0x2c0>
   244e0:	48c5      	ldr	r0, [pc, #788]	@ (247f8 <_start+0x5bc>)
   244e2:	4468      	add	r0, sp
   244e4:	7206      	strb	r6, [r0, #8]
   244e6:	48c6      	ldr	r0, [pc, #792]	@ (24800 <_start+0x5c4>)
   244e8:	9908      	ldr	r1, [sp, #32]
   244ea:	c121      	stmia	r1!, {r0, r5}
   244ec:	2300      	movs	r3, #0
   244ee:	4631      	mov	r1, r6
   244f0:	462a      	mov	r2, r5
   244f2:	9303      	str	r3, [sp, #12]
   244f4:	df02      	svc	2
   244f6:	287f      	cmp	r0, #127	@ 0x7f
   244f8:	d900      	bls.n	244fc <_start+0x2c0>
   244fa:	e1b6      	b.n	2486a <_start+0x62e>
   244fc:	910b      	str	r1, [sp, #44]	@ 0x2c
   244fe:	9c09      	ldr	r4, [sp, #36]	@ 0x24
   24500:	48bd      	ldr	r0, [pc, #756]	@ (247f8 <_start+0x5bc>)
   24502:	4468      	add	r0, sp
   24504:	f002 fd0a 	bl	26f1c <_ZN9allow_pin12full_dynamic17unshare_if_shared17h02646414dc25e2d7E>
   24508:	48bc      	ldr	r0, [pc, #752]	@ (247fc <_start+0x5c0>)
   2450a:	4468      	add	r0, sp
   2450c:	f002 fd06 	bl	26f1c <_ZN9allow_pin12full_dynamic17unshare_if_shared17h02646414dc25e2d7E>
   24510:	2c00      	cmp	r4, #0
   24512:	d000      	beq.n	24516 <_start+0x2da>
   24514:	e16a      	b.n	247ec <_start+0x5b0>
   24516:	ad1f      	add	r5, sp, #124	@ 0x7c
   24518:	9834      	ldr	r0, [sp, #208]	@ 0xd0
   2451a:	81a8      	strh	r0, [r5, #12]
   2451c:	a834      	add	r0, sp, #208	@ 0xd0
   2451e:	7880      	ldrb	r0, [r0, #2]
   24520:	73a8      	strb	r0, [r5, #14]
   24522:	a92f      	add	r1, sp, #188	@ 0xbc
   24524:	aa0c      	add	r2, sp, #48	@ 0x30
   24526:	9203      	str	r2, [sp, #12]
   24528:	c959      	ldmia	r1!, {r0, r3, r4, r6}
   2452a:	c259      	stmia	r2!, {r0, r3, r4, r6}
   2452c:	7808      	ldrb	r0, [r1, #0]
   2452e:	7010      	strb	r0, [r2, #0]
   24530:	4628      	mov	r0, r5
   24532:	3013      	adds	r0, #19
   24534:	2211      	movs	r2, #17
   24536:	9903      	ldr	r1, [sp, #12]
   24538:	f002 feb1 	bl	2729e <__aeabi_memcpy>
   2453c:	990b      	ldr	r1, [sp, #44]	@ 0x2c
   2453e:	0e08      	lsrs	r0, r1, #24
   24540:	74a8      	strb	r0, [r5, #18]
   24542:	0c08      	lsrs	r0, r1, #16
   24544:	7468      	strb	r0, [r5, #17]
   24546:	0a08      	lsrs	r0, r1, #8
   24548:	7428      	strb	r0, [r5, #16]
   2454a:	73e9      	strb	r1, [r5, #15]
   2454c:	980a      	ldr	r0, [sp, #40]	@ 0x28
   2454e:	7228      	strb	r0, [r5, #8]
   24550:	4eaa      	ldr	r6, [pc, #680]	@ (247fc <_start+0x5c0>)
   24552:	446e      	add	r6, sp
   24554:	4634      	mov	r4, r6
   24556:	340c      	adds	r4, #12
   24558:	2136      	movs	r1, #54	@ 0x36
   2455a:	4620      	mov	r0, r4
   2455c:	f002 fcf2 	bl	26f44 <__aeabi_memclr4>
   24560:	980a      	ldr	r0, [sp, #40]	@ 0x28
   24562:	7230      	strb	r0, [r6, #8]
   24564:	350c      	adds	r5, #12
   24566:	48a7      	ldr	r0, [pc, #668]	@ (24804 <_start+0x5c8>)
   24568:	2600      	movs	r6, #0
   2456a:	2318      	movs	r3, #24
   2456c:	4631      	mov	r1, r6
   2456e:	462a      	mov	r2, r5
   24570:	df04      	svc	4
   24572:	2802      	cmp	r0, #2
   24574:	9603      	str	r6, [sp, #12]
   24576:	d01e      	beq.n	245b6 <_start+0x37a>
   24578:	a81f      	add	r0, sp, #124	@ 0x7c
   2457a:	2104      	movs	r1, #4
   2457c:	7201      	strb	r1, [r0, #8]
   2457e:	9620      	str	r6, [sp, #128]	@ 0x80
   24580:	4ea0      	ldr	r6, [pc, #640]	@ (24804 <_start+0x5c8>)
   24582:	961f      	str	r6, [sp, #124]	@ 0x7c
   24584:	2507      	movs	r5, #7
   24586:	2336      	movs	r3, #54	@ 0x36
   24588:	4630      	mov	r0, r6
   2458a:	4629      	mov	r1, r5
   2458c:	940b      	str	r4, [sp, #44]	@ 0x2c
   2458e:	4622      	mov	r2, r4
   24590:	df03      	svc	3
   24592:	2802      	cmp	r0, #2
   24594:	d00f      	beq.n	245b6 <_start+0x37a>
   24596:	4899      	ldr	r0, [pc, #612]	@ (247fc <_start+0x5c0>)
   24598:	4468      	add	r0, sp
   2459a:	9907      	ldr	r1, [sp, #28]
   2459c:	7201      	strb	r1, [r0, #8]
   2459e:	9808      	ldr	r0, [sp, #32]
   245a0:	65c6      	str	r6, [r0, #92]	@ 0x5c
   245a2:	6605      	str	r5, [r0, #96]	@ 0x60
   245a4:	4897      	ldr	r0, [pc, #604]	@ (24804 <_start+0x5c8>)
   245a6:	2400      	movs	r4, #0
   245a8:	4621      	mov	r1, r4
   245aa:	462a      	mov	r2, r5
   245ac:	4623      	mov	r3, r4
   245ae:	df02      	svc	2
   245b0:	287f      	cmp	r0, #127	@ 0x7f
   245b2:	d900      	bls.n	245b6 <_start+0x37a>
   245b4:	e184      	b.n	248c0 <_start+0x684>
   245b6:	910b      	str	r1, [sp, #44]	@ 0x2c
   245b8:	9c09      	ldr	r4, [sp, #36]	@ 0x24
   245ba:	4890      	ldr	r0, [pc, #576]	@ (247fc <_start+0x5c0>)
   245bc:	4468      	add	r0, sp
   245be:	f002 fcad 	bl	26f1c <_ZN9allow_pin12full_dynamic17unshare_if_shared17h02646414dc25e2d7E>
   245c2:	a81f      	add	r0, sp, #124	@ 0x7c
   245c4:	f002 fcaa 	bl	26f1c <_ZN9allow_pin12full_dynamic17unshare_if_shared17h02646414dc25e2d7E>
   245c8:	2c00      	cmp	r4, #0
   245ca:	d000      	beq.n	245ce <_start+0x392>
   245cc:	e10e      	b.n	247ec <_start+0x5b0>
   245ce:	498b      	ldr	r1, [pc, #556]	@ (247fc <_start+0x5c0>)
   245d0:	4469      	add	r1, sp
   245d2:	9102      	str	r1, [sp, #8]
   245d4:	982f      	ldr	r0, [sp, #188]	@ 0xbc
   245d6:	8188      	strh	r0, [r1, #12]
   245d8:	a82f      	add	r0, sp, #188	@ 0xbc
   245da:	7880      	ldrb	r0, [r0, #2]
   245dc:	7388      	strb	r0, [r1, #14]
   245de:	a80c      	add	r0, sp, #48	@ 0x30
   245e0:	4985      	ldr	r1, [pc, #532]	@ (247f8 <_start+0x5bc>)
   245e2:	4469      	add	r1, sp
   245e4:	460a      	mov	r2, r1
   245e6:	c858      	ldmia	r0!, {r3, r4, r6}
   245e8:	c258      	stmia	r2!, {r3, r4, r6}
   245ea:	c878      	ldmia	r0!, {r3, r4, r5, r6}
   245ec:	c278      	stmia	r2!, {r3, r4, r5, r6}
   245ee:	c878      	ldmia	r0!, {r3, r4, r5, r6}
   245f0:	c278      	stmia	r2!, {r3, r4, r5, r6}
   245f2:	8803      	ldrh	r3, [r0, #0]
   245f4:	8013      	strh	r3, [r2, #0]
   245f6:	7880      	ldrb	r0, [r0, #2]
   245f8:	7090      	strb	r0, [r2, #2]
   245fa:	9c02      	ldr	r4, [sp, #8]
   245fc:	4620      	mov	r0, r4
   245fe:	3013      	adds	r0, #19
   24600:	222f      	movs	r2, #47	@ 0x2f
   24602:	f002 fe4c 	bl	2729e <__aeabi_memcpy>
   24606:	990b      	ldr	r1, [sp, #44]	@ 0x2c
   24608:	0e08      	lsrs	r0, r1, #24
   2460a:	74a0      	strb	r0, [r4, #18]
   2460c:	0c08      	lsrs	r0, r1, #16
   2460e:	7460      	strb	r0, [r4, #17]
   24610:	0a08      	lsrs	r0, r1, #8
   24612:	7420      	strb	r0, [r4, #16]
   24614:	73e1      	strb	r1, [r4, #15]
   24616:	9e0a      	ldr	r6, [sp, #40]	@ 0x28
   24618:	7226      	strb	r6, [r4, #8]
   2461a:	4d77      	ldr	r5, [pc, #476]	@ (247f8 <_start+0x5bc>)
   2461c:	446d      	add	r5, sp
   2461e:	4628      	mov	r0, r5
   24620:	300c      	adds	r0, #12
   24622:	2125      	movs	r1, #37	@ 0x25
   24624:	900b      	str	r0, [sp, #44]	@ 0x2c
   24626:	f002 fc8d 	bl	26f44 <__aeabi_memclr4>
   2462a:	722e      	strb	r6, [r5, #8]
   2462c:	340c      	adds	r4, #12
   2462e:	4876      	ldr	r0, [pc, #472]	@ (24808 <_start+0x5cc>)
   24630:	2607      	movs	r6, #7
   24632:	2336      	movs	r3, #54	@ 0x36
   24634:	4631      	mov	r1, r6
   24636:	4622      	mov	r2, r4
   24638:	df04      	svc	4
   2463a:	2802      	cmp	r0, #2
   2463c:	d01c      	beq.n	24678 <_start+0x43c>
   2463e:	486f      	ldr	r0, [pc, #444]	@ (247fc <_start+0x5c0>)
   24640:	4468      	add	r0, sp
   24642:	2104      	movs	r1, #4
   24644:	7201      	strb	r1, [r0, #8]
   24646:	9d08      	ldr	r5, [sp, #32]
   24648:	486f      	ldr	r0, [pc, #444]	@ (24808 <_start+0x5cc>)
   2464a:	65e8      	str	r0, [r5, #92]	@ 0x5c
   2464c:	662e      	str	r6, [r5, #96]	@ 0x60
   2464e:	2600      	movs	r6, #0
   24650:	2325      	movs	r3, #37	@ 0x25
   24652:	4631      	mov	r1, r6
   24654:	9c0b      	ldr	r4, [sp, #44]	@ 0x2c
   24656:	4622      	mov	r2, r4
   24658:	df03      	svc	3
   2465a:	2802      	cmp	r0, #2
   2465c:	d00c      	beq.n	24678 <_start+0x43c>
   2465e:	4866      	ldr	r0, [pc, #408]	@ (247f8 <_start+0x5bc>)
   24660:	4468      	add	r0, sp
   24662:	9907      	ldr	r1, [sp, #28]
   24664:	7201      	strb	r1, [r0, #8]
   24666:	4868      	ldr	r0, [pc, #416]	@ (24808 <_start+0x5cc>)
   24668:	c541      	stmia	r5!, {r0, r6}
   2466a:	2107      	movs	r1, #7
   2466c:	4632      	mov	r2, r6
   2466e:	4633      	mov	r3, r6
   24670:	df02      	svc	2
   24672:	287f      	cmp	r0, #127	@ 0x7f
   24674:	d900      	bls.n	24678 <_start+0x43c>
   24676:	e14f      	b.n	24918 <_start+0x6dc>
   24678:	910b      	str	r1, [sp, #44]	@ 0x2c
   2467a:	9e09      	ldr	r6, [sp, #36]	@ 0x24
   2467c:	485e      	ldr	r0, [pc, #376]	@ (247f8 <_start+0x5bc>)
   2467e:	4468      	add	r0, sp
   24680:	f002 fc4c 	bl	26f1c <_ZN9allow_pin12full_dynamic17unshare_if_shared17h02646414dc25e2d7E>
   24684:	485d      	ldr	r0, [pc, #372]	@ (247fc <_start+0x5c0>)
   24686:	4468      	add	r0, sp
   24688:	f002 fc48 	bl	26f1c <_ZN9allow_pin12full_dynamic17unshare_if_shared17h02646414dc25e2d7E>
   2468c:	2e00      	cmp	r6, #0
   2468e:	d000      	beq.n	24692 <_start+0x456>
   24690:	e0ac      	b.n	247ec <_start+0x5b0>
   24692:	495a      	ldr	r1, [pc, #360]	@ (247fc <_start+0x5c0>)
   24694:	4469      	add	r1, sp
   24696:	9102      	str	r1, [sp, #8]
   24698:	982f      	ldr	r0, [sp, #188]	@ 0xbc
   2469a:	8188      	strh	r0, [r1, #12]
   2469c:	a82f      	add	r0, sp, #188	@ 0xbc
   2469e:	7880      	ldrb	r0, [r0, #2]
   246a0:	7388      	strb	r0, [r1, #14]
   246a2:	a81f      	add	r0, sp, #124	@ 0x7c
   246a4:	a90c      	add	r1, sp, #48	@ 0x30
   246a6:	460a      	mov	r2, r1
   246a8:	c858      	ldmia	r0!, {r3, r4, r6}
   246aa:	c258      	stmia	r2!, {r3, r4, r6}
   246ac:	c878      	ldmia	r0!, {r3, r4, r5, r6}
   246ae:	c278      	stmia	r2!, {r3, r4, r5, r6}
   246b0:	8800      	ldrh	r0, [r0, #0]
   246b2:	8010      	strh	r0, [r2, #0]
   246b4:	9c02      	ldr	r4, [sp, #8]
   246b6:	4620      	mov	r0, r4
   246b8:	3013      	adds	r0, #19
   246ba:	221e      	movs	r2, #30
   246bc:	f002 fdef 	bl	2729e <__aeabi_memcpy>
   246c0:	990b      	ldr	r1, [sp, #44]	@ 0x2c
   246c2:	0e08      	lsrs	r0, r1, #24
   246c4:	4622      	mov	r2, r4
   246c6:	74a0      	strb	r0, [r4, #18]
   246c8:	0c08      	lsrs	r0, r1, #16
   246ca:	7460      	strb	r0, [r4, #17]
   246cc:	0a08      	lsrs	r0, r1, #8
   246ce:	7420      	strb	r0, [r4, #16]
   246d0:	73e1      	strb	r1, [r4, #15]
   246d2:	990a      	ldr	r1, [sp, #40]	@ 0x28
   246d4:	7221      	strb	r1, [r4, #8]
   246d6:	4c48      	ldr	r4, [pc, #288]	@ (247f8 <_start+0x5bc>)
   246d8:	446c      	add	r4, sp
   246da:	9803      	ldr	r0, [sp, #12]
   246dc:	8320      	strh	r0, [r4, #24]
   246de:	7221      	strb	r1, [r4, #8]
   246e0:	9d08      	ldr	r5, [sp, #32]
   246e2:	60e8      	str	r0, [r5, #12]
   246e4:	6128      	str	r0, [r5, #16]
   246e6:	6168      	str	r0, [r5, #20]
   246e8:	320c      	adds	r2, #12
   246ea:	4848      	ldr	r0, [pc, #288]	@ (2480c <_start+0x5d0>)
   246ec:	2325      	movs	r3, #37	@ 0x25
   246ee:	460e      	mov	r6, r1
   246f0:	df04      	svc	4
   246f2:	2802      	cmp	r0, #2
   246f4:	d01e      	beq.n	24734 <_start+0x4f8>
   246f6:	340c      	adds	r4, #12
   246f8:	4840      	ldr	r0, [pc, #256]	@ (247fc <_start+0x5c0>)
   246fa:	4468      	add	r0, sp
   246fc:	2104      	movs	r1, #4
   246fe:	7201      	strb	r1, [r0, #8]
   24700:	4842      	ldr	r0, [pc, #264]	@ (2480c <_start+0x5d0>)
   24702:	65e8      	str	r0, [r5, #92]	@ 0x5c
   24704:	662e      	str	r6, [r5, #96]	@ 0x60
   24706:	2508      	movs	r5, #8
   24708:	230e      	movs	r3, #14
   2470a:	4629      	mov	r1, r5
   2470c:	4622      	mov	r2, r4
   2470e:	df03      	svc	3
   24710:	2802      	cmp	r0, #2
   24712:	d00f      	beq.n	24734 <_start+0x4f8>
   24714:	4838      	ldr	r0, [pc, #224]	@ (247f8 <_start+0x5bc>)
   24716:	4468      	add	r0, sp
   24718:	9907      	ldr	r1, [sp, #28]
   2471a:	7201      	strb	r1, [r0, #8]
   2471c:	9808      	ldr	r0, [sp, #32]
   2471e:	493b      	ldr	r1, [pc, #236]	@ (2480c <_start+0x5d0>)
   24720:	c022      	stmia	r0!, {r1, r5}
   24722:	483a      	ldr	r0, [pc, #232]	@ (2480c <_start+0x5d0>)
   24724:	2102      	movs	r1, #2
   24726:	2300      	movs	r3, #0
   24728:	462a      	mov	r2, r5
   2472a:	461d      	mov	r5, r3
   2472c:	df02      	svc	2
   2472e:	287f      	cmp	r0, #127	@ 0x7f
   24730:	d900      	bls.n	24734 <_start+0x4f8>
   24732:	e11d      	b.n	24970 <_start+0x734>
   24734:	910b      	str	r1, [sp, #44]	@ 0x2c
   24736:	9d09      	ldr	r5, [sp, #36]	@ 0x24
   24738:	482f      	ldr	r0, [pc, #188]	@ (247f8 <_start+0x5bc>)
   2473a:	4468      	add	r0, sp
   2473c:	f002 fbee 	bl	26f1c <_ZN9allow_pin12full_dynamic17unshare_if_shared17h02646414dc25e2d7E>
   24740:	482e      	ldr	r0, [pc, #184]	@ (247fc <_start+0x5c0>)
   24742:	4468      	add	r0, sp
   24744:	f002 fbea 	bl	26f1c <_ZN9allow_pin12full_dynamic17unshare_if_shared17h02646414dc25e2d7E>
   24748:	2d00      	cmp	r5, #0
   2474a:	d14f      	bne.n	247ec <_start+0x5b0>
   2474c:	ac35      	add	r4, sp, #212	@ 0xd4
   2474e:	982f      	ldr	r0, [sp, #188]	@ 0xbc
   24750:	8020      	strh	r0, [r4, #0]
   24752:	a90c      	add	r1, sp, #48	@ 0x30
   24754:	9820      	ldr	r0, [sp, #128]	@ 0x80
   24756:	8088      	strh	r0, [r1, #4]
   24758:	a82f      	add	r0, sp, #188	@ 0xbc
   2475a:	7880      	ldrb	r0, [r0, #2]
   2475c:	70a0      	strb	r0, [r4, #2]
   2475e:	a81f      	add	r0, sp, #124	@ 0x7c
   24760:	7980      	ldrb	r0, [r0, #6]
   24762:	7188      	strb	r0, [r1, #6]
   24764:	9a0b      	ldr	r2, [sp, #44]	@ 0x2c
   24766:	70e2      	strb	r2, [r4, #3]
   24768:	0e10      	lsrs	r0, r2, #24
   2476a:	71a0      	strb	r0, [r4, #6]
   2476c:	0c10      	lsrs	r0, r2, #16
   2476e:	7160      	strb	r0, [r4, #5]
   24770:	0a10      	lsrs	r0, r2, #8
   24772:	7120      	strb	r0, [r4, #4]
   24774:	981f      	ldr	r0, [sp, #124]	@ 0x7c
   24776:	900c      	str	r0, [sp, #48]	@ 0x30
   24778:	1de0      	adds	r0, r4, #7
   2477a:	2207      	movs	r2, #7
   2477c:	f002 fd8f 	bl	2729e <__aeabi_memcpy>
   24780:	4d1e      	ldr	r5, [pc, #120]	@ (247fc <_start+0x5c0>)
   24782:	446d      	add	r5, sp
   24784:	4628      	mov	r0, r5
   24786:	4621      	mov	r1, r4
   24788:	f7ff faea 	bl	23d60 <_ZN20complex_full_dynamic3app17hf0bb35116da8666fE>
   2478c:	7828      	ldrb	r0, [r5, #0]
   2478e:	2801      	cmp	r0, #1
   24790:	d029      	beq.n	247e6 <_start+0x5aa>
   24792:	491a      	ldr	r1, [pc, #104]	@ (247fc <_start+0x5c0>)
   24794:	4469      	add	r1, sp
   24796:	78c8      	ldrb	r0, [r1, #3]
   24798:	ac39      	add	r4, sp, #228	@ 0xe4
   2479a:	70a0      	strb	r0, [r4, #2]
   2479c:	7848      	ldrb	r0, [r1, #1]
   2479e:	788a      	ldrb	r2, [r1, #2]
   247a0:	0212      	lsls	r2, r2, #8
   247a2:	1810      	adds	r0, r2, r0
   247a4:	8020      	strh	r0, [r4, #0]
   247a6:	9808      	ldr	r0, [sp, #32]
   247a8:	6e05      	ldr	r5, [r0, #96]	@ 0x60
   247aa:	3108      	adds	r1, #8
   247ac:	4812      	ldr	r0, [pc, #72]	@ (247f8 <_start+0x5bc>)
   247ae:	4468      	add	r0, sp
   247b0:	900b      	str	r0, [sp, #44]	@ 0x2c
   247b2:	2641      	movs	r6, #65	@ 0x41
   247b4:	4632      	mov	r2, r6
   247b6:	f002 fc12 	bl	26fde <__aeabi_memcpy4>
   247ba:	0e28      	lsrs	r0, r5, #24
   247bc:	71a0      	strb	r0, [r4, #6]
   247be:	0c28      	lsrs	r0, r5, #16
   247c0:	7160      	strb	r0, [r4, #5]
   247c2:	0a28      	lsrs	r0, r5, #8
   247c4:	7120      	strb	r0, [r4, #4]
   247c6:	70e5      	strb	r5, [r4, #3]
   247c8:	1de0      	adds	r0, r4, #7
   247ca:	990b      	ldr	r1, [sp, #44]	@ 0x2c
   247cc:	4632      	mov	r2, r6
   247ce:	f002 fd66 	bl	2729e <__aeabi_memcpy>
   247d2:	4d0a      	ldr	r5, [pc, #40]	@ (247fc <_start+0x5c0>)
   247d4:	446d      	add	r5, sp
   247d6:	4628      	mov	r0, r5
   247d8:	4621      	mov	r1, r4
   247da:	f7ff f95f 	bl	23a9c <_ZN20complex_full_dynamic3app17he6a8d72324380d7cE>
   247de:	7828      	ldrb	r0, [r5, #0]
   247e0:	2801      	cmp	r0, #1
   247e2:	d000      	beq.n	247e6 <_start+0x5aa>
   247e4:	e0f8      	b.n	249d8 <_start+0x79c>
   247e6:	9808      	ldr	r0, [sp, #32]
   247e8:	6e00      	ldr	r0, [r0, #96]	@ 0x60
   247ea:	900b      	str	r0, [sp, #44]	@ 0x2c
   247ec:	2001      	movs	r0, #1
   247ee:	990b      	ldr	r1, [sp, #44]	@ 0x2c
   247f0:	1ffe      	subs	r6, r7, #7
   247f2:	3e05      	subs	r6, #5
   247f4:	46b5      	mov	sp, r6
   247f6:	bdf0      	pop	{r4, r5, r6, r7, pc}
   247f8:	000013a8 	.word	0x000013a8
   247fc:	00001404 	.word	0x00001404
   24800:	000023cf 	.word	0x000023cf
   24804:	0000021f 	.word	0x0000021f
   24808:	00001597 	.word	0x00001597
   2480c:	00000667 	.word	0x00000667
   24810:	4889      	ldr	r0, [pc, #548]	@ (24a38 <_start+0x7fc>)
   24812:	4468      	add	r0, sp
   24814:	f002 fb82 	bl	26f1c <_ZN9allow_pin12full_dynamic17unshare_if_shared17h02646414dc25e2d7E>
   24818:	4d88      	ldr	r5, [pc, #544]	@ (24a3c <_start+0x800>)
   2481a:	446d      	add	r5, sp
   2481c:	4628      	mov	r0, r5
   2481e:	f002 fb7d 	bl	26f1c <_ZN9allow_pin12full_dynamic17unshare_if_shared17h02646414dc25e2d7E>
   24822:	4628      	mov	r0, r5
   24824:	f002 fb7a 	bl	26f1c <_ZN9allow_pin12full_dynamic17unshare_if_shared17h02646414dc25e2d7E>
   24828:	9a0b      	ldr	r2, [sp, #44]	@ 0x2c
   2482a:	7890      	ldrb	r0, [r2, #2]
   2482c:	a92f      	add	r1, sp, #188	@ 0xbc
   2482e:	7088      	strb	r0, [r1, #2]
   24830:	7810      	ldrb	r0, [r2, #0]
   24832:	7852      	ldrb	r2, [r2, #1]
   24834:	0212      	lsls	r2, r2, #8
   24836:	1810      	adds	r0, r2, r0
   24838:	8008      	strh	r0, [r1, #0]
   2483a:	7ca8      	ldrb	r0, [r5, #18]
   2483c:	900b      	str	r0, [sp, #44]	@ 0x2c
   2483e:	7c68      	ldrb	r0, [r5, #17]
   24840:	9007      	str	r0, [sp, #28]
   24842:	7be8      	ldrb	r0, [r5, #15]
   24844:	9003      	str	r0, [sp, #12]
   24846:	7c2c      	ldrb	r4, [r5, #16]
   24848:	3513      	adds	r5, #19
   2484a:	a81f      	add	r0, sp, #124	@ 0x7c
   2484c:	223f      	movs	r2, #63	@ 0x3f
   2484e:	4629      	mov	r1, r5
   24850:	f002 fd25 	bl	2729e <__aeabi_memcpy>
   24854:	0220      	lsls	r0, r4, #8
   24856:	9903      	ldr	r1, [sp, #12]
   24858:	1840      	adds	r0, r0, r1
   2485a:	9907      	ldr	r1, [sp, #28]
   2485c:	0409      	lsls	r1, r1, #16
   2485e:	9a0b      	ldr	r2, [sp, #44]	@ 0x2c
   24860:	0612      	lsls	r2, r2, #24
   24862:	1851      	adds	r1, r2, r1
   24864:	1808      	adds	r0, r1, r0
   24866:	900b      	str	r0, [sp, #44]	@ 0x2c
   24868:	e5e4      	b.n	24434 <_start+0x1f8>
   2486a:	4873      	ldr	r0, [pc, #460]	@ (24a38 <_start+0x7fc>)
   2486c:	4468      	add	r0, sp
   2486e:	f002 fb55 	bl	26f1c <_ZN9allow_pin12full_dynamic17unshare_if_shared17h02646414dc25e2d7E>
   24872:	4e72      	ldr	r6, [pc, #456]	@ (24a3c <_start+0x800>)
   24874:	446e      	add	r6, sp
   24876:	4630      	mov	r0, r6
   24878:	f002 fb50 	bl	26f1c <_ZN9allow_pin12full_dynamic17unshare_if_shared17h02646414dc25e2d7E>
   2487c:	4630      	mov	r0, r6
   2487e:	f002 fb4d 	bl	26f1c <_ZN9allow_pin12full_dynamic17unshare_if_shared17h02646414dc25e2d7E>
   24882:	78a0      	ldrb	r0, [r4, #2]
   24884:	a934      	add	r1, sp, #208	@ 0xd0
   24886:	7088      	strb	r0, [r1, #2]
   24888:	7820      	ldrb	r0, [r4, #0]
   2488a:	7862      	ldrb	r2, [r4, #1]
   2488c:	0212      	lsls	r2, r2, #8
   2488e:	1810      	adds	r0, r2, r0
   24890:	8008      	strh	r0, [r1, #0]
   24892:	7cb0      	ldrb	r0, [r6, #18]
   24894:	900b      	str	r0, [sp, #44]	@ 0x2c
   24896:	7c70      	ldrb	r0, [r6, #17]
   24898:	9002      	str	r0, [sp, #8]
   2489a:	7bf4      	ldrb	r4, [r6, #15]
   2489c:	7c35      	ldrb	r5, [r6, #16]
   2489e:	3613      	adds	r6, #19
   248a0:	a82f      	add	r0, sp, #188	@ 0xbc
   248a2:	2211      	movs	r2, #17
   248a4:	4631      	mov	r1, r6
   248a6:	f002 fcfa 	bl	2729e <__aeabi_memcpy>
   248aa:	0228      	lsls	r0, r5, #8
   248ac:	1900      	adds	r0, r0, r4
   248ae:	9902      	ldr	r1, [sp, #8]
   248b0:	0409      	lsls	r1, r1, #16
   248b2:	9a0b      	ldr	r2, [sp, #44]	@ 0x2c
   248b4:	0612      	lsls	r2, r2, #24
   248b6:	1851      	adds	r1, r2, r1
   248b8:	1808      	adds	r0, r1, r0
   248ba:	900b      	str	r0, [sp, #44]	@ 0x2c
   248bc:	9c03      	ldr	r4, [sp, #12]
   248be:	e61f      	b.n	24500 <_start+0x2c4>
   248c0:	a81f      	add	r0, sp, #124	@ 0x7c
   248c2:	f002 fb2b 	bl	26f1c <_ZN9allow_pin12full_dynamic17unshare_if_shared17h02646414dc25e2d7E>
   248c6:	4d5c      	ldr	r5, [pc, #368]	@ (24a38 <_start+0x7fc>)
   248c8:	446d      	add	r5, sp
   248ca:	4628      	mov	r0, r5
   248cc:	f002 fb26 	bl	26f1c <_ZN9allow_pin12full_dynamic17unshare_if_shared17h02646414dc25e2d7E>
   248d0:	4628      	mov	r0, r5
   248d2:	f002 fb23 	bl	26f1c <_ZN9allow_pin12full_dynamic17unshare_if_shared17h02646414dc25e2d7E>
   248d6:	9a0b      	ldr	r2, [sp, #44]	@ 0x2c
   248d8:	7890      	ldrb	r0, [r2, #2]
   248da:	a92f      	add	r1, sp, #188	@ 0xbc
   248dc:	7088      	strb	r0, [r1, #2]
   248de:	7810      	ldrb	r0, [r2, #0]
   248e0:	7852      	ldrb	r2, [r2, #1]
   248e2:	0212      	lsls	r2, r2, #8
   248e4:	1810      	adds	r0, r2, r0
   248e6:	8008      	strh	r0, [r1, #0]
   248e8:	7ca8      	ldrb	r0, [r5, #18]
   248ea:	900b      	str	r0, [sp, #44]	@ 0x2c
   248ec:	7c68      	ldrb	r0, [r5, #17]
   248ee:	9002      	str	r0, [sp, #8]
   248f0:	7be8      	ldrb	r0, [r5, #15]
   248f2:	9001      	str	r0, [sp, #4]
   248f4:	7c2e      	ldrb	r6, [r5, #16]
   248f6:	3513      	adds	r5, #19
   248f8:	a80c      	add	r0, sp, #48	@ 0x30
   248fa:	222f      	movs	r2, #47	@ 0x2f
   248fc:	4629      	mov	r1, r5
   248fe:	f002 fcce 	bl	2729e <__aeabi_memcpy>
   24902:	0230      	lsls	r0, r6, #8
   24904:	9901      	ldr	r1, [sp, #4]
   24906:	1840      	adds	r0, r0, r1
   24908:	9902      	ldr	r1, [sp, #8]
   2490a:	0409      	lsls	r1, r1, #16
   2490c:	9a0b      	ldr	r2, [sp, #44]	@ 0x2c
   2490e:	0612      	lsls	r2, r2, #24
   24910:	1851      	adds	r1, r2, r1
   24912:	1808      	adds	r0, r1, r0
   24914:	900b      	str	r0, [sp, #44]	@ 0x2c
   24916:	e650      	b.n	245ba <_start+0x37e>
   24918:	4847      	ldr	r0, [pc, #284]	@ (24a38 <_start+0x7fc>)
   2491a:	4468      	add	r0, sp
   2491c:	f002 fafe 	bl	26f1c <_ZN9allow_pin12full_dynamic17unshare_if_shared17h02646414dc25e2d7E>
   24920:	4d46      	ldr	r5, [pc, #280]	@ (24a3c <_start+0x800>)
   24922:	446d      	add	r5, sp
   24924:	4628      	mov	r0, r5
   24926:	f002 faf9 	bl	26f1c <_ZN9allow_pin12full_dynamic17unshare_if_shared17h02646414dc25e2d7E>
   2492a:	4628      	mov	r0, r5
   2492c:	f002 faf6 	bl	26f1c <_ZN9allow_pin12full_dynamic17unshare_if_shared17h02646414dc25e2d7E>
   24930:	78a0      	ldrb	r0, [r4, #2]
   24932:	a92f      	add	r1, sp, #188	@ 0xbc
   24934:	7088      	strb	r0, [r1, #2]
   24936:	7820      	ldrb	r0, [r4, #0]
   24938:	7862      	ldrb	r2, [r4, #1]
   2493a:	0212      	lsls	r2, r2, #8
   2493c:	1810      	adds	r0, r2, r0
   2493e:	8008      	strh	r0, [r1, #0]
   24940:	7ca8      	ldrb	r0, [r5, #18]
   24942:	900b      	str	r0, [sp, #44]	@ 0x2c
   24944:	7c68      	ldrb	r0, [r5, #17]
   24946:	9002      	str	r0, [sp, #8]
   24948:	7be8      	ldrb	r0, [r5, #15]
   2494a:	9001      	str	r0, [sp, #4]
   2494c:	7c2c      	ldrb	r4, [r5, #16]
   2494e:	3513      	adds	r5, #19
   24950:	a81f      	add	r0, sp, #124	@ 0x7c
   24952:	221e      	movs	r2, #30
   24954:	4629      	mov	r1, r5
   24956:	f002 fca2 	bl	2729e <__aeabi_memcpy>
   2495a:	0220      	lsls	r0, r4, #8
   2495c:	9901      	ldr	r1, [sp, #4]
   2495e:	1840      	adds	r0, r0, r1
   24960:	9902      	ldr	r1, [sp, #8]
   24962:	0409      	lsls	r1, r1, #16
   24964:	9a0b      	ldr	r2, [sp, #44]	@ 0x2c
   24966:	0612      	lsls	r2, r2, #24
   24968:	1851      	adds	r1, r2, r1
   2496a:	1808      	adds	r0, r1, r0
   2496c:	900b      	str	r0, [sp, #44]	@ 0x2c
   2496e:	e685      	b.n	2467c <_start+0x440>
   24970:	4831      	ldr	r0, [pc, #196]	@ (24a38 <_start+0x7fc>)
   24972:	4468      	add	r0, sp
   24974:	f002 fad2 	bl	26f1c <_ZN9allow_pin12full_dynamic17unshare_if_shared17h02646414dc25e2d7E>
   24978:	4e30      	ldr	r6, [pc, #192]	@ (24a3c <_start+0x800>)
   2497a:	446e      	add	r6, sp
   2497c:	4630      	mov	r0, r6
   2497e:	f002 facd 	bl	26f1c <_ZN9allow_pin12full_dynamic17unshare_if_shared17h02646414dc25e2d7E>
   24982:	4630      	mov	r0, r6
   24984:	f002 faca 	bl	26f1c <_ZN9allow_pin12full_dynamic17unshare_if_shared17h02646414dc25e2d7E>
   24988:	78a0      	ldrb	r0, [r4, #2]
   2498a:	a92f      	add	r1, sp, #188	@ 0xbc
   2498c:	7088      	strb	r0, [r1, #2]
   2498e:	7e70      	ldrb	r0, [r6, #25]
   24990:	aa1f      	add	r2, sp, #124	@ 0x7c
   24992:	7190      	strb	r0, [r2, #6]
   24994:	7820      	ldrb	r0, [r4, #0]
   24996:	7863      	ldrb	r3, [r4, #1]
   24998:	021b      	lsls	r3, r3, #8
   2499a:	1818      	adds	r0, r3, r0
   2499c:	8008      	strh	r0, [r1, #0]
   2499e:	7df0      	ldrb	r0, [r6, #23]
   249a0:	9908      	ldr	r1, [sp, #32]
   249a2:	6989      	ldr	r1, [r1, #24]
   249a4:	0209      	lsls	r1, r1, #8
   249a6:	1808      	adds	r0, r1, r0
   249a8:	8090      	strh	r0, [r2, #4]
   249aa:	7cf0      	ldrb	r0, [r6, #19]
   249ac:	7d31      	ldrb	r1, [r6, #20]
   249ae:	0209      	lsls	r1, r1, #8
   249b0:	1808      	adds	r0, r1, r0
   249b2:	7d71      	ldrb	r1, [r6, #21]
   249b4:	0409      	lsls	r1, r1, #16
   249b6:	7db2      	ldrb	r2, [r6, #22]
   249b8:	0612      	lsls	r2, r2, #24
   249ba:	1851      	adds	r1, r2, r1
   249bc:	1808      	adds	r0, r1, r0
   249be:	901f      	str	r0, [sp, #124]	@ 0x7c
   249c0:	7bf0      	ldrb	r0, [r6, #15]
   249c2:	7c31      	ldrb	r1, [r6, #16]
   249c4:	0209      	lsls	r1, r1, #8
   249c6:	1808      	adds	r0, r1, r0
   249c8:	7c71      	ldrb	r1, [r6, #17]
   249ca:	0409      	lsls	r1, r1, #16
   249cc:	7cb2      	ldrb	r2, [r6, #18]
   249ce:	0612      	lsls	r2, r2, #24
   249d0:	1851      	adds	r1, r2, r1
   249d2:	1808      	adds	r0, r1, r0
   249d4:	900b      	str	r0, [sp, #44]	@ 0x2c
   249d6:	e6af      	b.n	24738 <_start+0x4fc>
   249d8:	9806      	ldr	r0, [sp, #24]
   249da:	1cc0      	adds	r0, r0, #3
   249dc:	4a16      	ldr	r2, [pc, #88]	@ (24a38 <_start+0x7fc>)
   249de:	446a      	add	r2, sp
   249e0:	78d3      	ldrb	r3, [r2, #3]
   249e2:	a94b      	add	r1, sp, #300	@ 0x12c
   249e4:	708b      	strb	r3, [r1, #2]
   249e6:	7853      	ldrb	r3, [r2, #1]
   249e8:	7892      	ldrb	r2, [r2, #2]
   249ea:	0212      	lsls	r2, r2, #8
   249ec:	18d2      	adds	r2, r2, r3
   249ee:	800a      	strh	r2, [r1, #0]
   249f0:	9e08      	ldr	r6, [sp, #32]
   249f2:	4634      	mov	r4, r6
   249f4:	3460      	adds	r4, #96	@ 0x60
   249f6:	cc1c      	ldmia	r4, {r2, r3, r4}
   249f8:	0e25      	lsrs	r5, r4, #24
   249fa:	72c5      	strb	r5, [r0, #11]
   249fc:	0c25      	lsrs	r5, r4, #16
   249fe:	7285      	strb	r5, [r0, #10]
   24a00:	0a25      	lsrs	r5, r4, #8
   24a02:	7245      	strb	r5, [r0, #9]
   24a04:	7204      	strb	r4, [r0, #8]
   24a06:	0e1c      	lsrs	r4, r3, #24
   24a08:	71c4      	strb	r4, [r0, #7]
   24a0a:	0c1c      	lsrs	r4, r3, #16
   24a0c:	7184      	strb	r4, [r0, #6]
   24a0e:	0a1c      	lsrs	r4, r3, #8
   24a10:	7144      	strb	r4, [r0, #5]
   24a12:	7103      	strb	r3, [r0, #4]
   24a14:	0e13      	lsrs	r3, r2, #24
   24a16:	70c3      	strb	r3, [r0, #3]
   24a18:	0c13      	lsrs	r3, r2, #16
   24a1a:	7083      	strb	r3, [r0, #2]
   24a1c:	0a13      	lsrs	r3, r2, #8
   24a1e:	7043      	strb	r3, [r0, #1]
   24a20:	7002      	strb	r2, [r0, #0]
   24a22:	4c05      	ldr	r4, [pc, #20]	@ (24a38 <_start+0x7fc>)
   24a24:	446c      	add	r4, sp
   24a26:	4620      	mov	r0, r4
   24a28:	f7fd fbb4 	bl	22194 <_ZN20complex_full_dynamic3app17h7c30cd70c0daeef3E>
   24a2c:	7820      	ldrb	r0, [r4, #0]
   24a2e:	2801      	cmp	r0, #1
   24a30:	d106      	bne.n	24a40 <_start+0x804>
   24a32:	6e30      	ldr	r0, [r6, #96]	@ 0x60
   24a34:	e6d9      	b.n	247ea <_start+0x5ae>
   24a36:	46c0      	nop			@ (mov r8, r8)
   24a38:	00001404 	.word	0x00001404
   24a3c:	000013a8 	.word	0x000013a8
   24a40:	4816      	ldr	r0, [pc, #88]	@ (24a9c <_start+0x860>)
   24a42:	4468      	add	r0, sp
   24a44:	78c1      	ldrb	r1, [r0, #3]
   24a46:	ac4f      	add	r4, sp, #316	@ 0x13c
   24a48:	70a1      	strb	r1, [r4, #2]
   24a4a:	7841      	ldrb	r1, [r0, #1]
   24a4c:	7882      	ldrb	r2, [r0, #2]
   24a4e:	0212      	lsls	r2, r2, #8
   24a50:	1851      	adds	r1, r2, r1
   24a52:	8021      	strh	r1, [r4, #0]
   24a54:	3008      	adds	r0, #8
   24a56:	6e31      	ldr	r1, [r6, #96]	@ 0x60
   24a58:	910a      	str	r1, [sp, #40]	@ 0x28
   24a5a:	4b11      	ldr	r3, [pc, #68]	@ (24aa0 <_start+0x864>)
   24a5c:	446b      	add	r3, sp
   24a5e:	930b      	str	r3, [sp, #44]	@ 0x2c
   24a60:	c864      	ldmia	r0!, {r2, r5, r6}
   24a62:	c364      	stmia	r3!, {r2, r5, r6}
   24a64:	c866      	ldmia	r0!, {r1, r2, r5, r6}
   24a66:	c366      	stmia	r3!, {r1, r2, r5, r6}
   24a68:	8800      	ldrh	r0, [r0, #0]
   24a6a:	8018      	strh	r0, [r3, #0]
   24a6c:	990a      	ldr	r1, [sp, #40]	@ 0x28
   24a6e:	0e08      	lsrs	r0, r1, #24
   24a70:	71a0      	strb	r0, [r4, #6]
   24a72:	0c08      	lsrs	r0, r1, #16
   24a74:	7160      	strb	r0, [r4, #5]
   24a76:	0a08      	lsrs	r0, r1, #8
   24a78:	7120      	strb	r0, [r4, #4]
   24a7a:	70e1      	strb	r1, [r4, #3]
   24a7c:	1de0      	adds	r0, r4, #7
   24a7e:	221e      	movs	r2, #30
   24a80:	990b      	ldr	r1, [sp, #44]	@ 0x2c
   24a82:	f002 fc0c 	bl	2729e <__aeabi_memcpy>
   24a86:	4d05      	ldr	r5, [pc, #20]	@ (24a9c <_start+0x860>)
   24a88:	446d      	add	r5, sp
   24a8a:	4628      	mov	r0, r5
   24a8c:	4621      	mov	r1, r4
   24a8e:	f7fe f8b1 	bl	22bf4 <_ZN20complex_full_dynamic3app17hbabd3dd90ca69cacE>
   24a92:	7828      	ldrb	r0, [r5, #0]
   24a94:	2801      	cmp	r0, #1
   24a96:	d105      	bne.n	24aa4 <_start+0x868>
   24a98:	e6a5      	b.n	247e6 <_start+0x5aa>
   24a9a:	46c0      	nop			@ (mov r8, r8)
   24a9c:	00001404 	.word	0x00001404
   24aa0:	000013a8 	.word	0x000013a8
   24aa4:	4817      	ldr	r0, [pc, #92]	@ (24b04 <_start+0x8c8>)
   24aa6:	4468      	add	r0, sp
   24aa8:	78c1      	ldrb	r1, [r0, #3]
   24aaa:	ac59      	add	r4, sp, #356	@ 0x164
   24aac:	70a1      	strb	r1, [r4, #2]
   24aae:	7841      	ldrb	r1, [r0, #1]
   24ab0:	7882      	ldrb	r2, [r0, #2]
   24ab2:	0212      	lsls	r2, r2, #8
   24ab4:	1851      	adds	r1, r2, r1
   24ab6:	8021      	strh	r1, [r4, #0]
   24ab8:	3008      	adds	r0, #8
   24aba:	9908      	ldr	r1, [sp, #32]
   24abc:	6e09      	ldr	r1, [r1, #96]	@ 0x60
   24abe:	910a      	str	r1, [sp, #40]	@ 0x28
   24ac0:	4b11      	ldr	r3, [pc, #68]	@ (24b08 <_start+0x8cc>)
   24ac2:	446b      	add	r3, sp
   24ac4:	930b      	str	r3, [sp, #44]	@ 0x2c
   24ac6:	c866      	ldmia	r0!, {r1, r2, r5, r6}
   24ac8:	c366      	stmia	r3!, {r1, r2, r5, r6}
   24aca:	c866      	ldmia	r0!, {r1, r2, r5, r6}
   24acc:	c366      	stmia	r3!, {r1, r2, r5, r6}
   24ace:	8801      	ldrh	r1, [r0, #0]
   24ad0:	8019      	strh	r1, [r3, #0]
   24ad2:	7880      	ldrb	r0, [r0, #2]
   24ad4:	7098      	strb	r0, [r3, #2]
   24ad6:	990a      	ldr	r1, [sp, #40]	@ 0x28
   24ad8:	0e08      	lsrs	r0, r1, #24
   24ada:	71a0      	strb	r0, [r4, #6]
   24adc:	0c08      	lsrs	r0, r1, #16
   24ade:	7160      	strb	r0, [r4, #5]
   24ae0:	0a08      	lsrs	r0, r1, #8
   24ae2:	7120      	strb	r0, [r4, #4]
   24ae4:	70e1      	strb	r1, [r4, #3]
   24ae6:	1de0      	adds	r0, r4, #7
   24ae8:	2223      	movs	r2, #35	@ 0x23
   24aea:	990b      	ldr	r1, [sp, #44]	@ 0x2c
   24aec:	f002 fbd7 	bl	2729e <__aeabi_memcpy>
   24af0:	4d04      	ldr	r5, [pc, #16]	@ (24b04 <_start+0x8c8>)
   24af2:	446d      	add	r5, sp
   24af4:	4628      	mov	r0, r5
   24af6:	4621      	mov	r1, r4
   24af8:	f7fe fe6c 	bl	237d4 <_ZN20complex_full_dynamic3app17hdd6a905608826a7aE>
   24afc:	7828      	ldrb	r0, [r5, #0]
   24afe:	2801      	cmp	r0, #1
   24b00:	d104      	bne.n	24b0c <_start+0x8d0>
   24b02:	e670      	b.n	247e6 <_start+0x5aa>
   24b04:	00001404 	.word	0x00001404
   24b08:	000013a8 	.word	0x000013a8
   24b0c:	4914      	ldr	r1, [pc, #80]	@ (24b60 <_start+0x924>)
   24b0e:	4469      	add	r1, sp
   24b10:	78c8      	ldrb	r0, [r1, #3]
   24b12:	ac64      	add	r4, sp, #400	@ 0x190
   24b14:	70a0      	strb	r0, [r4, #2]
   24b16:	7848      	ldrb	r0, [r1, #1]
   24b18:	788a      	ldrb	r2, [r1, #2]
   24b1a:	0212      	lsls	r2, r2, #8
   24b1c:	1810      	adds	r0, r2, r0
   24b1e:	8020      	strh	r0, [r4, #0]
   24b20:	9808      	ldr	r0, [sp, #32]
   24b22:	6e05      	ldr	r5, [r0, #96]	@ 0x60
   24b24:	3108      	adds	r1, #8
   24b26:	480f      	ldr	r0, [pc, #60]	@ (24b64 <_start+0x928>)
   24b28:	4468      	add	r0, sp
   24b2a:	900b      	str	r0, [sp, #44]	@ 0x2c
   24b2c:	265c      	movs	r6, #92	@ 0x5c
   24b2e:	4632      	mov	r2, r6
   24b30:	f002 fa55 	bl	26fde <__aeabi_memcpy4>
   24b34:	0e28      	lsrs	r0, r5, #24
   24b36:	71a0      	strb	r0, [r4, #6]
   24b38:	0c28      	lsrs	r0, r5, #16
   24b3a:	7160      	strb	r0, [r4, #5]
   24b3c:	0a28      	lsrs	r0, r5, #8
   24b3e:	7120      	strb	r0, [r4, #4]
   24b40:	70e5      	strb	r5, [r4, #3]
   24b42:	1de0      	adds	r0, r4, #7
   24b44:	990b      	ldr	r1, [sp, #44]	@ 0x2c
   24b46:	4632      	mov	r2, r6
   24b48:	f002 fba9 	bl	2729e <__aeabi_memcpy>
   24b4c:	4d04      	ldr	r5, [pc, #16]	@ (24b60 <_start+0x924>)
   24b4e:	446d      	add	r5, sp
   24b50:	4628      	mov	r0, r5
   24b52:	4621      	mov	r1, r4
   24b54:	f7fb fb7a 	bl	2024c <_ZN20complex_full_dynamic3app17h03a6a14055c96bc7E>
   24b58:	7828      	ldrb	r0, [r5, #0]
   24b5a:	2801      	cmp	r0, #1
   24b5c:	d104      	bne.n	24b68 <_start+0x92c>
   24b5e:	e642      	b.n	247e6 <_start+0x5aa>
   24b60:	00001404 	.word	0x00001404
   24b64:	000013a8 	.word	0x000013a8
   24b68:	4815      	ldr	r0, [pc, #84]	@ (24bc0 <_start+0x984>)
   24b6a:	4468      	add	r0, sp
   24b6c:	78c1      	ldrb	r1, [r0, #3]
   24b6e:	ac7d      	add	r4, sp, #500	@ 0x1f4
   24b70:	70a1      	strb	r1, [r4, #2]
   24b72:	7841      	ldrb	r1, [r0, #1]
   24b74:	7882      	ldrb	r2, [r0, #2]
   24b76:	0212      	lsls	r2, r2, #8
   24b78:	1851      	adds	r1, r2, r1
   24b7a:	8021      	strh	r1, [r4, #0]
   24b7c:	3008      	adds	r0, #8
   24b7e:	9908      	ldr	r1, [sp, #32]
   24b80:	6e09      	ldr	r1, [r1, #96]	@ 0x60
   24b82:	910a      	str	r1, [sp, #40]	@ 0x28
   24b84:	4b0f      	ldr	r3, [pc, #60]	@ (24bc4 <_start+0x988>)
   24b86:	446b      	add	r3, sp
   24b88:	930b      	str	r3, [sp, #44]	@ 0x2c
   24b8a:	c866      	ldmia	r0!, {r1, r2, r5, r6}
   24b8c:	c366      	stmia	r3!, {r1, r2, r5, r6}
   24b8e:	c866      	ldmia	r0!, {r1, r2, r5, r6}
   24b90:	c366      	stmia	r3!, {r1, r2, r5, r6}
   24b92:	990a      	ldr	r1, [sp, #40]	@ 0x28
   24b94:	0e08      	lsrs	r0, r1, #24
   24b96:	71a0      	strb	r0, [r4, #6]
   24b98:	0c08      	lsrs	r0, r1, #16
   24b9a:	7160      	strb	r0, [r4, #5]
   24b9c:	0a08      	lsrs	r0, r1, #8
   24b9e:	7120      	strb	r0, [r4, #4]
   24ba0:	70e1      	strb	r1, [r4, #3]
   24ba2:	1de0      	adds	r0, r4, #7
   24ba4:	2220      	movs	r2, #32
   24ba6:	990b      	ldr	r1, [sp, #44]	@ 0x2c
   24ba8:	f002 fb79 	bl	2729e <__aeabi_memcpy>
   24bac:	4d04      	ldr	r5, [pc, #16]	@ (24bc0 <_start+0x984>)
   24bae:	446d      	add	r5, sp
   24bb0:	4628      	mov	r0, r5
   24bb2:	4621      	mov	r1, r4
   24bb4:	f7fd fca8 	bl	22508 <_ZN20complex_full_dynamic3app17h954965d4ac8fb172E>
   24bb8:	7828      	ldrb	r0, [r5, #0]
   24bba:	2801      	cmp	r0, #1
   24bbc:	d104      	bne.n	24bc8 <_start+0x98c>
   24bbe:	e612      	b.n	247e6 <_start+0x5aa>
   24bc0:	00001404 	.word	0x00001404
   24bc4:	000013a8 	.word	0x000013a8
   24bc8:	4816      	ldr	r0, [pc, #88]	@ (24c24 <_start+0x9e8>)
   24bca:	4468      	add	r0, sp
   24bcc:	78c1      	ldrb	r1, [r0, #3]
   24bce:	ac87      	add	r4, sp, #540	@ 0x21c
   24bd0:	70a1      	strb	r1, [r4, #2]
   24bd2:	7841      	ldrb	r1, [r0, #1]
   24bd4:	7882      	ldrb	r2, [r0, #2]
   24bd6:	0212      	lsls	r2, r2, #8
   24bd8:	1851      	adds	r1, r2, r1
   24bda:	8021      	strh	r1, [r4, #0]
   24bdc:	3008      	adds	r0, #8
   24bde:	9908      	ldr	r1, [sp, #32]
   24be0:	6e09      	ldr	r1, [r1, #96]	@ 0x60
   24be2:	4b11      	ldr	r3, [pc, #68]	@ (24c28 <_start+0x9ec>)
   24be4:	446b      	add	r3, sp
   24be6:	930b      	str	r3, [sp, #44]	@ 0x2c
   24be8:	c860      	ldmia	r0!, {r5, r6}
   24bea:	c360      	stmia	r3!, {r5, r6}
   24bec:	c864      	ldmia	r0!, {r2, r5, r6}
   24bee:	c364      	stmia	r3!, {r2, r5, r6}
   24bf0:	8802      	ldrh	r2, [r0, #0]
   24bf2:	801a      	strh	r2, [r3, #0]
   24bf4:	7880      	ldrb	r0, [r0, #2]
   24bf6:	7098      	strb	r0, [r3, #2]
   24bf8:	0e08      	lsrs	r0, r1, #24
   24bfa:	71a0      	strb	r0, [r4, #6]
   24bfc:	0c08      	lsrs	r0, r1, #16
   24bfe:	7160      	strb	r0, [r4, #5]
   24c00:	0a08      	lsrs	r0, r1, #8
   24c02:	7120      	strb	r0, [r4, #4]
   24c04:	70e1      	strb	r1, [r4, #3]
   24c06:	1de0      	adds	r0, r4, #7
   24c08:	2217      	movs	r2, #23
   24c0a:	990b      	ldr	r1, [sp, #44]	@ 0x2c
   24c0c:	f002 fb47 	bl	2729e <__aeabi_memcpy>
   24c10:	4d04      	ldr	r5, [pc, #16]	@ (24c24 <_start+0x9e8>)
   24c12:	446d      	add	r5, sp
   24c14:	4628      	mov	r0, r5
   24c16:	4621      	mov	r1, r4
   24c18:	f7fe fa00 	bl	2301c <_ZN20complex_full_dynamic3app17hca660cdd6a8f6cccE>
   24c1c:	7828      	ldrb	r0, [r5, #0]
   24c1e:	2801      	cmp	r0, #1
   24c20:	d104      	bne.n	24c2c <_start+0x9f0>
   24c22:	e5e0      	b.n	247e6 <_start+0x5aa>
   24c24:	00001404 	.word	0x00001404
   24c28:	000013a8 	.word	0x000013a8
   24c2c:	4816      	ldr	r0, [pc, #88]	@ (24c88 <_start+0xa4c>)
   24c2e:	4468      	add	r0, sp
   24c30:	78c1      	ldrb	r1, [r0, #3]
   24c32:	ac8f      	add	r4, sp, #572	@ 0x23c
   24c34:	70a1      	strb	r1, [r4, #2]
   24c36:	7841      	ldrb	r1, [r0, #1]
   24c38:	7882      	ldrb	r2, [r0, #2]
   24c3a:	0212      	lsls	r2, r2, #8
   24c3c:	1851      	adds	r1, r2, r1
   24c3e:	8021      	strh	r1, [r4, #0]
   24c40:	3008      	adds	r0, #8
   24c42:	9908      	ldr	r1, [sp, #32]
   24c44:	6e09      	ldr	r1, [r1, #96]	@ 0x60
   24c46:	4b11      	ldr	r3, [pc, #68]	@ (24c8c <_start+0xa50>)
   24c48:	446b      	add	r3, sp
   24c4a:	930b      	str	r3, [sp, #44]	@ 0x2c
   24c4c:	c864      	ldmia	r0!, {r2, r5, r6}
   24c4e:	c364      	stmia	r3!, {r2, r5, r6}
   24c50:	c864      	ldmia	r0!, {r2, r5, r6}
   24c52:	c364      	stmia	r3!, {r2, r5, r6}
   24c54:	c864      	ldmia	r0!, {r2, r5, r6}
   24c56:	c364      	stmia	r3!, {r2, r5, r6}
   24c58:	7800      	ldrb	r0, [r0, #0]
   24c5a:	7018      	strb	r0, [r3, #0]
   24c5c:	0e08      	lsrs	r0, r1, #24
   24c5e:	71a0      	strb	r0, [r4, #6]
   24c60:	0c08      	lsrs	r0, r1, #16
   24c62:	7160      	strb	r0, [r4, #5]
   24c64:	0a08      	lsrs	r0, r1, #8
   24c66:	7120      	strb	r0, [r4, #4]
   24c68:	70e1      	strb	r1, [r4, #3]
   24c6a:	1de0      	adds	r0, r4, #7
   24c6c:	2225      	movs	r2, #37	@ 0x25
   24c6e:	990b      	ldr	r1, [sp, #44]	@ 0x2c
   24c70:	f002 fb15 	bl	2729e <__aeabi_memcpy>
   24c74:	4d04      	ldr	r5, [pc, #16]	@ (24c88 <_start+0xa4c>)
   24c76:	446d      	add	r5, sp
   24c78:	4628      	mov	r0, r5
   24c7a:	4621      	mov	r1, r4
   24c7c:	f7ff f97c 	bl	23f78 <_ZN20complex_full_dynamic3app17hfbcf371aeaabeb53E>
   24c80:	7828      	ldrb	r0, [r5, #0]
   24c82:	2801      	cmp	r0, #1
   24c84:	d104      	bne.n	24c90 <_start+0xa54>
   24c86:	e5ae      	b.n	247e6 <_start+0x5aa>
   24c88:	00001404 	.word	0x00001404
   24c8c:	000013a8 	.word	0x000013a8
   24c90:	4816      	ldr	r0, [pc, #88]	@ (24cec <_start+0xab0>)
   24c92:	4468      	add	r0, sp
   24c94:	78c1      	ldrb	r1, [r0, #3]
   24c96:	ac9a      	add	r4, sp, #616	@ 0x268
   24c98:	70a1      	strb	r1, [r4, #2]
   24c9a:	7841      	ldrb	r1, [r0, #1]
   24c9c:	7882      	ldrb	r2, [r0, #2]
   24c9e:	0212      	lsls	r2, r2, #8
   24ca0:	1851      	adds	r1, r2, r1
   24ca2:	8021      	strh	r1, [r4, #0]
   24ca4:	3008      	adds	r0, #8
   24ca6:	9908      	ldr	r1, [sp, #32]
   24ca8:	6e09      	ldr	r1, [r1, #96]	@ 0x60
   24caa:	910a      	str	r1, [sp, #40]	@ 0x28
   24cac:	4b10      	ldr	r3, [pc, #64]	@ (24cf0 <_start+0xab4>)
   24cae:	446b      	add	r3, sp
   24cb0:	930b      	str	r3, [sp, #44]	@ 0x2c
   24cb2:	c864      	ldmia	r0!, {r2, r5, r6}
   24cb4:	c364      	stmia	r3!, {r2, r5, r6}
   24cb6:	c866      	ldmia	r0!, {r1, r2, r5, r6}
   24cb8:	c366      	stmia	r3!, {r1, r2, r5, r6}
   24cba:	8800      	ldrh	r0, [r0, #0]
   24cbc:	8018      	strh	r0, [r3, #0]
   24cbe:	990a      	ldr	r1, [sp, #40]	@ 0x28
   24cc0:	0e08      	lsrs	r0, r1, #24
   24cc2:	71a0      	strb	r0, [r4, #6]
   24cc4:	0c08      	lsrs	r0, r1, #16
   24cc6:	7160      	strb	r0, [r4, #5]
   24cc8:	0a08      	lsrs	r0, r1, #8
   24cca:	7120      	strb	r0, [r4, #4]
   24ccc:	70e1      	strb	r1, [r4, #3]
   24cce:	1de0      	adds	r0, r4, #7
   24cd0:	221e      	movs	r2, #30
   24cd2:	990b      	ldr	r1, [sp, #44]	@ 0x2c
   24cd4:	f002 fae3 	bl	2729e <__aeabi_memcpy>
   24cd8:	4d04      	ldr	r5, [pc, #16]	@ (24cec <_start+0xab0>)
   24cda:	446d      	add	r5, sp
   24cdc:	4628      	mov	r0, r5
   24cde:	4621      	mov	r1, r4
   24ce0:	f7fb fdd4 	bl	2088c <_ZN20complex_full_dynamic3app17h237616b853902cf8E>
   24ce4:	7828      	ldrb	r0, [r5, #0]
   24ce6:	2801      	cmp	r0, #1
   24ce8:	d104      	bne.n	24cf4 <_start+0xab8>
   24cea:	e57c      	b.n	247e6 <_start+0x5aa>
   24cec:	00001404 	.word	0x00001404
   24cf0:	000013a8 	.word	0x000013a8
   24cf4:	4815      	ldr	r0, [pc, #84]	@ (24d4c <_start+0xb10>)
   24cf6:	4468      	add	r0, sp
   24cf8:	78c1      	ldrb	r1, [r0, #3]
   24cfa:	aca4      	add	r4, sp, #656	@ 0x290
   24cfc:	70a1      	strb	r1, [r4, #2]
   24cfe:	7841      	ldrb	r1, [r0, #1]
   24d00:	7882      	ldrb	r2, [r0, #2]
   24d02:	0212      	lsls	r2, r2, #8
   24d04:	1851      	adds	r1, r2, r1
   24d06:	8021      	strh	r1, [r4, #0]
   24d08:	3008      	adds	r0, #8
   24d0a:	9908      	ldr	r1, [sp, #32]
   24d0c:	6e09      	ldr	r1, [r1, #96]	@ 0x60
   24d0e:	910a      	str	r1, [sp, #40]	@ 0x28
   24d10:	4b0f      	ldr	r3, [pc, #60]	@ (24d50 <_start+0xb14>)
   24d12:	446b      	add	r3, sp
   24d14:	930b      	str	r3, [sp, #44]	@ 0x2c
   24d16:	c866      	ldmia	r0!, {r1, r2, r5, r6}
   24d18:	c366      	stmia	r3!, {r1, r2, r5, r6}
   24d1a:	7800      	ldrb	r0, [r0, #0]
   24d1c:	7018      	strb	r0, [r3, #0]
   24d1e:	990a      	ldr	r1, [sp, #40]	@ 0x28
   24d20:	0e08      	lsrs	r0, r1, #24
   24d22:	71a0      	strb	r0, [r4, #6]
   24d24:	0c08      	lsrs	r0, r1, #16
   24d26:	7160      	strb	r0, [r4, #5]
   24d28:	0a08      	lsrs	r0, r1, #8
   24d2a:	7120      	strb	r0, [r4, #4]
   24d2c:	70e1      	strb	r1, [r4, #3]
   24d2e:	1de0      	adds	r0, r4, #7
   24d30:	2211      	movs	r2, #17
   24d32:	990b      	ldr	r1, [sp, #44]	@ 0x2c
   24d34:	f002 fab3 	bl	2729e <__aeabi_memcpy>
   24d38:	4d04      	ldr	r5, [pc, #16]	@ (24d4c <_start+0xb10>)
   24d3a:	446d      	add	r5, sp
   24d3c:	4628      	mov	r0, r5
   24d3e:	4621      	mov	r1, r4
   24d40:	f7fe ff5e 	bl	23c00 <_ZN20complex_full_dynamic3app17hee0c95ec8ff0690cE>
   24d44:	7828      	ldrb	r0, [r5, #0]
   24d46:	2801      	cmp	r0, #1
   24d48:	d104      	bne.n	24d54 <_start+0xb18>
   24d4a:	e54c      	b.n	247e6 <_start+0x5aa>
   24d4c:	00001404 	.word	0x00001404
   24d50:	000013a8 	.word	0x000013a8
   24d54:	4818      	ldr	r0, [pc, #96]	@ (24db8 <_start+0xb7c>)
   24d56:	4468      	add	r0, sp
   24d58:	78c1      	ldrb	r1, [r0, #3]
   24d5a:	acaa      	add	r4, sp, #680	@ 0x2a8
   24d5c:	70a1      	strb	r1, [r4, #2]
   24d5e:	7841      	ldrb	r1, [r0, #1]
   24d60:	7882      	ldrb	r2, [r0, #2]
   24d62:	0212      	lsls	r2, r2, #8
   24d64:	1851      	adds	r1, r2, r1
   24d66:	8021      	strh	r1, [r4, #0]
   24d68:	3008      	adds	r0, #8
   24d6a:	9908      	ldr	r1, [sp, #32]
   24d6c:	6e09      	ldr	r1, [r1, #96]	@ 0x60
   24d6e:	910a      	str	r1, [sp, #40]	@ 0x28
   24d70:	4b12      	ldr	r3, [pc, #72]	@ (24dbc <_start+0xb80>)
   24d72:	446b      	add	r3, sp
   24d74:	930b      	str	r3, [sp, #44]	@ 0x2c
   24d76:	c864      	ldmia	r0!, {r2, r5, r6}
   24d78:	c364      	stmia	r3!, {r2, r5, r6}
   24d7a:	c866      	ldmia	r0!, {r1, r2, r5, r6}
   24d7c:	c366      	stmia	r3!, {r1, r2, r5, r6}
   24d7e:	c866      	ldmia	r0!, {r1, r2, r5, r6}
   24d80:	c366      	stmia	r3!, {r1, r2, r5, r6}
   24d82:	8801      	ldrh	r1, [r0, #0]
   24d84:	8019      	strh	r1, [r3, #0]
   24d86:	7880      	ldrb	r0, [r0, #2]
   24d88:	7098      	strb	r0, [r3, #2]
   24d8a:	990a      	ldr	r1, [sp, #40]	@ 0x28
   24d8c:	0e08      	lsrs	r0, r1, #24
   24d8e:	71a0      	strb	r0, [r4, #6]
   24d90:	0c08      	lsrs	r0, r1, #16
   24d92:	7160      	strb	r0, [r4, #5]
   24d94:	0a08      	lsrs	r0, r1, #8
   24d96:	7120      	strb	r0, [r4, #4]
   24d98:	70e1      	strb	r1, [r4, #3]
   24d9a:	1de0      	adds	r0, r4, #7
   24d9c:	222f      	movs	r2, #47	@ 0x2f
   24d9e:	990b      	ldr	r1, [sp, #44]	@ 0x2c
   24da0:	f002 fa7d 	bl	2729e <__aeabi_memcpy>
   24da4:	4d04      	ldr	r5, [pc, #16]	@ (24db8 <_start+0xb7c>)
   24da6:	446d      	add	r5, sp
   24da8:	4628      	mov	r0, r5
   24daa:	4621      	mov	r1, r4
   24dac:	f7fe fc62 	bl	23674 <_ZN20complex_full_dynamic3app17hd6d5cfd3f077af0eE>
   24db0:	7828      	ldrb	r0, [r5, #0]
   24db2:	2801      	cmp	r0, #1
   24db4:	d104      	bne.n	24dc0 <_start+0xb84>
   24db6:	e516      	b.n	247e6 <_start+0x5aa>
   24db8:	00001404 	.word	0x00001404
   24dbc:	000013a8 	.word	0x000013a8
   24dc0:	4817      	ldr	r0, [pc, #92]	@ (24e20 <_start+0xbe4>)
   24dc2:	4468      	add	r0, sp
   24dc4:	78c1      	ldrb	r1, [r0, #3]
   24dc6:	acb8      	add	r4, sp, #736	@ 0x2e0
   24dc8:	70a1      	strb	r1, [r4, #2]
   24dca:	7841      	ldrb	r1, [r0, #1]
   24dcc:	7882      	ldrb	r2, [r0, #2]
   24dce:	0212      	lsls	r2, r2, #8
   24dd0:	1851      	adds	r1, r2, r1
   24dd2:	8021      	strh	r1, [r4, #0]
   24dd4:	3008      	adds	r0, #8
   24dd6:	9908      	ldr	r1, [sp, #32]
   24dd8:	6e09      	ldr	r1, [r1, #96]	@ 0x60
   24dda:	910a      	str	r1, [sp, #40]	@ 0x28
   24ddc:	4b11      	ldr	r3, [pc, #68]	@ (24e24 <_start+0xbe8>)
   24dde:	446b      	add	r3, sp
   24de0:	930b      	str	r3, [sp, #44]	@ 0x2c
   24de2:	c864      	ldmia	r0!, {r2, r5, r6}
   24de4:	c364      	stmia	r3!, {r2, r5, r6}
   24de6:	c866      	ldmia	r0!, {r1, r2, r5, r6}
   24de8:	c366      	stmia	r3!, {r1, r2, r5, r6}
   24dea:	c866      	ldmia	r0!, {r1, r2, r5, r6}
   24dec:	c366      	stmia	r3!, {r1, r2, r5, r6}
   24dee:	7800      	ldrb	r0, [r0, #0]
   24df0:	7018      	strb	r0, [r3, #0]
   24df2:	990a      	ldr	r1, [sp, #40]	@ 0x28
   24df4:	0e08      	lsrs	r0, r1, #24
   24df6:	71a0      	strb	r0, [r4, #6]
   24df8:	0c08      	lsrs	r0, r1, #16
   24dfa:	7160      	strb	r0, [r4, #5]
   24dfc:	0a08      	lsrs	r0, r1, #8
   24dfe:	7120      	strb	r0, [r4, #4]
   24e00:	70e1      	strb	r1, [r4, #3]
   24e02:	1de0      	adds	r0, r4, #7
   24e04:	222d      	movs	r2, #45	@ 0x2d
   24e06:	990b      	ldr	r1, [sp, #44]	@ 0x2c
   24e08:	f002 fa49 	bl	2729e <__aeabi_memcpy>
   24e0c:	4d04      	ldr	r5, [pc, #16]	@ (24e20 <_start+0xbe4>)
   24e0e:	446d      	add	r5, sp
   24e10:	4628      	mov	r0, r5
   24e12:	4621      	mov	r1, r4
   24e14:	f7fc ffaa 	bl	21d6c <_ZN20complex_full_dynamic3app17h6b1d9fb758601122E>
   24e18:	7828      	ldrb	r0, [r5, #0]
   24e1a:	2801      	cmp	r0, #1
   24e1c:	d104      	bne.n	24e28 <_start+0xbec>
   24e1e:	e4e2      	b.n	247e6 <_start+0x5aa>
   24e20:	00001404 	.word	0x00001404
   24e24:	000013a8 	.word	0x000013a8
   24e28:	4817      	ldr	r0, [pc, #92]	@ (24e88 <_start+0xc4c>)
   24e2a:	4468      	add	r0, sp
   24e2c:	78c1      	ldrb	r1, [r0, #3]
   24e2e:	acc5      	add	r4, sp, #788	@ 0x314
   24e30:	70a1      	strb	r1, [r4, #2]
   24e32:	7841      	ldrb	r1, [r0, #1]
   24e34:	7882      	ldrb	r2, [r0, #2]
   24e36:	0212      	lsls	r2, r2, #8
   24e38:	1851      	adds	r1, r2, r1
   24e3a:	8021      	strh	r1, [r4, #0]
   24e3c:	3008      	adds	r0, #8
   24e3e:	9908      	ldr	r1, [sp, #32]
   24e40:	6e09      	ldr	r1, [r1, #96]	@ 0x60
   24e42:	4b12      	ldr	r3, [pc, #72]	@ (24e8c <_start+0xc50>)
   24e44:	446b      	add	r3, sp
   24e46:	930b      	str	r3, [sp, #44]	@ 0x2c
   24e48:	c864      	ldmia	r0!, {r2, r5, r6}
   24e4a:	c364      	stmia	r3!, {r2, r5, r6}
   24e4c:	c864      	ldmia	r0!, {r2, r5, r6}
   24e4e:	c364      	stmia	r3!, {r2, r5, r6}
   24e50:	c864      	ldmia	r0!, {r2, r5, r6}
   24e52:	c364      	stmia	r3!, {r2, r5, r6}
   24e54:	8802      	ldrh	r2, [r0, #0]
   24e56:	801a      	strh	r2, [r3, #0]
   24e58:	7880      	ldrb	r0, [r0, #2]
   24e5a:	7098      	strb	r0, [r3, #2]
   24e5c:	0e08      	lsrs	r0, r1, #24
   24e5e:	71a0      	strb	r0, [r4, #6]
   24e60:	0c08      	lsrs	r0, r1, #16
   24e62:	7160      	strb	r0, [r4, #5]
   24e64:	0a08      	lsrs	r0, r1, #8
   24e66:	7120      	strb	r0, [r4, #4]
   24e68:	70e1      	strb	r1, [r4, #3]
   24e6a:	1de0      	adds	r0, r4, #7
   24e6c:	2227      	movs	r2, #39	@ 0x27
   24e6e:	990b      	ldr	r1, [sp, #44]	@ 0x2c
   24e70:	f002 fa15 	bl	2729e <__aeabi_memcpy>
   24e74:	4d04      	ldr	r5, [pc, #16]	@ (24e88 <_start+0xc4c>)
   24e76:	446d      	add	r5, sp
   24e78:	4628      	mov	r0, r5
   24e7a:	4621      	mov	r1, r4
   24e7c:	f7fc fba2 	bl	215c4 <_ZN20complex_full_dynamic3app17h4814c821eea8d1d9E>
   24e80:	7828      	ldrb	r0, [r5, #0]
   24e82:	2801      	cmp	r0, #1
   24e84:	d104      	bne.n	24e90 <_start+0xc54>
   24e86:	e4ae      	b.n	247e6 <_start+0x5aa>
   24e88:	00001404 	.word	0x00001404
   24e8c:	000013a8 	.word	0x000013a8
   24e90:	4817      	ldr	r0, [pc, #92]	@ (24ef0 <_start+0xcb4>)
   24e92:	4468      	add	r0, sp
   24e94:	78c1      	ldrb	r1, [r0, #3]
   24e96:	acd1      	add	r4, sp, #836	@ 0x344
   24e98:	70a1      	strb	r1, [r4, #2]
   24e9a:	7841      	ldrb	r1, [r0, #1]
   24e9c:	7882      	ldrb	r2, [r0, #2]
   24e9e:	0212      	lsls	r2, r2, #8
   24ea0:	1851      	adds	r1, r2, r1
   24ea2:	8021      	strh	r1, [r4, #0]
   24ea4:	3008      	adds	r0, #8
   24ea6:	9908      	ldr	r1, [sp, #32]
   24ea8:	6e09      	ldr	r1, [r1, #96]	@ 0x60
   24eaa:	910a      	str	r1, [sp, #40]	@ 0x28
   24eac:	4b11      	ldr	r3, [pc, #68]	@ (24ef4 <_start+0xcb8>)
   24eae:	446b      	add	r3, sp
   24eb0:	930b      	str	r3, [sp, #44]	@ 0x2c
   24eb2:	c866      	ldmia	r0!, {r1, r2, r5, r6}
   24eb4:	c366      	stmia	r3!, {r1, r2, r5, r6}
   24eb6:	c866      	ldmia	r0!, {r1, r2, r5, r6}
   24eb8:	c366      	stmia	r3!, {r1, r2, r5, r6}
   24eba:	c866      	ldmia	r0!, {r1, r2, r5, r6}
   24ebc:	c366      	stmia	r3!, {r1, r2, r5, r6}
   24ebe:	7800      	ldrb	r0, [r0, #0]
   24ec0:	7018      	strb	r0, [r3, #0]
   24ec2:	990a      	ldr	r1, [sp, #40]	@ 0x28
   24ec4:	0e08      	lsrs	r0, r1, #24
   24ec6:	71a0      	strb	r0, [r4, #6]
   24ec8:	0c08      	lsrs	r0, r1, #16
   24eca:	7160      	strb	r0, [r4, #5]
   24ecc:	0a08      	lsrs	r0, r1, #8
   24ece:	7120      	strb	r0, [r4, #4]
   24ed0:	70e1      	strb	r1, [r4, #3]
   24ed2:	1de0      	adds	r0, r4, #7
   24ed4:	2231      	movs	r2, #49	@ 0x31
   24ed6:	990b      	ldr	r1, [sp, #44]	@ 0x2c
   24ed8:	f002 f9e1 	bl	2729e <__aeabi_memcpy>
   24edc:	4d04      	ldr	r5, [pc, #16]	@ (24ef0 <_start+0xcb4>)
   24ede:	446d      	add	r5, sp
   24ee0:	4628      	mov	r0, r5
   24ee2:	4621      	mov	r1, r4
   24ee4:	f7fc fcd0 	bl	21888 <_ZN20complex_full_dynamic3app17h5c45528ebd954156E>
   24ee8:	7828      	ldrb	r0, [r5, #0]
   24eea:	2801      	cmp	r0, #1
   24eec:	d104      	bne.n	24ef8 <_start+0xcbc>
   24eee:	e47a      	b.n	247e6 <_start+0x5aa>
   24ef0:	00001404 	.word	0x00001404
   24ef4:	000013a8 	.word	0x000013a8
   24ef8:	4817      	ldr	r0, [pc, #92]	@ (24f58 <_start+0xd1c>)
   24efa:	4468      	add	r0, sp
   24efc:	78c1      	ldrb	r1, [r0, #3]
   24efe:	acdf      	add	r4, sp, #892	@ 0x37c
   24f00:	70a1      	strb	r1, [r4, #2]
   24f02:	7841      	ldrb	r1, [r0, #1]
   24f04:	7882      	ldrb	r2, [r0, #2]
   24f06:	0212      	lsls	r2, r2, #8
   24f08:	1851      	adds	r1, r2, r1
   24f0a:	8021      	strh	r1, [r4, #0]
   24f0c:	3008      	adds	r0, #8
   24f0e:	9908      	ldr	r1, [sp, #32]
   24f10:	6e09      	ldr	r1, [r1, #96]	@ 0x60
   24f12:	910a      	str	r1, [sp, #40]	@ 0x28
   24f14:	4b11      	ldr	r3, [pc, #68]	@ (24f5c <_start+0xd20>)
   24f16:	446b      	add	r3, sp
   24f18:	930b      	str	r3, [sp, #44]	@ 0x2c
   24f1a:	c864      	ldmia	r0!, {r2, r5, r6}
   24f1c:	c364      	stmia	r3!, {r2, r5, r6}
   24f1e:	c866      	ldmia	r0!, {r1, r2, r5, r6}
   24f20:	c366      	stmia	r3!, {r1, r2, r5, r6}
   24f22:	c866      	ldmia	r0!, {r1, r2, r5, r6}
   24f24:	c366      	stmia	r3!, {r1, r2, r5, r6}
   24f26:	7800      	ldrb	r0, [r0, #0]
   24f28:	7018      	strb	r0, [r3, #0]
   24f2a:	990a      	ldr	r1, [sp, #40]	@ 0x28
   24f2c:	0e08      	lsrs	r0, r1, #24
   24f2e:	71a0      	strb	r0, [r4, #6]
   24f30:	0c08      	lsrs	r0, r1, #16
   24f32:	7160      	strb	r0, [r4, #5]
   24f34:	0a08      	lsrs	r0, r1, #8
   24f36:	7120      	strb	r0, [r4, #4]
   24f38:	70e1      	strb	r1, [r4, #3]
   24f3a:	1de0      	adds	r0, r4, #7
   24f3c:	222d      	movs	r2, #45	@ 0x2d
   24f3e:	990b      	ldr	r1, [sp, #44]	@ 0x2c
   24f40:	f002 f9ad 	bl	2729e <__aeabi_memcpy>
   24f44:	4d04      	ldr	r5, [pc, #16]	@ (24f58 <_start+0xd1c>)
   24f46:	446d      	add	r5, sp
   24f48:	4628      	mov	r0, r5
   24f4a:	4621      	mov	r1, r4
   24f4c:	f7fe fc9a 	bl	23884 <_ZN20complex_full_dynamic3app17hddd749ecf1c30a49E>
   24f50:	7828      	ldrb	r0, [r5, #0]
   24f52:	2801      	cmp	r0, #1
   24f54:	d104      	bne.n	24f60 <_start+0xd24>
   24f56:	e446      	b.n	247e6 <_start+0x5aa>
   24f58:	00001404 	.word	0x00001404
   24f5c:	000013a8 	.word	0x000013a8
   24f60:	4816      	ldr	r0, [pc, #88]	@ (24fbc <_start+0xd80>)
   24f62:	4468      	add	r0, sp
   24f64:	78c1      	ldrb	r1, [r0, #3]
   24f66:	acec      	add	r4, sp, #944	@ 0x3b0
   24f68:	70a1      	strb	r1, [r4, #2]
   24f6a:	7841      	ldrb	r1, [r0, #1]
   24f6c:	7882      	ldrb	r2, [r0, #2]
   24f6e:	0212      	lsls	r2, r2, #8
   24f70:	1851      	adds	r1, r2, r1
   24f72:	8021      	strh	r1, [r4, #0]
   24f74:	3008      	adds	r0, #8
   24f76:	9908      	ldr	r1, [sp, #32]
   24f78:	6e09      	ldr	r1, [r1, #96]	@ 0x60
   24f7a:	910a      	str	r1, [sp, #40]	@ 0x28
   24f7c:	4b10      	ldr	r3, [pc, #64]	@ (24fc0 <_start+0xd84>)
   24f7e:	446b      	add	r3, sp
   24f80:	930b      	str	r3, [sp, #44]	@ 0x2c
   24f82:	c866      	ldmia	r0!, {r1, r2, r5, r6}
   24f84:	c366      	stmia	r3!, {r1, r2, r5, r6}
   24f86:	8801      	ldrh	r1, [r0, #0]
   24f88:	8019      	strh	r1, [r3, #0]
   24f8a:	7880      	ldrb	r0, [r0, #2]
   24f8c:	7098      	strb	r0, [r3, #2]
   24f8e:	990a      	ldr	r1, [sp, #40]	@ 0x28
   24f90:	0e08      	lsrs	r0, r1, #24
   24f92:	71a0      	strb	r0, [r4, #6]
   24f94:	0c08      	lsrs	r0, r1, #16
   24f96:	7160      	strb	r0, [r4, #5]
   24f98:	0a08      	lsrs	r0, r1, #8
   24f9a:	7120      	strb	r0, [r4, #4]
   24f9c:	70e1      	strb	r1, [r4, #3]
   24f9e:	1de0      	adds	r0, r4, #7
   24fa0:	2213      	movs	r2, #19
   24fa2:	990b      	ldr	r1, [sp, #44]	@ 0x2c
   24fa4:	f002 f97b 	bl	2729e <__aeabi_memcpy>
   24fa8:	4d04      	ldr	r5, [pc, #16]	@ (24fbc <_start+0xd80>)
   24faa:	446d      	add	r5, sp
   24fac:	4628      	mov	r0, r5
   24fae:	4621      	mov	r1, r4
   24fb0:	f7fe ff30 	bl	23e14 <_ZN20complex_full_dynamic3app17hf51248d6a7045975E>
   24fb4:	7828      	ldrb	r0, [r5, #0]
   24fb6:	2801      	cmp	r0, #1
   24fb8:	d104      	bne.n	24fc4 <_start+0xd88>
   24fba:	e414      	b.n	247e6 <_start+0x5aa>
   24fbc:	00001404 	.word	0x00001404
   24fc0:	000013a8 	.word	0x000013a8
   24fc4:	4915      	ldr	r1, [pc, #84]	@ (2501c <_start+0xde0>)
   24fc6:	4469      	add	r1, sp
   24fc8:	78c8      	ldrb	r0, [r1, #3]
   24fca:	acf3      	add	r4, sp, #972	@ 0x3cc
   24fcc:	70a0      	strb	r0, [r4, #2]
   24fce:	7848      	ldrb	r0, [r1, #1]
   24fd0:	788a      	ldrb	r2, [r1, #2]
   24fd2:	0212      	lsls	r2, r2, #8
   24fd4:	1810      	adds	r0, r2, r0
   24fd6:	8020      	strh	r0, [r4, #0]
   24fd8:	9808      	ldr	r0, [sp, #32]
   24fda:	6e05      	ldr	r5, [r0, #96]	@ 0x60
   24fdc:	3108      	adds	r1, #8
   24fde:	4810      	ldr	r0, [pc, #64]	@ (25020 <_start+0xde4>)
   24fe0:	4468      	add	r0, sp
   24fe2:	900b      	str	r0, [sp, #44]	@ 0x2c
   24fe4:	2649      	movs	r6, #73	@ 0x49
   24fe6:	4632      	mov	r2, r6
   24fe8:	f001 fff9 	bl	26fde <__aeabi_memcpy4>
   24fec:	0e28      	lsrs	r0, r5, #24
   24fee:	71a0      	strb	r0, [r4, #6]
   24ff0:	0c28      	lsrs	r0, r5, #16
   24ff2:	7160      	strb	r0, [r4, #5]
   24ff4:	0a28      	lsrs	r0, r5, #8
   24ff6:	7120      	strb	r0, [r4, #4]
   24ff8:	70e5      	strb	r5, [r4, #3]
   24ffa:	1de0      	adds	r0, r4, #7
   24ffc:	990b      	ldr	r1, [sp, #44]	@ 0x2c
   24ffe:	4632      	mov	r2, r6
   25000:	f002 f94d 	bl	2729e <__aeabi_memcpy>
   25004:	4d05      	ldr	r5, [pc, #20]	@ (2501c <_start+0xde0>)
   25006:	446d      	add	r5, sp
   25008:	4628      	mov	r0, r5
   2500a:	4621      	mov	r1, r4
   2500c:	f7fd fea4 	bl	22d58 <_ZN20complex_full_dynamic3app17hc3e6eac7e4b59d5aE>
   25010:	7828      	ldrb	r0, [r5, #0]
   25012:	2801      	cmp	r0, #1
   25014:	d106      	bne.n	25024 <_start+0xde8>
   25016:	f7ff fbe6 	bl	247e6 <_start+0x5aa>
   2501a:	46c0      	nop			@ (mov r8, r8)
   2501c:	00001404 	.word	0x00001404
   25020:	000013a8 	.word	0x000013a8
   25024:	4819      	ldr	r0, [pc, #100]	@ (2508c <_start+0xe50>)
   25026:	4468      	add	r0, sp
   25028:	78c1      	ldrb	r1, [r0, #3]
   2502a:	acff      	add	r4, sp, #1020	@ 0x3fc
   2502c:	3420      	adds	r4, #32
   2502e:	70a1      	strb	r1, [r4, #2]
   25030:	7841      	ldrb	r1, [r0, #1]
   25032:	7882      	ldrb	r2, [r0, #2]
   25034:	0212      	lsls	r2, r2, #8
   25036:	1851      	adds	r1, r2, r1
   25038:	8021      	strh	r1, [r4, #0]
   2503a:	3008      	adds	r0, #8
   2503c:	9908      	ldr	r1, [sp, #32]
   2503e:	6e09      	ldr	r1, [r1, #96]	@ 0x60
   25040:	910a      	str	r1, [sp, #40]	@ 0x28
   25042:	4b13      	ldr	r3, [pc, #76]	@ (25090 <_start+0xe54>)
   25044:	446b      	add	r3, sp
   25046:	930b      	str	r3, [sp, #44]	@ 0x2c
   25048:	c864      	ldmia	r0!, {r2, r5, r6}
   2504a:	c364      	stmia	r3!, {r2, r5, r6}
   2504c:	c864      	ldmia	r0!, {r2, r5, r6}
   2504e:	c364      	stmia	r3!, {r2, r5, r6}
   25050:	c864      	ldmia	r0!, {r2, r5, r6}
   25052:	c364      	stmia	r3!, {r2, r5, r6}
   25054:	c866      	ldmia	r0!, {r1, r2, r5, r6}
   25056:	c366      	stmia	r3!, {r1, r2, r5, r6}
   25058:	7800      	ldrb	r0, [r0, #0]
   2505a:	7018      	strb	r0, [r3, #0]
   2505c:	990a      	ldr	r1, [sp, #40]	@ 0x28
   2505e:	0e08      	lsrs	r0, r1, #24
   25060:	71a0      	strb	r0, [r4, #6]
   25062:	0c08      	lsrs	r0, r1, #16
   25064:	7160      	strb	r0, [r4, #5]
   25066:	0a08      	lsrs	r0, r1, #8
   25068:	7120      	strb	r0, [r4, #4]
   2506a:	70e1      	strb	r1, [r4, #3]
   2506c:	1de0      	adds	r0, r4, #7
   2506e:	2235      	movs	r2, #53	@ 0x35
   25070:	990b      	ldr	r1, [sp, #44]	@ 0x2c
   25072:	f002 f914 	bl	2729e <__aeabi_memcpy>
   25076:	4d05      	ldr	r5, [pc, #20]	@ (2508c <_start+0xe50>)
   25078:	446d      	add	r5, sp
   2507a:	4628      	mov	r0, r5
   2507c:	4621      	mov	r1, r4
   2507e:	f7fc ffd7 	bl	22030 <_ZN20complex_full_dynamic3app17h7198f9e510cfaa9bE>
   25082:	7828      	ldrb	r0, [r5, #0]
   25084:	2801      	cmp	r0, #1
   25086:	d105      	bne.n	25094 <_start+0xe58>
   25088:	f7ff fbad 	bl	247e6 <_start+0x5aa>
   2508c:	00001404 	.word	0x00001404
   25090:	000013a8 	.word	0x000013a8
   25094:	4819      	ldr	r0, [pc, #100]	@ (250fc <_start+0xec0>)
   25096:	4468      	add	r0, sp
   25098:	78c1      	ldrb	r1, [r0, #3]
   2509a:	acff      	add	r4, sp, #1020	@ 0x3fc
   2509c:	345c      	adds	r4, #92	@ 0x5c
   2509e:	70a1      	strb	r1, [r4, #2]
   250a0:	7841      	ldrb	r1, [r0, #1]
   250a2:	7882      	ldrb	r2, [r0, #2]
   250a4:	0212      	lsls	r2, r2, #8
   250a6:	1851      	adds	r1, r2, r1
   250a8:	8021      	strh	r1, [r4, #0]
   250aa:	3008      	adds	r0, #8
   250ac:	9908      	ldr	r1, [sp, #32]
   250ae:	6e09      	ldr	r1, [r1, #96]	@ 0x60
   250b0:	910a      	str	r1, [sp, #40]	@ 0x28
   250b2:	4b13      	ldr	r3, [pc, #76]	@ (25100 <_start+0xec4>)
   250b4:	446b      	add	r3, sp
   250b6:	930b      	str	r3, [sp, #44]	@ 0x2c
   250b8:	c864      	ldmia	r0!, {r2, r5, r6}
   250ba:	c364      	stmia	r3!, {r2, r5, r6}
   250bc:	c864      	ldmia	r0!, {r2, r5, r6}
   250be:	c364      	stmia	r3!, {r2, r5, r6}
   250c0:	c866      	ldmia	r0!, {r1, r2, r5, r6}
   250c2:	c366      	stmia	r3!, {r1, r2, r5, r6}
   250c4:	8801      	ldrh	r1, [r0, #0]
   250c6:	8019      	strh	r1, [r3, #0]
   250c8:	7880      	ldrb	r0, [r0, #2]
   250ca:	7098      	strb	r0, [r3, #2]
   250cc:	990a      	ldr	r1, [sp, #40]	@ 0x28
   250ce:	0e08      	lsrs	r0, r1, #24
   250d0:	71a0      	strb	r0, [r4, #6]
   250d2:	0c08      	lsrs	r0, r1, #16
   250d4:	7160      	strb	r0, [r4, #5]
   250d6:	0a08      	lsrs	r0, r1, #8
   250d8:	7120      	strb	r0, [r4, #4]
   250da:	70e1      	strb	r1, [r4, #3]
   250dc:	1de0      	adds	r0, r4, #7
   250de:	222b      	movs	r2, #43	@ 0x2b
   250e0:	990b      	ldr	r1, [sp, #44]	@ 0x2c
   250e2:	f002 f8dc 	bl	2729e <__aeabi_memcpy>
   250e6:	4d05      	ldr	r5, [pc, #20]	@ (250fc <_start+0xec0>)
   250e8:	446d      	add	r5, sp
   250ea:	4628      	mov	r0, r5
   250ec:	4621      	mov	r1, r4
   250ee:	f7fe fa03 	bl	234f8 <_ZN20complex_full_dynamic3app17hd2593310a45955e4E>
   250f2:	7828      	ldrb	r0, [r5, #0]
   250f4:	2801      	cmp	r0, #1
   250f6:	d105      	bne.n	25104 <_start+0xec8>
   250f8:	f7ff fb75 	bl	247e6 <_start+0x5aa>
   250fc:	00001404 	.word	0x00001404
   25100:	000013a8 	.word	0x000013a8
   25104:	4819      	ldr	r0, [pc, #100]	@ (2516c <_start+0xf30>)
   25106:	4468      	add	r0, sp
   25108:	78c1      	ldrb	r1, [r0, #3]
   2510a:	acff      	add	r4, sp, #1020	@ 0x3fc
   2510c:	3490      	adds	r4, #144	@ 0x90
   2510e:	70a1      	strb	r1, [r4, #2]
   25110:	7841      	ldrb	r1, [r0, #1]
   25112:	7882      	ldrb	r2, [r0, #2]
   25114:	0212      	lsls	r2, r2, #8
   25116:	1851      	adds	r1, r2, r1
   25118:	8021      	strh	r1, [r4, #0]
   2511a:	3008      	adds	r0, #8
   2511c:	9908      	ldr	r1, [sp, #32]
   2511e:	6e09      	ldr	r1, [r1, #96]	@ 0x60
   25120:	910a      	str	r1, [sp, #40]	@ 0x28
   25122:	4b13      	ldr	r3, [pc, #76]	@ (25170 <_start+0xf34>)
   25124:	446b      	add	r3, sp
   25126:	930b      	str	r3, [sp, #44]	@ 0x2c
   25128:	c864      	ldmia	r0!, {r2, r5, r6}
   2512a:	c364      	stmia	r3!, {r2, r5, r6}
   2512c:	c864      	ldmia	r0!, {r2, r5, r6}
   2512e:	c364      	stmia	r3!, {r2, r5, r6}
   25130:	c866      	ldmia	r0!, {r1, r2, r5, r6}
   25132:	c366      	stmia	r3!, {r1, r2, r5, r6}
   25134:	8801      	ldrh	r1, [r0, #0]
   25136:	8019      	strh	r1, [r3, #0]
   25138:	7880      	ldrb	r0, [r0, #2]
   2513a:	7098      	strb	r0, [r3, #2]
   2513c:	990a      	ldr	r1, [sp, #40]	@ 0x28
   2513e:	0e08      	lsrs	r0, r1, #24
   25140:	71a0      	strb	r0, [r4, #6]
   25142:	0c08      	lsrs	r0, r1, #16
   25144:	7160      	strb	r0, [r4, #5]
   25146:	0a08      	lsrs	r0, r1, #8
   25148:	7120      	strb	r0, [r4, #4]
   2514a:	70e1      	strb	r1, [r4, #3]
   2514c:	1de0      	adds	r0, r4, #7
   2514e:	222b      	movs	r2, #43	@ 0x2b
   25150:	990b      	ldr	r1, [sp, #44]	@ 0x2c
   25152:	f002 f8a4 	bl	2729e <__aeabi_memcpy>
   25156:	4d05      	ldr	r5, [pc, #20]	@ (2516c <_start+0xf30>)
   25158:	446d      	add	r5, sp
   2515a:	4628      	mov	r0, r5
   2515c:	4621      	mov	r1, r4
   2515e:	f7fc f875 	bl	2124c <_ZN20complex_full_dynamic3app17h3be32401555bd2daE>
   25162:	7828      	ldrb	r0, [r5, #0]
   25164:	2801      	cmp	r0, #1
   25166:	d105      	bne.n	25174 <_start+0xf38>
   25168:	f7ff fb3d 	bl	247e6 <_start+0x5aa>
   2516c:	00001404 	.word	0x00001404
   25170:	000013a8 	.word	0x000013a8
   25174:	4914      	ldr	r1, [pc, #80]	@ (251c8 <_start+0xf8c>)
   25176:	4469      	add	r1, sp
   25178:	9b08      	ldr	r3, [sp, #32]
   2517a:	6ed8      	ldr	r0, [r3, #108]	@ 0x6c
   2517c:	7208      	strb	r0, [r1, #8]
   2517e:	4813      	ldr	r0, [pc, #76]	@ (251cc <_start+0xf90>)
   25180:	4468      	add	r0, sp
   25182:	78c2      	ldrb	r2, [r0, #3]
   25184:	acff      	add	r4, sp, #1020	@ 0x3fc
   25186:	34c4      	adds	r4, #196	@ 0xc4
   25188:	70a2      	strb	r2, [r4, #2]
   2518a:	7842      	ldrb	r2, [r0, #1]
   2518c:	7880      	ldrb	r0, [r0, #2]
   2518e:	0200      	lsls	r0, r0, #8
   25190:	1880      	adds	r0, r0, r2
   25192:	8020      	strh	r0, [r4, #0]
   25194:	6e18      	ldr	r0, [r3, #96]	@ 0x60
   25196:	70e0      	strb	r0, [r4, #3]
   25198:	0e02      	lsrs	r2, r0, #24
   2519a:	71a2      	strb	r2, [r4, #6]
   2519c:	0c02      	lsrs	r2, r0, #16
   2519e:	7162      	strb	r2, [r4, #5]
   251a0:	0a00      	lsrs	r0, r0, #8
   251a2:	7120      	strb	r0, [r4, #4]
   251a4:	6e58      	ldr	r0, [r3, #100]	@ 0x64
   251a6:	6e9a      	ldr	r2, [r3, #104]	@ 0x68
   251a8:	c305      	stmia	r3!, {r0, r2}
   251aa:	1de0      	adds	r0, r4, #7
   251ac:	2209      	movs	r2, #9
   251ae:	f002 f876 	bl	2729e <__aeabi_memcpy>
   251b2:	4d06      	ldr	r5, [pc, #24]	@ (251cc <_start+0xf90>)
   251b4:	446d      	add	r5, sp
   251b6:	4628      	mov	r0, r5
   251b8:	4621      	mov	r1, r4
   251ba:	f7fb fa07 	bl	205cc <_ZN20complex_full_dynamic3app17h0f163cd4d8026c84E>
   251be:	7828      	ldrb	r0, [r5, #0]
   251c0:	2801      	cmp	r0, #1
   251c2:	d105      	bne.n	251d0 <_start+0xf94>
   251c4:	f7ff fb0f 	bl	247e6 <_start+0x5aa>
   251c8:	000013a8 	.word	0x000013a8
   251cc:	00001404 	.word	0x00001404
   251d0:	4819      	ldr	r0, [pc, #100]	@ (25238 <_start+0xffc>)
   251d2:	4468      	add	r0, sp
   251d4:	78c1      	ldrb	r1, [r0, #3]
   251d6:	acff      	add	r4, sp, #1020	@ 0x3fc
   251d8:	34d4      	adds	r4, #212	@ 0xd4
   251da:	70a1      	strb	r1, [r4, #2]
   251dc:	7841      	ldrb	r1, [r0, #1]
   251de:	7882      	ldrb	r2, [r0, #2]
   251e0:	0212      	lsls	r2, r2, #8
   251e2:	1851      	adds	r1, r2, r1
   251e4:	8021      	strh	r1, [r4, #0]
   251e6:	3008      	adds	r0, #8
   251e8:	9908      	ldr	r1, [sp, #32]
   251ea:	6e09      	ldr	r1, [r1, #96]	@ 0x60
   251ec:	910a      	str	r1, [sp, #40]	@ 0x28
   251ee:	4b13      	ldr	r3, [pc, #76]	@ (2523c <_start+0x1000>)
   251f0:	446b      	add	r3, sp
   251f2:	930b      	str	r3, [sp, #44]	@ 0x2c
   251f4:	c864      	ldmia	r0!, {r2, r5, r6}
   251f6:	c364      	stmia	r3!, {r2, r5, r6}
   251f8:	c866      	ldmia	r0!, {r1, r2, r5, r6}
   251fa:	c366      	stmia	r3!, {r1, r2, r5, r6}
   251fc:	c866      	ldmia	r0!, {r1, r2, r5, r6}
   251fe:	c366      	stmia	r3!, {r1, r2, r5, r6}
   25200:	8801      	ldrh	r1, [r0, #0]
   25202:	8019      	strh	r1, [r3, #0]
   25204:	7880      	ldrb	r0, [r0, #2]
   25206:	7098      	strb	r0, [r3, #2]
   25208:	990a      	ldr	r1, [sp, #40]	@ 0x28
   2520a:	0e08      	lsrs	r0, r1, #24
   2520c:	71a0      	strb	r0, [r4, #6]
   2520e:	0c08      	lsrs	r0, r1, #16
   25210:	7160      	strb	r0, [r4, #5]
   25212:	0a08      	lsrs	r0, r1, #8
   25214:	7120      	strb	r0, [r4, #4]
   25216:	70e1      	strb	r1, [r4, #3]
   25218:	1de0      	adds	r0, r4, #7
   2521a:	222f      	movs	r2, #47	@ 0x2f
   2521c:	990b      	ldr	r1, [sp, #44]	@ 0x2c
   2521e:	f002 f83e 	bl	2729e <__aeabi_memcpy>
   25222:	4d05      	ldr	r5, [pc, #20]	@ (25238 <_start+0xffc>)
   25224:	446d      	add	r5, sp
   25226:	4628      	mov	r0, r5
   25228:	4621      	mov	r1, r4
   2522a:	f7fc f867 	bl	212fc <_ZN20complex_full_dynamic3app17h3c7cc536f8015139E>
   2522e:	7828      	ldrb	r0, [r5, #0]
   25230:	2801      	cmp	r0, #1
   25232:	d105      	bne.n	25240 <_start+0x1004>
   25234:	f7ff fad7 	bl	247e6 <_start+0x5aa>
   25238:	00001404 	.word	0x00001404
   2523c:	000013a8 	.word	0x000013a8
   25240:	9804      	ldr	r0, [sp, #16]
   25242:	1cc0      	adds	r0, r0, #3
   25244:	4a16      	ldr	r2, [pc, #88]	@ (252a0 <_start+0x1064>)
   25246:	446a      	add	r2, sp
   25248:	78d3      	ldrb	r3, [r2, #3]
   2524a:	4916      	ldr	r1, [pc, #88]	@ (252a4 <_start+0x1068>)
   2524c:	4469      	add	r1, sp
   2524e:	708b      	strb	r3, [r1, #2]
   25250:	7853      	ldrb	r3, [r2, #1]
   25252:	7892      	ldrb	r2, [r2, #2]
   25254:	0212      	lsls	r2, r2, #8
   25256:	18d2      	adds	r2, r2, r3
   25258:	800a      	strh	r2, [r1, #0]
   2525a:	9c08      	ldr	r4, [sp, #32]
   2525c:	3460      	adds	r4, #96	@ 0x60
   2525e:	cc1c      	ldmia	r4, {r2, r3, r4}
   25260:	0e25      	lsrs	r5, r4, #24
   25262:	72c5      	strb	r5, [r0, #11]
   25264:	0c25      	lsrs	r5, r4, #16
   25266:	7285      	strb	r5, [r0, #10]
   25268:	0a25      	lsrs	r5, r4, #8
   2526a:	7245      	strb	r5, [r0, #9]
   2526c:	7204      	strb	r4, [r0, #8]
   2526e:	0e1c      	lsrs	r4, r3, #24
   25270:	71c4      	strb	r4, [r0, #7]
   25272:	0c1c      	lsrs	r4, r3, #16
   25274:	7184      	strb	r4, [r0, #6]
   25276:	0a1c      	lsrs	r4, r3, #8
   25278:	7144      	strb	r4, [r0, #5]
   2527a:	7103      	strb	r3, [r0, #4]
   2527c:	0e13      	lsrs	r3, r2, #24
   2527e:	70c3      	strb	r3, [r0, #3]
   25280:	0c13      	lsrs	r3, r2, #16
   25282:	7083      	strb	r3, [r0, #2]
   25284:	0a13      	lsrs	r3, r2, #8
   25286:	7043      	strb	r3, [r0, #1]
   25288:	7002      	strb	r2, [r0, #0]
   2528a:	4c05      	ldr	r4, [pc, #20]	@ (252a0 <_start+0x1064>)
   2528c:	446c      	add	r4, sp
   2528e:	4620      	mov	r0, r4
   25290:	f7fa ff28 	bl	200e4 <_ZN20complex_full_dynamic3app17h00be0257f5e4cde5E>
   25294:	7820      	ldrb	r0, [r4, #0]
   25296:	2801      	cmp	r0, #1
   25298:	d106      	bne.n	252a8 <_start+0x106c>
   2529a:	f7ff faa4 	bl	247e6 <_start+0x5aa>
   2529e:	46c0      	nop			@ (mov r8, r8)
   252a0:	00001404 	.word	0x00001404
   252a4:	00000508 	.word	0x00000508
   252a8:	4813      	ldr	r0, [pc, #76]	@ (252f8 <_start+0x10bc>)
   252aa:	4468      	add	r0, sp
   252ac:	78c1      	ldrb	r1, [r0, #3]
   252ae:	4c13      	ldr	r4, [pc, #76]	@ (252fc <_start+0x10c0>)
   252b0:	446c      	add	r4, sp
   252b2:	70a1      	strb	r1, [r4, #2]
   252b4:	7841      	ldrb	r1, [r0, #1]
   252b6:	7880      	ldrb	r0, [r0, #2]
   252b8:	0200      	lsls	r0, r0, #8
   252ba:	1840      	adds	r0, r0, r1
   252bc:	8020      	strh	r0, [r4, #0]
   252be:	9e08      	ldr	r6, [sp, #32]
   252c0:	4633      	mov	r3, r6
   252c2:	3360      	adds	r3, #96	@ 0x60
   252c4:	cb0f      	ldmia	r3, {r0, r1, r2, r3}
   252c6:	70e0      	strb	r0, [r4, #3]
   252c8:	0e05      	lsrs	r5, r0, #24
   252ca:	71a5      	strb	r5, [r4, #6]
   252cc:	0c05      	lsrs	r5, r0, #16
   252ce:	7165      	strb	r5, [r4, #5]
   252d0:	0a00      	lsrs	r0, r0, #8
   252d2:	7120      	strb	r0, [r4, #4]
   252d4:	c60e      	stmia	r6!, {r1, r2, r3}
   252d6:	1de0      	adds	r0, r4, #7
   252d8:	4909      	ldr	r1, [pc, #36]	@ (25300 <_start+0x10c4>)
   252da:	4469      	add	r1, sp
   252dc:	220c      	movs	r2, #12
   252de:	f001 ffde 	bl	2729e <__aeabi_memcpy>
   252e2:	4d05      	ldr	r5, [pc, #20]	@ (252f8 <_start+0x10bc>)
   252e4:	446d      	add	r5, sp
   252e6:	4628      	mov	r0, r5
   252e8:	4621      	mov	r1, r4
   252ea:	f7fe f853 	bl	23394 <_ZN20complex_full_dynamic3app17hcf86d3556b86406eE>
   252ee:	7828      	ldrb	r0, [r5, #0]
   252f0:	2801      	cmp	r0, #1
   252f2:	d107      	bne.n	25304 <_start+0x10c8>
   252f4:	f7ff fa77 	bl	247e6 <_start+0x5aa>
   252f8:	00001404 	.word	0x00001404
   252fc:	00000518 	.word	0x00000518
   25300:	000013a8 	.word	0x000013a8
   25304:	4915      	ldr	r1, [pc, #84]	@ (2535c <_start+0x1120>)
   25306:	4469      	add	r1, sp
   25308:	78c8      	ldrb	r0, [r1, #3]
   2530a:	4c15      	ldr	r4, [pc, #84]	@ (25360 <_start+0x1124>)
   2530c:	446c      	add	r4, sp
   2530e:	70a0      	strb	r0, [r4, #2]
   25310:	7848      	ldrb	r0, [r1, #1]
   25312:	788a      	ldrb	r2, [r1, #2]
   25314:	0212      	lsls	r2, r2, #8
   25316:	1810      	adds	r0, r2, r0
   25318:	8020      	strh	r0, [r4, #0]
   2531a:	9808      	ldr	r0, [sp, #32]
   2531c:	6e05      	ldr	r5, [r0, #96]	@ 0x60
   2531e:	3108      	adds	r1, #8
   25320:	4810      	ldr	r0, [pc, #64]	@ (25364 <_start+0x1128>)
   25322:	4468      	add	r0, sp
   25324:	900b      	str	r0, [sp, #44]	@ 0x2c
   25326:	264e      	movs	r6, #78	@ 0x4e
   25328:	4632      	mov	r2, r6
   2532a:	f001 fe58 	bl	26fde <__aeabi_memcpy4>
   2532e:	0e28      	lsrs	r0, r5, #24
   25330:	71a0      	strb	r0, [r4, #6]
   25332:	0c28      	lsrs	r0, r5, #16
   25334:	7160      	strb	r0, [r4, #5]
   25336:	0a28      	lsrs	r0, r5, #8
   25338:	7120      	strb	r0, [r4, #4]
   2533a:	70e5      	strb	r5, [r4, #3]
   2533c:	1de0      	adds	r0, r4, #7
   2533e:	990b      	ldr	r1, [sp, #44]	@ 0x2c
   25340:	4632      	mov	r2, r6
   25342:	f001 ffac 	bl	2729e <__aeabi_memcpy>
   25346:	4d05      	ldr	r5, [pc, #20]	@ (2535c <_start+0x1120>)
   25348:	446d      	add	r5, sp
   2534a:	4628      	mov	r0, r5
   2534c:	4621      	mov	r1, r4
   2534e:	f7fd fb9f 	bl	22a90 <_ZN20complex_full_dynamic3app17hb3ed3a0cfb1a575dE>
   25352:	7828      	ldrb	r0, [r5, #0]
   25354:	2801      	cmp	r0, #1
   25356:	d107      	bne.n	25368 <_start+0x112c>
   25358:	f7ff fa45 	bl	247e6 <_start+0x5aa>
   2535c:	00001404 	.word	0x00001404
   25360:	0000052c 	.word	0x0000052c
   25364:	000013a8 	.word	0x000013a8
   25368:	4819      	ldr	r0, [pc, #100]	@ (253d0 <_start+0x1194>)
   2536a:	4468      	add	r0, sp
   2536c:	78c1      	ldrb	r1, [r0, #3]
   2536e:	4c19      	ldr	r4, [pc, #100]	@ (253d4 <_start+0x1198>)
   25370:	446c      	add	r4, sp
   25372:	70a1      	strb	r1, [r4, #2]
   25374:	7841      	ldrb	r1, [r0, #1]
   25376:	7882      	ldrb	r2, [r0, #2]
   25378:	0212      	lsls	r2, r2, #8
   2537a:	1851      	adds	r1, r2, r1
   2537c:	8021      	strh	r1, [r4, #0]
   2537e:	3008      	adds	r0, #8
   25380:	9908      	ldr	r1, [sp, #32]
   25382:	6e09      	ldr	r1, [r1, #96]	@ 0x60
   25384:	910a      	str	r1, [sp, #40]	@ 0x28
   25386:	4b14      	ldr	r3, [pc, #80]	@ (253d8 <_start+0x119c>)
   25388:	446b      	add	r3, sp
   2538a:	930b      	str	r3, [sp, #44]	@ 0x2c
   2538c:	c864      	ldmia	r0!, {r2, r5, r6}
   2538e:	c364      	stmia	r3!, {r2, r5, r6}
   25390:	c864      	ldmia	r0!, {r2, r5, r6}
   25392:	c364      	stmia	r3!, {r2, r5, r6}
   25394:	c866      	ldmia	r0!, {r1, r2, r5, r6}
   25396:	c366      	stmia	r3!, {r1, r2, r5, r6}
   25398:	8801      	ldrh	r1, [r0, #0]
   2539a:	8019      	strh	r1, [r3, #0]
   2539c:	7880      	ldrb	r0, [r0, #2]
   2539e:	7098      	strb	r0, [r3, #2]
   253a0:	990a      	ldr	r1, [sp, #40]	@ 0x28
   253a2:	0e08      	lsrs	r0, r1, #24
   253a4:	71a0      	strb	r0, [r4, #6]
   253a6:	0c08      	lsrs	r0, r1, #16
   253a8:	7160      	strb	r0, [r4, #5]
   253aa:	0a08      	lsrs	r0, r1, #8
   253ac:	7120      	strb	r0, [r4, #4]
   253ae:	70e1      	strb	r1, [r4, #3]
   253b0:	1de0      	adds	r0, r4, #7
   253b2:	222b      	movs	r2, #43	@ 0x2b
   253b4:	990b      	ldr	r1, [sp, #44]	@ 0x2c
   253b6:	f001 ff72 	bl	2729e <__aeabi_memcpy>
   253ba:	4d05      	ldr	r5, [pc, #20]	@ (253d0 <_start+0x1194>)
   253bc:	446d      	add	r5, sp
   253be:	4628      	mov	r0, r5
   253c0:	4621      	mov	r1, r4
   253c2:	f7fb f8a9 	bl	20518 <_ZN20complex_full_dynamic3app17h0c126f54d67b0d68E>
   253c6:	7828      	ldrb	r0, [r5, #0]
   253c8:	2801      	cmp	r0, #1
   253ca:	d107      	bne.n	253dc <_start+0x11a0>
   253cc:	f7ff fa0b 	bl	247e6 <_start+0x5aa>
   253d0:	00001404 	.word	0x00001404
   253d4:	00000584 	.word	0x00000584
   253d8:	000013a8 	.word	0x000013a8
   253dc:	4819      	ldr	r0, [pc, #100]	@ (25444 <_start+0x1208>)
   253de:	4468      	add	r0, sp
   253e0:	78c1      	ldrb	r1, [r0, #3]
   253e2:	4c19      	ldr	r4, [pc, #100]	@ (25448 <_start+0x120c>)
   253e4:	446c      	add	r4, sp
   253e6:	70a1      	strb	r1, [r4, #2]
   253e8:	7841      	ldrb	r1, [r0, #1]
   253ea:	7882      	ldrb	r2, [r0, #2]
   253ec:	0212      	lsls	r2, r2, #8
   253ee:	1851      	adds	r1, r2, r1
   253f0:	8021      	strh	r1, [r4, #0]
   253f2:	3008      	adds	r0, #8
   253f4:	9908      	ldr	r1, [sp, #32]
   253f6:	6e09      	ldr	r1, [r1, #96]	@ 0x60
   253f8:	910a      	str	r1, [sp, #40]	@ 0x28
   253fa:	4b14      	ldr	r3, [pc, #80]	@ (2544c <_start+0x1210>)
   253fc:	446b      	add	r3, sp
   253fe:	930b      	str	r3, [sp, #44]	@ 0x2c
   25400:	c864      	ldmia	r0!, {r2, r5, r6}
   25402:	c364      	stmia	r3!, {r2, r5, r6}
   25404:	c866      	ldmia	r0!, {r1, r2, r5, r6}
   25406:	c366      	stmia	r3!, {r1, r2, r5, r6}
   25408:	c826      	ldmia	r0!, {r1, r2, r5}
   2540a:	c326      	stmia	r3!, {r1, r2, r5}
   2540c:	c866      	ldmia	r0!, {r1, r2, r5, r6}
   2540e:	c366      	stmia	r3!, {r1, r2, r5, r6}
   25410:	8800      	ldrh	r0, [r0, #0]
   25412:	8018      	strh	r0, [r3, #0]
   25414:	990a      	ldr	r1, [sp, #40]	@ 0x28
   25416:	0e08      	lsrs	r0, r1, #24
   25418:	71a0      	strb	r0, [r4, #6]
   2541a:	0c08      	lsrs	r0, r1, #16
   2541c:	7160      	strb	r0, [r4, #5]
   2541e:	0a08      	lsrs	r0, r1, #8
   25420:	7120      	strb	r0, [r4, #4]
   25422:	70e1      	strb	r1, [r4, #3]
   25424:	1de0      	adds	r0, r4, #7
   25426:	223a      	movs	r2, #58	@ 0x3a
   25428:	990b      	ldr	r1, [sp, #44]	@ 0x2c
   2542a:	f001 ff38 	bl	2729e <__aeabi_memcpy>
   2542e:	4d05      	ldr	r5, [pc, #20]	@ (25444 <_start+0x1208>)
   25430:	446d      	add	r5, sp
   25432:	4628      	mov	r0, r5
   25434:	4621      	mov	r1, r4
   25436:	f7fc fc41 	bl	21cbc <_ZN20complex_full_dynamic3app17h6349a37700fe6077E>
   2543a:	7828      	ldrb	r0, [r5, #0]
   2543c:	2801      	cmp	r0, #1
   2543e:	d107      	bne.n	25450 <_start+0x1214>
   25440:	f7ff f9d1 	bl	247e6 <_start+0x5aa>
   25444:	00001404 	.word	0x00001404
   25448:	000005b8 	.word	0x000005b8
   2544c:	000013a8 	.word	0x000013a8
   25450:	4817      	ldr	r0, [pc, #92]	@ (254b0 <_start+0x1274>)
   25452:	4468      	add	r0, sp
   25454:	78c1      	ldrb	r1, [r0, #3]
   25456:	4c17      	ldr	r4, [pc, #92]	@ (254b4 <_start+0x1278>)
   25458:	446c      	add	r4, sp
   2545a:	70a1      	strb	r1, [r4, #2]
   2545c:	7841      	ldrb	r1, [r0, #1]
   2545e:	7882      	ldrb	r2, [r0, #2]
   25460:	0212      	lsls	r2, r2, #8
   25462:	1851      	adds	r1, r2, r1
   25464:	8021      	strh	r1, [r4, #0]
   25466:	3008      	adds	r0, #8
   25468:	9908      	ldr	r1, [sp, #32]
   2546a:	6e09      	ldr	r1, [r1, #96]	@ 0x60
   2546c:	4b12      	ldr	r3, [pc, #72]	@ (254b8 <_start+0x127c>)
   2546e:	446b      	add	r3, sp
   25470:	930b      	str	r3, [sp, #44]	@ 0x2c
   25472:	c864      	ldmia	r0!, {r2, r5, r6}
   25474:	c364      	stmia	r3!, {r2, r5, r6}
   25476:	c864      	ldmia	r0!, {r2, r5, r6}
   25478:	c364      	stmia	r3!, {r2, r5, r6}
   2547a:	8802      	ldrh	r2, [r0, #0]
   2547c:	801a      	strh	r2, [r3, #0]
   2547e:	7880      	ldrb	r0, [r0, #2]
   25480:	7098      	strb	r0, [r3, #2]
   25482:	0e08      	lsrs	r0, r1, #24
   25484:	71a0      	strb	r0, [r4, #6]
   25486:	0c08      	lsrs	r0, r1, #16
   25488:	7160      	strb	r0, [r4, #5]
   2548a:	0a08      	lsrs	r0, r1, #8
   2548c:	7120      	strb	r0, [r4, #4]
   2548e:	70e1      	strb	r1, [r4, #3]
   25490:	1de0      	adds	r0, r4, #7
   25492:	221b      	movs	r2, #27
   25494:	990b      	ldr	r1, [sp, #44]	@ 0x2c
   25496:	f001 ff02 	bl	2729e <__aeabi_memcpy>
   2549a:	4d05      	ldr	r5, [pc, #20]	@ (254b0 <_start+0x1274>)
   2549c:	446d      	add	r5, sp
   2549e:	4628      	mov	r0, r5
   254a0:	4621      	mov	r1, r4
   254a2:	f7fc faa3 	bl	219ec <_ZN20complex_full_dynamic3app17h61a43565b7e61314E>
   254a6:	7828      	ldrb	r0, [r5, #0]
   254a8:	2801      	cmp	r0, #1
   254aa:	d107      	bne.n	254bc <_start+0x1280>
   254ac:	f7ff f99b 	bl	247e6 <_start+0x5aa>
   254b0:	00001404 	.word	0x00001404
   254b4:	000005fc 	.word	0x000005fc
   254b8:	000013a8 	.word	0x000013a8
   254bc:	4915      	ldr	r1, [pc, #84]	@ (25514 <_start+0x12d8>)
   254be:	4469      	add	r1, sp
   254c0:	78c8      	ldrb	r0, [r1, #3]
   254c2:	4c15      	ldr	r4, [pc, #84]	@ (25518 <_start+0x12dc>)
   254c4:	446c      	add	r4, sp
   254c6:	70a0      	strb	r0, [r4, #2]
   254c8:	7848      	ldrb	r0, [r1, #1]
   254ca:	788a      	ldrb	r2, [r1, #2]
   254cc:	0212      	lsls	r2, r2, #8
   254ce:	1810      	adds	r0, r2, r0
   254d0:	8020      	strh	r0, [r4, #0]
   254d2:	9808      	ldr	r0, [sp, #32]
   254d4:	6e05      	ldr	r5, [r0, #96]	@ 0x60
   254d6:	3108      	adds	r1, #8
   254d8:	4810      	ldr	r0, [pc, #64]	@ (2551c <_start+0x12e0>)
   254da:	4468      	add	r0, sp
   254dc:	900b      	str	r0, [sp, #44]	@ 0x2c
   254de:	264a      	movs	r6, #74	@ 0x4a
   254e0:	4632      	mov	r2, r6
   254e2:	f001 fd7c 	bl	26fde <__aeabi_memcpy4>
   254e6:	0e28      	lsrs	r0, r5, #24
   254e8:	71a0      	strb	r0, [r4, #6]
   254ea:	0c28      	lsrs	r0, r5, #16
   254ec:	7160      	strb	r0, [r4, #5]
   254ee:	0a28      	lsrs	r0, r5, #8
   254f0:	7120      	strb	r0, [r4, #4]
   254f2:	70e5      	strb	r5, [r4, #3]
   254f4:	1de0      	adds	r0, r4, #7
   254f6:	990b      	ldr	r1, [sp, #44]	@ 0x2c
   254f8:	4632      	mov	r2, r6
   254fa:	f001 fed0 	bl	2729e <__aeabi_memcpy>
   254fe:	4d05      	ldr	r5, [pc, #20]	@ (25514 <_start+0x12d8>)
   25500:	446d      	add	r5, sp
   25502:	4628      	mov	r0, r5
   25504:	4621      	mov	r1, r4
   25506:	f7fd f963 	bl	227d0 <_ZN20complex_full_dynamic3app17ha0382e83de386d15E>
   2550a:	7828      	ldrb	r0, [r5, #0]
   2550c:	2801      	cmp	r0, #1
   2550e:	d107      	bne.n	25520 <_start+0x12e4>
   25510:	f7ff f969 	bl	247e6 <_start+0x5aa>
   25514:	00001404 	.word	0x00001404
   25518:	00000620 	.word	0x00000620
   2551c:	000013a8 	.word	0x000013a8
   25520:	4915      	ldr	r1, [pc, #84]	@ (25578 <_start+0x133c>)
   25522:	4469      	add	r1, sp
   25524:	78c8      	ldrb	r0, [r1, #3]
   25526:	4c15      	ldr	r4, [pc, #84]	@ (2557c <_start+0x1340>)
   25528:	446c      	add	r4, sp
   2552a:	70a0      	strb	r0, [r4, #2]
   2552c:	7848      	ldrb	r0, [r1, #1]
   2552e:	788a      	ldrb	r2, [r1, #2]
   25530:	0212      	lsls	r2, r2, #8
   25532:	1810      	adds	r0, r2, r0
   25534:	8020      	strh	r0, [r4, #0]
   25536:	9808      	ldr	r0, [sp, #32]
   25538:	6e05      	ldr	r5, [r0, #96]	@ 0x60
   2553a:	3108      	adds	r1, #8
   2553c:	4810      	ldr	r0, [pc, #64]	@ (25580 <_start+0x1344>)
   2553e:	4468      	add	r0, sp
   25540:	900b      	str	r0, [sp, #44]	@ 0x2c
   25542:	2648      	movs	r6, #72	@ 0x48
   25544:	4632      	mov	r2, r6
   25546:	f001 fd4a 	bl	26fde <__aeabi_memcpy4>
   2554a:	0e28      	lsrs	r0, r5, #24
   2554c:	71a0      	strb	r0, [r4, #6]
   2554e:	0c28      	lsrs	r0, r5, #16
   25550:	7160      	strb	r0, [r4, #5]
   25552:	0a28      	lsrs	r0, r5, #8
   25554:	7120      	strb	r0, [r4, #4]
   25556:	70e5      	strb	r5, [r4, #3]
   25558:	1de0      	adds	r0, r4, #7
   2555a:	990b      	ldr	r1, [sp, #44]	@ 0x2c
   2555c:	4632      	mov	r2, r6
   2555e:	f001 fe9e 	bl	2729e <__aeabi_memcpy>
   25562:	4d05      	ldr	r5, [pc, #20]	@ (25578 <_start+0x133c>)
   25564:	446d      	add	r5, sp
   25566:	4628      	mov	r0, r5
   25568:	4621      	mov	r1, r4
   2556a:	f7fb fd65 	bl	21038 <_ZN20complex_full_dynamic3app17h322f6d41fdd2d7f2E>
   2556e:	7828      	ldrb	r0, [r5, #0]
   25570:	2801      	cmp	r0, #1
   25572:	d107      	bne.n	25584 <_start+0x1348>
   25574:	f7ff f937 	bl	247e6 <_start+0x5aa>
   25578:	00001404 	.word	0x00001404
   2557c:	00000674 	.word	0x00000674
   25580:	000013a8 	.word	0x000013a8
   25584:	4818      	ldr	r0, [pc, #96]	@ (255e8 <_start+0x13ac>)
   25586:	4468      	add	r0, sp
   25588:	78c1      	ldrb	r1, [r0, #3]
   2558a:	4c18      	ldr	r4, [pc, #96]	@ (255ec <_start+0x13b0>)
   2558c:	446c      	add	r4, sp
   2558e:	70a1      	strb	r1, [r4, #2]
   25590:	7841      	ldrb	r1, [r0, #1]
   25592:	7882      	ldrb	r2, [r0, #2]
   25594:	0212      	lsls	r2, r2, #8
   25596:	1851      	adds	r1, r2, r1
   25598:	8021      	strh	r1, [r4, #0]
   2559a:	3008      	adds	r0, #8
   2559c:	9908      	ldr	r1, [sp, #32]
   2559e:	6e09      	ldr	r1, [r1, #96]	@ 0x60
   255a0:	910a      	str	r1, [sp, #40]	@ 0x28
   255a2:	4b13      	ldr	r3, [pc, #76]	@ (255f0 <_start+0x13b4>)
   255a4:	446b      	add	r3, sp
   255a6:	930b      	str	r3, [sp, #44]	@ 0x2c
   255a8:	c864      	ldmia	r0!, {r2, r5, r6}
   255aa:	c364      	stmia	r3!, {r2, r5, r6}
   255ac:	c864      	ldmia	r0!, {r2, r5, r6}
   255ae:	c364      	stmia	r3!, {r2, r5, r6}
   255b0:	c864      	ldmia	r0!, {r2, r5, r6}
   255b2:	c364      	stmia	r3!, {r2, r5, r6}
   255b4:	c866      	ldmia	r0!, {r1, r2, r5, r6}
   255b6:	c366      	stmia	r3!, {r1, r2, r5, r6}
   255b8:	990a      	ldr	r1, [sp, #40]	@ 0x28
   255ba:	0e08      	lsrs	r0, r1, #24
   255bc:	71a0      	strb	r0, [r4, #6]
   255be:	0c08      	lsrs	r0, r1, #16
   255c0:	7160      	strb	r0, [r4, #5]
   255c2:	0a08      	lsrs	r0, r1, #8
   255c4:	7120      	strb	r0, [r4, #4]
   255c6:	70e1      	strb	r1, [r4, #3]
   255c8:	1de0      	adds	r0, r4, #7
   255ca:	2234      	movs	r2, #52	@ 0x34
   255cc:	990b      	ldr	r1, [sp, #44]	@ 0x2c
   255ce:	f001 fe66 	bl	2729e <__aeabi_memcpy>
   255d2:	4d05      	ldr	r5, [pc, #20]	@ (255e8 <_start+0x13ac>)
   255d4:	446d      	add	r5, sp
   255d6:	4628      	mov	r0, r5
   255d8:	4621      	mov	r1, r4
   255da:	f7fe fdd7 	bl	2418c <_ZN20complex_full_dynamic3app17hfdf0f15c35a25e7dE>
   255de:	7828      	ldrb	r0, [r5, #0]
   255e0:	2801      	cmp	r0, #1
   255e2:	d107      	bne.n	255f4 <_start+0x13b8>
   255e4:	f7ff f8ff 	bl	247e6 <_start+0x5aa>
   255e8:	00001404 	.word	0x00001404
   255ec:	000006c4 	.word	0x000006c4
   255f0:	000013a8 	.word	0x000013a8
   255f4:	4816      	ldr	r0, [pc, #88]	@ (25650 <_start+0x1414>)
   255f6:	4468      	add	r0, sp
   255f8:	78c1      	ldrb	r1, [r0, #3]
   255fa:	4c16      	ldr	r4, [pc, #88]	@ (25654 <_start+0x1418>)
   255fc:	446c      	add	r4, sp
   255fe:	70a1      	strb	r1, [r4, #2]
   25600:	7841      	ldrb	r1, [r0, #1]
   25602:	7882      	ldrb	r2, [r0, #2]
   25604:	0212      	lsls	r2, r2, #8
   25606:	1851      	adds	r1, r2, r1
   25608:	8021      	strh	r1, [r4, #0]
   2560a:	3008      	adds	r0, #8
   2560c:	9908      	ldr	r1, [sp, #32]
   2560e:	6e09      	ldr	r1, [r1, #96]	@ 0x60
   25610:	910a      	str	r1, [sp, #40]	@ 0x28
   25612:	4b11      	ldr	r3, [pc, #68]	@ (25658 <_start+0x141c>)
   25614:	446b      	add	r3, sp
   25616:	930b      	str	r3, [sp, #44]	@ 0x2c
   25618:	c866      	ldmia	r0!, {r1, r2, r5, r6}
   2561a:	c366      	stmia	r3!, {r1, r2, r5, r6}
   2561c:	c866      	ldmia	r0!, {r1, r2, r5, r6}
   2561e:	c366      	stmia	r3!, {r1, r2, r5, r6}
   25620:	990a      	ldr	r1, [sp, #40]	@ 0x28
   25622:	0e08      	lsrs	r0, r1, #24
   25624:	71a0      	strb	r0, [r4, #6]
   25626:	0c08      	lsrs	r0, r1, #16
   25628:	7160      	strb	r0, [r4, #5]
   2562a:	0a08      	lsrs	r0, r1, #8
   2562c:	7120      	strb	r0, [r4, #4]
   2562e:	70e1      	strb	r1, [r4, #3]
   25630:	1de0      	adds	r0, r4, #7
   25632:	2220      	movs	r2, #32
   25634:	990b      	ldr	r1, [sp, #44]	@ 0x2c
   25636:	f001 fe32 	bl	2729e <__aeabi_memcpy>
   2563a:	4d05      	ldr	r5, [pc, #20]	@ (25650 <_start+0x1414>)
   2563c:	446d      	add	r5, sp
   2563e:	4628      	mov	r0, r5
   25640:	4621      	mov	r1, r4
   25642:	f7fd fb2f 	bl	22ca4 <_ZN20complex_full_dynamic3app17hc3109a431b8db763E>
   25646:	7828      	ldrb	r0, [r5, #0]
   25648:	2801      	cmp	r0, #1
   2564a:	d107      	bne.n	2565c <_start+0x1420>
   2564c:	f7ff f8cb 	bl	247e6 <_start+0x5aa>
   25650:	00001404 	.word	0x00001404
   25654:	00000700 	.word	0x00000700
   25658:	000013a8 	.word	0x000013a8
   2565c:	4915      	ldr	r1, [pc, #84]	@ (256b4 <_start+0x1478>)
   2565e:	4469      	add	r1, sp
   25660:	9d08      	ldr	r5, [sp, #32]
   25662:	6f28      	ldr	r0, [r5, #112]	@ 0x70
   25664:	7308      	strb	r0, [r1, #12]
   25666:	4814      	ldr	r0, [pc, #80]	@ (256b8 <_start+0x147c>)
   25668:	4468      	add	r0, sp
   2566a:	78c2      	ldrb	r2, [r0, #3]
   2566c:	4c13      	ldr	r4, [pc, #76]	@ (256bc <_start+0x1480>)
   2566e:	446c      	add	r4, sp
   25670:	70a2      	strb	r2, [r4, #2]
   25672:	7842      	ldrb	r2, [r0, #1]
   25674:	7880      	ldrb	r0, [r0, #2]
   25676:	0200      	lsls	r0, r0, #8
   25678:	1880      	adds	r0, r0, r2
   2567a:	8020      	strh	r0, [r4, #0]
   2567c:	6e28      	ldr	r0, [r5, #96]	@ 0x60
   2567e:	70e0      	strb	r0, [r4, #3]
   25680:	0e02      	lsrs	r2, r0, #24
   25682:	71a2      	strb	r2, [r4, #6]
   25684:	0c02      	lsrs	r2, r0, #16
   25686:	7162      	strb	r2, [r4, #5]
   25688:	0a00      	lsrs	r0, r0, #8
   2568a:	7120      	strb	r0, [r4, #4]
   2568c:	462b      	mov	r3, r5
   2568e:	3364      	adds	r3, #100	@ 0x64
   25690:	cb0d      	ldmia	r3, {r0, r2, r3}
   25692:	c50d      	stmia	r5!, {r0, r2, r3}
   25694:	1de0      	adds	r0, r4, #7
   25696:	220d      	movs	r2, #13
   25698:	f001 fe01 	bl	2729e <__aeabi_memcpy>
   2569c:	4d06      	ldr	r5, [pc, #24]	@ (256b8 <_start+0x147c>)
   2569e:	446d      	add	r5, sp
   256a0:	4628      	mov	r0, r5
   256a2:	4621      	mov	r1, r4
   256a4:	f7fe fb04 	bl	23cb0 <_ZN20complex_full_dynamic3app17hef7b1adc16400693E>
   256a8:	7828      	ldrb	r0, [r5, #0]
   256aa:	2801      	cmp	r0, #1
   256ac:	d108      	bne.n	256c0 <_start+0x1484>
   256ae:	f7ff f89a 	bl	247e6 <_start+0x5aa>
   256b2:	46c0      	nop			@ (mov r8, r8)
   256b4:	000013a8 	.word	0x000013a8
   256b8:	00001404 	.word	0x00001404
   256bc:	00000728 	.word	0x00000728
   256c0:	4816      	ldr	r0, [pc, #88]	@ (2571c <_start+0x14e0>)
   256c2:	4468      	add	r0, sp
   256c4:	78c1      	ldrb	r1, [r0, #3]
   256c6:	4c16      	ldr	r4, [pc, #88]	@ (25720 <_start+0x14e4>)
   256c8:	446c      	add	r4, sp
   256ca:	70a1      	strb	r1, [r4, #2]
   256cc:	7841      	ldrb	r1, [r0, #1]
   256ce:	7882      	ldrb	r2, [r0, #2]
   256d0:	0212      	lsls	r2, r2, #8
   256d2:	1851      	adds	r1, r2, r1
   256d4:	8021      	strh	r1, [r4, #0]
   256d6:	3008      	adds	r0, #8
   256d8:	9908      	ldr	r1, [sp, #32]
   256da:	6e09      	ldr	r1, [r1, #96]	@ 0x60
   256dc:	4b11      	ldr	r3, [pc, #68]	@ (25724 <_start+0x14e8>)
   256de:	446b      	add	r3, sp
   256e0:	930b      	str	r3, [sp, #44]	@ 0x2c
   256e2:	c864      	ldmia	r0!, {r2, r5, r6}
   256e4:	c364      	stmia	r3!, {r2, r5, r6}
   256e6:	c864      	ldmia	r0!, {r2, r5, r6}
   256e8:	c364      	stmia	r3!, {r2, r5, r6}
   256ea:	c864      	ldmia	r0!, {r2, r5, r6}
   256ec:	c364      	stmia	r3!, {r2, r5, r6}
   256ee:	0e08      	lsrs	r0, r1, #24
   256f0:	71a0      	strb	r0, [r4, #6]
   256f2:	0c08      	lsrs	r0, r1, #16
   256f4:	7160      	strb	r0, [r4, #5]
   256f6:	0a08      	lsrs	r0, r1, #8
   256f8:	7120      	strb	r0, [r4, #4]
   256fa:	70e1      	strb	r1, [r4, #3]
   256fc:	1de0      	adds	r0, r4, #7
   256fe:	2224      	movs	r2, #36	@ 0x24
   25700:	990b      	ldr	r1, [sp, #44]	@ 0x2c
   25702:	f001 fdcc 	bl	2729e <__aeabi_memcpy>
   25706:	4d05      	ldr	r5, [pc, #20]	@ (2571c <_start+0x14e0>)
   25708:	446d      	add	r5, sp
   2570a:	4628      	mov	r0, r5
   2570c:	4621      	mov	r1, r4
   2570e:	f7fb fb87 	bl	20e20 <_ZN20complex_full_dynamic3app17h2df2343b561076ebE>
   25712:	7828      	ldrb	r0, [r5, #0]
   25714:	2801      	cmp	r0, #1
   25716:	d107      	bne.n	25728 <_start+0x14ec>
   25718:	f7ff f865 	bl	247e6 <_start+0x5aa>
   2571c:	00001404 	.word	0x00001404
   25720:	0000073c 	.word	0x0000073c
   25724:	000013a8 	.word	0x000013a8
   25728:	4817      	ldr	r0, [pc, #92]	@ (25788 <_start+0x154c>)
   2572a:	4468      	add	r0, sp
   2572c:	78c1      	ldrb	r1, [r0, #3]
   2572e:	4c17      	ldr	r4, [pc, #92]	@ (2578c <_start+0x1550>)
   25730:	446c      	add	r4, sp
   25732:	70a1      	strb	r1, [r4, #2]
   25734:	7841      	ldrb	r1, [r0, #1]
   25736:	7882      	ldrb	r2, [r0, #2]
   25738:	0212      	lsls	r2, r2, #8
   2573a:	1851      	adds	r1, r2, r1
   2573c:	8021      	strh	r1, [r4, #0]
   2573e:	3008      	adds	r0, #8
   25740:	9908      	ldr	r1, [sp, #32]
   25742:	6e09      	ldr	r1, [r1, #96]	@ 0x60
   25744:	4b12      	ldr	r3, [pc, #72]	@ (25790 <_start+0x1554>)
   25746:	446b      	add	r3, sp
   25748:	930b      	str	r3, [sp, #44]	@ 0x2c
   2574a:	c860      	ldmia	r0!, {r5, r6}
   2574c:	c360      	stmia	r3!, {r5, r6}
   2574e:	c864      	ldmia	r0!, {r2, r5, r6}
   25750:	c364      	stmia	r3!, {r2, r5, r6}
   25752:	8802      	ldrh	r2, [r0, #0]
   25754:	801a      	strh	r2, [r3, #0]
   25756:	7880      	ldrb	r0, [r0, #2]
   25758:	7098      	strb	r0, [r3, #2]
   2575a:	0e08      	lsrs	r0, r1, #24
   2575c:	71a0      	strb	r0, [r4, #6]
   2575e:	0c08      	lsrs	r0, r1, #16
   25760:	7160      	strb	r0, [r4, #5]
   25762:	0a08      	lsrs	r0, r1, #8
   25764:	7120      	strb	r0, [r4, #4]
   25766:	70e1      	strb	r1, [r4, #3]
   25768:	1de0      	adds	r0, r4, #7
   2576a:	2217      	movs	r2, #23
   2576c:	990b      	ldr	r1, [sp, #44]	@ 0x2c
   2576e:	f001 fd96 	bl	2729e <__aeabi_memcpy>
   25772:	4d05      	ldr	r5, [pc, #20]	@ (25788 <_start+0x154c>)
   25774:	446d      	add	r5, sp
   25776:	4628      	mov	r0, r5
   25778:	4621      	mov	r1, r4
   2577a:	f7fc fdbd 	bl	222f8 <_ZN20complex_full_dynamic3app17h85f7e80fe2612d3fE>
   2577e:	7828      	ldrb	r0, [r5, #0]
   25780:	2801      	cmp	r0, #1
   25782:	d107      	bne.n	25794 <_start+0x1558>
   25784:	f7ff f82f 	bl	247e6 <_start+0x5aa>
   25788:	00001404 	.word	0x00001404
   2578c:	00000768 	.word	0x00000768
   25790:	000013a8 	.word	0x000013a8
   25794:	4915      	ldr	r1, [pc, #84]	@ (257ec <_start+0x15b0>)
   25796:	4469      	add	r1, sp
   25798:	78c8      	ldrb	r0, [r1, #3]
   2579a:	4c15      	ldr	r4, [pc, #84]	@ (257f0 <_start+0x15b4>)
   2579c:	446c      	add	r4, sp
   2579e:	70a0      	strb	r0, [r4, #2]
   257a0:	7848      	ldrb	r0, [r1, #1]
   257a2:	788a      	ldrb	r2, [r1, #2]
   257a4:	0212      	lsls	r2, r2, #8
   257a6:	1810      	adds	r0, r2, r0
   257a8:	8020      	strh	r0, [r4, #0]
   257aa:	9808      	ldr	r0, [sp, #32]
   257ac:	6e05      	ldr	r5, [r0, #96]	@ 0x60
   257ae:	3108      	adds	r1, #8
   257b0:	4810      	ldr	r0, [pc, #64]	@ (257f4 <_start+0x15b8>)
   257b2:	4468      	add	r0, sp
   257b4:	900b      	str	r0, [sp, #44]	@ 0x2c
   257b6:	264a      	movs	r6, #74	@ 0x4a
   257b8:	4632      	mov	r2, r6
   257ba:	f001 fc10 	bl	26fde <__aeabi_memcpy4>
   257be:	0e28      	lsrs	r0, r5, #24
   257c0:	71a0      	strb	r0, [r4, #6]
   257c2:	0c28      	lsrs	r0, r5, #16
   257c4:	7160      	strb	r0, [r4, #5]
   257c6:	0a28      	lsrs	r0, r5, #8
   257c8:	7120      	strb	r0, [r4, #4]
   257ca:	70e5      	strb	r5, [r4, #3]
   257cc:	1de0      	adds	r0, r4, #7
   257ce:	990b      	ldr	r1, [sp, #44]	@ 0x2c
   257d0:	4632      	mov	r2, r6
   257d2:	f001 fd64 	bl	2729e <__aeabi_memcpy>
   257d6:	4d05      	ldr	r5, [pc, #20]	@ (257ec <_start+0x15b0>)
   257d8:	446d      	add	r5, sp
   257da:	4628      	mov	r0, r5
   257dc:	4621      	mov	r1, r4
   257de:	f7fb fde5 	bl	213ac <_ZN20complex_full_dynamic3app17h3cd5e82d4d05647fE>
   257e2:	7828      	ldrb	r0, [r5, #0]
   257e4:	2801      	cmp	r0, #1
   257e6:	d107      	bne.n	257f8 <_start+0x15bc>
   257e8:	f7fe fffd 	bl	247e6 <_start+0x5aa>
   257ec:	00001404 	.word	0x00001404
   257f0:	00000788 	.word	0x00000788
   257f4:	000013a8 	.word	0x000013a8
   257f8:	9805      	ldr	r0, [sp, #20]
   257fa:	1cc0      	adds	r0, r0, #3
   257fc:	4a16      	ldr	r2, [pc, #88]	@ (25858 <_start+0x161c>)
   257fe:	446a      	add	r2, sp
   25800:	78d3      	ldrb	r3, [r2, #3]
   25802:	4916      	ldr	r1, [pc, #88]	@ (2585c <_start+0x1620>)
   25804:	4469      	add	r1, sp
   25806:	708b      	strb	r3, [r1, #2]
   25808:	7853      	ldrb	r3, [r2, #1]
   2580a:	7892      	ldrb	r2, [r2, #2]
   2580c:	0212      	lsls	r2, r2, #8
   2580e:	18d2      	adds	r2, r2, r3
   25810:	800a      	strh	r2, [r1, #0]
   25812:	9c08      	ldr	r4, [sp, #32]
   25814:	3460      	adds	r4, #96	@ 0x60
   25816:	cc1c      	ldmia	r4, {r2, r3, r4}
   25818:	0e25      	lsrs	r5, r4, #24
   2581a:	72c5      	strb	r5, [r0, #11]
   2581c:	0c25      	lsrs	r5, r4, #16
   2581e:	7285      	strb	r5, [r0, #10]
   25820:	0a25      	lsrs	r5, r4, #8
   25822:	7245      	strb	r5, [r0, #9]
   25824:	7204      	strb	r4, [r0, #8]
   25826:	0e1c      	lsrs	r4, r3, #24
   25828:	71c4      	strb	r4, [r0, #7]
   2582a:	0c1c      	lsrs	r4, r3, #16
   2582c:	7184      	strb	r4, [r0, #6]
   2582e:	0a1c      	lsrs	r4, r3, #8
   25830:	7144      	strb	r4, [r0, #5]
   25832:	7103      	strb	r3, [r0, #4]
   25834:	0e13      	lsrs	r3, r2, #24
   25836:	70c3      	strb	r3, [r0, #3]
   25838:	0c13      	lsrs	r3, r2, #16
   2583a:	7083      	strb	r3, [r0, #2]
   2583c:	0a13      	lsrs	r3, r2, #8
   2583e:	7043      	strb	r3, [r0, #1]
   25840:	7002      	strb	r2, [r0, #0]
   25842:	4c05      	ldr	r4, [pc, #20]	@ (25858 <_start+0x161c>)
   25844:	446c      	add	r4, sp
   25846:	4620      	mov	r0, r4
   25848:	f7fc f984 	bl	21b54 <_ZN20complex_full_dynamic3app17h62ff7959807de2daE>
   2584c:	7820      	ldrb	r0, [r4, #0]
   2584e:	2801      	cmp	r0, #1
   25850:	d106      	bne.n	25860 <_start+0x1624>
   25852:	f7fe ffc8 	bl	247e6 <_start+0x5aa>
   25856:	46c0      	nop			@ (mov r8, r8)
   25858:	00001404 	.word	0x00001404
   2585c:	000007dc 	.word	0x000007dc
   25860:	481a      	ldr	r0, [pc, #104]	@ (258cc <_start+0x1690>)
   25862:	4468      	add	r0, sp
   25864:	78c1      	ldrb	r1, [r0, #3]
   25866:	4c1a      	ldr	r4, [pc, #104]	@ (258d0 <_start+0x1694>)
   25868:	446c      	add	r4, sp
   2586a:	70a1      	strb	r1, [r4, #2]
   2586c:	7841      	ldrb	r1, [r0, #1]
   2586e:	7882      	ldrb	r2, [r0, #2]
   25870:	0212      	lsls	r2, r2, #8
   25872:	1851      	adds	r1, r2, r1
   25874:	8021      	strh	r1, [r4, #0]
   25876:	3008      	adds	r0, #8
   25878:	9908      	ldr	r1, [sp, #32]
   2587a:	6e09      	ldr	r1, [r1, #96]	@ 0x60
   2587c:	910a      	str	r1, [sp, #40]	@ 0x28
   2587e:	4b15      	ldr	r3, [pc, #84]	@ (258d4 <_start+0x1698>)
   25880:	446b      	add	r3, sp
   25882:	930b      	str	r3, [sp, #44]	@ 0x2c
   25884:	c864      	ldmia	r0!, {r2, r5, r6}
   25886:	c364      	stmia	r3!, {r2, r5, r6}
   25888:	c866      	ldmia	r0!, {r1, r2, r5, r6}
   2588a:	c366      	stmia	r3!, {r1, r2, r5, r6}
   2588c:	c866      	ldmia	r0!, {r1, r2, r5, r6}
   2588e:	c366      	stmia	r3!, {r1, r2, r5, r6}
   25890:	c866      	ldmia	r0!, {r1, r2, r5, r6}
   25892:	c366      	stmia	r3!, {r1, r2, r5, r6}
   25894:	8801      	ldrh	r1, [r0, #0]
   25896:	8019      	strh	r1, [r3, #0]
   25898:	7880      	ldrb	r0, [r0, #2]
   2589a:	7098      	strb	r0, [r3, #2]
   2589c:	990a      	ldr	r1, [sp, #40]	@ 0x28
   2589e:	0e08      	lsrs	r0, r1, #24
   258a0:	71a0      	strb	r0, [r4, #6]
   258a2:	0c08      	lsrs	r0, r1, #16
   258a4:	7160      	strb	r0, [r4, #5]
   258a6:	0a08      	lsrs	r0, r1, #8
   258a8:	7120      	strb	r0, [r4, #4]
   258aa:	70e1      	strb	r1, [r4, #3]
   258ac:	1de0      	adds	r0, r4, #7
   258ae:	223f      	movs	r2, #63	@ 0x3f
   258b0:	990b      	ldr	r1, [sp, #44]	@ 0x2c
   258b2:	f001 fcf4 	bl	2729e <__aeabi_memcpy>
   258b6:	4d05      	ldr	r5, [pc, #20]	@ (258cc <_start+0x1690>)
   258b8:	446d      	add	r5, sp
   258ba:	4628      	mov	r0, r5
   258bc:	4621      	mov	r1, r4
   258be:	f7fd f837 	bl	22930 <_ZN20complex_full_dynamic3app17ha77bfe84dae9010bE>
   258c2:	7828      	ldrb	r0, [r5, #0]
   258c4:	2801      	cmp	r0, #1
   258c6:	d107      	bne.n	258d8 <_start+0x169c>
   258c8:	f7fe ff8d 	bl	247e6 <_start+0x5aa>
   258cc:	00001404 	.word	0x00001404
   258d0:	000007ec 	.word	0x000007ec
   258d4:	000013a8 	.word	0x000013a8
   258d8:	4915      	ldr	r1, [pc, #84]	@ (25930 <_start+0x16f4>)
   258da:	4469      	add	r1, sp
   258dc:	78c8      	ldrb	r0, [r1, #3]
   258de:	4c15      	ldr	r4, [pc, #84]	@ (25934 <_start+0x16f8>)
   258e0:	446c      	add	r4, sp
   258e2:	70a0      	strb	r0, [r4, #2]
   258e4:	7848      	ldrb	r0, [r1, #1]
   258e6:	788a      	ldrb	r2, [r1, #2]
   258e8:	0212      	lsls	r2, r2, #8
   258ea:	1810      	adds	r0, r2, r0
   258ec:	8020      	strh	r0, [r4, #0]
   258ee:	9808      	ldr	r0, [sp, #32]
   258f0:	6e05      	ldr	r5, [r0, #96]	@ 0x60
   258f2:	3108      	adds	r1, #8
   258f4:	4810      	ldr	r0, [pc, #64]	@ (25938 <_start+0x16fc>)
   258f6:	4468      	add	r0, sp
   258f8:	900b      	str	r0, [sp, #44]	@ 0x2c
   258fa:	264f      	movs	r6, #79	@ 0x4f
   258fc:	4632      	mov	r2, r6
   258fe:	f001 fb6e 	bl	26fde <__aeabi_memcpy4>
   25902:	0e28      	lsrs	r0, r5, #24
   25904:	71a0      	strb	r0, [r4, #6]
   25906:	0c28      	lsrs	r0, r5, #16
   25908:	7160      	strb	r0, [r4, #5]
   2590a:	0a28      	lsrs	r0, r5, #8
   2590c:	7120      	strb	r0, [r4, #4]
   2590e:	70e5      	strb	r5, [r4, #3]
   25910:	1de0      	adds	r0, r4, #7
   25912:	990b      	ldr	r1, [sp, #44]	@ 0x2c
   25914:	4632      	mov	r2, r6
   25916:	f001 fcc2 	bl	2729e <__aeabi_memcpy>
   2591a:	4d05      	ldr	r5, [pc, #20]	@ (25930 <_start+0x16f4>)
   2591c:	446d      	add	r5, sp
   2591e:	4628      	mov	r0, r5
   25920:	4621      	mov	r1, r4
   25922:	f7fe fbd9 	bl	240d8 <_ZN20complex_full_dynamic3app17hfd4a226f1fe8d4b1E>
   25926:	7828      	ldrb	r0, [r5, #0]
   25928:	2801      	cmp	r0, #1
   2592a:	d107      	bne.n	2593c <_start+0x1700>
   2592c:	f7fe ff5b 	bl	247e6 <_start+0x5aa>
   25930:	00001404 	.word	0x00001404
   25934:	00000834 	.word	0x00000834
   25938:	000013a8 	.word	0x000013a8
   2593c:	4915      	ldr	r1, [pc, #84]	@ (25994 <_start+0x1758>)
   2593e:	4469      	add	r1, sp
   25940:	78c8      	ldrb	r0, [r1, #3]
   25942:	4c15      	ldr	r4, [pc, #84]	@ (25998 <_start+0x175c>)
   25944:	446c      	add	r4, sp
   25946:	70a0      	strb	r0, [r4, #2]
   25948:	7848      	ldrb	r0, [r1, #1]
   2594a:	788a      	ldrb	r2, [r1, #2]
   2594c:	0212      	lsls	r2, r2, #8
   2594e:	1810      	adds	r0, r2, r0
   25950:	8020      	strh	r0, [r4, #0]
   25952:	9808      	ldr	r0, [sp, #32]
   25954:	6e05      	ldr	r5, [r0, #96]	@ 0x60
   25956:	3108      	adds	r1, #8
   25958:	4810      	ldr	r0, [pc, #64]	@ (2599c <_start+0x1760>)
   2595a:	4468      	add	r0, sp
   2595c:	900b      	str	r0, [sp, #44]	@ 0x2c
   2595e:	2642      	movs	r6, #66	@ 0x42
   25960:	4632      	mov	r2, r6
   25962:	f001 fb3c 	bl	26fde <__aeabi_memcpy4>
   25966:	0e28      	lsrs	r0, r5, #24
   25968:	71a0      	strb	r0, [r4, #6]
   2596a:	0c28      	lsrs	r0, r5, #16
   2596c:	7160      	strb	r0, [r4, #5]
   2596e:	0a28      	lsrs	r0, r5, #8
   25970:	7120      	strb	r0, [r4, #4]
   25972:	70e5      	strb	r5, [r4, #3]
   25974:	1de0      	adds	r0, r4, #7
   25976:	990b      	ldr	r1, [sp, #44]	@ 0x2c
   25978:	4632      	mov	r2, r6
   2597a:	f001 fc90 	bl	2729e <__aeabi_memcpy>
   2597e:	4d05      	ldr	r5, [pc, #20]	@ (25994 <_start+0x1758>)
   25980:	446d      	add	r5, sp
   25982:	4628      	mov	r0, r5
   25984:	4621      	mov	r1, r4
   25986:	f7fd ffd7 	bl	23938 <_ZN20complex_full_dynamic3app17hdde2370c799fa580E>
   2598a:	7828      	ldrb	r0, [r5, #0]
   2598c:	2801      	cmp	r0, #1
   2598e:	d107      	bne.n	259a0 <_start+0x1764>
   25990:	f7fe ff29 	bl	247e6 <_start+0x5aa>
   25994:	00001404 	.word	0x00001404
   25998:	0000088c 	.word	0x0000088c
   2599c:	000013a8 	.word	0x000013a8
   259a0:	4816      	ldr	r0, [pc, #88]	@ (259fc <_start+0x17c0>)
   259a2:	4468      	add	r0, sp
   259a4:	78c1      	ldrb	r1, [r0, #3]
   259a6:	4c16      	ldr	r4, [pc, #88]	@ (25a00 <_start+0x17c4>)
   259a8:	446c      	add	r4, sp
   259aa:	70a1      	strb	r1, [r4, #2]
   259ac:	7841      	ldrb	r1, [r0, #1]
   259ae:	7882      	ldrb	r2, [r0, #2]
   259b0:	0212      	lsls	r2, r2, #8
   259b2:	1851      	adds	r1, r2, r1
   259b4:	8021      	strh	r1, [r4, #0]
   259b6:	3008      	adds	r0, #8
   259b8:	9908      	ldr	r1, [sp, #32]
   259ba:	6e09      	ldr	r1, [r1, #96]	@ 0x60
   259bc:	910a      	str	r1, [sp, #40]	@ 0x28
   259be:	4b11      	ldr	r3, [pc, #68]	@ (25a04 <_start+0x17c8>)
   259c0:	446b      	add	r3, sp
   259c2:	930b      	str	r3, [sp, #44]	@ 0x2c
   259c4:	c864      	ldmia	r0!, {r2, r5, r6}
   259c6:	c364      	stmia	r3!, {r2, r5, r6}
   259c8:	c866      	ldmia	r0!, {r1, r2, r5, r6}
   259ca:	c366      	stmia	r3!, {r1, r2, r5, r6}
   259cc:	990a      	ldr	r1, [sp, #40]	@ 0x28
   259ce:	0e08      	lsrs	r0, r1, #24
   259d0:	71a0      	strb	r0, [r4, #6]
   259d2:	0c08      	lsrs	r0, r1, #16
   259d4:	7160      	strb	r0, [r4, #5]
   259d6:	0a08      	lsrs	r0, r1, #8
   259d8:	7120      	strb	r0, [r4, #4]
   259da:	70e1      	strb	r1, [r4, #3]
   259dc:	1de0      	adds	r0, r4, #7
   259de:	221c      	movs	r2, #28
   259e0:	990b      	ldr	r1, [sp, #44]	@ 0x2c
   259e2:	f001 fc5c 	bl	2729e <__aeabi_memcpy>
   259e6:	4d05      	ldr	r5, [pc, #20]	@ (259fc <_start+0x17c0>)
   259e8:	446d      	add	r5, sp
   259ea:	4628      	mov	r0, r5
   259ec:	4621      	mov	r1, r4
   259ee:	f7fd f8a9 	bl	22b44 <_ZN20complex_full_dynamic3app17hb4e19de41fa2631cE>
   259f2:	7828      	ldrb	r0, [r5, #0]
   259f4:	2801      	cmp	r0, #1
   259f6:	d107      	bne.n	25a08 <_start+0x17cc>
   259f8:	f7fe fef5 	bl	247e6 <_start+0x5aa>
   259fc:	00001404 	.word	0x00001404
   25a00:	000008d8 	.word	0x000008d8
   25a04:	000013a8 	.word	0x000013a8
   25a08:	4816      	ldr	r0, [pc, #88]	@ (25a64 <_start+0x1828>)
   25a0a:	4468      	add	r0, sp
   25a0c:	78c1      	ldrb	r1, [r0, #3]
   25a0e:	4c16      	ldr	r4, [pc, #88]	@ (25a68 <_start+0x182c>)
   25a10:	446c      	add	r4, sp
   25a12:	70a1      	strb	r1, [r4, #2]
   25a14:	7841      	ldrb	r1, [r0, #1]
   25a16:	7882      	ldrb	r2, [r0, #2]
   25a18:	0212      	lsls	r2, r2, #8
   25a1a:	1851      	adds	r1, r2, r1
   25a1c:	8021      	strh	r1, [r4, #0]
   25a1e:	3008      	adds	r0, #8
   25a20:	9908      	ldr	r1, [sp, #32]
   25a22:	6e09      	ldr	r1, [r1, #96]	@ 0x60
   25a24:	4b11      	ldr	r3, [pc, #68]	@ (25a6c <_start+0x1830>)
   25a26:	446b      	add	r3, sp
   25a28:	930b      	str	r3, [sp, #44]	@ 0x2c
   25a2a:	c864      	ldmia	r0!, {r2, r5, r6}
   25a2c:	c364      	stmia	r3!, {r2, r5, r6}
   25a2e:	c864      	ldmia	r0!, {r2, r5, r6}
   25a30:	c364      	stmia	r3!, {r2, r5, r6}
   25a32:	c864      	ldmia	r0!, {r2, r5, r6}
   25a34:	c364      	stmia	r3!, {r2, r5, r6}
   25a36:	0e08      	lsrs	r0, r1, #24
   25a38:	71a0      	strb	r0, [r4, #6]
   25a3a:	0c08      	lsrs	r0, r1, #16
   25a3c:	7160      	strb	r0, [r4, #5]
   25a3e:	0a08      	lsrs	r0, r1, #8
   25a40:	7120      	strb	r0, [r4, #4]
   25a42:	70e1      	strb	r1, [r4, #3]
   25a44:	1de0      	adds	r0, r4, #7
   25a46:	2224      	movs	r2, #36	@ 0x24
   25a48:	990b      	ldr	r1, [sp, #44]	@ 0x2c
   25a4a:	f001 fc28 	bl	2729e <__aeabi_memcpy>
   25a4e:	4d05      	ldr	r5, [pc, #20]	@ (25a64 <_start+0x1828>)
   25a50:	446d      	add	r5, sp
   25a52:	4628      	mov	r0, r5
   25a54:	4621      	mov	r1, r4
   25a56:	f7fa fec1 	bl	207dc <_ZN20complex_full_dynamic3app17h1fa9df6f88abc66eE>
   25a5a:	7828      	ldrb	r0, [r5, #0]
   25a5c:	2801      	cmp	r0, #1
   25a5e:	d107      	bne.n	25a70 <_start+0x1834>
   25a60:	f7fe fec1 	bl	247e6 <_start+0x5aa>
   25a64:	00001404 	.word	0x00001404
   25a68:	000008fc 	.word	0x000008fc
   25a6c:	000013a8 	.word	0x000013a8
   25a70:	4914      	ldr	r1, [pc, #80]	@ (25ac4 <_start+0x1888>)
   25a72:	4469      	add	r1, sp
   25a74:	9b08      	ldr	r3, [sp, #32]
   25a76:	6e98      	ldr	r0, [r3, #104]	@ 0x68
   25a78:	8088      	strh	r0, [r1, #4]
   25a7a:	4813      	ldr	r0, [pc, #76]	@ (25ac8 <_start+0x188c>)
   25a7c:	4468      	add	r0, sp
   25a7e:	78c2      	ldrb	r2, [r0, #3]
   25a80:	4c12      	ldr	r4, [pc, #72]	@ (25acc <_start+0x1890>)
   25a82:	446c      	add	r4, sp
   25a84:	70a2      	strb	r2, [r4, #2]
   25a86:	7842      	ldrb	r2, [r0, #1]
   25a88:	7880      	ldrb	r0, [r0, #2]
   25a8a:	0200      	lsls	r0, r0, #8
   25a8c:	1880      	adds	r0, r0, r2
   25a8e:	8020      	strh	r0, [r4, #0]
   25a90:	6e18      	ldr	r0, [r3, #96]	@ 0x60
   25a92:	70e0      	strb	r0, [r4, #3]
   25a94:	0e02      	lsrs	r2, r0, #24
   25a96:	71a2      	strb	r2, [r4, #6]
   25a98:	0c02      	lsrs	r2, r0, #16
   25a9a:	7162      	strb	r2, [r4, #5]
   25a9c:	0a00      	lsrs	r0, r0, #8
   25a9e:	7120      	strb	r0, [r4, #4]
   25aa0:	6e58      	ldr	r0, [r3, #100]	@ 0x64
   25aa2:	6018      	str	r0, [r3, #0]
   25aa4:	1de0      	adds	r0, r4, #7
   25aa6:	2206      	movs	r2, #6
   25aa8:	f001 fbf9 	bl	2729e <__aeabi_memcpy>
   25aac:	4d06      	ldr	r5, [pc, #24]	@ (25ac8 <_start+0x188c>)
   25aae:	446d      	add	r5, sp
   25ab0:	4628      	mov	r0, r5
   25ab2:	4621      	mov	r1, r4
   25ab4:	f7fc fc78 	bl	223a8 <_ZN20complex_full_dynamic3app17h863033e029ef127aE>
   25ab8:	7828      	ldrb	r0, [r5, #0]
   25aba:	2801      	cmp	r0, #1
   25abc:	d108      	bne.n	25ad0 <_start+0x1894>
   25abe:	f7fe fe92 	bl	247e6 <_start+0x5aa>
   25ac2:	46c0      	nop			@ (mov r8, r8)
   25ac4:	000013a8 	.word	0x000013a8
   25ac8:	00001404 	.word	0x00001404
   25acc:	00000928 	.word	0x00000928
   25ad0:	4816      	ldr	r0, [pc, #88]	@ (25b2c <_start+0x18f0>)
   25ad2:	4468      	add	r0, sp
   25ad4:	78c1      	ldrb	r1, [r0, #3]
   25ad6:	4c16      	ldr	r4, [pc, #88]	@ (25b30 <_start+0x18f4>)
   25ad8:	446c      	add	r4, sp
   25ada:	70a1      	strb	r1, [r4, #2]
   25adc:	7841      	ldrb	r1, [r0, #1]
   25ade:	7882      	ldrb	r2, [r0, #2]
   25ae0:	0212      	lsls	r2, r2, #8
   25ae2:	1851      	adds	r1, r2, r1
   25ae4:	8021      	strh	r1, [r4, #0]
   25ae6:	3008      	adds	r0, #8
   25ae8:	9908      	ldr	r1, [sp, #32]
   25aea:	6e09      	ldr	r1, [r1, #96]	@ 0x60
   25aec:	4b11      	ldr	r3, [pc, #68]	@ (25b34 <_start+0x18f8>)
   25aee:	446b      	add	r3, sp
   25af0:	930b      	str	r3, [sp, #44]	@ 0x2c
   25af2:	c864      	ldmia	r0!, {r2, r5, r6}
   25af4:	c364      	stmia	r3!, {r2, r5, r6}
   25af6:	c864      	ldmia	r0!, {r2, r5, r6}
   25af8:	c364      	stmia	r3!, {r2, r5, r6}
   25afa:	8800      	ldrh	r0, [r0, #0]
   25afc:	8018      	strh	r0, [r3, #0]
   25afe:	0e08      	lsrs	r0, r1, #24
   25b00:	71a0      	strb	r0, [r4, #6]
   25b02:	0c08      	lsrs	r0, r1, #16
   25b04:	7160      	strb	r0, [r4, #5]
   25b06:	0a08      	lsrs	r0, r1, #8
   25b08:	7120      	strb	r0, [r4, #4]
   25b0a:	70e1      	strb	r1, [r4, #3]
   25b0c:	1de0      	adds	r0, r4, #7
   25b0e:	221a      	movs	r2, #26
   25b10:	990b      	ldr	r1, [sp, #44]	@ 0x2c
   25b12:	f001 fbc4 	bl	2729e <__aeabi_memcpy>
   25b16:	4d05      	ldr	r5, [pc, #20]	@ (25b2c <_start+0x18f0>)
   25b18:	446d      	add	r5, sp
   25b1a:	4628      	mov	r0, r5
   25b1c:	4621      	mov	r1, r4
   25b1e:	f7fa fdad 	bl	2067c <_ZN20complex_full_dynamic3app17h1bbadb7fc13c4f24E>
   25b22:	7828      	ldrb	r0, [r5, #0]
   25b24:	2801      	cmp	r0, #1
   25b26:	d107      	bne.n	25b38 <_start+0x18fc>
   25b28:	f7fe fe5d 	bl	247e6 <_start+0x5aa>
   25b2c:	00001404 	.word	0x00001404
   25b30:	00000938 	.word	0x00000938
   25b34:	000013a8 	.word	0x000013a8
   25b38:	4915      	ldr	r1, [pc, #84]	@ (25b90 <_start+0x1954>)
   25b3a:	4469      	add	r1, sp
   25b3c:	78c8      	ldrb	r0, [r1, #3]
   25b3e:	4c15      	ldr	r4, [pc, #84]	@ (25b94 <_start+0x1958>)
   25b40:	446c      	add	r4, sp
   25b42:	70a0      	strb	r0, [r4, #2]
   25b44:	7848      	ldrb	r0, [r1, #1]
   25b46:	788a      	ldrb	r2, [r1, #2]
   25b48:	0212      	lsls	r2, r2, #8
   25b4a:	1810      	adds	r0, r2, r0
   25b4c:	8020      	strh	r0, [r4, #0]
   25b4e:	9808      	ldr	r0, [sp, #32]
   25b50:	6e05      	ldr	r5, [r0, #96]	@ 0x60
   25b52:	3108      	adds	r1, #8
   25b54:	4810      	ldr	r0, [pc, #64]	@ (25b98 <_start+0x195c>)
   25b56:	4468      	add	r0, sp
   25b58:	900b      	str	r0, [sp, #44]	@ 0x2c
   25b5a:	264c      	movs	r6, #76	@ 0x4c
   25b5c:	4632      	mov	r2, r6
   25b5e:	f001 fa3e 	bl	26fde <__aeabi_memcpy4>
   25b62:	0e28      	lsrs	r0, r5, #24
   25b64:	71a0      	strb	r0, [r4, #6]
   25b66:	0c28      	lsrs	r0, r5, #16
   25b68:	7160      	strb	r0, [r4, #5]
   25b6a:	0a28      	lsrs	r0, r5, #8
   25b6c:	7120      	strb	r0, [r4, #4]
   25b6e:	70e5      	strb	r5, [r4, #3]
   25b70:	1de0      	adds	r0, r4, #7
   25b72:	990b      	ldr	r1, [sp, #44]	@ 0x2c
   25b74:	4632      	mov	r2, r6
   25b76:	f001 fb92 	bl	2729e <__aeabi_memcpy>
   25b7a:	4d05      	ldr	r5, [pc, #20]	@ (25b90 <_start+0x1954>)
   25b7c:	446d      	add	r5, sp
   25b7e:	4628      	mov	r0, r5
   25b80:	4621      	mov	r1, r4
   25b82:	f7fc ff2d 	bl	229e0 <_ZN20complex_full_dynamic3app17hae0d4cc3e607abd9E>
   25b86:	7828      	ldrb	r0, [r5, #0]
   25b88:	2801      	cmp	r0, #1
   25b8a:	d107      	bne.n	25b9c <_start+0x1960>
   25b8c:	f7fe fe2b 	bl	247e6 <_start+0x5aa>
   25b90:	00001404 	.word	0x00001404
   25b94:	0000095c 	.word	0x0000095c
   25b98:	000013a8 	.word	0x000013a8
   25b9c:	4915      	ldr	r1, [pc, #84]	@ (25bf4 <_start+0x19b8>)
   25b9e:	4469      	add	r1, sp
   25ba0:	78c8      	ldrb	r0, [r1, #3]
   25ba2:	4c15      	ldr	r4, [pc, #84]	@ (25bf8 <_start+0x19bc>)
   25ba4:	446c      	add	r4, sp
   25ba6:	70a0      	strb	r0, [r4, #2]
   25ba8:	7848      	ldrb	r0, [r1, #1]
   25baa:	788a      	ldrb	r2, [r1, #2]
   25bac:	0212      	lsls	r2, r2, #8
   25bae:	1810      	adds	r0, r2, r0
   25bb0:	8020      	strh	r0, [r4, #0]
   25bb2:	9808      	ldr	r0, [sp, #32]
   25bb4:	6e05      	ldr	r5, [r0, #96]	@ 0x60
   25bb6:	3108      	adds	r1, #8
   25bb8:	4810      	ldr	r0, [pc, #64]	@ (25bfc <_start+0x19c0>)
   25bba:	4468      	add	r0, sp
   25bbc:	900b      	str	r0, [sp, #44]	@ 0x2c
   25bbe:	2646      	movs	r6, #70	@ 0x46
   25bc0:	4632      	mov	r2, r6
   25bc2:	f001 fa0c 	bl	26fde <__aeabi_memcpy4>
   25bc6:	0e28      	lsrs	r0, r5, #24
   25bc8:	71a0      	strb	r0, [r4, #6]
   25bca:	0c28      	lsrs	r0, r5, #16
   25bcc:	7160      	strb	r0, [r4, #5]
   25bce:	0a28      	lsrs	r0, r5, #8
   25bd0:	7120      	strb	r0, [r4, #4]
   25bd2:	70e5      	strb	r5, [r4, #3]
   25bd4:	1de0      	adds	r0, r4, #7
   25bd6:	990b      	ldr	r1, [sp, #44]	@ 0x2c
   25bd8:	4632      	mov	r2, r6
   25bda:	f001 fb60 	bl	2729e <__aeabi_memcpy>
   25bde:	4d05      	ldr	r5, [pc, #20]	@ (25bf4 <_start+0x19b8>)
   25be0:	446d      	add	r5, sp
   25be2:	4628      	mov	r0, r5
   25be4:	4621      	mov	r1, r4
   25be6:	f7fb fd47 	bl	21678 <_ZN20complex_full_dynamic3app17h4abd8d9f65cc9440E>
   25bea:	7828      	ldrb	r0, [r5, #0]
   25bec:	2801      	cmp	r0, #1
   25bee:	d107      	bne.n	25c00 <_start+0x19c4>
   25bf0:	f7fe fdf9 	bl	247e6 <_start+0x5aa>
   25bf4:	00001404 	.word	0x00001404
   25bf8:	000009b0 	.word	0x000009b0
   25bfc:	000013a8 	.word	0x000013a8
   25c00:	4819      	ldr	r0, [pc, #100]	@ (25c68 <_start+0x1a2c>)
   25c02:	4468      	add	r0, sp
   25c04:	78c1      	ldrb	r1, [r0, #3]
   25c06:	4c19      	ldr	r4, [pc, #100]	@ (25c6c <_start+0x1a30>)
   25c08:	446c      	add	r4, sp
   25c0a:	70a1      	strb	r1, [r4, #2]
   25c0c:	7841      	ldrb	r1, [r0, #1]
   25c0e:	7882      	ldrb	r2, [r0, #2]
   25c10:	0212      	lsls	r2, r2, #8
   25c12:	1851      	adds	r1, r2, r1
   25c14:	8021      	strh	r1, [r4, #0]
   25c16:	3008      	adds	r0, #8
   25c18:	9908      	ldr	r1, [sp, #32]
   25c1a:	6e09      	ldr	r1, [r1, #96]	@ 0x60
   25c1c:	910a      	str	r1, [sp, #40]	@ 0x28
   25c1e:	4b14      	ldr	r3, [pc, #80]	@ (25c70 <_start+0x1a34>)
   25c20:	446b      	add	r3, sp
   25c22:	930b      	str	r3, [sp, #44]	@ 0x2c
   25c24:	c864      	ldmia	r0!, {r2, r5, r6}
   25c26:	c364      	stmia	r3!, {r2, r5, r6}
   25c28:	c864      	ldmia	r0!, {r2, r5, r6}
   25c2a:	c364      	stmia	r3!, {r2, r5, r6}
   25c2c:	c864      	ldmia	r0!, {r2, r5, r6}
   25c2e:	c364      	stmia	r3!, {r2, r5, r6}
   25c30:	c866      	ldmia	r0!, {r1, r2, r5, r6}
   25c32:	c366      	stmia	r3!, {r1, r2, r5, r6}
   25c34:	7800      	ldrb	r0, [r0, #0]
   25c36:	7018      	strb	r0, [r3, #0]
   25c38:	990a      	ldr	r1, [sp, #40]	@ 0x28
   25c3a:	0e08      	lsrs	r0, r1, #24
   25c3c:	71a0      	strb	r0, [r4, #6]
   25c3e:	0c08      	lsrs	r0, r1, #16
   25c40:	7160      	strb	r0, [r4, #5]
   25c42:	0a08      	lsrs	r0, r1, #8
   25c44:	7120      	strb	r0, [r4, #4]
   25c46:	70e1      	strb	r1, [r4, #3]
   25c48:	1de0      	adds	r0, r4, #7
   25c4a:	2235      	movs	r2, #53	@ 0x35
   25c4c:	990b      	ldr	r1, [sp, #44]	@ 0x2c
   25c4e:	f001 fb26 	bl	2729e <__aeabi_memcpy>
   25c52:	4d05      	ldr	r5, [pc, #20]	@ (25c68 <_start+0x1a2c>)
   25c54:	446d      	add	r5, sp
   25c56:	4628      	mov	r0, r5
   25c58:	4621      	mov	r1, r4
   25c5a:	f7fa fecf 	bl	209fc <_ZN20complex_full_dynamic3app17h24a2051a6b796e26E>
   25c5e:	7828      	ldrb	r0, [r5, #0]
   25c60:	2801      	cmp	r0, #1
   25c62:	d107      	bne.n	25c74 <_start+0x1a38>
   25c64:	f7fe fdbf 	bl	247e6 <_start+0x5aa>
   25c68:	00001404 	.word	0x00001404
   25c6c:	00000a00 	.word	0x00000a00
   25c70:	000013a8 	.word	0x000013a8
   25c74:	4818      	ldr	r0, [pc, #96]	@ (25cd8 <_start+0x1a9c>)
   25c76:	4468      	add	r0, sp
   25c78:	78c1      	ldrb	r1, [r0, #3]
   25c7a:	4c18      	ldr	r4, [pc, #96]	@ (25cdc <_start+0x1aa0>)
   25c7c:	446c      	add	r4, sp
   25c7e:	70a1      	strb	r1, [r4, #2]
   25c80:	7841      	ldrb	r1, [r0, #1]
   25c82:	7882      	ldrb	r2, [r0, #2]
   25c84:	0212      	lsls	r2, r2, #8
   25c86:	1851      	adds	r1, r2, r1
   25c88:	8021      	strh	r1, [r4, #0]
   25c8a:	3008      	adds	r0, #8
   25c8c:	9908      	ldr	r1, [sp, #32]
   25c8e:	6e09      	ldr	r1, [r1, #96]	@ 0x60
   25c90:	910a      	str	r1, [sp, #40]	@ 0x28
   25c92:	4b13      	ldr	r3, [pc, #76]	@ (25ce0 <_start+0x1aa4>)
   25c94:	446b      	add	r3, sp
   25c96:	930b      	str	r3, [sp, #44]	@ 0x2c
   25c98:	c866      	ldmia	r0!, {r1, r2, r5, r6}
   25c9a:	c366      	stmia	r3!, {r1, r2, r5, r6}
   25c9c:	c866      	ldmia	r0!, {r1, r2, r5, r6}
   25c9e:	c366      	stmia	r3!, {r1, r2, r5, r6}
   25ca0:	c866      	ldmia	r0!, {r1, r2, r5, r6}
   25ca2:	c366      	stmia	r3!, {r1, r2, r5, r6}
   25ca4:	7800      	ldrb	r0, [r0, #0]
   25ca6:	7018      	strb	r0, [r3, #0]
   25ca8:	990a      	ldr	r1, [sp, #40]	@ 0x28
   25caa:	0e08      	lsrs	r0, r1, #24
   25cac:	71a0      	strb	r0, [r4, #6]
   25cae:	0c08      	lsrs	r0, r1, #16
   25cb0:	7160      	strb	r0, [r4, #5]
   25cb2:	0a08      	lsrs	r0, r1, #8
   25cb4:	7120      	strb	r0, [r4, #4]
   25cb6:	70e1      	strb	r1, [r4, #3]
   25cb8:	1de0      	adds	r0, r4, #7
   25cba:	2231      	movs	r2, #49	@ 0x31
   25cbc:	990b      	ldr	r1, [sp, #44]	@ 0x2c
   25cbe:	f001 faee 	bl	2729e <__aeabi_memcpy>
   25cc2:	4d05      	ldr	r5, [pc, #20]	@ (25cd8 <_start+0x1a9c>)
   25cc4:	446d      	add	r5, sp
   25cc6:	4628      	mov	r0, r5
   25cc8:	4621      	mov	r1, r4
   25cca:	f7fc fd29 	bl	22720 <_ZN20complex_full_dynamic3app17h9ef09fe28253f574E>
   25cce:	7828      	ldrb	r0, [r5, #0]
   25cd0:	2801      	cmp	r0, #1
   25cd2:	d107      	bne.n	25ce4 <_start+0x1aa8>
   25cd4:	f7fe fd87 	bl	247e6 <_start+0x5aa>
   25cd8:	00001404 	.word	0x00001404
   25cdc:	00000a3c 	.word	0x00000a3c
   25ce0:	000013a8 	.word	0x000013a8
   25ce4:	4816      	ldr	r0, [pc, #88]	@ (25d40 <_start+0x1b04>)
   25ce6:	4468      	add	r0, sp
   25ce8:	78c1      	ldrb	r1, [r0, #3]
   25cea:	4c16      	ldr	r4, [pc, #88]	@ (25d44 <_start+0x1b08>)
   25cec:	446c      	add	r4, sp
   25cee:	70a1      	strb	r1, [r4, #2]
   25cf0:	7841      	ldrb	r1, [r0, #1]
   25cf2:	7882      	ldrb	r2, [r0, #2]
   25cf4:	0212      	lsls	r2, r2, #8
   25cf6:	1851      	adds	r1, r2, r1
   25cf8:	8021      	strh	r1, [r4, #0]
   25cfa:	3008      	adds	r0, #8
   25cfc:	9908      	ldr	r1, [sp, #32]
   25cfe:	6e09      	ldr	r1, [r1, #96]	@ 0x60
   25d00:	910a      	str	r1, [sp, #40]	@ 0x28
   25d02:	4b11      	ldr	r3, [pc, #68]	@ (25d48 <_start+0x1b0c>)
   25d04:	446b      	add	r3, sp
   25d06:	930b      	str	r3, [sp, #44]	@ 0x2c
   25d08:	c866      	ldmia	r0!, {r1, r2, r5, r6}
   25d0a:	c366      	stmia	r3!, {r1, r2, r5, r6}
   25d0c:	c866      	ldmia	r0!, {r1, r2, r5, r6}
   25d0e:	c366      	stmia	r3!, {r1, r2, r5, r6}
   25d10:	990a      	ldr	r1, [sp, #40]	@ 0x28
   25d12:	0e08      	lsrs	r0, r1, #24
   25d14:	71a0      	strb	r0, [r4, #6]
   25d16:	0c08      	lsrs	r0, r1, #16
   25d18:	7160      	strb	r0, [r4, #5]
   25d1a:	0a08      	lsrs	r0, r1, #8
   25d1c:	7120      	strb	r0, [r4, #4]
   25d1e:	70e1      	strb	r1, [r4, #3]
   25d20:	1de0      	adds	r0, r4, #7
   25d22:	2220      	movs	r2, #32
   25d24:	990b      	ldr	r1, [sp, #44]	@ 0x2c
   25d26:	f001 faba 	bl	2729e <__aeabi_memcpy>
   25d2a:	4d05      	ldr	r5, [pc, #20]	@ (25d40 <_start+0x1b04>)
   25d2c:	446d      	add	r5, sp
   25d2e:	4628      	mov	r0, r5
   25d30:	4621      	mov	r1, r4
   25d32:	f7fb f929 	bl	20f88 <_ZN20complex_full_dynamic3app17h2e9a62987501c51fE>
   25d36:	7828      	ldrb	r0, [r5, #0]
   25d38:	2801      	cmp	r0, #1
   25d3a:	d107      	bne.n	25d4c <_start+0x1b10>
   25d3c:	f7fe fd53 	bl	247e6 <_start+0x5aa>
   25d40:	00001404 	.word	0x00001404
   25d44:	00000a74 	.word	0x00000a74
   25d48:	000013a8 	.word	0x000013a8
   25d4c:	4915      	ldr	r1, [pc, #84]	@ (25da4 <_start+0x1b68>)
   25d4e:	4469      	add	r1, sp
   25d50:	78c8      	ldrb	r0, [r1, #3]
   25d52:	4c15      	ldr	r4, [pc, #84]	@ (25da8 <_start+0x1b6c>)
   25d54:	446c      	add	r4, sp
   25d56:	70a0      	strb	r0, [r4, #2]
   25d58:	7848      	ldrb	r0, [r1, #1]
   25d5a:	788a      	ldrb	r2, [r1, #2]
   25d5c:	0212      	lsls	r2, r2, #8
   25d5e:	1810      	adds	r0, r2, r0
   25d60:	8020      	strh	r0, [r4, #0]
   25d62:	9808      	ldr	r0, [sp, #32]
   25d64:	6e05      	ldr	r5, [r0, #96]	@ 0x60
   25d66:	3108      	adds	r1, #8
   25d68:	4810      	ldr	r0, [pc, #64]	@ (25dac <_start+0x1b70>)
   25d6a:	4468      	add	r0, sp
   25d6c:	900b      	str	r0, [sp, #44]	@ 0x2c
   25d6e:	264a      	movs	r6, #74	@ 0x4a
   25d70:	4632      	mov	r2, r6
   25d72:	f001 f934 	bl	26fde <__aeabi_memcpy4>
   25d76:	0e28      	lsrs	r0, r5, #24
   25d78:	71a0      	strb	r0, [r4, #6]
   25d7a:	0c28      	lsrs	r0, r5, #16
   25d7c:	7160      	strb	r0, [r4, #5]
   25d7e:	0a28      	lsrs	r0, r5, #8
   25d80:	7120      	strb	r0, [r4, #4]
   25d82:	70e5      	strb	r5, [r4, #3]
   25d84:	1de0      	adds	r0, r4, #7
   25d86:	990b      	ldr	r1, [sp, #44]	@ 0x2c
   25d88:	4632      	mov	r2, r6
   25d8a:	f001 fa88 	bl	2729e <__aeabi_memcpy>
   25d8e:	4d05      	ldr	r5, [pc, #20]	@ (25da4 <_start+0x1b68>)
   25d90:	446d      	add	r5, sp
   25d92:	4628      	mov	r0, r5
   25d94:	4621      	mov	r1, r4
   25d96:	f7fa fb67 	bl	20468 <_ZN20complex_full_dynamic3app17h0ac2e489dd589c5cE>
   25d9a:	7828      	ldrb	r0, [r5, #0]
   25d9c:	2801      	cmp	r0, #1
   25d9e:	d107      	bne.n	25db0 <_start+0x1b74>
   25da0:	f7fe fd21 	bl	247e6 <_start+0x5aa>
   25da4:	00001404 	.word	0x00001404
   25da8:	00000a9c 	.word	0x00000a9c
   25dac:	000013a8 	.word	0x000013a8
   25db0:	4915      	ldr	r1, [pc, #84]	@ (25e08 <_start+0x1bcc>)
   25db2:	4469      	add	r1, sp
   25db4:	78c8      	ldrb	r0, [r1, #3]
   25db6:	4c15      	ldr	r4, [pc, #84]	@ (25e0c <_start+0x1bd0>)
   25db8:	446c      	add	r4, sp
   25dba:	70a0      	strb	r0, [r4, #2]
   25dbc:	7848      	ldrb	r0, [r1, #1]
   25dbe:	788a      	ldrb	r2, [r1, #2]
   25dc0:	0212      	lsls	r2, r2, #8
   25dc2:	1810      	adds	r0, r2, r0
   25dc4:	8020      	strh	r0, [r4, #0]
   25dc6:	9808      	ldr	r0, [sp, #32]
   25dc8:	6e05      	ldr	r5, [r0, #96]	@ 0x60
   25dca:	3108      	adds	r1, #8
   25dcc:	4810      	ldr	r0, [pc, #64]	@ (25e10 <_start+0x1bd4>)
   25dce:	4468      	add	r0, sp
   25dd0:	900b      	str	r0, [sp, #44]	@ 0x2c
   25dd2:	2648      	movs	r6, #72	@ 0x48
   25dd4:	4632      	mov	r2, r6
   25dd6:	f001 f902 	bl	26fde <__aeabi_memcpy4>
   25dda:	0e28      	lsrs	r0, r5, #24
   25ddc:	71a0      	strb	r0, [r4, #6]
   25dde:	0c28      	lsrs	r0, r5, #16
   25de0:	7160      	strb	r0, [r4, #5]
   25de2:	0a28      	lsrs	r0, r5, #8
   25de4:	7120      	strb	r0, [r4, #4]
   25de6:	70e5      	strb	r5, [r4, #3]
   25de8:	1de0      	adds	r0, r4, #7
   25dea:	990b      	ldr	r1, [sp, #44]	@ 0x2c
   25dec:	4632      	mov	r2, r6
   25dee:	f001 fa56 	bl	2729e <__aeabi_memcpy>
   25df2:	4d05      	ldr	r5, [pc, #20]	@ (25e08 <_start+0x1bcc>)
   25df4:	446d      	add	r5, sp
   25df6:	4628      	mov	r0, r5
   25df8:	4621      	mov	r1, r4
   25dfa:	f7fc fc39 	bl	22670 <_ZN20complex_full_dynamic3app17h9c61f4e0135a2f6aE>
   25dfe:	7828      	ldrb	r0, [r5, #0]
   25e00:	2801      	cmp	r0, #1
   25e02:	d107      	bne.n	25e14 <_start+0x1bd8>
   25e04:	f7fe fcef 	bl	247e6 <_start+0x5aa>
   25e08:	00001404 	.word	0x00001404
   25e0c:	00000af0 	.word	0x00000af0
   25e10:	000013a8 	.word	0x000013a8
   25e14:	4915      	ldr	r1, [pc, #84]	@ (25e6c <_start+0x1c30>)
   25e16:	4469      	add	r1, sp
   25e18:	78c8      	ldrb	r0, [r1, #3]
   25e1a:	4c15      	ldr	r4, [pc, #84]	@ (25e70 <_start+0x1c34>)
   25e1c:	446c      	add	r4, sp
   25e1e:	70a0      	strb	r0, [r4, #2]
   25e20:	7848      	ldrb	r0, [r1, #1]
   25e22:	788a      	ldrb	r2, [r1, #2]
   25e24:	0212      	lsls	r2, r2, #8
   25e26:	1810      	adds	r0, r2, r0
   25e28:	8020      	strh	r0, [r4, #0]
   25e2a:	9808      	ldr	r0, [sp, #32]
   25e2c:	6e05      	ldr	r5, [r0, #96]	@ 0x60
   25e2e:	3108      	adds	r1, #8
   25e30:	4810      	ldr	r0, [pc, #64]	@ (25e74 <_start+0x1c38>)
   25e32:	4468      	add	r0, sp
   25e34:	900b      	str	r0, [sp, #44]	@ 0x2c
   25e36:	265a      	movs	r6, #90	@ 0x5a
   25e38:	4632      	mov	r2, r6
   25e3a:	f001 f8d0 	bl	26fde <__aeabi_memcpy4>
   25e3e:	0e28      	lsrs	r0, r5, #24
   25e40:	71a0      	strb	r0, [r4, #6]
   25e42:	0c28      	lsrs	r0, r5, #16
   25e44:	7160      	strb	r0, [r4, #5]
   25e46:	0a28      	lsrs	r0, r5, #8
   25e48:	7120      	strb	r0, [r4, #4]
   25e4a:	70e5      	strb	r5, [r4, #3]
   25e4c:	1de0      	adds	r0, r4, #7
   25e4e:	990b      	ldr	r1, [sp, #44]	@ 0x2c
   25e50:	4632      	mov	r2, r6
   25e52:	f001 fa24 	bl	2729e <__aeabi_memcpy>
   25e56:	4d05      	ldr	r5, [pc, #20]	@ (25e6c <_start+0x1c30>)
   25e58:	446d      	add	r5, sp
   25e5a:	4628      	mov	r0, r5
   25e5c:	4621      	mov	r1, r4
   25e5e:	f7fd fa3f 	bl	232e0 <_ZN20complex_full_dynamic3app17hce6d94e7fab5322fE>
   25e62:	7828      	ldrb	r0, [r5, #0]
   25e64:	2801      	cmp	r0, #1
   25e66:	d107      	bne.n	25e78 <_start+0x1c3c>
   25e68:	f7fe fcbd 	bl	247e6 <_start+0x5aa>
   25e6c:	00001404 	.word	0x00001404
   25e70:	00000b40 	.word	0x00000b40
   25e74:	000013a8 	.word	0x000013a8
   25e78:	4817      	ldr	r0, [pc, #92]	@ (25ed8 <_start+0x1c9c>)
   25e7a:	4468      	add	r0, sp
   25e7c:	78c1      	ldrb	r1, [r0, #3]
   25e7e:	4c17      	ldr	r4, [pc, #92]	@ (25edc <_start+0x1ca0>)
   25e80:	446c      	add	r4, sp
   25e82:	70a1      	strb	r1, [r4, #2]
   25e84:	7841      	ldrb	r1, [r0, #1]
   25e86:	7882      	ldrb	r2, [r0, #2]
   25e88:	0212      	lsls	r2, r2, #8
   25e8a:	1851      	adds	r1, r2, r1
   25e8c:	8021      	strh	r1, [r4, #0]
   25e8e:	3008      	adds	r0, #8
   25e90:	9908      	ldr	r1, [sp, #32]
   25e92:	6e09      	ldr	r1, [r1, #96]	@ 0x60
   25e94:	4b12      	ldr	r3, [pc, #72]	@ (25ee0 <_start+0x1ca4>)
   25e96:	446b      	add	r3, sp
   25e98:	930b      	str	r3, [sp, #44]	@ 0x2c
   25e9a:	c860      	ldmia	r0!, {r5, r6}
   25e9c:	c360      	stmia	r3!, {r5, r6}
   25e9e:	c864      	ldmia	r0!, {r2, r5, r6}
   25ea0:	c364      	stmia	r3!, {r2, r5, r6}
   25ea2:	8802      	ldrh	r2, [r0, #0]
   25ea4:	801a      	strh	r2, [r3, #0]
   25ea6:	7880      	ldrb	r0, [r0, #2]
   25ea8:	7098      	strb	r0, [r3, #2]
   25eaa:	0e08      	lsrs	r0, r1, #24
   25eac:	71a0      	strb	r0, [r4, #6]
   25eae:	0c08      	lsrs	r0, r1, #16
   25eb0:	7160      	strb	r0, [r4, #5]
   25eb2:	0a08      	lsrs	r0, r1, #8
   25eb4:	7120      	strb	r0, [r4, #4]
   25eb6:	70e1      	strb	r1, [r4, #3]
   25eb8:	1de0      	adds	r0, r4, #7
   25eba:	2217      	movs	r2, #23
   25ebc:	990b      	ldr	r1, [sp, #44]	@ 0x2c
   25ebe:	f001 f9ee 	bl	2729e <__aeabi_memcpy>
   25ec2:	4d05      	ldr	r5, [pc, #20]	@ (25ed8 <_start+0x1c9c>)
   25ec4:	446d      	add	r5, sp
   25ec6:	4628      	mov	r0, r5
   25ec8:	4621      	mov	r1, r4
   25eca:	f7fb fac7 	bl	2145c <_ZN20complex_full_dynamic3app17h41988b4b23fa20b9E>
   25ece:	7828      	ldrb	r0, [r5, #0]
   25ed0:	2801      	cmp	r0, #1
   25ed2:	d107      	bne.n	25ee4 <_start+0x1ca8>
   25ed4:	f7fe fc87 	bl	247e6 <_start+0x5aa>
   25ed8:	00001404 	.word	0x00001404
   25edc:	00000ba4 	.word	0x00000ba4
   25ee0:	000013a8 	.word	0x000013a8
   25ee4:	4816      	ldr	r0, [pc, #88]	@ (25f40 <_start+0x1d04>)
   25ee6:	4468      	add	r0, sp
   25ee8:	78c1      	ldrb	r1, [r0, #3]
   25eea:	4c16      	ldr	r4, [pc, #88]	@ (25f44 <_start+0x1d08>)
   25eec:	446c      	add	r4, sp
   25eee:	70a1      	strb	r1, [r4, #2]
   25ef0:	7841      	ldrb	r1, [r0, #1]
   25ef2:	7882      	ldrb	r2, [r0, #2]
   25ef4:	0212      	lsls	r2, r2, #8
   25ef6:	1851      	adds	r1, r2, r1
   25ef8:	8021      	strh	r1, [r4, #0]
   25efa:	3008      	adds	r0, #8
   25efc:	9908      	ldr	r1, [sp, #32]
   25efe:	6e09      	ldr	r1, [r1, #96]	@ 0x60
   25f00:	4b11      	ldr	r3, [pc, #68]	@ (25f48 <_start+0x1d0c>)
   25f02:	446b      	add	r3, sp
   25f04:	930b      	str	r3, [sp, #44]	@ 0x2c
   25f06:	c864      	ldmia	r0!, {r2, r5, r6}
   25f08:	c364      	stmia	r3!, {r2, r5, r6}
   25f0a:	c864      	ldmia	r0!, {r2, r5, r6}
   25f0c:	c364      	stmia	r3!, {r2, r5, r6}
   25f0e:	8800      	ldrh	r0, [r0, #0]
   25f10:	8018      	strh	r0, [r3, #0]
   25f12:	0e08      	lsrs	r0, r1, #24
   25f14:	71a0      	strb	r0, [r4, #6]
   25f16:	0c08      	lsrs	r0, r1, #16
   25f18:	7160      	strb	r0, [r4, #5]
   25f1a:	0a08      	lsrs	r0, r1, #8
   25f1c:	7120      	strb	r0, [r4, #4]
   25f1e:	70e1      	strb	r1, [r4, #3]
   25f20:	1de0      	adds	r0, r4, #7
   25f22:	221a      	movs	r2, #26
   25f24:	990b      	ldr	r1, [sp, #44]	@ 0x2c
   25f26:	f001 f9ba 	bl	2729e <__aeabi_memcpy>
   25f2a:	4d05      	ldr	r5, [pc, #20]	@ (25f40 <_start+0x1d04>)
   25f2c:	446d      	add	r5, sp
   25f2e:	4628      	mov	r0, r5
   25f30:	4621      	mov	r1, r4
   25f32:	f7fc ff6b 	bl	22e0c <_ZN20complex_full_dynamic3app17hc4034ea089725b00E>
   25f36:	7828      	ldrb	r0, [r5, #0]
   25f38:	2801      	cmp	r0, #1
   25f3a:	d107      	bne.n	25f4c <_start+0x1d10>
   25f3c:	f7fe fc53 	bl	247e6 <_start+0x5aa>
   25f40:	00001404 	.word	0x00001404
   25f44:	00000bc4 	.word	0x00000bc4
   25f48:	000013a8 	.word	0x000013a8
   25f4c:	4818      	ldr	r0, [pc, #96]	@ (25fb0 <_start+0x1d74>)
   25f4e:	4468      	add	r0, sp
   25f50:	78c1      	ldrb	r1, [r0, #3]
   25f52:	4c18      	ldr	r4, [pc, #96]	@ (25fb4 <_start+0x1d78>)
   25f54:	446c      	add	r4, sp
   25f56:	70a1      	strb	r1, [r4, #2]
   25f58:	7841      	ldrb	r1, [r0, #1]
   25f5a:	7882      	ldrb	r2, [r0, #2]
   25f5c:	0212      	lsls	r2, r2, #8
   25f5e:	1851      	adds	r1, r2, r1
   25f60:	8021      	strh	r1, [r4, #0]
   25f62:	3008      	adds	r0, #8
   25f64:	9908      	ldr	r1, [sp, #32]
   25f66:	6e09      	ldr	r1, [r1, #96]	@ 0x60
   25f68:	910a      	str	r1, [sp, #40]	@ 0x28
   25f6a:	4b13      	ldr	r3, [pc, #76]	@ (25fb8 <_start+0x1d7c>)
   25f6c:	446b      	add	r3, sp
   25f6e:	930b      	str	r3, [sp, #44]	@ 0x2c
   25f70:	c866      	ldmia	r0!, {r1, r2, r5, r6}
   25f72:	c366      	stmia	r3!, {r1, r2, r5, r6}
   25f74:	c866      	ldmia	r0!, {r1, r2, r5, r6}
   25f76:	c366      	stmia	r3!, {r1, r2, r5, r6}
   25f78:	8801      	ldrh	r1, [r0, #0]
   25f7a:	8019      	strh	r1, [r3, #0]
   25f7c:	7880      	ldrb	r0, [r0, #2]
   25f7e:	7098      	strb	r0, [r3, #2]
   25f80:	990a      	ldr	r1, [sp, #40]	@ 0x28
   25f82:	0e08      	lsrs	r0, r1, #24
   25f84:	71a0      	strb	r0, [r4, #6]
   25f86:	0c08      	lsrs	r0, r1, #16
   25f88:	7160      	strb	r0, [r4, #5]
   25f8a:	0a08      	lsrs	r0, r1, #8
   25f8c:	7120      	strb	r0, [r4, #4]
   25f8e:	70e1      	strb	r1, [r4, #3]
   25f90:	1de0      	adds	r0, r4, #7
   25f92:	2223      	movs	r2, #35	@ 0x23
   25f94:	990b      	ldr	r1, [sp, #44]	@ 0x2c
   25f96:	f001 f982 	bl	2729e <__aeabi_memcpy>
   25f9a:	4d05      	ldr	r5, [pc, #20]	@ (25fb0 <_start+0x1d74>)
   25f9c:	446d      	add	r5, sp
   25f9e:	4628      	mov	r0, r5
   25fa0:	4621      	mov	r1, r4
   25fa2:	f7fb f8a3 	bl	210ec <_ZN20complex_full_dynamic3app17h3348f431f18922c6E>
   25fa6:	7828      	ldrb	r0, [r5, #0]
   25fa8:	2801      	cmp	r0, #1
   25faa:	d107      	bne.n	25fbc <_start+0x1d80>
   25fac:	f7fe fc1b 	bl	247e6 <_start+0x5aa>
   25fb0:	00001404 	.word	0x00001404
   25fb4:	00000be8 	.word	0x00000be8
   25fb8:	000013a8 	.word	0x000013a8
   25fbc:	4915      	ldr	r1, [pc, #84]	@ (26014 <_start+0x1dd8>)
   25fbe:	4469      	add	r1, sp
   25fc0:	78c8      	ldrb	r0, [r1, #3]
   25fc2:	4c15      	ldr	r4, [pc, #84]	@ (26018 <_start+0x1ddc>)
   25fc4:	446c      	add	r4, sp
   25fc6:	70a0      	strb	r0, [r4, #2]
   25fc8:	7848      	ldrb	r0, [r1, #1]
   25fca:	788a      	ldrb	r2, [r1, #2]
   25fcc:	0212      	lsls	r2, r2, #8
   25fce:	1810      	adds	r0, r2, r0
   25fd0:	8020      	strh	r0, [r4, #0]
   25fd2:	9808      	ldr	r0, [sp, #32]
   25fd4:	6e05      	ldr	r5, [r0, #96]	@ 0x60
   25fd6:	3108      	adds	r1, #8
   25fd8:	4810      	ldr	r0, [pc, #64]	@ (2601c <_start+0x1de0>)
   25fda:	4468      	add	r0, sp
   25fdc:	900b      	str	r0, [sp, #44]	@ 0x2c
   25fde:	2652      	movs	r6, #82	@ 0x52
   25fe0:	4632      	mov	r2, r6
   25fe2:	f000 fffc 	bl	26fde <__aeabi_memcpy4>
   25fe6:	0e28      	lsrs	r0, r5, #24
   25fe8:	71a0      	strb	r0, [r4, #6]
   25fea:	0c28      	lsrs	r0, r5, #16
   25fec:	7160      	strb	r0, [r4, #5]
   25fee:	0a28      	lsrs	r0, r5, #8
   25ff0:	7120      	strb	r0, [r4, #4]
   25ff2:	70e5      	strb	r5, [r4, #3]
   25ff4:	1de0      	adds	r0, r4, #7
   25ff6:	990b      	ldr	r1, [sp, #44]	@ 0x2c
   25ff8:	4632      	mov	r2, r6
   25ffa:	f001 f950 	bl	2729e <__aeabi_memcpy>
   25ffe:	4d05      	ldr	r5, [pc, #20]	@ (26014 <_start+0x1dd8>)
   26000:	446d      	add	r5, sp
   26002:	4628      	mov	r0, r5
   26004:	4621      	mov	r1, r4
   26006:	f7fc f86d 	bl	220e4 <_ZN20complex_full_dynamic3app17h78bd7f3f2c19bac1E>
   2600a:	7828      	ldrb	r0, [r5, #0]
   2600c:	2801      	cmp	r0, #1
   2600e:	d107      	bne.n	26020 <_start+0x1de4>
   26010:	f7fe fbe9 	bl	247e6 <_start+0x5aa>
   26014:	00001404 	.word	0x00001404
   26018:	00000c14 	.word	0x00000c14
   2601c:	000013a8 	.word	0x000013a8
   26020:	4915      	ldr	r1, [pc, #84]	@ (26078 <_start+0x1e3c>)
   26022:	4469      	add	r1, sp
   26024:	78c8      	ldrb	r0, [r1, #3]
   26026:	4c15      	ldr	r4, [pc, #84]	@ (2607c <_start+0x1e40>)
   26028:	446c      	add	r4, sp
   2602a:	70a0      	strb	r0, [r4, #2]
   2602c:	7848      	ldrb	r0, [r1, #1]
   2602e:	788a      	ldrb	r2, [r1, #2]
   26030:	0212      	lsls	r2, r2, #8
   26032:	1810      	adds	r0, r2, r0
   26034:	8020      	strh	r0, [r4, #0]
   26036:	9808      	ldr	r0, [sp, #32]
   26038:	6e05      	ldr	r5, [r0, #96]	@ 0x60
   2603a:	3108      	adds	r1, #8
   2603c:	4810      	ldr	r0, [pc, #64]	@ (26080 <_start+0x1e44>)
   2603e:	4468      	add	r0, sp
   26040:	900b      	str	r0, [sp, #44]	@ 0x2c
   26042:	2643      	movs	r6, #67	@ 0x43
   26044:	4632      	mov	r2, r6
   26046:	f000 ffca 	bl	26fde <__aeabi_memcpy4>
   2604a:	0e28      	lsrs	r0, r5, #24
   2604c:	71a0      	strb	r0, [r4, #6]
   2604e:	0c28      	lsrs	r0, r5, #16
   26050:	7160      	strb	r0, [r4, #5]
   26052:	0a28      	lsrs	r0, r5, #8
   26054:	7120      	strb	r0, [r4, #4]
   26056:	70e5      	strb	r5, [r4, #3]
   26058:	1de0      	adds	r0, r4, #7
   2605a:	990b      	ldr	r1, [sp, #44]	@ 0x2c
   2605c:	4632      	mov	r2, r6
   2605e:	f001 f91e 	bl	2729e <__aeabi_memcpy>
   26062:	4d05      	ldr	r5, [pc, #20]	@ (26078 <_start+0x1e3c>)
   26064:	446d      	add	r5, sp
   26066:	4628      	mov	r0, r5
   26068:	4621      	mov	r1, r4
   2606a:	f7fa fd1f 	bl	20aac <_ZN20complex_full_dynamic3app17h277420cbbe1d610dE>
   2606e:	7828      	ldrb	r0, [r5, #0]
   26070:	2801      	cmp	r0, #1
   26072:	d107      	bne.n	26084 <_start+0x1e48>
   26074:	f7fe fbb7 	bl	247e6 <_start+0x5aa>
   26078:	00001404 	.word	0x00001404
   2607c:	00000c70 	.word	0x00000c70
   26080:	000013a8 	.word	0x000013a8
   26084:	4817      	ldr	r0, [pc, #92]	@ (260e4 <_start+0x1ea8>)
   26086:	4468      	add	r0, sp
   26088:	78c1      	ldrb	r1, [r0, #3]
   2608a:	4c17      	ldr	r4, [pc, #92]	@ (260e8 <_start+0x1eac>)
   2608c:	446c      	add	r4, sp
   2608e:	70a1      	strb	r1, [r4, #2]
   26090:	7841      	ldrb	r1, [r0, #1]
   26092:	7882      	ldrb	r2, [r0, #2]
   26094:	0212      	lsls	r2, r2, #8
   26096:	1851      	adds	r1, r2, r1
   26098:	8021      	strh	r1, [r4, #0]
   2609a:	3008      	adds	r0, #8
   2609c:	9908      	ldr	r1, [sp, #32]
   2609e:	6e09      	ldr	r1, [r1, #96]	@ 0x60
   260a0:	4b12      	ldr	r3, [pc, #72]	@ (260ec <_start+0x1eb0>)
   260a2:	446b      	add	r3, sp
   260a4:	930b      	str	r3, [sp, #44]	@ 0x2c
   260a6:	c864      	ldmia	r0!, {r2, r5, r6}
   260a8:	c364      	stmia	r3!, {r2, r5, r6}
   260aa:	c864      	ldmia	r0!, {r2, r5, r6}
   260ac:	c364      	stmia	r3!, {r2, r5, r6}
   260ae:	c864      	ldmia	r0!, {r2, r5, r6}
   260b0:	c364      	stmia	r3!, {r2, r5, r6}
   260b2:	8800      	ldrh	r0, [r0, #0]
   260b4:	8018      	strh	r0, [r3, #0]
   260b6:	0e08      	lsrs	r0, r1, #24
   260b8:	71a0      	strb	r0, [r4, #6]
   260ba:	0c08      	lsrs	r0, r1, #16
   260bc:	7160      	strb	r0, [r4, #5]
   260be:	0a08      	lsrs	r0, r1, #8
   260c0:	7120      	strb	r0, [r4, #4]
   260c2:	70e1      	strb	r1, [r4, #3]
   260c4:	1de0      	adds	r0, r4, #7
   260c6:	2226      	movs	r2, #38	@ 0x26
   260c8:	990b      	ldr	r1, [sp, #44]	@ 0x2c
   260ca:	f001 f8e8 	bl	2729e <__aeabi_memcpy>
   260ce:	4d05      	ldr	r5, [pc, #20]	@ (260e4 <_start+0x1ea8>)
   260d0:	446d      	add	r5, sp
   260d2:	4628      	mov	r0, r5
   260d4:	4621      	mov	r1, r4
   260d6:	f7fb ff53 	bl	21f80 <_ZN20complex_full_dynamic3app17h70fa64aa23c3f8caE>
   260da:	7828      	ldrb	r0, [r5, #0]
   260dc:	2801      	cmp	r0, #1
   260de:	d107      	bne.n	260f0 <_start+0x1eb4>
   260e0:	f7fe fb81 	bl	247e6 <_start+0x5aa>
   260e4:	00001404 	.word	0x00001404
   260e8:	00000cbc 	.word	0x00000cbc
   260ec:	000013a8 	.word	0x000013a8
   260f0:	4915      	ldr	r1, [pc, #84]	@ (26148 <_start+0x1f0c>)
   260f2:	4469      	add	r1, sp
   260f4:	78c8      	ldrb	r0, [r1, #3]
   260f6:	4c15      	ldr	r4, [pc, #84]	@ (2614c <_start+0x1f10>)
   260f8:	446c      	add	r4, sp
   260fa:	70a0      	strb	r0, [r4, #2]
   260fc:	7848      	ldrb	r0, [r1, #1]
   260fe:	788a      	ldrb	r2, [r1, #2]
   26100:	0212      	lsls	r2, r2, #8
   26102:	1810      	adds	r0, r2, r0
   26104:	8020      	strh	r0, [r4, #0]
   26106:	9808      	ldr	r0, [sp, #32]
   26108:	6e05      	ldr	r5, [r0, #96]	@ 0x60
   2610a:	3108      	adds	r1, #8
   2610c:	4810      	ldr	r0, [pc, #64]	@ (26150 <_start+0x1f14>)
   2610e:	4468      	add	r0, sp
   26110:	900b      	str	r0, [sp, #44]	@ 0x2c
   26112:	264c      	movs	r6, #76	@ 0x4c
   26114:	4632      	mov	r2, r6
   26116:	f000 ff62 	bl	26fde <__aeabi_memcpy4>
   2611a:	0e28      	lsrs	r0, r5, #24
   2611c:	71a0      	strb	r0, [r4, #6]
   2611e:	0c28      	lsrs	r0, r5, #16
   26120:	7160      	strb	r0, [r4, #5]
   26122:	0a28      	lsrs	r0, r5, #8
   26124:	7120      	strb	r0, [r4, #4]
   26126:	70e5      	strb	r5, [r4, #3]
   26128:	1de0      	adds	r0, r4, #7
   2612a:	990b      	ldr	r1, [sp, #44]	@ 0x2c
   2612c:	4632      	mov	r2, r6
   2612e:	f001 f8b6 	bl	2729e <__aeabi_memcpy>
   26132:	4d05      	ldr	r5, [pc, #20]	@ (26148 <_start+0x1f0c>)
   26134:	446d      	add	r5, sp
   26136:	4628      	mov	r0, r5
   26138:	4621      	mov	r1, r4
   2613a:	f7fb fec7 	bl	21ecc <_ZN20complex_full_dynamic3app17h706759b89938af3dE>
   2613e:	7828      	ldrb	r0, [r5, #0]
   26140:	2801      	cmp	r0, #1
   26142:	d107      	bne.n	26154 <_start+0x1f18>
   26144:	f7fe fb4f 	bl	247e6 <_start+0x5aa>
   26148:	00001404 	.word	0x00001404
   2614c:	00000cec 	.word	0x00000cec
   26150:	000013a8 	.word	0x000013a8
   26154:	4819      	ldr	r0, [pc, #100]	@ (261bc <_start+0x1f80>)
   26156:	4468      	add	r0, sp
   26158:	78c1      	ldrb	r1, [r0, #3]
   2615a:	4c19      	ldr	r4, [pc, #100]	@ (261c0 <_start+0x1f84>)
   2615c:	446c      	add	r4, sp
   2615e:	70a1      	strb	r1, [r4, #2]
   26160:	7841      	ldrb	r1, [r0, #1]
   26162:	7882      	ldrb	r2, [r0, #2]
   26164:	0212      	lsls	r2, r2, #8
   26166:	1851      	adds	r1, r2, r1
   26168:	8021      	strh	r1, [r4, #0]
   2616a:	3008      	adds	r0, #8
   2616c:	9908      	ldr	r1, [sp, #32]
   2616e:	6e09      	ldr	r1, [r1, #96]	@ 0x60
   26170:	910a      	str	r1, [sp, #40]	@ 0x28
   26172:	4b14      	ldr	r3, [pc, #80]	@ (261c4 <_start+0x1f88>)
   26174:	446b      	add	r3, sp
   26176:	930b      	str	r3, [sp, #44]	@ 0x2c
   26178:	c866      	ldmia	r0!, {r1, r2, r5, r6}
   2617a:	c366      	stmia	r3!, {r1, r2, r5, r6}
   2617c:	c866      	ldmia	r0!, {r1, r2, r5, r6}
   2617e:	c366      	stmia	r3!, {r1, r2, r5, r6}
   26180:	c866      	ldmia	r0!, {r1, r2, r5, r6}
   26182:	c366      	stmia	r3!, {r1, r2, r5, r6}
   26184:	8801      	ldrh	r1, [r0, #0]
   26186:	8019      	strh	r1, [r3, #0]
   26188:	7880      	ldrb	r0, [r0, #2]
   2618a:	7098      	strb	r0, [r3, #2]
   2618c:	990a      	ldr	r1, [sp, #40]	@ 0x28
   2618e:	0e08      	lsrs	r0, r1, #24
   26190:	71a0      	strb	r0, [r4, #6]
   26192:	0c08      	lsrs	r0, r1, #16
   26194:	7160      	strb	r0, [r4, #5]
   26196:	0a08      	lsrs	r0, r1, #8
   26198:	7120      	strb	r0, [r4, #4]
   2619a:	70e1      	strb	r1, [r4, #3]
   2619c:	1de0      	adds	r0, r4, #7
   2619e:	2233      	movs	r2, #51	@ 0x33
   261a0:	990b      	ldr	r1, [sp, #44]	@ 0x2c
   261a2:	f001 f87c 	bl	2729e <__aeabi_memcpy>
   261a6:	4d05      	ldr	r5, [pc, #20]	@ (261bc <_start+0x1f80>)
   261a8:	446d      	add	r5, sp
   261aa:	4628      	mov	r0, r5
   261ac:	4621      	mov	r1, r4
   261ae:	f7fd fe89 	bl	23ec4 <_ZN20complex_full_dynamic3app17hf8fbbfab21dc7d57E>
   261b2:	7828      	ldrb	r0, [r5, #0]
   261b4:	2801      	cmp	r0, #1
   261b6:	d107      	bne.n	261c8 <_start+0x1f8c>
   261b8:	f7fe fb15 	bl	247e6 <_start+0x5aa>
   261bc:	00001404 	.word	0x00001404
   261c0:	00000d40 	.word	0x00000d40
   261c4:	000013a8 	.word	0x000013a8
   261c8:	4915      	ldr	r1, [pc, #84]	@ (26220 <_start+0x1fe4>)
   261ca:	4469      	add	r1, sp
   261cc:	78c8      	ldrb	r0, [r1, #3]
   261ce:	4c15      	ldr	r4, [pc, #84]	@ (26224 <_start+0x1fe8>)
   261d0:	446c      	add	r4, sp
   261d2:	70a0      	strb	r0, [r4, #2]
   261d4:	7848      	ldrb	r0, [r1, #1]
   261d6:	788a      	ldrb	r2, [r1, #2]
   261d8:	0212      	lsls	r2, r2, #8
   261da:	1810      	adds	r0, r2, r0
   261dc:	8020      	strh	r0, [r4, #0]
   261de:	9808      	ldr	r0, [sp, #32]
   261e0:	6e05      	ldr	r5, [r0, #96]	@ 0x60
   261e2:	3108      	adds	r1, #8
   261e4:	4810      	ldr	r0, [pc, #64]	@ (26228 <_start+0x1fec>)
   261e6:	4468      	add	r0, sp
   261e8:	900b      	str	r0, [sp, #44]	@ 0x2c
   261ea:	2656      	movs	r6, #86	@ 0x56
   261ec:	4632      	mov	r2, r6
   261ee:	f000 fef6 	bl	26fde <__aeabi_memcpy4>
   261f2:	0e28      	lsrs	r0, r5, #24
   261f4:	71a0      	strb	r0, [r4, #6]
   261f6:	0c28      	lsrs	r0, r5, #16
   261f8:	7160      	strb	r0, [r4, #5]
   261fa:	0a28      	lsrs	r0, r5, #8
   261fc:	7120      	strb	r0, [r4, #4]
   261fe:	70e5      	strb	r5, [r4, #3]
   26200:	1de0      	adds	r0, r4, #7
   26202:	990b      	ldr	r1, [sp, #44]	@ 0x2c
   26204:	4632      	mov	r2, r6
   26206:	f001 f84a 	bl	2729e <__aeabi_memcpy>
   2620a:	4d05      	ldr	r5, [pc, #20]	@ (26220 <_start+0x1fe4>)
   2620c:	446d      	add	r5, sp
   2620e:	4628      	mov	r0, r5
   26210:	4621      	mov	r1, r4
   26212:	f7fb fa89 	bl	21728 <_ZN20complex_full_dynamic3app17h56bdb9e9f4381e45E>
   26216:	7828      	ldrb	r0, [r5, #0]
   26218:	2801      	cmp	r0, #1
   2621a:	d107      	bne.n	2622c <_start+0x1ff0>
   2621c:	f7fe fae3 	bl	247e6 <_start+0x5aa>
   26220:	00001404 	.word	0x00001404
   26224:	00000d7c 	.word	0x00000d7c
   26228:	000013a8 	.word	0x000013a8
   2622c:	4819      	ldr	r0, [pc, #100]	@ (26294 <_start+0x2058>)
   2622e:	4468      	add	r0, sp
   26230:	78c1      	ldrb	r1, [r0, #3]
   26232:	4c19      	ldr	r4, [pc, #100]	@ (26298 <_start+0x205c>)
   26234:	446c      	add	r4, sp
   26236:	70a1      	strb	r1, [r4, #2]
   26238:	7841      	ldrb	r1, [r0, #1]
   2623a:	7882      	ldrb	r2, [r0, #2]
   2623c:	0212      	lsls	r2, r2, #8
   2623e:	1851      	adds	r1, r2, r1
   26240:	8021      	strh	r1, [r4, #0]
   26242:	3008      	adds	r0, #8
   26244:	9908      	ldr	r1, [sp, #32]
   26246:	6e09      	ldr	r1, [r1, #96]	@ 0x60
   26248:	910a      	str	r1, [sp, #40]	@ 0x28
   2624a:	4b14      	ldr	r3, [pc, #80]	@ (2629c <_start+0x2060>)
   2624c:	446b      	add	r3, sp
   2624e:	930b      	str	r3, [sp, #44]	@ 0x2c
   26250:	c864      	ldmia	r0!, {r2, r5, r6}
   26252:	c364      	stmia	r3!, {r2, r5, r6}
   26254:	c866      	ldmia	r0!, {r1, r2, r5, r6}
   26256:	c366      	stmia	r3!, {r1, r2, r5, r6}
   26258:	c826      	ldmia	r0!, {r1, r2, r5}
   2625a:	c326      	stmia	r3!, {r1, r2, r5}
   2625c:	c866      	ldmia	r0!, {r1, r2, r5, r6}
   2625e:	c366      	stmia	r3!, {r1, r2, r5, r6}
   26260:	7800      	ldrb	r0, [r0, #0]
   26262:	7018      	strb	r0, [r3, #0]
   26264:	990a      	ldr	r1, [sp, #40]	@ 0x28
   26266:	0e08      	lsrs	r0, r1, #24
   26268:	71a0      	strb	r0, [r4, #6]
   2626a:	0c08      	lsrs	r0, r1, #16
   2626c:	7160      	strb	r0, [r4, #5]
   2626e:	0a08      	lsrs	r0, r1, #8
   26270:	7120      	strb	r0, [r4, #4]
   26272:	70e1      	strb	r1, [r4, #3]
   26274:	1de0      	adds	r0, r4, #7
   26276:	2239      	movs	r2, #57	@ 0x39
   26278:	990b      	ldr	r1, [sp, #44]	@ 0x2c
   2627a:	f001 f810 	bl	2729e <__aeabi_memcpy>
   2627e:	4d05      	ldr	r5, [pc, #20]	@ (26294 <_start+0x2058>)
   26280:	446d      	add	r5, sp
   26282:	4628      	mov	r0, r5
   26284:	4621      	mov	r1, r4
   26286:	f7f9 ff87 	bl	20198 <_ZN20complex_full_dynamic3app17h0307d92c5263d39fE>
   2628a:	7828      	ldrb	r0, [r5, #0]
   2628c:	2801      	cmp	r0, #1
   2628e:	d107      	bne.n	262a0 <_start+0x2064>
   26290:	f7fe faa9 	bl	247e6 <_start+0x5aa>
   26294:	00001404 	.word	0x00001404
   26298:	00000ddc 	.word	0x00000ddc
   2629c:	000013a8 	.word	0x000013a8
   262a0:	4818      	ldr	r0, [pc, #96]	@ (26304 <_start+0x20c8>)
   262a2:	4468      	add	r0, sp
   262a4:	78c1      	ldrb	r1, [r0, #3]
   262a6:	4c18      	ldr	r4, [pc, #96]	@ (26308 <_start+0x20cc>)
   262a8:	446c      	add	r4, sp
   262aa:	70a1      	strb	r1, [r4, #2]
   262ac:	7841      	ldrb	r1, [r0, #1]
   262ae:	7882      	ldrb	r2, [r0, #2]
   262b0:	0212      	lsls	r2, r2, #8
   262b2:	1851      	adds	r1, r2, r1
   262b4:	8021      	strh	r1, [r4, #0]
   262b6:	3008      	adds	r0, #8
   262b8:	9908      	ldr	r1, [sp, #32]
   262ba:	6e09      	ldr	r1, [r1, #96]	@ 0x60
   262bc:	910a      	str	r1, [sp, #40]	@ 0x28
   262be:	4b13      	ldr	r3, [pc, #76]	@ (2630c <_start+0x20d0>)
   262c0:	446b      	add	r3, sp
   262c2:	930b      	str	r3, [sp, #44]	@ 0x2c
   262c4:	c864      	ldmia	r0!, {r2, r5, r6}
   262c6:	c364      	stmia	r3!, {r2, r5, r6}
   262c8:	c864      	ldmia	r0!, {r2, r5, r6}
   262ca:	c364      	stmia	r3!, {r2, r5, r6}
   262cc:	c866      	ldmia	r0!, {r1, r2, r5, r6}
   262ce:	c366      	stmia	r3!, {r1, r2, r5, r6}
   262d0:	8800      	ldrh	r0, [r0, #0]
   262d2:	8018      	strh	r0, [r3, #0]
   262d4:	990a      	ldr	r1, [sp, #40]	@ 0x28
   262d6:	0e08      	lsrs	r0, r1, #24
   262d8:	71a0      	strb	r0, [r4, #6]
   262da:	0c08      	lsrs	r0, r1, #16
   262dc:	7160      	strb	r0, [r4, #5]
   262de:	0a08      	lsrs	r0, r1, #8
   262e0:	7120      	strb	r0, [r4, #4]
   262e2:	70e1      	strb	r1, [r4, #3]
   262e4:	1de0      	adds	r0, r4, #7
   262e6:	222a      	movs	r2, #42	@ 0x2a
   262e8:	990b      	ldr	r1, [sp, #44]	@ 0x2c
   262ea:	f000 ffd8 	bl	2729e <__aeabi_memcpy>
   262ee:	4d05      	ldr	r5, [pc, #20]	@ (26304 <_start+0x20c8>)
   262f0:	446d      	add	r5, sp
   262f2:	4628      	mov	r0, r5
   262f4:	4621      	mov	r1, r4
   262f6:	f7fd fa15 	bl	23724 <_ZN20complex_full_dynamic3app17hda9876efe20bd6e9E>
   262fa:	7828      	ldrb	r0, [r5, #0]
   262fc:	2801      	cmp	r0, #1
   262fe:	d107      	bne.n	26310 <_start+0x20d4>
   26300:	f7fe fa71 	bl	247e6 <_start+0x5aa>
   26304:	00001404 	.word	0x00001404
   26308:	00000e1c 	.word	0x00000e1c
   2630c:	000013a8 	.word	0x000013a8
   26310:	4915      	ldr	r1, [pc, #84]	@ (26368 <_start+0x212c>)
   26312:	4469      	add	r1, sp
   26314:	78c8      	ldrb	r0, [r1, #3]
   26316:	4c15      	ldr	r4, [pc, #84]	@ (2636c <_start+0x2130>)
   26318:	446c      	add	r4, sp
   2631a:	70a0      	strb	r0, [r4, #2]
   2631c:	7848      	ldrb	r0, [r1, #1]
   2631e:	788a      	ldrb	r2, [r1, #2]
   26320:	0212      	lsls	r2, r2, #8
   26322:	1810      	adds	r0, r2, r0
   26324:	8020      	strh	r0, [r4, #0]
   26326:	9808      	ldr	r0, [sp, #32]
   26328:	6e05      	ldr	r5, [r0, #96]	@ 0x60
   2632a:	3108      	adds	r1, #8
   2632c:	4810      	ldr	r0, [pc, #64]	@ (26370 <_start+0x2134>)
   2632e:	4468      	add	r0, sp
   26330:	900b      	str	r0, [sp, #44]	@ 0x2c
   26332:	2641      	movs	r6, #65	@ 0x41
   26334:	4632      	mov	r2, r6
   26336:	f000 fe52 	bl	26fde <__aeabi_memcpy4>
   2633a:	0e28      	lsrs	r0, r5, #24
   2633c:	71a0      	strb	r0, [r4, #6]
   2633e:	0c28      	lsrs	r0, r5, #16
   26340:	7160      	strb	r0, [r4, #5]
   26342:	0a28      	lsrs	r0, r5, #8
   26344:	7120      	strb	r0, [r4, #4]
   26346:	70e5      	strb	r5, [r4, #3]
   26348:	1de0      	adds	r0, r4, #7
   2634a:	990b      	ldr	r1, [sp, #44]	@ 0x2c
   2634c:	4632      	mov	r2, r6
   2634e:	f000 ffa6 	bl	2729e <__aeabi_memcpy>
   26352:	4d05      	ldr	r5, [pc, #20]	@ (26368 <_start+0x212c>)
   26354:	446d      	add	r5, sp
   26356:	4628      	mov	r0, r5
   26358:	4621      	mov	r1, r4
   2635a:	f7fa f9e7 	bl	2072c <_ZN20complex_full_dynamic3app17h1cb0aeec58ba27aeE>
   2635e:	7828      	ldrb	r0, [r5, #0]
   26360:	2801      	cmp	r0, #1
   26362:	d107      	bne.n	26374 <_start+0x2138>
   26364:	f7fe fa3f 	bl	247e6 <_start+0x5aa>
   26368:	00001404 	.word	0x00001404
   2636c:	00000e50 	.word	0x00000e50
   26370:	000013a8 	.word	0x000013a8
   26374:	4817      	ldr	r0, [pc, #92]	@ (263d4 <_start+0x2198>)
   26376:	4468      	add	r0, sp
   26378:	78c1      	ldrb	r1, [r0, #3]
   2637a:	4c17      	ldr	r4, [pc, #92]	@ (263d8 <_start+0x219c>)
   2637c:	446c      	add	r4, sp
   2637e:	70a1      	strb	r1, [r4, #2]
   26380:	7841      	ldrb	r1, [r0, #1]
   26382:	7882      	ldrb	r2, [r0, #2]
   26384:	0212      	lsls	r2, r2, #8
   26386:	1851      	adds	r1, r2, r1
   26388:	8021      	strh	r1, [r4, #0]
   2638a:	3008      	adds	r0, #8
   2638c:	9908      	ldr	r1, [sp, #32]
   2638e:	6e09      	ldr	r1, [r1, #96]	@ 0x60
   26390:	910a      	str	r1, [sp, #40]	@ 0x28
   26392:	4b12      	ldr	r3, [pc, #72]	@ (263dc <_start+0x21a0>)
   26394:	446b      	add	r3, sp
   26396:	930b      	str	r3, [sp, #44]	@ 0x2c
   26398:	c866      	ldmia	r0!, {r1, r2, r5, r6}
   2639a:	c366      	stmia	r3!, {r1, r2, r5, r6}
   2639c:	c866      	ldmia	r0!, {r1, r2, r5, r6}
   2639e:	c366      	stmia	r3!, {r1, r2, r5, r6}
   263a0:	8800      	ldrh	r0, [r0, #0]
   263a2:	8018      	strh	r0, [r3, #0]
   263a4:	990a      	ldr	r1, [sp, #40]	@ 0x28
   263a6:	0e08      	lsrs	r0, r1, #24
   263a8:	71a0      	strb	r0, [r4, #6]
   263aa:	0c08      	lsrs	r0, r1, #16
   263ac:	7160      	strb	r0, [r4, #5]
   263ae:	0a08      	lsrs	r0, r1, #8
   263b0:	7120      	strb	r0, [r4, #4]
   263b2:	70e1      	strb	r1, [r4, #3]
   263b4:	1de0      	adds	r0, r4, #7
   263b6:	2222      	movs	r2, #34	@ 0x22
   263b8:	990b      	ldr	r1, [sp, #44]	@ 0x2c
   263ba:	f000 ff70 	bl	2729e <__aeabi_memcpy>
   263be:	4d05      	ldr	r5, [pc, #20]	@ (263d4 <_start+0x2198>)
   263c0:	446d      	add	r5, sp
   263c2:	4628      	mov	r0, r5
   263c4:	4621      	mov	r1, r4
   263c6:	f7fa fcd1 	bl	20d6c <_ZN20complex_full_dynamic3app17h2da7e84219156e14E>
   263ca:	7828      	ldrb	r0, [r5, #0]
   263cc:	2801      	cmp	r0, #1
   263ce:	d107      	bne.n	263e0 <_start+0x21a4>
   263d0:	f7fe fa09 	bl	247e6 <_start+0x5aa>
   263d4:	00001404 	.word	0x00001404
   263d8:	00000e98 	.word	0x00000e98
   263dc:	000013a8 	.word	0x000013a8
   263e0:	4817      	ldr	r0, [pc, #92]	@ (26440 <_start+0x2204>)
   263e2:	4468      	add	r0, sp
   263e4:	78c1      	ldrb	r1, [r0, #3]
   263e6:	4c17      	ldr	r4, [pc, #92]	@ (26444 <_start+0x2208>)
   263e8:	446c      	add	r4, sp
   263ea:	70a1      	strb	r1, [r4, #2]
   263ec:	7841      	ldrb	r1, [r0, #1]
   263ee:	7882      	ldrb	r2, [r0, #2]
   263f0:	0212      	lsls	r2, r2, #8
   263f2:	1851      	adds	r1, r2, r1
   263f4:	8021      	strh	r1, [r4, #0]
   263f6:	3008      	adds	r0, #8
   263f8:	9908      	ldr	r1, [sp, #32]
   263fa:	6e09      	ldr	r1, [r1, #96]	@ 0x60
   263fc:	910a      	str	r1, [sp, #40]	@ 0x28
   263fe:	4b12      	ldr	r3, [pc, #72]	@ (26448 <_start+0x220c>)
   26400:	446b      	add	r3, sp
   26402:	930b      	str	r3, [sp, #44]	@ 0x2c
   26404:	c866      	ldmia	r0!, {r1, r2, r5, r6}
   26406:	c366      	stmia	r3!, {r1, r2, r5, r6}
   26408:	8801      	ldrh	r1, [r0, #0]
   2640a:	8019      	strh	r1, [r3, #0]
   2640c:	7880      	ldrb	r0, [r0, #2]
   2640e:	7098      	strb	r0, [r3, #2]
   26410:	990a      	ldr	r1, [sp, #40]	@ 0x28
   26412:	0e08      	lsrs	r0, r1, #24
   26414:	71a0      	strb	r0, [r4, #6]
   26416:	0c08      	lsrs	r0, r1, #16
   26418:	7160      	strb	r0, [r4, #5]
   2641a:	0a08      	lsrs	r0, r1, #8
   2641c:	7120      	strb	r0, [r4, #4]
   2641e:	70e1      	strb	r1, [r4, #3]
   26420:	1de0      	adds	r0, r4, #7
   26422:	2213      	movs	r2, #19
   26424:	990b      	ldr	r1, [sp, #44]	@ 0x2c
   26426:	f000 ff3a 	bl	2729e <__aeabi_memcpy>
   2642a:	4d05      	ldr	r5, [pc, #20]	@ (26440 <_start+0x2204>)
   2642c:	446d      	add	r5, sp
   2642e:	4628      	mov	r0, r5
   26430:	4621      	mov	r1, r4
   26432:	f7fc fea3 	bl	2317c <_ZN20complex_full_dynamic3app17hcb6cba8b0ea3a20fE>
   26436:	7828      	ldrb	r0, [r5, #0]
   26438:	2801      	cmp	r0, #1
   2643a:	d107      	bne.n	2644c <_start+0x2210>
   2643c:	f7fe f9d3 	bl	247e6 <_start+0x5aa>
   26440:	00001404 	.word	0x00001404
   26444:	00000ec4 	.word	0x00000ec4
   26448:	000013a8 	.word	0x000013a8
   2644c:	4815      	ldr	r0, [pc, #84]	@ (264a4 <_start+0x2268>)
   2644e:	4468      	add	r0, sp
   26450:	78c1      	ldrb	r1, [r0, #3]
   26452:	4c15      	ldr	r4, [pc, #84]	@ (264a8 <_start+0x226c>)
   26454:	446c      	add	r4, sp
   26456:	70a1      	strb	r1, [r4, #2]
   26458:	7841      	ldrb	r1, [r0, #1]
   2645a:	7882      	ldrb	r2, [r0, #2]
   2645c:	0212      	lsls	r2, r2, #8
   2645e:	1851      	adds	r1, r2, r1
   26460:	8021      	strh	r1, [r4, #0]
   26462:	3008      	adds	r0, #8
   26464:	9908      	ldr	r1, [sp, #32]
   26466:	6e09      	ldr	r1, [r1, #96]	@ 0x60
   26468:	4b10      	ldr	r3, [pc, #64]	@ (264ac <_start+0x2270>)
   2646a:	446b      	add	r3, sp
   2646c:	930b      	str	r3, [sp, #44]	@ 0x2c
   2646e:	c860      	ldmia	r0!, {r5, r6}
   26470:	c360      	stmia	r3!, {r5, r6}
   26472:	c864      	ldmia	r0!, {r2, r5, r6}
   26474:	c364      	stmia	r3!, {r2, r5, r6}
   26476:	0e08      	lsrs	r0, r1, #24
   26478:	71a0      	strb	r0, [r4, #6]
   2647a:	0c08      	lsrs	r0, r1, #16
   2647c:	7160      	strb	r0, [r4, #5]
   2647e:	0a08      	lsrs	r0, r1, #8
   26480:	7120      	strb	r0, [r4, #4]
   26482:	70e1      	strb	r1, [r4, #3]
   26484:	1de0      	adds	r0, r4, #7
   26486:	2214      	movs	r2, #20
   26488:	990b      	ldr	r1, [sp, #44]	@ 0x2c
   2648a:	f000 ff08 	bl	2729e <__aeabi_memcpy>
   2648e:	4d05      	ldr	r5, [pc, #20]	@ (264a4 <_start+0x2268>)
   26490:	446d      	add	r5, sp
   26492:	4628      	mov	r0, r5
   26494:	4621      	mov	r1, r4
   26496:	f7fb fa4f 	bl	21938 <_ZN20complex_full_dynamic3app17h5d3131df78d36048E>
   2649a:	7828      	ldrb	r0, [r5, #0]
   2649c:	2801      	cmp	r0, #1
   2649e:	d107      	bne.n	264b0 <_start+0x2274>
   264a0:	f7fe f9a1 	bl	247e6 <_start+0x5aa>
   264a4:	00001404 	.word	0x00001404
   264a8:	00000ee0 	.word	0x00000ee0
   264ac:	000013a8 	.word	0x000013a8
   264b0:	4819      	ldr	r0, [pc, #100]	@ (26518 <_start+0x22dc>)
   264b2:	4468      	add	r0, sp
   264b4:	78c1      	ldrb	r1, [r0, #3]
   264b6:	4c19      	ldr	r4, [pc, #100]	@ (2651c <_start+0x22e0>)
   264b8:	446c      	add	r4, sp
   264ba:	70a1      	strb	r1, [r4, #2]
   264bc:	7841      	ldrb	r1, [r0, #1]
   264be:	7882      	ldrb	r2, [r0, #2]
   264c0:	0212      	lsls	r2, r2, #8
   264c2:	1851      	adds	r1, r2, r1
   264c4:	8021      	strh	r1, [r4, #0]
   264c6:	3008      	adds	r0, #8
   264c8:	9908      	ldr	r1, [sp, #32]
   264ca:	6e09      	ldr	r1, [r1, #96]	@ 0x60
   264cc:	910a      	str	r1, [sp, #40]	@ 0x28
   264ce:	4b14      	ldr	r3, [pc, #80]	@ (26520 <_start+0x22e4>)
   264d0:	446b      	add	r3, sp
   264d2:	930b      	str	r3, [sp, #44]	@ 0x2c
   264d4:	c864      	ldmia	r0!, {r2, r5, r6}
   264d6:	c364      	stmia	r3!, {r2, r5, r6}
   264d8:	c866      	ldmia	r0!, {r1, r2, r5, r6}
   264da:	c366      	stmia	r3!, {r1, r2, r5, r6}
   264dc:	c826      	ldmia	r0!, {r1, r2, r5}
   264de:	c326      	stmia	r3!, {r1, r2, r5}
   264e0:	c866      	ldmia	r0!, {r1, r2, r5, r6}
   264e2:	c366      	stmia	r3!, {r1, r2, r5, r6}
   264e4:	8800      	ldrh	r0, [r0, #0]
   264e6:	8018      	strh	r0, [r3, #0]
   264e8:	990a      	ldr	r1, [sp, #40]	@ 0x28
   264ea:	0e08      	lsrs	r0, r1, #24
   264ec:	71a0      	strb	r0, [r4, #6]
   264ee:	0c08      	lsrs	r0, r1, #16
   264f0:	7160      	strb	r0, [r4, #5]
   264f2:	0a08      	lsrs	r0, r1, #8
   264f4:	7120      	strb	r0, [r4, #4]
   264f6:	70e1      	strb	r1, [r4, #3]
   264f8:	1de0      	adds	r0, r4, #7
   264fa:	223a      	movs	r2, #58	@ 0x3a
   264fc:	990b      	ldr	r1, [sp, #44]	@ 0x2c
   264fe:	f000 fece 	bl	2729e <__aeabi_memcpy>
   26502:	4d05      	ldr	r5, [pc, #20]	@ (26518 <_start+0x22dc>)
   26504:	446d      	add	r5, sp
   26506:	4628      	mov	r0, r5
   26508:	4621      	mov	r1, r4
   2650a:	f7fc f857 	bl	225bc <_ZN20complex_full_dynamic3app17h9a6755afacf16335E>
   2650e:	7828      	ldrb	r0, [r5, #0]
   26510:	2801      	cmp	r0, #1
   26512:	d107      	bne.n	26524 <_start+0x22e8>
   26514:	f7fe f967 	bl	247e6 <_start+0x5aa>
   26518:	00001404 	.word	0x00001404
   2651c:	00000efc 	.word	0x00000efc
   26520:	000013a8 	.word	0x000013a8
   26524:	4816      	ldr	r0, [pc, #88]	@ (26580 <_start+0x2344>)
   26526:	4468      	add	r0, sp
   26528:	78c1      	ldrb	r1, [r0, #3]
   2652a:	4c16      	ldr	r4, [pc, #88]	@ (26584 <_start+0x2348>)
   2652c:	446c      	add	r4, sp
   2652e:	70a1      	strb	r1, [r4, #2]
   26530:	7841      	ldrb	r1, [r0, #1]
   26532:	7882      	ldrb	r2, [r0, #2]
   26534:	0212      	lsls	r2, r2, #8
   26536:	1851      	adds	r1, r2, r1
   26538:	8021      	strh	r1, [r4, #0]
   2653a:	3008      	adds	r0, #8
   2653c:	9908      	ldr	r1, [sp, #32]
   2653e:	6e09      	ldr	r1, [r1, #96]	@ 0x60
   26540:	910a      	str	r1, [sp, #40]	@ 0x28
   26542:	4b11      	ldr	r3, [pc, #68]	@ (26588 <_start+0x234c>)
   26544:	446b      	add	r3, sp
   26546:	930b      	str	r3, [sp, #44]	@ 0x2c
   26548:	c866      	ldmia	r0!, {r1, r2, r5, r6}
   2654a:	c366      	stmia	r3!, {r1, r2, r5, r6}
   2654c:	7800      	ldrb	r0, [r0, #0]
   2654e:	7018      	strb	r0, [r3, #0]
   26550:	990a      	ldr	r1, [sp, #40]	@ 0x28
   26552:	0e08      	lsrs	r0, r1, #24
   26554:	71a0      	strb	r0, [r4, #6]
   26556:	0c08      	lsrs	r0, r1, #16
   26558:	7160      	strb	r0, [r4, #5]
   2655a:	0a08      	lsrs	r0, r1, #8
   2655c:	7120      	strb	r0, [r4, #4]
   2655e:	70e1      	strb	r1, [r4, #3]
   26560:	1de0      	adds	r0, r4, #7
   26562:	2211      	movs	r2, #17
   26564:	990b      	ldr	r1, [sp, #44]	@ 0x2c
   26566:	f000 fe9a 	bl	2729e <__aeabi_memcpy>
   2656a:	4d05      	ldr	r5, [pc, #20]	@ (26580 <_start+0x2344>)
   2656c:	446d      	add	r5, sp
   2656e:	4628      	mov	r0, r5
   26570:	4621      	mov	r1, r4
   26572:	f7fa f9e7 	bl	20944 <_ZN20complex_full_dynamic3app17h23a9eb6c1e0b7697E>
   26576:	7828      	ldrb	r0, [r5, #0]
   26578:	2801      	cmp	r0, #1
   2657a:	d107      	bne.n	2658c <_start+0x2350>
   2657c:	f7fe f933 	bl	247e6 <_start+0x5aa>
   26580:	00001404 	.word	0x00001404
   26584:	00000f40 	.word	0x00000f40
   26588:	000013a8 	.word	0x000013a8
   2658c:	4817      	ldr	r0, [pc, #92]	@ (265ec <_start+0x23b0>)
   2658e:	4468      	add	r0, sp
   26590:	78c1      	ldrb	r1, [r0, #3]
   26592:	4c17      	ldr	r4, [pc, #92]	@ (265f0 <_start+0x23b4>)
   26594:	446c      	add	r4, sp
   26596:	70a1      	strb	r1, [r4, #2]
   26598:	7841      	ldrb	r1, [r0, #1]
   2659a:	7882      	ldrb	r2, [r0, #2]
   2659c:	0212      	lsls	r2, r2, #8
   2659e:	1851      	adds	r1, r2, r1
   265a0:	8021      	strh	r1, [r4, #0]
   265a2:	3008      	adds	r0, #8
   265a4:	9908      	ldr	r1, [sp, #32]
   265a6:	6e09      	ldr	r1, [r1, #96]	@ 0x60
   265a8:	4b12      	ldr	r3, [pc, #72]	@ (265f4 <_start+0x23b8>)
   265aa:	446b      	add	r3, sp
   265ac:	930b      	str	r3, [sp, #44]	@ 0x2c
   265ae:	c860      	ldmia	r0!, {r5, r6}
   265b0:	c360      	stmia	r3!, {r5, r6}
   265b2:	c864      	ldmia	r0!, {r2, r5, r6}
   265b4:	c364      	stmia	r3!, {r2, r5, r6}
   265b6:	8802      	ldrh	r2, [r0, #0]
   265b8:	801a      	strh	r2, [r3, #0]
   265ba:	7880      	ldrb	r0, [r0, #2]
   265bc:	7098      	strb	r0, [r3, #2]
   265be:	0e08      	lsrs	r0, r1, #24
   265c0:	71a0      	strb	r0, [r4, #6]
   265c2:	0c08      	lsrs	r0, r1, #16
   265c4:	7160      	strb	r0, [r4, #5]
   265c6:	0a08      	lsrs	r0, r1, #8
   265c8:	7120      	strb	r0, [r4, #4]
   265ca:	70e1      	strb	r1, [r4, #3]
   265cc:	1de0      	adds	r0, r4, #7
   265ce:	2217      	movs	r2, #23
   265d0:	990b      	ldr	r1, [sp, #44]	@ 0x2c
   265d2:	f000 fe64 	bl	2729e <__aeabi_memcpy>
   265d6:	4d05      	ldr	r5, [pc, #20]	@ (265ec <_start+0x23b0>)
   265d8:	446d      	add	r5, sp
   265da:	4628      	mov	r0, r5
   265dc:	4621      	mov	r1, r4
   265de:	f7fd fa05 	bl	239ec <_ZN20complex_full_dynamic3app17hdf33c2032af9616fE>
   265e2:	7828      	ldrb	r0, [r5, #0]
   265e4:	2801      	cmp	r0, #1
   265e6:	d107      	bne.n	265f8 <_start+0x23bc>
   265e8:	f7fe f8fd 	bl	247e6 <_start+0x5aa>
   265ec:	00001404 	.word	0x00001404
   265f0:	00000f58 	.word	0x00000f58
   265f4:	000013a8 	.word	0x000013a8
   265f8:	4819      	ldr	r0, [pc, #100]	@ (26660 <_start+0x2424>)
   265fa:	4468      	add	r0, sp
   265fc:	78c1      	ldrb	r1, [r0, #3]
   265fe:	4c19      	ldr	r4, [pc, #100]	@ (26664 <_start+0x2428>)
   26600:	446c      	add	r4, sp
   26602:	70a1      	strb	r1, [r4, #2]
   26604:	7841      	ldrb	r1, [r0, #1]
   26606:	7882      	ldrb	r2, [r0, #2]
   26608:	0212      	lsls	r2, r2, #8
   2660a:	1851      	adds	r1, r2, r1
   2660c:	8021      	strh	r1, [r4, #0]
   2660e:	3008      	adds	r0, #8
   26610:	9908      	ldr	r1, [sp, #32]
   26612:	6e09      	ldr	r1, [r1, #96]	@ 0x60
   26614:	910a      	str	r1, [sp, #40]	@ 0x28
   26616:	4b14      	ldr	r3, [pc, #80]	@ (26668 <_start+0x242c>)
   26618:	446b      	add	r3, sp
   2661a:	930b      	str	r3, [sp, #44]	@ 0x2c
   2661c:	c864      	ldmia	r0!, {r2, r5, r6}
   2661e:	c364      	stmia	r3!, {r2, r5, r6}
   26620:	c864      	ldmia	r0!, {r2, r5, r6}
   26622:	c364      	stmia	r3!, {r2, r5, r6}
   26624:	c864      	ldmia	r0!, {r2, r5, r6}
   26626:	c364      	stmia	r3!, {r2, r5, r6}
   26628:	c866      	ldmia	r0!, {r1, r2, r5, r6}
   2662a:	c366      	stmia	r3!, {r1, r2, r5, r6}
   2662c:	7800      	ldrb	r0, [r0, #0]
   2662e:	7018      	strb	r0, [r3, #0]
   26630:	990a      	ldr	r1, [sp, #40]	@ 0x28
   26632:	0e08      	lsrs	r0, r1, #24
   26634:	71a0      	strb	r0, [r4, #6]
   26636:	0c08      	lsrs	r0, r1, #16
   26638:	7160      	strb	r0, [r4, #5]
   2663a:	0a08      	lsrs	r0, r1, #8
   2663c:	7120      	strb	r0, [r4, #4]
   2663e:	70e1      	strb	r1, [r4, #3]
   26640:	1de0      	adds	r0, r4, #7
   26642:	2235      	movs	r2, #53	@ 0x35
   26644:	990b      	ldr	r1, [sp, #44]	@ 0x2c
   26646:	f000 fe2a 	bl	2729e <__aeabi_memcpy>
   2664a:	4d05      	ldr	r5, [pc, #20]	@ (26660 <_start+0x2424>)
   2664c:	446d      	add	r5, sp
   2664e:	4628      	mov	r0, r5
   26650:	4621      	mov	r1, r4
   26652:	f7fb fa25 	bl	21aa0 <_ZN20complex_full_dynamic3app17h629649340e553f7dE>
   26656:	7828      	ldrb	r0, [r5, #0]
   26658:	2801      	cmp	r0, #1
   2665a:	d107      	bne.n	2666c <_start+0x2430>
   2665c:	f7fe f8c3 	bl	247e6 <_start+0x5aa>
   26660:	00001404 	.word	0x00001404
   26664:	00000f78 	.word	0x00000f78
   26668:	000013a8 	.word	0x000013a8
   2666c:	4817      	ldr	r0, [pc, #92]	@ (266cc <_start+0x2490>)
   2666e:	4468      	add	r0, sp
   26670:	78c1      	ldrb	r1, [r0, #3]
   26672:	4c17      	ldr	r4, [pc, #92]	@ (266d0 <_start+0x2494>)
   26674:	446c      	add	r4, sp
   26676:	70a1      	strb	r1, [r4, #2]
   26678:	7841      	ldrb	r1, [r0, #1]
   2667a:	7882      	ldrb	r2, [r0, #2]
   2667c:	0212      	lsls	r2, r2, #8
   2667e:	1851      	adds	r1, r2, r1
   26680:	8021      	strh	r1, [r4, #0]
   26682:	3008      	adds	r0, #8
   26684:	9908      	ldr	r1, [sp, #32]
   26686:	6e09      	ldr	r1, [r1, #96]	@ 0x60
   26688:	4b12      	ldr	r3, [pc, #72]	@ (266d4 <_start+0x2498>)
   2668a:	446b      	add	r3, sp
   2668c:	930b      	str	r3, [sp, #44]	@ 0x2c
   2668e:	c864      	ldmia	r0!, {r2, r5, r6}
   26690:	c364      	stmia	r3!, {r2, r5, r6}
   26692:	c864      	ldmia	r0!, {r2, r5, r6}
   26694:	c364      	stmia	r3!, {r2, r5, r6}
   26696:	c864      	ldmia	r0!, {r2, r5, r6}
   26698:	c364      	stmia	r3!, {r2, r5, r6}
   2669a:	7800      	ldrb	r0, [r0, #0]
   2669c:	7018      	strb	r0, [r3, #0]
   2669e:	0e08      	lsrs	r0, r1, #24
   266a0:	71a0      	strb	r0, [r4, #6]
   266a2:	0c08      	lsrs	r0, r1, #16
   266a4:	7160      	strb	r0, [r4, #5]
   266a6:	0a08      	lsrs	r0, r1, #8
   266a8:	7120      	strb	r0, [r4, #4]
   266aa:	70e1      	strb	r1, [r4, #3]
   266ac:	1de0      	adds	r0, r4, #7
   266ae:	2225      	movs	r2, #37	@ 0x25
   266b0:	990b      	ldr	r1, [sp, #44]	@ 0x2c
   266b2:	f000 fdf4 	bl	2729e <__aeabi_memcpy>
   266b6:	4d05      	ldr	r5, [pc, #20]	@ (266cc <_start+0x2490>)
   266b8:	446d      	add	r5, sp
   266ba:	4628      	mov	r0, r5
   266bc:	4621      	mov	r1, r4
   266be:	f7fb f88b 	bl	217d8 <_ZN20complex_full_dynamic3app17h57e5e0ac7a62ecaaE>
   266c2:	7828      	ldrb	r0, [r5, #0]
   266c4:	2801      	cmp	r0, #1
   266c6:	d107      	bne.n	266d8 <_start+0x249c>
   266c8:	f7fe f88d 	bl	247e6 <_start+0x5aa>
   266cc:	00001404 	.word	0x00001404
   266d0:	00000fb4 	.word	0x00000fb4
   266d4:	000013a8 	.word	0x000013a8
   266d8:	4816      	ldr	r0, [pc, #88]	@ (26734 <_start+0x24f8>)
   266da:	4468      	add	r0, sp
   266dc:	78c1      	ldrb	r1, [r0, #3]
   266de:	4c16      	ldr	r4, [pc, #88]	@ (26738 <_start+0x24fc>)
   266e0:	446c      	add	r4, sp
   266e2:	70a1      	strb	r1, [r4, #2]
   266e4:	7841      	ldrb	r1, [r0, #1]
   266e6:	7882      	ldrb	r2, [r0, #2]
   266e8:	0212      	lsls	r2, r2, #8
   266ea:	1851      	adds	r1, r2, r1
   266ec:	8021      	strh	r1, [r4, #0]
   266ee:	3008      	adds	r0, #8
   266f0:	9908      	ldr	r1, [sp, #32]
   266f2:	6e09      	ldr	r1, [r1, #96]	@ 0x60
   266f4:	910a      	str	r1, [sp, #40]	@ 0x28
   266f6:	4b11      	ldr	r3, [pc, #68]	@ (2673c <_start+0x2500>)
   266f8:	446b      	add	r3, sp
   266fa:	930b      	str	r3, [sp, #44]	@ 0x2c
   266fc:	c866      	ldmia	r0!, {r1, r2, r5, r6}
   266fe:	c366      	stmia	r3!, {r1, r2, r5, r6}
   26700:	c866      	ldmia	r0!, {r1, r2, r5, r6}
   26702:	c366      	stmia	r3!, {r1, r2, r5, r6}
   26704:	990a      	ldr	r1, [sp, #40]	@ 0x28
   26706:	0e08      	lsrs	r0, r1, #24
   26708:	71a0      	strb	r0, [r4, #6]
   2670a:	0c08      	lsrs	r0, r1, #16
   2670c:	7160      	strb	r0, [r4, #5]
   2670e:	0a08      	lsrs	r0, r1, #8
   26710:	7120      	strb	r0, [r4, #4]
   26712:	70e1      	strb	r1, [r4, #3]
   26714:	1de0      	adds	r0, r4, #7
   26716:	2220      	movs	r2, #32
   26718:	990b      	ldr	r1, [sp, #44]	@ 0x2c
   2671a:	f000 fdc0 	bl	2729e <__aeabi_memcpy>
   2671e:	4d05      	ldr	r5, [pc, #20]	@ (26734 <_start+0x24f8>)
   26720:	446d      	add	r5, sp
   26722:	4628      	mov	r0, r5
   26724:	4621      	mov	r1, r4
   26726:	f7fc fc21 	bl	22f6c <_ZN20complex_full_dynamic3app17hc6713c4f60d226ffE>
   2672a:	7828      	ldrb	r0, [r5, #0]
   2672c:	2801      	cmp	r0, #1
   2672e:	d107      	bne.n	26740 <_start+0x2504>
   26730:	f7fe f859 	bl	247e6 <_start+0x5aa>
   26734:	00001404 	.word	0x00001404
   26738:	00000fe0 	.word	0x00000fe0
   2673c:	000013a8 	.word	0x000013a8
   26740:	4915      	ldr	r1, [pc, #84]	@ (26798 <_start+0x255c>)
   26742:	4469      	add	r1, sp
   26744:	78c8      	ldrb	r0, [r1, #3]
   26746:	4c15      	ldr	r4, [pc, #84]	@ (2679c <_start+0x2560>)
   26748:	446c      	add	r4, sp
   2674a:	70a0      	strb	r0, [r4, #2]
   2674c:	7848      	ldrb	r0, [r1, #1]
   2674e:	788a      	ldrb	r2, [r1, #2]
   26750:	0212      	lsls	r2, r2, #8
   26752:	1810      	adds	r0, r2, r0
   26754:	8020      	strh	r0, [r4, #0]
   26756:	9808      	ldr	r0, [sp, #32]
   26758:	6e05      	ldr	r5, [r0, #96]	@ 0x60
   2675a:	3108      	adds	r1, #8
   2675c:	4810      	ldr	r0, [pc, #64]	@ (267a0 <_start+0x2564>)
   2675e:	4468      	add	r0, sp
   26760:	900b      	str	r0, [sp, #44]	@ 0x2c
   26762:	2648      	movs	r6, #72	@ 0x48
   26764:	4632      	mov	r2, r6
   26766:	f000 fc3a 	bl	26fde <__aeabi_memcpy4>
   2676a:	0e28      	lsrs	r0, r5, #24
   2676c:	71a0      	strb	r0, [r4, #6]
   2676e:	0c28      	lsrs	r0, r5, #16
   26770:	7160      	strb	r0, [r4, #5]
   26772:	0a28      	lsrs	r0, r5, #8
   26774:	7120      	strb	r0, [r4, #4]
   26776:	70e5      	strb	r5, [r4, #3]
   26778:	1de0      	adds	r0, r4, #7
   2677a:	990b      	ldr	r1, [sp, #44]	@ 0x2c
   2677c:	4632      	mov	r2, r6
   2677e:	f000 fd8e 	bl	2729e <__aeabi_memcpy>
   26782:	4d05      	ldr	r5, [pc, #20]	@ (26798 <_start+0x255c>)
   26784:	446d      	add	r5, sp
   26786:	4628      	mov	r0, r5
   26788:	4621      	mov	r1, r4
   2678a:	f7f9 fe13 	bl	203b4 <_ZN20complex_full_dynamic3app17h0a22b4194708e463E>
   2678e:	7828      	ldrb	r0, [r5, #0]
   26790:	2801      	cmp	r0, #1
   26792:	d107      	bne.n	267a4 <_start+0x2568>
   26794:	f7fe f827 	bl	247e6 <_start+0x5aa>
   26798:	00001404 	.word	0x00001404
   2679c:	00001008 	.word	0x00001008
   267a0:	000013a8 	.word	0x000013a8
   267a4:	4818      	ldr	r0, [pc, #96]	@ (26808 <_start+0x25cc>)
   267a6:	4468      	add	r0, sp
   267a8:	78c1      	ldrb	r1, [r0, #3]
   267aa:	4c18      	ldr	r4, [pc, #96]	@ (2680c <_start+0x25d0>)
   267ac:	446c      	add	r4, sp
   267ae:	70a1      	strb	r1, [r4, #2]
   267b0:	7841      	ldrb	r1, [r0, #1]
   267b2:	7882      	ldrb	r2, [r0, #2]
   267b4:	0212      	lsls	r2, r2, #8
   267b6:	1851      	adds	r1, r2, r1
   267b8:	8021      	strh	r1, [r4, #0]
   267ba:	3008      	adds	r0, #8
   267bc:	9908      	ldr	r1, [sp, #32]
   267be:	6e09      	ldr	r1, [r1, #96]	@ 0x60
   267c0:	910a      	str	r1, [sp, #40]	@ 0x28
   267c2:	4b13      	ldr	r3, [pc, #76]	@ (26810 <_start+0x25d4>)
   267c4:	446b      	add	r3, sp
   267c6:	930b      	str	r3, [sp, #44]	@ 0x2c
   267c8:	c864      	ldmia	r0!, {r2, r5, r6}
   267ca:	c364      	stmia	r3!, {r2, r5, r6}
   267cc:	c866      	ldmia	r0!, {r1, r2, r5, r6}
   267ce:	c366      	stmia	r3!, {r1, r2, r5, r6}
   267d0:	c866      	ldmia	r0!, {r1, r2, r5, r6}
   267d2:	c366      	stmia	r3!, {r1, r2, r5, r6}
   267d4:	8800      	ldrh	r0, [r0, #0]
   267d6:	8018      	strh	r0, [r3, #0]
   267d8:	990a      	ldr	r1, [sp, #40]	@ 0x28
   267da:	0e08      	lsrs	r0, r1, #24
   267dc:	71a0      	strb	r0, [r4, #6]
   267de:	0c08      	lsrs	r0, r1, #16
   267e0:	7160      	strb	r0, [r4, #5]
   267e2:	0a08      	lsrs	r0, r1, #8
   267e4:	7120      	strb	r0, [r4, #4]
   267e6:	70e1      	strb	r1, [r4, #3]
   267e8:	1de0      	adds	r0, r4, #7
   267ea:	222e      	movs	r2, #46	@ 0x2e
   267ec:	990b      	ldr	r1, [sp, #44]	@ 0x2c
   267ee:	f000 fd56 	bl	2729e <__aeabi_memcpy>
   267f2:	4d05      	ldr	r5, [pc, #20]	@ (26808 <_start+0x25cc>)
   267f4:	446d      	add	r5, sp
   267f6:	4628      	mov	r0, r5
   267f8:	4621      	mov	r1, r4
   267fa:	f7fa fa5f 	bl	20cbc <_ZN20complex_full_dynamic3app17h2b82577056742545E>
   267fe:	7828      	ldrb	r0, [r5, #0]
   26800:	2801      	cmp	r0, #1
   26802:	d107      	bne.n	26814 <_start+0x25d8>
   26804:	f7fd ffef 	bl	247e6 <_start+0x5aa>
   26808:	00001404 	.word	0x00001404
   2680c:	00001058 	.word	0x00001058
   26810:	000013a8 	.word	0x000013a8
   26814:	4818      	ldr	r0, [pc, #96]	@ (26878 <_start+0x263c>)
   26816:	4468      	add	r0, sp
   26818:	78c1      	ldrb	r1, [r0, #3]
   2681a:	4c18      	ldr	r4, [pc, #96]	@ (2687c <_start+0x2640>)
   2681c:	446c      	add	r4, sp
   2681e:	70a1      	strb	r1, [r4, #2]
   26820:	7841      	ldrb	r1, [r0, #1]
   26822:	7882      	ldrb	r2, [r0, #2]
   26824:	0212      	lsls	r2, r2, #8
   26826:	1851      	adds	r1, r2, r1
   26828:	8021      	strh	r1, [r4, #0]
   2682a:	3008      	adds	r0, #8
   2682c:	9908      	ldr	r1, [sp, #32]
   2682e:	6e09      	ldr	r1, [r1, #96]	@ 0x60
   26830:	910a      	str	r1, [sp, #40]	@ 0x28
   26832:	4b13      	ldr	r3, [pc, #76]	@ (26880 <_start+0x2644>)
   26834:	446b      	add	r3, sp
   26836:	930b      	str	r3, [sp, #44]	@ 0x2c
   26838:	c864      	ldmia	r0!, {r2, r5, r6}
   2683a:	c364      	stmia	r3!, {r2, r5, r6}
   2683c:	c866      	ldmia	r0!, {r1, r2, r5, r6}
   2683e:	c366      	stmia	r3!, {r1, r2, r5, r6}
   26840:	c826      	ldmia	r0!, {r1, r2, r5}
   26842:	c326      	stmia	r3!, {r1, r2, r5}
   26844:	c866      	ldmia	r0!, {r1, r2, r5, r6}
   26846:	c366      	stmia	r3!, {r1, r2, r5, r6}
   26848:	990a      	ldr	r1, [sp, #40]	@ 0x28
   2684a:	0e08      	lsrs	r0, r1, #24
   2684c:	71a0      	strb	r0, [r4, #6]
   2684e:	0c08      	lsrs	r0, r1, #16
   26850:	7160      	strb	r0, [r4, #5]
   26852:	0a08      	lsrs	r0, r1, #8
   26854:	7120      	strb	r0, [r4, #4]
   26856:	70e1      	strb	r1, [r4, #3]
   26858:	1de0      	adds	r0, r4, #7
   2685a:	2238      	movs	r2, #56	@ 0x38
   2685c:	990b      	ldr	r1, [sp, #44]	@ 0x2c
   2685e:	f000 fd1e 	bl	2729e <__aeabi_memcpy>
   26862:	4d05      	ldr	r5, [pc, #20]	@ (26878 <_start+0x263c>)
   26864:	446d      	add	r5, sp
   26866:	4628      	mov	r0, r5
   26868:	4621      	mov	r1, r4
   2686a:	f7fc fce3 	bl	23234 <_ZN20complex_full_dynamic3app17hcd0145decdd70a17E>
   2686e:	7828      	ldrb	r0, [r5, #0]
   26870:	2801      	cmp	r0, #1
   26872:	d107      	bne.n	26884 <_start+0x2648>
   26874:	f7fd ffb7 	bl	247e6 <_start+0x5aa>
   26878:	00001404 	.word	0x00001404
   2687c:	00001090 	.word	0x00001090
   26880:	000013a8 	.word	0x000013a8
   26884:	4914      	ldr	r1, [pc, #80]	@ (268d8 <_start+0x269c>)
   26886:	4469      	add	r1, sp
   26888:	9b08      	ldr	r3, [sp, #32]
   2688a:	6ed8      	ldr	r0, [r3, #108]	@ 0x6c
   2688c:	8108      	strh	r0, [r1, #8]
   2688e:	4813      	ldr	r0, [pc, #76]	@ (268dc <_start+0x26a0>)
   26890:	4468      	add	r0, sp
   26892:	78c2      	ldrb	r2, [r0, #3]
   26894:	4c12      	ldr	r4, [pc, #72]	@ (268e0 <_start+0x26a4>)
   26896:	446c      	add	r4, sp
   26898:	70a2      	strb	r2, [r4, #2]
   2689a:	7842      	ldrb	r2, [r0, #1]
   2689c:	7880      	ldrb	r0, [r0, #2]
   2689e:	0200      	lsls	r0, r0, #8
   268a0:	1880      	adds	r0, r0, r2
   268a2:	8020      	strh	r0, [r4, #0]
   268a4:	6e18      	ldr	r0, [r3, #96]	@ 0x60
   268a6:	70e0      	strb	r0, [r4, #3]
   268a8:	0e02      	lsrs	r2, r0, #24
   268aa:	71a2      	strb	r2, [r4, #6]
   268ac:	0c02      	lsrs	r2, r0, #16
   268ae:	7162      	strb	r2, [r4, #5]
   268b0:	0a00      	lsrs	r0, r0, #8
   268b2:	7120      	strb	r0, [r4, #4]
   268b4:	6e58      	ldr	r0, [r3, #100]	@ 0x64
   268b6:	6e9a      	ldr	r2, [r3, #104]	@ 0x68
   268b8:	c305      	stmia	r3!, {r0, r2}
   268ba:	1de0      	adds	r0, r4, #7
   268bc:	220a      	movs	r2, #10
   268be:	f000 fcee 	bl	2729e <__aeabi_memcpy>
   268c2:	4d06      	ldr	r5, [pc, #24]	@ (268dc <_start+0x26a0>)
   268c4:	446d      	add	r5, sp
   268c6:	4628      	mov	r0, r5
   268c8:	4621      	mov	r1, r4
   268ca:	f7fa f947 	bl	20b5c <_ZN20complex_full_dynamic3app17h2933b4ac2cf33262E>
   268ce:	7828      	ldrb	r0, [r5, #0]
   268d0:	2801      	cmp	r0, #1
   268d2:	d107      	bne.n	268e4 <_start+0x26a8>
   268d4:	f7fd ff87 	bl	247e6 <_start+0x5aa>
   268d8:	000013a8 	.word	0x000013a8
   268dc:	00001404 	.word	0x00001404
   268e0:	000010d0 	.word	0x000010d0
   268e4:	4818      	ldr	r0, [pc, #96]	@ (26948 <_start+0x270c>)
   268e6:	4468      	add	r0, sp
   268e8:	78c1      	ldrb	r1, [r0, #3]
   268ea:	4c18      	ldr	r4, [pc, #96]	@ (2694c <_start+0x2710>)
   268ec:	446c      	add	r4, sp
   268ee:	70a1      	strb	r1, [r4, #2]
   268f0:	7841      	ldrb	r1, [r0, #1]
   268f2:	7882      	ldrb	r2, [r0, #2]
   268f4:	0212      	lsls	r2, r2, #8
   268f6:	1851      	adds	r1, r2, r1
   268f8:	8021      	strh	r1, [r4, #0]
   268fa:	3008      	adds	r0, #8
   268fc:	9908      	ldr	r1, [sp, #32]
   268fe:	6e09      	ldr	r1, [r1, #96]	@ 0x60
   26900:	910a      	str	r1, [sp, #40]	@ 0x28
   26902:	4b13      	ldr	r3, [pc, #76]	@ (26950 <_start+0x2714>)
   26904:	446b      	add	r3, sp
   26906:	930b      	str	r3, [sp, #44]	@ 0x2c
   26908:	c864      	ldmia	r0!, {r2, r5, r6}
   2690a:	c364      	stmia	r3!, {r2, r5, r6}
   2690c:	c866      	ldmia	r0!, {r1, r2, r5, r6}
   2690e:	c366      	stmia	r3!, {r1, r2, r5, r6}
   26910:	c826      	ldmia	r0!, {r1, r2, r5}
   26912:	c326      	stmia	r3!, {r1, r2, r5}
   26914:	c866      	ldmia	r0!, {r1, r2, r5, r6}
   26916:	c366      	stmia	r3!, {r1, r2, r5, r6}
   26918:	990a      	ldr	r1, [sp, #40]	@ 0x28
   2691a:	0e08      	lsrs	r0, r1, #24
   2691c:	71a0      	strb	r0, [r4, #6]
   2691e:	0c08      	lsrs	r0, r1, #16
   26920:	7160      	strb	r0, [r4, #5]
   26922:	0a08      	lsrs	r0, r1, #8
   26924:	7120      	strb	r0, [r4, #4]
   26926:	70e1      	strb	r1, [r4, #3]
   26928:	1de0      	adds	r0, r4, #7
   2692a:	2238      	movs	r2, #56	@ 0x38
   2692c:	990b      	ldr	r1, [sp, #44]	@ 0x2c
   2692e:	f000 fcb6 	bl	2729e <__aeabi_memcpy>
   26932:	4d05      	ldr	r5, [pc, #20]	@ (26948 <_start+0x270c>)
   26934:	446d      	add	r5, sp
   26936:	4628      	mov	r0, r5
   26938:	4621      	mov	r1, r4
   2693a:	f7f9 fcdf 	bl	202fc <_ZN20complex_full_dynamic3app17h09a3bb6fa07d9a4aE>
   2693e:	7828      	ldrb	r0, [r5, #0]
   26940:	2801      	cmp	r0, #1
   26942:	d107      	bne.n	26954 <_start+0x2718>
   26944:	f7fd ff4f 	bl	247e6 <_start+0x5aa>
   26948:	00001404 	.word	0x00001404
   2694c:	000010e4 	.word	0x000010e4
   26950:	000013a8 	.word	0x000013a8
   26954:	4816      	ldr	r0, [pc, #88]	@ (269b0 <_start+0x2774>)
   26956:	4468      	add	r0, sp
   26958:	78c1      	ldrb	r1, [r0, #3]
   2695a:	4c16      	ldr	r4, [pc, #88]	@ (269b4 <_start+0x2778>)
   2695c:	446c      	add	r4, sp
   2695e:	70a1      	strb	r1, [r4, #2]
   26960:	7841      	ldrb	r1, [r0, #1]
   26962:	7882      	ldrb	r2, [r0, #2]
   26964:	0212      	lsls	r2, r2, #8
   26966:	1851      	adds	r1, r2, r1
   26968:	8021      	strh	r1, [r4, #0]
   2696a:	3008      	adds	r0, #8
   2696c:	9908      	ldr	r1, [sp, #32]
   2696e:	6e09      	ldr	r1, [r1, #96]	@ 0x60
   26970:	4b11      	ldr	r3, [pc, #68]	@ (269b8 <_start+0x277c>)
   26972:	446b      	add	r3, sp
   26974:	930b      	str	r3, [sp, #44]	@ 0x2c
   26976:	c860      	ldmia	r0!, {r5, r6}
   26978:	c360      	stmia	r3!, {r5, r6}
   2697a:	c864      	ldmia	r0!, {r2, r5, r6}
   2697c:	c364      	stmia	r3!, {r2, r5, r6}
   2697e:	7800      	ldrb	r0, [r0, #0]
   26980:	7018      	strb	r0, [r3, #0]
   26982:	0e08      	lsrs	r0, r1, #24
   26984:	71a0      	strb	r0, [r4, #6]
   26986:	0c08      	lsrs	r0, r1, #16
   26988:	7160      	strb	r0, [r4, #5]
   2698a:	0a08      	lsrs	r0, r1, #8
   2698c:	7120      	strb	r0, [r4, #4]
   2698e:	70e1      	strb	r1, [r4, #3]
   26990:	1de0      	adds	r0, r4, #7
   26992:	2215      	movs	r2, #21
   26994:	990b      	ldr	r1, [sp, #44]	@ 0x2c
   26996:	f000 fc82 	bl	2729e <__aeabi_memcpy>
   2699a:	4d05      	ldr	r5, [pc, #20]	@ (269b0 <_start+0x2774>)
   2699c:	446d      	add	r5, sp
   2699e:	4628      	mov	r0, r5
   269a0:	4621      	mov	r1, r4
   269a2:	f7fb fc4f 	bl	22244 <_ZN20complex_full_dynamic3app17h8512f50f31d37db6E>
   269a6:	7828      	ldrb	r0, [r5, #0]
   269a8:	2801      	cmp	r0, #1
   269aa:	d107      	bne.n	269bc <_start+0x2780>
   269ac:	f7fd ff1b 	bl	247e6 <_start+0x5aa>
   269b0:	00001404 	.word	0x00001404
   269b4:	00001124 	.word	0x00001124
   269b8:	000013a8 	.word	0x000013a8
   269bc:	4915      	ldr	r1, [pc, #84]	@ (26a14 <_start+0x27d8>)
   269be:	4469      	add	r1, sp
   269c0:	78c8      	ldrb	r0, [r1, #3]
   269c2:	4c15      	ldr	r4, [pc, #84]	@ (26a18 <_start+0x27dc>)
   269c4:	446c      	add	r4, sp
   269c6:	70a0      	strb	r0, [r4, #2]
   269c8:	7848      	ldrb	r0, [r1, #1]
   269ca:	788a      	ldrb	r2, [r1, #2]
   269cc:	0212      	lsls	r2, r2, #8
   269ce:	1810      	adds	r0, r2, r0
   269d0:	8020      	strh	r0, [r4, #0]
   269d2:	9808      	ldr	r0, [sp, #32]
   269d4:	6e05      	ldr	r5, [r0, #96]	@ 0x60
   269d6:	3108      	adds	r1, #8
   269d8:	4810      	ldr	r0, [pc, #64]	@ (26a1c <_start+0x27e0>)
   269da:	4468      	add	r0, sp
   269dc:	900b      	str	r0, [sp, #44]	@ 0x2c
   269de:	2656      	movs	r6, #86	@ 0x56
   269e0:	4632      	mov	r2, r6
   269e2:	f000 fafc 	bl	26fde <__aeabi_memcpy4>
   269e6:	0e28      	lsrs	r0, r5, #24
   269e8:	71a0      	strb	r0, [r4, #6]
   269ea:	0c28      	lsrs	r0, r5, #16
   269ec:	7160      	strb	r0, [r4, #5]
   269ee:	0a28      	lsrs	r0, r5, #8
   269f0:	7120      	strb	r0, [r4, #4]
   269f2:	70e5      	strb	r5, [r4, #3]
   269f4:	1de0      	adds	r0, r4, #7
   269f6:	990b      	ldr	r1, [sp, #44]	@ 0x2c
   269f8:	4632      	mov	r2, r6
   269fa:	f000 fc50 	bl	2729e <__aeabi_memcpy>
   269fe:	4d05      	ldr	r5, [pc, #20]	@ (26a14 <_start+0x27d8>)
   26a00:	446d      	add	r5, sp
   26a02:	4628      	mov	r0, r5
   26a04:	4621      	mov	r1, r4
   26a06:	f7fc fd1f 	bl	23448 <_ZN20complex_full_dynamic3app17hd1d1a19f9d9a643fE>
   26a0a:	7828      	ldrb	r0, [r5, #0]
   26a0c:	2801      	cmp	r0, #1
   26a0e:	d107      	bne.n	26a20 <_start+0x27e4>
   26a10:	f7fd fee9 	bl	247e6 <_start+0x5aa>
   26a14:	00001404 	.word	0x00001404
   26a18:	00001140 	.word	0x00001140
   26a1c:	000013a8 	.word	0x000013a8
   26a20:	4915      	ldr	r1, [pc, #84]	@ (26a78 <_start+0x283c>)
   26a22:	4469      	add	r1, sp
   26a24:	9b08      	ldr	r3, [sp, #32]
   26a26:	6ed8      	ldr	r0, [r3, #108]	@ 0x6c
   26a28:	8108      	strh	r0, [r1, #8]
   26a2a:	4814      	ldr	r0, [pc, #80]	@ (26a7c <_start+0x2840>)
   26a2c:	4468      	add	r0, sp
   26a2e:	78c2      	ldrb	r2, [r0, #3]
   26a30:	4c13      	ldr	r4, [pc, #76]	@ (26a80 <_start+0x2844>)
   26a32:	446c      	add	r4, sp
   26a34:	70a2      	strb	r2, [r4, #2]
   26a36:	7c82      	ldrb	r2, [r0, #18]
   26a38:	728a      	strb	r2, [r1, #10]
   26a3a:	7842      	ldrb	r2, [r0, #1]
   26a3c:	7880      	ldrb	r0, [r0, #2]
   26a3e:	0200      	lsls	r0, r0, #8
   26a40:	1880      	adds	r0, r0, r2
   26a42:	8020      	strh	r0, [r4, #0]
   26a44:	6e18      	ldr	r0, [r3, #96]	@ 0x60
   26a46:	70e0      	strb	r0, [r4, #3]
   26a48:	0e02      	lsrs	r2, r0, #24
   26a4a:	71a2      	strb	r2, [r4, #6]
   26a4c:	0c02      	lsrs	r2, r0, #16
   26a4e:	7162      	strb	r2, [r4, #5]
   26a50:	0a00      	lsrs	r0, r0, #8
   26a52:	7120      	strb	r0, [r4, #4]
   26a54:	6e58      	ldr	r0, [r3, #100]	@ 0x64
   26a56:	6e9a      	ldr	r2, [r3, #104]	@ 0x68
   26a58:	c305      	stmia	r3!, {r0, r2}
   26a5a:	1de0      	adds	r0, r4, #7
   26a5c:	220b      	movs	r2, #11
   26a5e:	f000 fc1e 	bl	2729e <__aeabi_memcpy>
   26a62:	4d06      	ldr	r5, [pc, #24]	@ (26a7c <_start+0x2840>)
   26a64:	446d      	add	r5, sp
   26a66:	4628      	mov	r0, r5
   26a68:	4621      	mov	r1, r4
   26a6a:	f7fc fa27 	bl	22ebc <_ZN20complex_full_dynamic3app17hc5bb075b1b7aa46fE>
   26a6e:	7828      	ldrb	r0, [r5, #0]
   26a70:	2801      	cmp	r0, #1
   26a72:	d107      	bne.n	26a84 <_start+0x2848>
   26a74:	f7fd feb7 	bl	247e6 <_start+0x5aa>
   26a78:	000013a8 	.word	0x000013a8
   26a7c:	00001404 	.word	0x00001404
   26a80:	000011a0 	.word	0x000011a0
   26a84:	4819      	ldr	r0, [pc, #100]	@ (26aec <_start+0x28b0>)
   26a86:	4468      	add	r0, sp
   26a88:	78c1      	ldrb	r1, [r0, #3]
   26a8a:	4c19      	ldr	r4, [pc, #100]	@ (26af0 <_start+0x28b4>)
   26a8c:	446c      	add	r4, sp
   26a8e:	70a1      	strb	r1, [r4, #2]
   26a90:	7841      	ldrb	r1, [r0, #1]
   26a92:	7882      	ldrb	r2, [r0, #2]
   26a94:	0212      	lsls	r2, r2, #8
   26a96:	1851      	adds	r1, r2, r1
   26a98:	8021      	strh	r1, [r4, #0]
   26a9a:	3008      	adds	r0, #8
   26a9c:	9908      	ldr	r1, [sp, #32]
   26a9e:	6e09      	ldr	r1, [r1, #96]	@ 0x60
   26aa0:	910a      	str	r1, [sp, #40]	@ 0x28
   26aa2:	4b14      	ldr	r3, [pc, #80]	@ (26af4 <_start+0x28b8>)
   26aa4:	446b      	add	r3, sp
   26aa6:	930b      	str	r3, [sp, #44]	@ 0x2c
   26aa8:	c864      	ldmia	r0!, {r2, r5, r6}
   26aaa:	c364      	stmia	r3!, {r2, r5, r6}
   26aac:	c866      	ldmia	r0!, {r1, r2, r5, r6}
   26aae:	c366      	stmia	r3!, {r1, r2, r5, r6}
   26ab0:	c866      	ldmia	r0!, {r1, r2, r5, r6}
   26ab2:	c366      	stmia	r3!, {r1, r2, r5, r6}
   26ab4:	c866      	ldmia	r0!, {r1, r2, r5, r6}
   26ab6:	c366      	stmia	r3!, {r1, r2, r5, r6}
   26ab8:	7800      	ldrb	r0, [r0, #0]
   26aba:	7018      	strb	r0, [r3, #0]
   26abc:	990a      	ldr	r1, [sp, #40]	@ 0x28
   26abe:	0e08      	lsrs	r0, r1, #24
   26ac0:	71a0      	strb	r0, [r4, #6]
   26ac2:	0c08      	lsrs	r0, r1, #16
   26ac4:	7160      	strb	r0, [r4, #5]
   26ac6:	0a08      	lsrs	r0, r1, #8
   26ac8:	7120      	strb	r0, [r4, #4]
   26aca:	70e1      	strb	r1, [r4, #3]
   26acc:	1de0      	adds	r0, r4, #7
   26ace:	223d      	movs	r2, #61	@ 0x3d
   26ad0:	990b      	ldr	r1, [sp, #44]	@ 0x2c
   26ad2:	f000 fbe4 	bl	2729e <__aeabi_memcpy>
   26ad6:	4d05      	ldr	r5, [pc, #20]	@ (26aec <_start+0x28b0>)
   26ad8:	446d      	add	r5, sp
   26ada:	4628      	mov	r0, r5
   26adc:	4621      	mov	r1, r4
   26ade:	f7fa fb5d 	bl	2119c <_ZN20complex_full_dynamic3app17h3925a07215814f4fE>
   26ae2:	7828      	ldrb	r0, [r5, #0]
   26ae4:	2801      	cmp	r0, #1
   26ae6:	d107      	bne.n	26af8 <_start+0x28bc>
   26ae8:	f7fd fe7d 	bl	247e6 <_start+0x5aa>
   26aec:	00001404 	.word	0x00001404
   26af0:	000011b4 	.word	0x000011b4
   26af4:	000013a8 	.word	0x000013a8
   26af8:	48fb      	ldr	r0, [pc, #1004]	@ (26ee8 <_start+0x2cac>)
   26afa:	4468      	add	r0, sp
   26afc:	78c1      	ldrb	r1, [r0, #3]
   26afe:	4cfc      	ldr	r4, [pc, #1008]	@ (26ef0 <_start+0x2cb4>)
   26b00:	446c      	add	r4, sp
   26b02:	70a1      	strb	r1, [r4, #2]
   26b04:	7841      	ldrb	r1, [r0, #1]
   26b06:	7882      	ldrb	r2, [r0, #2]
   26b08:	0212      	lsls	r2, r2, #8
   26b0a:	1851      	adds	r1, r2, r1
   26b0c:	8021      	strh	r1, [r4, #0]
   26b0e:	3008      	adds	r0, #8
   26b10:	9908      	ldr	r1, [sp, #32]
   26b12:	6e09      	ldr	r1, [r1, #96]	@ 0x60
   26b14:	910a      	str	r1, [sp, #40]	@ 0x28
   26b16:	4bf5      	ldr	r3, [pc, #980]	@ (26eec <_start+0x2cb0>)
   26b18:	446b      	add	r3, sp
   26b1a:	930b      	str	r3, [sp, #44]	@ 0x2c
   26b1c:	c864      	ldmia	r0!, {r2, r5, r6}
   26b1e:	c364      	stmia	r3!, {r2, r5, r6}
   26b20:	c866      	ldmia	r0!, {r1, r2, r5, r6}
   26b22:	c366      	stmia	r3!, {r1, r2, r5, r6}
   26b24:	990a      	ldr	r1, [sp, #40]	@ 0x28
   26b26:	0e08      	lsrs	r0, r1, #24
   26b28:	71a0      	strb	r0, [r4, #6]
   26b2a:	0c08      	lsrs	r0, r1, #16
   26b2c:	7160      	strb	r0, [r4, #5]
   26b2e:	0a08      	lsrs	r0, r1, #8
   26b30:	7120      	strb	r0, [r4, #4]
   26b32:	70e1      	strb	r1, [r4, #3]
   26b34:	1de0      	adds	r0, r4, #7
   26b36:	221c      	movs	r2, #28
   26b38:	990b      	ldr	r1, [sp, #44]	@ 0x2c
   26b3a:	f000 fbb0 	bl	2729e <__aeabi_memcpy>
   26b3e:	4dea      	ldr	r5, [pc, #936]	@ (26ee8 <_start+0x2cac>)
   26b40:	446d      	add	r5, sp
   26b42:	4628      	mov	r0, r5
   26b44:	4621      	mov	r1, r4
   26b46:	f7fa f9c7 	bl	20ed8 <_ZN20complex_full_dynamic3app17h2e12a21a5d5605abE>
   26b4a:	7828      	ldrb	r0, [r5, #0]
   26b4c:	2801      	cmp	r0, #1
   26b4e:	d101      	bne.n	26b54 <_start+0x2918>
   26b50:	f7fd fe49 	bl	247e6 <_start+0x5aa>
   26b54:	48e4      	ldr	r0, [pc, #912]	@ (26ee8 <_start+0x2cac>)
   26b56:	4468      	add	r0, sp
   26b58:	78c1      	ldrb	r1, [r0, #3]
   26b5a:	4ce6      	ldr	r4, [pc, #920]	@ (26ef4 <_start+0x2cb8>)
   26b5c:	446c      	add	r4, sp
   26b5e:	70a1      	strb	r1, [r4, #2]
   26b60:	7841      	ldrb	r1, [r0, #1]
   26b62:	7882      	ldrb	r2, [r0, #2]
   26b64:	0212      	lsls	r2, r2, #8
   26b66:	1851      	adds	r1, r2, r1
   26b68:	8021      	strh	r1, [r4, #0]
   26b6a:	3008      	adds	r0, #8
   26b6c:	9908      	ldr	r1, [sp, #32]
   26b6e:	6e09      	ldr	r1, [r1, #96]	@ 0x60
   26b70:	910a      	str	r1, [sp, #40]	@ 0x28
   26b72:	4bde      	ldr	r3, [pc, #888]	@ (26eec <_start+0x2cb0>)
   26b74:	446b      	add	r3, sp
   26b76:	930b      	str	r3, [sp, #44]	@ 0x2c
   26b78:	c864      	ldmia	r0!, {r2, r5, r6}
   26b7a:	c364      	stmia	r3!, {r2, r5, r6}
   26b7c:	c866      	ldmia	r0!, {r1, r2, r5, r6}
   26b7e:	c366      	stmia	r3!, {r1, r2, r5, r6}
   26b80:	7800      	ldrb	r0, [r0, #0]
   26b82:	7018      	strb	r0, [r3, #0]
   26b84:	990a      	ldr	r1, [sp, #40]	@ 0x28
   26b86:	0e08      	lsrs	r0, r1, #24
   26b88:	71a0      	strb	r0, [r4, #6]
   26b8a:	0c08      	lsrs	r0, r1, #16
   26b8c:	7160      	strb	r0, [r4, #5]
   26b8e:	0a08      	lsrs	r0, r1, #8
   26b90:	7120      	strb	r0, [r4, #4]
   26b92:	70e1      	strb	r1, [r4, #3]
   26b94:	1de0      	adds	r0, r4, #7
   26b96:	221d      	movs	r2, #29
   26b98:	990b      	ldr	r1, [sp, #44]	@ 0x2c
   26b9a:	f000 fb80 	bl	2729e <__aeabi_memcpy>
   26b9e:	4dd2      	ldr	r5, [pc, #840]	@ (26ee8 <_start+0x2cac>)
   26ba0:	446d      	add	r5, sp
   26ba2:	4628      	mov	r0, r5
   26ba4:	4621      	mov	r1, r4
   26ba6:	f7fc ffd1 	bl	23b4c <_ZN20complex_full_dynamic3app17hebddf6eea8672dffE>
   26baa:	7828      	ldrb	r0, [r5, #0]
   26bac:	2801      	cmp	r0, #1
   26bae:	d101      	bne.n	26bb4 <_start+0x2978>
   26bb0:	f7fd fe19 	bl	247e6 <_start+0x5aa>
   26bb4:	48cc      	ldr	r0, [pc, #816]	@ (26ee8 <_start+0x2cac>)
   26bb6:	4468      	add	r0, sp
   26bb8:	78c1      	ldrb	r1, [r0, #3]
   26bba:	4ccf      	ldr	r4, [pc, #828]	@ (26ef8 <_start+0x2cbc>)
   26bbc:	446c      	add	r4, sp
   26bbe:	70a1      	strb	r1, [r4, #2]
   26bc0:	7841      	ldrb	r1, [r0, #1]
   26bc2:	7882      	ldrb	r2, [r0, #2]
   26bc4:	0212      	lsls	r2, r2, #8
   26bc6:	1851      	adds	r1, r2, r1
   26bc8:	8021      	strh	r1, [r4, #0]
   26bca:	3008      	adds	r0, #8
   26bcc:	9908      	ldr	r1, [sp, #32]
   26bce:	6e09      	ldr	r1, [r1, #96]	@ 0x60
   26bd0:	910a      	str	r1, [sp, #40]	@ 0x28
   26bd2:	4bc6      	ldr	r3, [pc, #792]	@ (26eec <_start+0x2cb0>)
   26bd4:	446b      	add	r3, sp
   26bd6:	930b      	str	r3, [sp, #44]	@ 0x2c
   26bd8:	c864      	ldmia	r0!, {r2, r5, r6}
   26bda:	c364      	stmia	r3!, {r2, r5, r6}
   26bdc:	c864      	ldmia	r0!, {r2, r5, r6}
   26bde:	c364      	stmia	r3!, {r2, r5, r6}
   26be0:	c866      	ldmia	r0!, {r1, r2, r5, r6}
   26be2:	c366      	stmia	r3!, {r1, r2, r5, r6}
   26be4:	990a      	ldr	r1, [sp, #40]	@ 0x28
   26be6:	0e08      	lsrs	r0, r1, #24
   26be8:	71a0      	strb	r0, [r4, #6]
   26bea:	0c08      	lsrs	r0, r1, #16
   26bec:	7160      	strb	r0, [r4, #5]
   26bee:	0a08      	lsrs	r0, r1, #8
   26bf0:	7120      	strb	r0, [r4, #4]
   26bf2:	70e1      	strb	r1, [r4, #3]
   26bf4:	1de0      	adds	r0, r4, #7
   26bf6:	2228      	movs	r2, #40	@ 0x28
   26bf8:	990b      	ldr	r1, [sp, #44]	@ 0x2c
   26bfa:	f000 fb50 	bl	2729e <__aeabi_memcpy>
   26bfe:	4dba      	ldr	r5, [pc, #744]	@ (26ee8 <_start+0x2cac>)
   26c00:	446d      	add	r5, sp
   26c02:	4628      	mov	r0, r5
   26c04:	4621      	mov	r1, r4
   26c06:	f7fa ffff 	bl	21c08 <_ZN20complex_full_dynamic3app17h633f963079421463E>
   26c0a:	7828      	ldrb	r0, [r5, #0]
   26c0c:	2801      	cmp	r0, #1
   26c0e:	d101      	bne.n	26c14 <_start+0x29d8>
   26c10:	f7fd fde9 	bl	247e6 <_start+0x5aa>
   26c14:	49b4      	ldr	r1, [pc, #720]	@ (26ee8 <_start+0x2cac>)
   26c16:	4469      	add	r1, sp
   26c18:	78c8      	ldrb	r0, [r1, #3]
   26c1a:	4cb8      	ldr	r4, [pc, #736]	@ (26efc <_start+0x2cc0>)
   26c1c:	446c      	add	r4, sp
   26c1e:	70a0      	strb	r0, [r4, #2]
   26c20:	7848      	ldrb	r0, [r1, #1]
   26c22:	788a      	ldrb	r2, [r1, #2]
   26c24:	0212      	lsls	r2, r2, #8
   26c26:	1810      	adds	r0, r2, r0
   26c28:	8020      	strh	r0, [r4, #0]
   26c2a:	9808      	ldr	r0, [sp, #32]
   26c2c:	6e05      	ldr	r5, [r0, #96]	@ 0x60
   26c2e:	3108      	adds	r1, #8
   26c30:	48ae      	ldr	r0, [pc, #696]	@ (26eec <_start+0x2cb0>)
   26c32:	4468      	add	r0, sp
   26c34:	900b      	str	r0, [sp, #44]	@ 0x2c
   26c36:	2657      	movs	r6, #87	@ 0x57
   26c38:	4632      	mov	r2, r6
   26c3a:	f000 f9d0 	bl	26fde <__aeabi_memcpy4>
   26c3e:	0e28      	lsrs	r0, r5, #24
   26c40:	71a0      	strb	r0, [r4, #6]
   26c42:	0c28      	lsrs	r0, r5, #16
   26c44:	7160      	strb	r0, [r4, #5]
   26c46:	0a28      	lsrs	r0, r5, #8
   26c48:	7120      	strb	r0, [r4, #4]
   26c4a:	70e5      	strb	r5, [r4, #3]
   26c4c:	1de0      	adds	r0, r4, #7
   26c4e:	990b      	ldr	r1, [sp, #44]	@ 0x2c
   26c50:	4632      	mov	r2, r6
   26c52:	f000 fb24 	bl	2729e <__aeabi_memcpy>
   26c56:	4da4      	ldr	r5, [pc, #656]	@ (26ee8 <_start+0x2cac>)
   26c58:	446d      	add	r5, sp
   26c5a:	4628      	mov	r0, r5
   26c5c:	4621      	mov	r1, r4
   26c5e:	f7fd f9e3 	bl	24028 <_ZN20complex_full_dynamic3app17hfbdda6b0c00ea930E>
   26c62:	7828      	ldrb	r0, [r5, #0]
   26c64:	2801      	cmp	r0, #1
   26c66:	d101      	bne.n	26c6c <_start+0x2a30>
   26c68:	f7fd fdbd 	bl	247e6 <_start+0x5aa>
   26c6c:	499e      	ldr	r1, [pc, #632]	@ (26ee8 <_start+0x2cac>)
   26c6e:	4469      	add	r1, sp
   26c70:	78c8      	ldrb	r0, [r1, #3]
   26c72:	4ca3      	ldr	r4, [pc, #652]	@ (26f00 <_start+0x2cc4>)
   26c74:	446c      	add	r4, sp
   26c76:	70a0      	strb	r0, [r4, #2]
   26c78:	7848      	ldrb	r0, [r1, #1]
   26c7a:	788a      	ldrb	r2, [r1, #2]
   26c7c:	0212      	lsls	r2, r2, #8
   26c7e:	1810      	adds	r0, r2, r0
   26c80:	8020      	strh	r0, [r4, #0]
   26c82:	9808      	ldr	r0, [sp, #32]
   26c84:	6e05      	ldr	r5, [r0, #96]	@ 0x60
   26c86:	3108      	adds	r1, #8
   26c88:	4898      	ldr	r0, [pc, #608]	@ (26eec <_start+0x2cb0>)
   26c8a:	4468      	add	r0, sp
   26c8c:	900b      	str	r0, [sp, #44]	@ 0x2c
   26c8e:	264e      	movs	r6, #78	@ 0x4e
   26c90:	4632      	mov	r2, r6
   26c92:	f000 f9a4 	bl	26fde <__aeabi_memcpy4>
   26c96:	0e28      	lsrs	r0, r5, #24
   26c98:	71a0      	strb	r0, [r4, #6]
   26c9a:	0c28      	lsrs	r0, r5, #16
   26c9c:	7160      	strb	r0, [r4, #5]
   26c9e:	0a28      	lsrs	r0, r5, #8
   26ca0:	7120      	strb	r0, [r4, #4]
   26ca2:	70e5      	strb	r5, [r4, #3]
   26ca4:	1de0      	adds	r0, r4, #7
   26ca6:	990b      	ldr	r1, [sp, #44]	@ 0x2c
   26ca8:	4632      	mov	r2, r6
   26caa:	f000 faf8 	bl	2729e <__aeabi_memcpy>
   26cae:	4d8e      	ldr	r5, [pc, #568]	@ (26ee8 <_start+0x2cac>)
   26cb0:	446d      	add	r5, sp
   26cb2:	4628      	mov	r0, r5
   26cb4:	4621      	mov	r1, r4
   26cb6:	f7fb f8b1 	bl	21e1c <_ZN20complex_full_dynamic3app17h6b3218325ee08034E>
   26cba:	7828      	ldrb	r0, [r5, #0]
   26cbc:	2801      	cmp	r0, #1
   26cbe:	d101      	bne.n	26cc4 <_start+0x2a88>
   26cc0:	f7fd fd91 	bl	247e6 <_start+0x5aa>
   26cc4:	4989      	ldr	r1, [pc, #548]	@ (26eec <_start+0x2cb0>)
   26cc6:	4469      	add	r1, sp
   26cc8:	9b08      	ldr	r3, [sp, #32]
   26cca:	6ed8      	ldr	r0, [r3, #108]	@ 0x6c
   26ccc:	8108      	strh	r0, [r1, #8]
   26cce:	4886      	ldr	r0, [pc, #536]	@ (26ee8 <_start+0x2cac>)
   26cd0:	4468      	add	r0, sp
   26cd2:	78c2      	ldrb	r2, [r0, #3]
   26cd4:	4c8b      	ldr	r4, [pc, #556]	@ (26f04 <_start+0x2cc8>)
   26cd6:	446c      	add	r4, sp
   26cd8:	70a2      	strb	r2, [r4, #2]
   26cda:	7842      	ldrb	r2, [r0, #1]
   26cdc:	7880      	ldrb	r0, [r0, #2]
   26cde:	0200      	lsls	r0, r0, #8
   26ce0:	1880      	adds	r0, r0, r2
   26ce2:	8020      	strh	r0, [r4, #0]
   26ce4:	6e18      	ldr	r0, [r3, #96]	@ 0x60
   26ce6:	70e0      	strb	r0, [r4, #3]
   26ce8:	0e02      	lsrs	r2, r0, #24
   26cea:	71a2      	strb	r2, [r4, #6]
   26cec:	0c02      	lsrs	r2, r0, #16
   26cee:	7162      	strb	r2, [r4, #5]
   26cf0:	0a00      	lsrs	r0, r0, #8
   26cf2:	7120      	strb	r0, [r4, #4]
   26cf4:	6e58      	ldr	r0, [r3, #100]	@ 0x64
   26cf6:	6e9a      	ldr	r2, [r3, #104]	@ 0x68
   26cf8:	c305      	stmia	r3!, {r0, r2}
   26cfa:	1de0      	adds	r0, r4, #7
   26cfc:	220a      	movs	r2, #10
   26cfe:	f000 face 	bl	2729e <__aeabi_memcpy>
   26d02:	4d79      	ldr	r5, [pc, #484]	@ (26ee8 <_start+0x2cac>)
   26d04:	446d      	add	r5, sp
   26d06:	4628      	mov	r0, r5
   26d08:	4621      	mov	r1, r4
   26d0a:	f7fa fc01 	bl	21510 <_ZN20complex_full_dynamic3app17h445ea19bff290f67E>
   26d0e:	7828      	ldrb	r0, [r5, #0]
   26d10:	2801      	cmp	r0, #1
   26d12:	d101      	bne.n	26d18 <_start+0x2adc>
   26d14:	f7fd fd67 	bl	247e6 <_start+0x5aa>
   26d18:	4973      	ldr	r1, [pc, #460]	@ (26ee8 <_start+0x2cac>)
   26d1a:	4469      	add	r1, sp
   26d1c:	78c8      	ldrb	r0, [r1, #3]
   26d1e:	4c7a      	ldr	r4, [pc, #488]	@ (26f08 <_start+0x2ccc>)
   26d20:	446c      	add	r4, sp
   26d22:	70a0      	strb	r0, [r4, #2]
   26d24:	7848      	ldrb	r0, [r1, #1]
   26d26:	788a      	ldrb	r2, [r1, #2]
   26d28:	0212      	lsls	r2, r2, #8
   26d2a:	1810      	adds	r0, r2, r0
   26d2c:	8020      	strh	r0, [r4, #0]
   26d2e:	9808      	ldr	r0, [sp, #32]
   26d30:	6e05      	ldr	r5, [r0, #96]	@ 0x60
   26d32:	3108      	adds	r1, #8
   26d34:	486d      	ldr	r0, [pc, #436]	@ (26eec <_start+0x2cb0>)
   26d36:	4468      	add	r0, sp
   26d38:	900b      	str	r0, [sp, #44]	@ 0x2c
   26d3a:	2649      	movs	r6, #73	@ 0x49
   26d3c:	4632      	mov	r2, r6
   26d3e:	f000 f94e 	bl	26fde <__aeabi_memcpy4>
   26d42:	0e28      	lsrs	r0, r5, #24
   26d44:	71a0      	strb	r0, [r4, #6]
   26d46:	0c28      	lsrs	r0, r5, #16
   26d48:	7160      	strb	r0, [r4, #5]
   26d4a:	0a28      	lsrs	r0, r5, #8
   26d4c:	7120      	strb	r0, [r4, #4]
   26d4e:	70e5      	strb	r5, [r4, #3]
   26d50:	1de0      	adds	r0, r4, #7
   26d52:	990b      	ldr	r1, [sp, #44]	@ 0x2c
   26d54:	4632      	mov	r2, r6
   26d56:	f000 faa2 	bl	2729e <__aeabi_memcpy>
   26d5a:	4d63      	ldr	r5, [pc, #396]	@ (26ee8 <_start+0x2cac>)
   26d5c:	446d      	add	r5, sp
   26d5e:	4628      	mov	r0, r5
   26d60:	4621      	mov	r1, r4
   26d62:	f7fc fc23 	bl	235ac <_ZN20complex_full_dynamic3app17hd6ad79ab1d8110b9E>
   26d66:	7828      	ldrb	r0, [r5, #0]
   26d68:	2801      	cmp	r0, #1
   26d6a:	d101      	bne.n	26d70 <_start+0x2b34>
   26d6c:	f7fd fd3b 	bl	247e6 <_start+0x5aa>
   26d70:	485d      	ldr	r0, [pc, #372]	@ (26ee8 <_start+0x2cac>)
   26d72:	4468      	add	r0, sp
   26d74:	78c1      	ldrb	r1, [r0, #3]
   26d76:	4c65      	ldr	r4, [pc, #404]	@ (26f0c <_start+0x2cd0>)
   26d78:	446c      	add	r4, sp
   26d7a:	70a1      	strb	r1, [r4, #2]
   26d7c:	7841      	ldrb	r1, [r0, #1]
   26d7e:	7882      	ldrb	r2, [r0, #2]
   26d80:	0212      	lsls	r2, r2, #8
   26d82:	1851      	adds	r1, r2, r1
   26d84:	8021      	strh	r1, [r4, #0]
   26d86:	3008      	adds	r0, #8
   26d88:	9908      	ldr	r1, [sp, #32]
   26d8a:	6e09      	ldr	r1, [r1, #96]	@ 0x60
   26d8c:	4b57      	ldr	r3, [pc, #348]	@ (26eec <_start+0x2cb0>)
   26d8e:	446b      	add	r3, sp
   26d90:	930b      	str	r3, [sp, #44]	@ 0x2c
   26d92:	c860      	ldmia	r0!, {r5, r6}
   26d94:	c360      	stmia	r3!, {r5, r6}
   26d96:	c864      	ldmia	r0!, {r2, r5, r6}
   26d98:	c364      	stmia	r3!, {r2, r5, r6}
   26d9a:	0e08      	lsrs	r0, r1, #24
   26d9c:	71a0      	strb	r0, [r4, #6]
   26d9e:	0c08      	lsrs	r0, r1, #16
   26da0:	7160      	strb	r0, [r4, #5]
   26da2:	0a08      	lsrs	r0, r1, #8
   26da4:	7120      	strb	r0, [r4, #4]
   26da6:	70e1      	strb	r1, [r4, #3]
   26da8:	1de0      	adds	r0, r4, #7
   26daa:	2214      	movs	r2, #20
   26dac:	990b      	ldr	r1, [sp, #44]	@ 0x2c
   26dae:	f000 fa76 	bl	2729e <__aeabi_memcpy>
   26db2:	4d4d      	ldr	r5, [pc, #308]	@ (26ee8 <_start+0x2cac>)
   26db4:	446d      	add	r5, sp
   26db6:	4628      	mov	r0, r5
   26db8:	4621      	mov	r1, r4
   26dba:	f7f9 ff27 	bl	20c0c <_ZN20complex_full_dynamic3app17h2b5311d4d722d9fdE>
   26dbe:	7828      	ldrb	r0, [r5, #0]
   26dc0:	2801      	cmp	r0, #1
   26dc2:	d101      	bne.n	26dc8 <_start+0x2b8c>
   26dc4:	f7fd fd0f 	bl	247e6 <_start+0x5aa>
   26dc8:	4947      	ldr	r1, [pc, #284]	@ (26ee8 <_start+0x2cac>)
   26dca:	4469      	add	r1, sp
   26dcc:	78c8      	ldrb	r0, [r1, #3]
   26dce:	4c50      	ldr	r4, [pc, #320]	@ (26f10 <_start+0x2cd4>)
   26dd0:	446c      	add	r4, sp
   26dd2:	70a0      	strb	r0, [r4, #2]
   26dd4:	7848      	ldrb	r0, [r1, #1]
   26dd6:	788a      	ldrb	r2, [r1, #2]
   26dd8:	0212      	lsls	r2, r2, #8
   26dda:	1810      	adds	r0, r2, r0
   26ddc:	8020      	strh	r0, [r4, #0]
   26dde:	9808      	ldr	r0, [sp, #32]
   26de0:	6e05      	ldr	r5, [r0, #96]	@ 0x60
   26de2:	3108      	adds	r1, #8
   26de4:	4841      	ldr	r0, [pc, #260]	@ (26eec <_start+0x2cb0>)
   26de6:	4468      	add	r0, sp
   26de8:	900b      	str	r0, [sp, #44]	@ 0x2c
   26dea:	265c      	movs	r6, #92	@ 0x5c
   26dec:	4632      	mov	r2, r6
   26dee:	f000 f8f6 	bl	26fde <__aeabi_memcpy4>
   26df2:	0e28      	lsrs	r0, r5, #24
   26df4:	71a0      	strb	r0, [r4, #6]
   26df6:	0c28      	lsrs	r0, r5, #16
   26df8:	7160      	strb	r0, [r4, #5]
   26dfa:	0a28      	lsrs	r0, r5, #8
   26dfc:	7120      	strb	r0, [r4, #4]
   26dfe:	70e5      	strb	r5, [r4, #3]
   26e00:	1de0      	adds	r0, r4, #7
   26e02:	990b      	ldr	r1, [sp, #44]	@ 0x2c
   26e04:	4632      	mov	r2, r6
   26e06:	f000 fa4a 	bl	2729e <__aeabi_memcpy>
   26e0a:	4d37      	ldr	r5, [pc, #220]	@ (26ee8 <_start+0x2cac>)
   26e0c:	446d      	add	r5, sp
   26e0e:	4628      	mov	r0, r5
   26e10:	4621      	mov	r1, r4
   26e12:	f7fb fb21 	bl	22458 <_ZN20complex_full_dynamic3app17h89c4571e49817ca0E>
   26e16:	7828      	ldrb	r0, [r5, #0]
   26e18:	2801      	cmp	r0, #1
   26e1a:	d101      	bne.n	26e20 <_start+0x2be4>
   26e1c:	f7fd fce3 	bl	247e6 <_start+0x5aa>
   26e20:	4831      	ldr	r0, [pc, #196]	@ (26ee8 <_start+0x2cac>)
   26e22:	4468      	add	r0, sp
   26e24:	78c1      	ldrb	r1, [r0, #3]
   26e26:	4c3b      	ldr	r4, [pc, #236]	@ (26f14 <_start+0x2cd8>)
   26e28:	446c      	add	r4, sp
   26e2a:	70a1      	strb	r1, [r4, #2]
   26e2c:	7841      	ldrb	r1, [r0, #1]
   26e2e:	7882      	ldrb	r2, [r0, #2]
   26e30:	0212      	lsls	r2, r2, #8
   26e32:	1851      	adds	r1, r2, r1
   26e34:	8021      	strh	r1, [r4, #0]
   26e36:	3008      	adds	r0, #8
   26e38:	9908      	ldr	r1, [sp, #32]
   26e3a:	6e09      	ldr	r1, [r1, #96]	@ 0x60
   26e3c:	4b2b      	ldr	r3, [pc, #172]	@ (26eec <_start+0x2cb0>)
   26e3e:	446b      	add	r3, sp
   26e40:	930b      	str	r3, [sp, #44]	@ 0x2c
   26e42:	c864      	ldmia	r0!, {r2, r5, r6}
   26e44:	c364      	stmia	r3!, {r2, r5, r6}
   26e46:	c864      	ldmia	r0!, {r2, r5, r6}
   26e48:	c364      	stmia	r3!, {r2, r5, r6}
   26e4a:	c864      	ldmia	r0!, {r2, r5, r6}
   26e4c:	c364      	stmia	r3!, {r2, r5, r6}
   26e4e:	7800      	ldrb	r0, [r0, #0]
   26e50:	7018      	strb	r0, [r3, #0]
   26e52:	0e08      	lsrs	r0, r1, #24
   26e54:	71a0      	strb	r0, [r4, #6]
   26e56:	0c08      	lsrs	r0, r1, #16
   26e58:	7160      	strb	r0, [r4, #5]
   26e5a:	0a08      	lsrs	r0, r1, #8
   26e5c:	7120      	strb	r0, [r4, #4]
   26e5e:	70e1      	strb	r1, [r4, #3]
   26e60:	1de0      	adds	r0, r4, #7
   26e62:	2225      	movs	r2, #37	@ 0x25
   26e64:	990b      	ldr	r1, [sp, #44]	@ 0x2c
   26e66:	f000 fa1a 	bl	2729e <__aeabi_memcpy>
   26e6a:	4d1f      	ldr	r5, [pc, #124]	@ (26ee8 <_start+0x2cac>)
   26e6c:	446d      	add	r5, sp
   26e6e:	4628      	mov	r0, r5
   26e70:	4621      	mov	r1, r4
   26e72:	f7fc f92b 	bl	230cc <_ZN20complex_full_dynamic3app17hcaf30d9a786e1ca2E>
   26e76:	7828      	ldrb	r0, [r5, #0]
   26e78:	2801      	cmp	r0, #1
   26e7a:	d101      	bne.n	26e80 <_start+0x2c44>
   26e7c:	f7fd fcb3 	bl	247e6 <_start+0x5aa>
   26e80:	4819      	ldr	r0, [pc, #100]	@ (26ee8 <_start+0x2cac>)
   26e82:	4468      	add	r0, sp
   26e84:	78c1      	ldrb	r1, [r0, #3]
   26e86:	4c24      	ldr	r4, [pc, #144]	@ (26f18 <_start+0x2cdc>)
   26e88:	446c      	add	r4, sp
   26e8a:	70a1      	strb	r1, [r4, #2]
   26e8c:	7841      	ldrb	r1, [r0, #1]
   26e8e:	7882      	ldrb	r2, [r0, #2]
   26e90:	0212      	lsls	r2, r2, #8
   26e92:	1851      	adds	r1, r2, r1
   26e94:	8021      	strh	r1, [r4, #0]
   26e96:	3008      	adds	r0, #8
   26e98:	9908      	ldr	r1, [sp, #32]
   26e9a:	6e09      	ldr	r1, [r1, #96]	@ 0x60
   26e9c:	910a      	str	r1, [sp, #40]	@ 0x28
   26e9e:	4b13      	ldr	r3, [pc, #76]	@ (26eec <_start+0x2cb0>)
   26ea0:	446b      	add	r3, sp
   26ea2:	930b      	str	r3, [sp, #44]	@ 0x2c
   26ea4:	c866      	ldmia	r0!, {r1, r2, r5, r6}
   26ea6:	c366      	stmia	r3!, {r1, r2, r5, r6}
   26ea8:	c866      	ldmia	r0!, {r1, r2, r5, r6}
   26eaa:	c366      	stmia	r3!, {r1, r2, r5, r6}
   26eac:	8801      	ldrh	r1, [r0, #0]
   26eae:	8019      	strh	r1, [r3, #0]
   26eb0:	7880      	ldrb	r0, [r0, #2]
   26eb2:	7098      	strb	r0, [r3, #2]
   26eb4:	990a      	ldr	r1, [sp, #40]	@ 0x28
   26eb6:	0e08      	lsrs	r0, r1, #24
   26eb8:	71a0      	strb	r0, [r4, #6]
   26eba:	0c08      	lsrs	r0, r1, #16
   26ebc:	7160      	strb	r0, [r4, #5]
   26ebe:	0a08      	lsrs	r0, r1, #8
   26ec0:	7120      	strb	r0, [r4, #4]
   26ec2:	70e1      	strb	r1, [r4, #3]
   26ec4:	1de0      	adds	r0, r4, #7
   26ec6:	2223      	movs	r2, #35	@ 0x23
   26ec8:	990b      	ldr	r1, [sp, #44]	@ 0x2c
   26eca:	f000 f9e8 	bl	2729e <__aeabi_memcpy>
   26ece:	4d06      	ldr	r5, [pc, #24]	@ (26ee8 <_start+0x2cac>)
   26ed0:	446d      	add	r5, sp
   26ed2:	4628      	mov	r0, r5
   26ed4:	4621      	mov	r1, r4
   26ed6:	f7fb fcd3 	bl	22880 <_ZN20complex_full_dynamic3app17ha19209ca1396392eE>
   26eda:	7828      	ldrb	r0, [r5, #0]
   26edc:	9908      	ldr	r1, [sp, #32]
   26ede:	6e09      	ldr	r1, [r1, #96]	@ 0x60
   26ee0:	910b      	str	r1, [sp, #44]	@ 0x2c
   26ee2:	f7fd fc84 	bl	247ee <_start+0x5b2>
   26ee6:	46c0      	nop			@ (mov r8, r8)
   26ee8:	00001404 	.word	0x00001404
   26eec:	000013a8 	.word	0x000013a8
   26ef0:	000011f8 	.word	0x000011f8
   26ef4:	0000121c 	.word	0x0000121c
   26ef8:	00001240 	.word	0x00001240
   26efc:	00001270 	.word	0x00001270
   26f00:	000012d0 	.word	0x000012d0
   26f04:	00001328 	.word	0x00001328
   26f08:	0000133c 	.word	0x0000133c
   26f0c:	0000138c 	.word	0x0000138c
   26f10:	00001468 	.word	0x00001468
   26f14:	000014cc 	.word	0x000014cc
   26f18:	000014f8 	.word	0x000014f8

00026f1c <_ZN9allow_pin12full_dynamic17unshare_if_shared17h02646414dc25e2d7E>:
   26f1c:	b5d0      	push	{r4, r6, r7, lr}
   26f1e:	af02      	add	r7, sp, #8
   26f20:	7a02      	ldrb	r2, [r0, #8]
   26f22:	2a02      	cmp	r2, #2
   26f24:	d00d      	beq.n	26f42 <_ZN9allow_pin12full_dynamic17unshare_if_shared17h02646414dc25e2d7E+0x26>
   26f26:	4604      	mov	r4, r0
   26f28:	6800      	ldr	r0, [r0, #0]
   26f2a:	6861      	ldr	r1, [r4, #4]
   26f2c:	2a03      	cmp	r2, #3
   26f2e:	d103      	bne.n	26f38 <_ZN9allow_pin12full_dynamic17unshare_if_shared17h02646414dc25e2d7E+0x1c>
   26f30:	2200      	movs	r2, #0
   26f32:	4613      	mov	r3, r2
   26f34:	df03      	svc	3
   26f36:	e002      	b.n	26f3e <_ZN9allow_pin12full_dynamic17unshare_if_shared17h02646414dc25e2d7E+0x22>
   26f38:	2200      	movs	r2, #0
   26f3a:	4613      	mov	r3, r2
   26f3c:	df04      	svc	4
   26f3e:	2002      	movs	r0, #2
   26f40:	7220      	strb	r0, [r4, #8]
   26f42:	bdd0      	pop	{r4, r6, r7, pc}

00026f44 <__aeabi_memclr4>:
   26f44:	b5f0      	push	{r4, r5, r6, r7, lr}
   26f46:	af03      	add	r7, sp, #12
   26f48:	2904      	cmp	r1, #4
   26f4a:	d311      	bcc.n	26f70 <__aeabi_memclr4+0x2c>
   26f4c:	1f0c      	subs	r4, r1, #4
   26f4e:	250c      	movs	r5, #12
   26f50:	4025      	ands	r5, r4
   26f52:	2d0c      	cmp	r5, #12
   26f54:	d012      	beq.n	26f7c <__aeabi_memclr4+0x38>
   26f56:	2600      	movs	r6, #0
   26f58:	4602      	mov	r2, r0
   26f5a:	c240      	stmia	r2!, {r6}
   26f5c:	0723      	lsls	r3, r4, #28
   26f5e:	0f9b      	lsrs	r3, r3, #30
   26f60:	4623      	mov	r3, r4
   26f62:	d00d      	beq.n	26f80 <__aeabi_memclr4+0x3c>
   26f64:	6046      	str	r6, [r0, #4]
   26f66:	2d04      	cmp	r5, #4
   26f68:	d105      	bne.n	26f76 <__aeabi_memclr4+0x32>
   26f6a:	3908      	subs	r1, #8
   26f6c:	3008      	adds	r0, #8
   26f6e:	e005      	b.n	26f7c <__aeabi_memclr4+0x38>
   26f70:	460b      	mov	r3, r1
   26f72:	4602      	mov	r2, r0
   26f74:	e00f      	b.n	26f96 <__aeabi_memclr4+0x52>
   26f76:	6086      	str	r6, [r0, #8]
   26f78:	390c      	subs	r1, #12
   26f7a:	300c      	adds	r0, #12
   26f7c:	4602      	mov	r2, r0
   26f7e:	460b      	mov	r3, r1
   26f80:	2c0c      	cmp	r4, #12
   26f82:	d308      	bcc.n	26f96 <__aeabi_memclr4+0x52>
   26f84:	2000      	movs	r0, #0
   26f86:	6010      	str	r0, [r2, #0]
   26f88:	6050      	str	r0, [r2, #4]
   26f8a:	6090      	str	r0, [r2, #8]
   26f8c:	60d0      	str	r0, [r2, #12]
   26f8e:	3210      	adds	r2, #16
   26f90:	3b10      	subs	r3, #16
   26f92:	2b03      	cmp	r3, #3
   26f94:	d8f6      	bhi.n	26f84 <__aeabi_memclr4+0x40>
   26f96:	18d0      	adds	r0, r2, r3
   26f98:	4282      	cmp	r2, r0
   26f9a:	d21a      	bcs.n	26fd2 <__aeabi_memclr4+0x8e>
   26f9c:	2403      	movs	r4, #3
   26f9e:	401c      	ands	r4, r3
   26fa0:	1e59      	subs	r1, r3, #1
   26fa2:	2c00      	cmp	r4, #0
   26fa4:	d00b      	beq.n	26fbe <__aeabi_memclr4+0x7a>
   26fa6:	2300      	movs	r3, #0
   26fa8:	7013      	strb	r3, [r2, #0]
   26faa:	2c01      	cmp	r4, #1
   26fac:	d103      	bne.n	26fb6 <__aeabi_memclr4+0x72>
   26fae:	1c52      	adds	r2, r2, #1
   26fb0:	2903      	cmp	r1, #3
   26fb2:	d206      	bcs.n	26fc2 <__aeabi_memclr4+0x7e>
   26fb4:	e00d      	b.n	26fd2 <__aeabi_memclr4+0x8e>
   26fb6:	7053      	strb	r3, [r2, #1]
   26fb8:	2c02      	cmp	r4, #2
   26fba:	d10b      	bne.n	26fd4 <__aeabi_memclr4+0x90>
   26fbc:	1c92      	adds	r2, r2, #2
   26fbe:	2903      	cmp	r1, #3
   26fc0:	d307      	bcc.n	26fd2 <__aeabi_memclr4+0x8e>
   26fc2:	2100      	movs	r1, #0
   26fc4:	70d1      	strb	r1, [r2, #3]
   26fc6:	7091      	strb	r1, [r2, #2]
   26fc8:	7051      	strb	r1, [r2, #1]
   26fca:	7011      	strb	r1, [r2, #0]
   26fcc:	1d12      	adds	r2, r2, #4
   26fce:	4282      	cmp	r2, r0
   26fd0:	d1f7      	bne.n	26fc2 <__aeabi_memclr4+0x7e>
   26fd2:	bdf0      	pop	{r4, r5, r6, r7, pc}
   26fd4:	7093      	strb	r3, [r2, #2]
   26fd6:	1cd2      	adds	r2, r2, #3
   26fd8:	2903      	cmp	r1, #3
   26fda:	d2f2      	bcs.n	26fc2 <__aeabi_memclr4+0x7e>
   26fdc:	e7f9      	b.n	26fd2 <__aeabi_memclr4+0x8e>

00026fde <__aeabi_memcpy4>:
   26fde:	b5f0      	push	{r4, r5, r6, r7, lr}
   26fe0:	af03      	add	r7, sp, #12
   26fe2:	b081      	sub	sp, #4
   26fe4:	2a04      	cmp	r2, #4
   26fe6:	d32d      	bcc.n	27044 <__aeabi_memcpy4+0x66>
   26fe8:	1f13      	subs	r3, r2, #4
   26fea:	250c      	movs	r5, #12
   26fec:	401d      	ands	r5, r3
   26fee:	2d0c      	cmp	r5, #12
   26ff0:	d019      	beq.n	27026 <__aeabi_memcpy4+0x48>
   26ff2:	9200      	str	r2, [sp, #0]
   26ff4:	460e      	mov	r6, r1
   26ff6:	c904      	ldmia	r1!, {r2}
   26ff8:	4604      	mov	r4, r0
   26ffa:	c004      	stmia	r0!, {r2}
   26ffc:	071a      	lsls	r2, r3, #28
   26ffe:	0f92      	lsrs	r2, r2, #30
   27000:	461a      	mov	r2, r3
   27002:	d010      	beq.n	27026 <__aeabi_memcpy4+0x48>
   27004:	4631      	mov	r1, r6
   27006:	6872      	ldr	r2, [r6, #4]
   27008:	6062      	str	r2, [r4, #4]
   2700a:	2d04      	cmp	r5, #4
   2700c:	d104      	bne.n	27018 <__aeabi_memcpy4+0x3a>
   2700e:	9a00      	ldr	r2, [sp, #0]
   27010:	3a08      	subs	r2, #8
   27012:	3108      	adds	r1, #8
   27014:	3408      	adds	r4, #8
   27016:	e005      	b.n	27024 <__aeabi_memcpy4+0x46>
   27018:	688a      	ldr	r2, [r1, #8]
   2701a:	60a2      	str	r2, [r4, #8]
   2701c:	9a00      	ldr	r2, [sp, #0]
   2701e:	3a0c      	subs	r2, #12
   27020:	310c      	adds	r1, #12
   27022:	340c      	adds	r4, #12
   27024:	4620      	mov	r0, r4
   27026:	2b0c      	cmp	r3, #12
   27028:	d30c      	bcc.n	27044 <__aeabi_memcpy4+0x66>
   2702a:	680b      	ldr	r3, [r1, #0]
   2702c:	6003      	str	r3, [r0, #0]
   2702e:	684b      	ldr	r3, [r1, #4]
   27030:	6043      	str	r3, [r0, #4]
   27032:	688b      	ldr	r3, [r1, #8]
   27034:	6083      	str	r3, [r0, #8]
   27036:	68cb      	ldr	r3, [r1, #12]
   27038:	60c3      	str	r3, [r0, #12]
   2703a:	3110      	adds	r1, #16
   2703c:	3010      	adds	r0, #16
   2703e:	3a10      	subs	r2, #16
   27040:	2a03      	cmp	r2, #3
   27042:	d8f2      	bhi.n	2702a <__aeabi_memcpy4+0x4c>
   27044:	f000 f802 	bl	2704c <_ZN17compiler_builtins3mem6memcpy17h1f9dbb1c3fd18e2fE>
   27048:	b001      	add	sp, #4
   2704a:	bdf0      	pop	{r4, r5, r6, r7, pc}

0002704c <_ZN17compiler_builtins3mem6memcpy17h1f9dbb1c3fd18e2fE>:
   2704c:	b5f0      	push	{r4, r5, r6, r7, lr}
   2704e:	af03      	add	r7, sp, #12
   27050:	b08f      	sub	sp, #60	@ 0x3c
   27052:	2a10      	cmp	r2, #16
   27054:	d315      	bcc.n	27082 <_ZN17compiler_builtins3mem6memcpy17h1f9dbb1c3fd18e2fE+0x36>
   27056:	920b      	str	r2, [sp, #44]	@ 0x2c
   27058:	4242      	negs	r2, r0
   2705a:	2303      	movs	r3, #3
   2705c:	9308      	str	r3, [sp, #32]
   2705e:	401a      	ands	r2, r3
   27060:	1885      	adds	r5, r0, r2
   27062:	900a      	str	r0, [sp, #40]	@ 0x28
   27064:	42a8      	cmp	r0, r5
   27066:	d22a      	bcs.n	270be <_ZN17compiler_builtins3mem6memcpy17h1f9dbb1c3fd18e2fE+0x72>
   27068:	1e54      	subs	r4, r2, #1
   2706a:	2a00      	cmp	r2, #0
   2706c:	980a      	ldr	r0, [sp, #40]	@ 0x28
   2706e:	4606      	mov	r6, r0
   27070:	460b      	mov	r3, r1
   27072:	d016      	beq.n	270a2 <_ZN17compiler_builtins3mem6memcpy17h1f9dbb1c3fd18e2fE+0x56>
   27074:	780b      	ldrb	r3, [r1, #0]
   27076:	7003      	strb	r3, [r0, #0]
   27078:	2a01      	cmp	r2, #1
   2707a:	d107      	bne.n	2708c <_ZN17compiler_builtins3mem6memcpy17h1f9dbb1c3fd18e2fE+0x40>
   2707c:	1c4b      	adds	r3, r1, #1
   2707e:	1c46      	adds	r6, r0, #1
   27080:	e00f      	b.n	270a2 <_ZN17compiler_builtins3mem6memcpy17h1f9dbb1c3fd18e2fE+0x56>
   27082:	4603      	mov	r3, r0
   27084:	189c      	adds	r4, r3, r2
   27086:	42a3      	cmp	r3, r4
   27088:	d341      	bcc.n	2710e <_ZN17compiler_builtins3mem6memcpy17h1f9dbb1c3fd18e2fE+0xc2>
   2708a:	e062      	b.n	27152 <_ZN17compiler_builtins3mem6memcpy17h1f9dbb1c3fd18e2fE+0x106>
   2708c:	784b      	ldrb	r3, [r1, #1]
   2708e:	7043      	strb	r3, [r0, #1]
   27090:	2a02      	cmp	r2, #2
   27092:	d102      	bne.n	2709a <_ZN17compiler_builtins3mem6memcpy17h1f9dbb1c3fd18e2fE+0x4e>
   27094:	1c8b      	adds	r3, r1, #2
   27096:	1c86      	adds	r6, r0, #2
   27098:	e003      	b.n	270a2 <_ZN17compiler_builtins3mem6memcpy17h1f9dbb1c3fd18e2fE+0x56>
   2709a:	788b      	ldrb	r3, [r1, #2]
   2709c:	7083      	strb	r3, [r0, #2]
   2709e:	1ccb      	adds	r3, r1, #3
   270a0:	1cc6      	adds	r6, r0, #3
   270a2:	2c03      	cmp	r4, #3
   270a4:	d30b      	bcc.n	270be <_ZN17compiler_builtins3mem6memcpy17h1f9dbb1c3fd18e2fE+0x72>
   270a6:	781c      	ldrb	r4, [r3, #0]
   270a8:	7034      	strb	r4, [r6, #0]
   270aa:	785c      	ldrb	r4, [r3, #1]
   270ac:	7074      	strb	r4, [r6, #1]
   270ae:	789c      	ldrb	r4, [r3, #2]
   270b0:	70b4      	strb	r4, [r6, #2]
   270b2:	78dc      	ldrb	r4, [r3, #3]
   270b4:	70f4      	strb	r4, [r6, #3]
   270b6:	1d1b      	adds	r3, r3, #4
   270b8:	1d36      	adds	r6, r6, #4
   270ba:	42ae      	cmp	r6, r5
   270bc:	d1f3      	bne.n	270a6 <_ZN17compiler_builtins3mem6memcpy17h1f9dbb1c3fd18e2fE+0x5a>
   270be:	980b      	ldr	r0, [sp, #44]	@ 0x2c
   270c0:	1a80      	subs	r0, r0, r2
   270c2:	900b      	str	r0, [sp, #44]	@ 0x2c
   270c4:	9c08      	ldr	r4, [sp, #32]
   270c6:	43a0      	bics	r0, r4
   270c8:	182b      	adds	r3, r5, r0
   270ca:	188e      	adds	r6, r1, r2
   270cc:	9609      	str	r6, [sp, #36]	@ 0x24
   270ce:	4026      	ands	r6, r4
   270d0:	9007      	str	r0, [sp, #28]
   270d2:	d147      	bne.n	27164 <_ZN17compiler_builtins3mem6memcpy17h1f9dbb1c3fd18e2fE+0x118>
   270d4:	429d      	cmp	r5, r3
   270d6:	9a0b      	ldr	r2, [sp, #44]	@ 0x2c
   270d8:	9e09      	ldr	r6, [sp, #36]	@ 0x24
   270da:	d211      	bcs.n	27100 <_ZN17compiler_builtins3mem6memcpy17h1f9dbb1c3fd18e2fE+0xb4>
   270dc:	4631      	mov	r1, r6
   270de:	6808      	ldr	r0, [r1, #0]
   270e0:	c501      	stmia	r5!, {r0}
   270e2:	429d      	cmp	r5, r3
   270e4:	d20c      	bcs.n	27100 <_ZN17compiler_builtins3mem6memcpy17h1f9dbb1c3fd18e2fE+0xb4>
   270e6:	6848      	ldr	r0, [r1, #4]
   270e8:	c501      	stmia	r5!, {r0}
   270ea:	429d      	cmp	r5, r3
   270ec:	d208      	bcs.n	27100 <_ZN17compiler_builtins3mem6memcpy17h1f9dbb1c3fd18e2fE+0xb4>
   270ee:	6888      	ldr	r0, [r1, #8]
   270f0:	c501      	stmia	r5!, {r0}
   270f2:	429d      	cmp	r5, r3
   270f4:	d204      	bcs.n	27100 <_ZN17compiler_builtins3mem6memcpy17h1f9dbb1c3fd18e2fE+0xb4>
   270f6:	68c8      	ldr	r0, [r1, #12]
   270f8:	c501      	stmia	r5!, {r0}
   270fa:	3110      	adds	r1, #16
   270fc:	429d      	cmp	r5, r3
   270fe:	d3ee      	bcc.n	270de <_ZN17compiler_builtins3mem6memcpy17h1f9dbb1c3fd18e2fE+0x92>
   27100:	4022      	ands	r2, r4
   27102:	9807      	ldr	r0, [sp, #28]
   27104:	1831      	adds	r1, r6, r0
   27106:	980a      	ldr	r0, [sp, #40]	@ 0x28
   27108:	189c      	adds	r4, r3, r2
   2710a:	42a3      	cmp	r3, r4
   2710c:	d221      	bcs.n	27152 <_ZN17compiler_builtins3mem6memcpy17h1f9dbb1c3fd18e2fE+0x106>
   2710e:	2503      	movs	r5, #3
   27110:	4015      	ands	r5, r2
   27112:	1e52      	subs	r2, r2, #1
   27114:	2d00      	cmp	r5, #0
   27116:	d00e      	beq.n	27136 <_ZN17compiler_builtins3mem6memcpy17h1f9dbb1c3fd18e2fE+0xea>
   27118:	780e      	ldrb	r6, [r1, #0]
   2711a:	701e      	strb	r6, [r3, #0]
   2711c:	2d01      	cmp	r5, #1
   2711e:	d104      	bne.n	2712a <_ZN17compiler_builtins3mem6memcpy17h1f9dbb1c3fd18e2fE+0xde>
   27120:	1c49      	adds	r1, r1, #1
   27122:	1c5b      	adds	r3, r3, #1
   27124:	2a03      	cmp	r2, #3
   27126:	d208      	bcs.n	2713a <_ZN17compiler_builtins3mem6memcpy17h1f9dbb1c3fd18e2fE+0xee>
   27128:	e013      	b.n	27152 <_ZN17compiler_builtins3mem6memcpy17h1f9dbb1c3fd18e2fE+0x106>
   2712a:	784e      	ldrb	r6, [r1, #1]
   2712c:	705e      	strb	r6, [r3, #1]
   2712e:	2d02      	cmp	r5, #2
   27130:	d111      	bne.n	27156 <_ZN17compiler_builtins3mem6memcpy17h1f9dbb1c3fd18e2fE+0x10a>
   27132:	1c89      	adds	r1, r1, #2
   27134:	1c9b      	adds	r3, r3, #2
   27136:	2a03      	cmp	r2, #3
   27138:	d30b      	bcc.n	27152 <_ZN17compiler_builtins3mem6memcpy17h1f9dbb1c3fd18e2fE+0x106>
   2713a:	780a      	ldrb	r2, [r1, #0]
   2713c:	701a      	strb	r2, [r3, #0]
   2713e:	784a      	ldrb	r2, [r1, #1]
   27140:	705a      	strb	r2, [r3, #1]
   27142:	788a      	ldrb	r2, [r1, #2]
   27144:	709a      	strb	r2, [r3, #2]
   27146:	78ca      	ldrb	r2, [r1, #3]
   27148:	70da      	strb	r2, [r3, #3]
   2714a:	1d09      	adds	r1, r1, #4
   2714c:	1d1b      	adds	r3, r3, #4
   2714e:	42a3      	cmp	r3, r4
   27150:	d1f3      	bne.n	2713a <_ZN17compiler_builtins3mem6memcpy17h1f9dbb1c3fd18e2fE+0xee>
   27152:	b00f      	add	sp, #60	@ 0x3c
   27154:	bdf0      	pop	{r4, r5, r6, r7, pc}
   27156:	788d      	ldrb	r5, [r1, #2]
   27158:	709d      	strb	r5, [r3, #2]
   2715a:	1cc9      	adds	r1, r1, #3
   2715c:	1cdb      	adds	r3, r3, #3
   2715e:	2a03      	cmp	r2, #3
   27160:	d2eb      	bcs.n	2713a <_ZN17compiler_builtins3mem6memcpy17h1f9dbb1c3fd18e2fE+0xee>
   27162:	e7f6      	b.n	27152 <_ZN17compiler_builtins3mem6memcpy17h1f9dbb1c3fd18e2fE+0x106>
   27164:	2400      	movs	r4, #0
   27166:	9406      	str	r4, [sp, #24]
   27168:	940e      	str	r4, [sp, #56]	@ 0x38
   2716a:	ac0e      	add	r4, sp, #56	@ 0x38
   2716c:	19a4      	adds	r4, r4, r6
   2716e:	9405      	str	r4, [sp, #20]
   27170:	2404      	movs	r4, #4
   27172:	1ba4      	subs	r4, r4, r6
   27174:	9404      	str	r4, [sp, #16]
   27176:	07e4      	lsls	r4, r4, #31
   27178:	9600      	str	r6, [sp, #0]
   2717a:	d006      	beq.n	2718a <_ZN17compiler_builtins3mem6memcpy17h1f9dbb1c3fd18e2fE+0x13e>
   2717c:	9c09      	ldr	r4, [sp, #36]	@ 0x24
   2717e:	7824      	ldrb	r4, [r4, #0]
   27180:	9e05      	ldr	r6, [sp, #20]
   27182:	7034      	strb	r4, [r6, #0]
   27184:	9e00      	ldr	r6, [sp, #0]
   27186:	2401      	movs	r4, #1
   27188:	9406      	str	r4, [sp, #24]
   2718a:	9c04      	ldr	r4, [sp, #16]
   2718c:	07a4      	lsls	r4, r4, #30
   2718e:	d508      	bpl.n	271a2 <_ZN17compiler_builtins3mem6memcpy17h1f9dbb1c3fd18e2fE+0x156>
   27190:	9c09      	ldr	r4, [sp, #36]	@ 0x24
   27192:	9204      	str	r2, [sp, #16]
   27194:	9a06      	ldr	r2, [sp, #24]
   27196:	5aa4      	ldrh	r4, [r4, r2]
   27198:	9e05      	ldr	r6, [sp, #20]
   2719a:	9a06      	ldr	r2, [sp, #24]
   2719c:	52b4      	strh	r4, [r6, r2]
   2719e:	9a04      	ldr	r2, [sp, #16]
   271a0:	9e00      	ldr	r6, [sp, #0]
   271a2:	00f4      	lsls	r4, r6, #3
   271a4:	9403      	str	r4, [sp, #12]
   271a6:	9c0e      	ldr	r4, [sp, #56]	@ 0x38
   271a8:	9406      	str	r4, [sp, #24]
   271aa:	1d2c      	adds	r4, r5, #4
   271ac:	429c      	cmp	r4, r3
   271ae:	d236      	bcs.n	2721e <_ZN17compiler_builtins3mem6memcpy17h1f9dbb1c3fd18e2fE+0x1d2>
   271b0:	4274      	negs	r4, r6
   271b2:	1909      	adds	r1, r1, r4
   271b4:	9105      	str	r1, [sp, #20]
   271b6:	9d03      	ldr	r5, [sp, #12]
   271b8:	4269      	negs	r1, r5
   271ba:	2418      	movs	r4, #24
   271bc:	400c      	ands	r4, r1
   271be:	9402      	str	r4, [sp, #8]
   271c0:	990a      	ldr	r1, [sp, #40]	@ 0x28
   271c2:	9104      	str	r1, [sp, #16]
   271c4:	4629      	mov	r1, r5
   271c6:	9c06      	ldr	r4, [sp, #24]
   271c8:	40cc      	lsrs	r4, r1
   271ca:	9406      	str	r4, [sp, #24]
   271cc:	9905      	ldr	r1, [sp, #20]
   271ce:	1889      	adds	r1, r1, r2
   271d0:	9101      	str	r1, [sp, #4]
   271d2:	6849      	ldr	r1, [r1, #4]
   271d4:	460c      	mov	r4, r1
   271d6:	9d02      	ldr	r5, [sp, #8]
   271d8:	40ac      	lsls	r4, r5
   271da:	9d06      	ldr	r5, [sp, #24]
   271dc:	432c      	orrs	r4, r5
   271de:	9d04      	ldr	r5, [sp, #16]
   271e0:	50ac      	str	r4, [r5, r2]
   271e2:	18ad      	adds	r5, r5, r2
   271e4:	462c      	mov	r4, r5
   271e6:	3408      	adds	r4, #8
   271e8:	429c      	cmp	r4, r3
   271ea:	d21c      	bcs.n	27226 <_ZN17compiler_builtins3mem6memcpy17h1f9dbb1c3fd18e2fE+0x1da>
   271ec:	9c03      	ldr	r4, [sp, #12]
   271ee:	40e1      	lsrs	r1, r4
   271f0:	9c01      	ldr	r4, [sp, #4]
   271f2:	68a4      	ldr	r4, [r4, #8]
   271f4:	9406      	str	r4, [sp, #24]
   271f6:	9501      	str	r5, [sp, #4]
   271f8:	9d02      	ldr	r5, [sp, #8]
   271fa:	40ac      	lsls	r4, r5
   271fc:	430c      	orrs	r4, r1
   271fe:	9901      	ldr	r1, [sp, #4]
   27200:	604c      	str	r4, [r1, #4]
   27202:	9904      	ldr	r1, [sp, #16]
   27204:	3108      	adds	r1, #8
   27206:	9104      	str	r1, [sp, #16]
   27208:	188d      	adds	r5, r1, r2
   2720a:	1d29      	adds	r1, r5, #4
   2720c:	9c05      	ldr	r4, [sp, #20]
   2720e:	3408      	adds	r4, #8
   27210:	9405      	str	r4, [sp, #20]
   27212:	4299      	cmp	r1, r3
   27214:	9903      	ldr	r1, [sp, #12]
   27216:	d3d6      	bcc.n	271c6 <_ZN17compiler_builtins3mem6memcpy17h1f9dbb1c3fd18e2fE+0x17a>
   27218:	9805      	ldr	r0, [sp, #20]
   2721a:	1880      	adds	r0, r0, r2
   2721c:	e001      	b.n	27222 <_ZN17compiler_builtins3mem6memcpy17h1f9dbb1c3fd18e2fE+0x1d6>
   2721e:	9809      	ldr	r0, [sp, #36]	@ 0x24
   27220:	1b80      	subs	r0, r0, r6
   27222:	9005      	str	r0, [sp, #20]
   27224:	e004      	b.n	27230 <_ZN17compiler_builtins3mem6memcpy17h1f9dbb1c3fd18e2fE+0x1e4>
   27226:	9801      	ldr	r0, [sp, #4]
   27228:	1d00      	adds	r0, r0, #4
   2722a:	9005      	str	r0, [sp, #20]
   2722c:	1d2d      	adds	r5, r5, #4
   2722e:	9106      	str	r1, [sp, #24]
   27230:	a80d      	add	r0, sp, #52	@ 0x34
   27232:	2100      	movs	r1, #0
   27234:	9004      	str	r0, [sp, #16]
   27236:	7001      	strb	r1, [r0, #0]
   27238:	a80c      	add	r0, sp, #48	@ 0x30
   2723a:	7001      	strb	r1, [r0, #0]
   2723c:	2e01      	cmp	r6, #1
   2723e:	460e      	mov	r6, r1
   27240:	460c      	mov	r4, r1
   27242:	9102      	str	r1, [sp, #8]
   27244:	9a0b      	ldr	r2, [sp, #44]	@ 0x2c
   27246:	d009      	beq.n	2725c <_ZN17compiler_builtins3mem6memcpy17h1f9dbb1c3fd18e2fE+0x210>
   27248:	9c05      	ldr	r4, [sp, #20]
   2724a:	7960      	ldrb	r0, [r4, #5]
   2724c:	7926      	ldrb	r6, [r4, #4]
   2724e:	ac0d      	add	r4, sp, #52	@ 0x34
   27250:	7026      	strb	r6, [r4, #0]
   27252:	0204      	lsls	r4, r0, #8
   27254:	2002      	movs	r0, #2
   27256:	9002      	str	r0, [sp, #8]
   27258:	a80c      	add	r0, sp, #48	@ 0x30
   2725a:	9004      	str	r0, [sp, #16]
   2725c:	9809      	ldr	r0, [sp, #36]	@ 0x24
   2725e:	07c0      	lsls	r0, r0, #31
   27260:	d00a      	beq.n	27278 <_ZN17compiler_builtins3mem6memcpy17h1f9dbb1c3fd18e2fE+0x22c>
   27262:	9805      	ldr	r0, [sp, #20]
   27264:	1d00      	adds	r0, r0, #4
   27266:	9902      	ldr	r1, [sp, #8]
   27268:	5c40      	ldrb	r0, [r0, r1]
   2726a:	9904      	ldr	r1, [sp, #16]
   2726c:	7008      	strb	r0, [r1, #0]
   2726e:	a80d      	add	r0, sp, #52	@ 0x34
   27270:	7806      	ldrb	r6, [r0, #0]
   27272:	a80c      	add	r0, sp, #48	@ 0x30
   27274:	7800      	ldrb	r0, [r0, #0]
   27276:	0401      	lsls	r1, r0, #16
   27278:	9605      	str	r6, [sp, #20]
   2727a:	9803      	ldr	r0, [sp, #12]
   2727c:	4240      	negs	r0, r0
   2727e:	9004      	str	r0, [sp, #16]
   27280:	2618      	movs	r6, #24
   27282:	9804      	ldr	r0, [sp, #16]
   27284:	4006      	ands	r6, r0
   27286:	430c      	orrs	r4, r1
   27288:	9905      	ldr	r1, [sp, #20]
   2728a:	430c      	orrs	r4, r1
   2728c:	40b4      	lsls	r4, r6
   2728e:	9906      	ldr	r1, [sp, #24]
   27290:	9803      	ldr	r0, [sp, #12]
   27292:	40c1      	lsrs	r1, r0
   27294:	4321      	orrs	r1, r4
   27296:	6029      	str	r1, [r5, #0]
   27298:	9c08      	ldr	r4, [sp, #32]
   2729a:	9e09      	ldr	r6, [sp, #36]	@ 0x24
   2729c:	e730      	b.n	27100 <_ZN17compiler_builtins3mem6memcpy17h1f9dbb1c3fd18e2fE+0xb4>

0002729e <__aeabi_memcpy>:
   2729e:	b580      	push	{r7, lr}
   272a0:	af00      	add	r7, sp, #0
   272a2:	f7ff fed3 	bl	2704c <_ZN17compiler_builtins3mem6memcpy17h1f9dbb1c3fd18e2fE>
   272a6:	bd80      	pop	{r7, pc}
